; ModuleID = '../../google_apis/drive/drive_api_requests.cc'
source_filename = "../../google_apis/drive/drive_api_requests.cc"
target datalayout = "e-m:e-i64:64-f80:128-n8:16:32:64-S128"
target triple = "x86_64-unknown-linux-gnu"

module asm ".symver exp, exp@GLIBC_2.2.5"
module asm ".symver exp2, exp2@GLIBC_2.2.5"
module asm ".symver exp2f, exp2f@GLIBC_2.2.5"
module asm ".symver expf, expf@GLIBC_2.2.5"
module asm ".symver lgamma, lgamma@GLIBC_2.2.5"
module asm ".symver lgammaf, lgammaf@GLIBC_2.2.5"
module asm ".symver lgammal, lgammal@GLIBC_2.2.5"
module asm ".symver log, log@GLIBC_2.2.5"
module asm ".symver log2, log2@GLIBC_2.2.5"
module asm ".symver log2f, log2f@GLIBC_2.2.5"
module asm ".symver logf, logf@GLIBC_2.2.5"
module asm ".symver pow, pow@GLIBC_2.2.5"
module asm ".symver powf, powf@GLIBC_2.2.5"

%"struct.google_apis::drive::MultipartHttpResponse" = type { i32, %"class.std::__1::basic_string" }
%"class.std::__1::basic_string" = type { %"class.std::__1::__compressed_pair" }
%"class.std::__1::__compressed_pair" = type { %"struct.std::__1::__compressed_pair_elem" }
%"struct.std::__1::__compressed_pair_elem" = type { %"struct.std::__1::basic_string<char, std::__1::char_traits<char>, std::__1::allocator<char> >::__rep" }
%"struct.std::__1::basic_string<char, std::__1::char_traits<char>, std::__1::allocator<char> >::__rep" = type { %union.anon }
%union.anon = type { %"struct.std::__1::basic_string<char, std::__1::char_traits<char>, std::__1::allocator<char> >::__long" }
%"struct.std::__1::basic_string<char, std::__1::char_traits<char>, std::__1::allocator<char> >::__long" = type { i8*, i64, i64 }
%"class.google_apis::drive::Property" = type { i32, %"class.std::__1::basic_string", %"class.std::__1::basic_string" }
%"class.google_apis::drive::DriveApiPartialFieldRequest" = type { %"class.google_apis::UrlFetchRequestBase", %"class.std::__1::basic_string" }
%"class.google_apis::UrlFetchRequestBase" = type { %"class.google_apis::AuthenticatedRequestInterface", %"class.network::SimpleURLLoaderStreamConsumer", %"class.base::RepeatingCallback", i32, %"class.std::__1::unique_ptr", %"class.google_apis::RequestSender"*, %"class.absl::optional", %"class.base::RepeatingCallback.42", %"class.base::RepeatingCallback.42", %"class.std::__1::unique_ptr.43", i64, %"class.base::ThreadChecker", %"class.base::WeakPtrFactory.50" }
%"class.google_apis::AuthenticatedRequestInterface" = type { i32 (...)** }
%"class.network::SimpleURLLoaderStreamConsumer" = type { i32 (...)** }
%"class.base::RepeatingCallback" = type { %"class.base::internal::CallbackBaseCopyable" }
%"class.base::internal::CallbackBaseCopyable" = type { %"class.base::internal::CallbackBase" }
%"class.base::internal::CallbackBase" = type { %class.scoped_refptr }
%class.scoped_refptr = type { %"class.base::internal::BindStateBase"* }
%"class.base::internal::BindStateBase" = type { %"class.base::RefCountedThreadSafe", void ()*, void (%"class.base::internal::BindStateBase"*)*, i1 (%"class.base::internal::BindStateBase"*, i32)* }
%"class.base::RefCountedThreadSafe" = type { %"class.base::subtle::RefCountedThreadSafeBase" }
%"class.base::subtle::RefCountedThreadSafeBase" = type { %"class.base::AtomicRefCount" }
%"class.base::AtomicRefCount" = type { %"struct.std::__1::atomic" }
%"struct.std::__1::atomic" = type { %"struct.std::__1::__atomic_base" }
%"struct.std::__1::__atomic_base" = type { %"struct.std::__1::__atomic_base.13" }
%"struct.std::__1::__atomic_base.13" = type { %"struct.std::__1::__cxx_atomic_impl" }
%"struct.std::__1::__cxx_atomic_impl" = type { %"struct.std::__1::__cxx_atomic_base_impl" }
%"struct.std::__1::__cxx_atomic_base_impl" = type { i32 }
%"class.std::__1::unique_ptr" = type { %"class.std::__1::__compressed_pair.14" }
%"class.std::__1::__compressed_pair.14" = type { %"struct.std::__1::__compressed_pair_elem.15" }
%"struct.std::__1::__compressed_pair_elem.15" = type { %"class.network::SimpleURLLoader"* }
%"class.network::SimpleURLLoader" = type { i32 (...)** }
%"class.google_apis::RequestSender" = type { %"class.std::__1::unique_ptr.17", %class.scoped_refptr.23, %class.scoped_refptr.24, %"class.std::__1::set", %"class.std::__1::basic_string", %"class.base::ThreadChecker", %"struct.net::NetworkTrafficAnnotationTag", %"class.base::WeakPtrFactory" }
%"class.std::__1::unique_ptr.17" = type { %"class.std::__1::__compressed_pair.18" }
%"class.std::__1::__compressed_pair.18" = type { %"struct.std::__1::__compressed_pair_elem.19" }
%"struct.std::__1::__compressed_pair_elem.19" = type { %"class.google_apis::AuthServiceInterface"* }
%"class.google_apis::AuthServiceInterface" = type opaque
%class.scoped_refptr.23 = type { %"class.network::SharedURLLoaderFactory"* }
%"class.network::SharedURLLoaderFactory" = type <{ %"class.network::mojom::URLLoaderFactory", %"class.base::RefCounted", [4 x i8] }>
%"class.network::mojom::URLLoaderFactory" = type { i32 (...)** }
%"class.base::RefCounted" = type { %"class.base::subtle::RefCountedBase" }
%"class.base::subtle::RefCountedBase" = type { i32 }
%class.scoped_refptr.24 = type { %"class.base::SequencedTaskRunner"* }
%"class.base::SequencedTaskRunner" = type { %"class.base::TaskRunner.base", [4 x i8] }
%"class.base::TaskRunner.base" = type <{ i32 (...)**, %"class.base::RefCountedThreadSafe.25" }>
%"class.base::RefCountedThreadSafe.25" = type { %"class.base::subtle::RefCountedThreadSafeBase" }
%"class.std::__1::set" = type { %"class.std::__1::__tree" }
%"class.std::__1::__tree" = type { %"class.std::__1::__tree_end_node"*, %"class.std::__1::__compressed_pair.26", %"class.std::__1::__compressed_pair.31" }
%"class.std::__1::__tree_end_node" = type { %"class.std::__1::__tree_node_base"* }
%"class.std::__1::__tree_node_base" = type <{ %"class.std::__1::__tree_end_node", %"class.std::__1::__tree_node_base"*, %"class.std::__1::__tree_end_node"*, i8, [7 x i8] }>
%"class.std::__1::__compressed_pair.26" = type { %"struct.std::__1::__compressed_pair_elem.27" }
%"struct.std::__1::__compressed_pair_elem.27" = type { %"class.std::__1::__tree_end_node" }
%"class.std::__1::__compressed_pair.31" = type { %"struct.std::__1::__compressed_pair_elem.32" }
%"struct.std::__1::__compressed_pair_elem.32" = type { i64 }
%"struct.net::NetworkTrafficAnnotationTag" = type { i32 }
%"class.base::WeakPtrFactory" = type { %"class.base::internal::WeakPtrFactoryBase" }
%"class.base::internal::WeakPtrFactoryBase" = type { %"class.base::internal::WeakReferenceOwner", i64 }
%"class.base::internal::WeakReferenceOwner" = type { %class.scoped_refptr.34 }
%class.scoped_refptr.34 = type { %"class.base::internal::WeakReference::Flag"* }
%"class.base::internal::WeakReference::Flag" = type <{ %"class.base::RefCountedThreadSafe.35", %"class.base::AtomicFlag", [3 x i8] }>
%"class.base::RefCountedThreadSafe.35" = type { %"class.base::subtle::RefCountedThreadSafeBase" }
%"class.base::AtomicFlag" = type { %"struct.std::__1::atomic.36" }
%"struct.std::__1::atomic.36" = type { %"struct.std::__1::__atomic_base.37" }
%"struct.std::__1::__atomic_base.37" = type { %"struct.std::__1::__atomic_base.38" }
%"struct.std::__1::__atomic_base.38" = type { %"struct.std::__1::__cxx_atomic_impl.39" }
%"struct.std::__1::__cxx_atomic_impl.39" = type { %"struct.std::__1::__cxx_atomic_base_impl.40" }
%"struct.std::__1::__cxx_atomic_base_impl.40" = type { i8 }
%"class.absl::optional" = type { %"class.absl::optional_internal::optional_data" }
%"class.absl::optional_internal::optional_data" = type { %"class.absl::optional_internal::optional_data_base" }
%"class.absl::optional_internal::optional_data_base" = type { %"class.absl::optional_internal::optional_data_dtor_base" }
%"class.absl::optional_internal::optional_data_dtor_base" = type { i8, %union.anon.41 }
%union.anon.41 = type { i32 }
%"class.base::RepeatingCallback.42" = type { %"class.base::internal::CallbackBaseCopyable" }
%"class.std::__1::unique_ptr.43" = type { %"class.std::__1::__compressed_pair.44" }
%"class.std::__1::__compressed_pair.44" = type { %"struct.std::__1::__compressed_pair_elem.45" }
%"struct.std::__1::__compressed_pair_elem.45" = type { %"struct.google_apis::UrlFetchRequestBase::DownloadData"* }
%"struct.google_apis::UrlFetchRequestBase::DownloadData" = type { %"class.base::File", %"class.base::FilePath", %"class.base::RepeatingCallback.46", %"class.std::__1::basic_string", %class.scoped_refptr.24 }
%"class.base::File" = type <{ %"class.base::ScopedGeneric", %"class.base::FilePath", %"class.base::FileTracing::ScopedEnabler", [3 x i8], i32, i8, i8, [6 x i8] }>
%"class.base::ScopedGeneric" = type <{ i32 (...)**, %"struct.base::ScopedGeneric<int, base::internal::ScopedFDCloseTraits>::Data", i8, [3 x i8] }>
%"struct.base::ScopedGeneric<int, base::internal::ScopedFDCloseTraits>::Data" = type { i32 }
%"class.base::FileTracing::ScopedEnabler" = type { i8 }
%"class.base::FilePath" = type { %"class.std::__1::basic_string" }
%"class.base::RepeatingCallback.46" = type { %"class.base::internal::CallbackBaseCopyable" }
%"class.base::ThreadChecker" = type { i8 }
%"class.base::WeakPtrFactory.50" = type { %"class.base::internal::WeakPtrFactoryBase" }
%"class.google_apis::drive::FilesGetRequest" = type { %"class.google_apis::drive::DriveApiDataRequest", %"class.google_apis::DriveApiUrlGenerator", %"class.std::__1::basic_string", %class.GURL }
%"class.google_apis::drive::DriveApiDataRequest" = type { %"class.google_apis::drive::DriveApiPartialFieldRequest", %"class.base::OnceCallback", %"class.base::WeakPtrFactory.57" }
%"class.base::OnceCallback" = type { %"class.base::internal::CallbackBase" }
%"class.base::WeakPtrFactory.57" = type { %"class.base::internal::WeakPtrFactoryBase" }
%"class.google_apis::DriveApiUrlGenerator" = type { %class.GURL, %class.GURL, %class.GURL }
%class.GURL = type { %"class.std::__1::basic_string", i8, %"struct.url::Parsed", %"class.std::__1::unique_ptr.51" }
%"struct.url::Parsed" = type { %"struct.url::Component", %"struct.url::Component", %"struct.url::Component", %"struct.url::Component", %"struct.url::Component", %"struct.url::Component", %"struct.url::Component", %"struct.url::Component", i8, %"struct.url::Parsed"* }
%"struct.url::Component" = type { i32, i32 }
%"class.std::__1::unique_ptr.51" = type { %"class.std::__1::__compressed_pair.52" }
%"class.std::__1::__compressed_pair.52" = type { %"struct.std::__1::__compressed_pair_elem.53" }
%"struct.std::__1::__compressed_pair_elem.53" = type { %class.GURL* }
%"class.google_apis::drive::FilesInsertRequest" = type { %"class.google_apis::drive::DriveApiDataRequest", %"class.google_apis::DriveApiUrlGenerator", i32, %"class.base::Time", %"class.std::__1::basic_string", %"class.base::Time", %"class.std::__1::vector.58", %"class.std::__1::basic_string", %"class.std::__1::vector.65" }
%"class.base::Time" = type { %"class.base::time_internal::TimeBase" }
%"class.base::time_internal::TimeBase" = type { i64 }
%"class.std::__1::vector.58" = type { %"class.std::__1::__vector_base.59" }
%"class.std::__1::__vector_base.59" = type { %"class.std::__1::basic_string"*, %"class.std::__1::basic_string"*, %"class.std::__1::__compressed_pair.60" }
%"class.std::__1::__compressed_pair.60" = type { %"struct.std::__1::__compressed_pair_elem.61" }
%"struct.std::__1::__compressed_pair_elem.61" = type { %"class.std::__1::basic_string"* }
%"class.std::__1::vector.65" = type { %"class.std::__1::__vector_base.66" }
%"class.std::__1::__vector_base.66" = type { %"class.google_apis::drive::Property"*, %"class.google_apis::drive::Property"*, %"class.std::__1::__compressed_pair.67" }
%"class.std::__1::__compressed_pair.67" = type { %"struct.std::__1::__compressed_pair_elem.68" }
%"struct.std::__1::__compressed_pair_elem.68" = type { %"class.google_apis::drive::Property"* }
%"class.google_apis::drive::FilesPatchRequest" = type { %"class.google_apis::drive::DriveApiDataRequest", %"class.google_apis::DriveApiUrlGenerator", %"class.std::__1::basic_string", i8, i8, %"class.std::__1::basic_string", %"class.base::Time", %"class.base::Time", %"class.std::__1::vector.58", %"class.std::__1::vector.65" }
%"class.google_apis::drive::FilesCopyRequest" = type { %"class.google_apis::drive::DriveApiDataRequest", %"class.google_apis::DriveApiUrlGenerator", %"class.std::__1::basic_string", i32, %"class.base::Time", %"class.std::__1::vector.58", %"class.std::__1::basic_string" }
%"class.google_apis::drive::TeamDriveListRequest" = type { %"class.google_apis::drive::DriveApiDataRequest.118", %"class.google_apis::DriveApiUrlGenerator", i32, %"class.std::__1::basic_string" }
%"class.google_apis::drive::DriveApiDataRequest.118" = type { %"class.google_apis::drive::DriveApiPartialFieldRequest", %"class.base::OnceCallback.119", %"class.base::WeakPtrFactory.120" }
%"class.base::OnceCallback.119" = type { %"class.base::internal::CallbackBase" }
%"class.base::WeakPtrFactory.120" = type { %"class.base::internal::WeakPtrFactoryBase" }
%"class.google_apis::drive::StartPageTokenRequest" = type { %"class.google_apis::drive::DriveApiDataRequest.121", %"class.google_apis::DriveApiUrlGenerator", %"class.std::__1::basic_string" }
%"class.google_apis::drive::DriveApiDataRequest.121" = type { %"class.google_apis::drive::DriveApiPartialFieldRequest", %"class.base::OnceCallback.122", %"class.base::WeakPtrFactory.123" }
%"class.base::OnceCallback.122" = type { %"class.base::internal::CallbackBase" }
%"class.base::WeakPtrFactory.123" = type { %"class.base::internal::WeakPtrFactoryBase" }
%"class.google_apis::drive::FilesListRequest" = type { %"class.google_apis::drive::DriveApiDataRequest.124", %"class.google_apis::DriveApiUrlGenerator", i32, %"class.std::__1::basic_string", i32, %"class.std::__1::basic_string", %"class.std::__1::basic_string" }
%"class.google_apis::drive::DriveApiDataRequest.124" = type { %"class.google_apis::drive::DriveApiPartialFieldRequest", %"class.base::OnceCallback.125", %"class.base::WeakPtrFactory.126" }
%"class.base::OnceCallback.125" = type { %"class.base::internal::CallbackBase" }
%"class.base::WeakPtrFactory.126" = type { %"class.base::internal::WeakPtrFactoryBase" }
%"class.google_apis::drive::FilesListNextPageRequest" = type { %"class.google_apis::drive::DriveApiDataRequest.124", %class.GURL }
%"class.google_apis::drive::FilesDeleteRequest" = type { %"class.google_apis::EntryActionRequest", %"class.google_apis::DriveApiUrlGenerator", %"class.std::__1::basic_string", %"class.std::__1::basic_string" }
%"class.google_apis::EntryActionRequest" = type { %"class.google_apis::UrlFetchRequestBase", %"class.base::OnceCallback.127" }
%"class.base::OnceCallback.127" = type { %"class.base::internal::CallbackBase" }
%"class.google_apis::drive::FilesTrashRequest" = type { %"class.google_apis::drive::DriveApiDataRequest", %"class.google_apis::DriveApiUrlGenerator", %"class.std::__1::basic_string" }
%"class.google_apis::drive::AboutGetRequest" = type { %"class.google_apis::drive::DriveApiDataRequest.128", %"class.google_apis::DriveApiUrlGenerator" }
%"class.google_apis::drive::DriveApiDataRequest.128" = type { %"class.google_apis::drive::DriveApiPartialFieldRequest", %"class.base::OnceCallback.129", %"class.base::WeakPtrFactory.130" }
%"class.base::OnceCallback.129" = type { %"class.base::internal::CallbackBase" }
%"class.base::WeakPtrFactory.130" = type { %"class.base::internal::WeakPtrFactoryBase" }
%"class.google_apis::drive::ChangesListRequest" = type { %"class.google_apis::drive::DriveApiDataRequest.131", %"class.google_apis::DriveApiUrlGenerator", i8, i32, %"class.std::__1::basic_string", i64, %"class.std::__1::basic_string" }
%"class.google_apis::drive::DriveApiDataRequest.131" = type { %"class.google_apis::drive::DriveApiPartialFieldRequest", %"class.base::OnceCallback.132", %"class.base::WeakPtrFactory.133" }
%"class.base::OnceCallback.132" = type { %"class.base::internal::CallbackBase" }
%"class.base::WeakPtrFactory.133" = type { %"class.base::internal::WeakPtrFactoryBase" }
%"class.google_apis::drive::ChangesListNextPageRequest" = type { %"class.google_apis::drive::DriveApiDataRequest.131", %class.GURL }
%"class.google_apis::drive::ChildrenInsertRequest" = type { %"class.google_apis::EntryActionRequest", %"class.google_apis::DriveApiUrlGenerator", %"class.std::__1::basic_string", %"class.std::__1::basic_string" }
%"class.google_apis::drive::ChildrenDeleteRequest" = type { %"class.google_apis::EntryActionRequest", %"class.google_apis::DriveApiUrlGenerator", %"class.std::__1::basic_string", %"class.std::__1::basic_string" }
%"class.google_apis::drive::InitiateUploadNewFileRequest" = type { %"class.google_apis::InitiateUploadRequestBase", %"class.google_apis::DriveApiUrlGenerator", %"class.std::__1::basic_string", %"class.std::__1::basic_string", %"class.base::Time", %"class.base::Time", %"class.std::__1::vector.65" }
%"class.google_apis::InitiateUploadRequestBase" = type { %"class.google_apis::UrlFetchRequestBase", %"class.base::OnceCallback.134", %"class.std::__1::basic_string", i64 }
%"class.base::OnceCallback.134" = type { %"class.base::internal::CallbackBase" }
%"class.google_apis::drive::InitiateUploadExistingFileRequest" = type { %"class.google_apis::InitiateUploadRequestBase", %"class.google_apis::DriveApiUrlGenerator", %"class.std::__1::basic_string", %"class.std::__1::basic_string", %"class.std::__1::basic_string", %"class.std::__1::basic_string", %"class.base::Time", %"class.base::Time", %"class.std::__1::vector.65" }
%"class.google_apis::drive::ResumeUploadRequest" = type { %"class.google_apis::ResumeUploadRequestBase", %"class.base::OnceCallback.136" }
%"class.google_apis::ResumeUploadRequestBase" = type { %"class.google_apis::UploadRangeRequestBase", i64, i64, i64, %"class.std::__1::basic_string", %"class.base::FilePath" }
%"class.google_apis::UploadRangeRequestBase" = type { %"class.google_apis::UrlFetchRequestBase", %class.GURL, %"class.base::WeakPtrFactory.135" }
%"class.base::WeakPtrFactory.135" = type { %"class.base::internal::WeakPtrFactoryBase" }
%"class.base::OnceCallback.136" = type { %"class.base::internal::CallbackBase" }
%"class.google_apis::drive::GetUploadStatusRequest" = type { %"class.google_apis::GetUploadStatusRequestBase", %"class.base::OnceCallback.136" }
%"class.google_apis::GetUploadStatusRequestBase" = type { %"class.google_apis::UploadRangeRequestBase", i64 }
%"class.google_apis::drive::MultipartUploadNewFileDelegate" = type { %"class.google_apis::MultipartUploadRequestBase", i8, %"class.google_apis::DriveApiUrlGenerator" }
%"class.google_apis::MultipartUploadRequestBase" = type { %"class.google_apis::BatchableDelegate", %class.scoped_refptr.24, %"class.std::__1::basic_string", %"class.std::__1::basic_string", %"class.base::FilePath", %"class.base::OnceCallback", %"class.base::RepeatingCallback.42", %"class.std::__1::basic_string", %"class.std::__1::basic_string", %"class.std::__1::basic_string", %"class.base::ThreadChecker", %"class.base::WeakPtrFactory.137" }
%"class.google_apis::BatchableDelegate" = type { i32 (...)** }
%"class.base::WeakPtrFactory.137" = type { %"class.base::internal::WeakPtrFactoryBase" }
%"class.google_apis::drive::MultipartUploadExistingFileDelegate" = type { %"class.google_apis::MultipartUploadRequestBase", %"class.std::__1::basic_string", %"class.std::__1::basic_string", i8, %"class.google_apis::DriveApiUrlGenerator" }
%"class.google_apis::drive::DownloadFileRequest" = type { %"class.google_apis::DownloadFileRequestBase" }
%"class.google_apis::DownloadFileRequestBase" = type { %"class.google_apis::UrlFetchRequestBase", %"class.base::OnceCallback.138", %"class.base::RepeatingCallback.46", %class.GURL, %"class.base::FilePath" }
%"class.base::OnceCallback.138" = type { %"class.base::internal::CallbackBase" }
%"class.google_apis::drive::PermissionsInsertRequest" = type { %"class.google_apis::EntryActionRequest", %"class.google_apis::DriveApiUrlGenerator", %"class.std::__1::basic_string", i32, i32, %"class.std::__1::basic_string" }
%"class.google_apis::drive::SingleBatchableDelegateRequest" = type { %"class.google_apis::UrlFetchRequestBase", %"class.std::__1::unique_ptr.139", %"class.base::WeakPtrFactory.145" }
%"class.std::__1::unique_ptr.139" = type { %"class.std::__1::__compressed_pair.140" }
%"class.std::__1::__compressed_pair.140" = type { %"struct.std::__1::__compressed_pair_elem.141" }
%"struct.std::__1::__compressed_pair_elem.141" = type { %"class.google_apis::BatchableDelegate"* }
%"class.base::WeakPtrFactory.145" = type { %"class.base::internal::WeakPtrFactoryBase" }
%"class.google_apis::drive::BatchUploadChildEntry" = type { %"class.std::__1::unique_ptr.139", i8, i64, i64 }
%"class.google_apis::drive::BatchUploadRequest" = type { %"class.google_apis::UrlFetchRequestBase", %"class.google_apis::RequestSender"*, %"class.google_apis::DriveApiUrlGenerator", %"class.std::__1::vector.340", %"class.base::OnceCallback.127", i8, %"class.std::__1::basic_string", %"struct.google_apis::ContentTypeAndData", i64, %"class.base::WeakPtrFactory.353" }
%"class.std::__1::vector.340" = type { %"class.std::__1::__vector_base.341" }
%"class.std::__1::__vector_base.341" = type { %"class.std::__1::unique_ptr.342"*, %"class.std::__1::unique_ptr.342"*, %"class.std::__1::__compressed_pair.348" }
%"class.std::__1::unique_ptr.342" = type { %"class.std::__1::__compressed_pair.343" }
%"class.std::__1::__compressed_pair.343" = type { %"struct.std::__1::__compressed_pair_elem.344" }
%"struct.std::__1::__compressed_pair_elem.344" = type { %"class.google_apis::drive::BatchUploadChildEntry"* }
%"class.std::__1::__compressed_pair.348" = type { %"struct.std::__1::__compressed_pair_elem.349" }
%"struct.std::__1::__compressed_pair_elem.349" = type { %"class.std::__1::unique_ptr.342"* }
%"struct.google_apis::ContentTypeAndData" = type { %"class.std::__1::basic_string", %"class.std::__1::basic_string" }
%"class.base::WeakPtrFactory.353" = type { %"class.base::internal::WeakPtrFactoryBase" }
%"struct.std::__1::basic_string<char, std::__1::char_traits<char>, std::__1::allocator<char> >::__short" = type { [23 x i8], %struct.anon }
%struct.anon = type { i8 }
%"class.std::__1::vector" = type { %"class.std::__1::__vector_base" }
%"class.std::__1::__vector_base" = type { %"struct.google_apis::drive::MultipartHttpResponse"*, %"struct.google_apis::drive::MultipartHttpResponse"*, %"class.std::__1::__compressed_pair.1" }
%"class.std::__1::__compressed_pair.1" = type { %"struct.std::__1::__compressed_pair_elem.2" }
%"struct.std::__1::__compressed_pair_elem.2" = type { %"struct.google_apis::drive::MultipartHttpResponse"* }
%"class.base::BasicStringPiece" = type { i8*, i64 }
%"class.std::__1::vector.6" = type { %"class.std::__1::__vector_base.7" }
%"class.std::__1::__vector_base.7" = type { %"class.base::BasicStringPiece"*, %"class.base::BasicStringPiece"*, %"class.std::__1::__compressed_pair.8" }
%"class.std::__1::__compressed_pair.8" = type { %"struct.std::__1::__compressed_pair_elem.9" }
%"struct.std::__1::__compressed_pair_elem.9" = type { %"class.base::BasicStringPiece"* }
%"class.std::__1::__basic_string_common" = type { i8 }
%"class.base::DictionaryValue" = type { %"class.base::Value" }
%"class.base::Value" = type { %"class.absl::variant" }
%"class.absl::variant" = type { %"class.absl::variant_internal::VariantCopyAssignBaseNontrivial" }
%"class.absl::variant_internal::VariantCopyAssignBaseNontrivial" = type { %"class.absl::variant_internal::VariantMoveAssignBaseNontrivial" }
%"class.absl::variant_internal::VariantMoveAssignBaseNontrivial" = type { %"class.absl::variant_internal::VariantCopyBaseNontrivial" }
%"class.absl::variant_internal::VariantCopyBaseNontrivial" = type { %"class.absl::variant_internal::VariantMoveBaseNontrivial" }
%"class.absl::variant_internal::VariantMoveBaseNontrivial" = type { %"class.absl::variant_internal::VariantStateBaseDestructorNontrivial" }
%"class.absl::variant_internal::VariantStateBaseDestructorNontrivial" = type { %"class.absl::variant_internal::VariantStateBase" }
%"class.absl::variant_internal::VariantStateBase" = type { %"union.absl::variant_internal::DestructibleUnionImpl", i64 }
%"union.absl::variant_internal::DestructibleUnionImpl" = type { %"union.absl::variant_internal::DestructibleUnionImpl.72" }
%"union.absl::variant_internal::DestructibleUnionImpl.72" = type { %"union.absl::variant_internal::DestructibleUnionImpl.73" }
%"union.absl::variant_internal::DestructibleUnionImpl.73" = type { %"union.absl::variant_internal::DestructibleUnionImpl.74" }
%"union.absl::variant_internal::DestructibleUnionImpl.74" = type { %"union.absl::variant_internal::DestructibleUnionImpl.75" }
%"union.absl::variant_internal::DestructibleUnionImpl.75" = type { %"class.std::__1::basic_string" }
%"class.base::ListValue" = type { %"class.base::Value" }
%"struct.google_apis::UploadRangeResponse" = type { i32, i64, i64 }
%"class.std::__1::unique_ptr.383" = type { %"class.std::__1::__compressed_pair.384" }
%"class.std::__1::__compressed_pair.384" = type { %"struct.std::__1::__compressed_pair_elem.385" }
%"struct.std::__1::__compressed_pair_elem.385" = type { %"class.google_apis::FileResource"* }
%"class.google_apis::FileResource" = type { %"class.std::__1::basic_string", %"class.std::__1::basic_string", %"class.std::__1::basic_string", %"class.std::__1::basic_string", %"class.google_apis::FileLabels", %"class.google_apis::ImageMediaMetadata", %"class.base::Time", %"class.base::Time", %"class.base::Time", %"class.base::Time", %"class.base::Time", i8, %"class.std::__1::basic_string", i64, %class.GURL, %class.GURL, %"class.std::__1::vector.386", %"class.std::__1::vector.393", %"class.google_apis::FileResourceCapabilities", %"class.std::__1::basic_string" }
%"class.google_apis::FileLabels" = type { i8, i8 }
%"class.google_apis::ImageMediaMetadata" = type { i32, i32, i32 }
%"class.std::__1::vector.386" = type { %"class.std::__1::__vector_base.387" }
%"class.std::__1::__vector_base.387" = type { %"class.google_apis::ParentReference"*, %"class.google_apis::ParentReference"*, %"class.std::__1::__compressed_pair.388" }
%"class.google_apis::ParentReference" = type { %"class.std::__1::basic_string" }
%"class.std::__1::__compressed_pair.388" = type { %"struct.std::__1::__compressed_pair_elem.389" }
%"struct.std::__1::__compressed_pair_elem.389" = type { %"class.google_apis::ParentReference"* }
%"class.std::__1::vector.393" = type { %"class.std::__1::__vector_base.394" }
%"class.std::__1::__vector_base.394" = type { %"struct.google_apis::FileResource::OpenWithLink"*, %"struct.google_apis::FileResource::OpenWithLink"*, %"class.std::__1::__compressed_pair.395" }
%"struct.google_apis::FileResource::OpenWithLink" = type { %"class.std::__1::basic_string", %class.GURL }
%"class.std::__1::__compressed_pair.395" = type { %"struct.std::__1::__compressed_pair_elem.396" }
%"struct.std::__1::__compressed_pair_elem.396" = type { %"struct.google_apis::FileResource::OpenWithLink"* }
%"class.google_apis::FileResourceCapabilities" = type { i8, i8, i8, i8, i8, i8, i8, i8, i8, i8, i8, i8, i8, i8, i8, i8, i8 }
%"class.network::mojom::URLResponseHead" = type <{ %"class.base::Time", %"class.base::Time", %class.scoped_refptr.146, %"class.std::__1::basic_string", %"class.std::__1::basic_string", i32, [4 x i8], i64, i64, i64, i8, [7 x i8], i64, %class.GURL, %"struct.net::LoadTimingInfo", %"class.mojo::StructPtr", i8, i8, i8, i8, i32, %"class.std::__1::basic_string", %"class.net::IPEndPoint", i8, i8, [2 x i8], %"class.net::ProxyServer", i8, [3 x i8], i32, %"class.std::__1::vector.169", i32, [4 x i8], i64, %"class.std::__1::basic_string", i32, [4 x i8], %"class.absl::optional.175", %"class.std::__1::vector.58", i8, i8, i8, i8, i8, i8, i8, i8, i8, i8, i8, [5 x i8], %"class.absl::optional.210", %"class.base::TimeTicks", %"class.base::TimeTicks", %"class.mojo::StructPtr.220", %"class.absl::optional.322", %"class.absl::optional.333", %"class.std::__1::vector.58", %class.GURL, i8, [7 x i8] }>
%class.scoped_refptr.146 = type { %"class.net::HttpResponseHeaders"* }
%"class.net::HttpResponseHeaders" = type { %"class.base::RefCountedThreadSafe.147", %"class.std::__1::vector.148", %"class.std::__1::basic_string", i32, %"class.net::HttpVersion" }
%"class.base::RefCountedThreadSafe.147" = type { %"class.base::subtle::RefCountedThreadSafeBase" }
%"class.std::__1::vector.148" = type { %"class.std::__1::__vector_base.149" }
%"class.std::__1::__vector_base.149" = type { %"struct.net::HttpResponseHeaders::ParsedHeader"*, %"struct.net::HttpResponseHeaders::ParsedHeader"*, %"class.std::__1::__compressed_pair.150" }
%"struct.net::HttpResponseHeaders::ParsedHeader" = type opaque
%"class.std::__1::__compressed_pair.150" = type { %"struct.std::__1::__compressed_pair_elem.151" }
%"struct.std::__1::__compressed_pair_elem.151" = type { %"struct.net::HttpResponseHeaders::ParsedHeader"* }
%"class.net::HttpVersion" = type { i32 }
%"struct.net::LoadTimingInfo" = type { i8, i32, %"class.base::Time", %"class.base::TimeTicks", %"class.base::TimeTicks", %"class.base::TimeTicks", %"class.base::TimeTicks", %"class.base::TimeTicks", %"class.base::TimeTicks", %"class.base::TimeTicks", %"struct.net::LoadTimingInfo::ConnectTiming", %"class.base::TimeTicks", %"class.base::TimeTicks", %"class.base::TimeTicks", %"class.base::TimeTicks", %"class.base::TimeTicks", %"class.base::TimeTicks", %"class.base::TimeTicks", %"class.base::TimeTicks" }
%"struct.net::LoadTimingInfo::ConnectTiming" = type { %"class.base::TimeTicks", %"class.base::TimeTicks", %"class.base::TimeTicks", %"class.base::TimeTicks", %"class.base::TimeTicks", %"class.base::TimeTicks" }
%"class.mojo::StructPtr" = type { %"class.std::__1::unique_ptr.156" }
%"class.std::__1::unique_ptr.156" = type { %"class.std::__1::__compressed_pair.157" }
%"class.std::__1::__compressed_pair.157" = type { %"struct.std::__1::__compressed_pair_elem.158" }
%"struct.std::__1::__compressed_pair_elem.158" = type { %"class.network::mojom::HttpRawRequestResponseInfo"* }
%"class.network::mojom::HttpRawRequestResponseInfo" = type { i32, %"class.std::__1::basic_string", %"class.std::__1::vector.159", %"class.std::__1::vector.159", %"class.std::__1::basic_string", %"class.std::__1::basic_string" }
%"class.std::__1::vector.159" = type { %"class.std::__1::__vector_base.160" }
%"class.std::__1::__vector_base.160" = type { %"class.mojo::InlinedStructPtr"*, %"class.mojo::InlinedStructPtr"*, %"class.std::__1::__compressed_pair.161" }
%"class.mojo::InlinedStructPtr" = type <{ %"class.network::mojom::HttpRawHeaderPair", i32, [4 x i8] }>
%"class.network::mojom::HttpRawHeaderPair" = type { %"class.std::__1::basic_string", %"class.std::__1::basic_string" }
%"class.std::__1::__compressed_pair.161" = type { %"struct.std::__1::__compressed_pair_elem.162" }
%"struct.std::__1::__compressed_pair_elem.162" = type { %"class.mojo::InlinedStructPtr"* }
%"class.net::IPEndPoint" = type { %"class.net::IPAddress", i16 }
%"class.net::IPAddress" = type { %"class.net::IPAddressBytes" }
%"class.net::IPAddressBytes" = type { %"struct.std::__1::array", i8 }
%"struct.std::__1::array" = type { [16 x i8] }
%"class.net::ProxyServer" = type { i32, [4 x i8], %"class.net::HostPortPair" }
%"class.net::HostPortPair" = type <{ %"class.std::__1::basic_string", i16, [6 x i8] }>
%"class.std::__1::vector.169" = type { %"class.std::__1::__vector_base.170" }
%"class.std::__1::__vector_base.170" = type { %class.GURL*, %class.GURL*, %"class.std::__1::__compressed_pair.171" }
%"class.std::__1::__compressed_pair.171" = type { %"struct.std::__1::__compressed_pair_elem.53" }
%"class.absl::optional.175" = type { %"class.absl::optional_internal::optional_data.176" }
%"class.absl::optional_internal::optional_data.176" = type { %"class.absl::optional_internal::optional_data_base.177" }
%"class.absl::optional_internal::optional_data_base.177" = type { %"class.absl::optional_internal::optional_data_dtor_base.178" }
%"class.absl::optional_internal::optional_data_dtor_base.178" = type { i8, [7 x i8], %union.anon.179 }
%union.anon.179 = type { %"class.net::SSLInfo" }
%"class.net::SSLInfo" = type <{ %class.scoped_refptr.180, %class.scoped_refptr.180, i32, i16, i16, i32, i8, i8, i8, i8, i32, [4 x i8], %"class.std::__1::vector.193", %"class.std::__1::basic_string", %"class.std::__1::vector.201", i32, %"struct.net::OCSPVerifyResult", i8, [3 x i8] }>
%class.scoped_refptr.180 = type { %"class.net::X509Certificate"* }
%"class.net::X509Certificate" = type { %"class.base::RefCountedThreadSafe.181", %"struct.net::CertPrincipal", %"struct.net::CertPrincipal", %"class.base::Time", %"class.base::Time", %"class.std::__1::basic_string", %"class.std::__1::unique_ptr.182", %"class.std::__1::vector.186" }
%"class.base::RefCountedThreadSafe.181" = type { %"class.base::subtle::RefCountedThreadSafeBase" }
%"struct.net::CertPrincipal" = type { %"class.std::__1::basic_string", %"class.std::__1::basic_string", %"class.std::__1::basic_string", %"class.std::__1::basic_string", %"class.std::__1::vector.58", %"class.std::__1::vector.58", %"class.std::__1::vector.58", %"class.std::__1::vector.58" }
%"class.std::__1::unique_ptr.182" = type { %"class.std::__1::__compressed_pair.183" }
%"class.std::__1::__compressed_pair.183" = type { %"struct.std::__1::__compressed_pair_elem.184" }
%"struct.std::__1::__compressed_pair_elem.184" = type { %struct.crypto_buffer_st* }
%struct.crypto_buffer_st = type opaque
%"class.std::__1::vector.186" = type { %"class.std::__1::__vector_base.187" }
%"class.std::__1::__vector_base.187" = type { %"class.std::__1::unique_ptr.182"*, %"class.std::__1::unique_ptr.182"*, %"class.std::__1::__compressed_pair.188" }
%"class.std::__1::__compressed_pair.188" = type { %"struct.std::__1::__compressed_pair_elem.189" }
%"struct.std::__1::__compressed_pair_elem.189" = type { %"class.std::__1::unique_ptr.182"* }
%"class.std::__1::vector.193" = type { %"class.std::__1::__vector_base.194" }
%"class.std::__1::__vector_base.194" = type { %"class.net::HashValue"*, %"class.net::HashValue"*, %"class.std::__1::__compressed_pair.196" }
%"class.net::HashValue" = type { i32, %union.anon.195 }
%union.anon.195 = type { %"struct.net::SHA256HashValue" }
%"struct.net::SHA256HashValue" = type { [32 x i8] }
%"class.std::__1::__compressed_pair.196" = type { %"struct.std::__1::__compressed_pair_elem.197" }
%"struct.std::__1::__compressed_pair_elem.197" = type { %"class.net::HashValue"* }
%"class.std::__1::vector.201" = type { %"class.std::__1::__vector_base.202" }
%"class.std::__1::__vector_base.202" = type { %"struct.net::SignedCertificateTimestampAndStatus"*, %"struct.net::SignedCertificateTimestampAndStatus"*, %"class.std::__1::__compressed_pair.205" }
%"struct.net::SignedCertificateTimestampAndStatus" = type <{ %class.scoped_refptr.203, i32, [4 x i8] }>
%class.scoped_refptr.203 = type { %"struct.net::ct::SignedCertificateTimestamp"* }
%"struct.net::ct::SignedCertificateTimestamp" = type { %"class.base::RefCountedThreadSafe.204", i32, %"class.std::__1::basic_string", %"class.base::Time", %"class.std::__1::basic_string", %"struct.net::ct::DigitallySigned", i32, %"class.std::__1::basic_string" }
%"class.base::RefCountedThreadSafe.204" = type { %"class.base::subtle::RefCountedThreadSafeBase" }
%"struct.net::ct::DigitallySigned" = type { i32, i32, %"class.std::__1::basic_string" }
%"class.std::__1::__compressed_pair.205" = type { %"struct.std::__1::__compressed_pair_elem.206" }
%"struct.std::__1::__compressed_pair_elem.206" = type { %"struct.net::SignedCertificateTimestampAndStatus"* }
%"struct.net::OCSPVerifyResult" = type { i32, i32 }
%"class.absl::optional.210" = type { %"class.absl::optional_internal::optional_data.211" }
%"class.absl::optional_internal::optional_data.211" = type { %"class.absl::optional_internal::optional_data_base.212" }
%"class.absl::optional_internal::optional_data_base.212" = type { %"class.absl::optional_internal::optional_data_dtor_base.213" }
%"class.absl::optional_internal::optional_data_dtor_base.213" = type { i8, %union.anon.214 }
%union.anon.214 = type { %"class.net::AuthChallengeInfo" }
%"class.net::AuthChallengeInfo" = type { i8, %"class.url::Origin", %"class.std::__1::basic_string", %"class.std::__1::basic_string", %"class.std::__1::basic_string", %"class.std::__1::basic_string" }
%"class.url::Origin" = type { %"class.url::SchemeHostPort", %"class.absl::optional.215" }
%"class.url::SchemeHostPort" = type <{ %"class.std::__1::basic_string", %"class.std::__1::basic_string", i16, [6 x i8] }>
%"class.absl::optional.215" = type { %"class.absl::optional_internal::optional_data.216" }
%"class.absl::optional_internal::optional_data.216" = type { %"class.absl::optional_internal::optional_data_base.217" }
%"class.absl::optional_internal::optional_data_base.217" = type { %"class.absl::optional_internal::optional_data_dtor_base.218" }
%"class.absl::optional_internal::optional_data_dtor_base.218" = type { i8, %union.anon.219 }
%union.anon.219 = type { %"class.url::Origin::Nonce" }
%"class.url::Origin::Nonce" = type { %"class.base::UnguessableToken" }
%"class.base::UnguessableToken" = type { %"class.base::Token" }
%"class.base::Token" = type { i64, i64 }
%"class.base::TimeTicks" = type { %"class.base::time_internal::TimeBase.155" }
%"class.base::time_internal::TimeBase.155" = type { i64 }
%"class.mojo::StructPtr.220" = type { %"class.std::__1::unique_ptr.221" }
%"class.std::__1::unique_ptr.221" = type { %"class.std::__1::__compressed_pair.222" }
%"class.std::__1::__compressed_pair.222" = type { %"struct.std::__1::__compressed_pair_elem.223" }
%"struct.std::__1::__compressed_pair_elem.223" = type { %"class.network::mojom::ParsedHeaders"* }
%"class.network::mojom::ParsedHeaders" = type <{ %"class.std::__1::vector.224", %"class.mojo::StructPtr.274", %"struct.network::CrossOriginEmbedderPolicy", %"struct.network::CrossOriginOpenerPolicy", i8, [7 x i8], %"class.absl::optional.286", %"class.base::TimeDelta", %"class.absl::optional.286", i32, [4 x i8], %"class.std::__1::vector.298", %"class.mojo::StructPtr.312", i8, [7 x i8] }>
%"class.std::__1::vector.224" = type { %"class.std::__1::__vector_base.225" }
%"class.std::__1::__vector_base.225" = type { %"class.mojo::StructPtr.226"*, %"class.mojo::StructPtr.226"*, %"class.std::__1::__compressed_pair.269" }
%"class.mojo::StructPtr.226" = type { %"class.std::__1::unique_ptr.227" }
%"class.std::__1::unique_ptr.227" = type { %"class.std::__1::__compressed_pair.228" }
%"class.std::__1::__compressed_pair.228" = type { %"struct.std::__1::__compressed_pair_elem.229" }
%"struct.std::__1::__compressed_pair_elem.229" = type { %"class.network::mojom::ContentSecurityPolicy"* }
%"class.network::mojom::ContentSecurityPolicy" = type { %"class.mojo::StructPtr.230", %"class.base::flat_map.237", %"class.base::flat_map.247", i8, i8, i8, i32, %"class.mojo::InlinedStructPtr.257", i8, %"class.std::__1::vector.58", i32, %"class.mojo::StructPtr.259", %"class.std::__1::vector.58" }
%"class.mojo::StructPtr.230" = type { %"class.std::__1::unique_ptr.231" }
%"class.std::__1::unique_ptr.231" = type { %"class.std::__1::__compressed_pair.232" }
%"class.std::__1::__compressed_pair.232" = type { %"struct.std::__1::__compressed_pair_elem.233" }
%"struct.std::__1::__compressed_pair_elem.233" = type { %"class.network::mojom::CSPSource"* }
%"class.network::mojom::CSPSource" = type <{ %"class.std::__1::basic_string", %"class.std::__1::basic_string", i32, [4 x i8], %"class.std::__1::basic_string", i8, i8, [6 x i8] }>
%"class.base::flat_map.237" = type { %"class.base::internal::flat_tree.238" }
%"class.base::internal::flat_tree.238" = type { %"class.std::__1::vector.239" }
%"class.std::__1::vector.239" = type { %"class.std::__1::__vector_base.240" }
%"class.std::__1::__vector_base.240" = type { %"struct.std::__1::pair.241"*, %"struct.std::__1::pair.241"*, %"class.std::__1::__compressed_pair.242" }
%"struct.std::__1::pair.241" = type opaque
%"class.std::__1::__compressed_pair.242" = type { %"struct.std::__1::__compressed_pair_elem.243" }
%"struct.std::__1::__compressed_pair_elem.243" = type { %"struct.std::__1::pair.241"* }
%"class.base::flat_map.247" = type { %"class.base::internal::flat_tree.248" }
%"class.base::internal::flat_tree.248" = type { %"class.std::__1::vector.249" }
%"class.std::__1::vector.249" = type { %"class.std::__1::__vector_base.250" }
%"class.std::__1::__vector_base.250" = type { %"struct.std::__1::pair.251"*, %"struct.std::__1::pair.251"*, %"class.std::__1::__compressed_pair.252" }
%"struct.std::__1::pair.251" = type opaque
%"class.std::__1::__compressed_pair.252" = type { %"struct.std::__1::__compressed_pair_elem.253" }
%"struct.std::__1::__compressed_pair_elem.253" = type { %"struct.std::__1::pair.251"* }
%"class.mojo::InlinedStructPtr.257" = type <{ %"class.network::mojom::ContentSecurityPolicyHeader", i32, [4 x i8] }>
%"class.network::mojom::ContentSecurityPolicyHeader" = type { %"class.std::__1::basic_string", i32, i32 }
%"class.mojo::StructPtr.259" = type { %"class.std::__1::unique_ptr.260" }
%"class.std::__1::unique_ptr.260" = type { %"class.std::__1::__compressed_pair.261" }
%"class.std::__1::__compressed_pair.261" = type { %"struct.std::__1::__compressed_pair_elem.262" }
%"struct.std::__1::__compressed_pair_elem.262" = type { %"class.network::mojom::CSPTrustedTypes"* }
%"class.network::mojom::CSPTrustedTypes" = type <{ %"class.std::__1::vector.58", i8, i8, [6 x i8] }>
%"class.std::__1::__compressed_pair.269" = type { %"struct.std::__1::__compressed_pair_elem.270" }
%"struct.std::__1::__compressed_pair_elem.270" = type { %"class.mojo::StructPtr.226"* }
%"class.mojo::StructPtr.274" = type { %"class.std::__1::unique_ptr.275" }
%"class.std::__1::unique_ptr.275" = type { %"class.std::__1::__compressed_pair.276" }
%"class.std::__1::__compressed_pair.276" = type { %"struct.std::__1::__compressed_pair_elem.277" }
%"struct.std::__1::__compressed_pair_elem.277" = type { %"class.network::mojom::AllowCSPFromHeaderValue"* }
%"class.network::mojom::AllowCSPFromHeaderValue" = type { i32, %"union.network::mojom::AllowCSPFromHeaderValue::Union_" }
%"union.network::mojom::AllowCSPFromHeaderValue::Union_" = type { %"class.url::Origin"* }
%"struct.network::CrossOriginEmbedderPolicy" = type { i32, %"class.absl::optional.281", i32, %"class.absl::optional.281" }
%"class.absl::optional.281" = type { %"class.absl::optional_internal::optional_data.282" }
%"class.absl::optional_internal::optional_data.282" = type { %"class.absl::optional_internal::optional_data_base.283" }
%"class.absl::optional_internal::optional_data_base.283" = type { %"class.absl::optional_internal::optional_data_dtor_base.284" }
%"class.absl::optional_internal::optional_data_dtor_base.284" = type { i8, %union.anon.285 }
%union.anon.285 = type { %"class.std::__1::basic_string" }
%"struct.network::CrossOriginOpenerPolicy" = type { i32, %"class.absl::optional.281", i32, %"class.absl::optional.281" }
%"class.base::TimeDelta" = type { i64 }
%"class.absl::optional.286" = type { %"class.absl::optional_internal::optional_data.287" }
%"class.absl::optional_internal::optional_data.287" = type { %"class.absl::optional_internal::optional_data_base.288" }
%"class.absl::optional_internal::optional_data_base.288" = type { %"class.absl::optional_internal::optional_data_dtor_base.289" }
%"class.absl::optional_internal::optional_data_dtor_base.289" = type { i8, %union.anon.290 }
%union.anon.290 = type { %"class.std::__1::vector.291" }
%"class.std::__1::vector.291" = type { %"class.std::__1::__vector_base.292" }
%"class.std::__1::__vector_base.292" = type { i32*, i32*, %"class.std::__1::__compressed_pair.293" }
%"class.std::__1::__compressed_pair.293" = type { %"struct.std::__1::__compressed_pair_elem.294" }
%"struct.std::__1::__compressed_pair_elem.294" = type { i32* }
%"class.std::__1::vector.298" = type { %"class.std::__1::__vector_base.299" }
%"class.std::__1::__vector_base.299" = type { %"class.mojo::StructPtr.300"*, %"class.mojo::StructPtr.300"*, %"class.std::__1::__compressed_pair.307" }
%"class.mojo::StructPtr.300" = type { %"class.std::__1::unique_ptr.301" }
%"class.std::__1::unique_ptr.301" = type { %"class.std::__1::__compressed_pair.302" }
%"class.std::__1::__compressed_pair.302" = type { %"struct.std::__1::__compressed_pair_elem.303" }
%"struct.std::__1::__compressed_pair_elem.303" = type { %"class.network::mojom::LinkHeader"* }
%"class.network::mojom::LinkHeader" = type { %class.GURL, i32, i32, i32, %"class.absl::optional.281" }
%"class.std::__1::__compressed_pair.307" = type { %"struct.std::__1::__compressed_pair_elem.308" }
%"struct.std::__1::__compressed_pair_elem.308" = type { %"class.mojo::StructPtr.300"* }
%"class.mojo::StructPtr.312" = type { %"class.std::__1::unique_ptr.313" }
%"class.std::__1::unique_ptr.313" = type { %"class.std::__1::__compressed_pair.314" }
%"class.std::__1::__compressed_pair.314" = type { %"struct.std::__1::__compressed_pair_elem.315" }
%"struct.std::__1::__compressed_pair_elem.315" = type { %"class.network::mojom::TimingAllowOrigin"* }
%"class.network::mojom::TimingAllowOrigin" = type { i32, %"union.network::mojom::TimingAllowOrigin::Union_" }
%"union.network::mojom::TimingAllowOrigin::Union_" = type { %"class.std::__1::vector.58"* }
%"class.absl::optional.322" = type { %"class.absl::optional_internal::optional_data.323" }
%"class.absl::optional_internal::optional_data.323" = type { %"class.absl::optional_internal::optional_data_base.324" }
%"class.absl::optional_internal::optional_data_base.324" = type { %"class.absl::optional_internal::optional_data_dtor_base.325" }
%"class.absl::optional_internal::optional_data_dtor_base.325" = type { i8, %union.anon.326 }
%union.anon.326 = type { %"struct.network::OriginPolicy" }
%"struct.network::OriginPolicy" = type { i32, %class.GURL, %"class.std::__1::unique_ptr.327" }
%"class.std::__1::unique_ptr.327" = type { %"class.std::__1::__compressed_pair.328" }
%"class.std::__1::__compressed_pair.328" = type { %"struct.std::__1::__compressed_pair_elem.329" }
%"struct.std::__1::__compressed_pair_elem.329" = type { %"struct.network::OriginPolicyContents"* }
%"struct.network::OriginPolicyContents" = type { %"class.std::__1::vector.58", %"class.absl::optional.281", %"class.std::__1::vector.58", %"class.std::__1::vector.58" }
%"class.absl::optional.333" = type { %"class.absl::optional_internal::optional_data.334" }
%"class.absl::optional_internal::optional_data.334" = type { %"class.absl::optional_internal::optional_data_base.335" }
%"class.absl::optional_internal::optional_data_base.335" = type { %"class.absl::optional_internal::optional_data_dtor_base.336" }
%"class.absl::optional_internal::optional_data_dtor_base.336" = type { i8, %union.anon.337 }
%union.anon.337 = type { %"class.base::UnguessableToken" }
%"class.base::internal::WeakReference" = type { %class.scoped_refptr.339 }
%class.scoped_refptr.339 = type { %"class.base::internal::WeakReference::Flag"* }
%"class.base::OnceCallback.338" = type { %"class.base::internal::CallbackBase" }
%"class.base::WeakPtr" = type { %"class.base::internal::WeakPtrBase" }
%"class.base::internal::WeakPtrBase" = type { %"class.base::internal::WeakReference", i64 }
%"class.base::WeakPtr.355" = type { %"class.base::internal::WeakPtrBase" }
%"class.std::__1::allocator" = type { i8 }
%"class.std::__1::vector.358" = type { %"class.std::__1::__vector_base.359" }
%"class.std::__1::__vector_base.359" = type { %"struct.google_apis::ContentTypeAndData"*, %"struct.google_apis::ContentTypeAndData"*, %"class.std::__1::__compressed_pair.360" }
%"class.std::__1::__compressed_pair.360" = type { %"struct.std::__1::__compressed_pair_elem.361" }
%"struct.std::__1::__compressed_pair_elem.361" = type { %"struct.google_apis::ContentTypeAndData"* }
%"class.std::__1::vector.375" = type { %"class.std::__1::__vector_base.376" }
%"class.std::__1::__vector_base.376" = type { i64*, i64*, %"class.std::__1::__compressed_pair.377" }
%"class.std::__1::__compressed_pair.377" = type { %"struct.std::__1::__compressed_pair_elem.378" }
%"struct.std::__1::__compressed_pair_elem.378" = type { i64* }
%"class.base::HistogramBase" = type <{ i32 (...)**, i8*, %"struct.std::__1::atomic.370", [4 x i8] }>
%"struct.std::__1::atomic.370" = type { %"struct.std::__1::__atomic_base.371" }
%"struct.std::__1::__atomic_base.371" = type { %"struct.std::__1::__atomic_base.372" }
%"struct.std::__1::__atomic_base.372" = type { %"struct.std::__1::__cxx_atomic_impl.373" }
%"struct.std::__1::__cxx_atomic_impl.373" = type { %"struct.std::__1::__cxx_atomic_base_impl.374" }
%"struct.std::__1::__cxx_atomic_base_impl.374" = type { i32 }
%"class.base::Location" = type { i8*, i8*, i32, i8* }
%"class.base::OnceCallback.440" = type { %"class.base::internal::CallbackBase" }
%"class.base::OnceCallback.441" = type { %"class.base::internal::CallbackBase" }
%"class.base::WeakPtr.442" = type { %"class.base::internal::WeakPtrBase" }
%"class.base::TaskRunner" = type <{ i32 (...)**, %"class.base::RefCountedThreadSafe.25", [4 x i8] }>
%"class.base::OnceCallback.478" = type { %"class.base::internal::CallbackBase" }
%"class.base::OnceCallback.479" = type { %"class.base::internal::CallbackBase" }
%"class.base::WeakPtr.499" = type { %"class.base::internal::WeakPtrBase" }
%"class.std::__1::unique_ptr.480" = type { %"class.std::__1::__compressed_pair.481" }
%"class.std::__1::__compressed_pair.481" = type { %"struct.std::__1::__compressed_pair_elem.482" }
%"struct.std::__1::__compressed_pair_elem.482" = type { %"class.google_apis::TeamDriveList"* }
%"class.google_apis::TeamDriveList" = type { %"class.std::__1::basic_string", %"class.std::__1::vector.483" }
%"class.std::__1::vector.483" = type { %"class.std::__1::__vector_base.484" }
%"class.std::__1::__vector_base.484" = type { %"class.std::__1::unique_ptr.485"*, %"class.std::__1::unique_ptr.485"*, %"class.std::__1::__compressed_pair.491" }
%"class.std::__1::unique_ptr.485" = type { %"class.std::__1::__compressed_pair.486" }
%"class.std::__1::__compressed_pair.486" = type { %"struct.std::__1::__compressed_pair_elem.487" }
%"struct.std::__1::__compressed_pair_elem.487" = type { %"class.google_apis::TeamDriveResource"* }
%"class.google_apis::TeamDriveResource" = type <{ %"class.std::__1::basic_string", %"class.std::__1::basic_string", %"class.google_apis::TeamDriveCapabilities", [3 x i8] }>
%"class.google_apis::TeamDriveCapabilities" = type { i8, i8, i8, i8, i8, i8, i8, i8, i8, i8, i8, i8, i8 }
%"class.std::__1::__compressed_pair.491" = type { %"struct.std::__1::__compressed_pair_elem.492" }
%"struct.std::__1::__compressed_pair_elem.492" = type { %"class.std::__1::unique_ptr.485"* }
%"class.base::OnceCallback.532" = type { %"class.base::internal::CallbackBase" }
%"class.base::OnceCallback.533" = type { %"class.base::internal::CallbackBase" }
%"class.base::WeakPtr.540" = type { %"class.base::internal::WeakPtrBase" }
%"class.std::__1::unique_ptr.534" = type { %"class.std::__1::__compressed_pair.535" }
%"class.std::__1::__compressed_pair.535" = type { %"struct.std::__1::__compressed_pair_elem.536" }
%"struct.std::__1::__compressed_pair_elem.536" = type { %"class.google_apis::StartPageToken"* }
%"class.google_apis::StartPageToken" = type { %"class.std::__1::basic_string" }
%"class.base::OnceCallback.573" = type { %"class.base::internal::CallbackBase" }
%"class.base::OnceCallback.574" = type { %"class.base::internal::CallbackBase" }
%"class.base::WeakPtr.587" = type { %"class.base::internal::WeakPtrBase" }
%"class.std::__1::unique_ptr.575" = type { %"class.std::__1::__compressed_pair.576" }
%"class.std::__1::__compressed_pair.576" = type { %"struct.std::__1::__compressed_pair_elem.577" }
%"struct.std::__1::__compressed_pair_elem.577" = type { %"class.google_apis::FileList"* }
%"class.google_apis::FileList" = type { %class.GURL, %"class.std::__1::vector.578" }
%"class.std::__1::vector.578" = type { %"class.std::__1::__vector_base.579" }
%"class.std::__1::__vector_base.579" = type { %"class.std::__1::unique_ptr.383"*, %"class.std::__1::unique_ptr.383"*, %"class.std::__1::__compressed_pair.580" }
%"class.std::__1::__compressed_pair.580" = type { %"struct.std::__1::__compressed_pair_elem.445" }
%"struct.std::__1::__compressed_pair_elem.445" = type { %"class.std::__1::unique_ptr.383"* }
%"class.base::OnceCallback.620" = type { %"class.base::internal::CallbackBase" }
%"class.base::OnceCallback.621" = type { %"class.base::internal::CallbackBase" }
%"class.base::WeakPtr.628" = type { %"class.base::internal::WeakPtrBase" }
%"class.std::__1::unique_ptr.622" = type { %"class.std::__1::__compressed_pair.623" }
%"class.std::__1::__compressed_pair.623" = type { %"struct.std::__1::__compressed_pair_elem.624" }
%"struct.std::__1::__compressed_pair_elem.624" = type { %"class.google_apis::AboutResource"* }
%"class.google_apis::AboutResource" = type { i64, i64, i64, %"class.std::__1::basic_string" }
%"class.base::OnceCallback.661" = type { %"class.base::internal::CallbackBase" }
%"class.base::OnceCallback.662" = type { %"class.base::internal::CallbackBase" }
%"class.base::WeakPtr.682" = type { %"class.base::internal::WeakPtrBase" }
%"class.std::__1::unique_ptr.663" = type { %"class.std::__1::__compressed_pair.664" }
%"class.std::__1::__compressed_pair.664" = type { %"struct.std::__1::__compressed_pair_elem.665" }
%"struct.std::__1::__compressed_pair_elem.665" = type { %"class.google_apis::ChangeList"* }
%"class.google_apis::ChangeList" = type { %class.GURL, i64, %"class.std::__1::basic_string", %"class.std::__1::vector.666" }
%"class.std::__1::vector.666" = type { %"class.std::__1::__vector_base.667" }
%"class.std::__1::__vector_base.667" = type { %"class.std::__1::unique_ptr.668"*, %"class.std::__1::unique_ptr.668"*, %"class.std::__1::__compressed_pair.674" }
%"class.std::__1::unique_ptr.668" = type { %"class.std::__1::__compressed_pair.669" }
%"class.std::__1::__compressed_pair.669" = type { %"struct.std::__1::__compressed_pair_elem.670" }
%"struct.std::__1::__compressed_pair_elem.670" = type { %"class.google_apis::ChangeResource"* }
%"class.google_apis::ChangeResource" = type { i64, i32, %"class.std::__1::basic_string", i8, %"class.std::__1::unique_ptr.383", %"class.base::Time", %"class.std::__1::basic_string", %"class.std::__1::unique_ptr.485" }
%"class.std::__1::__compressed_pair.674" = type { %"struct.std::__1::__compressed_pair_elem.675" }
%"struct.std::__1::__compressed_pair_elem.675" = type { %"class.std::__1::unique_ptr.668"* }
%"class.logging::CheckError" = type { %"class.logging::LogMessage"* }
%"class.logging::LogMessage" = type { i32 (...)**, i32, %"class.std::__1::basic_ostringstream", i64, i8*, i32, %"class.base::ScopedClearLastErrorBase" }
%"class.std::__1::basic_ostringstream" = type { %"class.std::__1::basic_ostream.base", %"class.std::__1::basic_stringbuf", %"class.std::__1::basic_ios.base" }
%"class.std::__1::basic_ostream.base" = type { i32 (...)** }
%"class.std::__1::basic_stringbuf" = type <{ %"class.std::__1::basic_streambuf", %"class.std::__1::basic_string", i8*, i32, [4 x i8] }>
%"class.std::__1::basic_streambuf" = type { i32 (...)**, %"class.std::__1::locale", i8*, i8*, i8*, i8*, i8*, i8* }
%"class.std::__1::locale" = type { %"class.std::__1::locale::__imp"* }
%"class.std::__1::locale::__imp" = type opaque
%"class.std::__1::basic_ios.base" = type <{ %"class.std::__1::ios_base", %"class.std::__1::basic_ostream"*, i32 }>
%"class.std::__1::ios_base" = type { i32 (...)**, i32, i64, i64, i32, i32, i8*, i8*, void (i32, %"class.std::__1::ios_base"*, i32)**, i32*, i64, i64, i64*, i64, i64, i8**, i64, i64 }
%"class.std::__1::basic_ostream" = type { i32 (...)**, %"class.std::__1::basic_ios.base" }
%"class.base::ScopedClearLastErrorBase" = type { i32 }
%"class.std::__1::__vector_base_common" = type { i8 }
%"class.std::__1::unique_ptr.443" = type { %"class.std::__1::__compressed_pair.444" }
%"class.std::__1::__compressed_pair.444" = type { %"struct.std::__1::__compressed_pair_elem.445" }
%"class.std::__1::unique_ptr.500" = type { %"class.std::__1::__compressed_pair.501" }
%"class.std::__1::__compressed_pair.501" = type { %"struct.std::__1::__compressed_pair_elem.502" }
%"struct.std::__1::__compressed_pair_elem.502" = type { %"class.std::__1::unique_ptr.480"* }
%"class.std::__1::unique_ptr.541" = type { %"class.std::__1::__compressed_pair.542" }
%"class.std::__1::__compressed_pair.542" = type { %"struct.std::__1::__compressed_pair_elem.543" }
%"struct.std::__1::__compressed_pair_elem.543" = type { %"class.std::__1::unique_ptr.534"* }
%"class.std::__1::unique_ptr.588" = type { %"class.std::__1::__compressed_pair.589" }
%"class.std::__1::__compressed_pair.589" = type { %"struct.std::__1::__compressed_pair_elem.590" }
%"struct.std::__1::__compressed_pair_elem.590" = type { %"class.std::__1::unique_ptr.575"* }
%"class.std::__1::unique_ptr.629" = type { %"class.std::__1::__compressed_pair.630" }
%"class.std::__1::__compressed_pair.630" = type { %"struct.std::__1::__compressed_pair_elem.631" }
%"struct.std::__1::__compressed_pair_elem.631" = type { %"class.std::__1::unique_ptr.622"* }
%"class.std::__1::unique_ptr.683" = type { %"class.std::__1::__compressed_pair.684" }
%"class.std::__1::__compressed_pair.684" = type { %"struct.std::__1::__compressed_pair_elem.685" }
%"struct.std::__1::__compressed_pair_elem.685" = type { %"class.std::__1::unique_ptr.663"* }

$_ZN4base13DeletePointerIN11google_apis17BatchableDelegateEEEvPT_ = comdat any

$_ZN11google_apis5drive19DriveApiDataRequestINS_12FileResourceEE22ProcessURLFetchResultsEPKN7network5mojom15URLResponseHeadEN4base8FilePathENSt3__112basic_stringIcNSB_11char_traitsIcEENSB_9allocatorIcEEEE = comdat any

$_ZN11google_apis5drive19DriveApiDataRequestINS_12FileResourceEE29RunCallbackOnPrematureFailureENS_17DriveApiErrorCodeE = comdat any

$_ZN11google_apis5drive19DriveApiDataRequestINS_13TeamDriveListEE22ProcessURLFetchResultsEPKN7network5mojom15URLResponseHeadEN4base8FilePathENSt3__112basic_stringIcNSB_11char_traitsIcEENSB_9allocatorIcEEEE = comdat any

$_ZN11google_apis5drive19DriveApiDataRequestINS_13TeamDriveListEE29RunCallbackOnPrematureFailureENS_17DriveApiErrorCodeE = comdat any

$_ZN11google_apis5drive19DriveApiDataRequestINS_14StartPageTokenEE22ProcessURLFetchResultsEPKN7network5mojom15URLResponseHeadEN4base8FilePathENSt3__112basic_stringIcNSB_11char_traitsIcEENSB_9allocatorIcEEEE = comdat any

$_ZN11google_apis5drive19DriveApiDataRequestINS_14StartPageTokenEE29RunCallbackOnPrematureFailureENS_17DriveApiErrorCodeE = comdat any

$_ZN11google_apis5drive19DriveApiDataRequestINS_8FileListEE22ProcessURLFetchResultsEPKN7network5mojom15URLResponseHeadEN4base8FilePathENSt3__112basic_stringIcNSB_11char_traitsIcEENSB_9allocatorIcEEEE = comdat any

$_ZN11google_apis5drive19DriveApiDataRequestINS_8FileListEE29RunCallbackOnPrematureFailureENS_17DriveApiErrorCodeE = comdat any

$_ZN11google_apis5drive19DriveApiDataRequestINS_13AboutResourceEE22ProcessURLFetchResultsEPKN7network5mojom15URLResponseHeadEN4base8FilePathENSt3__112basic_stringIcNSB_11char_traitsIcEENSB_9allocatorIcEEEE = comdat any

$_ZN11google_apis5drive19DriveApiDataRequestINS_13AboutResourceEE29RunCallbackOnPrematureFailureENS_17DriveApiErrorCodeE = comdat any

$_ZN11google_apis5drive19DriveApiDataRequestINS_10ChangeListEE22ProcessURLFetchResultsEPKN7network5mojom15URLResponseHeadEN4base8FilePathENSt3__112basic_stringIcNSB_11char_traitsIcEENSB_9allocatorIcEEEE = comdat any

$_ZN11google_apis5drive19DriveApiDataRequestINS_10ChangeListEE29RunCallbackOnPrematureFailureENS_17DriveApiErrorCodeE = comdat any

$_ZNSt3__16vectorIN11google_apis5drive21MultipartHttpResponseENS_9allocatorIS3_EEE21__push_back_slow_pathIS3_EEvOT_ = comdat any

$_ZN11google_apis5drive19DriveApiDataRequestINS_12FileResourceEED2Ev = comdat any

$_ZN11google_apis5drive19DriveApiDataRequestINS_12FileResourceEED0Ev = comdat any

$_ZThn8_N11google_apis5drive19DriveApiDataRequestINS_12FileResourceEED1Ev = comdat any

$_ZThn8_N11google_apis5drive19DriveApiDataRequestINS_12FileResourceEED0Ev = comdat any

$_ZNSt3__16vectorINS_12basic_stringIcNS_11char_traitsIcEENS_9allocatorIcEEEENS4_IS6_EEE21__push_back_slow_pathIS6_EEvOT_ = comdat any

$_ZN11google_apis5drive19DriveApiDataRequestINS_13TeamDriveListEED2Ev = comdat any

$_ZN11google_apis5drive19DriveApiDataRequestINS_13TeamDriveListEED0Ev = comdat any

$_ZThn8_N11google_apis5drive19DriveApiDataRequestINS_13TeamDriveListEED1Ev = comdat any

$_ZThn8_N11google_apis5drive19DriveApiDataRequestINS_13TeamDriveListEED0Ev = comdat any

$_ZN11google_apis5drive19DriveApiDataRequestINS_14StartPageTokenEED2Ev = comdat any

$_ZN11google_apis5drive19DriveApiDataRequestINS_14StartPageTokenEED0Ev = comdat any

$_ZThn8_N11google_apis5drive19DriveApiDataRequestINS_14StartPageTokenEED1Ev = comdat any

$_ZThn8_N11google_apis5drive19DriveApiDataRequestINS_14StartPageTokenEED0Ev = comdat any

$_ZN11google_apis5drive19DriveApiDataRequestINS_8FileListEED2Ev = comdat any

$_ZN11google_apis5drive19DriveApiDataRequestINS_8FileListEED0Ev = comdat any

$_ZThn8_N11google_apis5drive19DriveApiDataRequestINS_8FileListEED1Ev = comdat any

$_ZThn8_N11google_apis5drive19DriveApiDataRequestINS_8FileListEED0Ev = comdat any

$_ZN11google_apis5drive19DriveApiDataRequestINS_13AboutResourceEED2Ev = comdat any

$_ZN11google_apis5drive19DriveApiDataRequestINS_13AboutResourceEED0Ev = comdat any

$_ZThn8_N11google_apis5drive19DriveApiDataRequestINS_13AboutResourceEED1Ev = comdat any

$_ZThn8_N11google_apis5drive19DriveApiDataRequestINS_13AboutResourceEED0Ev = comdat any

$_ZN11google_apis5drive19DriveApiDataRequestINS_10ChangeListEED2Ev = comdat any

$_ZN11google_apis5drive19DriveApiDataRequestINS_10ChangeListEED0Ev = comdat any

$_ZThn8_N11google_apis5drive19DriveApiDataRequestINS_10ChangeListEED1Ev = comdat any

$_ZThn8_N11google_apis5drive19DriveApiDataRequestINS_10ChangeListEED0Ev = comdat any

$_ZN4base8internal7InvokerINS0_9BindStateIMN11google_apis5drive30SingleBatchableDelegateRequestEFvllEJNS0_17UnretainedWrapperIS5_EEEEEFvllEE3RunEPNS0_13BindStateBaseEll = comdat any

$_ZN4base8internal9BindStateIMN11google_apis5drive30SingleBatchableDelegateRequestEFvllEJNS0_17UnretainedWrapperIS4_EEEE7DestroyEPKNS0_13BindStateBaseE = comdat any

$_ZN4base8internal7InvokerINS0_9BindStateIMN11google_apis19UrlFetchRequestBaseEFvvEJNS_7WeakPtrINS3_5drive30SingleBatchableDelegateRequestEEEEEEFvvEE7RunOnceEPNS0_13BindStateBaseE = comdat any

$_ZN4base8internal9BindStateIMN11google_apis19UrlFetchRequestBaseEFvvEJNS_7WeakPtrINS2_5drive30SingleBatchableDelegateRequestEEEEE7DestroyEPKNS0_13BindStateBaseE = comdat any

$_ZN4base8internal23QueryCancellationTraitsINS0_9BindStateIMN11google_apis19UrlFetchRequestBaseEFvvEJNS_7WeakPtrINS3_5drive30SingleBatchableDelegateRequestEEEEEEEEbPKNS0_13BindStateBaseENSC_21CancellationQueryModeE = comdat any

$_ZN4base8internal7InvokerINS0_9BindStateIMN11google_apis5drive18BatchUploadRequestEFvllEJNS0_17UnretainedWrapperIS5_EEEEEFvllEE3RunEPNS0_13BindStateBaseEll = comdat any

$_ZN4base8internal9BindStateIMN11google_apis5drive18BatchUploadRequestEFvllEJNS0_17UnretainedWrapperIS4_EEEE7DestroyEPKNS0_13BindStateBaseE = comdat any

$_ZNSt3__16vectorINS_10unique_ptrIN11google_apis5drive21BatchUploadChildEntryENS_14default_deleteIS4_EEEENS_9allocatorIS7_EEE21__push_back_slow_pathIS7_EEvOT_ = comdat any

$_ZN4base8internal7InvokerINS0_9BindStateIMN11google_apis5drive18BatchUploadRequestEFvPvNS3_17DriveApiErrorCodeEEJNS_7WeakPtrIS5_EEPNS3_17BatchableDelegateEEEEFvS7_EE7RunOnceEPNS0_13BindStateBaseES7_ = comdat any

$_ZN4base8internal9BindStateIMN11google_apis5drive18BatchUploadRequestEFvPvNS2_17DriveApiErrorCodeEEJNS_7WeakPtrIS4_EEPNS2_17BatchableDelegateEEE7DestroyEPKNS0_13BindStateBaseE = comdat any

$_ZN4base8internal23QueryCancellationTraitsINS0_9BindStateIMN11google_apis5drive18BatchUploadRequestEFvPvNS3_17DriveApiErrorCodeEEJNS_7WeakPtrIS5_EEPNS3_17BatchableDelegateEEEEEEbPKNS0_13BindStateBaseENSF_21CancellationQueryModeE = comdat any

$_ZNSt3__16vectorIN11google_apis18ContentTypeAndDataENS_9allocatorIS2_EEE21__push_back_slow_pathIS2_EEvOT_ = comdat any

$_ZN4base8internal7InvokerINS0_9BindStateIPFvPN11google_apis17BatchableDelegateEEJS5_EEEFvvEE7RunOnceEPNS0_13BindStateBaseE = comdat any

$_ZN4base8internal9BindStateIPFvPN11google_apis17BatchableDelegateEEJS4_EE7DestroyEPKNS0_13BindStateBaseE = comdat any

$_ZN11google_apis5drive19DriveApiDataRequestINS_12FileResourceEE5ParseENSt3__112basic_stringIcNS4_11char_traitsIcEENS4_9allocatorIcEEEE = comdat any

$_ZN11google_apis5drive19DriveApiDataRequestINS_12FileResourceEE12OnDataParsedENS_17DriveApiErrorCodeENSt3__110unique_ptrIS2_NS5_14default_deleteIS2_EEEE = comdat any

$_ZN4base8internal20ReturnAsParamAdapterINSt3__110unique_ptrIN11google_apis12FileResourceENS2_14default_deleteIS5_EEEEEEvNS_12OnceCallbackIFT_vEEEPNS3_ISA_NS6_ISA_EEEE = comdat any

$_ZN4base8internal12ReplyAdapterINSt3__110unique_ptrIN11google_apis12FileResourceENS2_14default_deleteIS5_EEEES8_EEvNS_12OnceCallbackIFvT0_EEEPNS3_IT_NS6_ISD_EEEE = comdat any

$_ZN4base8internal7InvokerINS0_9BindStateIPFvNS_12OnceCallbackIFNSt3__110unique_ptrIN11google_apis12FileResourceENS4_14default_deleteIS7_EEEEvEEEPNS5_ISA_NS8_ISA_EEEEEJSC_SF_EEEFvvEE7RunOnceEPNS0_13BindStateBaseE = comdat any

$_ZN4base8internal9BindStateIPFvNS_12OnceCallbackIFNSt3__110unique_ptrIN11google_apis12FileResourceENS3_14default_deleteIS6_EEEEvEEEPNS4_IS9_NS7_IS9_EEEEEJSB_SE_EE7DestroyEPKNS0_13BindStateBaseE = comdat any

$_ZN4base8internal7InvokerINS0_9BindStateIPFvNS_12OnceCallbackIFvNSt3__110unique_ptrIN11google_apis12FileResourceENS4_14default_deleteIS7_EEEEEEEPNS5_ISA_NS8_ISA_EEEEEJSC_NS0_12OwnedWrapperISE_NS8_ISE_EEEEEEEFvvEE7RunOnceEPNS0_13BindStateBaseE = comdat any

$_ZN4base8internal9BindStateIPFvNS_12OnceCallbackIFvNSt3__110unique_ptrIN11google_apis12FileResourceENS3_14default_deleteIS6_EEEEEEEPNS4_IS9_NS7_IS9_EEEEEJSB_NS0_12OwnedWrapperISD_NS7_ISD_EEEEEE7DestroyEPKNS0_13BindStateBaseE = comdat any

$_ZN4base8internal7InvokerINS0_9BindStateIPFNSt3__110unique_ptrIN11google_apis12FileResourceENS3_14default_deleteIS6_EEEENS3_12basic_stringIcNS3_11char_traitsIcEENS3_9allocatorIcEEEEEJSF_EEEFS9_vEE7RunOnceEPNS0_13BindStateBaseE = comdat any

$_ZN4base8internal9BindStateIPFNSt3__110unique_ptrIN11google_apis12FileResourceENS2_14default_deleteIS5_EEEENS2_12basic_stringIcNS2_11char_traitsIcEENS2_9allocatorIcEEEEEJSE_EE7DestroyEPKNS0_13BindStateBaseE = comdat any

$_ZN4base8internal7InvokerINS0_9BindStateIMN11google_apis5drive19DriveApiDataRequestINS3_12FileResourceEEEFvNS3_17DriveApiErrorCodeENSt3__110unique_ptrIS6_NS9_14default_deleteIS6_EEEEEJNS_7WeakPtrIS7_EES8_EEEFvSD_EE7RunOnceEPNS0_13BindStateBaseEOSD_ = comdat any

$_ZN4base8internal9BindStateIMN11google_apis5drive19DriveApiDataRequestINS2_12FileResourceEEEFvNS2_17DriveApiErrorCodeENSt3__110unique_ptrIS5_NS8_14default_deleteIS5_EEEEEJNS_7WeakPtrIS6_EES7_EE7DestroyEPKNS0_13BindStateBaseE = comdat any

$_ZN4base8internal23QueryCancellationTraitsINS0_9BindStateIMN11google_apis5drive19DriveApiDataRequestINS3_12FileResourceEEEFvNS3_17DriveApiErrorCodeENSt3__110unique_ptrIS6_NS9_14default_deleteIS6_EEEEEJNS_7WeakPtrIS7_EES8_EEEEEbPKNS0_13BindStateBaseENSJ_21CancellationQueryModeE = comdat any

$_ZN11google_apis5drive19DriveApiDataRequestINS_13TeamDriveListEE5ParseENSt3__112basic_stringIcNS4_11char_traitsIcEENS4_9allocatorIcEEEE = comdat any

$_ZN11google_apis5drive19DriveApiDataRequestINS_13TeamDriveListEE12OnDataParsedENS_17DriveApiErrorCodeENSt3__110unique_ptrIS2_NS5_14default_deleteIS2_EEEE = comdat any

$_ZN4base8internal20ReturnAsParamAdapterINSt3__110unique_ptrIN11google_apis13TeamDriveListENS2_14default_deleteIS5_EEEEEEvNS_12OnceCallbackIFT_vEEEPNS3_ISA_NS6_ISA_EEEE = comdat any

$_ZN4base8internal12ReplyAdapterINSt3__110unique_ptrIN11google_apis13TeamDriveListENS2_14default_deleteIS5_EEEES8_EEvNS_12OnceCallbackIFvT0_EEEPNS3_IT_NS6_ISD_EEEE = comdat any

$_ZN4base8internal7InvokerINS0_9BindStateIPFvNS_12OnceCallbackIFNSt3__110unique_ptrIN11google_apis13TeamDriveListENS4_14default_deleteIS7_EEEEvEEEPNS5_ISA_NS8_ISA_EEEEEJSC_SF_EEEFvvEE7RunOnceEPNS0_13BindStateBaseE = comdat any

$_ZN4base8internal9BindStateIPFvNS_12OnceCallbackIFNSt3__110unique_ptrIN11google_apis13TeamDriveListENS3_14default_deleteIS6_EEEEvEEEPNS4_IS9_NS7_IS9_EEEEEJSB_SE_EE7DestroyEPKNS0_13BindStateBaseE = comdat any

$_ZN4base8internal7InvokerINS0_9BindStateIPFvNS_12OnceCallbackIFvNSt3__110unique_ptrIN11google_apis13TeamDriveListENS4_14default_deleteIS7_EEEEEEEPNS5_ISA_NS8_ISA_EEEEEJSC_NS0_12OwnedWrapperISE_NS8_ISE_EEEEEEEFvvEE7RunOnceEPNS0_13BindStateBaseE = comdat any

$_ZN4base8internal9BindStateIPFvNS_12OnceCallbackIFvNSt3__110unique_ptrIN11google_apis13TeamDriveListENS3_14default_deleteIS6_EEEEEEEPNS4_IS9_NS7_IS9_EEEEEJSB_NS0_12OwnedWrapperISD_NS7_ISD_EEEEEE7DestroyEPKNS0_13BindStateBaseE = comdat any

$_ZN4base8internal7InvokerINS0_9BindStateIPFNSt3__110unique_ptrIN11google_apis13TeamDriveListENS3_14default_deleteIS6_EEEENS3_12basic_stringIcNS3_11char_traitsIcEENS3_9allocatorIcEEEEEJSF_EEEFS9_vEE7RunOnceEPNS0_13BindStateBaseE = comdat any

$_ZN4base8internal9BindStateIPFNSt3__110unique_ptrIN11google_apis13TeamDriveListENS2_14default_deleteIS5_EEEENS2_12basic_stringIcNS2_11char_traitsIcEENS2_9allocatorIcEEEEEJSE_EE7DestroyEPKNS0_13BindStateBaseE = comdat any

$_ZN4base8internal7InvokerINS0_9BindStateIMN11google_apis5drive19DriveApiDataRequestINS3_13TeamDriveListEEEFvNS3_17DriveApiErrorCodeENSt3__110unique_ptrIS6_NS9_14default_deleteIS6_EEEEEJNS_7WeakPtrIS7_EES8_EEEFvSD_EE7RunOnceEPNS0_13BindStateBaseEOSD_ = comdat any

$_ZN4base8internal9BindStateIMN11google_apis5drive19DriveApiDataRequestINS2_13TeamDriveListEEEFvNS2_17DriveApiErrorCodeENSt3__110unique_ptrIS5_NS8_14default_deleteIS5_EEEEEJNS_7WeakPtrIS6_EES7_EE7DestroyEPKNS0_13BindStateBaseE = comdat any

$_ZN4base8internal23QueryCancellationTraitsINS0_9BindStateIMN11google_apis5drive19DriveApiDataRequestINS3_13TeamDriveListEEEFvNS3_17DriveApiErrorCodeENSt3__110unique_ptrIS6_NS9_14default_deleteIS6_EEEEEJNS_7WeakPtrIS7_EES8_EEEEEbPKNS0_13BindStateBaseENSJ_21CancellationQueryModeE = comdat any

$_ZN11google_apis5drive19DriveApiDataRequestINS_14StartPageTokenEE5ParseENSt3__112basic_stringIcNS4_11char_traitsIcEENS4_9allocatorIcEEEE = comdat any

$_ZN11google_apis5drive19DriveApiDataRequestINS_14StartPageTokenEE12OnDataParsedENS_17DriveApiErrorCodeENSt3__110unique_ptrIS2_NS5_14default_deleteIS2_EEEE = comdat any

$_ZN4base8internal20ReturnAsParamAdapterINSt3__110unique_ptrIN11google_apis14StartPageTokenENS2_14default_deleteIS5_EEEEEEvNS_12OnceCallbackIFT_vEEEPNS3_ISA_NS6_ISA_EEEE = comdat any

$_ZN4base8internal12ReplyAdapterINSt3__110unique_ptrIN11google_apis14StartPageTokenENS2_14default_deleteIS5_EEEES8_EEvNS_12OnceCallbackIFvT0_EEEPNS3_IT_NS6_ISD_EEEE = comdat any

$_ZN4base8internal7InvokerINS0_9BindStateIPFvNS_12OnceCallbackIFNSt3__110unique_ptrIN11google_apis14StartPageTokenENS4_14default_deleteIS7_EEEEvEEEPNS5_ISA_NS8_ISA_EEEEEJSC_SF_EEEFvvEE7RunOnceEPNS0_13BindStateBaseE = comdat any

$_ZN4base8internal9BindStateIPFvNS_12OnceCallbackIFNSt3__110unique_ptrIN11google_apis14StartPageTokenENS3_14default_deleteIS6_EEEEvEEEPNS4_IS9_NS7_IS9_EEEEEJSB_SE_EE7DestroyEPKNS0_13BindStateBaseE = comdat any

$_ZN4base8internal7InvokerINS0_9BindStateIPFvNS_12OnceCallbackIFvNSt3__110unique_ptrIN11google_apis14StartPageTokenENS4_14default_deleteIS7_EEEEEEEPNS5_ISA_NS8_ISA_EEEEEJSC_NS0_12OwnedWrapperISE_NS8_ISE_EEEEEEEFvvEE7RunOnceEPNS0_13BindStateBaseE = comdat any

$_ZN4base8internal9BindStateIPFvNS_12OnceCallbackIFvNSt3__110unique_ptrIN11google_apis14StartPageTokenENS3_14default_deleteIS6_EEEEEEEPNS4_IS9_NS7_IS9_EEEEEJSB_NS0_12OwnedWrapperISD_NS7_ISD_EEEEEE7DestroyEPKNS0_13BindStateBaseE = comdat any

$_ZN4base8internal7InvokerINS0_9BindStateIPFNSt3__110unique_ptrIN11google_apis14StartPageTokenENS3_14default_deleteIS6_EEEENS3_12basic_stringIcNS3_11char_traitsIcEENS3_9allocatorIcEEEEEJSF_EEEFS9_vEE7RunOnceEPNS0_13BindStateBaseE = comdat any

$_ZN4base8internal9BindStateIPFNSt3__110unique_ptrIN11google_apis14StartPageTokenENS2_14default_deleteIS5_EEEENS2_12basic_stringIcNS2_11char_traitsIcEENS2_9allocatorIcEEEEEJSE_EE7DestroyEPKNS0_13BindStateBaseE = comdat any

$_ZN4base8internal7InvokerINS0_9BindStateIMN11google_apis5drive19DriveApiDataRequestINS3_14StartPageTokenEEEFvNS3_17DriveApiErrorCodeENSt3__110unique_ptrIS6_NS9_14default_deleteIS6_EEEEEJNS_7WeakPtrIS7_EES8_EEEFvSD_EE7RunOnceEPNS0_13BindStateBaseEOSD_ = comdat any

$_ZN4base8internal9BindStateIMN11google_apis5drive19DriveApiDataRequestINS2_14StartPageTokenEEEFvNS2_17DriveApiErrorCodeENSt3__110unique_ptrIS5_NS8_14default_deleteIS5_EEEEEJNS_7WeakPtrIS6_EES7_EE7DestroyEPKNS0_13BindStateBaseE = comdat any

$_ZN4base8internal23QueryCancellationTraitsINS0_9BindStateIMN11google_apis5drive19DriveApiDataRequestINS3_14StartPageTokenEEEFvNS3_17DriveApiErrorCodeENSt3__110unique_ptrIS6_NS9_14default_deleteIS6_EEEEEJNS_7WeakPtrIS7_EES8_EEEEEbPKNS0_13BindStateBaseENSJ_21CancellationQueryModeE = comdat any

$_ZN11google_apis5drive19DriveApiDataRequestINS_8FileListEE5ParseENSt3__112basic_stringIcNS4_11char_traitsIcEENS4_9allocatorIcEEEE = comdat any

$_ZN11google_apis5drive19DriveApiDataRequestINS_8FileListEE12OnDataParsedENS_17DriveApiErrorCodeENSt3__110unique_ptrIS2_NS5_14default_deleteIS2_EEEE = comdat any

$_ZN4base8internal20ReturnAsParamAdapterINSt3__110unique_ptrIN11google_apis8FileListENS2_14default_deleteIS5_EEEEEEvNS_12OnceCallbackIFT_vEEEPNS3_ISA_NS6_ISA_EEEE = comdat any

$_ZN4base8internal12ReplyAdapterINSt3__110unique_ptrIN11google_apis8FileListENS2_14default_deleteIS5_EEEES8_EEvNS_12OnceCallbackIFvT0_EEEPNS3_IT_NS6_ISD_EEEE = comdat any

$_ZN4base8internal7InvokerINS0_9BindStateIPFvNS_12OnceCallbackIFNSt3__110unique_ptrIN11google_apis8FileListENS4_14default_deleteIS7_EEEEvEEEPNS5_ISA_NS8_ISA_EEEEEJSC_SF_EEEFvvEE7RunOnceEPNS0_13BindStateBaseE = comdat any

$_ZN4base8internal9BindStateIPFvNS_12OnceCallbackIFNSt3__110unique_ptrIN11google_apis8FileListENS3_14default_deleteIS6_EEEEvEEEPNS4_IS9_NS7_IS9_EEEEEJSB_SE_EE7DestroyEPKNS0_13BindStateBaseE = comdat any

$_ZN4base8internal7InvokerINS0_9BindStateIPFvNS_12OnceCallbackIFvNSt3__110unique_ptrIN11google_apis8FileListENS4_14default_deleteIS7_EEEEEEEPNS5_ISA_NS8_ISA_EEEEEJSC_NS0_12OwnedWrapperISE_NS8_ISE_EEEEEEEFvvEE7RunOnceEPNS0_13BindStateBaseE = comdat any

$_ZN4base8internal9BindStateIPFvNS_12OnceCallbackIFvNSt3__110unique_ptrIN11google_apis8FileListENS3_14default_deleteIS6_EEEEEEEPNS4_IS9_NS7_IS9_EEEEEJSB_NS0_12OwnedWrapperISD_NS7_ISD_EEEEEE7DestroyEPKNS0_13BindStateBaseE = comdat any

$_ZN4base8internal7InvokerINS0_9BindStateIPFNSt3__110unique_ptrIN11google_apis8FileListENS3_14default_deleteIS6_EEEENS3_12basic_stringIcNS3_11char_traitsIcEENS3_9allocatorIcEEEEEJSF_EEEFS9_vEE7RunOnceEPNS0_13BindStateBaseE = comdat any

$_ZN4base8internal9BindStateIPFNSt3__110unique_ptrIN11google_apis8FileListENS2_14default_deleteIS5_EEEENS2_12basic_stringIcNS2_11char_traitsIcEENS2_9allocatorIcEEEEEJSE_EE7DestroyEPKNS0_13BindStateBaseE = comdat any

$_ZN4base8internal7InvokerINS0_9BindStateIMN11google_apis5drive19DriveApiDataRequestINS3_8FileListEEEFvNS3_17DriveApiErrorCodeENSt3__110unique_ptrIS6_NS9_14default_deleteIS6_EEEEEJNS_7WeakPtrIS7_EES8_EEEFvSD_EE7RunOnceEPNS0_13BindStateBaseEOSD_ = comdat any

$_ZN4base8internal9BindStateIMN11google_apis5drive19DriveApiDataRequestINS2_8FileListEEEFvNS2_17DriveApiErrorCodeENSt3__110unique_ptrIS5_NS8_14default_deleteIS5_EEEEEJNS_7WeakPtrIS6_EES7_EE7DestroyEPKNS0_13BindStateBaseE = comdat any

$_ZN4base8internal23QueryCancellationTraitsINS0_9BindStateIMN11google_apis5drive19DriveApiDataRequestINS3_8FileListEEEFvNS3_17DriveApiErrorCodeENSt3__110unique_ptrIS6_NS9_14default_deleteIS6_EEEEEJNS_7WeakPtrIS7_EES8_EEEEEbPKNS0_13BindStateBaseENSJ_21CancellationQueryModeE = comdat any

$_ZN11google_apis5drive19DriveApiDataRequestINS_13AboutResourceEE5ParseENSt3__112basic_stringIcNS4_11char_traitsIcEENS4_9allocatorIcEEEE = comdat any

$_ZN11google_apis5drive19DriveApiDataRequestINS_13AboutResourceEE12OnDataParsedENS_17DriveApiErrorCodeENSt3__110unique_ptrIS2_NS5_14default_deleteIS2_EEEE = comdat any

$_ZN4base8internal20ReturnAsParamAdapterINSt3__110unique_ptrIN11google_apis13AboutResourceENS2_14default_deleteIS5_EEEEEEvNS_12OnceCallbackIFT_vEEEPNS3_ISA_NS6_ISA_EEEE = comdat any

$_ZN4base8internal12ReplyAdapterINSt3__110unique_ptrIN11google_apis13AboutResourceENS2_14default_deleteIS5_EEEES8_EEvNS_12OnceCallbackIFvT0_EEEPNS3_IT_NS6_ISD_EEEE = comdat any

$_ZN4base8internal7InvokerINS0_9BindStateIPFvNS_12OnceCallbackIFNSt3__110unique_ptrIN11google_apis13AboutResourceENS4_14default_deleteIS7_EEEEvEEEPNS5_ISA_NS8_ISA_EEEEEJSC_SF_EEEFvvEE7RunOnceEPNS0_13BindStateBaseE = comdat any

$_ZN4base8internal9BindStateIPFvNS_12OnceCallbackIFNSt3__110unique_ptrIN11google_apis13AboutResourceENS3_14default_deleteIS6_EEEEvEEEPNS4_IS9_NS7_IS9_EEEEEJSB_SE_EE7DestroyEPKNS0_13BindStateBaseE = comdat any

$_ZN4base8internal7InvokerINS0_9BindStateIPFvNS_12OnceCallbackIFvNSt3__110unique_ptrIN11google_apis13AboutResourceENS4_14default_deleteIS7_EEEEEEEPNS5_ISA_NS8_ISA_EEEEEJSC_NS0_12OwnedWrapperISE_NS8_ISE_EEEEEEEFvvEE7RunOnceEPNS0_13BindStateBaseE = comdat any

$_ZN4base8internal9BindStateIPFvNS_12OnceCallbackIFvNSt3__110unique_ptrIN11google_apis13AboutResourceENS3_14default_deleteIS6_EEEEEEEPNS4_IS9_NS7_IS9_EEEEEJSB_NS0_12OwnedWrapperISD_NS7_ISD_EEEEEE7DestroyEPKNS0_13BindStateBaseE = comdat any

$_ZN4base8internal7InvokerINS0_9BindStateIPFNSt3__110unique_ptrIN11google_apis13AboutResourceENS3_14default_deleteIS6_EEEENS3_12basic_stringIcNS3_11char_traitsIcEENS3_9allocatorIcEEEEEJSF_EEEFS9_vEE7RunOnceEPNS0_13BindStateBaseE = comdat any

$_ZN4base8internal9BindStateIPFNSt3__110unique_ptrIN11google_apis13AboutResourceENS2_14default_deleteIS5_EEEENS2_12basic_stringIcNS2_11char_traitsIcEENS2_9allocatorIcEEEEEJSE_EE7DestroyEPKNS0_13BindStateBaseE = comdat any

$_ZN4base8internal7InvokerINS0_9BindStateIMN11google_apis5drive19DriveApiDataRequestINS3_13AboutResourceEEEFvNS3_17DriveApiErrorCodeENSt3__110unique_ptrIS6_NS9_14default_deleteIS6_EEEEEJNS_7WeakPtrIS7_EES8_EEEFvSD_EE7RunOnceEPNS0_13BindStateBaseEOSD_ = comdat any

$_ZN4base8internal9BindStateIMN11google_apis5drive19DriveApiDataRequestINS2_13AboutResourceEEEFvNS2_17DriveApiErrorCodeENSt3__110unique_ptrIS5_NS8_14default_deleteIS5_EEEEEJNS_7WeakPtrIS6_EES7_EE7DestroyEPKNS0_13BindStateBaseE = comdat any

$_ZN4base8internal23QueryCancellationTraitsINS0_9BindStateIMN11google_apis5drive19DriveApiDataRequestINS3_13AboutResourceEEEFvNS3_17DriveApiErrorCodeENSt3__110unique_ptrIS6_NS9_14default_deleteIS6_EEEEEJNS_7WeakPtrIS7_EES8_EEEEEbPKNS0_13BindStateBaseENSJ_21CancellationQueryModeE = comdat any

$_ZN11google_apis5drive19DriveApiDataRequestINS_10ChangeListEE5ParseENSt3__112basic_stringIcNS4_11char_traitsIcEENS4_9allocatorIcEEEE = comdat any

$_ZN11google_apis5drive19DriveApiDataRequestINS_10ChangeListEE12OnDataParsedENS_17DriveApiErrorCodeENSt3__110unique_ptrIS2_NS5_14default_deleteIS2_EEEE = comdat any

$_ZN4base8internal20ReturnAsParamAdapterINSt3__110unique_ptrIN11google_apis10ChangeListENS2_14default_deleteIS5_EEEEEEvNS_12OnceCallbackIFT_vEEEPNS3_ISA_NS6_ISA_EEEE = comdat any

$_ZN4base8internal12ReplyAdapterINSt3__110unique_ptrIN11google_apis10ChangeListENS2_14default_deleteIS5_EEEES8_EEvNS_12OnceCallbackIFvT0_EEEPNS3_IT_NS6_ISD_EEEE = comdat any

$_ZN4base8internal7InvokerINS0_9BindStateIPFvNS_12OnceCallbackIFNSt3__110unique_ptrIN11google_apis10ChangeListENS4_14default_deleteIS7_EEEEvEEEPNS5_ISA_NS8_ISA_EEEEEJSC_SF_EEEFvvEE7RunOnceEPNS0_13BindStateBaseE = comdat any

$_ZN4base8internal9BindStateIPFvNS_12OnceCallbackIFNSt3__110unique_ptrIN11google_apis10ChangeListENS3_14default_deleteIS6_EEEEvEEEPNS4_IS9_NS7_IS9_EEEEEJSB_SE_EE7DestroyEPKNS0_13BindStateBaseE = comdat any

$_ZN4base8internal7InvokerINS0_9BindStateIPFvNS_12OnceCallbackIFvNSt3__110unique_ptrIN11google_apis10ChangeListENS4_14default_deleteIS7_EEEEEEEPNS5_ISA_NS8_ISA_EEEEEJSC_NS0_12OwnedWrapperISE_NS8_ISE_EEEEEEEFvvEE7RunOnceEPNS0_13BindStateBaseE = comdat any

$_ZN4base8internal9BindStateIPFvNS_12OnceCallbackIFvNSt3__110unique_ptrIN11google_apis10ChangeListENS3_14default_deleteIS6_EEEEEEEPNS4_IS9_NS7_IS9_EEEEEJSB_NS0_12OwnedWrapperISD_NS7_ISD_EEEEEE7DestroyEPKNS0_13BindStateBaseE = comdat any

$_ZN4base8internal7InvokerINS0_9BindStateIPFNSt3__110unique_ptrIN11google_apis10ChangeListENS3_14default_deleteIS6_EEEENS3_12basic_stringIcNS3_11char_traitsIcEENS3_9allocatorIcEEEEEJSF_EEEFS9_vEE7RunOnceEPNS0_13BindStateBaseE = comdat any

$_ZN4base8internal9BindStateIPFNSt3__110unique_ptrIN11google_apis10ChangeListENS2_14default_deleteIS5_EEEENS2_12basic_stringIcNS2_11char_traitsIcEENS2_9allocatorIcEEEEEJSE_EE7DestroyEPKNS0_13BindStateBaseE = comdat any

$_ZN4base8internal7InvokerINS0_9BindStateIMN11google_apis5drive19DriveApiDataRequestINS3_10ChangeListEEEFvNS3_17DriveApiErrorCodeENSt3__110unique_ptrIS6_NS9_14default_deleteIS6_EEEEEJNS_7WeakPtrIS7_EES8_EEEFvSD_EE7RunOnceEPNS0_13BindStateBaseEOSD_ = comdat any

$_ZN4base8internal9BindStateIMN11google_apis5drive19DriveApiDataRequestINS2_10ChangeListEEEFvNS2_17DriveApiErrorCodeENSt3__110unique_ptrIS5_NS8_14default_deleteIS5_EEEEEJNS_7WeakPtrIS6_EES7_EE7DestroyEPKNS0_13BindStateBaseE = comdat any

$_ZN4base8internal23QueryCancellationTraitsINS0_9BindStateIMN11google_apis5drive19DriveApiDataRequestINS3_10ChangeListEEEFvNS3_17DriveApiErrorCodeENSt3__110unique_ptrIS6_NS9_14default_deleteIS6_EEEEEJNS_7WeakPtrIS7_EES8_EEEEEbPKNS0_13BindStateBaseENSJ_21CancellationQueryModeE = comdat any

$_ZTVN11google_apis5drive19DriveApiDataRequestINS_12FileResourceEEE = comdat any

$_ZTVN11google_apis5drive19DriveApiDataRequestINS_13TeamDriveListEEE = comdat any

$_ZTVN11google_apis5drive19DriveApiDataRequestINS_14StartPageTokenEEE = comdat any

$_ZTVN11google_apis5drive19DriveApiDataRequestINS_8FileListEEE = comdat any

$_ZTVN11google_apis5drive19DriveApiDataRequestINS_13AboutResourceEEE = comdat any

$_ZTVN11google_apis5drive19DriveApiDataRequestINS_10ChangeListEEE = comdat any

@_ZN11google_apis5drive12_GLOBAL__N_129kMultipartMixedMimeTypePrefixE = internal constant [27 x i8] c"multipart/mixed; boundary=\00", align 16
@.str = private unnamed_addr constant [3 x i8] c"--\00", align 1
@_ZN11google_apis5drive12_GLOBAL__N_17kHttpBrE = internal constant [3 x i8] c"\0D\0A\00", align 1
@.str.1 = private unnamed_addr constant [10 x i8] c"HTTP/1.1 \00", align 1
@.str.2 = private unnamed_addr constant [3 x i8] c" \09\00", align 1
@_ZTVN11google_apis5drive27DriveApiPartialFieldRequestE = hidden unnamed_addr constant { [21 x i8*], [7 x i8*] } { [21 x i8*] [i8* null, i8* null, i8* bitcast (void (%"class.google_apis::drive::DriveApiPartialFieldRequest"*)* @_ZN11google_apis5drive27DriveApiPartialFieldRequestD2Ev to i8*), i8* bitcast (void (%"class.google_apis::drive::DriveApiPartialFieldRequest"*)* @_ZN11google_apis5drive27DriveApiPartialFieldRequestD0Ev to i8*), i8* bitcast (void (%"class.google_apis::UrlFetchRequestBase"*, %"class.std::__1::basic_string"*, %"class.std::__1::basic_string"*, %"class.base::RepeatingCallback"*)* @_ZN11google_apis19UrlFetchRequestBase5StartERKNSt3__112basic_stringIcNS1_11char_traitsIcEENS1_9allocatorIcEEEES9_N4base17RepeatingCallbackIFvPNS_29AuthenticatedRequestInterfaceEEEE to i8*), i8* bitcast (void (%"class.google_apis::UrlFetchRequestBase"*, i32)* @_ZN11google_apis19UrlFetchRequestBase12OnAuthFailedENS_17DriveApiErrorCodeE to i8*), i8* bitcast (void ()* @_ZN11google_apis19UrlFetchRequestBase10GetWeakPtrEv to i8*), i8* bitcast (void (%"class.google_apis::UrlFetchRequestBase"*)* @_ZN11google_apis19UrlFetchRequestBase6CancelEv to i8*), i8* bitcast (void (%"class.google_apis::UrlFetchRequestBase"*, %"class.base::OnceCallback.127"*)* @_ZN11google_apis19UrlFetchRequestBase7PrepareEN4base12OnceCallbackIFvNS_17DriveApiErrorCodeEEEE to i8*), i8* bitcast (void (%class.GURL*, %"class.google_apis::drive::DriveApiPartialFieldRequest"*)* @_ZNK11google_apis5drive27DriveApiPartialFieldRequest6GetURLEv to i8*), i8* bitcast (void (%"class.std::__1::basic_string"*, %"class.google_apis::UrlFetchRequestBase"*)* @_ZNK11google_apis19UrlFetchRequestBase14GetRequestTypeEv to i8*), i8* bitcast (void (%"class.std::__1::vector.58"*, %"class.google_apis::UrlFetchRequestBase"*)* @_ZNK11google_apis19UrlFetchRequestBase22GetExtraRequestHeadersEv to i8*), i8* bitcast (i1 (%"class.google_apis::UrlFetchRequestBase"*, %"class.std::__1::basic_string"*, %"class.std::__1::basic_string"*)* @_ZN11google_apis19UrlFetchRequestBase14GetContentDataEPNSt3__112basic_stringIcNS1_11char_traitsIcEENS1_9allocatorIcEEEES8_ to i8*), i8* bitcast (i1 (%"class.google_apis::UrlFetchRequestBase"*, %"class.base::FilePath"*, i64*, i64*, %"class.std::__1::basic_string"*)* @_ZN11google_apis19UrlFetchRequestBase14GetContentFileEPN4base8FilePathEPlS4_PNSt3__112basic_stringIcNS5_11char_traitsIcEENS5_9allocatorIcEEEE to i8*), i8* bitcast (void (%"class.google_apis::UrlFetchRequestBase"*, %"class.base::FilePath"*, %"class.base::RepeatingCallback.46"*)* @_ZN11google_apis19UrlFetchRequestBase17GetOutputFilePathEPN4base8FilePathEPNS1_17RepeatingCallbackIFvNS_17DriveApiErrorCodeENSt3__110unique_ptrINS6_12basic_stringIcNS6_11char_traitsIcEENS6_9allocatorIcEEEENS6_14default_deleteISD_EEEEbEEE to i8*), i8* bitcast (void ()* @__cxa_pure_virtual to i8*), i8* bitcast (void ()* @__cxa_pure_virtual to i8*), i8* bitcast (void (%"class.google_apis::UrlFetchRequestBase"*, i8*, i64, %"class.base::OnceCallback.338"*)* @_ZN11google_apis19UrlFetchRequestBase14OnDataReceivedEN4base16BasicStringPieceIcNSt3__111char_traitsIcEEEENS1_12OnceCallbackIFvvEEE to i8*), i8* bitcast (void (%"class.google_apis::UrlFetchRequestBase"*, i1)* @_ZN11google_apis19UrlFetchRequestBase10OnCompleteEb to i8*), i8* bitcast (void (%"class.google_apis::UrlFetchRequestBase"*, %"class.base::OnceCallback.338"*)* @_ZN11google_apis19UrlFetchRequestBase7OnRetryEN4base12OnceCallbackIFvvEEE to i8*), i8* bitcast (void ()* @__cxa_pure_virtual to i8*)], [7 x i8*] [i8* inttoptr (i64 -8 to i8*), i8* null, i8* bitcast (void (%"class.google_apis::UrlFetchRequestBase"*, i8*, i64, %"class.base::OnceCallback.338"*)* @_ZThn8_N11google_apis19UrlFetchRequestBase14OnDataReceivedEN4base16BasicStringPieceIcNSt3__111char_traitsIcEEEENS1_12OnceCallbackIFvvEEE to i8*), i8* bitcast (void (%"class.google_apis::UrlFetchRequestBase"*, i1)* @_ZThn8_N11google_apis19UrlFetchRequestBase10OnCompleteEb to i8*), i8* bitcast (void (%"class.google_apis::UrlFetchRequestBase"*, %"class.base::OnceCallback.338"*)* @_ZThn8_N11google_apis19UrlFetchRequestBase7OnRetryEN4base12OnceCallbackIFvvEEE to i8*), i8* bitcast (void (%"class.google_apis::drive::DriveApiPartialFieldRequest"*)* @_ZThn8_N11google_apis5drive27DriveApiPartialFieldRequestD1Ev to i8*), i8* bitcast (void (%"class.google_apis::drive::DriveApiPartialFieldRequest"*)* @_ZThn8_N11google_apis5drive27DriveApiPartialFieldRequestD0Ev to i8*)] }, align 8
@.str.3 = private unnamed_addr constant [7 x i8] c"fields\00", align 1
@_ZTVN11google_apis5drive15FilesGetRequestE = hidden unnamed_addr constant { [21 x i8*], [7 x i8*] } { [21 x i8*] [i8* null, i8* null, i8* bitcast (void (%"class.google_apis::drive::FilesGetRequest"*)* @_ZN11google_apis5drive15FilesGetRequestD2Ev to i8*), i8* bitcast (void (%"class.google_apis::drive::FilesGetRequest"*)* @_ZN11google_apis5drive15FilesGetRequestD0Ev to i8*), i8* bitcast (void (%"class.google_apis::UrlFetchRequestBase"*, %"class.std::__1::basic_string"*, %"class.std::__1::basic_string"*, %"class.base::RepeatingCallback"*)* @_ZN11google_apis19UrlFetchRequestBase5StartERKNSt3__112basic_stringIcNS1_11char_traitsIcEENS1_9allocatorIcEEEES9_N4base17RepeatingCallbackIFvPNS_29AuthenticatedRequestInterfaceEEEE to i8*), i8* bitcast (void (%"class.google_apis::UrlFetchRequestBase"*, i32)* @_ZN11google_apis19UrlFetchRequestBase12OnAuthFailedENS_17DriveApiErrorCodeE to i8*), i8* bitcast (void ()* @_ZN11google_apis19UrlFetchRequestBase10GetWeakPtrEv to i8*), i8* bitcast (void (%"class.google_apis::UrlFetchRequestBase"*)* @_ZN11google_apis19UrlFetchRequestBase6CancelEv to i8*), i8* bitcast (void (%"class.google_apis::UrlFetchRequestBase"*, %"class.base::OnceCallback.127"*)* @_ZN11google_apis19UrlFetchRequestBase7PrepareEN4base12OnceCallbackIFvNS_17DriveApiErrorCodeEEEE to i8*), i8* bitcast (void (%class.GURL*, %"class.google_apis::drive::DriveApiPartialFieldRequest"*)* @_ZNK11google_apis5drive27DriveApiPartialFieldRequest6GetURLEv to i8*), i8* bitcast (void (%"class.std::__1::basic_string"*, %"class.google_apis::UrlFetchRequestBase"*)* @_ZNK11google_apis19UrlFetchRequestBase14GetRequestTypeEv to i8*), i8* bitcast (void (%"class.std::__1::vector.58"*, %"class.google_apis::UrlFetchRequestBase"*)* @_ZNK11google_apis19UrlFetchRequestBase22GetExtraRequestHeadersEv to i8*), i8* bitcast (i1 (%"class.google_apis::UrlFetchRequestBase"*, %"class.std::__1::basic_string"*, %"class.std::__1::basic_string"*)* @_ZN11google_apis19UrlFetchRequestBase14GetContentDataEPNSt3__112basic_stringIcNS1_11char_traitsIcEENS1_9allocatorIcEEEES8_ to i8*), i8* bitcast (i1 (%"class.google_apis::UrlFetchRequestBase"*, %"class.base::FilePath"*, i64*, i64*, %"class.std::__1::basic_string"*)* @_ZN11google_apis19UrlFetchRequestBase14GetContentFileEPN4base8FilePathEPlS4_PNSt3__112basic_stringIcNS5_11char_traitsIcEENS5_9allocatorIcEEEE to i8*), i8* bitcast (void (%"class.google_apis::UrlFetchRequestBase"*, %"class.base::FilePath"*, %"class.base::RepeatingCallback.46"*)* @_ZN11google_apis19UrlFetchRequestBase17GetOutputFilePathEPN4base8FilePathEPNS1_17RepeatingCallbackIFvNS_17DriveApiErrorCodeENSt3__110unique_ptrINS6_12basic_stringIcNS6_11char_traitsIcEENS6_9allocatorIcEEEENS6_14default_deleteISD_EEEEbEEE to i8*), i8* bitcast (void (%"class.google_apis::drive::DriveApiDataRequest"*, %"class.network::mojom::URLResponseHead"*, %"class.base::FilePath"*, %"class.std::__1::basic_string"*)* @_ZN11google_apis5drive19DriveApiDataRequestINS_12FileResourceEE22ProcessURLFetchResultsEPKN7network5mojom15URLResponseHeadEN4base8FilePathENSt3__112basic_stringIcNSB_11char_traitsIcEENSB_9allocatorIcEEEE to i8*), i8* bitcast (void (%"class.google_apis::drive::DriveApiDataRequest"*, i32)* @_ZN11google_apis5drive19DriveApiDataRequestINS_12FileResourceEE29RunCallbackOnPrematureFailureENS_17DriveApiErrorCodeE to i8*), i8* bitcast (void (%"class.google_apis::UrlFetchRequestBase"*, i8*, i64, %"class.base::OnceCallback.338"*)* @_ZN11google_apis19UrlFetchRequestBase14OnDataReceivedEN4base16BasicStringPieceIcNSt3__111char_traitsIcEEEENS1_12OnceCallbackIFvvEEE to i8*), i8* bitcast (void (%"class.google_apis::UrlFetchRequestBase"*, i1)* @_ZN11google_apis19UrlFetchRequestBase10OnCompleteEb to i8*), i8* bitcast (void (%"class.google_apis::UrlFetchRequestBase"*, %"class.base::OnceCallback.338"*)* @_ZN11google_apis19UrlFetchRequestBase7OnRetryEN4base12OnceCallbackIFvvEEE to i8*), i8* bitcast (void (%class.GURL*, %"class.google_apis::drive::FilesGetRequest"*)* @_ZNK11google_apis5drive15FilesGetRequest14GetURLInternalEv to i8*)], [7 x i8*] [i8* inttoptr (i64 -8 to i8*), i8* null, i8* bitcast (void (%"class.google_apis::UrlFetchRequestBase"*, i8*, i64, %"class.base::OnceCallback.338"*)* @_ZThn8_N11google_apis19UrlFetchRequestBase14OnDataReceivedEN4base16BasicStringPieceIcNSt3__111char_traitsIcEEEENS1_12OnceCallbackIFvvEEE to i8*), i8* bitcast (void (%"class.google_apis::UrlFetchRequestBase"*, i1)* @_ZThn8_N11google_apis19UrlFetchRequestBase10OnCompleteEb to i8*), i8* bitcast (void (%"class.google_apis::UrlFetchRequestBase"*, %"class.base::OnceCallback.338"*)* @_ZThn8_N11google_apis19UrlFetchRequestBase7OnRetryEN4base12OnceCallbackIFvvEEE to i8*), i8* bitcast (void (%"class.google_apis::drive::FilesGetRequest"*)* @_ZThn8_N11google_apis5drive15FilesGetRequestD1Ev to i8*), i8* bitcast (void (%"class.google_apis::drive::FilesGetRequest"*)* @_ZThn8_N11google_apis5drive15FilesGetRequestD0Ev to i8*)] }, align 8
@_ZTVN11google_apis5drive18FilesInsertRequestE = hidden unnamed_addr constant { [21 x i8*], [7 x i8*] } { [21 x i8*] [i8* null, i8* null, i8* bitcast (void (%"class.google_apis::drive::FilesInsertRequest"*)* @_ZN11google_apis5drive18FilesInsertRequestD2Ev to i8*), i8* bitcast (void (%"class.google_apis::drive::FilesInsertRequest"*)* @_ZN11google_apis5drive18FilesInsertRequestD0Ev to i8*), i8* bitcast (void (%"class.google_apis::UrlFetchRequestBase"*, %"class.std::__1::basic_string"*, %"class.std::__1::basic_string"*, %"class.base::RepeatingCallback"*)* @_ZN11google_apis19UrlFetchRequestBase5StartERKNSt3__112basic_stringIcNS1_11char_traitsIcEENS1_9allocatorIcEEEES9_N4base17RepeatingCallbackIFvPNS_29AuthenticatedRequestInterfaceEEEE to i8*), i8* bitcast (void (%"class.google_apis::UrlFetchRequestBase"*, i32)* @_ZN11google_apis19UrlFetchRequestBase12OnAuthFailedENS_17DriveApiErrorCodeE to i8*), i8* bitcast (void ()* @_ZN11google_apis19UrlFetchRequestBase10GetWeakPtrEv to i8*), i8* bitcast (void (%"class.google_apis::UrlFetchRequestBase"*)* @_ZN11google_apis19UrlFetchRequestBase6CancelEv to i8*), i8* bitcast (void (%"class.google_apis::UrlFetchRequestBase"*, %"class.base::OnceCallback.127"*)* @_ZN11google_apis19UrlFetchRequestBase7PrepareEN4base12OnceCallbackIFvNS_17DriveApiErrorCodeEEEE to i8*), i8* bitcast (void (%class.GURL*, %"class.google_apis::drive::DriveApiPartialFieldRequest"*)* @_ZNK11google_apis5drive27DriveApiPartialFieldRequest6GetURLEv to i8*), i8* bitcast (void (%"class.std::__1::basic_string"*, %"class.google_apis::drive::FilesInsertRequest"*)* @_ZNK11google_apis5drive18FilesInsertRequest14GetRequestTypeEv to i8*), i8* bitcast (void (%"class.std::__1::vector.58"*, %"class.google_apis::UrlFetchRequestBase"*)* @_ZNK11google_apis19UrlFetchRequestBase22GetExtraRequestHeadersEv to i8*), i8* bitcast (i1 (%"class.google_apis::drive::FilesInsertRequest"*, %"class.std::__1::basic_string"*, %"class.std::__1::basic_string"*)* @_ZN11google_apis5drive18FilesInsertRequest14GetContentDataEPNSt3__112basic_stringIcNS2_11char_traitsIcEENS2_9allocatorIcEEEES9_ to i8*), i8* bitcast (i1 (%"class.google_apis::UrlFetchRequestBase"*, %"class.base::FilePath"*, i64*, i64*, %"class.std::__1::basic_string"*)* @_ZN11google_apis19UrlFetchRequestBase14GetContentFileEPN4base8FilePathEPlS4_PNSt3__112basic_stringIcNS5_11char_traitsIcEENS5_9allocatorIcEEEE to i8*), i8* bitcast (void (%"class.google_apis::UrlFetchRequestBase"*, %"class.base::FilePath"*, %"class.base::RepeatingCallback.46"*)* @_ZN11google_apis19UrlFetchRequestBase17GetOutputFilePathEPN4base8FilePathEPNS1_17RepeatingCallbackIFvNS_17DriveApiErrorCodeENSt3__110unique_ptrINS6_12basic_stringIcNS6_11char_traitsIcEENS6_9allocatorIcEEEENS6_14default_deleteISD_EEEEbEEE to i8*), i8* bitcast (void (%"class.google_apis::drive::DriveApiDataRequest"*, %"class.network::mojom::URLResponseHead"*, %"class.base::FilePath"*, %"class.std::__1::basic_string"*)* @_ZN11google_apis5drive19DriveApiDataRequestINS_12FileResourceEE22ProcessURLFetchResultsEPKN7network5mojom15URLResponseHeadEN4base8FilePathENSt3__112basic_stringIcNSB_11char_traitsIcEENSB_9allocatorIcEEEE to i8*), i8* bitcast (void (%"class.google_apis::drive::DriveApiDataRequest"*, i32)* @_ZN11google_apis5drive19DriveApiDataRequestINS_12FileResourceEE29RunCallbackOnPrematureFailureENS_17DriveApiErrorCodeE to i8*), i8* bitcast (void (%"class.google_apis::UrlFetchRequestBase"*, i8*, i64, %"class.base::OnceCallback.338"*)* @_ZN11google_apis19UrlFetchRequestBase14OnDataReceivedEN4base16BasicStringPieceIcNSt3__111char_traitsIcEEEENS1_12OnceCallbackIFvvEEE to i8*), i8* bitcast (void (%"class.google_apis::UrlFetchRequestBase"*, i1)* @_ZN11google_apis19UrlFetchRequestBase10OnCompleteEb to i8*), i8* bitcast (void (%"class.google_apis::UrlFetchRequestBase"*, %"class.base::OnceCallback.338"*)* @_ZN11google_apis19UrlFetchRequestBase7OnRetryEN4base12OnceCallbackIFvvEEE to i8*), i8* bitcast (void (%class.GURL*, %"class.google_apis::drive::FilesInsertRequest"*)* @_ZNK11google_apis5drive18FilesInsertRequest14GetURLInternalEv to i8*)], [7 x i8*] [i8* inttoptr (i64 -8 to i8*), i8* null, i8* bitcast (void (%"class.google_apis::UrlFetchRequestBase"*, i8*, i64, %"class.base::OnceCallback.338"*)* @_ZThn8_N11google_apis19UrlFetchRequestBase14OnDataReceivedEN4base16BasicStringPieceIcNSt3__111char_traitsIcEEEENS1_12OnceCallbackIFvvEEE to i8*), i8* bitcast (void (%"class.google_apis::UrlFetchRequestBase"*, i1)* @_ZThn8_N11google_apis19UrlFetchRequestBase10OnCompleteEb to i8*), i8* bitcast (void (%"class.google_apis::UrlFetchRequestBase"*, %"class.base::OnceCallback.338"*)* @_ZThn8_N11google_apis19UrlFetchRequestBase7OnRetryEN4base12OnceCallbackIFvvEEE to i8*), i8* bitcast (void (%"class.google_apis::drive::FilesInsertRequest"*)* @_ZThn8_N11google_apis5drive18FilesInsertRequestD1Ev to i8*), i8* bitcast (void (%"class.google_apis::drive::FilesInsertRequest"*)* @_ZThn8_N11google_apis5drive18FilesInsertRequestD0Ev to i8*)] }, align 8
@_ZN11google_apis4util27kContentTypeApplicationJsonE = external constant [0 x i8], align 1
@.str.5 = private unnamed_addr constant [19 x i8] c"lastViewedByMeDate\00", align 1
@.str.6 = private unnamed_addr constant [9 x i8] c"mimeType\00", align 1
@.str.7 = private unnamed_addr constant [13 x i8] c"modifiedDate\00", align 1
@.str.8 = private unnamed_addr constant [3 x i8] c"id\00", align 1
@.str.9 = private unnamed_addr constant [8 x i8] c"parents\00", align 1
@.str.10 = private unnamed_addr constant [6 x i8] c"title\00", align 1
@.str.11 = private unnamed_addr constant [8 x i8] c"PRIVATE\00", align 1
@_ZTVN11google_apis5drive17FilesPatchRequestE = hidden unnamed_addr constant { [21 x i8*], [7 x i8*] } { [21 x i8*] [i8* null, i8* null, i8* bitcast (void (%"class.google_apis::drive::FilesPatchRequest"*)* @_ZN11google_apis5drive17FilesPatchRequestD2Ev to i8*), i8* bitcast (void (%"class.google_apis::drive::FilesPatchRequest"*)* @_ZN11google_apis5drive17FilesPatchRequestD0Ev to i8*), i8* bitcast (void (%"class.google_apis::UrlFetchRequestBase"*, %"class.std::__1::basic_string"*, %"class.std::__1::basic_string"*, %"class.base::RepeatingCallback"*)* @_ZN11google_apis19UrlFetchRequestBase5StartERKNSt3__112basic_stringIcNS1_11char_traitsIcEENS1_9allocatorIcEEEES9_N4base17RepeatingCallbackIFvPNS_29AuthenticatedRequestInterfaceEEEE to i8*), i8* bitcast (void (%"class.google_apis::UrlFetchRequestBase"*, i32)* @_ZN11google_apis19UrlFetchRequestBase12OnAuthFailedENS_17DriveApiErrorCodeE to i8*), i8* bitcast (void ()* @_ZN11google_apis19UrlFetchRequestBase10GetWeakPtrEv to i8*), i8* bitcast (void (%"class.google_apis::UrlFetchRequestBase"*)* @_ZN11google_apis19UrlFetchRequestBase6CancelEv to i8*), i8* bitcast (void (%"class.google_apis::UrlFetchRequestBase"*, %"class.base::OnceCallback.127"*)* @_ZN11google_apis19UrlFetchRequestBase7PrepareEN4base12OnceCallbackIFvNS_17DriveApiErrorCodeEEEE to i8*), i8* bitcast (void (%class.GURL*, %"class.google_apis::drive::DriveApiPartialFieldRequest"*)* @_ZNK11google_apis5drive27DriveApiPartialFieldRequest6GetURLEv to i8*), i8* bitcast (void (%"class.std::__1::basic_string"*, %"class.google_apis::drive::FilesPatchRequest"*)* @_ZNK11google_apis5drive17FilesPatchRequest14GetRequestTypeEv to i8*), i8* bitcast (void (%"class.std::__1::vector.58"*, %"class.google_apis::drive::FilesPatchRequest"*)* @_ZNK11google_apis5drive17FilesPatchRequest22GetExtraRequestHeadersEv to i8*), i8* bitcast (i1 (%"class.google_apis::drive::FilesPatchRequest"*, %"class.std::__1::basic_string"*, %"class.std::__1::basic_string"*)* @_ZN11google_apis5drive17FilesPatchRequest14GetContentDataEPNSt3__112basic_stringIcNS2_11char_traitsIcEENS2_9allocatorIcEEEES9_ to i8*), i8* bitcast (i1 (%"class.google_apis::UrlFetchRequestBase"*, %"class.base::FilePath"*, i64*, i64*, %"class.std::__1::basic_string"*)* @_ZN11google_apis19UrlFetchRequestBase14GetContentFileEPN4base8FilePathEPlS4_PNSt3__112basic_stringIcNS5_11char_traitsIcEENS5_9allocatorIcEEEE to i8*), i8* bitcast (void (%"class.google_apis::UrlFetchRequestBase"*, %"class.base::FilePath"*, %"class.base::RepeatingCallback.46"*)* @_ZN11google_apis19UrlFetchRequestBase17GetOutputFilePathEPN4base8FilePathEPNS1_17RepeatingCallbackIFvNS_17DriveApiErrorCodeENSt3__110unique_ptrINS6_12basic_stringIcNS6_11char_traitsIcEENS6_9allocatorIcEEEENS6_14default_deleteISD_EEEEbEEE to i8*), i8* bitcast (void (%"class.google_apis::drive::DriveApiDataRequest"*, %"class.network::mojom::URLResponseHead"*, %"class.base::FilePath"*, %"class.std::__1::basic_string"*)* @_ZN11google_apis5drive19DriveApiDataRequestINS_12FileResourceEE22ProcessURLFetchResultsEPKN7network5mojom15URLResponseHeadEN4base8FilePathENSt3__112basic_stringIcNSB_11char_traitsIcEENSB_9allocatorIcEEEE to i8*), i8* bitcast (void (%"class.google_apis::drive::DriveApiDataRequest"*, i32)* @_ZN11google_apis5drive19DriveApiDataRequestINS_12FileResourceEE29RunCallbackOnPrematureFailureENS_17DriveApiErrorCodeE to i8*), i8* bitcast (void (%"class.google_apis::UrlFetchRequestBase"*, i8*, i64, %"class.base::OnceCallback.338"*)* @_ZN11google_apis19UrlFetchRequestBase14OnDataReceivedEN4base16BasicStringPieceIcNSt3__111char_traitsIcEEEENS1_12OnceCallbackIFvvEEE to i8*), i8* bitcast (void (%"class.google_apis::UrlFetchRequestBase"*, i1)* @_ZN11google_apis19UrlFetchRequestBase10OnCompleteEb to i8*), i8* bitcast (void (%"class.google_apis::UrlFetchRequestBase"*, %"class.base::OnceCallback.338"*)* @_ZN11google_apis19UrlFetchRequestBase7OnRetryEN4base12OnceCallbackIFvvEEE to i8*), i8* bitcast (void (%class.GURL*, %"class.google_apis::drive::FilesPatchRequest"*)* @_ZNK11google_apis5drive17FilesPatchRequest14GetURLInternalEv to i8*)], [7 x i8*] [i8* inttoptr (i64 -8 to i8*), i8* null, i8* bitcast (void (%"class.google_apis::UrlFetchRequestBase"*, i8*, i64, %"class.base::OnceCallback.338"*)* @_ZThn8_N11google_apis19UrlFetchRequestBase14OnDataReceivedEN4base16BasicStringPieceIcNSt3__111char_traitsIcEEEENS1_12OnceCallbackIFvvEEE to i8*), i8* bitcast (void (%"class.google_apis::UrlFetchRequestBase"*, i1)* @_ZThn8_N11google_apis19UrlFetchRequestBase10OnCompleteEb to i8*), i8* bitcast (void (%"class.google_apis::UrlFetchRequestBase"*, %"class.base::OnceCallback.338"*)* @_ZThn8_N11google_apis19UrlFetchRequestBase7OnRetryEN4base12OnceCallbackIFvvEEE to i8*), i8* bitcast (void (%"class.google_apis::drive::FilesPatchRequest"*)* @_ZThn8_N11google_apis5drive17FilesPatchRequestD1Ev to i8*), i8* bitcast (void (%"class.google_apis::drive::FilesPatchRequest"*)* @_ZThn8_N11google_apis5drive17FilesPatchRequestD0Ev to i8*)] }, align 8
@.str.13 = private unnamed_addr constant [6 x i8] c"PATCH\00", align 1
@_ZN11google_apis4util17kIfMatchAllHeaderE = external constant [0 x i8], align 1
@_ZTVN11google_apis5drive16FilesCopyRequestE = hidden unnamed_addr constant { [21 x i8*], [7 x i8*] } { [21 x i8*] [i8* null, i8* null, i8* bitcast (void (%"class.google_apis::drive::FilesCopyRequest"*)* @_ZN11google_apis5drive16FilesCopyRequestD2Ev to i8*), i8* bitcast (void (%"class.google_apis::drive::FilesCopyRequest"*)* @_ZN11google_apis5drive16FilesCopyRequestD0Ev to i8*), i8* bitcast (void (%"class.google_apis::UrlFetchRequestBase"*, %"class.std::__1::basic_string"*, %"class.std::__1::basic_string"*, %"class.base::RepeatingCallback"*)* @_ZN11google_apis19UrlFetchRequestBase5StartERKNSt3__112basic_stringIcNS1_11char_traitsIcEENS1_9allocatorIcEEEES9_N4base17RepeatingCallbackIFvPNS_29AuthenticatedRequestInterfaceEEEE to i8*), i8* bitcast (void (%"class.google_apis::UrlFetchRequestBase"*, i32)* @_ZN11google_apis19UrlFetchRequestBase12OnAuthFailedENS_17DriveApiErrorCodeE to i8*), i8* bitcast (void ()* @_ZN11google_apis19UrlFetchRequestBase10GetWeakPtrEv to i8*), i8* bitcast (void (%"class.google_apis::UrlFetchRequestBase"*)* @_ZN11google_apis19UrlFetchRequestBase6CancelEv to i8*), i8* bitcast (void (%"class.google_apis::UrlFetchRequestBase"*, %"class.base::OnceCallback.127"*)* @_ZN11google_apis19UrlFetchRequestBase7PrepareEN4base12OnceCallbackIFvNS_17DriveApiErrorCodeEEEE to i8*), i8* bitcast (void (%class.GURL*, %"class.google_apis::drive::DriveApiPartialFieldRequest"*)* @_ZNK11google_apis5drive27DriveApiPartialFieldRequest6GetURLEv to i8*), i8* bitcast (void (%"class.std::__1::basic_string"*, %"class.google_apis::drive::FilesCopyRequest"*)* @_ZNK11google_apis5drive16FilesCopyRequest14GetRequestTypeEv to i8*), i8* bitcast (void (%"class.std::__1::vector.58"*, %"class.google_apis::UrlFetchRequestBase"*)* @_ZNK11google_apis19UrlFetchRequestBase22GetExtraRequestHeadersEv to i8*), i8* bitcast (i1 (%"class.google_apis::drive::FilesCopyRequest"*, %"class.std::__1::basic_string"*, %"class.std::__1::basic_string"*)* @_ZN11google_apis5drive16FilesCopyRequest14GetContentDataEPNSt3__112basic_stringIcNS2_11char_traitsIcEENS2_9allocatorIcEEEES9_ to i8*), i8* bitcast (i1 (%"class.google_apis::UrlFetchRequestBase"*, %"class.base::FilePath"*, i64*, i64*, %"class.std::__1::basic_string"*)* @_ZN11google_apis19UrlFetchRequestBase14GetContentFileEPN4base8FilePathEPlS4_PNSt3__112basic_stringIcNS5_11char_traitsIcEENS5_9allocatorIcEEEE to i8*), i8* bitcast (void (%"class.google_apis::UrlFetchRequestBase"*, %"class.base::FilePath"*, %"class.base::RepeatingCallback.46"*)* @_ZN11google_apis19UrlFetchRequestBase17GetOutputFilePathEPN4base8FilePathEPNS1_17RepeatingCallbackIFvNS_17DriveApiErrorCodeENSt3__110unique_ptrINS6_12basic_stringIcNS6_11char_traitsIcEENS6_9allocatorIcEEEENS6_14default_deleteISD_EEEEbEEE to i8*), i8* bitcast (void (%"class.google_apis::drive::DriveApiDataRequest"*, %"class.network::mojom::URLResponseHead"*, %"class.base::FilePath"*, %"class.std::__1::basic_string"*)* @_ZN11google_apis5drive19DriveApiDataRequestINS_12FileResourceEE22ProcessURLFetchResultsEPKN7network5mojom15URLResponseHeadEN4base8FilePathENSt3__112basic_stringIcNSB_11char_traitsIcEENSB_9allocatorIcEEEE to i8*), i8* bitcast (void (%"class.google_apis::drive::DriveApiDataRequest"*, i32)* @_ZN11google_apis5drive19DriveApiDataRequestINS_12FileResourceEE29RunCallbackOnPrematureFailureENS_17DriveApiErrorCodeE to i8*), i8* bitcast (void (%"class.google_apis::UrlFetchRequestBase"*, i8*, i64, %"class.base::OnceCallback.338"*)* @_ZN11google_apis19UrlFetchRequestBase14OnDataReceivedEN4base16BasicStringPieceIcNSt3__111char_traitsIcEEEENS1_12OnceCallbackIFvvEEE to i8*), i8* bitcast (void (%"class.google_apis::UrlFetchRequestBase"*, i1)* @_ZN11google_apis19UrlFetchRequestBase10OnCompleteEb to i8*), i8* bitcast (void (%"class.google_apis::UrlFetchRequestBase"*, %"class.base::OnceCallback.338"*)* @_ZN11google_apis19UrlFetchRequestBase7OnRetryEN4base12OnceCallbackIFvvEEE to i8*), i8* bitcast (void (%class.GURL*, %"class.google_apis::drive::FilesCopyRequest"*)* @_ZNK11google_apis5drive16FilesCopyRequest14GetURLInternalEv to i8*)], [7 x i8*] [i8* inttoptr (i64 -8 to i8*), i8* null, i8* bitcast (void (%"class.google_apis::UrlFetchRequestBase"*, i8*, i64, %"class.base::OnceCallback.338"*)* @_ZThn8_N11google_apis19UrlFetchRequestBase14OnDataReceivedEN4base16BasicStringPieceIcNSt3__111char_traitsIcEEEENS1_12OnceCallbackIFvvEEE to i8*), i8* bitcast (void (%"class.google_apis::UrlFetchRequestBase"*, i1)* @_ZThn8_N11google_apis19UrlFetchRequestBase10OnCompleteEb to i8*), i8* bitcast (void (%"class.google_apis::UrlFetchRequestBase"*, %"class.base::OnceCallback.338"*)* @_ZThn8_N11google_apis19UrlFetchRequestBase7OnRetryEN4base12OnceCallbackIFvvEEE to i8*), i8* bitcast (void (%"class.google_apis::drive::FilesCopyRequest"*)* @_ZThn8_N11google_apis5drive16FilesCopyRequestD1Ev to i8*), i8* bitcast (void (%"class.google_apis::drive::FilesCopyRequest"*)* @_ZThn8_N11google_apis5drive16FilesCopyRequestD0Ev to i8*)] }, align 8
@_ZTVN11google_apis5drive20TeamDriveListRequestE = hidden unnamed_addr constant { [21 x i8*], [7 x i8*] } { [21 x i8*] [i8* null, i8* null, i8* bitcast (void (%"class.google_apis::drive::TeamDriveListRequest"*)* @_ZN11google_apis5drive20TeamDriveListRequestD2Ev to i8*), i8* bitcast (void (%"class.google_apis::drive::TeamDriveListRequest"*)* @_ZN11google_apis5drive20TeamDriveListRequestD0Ev to i8*), i8* bitcast (void (%"class.google_apis::UrlFetchRequestBase"*, %"class.std::__1::basic_string"*, %"class.std::__1::basic_string"*, %"class.base::RepeatingCallback"*)* @_ZN11google_apis19UrlFetchRequestBase5StartERKNSt3__112basic_stringIcNS1_11char_traitsIcEENS1_9allocatorIcEEEES9_N4base17RepeatingCallbackIFvPNS_29AuthenticatedRequestInterfaceEEEE to i8*), i8* bitcast (void (%"class.google_apis::UrlFetchRequestBase"*, i32)* @_ZN11google_apis19UrlFetchRequestBase12OnAuthFailedENS_17DriveApiErrorCodeE to i8*), i8* bitcast (void ()* @_ZN11google_apis19UrlFetchRequestBase10GetWeakPtrEv to i8*), i8* bitcast (void (%"class.google_apis::UrlFetchRequestBase"*)* @_ZN11google_apis19UrlFetchRequestBase6CancelEv to i8*), i8* bitcast (void (%"class.google_apis::UrlFetchRequestBase"*, %"class.base::OnceCallback.127"*)* @_ZN11google_apis19UrlFetchRequestBase7PrepareEN4base12OnceCallbackIFvNS_17DriveApiErrorCodeEEEE to i8*), i8* bitcast (void (%class.GURL*, %"class.google_apis::drive::DriveApiPartialFieldRequest"*)* @_ZNK11google_apis5drive27DriveApiPartialFieldRequest6GetURLEv to i8*), i8* bitcast (void (%"class.std::__1::basic_string"*, %"class.google_apis::UrlFetchRequestBase"*)* @_ZNK11google_apis19UrlFetchRequestBase14GetRequestTypeEv to i8*), i8* bitcast (void (%"class.std::__1::vector.58"*, %"class.google_apis::UrlFetchRequestBase"*)* @_ZNK11google_apis19UrlFetchRequestBase22GetExtraRequestHeadersEv to i8*), i8* bitcast (i1 (%"class.google_apis::UrlFetchRequestBase"*, %"class.std::__1::basic_string"*, %"class.std::__1::basic_string"*)* @_ZN11google_apis19UrlFetchRequestBase14GetContentDataEPNSt3__112basic_stringIcNS1_11char_traitsIcEENS1_9allocatorIcEEEES8_ to i8*), i8* bitcast (i1 (%"class.google_apis::UrlFetchRequestBase"*, %"class.base::FilePath"*, i64*, i64*, %"class.std::__1::basic_string"*)* @_ZN11google_apis19UrlFetchRequestBase14GetContentFileEPN4base8FilePathEPlS4_PNSt3__112basic_stringIcNS5_11char_traitsIcEENS5_9allocatorIcEEEE to i8*), i8* bitcast (void (%"class.google_apis::UrlFetchRequestBase"*, %"class.base::FilePath"*, %"class.base::RepeatingCallback.46"*)* @_ZN11google_apis19UrlFetchRequestBase17GetOutputFilePathEPN4base8FilePathEPNS1_17RepeatingCallbackIFvNS_17DriveApiErrorCodeENSt3__110unique_ptrINS6_12basic_stringIcNS6_11char_traitsIcEENS6_9allocatorIcEEEENS6_14default_deleteISD_EEEEbEEE to i8*), i8* bitcast (void (%"class.google_apis::drive::DriveApiDataRequest.118"*, %"class.network::mojom::URLResponseHead"*, %"class.base::FilePath"*, %"class.std::__1::basic_string"*)* @_ZN11google_apis5drive19DriveApiDataRequestINS_13TeamDriveListEE22ProcessURLFetchResultsEPKN7network5mojom15URLResponseHeadEN4base8FilePathENSt3__112basic_stringIcNSB_11char_traitsIcEENSB_9allocatorIcEEEE to i8*), i8* bitcast (void (%"class.google_apis::drive::DriveApiDataRequest.118"*, i32)* @_ZN11google_apis5drive19DriveApiDataRequestINS_13TeamDriveListEE29RunCallbackOnPrematureFailureENS_17DriveApiErrorCodeE to i8*), i8* bitcast (void (%"class.google_apis::UrlFetchRequestBase"*, i8*, i64, %"class.base::OnceCallback.338"*)* @_ZN11google_apis19UrlFetchRequestBase14OnDataReceivedEN4base16BasicStringPieceIcNSt3__111char_traitsIcEEEENS1_12OnceCallbackIFvvEEE to i8*), i8* bitcast (void (%"class.google_apis::UrlFetchRequestBase"*, i1)* @_ZN11google_apis19UrlFetchRequestBase10OnCompleteEb to i8*), i8* bitcast (void (%"class.google_apis::UrlFetchRequestBase"*, %"class.base::OnceCallback.338"*)* @_ZN11google_apis19UrlFetchRequestBase7OnRetryEN4base12OnceCallbackIFvvEEE to i8*), i8* bitcast (void (%class.GURL*, %"class.google_apis::drive::TeamDriveListRequest"*)* @_ZNK11google_apis5drive20TeamDriveListRequest14GetURLInternalEv to i8*)], [7 x i8*] [i8* inttoptr (i64 -8 to i8*), i8* null, i8* bitcast (void (%"class.google_apis::UrlFetchRequestBase"*, i8*, i64, %"class.base::OnceCallback.338"*)* @_ZThn8_N11google_apis19UrlFetchRequestBase14OnDataReceivedEN4base16BasicStringPieceIcNSt3__111char_traitsIcEEEENS1_12OnceCallbackIFvvEEE to i8*), i8* bitcast (void (%"class.google_apis::UrlFetchRequestBase"*, i1)* @_ZThn8_N11google_apis19UrlFetchRequestBase10OnCompleteEb to i8*), i8* bitcast (void (%"class.google_apis::UrlFetchRequestBase"*, %"class.base::OnceCallback.338"*)* @_ZThn8_N11google_apis19UrlFetchRequestBase7OnRetryEN4base12OnceCallbackIFvvEEE to i8*), i8* bitcast (void (%"class.google_apis::drive::TeamDriveListRequest"*)* @_ZThn8_N11google_apis5drive20TeamDriveListRequestD1Ev to i8*), i8* bitcast (void (%"class.google_apis::drive::TeamDriveListRequest"*)* @_ZThn8_N11google_apis5drive20TeamDriveListRequestD0Ev to i8*)] }, align 8
@_ZTVN11google_apis5drive21StartPageTokenRequestE = hidden unnamed_addr constant { [21 x i8*], [7 x i8*] } { [21 x i8*] [i8* null, i8* null, i8* bitcast (void (%"class.google_apis::drive::StartPageTokenRequest"*)* @_ZN11google_apis5drive21StartPageTokenRequestD2Ev to i8*), i8* bitcast (void (%"class.google_apis::drive::StartPageTokenRequest"*)* @_ZN11google_apis5drive21StartPageTokenRequestD0Ev to i8*), i8* bitcast (void (%"class.google_apis::UrlFetchRequestBase"*, %"class.std::__1::basic_string"*, %"class.std::__1::basic_string"*, %"class.base::RepeatingCallback"*)* @_ZN11google_apis19UrlFetchRequestBase5StartERKNSt3__112basic_stringIcNS1_11char_traitsIcEENS1_9allocatorIcEEEES9_N4base17RepeatingCallbackIFvPNS_29AuthenticatedRequestInterfaceEEEE to i8*), i8* bitcast (void (%"class.google_apis::UrlFetchRequestBase"*, i32)* @_ZN11google_apis19UrlFetchRequestBase12OnAuthFailedENS_17DriveApiErrorCodeE to i8*), i8* bitcast (void ()* @_ZN11google_apis19UrlFetchRequestBase10GetWeakPtrEv to i8*), i8* bitcast (void (%"class.google_apis::UrlFetchRequestBase"*)* @_ZN11google_apis19UrlFetchRequestBase6CancelEv to i8*), i8* bitcast (void (%"class.google_apis::UrlFetchRequestBase"*, %"class.base::OnceCallback.127"*)* @_ZN11google_apis19UrlFetchRequestBase7PrepareEN4base12OnceCallbackIFvNS_17DriveApiErrorCodeEEEE to i8*), i8* bitcast (void (%class.GURL*, %"class.google_apis::drive::DriveApiPartialFieldRequest"*)* @_ZNK11google_apis5drive27DriveApiPartialFieldRequest6GetURLEv to i8*), i8* bitcast (void (%"class.std::__1::basic_string"*, %"class.google_apis::UrlFetchRequestBase"*)* @_ZNK11google_apis19UrlFetchRequestBase14GetRequestTypeEv to i8*), i8* bitcast (void (%"class.std::__1::vector.58"*, %"class.google_apis::UrlFetchRequestBase"*)* @_ZNK11google_apis19UrlFetchRequestBase22GetExtraRequestHeadersEv to i8*), i8* bitcast (i1 (%"class.google_apis::UrlFetchRequestBase"*, %"class.std::__1::basic_string"*, %"class.std::__1::basic_string"*)* @_ZN11google_apis19UrlFetchRequestBase14GetContentDataEPNSt3__112basic_stringIcNS1_11char_traitsIcEENS1_9allocatorIcEEEES8_ to i8*), i8* bitcast (i1 (%"class.google_apis::UrlFetchRequestBase"*, %"class.base::FilePath"*, i64*, i64*, %"class.std::__1::basic_string"*)* @_ZN11google_apis19UrlFetchRequestBase14GetContentFileEPN4base8FilePathEPlS4_PNSt3__112basic_stringIcNS5_11char_traitsIcEENS5_9allocatorIcEEEE to i8*), i8* bitcast (void (%"class.google_apis::UrlFetchRequestBase"*, %"class.base::FilePath"*, %"class.base::RepeatingCallback.46"*)* @_ZN11google_apis19UrlFetchRequestBase17GetOutputFilePathEPN4base8FilePathEPNS1_17RepeatingCallbackIFvNS_17DriveApiErrorCodeENSt3__110unique_ptrINS6_12basic_stringIcNS6_11char_traitsIcEENS6_9allocatorIcEEEENS6_14default_deleteISD_EEEEbEEE to i8*), i8* bitcast (void (%"class.google_apis::drive::DriveApiDataRequest.121"*, %"class.network::mojom::URLResponseHead"*, %"class.base::FilePath"*, %"class.std::__1::basic_string"*)* @_ZN11google_apis5drive19DriveApiDataRequestINS_14StartPageTokenEE22ProcessURLFetchResultsEPKN7network5mojom15URLResponseHeadEN4base8FilePathENSt3__112basic_stringIcNSB_11char_traitsIcEENSB_9allocatorIcEEEE to i8*), i8* bitcast (void (%"class.google_apis::drive::DriveApiDataRequest.121"*, i32)* @_ZN11google_apis5drive19DriveApiDataRequestINS_14StartPageTokenEE29RunCallbackOnPrematureFailureENS_17DriveApiErrorCodeE to i8*), i8* bitcast (void (%"class.google_apis::UrlFetchRequestBase"*, i8*, i64, %"class.base::OnceCallback.338"*)* @_ZN11google_apis19UrlFetchRequestBase14OnDataReceivedEN4base16BasicStringPieceIcNSt3__111char_traitsIcEEEENS1_12OnceCallbackIFvvEEE to i8*), i8* bitcast (void (%"class.google_apis::UrlFetchRequestBase"*, i1)* @_ZN11google_apis19UrlFetchRequestBase10OnCompleteEb to i8*), i8* bitcast (void (%"class.google_apis::UrlFetchRequestBase"*, %"class.base::OnceCallback.338"*)* @_ZN11google_apis19UrlFetchRequestBase7OnRetryEN4base12OnceCallbackIFvvEEE to i8*), i8* bitcast (void (%class.GURL*, %"class.google_apis::drive::StartPageTokenRequest"*)* @_ZNK11google_apis5drive21StartPageTokenRequest14GetURLInternalEv to i8*)], [7 x i8*] [i8* inttoptr (i64 -8 to i8*), i8* null, i8* bitcast (void (%"class.google_apis::UrlFetchRequestBase"*, i8*, i64, %"class.base::OnceCallback.338"*)* @_ZThn8_N11google_apis19UrlFetchRequestBase14OnDataReceivedEN4base16BasicStringPieceIcNSt3__111char_traitsIcEEEENS1_12OnceCallbackIFvvEEE to i8*), i8* bitcast (void (%"class.google_apis::UrlFetchRequestBase"*, i1)* @_ZThn8_N11google_apis19UrlFetchRequestBase10OnCompleteEb to i8*), i8* bitcast (void (%"class.google_apis::UrlFetchRequestBase"*, %"class.base::OnceCallback.338"*)* @_ZThn8_N11google_apis19UrlFetchRequestBase7OnRetryEN4base12OnceCallbackIFvvEEE to i8*), i8* bitcast (void (%"class.google_apis::drive::StartPageTokenRequest"*)* @_ZThn8_N11google_apis5drive21StartPageTokenRequestD1Ev to i8*), i8* bitcast (void (%"class.google_apis::drive::StartPageTokenRequest"*)* @_ZThn8_N11google_apis5drive21StartPageTokenRequestD0Ev to i8*)] }, align 8
@_ZTVN11google_apis5drive16FilesListRequestE = hidden unnamed_addr constant { [21 x i8*], [7 x i8*] } { [21 x i8*] [i8* null, i8* null, i8* bitcast (void (%"class.google_apis::drive::FilesListRequest"*)* @_ZN11google_apis5drive16FilesListRequestD2Ev to i8*), i8* bitcast (void (%"class.google_apis::drive::FilesListRequest"*)* @_ZN11google_apis5drive16FilesListRequestD0Ev to i8*), i8* bitcast (void (%"class.google_apis::UrlFetchRequestBase"*, %"class.std::__1::basic_string"*, %"class.std::__1::basic_string"*, %"class.base::RepeatingCallback"*)* @_ZN11google_apis19UrlFetchRequestBase5StartERKNSt3__112basic_stringIcNS1_11char_traitsIcEENS1_9allocatorIcEEEES9_N4base17RepeatingCallbackIFvPNS_29AuthenticatedRequestInterfaceEEEE to i8*), i8* bitcast (void (%"class.google_apis::UrlFetchRequestBase"*, i32)* @_ZN11google_apis19UrlFetchRequestBase12OnAuthFailedENS_17DriveApiErrorCodeE to i8*), i8* bitcast (void ()* @_ZN11google_apis19UrlFetchRequestBase10GetWeakPtrEv to i8*), i8* bitcast (void (%"class.google_apis::UrlFetchRequestBase"*)* @_ZN11google_apis19UrlFetchRequestBase6CancelEv to i8*), i8* bitcast (void (%"class.google_apis::UrlFetchRequestBase"*, %"class.base::OnceCallback.127"*)* @_ZN11google_apis19UrlFetchRequestBase7PrepareEN4base12OnceCallbackIFvNS_17DriveApiErrorCodeEEEE to i8*), i8* bitcast (void (%class.GURL*, %"class.google_apis::drive::DriveApiPartialFieldRequest"*)* @_ZNK11google_apis5drive27DriveApiPartialFieldRequest6GetURLEv to i8*), i8* bitcast (void (%"class.std::__1::basic_string"*, %"class.google_apis::UrlFetchRequestBase"*)* @_ZNK11google_apis19UrlFetchRequestBase14GetRequestTypeEv to i8*), i8* bitcast (void (%"class.std::__1::vector.58"*, %"class.google_apis::UrlFetchRequestBase"*)* @_ZNK11google_apis19UrlFetchRequestBase22GetExtraRequestHeadersEv to i8*), i8* bitcast (i1 (%"class.google_apis::UrlFetchRequestBase"*, %"class.std::__1::basic_string"*, %"class.std::__1::basic_string"*)* @_ZN11google_apis19UrlFetchRequestBase14GetContentDataEPNSt3__112basic_stringIcNS1_11char_traitsIcEENS1_9allocatorIcEEEES8_ to i8*), i8* bitcast (i1 (%"class.google_apis::UrlFetchRequestBase"*, %"class.base::FilePath"*, i64*, i64*, %"class.std::__1::basic_string"*)* @_ZN11google_apis19UrlFetchRequestBase14GetContentFileEPN4base8FilePathEPlS4_PNSt3__112basic_stringIcNS5_11char_traitsIcEENS5_9allocatorIcEEEE to i8*), i8* bitcast (void (%"class.google_apis::UrlFetchRequestBase"*, %"class.base::FilePath"*, %"class.base::RepeatingCallback.46"*)* @_ZN11google_apis19UrlFetchRequestBase17GetOutputFilePathEPN4base8FilePathEPNS1_17RepeatingCallbackIFvNS_17DriveApiErrorCodeENSt3__110unique_ptrINS6_12basic_stringIcNS6_11char_traitsIcEENS6_9allocatorIcEEEENS6_14default_deleteISD_EEEEbEEE to i8*), i8* bitcast (void (%"class.google_apis::drive::DriveApiDataRequest.124"*, %"class.network::mojom::URLResponseHead"*, %"class.base::FilePath"*, %"class.std::__1::basic_string"*)* @_ZN11google_apis5drive19DriveApiDataRequestINS_8FileListEE22ProcessURLFetchResultsEPKN7network5mojom15URLResponseHeadEN4base8FilePathENSt3__112basic_stringIcNSB_11char_traitsIcEENSB_9allocatorIcEEEE to i8*), i8* bitcast (void (%"class.google_apis::drive::DriveApiDataRequest.124"*, i32)* @_ZN11google_apis5drive19DriveApiDataRequestINS_8FileListEE29RunCallbackOnPrematureFailureENS_17DriveApiErrorCodeE to i8*), i8* bitcast (void (%"class.google_apis::UrlFetchRequestBase"*, i8*, i64, %"class.base::OnceCallback.338"*)* @_ZN11google_apis19UrlFetchRequestBase14OnDataReceivedEN4base16BasicStringPieceIcNSt3__111char_traitsIcEEEENS1_12OnceCallbackIFvvEEE to i8*), i8* bitcast (void (%"class.google_apis::UrlFetchRequestBase"*, i1)* @_ZN11google_apis19UrlFetchRequestBase10OnCompleteEb to i8*), i8* bitcast (void (%"class.google_apis::UrlFetchRequestBase"*, %"class.base::OnceCallback.338"*)* @_ZN11google_apis19UrlFetchRequestBase7OnRetryEN4base12OnceCallbackIFvvEEE to i8*), i8* bitcast (void (%class.GURL*, %"class.google_apis::drive::FilesListRequest"*)* @_ZNK11google_apis5drive16FilesListRequest14GetURLInternalEv to i8*)], [7 x i8*] [i8* inttoptr (i64 -8 to i8*), i8* null, i8* bitcast (void (%"class.google_apis::UrlFetchRequestBase"*, i8*, i64, %"class.base::OnceCallback.338"*)* @_ZThn8_N11google_apis19UrlFetchRequestBase14OnDataReceivedEN4base16BasicStringPieceIcNSt3__111char_traitsIcEEEENS1_12OnceCallbackIFvvEEE to i8*), i8* bitcast (void (%"class.google_apis::UrlFetchRequestBase"*, i1)* @_ZThn8_N11google_apis19UrlFetchRequestBase10OnCompleteEb to i8*), i8* bitcast (void (%"class.google_apis::UrlFetchRequestBase"*, %"class.base::OnceCallback.338"*)* @_ZThn8_N11google_apis19UrlFetchRequestBase7OnRetryEN4base12OnceCallbackIFvvEEE to i8*), i8* bitcast (void (%"class.google_apis::drive::FilesListRequest"*)* @_ZThn8_N11google_apis5drive16FilesListRequestD1Ev to i8*), i8* bitcast (void (%"class.google_apis::drive::FilesListRequest"*)* @_ZThn8_N11google_apis5drive16FilesListRequestD0Ev to i8*)] }, align 8
@_ZTVN11google_apis5drive24FilesListNextPageRequestE = hidden unnamed_addr constant { [21 x i8*], [7 x i8*] } { [21 x i8*] [i8* null, i8* null, i8* bitcast (void (%"class.google_apis::drive::FilesListNextPageRequest"*)* @_ZN11google_apis5drive24FilesListNextPageRequestD2Ev to i8*), i8* bitcast (void (%"class.google_apis::drive::FilesListNextPageRequest"*)* @_ZN11google_apis5drive24FilesListNextPageRequestD0Ev to i8*), i8* bitcast (void (%"class.google_apis::UrlFetchRequestBase"*, %"class.std::__1::basic_string"*, %"class.std::__1::basic_string"*, %"class.base::RepeatingCallback"*)* @_ZN11google_apis19UrlFetchRequestBase5StartERKNSt3__112basic_stringIcNS1_11char_traitsIcEENS1_9allocatorIcEEEES9_N4base17RepeatingCallbackIFvPNS_29AuthenticatedRequestInterfaceEEEE to i8*), i8* bitcast (void (%"class.google_apis::UrlFetchRequestBase"*, i32)* @_ZN11google_apis19UrlFetchRequestBase12OnAuthFailedENS_17DriveApiErrorCodeE to i8*), i8* bitcast (void ()* @_ZN11google_apis19UrlFetchRequestBase10GetWeakPtrEv to i8*), i8* bitcast (void (%"class.google_apis::UrlFetchRequestBase"*)* @_ZN11google_apis19UrlFetchRequestBase6CancelEv to i8*), i8* bitcast (void (%"class.google_apis::UrlFetchRequestBase"*, %"class.base::OnceCallback.127"*)* @_ZN11google_apis19UrlFetchRequestBase7PrepareEN4base12OnceCallbackIFvNS_17DriveApiErrorCodeEEEE to i8*), i8* bitcast (void (%class.GURL*, %"class.google_apis::drive::DriveApiPartialFieldRequest"*)* @_ZNK11google_apis5drive27DriveApiPartialFieldRequest6GetURLEv to i8*), i8* bitcast (void (%"class.std::__1::basic_string"*, %"class.google_apis::UrlFetchRequestBase"*)* @_ZNK11google_apis19UrlFetchRequestBase14GetRequestTypeEv to i8*), i8* bitcast (void (%"class.std::__1::vector.58"*, %"class.google_apis::UrlFetchRequestBase"*)* @_ZNK11google_apis19UrlFetchRequestBase22GetExtraRequestHeadersEv to i8*), i8* bitcast (i1 (%"class.google_apis::UrlFetchRequestBase"*, %"class.std::__1::basic_string"*, %"class.std::__1::basic_string"*)* @_ZN11google_apis19UrlFetchRequestBase14GetContentDataEPNSt3__112basic_stringIcNS1_11char_traitsIcEENS1_9allocatorIcEEEES8_ to i8*), i8* bitcast (i1 (%"class.google_apis::UrlFetchRequestBase"*, %"class.base::FilePath"*, i64*, i64*, %"class.std::__1::basic_string"*)* @_ZN11google_apis19UrlFetchRequestBase14GetContentFileEPN4base8FilePathEPlS4_PNSt3__112basic_stringIcNS5_11char_traitsIcEENS5_9allocatorIcEEEE to i8*), i8* bitcast (void (%"class.google_apis::UrlFetchRequestBase"*, %"class.base::FilePath"*, %"class.base::RepeatingCallback.46"*)* @_ZN11google_apis19UrlFetchRequestBase17GetOutputFilePathEPN4base8FilePathEPNS1_17RepeatingCallbackIFvNS_17DriveApiErrorCodeENSt3__110unique_ptrINS6_12basic_stringIcNS6_11char_traitsIcEENS6_9allocatorIcEEEENS6_14default_deleteISD_EEEEbEEE to i8*), i8* bitcast (void (%"class.google_apis::drive::DriveApiDataRequest.124"*, %"class.network::mojom::URLResponseHead"*, %"class.base::FilePath"*, %"class.std::__1::basic_string"*)* @_ZN11google_apis5drive19DriveApiDataRequestINS_8FileListEE22ProcessURLFetchResultsEPKN7network5mojom15URLResponseHeadEN4base8FilePathENSt3__112basic_stringIcNSB_11char_traitsIcEENSB_9allocatorIcEEEE to i8*), i8* bitcast (void (%"class.google_apis::drive::DriveApiDataRequest.124"*, i32)* @_ZN11google_apis5drive19DriveApiDataRequestINS_8FileListEE29RunCallbackOnPrematureFailureENS_17DriveApiErrorCodeE to i8*), i8* bitcast (void (%"class.google_apis::UrlFetchRequestBase"*, i8*, i64, %"class.base::OnceCallback.338"*)* @_ZN11google_apis19UrlFetchRequestBase14OnDataReceivedEN4base16BasicStringPieceIcNSt3__111char_traitsIcEEEENS1_12OnceCallbackIFvvEEE to i8*), i8* bitcast (void (%"class.google_apis::UrlFetchRequestBase"*, i1)* @_ZN11google_apis19UrlFetchRequestBase10OnCompleteEb to i8*), i8* bitcast (void (%"class.google_apis::UrlFetchRequestBase"*, %"class.base::OnceCallback.338"*)* @_ZN11google_apis19UrlFetchRequestBase7OnRetryEN4base12OnceCallbackIFvvEEE to i8*), i8* bitcast (void (%class.GURL*, %"class.google_apis::drive::FilesListNextPageRequest"*)* @_ZNK11google_apis5drive24FilesListNextPageRequest14GetURLInternalEv to i8*)], [7 x i8*] [i8* inttoptr (i64 -8 to i8*), i8* null, i8* bitcast (void (%"class.google_apis::UrlFetchRequestBase"*, i8*, i64, %"class.base::OnceCallback.338"*)* @_ZThn8_N11google_apis19UrlFetchRequestBase14OnDataReceivedEN4base16BasicStringPieceIcNSt3__111char_traitsIcEEEENS1_12OnceCallbackIFvvEEE to i8*), i8* bitcast (void (%"class.google_apis::UrlFetchRequestBase"*, i1)* @_ZThn8_N11google_apis19UrlFetchRequestBase10OnCompleteEb to i8*), i8* bitcast (void (%"class.google_apis::UrlFetchRequestBase"*, %"class.base::OnceCallback.338"*)* @_ZThn8_N11google_apis19UrlFetchRequestBase7OnRetryEN4base12OnceCallbackIFvvEEE to i8*), i8* bitcast (void (%"class.google_apis::drive::FilesListNextPageRequest"*)* @_ZThn8_N11google_apis5drive24FilesListNextPageRequestD1Ev to i8*), i8* bitcast (void (%"class.google_apis::drive::FilesListNextPageRequest"*)* @_ZThn8_N11google_apis5drive24FilesListNextPageRequestD0Ev to i8*)] }, align 8
@_ZTVN11google_apis5drive18FilesDeleteRequestE = hidden unnamed_addr constant { [20 x i8*], [7 x i8*] } { [20 x i8*] [i8* null, i8* null, i8* bitcast (void (%"class.google_apis::drive::FilesDeleteRequest"*)* @_ZN11google_apis5drive18FilesDeleteRequestD2Ev to i8*), i8* bitcast (void (%"class.google_apis::drive::FilesDeleteRequest"*)* @_ZN11google_apis5drive18FilesDeleteRequestD0Ev to i8*), i8* bitcast (void (%"class.google_apis::UrlFetchRequestBase"*, %"class.std::__1::basic_string"*, %"class.std::__1::basic_string"*, %"class.base::RepeatingCallback"*)* @_ZN11google_apis19UrlFetchRequestBase5StartERKNSt3__112basic_stringIcNS1_11char_traitsIcEENS1_9allocatorIcEEEES9_N4base17RepeatingCallbackIFvPNS_29AuthenticatedRequestInterfaceEEEE to i8*), i8* bitcast (void (%"class.google_apis::UrlFetchRequestBase"*, i32)* @_ZN11google_apis19UrlFetchRequestBase12OnAuthFailedENS_17DriveApiErrorCodeE to i8*), i8* bitcast (void ()* @_ZN11google_apis19UrlFetchRequestBase10GetWeakPtrEv to i8*), i8* bitcast (void (%"class.google_apis::UrlFetchRequestBase"*)* @_ZN11google_apis19UrlFetchRequestBase6CancelEv to i8*), i8* bitcast (void (%"class.google_apis::UrlFetchRequestBase"*, %"class.base::OnceCallback.127"*)* @_ZN11google_apis19UrlFetchRequestBase7PrepareEN4base12OnceCallbackIFvNS_17DriveApiErrorCodeEEEE to i8*), i8* bitcast (void (%class.GURL*, %"class.google_apis::drive::FilesDeleteRequest"*)* @_ZNK11google_apis5drive18FilesDeleteRequest6GetURLEv to i8*), i8* bitcast (void (%"class.std::__1::basic_string"*, %"class.google_apis::drive::FilesDeleteRequest"*)* @_ZNK11google_apis5drive18FilesDeleteRequest14GetRequestTypeEv to i8*), i8* bitcast (void (%"class.std::__1::vector.58"*, %"class.google_apis::drive::FilesDeleteRequest"*)* @_ZNK11google_apis5drive18FilesDeleteRequest22GetExtraRequestHeadersEv to i8*), i8* bitcast (i1 (%"class.google_apis::UrlFetchRequestBase"*, %"class.std::__1::basic_string"*, %"class.std::__1::basic_string"*)* @_ZN11google_apis19UrlFetchRequestBase14GetContentDataEPNSt3__112basic_stringIcNS1_11char_traitsIcEENS1_9allocatorIcEEEES8_ to i8*), i8* bitcast (i1 (%"class.google_apis::UrlFetchRequestBase"*, %"class.base::FilePath"*, i64*, i64*, %"class.std::__1::basic_string"*)* @_ZN11google_apis19UrlFetchRequestBase14GetContentFileEPN4base8FilePathEPlS4_PNSt3__112basic_stringIcNS5_11char_traitsIcEENS5_9allocatorIcEEEE to i8*), i8* bitcast (void (%"class.google_apis::UrlFetchRequestBase"*, %"class.base::FilePath"*, %"class.base::RepeatingCallback.46"*)* @_ZN11google_apis19UrlFetchRequestBase17GetOutputFilePathEPN4base8FilePathEPNS1_17RepeatingCallbackIFvNS_17DriveApiErrorCodeENSt3__110unique_ptrINS6_12basic_stringIcNS6_11char_traitsIcEENS6_9allocatorIcEEEENS6_14default_deleteISD_EEEEbEEE to i8*), i8* bitcast (void (%"class.google_apis::EntryActionRequest"*, %"class.network::mojom::URLResponseHead"*, %"class.base::FilePath"*, %"class.std::__1::basic_string"*)* @_ZN11google_apis18EntryActionRequest22ProcessURLFetchResultsEPKN7network5mojom15URLResponseHeadEN4base8FilePathENSt3__112basic_stringIcNS8_11char_traitsIcEENS8_9allocatorIcEEEE to i8*), i8* bitcast (void (%"class.google_apis::EntryActionRequest"*, i32)* @_ZN11google_apis18EntryActionRequest29RunCallbackOnPrematureFailureENS_17DriveApiErrorCodeE to i8*), i8* bitcast (void (%"class.google_apis::UrlFetchRequestBase"*, i8*, i64, %"class.base::OnceCallback.338"*)* @_ZN11google_apis19UrlFetchRequestBase14OnDataReceivedEN4base16BasicStringPieceIcNSt3__111char_traitsIcEEEENS1_12OnceCallbackIFvvEEE to i8*), i8* bitcast (void (%"class.google_apis::UrlFetchRequestBase"*, i1)* @_ZN11google_apis19UrlFetchRequestBase10OnCompleteEb to i8*), i8* bitcast (void (%"class.google_apis::UrlFetchRequestBase"*, %"class.base::OnceCallback.338"*)* @_ZN11google_apis19UrlFetchRequestBase7OnRetryEN4base12OnceCallbackIFvvEEE to i8*)], [7 x i8*] [i8* inttoptr (i64 -8 to i8*), i8* null, i8* bitcast (void (%"class.google_apis::UrlFetchRequestBase"*, i8*, i64, %"class.base::OnceCallback.338"*)* @_ZThn8_N11google_apis19UrlFetchRequestBase14OnDataReceivedEN4base16BasicStringPieceIcNSt3__111char_traitsIcEEEENS1_12OnceCallbackIFvvEEE to i8*), i8* bitcast (void (%"class.google_apis::UrlFetchRequestBase"*, i1)* @_ZThn8_N11google_apis19UrlFetchRequestBase10OnCompleteEb to i8*), i8* bitcast (void (%"class.google_apis::UrlFetchRequestBase"*, %"class.base::OnceCallback.338"*)* @_ZThn8_N11google_apis19UrlFetchRequestBase7OnRetryEN4base12OnceCallbackIFvvEEE to i8*), i8* bitcast (void (%"class.google_apis::drive::FilesDeleteRequest"*)* @_ZThn8_N11google_apis5drive18FilesDeleteRequestD1Ev to i8*), i8* bitcast (void (%"class.google_apis::drive::FilesDeleteRequest"*)* @_ZThn8_N11google_apis5drive18FilesDeleteRequestD0Ev to i8*)] }, align 8
@.str.14 = private unnamed_addr constant [7 x i8] c"DELETE\00", align 1
@_ZTVN11google_apis5drive17FilesTrashRequestE = hidden unnamed_addr constant { [21 x i8*], [7 x i8*] } { [21 x i8*] [i8* null, i8* null, i8* bitcast (void (%"class.google_apis::drive::FilesTrashRequest"*)* @_ZN11google_apis5drive17FilesTrashRequestD2Ev to i8*), i8* bitcast (void (%"class.google_apis::drive::FilesTrashRequest"*)* @_ZN11google_apis5drive17FilesTrashRequestD0Ev to i8*), i8* bitcast (void (%"class.google_apis::UrlFetchRequestBase"*, %"class.std::__1::basic_string"*, %"class.std::__1::basic_string"*, %"class.base::RepeatingCallback"*)* @_ZN11google_apis19UrlFetchRequestBase5StartERKNSt3__112basic_stringIcNS1_11char_traitsIcEENS1_9allocatorIcEEEES9_N4base17RepeatingCallbackIFvPNS_29AuthenticatedRequestInterfaceEEEE to i8*), i8* bitcast (void (%"class.google_apis::UrlFetchRequestBase"*, i32)* @_ZN11google_apis19UrlFetchRequestBase12OnAuthFailedENS_17DriveApiErrorCodeE to i8*), i8* bitcast (void ()* @_ZN11google_apis19UrlFetchRequestBase10GetWeakPtrEv to i8*), i8* bitcast (void (%"class.google_apis::UrlFetchRequestBase"*)* @_ZN11google_apis19UrlFetchRequestBase6CancelEv to i8*), i8* bitcast (void (%"class.google_apis::UrlFetchRequestBase"*, %"class.base::OnceCallback.127"*)* @_ZN11google_apis19UrlFetchRequestBase7PrepareEN4base12OnceCallbackIFvNS_17DriveApiErrorCodeEEEE to i8*), i8* bitcast (void (%class.GURL*, %"class.google_apis::drive::DriveApiPartialFieldRequest"*)* @_ZNK11google_apis5drive27DriveApiPartialFieldRequest6GetURLEv to i8*), i8* bitcast (void (%"class.std::__1::basic_string"*, %"class.google_apis::drive::FilesTrashRequest"*)* @_ZNK11google_apis5drive17FilesTrashRequest14GetRequestTypeEv to i8*), i8* bitcast (void (%"class.std::__1::vector.58"*, %"class.google_apis::UrlFetchRequestBase"*)* @_ZNK11google_apis19UrlFetchRequestBase22GetExtraRequestHeadersEv to i8*), i8* bitcast (i1 (%"class.google_apis::UrlFetchRequestBase"*, %"class.std::__1::basic_string"*, %"class.std::__1::basic_string"*)* @_ZN11google_apis19UrlFetchRequestBase14GetContentDataEPNSt3__112basic_stringIcNS1_11char_traitsIcEENS1_9allocatorIcEEEES8_ to i8*), i8* bitcast (i1 (%"class.google_apis::UrlFetchRequestBase"*, %"class.base::FilePath"*, i64*, i64*, %"class.std::__1::basic_string"*)* @_ZN11google_apis19UrlFetchRequestBase14GetContentFileEPN4base8FilePathEPlS4_PNSt3__112basic_stringIcNS5_11char_traitsIcEENS5_9allocatorIcEEEE to i8*), i8* bitcast (void (%"class.google_apis::UrlFetchRequestBase"*, %"class.base::FilePath"*, %"class.base::RepeatingCallback.46"*)* @_ZN11google_apis19UrlFetchRequestBase17GetOutputFilePathEPN4base8FilePathEPNS1_17RepeatingCallbackIFvNS_17DriveApiErrorCodeENSt3__110unique_ptrINS6_12basic_stringIcNS6_11char_traitsIcEENS6_9allocatorIcEEEENS6_14default_deleteISD_EEEEbEEE to i8*), i8* bitcast (void (%"class.google_apis::drive::DriveApiDataRequest"*, %"class.network::mojom::URLResponseHead"*, %"class.base::FilePath"*, %"class.std::__1::basic_string"*)* @_ZN11google_apis5drive19DriveApiDataRequestINS_12FileResourceEE22ProcessURLFetchResultsEPKN7network5mojom15URLResponseHeadEN4base8FilePathENSt3__112basic_stringIcNSB_11char_traitsIcEENSB_9allocatorIcEEEE to i8*), i8* bitcast (void (%"class.google_apis::drive::DriveApiDataRequest"*, i32)* @_ZN11google_apis5drive19DriveApiDataRequestINS_12FileResourceEE29RunCallbackOnPrematureFailureENS_17DriveApiErrorCodeE to i8*), i8* bitcast (void (%"class.google_apis::UrlFetchRequestBase"*, i8*, i64, %"class.base::OnceCallback.338"*)* @_ZN11google_apis19UrlFetchRequestBase14OnDataReceivedEN4base16BasicStringPieceIcNSt3__111char_traitsIcEEEENS1_12OnceCallbackIFvvEEE to i8*), i8* bitcast (void (%"class.google_apis::UrlFetchRequestBase"*, i1)* @_ZN11google_apis19UrlFetchRequestBase10OnCompleteEb to i8*), i8* bitcast (void (%"class.google_apis::UrlFetchRequestBase"*, %"class.base::OnceCallback.338"*)* @_ZN11google_apis19UrlFetchRequestBase7OnRetryEN4base12OnceCallbackIFvvEEE to i8*), i8* bitcast (void (%class.GURL*, %"class.google_apis::drive::FilesTrashRequest"*)* @_ZNK11google_apis5drive17FilesTrashRequest14GetURLInternalEv to i8*)], [7 x i8*] [i8* inttoptr (i64 -8 to i8*), i8* null, i8* bitcast (void (%"class.google_apis::UrlFetchRequestBase"*, i8*, i64, %"class.base::OnceCallback.338"*)* @_ZThn8_N11google_apis19UrlFetchRequestBase14OnDataReceivedEN4base16BasicStringPieceIcNSt3__111char_traitsIcEEEENS1_12OnceCallbackIFvvEEE to i8*), i8* bitcast (void (%"class.google_apis::UrlFetchRequestBase"*, i1)* @_ZThn8_N11google_apis19UrlFetchRequestBase10OnCompleteEb to i8*), i8* bitcast (void (%"class.google_apis::UrlFetchRequestBase"*, %"class.base::OnceCallback.338"*)* @_ZThn8_N11google_apis19UrlFetchRequestBase7OnRetryEN4base12OnceCallbackIFvvEEE to i8*), i8* bitcast (void (%"class.google_apis::drive::FilesTrashRequest"*)* @_ZThn8_N11google_apis5drive17FilesTrashRequestD1Ev to i8*), i8* bitcast (void (%"class.google_apis::drive::FilesTrashRequest"*)* @_ZThn8_N11google_apis5drive17FilesTrashRequestD0Ev to i8*)] }, align 8
@_ZTVN11google_apis5drive15AboutGetRequestE = hidden unnamed_addr constant { [21 x i8*], [7 x i8*] } { [21 x i8*] [i8* null, i8* null, i8* bitcast (void (%"class.google_apis::drive::AboutGetRequest"*)* @_ZN11google_apis5drive15AboutGetRequestD2Ev to i8*), i8* bitcast (void (%"class.google_apis::drive::AboutGetRequest"*)* @_ZN11google_apis5drive15AboutGetRequestD0Ev to i8*), i8* bitcast (void (%"class.google_apis::UrlFetchRequestBase"*, %"class.std::__1::basic_string"*, %"class.std::__1::basic_string"*, %"class.base::RepeatingCallback"*)* @_ZN11google_apis19UrlFetchRequestBase5StartERKNSt3__112basic_stringIcNS1_11char_traitsIcEENS1_9allocatorIcEEEES9_N4base17RepeatingCallbackIFvPNS_29AuthenticatedRequestInterfaceEEEE to i8*), i8* bitcast (void (%"class.google_apis::UrlFetchRequestBase"*, i32)* @_ZN11google_apis19UrlFetchRequestBase12OnAuthFailedENS_17DriveApiErrorCodeE to i8*), i8* bitcast (void ()* @_ZN11google_apis19UrlFetchRequestBase10GetWeakPtrEv to i8*), i8* bitcast (void (%"class.google_apis::UrlFetchRequestBase"*)* @_ZN11google_apis19UrlFetchRequestBase6CancelEv to i8*), i8* bitcast (void (%"class.google_apis::UrlFetchRequestBase"*, %"class.base::OnceCallback.127"*)* @_ZN11google_apis19UrlFetchRequestBase7PrepareEN4base12OnceCallbackIFvNS_17DriveApiErrorCodeEEEE to i8*), i8* bitcast (void (%class.GURL*, %"class.google_apis::drive::DriveApiPartialFieldRequest"*)* @_ZNK11google_apis5drive27DriveApiPartialFieldRequest6GetURLEv to i8*), i8* bitcast (void (%"class.std::__1::basic_string"*, %"class.google_apis::UrlFetchRequestBase"*)* @_ZNK11google_apis19UrlFetchRequestBase14GetRequestTypeEv to i8*), i8* bitcast (void (%"class.std::__1::vector.58"*, %"class.google_apis::UrlFetchRequestBase"*)* @_ZNK11google_apis19UrlFetchRequestBase22GetExtraRequestHeadersEv to i8*), i8* bitcast (i1 (%"class.google_apis::UrlFetchRequestBase"*, %"class.std::__1::basic_string"*, %"class.std::__1::basic_string"*)* @_ZN11google_apis19UrlFetchRequestBase14GetContentDataEPNSt3__112basic_stringIcNS1_11char_traitsIcEENS1_9allocatorIcEEEES8_ to i8*), i8* bitcast (i1 (%"class.google_apis::UrlFetchRequestBase"*, %"class.base::FilePath"*, i64*, i64*, %"class.std::__1::basic_string"*)* @_ZN11google_apis19UrlFetchRequestBase14GetContentFileEPN4base8FilePathEPlS4_PNSt3__112basic_stringIcNS5_11char_traitsIcEENS5_9allocatorIcEEEE to i8*), i8* bitcast (void (%"class.google_apis::UrlFetchRequestBase"*, %"class.base::FilePath"*, %"class.base::RepeatingCallback.46"*)* @_ZN11google_apis19UrlFetchRequestBase17GetOutputFilePathEPN4base8FilePathEPNS1_17RepeatingCallbackIFvNS_17DriveApiErrorCodeENSt3__110unique_ptrINS6_12basic_stringIcNS6_11char_traitsIcEENS6_9allocatorIcEEEENS6_14default_deleteISD_EEEEbEEE to i8*), i8* bitcast (void (%"class.google_apis::drive::DriveApiDataRequest.128"*, %"class.network::mojom::URLResponseHead"*, %"class.base::FilePath"*, %"class.std::__1::basic_string"*)* @_ZN11google_apis5drive19DriveApiDataRequestINS_13AboutResourceEE22ProcessURLFetchResultsEPKN7network5mojom15URLResponseHeadEN4base8FilePathENSt3__112basic_stringIcNSB_11char_traitsIcEENSB_9allocatorIcEEEE to i8*), i8* bitcast (void (%"class.google_apis::drive::DriveApiDataRequest.128"*, i32)* @_ZN11google_apis5drive19DriveApiDataRequestINS_13AboutResourceEE29RunCallbackOnPrematureFailureENS_17DriveApiErrorCodeE to i8*), i8* bitcast (void (%"class.google_apis::UrlFetchRequestBase"*, i8*, i64, %"class.base::OnceCallback.338"*)* @_ZN11google_apis19UrlFetchRequestBase14OnDataReceivedEN4base16BasicStringPieceIcNSt3__111char_traitsIcEEEENS1_12OnceCallbackIFvvEEE to i8*), i8* bitcast (void (%"class.google_apis::UrlFetchRequestBase"*, i1)* @_ZN11google_apis19UrlFetchRequestBase10OnCompleteEb to i8*), i8* bitcast (void (%"class.google_apis::UrlFetchRequestBase"*, %"class.base::OnceCallback.338"*)* @_ZN11google_apis19UrlFetchRequestBase7OnRetryEN4base12OnceCallbackIFvvEEE to i8*), i8* bitcast (void (%class.GURL*, %"class.google_apis::drive::AboutGetRequest"*)* @_ZNK11google_apis5drive15AboutGetRequest14GetURLInternalEv to i8*)], [7 x i8*] [i8* inttoptr (i64 -8 to i8*), i8* null, i8* bitcast (void (%"class.google_apis::UrlFetchRequestBase"*, i8*, i64, %"class.base::OnceCallback.338"*)* @_ZThn8_N11google_apis19UrlFetchRequestBase14OnDataReceivedEN4base16BasicStringPieceIcNSt3__111char_traitsIcEEEENS1_12OnceCallbackIFvvEEE to i8*), i8* bitcast (void (%"class.google_apis::UrlFetchRequestBase"*, i1)* @_ZThn8_N11google_apis19UrlFetchRequestBase10OnCompleteEb to i8*), i8* bitcast (void (%"class.google_apis::UrlFetchRequestBase"*, %"class.base::OnceCallback.338"*)* @_ZThn8_N11google_apis19UrlFetchRequestBase7OnRetryEN4base12OnceCallbackIFvvEEE to i8*), i8* bitcast (void (%"class.google_apis::drive::AboutGetRequest"*)* @_ZThn8_N11google_apis5drive15AboutGetRequestD1Ev to i8*), i8* bitcast (void (%"class.google_apis::drive::AboutGetRequest"*)* @_ZThn8_N11google_apis5drive15AboutGetRequestD0Ev to i8*)] }, align 8
@_ZTVN11google_apis5drive18ChangesListRequestE = hidden unnamed_addr constant { [21 x i8*], [7 x i8*] } { [21 x i8*] [i8* null, i8* null, i8* bitcast (void (%"class.google_apis::drive::ChangesListRequest"*)* @_ZN11google_apis5drive18ChangesListRequestD2Ev to i8*), i8* bitcast (void (%"class.google_apis::drive::ChangesListRequest"*)* @_ZN11google_apis5drive18ChangesListRequestD0Ev to i8*), i8* bitcast (void (%"class.google_apis::UrlFetchRequestBase"*, %"class.std::__1::basic_string"*, %"class.std::__1::basic_string"*, %"class.base::RepeatingCallback"*)* @_ZN11google_apis19UrlFetchRequestBase5StartERKNSt3__112basic_stringIcNS1_11char_traitsIcEENS1_9allocatorIcEEEES9_N4base17RepeatingCallbackIFvPNS_29AuthenticatedRequestInterfaceEEEE to i8*), i8* bitcast (void (%"class.google_apis::UrlFetchRequestBase"*, i32)* @_ZN11google_apis19UrlFetchRequestBase12OnAuthFailedENS_17DriveApiErrorCodeE to i8*), i8* bitcast (void ()* @_ZN11google_apis19UrlFetchRequestBase10GetWeakPtrEv to i8*), i8* bitcast (void (%"class.google_apis::UrlFetchRequestBase"*)* @_ZN11google_apis19UrlFetchRequestBase6CancelEv to i8*), i8* bitcast (void (%"class.google_apis::UrlFetchRequestBase"*, %"class.base::OnceCallback.127"*)* @_ZN11google_apis19UrlFetchRequestBase7PrepareEN4base12OnceCallbackIFvNS_17DriveApiErrorCodeEEEE to i8*), i8* bitcast (void (%class.GURL*, %"class.google_apis::drive::DriveApiPartialFieldRequest"*)* @_ZNK11google_apis5drive27DriveApiPartialFieldRequest6GetURLEv to i8*), i8* bitcast (void (%"class.std::__1::basic_string"*, %"class.google_apis::UrlFetchRequestBase"*)* @_ZNK11google_apis19UrlFetchRequestBase14GetRequestTypeEv to i8*), i8* bitcast (void (%"class.std::__1::vector.58"*, %"class.google_apis::UrlFetchRequestBase"*)* @_ZNK11google_apis19UrlFetchRequestBase22GetExtraRequestHeadersEv to i8*), i8* bitcast (i1 (%"class.google_apis::UrlFetchRequestBase"*, %"class.std::__1::basic_string"*, %"class.std::__1::basic_string"*)* @_ZN11google_apis19UrlFetchRequestBase14GetContentDataEPNSt3__112basic_stringIcNS1_11char_traitsIcEENS1_9allocatorIcEEEES8_ to i8*), i8* bitcast (i1 (%"class.google_apis::UrlFetchRequestBase"*, %"class.base::FilePath"*, i64*, i64*, %"class.std::__1::basic_string"*)* @_ZN11google_apis19UrlFetchRequestBase14GetContentFileEPN4base8FilePathEPlS4_PNSt3__112basic_stringIcNS5_11char_traitsIcEENS5_9allocatorIcEEEE to i8*), i8* bitcast (void (%"class.google_apis::UrlFetchRequestBase"*, %"class.base::FilePath"*, %"class.base::RepeatingCallback.46"*)* @_ZN11google_apis19UrlFetchRequestBase17GetOutputFilePathEPN4base8FilePathEPNS1_17RepeatingCallbackIFvNS_17DriveApiErrorCodeENSt3__110unique_ptrINS6_12basic_stringIcNS6_11char_traitsIcEENS6_9allocatorIcEEEENS6_14default_deleteISD_EEEEbEEE to i8*), i8* bitcast (void (%"class.google_apis::drive::DriveApiDataRequest.131"*, %"class.network::mojom::URLResponseHead"*, %"class.base::FilePath"*, %"class.std::__1::basic_string"*)* @_ZN11google_apis5drive19DriveApiDataRequestINS_10ChangeListEE22ProcessURLFetchResultsEPKN7network5mojom15URLResponseHeadEN4base8FilePathENSt3__112basic_stringIcNSB_11char_traitsIcEENSB_9allocatorIcEEEE to i8*), i8* bitcast (void (%"class.google_apis::drive::DriveApiDataRequest.131"*, i32)* @_ZN11google_apis5drive19DriveApiDataRequestINS_10ChangeListEE29RunCallbackOnPrematureFailureENS_17DriveApiErrorCodeE to i8*), i8* bitcast (void (%"class.google_apis::UrlFetchRequestBase"*, i8*, i64, %"class.base::OnceCallback.338"*)* @_ZN11google_apis19UrlFetchRequestBase14OnDataReceivedEN4base16BasicStringPieceIcNSt3__111char_traitsIcEEEENS1_12OnceCallbackIFvvEEE to i8*), i8* bitcast (void (%"class.google_apis::UrlFetchRequestBase"*, i1)* @_ZN11google_apis19UrlFetchRequestBase10OnCompleteEb to i8*), i8* bitcast (void (%"class.google_apis::UrlFetchRequestBase"*, %"class.base::OnceCallback.338"*)* @_ZN11google_apis19UrlFetchRequestBase7OnRetryEN4base12OnceCallbackIFvvEEE to i8*), i8* bitcast (void (%class.GURL*, %"class.google_apis::drive::ChangesListRequest"*)* @_ZNK11google_apis5drive18ChangesListRequest14GetURLInternalEv to i8*)], [7 x i8*] [i8* inttoptr (i64 -8 to i8*), i8* null, i8* bitcast (void (%"class.google_apis::UrlFetchRequestBase"*, i8*, i64, %"class.base::OnceCallback.338"*)* @_ZThn8_N11google_apis19UrlFetchRequestBase14OnDataReceivedEN4base16BasicStringPieceIcNSt3__111char_traitsIcEEEENS1_12OnceCallbackIFvvEEE to i8*), i8* bitcast (void (%"class.google_apis::UrlFetchRequestBase"*, i1)* @_ZThn8_N11google_apis19UrlFetchRequestBase10OnCompleteEb to i8*), i8* bitcast (void (%"class.google_apis::UrlFetchRequestBase"*, %"class.base::OnceCallback.338"*)* @_ZThn8_N11google_apis19UrlFetchRequestBase7OnRetryEN4base12OnceCallbackIFvvEEE to i8*), i8* bitcast (void (%"class.google_apis::drive::ChangesListRequest"*)* @_ZThn8_N11google_apis5drive18ChangesListRequestD1Ev to i8*), i8* bitcast (void (%"class.google_apis::drive::ChangesListRequest"*)* @_ZThn8_N11google_apis5drive18ChangesListRequestD0Ev to i8*)] }, align 8
@_ZTVN11google_apis5drive26ChangesListNextPageRequestE = hidden unnamed_addr constant { [21 x i8*], [7 x i8*] } { [21 x i8*] [i8* null, i8* null, i8* bitcast (void (%"class.google_apis::drive::ChangesListNextPageRequest"*)* @_ZN11google_apis5drive26ChangesListNextPageRequestD2Ev to i8*), i8* bitcast (void (%"class.google_apis::drive::ChangesListNextPageRequest"*)* @_ZN11google_apis5drive26ChangesListNextPageRequestD0Ev to i8*), i8* bitcast (void (%"class.google_apis::UrlFetchRequestBase"*, %"class.std::__1::basic_string"*, %"class.std::__1::basic_string"*, %"class.base::RepeatingCallback"*)* @_ZN11google_apis19UrlFetchRequestBase5StartERKNSt3__112basic_stringIcNS1_11char_traitsIcEENS1_9allocatorIcEEEES9_N4base17RepeatingCallbackIFvPNS_29AuthenticatedRequestInterfaceEEEE to i8*), i8* bitcast (void (%"class.google_apis::UrlFetchRequestBase"*, i32)* @_ZN11google_apis19UrlFetchRequestBase12OnAuthFailedENS_17DriveApiErrorCodeE to i8*), i8* bitcast (void ()* @_ZN11google_apis19UrlFetchRequestBase10GetWeakPtrEv to i8*), i8* bitcast (void (%"class.google_apis::UrlFetchRequestBase"*)* @_ZN11google_apis19UrlFetchRequestBase6CancelEv to i8*), i8* bitcast (void (%"class.google_apis::UrlFetchRequestBase"*, %"class.base::OnceCallback.127"*)* @_ZN11google_apis19UrlFetchRequestBase7PrepareEN4base12OnceCallbackIFvNS_17DriveApiErrorCodeEEEE to i8*), i8* bitcast (void (%class.GURL*, %"class.google_apis::drive::DriveApiPartialFieldRequest"*)* @_ZNK11google_apis5drive27DriveApiPartialFieldRequest6GetURLEv to i8*), i8* bitcast (void (%"class.std::__1::basic_string"*, %"class.google_apis::UrlFetchRequestBase"*)* @_ZNK11google_apis19UrlFetchRequestBase14GetRequestTypeEv to i8*), i8* bitcast (void (%"class.std::__1::vector.58"*, %"class.google_apis::UrlFetchRequestBase"*)* @_ZNK11google_apis19UrlFetchRequestBase22GetExtraRequestHeadersEv to i8*), i8* bitcast (i1 (%"class.google_apis::UrlFetchRequestBase"*, %"class.std::__1::basic_string"*, %"class.std::__1::basic_string"*)* @_ZN11google_apis19UrlFetchRequestBase14GetContentDataEPNSt3__112basic_stringIcNS1_11char_traitsIcEENS1_9allocatorIcEEEES8_ to i8*), i8* bitcast (i1 (%"class.google_apis::UrlFetchRequestBase"*, %"class.base::FilePath"*, i64*, i64*, %"class.std::__1::basic_string"*)* @_ZN11google_apis19UrlFetchRequestBase14GetContentFileEPN4base8FilePathEPlS4_PNSt3__112basic_stringIcNS5_11char_traitsIcEENS5_9allocatorIcEEEE to i8*), i8* bitcast (void (%"class.google_apis::UrlFetchRequestBase"*, %"class.base::FilePath"*, %"class.base::RepeatingCallback.46"*)* @_ZN11google_apis19UrlFetchRequestBase17GetOutputFilePathEPN4base8FilePathEPNS1_17RepeatingCallbackIFvNS_17DriveApiErrorCodeENSt3__110unique_ptrINS6_12basic_stringIcNS6_11char_traitsIcEENS6_9allocatorIcEEEENS6_14default_deleteISD_EEEEbEEE to i8*), i8* bitcast (void (%"class.google_apis::drive::DriveApiDataRequest.131"*, %"class.network::mojom::URLResponseHead"*, %"class.base::FilePath"*, %"class.std::__1::basic_string"*)* @_ZN11google_apis5drive19DriveApiDataRequestINS_10ChangeListEE22ProcessURLFetchResultsEPKN7network5mojom15URLResponseHeadEN4base8FilePathENSt3__112basic_stringIcNSB_11char_traitsIcEENSB_9allocatorIcEEEE to i8*), i8* bitcast (void (%"class.google_apis::drive::DriveApiDataRequest.131"*, i32)* @_ZN11google_apis5drive19DriveApiDataRequestINS_10ChangeListEE29RunCallbackOnPrematureFailureENS_17DriveApiErrorCodeE to i8*), i8* bitcast (void (%"class.google_apis::UrlFetchRequestBase"*, i8*, i64, %"class.base::OnceCallback.338"*)* @_ZN11google_apis19UrlFetchRequestBase14OnDataReceivedEN4base16BasicStringPieceIcNSt3__111char_traitsIcEEEENS1_12OnceCallbackIFvvEEE to i8*), i8* bitcast (void (%"class.google_apis::UrlFetchRequestBase"*, i1)* @_ZN11google_apis19UrlFetchRequestBase10OnCompleteEb to i8*), i8* bitcast (void (%"class.google_apis::UrlFetchRequestBase"*, %"class.base::OnceCallback.338"*)* @_ZN11google_apis19UrlFetchRequestBase7OnRetryEN4base12OnceCallbackIFvvEEE to i8*), i8* bitcast (void (%class.GURL*, %"class.google_apis::drive::ChangesListNextPageRequest"*)* @_ZNK11google_apis5drive26ChangesListNextPageRequest14GetURLInternalEv to i8*)], [7 x i8*] [i8* inttoptr (i64 -8 to i8*), i8* null, i8* bitcast (void (%"class.google_apis::UrlFetchRequestBase"*, i8*, i64, %"class.base::OnceCallback.338"*)* @_ZThn8_N11google_apis19UrlFetchRequestBase14OnDataReceivedEN4base16BasicStringPieceIcNSt3__111char_traitsIcEEEENS1_12OnceCallbackIFvvEEE to i8*), i8* bitcast (void (%"class.google_apis::UrlFetchRequestBase"*, i1)* @_ZThn8_N11google_apis19UrlFetchRequestBase10OnCompleteEb to i8*), i8* bitcast (void (%"class.google_apis::UrlFetchRequestBase"*, %"class.base::OnceCallback.338"*)* @_ZThn8_N11google_apis19UrlFetchRequestBase7OnRetryEN4base12OnceCallbackIFvvEEE to i8*), i8* bitcast (void (%"class.google_apis::drive::ChangesListNextPageRequest"*)* @_ZThn8_N11google_apis5drive26ChangesListNextPageRequestD1Ev to i8*), i8* bitcast (void (%"class.google_apis::drive::ChangesListNextPageRequest"*)* @_ZThn8_N11google_apis5drive26ChangesListNextPageRequestD0Ev to i8*)] }, align 8
@_ZTVN11google_apis5drive21ChildrenInsertRequestE = hidden unnamed_addr constant { [20 x i8*], [7 x i8*] } { [20 x i8*] [i8* null, i8* null, i8* bitcast (void (%"class.google_apis::drive::ChildrenInsertRequest"*)* @_ZN11google_apis5drive21ChildrenInsertRequestD2Ev to i8*), i8* bitcast (void (%"class.google_apis::drive::ChildrenInsertRequest"*)* @_ZN11google_apis5drive21ChildrenInsertRequestD0Ev to i8*), i8* bitcast (void (%"class.google_apis::UrlFetchRequestBase"*, %"class.std::__1::basic_string"*, %"class.std::__1::basic_string"*, %"class.base::RepeatingCallback"*)* @_ZN11google_apis19UrlFetchRequestBase5StartERKNSt3__112basic_stringIcNS1_11char_traitsIcEENS1_9allocatorIcEEEES9_N4base17RepeatingCallbackIFvPNS_29AuthenticatedRequestInterfaceEEEE to i8*), i8* bitcast (void (%"class.google_apis::UrlFetchRequestBase"*, i32)* @_ZN11google_apis19UrlFetchRequestBase12OnAuthFailedENS_17DriveApiErrorCodeE to i8*), i8* bitcast (void ()* @_ZN11google_apis19UrlFetchRequestBase10GetWeakPtrEv to i8*), i8* bitcast (void (%"class.google_apis::UrlFetchRequestBase"*)* @_ZN11google_apis19UrlFetchRequestBase6CancelEv to i8*), i8* bitcast (void (%"class.google_apis::UrlFetchRequestBase"*, %"class.base::OnceCallback.127"*)* @_ZN11google_apis19UrlFetchRequestBase7PrepareEN4base12OnceCallbackIFvNS_17DriveApiErrorCodeEEEE to i8*), i8* bitcast (void (%class.GURL*, %"class.google_apis::drive::ChildrenInsertRequest"*)* @_ZNK11google_apis5drive21ChildrenInsertRequest6GetURLEv to i8*), i8* bitcast (void (%"class.std::__1::basic_string"*, %"class.google_apis::drive::ChildrenInsertRequest"*)* @_ZNK11google_apis5drive21ChildrenInsertRequest14GetRequestTypeEv to i8*), i8* bitcast (void (%"class.std::__1::vector.58"*, %"class.google_apis::UrlFetchRequestBase"*)* @_ZNK11google_apis19UrlFetchRequestBase22GetExtraRequestHeadersEv to i8*), i8* bitcast (i1 (%"class.google_apis::drive::ChildrenInsertRequest"*, %"class.std::__1::basic_string"*, %"class.std::__1::basic_string"*)* @_ZN11google_apis5drive21ChildrenInsertRequest14GetContentDataEPNSt3__112basic_stringIcNS2_11char_traitsIcEENS2_9allocatorIcEEEES9_ to i8*), i8* bitcast (i1 (%"class.google_apis::UrlFetchRequestBase"*, %"class.base::FilePath"*, i64*, i64*, %"class.std::__1::basic_string"*)* @_ZN11google_apis19UrlFetchRequestBase14GetContentFileEPN4base8FilePathEPlS4_PNSt3__112basic_stringIcNS5_11char_traitsIcEENS5_9allocatorIcEEEE to i8*), i8* bitcast (void (%"class.google_apis::UrlFetchRequestBase"*, %"class.base::FilePath"*, %"class.base::RepeatingCallback.46"*)* @_ZN11google_apis19UrlFetchRequestBase17GetOutputFilePathEPN4base8FilePathEPNS1_17RepeatingCallbackIFvNS_17DriveApiErrorCodeENSt3__110unique_ptrINS6_12basic_stringIcNS6_11char_traitsIcEENS6_9allocatorIcEEEENS6_14default_deleteISD_EEEEbEEE to i8*), i8* bitcast (void (%"class.google_apis::EntryActionRequest"*, %"class.network::mojom::URLResponseHead"*, %"class.base::FilePath"*, %"class.std::__1::basic_string"*)* @_ZN11google_apis18EntryActionRequest22ProcessURLFetchResultsEPKN7network5mojom15URLResponseHeadEN4base8FilePathENSt3__112basic_stringIcNS8_11char_traitsIcEENS8_9allocatorIcEEEE to i8*), i8* bitcast (void (%"class.google_apis::EntryActionRequest"*, i32)* @_ZN11google_apis18EntryActionRequest29RunCallbackOnPrematureFailureENS_17DriveApiErrorCodeE to i8*), i8* bitcast (void (%"class.google_apis::UrlFetchRequestBase"*, i8*, i64, %"class.base::OnceCallback.338"*)* @_ZN11google_apis19UrlFetchRequestBase14OnDataReceivedEN4base16BasicStringPieceIcNSt3__111char_traitsIcEEEENS1_12OnceCallbackIFvvEEE to i8*), i8* bitcast (void (%"class.google_apis::UrlFetchRequestBase"*, i1)* @_ZN11google_apis19UrlFetchRequestBase10OnCompleteEb to i8*), i8* bitcast (void (%"class.google_apis::UrlFetchRequestBase"*, %"class.base::OnceCallback.338"*)* @_ZN11google_apis19UrlFetchRequestBase7OnRetryEN4base12OnceCallbackIFvvEEE to i8*)], [7 x i8*] [i8* inttoptr (i64 -8 to i8*), i8* null, i8* bitcast (void (%"class.google_apis::UrlFetchRequestBase"*, i8*, i64, %"class.base::OnceCallback.338"*)* @_ZThn8_N11google_apis19UrlFetchRequestBase14OnDataReceivedEN4base16BasicStringPieceIcNSt3__111char_traitsIcEEEENS1_12OnceCallbackIFvvEEE to i8*), i8* bitcast (void (%"class.google_apis::UrlFetchRequestBase"*, i1)* @_ZThn8_N11google_apis19UrlFetchRequestBase10OnCompleteEb to i8*), i8* bitcast (void (%"class.google_apis::UrlFetchRequestBase"*, %"class.base::OnceCallback.338"*)* @_ZThn8_N11google_apis19UrlFetchRequestBase7OnRetryEN4base12OnceCallbackIFvvEEE to i8*), i8* bitcast (void (%"class.google_apis::drive::ChildrenInsertRequest"*)* @_ZThn8_N11google_apis5drive21ChildrenInsertRequestD1Ev to i8*), i8* bitcast (void (%"class.google_apis::drive::ChildrenInsertRequest"*)* @_ZThn8_N11google_apis5drive21ChildrenInsertRequestD0Ev to i8*)] }, align 8
@_ZTVN11google_apis5drive21ChildrenDeleteRequestE = hidden unnamed_addr constant { [20 x i8*], [7 x i8*] } { [20 x i8*] [i8* null, i8* null, i8* bitcast (void (%"class.google_apis::drive::ChildrenDeleteRequest"*)* @_ZN11google_apis5drive21ChildrenDeleteRequestD2Ev to i8*), i8* bitcast (void (%"class.google_apis::drive::ChildrenDeleteRequest"*)* @_ZN11google_apis5drive21ChildrenDeleteRequestD0Ev to i8*), i8* bitcast (void (%"class.google_apis::UrlFetchRequestBase"*, %"class.std::__1::basic_string"*, %"class.std::__1::basic_string"*, %"class.base::RepeatingCallback"*)* @_ZN11google_apis19UrlFetchRequestBase5StartERKNSt3__112basic_stringIcNS1_11char_traitsIcEENS1_9allocatorIcEEEES9_N4base17RepeatingCallbackIFvPNS_29AuthenticatedRequestInterfaceEEEE to i8*), i8* bitcast (void (%"class.google_apis::UrlFetchRequestBase"*, i32)* @_ZN11google_apis19UrlFetchRequestBase12OnAuthFailedENS_17DriveApiErrorCodeE to i8*), i8* bitcast (void ()* @_ZN11google_apis19UrlFetchRequestBase10GetWeakPtrEv to i8*), i8* bitcast (void (%"class.google_apis::UrlFetchRequestBase"*)* @_ZN11google_apis19UrlFetchRequestBase6CancelEv to i8*), i8* bitcast (void (%"class.google_apis::UrlFetchRequestBase"*, %"class.base::OnceCallback.127"*)* @_ZN11google_apis19UrlFetchRequestBase7PrepareEN4base12OnceCallbackIFvNS_17DriveApiErrorCodeEEEE to i8*), i8* bitcast (void (%class.GURL*, %"class.google_apis::drive::ChildrenDeleteRequest"*)* @_ZNK11google_apis5drive21ChildrenDeleteRequest6GetURLEv to i8*), i8* bitcast (void (%"class.std::__1::basic_string"*, %"class.google_apis::drive::ChildrenDeleteRequest"*)* @_ZNK11google_apis5drive21ChildrenDeleteRequest14GetRequestTypeEv to i8*), i8* bitcast (void (%"class.std::__1::vector.58"*, %"class.google_apis::UrlFetchRequestBase"*)* @_ZNK11google_apis19UrlFetchRequestBase22GetExtraRequestHeadersEv to i8*), i8* bitcast (i1 (%"class.google_apis::UrlFetchRequestBase"*, %"class.std::__1::basic_string"*, %"class.std::__1::basic_string"*)* @_ZN11google_apis19UrlFetchRequestBase14GetContentDataEPNSt3__112basic_stringIcNS1_11char_traitsIcEENS1_9allocatorIcEEEES8_ to i8*), i8* bitcast (i1 (%"class.google_apis::UrlFetchRequestBase"*, %"class.base::FilePath"*, i64*, i64*, %"class.std::__1::basic_string"*)* @_ZN11google_apis19UrlFetchRequestBase14GetContentFileEPN4base8FilePathEPlS4_PNSt3__112basic_stringIcNS5_11char_traitsIcEENS5_9allocatorIcEEEE to i8*), i8* bitcast (void (%"class.google_apis::UrlFetchRequestBase"*, %"class.base::FilePath"*, %"class.base::RepeatingCallback.46"*)* @_ZN11google_apis19UrlFetchRequestBase17GetOutputFilePathEPN4base8FilePathEPNS1_17RepeatingCallbackIFvNS_17DriveApiErrorCodeENSt3__110unique_ptrINS6_12basic_stringIcNS6_11char_traitsIcEENS6_9allocatorIcEEEENS6_14default_deleteISD_EEEEbEEE to i8*), i8* bitcast (void (%"class.google_apis::EntryActionRequest"*, %"class.network::mojom::URLResponseHead"*, %"class.base::FilePath"*, %"class.std::__1::basic_string"*)* @_ZN11google_apis18EntryActionRequest22ProcessURLFetchResultsEPKN7network5mojom15URLResponseHeadEN4base8FilePathENSt3__112basic_stringIcNS8_11char_traitsIcEENS8_9allocatorIcEEEE to i8*), i8* bitcast (void (%"class.google_apis::EntryActionRequest"*, i32)* @_ZN11google_apis18EntryActionRequest29RunCallbackOnPrematureFailureENS_17DriveApiErrorCodeE to i8*), i8* bitcast (void (%"class.google_apis::UrlFetchRequestBase"*, i8*, i64, %"class.base::OnceCallback.338"*)* @_ZN11google_apis19UrlFetchRequestBase14OnDataReceivedEN4base16BasicStringPieceIcNSt3__111char_traitsIcEEEENS1_12OnceCallbackIFvvEEE to i8*), i8* bitcast (void (%"class.google_apis::UrlFetchRequestBase"*, i1)* @_ZN11google_apis19UrlFetchRequestBase10OnCompleteEb to i8*), i8* bitcast (void (%"class.google_apis::UrlFetchRequestBase"*, %"class.base::OnceCallback.338"*)* @_ZN11google_apis19UrlFetchRequestBase7OnRetryEN4base12OnceCallbackIFvvEEE to i8*)], [7 x i8*] [i8* inttoptr (i64 -8 to i8*), i8* null, i8* bitcast (void (%"class.google_apis::UrlFetchRequestBase"*, i8*, i64, %"class.base::OnceCallback.338"*)* @_ZThn8_N11google_apis19UrlFetchRequestBase14OnDataReceivedEN4base16BasicStringPieceIcNSt3__111char_traitsIcEEEENS1_12OnceCallbackIFvvEEE to i8*), i8* bitcast (void (%"class.google_apis::UrlFetchRequestBase"*, i1)* @_ZThn8_N11google_apis19UrlFetchRequestBase10OnCompleteEb to i8*), i8* bitcast (void (%"class.google_apis::UrlFetchRequestBase"*, %"class.base::OnceCallback.338"*)* @_ZThn8_N11google_apis19UrlFetchRequestBase7OnRetryEN4base12OnceCallbackIFvvEEE to i8*), i8* bitcast (void (%"class.google_apis::drive::ChildrenDeleteRequest"*)* @_ZThn8_N11google_apis5drive21ChildrenDeleteRequestD1Ev to i8*), i8* bitcast (void (%"class.google_apis::drive::ChildrenDeleteRequest"*)* @_ZThn8_N11google_apis5drive21ChildrenDeleteRequestD0Ev to i8*)] }, align 8
@_ZTVN11google_apis5drive28InitiateUploadNewFileRequestE = hidden unnamed_addr constant { [20 x i8*], [7 x i8*] } { [20 x i8*] [i8* null, i8* null, i8* bitcast (void (%"class.google_apis::drive::InitiateUploadNewFileRequest"*)* @_ZN11google_apis5drive28InitiateUploadNewFileRequestD2Ev to i8*), i8* bitcast (void (%"class.google_apis::drive::InitiateUploadNewFileRequest"*)* @_ZN11google_apis5drive28InitiateUploadNewFileRequestD0Ev to i8*), i8* bitcast (void (%"class.google_apis::UrlFetchRequestBase"*, %"class.std::__1::basic_string"*, %"class.std::__1::basic_string"*, %"class.base::RepeatingCallback"*)* @_ZN11google_apis19UrlFetchRequestBase5StartERKNSt3__112basic_stringIcNS1_11char_traitsIcEENS1_9allocatorIcEEEES9_N4base17RepeatingCallbackIFvPNS_29AuthenticatedRequestInterfaceEEEE to i8*), i8* bitcast (void (%"class.google_apis::UrlFetchRequestBase"*, i32)* @_ZN11google_apis19UrlFetchRequestBase12OnAuthFailedENS_17DriveApiErrorCodeE to i8*), i8* bitcast (void ()* @_ZN11google_apis19UrlFetchRequestBase10GetWeakPtrEv to i8*), i8* bitcast (void (%"class.google_apis::UrlFetchRequestBase"*)* @_ZN11google_apis19UrlFetchRequestBase6CancelEv to i8*), i8* bitcast (void (%"class.google_apis::UrlFetchRequestBase"*, %"class.base::OnceCallback.127"*)* @_ZN11google_apis19UrlFetchRequestBase7PrepareEN4base12OnceCallbackIFvNS_17DriveApiErrorCodeEEEE to i8*), i8* bitcast (void (%class.GURL*, %"class.google_apis::drive::InitiateUploadNewFileRequest"*)* @_ZNK11google_apis5drive28InitiateUploadNewFileRequest6GetURLEv to i8*), i8* bitcast (void (%"class.std::__1::basic_string"*, %"class.google_apis::drive::InitiateUploadNewFileRequest"*)* @_ZNK11google_apis5drive28InitiateUploadNewFileRequest14GetRequestTypeEv to i8*), i8* bitcast (void (%"class.std::__1::vector.58"*, %"class.google_apis::InitiateUploadRequestBase"*)* @_ZNK11google_apis25InitiateUploadRequestBase22GetExtraRequestHeadersEv to i8*), i8* bitcast (i1 (%"class.google_apis::drive::InitiateUploadNewFileRequest"*, %"class.std::__1::basic_string"*, %"class.std::__1::basic_string"*)* @_ZN11google_apis5drive28InitiateUploadNewFileRequest14GetContentDataEPNSt3__112basic_stringIcNS2_11char_traitsIcEENS2_9allocatorIcEEEES9_ to i8*), i8* bitcast (i1 (%"class.google_apis::UrlFetchRequestBase"*, %"class.base::FilePath"*, i64*, i64*, %"class.std::__1::basic_string"*)* @_ZN11google_apis19UrlFetchRequestBase14GetContentFileEPN4base8FilePathEPlS4_PNSt3__112basic_stringIcNS5_11char_traitsIcEENS5_9allocatorIcEEEE to i8*), i8* bitcast (void (%"class.google_apis::UrlFetchRequestBase"*, %"class.base::FilePath"*, %"class.base::RepeatingCallback.46"*)* @_ZN11google_apis19UrlFetchRequestBase17GetOutputFilePathEPN4base8FilePathEPNS1_17RepeatingCallbackIFvNS_17DriveApiErrorCodeENSt3__110unique_ptrINS6_12basic_stringIcNS6_11char_traitsIcEENS6_9allocatorIcEEEENS6_14default_deleteISD_EEEEbEEE to i8*), i8* bitcast (void (%"class.google_apis::InitiateUploadRequestBase"*, %"class.network::mojom::URLResponseHead"*, %"class.base::FilePath"*, %"class.std::__1::basic_string"*)* @_ZN11google_apis25InitiateUploadRequestBase22ProcessURLFetchResultsEPKN7network5mojom15URLResponseHeadEN4base8FilePathENSt3__112basic_stringIcNS8_11char_traitsIcEENS8_9allocatorIcEEEE to i8*), i8* bitcast (void (%"class.google_apis::InitiateUploadRequestBase"*, i32)* @_ZN11google_apis25InitiateUploadRequestBase29RunCallbackOnPrematureFailureENS_17DriveApiErrorCodeE to i8*), i8* bitcast (void (%"class.google_apis::UrlFetchRequestBase"*, i8*, i64, %"class.base::OnceCallback.338"*)* @_ZN11google_apis19UrlFetchRequestBase14OnDataReceivedEN4base16BasicStringPieceIcNSt3__111char_traitsIcEEEENS1_12OnceCallbackIFvvEEE to i8*), i8* bitcast (void (%"class.google_apis::UrlFetchRequestBase"*, i1)* @_ZN11google_apis19UrlFetchRequestBase10OnCompleteEb to i8*), i8* bitcast (void (%"class.google_apis::UrlFetchRequestBase"*, %"class.base::OnceCallback.338"*)* @_ZN11google_apis19UrlFetchRequestBase7OnRetryEN4base12OnceCallbackIFvvEEE to i8*)], [7 x i8*] [i8* inttoptr (i64 -8 to i8*), i8* null, i8* bitcast (void (%"class.google_apis::UrlFetchRequestBase"*, i8*, i64, %"class.base::OnceCallback.338"*)* @_ZThn8_N11google_apis19UrlFetchRequestBase14OnDataReceivedEN4base16BasicStringPieceIcNSt3__111char_traitsIcEEEENS1_12OnceCallbackIFvvEEE to i8*), i8* bitcast (void (%"class.google_apis::UrlFetchRequestBase"*, i1)* @_ZThn8_N11google_apis19UrlFetchRequestBase10OnCompleteEb to i8*), i8* bitcast (void (%"class.google_apis::UrlFetchRequestBase"*, %"class.base::OnceCallback.338"*)* @_ZThn8_N11google_apis19UrlFetchRequestBase7OnRetryEN4base12OnceCallbackIFvvEEE to i8*), i8* bitcast (void (%"class.google_apis::drive::InitiateUploadNewFileRequest"*)* @_ZThn8_N11google_apis5drive28InitiateUploadNewFileRequestD1Ev to i8*), i8* bitcast (void (%"class.google_apis::drive::InitiateUploadNewFileRequest"*)* @_ZThn8_N11google_apis5drive28InitiateUploadNewFileRequestD0Ev to i8*)] }, align 8
@_ZTVN11google_apis5drive33InitiateUploadExistingFileRequestE = hidden unnamed_addr constant { [20 x i8*], [7 x i8*] } { [20 x i8*] [i8* null, i8* null, i8* bitcast (void (%"class.google_apis::drive::InitiateUploadExistingFileRequest"*)* @_ZN11google_apis5drive33InitiateUploadExistingFileRequestD2Ev to i8*), i8* bitcast (void (%"class.google_apis::drive::InitiateUploadExistingFileRequest"*)* @_ZN11google_apis5drive33InitiateUploadExistingFileRequestD0Ev to i8*), i8* bitcast (void (%"class.google_apis::UrlFetchRequestBase"*, %"class.std::__1::basic_string"*, %"class.std::__1::basic_string"*, %"class.base::RepeatingCallback"*)* @_ZN11google_apis19UrlFetchRequestBase5StartERKNSt3__112basic_stringIcNS1_11char_traitsIcEENS1_9allocatorIcEEEES9_N4base17RepeatingCallbackIFvPNS_29AuthenticatedRequestInterfaceEEEE to i8*), i8* bitcast (void (%"class.google_apis::UrlFetchRequestBase"*, i32)* @_ZN11google_apis19UrlFetchRequestBase12OnAuthFailedENS_17DriveApiErrorCodeE to i8*), i8* bitcast (void ()* @_ZN11google_apis19UrlFetchRequestBase10GetWeakPtrEv to i8*), i8* bitcast (void (%"class.google_apis::UrlFetchRequestBase"*)* @_ZN11google_apis19UrlFetchRequestBase6CancelEv to i8*), i8* bitcast (void (%"class.google_apis::UrlFetchRequestBase"*, %"class.base::OnceCallback.127"*)* @_ZN11google_apis19UrlFetchRequestBase7PrepareEN4base12OnceCallbackIFvNS_17DriveApiErrorCodeEEEE to i8*), i8* bitcast (void (%class.GURL*, %"class.google_apis::drive::InitiateUploadExistingFileRequest"*)* @_ZNK11google_apis5drive33InitiateUploadExistingFileRequest6GetURLEv to i8*), i8* bitcast (void (%"class.std::__1::basic_string"*, %"class.google_apis::drive::InitiateUploadExistingFileRequest"*)* @_ZNK11google_apis5drive33InitiateUploadExistingFileRequest14GetRequestTypeEv to i8*), i8* bitcast (void (%"class.std::__1::vector.58"*, %"class.google_apis::drive::InitiateUploadExistingFileRequest"*)* @_ZNK11google_apis5drive33InitiateUploadExistingFileRequest22GetExtraRequestHeadersEv to i8*), i8* bitcast (i1 (%"class.google_apis::drive::InitiateUploadExistingFileRequest"*, %"class.std::__1::basic_string"*, %"class.std::__1::basic_string"*)* @_ZN11google_apis5drive33InitiateUploadExistingFileRequest14GetContentDataEPNSt3__112basic_stringIcNS2_11char_traitsIcEENS2_9allocatorIcEEEES9_ to i8*), i8* bitcast (i1 (%"class.google_apis::UrlFetchRequestBase"*, %"class.base::FilePath"*, i64*, i64*, %"class.std::__1::basic_string"*)* @_ZN11google_apis19UrlFetchRequestBase14GetContentFileEPN4base8FilePathEPlS4_PNSt3__112basic_stringIcNS5_11char_traitsIcEENS5_9allocatorIcEEEE to i8*), i8* bitcast (void (%"class.google_apis::UrlFetchRequestBase"*, %"class.base::FilePath"*, %"class.base::RepeatingCallback.46"*)* @_ZN11google_apis19UrlFetchRequestBase17GetOutputFilePathEPN4base8FilePathEPNS1_17RepeatingCallbackIFvNS_17DriveApiErrorCodeENSt3__110unique_ptrINS6_12basic_stringIcNS6_11char_traitsIcEENS6_9allocatorIcEEEENS6_14default_deleteISD_EEEEbEEE to i8*), i8* bitcast (void (%"class.google_apis::InitiateUploadRequestBase"*, %"class.network::mojom::URLResponseHead"*, %"class.base::FilePath"*, %"class.std::__1::basic_string"*)* @_ZN11google_apis25InitiateUploadRequestBase22ProcessURLFetchResultsEPKN7network5mojom15URLResponseHeadEN4base8FilePathENSt3__112basic_stringIcNS8_11char_traitsIcEENS8_9allocatorIcEEEE to i8*), i8* bitcast (void (%"class.google_apis::InitiateUploadRequestBase"*, i32)* @_ZN11google_apis25InitiateUploadRequestBase29RunCallbackOnPrematureFailureENS_17DriveApiErrorCodeE to i8*), i8* bitcast (void (%"class.google_apis::UrlFetchRequestBase"*, i8*, i64, %"class.base::OnceCallback.338"*)* @_ZN11google_apis19UrlFetchRequestBase14OnDataReceivedEN4base16BasicStringPieceIcNSt3__111char_traitsIcEEEENS1_12OnceCallbackIFvvEEE to i8*), i8* bitcast (void (%"class.google_apis::UrlFetchRequestBase"*, i1)* @_ZN11google_apis19UrlFetchRequestBase10OnCompleteEb to i8*), i8* bitcast (void (%"class.google_apis::UrlFetchRequestBase"*, %"class.base::OnceCallback.338"*)* @_ZN11google_apis19UrlFetchRequestBase7OnRetryEN4base12OnceCallbackIFvvEEE to i8*)], [7 x i8*] [i8* inttoptr (i64 -8 to i8*), i8* null, i8* bitcast (void (%"class.google_apis::UrlFetchRequestBase"*, i8*, i64, %"class.base::OnceCallback.338"*)* @_ZThn8_N11google_apis19UrlFetchRequestBase14OnDataReceivedEN4base16BasicStringPieceIcNSt3__111char_traitsIcEEEENS1_12OnceCallbackIFvvEEE to i8*), i8* bitcast (void (%"class.google_apis::UrlFetchRequestBase"*, i1)* @_ZThn8_N11google_apis19UrlFetchRequestBase10OnCompleteEb to i8*), i8* bitcast (void (%"class.google_apis::UrlFetchRequestBase"*, %"class.base::OnceCallback.338"*)* @_ZThn8_N11google_apis19UrlFetchRequestBase7OnRetryEN4base12OnceCallbackIFvvEEE to i8*), i8* bitcast (void (%"class.google_apis::drive::InitiateUploadExistingFileRequest"*)* @_ZThn8_N11google_apis5drive33InitiateUploadExistingFileRequestD1Ev to i8*), i8* bitcast (void (%"class.google_apis::drive::InitiateUploadExistingFileRequest"*)* @_ZThn8_N11google_apis5drive33InitiateUploadExistingFileRequestD0Ev to i8*)] }, align 8
@.str.15 = private unnamed_addr constant [4 x i8] c"PUT\00", align 1
@_ZTVN11google_apis5drive19ResumeUploadRequestE = hidden unnamed_addr constant { [21 x i8*], [7 x i8*] } { [21 x i8*] [i8* null, i8* null, i8* bitcast (void (%"class.google_apis::drive::ResumeUploadRequest"*)* @_ZN11google_apis5drive19ResumeUploadRequestD2Ev to i8*), i8* bitcast (void (%"class.google_apis::drive::ResumeUploadRequest"*)* @_ZN11google_apis5drive19ResumeUploadRequestD0Ev to i8*), i8* bitcast (void (%"class.google_apis::UrlFetchRequestBase"*, %"class.std::__1::basic_string"*, %"class.std::__1::basic_string"*, %"class.base::RepeatingCallback"*)* @_ZN11google_apis19UrlFetchRequestBase5StartERKNSt3__112basic_stringIcNS1_11char_traitsIcEENS1_9allocatorIcEEEES9_N4base17RepeatingCallbackIFvPNS_29AuthenticatedRequestInterfaceEEEE to i8*), i8* bitcast (void (%"class.google_apis::UrlFetchRequestBase"*, i32)* @_ZN11google_apis19UrlFetchRequestBase12OnAuthFailedENS_17DriveApiErrorCodeE to i8*), i8* bitcast (void ()* @_ZN11google_apis19UrlFetchRequestBase10GetWeakPtrEv to i8*), i8* bitcast (void (%"class.google_apis::UrlFetchRequestBase"*)* @_ZN11google_apis19UrlFetchRequestBase6CancelEv to i8*), i8* bitcast (void (%"class.google_apis::UrlFetchRequestBase"*, %"class.base::OnceCallback.127"*)* @_ZN11google_apis19UrlFetchRequestBase7PrepareEN4base12OnceCallbackIFvNS_17DriveApiErrorCodeEEEE to i8*), i8* bitcast (void (%class.GURL*, %"class.google_apis::UploadRangeRequestBase"*)* @_ZNK11google_apis22UploadRangeRequestBase6GetURLEv to i8*), i8* bitcast (void (%"class.std::__1::basic_string"*, %"class.google_apis::UploadRangeRequestBase"*)* @_ZNK11google_apis22UploadRangeRequestBase14GetRequestTypeEv to i8*), i8* bitcast (void (%"class.std::__1::vector.58"*, %"class.google_apis::ResumeUploadRequestBase"*)* @_ZNK11google_apis23ResumeUploadRequestBase22GetExtraRequestHeadersEv to i8*), i8* bitcast (i1 (%"class.google_apis::UrlFetchRequestBase"*, %"class.std::__1::basic_string"*, %"class.std::__1::basic_string"*)* @_ZN11google_apis19UrlFetchRequestBase14GetContentDataEPNSt3__112basic_stringIcNS1_11char_traitsIcEENS1_9allocatorIcEEEES8_ to i8*), i8* bitcast (i1 (%"class.google_apis::ResumeUploadRequestBase"*, %"class.base::FilePath"*, i64*, i64*, %"class.std::__1::basic_string"*)* @_ZN11google_apis23ResumeUploadRequestBase14GetContentFileEPN4base8FilePathEPlS4_PNSt3__112basic_stringIcNS5_11char_traitsIcEENS5_9allocatorIcEEEE to i8*), i8* bitcast (void (%"class.google_apis::UrlFetchRequestBase"*, %"class.base::FilePath"*, %"class.base::RepeatingCallback.46"*)* @_ZN11google_apis19UrlFetchRequestBase17GetOutputFilePathEPN4base8FilePathEPNS1_17RepeatingCallbackIFvNS_17DriveApiErrorCodeENSt3__110unique_ptrINS6_12basic_stringIcNS6_11char_traitsIcEENS6_9allocatorIcEEEENS6_14default_deleteISD_EEEEbEEE to i8*), i8* bitcast (void (%"class.google_apis::UploadRangeRequestBase"*, %"class.network::mojom::URLResponseHead"*, %"class.base::FilePath"*, %"class.std::__1::basic_string"*)* @_ZN11google_apis22UploadRangeRequestBase22ProcessURLFetchResultsEPKN7network5mojom15URLResponseHeadEN4base8FilePathENSt3__112basic_stringIcNS8_11char_traitsIcEENS8_9allocatorIcEEEE to i8*), i8* bitcast (void (%"class.google_apis::UploadRangeRequestBase"*, i32)* @_ZN11google_apis22UploadRangeRequestBase29RunCallbackOnPrematureFailureENS_17DriveApiErrorCodeE to i8*), i8* bitcast (void (%"class.google_apis::UrlFetchRequestBase"*, i8*, i64, %"class.base::OnceCallback.338"*)* @_ZN11google_apis19UrlFetchRequestBase14OnDataReceivedEN4base16BasicStringPieceIcNSt3__111char_traitsIcEEEENS1_12OnceCallbackIFvvEEE to i8*), i8* bitcast (void (%"class.google_apis::UrlFetchRequestBase"*, i1)* @_ZN11google_apis19UrlFetchRequestBase10OnCompleteEb to i8*), i8* bitcast (void (%"class.google_apis::UrlFetchRequestBase"*, %"class.base::OnceCallback.338"*)* @_ZN11google_apis19UrlFetchRequestBase7OnRetryEN4base12OnceCallbackIFvvEEE to i8*), i8* bitcast (void (%"class.google_apis::drive::ResumeUploadRequest"*, %"struct.google_apis::UploadRangeResponse"*, %"class.base::Value"*)* @_ZN11google_apis5drive19ResumeUploadRequest22OnRangeRequestCompleteERKNS_19UploadRangeResponseENSt3__110unique_ptrIN4base5ValueENS5_14default_deleteIS8_EEEE to i8*)], [7 x i8*] [i8* inttoptr (i64 -8 to i8*), i8* null, i8* bitcast (void (%"class.google_apis::UrlFetchRequestBase"*, i8*, i64, %"class.base::OnceCallback.338"*)* @_ZThn8_N11google_apis19UrlFetchRequestBase14OnDataReceivedEN4base16BasicStringPieceIcNSt3__111char_traitsIcEEEENS1_12OnceCallbackIFvvEEE to i8*), i8* bitcast (void (%"class.google_apis::UrlFetchRequestBase"*, i1)* @_ZThn8_N11google_apis19UrlFetchRequestBase10OnCompleteEb to i8*), i8* bitcast (void (%"class.google_apis::UrlFetchRequestBase"*, %"class.base::OnceCallback.338"*)* @_ZThn8_N11google_apis19UrlFetchRequestBase7OnRetryEN4base12OnceCallbackIFvvEEE to i8*), i8* bitcast (void (%"class.google_apis::drive::ResumeUploadRequest"*)* @_ZThn8_N11google_apis5drive19ResumeUploadRequestD1Ev to i8*), i8* bitcast (void (%"class.google_apis::drive::ResumeUploadRequest"*)* @_ZThn8_N11google_apis5drive19ResumeUploadRequestD0Ev to i8*)] }, align 8
@_ZTVN11google_apis5drive22GetUploadStatusRequestE = hidden unnamed_addr constant { [21 x i8*], [7 x i8*] } { [21 x i8*] [i8* null, i8* null, i8* bitcast (void (%"class.google_apis::drive::GetUploadStatusRequest"*)* @_ZN11google_apis5drive22GetUploadStatusRequestD2Ev to i8*), i8* bitcast (void (%"class.google_apis::drive::GetUploadStatusRequest"*)* @_ZN11google_apis5drive22GetUploadStatusRequestD0Ev to i8*), i8* bitcast (void (%"class.google_apis::UrlFetchRequestBase"*, %"class.std::__1::basic_string"*, %"class.std::__1::basic_string"*, %"class.base::RepeatingCallback"*)* @_ZN11google_apis19UrlFetchRequestBase5StartERKNSt3__112basic_stringIcNS1_11char_traitsIcEENS1_9allocatorIcEEEES9_N4base17RepeatingCallbackIFvPNS_29AuthenticatedRequestInterfaceEEEE to i8*), i8* bitcast (void (%"class.google_apis::UrlFetchRequestBase"*, i32)* @_ZN11google_apis19UrlFetchRequestBase12OnAuthFailedENS_17DriveApiErrorCodeE to i8*), i8* bitcast (void ()* @_ZN11google_apis19UrlFetchRequestBase10GetWeakPtrEv to i8*), i8* bitcast (void (%"class.google_apis::UrlFetchRequestBase"*)* @_ZN11google_apis19UrlFetchRequestBase6CancelEv to i8*), i8* bitcast (void (%"class.google_apis::UrlFetchRequestBase"*, %"class.base::OnceCallback.127"*)* @_ZN11google_apis19UrlFetchRequestBase7PrepareEN4base12OnceCallbackIFvNS_17DriveApiErrorCodeEEEE to i8*), i8* bitcast (void (%class.GURL*, %"class.google_apis::UploadRangeRequestBase"*)* @_ZNK11google_apis22UploadRangeRequestBase6GetURLEv to i8*), i8* bitcast (void (%"class.std::__1::basic_string"*, %"class.google_apis::UploadRangeRequestBase"*)* @_ZNK11google_apis22UploadRangeRequestBase14GetRequestTypeEv to i8*), i8* bitcast (void (%"class.std::__1::vector.58"*, %"class.google_apis::GetUploadStatusRequestBase"*)* @_ZNK11google_apis26GetUploadStatusRequestBase22GetExtraRequestHeadersEv to i8*), i8* bitcast (i1 (%"class.google_apis::UrlFetchRequestBase"*, %"class.std::__1::basic_string"*, %"class.std::__1::basic_string"*)* @_ZN11google_apis19UrlFetchRequestBase14GetContentDataEPNSt3__112basic_stringIcNS1_11char_traitsIcEENS1_9allocatorIcEEEES8_ to i8*), i8* bitcast (i1 (%"class.google_apis::UrlFetchRequestBase"*, %"class.base::FilePath"*, i64*, i64*, %"class.std::__1::basic_string"*)* @_ZN11google_apis19UrlFetchRequestBase14GetContentFileEPN4base8FilePathEPlS4_PNSt3__112basic_stringIcNS5_11char_traitsIcEENS5_9allocatorIcEEEE to i8*), i8* bitcast (void (%"class.google_apis::UrlFetchRequestBase"*, %"class.base::FilePath"*, %"class.base::RepeatingCallback.46"*)* @_ZN11google_apis19UrlFetchRequestBase17GetOutputFilePathEPN4base8FilePathEPNS1_17RepeatingCallbackIFvNS_17DriveApiErrorCodeENSt3__110unique_ptrINS6_12basic_stringIcNS6_11char_traitsIcEENS6_9allocatorIcEEEENS6_14default_deleteISD_EEEEbEEE to i8*), i8* bitcast (void (%"class.google_apis::UploadRangeRequestBase"*, %"class.network::mojom::URLResponseHead"*, %"class.base::FilePath"*, %"class.std::__1::basic_string"*)* @_ZN11google_apis22UploadRangeRequestBase22ProcessURLFetchResultsEPKN7network5mojom15URLResponseHeadEN4base8FilePathENSt3__112basic_stringIcNS8_11char_traitsIcEENS8_9allocatorIcEEEE to i8*), i8* bitcast (void (%"class.google_apis::UploadRangeRequestBase"*, i32)* @_ZN11google_apis22UploadRangeRequestBase29RunCallbackOnPrematureFailureENS_17DriveApiErrorCodeE to i8*), i8* bitcast (void (%"class.google_apis::UrlFetchRequestBase"*, i8*, i64, %"class.base::OnceCallback.338"*)* @_ZN11google_apis19UrlFetchRequestBase14OnDataReceivedEN4base16BasicStringPieceIcNSt3__111char_traitsIcEEEENS1_12OnceCallbackIFvvEEE to i8*), i8* bitcast (void (%"class.google_apis::UrlFetchRequestBase"*, i1)* @_ZN11google_apis19UrlFetchRequestBase10OnCompleteEb to i8*), i8* bitcast (void (%"class.google_apis::UrlFetchRequestBase"*, %"class.base::OnceCallback.338"*)* @_ZN11google_apis19UrlFetchRequestBase7OnRetryEN4base12OnceCallbackIFvvEEE to i8*), i8* bitcast (void (%"class.google_apis::drive::GetUploadStatusRequest"*, %"struct.google_apis::UploadRangeResponse"*, %"class.base::Value"*)* @_ZN11google_apis5drive22GetUploadStatusRequest22OnRangeRequestCompleteERKNS_19UploadRangeResponseENSt3__110unique_ptrIN4base5ValueENS5_14default_deleteIS8_EEEE to i8*)], [7 x i8*] [i8* inttoptr (i64 -8 to i8*), i8* null, i8* bitcast (void (%"class.google_apis::UrlFetchRequestBase"*, i8*, i64, %"class.base::OnceCallback.338"*)* @_ZThn8_N11google_apis19UrlFetchRequestBase14OnDataReceivedEN4base16BasicStringPieceIcNSt3__111char_traitsIcEEEENS1_12OnceCallbackIFvvEEE to i8*), i8* bitcast (void (%"class.google_apis::UrlFetchRequestBase"*, i1)* @_ZThn8_N11google_apis19UrlFetchRequestBase10OnCompleteEb to i8*), i8* bitcast (void (%"class.google_apis::UrlFetchRequestBase"*, %"class.base::OnceCallback.338"*)* @_ZThn8_N11google_apis19UrlFetchRequestBase7OnRetryEN4base12OnceCallbackIFvvEEE to i8*), i8* bitcast (void (%"class.google_apis::drive::GetUploadStatusRequest"*)* @_ZThn8_N11google_apis5drive22GetUploadStatusRequestD1Ev to i8*), i8* bitcast (void (%"class.google_apis::drive::GetUploadStatusRequest"*)* @_ZThn8_N11google_apis5drive22GetUploadStatusRequestD0Ev to i8*)] }, align 8
@_ZTVN11google_apis5drive30MultipartUploadNewFileDelegateE = hidden unnamed_addr constant { [12 x i8*] } { [12 x i8*] [i8* null, i8* null, i8* bitcast (void (%"class.google_apis::drive::MultipartUploadNewFileDelegate"*)* @_ZN11google_apis5drive30MultipartUploadNewFileDelegateD2Ev to i8*), i8* bitcast (void (%"class.google_apis::drive::MultipartUploadNewFileDelegate"*)* @_ZN11google_apis5drive30MultipartUploadNewFileDelegateD0Ev to i8*), i8* bitcast (void (%class.GURL*, %"class.google_apis::drive::MultipartUploadNewFileDelegate"*)* @_ZNK11google_apis5drive30MultipartUploadNewFileDelegate6GetURLEv to i8*), i8* bitcast (void (%"class.std::__1::basic_string"*, %"class.google_apis::drive::MultipartUploadNewFileDelegate"*)* @_ZNK11google_apis5drive30MultipartUploadNewFileDelegate14GetRequestTypeEv to i8*), i8* bitcast (void (%"class.std::__1::vector.58"*, %"class.google_apis::MultipartUploadRequestBase"*)* @_ZNK11google_apis26MultipartUploadRequestBase22GetExtraRequestHeadersEv to i8*), i8* bitcast (void (%"class.google_apis::MultipartUploadRequestBase"*, %"class.base::OnceCallback.127"*)* @_ZN11google_apis26MultipartUploadRequestBase7PrepareEN4base12OnceCallbackIFvNS_17DriveApiErrorCodeEEEE to i8*), i8* bitcast (i1 (%"class.google_apis::MultipartUploadRequestBase"*, %"class.std::__1::basic_string"*, %"class.std::__1::basic_string"*)* @_ZN11google_apis26MultipartUploadRequestBase14GetContentDataEPNSt3__112basic_stringIcNS1_11char_traitsIcEENS1_9allocatorIcEEEES8_ to i8*), i8* bitcast (void (%"class.google_apis::MultipartUploadRequestBase"*, i32, %"class.std::__1::basic_string"*, %"class.base::OnceCallback.338"*)* @_ZN11google_apis26MultipartUploadRequestBase12NotifyResultENS_17DriveApiErrorCodeERKNSt3__112basic_stringIcNS2_11char_traitsIcEENS2_9allocatorIcEEEEN4base12OnceCallbackIFvvEEE to i8*), i8* bitcast (void (%"class.google_apis::MultipartUploadRequestBase"*, i32)* @_ZN11google_apis26MultipartUploadRequestBase11NotifyErrorENS_17DriveApiErrorCodeE to i8*), i8* bitcast (void (%"class.google_apis::MultipartUploadRequestBase"*, i64, i64)* @_ZN11google_apis26MultipartUploadRequestBase20NotifyUploadProgressEll to i8*)] }, align 8
@_ZTVN11google_apis5drive35MultipartUploadExistingFileDelegateE = hidden unnamed_addr constant { [12 x i8*] } { [12 x i8*] [i8* null, i8* null, i8* bitcast (void (%"class.google_apis::drive::MultipartUploadExistingFileDelegate"*)* @_ZN11google_apis5drive35MultipartUploadExistingFileDelegateD2Ev to i8*), i8* bitcast (void (%"class.google_apis::drive::MultipartUploadExistingFileDelegate"*)* @_ZN11google_apis5drive35MultipartUploadExistingFileDelegateD0Ev to i8*), i8* bitcast (void (%class.GURL*, %"class.google_apis::drive::MultipartUploadExistingFileDelegate"*)* @_ZNK11google_apis5drive35MultipartUploadExistingFileDelegate6GetURLEv to i8*), i8* bitcast (void (%"class.std::__1::basic_string"*, %"class.google_apis::drive::MultipartUploadExistingFileDelegate"*)* @_ZNK11google_apis5drive35MultipartUploadExistingFileDelegate14GetRequestTypeEv to i8*), i8* bitcast (void (%"class.std::__1::vector.58"*, %"class.google_apis::drive::MultipartUploadExistingFileDelegate"*)* @_ZNK11google_apis5drive35MultipartUploadExistingFileDelegate22GetExtraRequestHeadersEv to i8*), i8* bitcast (void (%"class.google_apis::MultipartUploadRequestBase"*, %"class.base::OnceCallback.127"*)* @_ZN11google_apis26MultipartUploadRequestBase7PrepareEN4base12OnceCallbackIFvNS_17DriveApiErrorCodeEEEE to i8*), i8* bitcast (i1 (%"class.google_apis::MultipartUploadRequestBase"*, %"class.std::__1::basic_string"*, %"class.std::__1::basic_string"*)* @_ZN11google_apis26MultipartUploadRequestBase14GetContentDataEPNSt3__112basic_stringIcNS1_11char_traitsIcEENS1_9allocatorIcEEEES8_ to i8*), i8* bitcast (void (%"class.google_apis::MultipartUploadRequestBase"*, i32, %"class.std::__1::basic_string"*, %"class.base::OnceCallback.338"*)* @_ZN11google_apis26MultipartUploadRequestBase12NotifyResultENS_17DriveApiErrorCodeERKNSt3__112basic_stringIcNS2_11char_traitsIcEENS2_9allocatorIcEEEEN4base12OnceCallbackIFvvEEE to i8*), i8* bitcast (void (%"class.google_apis::MultipartUploadRequestBase"*, i32)* @_ZN11google_apis26MultipartUploadRequestBase11NotifyErrorENS_17DriveApiErrorCodeE to i8*), i8* bitcast (void (%"class.google_apis::MultipartUploadRequestBase"*, i64, i64)* @_ZN11google_apis26MultipartUploadRequestBase20NotifyUploadProgressEll to i8*)] }, align 8
@_ZTVN11google_apis5drive19DownloadFileRequestE = hidden unnamed_addr constant { [20 x i8*], [7 x i8*] } { [20 x i8*] [i8* null, i8* null, i8* bitcast (void (%"class.google_apis::drive::DownloadFileRequest"*)* @_ZN11google_apis5drive19DownloadFileRequestD2Ev to i8*), i8* bitcast (void (%"class.google_apis::drive::DownloadFileRequest"*)* @_ZN11google_apis5drive19DownloadFileRequestD0Ev to i8*), i8* bitcast (void (%"class.google_apis::UrlFetchRequestBase"*, %"class.std::__1::basic_string"*, %"class.std::__1::basic_string"*, %"class.base::RepeatingCallback"*)* @_ZN11google_apis19UrlFetchRequestBase5StartERKNSt3__112basic_stringIcNS1_11char_traitsIcEENS1_9allocatorIcEEEES9_N4base17RepeatingCallbackIFvPNS_29AuthenticatedRequestInterfaceEEEE to i8*), i8* bitcast (void (%"class.google_apis::UrlFetchRequestBase"*, i32)* @_ZN11google_apis19UrlFetchRequestBase12OnAuthFailedENS_17DriveApiErrorCodeE to i8*), i8* bitcast (void ()* @_ZN11google_apis19UrlFetchRequestBase10GetWeakPtrEv to i8*), i8* bitcast (void (%"class.google_apis::UrlFetchRequestBase"*)* @_ZN11google_apis19UrlFetchRequestBase6CancelEv to i8*), i8* bitcast (void (%"class.google_apis::UrlFetchRequestBase"*, %"class.base::OnceCallback.127"*)* @_ZN11google_apis19UrlFetchRequestBase7PrepareEN4base12OnceCallbackIFvNS_17DriveApiErrorCodeEEEE to i8*), i8* bitcast (void (%class.GURL*, %"class.google_apis::DownloadFileRequestBase"*)* @_ZNK11google_apis23DownloadFileRequestBase6GetURLEv to i8*), i8* bitcast (void (%"class.std::__1::basic_string"*, %"class.google_apis::UrlFetchRequestBase"*)* @_ZNK11google_apis19UrlFetchRequestBase14GetRequestTypeEv to i8*), i8* bitcast (void (%"class.std::__1::vector.58"*, %"class.google_apis::UrlFetchRequestBase"*)* @_ZNK11google_apis19UrlFetchRequestBase22GetExtraRequestHeadersEv to i8*), i8* bitcast (i1 (%"class.google_apis::UrlFetchRequestBase"*, %"class.std::__1::basic_string"*, %"class.std::__1::basic_string"*)* @_ZN11google_apis19UrlFetchRequestBase14GetContentDataEPNSt3__112basic_stringIcNS1_11char_traitsIcEENS1_9allocatorIcEEEES8_ to i8*), i8* bitcast (i1 (%"class.google_apis::UrlFetchRequestBase"*, %"class.base::FilePath"*, i64*, i64*, %"class.std::__1::basic_string"*)* @_ZN11google_apis19UrlFetchRequestBase14GetContentFileEPN4base8FilePathEPlS4_PNSt3__112basic_stringIcNS5_11char_traitsIcEENS5_9allocatorIcEEEE to i8*), i8* bitcast (void (%"class.google_apis::DownloadFileRequestBase"*, %"class.base::FilePath"*, %"class.base::RepeatingCallback.46"*)* @_ZN11google_apis23DownloadFileRequestBase17GetOutputFilePathEPN4base8FilePathEPNS1_17RepeatingCallbackIFvNS_17DriveApiErrorCodeENSt3__110unique_ptrINS6_12basic_stringIcNS6_11char_traitsIcEENS6_9allocatorIcEEEENS6_14default_deleteISD_EEEEbEEE to i8*), i8* bitcast (void (%"class.google_apis::DownloadFileRequestBase"*, %"class.network::mojom::URLResponseHead"*, %"class.base::FilePath"*, %"class.std::__1::basic_string"*)* @_ZN11google_apis23DownloadFileRequestBase22ProcessURLFetchResultsEPKN7network5mojom15URLResponseHeadEN4base8FilePathENSt3__112basic_stringIcNS8_11char_traitsIcEENS8_9allocatorIcEEEE to i8*), i8* bitcast (void (%"class.google_apis::DownloadFileRequestBase"*, i32)* @_ZN11google_apis23DownloadFileRequestBase29RunCallbackOnPrematureFailureENS_17DriveApiErrorCodeE to i8*), i8* bitcast (void (%"class.google_apis::UrlFetchRequestBase"*, i8*, i64, %"class.base::OnceCallback.338"*)* @_ZN11google_apis19UrlFetchRequestBase14OnDataReceivedEN4base16BasicStringPieceIcNSt3__111char_traitsIcEEEENS1_12OnceCallbackIFvvEEE to i8*), i8* bitcast (void (%"class.google_apis::UrlFetchRequestBase"*, i1)* @_ZN11google_apis19UrlFetchRequestBase10OnCompleteEb to i8*), i8* bitcast (void (%"class.google_apis::UrlFetchRequestBase"*, %"class.base::OnceCallback.338"*)* @_ZN11google_apis19UrlFetchRequestBase7OnRetryEN4base12OnceCallbackIFvvEEE to i8*)], [7 x i8*] [i8* inttoptr (i64 -8 to i8*), i8* null, i8* bitcast (void (%"class.google_apis::UrlFetchRequestBase"*, i8*, i64, %"class.base::OnceCallback.338"*)* @_ZThn8_N11google_apis19UrlFetchRequestBase14OnDataReceivedEN4base16BasicStringPieceIcNSt3__111char_traitsIcEEEENS1_12OnceCallbackIFvvEEE to i8*), i8* bitcast (void (%"class.google_apis::UrlFetchRequestBase"*, i1)* @_ZThn8_N11google_apis19UrlFetchRequestBase10OnCompleteEb to i8*), i8* bitcast (void (%"class.google_apis::UrlFetchRequestBase"*, %"class.base::OnceCallback.338"*)* @_ZThn8_N11google_apis19UrlFetchRequestBase7OnRetryEN4base12OnceCallbackIFvvEEE to i8*), i8* bitcast (void (%"class.google_apis::drive::DownloadFileRequest"*)* @_ZThn8_N11google_apis5drive19DownloadFileRequestD1Ev to i8*), i8* bitcast (void (%"class.google_apis::drive::DownloadFileRequest"*)* @_ZThn8_N11google_apis5drive19DownloadFileRequestD0Ev to i8*)] }, align 8
@_ZTVN11google_apis5drive24PermissionsInsertRequestE = hidden unnamed_addr constant { [20 x i8*], [7 x i8*] } { [20 x i8*] [i8* null, i8* null, i8* bitcast (void (%"class.google_apis::drive::PermissionsInsertRequest"*)* @_ZN11google_apis5drive24PermissionsInsertRequestD2Ev to i8*), i8* bitcast (void (%"class.google_apis::drive::PermissionsInsertRequest"*)* @_ZN11google_apis5drive24PermissionsInsertRequestD0Ev to i8*), i8* bitcast (void (%"class.google_apis::UrlFetchRequestBase"*, %"class.std::__1::basic_string"*, %"class.std::__1::basic_string"*, %"class.base::RepeatingCallback"*)* @_ZN11google_apis19UrlFetchRequestBase5StartERKNSt3__112basic_stringIcNS1_11char_traitsIcEENS1_9allocatorIcEEEES9_N4base17RepeatingCallbackIFvPNS_29AuthenticatedRequestInterfaceEEEE to i8*), i8* bitcast (void (%"class.google_apis::UrlFetchRequestBase"*, i32)* @_ZN11google_apis19UrlFetchRequestBase12OnAuthFailedENS_17DriveApiErrorCodeE to i8*), i8* bitcast (void ()* @_ZN11google_apis19UrlFetchRequestBase10GetWeakPtrEv to i8*), i8* bitcast (void (%"class.google_apis::UrlFetchRequestBase"*)* @_ZN11google_apis19UrlFetchRequestBase6CancelEv to i8*), i8* bitcast (void (%"class.google_apis::UrlFetchRequestBase"*, %"class.base::OnceCallback.127"*)* @_ZN11google_apis19UrlFetchRequestBase7PrepareEN4base12OnceCallbackIFvNS_17DriveApiErrorCodeEEEE to i8*), i8* bitcast (void (%class.GURL*, %"class.google_apis::drive::PermissionsInsertRequest"*)* @_ZNK11google_apis5drive24PermissionsInsertRequest6GetURLEv to i8*), i8* bitcast (void (%"class.std::__1::basic_string"*, %"class.google_apis::drive::PermissionsInsertRequest"*)* @_ZNK11google_apis5drive24PermissionsInsertRequest14GetRequestTypeEv to i8*), i8* bitcast (void (%"class.std::__1::vector.58"*, %"class.google_apis::UrlFetchRequestBase"*)* @_ZNK11google_apis19UrlFetchRequestBase22GetExtraRequestHeadersEv to i8*), i8* bitcast (i1 (%"class.google_apis::drive::PermissionsInsertRequest"*, %"class.std::__1::basic_string"*, %"class.std::__1::basic_string"*)* @_ZN11google_apis5drive24PermissionsInsertRequest14GetContentDataEPNSt3__112basic_stringIcNS2_11char_traitsIcEENS2_9allocatorIcEEEES9_ to i8*), i8* bitcast (i1 (%"class.google_apis::UrlFetchRequestBase"*, %"class.base::FilePath"*, i64*, i64*, %"class.std::__1::basic_string"*)* @_ZN11google_apis19UrlFetchRequestBase14GetContentFileEPN4base8FilePathEPlS4_PNSt3__112basic_stringIcNS5_11char_traitsIcEENS5_9allocatorIcEEEE to i8*), i8* bitcast (void (%"class.google_apis::UrlFetchRequestBase"*, %"class.base::FilePath"*, %"class.base::RepeatingCallback.46"*)* @_ZN11google_apis19UrlFetchRequestBase17GetOutputFilePathEPN4base8FilePathEPNS1_17RepeatingCallbackIFvNS_17DriveApiErrorCodeENSt3__110unique_ptrINS6_12basic_stringIcNS6_11char_traitsIcEENS6_9allocatorIcEEEENS6_14default_deleteISD_EEEEbEEE to i8*), i8* bitcast (void (%"class.google_apis::EntryActionRequest"*, %"class.network::mojom::URLResponseHead"*, %"class.base::FilePath"*, %"class.std::__1::basic_string"*)* @_ZN11google_apis18EntryActionRequest22ProcessURLFetchResultsEPKN7network5mojom15URLResponseHeadEN4base8FilePathENSt3__112basic_stringIcNS8_11char_traitsIcEENS8_9allocatorIcEEEE to i8*), i8* bitcast (void (%"class.google_apis::EntryActionRequest"*, i32)* @_ZN11google_apis18EntryActionRequest29RunCallbackOnPrematureFailureENS_17DriveApiErrorCodeE to i8*), i8* bitcast (void (%"class.google_apis::UrlFetchRequestBase"*, i8*, i64, %"class.base::OnceCallback.338"*)* @_ZN11google_apis19UrlFetchRequestBase14OnDataReceivedEN4base16BasicStringPieceIcNSt3__111char_traitsIcEEEENS1_12OnceCallbackIFvvEEE to i8*), i8* bitcast (void (%"class.google_apis::UrlFetchRequestBase"*, i1)* @_ZN11google_apis19UrlFetchRequestBase10OnCompleteEb to i8*), i8* bitcast (void (%"class.google_apis::UrlFetchRequestBase"*, %"class.base::OnceCallback.338"*)* @_ZN11google_apis19UrlFetchRequestBase7OnRetryEN4base12OnceCallbackIFvvEEE to i8*)], [7 x i8*] [i8* inttoptr (i64 -8 to i8*), i8* null, i8* bitcast (void (%"class.google_apis::UrlFetchRequestBase"*, i8*, i64, %"class.base::OnceCallback.338"*)* @_ZThn8_N11google_apis19UrlFetchRequestBase14OnDataReceivedEN4base16BasicStringPieceIcNSt3__111char_traitsIcEEEENS1_12OnceCallbackIFvvEEE to i8*), i8* bitcast (void (%"class.google_apis::UrlFetchRequestBase"*, i1)* @_ZThn8_N11google_apis19UrlFetchRequestBase10OnCompleteEb to i8*), i8* bitcast (void (%"class.google_apis::UrlFetchRequestBase"*, %"class.base::OnceCallback.338"*)* @_ZThn8_N11google_apis19UrlFetchRequestBase7OnRetryEN4base12OnceCallbackIFvvEEE to i8*), i8* bitcast (void (%"class.google_apis::drive::PermissionsInsertRequest"*)* @_ZThn8_N11google_apis5drive24PermissionsInsertRequestD1Ev to i8*), i8* bitcast (void (%"class.google_apis::drive::PermissionsInsertRequest"*)* @_ZThn8_N11google_apis5drive24PermissionsInsertRequestD0Ev to i8*)] }, align 8
@.str.16 = private unnamed_addr constant [5 x i8] c"type\00", align 1
@.str.17 = private unnamed_addr constant [7 x i8] c"anyone\00", align 1
@.str.18 = private unnamed_addr constant [7 x i8] c"domain\00", align 1
@.str.19 = private unnamed_addr constant [6 x i8] c"group\00", align 1
@.str.20 = private unnamed_addr constant [5 x i8] c"user\00", align 1
@.str.21 = private unnamed_addr constant [5 x i8] c"role\00", align 1
@.str.22 = private unnamed_addr constant [6 x i8] c"owner\00", align 1
@.str.23 = private unnamed_addr constant [7 x i8] c"reader\00", align 1
@.str.24 = private unnamed_addr constant [7 x i8] c"writer\00", align 1
@.str.25 = private unnamed_addr constant [10 x i8] c"commenter\00", align 1
@.str.26 = private unnamed_addr constant [16 x i8] c"additionalRoles\00", align 1
@.str.27 = private unnamed_addr constant [6 x i8] c"value\00", align 1
@_ZTVN11google_apis5drive30SingleBatchableDelegateRequestE = hidden unnamed_addr constant { [20 x i8*], [7 x i8*] } { [20 x i8*] [i8* null, i8* null, i8* bitcast (void (%"class.google_apis::drive::SingleBatchableDelegateRequest"*)* @_ZN11google_apis5drive30SingleBatchableDelegateRequestD2Ev to i8*), i8* bitcast (void (%"class.google_apis::drive::SingleBatchableDelegateRequest"*)* @_ZN11google_apis5drive30SingleBatchableDelegateRequestD0Ev to i8*), i8* bitcast (void (%"class.google_apis::UrlFetchRequestBase"*, %"class.std::__1::basic_string"*, %"class.std::__1::basic_string"*, %"class.base::RepeatingCallback"*)* @_ZN11google_apis19UrlFetchRequestBase5StartERKNSt3__112basic_stringIcNS1_11char_traitsIcEENS1_9allocatorIcEEEES9_N4base17RepeatingCallbackIFvPNS_29AuthenticatedRequestInterfaceEEEE to i8*), i8* bitcast (void (%"class.google_apis::UrlFetchRequestBase"*, i32)* @_ZN11google_apis19UrlFetchRequestBase12OnAuthFailedENS_17DriveApiErrorCodeE to i8*), i8* bitcast (void ()* @_ZN11google_apis19UrlFetchRequestBase10GetWeakPtrEv to i8*), i8* bitcast (void (%"class.google_apis::UrlFetchRequestBase"*)* @_ZN11google_apis19UrlFetchRequestBase6CancelEv to i8*), i8* bitcast (void (%"class.google_apis::drive::SingleBatchableDelegateRequest"*, %"class.base::OnceCallback.127"*)* @_ZN11google_apis5drive30SingleBatchableDelegateRequest7PrepareEN4base12OnceCallbackIFvNS_17DriveApiErrorCodeEEEE to i8*), i8* bitcast (void (%class.GURL*, %"class.google_apis::drive::SingleBatchableDelegateRequest"*)* @_ZNK11google_apis5drive30SingleBatchableDelegateRequest6GetURLEv to i8*), i8* bitcast (void (%"class.std::__1::basic_string"*, %"class.google_apis::drive::SingleBatchableDelegateRequest"*)* @_ZNK11google_apis5drive30SingleBatchableDelegateRequest14GetRequestTypeEv to i8*), i8* bitcast (void (%"class.std::__1::vector.58"*, %"class.google_apis::drive::SingleBatchableDelegateRequest"*)* @_ZNK11google_apis5drive30SingleBatchableDelegateRequest22GetExtraRequestHeadersEv to i8*), i8* bitcast (i1 (%"class.google_apis::drive::SingleBatchableDelegateRequest"*, %"class.std::__1::basic_string"*, %"class.std::__1::basic_string"*)* @_ZN11google_apis5drive30SingleBatchableDelegateRequest14GetContentDataEPNSt3__112basic_stringIcNS2_11char_traitsIcEENS2_9allocatorIcEEEES9_ to i8*), i8* bitcast (i1 (%"class.google_apis::UrlFetchRequestBase"*, %"class.base::FilePath"*, i64*, i64*, %"class.std::__1::basic_string"*)* @_ZN11google_apis19UrlFetchRequestBase14GetContentFileEPN4base8FilePathEPlS4_PNSt3__112basic_stringIcNS5_11char_traitsIcEENS5_9allocatorIcEEEE to i8*), i8* bitcast (void (%"class.google_apis::UrlFetchRequestBase"*, %"class.base::FilePath"*, %"class.base::RepeatingCallback.46"*)* @_ZN11google_apis19UrlFetchRequestBase17GetOutputFilePathEPN4base8FilePathEPNS1_17RepeatingCallbackIFvNS_17DriveApiErrorCodeENSt3__110unique_ptrINS6_12basic_stringIcNS6_11char_traitsIcEENS6_9allocatorIcEEEENS6_14default_deleteISD_EEEEbEEE to i8*), i8* bitcast (void (%"class.google_apis::drive::SingleBatchableDelegateRequest"*, %"class.network::mojom::URLResponseHead"*, %"class.base::FilePath"*, %"class.std::__1::basic_string"*)* @_ZN11google_apis5drive30SingleBatchableDelegateRequest22ProcessURLFetchResultsEPKN7network5mojom15URLResponseHeadEN4base8FilePathENSt3__112basic_stringIcNS9_11char_traitsIcEENS9_9allocatorIcEEEE to i8*), i8* bitcast (void (%"class.google_apis::drive::SingleBatchableDelegateRequest"*, i32)* @_ZN11google_apis5drive30SingleBatchableDelegateRequest29RunCallbackOnPrematureFailureENS_17DriveApiErrorCodeE to i8*), i8* bitcast (void (%"class.google_apis::UrlFetchRequestBase"*, i8*, i64, %"class.base::OnceCallback.338"*)* @_ZN11google_apis19UrlFetchRequestBase14OnDataReceivedEN4base16BasicStringPieceIcNSt3__111char_traitsIcEEEENS1_12OnceCallbackIFvvEEE to i8*), i8* bitcast (void (%"class.google_apis::UrlFetchRequestBase"*, i1)* @_ZN11google_apis19UrlFetchRequestBase10OnCompleteEb to i8*), i8* bitcast (void (%"class.google_apis::UrlFetchRequestBase"*, %"class.base::OnceCallback.338"*)* @_ZN11google_apis19UrlFetchRequestBase7OnRetryEN4base12OnceCallbackIFvvEEE to i8*)], [7 x i8*] [i8* inttoptr (i64 -8 to i8*), i8* null, i8* bitcast (void (%"class.google_apis::UrlFetchRequestBase"*, i8*, i64, %"class.base::OnceCallback.338"*)* @_ZThn8_N11google_apis19UrlFetchRequestBase14OnDataReceivedEN4base16BasicStringPieceIcNSt3__111char_traitsIcEEEENS1_12OnceCallbackIFvvEEE to i8*), i8* bitcast (void (%"class.google_apis::UrlFetchRequestBase"*, i1)* @_ZThn8_N11google_apis19UrlFetchRequestBase10OnCompleteEb to i8*), i8* bitcast (void (%"class.google_apis::UrlFetchRequestBase"*, %"class.base::OnceCallback.338"*)* @_ZThn8_N11google_apis19UrlFetchRequestBase7OnRetryEN4base12OnceCallbackIFvvEEE to i8*), i8* bitcast (void (%"class.google_apis::drive::SingleBatchableDelegateRequest"*)* @_ZThn8_N11google_apis5drive30SingleBatchableDelegateRequestD1Ev to i8*), i8* bitcast (void (%"class.google_apis::drive::SingleBatchableDelegateRequest"*)* @_ZThn8_N11google_apis5drive30SingleBatchableDelegateRequestD0Ev to i8*)] }, align 8
@_ZTVN11google_apis5drive18BatchUploadRequestE = hidden unnamed_addr constant { [20 x i8*], [7 x i8*] } { [20 x i8*] [i8* null, i8* null, i8* bitcast (void (%"class.google_apis::drive::BatchUploadRequest"*)* @_ZN11google_apis5drive18BatchUploadRequestD2Ev to i8*), i8* bitcast (void (%"class.google_apis::drive::BatchUploadRequest"*)* @_ZN11google_apis5drive18BatchUploadRequestD0Ev to i8*), i8* bitcast (void (%"class.google_apis::UrlFetchRequestBase"*, %"class.std::__1::basic_string"*, %"class.std::__1::basic_string"*, %"class.base::RepeatingCallback"*)* @_ZN11google_apis19UrlFetchRequestBase5StartERKNSt3__112basic_stringIcNS1_11char_traitsIcEENS1_9allocatorIcEEEES9_N4base17RepeatingCallbackIFvPNS_29AuthenticatedRequestInterfaceEEEE to i8*), i8* bitcast (void (%"class.google_apis::UrlFetchRequestBase"*, i32)* @_ZN11google_apis19UrlFetchRequestBase12OnAuthFailedENS_17DriveApiErrorCodeE to i8*), i8* bitcast (void ()* @_ZN11google_apis19UrlFetchRequestBase10GetWeakPtrEv to i8*), i8* bitcast (void (%"class.google_apis::drive::BatchUploadRequest"*)* @_ZN11google_apis5drive18BatchUploadRequest6CancelEv to i8*), i8* bitcast (void (%"class.google_apis::drive::BatchUploadRequest"*, %"class.base::OnceCallback.127"*)* @_ZN11google_apis5drive18BatchUploadRequest7PrepareEN4base12OnceCallbackIFvNS_17DriveApiErrorCodeEEEE to i8*), i8* bitcast (void (%class.GURL*, %"class.google_apis::drive::BatchUploadRequest"*)* @_ZNK11google_apis5drive18BatchUploadRequest6GetURLEv to i8*), i8* bitcast (void (%"class.std::__1::basic_string"*, %"class.google_apis::drive::BatchUploadRequest"*)* @_ZNK11google_apis5drive18BatchUploadRequest14GetRequestTypeEv to i8*), i8* bitcast (void (%"class.std::__1::vector.58"*, %"class.google_apis::drive::BatchUploadRequest"*)* @_ZNK11google_apis5drive18BatchUploadRequest22GetExtraRequestHeadersEv to i8*), i8* bitcast (i1 (%"class.google_apis::drive::BatchUploadRequest"*, %"class.std::__1::basic_string"*, %"class.std::__1::basic_string"*)* @_ZN11google_apis5drive18BatchUploadRequest14GetContentDataEPNSt3__112basic_stringIcNS2_11char_traitsIcEENS2_9allocatorIcEEEES9_ to i8*), i8* bitcast (i1 (%"class.google_apis::UrlFetchRequestBase"*, %"class.base::FilePath"*, i64*, i64*, %"class.std::__1::basic_string"*)* @_ZN11google_apis19UrlFetchRequestBase14GetContentFileEPN4base8FilePathEPlS4_PNSt3__112basic_stringIcNS5_11char_traitsIcEENS5_9allocatorIcEEEE to i8*), i8* bitcast (void (%"class.google_apis::UrlFetchRequestBase"*, %"class.base::FilePath"*, %"class.base::RepeatingCallback.46"*)* @_ZN11google_apis19UrlFetchRequestBase17GetOutputFilePathEPN4base8FilePathEPNS1_17RepeatingCallbackIFvNS_17DriveApiErrorCodeENSt3__110unique_ptrINS6_12basic_stringIcNS6_11char_traitsIcEENS6_9allocatorIcEEEENS6_14default_deleteISD_EEEEbEEE to i8*), i8* bitcast (void (%"class.google_apis::drive::BatchUploadRequest"*, %"class.network::mojom::URLResponseHead"*, %"class.base::FilePath"*, %"class.std::__1::basic_string"*)* @_ZN11google_apis5drive18BatchUploadRequest22ProcessURLFetchResultsEPKN7network5mojom15URLResponseHeadEN4base8FilePathENSt3__112basic_stringIcNS9_11char_traitsIcEENS9_9allocatorIcEEEE to i8*), i8* bitcast (void (%"class.google_apis::drive::BatchUploadRequest"*, i32)* @_ZN11google_apis5drive18BatchUploadRequest29RunCallbackOnPrematureFailureENS_17DriveApiErrorCodeE to i8*), i8* bitcast (void (%"class.google_apis::UrlFetchRequestBase"*, i8*, i64, %"class.base::OnceCallback.338"*)* @_ZN11google_apis19UrlFetchRequestBase14OnDataReceivedEN4base16BasicStringPieceIcNSt3__111char_traitsIcEEEENS1_12OnceCallbackIFvvEEE to i8*), i8* bitcast (void (%"class.google_apis::UrlFetchRequestBase"*, i1)* @_ZN11google_apis19UrlFetchRequestBase10OnCompleteEb to i8*), i8* bitcast (void (%"class.google_apis::UrlFetchRequestBase"*, %"class.base::OnceCallback.338"*)* @_ZN11google_apis19UrlFetchRequestBase7OnRetryEN4base12OnceCallbackIFvvEEE to i8*)], [7 x i8*] [i8* inttoptr (i64 -8 to i8*), i8* null, i8* bitcast (void (%"class.google_apis::UrlFetchRequestBase"*, i8*, i64, %"class.base::OnceCallback.338"*)* @_ZThn8_N11google_apis19UrlFetchRequestBase14OnDataReceivedEN4base16BasicStringPieceIcNSt3__111char_traitsIcEEEENS1_12OnceCallbackIFvvEEE to i8*), i8* bitcast (void (%"class.google_apis::UrlFetchRequestBase"*, i1)* @_ZThn8_N11google_apis19UrlFetchRequestBase10OnCompleteEb to i8*), i8* bitcast (void (%"class.google_apis::UrlFetchRequestBase"*, %"class.base::OnceCallback.338"*)* @_ZThn8_N11google_apis19UrlFetchRequestBase7OnRetryEN4base12OnceCallbackIFvvEEE to i8*), i8* bitcast (void (%"class.google_apis::drive::BatchUploadRequest"*)* @_ZThn8_N11google_apis5drive18BatchUploadRequestD1Ev to i8*), i8* bitcast (void (%"class.google_apis::drive::BatchUploadRequest"*)* @_ZThn8_N11google_apis5drive18BatchUploadRequestD0Ev to i8*)] }, align 8
@_ZN11google_apis5drive12_GLOBAL__N_125kBatchUploadRequestFormatE = internal constant [77 x i8] c"%s %s HTTP/1.1\0AHost: %s\0AX-Goog-Upload-Protocol: multipart\0AContent-Type: %s\0A\0A\00", align 16
@_ZN11google_apis5drive12_GLOBAL__N_116kHttpContentTypeE = internal unnamed_addr constant [17 x i8] c"application/http\00", align 16
@_ZN11google_apis5drive12_GLOBAL__N_136kUMADriveTotalFileCountInBatchUploadE = internal constant [34 x i8] c"Drive.TotalFileCountInBatchUpload\00", align 16
@_ZN11google_apis5drive12_GLOBAL__N_135kUMADriveTotalFileSizeInBatchUploadE = internal constant [33 x i8] c"Drive.TotalFileSizeInBatchUpload\00", align 16
@_ZN11google_apis5drive12_GLOBAL__N_118kBatchUploadHeaderE = internal unnamed_addr constant [30 x i8] c"X-Goog-Upload-Protocol: batch\00", align 16
@.str.28 = private unnamed_addr constant [13 x i8] c"Content-Type\00", align 1
@.str.34 = private unnamed_addr constant [7 x i8] c"PUBLIC\00", align 1
@.str.35 = private unnamed_addr constant [11 x i8] c"visibility\00", align 1
@.str.36 = private unnamed_addr constant [4 x i8] c"key\00", align 1
@.str.37 = private unnamed_addr constant [11 x i8] c"properties\00", align 1
@_ZTVN11google_apis5drive19DriveApiDataRequestINS_12FileResourceEEE = linkonce_odr hidden unnamed_addr constant { [21 x i8*], [7 x i8*] } { [21 x i8*] [i8* null, i8* null, i8* bitcast (void (%"class.google_apis::drive::DriveApiDataRequest"*)* @_ZN11google_apis5drive19DriveApiDataRequestINS_12FileResourceEED2Ev to i8*), i8* bitcast (void (%"class.google_apis::drive::DriveApiDataRequest"*)* @_ZN11google_apis5drive19DriveApiDataRequestINS_12FileResourceEED0Ev to i8*), i8* bitcast (void (%"class.google_apis::UrlFetchRequestBase"*, %"class.std::__1::basic_string"*, %"class.std::__1::basic_string"*, %"class.base::RepeatingCallback"*)* @_ZN11google_apis19UrlFetchRequestBase5StartERKNSt3__112basic_stringIcNS1_11char_traitsIcEENS1_9allocatorIcEEEES9_N4base17RepeatingCallbackIFvPNS_29AuthenticatedRequestInterfaceEEEE to i8*), i8* bitcast (void (%"class.google_apis::UrlFetchRequestBase"*, i32)* @_ZN11google_apis19UrlFetchRequestBase12OnAuthFailedENS_17DriveApiErrorCodeE to i8*), i8* bitcast (void ()* @_ZN11google_apis19UrlFetchRequestBase10GetWeakPtrEv to i8*), i8* bitcast (void (%"class.google_apis::UrlFetchRequestBase"*)* @_ZN11google_apis19UrlFetchRequestBase6CancelEv to i8*), i8* bitcast (void (%"class.google_apis::UrlFetchRequestBase"*, %"class.base::OnceCallback.127"*)* @_ZN11google_apis19UrlFetchRequestBase7PrepareEN4base12OnceCallbackIFvNS_17DriveApiErrorCodeEEEE to i8*), i8* bitcast (void (%class.GURL*, %"class.google_apis::drive::DriveApiPartialFieldRequest"*)* @_ZNK11google_apis5drive27DriveApiPartialFieldRequest6GetURLEv to i8*), i8* bitcast (void (%"class.std::__1::basic_string"*, %"class.google_apis::UrlFetchRequestBase"*)* @_ZNK11google_apis19UrlFetchRequestBase14GetRequestTypeEv to i8*), i8* bitcast (void (%"class.std::__1::vector.58"*, %"class.google_apis::UrlFetchRequestBase"*)* @_ZNK11google_apis19UrlFetchRequestBase22GetExtraRequestHeadersEv to i8*), i8* bitcast (i1 (%"class.google_apis::UrlFetchRequestBase"*, %"class.std::__1::basic_string"*, %"class.std::__1::basic_string"*)* @_ZN11google_apis19UrlFetchRequestBase14GetContentDataEPNSt3__112basic_stringIcNS1_11char_traitsIcEENS1_9allocatorIcEEEES8_ to i8*), i8* bitcast (i1 (%"class.google_apis::UrlFetchRequestBase"*, %"class.base::FilePath"*, i64*, i64*, %"class.std::__1::basic_string"*)* @_ZN11google_apis19UrlFetchRequestBase14GetContentFileEPN4base8FilePathEPlS4_PNSt3__112basic_stringIcNS5_11char_traitsIcEENS5_9allocatorIcEEEE to i8*), i8* bitcast (void (%"class.google_apis::UrlFetchRequestBase"*, %"class.base::FilePath"*, %"class.base::RepeatingCallback.46"*)* @_ZN11google_apis19UrlFetchRequestBase17GetOutputFilePathEPN4base8FilePathEPNS1_17RepeatingCallbackIFvNS_17DriveApiErrorCodeENSt3__110unique_ptrINS6_12basic_stringIcNS6_11char_traitsIcEENS6_9allocatorIcEEEENS6_14default_deleteISD_EEEEbEEE to i8*), i8* bitcast (void (%"class.google_apis::drive::DriveApiDataRequest"*, %"class.network::mojom::URLResponseHead"*, %"class.base::FilePath"*, %"class.std::__1::basic_string"*)* @_ZN11google_apis5drive19DriveApiDataRequestINS_12FileResourceEE22ProcessURLFetchResultsEPKN7network5mojom15URLResponseHeadEN4base8FilePathENSt3__112basic_stringIcNSB_11char_traitsIcEENSB_9allocatorIcEEEE to i8*), i8* bitcast (void (%"class.google_apis::drive::DriveApiDataRequest"*, i32)* @_ZN11google_apis5drive19DriveApiDataRequestINS_12FileResourceEE29RunCallbackOnPrematureFailureENS_17DriveApiErrorCodeE to i8*), i8* bitcast (void (%"class.google_apis::UrlFetchRequestBase"*, i8*, i64, %"class.base::OnceCallback.338"*)* @_ZN11google_apis19UrlFetchRequestBase14OnDataReceivedEN4base16BasicStringPieceIcNSt3__111char_traitsIcEEEENS1_12OnceCallbackIFvvEEE to i8*), i8* bitcast (void (%"class.google_apis::UrlFetchRequestBase"*, i1)* @_ZN11google_apis19UrlFetchRequestBase10OnCompleteEb to i8*), i8* bitcast (void (%"class.google_apis::UrlFetchRequestBase"*, %"class.base::OnceCallback.338"*)* @_ZN11google_apis19UrlFetchRequestBase7OnRetryEN4base12OnceCallbackIFvvEEE to i8*), i8* bitcast (void ()* @__cxa_pure_virtual to i8*)], [7 x i8*] [i8* inttoptr (i64 -8 to i8*), i8* null, i8* bitcast (void (%"class.google_apis::UrlFetchRequestBase"*, i8*, i64, %"class.base::OnceCallback.338"*)* @_ZThn8_N11google_apis19UrlFetchRequestBase14OnDataReceivedEN4base16BasicStringPieceIcNSt3__111char_traitsIcEEEENS1_12OnceCallbackIFvvEEE to i8*), i8* bitcast (void (%"class.google_apis::UrlFetchRequestBase"*, i1)* @_ZThn8_N11google_apis19UrlFetchRequestBase10OnCompleteEb to i8*), i8* bitcast (void (%"class.google_apis::UrlFetchRequestBase"*, %"class.base::OnceCallback.338"*)* @_ZThn8_N11google_apis19UrlFetchRequestBase7OnRetryEN4base12OnceCallbackIFvvEEE to i8*), i8* bitcast (void (%"class.google_apis::drive::DriveApiDataRequest"*)* @_ZThn8_N11google_apis5drive19DriveApiDataRequestINS_12FileResourceEED1Ev to i8*), i8* bitcast (void (%"class.google_apis::drive::DriveApiDataRequest"*)* @_ZThn8_N11google_apis5drive19DriveApiDataRequestINS_12FileResourceEED0Ev to i8*)] }, comdat, align 8
@_ZTVN11google_apis5drive19DriveApiDataRequestINS_13TeamDriveListEEE = linkonce_odr hidden unnamed_addr constant { [21 x i8*], [7 x i8*] } { [21 x i8*] [i8* null, i8* null, i8* bitcast (void (%"class.google_apis::drive::DriveApiDataRequest.118"*)* @_ZN11google_apis5drive19DriveApiDataRequestINS_13TeamDriveListEED2Ev to i8*), i8* bitcast (void (%"class.google_apis::drive::DriveApiDataRequest.118"*)* @_ZN11google_apis5drive19DriveApiDataRequestINS_13TeamDriveListEED0Ev to i8*), i8* bitcast (void (%"class.google_apis::UrlFetchRequestBase"*, %"class.std::__1::basic_string"*, %"class.std::__1::basic_string"*, %"class.base::RepeatingCallback"*)* @_ZN11google_apis19UrlFetchRequestBase5StartERKNSt3__112basic_stringIcNS1_11char_traitsIcEENS1_9allocatorIcEEEES9_N4base17RepeatingCallbackIFvPNS_29AuthenticatedRequestInterfaceEEEE to i8*), i8* bitcast (void (%"class.google_apis::UrlFetchRequestBase"*, i32)* @_ZN11google_apis19UrlFetchRequestBase12OnAuthFailedENS_17DriveApiErrorCodeE to i8*), i8* bitcast (void ()* @_ZN11google_apis19UrlFetchRequestBase10GetWeakPtrEv to i8*), i8* bitcast (void (%"class.google_apis::UrlFetchRequestBase"*)* @_ZN11google_apis19UrlFetchRequestBase6CancelEv to i8*), i8* bitcast (void (%"class.google_apis::UrlFetchRequestBase"*, %"class.base::OnceCallback.127"*)* @_ZN11google_apis19UrlFetchRequestBase7PrepareEN4base12OnceCallbackIFvNS_17DriveApiErrorCodeEEEE to i8*), i8* bitcast (void (%class.GURL*, %"class.google_apis::drive::DriveApiPartialFieldRequest"*)* @_ZNK11google_apis5drive27DriveApiPartialFieldRequest6GetURLEv to i8*), i8* bitcast (void (%"class.std::__1::basic_string"*, %"class.google_apis::UrlFetchRequestBase"*)* @_ZNK11google_apis19UrlFetchRequestBase14GetRequestTypeEv to i8*), i8* bitcast (void (%"class.std::__1::vector.58"*, %"class.google_apis::UrlFetchRequestBase"*)* @_ZNK11google_apis19UrlFetchRequestBase22GetExtraRequestHeadersEv to i8*), i8* bitcast (i1 (%"class.google_apis::UrlFetchRequestBase"*, %"class.std::__1::basic_string"*, %"class.std::__1::basic_string"*)* @_ZN11google_apis19UrlFetchRequestBase14GetContentDataEPNSt3__112basic_stringIcNS1_11char_traitsIcEENS1_9allocatorIcEEEES8_ to i8*), i8* bitcast (i1 (%"class.google_apis::UrlFetchRequestBase"*, %"class.base::FilePath"*, i64*, i64*, %"class.std::__1::basic_string"*)* @_ZN11google_apis19UrlFetchRequestBase14GetContentFileEPN4base8FilePathEPlS4_PNSt3__112basic_stringIcNS5_11char_traitsIcEENS5_9allocatorIcEEEE to i8*), i8* bitcast (void (%"class.google_apis::UrlFetchRequestBase"*, %"class.base::FilePath"*, %"class.base::RepeatingCallback.46"*)* @_ZN11google_apis19UrlFetchRequestBase17GetOutputFilePathEPN4base8FilePathEPNS1_17RepeatingCallbackIFvNS_17DriveApiErrorCodeENSt3__110unique_ptrINS6_12basic_stringIcNS6_11char_traitsIcEENS6_9allocatorIcEEEENS6_14default_deleteISD_EEEEbEEE to i8*), i8* bitcast (void (%"class.google_apis::drive::DriveApiDataRequest.118"*, %"class.network::mojom::URLResponseHead"*, %"class.base::FilePath"*, %"class.std::__1::basic_string"*)* @_ZN11google_apis5drive19DriveApiDataRequestINS_13TeamDriveListEE22ProcessURLFetchResultsEPKN7network5mojom15URLResponseHeadEN4base8FilePathENSt3__112basic_stringIcNSB_11char_traitsIcEENSB_9allocatorIcEEEE to i8*), i8* bitcast (void (%"class.google_apis::drive::DriveApiDataRequest.118"*, i32)* @_ZN11google_apis5drive19DriveApiDataRequestINS_13TeamDriveListEE29RunCallbackOnPrematureFailureENS_17DriveApiErrorCodeE to i8*), i8* bitcast (void (%"class.google_apis::UrlFetchRequestBase"*, i8*, i64, %"class.base::OnceCallback.338"*)* @_ZN11google_apis19UrlFetchRequestBase14OnDataReceivedEN4base16BasicStringPieceIcNSt3__111char_traitsIcEEEENS1_12OnceCallbackIFvvEEE to i8*), i8* bitcast (void (%"class.google_apis::UrlFetchRequestBase"*, i1)* @_ZN11google_apis19UrlFetchRequestBase10OnCompleteEb to i8*), i8* bitcast (void (%"class.google_apis::UrlFetchRequestBase"*, %"class.base::OnceCallback.338"*)* @_ZN11google_apis19UrlFetchRequestBase7OnRetryEN4base12OnceCallbackIFvvEEE to i8*), i8* bitcast (void ()* @__cxa_pure_virtual to i8*)], [7 x i8*] [i8* inttoptr (i64 -8 to i8*), i8* null, i8* bitcast (void (%"class.google_apis::UrlFetchRequestBase"*, i8*, i64, %"class.base::OnceCallback.338"*)* @_ZThn8_N11google_apis19UrlFetchRequestBase14OnDataReceivedEN4base16BasicStringPieceIcNSt3__111char_traitsIcEEEENS1_12OnceCallbackIFvvEEE to i8*), i8* bitcast (void (%"class.google_apis::UrlFetchRequestBase"*, i1)* @_ZThn8_N11google_apis19UrlFetchRequestBase10OnCompleteEb to i8*), i8* bitcast (void (%"class.google_apis::UrlFetchRequestBase"*, %"class.base::OnceCallback.338"*)* @_ZThn8_N11google_apis19UrlFetchRequestBase7OnRetryEN4base12OnceCallbackIFvvEEE to i8*), i8* bitcast (void (%"class.google_apis::drive::DriveApiDataRequest.118"*)* @_ZThn8_N11google_apis5drive19DriveApiDataRequestINS_13TeamDriveListEED1Ev to i8*), i8* bitcast (void (%"class.google_apis::drive::DriveApiDataRequest.118"*)* @_ZThn8_N11google_apis5drive19DriveApiDataRequestINS_13TeamDriveListEED0Ev to i8*)] }, comdat, align 8
@_ZTVN11google_apis5drive19DriveApiDataRequestINS_14StartPageTokenEEE = linkonce_odr hidden unnamed_addr constant { [21 x i8*], [7 x i8*] } { [21 x i8*] [i8* null, i8* null, i8* bitcast (void (%"class.google_apis::drive::DriveApiDataRequest.121"*)* @_ZN11google_apis5drive19DriveApiDataRequestINS_14StartPageTokenEED2Ev to i8*), i8* bitcast (void (%"class.google_apis::drive::DriveApiDataRequest.121"*)* @_ZN11google_apis5drive19DriveApiDataRequestINS_14StartPageTokenEED0Ev to i8*), i8* bitcast (void (%"class.google_apis::UrlFetchRequestBase"*, %"class.std::__1::basic_string"*, %"class.std::__1::basic_string"*, %"class.base::RepeatingCallback"*)* @_ZN11google_apis19UrlFetchRequestBase5StartERKNSt3__112basic_stringIcNS1_11char_traitsIcEENS1_9allocatorIcEEEES9_N4base17RepeatingCallbackIFvPNS_29AuthenticatedRequestInterfaceEEEE to i8*), i8* bitcast (void (%"class.google_apis::UrlFetchRequestBase"*, i32)* @_ZN11google_apis19UrlFetchRequestBase12OnAuthFailedENS_17DriveApiErrorCodeE to i8*), i8* bitcast (void ()* @_ZN11google_apis19UrlFetchRequestBase10GetWeakPtrEv to i8*), i8* bitcast (void (%"class.google_apis::UrlFetchRequestBase"*)* @_ZN11google_apis19UrlFetchRequestBase6CancelEv to i8*), i8* bitcast (void (%"class.google_apis::UrlFetchRequestBase"*, %"class.base::OnceCallback.127"*)* @_ZN11google_apis19UrlFetchRequestBase7PrepareEN4base12OnceCallbackIFvNS_17DriveApiErrorCodeEEEE to i8*), i8* bitcast (void (%class.GURL*, %"class.google_apis::drive::DriveApiPartialFieldRequest"*)* @_ZNK11google_apis5drive27DriveApiPartialFieldRequest6GetURLEv to i8*), i8* bitcast (void (%"class.std::__1::basic_string"*, %"class.google_apis::UrlFetchRequestBase"*)* @_ZNK11google_apis19UrlFetchRequestBase14GetRequestTypeEv to i8*), i8* bitcast (void (%"class.std::__1::vector.58"*, %"class.google_apis::UrlFetchRequestBase"*)* @_ZNK11google_apis19UrlFetchRequestBase22GetExtraRequestHeadersEv to i8*), i8* bitcast (i1 (%"class.google_apis::UrlFetchRequestBase"*, %"class.std::__1::basic_string"*, %"class.std::__1::basic_string"*)* @_ZN11google_apis19UrlFetchRequestBase14GetContentDataEPNSt3__112basic_stringIcNS1_11char_traitsIcEENS1_9allocatorIcEEEES8_ to i8*), i8* bitcast (i1 (%"class.google_apis::UrlFetchRequestBase"*, %"class.base::FilePath"*, i64*, i64*, %"class.std::__1::basic_string"*)* @_ZN11google_apis19UrlFetchRequestBase14GetContentFileEPN4base8FilePathEPlS4_PNSt3__112basic_stringIcNS5_11char_traitsIcEENS5_9allocatorIcEEEE to i8*), i8* bitcast (void (%"class.google_apis::UrlFetchRequestBase"*, %"class.base::FilePath"*, %"class.base::RepeatingCallback.46"*)* @_ZN11google_apis19UrlFetchRequestBase17GetOutputFilePathEPN4base8FilePathEPNS1_17RepeatingCallbackIFvNS_17DriveApiErrorCodeENSt3__110unique_ptrINS6_12basic_stringIcNS6_11char_traitsIcEENS6_9allocatorIcEEEENS6_14default_deleteISD_EEEEbEEE to i8*), i8* bitcast (void (%"class.google_apis::drive::DriveApiDataRequest.121"*, %"class.network::mojom::URLResponseHead"*, %"class.base::FilePath"*, %"class.std::__1::basic_string"*)* @_ZN11google_apis5drive19DriveApiDataRequestINS_14StartPageTokenEE22ProcessURLFetchResultsEPKN7network5mojom15URLResponseHeadEN4base8FilePathENSt3__112basic_stringIcNSB_11char_traitsIcEENSB_9allocatorIcEEEE to i8*), i8* bitcast (void (%"class.google_apis::drive::DriveApiDataRequest.121"*, i32)* @_ZN11google_apis5drive19DriveApiDataRequestINS_14StartPageTokenEE29RunCallbackOnPrematureFailureENS_17DriveApiErrorCodeE to i8*), i8* bitcast (void (%"class.google_apis::UrlFetchRequestBase"*, i8*, i64, %"class.base::OnceCallback.338"*)* @_ZN11google_apis19UrlFetchRequestBase14OnDataReceivedEN4base16BasicStringPieceIcNSt3__111char_traitsIcEEEENS1_12OnceCallbackIFvvEEE to i8*), i8* bitcast (void (%"class.google_apis::UrlFetchRequestBase"*, i1)* @_ZN11google_apis19UrlFetchRequestBase10OnCompleteEb to i8*), i8* bitcast (void (%"class.google_apis::UrlFetchRequestBase"*, %"class.base::OnceCallback.338"*)* @_ZN11google_apis19UrlFetchRequestBase7OnRetryEN4base12OnceCallbackIFvvEEE to i8*), i8* bitcast (void ()* @__cxa_pure_virtual to i8*)], [7 x i8*] [i8* inttoptr (i64 -8 to i8*), i8* null, i8* bitcast (void (%"class.google_apis::UrlFetchRequestBase"*, i8*, i64, %"class.base::OnceCallback.338"*)* @_ZThn8_N11google_apis19UrlFetchRequestBase14OnDataReceivedEN4base16BasicStringPieceIcNSt3__111char_traitsIcEEEENS1_12OnceCallbackIFvvEEE to i8*), i8* bitcast (void (%"class.google_apis::UrlFetchRequestBase"*, i1)* @_ZThn8_N11google_apis19UrlFetchRequestBase10OnCompleteEb to i8*), i8* bitcast (void (%"class.google_apis::UrlFetchRequestBase"*, %"class.base::OnceCallback.338"*)* @_ZThn8_N11google_apis19UrlFetchRequestBase7OnRetryEN4base12OnceCallbackIFvvEEE to i8*), i8* bitcast (void (%"class.google_apis::drive::DriveApiDataRequest.121"*)* @_ZThn8_N11google_apis5drive19DriveApiDataRequestINS_14StartPageTokenEED1Ev to i8*), i8* bitcast (void (%"class.google_apis::drive::DriveApiDataRequest.121"*)* @_ZThn8_N11google_apis5drive19DriveApiDataRequestINS_14StartPageTokenEED0Ev to i8*)] }, comdat, align 8
@_ZTVN11google_apis5drive19DriveApiDataRequestINS_8FileListEEE = linkonce_odr hidden unnamed_addr constant { [21 x i8*], [7 x i8*] } { [21 x i8*] [i8* null, i8* null, i8* bitcast (void (%"class.google_apis::drive::DriveApiDataRequest.124"*)* @_ZN11google_apis5drive19DriveApiDataRequestINS_8FileListEED2Ev to i8*), i8* bitcast (void (%"class.google_apis::drive::DriveApiDataRequest.124"*)* @_ZN11google_apis5drive19DriveApiDataRequestINS_8FileListEED0Ev to i8*), i8* bitcast (void (%"class.google_apis::UrlFetchRequestBase"*, %"class.std::__1::basic_string"*, %"class.std::__1::basic_string"*, %"class.base::RepeatingCallback"*)* @_ZN11google_apis19UrlFetchRequestBase5StartERKNSt3__112basic_stringIcNS1_11char_traitsIcEENS1_9allocatorIcEEEES9_N4base17RepeatingCallbackIFvPNS_29AuthenticatedRequestInterfaceEEEE to i8*), i8* bitcast (void (%"class.google_apis::UrlFetchRequestBase"*, i32)* @_ZN11google_apis19UrlFetchRequestBase12OnAuthFailedENS_17DriveApiErrorCodeE to i8*), i8* bitcast (void ()* @_ZN11google_apis19UrlFetchRequestBase10GetWeakPtrEv to i8*), i8* bitcast (void (%"class.google_apis::UrlFetchRequestBase"*)* @_ZN11google_apis19UrlFetchRequestBase6CancelEv to i8*), i8* bitcast (void (%"class.google_apis::UrlFetchRequestBase"*, %"class.base::OnceCallback.127"*)* @_ZN11google_apis19UrlFetchRequestBase7PrepareEN4base12OnceCallbackIFvNS_17DriveApiErrorCodeEEEE to i8*), i8* bitcast (void (%class.GURL*, %"class.google_apis::drive::DriveApiPartialFieldRequest"*)* @_ZNK11google_apis5drive27DriveApiPartialFieldRequest6GetURLEv to i8*), i8* bitcast (void (%"class.std::__1::basic_string"*, %"class.google_apis::UrlFetchRequestBase"*)* @_ZNK11google_apis19UrlFetchRequestBase14GetRequestTypeEv to i8*), i8* bitcast (void (%"class.std::__1::vector.58"*, %"class.google_apis::UrlFetchRequestBase"*)* @_ZNK11google_apis19UrlFetchRequestBase22GetExtraRequestHeadersEv to i8*), i8* bitcast (i1 (%"class.google_apis::UrlFetchRequestBase"*, %"class.std::__1::basic_string"*, %"class.std::__1::basic_string"*)* @_ZN11google_apis19UrlFetchRequestBase14GetContentDataEPNSt3__112basic_stringIcNS1_11char_traitsIcEENS1_9allocatorIcEEEES8_ to i8*), i8* bitcast (i1 (%"class.google_apis::UrlFetchRequestBase"*, %"class.base::FilePath"*, i64*, i64*, %"class.std::__1::basic_string"*)* @_ZN11google_apis19UrlFetchRequestBase14GetContentFileEPN4base8FilePathEPlS4_PNSt3__112basic_stringIcNS5_11char_traitsIcEENS5_9allocatorIcEEEE to i8*), i8* bitcast (void (%"class.google_apis::UrlFetchRequestBase"*, %"class.base::FilePath"*, %"class.base::RepeatingCallback.46"*)* @_ZN11google_apis19UrlFetchRequestBase17GetOutputFilePathEPN4base8FilePathEPNS1_17RepeatingCallbackIFvNS_17DriveApiErrorCodeENSt3__110unique_ptrINS6_12basic_stringIcNS6_11char_traitsIcEENS6_9allocatorIcEEEENS6_14default_deleteISD_EEEEbEEE to i8*), i8* bitcast (void (%"class.google_apis::drive::DriveApiDataRequest.124"*, %"class.network::mojom::URLResponseHead"*, %"class.base::FilePath"*, %"class.std::__1::basic_string"*)* @_ZN11google_apis5drive19DriveApiDataRequestINS_8FileListEE22ProcessURLFetchResultsEPKN7network5mojom15URLResponseHeadEN4base8FilePathENSt3__112basic_stringIcNSB_11char_traitsIcEENSB_9allocatorIcEEEE to i8*), i8* bitcast (void (%"class.google_apis::drive::DriveApiDataRequest.124"*, i32)* @_ZN11google_apis5drive19DriveApiDataRequestINS_8FileListEE29RunCallbackOnPrematureFailureENS_17DriveApiErrorCodeE to i8*), i8* bitcast (void (%"class.google_apis::UrlFetchRequestBase"*, i8*, i64, %"class.base::OnceCallback.338"*)* @_ZN11google_apis19UrlFetchRequestBase14OnDataReceivedEN4base16BasicStringPieceIcNSt3__111char_traitsIcEEEENS1_12OnceCallbackIFvvEEE to i8*), i8* bitcast (void (%"class.google_apis::UrlFetchRequestBase"*, i1)* @_ZN11google_apis19UrlFetchRequestBase10OnCompleteEb to i8*), i8* bitcast (void (%"class.google_apis::UrlFetchRequestBase"*, %"class.base::OnceCallback.338"*)* @_ZN11google_apis19UrlFetchRequestBase7OnRetryEN4base12OnceCallbackIFvvEEE to i8*), i8* bitcast (void ()* @__cxa_pure_virtual to i8*)], [7 x i8*] [i8* inttoptr (i64 -8 to i8*), i8* null, i8* bitcast (void (%"class.google_apis::UrlFetchRequestBase"*, i8*, i64, %"class.base::OnceCallback.338"*)* @_ZThn8_N11google_apis19UrlFetchRequestBase14OnDataReceivedEN4base16BasicStringPieceIcNSt3__111char_traitsIcEEEENS1_12OnceCallbackIFvvEEE to i8*), i8* bitcast (void (%"class.google_apis::UrlFetchRequestBase"*, i1)* @_ZThn8_N11google_apis19UrlFetchRequestBase10OnCompleteEb to i8*), i8* bitcast (void (%"class.google_apis::UrlFetchRequestBase"*, %"class.base::OnceCallback.338"*)* @_ZThn8_N11google_apis19UrlFetchRequestBase7OnRetryEN4base12OnceCallbackIFvvEEE to i8*), i8* bitcast (void (%"class.google_apis::drive::DriveApiDataRequest.124"*)* @_ZThn8_N11google_apis5drive19DriveApiDataRequestINS_8FileListEED1Ev to i8*), i8* bitcast (void (%"class.google_apis::drive::DriveApiDataRequest.124"*)* @_ZThn8_N11google_apis5drive19DriveApiDataRequestINS_8FileListEED0Ev to i8*)] }, comdat, align 8
@_ZTVN11google_apis5drive19DriveApiDataRequestINS_13AboutResourceEEE = linkonce_odr hidden unnamed_addr constant { [21 x i8*], [7 x i8*] } { [21 x i8*] [i8* null, i8* null, i8* bitcast (void (%"class.google_apis::drive::DriveApiDataRequest.128"*)* @_ZN11google_apis5drive19DriveApiDataRequestINS_13AboutResourceEED2Ev to i8*), i8* bitcast (void (%"class.google_apis::drive::DriveApiDataRequest.128"*)* @_ZN11google_apis5drive19DriveApiDataRequestINS_13AboutResourceEED0Ev to i8*), i8* bitcast (void (%"class.google_apis::UrlFetchRequestBase"*, %"class.std::__1::basic_string"*, %"class.std::__1::basic_string"*, %"class.base::RepeatingCallback"*)* @_ZN11google_apis19UrlFetchRequestBase5StartERKNSt3__112basic_stringIcNS1_11char_traitsIcEENS1_9allocatorIcEEEES9_N4base17RepeatingCallbackIFvPNS_29AuthenticatedRequestInterfaceEEEE to i8*), i8* bitcast (void (%"class.google_apis::UrlFetchRequestBase"*, i32)* @_ZN11google_apis19UrlFetchRequestBase12OnAuthFailedENS_17DriveApiErrorCodeE to i8*), i8* bitcast (void ()* @_ZN11google_apis19UrlFetchRequestBase10GetWeakPtrEv to i8*), i8* bitcast (void (%"class.google_apis::UrlFetchRequestBase"*)* @_ZN11google_apis19UrlFetchRequestBase6CancelEv to i8*), i8* bitcast (void (%"class.google_apis::UrlFetchRequestBase"*, %"class.base::OnceCallback.127"*)* @_ZN11google_apis19UrlFetchRequestBase7PrepareEN4base12OnceCallbackIFvNS_17DriveApiErrorCodeEEEE to i8*), i8* bitcast (void (%class.GURL*, %"class.google_apis::drive::DriveApiPartialFieldRequest"*)* @_ZNK11google_apis5drive27DriveApiPartialFieldRequest6GetURLEv to i8*), i8* bitcast (void (%"class.std::__1::basic_string"*, %"class.google_apis::UrlFetchRequestBase"*)* @_ZNK11google_apis19UrlFetchRequestBase14GetRequestTypeEv to i8*), i8* bitcast (void (%"class.std::__1::vector.58"*, %"class.google_apis::UrlFetchRequestBase"*)* @_ZNK11google_apis19UrlFetchRequestBase22GetExtraRequestHeadersEv to i8*), i8* bitcast (i1 (%"class.google_apis::UrlFetchRequestBase"*, %"class.std::__1::basic_string"*, %"class.std::__1::basic_string"*)* @_ZN11google_apis19UrlFetchRequestBase14GetContentDataEPNSt3__112basic_stringIcNS1_11char_traitsIcEENS1_9allocatorIcEEEES8_ to i8*), i8* bitcast (i1 (%"class.google_apis::UrlFetchRequestBase"*, %"class.base::FilePath"*, i64*, i64*, %"class.std::__1::basic_string"*)* @_ZN11google_apis19UrlFetchRequestBase14GetContentFileEPN4base8FilePathEPlS4_PNSt3__112basic_stringIcNS5_11char_traitsIcEENS5_9allocatorIcEEEE to i8*), i8* bitcast (void (%"class.google_apis::UrlFetchRequestBase"*, %"class.base::FilePath"*, %"class.base::RepeatingCallback.46"*)* @_ZN11google_apis19UrlFetchRequestBase17GetOutputFilePathEPN4base8FilePathEPNS1_17RepeatingCallbackIFvNS_17DriveApiErrorCodeENSt3__110unique_ptrINS6_12basic_stringIcNS6_11char_traitsIcEENS6_9allocatorIcEEEENS6_14default_deleteISD_EEEEbEEE to i8*), i8* bitcast (void (%"class.google_apis::drive::DriveApiDataRequest.128"*, %"class.network::mojom::URLResponseHead"*, %"class.base::FilePath"*, %"class.std::__1::basic_string"*)* @_ZN11google_apis5drive19DriveApiDataRequestINS_13AboutResourceEE22ProcessURLFetchResultsEPKN7network5mojom15URLResponseHeadEN4base8FilePathENSt3__112basic_stringIcNSB_11char_traitsIcEENSB_9allocatorIcEEEE to i8*), i8* bitcast (void (%"class.google_apis::drive::DriveApiDataRequest.128"*, i32)* @_ZN11google_apis5drive19DriveApiDataRequestINS_13AboutResourceEE29RunCallbackOnPrematureFailureENS_17DriveApiErrorCodeE to i8*), i8* bitcast (void (%"class.google_apis::UrlFetchRequestBase"*, i8*, i64, %"class.base::OnceCallback.338"*)* @_ZN11google_apis19UrlFetchRequestBase14OnDataReceivedEN4base16BasicStringPieceIcNSt3__111char_traitsIcEEEENS1_12OnceCallbackIFvvEEE to i8*), i8* bitcast (void (%"class.google_apis::UrlFetchRequestBase"*, i1)* @_ZN11google_apis19UrlFetchRequestBase10OnCompleteEb to i8*), i8* bitcast (void (%"class.google_apis::UrlFetchRequestBase"*, %"class.base::OnceCallback.338"*)* @_ZN11google_apis19UrlFetchRequestBase7OnRetryEN4base12OnceCallbackIFvvEEE to i8*), i8* bitcast (void ()* @__cxa_pure_virtual to i8*)], [7 x i8*] [i8* inttoptr (i64 -8 to i8*), i8* null, i8* bitcast (void (%"class.google_apis::UrlFetchRequestBase"*, i8*, i64, %"class.base::OnceCallback.338"*)* @_ZThn8_N11google_apis19UrlFetchRequestBase14OnDataReceivedEN4base16BasicStringPieceIcNSt3__111char_traitsIcEEEENS1_12OnceCallbackIFvvEEE to i8*), i8* bitcast (void (%"class.google_apis::UrlFetchRequestBase"*, i1)* @_ZThn8_N11google_apis19UrlFetchRequestBase10OnCompleteEb to i8*), i8* bitcast (void (%"class.google_apis::UrlFetchRequestBase"*, %"class.base::OnceCallback.338"*)* @_ZThn8_N11google_apis19UrlFetchRequestBase7OnRetryEN4base12OnceCallbackIFvvEEE to i8*), i8* bitcast (void (%"class.google_apis::drive::DriveApiDataRequest.128"*)* @_ZThn8_N11google_apis5drive19DriveApiDataRequestINS_13AboutResourceEED1Ev to i8*), i8* bitcast (void (%"class.google_apis::drive::DriveApiDataRequest.128"*)* @_ZThn8_N11google_apis5drive19DriveApiDataRequestINS_13AboutResourceEED0Ev to i8*)] }, comdat, align 8
@_ZTVN11google_apis5drive19DriveApiDataRequestINS_10ChangeListEEE = linkonce_odr hidden unnamed_addr constant { [21 x i8*], [7 x i8*] } { [21 x i8*] [i8* null, i8* null, i8* bitcast (void (%"class.google_apis::drive::DriveApiDataRequest.131"*)* @_ZN11google_apis5drive19DriveApiDataRequestINS_10ChangeListEED2Ev to i8*), i8* bitcast (void (%"class.google_apis::drive::DriveApiDataRequest.131"*)* @_ZN11google_apis5drive19DriveApiDataRequestINS_10ChangeListEED0Ev to i8*), i8* bitcast (void (%"class.google_apis::UrlFetchRequestBase"*, %"class.std::__1::basic_string"*, %"class.std::__1::basic_string"*, %"class.base::RepeatingCallback"*)* @_ZN11google_apis19UrlFetchRequestBase5StartERKNSt3__112basic_stringIcNS1_11char_traitsIcEENS1_9allocatorIcEEEES9_N4base17RepeatingCallbackIFvPNS_29AuthenticatedRequestInterfaceEEEE to i8*), i8* bitcast (void (%"class.google_apis::UrlFetchRequestBase"*, i32)* @_ZN11google_apis19UrlFetchRequestBase12OnAuthFailedENS_17DriveApiErrorCodeE to i8*), i8* bitcast (void ()* @_ZN11google_apis19UrlFetchRequestBase10GetWeakPtrEv to i8*), i8* bitcast (void (%"class.google_apis::UrlFetchRequestBase"*)* @_ZN11google_apis19UrlFetchRequestBase6CancelEv to i8*), i8* bitcast (void (%"class.google_apis::UrlFetchRequestBase"*, %"class.base::OnceCallback.127"*)* @_ZN11google_apis19UrlFetchRequestBase7PrepareEN4base12OnceCallbackIFvNS_17DriveApiErrorCodeEEEE to i8*), i8* bitcast (void (%class.GURL*, %"class.google_apis::drive::DriveApiPartialFieldRequest"*)* @_ZNK11google_apis5drive27DriveApiPartialFieldRequest6GetURLEv to i8*), i8* bitcast (void (%"class.std::__1::basic_string"*, %"class.google_apis::UrlFetchRequestBase"*)* @_ZNK11google_apis19UrlFetchRequestBase14GetRequestTypeEv to i8*), i8* bitcast (void (%"class.std::__1::vector.58"*, %"class.google_apis::UrlFetchRequestBase"*)* @_ZNK11google_apis19UrlFetchRequestBase22GetExtraRequestHeadersEv to i8*), i8* bitcast (i1 (%"class.google_apis::UrlFetchRequestBase"*, %"class.std::__1::basic_string"*, %"class.std::__1::basic_string"*)* @_ZN11google_apis19UrlFetchRequestBase14GetContentDataEPNSt3__112basic_stringIcNS1_11char_traitsIcEENS1_9allocatorIcEEEES8_ to i8*), i8* bitcast (i1 (%"class.google_apis::UrlFetchRequestBase"*, %"class.base::FilePath"*, i64*, i64*, %"class.std::__1::basic_string"*)* @_ZN11google_apis19UrlFetchRequestBase14GetContentFileEPN4base8FilePathEPlS4_PNSt3__112basic_stringIcNS5_11char_traitsIcEENS5_9allocatorIcEEEE to i8*), i8* bitcast (void (%"class.google_apis::UrlFetchRequestBase"*, %"class.base::FilePath"*, %"class.base::RepeatingCallback.46"*)* @_ZN11google_apis19UrlFetchRequestBase17GetOutputFilePathEPN4base8FilePathEPNS1_17RepeatingCallbackIFvNS_17DriveApiErrorCodeENSt3__110unique_ptrINS6_12basic_stringIcNS6_11char_traitsIcEENS6_9allocatorIcEEEENS6_14default_deleteISD_EEEEbEEE to i8*), i8* bitcast (void (%"class.google_apis::drive::DriveApiDataRequest.131"*, %"class.network::mojom::URLResponseHead"*, %"class.base::FilePath"*, %"class.std::__1::basic_string"*)* @_ZN11google_apis5drive19DriveApiDataRequestINS_10ChangeListEE22ProcessURLFetchResultsEPKN7network5mojom15URLResponseHeadEN4base8FilePathENSt3__112basic_stringIcNSB_11char_traitsIcEENSB_9allocatorIcEEEE to i8*), i8* bitcast (void (%"class.google_apis::drive::DriveApiDataRequest.131"*, i32)* @_ZN11google_apis5drive19DriveApiDataRequestINS_10ChangeListEE29RunCallbackOnPrematureFailureENS_17DriveApiErrorCodeE to i8*), i8* bitcast (void (%"class.google_apis::UrlFetchRequestBase"*, i8*, i64, %"class.base::OnceCallback.338"*)* @_ZN11google_apis19UrlFetchRequestBase14OnDataReceivedEN4base16BasicStringPieceIcNSt3__111char_traitsIcEEEENS1_12OnceCallbackIFvvEEE to i8*), i8* bitcast (void (%"class.google_apis::UrlFetchRequestBase"*, i1)* @_ZN11google_apis19UrlFetchRequestBase10OnCompleteEb to i8*), i8* bitcast (void (%"class.google_apis::UrlFetchRequestBase"*, %"class.base::OnceCallback.338"*)* @_ZN11google_apis19UrlFetchRequestBase7OnRetryEN4base12OnceCallbackIFvvEEE to i8*), i8* bitcast (void ()* @__cxa_pure_virtual to i8*)], [7 x i8*] [i8* inttoptr (i64 -8 to i8*), i8* null, i8* bitcast (void (%"class.google_apis::UrlFetchRequestBase"*, i8*, i64, %"class.base::OnceCallback.338"*)* @_ZThn8_N11google_apis19UrlFetchRequestBase14OnDataReceivedEN4base16BasicStringPieceIcNSt3__111char_traitsIcEEEENS1_12OnceCallbackIFvvEEE to i8*), i8* bitcast (void (%"class.google_apis::UrlFetchRequestBase"*, i1)* @_ZThn8_N11google_apis19UrlFetchRequestBase10OnCompleteEb to i8*), i8* bitcast (void (%"class.google_apis::UrlFetchRequestBase"*, %"class.base::OnceCallback.338"*)* @_ZThn8_N11google_apis19UrlFetchRequestBase7OnRetryEN4base12OnceCallbackIFvvEEE to i8*), i8* bitcast (void (%"class.google_apis::drive::DriveApiDataRequest.131"*)* @_ZThn8_N11google_apis5drive19DriveApiDataRequestINS_10ChangeListEED1Ev to i8*), i8* bitcast (void (%"class.google_apis::drive::DriveApiDataRequest.131"*)* @_ZThn8_N11google_apis5drive19DriveApiDataRequestINS_10ChangeListEED0Ev to i8*)] }, comdat, align 8
@.str.39 = private unnamed_addr constant [29 x i8] c"../../base/memory/weak_ptr.h\00", align 1
@.str.40 = private unnamed_addr constant [15 x i8] c"ref_.IsValid()\00", align 1
@.str.41 = private unnamed_addr constant [23 x i8] c"ProcessURLFetchResults\00", align 1
@.str.42 = private unnamed_addr constant [45 x i8] c"../../google_apis/drive/drive_api_requests.h\00", align 1
@_ZZN11google_apis5drive18BatchUploadRequest18MayCompletePrepareEvE24atomic_histogram_pointer.0.0.0.0.0 = internal unnamed_addr global i64 0, align 8
@_ZZN11google_apis5drive18BatchUploadRequest18MayCompletePrepareEvE24atomic_histogram_pointer_0.0.0.0.0.0 = internal unnamed_addr global i64 0, align 8
@switch.table._ZN11google_apis5drive24PermissionsInsertRequest14GetContentDataEPNSt3__112basic_stringIcNS2_11char_traitsIcEENS2_9allocatorIcEEEES9_ = private unnamed_addr constant [4 x i8*] [i8* getelementptr inbounds ([7 x i8], [7 x i8]* @.str.17, i64 0, i64 0), i8* getelementptr inbounds ([7 x i8], [7 x i8]* @.str.18, i64 0, i64 0), i8* getelementptr inbounds ([6 x i8], [6 x i8]* @.str.19, i64 0, i64 0), i8* getelementptr inbounds ([5 x i8], [5 x i8]* @.str.20, i64 0, i64 0)], align 8

@_ZN11google_apis5drive21MultipartHttpResponseC1Ev = hidden unnamed_addr alias void (%"struct.google_apis::drive::MultipartHttpResponse"*), void (%"struct.google_apis::drive::MultipartHttpResponse"*)* @_ZN11google_apis5drive21MultipartHttpResponseC2Ev
@_ZN11google_apis5drive21MultipartHttpResponseD1Ev = hidden unnamed_addr alias void (%"struct.google_apis::drive::MultipartHttpResponse"*), void (%"struct.google_apis::drive::MultipartHttpResponse"*)* @_ZN11google_apis5drive21MultipartHttpResponseD2Ev
@_ZN11google_apis5drive8PropertyC1Ev = hidden unnamed_addr alias void (%"class.google_apis::drive::Property"*), void (%"class.google_apis::drive::Property"*)* @_ZN11google_apis5drive8PropertyC2Ev
@_ZN11google_apis5drive8PropertyD1Ev = hidden unnamed_addr alias void (%"class.google_apis::drive::Property"*), void (%"class.google_apis::drive::Property"*)* @_ZN11google_apis5drive8PropertyD2Ev
@_ZN11google_apis5drive27DriveApiPartialFieldRequestD1Ev = hidden unnamed_addr alias void (%"class.google_apis::drive::DriveApiPartialFieldRequest"*), void (%"class.google_apis::drive::DriveApiPartialFieldRequest"*)* @_ZN11google_apis5drive27DriveApiPartialFieldRequestD2Ev
@_ZN11google_apis5drive15FilesGetRequestC1EPNS_13RequestSenderERKNS_20DriveApiUrlGeneratorEN4base12OnceCallbackIFvNS_17DriveApiErrorCodeENSt3__110unique_ptrINS_12FileResourceENSA_14default_deleteISC_EEEEEEE = hidden unnamed_addr alias void (%"class.google_apis::drive::FilesGetRequest"*, %"class.google_apis::RequestSender"*, %"class.google_apis::DriveApiUrlGenerator"*, %"class.base::OnceCallback"*), void (%"class.google_apis::drive::FilesGetRequest"*, %"class.google_apis::RequestSender"*, %"class.google_apis::DriveApiUrlGenerator"*, %"class.base::OnceCallback"*)* @_ZN11google_apis5drive15FilesGetRequestC2EPNS_13RequestSenderERKNS_20DriveApiUrlGeneratorEN4base12OnceCallbackIFvNS_17DriveApiErrorCodeENSt3__110unique_ptrINS_12FileResourceENSA_14default_deleteISC_EEEEEEE
@_ZN11google_apis5drive15FilesGetRequestD1Ev = hidden unnamed_addr alias void (%"class.google_apis::drive::FilesGetRequest"*), void (%"class.google_apis::drive::FilesGetRequest"*)* @_ZN11google_apis5drive15FilesGetRequestD2Ev
@_ZN11google_apis5drive18FilesInsertRequestC1EPNS_13RequestSenderERKNS_20DriveApiUrlGeneratorEN4base12OnceCallbackIFvNS_17DriveApiErrorCodeENSt3__110unique_ptrINS_12FileResourceENSA_14default_deleteISC_EEEEEEE = hidden unnamed_addr alias void (%"class.google_apis::drive::FilesInsertRequest"*, %"class.google_apis::RequestSender"*, %"class.google_apis::DriveApiUrlGenerator"*, %"class.base::OnceCallback"*), void (%"class.google_apis::drive::FilesInsertRequest"*, %"class.google_apis::RequestSender"*, %"class.google_apis::DriveApiUrlGenerator"*, %"class.base::OnceCallback"*)* @_ZN11google_apis5drive18FilesInsertRequestC2EPNS_13RequestSenderERKNS_20DriveApiUrlGeneratorEN4base12OnceCallbackIFvNS_17DriveApiErrorCodeENSt3__110unique_ptrINS_12FileResourceENSA_14default_deleteISC_EEEEEEE
@_ZN11google_apis5drive18FilesInsertRequestD1Ev = hidden unnamed_addr alias void (%"class.google_apis::drive::FilesInsertRequest"*), void (%"class.google_apis::drive::FilesInsertRequest"*)* @_ZN11google_apis5drive18FilesInsertRequestD2Ev
@_ZN11google_apis5drive17FilesPatchRequestC1EPNS_13RequestSenderERKNS_20DriveApiUrlGeneratorEN4base12OnceCallbackIFvNS_17DriveApiErrorCodeENSt3__110unique_ptrINS_12FileResourceENSA_14default_deleteISC_EEEEEEE = hidden unnamed_addr alias void (%"class.google_apis::drive::FilesPatchRequest"*, %"class.google_apis::RequestSender"*, %"class.google_apis::DriveApiUrlGenerator"*, %"class.base::OnceCallback"*), void (%"class.google_apis::drive::FilesPatchRequest"*, %"class.google_apis::RequestSender"*, %"class.google_apis::DriveApiUrlGenerator"*, %"class.base::OnceCallback"*)* @_ZN11google_apis5drive17FilesPatchRequestC2EPNS_13RequestSenderERKNS_20DriveApiUrlGeneratorEN4base12OnceCallbackIFvNS_17DriveApiErrorCodeENSt3__110unique_ptrINS_12FileResourceENSA_14default_deleteISC_EEEEEEE
@_ZN11google_apis5drive17FilesPatchRequestD1Ev = hidden unnamed_addr alias void (%"class.google_apis::drive::FilesPatchRequest"*), void (%"class.google_apis::drive::FilesPatchRequest"*)* @_ZN11google_apis5drive17FilesPatchRequestD2Ev
@_ZN11google_apis5drive16FilesCopyRequestC1EPNS_13RequestSenderERKNS_20DriveApiUrlGeneratorEN4base12OnceCallbackIFvNS_17DriveApiErrorCodeENSt3__110unique_ptrINS_12FileResourceENSA_14default_deleteISC_EEEEEEE = hidden unnamed_addr alias void (%"class.google_apis::drive::FilesCopyRequest"*, %"class.google_apis::RequestSender"*, %"class.google_apis::DriveApiUrlGenerator"*, %"class.base::OnceCallback"*), void (%"class.google_apis::drive::FilesCopyRequest"*, %"class.google_apis::RequestSender"*, %"class.google_apis::DriveApiUrlGenerator"*, %"class.base::OnceCallback"*)* @_ZN11google_apis5drive16FilesCopyRequestC2EPNS_13RequestSenderERKNS_20DriveApiUrlGeneratorEN4base12OnceCallbackIFvNS_17DriveApiErrorCodeENSt3__110unique_ptrINS_12FileResourceENSA_14default_deleteISC_EEEEEEE
@_ZN11google_apis5drive16FilesCopyRequestD1Ev = hidden unnamed_addr alias void (%"class.google_apis::drive::FilesCopyRequest"*), void (%"class.google_apis::drive::FilesCopyRequest"*)* @_ZN11google_apis5drive16FilesCopyRequestD2Ev
@_ZN11google_apis5drive20TeamDriveListRequestC1EPNS_13RequestSenderERKNS_20DriveApiUrlGeneratorEN4base12OnceCallbackIFvNS_17DriveApiErrorCodeENSt3__110unique_ptrINS_13TeamDriveListENSA_14default_deleteISC_EEEEEEE = hidden unnamed_addr alias void (%"class.google_apis::drive::TeamDriveListRequest"*, %"class.google_apis::RequestSender"*, %"class.google_apis::DriveApiUrlGenerator"*, %"class.base::OnceCallback.119"*), void (%"class.google_apis::drive::TeamDriveListRequest"*, %"class.google_apis::RequestSender"*, %"class.google_apis::DriveApiUrlGenerator"*, %"class.base::OnceCallback.119"*)* @_ZN11google_apis5drive20TeamDriveListRequestC2EPNS_13RequestSenderERKNS_20DriveApiUrlGeneratorEN4base12OnceCallbackIFvNS_17DriveApiErrorCodeENSt3__110unique_ptrINS_13TeamDriveListENSA_14default_deleteISC_EEEEEEE
@_ZN11google_apis5drive20TeamDriveListRequestD1Ev = hidden unnamed_addr alias void (%"class.google_apis::drive::TeamDriveListRequest"*), void (%"class.google_apis::drive::TeamDriveListRequest"*)* @_ZN11google_apis5drive20TeamDriveListRequestD2Ev
@_ZN11google_apis5drive21StartPageTokenRequestC1EPNS_13RequestSenderERKNS_20DriveApiUrlGeneratorEN4base12OnceCallbackIFvNS_17DriveApiErrorCodeENSt3__110unique_ptrINS_14StartPageTokenENSA_14default_deleteISC_EEEEEEE = hidden unnamed_addr alias void (%"class.google_apis::drive::StartPageTokenRequest"*, %"class.google_apis::RequestSender"*, %"class.google_apis::DriveApiUrlGenerator"*, %"class.base::OnceCallback.122"*), void (%"class.google_apis::drive::StartPageTokenRequest"*, %"class.google_apis::RequestSender"*, %"class.google_apis::DriveApiUrlGenerator"*, %"class.base::OnceCallback.122"*)* @_ZN11google_apis5drive21StartPageTokenRequestC2EPNS_13RequestSenderERKNS_20DriveApiUrlGeneratorEN4base12OnceCallbackIFvNS_17DriveApiErrorCodeENSt3__110unique_ptrINS_14StartPageTokenENSA_14default_deleteISC_EEEEEEE
@_ZN11google_apis5drive21StartPageTokenRequestD1Ev = hidden unnamed_addr alias void (%"class.google_apis::drive::StartPageTokenRequest"*), void (%"class.google_apis::drive::StartPageTokenRequest"*)* @_ZN11google_apis5drive21StartPageTokenRequestD2Ev
@_ZN11google_apis5drive16FilesListRequestC1EPNS_13RequestSenderERKNS_20DriveApiUrlGeneratorEN4base12OnceCallbackIFvNS_17DriveApiErrorCodeENSt3__110unique_ptrINS_8FileListENSA_14default_deleteISC_EEEEEEE = hidden unnamed_addr alias void (%"class.google_apis::drive::FilesListRequest"*, %"class.google_apis::RequestSender"*, %"class.google_apis::DriveApiUrlGenerator"*, %"class.base::OnceCallback.125"*), void (%"class.google_apis::drive::FilesListRequest"*, %"class.google_apis::RequestSender"*, %"class.google_apis::DriveApiUrlGenerator"*, %"class.base::OnceCallback.125"*)* @_ZN11google_apis5drive16FilesListRequestC2EPNS_13RequestSenderERKNS_20DriveApiUrlGeneratorEN4base12OnceCallbackIFvNS_17DriveApiErrorCodeENSt3__110unique_ptrINS_8FileListENSA_14default_deleteISC_EEEEEEE
@_ZN11google_apis5drive16FilesListRequestD1Ev = hidden unnamed_addr alias void (%"class.google_apis::drive::FilesListRequest"*), void (%"class.google_apis::drive::FilesListRequest"*)* @_ZN11google_apis5drive16FilesListRequestD2Ev
@_ZN11google_apis5drive24FilesListNextPageRequestC1EPNS_13RequestSenderEN4base12OnceCallbackIFvNS_17DriveApiErrorCodeENSt3__110unique_ptrINS_8FileListENS7_14default_deleteIS9_EEEEEEE = hidden unnamed_addr alias void (%"class.google_apis::drive::FilesListNextPageRequest"*, %"class.google_apis::RequestSender"*, %"class.base::OnceCallback.125"*), void (%"class.google_apis::drive::FilesListNextPageRequest"*, %"class.google_apis::RequestSender"*, %"class.base::OnceCallback.125"*)* @_ZN11google_apis5drive24FilesListNextPageRequestC2EPNS_13RequestSenderEN4base12OnceCallbackIFvNS_17DriveApiErrorCodeENSt3__110unique_ptrINS_8FileListENS7_14default_deleteIS9_EEEEEEE
@_ZN11google_apis5drive24FilesListNextPageRequestD1Ev = hidden unnamed_addr alias void (%"class.google_apis::drive::FilesListNextPageRequest"*), void (%"class.google_apis::drive::FilesListNextPageRequest"*)* @_ZN11google_apis5drive24FilesListNextPageRequestD2Ev
@_ZN11google_apis5drive18FilesDeleteRequestC1EPNS_13RequestSenderERKNS_20DriveApiUrlGeneratorEN4base12OnceCallbackIFvNS_17DriveApiErrorCodeEEEE = hidden unnamed_addr alias void (%"class.google_apis::drive::FilesDeleteRequest"*, %"class.google_apis::RequestSender"*, %"class.google_apis::DriveApiUrlGenerator"*, %"class.base::OnceCallback.127"*), void (%"class.google_apis::drive::FilesDeleteRequest"*, %"class.google_apis::RequestSender"*, %"class.google_apis::DriveApiUrlGenerator"*, %"class.base::OnceCallback.127"*)* @_ZN11google_apis5drive18FilesDeleteRequestC2EPNS_13RequestSenderERKNS_20DriveApiUrlGeneratorEN4base12OnceCallbackIFvNS_17DriveApiErrorCodeEEEE
@_ZN11google_apis5drive18FilesDeleteRequestD1Ev = hidden unnamed_addr alias void (%"class.google_apis::drive::FilesDeleteRequest"*), void (%"class.google_apis::drive::FilesDeleteRequest"*)* @_ZN11google_apis5drive18FilesDeleteRequestD2Ev
@_ZN11google_apis5drive17FilesTrashRequestC1EPNS_13RequestSenderERKNS_20DriveApiUrlGeneratorEN4base12OnceCallbackIFvNS_17DriveApiErrorCodeENSt3__110unique_ptrINS_12FileResourceENSA_14default_deleteISC_EEEEEEE = hidden unnamed_addr alias void (%"class.google_apis::drive::FilesTrashRequest"*, %"class.google_apis::RequestSender"*, %"class.google_apis::DriveApiUrlGenerator"*, %"class.base::OnceCallback"*), void (%"class.google_apis::drive::FilesTrashRequest"*, %"class.google_apis::RequestSender"*, %"class.google_apis::DriveApiUrlGenerator"*, %"class.base::OnceCallback"*)* @_ZN11google_apis5drive17FilesTrashRequestC2EPNS_13RequestSenderERKNS_20DriveApiUrlGeneratorEN4base12OnceCallbackIFvNS_17DriveApiErrorCodeENSt3__110unique_ptrINS_12FileResourceENSA_14default_deleteISC_EEEEEEE
@_ZN11google_apis5drive17FilesTrashRequestD1Ev = hidden unnamed_addr alias void (%"class.google_apis::drive::FilesTrashRequest"*), void (%"class.google_apis::drive::FilesTrashRequest"*)* @_ZN11google_apis5drive17FilesTrashRequestD2Ev
@_ZN11google_apis5drive15AboutGetRequestC1EPNS_13RequestSenderERKNS_20DriveApiUrlGeneratorEN4base12OnceCallbackIFvNS_17DriveApiErrorCodeENSt3__110unique_ptrINS_13AboutResourceENSA_14default_deleteISC_EEEEEEE = hidden unnamed_addr alias void (%"class.google_apis::drive::AboutGetRequest"*, %"class.google_apis::RequestSender"*, %"class.google_apis::DriveApiUrlGenerator"*, %"class.base::OnceCallback.129"*), void (%"class.google_apis::drive::AboutGetRequest"*, %"class.google_apis::RequestSender"*, %"class.google_apis::DriveApiUrlGenerator"*, %"class.base::OnceCallback.129"*)* @_ZN11google_apis5drive15AboutGetRequestC2EPNS_13RequestSenderERKNS_20DriveApiUrlGeneratorEN4base12OnceCallbackIFvNS_17DriveApiErrorCodeENSt3__110unique_ptrINS_13AboutResourceENSA_14default_deleteISC_EEEEEEE
@_ZN11google_apis5drive15AboutGetRequestD1Ev = hidden unnamed_addr alias void (%"class.google_apis::drive::AboutGetRequest"*), void (%"class.google_apis::drive::AboutGetRequest"*)* @_ZN11google_apis5drive15AboutGetRequestD2Ev
@_ZN11google_apis5drive18ChangesListRequestC1EPNS_13RequestSenderERKNS_20DriveApiUrlGeneratorEN4base12OnceCallbackIFvNS_17DriveApiErrorCodeENSt3__110unique_ptrINS_10ChangeListENSA_14default_deleteISC_EEEEEEE = hidden unnamed_addr alias void (%"class.google_apis::drive::ChangesListRequest"*, %"class.google_apis::RequestSender"*, %"class.google_apis::DriveApiUrlGenerator"*, %"class.base::OnceCallback.132"*), void (%"class.google_apis::drive::ChangesListRequest"*, %"class.google_apis::RequestSender"*, %"class.google_apis::DriveApiUrlGenerator"*, %"class.base::OnceCallback.132"*)* @_ZN11google_apis5drive18ChangesListRequestC2EPNS_13RequestSenderERKNS_20DriveApiUrlGeneratorEN4base12OnceCallbackIFvNS_17DriveApiErrorCodeENSt3__110unique_ptrINS_10ChangeListENSA_14default_deleteISC_EEEEEEE
@_ZN11google_apis5drive18ChangesListRequestD1Ev = hidden unnamed_addr alias void (%"class.google_apis::drive::ChangesListRequest"*), void (%"class.google_apis::drive::ChangesListRequest"*)* @_ZN11google_apis5drive18ChangesListRequestD2Ev
@_ZN11google_apis5drive26ChangesListNextPageRequestC1EPNS_13RequestSenderEN4base12OnceCallbackIFvNS_17DriveApiErrorCodeENSt3__110unique_ptrINS_10ChangeListENS7_14default_deleteIS9_EEEEEEE = hidden unnamed_addr alias void (%"class.google_apis::drive::ChangesListNextPageRequest"*, %"class.google_apis::RequestSender"*, %"class.base::OnceCallback.132"*), void (%"class.google_apis::drive::ChangesListNextPageRequest"*, %"class.google_apis::RequestSender"*, %"class.base::OnceCallback.132"*)* @_ZN11google_apis5drive26ChangesListNextPageRequestC2EPNS_13RequestSenderEN4base12OnceCallbackIFvNS_17DriveApiErrorCodeENSt3__110unique_ptrINS_10ChangeListENS7_14default_deleteIS9_EEEEEEE
@_ZN11google_apis5drive26ChangesListNextPageRequestD1Ev = hidden unnamed_addr alias void (%"class.google_apis::drive::ChangesListNextPageRequest"*), void (%"class.google_apis::drive::ChangesListNextPageRequest"*)* @_ZN11google_apis5drive26ChangesListNextPageRequestD2Ev
@_ZN11google_apis5drive21ChildrenInsertRequestC1EPNS_13RequestSenderERKNS_20DriveApiUrlGeneratorEN4base12OnceCallbackIFvNS_17DriveApiErrorCodeEEEE = hidden unnamed_addr alias void (%"class.google_apis::drive::ChildrenInsertRequest"*, %"class.google_apis::RequestSender"*, %"class.google_apis::DriveApiUrlGenerator"*, %"class.base::OnceCallback.127"*), void (%"class.google_apis::drive::ChildrenInsertRequest"*, %"class.google_apis::RequestSender"*, %"class.google_apis::DriveApiUrlGenerator"*, %"class.base::OnceCallback.127"*)* @_ZN11google_apis5drive21ChildrenInsertRequestC2EPNS_13RequestSenderERKNS_20DriveApiUrlGeneratorEN4base12OnceCallbackIFvNS_17DriveApiErrorCodeEEEE
@_ZN11google_apis5drive21ChildrenInsertRequestD1Ev = hidden unnamed_addr alias void (%"class.google_apis::drive::ChildrenInsertRequest"*), void (%"class.google_apis::drive::ChildrenInsertRequest"*)* @_ZN11google_apis5drive21ChildrenInsertRequestD2Ev
@_ZN11google_apis5drive21ChildrenDeleteRequestC1EPNS_13RequestSenderERKNS_20DriveApiUrlGeneratorEN4base12OnceCallbackIFvNS_17DriveApiErrorCodeEEEE = hidden unnamed_addr alias void (%"class.google_apis::drive::ChildrenDeleteRequest"*, %"class.google_apis::RequestSender"*, %"class.google_apis::DriveApiUrlGenerator"*, %"class.base::OnceCallback.127"*), void (%"class.google_apis::drive::ChildrenDeleteRequest"*, %"class.google_apis::RequestSender"*, %"class.google_apis::DriveApiUrlGenerator"*, %"class.base::OnceCallback.127"*)* @_ZN11google_apis5drive21ChildrenDeleteRequestC2EPNS_13RequestSenderERKNS_20DriveApiUrlGeneratorEN4base12OnceCallbackIFvNS_17DriveApiErrorCodeEEEE
@_ZN11google_apis5drive21ChildrenDeleteRequestD1Ev = hidden unnamed_addr alias void (%"class.google_apis::drive::ChildrenDeleteRequest"*), void (%"class.google_apis::drive::ChildrenDeleteRequest"*)* @_ZN11google_apis5drive21ChildrenDeleteRequestD2Ev
@_ZN11google_apis5drive28InitiateUploadNewFileRequestC1EPNS_13RequestSenderERKNS_20DriveApiUrlGeneratorERKNSt3__112basic_stringIcNS7_11char_traitsIcEENS7_9allocatorIcEEEElSF_SF_N4base12OnceCallbackIFvNS_17DriveApiErrorCodeERK4GURLEEE = hidden unnamed_addr alias void (%"class.google_apis::drive::InitiateUploadNewFileRequest"*, %"class.google_apis::RequestSender"*, %"class.google_apis::DriveApiUrlGenerator"*, %"class.std::__1::basic_string"*, i64, %"class.std::__1::basic_string"*, %"class.std::__1::basic_string"*, %"class.base::OnceCallback.134"*), void (%"class.google_apis::drive::InitiateUploadNewFileRequest"*, %"class.google_apis::RequestSender"*, %"class.google_apis::DriveApiUrlGenerator"*, %"class.std::__1::basic_string"*, i64, %"class.std::__1::basic_string"*, %"class.std::__1::basic_string"*, %"class.base::OnceCallback.134"*)* @_ZN11google_apis5drive28InitiateUploadNewFileRequestC2EPNS_13RequestSenderERKNS_20DriveApiUrlGeneratorERKNSt3__112basic_stringIcNS7_11char_traitsIcEENS7_9allocatorIcEEEElSF_SF_N4base12OnceCallbackIFvNS_17DriveApiErrorCodeERK4GURLEEE
@_ZN11google_apis5drive28InitiateUploadNewFileRequestD1Ev = hidden unnamed_addr alias void (%"class.google_apis::drive::InitiateUploadNewFileRequest"*), void (%"class.google_apis::drive::InitiateUploadNewFileRequest"*)* @_ZN11google_apis5drive28InitiateUploadNewFileRequestD2Ev
@_ZN11google_apis5drive33InitiateUploadExistingFileRequestC1EPNS_13RequestSenderERKNS_20DriveApiUrlGeneratorERKNSt3__112basic_stringIcNS7_11char_traitsIcEENS7_9allocatorIcEEEElSF_SF_N4base12OnceCallbackIFvNS_17DriveApiErrorCodeERK4GURLEEE = hidden unnamed_addr alias void (%"class.google_apis::drive::InitiateUploadExistingFileRequest"*, %"class.google_apis::RequestSender"*, %"class.google_apis::DriveApiUrlGenerator"*, %"class.std::__1::basic_string"*, i64, %"class.std::__1::basic_string"*, %"class.std::__1::basic_string"*, %"class.base::OnceCallback.134"*), void (%"class.google_apis::drive::InitiateUploadExistingFileRequest"*, %"class.google_apis::RequestSender"*, %"class.google_apis::DriveApiUrlGenerator"*, %"class.std::__1::basic_string"*, i64, %"class.std::__1::basic_string"*, %"class.std::__1::basic_string"*, %"class.base::OnceCallback.134"*)* @_ZN11google_apis5drive33InitiateUploadExistingFileRequestC2EPNS_13RequestSenderERKNS_20DriveApiUrlGeneratorERKNSt3__112basic_stringIcNS7_11char_traitsIcEENS7_9allocatorIcEEEElSF_SF_N4base12OnceCallbackIFvNS_17DriveApiErrorCodeERK4GURLEEE
@_ZN11google_apis5drive33InitiateUploadExistingFileRequestD1Ev = hidden unnamed_addr alias void (%"class.google_apis::drive::InitiateUploadExistingFileRequest"*), void (%"class.google_apis::drive::InitiateUploadExistingFileRequest"*)* @_ZN11google_apis5drive33InitiateUploadExistingFileRequestD2Ev
@_ZN11google_apis5drive19ResumeUploadRequestC1EPNS_13RequestSenderERK4GURLlllRKNSt3__112basic_stringIcNS7_11char_traitsIcEENS7_9allocatorIcEEEERKN4base8FilePathENSG_12OnceCallbackIFvRKNS_19UploadRangeResponseENS7_10unique_ptrINS_12FileResourceENS7_14default_deleteISP_EEEEEEENSG_17RepeatingCallbackIFvllEEE = hidden unnamed_addr alias void (%"class.google_apis::drive::ResumeUploadRequest"*, %"class.google_apis::RequestSender"*, %class.GURL*, i64, i64, i64, %"class.std::__1::basic_string"*, %"class.base::FilePath"*, %"class.base::OnceCallback.136"*, %"class.base::RepeatingCallback.42"*), void (%"class.google_apis::drive::ResumeUploadRequest"*, %"class.google_apis::RequestSender"*, %class.GURL*, i64, i64, i64, %"class.std::__1::basic_string"*, %"class.base::FilePath"*, %"class.base::OnceCallback.136"*, %"class.base::RepeatingCallback.42"*)* @_ZN11google_apis5drive19ResumeUploadRequestC2EPNS_13RequestSenderERK4GURLlllRKNSt3__112basic_stringIcNS7_11char_traitsIcEENS7_9allocatorIcEEEERKN4base8FilePathENSG_12OnceCallbackIFvRKNS_19UploadRangeResponseENS7_10unique_ptrINS_12FileResourceENS7_14default_deleteISP_EEEEEEENSG_17RepeatingCallbackIFvllEEE
@_ZN11google_apis5drive19ResumeUploadRequestD1Ev = hidden unnamed_addr alias void (%"class.google_apis::drive::ResumeUploadRequest"*), void (%"class.google_apis::drive::ResumeUploadRequest"*)* @_ZN11google_apis5drive19ResumeUploadRequestD2Ev
@_ZN11google_apis5drive22GetUploadStatusRequestC1EPNS_13RequestSenderERK4GURLlN4base12OnceCallbackIFvRKNS_19UploadRangeResponseENSt3__110unique_ptrINS_12FileResourceENSC_14default_deleteISE_EEEEEEE = hidden unnamed_addr alias void (%"class.google_apis::drive::GetUploadStatusRequest"*, %"class.google_apis::RequestSender"*, %class.GURL*, i64, %"class.base::OnceCallback.136"*), void (%"class.google_apis::drive::GetUploadStatusRequest"*, %"class.google_apis::RequestSender"*, %class.GURL*, i64, %"class.base::OnceCallback.136"*)* @_ZN11google_apis5drive22GetUploadStatusRequestC2EPNS_13RequestSenderERK4GURLlN4base12OnceCallbackIFvRKNS_19UploadRangeResponseENSt3__110unique_ptrINS_12FileResourceENSC_14default_deleteISE_EEEEEEE
@_ZN11google_apis5drive22GetUploadStatusRequestD1Ev = hidden unnamed_addr alias void (%"class.google_apis::drive::GetUploadStatusRequest"*), void (%"class.google_apis::drive::GetUploadStatusRequest"*)* @_ZN11google_apis5drive22GetUploadStatusRequestD2Ev
@_ZN11google_apis5drive30MultipartUploadNewFileDelegateC1EPN4base19SequencedTaskRunnerERKNSt3__112basic_stringIcNS5_11char_traitsIcEENS5_9allocatorIcEEEESD_SD_lRKNS2_4TimeESG_RKNS2_8FilePathERKNS5_6vectorINS0_8PropertyENS9_ISL_EEEERKNS_20DriveApiUrlGeneratorENS2_12OnceCallbackIFvNS_17DriveApiErrorCodeENS5_10unique_ptrINS_12FileResourceENS5_14default_deleteISW_EEEEEEENS2_17RepeatingCallbackIFvllEEE = hidden unnamed_addr alias void (%"class.google_apis::drive::MultipartUploadNewFileDelegate"*, %"class.base::SequencedTaskRunner"*, %"class.std::__1::basic_string"*, %"class.std::__1::basic_string"*, %"class.std::__1::basic_string"*, i64, %"class.base::Time"*, %"class.base::Time"*, %"class.base::FilePath"*, %"class.std::__1::vector.65"*, %"class.google_apis::DriveApiUrlGenerator"*, %"class.base::OnceCallback"*, %"class.base::RepeatingCallback.42"*), void (%"class.google_apis::drive::MultipartUploadNewFileDelegate"*, %"class.base::SequencedTaskRunner"*, %"class.std::__1::basic_string"*, %"class.std::__1::basic_string"*, %"class.std::__1::basic_string"*, i64, %"class.base::Time"*, %"class.base::Time"*, %"class.base::FilePath"*, %"class.std::__1::vector.65"*, %"class.google_apis::DriveApiUrlGenerator"*, %"class.base::OnceCallback"*, %"class.base::RepeatingCallback.42"*)* @_ZN11google_apis5drive30MultipartUploadNewFileDelegateC2EPN4base19SequencedTaskRunnerERKNSt3__112basic_stringIcNS5_11char_traitsIcEENS5_9allocatorIcEEEESD_SD_lRKNS2_4TimeESG_RKNS2_8FilePathERKNS5_6vectorINS0_8PropertyENS9_ISL_EEEERKNS_20DriveApiUrlGeneratorENS2_12OnceCallbackIFvNS_17DriveApiErrorCodeENS5_10unique_ptrINS_12FileResourceENS5_14default_deleteISW_EEEEEEENS2_17RepeatingCallbackIFvllEEE
@_ZN11google_apis5drive30MultipartUploadNewFileDelegateD1Ev = hidden unnamed_addr alias void (%"class.google_apis::drive::MultipartUploadNewFileDelegate"*), void (%"class.google_apis::drive::MultipartUploadNewFileDelegate"*)* @_ZN11google_apis5drive30MultipartUploadNewFileDelegateD2Ev
@_ZN11google_apis5drive35MultipartUploadExistingFileDelegateC1EPN4base19SequencedTaskRunnerERKNSt3__112basic_stringIcNS5_11char_traitsIcEENS5_9allocatorIcEEEESD_SD_SD_lRKNS2_4TimeESG_RKNS2_8FilePathESD_RKNS5_6vectorINS0_8PropertyENS9_ISL_EEEERKNS_20DriveApiUrlGeneratorENS2_12OnceCallbackIFvNS_17DriveApiErrorCodeENS5_10unique_ptrINS_12FileResourceENS5_14default_deleteISW_EEEEEEENS2_17RepeatingCallbackIFvllEEE = hidden unnamed_addr alias void (%"class.google_apis::drive::MultipartUploadExistingFileDelegate"*, %"class.base::SequencedTaskRunner"*, %"class.std::__1::basic_string"*, %"class.std::__1::basic_string"*, %"class.std::__1::basic_string"*, %"class.std::__1::basic_string"*, i64, %"class.base::Time"*, %"class.base::Time"*, %"class.base::FilePath"*, %"class.std::__1::basic_string"*, %"class.std::__1::vector.65"*, %"class.google_apis::DriveApiUrlGenerator"*, %"class.base::OnceCallback"*, %"class.base::RepeatingCallback.42"*), void (%"class.google_apis::drive::MultipartUploadExistingFileDelegate"*, %"class.base::SequencedTaskRunner"*, %"class.std::__1::basic_string"*, %"class.std::__1::basic_string"*, %"class.std::__1::basic_string"*, %"class.std::__1::basic_string"*, i64, %"class.base::Time"*, %"class.base::Time"*, %"class.base::FilePath"*, %"class.std::__1::basic_string"*, %"class.std::__1::vector.65"*, %"class.google_apis::DriveApiUrlGenerator"*, %"class.base::OnceCallback"*, %"class.base::RepeatingCallback.42"*)* @_ZN11google_apis5drive35MultipartUploadExistingFileDelegateC2EPN4base19SequencedTaskRunnerERKNSt3__112basic_stringIcNS5_11char_traitsIcEENS5_9allocatorIcEEEESD_SD_SD_lRKNS2_4TimeESG_RKNS2_8FilePathESD_RKNS5_6vectorINS0_8PropertyENS9_ISL_EEEERKNS_20DriveApiUrlGeneratorENS2_12OnceCallbackIFvNS_17DriveApiErrorCodeENS5_10unique_ptrINS_12FileResourceENS5_14default_deleteISW_EEEEEEENS2_17RepeatingCallbackIFvllEEE
@_ZN11google_apis5drive35MultipartUploadExistingFileDelegateD1Ev = hidden unnamed_addr alias void (%"class.google_apis::drive::MultipartUploadExistingFileDelegate"*), void (%"class.google_apis::drive::MultipartUploadExistingFileDelegate"*)* @_ZN11google_apis5drive35MultipartUploadExistingFileDelegateD2Ev
@_ZN11google_apis5drive19DownloadFileRequestC1EPNS_13RequestSenderERKNS_20DriveApiUrlGeneratorERKNSt3__112basic_stringIcNS7_11char_traitsIcEENS7_9allocatorIcEEEERKN4base8FilePathENSG_12OnceCallbackIFvNS_17DriveApiErrorCodeESJ_EEERKNSG_17RepeatingCallbackIFvSL_NS7_10unique_ptrISD_NS7_14default_deleteISD_EEEEbEEENSO_IFvllEEE = hidden unnamed_addr alias void (%"class.google_apis::drive::DownloadFileRequest"*, %"class.google_apis::RequestSender"*, %"class.google_apis::DriveApiUrlGenerator"*, %"class.std::__1::basic_string"*, %"class.base::FilePath"*, %"class.base::OnceCallback.138"*, %"class.base::RepeatingCallback.46"*, %"class.base::RepeatingCallback.42"*), void (%"class.google_apis::drive::DownloadFileRequest"*, %"class.google_apis::RequestSender"*, %"class.google_apis::DriveApiUrlGenerator"*, %"class.std::__1::basic_string"*, %"class.base::FilePath"*, %"class.base::OnceCallback.138"*, %"class.base::RepeatingCallback.46"*, %"class.base::RepeatingCallback.42"*)* @_ZN11google_apis5drive19DownloadFileRequestC2EPNS_13RequestSenderERKNS_20DriveApiUrlGeneratorERKNSt3__112basic_stringIcNS7_11char_traitsIcEENS7_9allocatorIcEEEERKN4base8FilePathENSG_12OnceCallbackIFvNS_17DriveApiErrorCodeESJ_EEERKNSG_17RepeatingCallbackIFvSL_NS7_10unique_ptrISD_NS7_14default_deleteISD_EEEEbEEENSO_IFvllEEE
@_ZN11google_apis5drive19DownloadFileRequestD1Ev = hidden unnamed_addr alias void (%"class.google_apis::drive::DownloadFileRequest"*), void (%"class.google_apis::drive::DownloadFileRequest"*)* @_ZN11google_apis5drive19DownloadFileRequestD2Ev
@_ZN11google_apis5drive24PermissionsInsertRequestC1EPNS_13RequestSenderERKNS_20DriveApiUrlGeneratorEN4base12OnceCallbackIFvNS_17DriveApiErrorCodeEEEE = hidden unnamed_addr alias void (%"class.google_apis::drive::PermissionsInsertRequest"*, %"class.google_apis::RequestSender"*, %"class.google_apis::DriveApiUrlGenerator"*, %"class.base::OnceCallback.127"*), void (%"class.google_apis::drive::PermissionsInsertRequest"*, %"class.google_apis::RequestSender"*, %"class.google_apis::DriveApiUrlGenerator"*, %"class.base::OnceCallback.127"*)* @_ZN11google_apis5drive24PermissionsInsertRequestC2EPNS_13RequestSenderERKNS_20DriveApiUrlGeneratorEN4base12OnceCallbackIFvNS_17DriveApiErrorCodeEEEE
@_ZN11google_apis5drive24PermissionsInsertRequestD1Ev = hidden unnamed_addr alias void (%"class.google_apis::drive::PermissionsInsertRequest"*), void (%"class.google_apis::drive::PermissionsInsertRequest"*)* @_ZN11google_apis5drive24PermissionsInsertRequestD2Ev
@_ZN11google_apis5drive30SingleBatchableDelegateRequestC1EPNS_13RequestSenderENSt3__110unique_ptrINS_17BatchableDelegateENS4_14default_deleteIS6_EEEE = hidden unnamed_addr alias void (%"class.google_apis::drive::SingleBatchableDelegateRequest"*, %"class.google_apis::RequestSender"*, %"class.google_apis::BatchableDelegate"*), void (%"class.google_apis::drive::SingleBatchableDelegateRequest"*, %"class.google_apis::RequestSender"*, %"class.google_apis::BatchableDelegate"*)* @_ZN11google_apis5drive30SingleBatchableDelegateRequestC2EPNS_13RequestSenderENSt3__110unique_ptrINS_17BatchableDelegateENS4_14default_deleteIS6_EEEE
@_ZN11google_apis5drive30SingleBatchableDelegateRequestD1Ev = hidden unnamed_addr alias void (%"class.google_apis::drive::SingleBatchableDelegateRequest"*), void (%"class.google_apis::drive::SingleBatchableDelegateRequest"*)* @_ZN11google_apis5drive30SingleBatchableDelegateRequestD2Ev
@_ZN11google_apis5drive21BatchUploadChildEntryC1EPNS_17BatchableDelegateE = hidden unnamed_addr alias void (%"class.google_apis::drive::BatchUploadChildEntry"*, %"class.google_apis::BatchableDelegate"*), void (%"class.google_apis::drive::BatchUploadChildEntry"*, %"class.google_apis::BatchableDelegate"*)* @_ZN11google_apis5drive21BatchUploadChildEntryC2EPNS_17BatchableDelegateE
@_ZN11google_apis5drive21BatchUploadChildEntryD1Ev = hidden unnamed_addr alias void (%"class.google_apis::drive::BatchUploadChildEntry"*), void (%"class.google_apis::drive::BatchUploadChildEntry"*)* @_ZN11google_apis5drive21BatchUploadChildEntryD2Ev
@_ZN11google_apis5drive18BatchUploadRequestC1EPNS_13RequestSenderERKNS_20DriveApiUrlGeneratorE = hidden unnamed_addr alias void (%"class.google_apis::drive::BatchUploadRequest"*, %"class.google_apis::RequestSender"*, %"class.google_apis::DriveApiUrlGenerator"*), void (%"class.google_apis::drive::BatchUploadRequest"*, %"class.google_apis::RequestSender"*, %"class.google_apis::DriveApiUrlGenerator"*)* @_ZN11google_apis5drive18BatchUploadRequestC2EPNS_13RequestSenderERKNS_20DriveApiUrlGeneratorE
@_ZN11google_apis5drive18BatchUploadRequestD1Ev = hidden unnamed_addr alias void (%"class.google_apis::drive::BatchUploadRequest"*), void (%"class.google_apis::drive::BatchUploadRequest"*)* @_ZN11google_apis5drive18BatchUploadRequestD2Ev

; Function Attrs: nounwind ssp uwtable
define hidden void @_ZN11google_apis5drive21MultipartHttpResponseC2Ev(%"struct.google_apis::drive::MultipartHttpResponse"* nocapture) unnamed_addr #0 align 2 {
  %2 = getelementptr inbounds %"struct.google_apis::drive::MultipartHttpResponse", %"struct.google_apis::drive::MultipartHttpResponse"* %0, i64 0, i32 0
  store i32 200, i32* %2, align 8
  %3 = getelementptr inbounds %"struct.google_apis::drive::MultipartHttpResponse", %"struct.google_apis::drive::MultipartHttpResponse"* %0, i64 0, i32 1
  %4 = bitcast %"class.std::__1::basic_string"* %3 to i8*
  tail call void @llvm.memset.p0i8.i64(i8* align 8 %4, i8 0, i64 24, i1 false) #16
  ret void
}

; Function Attrs: nounwind ssp uwtable
define hidden void @_ZN11google_apis5drive21MultipartHttpResponseD2Ev(%"struct.google_apis::drive::MultipartHttpResponse"* nocapture readonly) unnamed_addr #0 align 2 {
  %2 = getelementptr inbounds %"struct.google_apis::drive::MultipartHttpResponse", %"struct.google_apis::drive::MultipartHttpResponse"* %0, i64 0, i32 1
  %3 = bitcast %"class.std::__1::basic_string"* %2 to %"struct.std::__1::basic_string<char, std::__1::char_traits<char>, std::__1::allocator<char> >::__short"*
  %4 = getelementptr inbounds %"struct.std::__1::basic_string<char, std::__1::char_traits<char>, std::__1::allocator<char> >::__short", %"struct.std::__1::basic_string<char, std::__1::char_traits<char>, std::__1::allocator<char> >::__short"* %3, i64 0, i32 1, i32 0
  %5 = load i8, i8* %4, align 1
  %6 = icmp slt i8 %5, 0
  br i1 %6, label %7, label %10

7:                                                ; preds = %1
  %8 = getelementptr inbounds %"class.std::__1::basic_string", %"class.std::__1::basic_string"* %2, i64 0, i32 0, i32 0, i32 0, i32 0, i32 0, i32 0
  %9 = load i8*, i8** %8, align 8
  tail call void @_ZdlPv(i8* %9) #17
  br label %10

10:                                               ; preds = %1, %7
  ret void
}

; Function Attrs: nounwind ssp uwtable
define hidden zeroext i1 @_ZN11google_apis5drive22ParseMultipartResponseERKNSt3__112basic_stringIcNS1_11char_traitsIcEENS1_9allocatorIcEEEES9_PNS1_6vectorINS0_21MultipartHttpResponseENS5_ISB_EEEE(%"class.std::__1::basic_string"* dereferenceable(24), %"class.std::__1::basic_string"* dereferenceable(24), %"class.std::__1::vector"* nocapture) local_unnamed_addr #0 {
  %4 = alloca %"class.base::BasicStringPiece", align 8
  %5 = alloca %"class.std::__1::basic_string", align 8
  %6 = alloca %"class.std::__1::basic_string", align 8
  %7 = alloca %"class.std::__1::basic_string", align 8
  %8 = alloca %"class.std::__1::basic_string", align 8
  %9 = alloca %"class.std::__1::vector.6", align 8
  %10 = alloca %"class.std::__1::basic_string", align 8
  %11 = alloca %"class.std::__1::vector", align 16
  %12 = alloca %"class.std::__1::basic_string", align 16
  %13 = alloca i32, align 4
  %14 = alloca %"struct.google_apis::drive::MultipartHttpResponse", align 8
  %15 = alloca %"struct.google_apis::drive::MultipartHttpResponse", align 8
  %16 = alloca %"struct.google_apis::drive::MultipartHttpResponse", align 8
  %17 = alloca [2 x %"class.base::BasicStringPiece"], align 8
  %18 = bitcast %"class.std::__1::basic_string"* %1 to %"struct.std::__1::basic_string<char, std::__1::char_traits<char>, std::__1::allocator<char> >::__short"*
  %19 = getelementptr inbounds %"struct.std::__1::basic_string<char, std::__1::char_traits<char>, std::__1::allocator<char> >::__short", %"struct.std::__1::basic_string<char, std::__1::char_traits<char>, std::__1::allocator<char> >::__short"* %18, i64 0, i32 1, i32 0
  %20 = load i8, i8* %19, align 1
  %21 = icmp slt i8 %20, 0
  %22 = getelementptr inbounds %"class.std::__1::basic_string", %"class.std::__1::basic_string"* %1, i64 0, i32 0, i32 0, i32 0, i32 0, i32 0, i32 1
  %23 = load i64, i64* %22, align 8
  %24 = zext i8 %20 to i64
  %25 = select i1 %21, i64 %23, i64 %24
  %26 = icmp eq i64 %25, 0
  br i1 %26, label %462, label %27

27:                                               ; preds = %3
  %28 = bitcast %"class.base::BasicStringPiece"* %4 to i8*
  call void @llvm.lifetime.start.p0i8(i64 16, i8* nonnull %28) #16
  %29 = getelementptr inbounds %"class.base::BasicStringPiece", %"class.base::BasicStringPiece"* %4, i64 0, i32 0
  %30 = getelementptr inbounds %"class.base::BasicStringPiece", %"class.base::BasicStringPiece"* %4, i64 0, i32 1
  %31 = bitcast %"class.std::__1::basic_string"* %0 to %"struct.std::__1::basic_string<char, std::__1::char_traits<char>, std::__1::allocator<char> >::__short"*
  %32 = getelementptr inbounds %"struct.std::__1::basic_string<char, std::__1::char_traits<char>, std::__1::allocator<char> >::__short", %"struct.std::__1::basic_string<char, std::__1::char_traits<char>, std::__1::allocator<char> >::__short"* %31, i64 0, i32 1, i32 0
  %33 = load i8, i8* %32, align 1
  %34 = icmp slt i8 %33, 0
  %35 = getelementptr inbounds %"class.std::__1::basic_string", %"class.std::__1::basic_string"* %0, i64 0, i32 0, i32 0, i32 0, i32 0, i32 0, i32 0
  %36 = load i8*, i8** %35, align 8
  %37 = bitcast %"class.std::__1::basic_string"* %0 to i8*
  %38 = select i1 %34, i8* %36, i8* %37
  store i8* %38, i8** %29, align 8
  %39 = getelementptr inbounds %"class.std::__1::basic_string", %"class.std::__1::basic_string"* %0, i64 0, i32 0, i32 0, i32 0, i32 0, i32 0, i32 1
  %40 = load i64, i64* %39, align 8
  %41 = zext i8 %33 to i64
  %42 = select i1 %34, i64 %40, i64 %41
  store i64 %42, i64* %30, align 8
  %43 = tail call zeroext i1 @_ZN4base10StartsWithENS_16BasicStringPieceIcNSt3__111char_traitsIcEEEES4_NS_11CompareCaseE(i8* %38, i64 %42, i8* getelementptr inbounds ([27 x i8], [27 x i8]* @_ZN11google_apis5drive12_GLOBAL__N_129kMultipartMixedMimeTypePrefixE, i64 0, i64 0), i64 26, i32 0) #16
  br i1 %43, label %44, label %460

44:                                               ; preds = %27
  call void @_ZN4base16BasicStringPieceIcNSt3__111char_traitsIcEEE13remove_prefixEm(%"class.base::BasicStringPiece"* nonnull %4, i64 26)
  %45 = load i64, i64* %30, align 8
  %46 = icmp eq i64 %45, 0
  br i1 %46, label %460, label %47

47:                                               ; preds = %44
  %48 = call dereferenceable(1) i8* @_ZNK4base16BasicStringPieceIcNSt3__111char_traitsIcEEE2atEm(%"class.base::BasicStringPiece"* nonnull %4, i64 0) #16
  %49 = load i8, i8* %48, align 1
  %50 = icmp eq i8 %49, 34
  br i1 %50, label %54, label %51

51:                                               ; preds = %47
  %52 = load i8*, i8** %29, align 8, !noalias !2
  %53 = load i64, i64* %30, align 8, !noalias !2
  br label %68

54:                                               ; preds = %47
  %55 = load i64, i64* %30, align 8
  %56 = icmp ult i64 %55, 3
  br i1 %56, label %460, label %57

57:                                               ; preds = %54
  %58 = add i64 %55, -1
  %59 = call dereferenceable(1) i8* @_ZNK4base16BasicStringPieceIcNSt3__111char_traitsIcEEE2atEm(%"class.base::BasicStringPiece"* nonnull %4, i64 %58) #16
  %60 = load i8, i8* %59, align 1
  %61 = icmp eq i8 %60, 34
  br i1 %61, label %62, label %460

62:                                               ; preds = %57
  %63 = load i64, i64* %30, align 8
  %64 = add i64 %63, -2
  %65 = call { i8*, i64 } @_ZNK4base16BasicStringPieceIcNSt3__111char_traitsIcEEE6substrEmm(%"class.base::BasicStringPiece"* nonnull %4, i64 1, i64 %64)
  %66 = extractvalue { i8*, i64 } %65, 0
  %67 = extractvalue { i8*, i64 } %65, 1
  store i8* %66, i8** %29, align 8
  store i64 %67, i64* %30, align 8
  br label %68

68:                                               ; preds = %51, %62
  %69 = phi i64 [ %53, %51 ], [ %67, %62 ]
  %70 = phi i8* [ %52, %51 ], [ %66, %62 ]
  %71 = bitcast %"class.std::__1::basic_string"* %5 to i8*
  call void @llvm.lifetime.start.p0i8(i64 24, i8* nonnull %71) #16
  %72 = getelementptr inbounds %"class.std::__1::basic_string", %"class.std::__1::basic_string"* %5, i64 0, i32 0, i32 0, i32 0, i32 0, i32 0, i32 0
  %73 = getelementptr inbounds %"class.std::__1::basic_string", %"class.std::__1::basic_string"* %5, i64 0, i32 0, i32 0, i32 0, i32 0, i32 0, i32 1
  %74 = getelementptr inbounds %"class.std::__1::basic_string", %"class.std::__1::basic_string"* %5, i64 0, i32 0, i32 0, i32 0, i32 0, i32 0, i32 2
  %75 = icmp ugt i64 %69, -17
  %76 = bitcast %"class.std::__1::basic_string"* %5 to i8*
  call void @llvm.memset.p0i8.i64(i8* nonnull align 8 %76, i8 -86, i64 24, i1 false)
  br i1 %75, label %77, label %79

77:                                               ; preds = %68
  %78 = bitcast %"class.std::__1::basic_string"* %5 to %"class.std::__1::__basic_string_common"*
  call void @_ZNKSt3__121__basic_string_commonILb1EE20__throw_length_errorEv(%"class.std::__1::__basic_string_common"* nonnull %78) #18
  unreachable

79:                                               ; preds = %68
  %80 = icmp ult i64 %69, 23
  br i1 %80, label %86, label %81

81:                                               ; preds = %79
  %82 = add nuw i64 %69, 16
  %83 = and i64 %82, -16
  %84 = call i8* @_Znwm(i64 %83) #17
  store i8* %84, i8** %72, align 8, !alias.scope !2
  %85 = or i64 %83, -9223372036854775808
  store i64 %85, i64* %74, align 8, !alias.scope !2
  store i64 %69, i64* %73, align 8, !alias.scope !2
  br label %91

86:                                               ; preds = %79
  %87 = trunc i64 %69 to i8
  %88 = bitcast %"class.std::__1::basic_string"* %5 to %"struct.std::__1::basic_string<char, std::__1::char_traits<char>, std::__1::allocator<char> >::__short"*
  %89 = getelementptr inbounds %"struct.std::__1::basic_string<char, std::__1::char_traits<char>, std::__1::allocator<char> >::__short", %"struct.std::__1::basic_string<char, std::__1::char_traits<char>, std::__1::allocator<char> >::__short"* %88, i64 0, i32 1, i32 0
  store i8 %87, i8* %89, align 1, !alias.scope !2
  %90 = icmp eq i64 %69, 0
  br i1 %90, label %93, label %91

91:                                               ; preds = %86, %81
  %92 = phi i8* [ %84, %81 ], [ %71, %86 ]
  call void @llvm.memcpy.p0i8.p0i8.i64(i8* nonnull align 1 %92, i8* align 1 %70, i64 %69, i1 false) #16
  br label %93

93:                                               ; preds = %86, %91
  %94 = phi i8* [ %71, %86 ], [ %92, %91 ]
  %95 = getelementptr inbounds i8, i8* %94, i64 %69
  store i8 0, i8* %95, align 1
  %96 = bitcast %"class.std::__1::basic_string"* %6 to i8*
  call void @llvm.lifetime.start.p0i8(i64 24, i8* nonnull %96) #16
  %97 = getelementptr inbounds %"class.std::__1::basic_string", %"class.std::__1::basic_string"* %6, i64 0, i32 0, i32 0, i32 0, i32 0, i32 0, i32 0
  %98 = getelementptr inbounds %"class.std::__1::basic_string", %"class.std::__1::basic_string"* %6, i64 0, i32 0, i32 0, i32 0, i32 0, i32 0, i32 1
  %99 = bitcast %"class.std::__1::basic_string"* %6 to i8*
  call void @llvm.memset.p0i8.i64(i8* nonnull align 8 %99, i8 -86, i64 24, i1 false)
  call void @_ZNSt3__1plIcNS_11char_traitsIcEENS_9allocatorIcEEEENS_12basic_stringIT_T0_T1_EEPKS6_RKS9_(%"class.std::__1::basic_string"* nonnull sret %6, i8* getelementptr inbounds ([3 x i8], [3 x i8]* @.str, i64 0, i64 0), %"class.std::__1::basic_string"* nonnull dereferenceable(24) %5) #16
  %100 = bitcast %"class.std::__1::basic_string"* %7 to i8*
  call void @llvm.lifetime.start.p0i8(i64 24, i8* nonnull %100) #16
  %101 = getelementptr inbounds %"class.std::__1::basic_string", %"class.std::__1::basic_string"* %7, i64 0, i32 0, i32 0, i32 0, i32 0, i32 0, i32 0
  %102 = getelementptr inbounds %"class.std::__1::basic_string", %"class.std::__1::basic_string"* %7, i64 0, i32 0, i32 0, i32 0, i32 0, i32 0, i32 1
  %103 = bitcast %"class.std::__1::basic_string"* %8 to i8*
  %104 = bitcast %"class.std::__1::basic_string"* %7 to i8*
  call void @llvm.memset.p0i8.i64(i8* nonnull align 8 %104, i8 -86, i64 24, i1 false)
  call void @llvm.lifetime.start.p0i8(i64 24, i8* nonnull %103) #16
  call void @_ZNSt3__1plIcNS_11char_traitsIcEENS_9allocatorIcEEEENS_12basic_stringIT_T0_T1_EEPKS6_RKS9_(%"class.std::__1::basic_string"* nonnull sret %8, i8* getelementptr inbounds ([3 x i8], [3 x i8]* @.str, i64 0, i64 0), %"class.std::__1::basic_string"* nonnull dereferenceable(24) %5) #16
  %105 = call dereferenceable(24) %"class.std::__1::basic_string"* @_ZNSt3__112basic_stringIcNS_11char_traitsIcEENS_9allocatorIcEEE6appendEPKc(%"class.std::__1::basic_string"* nonnull %8, i8* getelementptr inbounds ([3 x i8], [3 x i8]* @.str, i64 0, i64 0)) #16, !noalias !5
  %106 = bitcast %"class.std::__1::basic_string"* %105 to i8*
  call void @llvm.memcpy.p0i8.p0i8.i64(i8* nonnull align 8 %100, i8* align 8 %106, i64 24, i1 false) #16
  call void @llvm.memset.p0i8.i64(i8* align 8 %106, i8 0, i64 24, i1 false) #16, !noalias !5
  %107 = bitcast %"class.std::__1::basic_string"* %8 to %"struct.std::__1::basic_string<char, std::__1::char_traits<char>, std::__1::allocator<char> >::__short"*
  %108 = getelementptr inbounds %"struct.std::__1::basic_string<char, std::__1::char_traits<char>, std::__1::allocator<char> >::__short", %"struct.std::__1::basic_string<char, std::__1::char_traits<char>, std::__1::allocator<char> >::__short"* %107, i64 0, i32 1, i32 0
  %109 = load i8, i8* %108, align 1
  %110 = icmp slt i8 %109, 0
  br i1 %110, label %111, label %114

111:                                              ; preds = %93
  %112 = getelementptr inbounds %"class.std::__1::basic_string", %"class.std::__1::basic_string"* %8, i64 0, i32 0, i32 0, i32 0, i32 0, i32 0, i32 0
  %113 = load i8*, i8** %112, align 8
  call void @_ZdlPv(i8* %113) #17
  br label %114

114:                                              ; preds = %93, %111
  call void @llvm.lifetime.end.p0i8(i64 24, i8* nonnull %103) #16
  %115 = bitcast %"class.std::__1::vector.6"* %9 to i8*
  call void @llvm.lifetime.start.p0i8(i64 24, i8* nonnull %115) #16
  %116 = getelementptr inbounds %"class.std::__1::vector.6", %"class.std::__1::vector.6"* %9, i64 0, i32 0, i32 0
  %117 = getelementptr inbounds %"class.std::__1::vector.6", %"class.std::__1::vector.6"* %9, i64 0, i32 0, i32 1
  %118 = bitcast %"class.std::__1::vector.6"* %9 to i8*
  call void @llvm.memset.p0i8.i64(i8* nonnull align 8 %118, i8 -86, i64 24, i1 false)
  %119 = load i8, i8* %19, align 1
  %120 = icmp slt i8 %119, 0
  %121 = getelementptr inbounds %"class.std::__1::basic_string", %"class.std::__1::basic_string"* %1, i64 0, i32 0, i32 0, i32 0, i32 0, i32 0, i32 0
  %122 = load i8*, i8** %121, align 8
  %123 = bitcast %"class.std::__1::basic_string"* %1 to i8*
  %124 = select i1 %120, i8* %122, i8* %123
  %125 = load i64, i64* %22, align 8
  %126 = zext i8 %119 to i64
  %127 = select i1 %120, i64 %125, i64 %126
  call void @_ZN4base27SplitStringPieceUsingSubstrENS_16BasicStringPieceIcNSt3__111char_traitsIcEEEES4_NS_18WhitespaceHandlingENS_11SplitResultE(%"class.std::__1::vector.6"* nonnull sret %9, i8* %124, i64 %127, i8* getelementptr inbounds ([3 x i8], [3 x i8]* @_ZN11google_apis5drive12_GLOBAL__N_17kHttpBrE, i64 0, i64 0), i64 2, i32 0, i32 0) #16
  %128 = bitcast %"class.std::__1::basic_string"* %10 to i8*
  call void @llvm.lifetime.start.p0i8(i64 24, i8* nonnull %128) #16
  %129 = getelementptr inbounds %"class.std::__1::basic_string", %"class.std::__1::basic_string"* %10, i64 0, i32 0, i32 0, i32 0, i32 0, i32 0, i32 0
  %130 = getelementptr inbounds %"class.std::__1::basic_string", %"class.std::__1::basic_string"* %10, i64 0, i32 0, i32 0, i32 0, i32 0, i32 0, i32 1
  %131 = bitcast %"class.std::__1::basic_string"* %10 to %"struct.std::__1::basic_string<char, std::__1::char_traits<char>, std::__1::allocator<char> >::__short"*
  %132 = getelementptr inbounds %"struct.std::__1::basic_string<char, std::__1::char_traits<char>, std::__1::allocator<char> >::__short", %"struct.std::__1::basic_string<char, std::__1::char_traits<char>, std::__1::allocator<char> >::__short"* %131, i64 0, i32 1, i32 0
  %133 = bitcast %"class.std::__1::basic_string"* %10 to i8*
  call void @llvm.memset.p0i8.i64(i8* nonnull align 8 %133, i8 -86, i64 24, i1 false)
  store i8 9, i8* %132, align 1
  call void @llvm.memcpy.p0i8.p0i8.i64(i8* nonnull align 8 %128, i8* align 1 getelementptr inbounds ([10 x i8], [10 x i8]* @.str.1, i64 0, i64 0), i64 9, i1 false) #16
  %134 = getelementptr inbounds i8, i8* %128, i64 9
  store i8 0, i8* %134, align 1
  %135 = bitcast %"class.std::__1::vector"* %11 to i8*
  call void @llvm.lifetime.start.p0i8(i64 24, i8* nonnull %135) #16
  %136 = getelementptr inbounds %"class.std::__1::vector", %"class.std::__1::vector"* %11, i64 0, i32 0, i32 0
  %137 = getelementptr inbounds %"class.std::__1::vector", %"class.std::__1::vector"* %11, i64 0, i32 0, i32 1
  %138 = getelementptr inbounds %"class.std::__1::vector", %"class.std::__1::vector"* %11, i64 0, i32 0, i32 2, i32 0, i32 0
  call void @llvm.memset.p0i8.i64(i8* nonnull align 16 %135, i8 0, i64 24, i1 false) #16
  %139 = bitcast %"class.std::__1::basic_string"* %12 to i8*
  call void @llvm.lifetime.start.p0i8(i64 24, i8* nonnull %139) #16
  %140 = getelementptr inbounds %"class.std::__1::basic_string", %"class.std::__1::basic_string"* %12, i64 0, i32 0, i32 0, i32 0, i32 0, i32 0, i32 0
  %141 = getelementptr inbounds %"class.std::__1::basic_string", %"class.std::__1::basic_string"* %12, i64 0, i32 0, i32 0, i32 0, i32 0, i32 0, i32 1
  %142 = getelementptr inbounds %"class.std::__1::basic_string", %"class.std::__1::basic_string"* %12, i64 0, i32 0, i32 0, i32 0, i32 0, i32 0, i32 2
  call void @llvm.memset.p0i8.i64(i8* nonnull align 16 %139, i8 0, i64 24, i1 false) #16
  %143 = load %"class.base::BasicStringPiece"*, %"class.base::BasicStringPiece"** %116, align 8
  %144 = load %"class.base::BasicStringPiece"*, %"class.base::BasicStringPiece"** %117, align 8
  %145 = icmp eq %"class.base::BasicStringPiece"* %143, %144
  br i1 %145, label %146, label %149

146:                                              ; preds = %114
  %147 = bitcast %"struct.google_apis::drive::MultipartHttpResponse"** %137 to i64*
  %148 = bitcast %"struct.google_apis::drive::MultipartHttpResponse"** %138 to i64*
  br label %381

149:                                              ; preds = %114
  %150 = bitcast %"class.std::__1::basic_string"* %12 to %"struct.std::__1::basic_string<char, std::__1::char_traits<char>, std::__1::allocator<char> >::__short"*
  %151 = getelementptr inbounds %"struct.std::__1::basic_string<char, std::__1::char_traits<char>, std::__1::allocator<char> >::__short", %"struct.std::__1::basic_string<char, std::__1::char_traits<char>, std::__1::allocator<char> >::__short"* %150, i64 0, i32 1, i32 0
  %152 = bitcast i32* %13 to i8*
  %153 = bitcast %"class.std::__1::basic_string"* %6 to %"struct.std::__1::basic_string<char, std::__1::char_traits<char>, std::__1::allocator<char> >::__short"*
  %154 = getelementptr inbounds %"struct.std::__1::basic_string<char, std::__1::char_traits<char>, std::__1::allocator<char> >::__short", %"struct.std::__1::basic_string<char, std::__1::char_traits<char>, std::__1::allocator<char> >::__short"* %153, i64 0, i32 1, i32 0
  %155 = bitcast %"class.std::__1::basic_string"* %7 to %"struct.std::__1::basic_string<char, std::__1::char_traits<char>, std::__1::allocator<char> >::__short"*
  %156 = getelementptr inbounds %"struct.std::__1::basic_string<char, std::__1::char_traits<char>, std::__1::allocator<char> >::__short", %"struct.std::__1::basic_string<char, std::__1::char_traits<char>, std::__1::allocator<char> >::__short"* %155, i64 0, i32 1, i32 0
  %157 = bitcast [2 x %"class.base::BasicStringPiece"]* %17 to i8*
  %158 = getelementptr inbounds [2 x %"class.base::BasicStringPiece"], [2 x %"class.base::BasicStringPiece"]* %17, i64 0, i64 0
  %159 = getelementptr inbounds [2 x %"class.base::BasicStringPiece"], [2 x %"class.base::BasicStringPiece"]* %17, i64 0, i64 1, i32 0
  %160 = getelementptr inbounds [2 x %"class.base::BasicStringPiece"], [2 x %"class.base::BasicStringPiece"]* %17, i64 0, i64 1, i32 1
  %161 = bitcast %"struct.google_apis::drive::MultipartHttpResponse"* %15 to i8*
  %162 = getelementptr inbounds %"struct.google_apis::drive::MultipartHttpResponse", %"struct.google_apis::drive::MultipartHttpResponse"* %15, i64 0, i32 0
  %163 = getelementptr inbounds %"struct.google_apis::drive::MultipartHttpResponse", %"struct.google_apis::drive::MultipartHttpResponse"* %15, i64 0, i32 1
  %164 = bitcast %"class.std::__1::basic_string"* %163 to i8*
  %165 = bitcast %"class.std::__1::basic_string"* %163 to %"struct.std::__1::basic_string<char, std::__1::char_traits<char>, std::__1::allocator<char> >::__short"*
  %166 = getelementptr inbounds %"struct.std::__1::basic_string<char, std::__1::char_traits<char>, std::__1::allocator<char> >::__short", %"struct.std::__1::basic_string<char, std::__1::char_traits<char>, std::__1::allocator<char> >::__short"* %165, i64 0, i32 1, i32 0
  %167 = getelementptr inbounds %"class.std::__1::basic_string", %"class.std::__1::basic_string"* %163, i64 0, i32 0, i32 0, i32 0, i32 0, i32 0, i32 0
  %168 = getelementptr inbounds %"struct.google_apis::drive::MultipartHttpResponse", %"struct.google_apis::drive::MultipartHttpResponse"* %15, i64 0, i32 1, i32 0, i32 0, i32 0, i32 0, i32 0, i32 1
  %169 = bitcast %"struct.google_apis::drive::MultipartHttpResponse"** %137 to i64*
  %170 = bitcast %"struct.google_apis::drive::MultipartHttpResponse"* %14 to i8*
  %171 = getelementptr inbounds %"struct.google_apis::drive::MultipartHttpResponse", %"struct.google_apis::drive::MultipartHttpResponse"* %14, i64 0, i32 0
  %172 = getelementptr inbounds %"struct.google_apis::drive::MultipartHttpResponse", %"struct.google_apis::drive::MultipartHttpResponse"* %14, i64 0, i32 1
  %173 = bitcast %"class.std::__1::basic_string"* %172 to i8*
  %174 = bitcast %"class.std::__1::basic_string"* %172 to %"struct.std::__1::basic_string<char, std::__1::char_traits<char>, std::__1::allocator<char> >::__short"*
  %175 = getelementptr inbounds %"struct.std::__1::basic_string<char, std::__1::char_traits<char>, std::__1::allocator<char> >::__short", %"struct.std::__1::basic_string<char, std::__1::char_traits<char>, std::__1::allocator<char> >::__short"* %174, i64 0, i32 1, i32 0
  %176 = getelementptr inbounds %"class.std::__1::basic_string", %"class.std::__1::basic_string"* %172, i64 0, i32 0, i32 0, i32 0, i32 0, i32 0, i32 0
  %177 = getelementptr inbounds %"struct.google_apis::drive::MultipartHttpResponse", %"struct.google_apis::drive::MultipartHttpResponse"* %14, i64 0, i32 1, i32 0, i32 0, i32 0, i32 0, i32 0, i32 1
  %178 = bitcast %"struct.google_apis::drive::MultipartHttpResponse"* %16 to i8*
  %179 = getelementptr inbounds %"struct.google_apis::drive::MultipartHttpResponse", %"struct.google_apis::drive::MultipartHttpResponse"* %16, i64 0, i32 0
  %180 = getelementptr inbounds %"struct.google_apis::drive::MultipartHttpResponse", %"struct.google_apis::drive::MultipartHttpResponse"* %16, i64 0, i32 1
  %181 = bitcast %"class.std::__1::basic_string"* %180 to i8*
  %182 = bitcast %"class.std::__1::basic_string"* %180 to %"struct.std::__1::basic_string<char, std::__1::char_traits<char>, std::__1::allocator<char> >::__short"*
  %183 = getelementptr inbounds %"struct.std::__1::basic_string<char, std::__1::char_traits<char>, std::__1::allocator<char> >::__short", %"struct.std::__1::basic_string<char, std::__1::char_traits<char>, std::__1::allocator<char> >::__short"* %182, i64 0, i32 1, i32 0
  %184 = getelementptr inbounds %"class.std::__1::basic_string", %"class.std::__1::basic_string"* %180, i64 0, i32 0, i32 0, i32 0, i32 0, i32 0, i32 0
  %185 = getelementptr inbounds %"struct.google_apis::drive::MultipartHttpResponse", %"struct.google_apis::drive::MultipartHttpResponse"* %16, i64 0, i32 1, i32 0, i32 0, i32 0, i32 0, i32 0, i32 1
  %186 = bitcast %"class.std::__1::basic_string"* %12 to <2 x i64>*
  br label %187

187:                                              ; preds = %149, %369
  %188 = phi i32 [ 0, %149 ], [ %370, %369 ]
  %189 = phi i32 [ 1000, %149 ], [ %371, %369 ]
  %190 = phi %"class.base::BasicStringPiece"* [ %143, %149 ], [ %372, %369 ]
  switch i32 %188, label %191 [
    i32 1, label %194
    i32 2, label %198
    i32 3, label %224
  ]

191:                                              ; preds = %187
  %192 = getelementptr inbounds %"class.base::BasicStringPiece", %"class.base::BasicStringPiece"* %190, i64 0, i32 1
  %193 = load i64, i64* %192, align 8
  br label %234

194:                                              ; preds = %187
  %195 = getelementptr inbounds %"class.base::BasicStringPiece", %"class.base::BasicStringPiece"* %190, i64 0, i32 1
  %196 = load i64, i64* %195, align 8
  %197 = icmp eq i64 %196, 0
  br i1 %197, label %369, label %234

198:                                              ; preds = %187
  %199 = getelementptr inbounds %"class.base::BasicStringPiece", %"class.base::BasicStringPiece"* %190, i64 0, i32 0
  %200 = load i8*, i8** %199, align 8
  %201 = getelementptr inbounds %"class.base::BasicStringPiece", %"class.base::BasicStringPiece"* %190, i64 0, i32 1
  %202 = load i64, i64* %201, align 8
  %203 = load i8, i8* %132, align 1
  %204 = icmp slt i8 %203, 0
  %205 = load i8*, i8** %129, align 8
  %206 = select i1 %204, i8* %205, i8* %128
  %207 = load i64, i64* %130, align 8
  %208 = zext i8 %203 to i64
  %209 = select i1 %204, i64 %207, i64 %208
  %210 = call zeroext i1 @_ZN4base10StartsWithENS_16BasicStringPieceIcNSt3__111char_traitsIcEEEES4_NS_11CompareCaseE(i8* %200, i64 %202, i8* %206, i64 %209, i32 0) #16
  br i1 %210, label %211, label %369

211:                                              ; preds = %198
  call void @llvm.lifetime.start.p0i8(i64 4, i8* nonnull %152) #16
  store i32 -1431655766, i32* %13, align 4
  %212 = load i8, i8* %132, align 1
  %213 = icmp slt i8 %212, 0
  %214 = load i64, i64* %130, align 8
  %215 = zext i8 %212 to i64
  %216 = select i1 %213, i64 %214, i64 %215
  %217 = call { i8*, i64 } @_ZNK4base16BasicStringPieceIcNSt3__111char_traitsIcEEE6substrEmm(%"class.base::BasicStringPiece"* %190, i64 %216, i64 -1)
  %218 = extractvalue { i8*, i64 } %217, 0
  %219 = extractvalue { i8*, i64 } %217, 1
  %220 = call zeroext i1 @_ZN4base11StringToIntENS_16BasicStringPieceIcNSt3__111char_traitsIcEEEEPi(i8* %218, i64 %219, i32* nonnull %13) #16
  %221 = load i32, i32* %13, align 4
  %222 = icmp sgt i32 %221, 0
  %223 = select i1 %222, i32 %221, i32 1000
  call void @llvm.lifetime.end.p0i8(i64 4, i8* nonnull %152) #16
  br label %369

224:                                              ; preds = %187
  %225 = getelementptr inbounds %"class.base::BasicStringPiece", %"class.base::BasicStringPiece"* %190, i64 0, i32 1
  %226 = load i64, i64* %225, align 8
  %227 = icmp eq i64 %226, 0
  br i1 %227, label %228, label %234

228:                                              ; preds = %224
  %229 = load i8, i8* %151, align 1
  %230 = icmp slt i8 %229, 0
  br i1 %230, label %231, label %233

231:                                              ; preds = %228
  %232 = load i8*, i8** %140, align 16
  store i8 0, i8* %232, align 1
  store i64 0, i64* %141, align 8
  br label %369

233:                                              ; preds = %228
  store i8 0, i8* %139, align 16
  store i8 0, i8* %151, align 1
  br label %369

234:                                              ; preds = %191, %194, %224
  %235 = phi i64 [ %193, %191 ], [ %196, %194 ], [ %226, %224 ]
  %236 = getelementptr inbounds %"class.base::BasicStringPiece", %"class.base::BasicStringPiece"* %190, i64 0, i32 0
  %237 = load i8*, i8** %236, align 8
  %238 = call { i8*, i64 } @_ZN4base10TrimStringENS_16BasicStringPieceIcNSt3__111char_traitsIcEEEES4_NS_13TrimPositionsE(i8* %237, i64 %235, i8* getelementptr inbounds ([3 x i8], [3 x i8]* @.str.2, i64 0, i64 0), i64 2, i32 2) #16
  %239 = extractvalue { i8*, i64 } %238, 0
  %240 = extractvalue { i8*, i64 } %238, 1
  %241 = load i8, i8* %154, align 1
  %242 = icmp slt i8 %241, 0
  %243 = load i64, i64* %98, align 8
  %244 = zext i8 %241 to i64
  %245 = select i1 %242, i64 %243, i64 %244
  %246 = icmp eq i64 %240, %245
  br i1 %246, label %247, label %252

247:                                              ; preds = %234
  %248 = load i8*, i8** %97, align 8
  %249 = select i1 %242, i8* %248, i8* %96
  %250 = call i32 @bcmp(i8* %239, i8* %249, i64 %240) #16
  %251 = icmp eq i32 %250, 0
  br label %252

252:                                              ; preds = %234, %247
  %253 = phi i1 [ false, %234 ], [ %251, %247 ]
  %254 = load i8, i8* %156, align 1
  %255 = icmp slt i8 %254, 0
  %256 = load i64, i64* %102, align 8
  %257 = zext i8 %254 to i64
  %258 = select i1 %255, i64 %256, i64 %257
  %259 = icmp eq i64 %240, %258
  br i1 %259, label %260, label %265

260:                                              ; preds = %252
  %261 = load i8*, i8** %101, align 8
  %262 = select i1 %255, i8* %261, i8* %100
  %263 = call i32 @bcmp(i8* %239, i8* %262, i64 %240) #16
  %264 = icmp eq i32 %263, 0
  br label %265

265:                                              ; preds = %252, %260
  %266 = phi i1 [ false, %252 ], [ %264, %260 ]
  %267 = or i1 %253, %266
  br i1 %267, label %268, label %365

268:                                              ; preds = %265
  switch i32 %188, label %363 [
    i32 4, label %321
    i32 1, label %269
    i32 3, label %295
  ]

269:                                              ; preds = %268
  call void @llvm.lifetime.start.p0i8(i64 32, i8* nonnull %170) #16
  store i32 200, i32* %171, align 8
  call void @llvm.memset.p0i8.i64(i8* align 8 %173, i8 0, i64 24, i1 false) #16
  %270 = load %"struct.google_apis::drive::MultipartHttpResponse"*, %"struct.google_apis::drive::MultipartHttpResponse"** %137, align 8
  %271 = load %"struct.google_apis::drive::MultipartHttpResponse"*, %"struct.google_apis::drive::MultipartHttpResponse"** %138, align 16
  %272 = icmp ult %"struct.google_apis::drive::MultipartHttpResponse"* %270, %271
  br i1 %272, label %273, label %286

273:                                              ; preds = %269
  %274 = getelementptr inbounds %"struct.google_apis::drive::MultipartHttpResponse", %"struct.google_apis::drive::MultipartHttpResponse"* %270, i64 0, i32 0
  store i32 200, i32* %274, align 8
  %275 = getelementptr inbounds %"struct.google_apis::drive::MultipartHttpResponse", %"struct.google_apis::drive::MultipartHttpResponse"* %270, i64 0, i32 1
  %276 = load i8, i8* %175, align 1
  %277 = icmp slt i8 %276, 0
  br i1 %277, label %280, label %278

278:                                              ; preds = %273
  %279 = bitcast %"class.std::__1::basic_string"* %275 to i8*
  call void @llvm.memcpy.p0i8.p0i8.i64(i8* align 8 %279, i8* align 8 %173, i64 24, i1 false) #16
  br label %283

280:                                              ; preds = %273
  %281 = load i8*, i8** %176, align 8
  %282 = load i64, i64* %177, align 8
  call void @_ZNSt3__112basic_stringIcNS_11char_traitsIcEENS_9allocatorIcEEE25__init_copy_ctor_externalEPKcm(%"class.std::__1::basic_string"* %275, i8* %281, i64 %282) #16
  br label %283

283:                                              ; preds = %280, %278
  %284 = getelementptr inbounds %"struct.google_apis::drive::MultipartHttpResponse", %"struct.google_apis::drive::MultipartHttpResponse"* %270, i64 1
  %285 = ptrtoint %"struct.google_apis::drive::MultipartHttpResponse"* %284 to i64
  store i64 %285, i64* %169, align 8
  br label %287

286:                                              ; preds = %269
  call void @_ZNSt3__16vectorIN11google_apis5drive21MultipartHttpResponseENS_9allocatorIS3_EEE21__push_back_slow_pathIS3_EEvOT_(%"class.std::__1::vector"* nonnull %11, %"struct.google_apis::drive::MultipartHttpResponse"* nonnull dereferenceable(32) %14) #16
  br label %287

287:                                              ; preds = %283, %286
  %288 = load i8, i8* %175, align 1
  %289 = icmp slt i8 %288, 0
  br i1 %289, label %290, label %292

290:                                              ; preds = %287
  %291 = load i8*, i8** %176, align 8
  call void @_ZdlPv(i8* %291) #17
  br label %292

292:                                              ; preds = %287, %290
  call void @llvm.lifetime.end.p0i8(i64 32, i8* nonnull %170) #16
  %293 = load %"struct.google_apis::drive::MultipartHttpResponse"*, %"struct.google_apis::drive::MultipartHttpResponse"** %137, align 8
  %294 = getelementptr inbounds %"struct.google_apis::drive::MultipartHttpResponse", %"struct.google_apis::drive::MultipartHttpResponse"* %293, i64 -1, i32 0
  store i32 1000, i32* %294, align 8
  br label %363

295:                                              ; preds = %268
  call void @llvm.lifetime.start.p0i8(i64 32, i8* nonnull %161) #16
  store i32 200, i32* %162, align 8
  call void @llvm.memset.p0i8.i64(i8* align 8 %164, i8 0, i64 24, i1 false) #16
  %296 = load %"struct.google_apis::drive::MultipartHttpResponse"*, %"struct.google_apis::drive::MultipartHttpResponse"** %137, align 8
  %297 = load %"struct.google_apis::drive::MultipartHttpResponse"*, %"struct.google_apis::drive::MultipartHttpResponse"** %138, align 16
  %298 = icmp ult %"struct.google_apis::drive::MultipartHttpResponse"* %296, %297
  br i1 %298, label %299, label %312

299:                                              ; preds = %295
  %300 = getelementptr inbounds %"struct.google_apis::drive::MultipartHttpResponse", %"struct.google_apis::drive::MultipartHttpResponse"* %296, i64 0, i32 0
  store i32 200, i32* %300, align 8
  %301 = getelementptr inbounds %"struct.google_apis::drive::MultipartHttpResponse", %"struct.google_apis::drive::MultipartHttpResponse"* %296, i64 0, i32 1
  %302 = load i8, i8* %166, align 1
  %303 = icmp slt i8 %302, 0
  br i1 %303, label %306, label %304

304:                                              ; preds = %299
  %305 = bitcast %"class.std::__1::basic_string"* %301 to i8*
  call void @llvm.memcpy.p0i8.p0i8.i64(i8* align 8 %305, i8* align 8 %164, i64 24, i1 false) #16
  br label %309

306:                                              ; preds = %299
  %307 = load i8*, i8** %167, align 8
  %308 = load i64, i64* %168, align 8
  call void @_ZNSt3__112basic_stringIcNS_11char_traitsIcEENS_9allocatorIcEEE25__init_copy_ctor_externalEPKcm(%"class.std::__1::basic_string"* %301, i8* %307, i64 %308) #16
  br label %309

309:                                              ; preds = %306, %304
  %310 = getelementptr inbounds %"struct.google_apis::drive::MultipartHttpResponse", %"struct.google_apis::drive::MultipartHttpResponse"* %296, i64 1
  %311 = ptrtoint %"struct.google_apis::drive::MultipartHttpResponse"* %310 to i64
  store i64 %311, i64* %169, align 8
  br label %313

312:                                              ; preds = %295
  call void @_ZNSt3__16vectorIN11google_apis5drive21MultipartHttpResponseENS_9allocatorIS3_EEE21__push_back_slow_pathIS3_EEvOT_(%"class.std::__1::vector"* nonnull %11, %"struct.google_apis::drive::MultipartHttpResponse"* nonnull dereferenceable(32) %15) #16
  br label %313

313:                                              ; preds = %309, %312
  %314 = load i8, i8* %166, align 1
  %315 = icmp slt i8 %314, 0
  br i1 %315, label %316, label %318

316:                                              ; preds = %313
  %317 = load i8*, i8** %167, align 8
  call void @_ZdlPv(i8* %317) #17
  br label %318

318:                                              ; preds = %313, %316
  call void @llvm.lifetime.end.p0i8(i64 32, i8* nonnull %161) #16
  %319 = load %"struct.google_apis::drive::MultipartHttpResponse"*, %"struct.google_apis::drive::MultipartHttpResponse"** %137, align 8
  %320 = getelementptr inbounds %"struct.google_apis::drive::MultipartHttpResponse", %"struct.google_apis::drive::MultipartHttpResponse"* %319, i64 -1, i32 0
  store i32 %189, i32* %320, align 8
  br label %363

321:                                              ; preds = %268
  %322 = load i8, i8* %151, align 1
  %323 = icmp slt i8 %322, 0
  %324 = load i64, i64* %141, align 8
  %325 = zext i8 %322 to i64
  %326 = select i1 %323, i64 %324, i64 %325
  %327 = icmp eq i64 %326, 0
  br i1 %327, label %330, label %328

328:                                              ; preds = %321
  %329 = add i64 %326, -2
  call void @_ZNSt3__112basic_stringIcNS_11char_traitsIcEENS_9allocatorIcEEE6resizeEmc(%"class.std::__1::basic_string"* nonnull %12, i64 %329, i8 signext 0) #16
  br label %330

330:                                              ; preds = %328, %321
  call void @llvm.lifetime.start.p0i8(i64 32, i8* nonnull %178) #16
  store i32 200, i32* %179, align 8
  call void @llvm.memset.p0i8.i64(i8* align 8 %181, i8 0, i64 24, i1 false) #16
  %331 = load %"struct.google_apis::drive::MultipartHttpResponse"*, %"struct.google_apis::drive::MultipartHttpResponse"** %137, align 8
  %332 = load %"struct.google_apis::drive::MultipartHttpResponse"*, %"struct.google_apis::drive::MultipartHttpResponse"** %138, align 16
  %333 = icmp ult %"struct.google_apis::drive::MultipartHttpResponse"* %331, %332
  br i1 %333, label %334, label %347

334:                                              ; preds = %330
  %335 = getelementptr inbounds %"struct.google_apis::drive::MultipartHttpResponse", %"struct.google_apis::drive::MultipartHttpResponse"* %331, i64 0, i32 0
  store i32 200, i32* %335, align 8
  %336 = getelementptr inbounds %"struct.google_apis::drive::MultipartHttpResponse", %"struct.google_apis::drive::MultipartHttpResponse"* %331, i64 0, i32 1
  %337 = load i8, i8* %183, align 1
  %338 = icmp slt i8 %337, 0
  br i1 %338, label %341, label %339

339:                                              ; preds = %334
  %340 = bitcast %"class.std::__1::basic_string"* %336 to i8*
  call void @llvm.memcpy.p0i8.p0i8.i64(i8* align 8 %340, i8* align 8 %181, i64 24, i1 false) #16
  br label %344

341:                                              ; preds = %334
  %342 = load i8*, i8** %184, align 8
  %343 = load i64, i64* %185, align 8
  call void @_ZNSt3__112basic_stringIcNS_11char_traitsIcEENS_9allocatorIcEEE25__init_copy_ctor_externalEPKcm(%"class.std::__1::basic_string"* %336, i8* %342, i64 %343) #16
  br label %344

344:                                              ; preds = %341, %339
  %345 = getelementptr inbounds %"struct.google_apis::drive::MultipartHttpResponse", %"struct.google_apis::drive::MultipartHttpResponse"* %331, i64 1
  %346 = ptrtoint %"struct.google_apis::drive::MultipartHttpResponse"* %345 to i64
  store i64 %346, i64* %169, align 8
  br label %348

347:                                              ; preds = %330
  call void @_ZNSt3__16vectorIN11google_apis5drive21MultipartHttpResponseENS_9allocatorIS3_EEE21__push_back_slow_pathIS3_EEvOT_(%"class.std::__1::vector"* nonnull %11, %"struct.google_apis::drive::MultipartHttpResponse"* nonnull dereferenceable(32) %16) #16
  br label %348

348:                                              ; preds = %344, %347
  %349 = load i8, i8* %183, align 1
  %350 = icmp slt i8 %349, 0
  br i1 %350, label %351, label %353

351:                                              ; preds = %348
  %352 = load i8*, i8** %184, align 8
  call void @_ZdlPv(i8* %352) #17
  br label %353

353:                                              ; preds = %348, %351
  call void @llvm.lifetime.end.p0i8(i64 32, i8* nonnull %178) #16
  %354 = load %"struct.google_apis::drive::MultipartHttpResponse"*, %"struct.google_apis::drive::MultipartHttpResponse"** %137, align 8
  %355 = getelementptr inbounds %"struct.google_apis::drive::MultipartHttpResponse", %"struct.google_apis::drive::MultipartHttpResponse"* %354, i64 -1, i32 0
  store i32 %189, i32* %355, align 8
  %356 = load %"struct.google_apis::drive::MultipartHttpResponse"*, %"struct.google_apis::drive::MultipartHttpResponse"** %137, align 8
  %357 = getelementptr inbounds %"struct.google_apis::drive::MultipartHttpResponse", %"struct.google_apis::drive::MultipartHttpResponse"* %356, i64 -1, i32 1
  %358 = bitcast %"class.std::__1::basic_string"* %357 to <2 x i64>*
  %359 = load <2 x i64>, <2 x i64>* %358, align 8
  %360 = getelementptr inbounds %"struct.google_apis::drive::MultipartHttpResponse", %"struct.google_apis::drive::MultipartHttpResponse"* %356, i64 -1, i32 1, i32 0, i32 0, i32 0, i32 0, i32 0, i32 2
  %361 = load i64, i64* %360, align 8
  %362 = bitcast %"class.std::__1::basic_string"* %357 to i8*
  call void @llvm.memcpy.p0i8.p0i8.i64(i8* align 8 %362, i8* nonnull align 16 %139, i64 24, i1 false) #16
  store <2 x i64> %359, <2 x i64>* %186, align 16
  store i64 %361, i64* %142, align 16
  br label %363

363:                                              ; preds = %268, %353, %318, %292
  %364 = select i1 %253, i32 1, i32 %188
  br i1 %266, label %374, label %369

365:                                              ; preds = %265
  %366 = icmp eq i32 %188, 4
  br i1 %366, label %367, label %369

367:                                              ; preds = %365
  call void @llvm.lifetime.start.p0i8(i64 32, i8* nonnull %157) #16
  %368 = bitcast %"class.base::BasicStringPiece"* %190 to i8*
  call void @llvm.memcpy.p0i8.p0i8.i64(i8* nonnull align 8 %157, i8* align 8 %368, i64 16, i1 false)
  store i8* getelementptr inbounds ([3 x i8], [3 x i8]* @_ZN11google_apis5drive12_GLOBAL__N_17kHttpBrE, i64 0, i64 0), i8** %159, align 8
  store i64 2, i64* %160, align 8
  call void @_ZN4base9StrAppendEPNSt3__112basic_stringIcNS0_11char_traitsIcEENS0_9allocatorIcEEEENS_4spanIKNS_16BasicStringPieceIcS3_EELm18446744073709551615EEE(%"class.std::__1::basic_string"* nonnull %12, i64 2, %"class.base::BasicStringPiece"* nonnull %158) #16
  call void @llvm.lifetime.end.p0i8(i64 32, i8* nonnull %157) #16
  br label %369

369:                                              ; preds = %365, %367, %363, %233, %231, %211, %198, %194
  %370 = phi i32 [ 4, %233 ], [ 4, %231 ], [ 3, %211 ], [ 3, %198 ], [ 2, %194 ], [ %364, %363 ], [ 4, %367 ], [ %188, %365 ]
  %371 = phi i32 [ %189, %233 ], [ %189, %231 ], [ %223, %211 ], [ 1000, %198 ], [ %189, %194 ], [ %189, %363 ], [ %189, %367 ], [ %189, %365 ]
  %372 = getelementptr inbounds %"class.base::BasicStringPiece", %"class.base::BasicStringPiece"* %190, i64 1
  %373 = icmp eq %"class.base::BasicStringPiece"* %372, %144
  br i1 %373, label %374, label %187

374:                                              ; preds = %369, %363
  %375 = bitcast %"class.std::__1::vector"* %11 to <2 x i64>*
  %376 = load <2 x i64>, <2 x i64>* %375, align 16
  %377 = bitcast %"struct.google_apis::drive::MultipartHttpResponse"** %138 to i64*
  %378 = load i64, i64* %377, align 16
  %379 = load i8, i8* %151, align 1
  %380 = icmp slt i8 %379, 0
  br label %381

381:                                              ; preds = %146, %374
  %382 = phi i64* [ %148, %146 ], [ %377, %374 ]
  %383 = phi i64* [ %147, %146 ], [ %169, %374 ]
  %384 = phi i1 [ false, %146 ], [ %380, %374 ]
  %385 = phi i64 [ 0, %146 ], [ %378, %374 ]
  %386 = phi <2 x i64> [ zeroinitializer, %146 ], [ %376, %374 ]
  %387 = bitcast %"class.std::__1::vector"* %11 to i64*
  %388 = bitcast %"class.std::__1::vector"* %2 to i64*
  %389 = load i64, i64* %388, align 8
  store i64 %389, i64* %387, align 16
  %390 = getelementptr inbounds %"class.std::__1::vector", %"class.std::__1::vector"* %2, i64 0, i32 0, i32 1
  %391 = bitcast %"struct.google_apis::drive::MultipartHttpResponse"** %390 to i64*
  %392 = load i64, i64* %391, align 8
  %393 = bitcast %"class.std::__1::vector"* %2 to <2 x i64>*
  store <2 x i64> %386, <2 x i64>* %393, align 8
  store i64 %392, i64* %383, align 8
  %394 = getelementptr inbounds %"class.std::__1::vector", %"class.std::__1::vector"* %2, i64 0, i32 0, i32 2, i32 0, i32 0
  %395 = bitcast %"struct.google_apis::drive::MultipartHttpResponse"** %394 to i64*
  %396 = load i64, i64* %395, align 8
  store i64 %385, i64* %395, align 8
  store i64 %396, i64* %382, align 8
  %397 = inttoptr i64 %389 to %"struct.google_apis::drive::MultipartHttpResponse"*
  br i1 %384, label %398, label %401

398:                                              ; preds = %381
  %399 = load i8*, i8** %140, align 16
  call void @_ZdlPv(i8* %399) #17
  %400 = load %"struct.google_apis::drive::MultipartHttpResponse"*, %"struct.google_apis::drive::MultipartHttpResponse"** %136, align 16
  br label %401

401:                                              ; preds = %381, %398
  %402 = phi %"struct.google_apis::drive::MultipartHttpResponse"* [ %397, %381 ], [ %400, %398 ]
  call void @llvm.lifetime.end.p0i8(i64 24, i8* nonnull %139) #16
  %403 = icmp eq %"struct.google_apis::drive::MultipartHttpResponse"* %402, null
  br i1 %403, label %426, label %404

404:                                              ; preds = %401
  %405 = bitcast %"struct.google_apis::drive::MultipartHttpResponse"* %402 to i8*
  %406 = load %"struct.google_apis::drive::MultipartHttpResponse"*, %"struct.google_apis::drive::MultipartHttpResponse"** %137, align 8
  %407 = icmp eq %"struct.google_apis::drive::MultipartHttpResponse"* %406, %402
  br i1 %407, label %424, label %408

408:                                              ; preds = %404, %419
  %409 = phi %"struct.google_apis::drive::MultipartHttpResponse"* [ %410, %419 ], [ %406, %404 ]
  %410 = getelementptr inbounds %"struct.google_apis::drive::MultipartHttpResponse", %"struct.google_apis::drive::MultipartHttpResponse"* %409, i64 -1
  %411 = getelementptr inbounds %"struct.google_apis::drive::MultipartHttpResponse", %"struct.google_apis::drive::MultipartHttpResponse"* %409, i64 -1, i32 1
  %412 = bitcast %"class.std::__1::basic_string"* %411 to %"struct.std::__1::basic_string<char, std::__1::char_traits<char>, std::__1::allocator<char> >::__short"*
  %413 = getelementptr inbounds %"struct.std::__1::basic_string<char, std::__1::char_traits<char>, std::__1::allocator<char> >::__short", %"struct.std::__1::basic_string<char, std::__1::char_traits<char>, std::__1::allocator<char> >::__short"* %412, i64 0, i32 1, i32 0
  %414 = load i8, i8* %413, align 1
  %415 = icmp slt i8 %414, 0
  br i1 %415, label %416, label %419

416:                                              ; preds = %408
  %417 = getelementptr inbounds %"class.std::__1::basic_string", %"class.std::__1::basic_string"* %411, i64 0, i32 0, i32 0, i32 0, i32 0, i32 0, i32 0
  %418 = load i8*, i8** %417, align 8
  call void @_ZdlPv(i8* %418) #17
  br label %419

419:                                              ; preds = %416, %408
  %420 = icmp eq %"struct.google_apis::drive::MultipartHttpResponse"* %410, %402
  br i1 %420, label %421, label %408

421:                                              ; preds = %419
  %422 = bitcast %"class.std::__1::vector"* %11 to i8**
  %423 = load i8*, i8** %422, align 16
  br label %424

424:                                              ; preds = %421, %404
  %425 = phi i8* [ %423, %421 ], [ %405, %404 ]
  store %"struct.google_apis::drive::MultipartHttpResponse"* %402, %"struct.google_apis::drive::MultipartHttpResponse"** %137, align 8
  call void @_ZdlPv(i8* %425) #17
  br label %426

426:                                              ; preds = %401, %424
  call void @llvm.lifetime.end.p0i8(i64 24, i8* nonnull %135) #16
  %427 = load i8, i8* %132, align 1
  %428 = icmp slt i8 %427, 0
  br i1 %428, label %429, label %431

429:                                              ; preds = %426
  %430 = load i8*, i8** %129, align 8
  call void @_ZdlPv(i8* %430) #17
  br label %431

431:                                              ; preds = %426, %429
  call void @llvm.lifetime.end.p0i8(i64 24, i8* nonnull %128) #16
  %432 = load %"class.base::BasicStringPiece"*, %"class.base::BasicStringPiece"** %116, align 8
  %433 = icmp eq %"class.base::BasicStringPiece"* %432, null
  br i1 %433, label %438, label %434

434:                                              ; preds = %431
  %435 = ptrtoint %"class.base::BasicStringPiece"* %432 to i64
  %436 = bitcast %"class.base::BasicStringPiece"** %117 to i64*
  store i64 %435, i64* %436, align 8
  %437 = bitcast %"class.base::BasicStringPiece"* %432 to i8*
  call void @_ZdlPv(i8* %437) #17
  br label %438

438:                                              ; preds = %431, %434
  call void @llvm.lifetime.end.p0i8(i64 24, i8* nonnull %115) #16
  %439 = bitcast %"class.std::__1::basic_string"* %7 to %"struct.std::__1::basic_string<char, std::__1::char_traits<char>, std::__1::allocator<char> >::__short"*
  %440 = getelementptr inbounds %"struct.std::__1::basic_string<char, std::__1::char_traits<char>, std::__1::allocator<char> >::__short", %"struct.std::__1::basic_string<char, std::__1::char_traits<char>, std::__1::allocator<char> >::__short"* %439, i64 0, i32 1, i32 0
  %441 = load i8, i8* %440, align 1
  %442 = icmp slt i8 %441, 0
  br i1 %442, label %443, label %445

443:                                              ; preds = %438
  %444 = load i8*, i8** %101, align 8
  call void @_ZdlPv(i8* %444) #17
  br label %445

445:                                              ; preds = %438, %443
  call void @llvm.lifetime.end.p0i8(i64 24, i8* nonnull %100) #16
  %446 = bitcast %"class.std::__1::basic_string"* %6 to %"struct.std::__1::basic_string<char, std::__1::char_traits<char>, std::__1::allocator<char> >::__short"*
  %447 = getelementptr inbounds %"struct.std::__1::basic_string<char, std::__1::char_traits<char>, std::__1::allocator<char> >::__short", %"struct.std::__1::basic_string<char, std::__1::char_traits<char>, std::__1::allocator<char> >::__short"* %446, i64 0, i32 1, i32 0
  %448 = load i8, i8* %447, align 1
  %449 = icmp slt i8 %448, 0
  br i1 %449, label %450, label %452

450:                                              ; preds = %445
  %451 = load i8*, i8** %97, align 8
  call void @_ZdlPv(i8* %451) #17
  br label %452

452:                                              ; preds = %445, %450
  call void @llvm.lifetime.end.p0i8(i64 24, i8* nonnull %96) #16
  %453 = bitcast %"class.std::__1::basic_string"* %5 to %"struct.std::__1::basic_string<char, std::__1::char_traits<char>, std::__1::allocator<char> >::__short"*
  %454 = getelementptr inbounds %"struct.std::__1::basic_string<char, std::__1::char_traits<char>, std::__1::allocator<char> >::__short", %"struct.std::__1::basic_string<char, std::__1::char_traits<char>, std::__1::allocator<char> >::__short"* %453, i64 0, i32 1, i32 0
  %455 = load i8, i8* %454, align 1
  %456 = icmp slt i8 %455, 0
  br i1 %456, label %457, label %459

457:                                              ; preds = %452
  %458 = load i8*, i8** %72, align 8
  call void @_ZdlPv(i8* %458) #17
  br label %459

459:                                              ; preds = %452, %457
  call void @llvm.lifetime.end.p0i8(i64 24, i8* nonnull %71) #16
  br label %460

460:                                              ; preds = %54, %57, %44, %27, %459
  %461 = phi i1 [ true, %459 ], [ false, %27 ], [ false, %44 ], [ false, %57 ], [ false, %54 ]
  call void @llvm.lifetime.end.p0i8(i64 16, i8* nonnull %28) #16
  br label %462

462:                                              ; preds = %3, %460
  %463 = phi i1 [ %461, %460 ], [ false, %3 ]
  ret i1 %463
}

; Function Attrs: argmemonly nounwind
declare void @llvm.lifetime.start.p0i8(i64 immarg, i8* nocapture) #1

declare zeroext i1 @_ZN4base10StartsWithENS_16BasicStringPieceIcNSt3__111char_traitsIcEEEES4_NS_11CompareCaseE(i8*, i64, i8*, i64, i32) local_unnamed_addr #2

; Function Attrs: argmemonly nounwind
declare void @llvm.memcpy.p0i8.p0i8.i64(i8* nocapture writeonly, i8* nocapture readonly, i64, i1 immarg) #1

; Function Attrs: nounwind ssp uwtable
declare void @_ZN4base16BasicStringPieceIcNSt3__111char_traitsIcEEE13remove_prefixEm(%"class.base::BasicStringPiece"*, i64) local_unnamed_addr #0 align 2

; Function Attrs: argmemonly nounwind
declare void @llvm.lifetime.end.p0i8(i64 immarg, i8* nocapture) #1

; Function Attrs: nounwind ssp uwtable
declare { i8*, i64 } @_ZNK4base16BasicStringPieceIcNSt3__111char_traitsIcEEE6substrEmm(%"class.base::BasicStringPiece"*, i64, i64) local_unnamed_addr #0 align 2

declare void @_ZNSt3__1plIcNS_11char_traitsIcEENS_9allocatorIcEEEENS_12basic_stringIT_T0_T1_EEPKS6_RKS9_(%"class.std::__1::basic_string"* sret, i8*, %"class.std::__1::basic_string"* dereferenceable(24)) local_unnamed_addr #2

declare void @_ZN4base27SplitStringPieceUsingSubstrENS_16BasicStringPieceIcNSt3__111char_traitsIcEEEES4_NS_18WhitespaceHandlingENS_11SplitResultE(%"class.std::__1::vector.6"* sret, i8*, i64, i8*, i64, i32, i32) local_unnamed_addr #2

declare zeroext i1 @_ZN4base11StringToIntENS_16BasicStringPieceIcNSt3__111char_traitsIcEEEEPi(i8*, i64, i32*) local_unnamed_addr #2

declare { i8*, i64 } @_ZN4base10TrimStringENS_16BasicStringPieceIcNSt3__111char_traitsIcEEEES4_NS_13TrimPositionsE(i8*, i64, i8*, i64, i32) local_unnamed_addr #2

; Function Attrs: nounwind ssp uwtable
define hidden void @_ZN11google_apis5drive8PropertyC2Ev(%"class.google_apis::drive::Property"* nocapture) unnamed_addr #0 align 2 {
  %2 = getelementptr inbounds %"class.google_apis::drive::Property", %"class.google_apis::drive::Property"* %0, i64 0, i32 0
  store i32 0, i32* %2, align 8
  %3 = getelementptr inbounds %"class.google_apis::drive::Property", %"class.google_apis::drive::Property"* %0, i64 0, i32 1
  %4 = bitcast %"class.std::__1::basic_string"* %3 to i8*
  call void @llvm.memset.p0i8.i64(i8* align 8 %4, i8 0, i64 48, i1 false)
  ret void
}

; Function Attrs: nounwind ssp uwtable
define hidden void @_ZN11google_apis5drive8PropertyD2Ev(%"class.google_apis::drive::Property"* nocapture readonly) unnamed_addr #0 align 2 {
  %2 = getelementptr inbounds %"class.google_apis::drive::Property", %"class.google_apis::drive::Property"* %0, i64 0, i32 2
  %3 = bitcast %"class.std::__1::basic_string"* %2 to %"struct.std::__1::basic_string<char, std::__1::char_traits<char>, std::__1::allocator<char> >::__short"*
  %4 = getelementptr inbounds %"struct.std::__1::basic_string<char, std::__1::char_traits<char>, std::__1::allocator<char> >::__short", %"struct.std::__1::basic_string<char, std::__1::char_traits<char>, std::__1::allocator<char> >::__short"* %3, i64 0, i32 1, i32 0
  %5 = load i8, i8* %4, align 1
  %6 = icmp slt i8 %5, 0
  br i1 %6, label %7, label %10

7:                                                ; preds = %1
  %8 = getelementptr inbounds %"class.std::__1::basic_string", %"class.std::__1::basic_string"* %2, i64 0, i32 0, i32 0, i32 0, i32 0, i32 0, i32 0
  %9 = load i8*, i8** %8, align 8
  tail call void @_ZdlPv(i8* %9) #17
  br label %10

10:                                               ; preds = %1, %7
  %11 = getelementptr inbounds %"class.google_apis::drive::Property", %"class.google_apis::drive::Property"* %0, i64 0, i32 1
  %12 = bitcast %"class.std::__1::basic_string"* %11 to %"struct.std::__1::basic_string<char, std::__1::char_traits<char>, std::__1::allocator<char> >::__short"*
  %13 = getelementptr inbounds %"struct.std::__1::basic_string<char, std::__1::char_traits<char>, std::__1::allocator<char> >::__short", %"struct.std::__1::basic_string<char, std::__1::char_traits<char>, std::__1::allocator<char> >::__short"* %12, i64 0, i32 1, i32 0
  %14 = load i8, i8* %13, align 1
  %15 = icmp slt i8 %14, 0
  br i1 %15, label %16, label %19

16:                                               ; preds = %10
  %17 = getelementptr inbounds %"class.std::__1::basic_string", %"class.std::__1::basic_string"* %11, i64 0, i32 0, i32 0, i32 0, i32 0, i32 0, i32 0
  %18 = load i8*, i8** %17, align 8
  tail call void @_ZdlPv(i8* %18) #17
  br label %19

19:                                               ; preds = %10, %16
  ret void
}

; Function Attrs: nounwind ssp uwtable
define hidden void @_ZN11google_apis5drive27DriveApiPartialFieldRequestC2EPNS_13RequestSenderE(%"class.google_apis::drive::DriveApiPartialFieldRequest"*, %"class.google_apis::RequestSender"*) unnamed_addr #0 align 2 {
  %3 = alloca %"class.base::RepeatingCallback.42", align 8
  %4 = alloca %"class.base::RepeatingCallback.42", align 8
  %5 = getelementptr inbounds %"class.google_apis::drive::DriveApiPartialFieldRequest", %"class.google_apis::drive::DriveApiPartialFieldRequest"* %0, i64 0, i32 0
  %6 = getelementptr inbounds %"class.base::RepeatingCallback.42", %"class.base::RepeatingCallback.42"* %3, i64 0, i32 0, i32 0, i32 0, i32 0
  store %"class.base::internal::BindStateBase"* null, %"class.base::internal::BindStateBase"** %6, align 8
  %7 = getelementptr inbounds %"class.base::RepeatingCallback.42", %"class.base::RepeatingCallback.42"* %4, i64 0, i32 0, i32 0, i32 0, i32 0
  store %"class.base::internal::BindStateBase"* null, %"class.base::internal::BindStateBase"** %7, align 8
  call void @_ZN11google_apis19UrlFetchRequestBaseC2EPNS_13RequestSenderEN4base17RepeatingCallbackIFvllEEES6_(%"class.google_apis::UrlFetchRequestBase"* %5, %"class.google_apis::RequestSender"* %1, %"class.base::RepeatingCallback.42"* nonnull %3, %"class.base::RepeatingCallback.42"* nonnull %4) #16
  %8 = getelementptr inbounds %"class.base::RepeatingCallback.42", %"class.base::RepeatingCallback.42"* %4, i64 0, i32 0, i32 0
  call void @_ZN4base8internal12CallbackBaseD2Ev(%"class.base::internal::CallbackBase"* nonnull %8) #16
  %9 = getelementptr inbounds %"class.base::RepeatingCallback.42", %"class.base::RepeatingCallback.42"* %3, i64 0, i32 0, i32 0
  call void @_ZN4base8internal12CallbackBaseD2Ev(%"class.base::internal::CallbackBase"* nonnull %9) #16
  %10 = bitcast %"class.google_apis::drive::DriveApiPartialFieldRequest"* %0 to <2 x i32 (...)**>*
  store <2 x i32 (...)**> <i32 (...)** bitcast (i8** getelementptr inbounds ({ [21 x i8*], [7 x i8*] }, { [21 x i8*], [7 x i8*] }* @_ZTVN11google_apis5drive27DriveApiPartialFieldRequestE, i64 0, inrange i32 0, i64 2) to i32 (...)**), i32 (...)** bitcast (i8** getelementptr inbounds ({ [21 x i8*], [7 x i8*] }, { [21 x i8*], [7 x i8*] }* @_ZTVN11google_apis5drive27DriveApiPartialFieldRequestE, i64 0, inrange i32 1, i64 2) to i32 (...)**)>, <2 x i32 (...)**>* %10, align 8
  %11 = getelementptr inbounds %"class.google_apis::drive::DriveApiPartialFieldRequest", %"class.google_apis::drive::DriveApiPartialFieldRequest"* %0, i64 0, i32 1
  %12 = bitcast %"class.std::__1::basic_string"* %11 to i8*
  call void @llvm.memset.p0i8.i64(i8* align 8 %12, i8 0, i64 24, i1 false) #16
  ret void
}

; Function Attrs: argmemonly nounwind
declare void @llvm.memset.p0i8.i64(i8* nocapture writeonly, i8, i64, i1 immarg) #1

declare void @_ZN11google_apis19UrlFetchRequestBaseC2EPNS_13RequestSenderEN4base17RepeatingCallbackIFvllEEES6_(%"class.google_apis::UrlFetchRequestBase"*, %"class.google_apis::RequestSender"*, %"class.base::RepeatingCallback.42"*, %"class.base::RepeatingCallback.42"*) unnamed_addr #2

; Function Attrs: nounwind ssp uwtable
define hidden void @_ZN11google_apis5drive27DriveApiPartialFieldRequestD2Ev(%"class.google_apis::drive::DriveApiPartialFieldRequest"*) unnamed_addr #0 align 2 {
  %2 = bitcast %"class.google_apis::drive::DriveApiPartialFieldRequest"* %0 to <2 x i32 (...)**>*
  store <2 x i32 (...)**> <i32 (...)** bitcast (i8** getelementptr inbounds ({ [21 x i8*], [7 x i8*] }, { [21 x i8*], [7 x i8*] }* @_ZTVN11google_apis5drive27DriveApiPartialFieldRequestE, i64 0, inrange i32 0, i64 2) to i32 (...)**), i32 (...)** bitcast (i8** getelementptr inbounds ({ [21 x i8*], [7 x i8*] }, { [21 x i8*], [7 x i8*] }* @_ZTVN11google_apis5drive27DriveApiPartialFieldRequestE, i64 0, inrange i32 1, i64 2) to i32 (...)**)>, <2 x i32 (...)**>* %2, align 8
  %3 = getelementptr inbounds %"class.google_apis::drive::DriveApiPartialFieldRequest", %"class.google_apis::drive::DriveApiPartialFieldRequest"* %0, i64 0, i32 1
  %4 = bitcast %"class.std::__1::basic_string"* %3 to %"struct.std::__1::basic_string<char, std::__1::char_traits<char>, std::__1::allocator<char> >::__short"*
  %5 = getelementptr inbounds %"struct.std::__1::basic_string<char, std::__1::char_traits<char>, std::__1::allocator<char> >::__short", %"struct.std::__1::basic_string<char, std::__1::char_traits<char>, std::__1::allocator<char> >::__short"* %4, i64 0, i32 1, i32 0
  %6 = load i8, i8* %5, align 1
  %7 = icmp slt i8 %6, 0
  br i1 %7, label %8, label %11

8:                                                ; preds = %1
  %9 = getelementptr inbounds %"class.std::__1::basic_string", %"class.std::__1::basic_string"* %3, i64 0, i32 0, i32 0, i32 0, i32 0, i32 0, i32 0
  %10 = load i8*, i8** %9, align 8
  tail call void @_ZdlPv(i8* %10) #17
  br label %11

11:                                               ; preds = %1, %8
  %12 = getelementptr inbounds %"class.google_apis::drive::DriveApiPartialFieldRequest", %"class.google_apis::drive::DriveApiPartialFieldRequest"* %0, i64 0, i32 0
  tail call void @_ZN11google_apis19UrlFetchRequestBaseD2Ev(%"class.google_apis::UrlFetchRequestBase"* %12) #16
  ret void
}

; Function Attrs: nounwind
declare void @_ZN11google_apis19UrlFetchRequestBaseD2Ev(%"class.google_apis::UrlFetchRequestBase"*) unnamed_addr #3

; Function Attrs: nounwind ssp uwtable
define hidden void @_ZThn8_N11google_apis5drive27DriveApiPartialFieldRequestD1Ev(%"class.google_apis::drive::DriveApiPartialFieldRequest"*) unnamed_addr #0 align 2 {
  %2 = getelementptr inbounds %"class.google_apis::drive::DriveApiPartialFieldRequest", %"class.google_apis::drive::DriveApiPartialFieldRequest"* %0, i64 -1, i32 1, i32 0, i32 0, i32 0, i32 0, i32 0, i32 2
  %3 = bitcast i64* %2 to <2 x i32 (...)**>*
  store <2 x i32 (...)**> <i32 (...)** bitcast (i8** getelementptr inbounds ({ [21 x i8*], [7 x i8*] }, { [21 x i8*], [7 x i8*] }* @_ZTVN11google_apis5drive27DriveApiPartialFieldRequestE, i64 0, inrange i32 0, i64 2) to i32 (...)**), i32 (...)** bitcast (i8** getelementptr inbounds ({ [21 x i8*], [7 x i8*] }, { [21 x i8*], [7 x i8*] }* @_ZTVN11google_apis5drive27DriveApiPartialFieldRequestE, i64 0, inrange i32 1, i64 2) to i32 (...)**)>, <2 x i32 (...)**>* %3, align 8
  %4 = getelementptr inbounds i64, i64* %2, i64 14
  %5 = bitcast i64* %4 to %"struct.std::__1::basic_string<char, std::__1::char_traits<char>, std::__1::allocator<char> >::__short"*
  %6 = getelementptr inbounds %"struct.std::__1::basic_string<char, std::__1::char_traits<char>, std::__1::allocator<char> >::__short", %"struct.std::__1::basic_string<char, std::__1::char_traits<char>, std::__1::allocator<char> >::__short"* %5, i64 0, i32 1, i32 0
  %7 = load i8, i8* %6, align 1
  %8 = icmp slt i8 %7, 0
  br i1 %8, label %9, label %12

9:                                                ; preds = %1
  %10 = bitcast i64* %4 to i8**
  %11 = load i8*, i8** %10, align 8
  tail call void @_ZdlPv(i8* %11) #17
  br label %12

12:                                               ; preds = %1, %9
  %13 = bitcast i64* %2 to %"class.google_apis::UrlFetchRequestBase"*
  tail call void @_ZN11google_apis19UrlFetchRequestBaseD2Ev(%"class.google_apis::UrlFetchRequestBase"* %13) #16
  ret void
}

; Function Attrs: noreturn nounwind ssp uwtable
define hidden void @_ZN11google_apis5drive27DriveApiPartialFieldRequestD0Ev(%"class.google_apis::drive::DriveApiPartialFieldRequest"* nocapture readnone) unnamed_addr #4 align 2 {
  tail call void @llvm.trap() #18
  unreachable
}

; Function Attrs: cold noreturn nounwind
declare void @llvm.trap() #5

; Function Attrs: noreturn nounwind ssp uwtable
define hidden void @_ZThn8_N11google_apis5drive27DriveApiPartialFieldRequestD0Ev(%"class.google_apis::drive::DriveApiPartialFieldRequest"* nocapture readnone) unnamed_addr #4 align 2 {
  tail call void @llvm.trap() #18
  unreachable
}

; Function Attrs: nounwind ssp uwtable
define hidden void @_ZNK11google_apis5drive27DriveApiPartialFieldRequest6GetURLEv(%class.GURL* noalias sret, %"class.google_apis::drive::DriveApiPartialFieldRequest"*) unnamed_addr #0 align 2 {
  %3 = alloca %class.GURL, align 8
  %4 = alloca %"class.std::__1::basic_string", align 8
  %5 = bitcast %class.GURL* %0 to i8*
  tail call void @llvm.memset.p0i8.i64(i8* align 8 %5, i8 -86, i64 120, i1 false)
  %6 = bitcast %"class.google_apis::drive::DriveApiPartialFieldRequest"* %1 to void (%class.GURL*, %"class.google_apis::drive::DriveApiPartialFieldRequest"*)***
  %7 = load void (%class.GURL*, %"class.google_apis::drive::DriveApiPartialFieldRequest"*)**, void (%class.GURL*, %"class.google_apis::drive::DriveApiPartialFieldRequest"*)*** %6, align 8
  %8 = getelementptr inbounds void (%class.GURL*, %"class.google_apis::drive::DriveApiPartialFieldRequest"*)*, void (%class.GURL*, %"class.google_apis::drive::DriveApiPartialFieldRequest"*)** %7, i64 18
  %9 = load void (%class.GURL*, %"class.google_apis::drive::DriveApiPartialFieldRequest"*)*, void (%class.GURL*, %"class.google_apis::drive::DriveApiPartialFieldRequest"*)** %8, align 8
  tail call void %9(%class.GURL* sret %0, %"class.google_apis::drive::DriveApiPartialFieldRequest"* %1) #16
  %10 = getelementptr inbounds %"class.google_apis::drive::DriveApiPartialFieldRequest", %"class.google_apis::drive::DriveApiPartialFieldRequest"* %1, i64 0, i32 1
  %11 = bitcast %"class.std::__1::basic_string"* %10 to %"struct.std::__1::basic_string<char, std::__1::char_traits<char>, std::__1::allocator<char> >::__short"*
  %12 = getelementptr inbounds %"struct.std::__1::basic_string<char, std::__1::char_traits<char>, std::__1::allocator<char> >::__short", %"struct.std::__1::basic_string<char, std::__1::char_traits<char>, std::__1::allocator<char> >::__short"* %11, i64 0, i32 1, i32 0
  %13 = load i8, i8* %12, align 1
  %14 = icmp slt i8 %13, 0
  br i1 %14, label %15, label %18

15:                                               ; preds = %2
  %16 = getelementptr inbounds %"class.google_apis::drive::DriveApiPartialFieldRequest", %"class.google_apis::drive::DriveApiPartialFieldRequest"* %1, i64 0, i32 1, i32 0, i32 0, i32 0, i32 0, i32 0, i32 1
  %17 = load i64, i64* %16, align 8
  br label %20

18:                                               ; preds = %2
  %19 = zext i8 %13 to i64
  br label %20

20:                                               ; preds = %15, %18
  %21 = phi i64 [ %17, %15 ], [ %19, %18 ]
  %22 = icmp eq i64 %21, 0
  br i1 %22, label %36, label %23

23:                                               ; preds = %20
  %24 = bitcast %class.GURL* %3 to i8*
  call void @llvm.lifetime.start.p0i8(i64 120, i8* nonnull %24) #16
  %25 = bitcast %"class.std::__1::basic_string"* %4 to i8*
  call void @llvm.lifetime.start.p0i8(i64 24, i8* nonnull %25) #16
  %26 = bitcast %"class.std::__1::basic_string"* %4 to %"struct.std::__1::basic_string<char, std::__1::char_traits<char>, std::__1::allocator<char> >::__short"*
  %27 = getelementptr inbounds %"struct.std::__1::basic_string<char, std::__1::char_traits<char>, std::__1::allocator<char> >::__short", %"struct.std::__1::basic_string<char, std::__1::char_traits<char>, std::__1::allocator<char> >::__short"* %26, i64 0, i32 1, i32 0
  store i8 6, i8* %27, align 1
  call void @llvm.memcpy.p0i8.p0i8.i64(i8* nonnull align 8 %25, i8* align 1 getelementptr inbounds ([7 x i8], [7 x i8]* @.str.3, i64 0, i64 0), i64 6, i1 false) #16
  %28 = getelementptr inbounds i8, i8* %25, i64 6
  store i8 0, i8* %28, align 2
  call void @_ZN3net29AppendOrReplaceQueryParameterERK4GURLRKNSt3__112basic_stringIcNS3_11char_traitsIcEENS3_9allocatorIcEEEESB_(%class.GURL* nonnull sret %3, %class.GURL* dereferenceable(120) %0, %"class.std::__1::basic_string"* nonnull dereferenceable(24) %4, %"class.std::__1::basic_string"* dereferenceable(24) %10) #16
  %29 = call dereferenceable(120) %class.GURL* @_ZN4GURLaSEOS_(%class.GURL* %0, %class.GURL* nonnull dereferenceable(120) %3) #16
  call void @_ZN4GURLD1Ev(%class.GURL* nonnull %3) #16
  %30 = load i8, i8* %27, align 1
  %31 = icmp slt i8 %30, 0
  br i1 %31, label %32, label %35

32:                                               ; preds = %23
  %33 = getelementptr inbounds %"class.std::__1::basic_string", %"class.std::__1::basic_string"* %4, i64 0, i32 0, i32 0, i32 0, i32 0, i32 0, i32 0
  %34 = load i8*, i8** %33, align 8
  call void @_ZdlPv(i8* %34) #17
  br label %35

35:                                               ; preds = %23, %32
  call void @llvm.lifetime.end.p0i8(i64 24, i8* nonnull %25) #16
  call void @llvm.lifetime.end.p0i8(i64 120, i8* nonnull %24) #16
  br label %36

36:                                               ; preds = %20, %35
  ret void
}

declare void @_ZN3net29AppendOrReplaceQueryParameterERK4GURLRKNSt3__112basic_stringIcNS3_11char_traitsIcEENS3_9allocatorIcEEEESB_(%class.GURL* sret, %class.GURL* dereferenceable(120), %"class.std::__1::basic_string"* dereferenceable(24), %"class.std::__1::basic_string"* dereferenceable(24)) local_unnamed_addr #2

; Function Attrs: nounwind
declare dereferenceable(120) %class.GURL* @_ZN4GURLaSEOS_(%class.GURL*, %class.GURL* dereferenceable(120)) local_unnamed_addr #3

; Function Attrs: nounwind
declare void @_ZN4GURLD1Ev(%class.GURL*) unnamed_addr #3

; Function Attrs: nounwind ssp uwtable
define hidden void @_ZN11google_apis5drive15FilesGetRequestC2EPNS_13RequestSenderERKNS_20DriveApiUrlGeneratorEN4base12OnceCallbackIFvNS_17DriveApiErrorCodeENSt3__110unique_ptrINS_12FileResourceENSA_14default_deleteISC_EEEEEEE(%"class.google_apis::drive::FilesGetRequest"*, %"class.google_apis::RequestSender"*, %"class.google_apis::DriveApiUrlGenerator"* dereferenceable(360), %"class.base::OnceCallback"* nocapture) unnamed_addr #0 align 2 {
  %5 = alloca %"class.base::RepeatingCallback.42", align 8
  %6 = alloca %"class.base::RepeatingCallback.42", align 8
  %7 = alloca %"class.base::OnceCallback", align 8
  %8 = getelementptr inbounds %"class.base::OnceCallback", %"class.base::OnceCallback"* %3, i64 0, i32 0, i32 0, i32 0
  %9 = bitcast %"class.base::OnceCallback"* %3 to i64*
  %10 = load i64, i64* %9, align 8
  store %"class.base::internal::BindStateBase"* null, %"class.base::internal::BindStateBase"** %8, align 8
  %11 = bitcast %"class.base::RepeatingCallback.42"* %5 to i8*
  call void @llvm.lifetime.start.p0i8(i64 8, i8* nonnull %11) #16
  %12 = bitcast %"class.base::RepeatingCallback.42"* %6 to i8*
  call void @llvm.lifetime.start.p0i8(i64 8, i8* nonnull %12) #16
  %13 = getelementptr inbounds %"class.google_apis::drive::FilesGetRequest", %"class.google_apis::drive::FilesGetRequest"* %0, i64 0, i32 0, i32 0, i32 0
  %14 = getelementptr inbounds %"class.base::RepeatingCallback.42", %"class.base::RepeatingCallback.42"* %5, i64 0, i32 0, i32 0, i32 0, i32 0
  store %"class.base::internal::BindStateBase"* null, %"class.base::internal::BindStateBase"** %14, align 8
  %15 = getelementptr inbounds %"class.base::RepeatingCallback.42", %"class.base::RepeatingCallback.42"* %6, i64 0, i32 0, i32 0, i32 0, i32 0
  store %"class.base::internal::BindStateBase"* null, %"class.base::internal::BindStateBase"** %15, align 8
  call void @_ZN11google_apis19UrlFetchRequestBaseC2EPNS_13RequestSenderEN4base17RepeatingCallbackIFvllEEES6_(%"class.google_apis::UrlFetchRequestBase"* %13, %"class.google_apis::RequestSender"* %1, %"class.base::RepeatingCallback.42"* nonnull %5, %"class.base::RepeatingCallback.42"* nonnull %6) #16
  %16 = getelementptr inbounds %"class.base::RepeatingCallback.42", %"class.base::RepeatingCallback.42"* %6, i64 0, i32 0, i32 0
  call void @_ZN4base8internal12CallbackBaseD2Ev(%"class.base::internal::CallbackBase"* nonnull %16) #16
  %17 = getelementptr inbounds %"class.base::RepeatingCallback.42", %"class.base::RepeatingCallback.42"* %5, i64 0, i32 0, i32 0
  call void @_ZN4base8internal12CallbackBaseD2Ev(%"class.base::internal::CallbackBase"* nonnull %17) #16
  %18 = getelementptr inbounds %"class.google_apis::drive::FilesGetRequest", %"class.google_apis::drive::FilesGetRequest"* %0, i64 0, i32 0, i32 0, i32 1
  %19 = bitcast %"class.std::__1::basic_string"* %18 to i8*
  call void @llvm.memset.p0i8.i64(i8* align 8 %19, i8 0, i64 24, i1 false) #16
  call void @llvm.lifetime.end.p0i8(i64 8, i8* nonnull %11) #16
  call void @llvm.lifetime.end.p0i8(i64 8, i8* nonnull %12) #16
  %20 = bitcast %"class.google_apis::drive::FilesGetRequest"* %0 to <2 x i32 (...)**>*
  store <2 x i32 (...)**> <i32 (...)** bitcast (i8** getelementptr inbounds ({ [21 x i8*], [7 x i8*] }, { [21 x i8*], [7 x i8*] }* @_ZTVN11google_apis5drive19DriveApiDataRequestINS_12FileResourceEEE, i64 0, inrange i32 0, i64 2) to i32 (...)**), i32 (...)** bitcast (i8** getelementptr inbounds ({ [21 x i8*], [7 x i8*] }, { [21 x i8*], [7 x i8*] }* @_ZTVN11google_apis5drive19DriveApiDataRequestINS_12FileResourceEEE, i64 0, inrange i32 1, i64 2) to i32 (...)**)>, <2 x i32 (...)**>* %20, align 8
  %21 = getelementptr inbounds %"class.google_apis::drive::FilesGetRequest", %"class.google_apis::drive::FilesGetRequest"* %0, i64 0, i32 0, i32 1
  %22 = getelementptr inbounds %"class.base::OnceCallback", %"class.base::OnceCallback"* %7, i64 0, i32 0, i32 0, i32 0
  %23 = bitcast %"class.base::OnceCallback"* %21 to i64*
  store i64 %10, i64* %23, align 8
  store %"class.base::internal::BindStateBase"* null, %"class.base::internal::BindStateBase"** %22, align 8
  %24 = getelementptr inbounds %"class.google_apis::drive::FilesGetRequest", %"class.google_apis::drive::FilesGetRequest"* %0, i64 0, i32 0, i32 2, i32 0
  %25 = ptrtoint %"class.google_apis::drive::FilesGetRequest"* %0 to i64
  call void @_ZN4base8internal18WeakPtrFactoryBaseC2Em(%"class.base::internal::WeakPtrFactoryBase"* %24, i64 %25) #16
  %26 = getelementptr inbounds %"class.base::OnceCallback", %"class.base::OnceCallback"* %7, i64 0, i32 0
  call void @_ZN4base8internal12CallbackBaseD2Ev(%"class.base::internal::CallbackBase"* nonnull %26) #16
  %27 = bitcast %"class.google_apis::drive::FilesGetRequest"* %0 to <2 x i32 (...)**>*
  store <2 x i32 (...)**> <i32 (...)** bitcast (i8** getelementptr inbounds ({ [21 x i8*], [7 x i8*] }, { [21 x i8*], [7 x i8*] }* @_ZTVN11google_apis5drive15FilesGetRequestE, i64 0, inrange i32 0, i64 2) to i32 (...)**), i32 (...)** bitcast (i8** getelementptr inbounds ({ [21 x i8*], [7 x i8*] }, { [21 x i8*], [7 x i8*] }* @_ZTVN11google_apis5drive15FilesGetRequestE, i64 0, inrange i32 1, i64 2) to i32 (...)**)>, <2 x i32 (...)**>* %27, align 8
  %28 = getelementptr inbounds %"class.google_apis::drive::FilesGetRequest", %"class.google_apis::drive::FilesGetRequest"* %0, i64 0, i32 1
  call void @_ZN11google_apis20DriveApiUrlGeneratorC1ERKS0_(%"class.google_apis::DriveApiUrlGenerator"* %28, %"class.google_apis::DriveApiUrlGenerator"* dereferenceable(360) %2) #16
  %29 = getelementptr inbounds %"class.google_apis::drive::FilesGetRequest", %"class.google_apis::drive::FilesGetRequest"* %0, i64 0, i32 2
  %30 = bitcast %"class.std::__1::basic_string"* %29 to i8*
  call void @llvm.memset.p0i8.i64(i8* align 8 %30, i8 0, i64 24, i1 false) #16
  %31 = getelementptr inbounds %"class.google_apis::drive::FilesGetRequest", %"class.google_apis::drive::FilesGetRequest"* %0, i64 0, i32 3
  call void @_ZN4GURLC1Ev(%class.GURL* %31) #16
  ret void
}

declare void @_ZN11google_apis20DriveApiUrlGeneratorC1ERKS0_(%"class.google_apis::DriveApiUrlGenerator"*, %"class.google_apis::DriveApiUrlGenerator"* dereferenceable(360)) unnamed_addr #2

declare void @_ZN4GURLC1Ev(%class.GURL*) unnamed_addr #2

; Function Attrs: nounwind ssp uwtable
define hidden void @_ZN11google_apis5drive15FilesGetRequestD2Ev(%"class.google_apis::drive::FilesGetRequest"*) unnamed_addr #0 align 2 {
  %2 = bitcast %"class.google_apis::drive::FilesGetRequest"* %0 to <2 x i32 (...)**>*
  store <2 x i32 (...)**> <i32 (...)** bitcast (i8** getelementptr inbounds ({ [21 x i8*], [7 x i8*] }, { [21 x i8*], [7 x i8*] }* @_ZTVN11google_apis5drive15FilesGetRequestE, i64 0, inrange i32 0, i64 2) to i32 (...)**), i32 (...)** bitcast (i8** getelementptr inbounds ({ [21 x i8*], [7 x i8*] }, { [21 x i8*], [7 x i8*] }* @_ZTVN11google_apis5drive15FilesGetRequestE, i64 0, inrange i32 1, i64 2) to i32 (...)**)>, <2 x i32 (...)**>* %2, align 8
  %3 = getelementptr inbounds %"class.google_apis::drive::FilesGetRequest", %"class.google_apis::drive::FilesGetRequest"* %0, i64 0, i32 3
  tail call void @_ZN4GURLD1Ev(%class.GURL* %3) #16
  %4 = getelementptr inbounds %"class.google_apis::drive::FilesGetRequest", %"class.google_apis::drive::FilesGetRequest"* %0, i64 0, i32 2
  %5 = bitcast %"class.std::__1::basic_string"* %4 to %"struct.std::__1::basic_string<char, std::__1::char_traits<char>, std::__1::allocator<char> >::__short"*
  %6 = getelementptr inbounds %"struct.std::__1::basic_string<char, std::__1::char_traits<char>, std::__1::allocator<char> >::__short", %"struct.std::__1::basic_string<char, std::__1::char_traits<char>, std::__1::allocator<char> >::__short"* %5, i64 0, i32 1, i32 0
  %7 = load i8, i8* %6, align 1
  %8 = icmp slt i8 %7, 0
  br i1 %8, label %9, label %12

9:                                                ; preds = %1
  %10 = getelementptr inbounds %"class.std::__1::basic_string", %"class.std::__1::basic_string"* %4, i64 0, i32 0, i32 0, i32 0, i32 0, i32 0, i32 0
  %11 = load i8*, i8** %10, align 8
  tail call void @_ZdlPv(i8* %11) #17
  br label %12

12:                                               ; preds = %1, %9
  %13 = getelementptr inbounds %"class.google_apis::drive::FilesGetRequest", %"class.google_apis::drive::FilesGetRequest"* %0, i64 0, i32 1
  tail call void @_ZN11google_apis20DriveApiUrlGeneratorD1Ev(%"class.google_apis::DriveApiUrlGenerator"* %13) #16
  %14 = bitcast %"class.google_apis::drive::FilesGetRequest"* %0 to <2 x i32 (...)**>*
  store <2 x i32 (...)**> <i32 (...)** bitcast (i8** getelementptr inbounds ({ [21 x i8*], [7 x i8*] }, { [21 x i8*], [7 x i8*] }* @_ZTVN11google_apis5drive19DriveApiDataRequestINS_12FileResourceEEE, i64 0, inrange i32 0, i64 2) to i32 (...)**), i32 (...)** bitcast (i8** getelementptr inbounds ({ [21 x i8*], [7 x i8*] }, { [21 x i8*], [7 x i8*] }* @_ZTVN11google_apis5drive19DriveApiDataRequestINS_12FileResourceEEE, i64 0, inrange i32 1, i64 2) to i32 (...)**)>, <2 x i32 (...)**>* %14, align 8
  %15 = getelementptr inbounds %"class.google_apis::drive::FilesGetRequest", %"class.google_apis::drive::FilesGetRequest"* %0, i64 0, i32 0, i32 2, i32 0
  tail call void @_ZN4base8internal18WeakPtrFactoryBaseD2Ev(%"class.base::internal::WeakPtrFactoryBase"* %15) #16
  %16 = getelementptr inbounds %"class.google_apis::drive::FilesGetRequest", %"class.google_apis::drive::FilesGetRequest"* %0, i64 0, i32 0, i32 1, i32 0
  tail call void @_ZN4base8internal12CallbackBaseD2Ev(%"class.base::internal::CallbackBase"* %16) #16
  %17 = bitcast %"class.google_apis::drive::FilesGetRequest"* %0 to <2 x i32 (...)**>*
  store <2 x i32 (...)**> <i32 (...)** bitcast (i8** getelementptr inbounds ({ [21 x i8*], [7 x i8*] }, { [21 x i8*], [7 x i8*] }* @_ZTVN11google_apis5drive27DriveApiPartialFieldRequestE, i64 0, inrange i32 0, i64 2) to i32 (...)**), i32 (...)** bitcast (i8** getelementptr inbounds ({ [21 x i8*], [7 x i8*] }, { [21 x i8*], [7 x i8*] }* @_ZTVN11google_apis5drive27DriveApiPartialFieldRequestE, i64 0, inrange i32 1, i64 2) to i32 (...)**)>, <2 x i32 (...)**>* %17, align 8
  %18 = getelementptr inbounds %"class.google_apis::drive::FilesGetRequest", %"class.google_apis::drive::FilesGetRequest"* %0, i64 0, i32 0, i32 0, i32 1
  %19 = bitcast %"class.std::__1::basic_string"* %18 to %"struct.std::__1::basic_string<char, std::__1::char_traits<char>, std::__1::allocator<char> >::__short"*
  %20 = getelementptr inbounds %"struct.std::__1::basic_string<char, std::__1::char_traits<char>, std::__1::allocator<char> >::__short", %"struct.std::__1::basic_string<char, std::__1::char_traits<char>, std::__1::allocator<char> >::__short"* %19, i64 0, i32 1, i32 0
  %21 = load i8, i8* %20, align 1
  %22 = icmp slt i8 %21, 0
  br i1 %22, label %23, label %26

23:                                               ; preds = %12
  %24 = getelementptr inbounds %"class.std::__1::basic_string", %"class.std::__1::basic_string"* %18, i64 0, i32 0, i32 0, i32 0, i32 0, i32 0, i32 0
  %25 = load i8*, i8** %24, align 8
  tail call void @_ZdlPv(i8* %25) #17
  br label %26

26:                                               ; preds = %12, %23
  %27 = getelementptr inbounds %"class.google_apis::drive::FilesGetRequest", %"class.google_apis::drive::FilesGetRequest"* %0, i64 0, i32 0, i32 0, i32 0
  tail call void @_ZN11google_apis19UrlFetchRequestBaseD2Ev(%"class.google_apis::UrlFetchRequestBase"* %27) #16
  ret void
}

; Function Attrs: nounwind
declare void @_ZN11google_apis20DriveApiUrlGeneratorD1Ev(%"class.google_apis::DriveApiUrlGenerator"*) unnamed_addr #3

; Function Attrs: nounwind ssp uwtable
define hidden void @_ZThn8_N11google_apis5drive15FilesGetRequestD1Ev(%"class.google_apis::drive::FilesGetRequest"*) unnamed_addr #0 align 2 {
  %2 = getelementptr inbounds %"class.google_apis::drive::FilesGetRequest", %"class.google_apis::drive::FilesGetRequest"* %0, i64 -1, i32 3, i32 3
  %3 = bitcast %"class.std::__1::unique_ptr.51"* %2 to %"class.google_apis::drive::FilesGetRequest"*
  tail call void @_ZN11google_apis5drive15FilesGetRequestD2Ev(%"class.google_apis::drive::FilesGetRequest"* %3) #16
  ret void
}

; Function Attrs: nounwind ssp uwtable
define hidden void @_ZN11google_apis5drive15FilesGetRequestD0Ev(%"class.google_apis::drive::FilesGetRequest"*) unnamed_addr #0 align 2 {
  tail call void @_ZN11google_apis5drive15FilesGetRequestD2Ev(%"class.google_apis::drive::FilesGetRequest"* %0) #16
  %2 = bitcast %"class.google_apis::drive::FilesGetRequest"* %0 to i8*
  tail call void @_ZdlPv(i8* %2) #17
  ret void
}

; Function Attrs: nobuiltin nounwind
declare void @_ZdlPv(i8*) local_unnamed_addr #6

; Function Attrs: nounwind ssp uwtable
define hidden void @_ZThn8_N11google_apis5drive15FilesGetRequestD0Ev(%"class.google_apis::drive::FilesGetRequest"*) unnamed_addr #0 align 2 {
  %2 = getelementptr inbounds %"class.google_apis::drive::FilesGetRequest", %"class.google_apis::drive::FilesGetRequest"* %0, i64 -1, i32 3, i32 3
  %3 = bitcast %"class.std::__1::unique_ptr.51"* %2 to %"class.google_apis::drive::FilesGetRequest"*
  tail call void @_ZN11google_apis5drive15FilesGetRequestD2Ev(%"class.google_apis::drive::FilesGetRequest"* %3) #16
  %4 = bitcast %"class.std::__1::unique_ptr.51"* %2 to i8*
  tail call void @_ZdlPv(i8* %4) #17
  ret void
}

; Function Attrs: nounwind ssp uwtable
define hidden void @_ZNK11google_apis5drive15FilesGetRequest14GetURLInternalEv(%class.GURL* noalias sret, %"class.google_apis::drive::FilesGetRequest"*) unnamed_addr #0 align 2 {
  %3 = getelementptr inbounds %"class.google_apis::drive::FilesGetRequest", %"class.google_apis::drive::FilesGetRequest"* %1, i64 0, i32 1
  %4 = getelementptr inbounds %"class.google_apis::drive::FilesGetRequest", %"class.google_apis::drive::FilesGetRequest"* %1, i64 0, i32 2
  %5 = getelementptr inbounds %"class.google_apis::drive::FilesGetRequest", %"class.google_apis::drive::FilesGetRequest"* %1, i64 0, i32 3
  tail call void @_ZNK11google_apis20DriveApiUrlGenerator14GetFilesGetUrlERKNSt3__112basic_stringIcNS1_11char_traitsIcEENS1_9allocatorIcEEEERK4GURL(%class.GURL* sret %0, %"class.google_apis::DriveApiUrlGenerator"* %3, %"class.std::__1::basic_string"* dereferenceable(24) %4, %class.GURL* dereferenceable(120) %5) #16
  ret void
}

declare void @_ZNK11google_apis20DriveApiUrlGenerator14GetFilesGetUrlERKNSt3__112basic_stringIcNS1_11char_traitsIcEENS1_9allocatorIcEEEERK4GURL(%class.GURL* sret, %"class.google_apis::DriveApiUrlGenerator"*, %"class.std::__1::basic_string"* dereferenceable(24), %class.GURL* dereferenceable(120)) local_unnamed_addr #2

; Function Attrs: nounwind ssp uwtable
define hidden void @_ZN11google_apis5drive18FilesInsertRequestC2EPNS_13RequestSenderERKNS_20DriveApiUrlGeneratorEN4base12OnceCallbackIFvNS_17DriveApiErrorCodeENSt3__110unique_ptrINS_12FileResourceENSA_14default_deleteISC_EEEEEEE(%"class.google_apis::drive::FilesInsertRequest"*, %"class.google_apis::RequestSender"*, %"class.google_apis::DriveApiUrlGenerator"* dereferenceable(360), %"class.base::OnceCallback"* nocapture) unnamed_addr #0 align 2 {
  %5 = alloca %"class.base::RepeatingCallback.42", align 8
  %6 = alloca %"class.base::RepeatingCallback.42", align 8
  %7 = alloca %"class.base::OnceCallback", align 8
  %8 = getelementptr inbounds %"class.base::OnceCallback", %"class.base::OnceCallback"* %3, i64 0, i32 0, i32 0, i32 0
  %9 = bitcast %"class.base::OnceCallback"* %3 to i64*
  %10 = load i64, i64* %9, align 8
  store %"class.base::internal::BindStateBase"* null, %"class.base::internal::BindStateBase"** %8, align 8
  %11 = bitcast %"class.base::RepeatingCallback.42"* %5 to i8*
  call void @llvm.lifetime.start.p0i8(i64 8, i8* nonnull %11) #16
  %12 = bitcast %"class.base::RepeatingCallback.42"* %6 to i8*
  call void @llvm.lifetime.start.p0i8(i64 8, i8* nonnull %12) #16
  %13 = getelementptr inbounds %"class.google_apis::drive::FilesInsertRequest", %"class.google_apis::drive::FilesInsertRequest"* %0, i64 0, i32 0, i32 0, i32 0
  %14 = getelementptr inbounds %"class.base::RepeatingCallback.42", %"class.base::RepeatingCallback.42"* %5, i64 0, i32 0, i32 0, i32 0, i32 0
  store %"class.base::internal::BindStateBase"* null, %"class.base::internal::BindStateBase"** %14, align 8
  %15 = getelementptr inbounds %"class.base::RepeatingCallback.42", %"class.base::RepeatingCallback.42"* %6, i64 0, i32 0, i32 0, i32 0, i32 0
  store %"class.base::internal::BindStateBase"* null, %"class.base::internal::BindStateBase"** %15, align 8
  call void @_ZN11google_apis19UrlFetchRequestBaseC2EPNS_13RequestSenderEN4base17RepeatingCallbackIFvllEEES6_(%"class.google_apis::UrlFetchRequestBase"* %13, %"class.google_apis::RequestSender"* %1, %"class.base::RepeatingCallback.42"* nonnull %5, %"class.base::RepeatingCallback.42"* nonnull %6) #16
  %16 = getelementptr inbounds %"class.base::RepeatingCallback.42", %"class.base::RepeatingCallback.42"* %6, i64 0, i32 0, i32 0
  call void @_ZN4base8internal12CallbackBaseD2Ev(%"class.base::internal::CallbackBase"* nonnull %16) #16
  %17 = getelementptr inbounds %"class.base::RepeatingCallback.42", %"class.base::RepeatingCallback.42"* %5, i64 0, i32 0, i32 0
  call void @_ZN4base8internal12CallbackBaseD2Ev(%"class.base::internal::CallbackBase"* nonnull %17) #16
  %18 = getelementptr inbounds %"class.google_apis::drive::FilesInsertRequest", %"class.google_apis::drive::FilesInsertRequest"* %0, i64 0, i32 0, i32 0, i32 1
  %19 = bitcast %"class.std::__1::basic_string"* %18 to i8*
  call void @llvm.memset.p0i8.i64(i8* align 8 %19, i8 0, i64 24, i1 false) #16
  call void @llvm.lifetime.end.p0i8(i64 8, i8* nonnull %11) #16
  call void @llvm.lifetime.end.p0i8(i64 8, i8* nonnull %12) #16
  %20 = bitcast %"class.google_apis::drive::FilesInsertRequest"* %0 to <2 x i32 (...)**>*
  store <2 x i32 (...)**> <i32 (...)** bitcast (i8** getelementptr inbounds ({ [21 x i8*], [7 x i8*] }, { [21 x i8*], [7 x i8*] }* @_ZTVN11google_apis5drive19DriveApiDataRequestINS_12FileResourceEEE, i64 0, inrange i32 0, i64 2) to i32 (...)**), i32 (...)** bitcast (i8** getelementptr inbounds ({ [21 x i8*], [7 x i8*] }, { [21 x i8*], [7 x i8*] }* @_ZTVN11google_apis5drive19DriveApiDataRequestINS_12FileResourceEEE, i64 0, inrange i32 1, i64 2) to i32 (...)**)>, <2 x i32 (...)**>* %20, align 8
  %21 = getelementptr inbounds %"class.google_apis::drive::FilesInsertRequest", %"class.google_apis::drive::FilesInsertRequest"* %0, i64 0, i32 0, i32 1
  %22 = getelementptr inbounds %"class.base::OnceCallback", %"class.base::OnceCallback"* %7, i64 0, i32 0, i32 0, i32 0
  %23 = bitcast %"class.base::OnceCallback"* %21 to i64*
  store i64 %10, i64* %23, align 8
  store %"class.base::internal::BindStateBase"* null, %"class.base::internal::BindStateBase"** %22, align 8
  %24 = getelementptr inbounds %"class.google_apis::drive::FilesInsertRequest", %"class.google_apis::drive::FilesInsertRequest"* %0, i64 0, i32 0, i32 2, i32 0
  %25 = ptrtoint %"class.google_apis::drive::FilesInsertRequest"* %0 to i64
  call void @_ZN4base8internal18WeakPtrFactoryBaseC2Em(%"class.base::internal::WeakPtrFactoryBase"* %24, i64 %25) #16
  %26 = getelementptr inbounds %"class.base::OnceCallback", %"class.base::OnceCallback"* %7, i64 0, i32 0
  call void @_ZN4base8internal12CallbackBaseD2Ev(%"class.base::internal::CallbackBase"* nonnull %26) #16
  %27 = bitcast %"class.google_apis::drive::FilesInsertRequest"* %0 to <2 x i32 (...)**>*
  store <2 x i32 (...)**> <i32 (...)** bitcast (i8** getelementptr inbounds ({ [21 x i8*], [7 x i8*] }, { [21 x i8*], [7 x i8*] }* @_ZTVN11google_apis5drive18FilesInsertRequestE, i64 0, inrange i32 0, i64 2) to i32 (...)**), i32 (...)** bitcast (i8** getelementptr inbounds ({ [21 x i8*], [7 x i8*] }, { [21 x i8*], [7 x i8*] }* @_ZTVN11google_apis5drive18FilesInsertRequestE, i64 0, inrange i32 1, i64 2) to i32 (...)**)>, <2 x i32 (...)**>* %27, align 8
  %28 = getelementptr inbounds %"class.google_apis::drive::FilesInsertRequest", %"class.google_apis::drive::FilesInsertRequest"* %0, i64 0, i32 1
  call void @_ZN11google_apis20DriveApiUrlGeneratorC1ERKS0_(%"class.google_apis::DriveApiUrlGenerator"* %28, %"class.google_apis::DriveApiUrlGenerator"* dereferenceable(360) %2) #16
  %29 = getelementptr inbounds %"class.google_apis::drive::FilesInsertRequest", %"class.google_apis::drive::FilesInsertRequest"* %0, i64 0, i32 2
  store i32 0, i32* %29, align 8
  %30 = getelementptr inbounds %"class.google_apis::drive::FilesInsertRequest", %"class.google_apis::drive::FilesInsertRequest"* %0, i64 0, i32 3, i32 0, i32 0
  %31 = bitcast i64* %30 to i8*
  call void @llvm.memset.p0i8.i64(i8* align 8 %31, i8 0, i64 112, i1 false)
  ret void
}

; Function Attrs: nounwind ssp uwtable
define hidden void @_ZN11google_apis5drive18FilesInsertRequestD2Ev(%"class.google_apis::drive::FilesInsertRequest"*) unnamed_addr #0 align 2 {
  %2 = bitcast %"class.google_apis::drive::FilesInsertRequest"* %0 to <2 x i32 (...)**>*
  store <2 x i32 (...)**> <i32 (...)** bitcast (i8** getelementptr inbounds ({ [21 x i8*], [7 x i8*] }, { [21 x i8*], [7 x i8*] }* @_ZTVN11google_apis5drive18FilesInsertRequestE, i64 0, inrange i32 0, i64 2) to i32 (...)**), i32 (...)** bitcast (i8** getelementptr inbounds ({ [21 x i8*], [7 x i8*] }, { [21 x i8*], [7 x i8*] }* @_ZTVN11google_apis5drive18FilesInsertRequestE, i64 0, inrange i32 1, i64 2) to i32 (...)**)>, <2 x i32 (...)**>* %2, align 8
  %3 = getelementptr inbounds %"class.google_apis::drive::FilesInsertRequest", %"class.google_apis::drive::FilesInsertRequest"* %0, i64 0, i32 8
  %4 = getelementptr inbounds %"class.std::__1::vector.65", %"class.std::__1::vector.65"* %3, i64 0, i32 0, i32 0
  %5 = load %"class.google_apis::drive::Property"*, %"class.google_apis::drive::Property"** %4, align 8
  %6 = icmp eq %"class.google_apis::drive::Property"* %5, null
  br i1 %6, label %39, label %7

7:                                                ; preds = %1
  %8 = bitcast %"class.google_apis::drive::Property"* %5 to i8*
  %9 = getelementptr inbounds %"class.google_apis::drive::FilesInsertRequest", %"class.google_apis::drive::FilesInsertRequest"* %0, i64 0, i32 8, i32 0, i32 1
  %10 = load %"class.google_apis::drive::Property"*, %"class.google_apis::drive::Property"** %9, align 8
  %11 = icmp eq %"class.google_apis::drive::Property"* %10, %5
  br i1 %11, label %37, label %12

12:                                               ; preds = %7, %32
  %13 = phi %"class.google_apis::drive::Property"* [ %14, %32 ], [ %10, %7 ]
  %14 = getelementptr inbounds %"class.google_apis::drive::Property", %"class.google_apis::drive::Property"* %13, i64 -1
  %15 = getelementptr inbounds %"class.google_apis::drive::Property", %"class.google_apis::drive::Property"* %13, i64 -1, i32 2
  %16 = bitcast %"class.std::__1::basic_string"* %15 to %"struct.std::__1::basic_string<char, std::__1::char_traits<char>, std::__1::allocator<char> >::__short"*
  %17 = getelementptr inbounds %"struct.std::__1::basic_string<char, std::__1::char_traits<char>, std::__1::allocator<char> >::__short", %"struct.std::__1::basic_string<char, std::__1::char_traits<char>, std::__1::allocator<char> >::__short"* %16, i64 0, i32 1, i32 0
  %18 = load i8, i8* %17, align 1
  %19 = icmp slt i8 %18, 0
  br i1 %19, label %20, label %23

20:                                               ; preds = %12
  %21 = getelementptr inbounds %"class.std::__1::basic_string", %"class.std::__1::basic_string"* %15, i64 0, i32 0, i32 0, i32 0, i32 0, i32 0, i32 0
  %22 = load i8*, i8** %21, align 8
  tail call void @_ZdlPv(i8* %22) #17
  br label %23

23:                                               ; preds = %20, %12
  %24 = getelementptr inbounds %"class.google_apis::drive::Property", %"class.google_apis::drive::Property"* %13, i64 -1, i32 1
  %25 = bitcast %"class.std::__1::basic_string"* %24 to %"struct.std::__1::basic_string<char, std::__1::char_traits<char>, std::__1::allocator<char> >::__short"*
  %26 = getelementptr inbounds %"struct.std::__1::basic_string<char, std::__1::char_traits<char>, std::__1::allocator<char> >::__short", %"struct.std::__1::basic_string<char, std::__1::char_traits<char>, std::__1::allocator<char> >::__short"* %25, i64 0, i32 1, i32 0
  %27 = load i8, i8* %26, align 1
  %28 = icmp slt i8 %27, 0
  br i1 %28, label %29, label %32

29:                                               ; preds = %23
  %30 = getelementptr inbounds %"class.std::__1::basic_string", %"class.std::__1::basic_string"* %24, i64 0, i32 0, i32 0, i32 0, i32 0, i32 0, i32 0
  %31 = load i8*, i8** %30, align 8
  tail call void @_ZdlPv(i8* %31) #17
  br label %32

32:                                               ; preds = %29, %23
  %33 = icmp eq %"class.google_apis::drive::Property"* %14, %5
  br i1 %33, label %34, label %12

34:                                               ; preds = %32
  %35 = bitcast %"class.std::__1::vector.65"* %3 to i8**
  %36 = load i8*, i8** %35, align 8
  br label %37

37:                                               ; preds = %34, %7
  %38 = phi i8* [ %36, %34 ], [ %8, %7 ]
  store %"class.google_apis::drive::Property"* %5, %"class.google_apis::drive::Property"** %9, align 8
  tail call void @_ZdlPv(i8* %38) #17
  br label %39

39:                                               ; preds = %1, %37
  %40 = getelementptr inbounds %"class.google_apis::drive::FilesInsertRequest", %"class.google_apis::drive::FilesInsertRequest"* %0, i64 0, i32 7
  %41 = bitcast %"class.std::__1::basic_string"* %40 to %"struct.std::__1::basic_string<char, std::__1::char_traits<char>, std::__1::allocator<char> >::__short"*
  %42 = getelementptr inbounds %"struct.std::__1::basic_string<char, std::__1::char_traits<char>, std::__1::allocator<char> >::__short", %"struct.std::__1::basic_string<char, std::__1::char_traits<char>, std::__1::allocator<char> >::__short"* %41, i64 0, i32 1, i32 0
  %43 = load i8, i8* %42, align 1
  %44 = icmp slt i8 %43, 0
  br i1 %44, label %45, label %48

45:                                               ; preds = %39
  %46 = getelementptr inbounds %"class.std::__1::basic_string", %"class.std::__1::basic_string"* %40, i64 0, i32 0, i32 0, i32 0, i32 0, i32 0, i32 0
  %47 = load i8*, i8** %46, align 8
  tail call void @_ZdlPv(i8* %47) #17
  br label %48

48:                                               ; preds = %39, %45
  %49 = getelementptr inbounds %"class.google_apis::drive::FilesInsertRequest", %"class.google_apis::drive::FilesInsertRequest"* %0, i64 0, i32 6
  %50 = getelementptr inbounds %"class.std::__1::vector.58", %"class.std::__1::vector.58"* %49, i64 0, i32 0, i32 0
  %51 = load %"class.std::__1::basic_string"*, %"class.std::__1::basic_string"** %50, align 8
  %52 = icmp eq %"class.std::__1::basic_string"* %51, null
  br i1 %52, label %75, label %53

53:                                               ; preds = %48
  %54 = bitcast %"class.std::__1::basic_string"* %51 to i8*
  %55 = getelementptr inbounds %"class.google_apis::drive::FilesInsertRequest", %"class.google_apis::drive::FilesInsertRequest"* %0, i64 0, i32 6, i32 0, i32 1
  %56 = load %"class.std::__1::basic_string"*, %"class.std::__1::basic_string"** %55, align 8
  %57 = icmp eq %"class.std::__1::basic_string"* %56, %51
  br i1 %57, label %73, label %58

58:                                               ; preds = %53, %68
  %59 = phi %"class.std::__1::basic_string"* [ %60, %68 ], [ %56, %53 ]
  %60 = getelementptr inbounds %"class.std::__1::basic_string", %"class.std::__1::basic_string"* %59, i64 -1
  %61 = bitcast %"class.std::__1::basic_string"* %60 to %"struct.std::__1::basic_string<char, std::__1::char_traits<char>, std::__1::allocator<char> >::__short"*
  %62 = getelementptr inbounds %"struct.std::__1::basic_string<char, std::__1::char_traits<char>, std::__1::allocator<char> >::__short", %"struct.std::__1::basic_string<char, std::__1::char_traits<char>, std::__1::allocator<char> >::__short"* %61, i64 0, i32 1, i32 0
  %63 = load i8, i8* %62, align 1
  %64 = icmp slt i8 %63, 0
  br i1 %64, label %65, label %68

65:                                               ; preds = %58
  %66 = getelementptr inbounds %"class.std::__1::basic_string", %"class.std::__1::basic_string"* %60, i64 0, i32 0, i32 0, i32 0, i32 0, i32 0, i32 0
  %67 = load i8*, i8** %66, align 8
  tail call void @_ZdlPv(i8* %67) #17
  br label %68

68:                                               ; preds = %65, %58
  %69 = icmp eq %"class.std::__1::basic_string"* %60, %51
  br i1 %69, label %70, label %58

70:                                               ; preds = %68
  %71 = bitcast %"class.std::__1::vector.58"* %49 to i8**
  %72 = load i8*, i8** %71, align 8
  br label %73

73:                                               ; preds = %70, %53
  %74 = phi i8* [ %72, %70 ], [ %54, %53 ]
  store %"class.std::__1::basic_string"* %51, %"class.std::__1::basic_string"** %55, align 8
  tail call void @_ZdlPv(i8* %74) #17
  br label %75

75:                                               ; preds = %48, %73
  %76 = getelementptr inbounds %"class.google_apis::drive::FilesInsertRequest", %"class.google_apis::drive::FilesInsertRequest"* %0, i64 0, i32 4
  %77 = bitcast %"class.std::__1::basic_string"* %76 to %"struct.std::__1::basic_string<char, std::__1::char_traits<char>, std::__1::allocator<char> >::__short"*
  %78 = getelementptr inbounds %"struct.std::__1::basic_string<char, std::__1::char_traits<char>, std::__1::allocator<char> >::__short", %"struct.std::__1::basic_string<char, std::__1::char_traits<char>, std::__1::allocator<char> >::__short"* %77, i64 0, i32 1, i32 0
  %79 = load i8, i8* %78, align 1
  %80 = icmp slt i8 %79, 0
  br i1 %80, label %81, label %84

81:                                               ; preds = %75
  %82 = getelementptr inbounds %"class.std::__1::basic_string", %"class.std::__1::basic_string"* %76, i64 0, i32 0, i32 0, i32 0, i32 0, i32 0, i32 0
  %83 = load i8*, i8** %82, align 8
  tail call void @_ZdlPv(i8* %83) #17
  br label %84

84:                                               ; preds = %75, %81
  %85 = getelementptr inbounds %"class.google_apis::drive::FilesInsertRequest", %"class.google_apis::drive::FilesInsertRequest"* %0, i64 0, i32 1
  tail call void @_ZN11google_apis20DriveApiUrlGeneratorD1Ev(%"class.google_apis::DriveApiUrlGenerator"* %85) #16
  %86 = bitcast %"class.google_apis::drive::FilesInsertRequest"* %0 to <2 x i32 (...)**>*
  store <2 x i32 (...)**> <i32 (...)** bitcast (i8** getelementptr inbounds ({ [21 x i8*], [7 x i8*] }, { [21 x i8*], [7 x i8*] }* @_ZTVN11google_apis5drive19DriveApiDataRequestINS_12FileResourceEEE, i64 0, inrange i32 0, i64 2) to i32 (...)**), i32 (...)** bitcast (i8** getelementptr inbounds ({ [21 x i8*], [7 x i8*] }, { [21 x i8*], [7 x i8*] }* @_ZTVN11google_apis5drive19DriveApiDataRequestINS_12FileResourceEEE, i64 0, inrange i32 1, i64 2) to i32 (...)**)>, <2 x i32 (...)**>* %86, align 8
  %87 = getelementptr inbounds %"class.google_apis::drive::FilesInsertRequest", %"class.google_apis::drive::FilesInsertRequest"* %0, i64 0, i32 0, i32 2, i32 0
  tail call void @_ZN4base8internal18WeakPtrFactoryBaseD2Ev(%"class.base::internal::WeakPtrFactoryBase"* %87) #16
  %88 = getelementptr inbounds %"class.google_apis::drive::FilesInsertRequest", %"class.google_apis::drive::FilesInsertRequest"* %0, i64 0, i32 0, i32 1, i32 0
  tail call void @_ZN4base8internal12CallbackBaseD2Ev(%"class.base::internal::CallbackBase"* %88) #16
  %89 = bitcast %"class.google_apis::drive::FilesInsertRequest"* %0 to <2 x i32 (...)**>*
  store <2 x i32 (...)**> <i32 (...)** bitcast (i8** getelementptr inbounds ({ [21 x i8*], [7 x i8*] }, { [21 x i8*], [7 x i8*] }* @_ZTVN11google_apis5drive27DriveApiPartialFieldRequestE, i64 0, inrange i32 0, i64 2) to i32 (...)**), i32 (...)** bitcast (i8** getelementptr inbounds ({ [21 x i8*], [7 x i8*] }, { [21 x i8*], [7 x i8*] }* @_ZTVN11google_apis5drive27DriveApiPartialFieldRequestE, i64 0, inrange i32 1, i64 2) to i32 (...)**)>, <2 x i32 (...)**>* %89, align 8
  %90 = getelementptr inbounds %"class.google_apis::drive::FilesInsertRequest", %"class.google_apis::drive::FilesInsertRequest"* %0, i64 0, i32 0, i32 0, i32 1
  %91 = bitcast %"class.std::__1::basic_string"* %90 to %"struct.std::__1::basic_string<char, std::__1::char_traits<char>, std::__1::allocator<char> >::__short"*
  %92 = getelementptr inbounds %"struct.std::__1::basic_string<char, std::__1::char_traits<char>, std::__1::allocator<char> >::__short", %"struct.std::__1::basic_string<char, std::__1::char_traits<char>, std::__1::allocator<char> >::__short"* %91, i64 0, i32 1, i32 0
  %93 = load i8, i8* %92, align 1
  %94 = icmp slt i8 %93, 0
  br i1 %94, label %95, label %98

95:                                               ; preds = %84
  %96 = getelementptr inbounds %"class.std::__1::basic_string", %"class.std::__1::basic_string"* %90, i64 0, i32 0, i32 0, i32 0, i32 0, i32 0, i32 0
  %97 = load i8*, i8** %96, align 8
  tail call void @_ZdlPv(i8* %97) #17
  br label %98

98:                                               ; preds = %84, %95
  %99 = getelementptr inbounds %"class.google_apis::drive::FilesInsertRequest", %"class.google_apis::drive::FilesInsertRequest"* %0, i64 0, i32 0, i32 0, i32 0
  tail call void @_ZN11google_apis19UrlFetchRequestBaseD2Ev(%"class.google_apis::UrlFetchRequestBase"* %99) #16
  ret void
}

; Function Attrs: nounwind ssp uwtable
define hidden void @_ZThn8_N11google_apis5drive18FilesInsertRequestD1Ev(%"class.google_apis::drive::FilesInsertRequest"*) unnamed_addr #0 align 2 {
  %2 = getelementptr inbounds %"class.google_apis::drive::FilesInsertRequest", %"class.google_apis::drive::FilesInsertRequest"* %0, i64 -1, i32 8, i32 0, i32 2
  %3 = bitcast %"class.std::__1::__compressed_pair.67"* %2 to %"class.google_apis::drive::FilesInsertRequest"*
  tail call void @_ZN11google_apis5drive18FilesInsertRequestD2Ev(%"class.google_apis::drive::FilesInsertRequest"* %3) #16
  ret void
}

; Function Attrs: nounwind ssp uwtable
define hidden void @_ZN11google_apis5drive18FilesInsertRequestD0Ev(%"class.google_apis::drive::FilesInsertRequest"*) unnamed_addr #0 align 2 {
  tail call void @_ZN11google_apis5drive18FilesInsertRequestD2Ev(%"class.google_apis::drive::FilesInsertRequest"* %0) #16
  %2 = bitcast %"class.google_apis::drive::FilesInsertRequest"* %0 to i8*
  tail call void @_ZdlPv(i8* %2) #17
  ret void
}

; Function Attrs: nounwind ssp uwtable
define hidden void @_ZThn8_N11google_apis5drive18FilesInsertRequestD0Ev(%"class.google_apis::drive::FilesInsertRequest"*) unnamed_addr #0 align 2 {
  %2 = getelementptr inbounds %"class.google_apis::drive::FilesInsertRequest", %"class.google_apis::drive::FilesInsertRequest"* %0, i64 -1, i32 8, i32 0, i32 2
  %3 = bitcast %"class.std::__1::__compressed_pair.67"* %2 to %"class.google_apis::drive::FilesInsertRequest"*
  tail call void @_ZN11google_apis5drive18FilesInsertRequestD2Ev(%"class.google_apis::drive::FilesInsertRequest"* %3) #16
  %4 = bitcast %"class.std::__1::__compressed_pair.67"* %2 to i8*
  tail call void @_ZdlPv(i8* %4) #17
  ret void
}

; Function Attrs: nounwind ssp uwtable
define hidden void @_ZNK11google_apis5drive18FilesInsertRequest14GetRequestTypeEv(%"class.std::__1::basic_string"* noalias sret, %"class.google_apis::drive::FilesInsertRequest"* nocapture readnone) unnamed_addr #0 align 2 {
  %3 = bitcast %"class.std::__1::basic_string"* %0 to %"struct.std::__1::basic_string<char, std::__1::char_traits<char>, std::__1::allocator<char> >::__short"*
  %4 = getelementptr inbounds %"struct.std::__1::basic_string<char, std::__1::char_traits<char>, std::__1::allocator<char> >::__short", %"struct.std::__1::basic_string<char, std::__1::char_traits<char>, std::__1::allocator<char> >::__short"* %3, i64 0, i32 1, i32 0
  store i8 4, i8* %4, align 1
  %5 = bitcast %"class.std::__1::basic_string"* %0 to i8*
  %6 = bitcast %"class.std::__1::basic_string"* %0 to i32*
  store i32 1414745936, i32* %6, align 8
  %7 = getelementptr inbounds i8, i8* %5, i64 4
  store i8 0, i8* %7, align 4
  ret void
}

; Function Attrs: nounwind ssp uwtable
define hidden zeroext i1 @_ZN11google_apis5drive18FilesInsertRequest14GetContentDataEPNSt3__112basic_stringIcNS2_11char_traitsIcEENS2_9allocatorIcEEEES9_(%"class.google_apis::drive::FilesInsertRequest"*, %"class.std::__1::basic_string"*, %"class.std::__1::basic_string"*) unnamed_addr #0 align 2 {
  %4 = alloca %"class.base::DictionaryValue", align 8
  %5 = alloca %"class.std::__1::basic_string", align 8
  %6 = alloca %"class.std::__1::basic_string", align 8
  %7 = load i8, i8* getelementptr inbounds ([0 x i8], [0 x i8]* @_ZN11google_apis4util27kContentTypeApplicationJsonE, i64 0, i64 0), align 1
  %8 = tail call i1 @llvm.is.constant.i8(i8 %7) #16
  br i1 %8, label %9, label %32

9:                                                ; preds = %3
  %10 = tail call i64 @strlen(i8* getelementptr inbounds ([0 x i8], [0 x i8]* @_ZN11google_apis4util27kContentTypeApplicationJsonE, i64 0, i64 0)) #16
  %11 = icmp ult i64 %10, 23
  br i1 %11, label %12, label %30

12:                                               ; preds = %9
  %13 = bitcast %"class.std::__1::basic_string"* %1 to %"struct.std::__1::basic_string<char, std::__1::char_traits<char>, std::__1::allocator<char> >::__short"*
  %14 = getelementptr inbounds %"struct.std::__1::basic_string<char, std::__1::char_traits<char>, std::__1::allocator<char> >::__short", %"struct.std::__1::basic_string<char, std::__1::char_traits<char>, std::__1::allocator<char> >::__short"* %13, i64 0, i32 1, i32 0
  %15 = load i8, i8* %14, align 1
  %16 = icmp slt i8 %15, 0
  br i1 %16, label %17, label %21

17:                                               ; preds = %12
  %18 = getelementptr inbounds %"class.std::__1::basic_string", %"class.std::__1::basic_string"* %1, i64 0, i32 0, i32 0, i32 0, i32 0, i32 0, i32 1
  store i64 %10, i64* %18, align 8
  %19 = getelementptr inbounds %"class.std::__1::basic_string", %"class.std::__1::basic_string"* %1, i64 0, i32 0, i32 0, i32 0, i32 0, i32 0, i32 0
  %20 = load i8*, i8** %19, align 8
  br label %24

21:                                               ; preds = %12
  %22 = trunc i64 %10 to i8
  store i8 %22, i8* %14, align 1
  %23 = bitcast %"class.std::__1::basic_string"* %1 to i8*
  br label %24

24:                                               ; preds = %21, %17
  %25 = phi i8* [ %20, %17 ], [ %23, %21 ]
  %26 = icmp eq i64 %10, 0
  br i1 %26, label %28, label %27

27:                                               ; preds = %24
  tail call void @llvm.memcpy.p0i8.p0i8.i64(i8* align 1 %25, i8* align 1 getelementptr inbounds ([0 x i8], [0 x i8]* @_ZN11google_apis4util27kContentTypeApplicationJsonE, i64 0, i64 0), i64 %10, i1 false) #16
  br label %28

28:                                               ; preds = %27, %24
  %29 = getelementptr inbounds i8, i8* %25, i64 %10
  store i8 0, i8* %29, align 1
  br label %34

30:                                               ; preds = %9
  %31 = tail call dereferenceable(24) %"class.std::__1::basic_string"* @_ZNSt3__112basic_stringIcNS_11char_traitsIcEENS_9allocatorIcEEE17__assign_externalEPKcm(%"class.std::__1::basic_string"* %1, i8* getelementptr inbounds ([0 x i8], [0 x i8]* @_ZN11google_apis4util27kContentTypeApplicationJsonE, i64 0, i64 0), i64 %10) #16
  br label %34

32:                                               ; preds = %3
  %33 = tail call dereferenceable(24) %"class.std::__1::basic_string"* @_ZNSt3__112basic_stringIcNS_11char_traitsIcEENS_9allocatorIcEEE17__assign_externalEPKc(%"class.std::__1::basic_string"* %1, i8* getelementptr inbounds ([0 x i8], [0 x i8]* @_ZN11google_apis4util27kContentTypeApplicationJsonE, i64 0, i64 0)) #16
  br label %34

34:                                               ; preds = %28, %30, %32
  %35 = bitcast %"class.base::DictionaryValue"* %4 to i8*
  call void @llvm.lifetime.start.p0i8(i64 32, i8* nonnull %35) #16
  %36 = bitcast %"class.base::DictionaryValue"* %4 to i8*
  call void @llvm.memset.p0i8.i64(i8* nonnull align 8 %36, i8 -86, i64 32, i1 false)
  call void @_ZN4base15DictionaryValueC1Ev(%"class.base::DictionaryValue"* nonnull %4) #16
  %37 = getelementptr inbounds %"class.google_apis::drive::FilesInsertRequest", %"class.google_apis::drive::FilesInsertRequest"* %0, i64 0, i32 3
  %38 = getelementptr inbounds %"class.base::Time", %"class.base::Time"* %37, i64 0, i32 0, i32 0
  %39 = load i64, i64* %38, align 8
  %40 = icmp eq i64 %39, 0
  br i1 %40, label %60, label %41

41:                                               ; preds = %34
  %42 = bitcast %"class.std::__1::basic_string"* %5 to i8*
  call void @llvm.lifetime.start.p0i8(i64 24, i8* nonnull %42) #16
  call void @_ZN11google_apis4util18FormatTimeAsStringERKN4base4TimeE(%"class.std::__1::basic_string"* nonnull sret %5, %"class.base::Time"* dereferenceable(8) %37) #16
  %43 = bitcast %"class.std::__1::basic_string"* %5 to %"struct.std::__1::basic_string<char, std::__1::char_traits<char>, std::__1::allocator<char> >::__short"*
  %44 = getelementptr inbounds %"struct.std::__1::basic_string<char, std::__1::char_traits<char>, std::__1::allocator<char> >::__short", %"struct.std::__1::basic_string<char, std::__1::char_traits<char>, std::__1::allocator<char> >::__short"* %43, i64 0, i32 1, i32 0
  %45 = load i8, i8* %44, align 1
  %46 = icmp slt i8 %45, 0
  %47 = getelementptr inbounds %"class.std::__1::basic_string", %"class.std::__1::basic_string"* %5, i64 0, i32 0, i32 0, i32 0, i32 0, i32 0, i32 0
  %48 = load i8*, i8** %47, align 8
  %49 = select i1 %46, i8* %48, i8* %42
  %50 = getelementptr inbounds %"class.std::__1::basic_string", %"class.std::__1::basic_string"* %5, i64 0, i32 0, i32 0, i32 0, i32 0, i32 0, i32 1
  %51 = load i64, i64* %50, align 8
  %52 = zext i8 %45 to i64
  %53 = select i1 %46, i64 %51, i64 %52
  %54 = call %"class.base::Value"* @_ZN4base15DictionaryValue9SetStringENS_16BasicStringPieceIcNSt3__111char_traitsIcEEEES5_(%"class.base::DictionaryValue"* nonnull %4, i8* getelementptr inbounds ([19 x i8], [19 x i8]* @.str.5, i64 0, i64 0), i64 18, i8* %49, i64 %53) #16
  %55 = load i8, i8* %44, align 1
  %56 = icmp slt i8 %55, 0
  br i1 %56, label %57, label %59

57:                                               ; preds = %41
  %58 = load i8*, i8** %47, align 8
  call void @_ZdlPv(i8* %58) #17
  br label %59

59:                                               ; preds = %41, %57
  call void @llvm.lifetime.end.p0i8(i64 24, i8* nonnull %42) #16
  br label %60

60:                                               ; preds = %59, %34
  %61 = getelementptr inbounds %"class.google_apis::drive::FilesInsertRequest", %"class.google_apis::drive::FilesInsertRequest"* %0, i64 0, i32 4
  %62 = bitcast %"class.std::__1::basic_string"* %61 to %"struct.std::__1::basic_string<char, std::__1::char_traits<char>, std::__1::allocator<char> >::__short"*
  %63 = getelementptr inbounds %"struct.std::__1::basic_string<char, std::__1::char_traits<char>, std::__1::allocator<char> >::__short", %"struct.std::__1::basic_string<char, std::__1::char_traits<char>, std::__1::allocator<char> >::__short"* %62, i64 0, i32 1, i32 0
  %64 = load i8, i8* %63, align 1
  %65 = icmp slt i8 %64, 0
  br i1 %65, label %66, label %69

66:                                               ; preds = %60
  %67 = getelementptr inbounds %"class.google_apis::drive::FilesInsertRequest", %"class.google_apis::drive::FilesInsertRequest"* %0, i64 0, i32 4, i32 0, i32 0, i32 0, i32 0, i32 0, i32 1
  %68 = load i64, i64* %67, align 8
  br label %71

69:                                               ; preds = %60
  %70 = zext i8 %64 to i64
  br label %71

71:                                               ; preds = %66, %69
  %72 = phi i64 [ %68, %66 ], [ %70, %69 ]
  %73 = icmp eq i64 %72, 0
  br i1 %73, label %84, label %74

74:                                               ; preds = %71
  %75 = getelementptr inbounds %"class.std::__1::basic_string", %"class.std::__1::basic_string"* %61, i64 0, i32 0, i32 0, i32 0, i32 0, i32 0, i32 0
  %76 = load i8*, i8** %75, align 8
  %77 = bitcast %"class.std::__1::basic_string"* %61 to i8*
  %78 = select i1 %65, i8* %76, i8* %77
  %79 = getelementptr inbounds %"class.google_apis::drive::FilesInsertRequest", %"class.google_apis::drive::FilesInsertRequest"* %0, i64 0, i32 4, i32 0, i32 0, i32 0, i32 0, i32 0, i32 1
  %80 = load i64, i64* %79, align 8
  %81 = zext i8 %64 to i64
  %82 = select i1 %65, i64 %80, i64 %81
  %83 = call %"class.base::Value"* @_ZN4base15DictionaryValue9SetStringENS_16BasicStringPieceIcNSt3__111char_traitsIcEEEES5_(%"class.base::DictionaryValue"* nonnull %4, i8* getelementptr inbounds ([9 x i8], [9 x i8]* @.str.6, i64 0, i64 0), i64 8, i8* %78, i64 %82) #16
  br label %84

84:                                               ; preds = %74, %71
  %85 = getelementptr inbounds %"class.google_apis::drive::FilesInsertRequest", %"class.google_apis::drive::FilesInsertRequest"* %0, i64 0, i32 5
  %86 = getelementptr inbounds %"class.base::Time", %"class.base::Time"* %85, i64 0, i32 0, i32 0
  %87 = load i64, i64* %86, align 8
  %88 = icmp eq i64 %87, 0
  br i1 %88, label %108, label %89

89:                                               ; preds = %84
  %90 = bitcast %"class.std::__1::basic_string"* %6 to i8*
  call void @llvm.lifetime.start.p0i8(i64 24, i8* nonnull %90) #16
  call void @_ZN11google_apis4util18FormatTimeAsStringERKN4base4TimeE(%"class.std::__1::basic_string"* nonnull sret %6, %"class.base::Time"* dereferenceable(8) %85) #16
  %91 = bitcast %"class.std::__1::basic_string"* %6 to %"struct.std::__1::basic_string<char, std::__1::char_traits<char>, std::__1::allocator<char> >::__short"*
  %92 = getelementptr inbounds %"struct.std::__1::basic_string<char, std::__1::char_traits<char>, std::__1::allocator<char> >::__short", %"struct.std::__1::basic_string<char, std::__1::char_traits<char>, std::__1::allocator<char> >::__short"* %91, i64 0, i32 1, i32 0
  %93 = load i8, i8* %92, align 1
  %94 = icmp slt i8 %93, 0
  %95 = getelementptr inbounds %"class.std::__1::basic_string", %"class.std::__1::basic_string"* %6, i64 0, i32 0, i32 0, i32 0, i32 0, i32 0, i32 0
  %96 = load i8*, i8** %95, align 8
  %97 = select i1 %94, i8* %96, i8* %90
  %98 = getelementptr inbounds %"class.std::__1::basic_string", %"class.std::__1::basic_string"* %6, i64 0, i32 0, i32 0, i32 0, i32 0, i32 0, i32 1
  %99 = load i64, i64* %98, align 8
  %100 = zext i8 %93 to i64
  %101 = select i1 %94, i64 %99, i64 %100
  %102 = call %"class.base::Value"* @_ZN4base15DictionaryValue9SetStringENS_16BasicStringPieceIcNSt3__111char_traitsIcEEEES5_(%"class.base::DictionaryValue"* nonnull %4, i8* getelementptr inbounds ([13 x i8], [13 x i8]* @.str.7, i64 0, i64 0), i64 12, i8* %97, i64 %101) #16
  %103 = load i8, i8* %92, align 1
  %104 = icmp slt i8 %103, 0
  br i1 %104, label %105, label %107

105:                                              ; preds = %89
  %106 = load i8*, i8** %95, align 8
  call void @_ZdlPv(i8* %106) #17
  br label %107

107:                                              ; preds = %89, %105
  call void @llvm.lifetime.end.p0i8(i64 24, i8* nonnull %90) #16
  br label %108

108:                                              ; preds = %107, %84
  %109 = getelementptr inbounds %"class.google_apis::drive::FilesInsertRequest", %"class.google_apis::drive::FilesInsertRequest"* %0, i64 0, i32 6
  %110 = getelementptr inbounds %"class.std::__1::vector.58", %"class.std::__1::vector.58"* %109, i64 0, i32 0, i32 0
  %111 = load %"class.std::__1::basic_string"*, %"class.std::__1::basic_string"** %110, align 8
  %112 = getelementptr inbounds %"class.google_apis::drive::FilesInsertRequest", %"class.google_apis::drive::FilesInsertRequest"* %0, i64 0, i32 6, i32 0, i32 1
  %113 = load %"class.std::__1::basic_string"*, %"class.std::__1::basic_string"** %112, align 8
  %114 = icmp eq %"class.std::__1::basic_string"* %111, %113
  br i1 %114, label %152, label %115

115:                                              ; preds = %108
  %116 = call i8* @_Znwm(i64 32) #17
  %117 = bitcast i8* %116 to %"class.base::ListValue"*
  call void @_ZN4base9ListValueC1Ev(%"class.base::ListValue"* nonnull %117) #16
  %118 = bitcast %"class.std::__1::basic_string"** %112 to i64*
  %119 = load i64, i64* %118, align 8
  %120 = bitcast %"class.std::__1::vector.58"* %109 to i64*
  %121 = load i64, i64* %120, align 8
  %122 = icmp eq i64 %119, %121
  br i1 %122, label %123, label %126

123:                                              ; preds = %126, %115
  %124 = bitcast i8* %116 to %"class.base::Value"*
  %125 = call %"class.base::Value"* @_ZN4base15DictionaryValue3SetENS_16BasicStringPieceIcNSt3__111char_traitsIcEEEENS2_10unique_ptrINS_5ValueENS2_14default_deleteIS7_EEEE(%"class.base::DictionaryValue"* nonnull %4, i8* getelementptr inbounds ([8 x i8], [8 x i8]* @.str.9, i64 0, i64 0), i64 7, %"class.base::Value"* nonnull %124) #16
  br label %152

126:                                              ; preds = %115, %126
  %127 = phi i64 [ %146, %126 ], [ 0, %115 ]
  %128 = call i8* @_Znwm(i64 32) #17
  %129 = bitcast i8* %128 to %"class.base::DictionaryValue"*
  call void @_ZN4base15DictionaryValueC1Ev(%"class.base::DictionaryValue"* nonnull %129) #16
  %130 = load %"class.std::__1::basic_string"*, %"class.std::__1::basic_string"** %110, align 8
  %131 = getelementptr inbounds %"class.std::__1::basic_string", %"class.std::__1::basic_string"* %130, i64 %127
  %132 = bitcast %"class.std::__1::basic_string"* %131 to %"struct.std::__1::basic_string<char, std::__1::char_traits<char>, std::__1::allocator<char> >::__short"*
  %133 = getelementptr inbounds %"struct.std::__1::basic_string<char, std::__1::char_traits<char>, std::__1::allocator<char> >::__short", %"struct.std::__1::basic_string<char, std::__1::char_traits<char>, std::__1::allocator<char> >::__short"* %132, i64 0, i32 1, i32 0
  %134 = load i8, i8* %133, align 1
  %135 = icmp slt i8 %134, 0
  %136 = getelementptr inbounds %"class.std::__1::basic_string", %"class.std::__1::basic_string"* %131, i64 0, i32 0, i32 0, i32 0, i32 0, i32 0, i32 0
  %137 = load i8*, i8** %136, align 8
  %138 = bitcast %"class.std::__1::basic_string"* %131 to i8*
  %139 = select i1 %135, i8* %137, i8* %138
  %140 = getelementptr inbounds %"class.std::__1::basic_string", %"class.std::__1::basic_string"* %130, i64 %127, i32 0, i32 0, i32 0, i32 0, i32 0, i32 1
  %141 = load i64, i64* %140, align 8
  %142 = zext i8 %134 to i64
  %143 = select i1 %135, i64 %141, i64 %142
  %144 = call %"class.base::Value"* @_ZN4base15DictionaryValue9SetStringENS_16BasicStringPieceIcNSt3__111char_traitsIcEEEES5_(%"class.base::DictionaryValue"* nonnull %129, i8* getelementptr inbounds ([3 x i8], [3 x i8]* @.str.8, i64 0, i64 0), i64 2, i8* %139, i64 %143) #16
  %145 = bitcast i8* %128 to %"class.base::Value"*
  call void @_ZN4base9ListValue6AppendENSt3__110unique_ptrINS_5ValueENS1_14default_deleteIS3_EEEE(%"class.base::ListValue"* nonnull %117, %"class.base::Value"* nonnull %145) #16
  %146 = add nuw i64 %127, 1
  %147 = load i64, i64* %118, align 8
  %148 = load i64, i64* %120, align 8
  %149 = sub i64 %147, %148
  %150 = sdiv exact i64 %149, 24
  %151 = icmp ult i64 %146, %150
  br i1 %151, label %126, label %123

152:                                              ; preds = %123, %108
  %153 = getelementptr inbounds %"class.google_apis::drive::FilesInsertRequest", %"class.google_apis::drive::FilesInsertRequest"* %0, i64 0, i32 7
  %154 = bitcast %"class.std::__1::basic_string"* %153 to %"struct.std::__1::basic_string<char, std::__1::char_traits<char>, std::__1::allocator<char> >::__short"*
  %155 = getelementptr inbounds %"struct.std::__1::basic_string<char, std::__1::char_traits<char>, std::__1::allocator<char> >::__short", %"struct.std::__1::basic_string<char, std::__1::char_traits<char>, std::__1::allocator<char> >::__short"* %154, i64 0, i32 1, i32 0
  %156 = load i8, i8* %155, align 1
  %157 = icmp slt i8 %156, 0
  br i1 %157, label %158, label %161

158:                                              ; preds = %152
  %159 = getelementptr inbounds %"class.google_apis::drive::FilesInsertRequest", %"class.google_apis::drive::FilesInsertRequest"* %0, i64 0, i32 7, i32 0, i32 0, i32 0, i32 0, i32 0, i32 1
  %160 = load i64, i64* %159, align 8
  br label %163

161:                                              ; preds = %152
  %162 = zext i8 %156 to i64
  br label %163

163:                                              ; preds = %158, %161
  %164 = phi i64 [ %160, %158 ], [ %162, %161 ]
  %165 = icmp eq i64 %164, 0
  br i1 %165, label %176, label %166

166:                                              ; preds = %163
  %167 = getelementptr inbounds %"class.std::__1::basic_string", %"class.std::__1::basic_string"* %153, i64 0, i32 0, i32 0, i32 0, i32 0, i32 0, i32 0
  %168 = load i8*, i8** %167, align 8
  %169 = bitcast %"class.std::__1::basic_string"* %153 to i8*
  %170 = select i1 %157, i8* %168, i8* %169
  %171 = getelementptr inbounds %"class.google_apis::drive::FilesInsertRequest", %"class.google_apis::drive::FilesInsertRequest"* %0, i64 0, i32 7, i32 0, i32 0, i32 0, i32 0, i32 0, i32 1
  %172 = load i64, i64* %171, align 8
  %173 = zext i8 %156 to i64
  %174 = select i1 %157, i64 %172, i64 %173
  %175 = call %"class.base::Value"* @_ZN4base15DictionaryValue9SetStringENS_16BasicStringPieceIcNSt3__111char_traitsIcEEEES5_(%"class.base::DictionaryValue"* nonnull %4, i8* getelementptr inbounds ([6 x i8], [6 x i8]* @.str.10, i64 0, i64 0), i64 5, i8* %170, i64 %174) #16
  br label %176

176:                                              ; preds = %166, %163
  %177 = getelementptr inbounds %"class.google_apis::drive::FilesInsertRequest", %"class.google_apis::drive::FilesInsertRequest"* %0, i64 0, i32 8
  call fastcc void @_ZN11google_apis5drive12_GLOBAL__N_116AttachPropertiesERKNSt3__16vectorINS0_8PropertyENS2_9allocatorIS4_EEEEPN4base15DictionaryValueE(%"class.std::__1::vector.65"* dereferenceable(24) %177, %"class.base::DictionaryValue"* nonnull %4)
  %178 = getelementptr inbounds %"class.base::DictionaryValue", %"class.base::DictionaryValue"* %4, i64 0, i32 0
  %179 = call zeroext i1 @_ZN4base10JSONWriter5WriteERKNS_5ValueEPNSt3__112basic_stringIcNS4_11char_traitsIcEENS4_9allocatorIcEEEEm(%"class.base::Value"* nonnull dereferenceable(32) %178, %"class.std::__1::basic_string"* %2, i64 200) #16
  call void @_ZN4base5ValueD2Ev(%"class.base::Value"* nonnull %178) #16
  call void @llvm.lifetime.end.p0i8(i64 32, i8* nonnull %35) #16
  ret i1 true
}

declare void @_ZN4base15DictionaryValueC1Ev(%"class.base::DictionaryValue"*) unnamed_addr #2

declare %"class.base::Value"* @_ZN4base15DictionaryValue9SetStringENS_16BasicStringPieceIcNSt3__111char_traitsIcEEEES5_(%"class.base::DictionaryValue"*, i8*, i64, i8*, i64) local_unnamed_addr #2

declare void @_ZN11google_apis4util18FormatTimeAsStringERKN4base4TimeE(%"class.std::__1::basic_string"* sret, %"class.base::Time"* dereferenceable(8)) local_unnamed_addr #2

declare void @_ZN4base9ListValue6AppendENSt3__110unique_ptrINS_5ValueENS1_14default_deleteIS3_EEEE(%"class.base::ListValue"*, %"class.base::Value"*) local_unnamed_addr #2

declare %"class.base::Value"* @_ZN4base15DictionaryValue3SetENS_16BasicStringPieceIcNSt3__111char_traitsIcEEEENS2_10unique_ptrINS_5ValueENS2_14default_deleteIS7_EEEE(%"class.base::DictionaryValue"*, i8*, i64, %"class.base::Value"*) local_unnamed_addr #2

; Function Attrs: nounwind ssp uwtable
define internal fastcc void @_ZN11google_apis5drive12_GLOBAL__N_116AttachPropertiesERKNSt3__16vectorINS0_8PropertyENS2_9allocatorIS4_EEEEPN4base15DictionaryValueE(%"class.std::__1::vector.65"* nocapture readonly dereferenceable(24), %"class.base::DictionaryValue"*) unnamed_addr #0 {
  %3 = alloca %"class.std::__1::basic_string", align 8
  %4 = getelementptr inbounds %"class.std::__1::vector.65", %"class.std::__1::vector.65"* %0, i64 0, i32 0, i32 0
  %5 = load %"class.google_apis::drive::Property"*, %"class.google_apis::drive::Property"** %4, align 8
  %6 = getelementptr inbounds %"class.std::__1::vector.65", %"class.std::__1::vector.65"* %0, i64 0, i32 0, i32 1
  %7 = load %"class.google_apis::drive::Property"*, %"class.google_apis::drive::Property"** %6, align 8
  %8 = icmp eq %"class.google_apis::drive::Property"* %5, %7
  br i1 %8, label %72, label %9

9:                                                ; preds = %2
  %10 = tail call i8* @_Znwm(i64 32) #17
  %11 = bitcast i8* %10 to %"class.base::ListValue"*
  tail call void @_ZN4base9ListValueC1Ev(%"class.base::ListValue"* nonnull %11) #16
  %12 = load %"class.google_apis::drive::Property"*, %"class.google_apis::drive::Property"** %4, align 8
  %13 = load %"class.google_apis::drive::Property"*, %"class.google_apis::drive::Property"** %6, align 8
  %14 = icmp eq %"class.google_apis::drive::Property"* %12, %13
  br i1 %14, label %22, label %15

15:                                               ; preds = %9
  %16 = bitcast %"class.std::__1::basic_string"* %3 to i8*
  %17 = getelementptr inbounds %"class.std::__1::basic_string", %"class.std::__1::basic_string"* %3, i64 0, i32 0, i32 0, i32 0, i32 0, i32 0, i32 0
  %18 = bitcast %"class.std::__1::basic_string"* %3 to %"struct.std::__1::basic_string<char, std::__1::char_traits<char>, std::__1::allocator<char> >::__short"*
  %19 = getelementptr inbounds %"struct.std::__1::basic_string<char, std::__1::char_traits<char>, std::__1::allocator<char> >::__short", %"struct.std::__1::basic_string<char, std::__1::char_traits<char>, std::__1::allocator<char> >::__short"* %18, i64 0, i32 1, i32 0
  %20 = getelementptr inbounds i8, i8* %16, i64 6
  %21 = getelementptr inbounds i8, i8* %16, i64 7
  br label %25

22:                                               ; preds = %69, %9
  %23 = bitcast i8* %10 to %"class.base::Value"*
  %24 = call %"class.base::Value"* @_ZN4base15DictionaryValue3SetENS_16BasicStringPieceIcNSt3__111char_traitsIcEEEENS2_10unique_ptrINS_5ValueENS2_14default_deleteIS7_EEEE(%"class.base::DictionaryValue"* %1, i8* getelementptr inbounds ([11 x i8], [11 x i8]* @.str.37, i64 0, i64 0), i64 10, %"class.base::Value"* nonnull %23) #16
  br label %72

25:                                               ; preds = %15, %69
  %26 = phi %"class.google_apis::drive::Property"* [ %12, %15 ], [ %70, %69 ]
  %27 = call i8* @_Znwm(i64 32) #17
  %28 = bitcast i8* %27 to %"class.base::DictionaryValue"*
  call void @_ZN4base15DictionaryValueC1Ev(%"class.base::DictionaryValue"* nonnull %28) #16
  call void @llvm.lifetime.start.p0i8(i64 24, i8* nonnull %16) #16
  call void @llvm.memset.p0i8.i64(i8* nonnull align 8 %16, i8 0, i64 24, i1 false) #16
  %29 = getelementptr inbounds %"class.google_apis::drive::Property", %"class.google_apis::drive::Property"* %26, i64 0, i32 0
  %30 = load i32, i32* %29, align 8
  switch i32 %30, label %33 [
    i32 0, label %31
    i32 1, label %32
  ]

31:                                               ; preds = %25
  store i8 7, i8* %19, align 1
  call void @llvm.memcpy.p0i8.p0i8.i64(i8* nonnull align 8 %16, i8* align 1 getelementptr inbounds ([8 x i8], [8 x i8]* @.str.11, i64 0, i64 0), i64 7, i1 false) #16
  store i8 0, i8* %21, align 1
  br label %33

32:                                               ; preds = %25
  store i8 6, i8* %19, align 1
  call void @llvm.memcpy.p0i8.p0i8.i64(i8* nonnull align 8 %16, i8* align 1 getelementptr inbounds ([7 x i8], [7 x i8]* @.str.34, i64 0, i64 0), i64 6, i1 false) #16
  store i8 0, i8* %20, align 2
  br label %33

33:                                               ; preds = %32, %31, %25
  %34 = phi i64 [ 6, %32 ], [ 7, %31 ], [ 0, %25 ]
  %35 = call %"class.base::Value"* @_ZN4base15DictionaryValue9SetStringENS_16BasicStringPieceIcNSt3__111char_traitsIcEEEES5_(%"class.base::DictionaryValue"* nonnull %28, i8* getelementptr inbounds ([11 x i8], [11 x i8]* @.str.35, i64 0, i64 0), i64 10, i8* nonnull %16, i64 %34) #16
  %36 = getelementptr inbounds %"class.google_apis::drive::Property", %"class.google_apis::drive::Property"* %26, i64 0, i32 1
  %37 = bitcast %"class.std::__1::basic_string"* %36 to %"struct.std::__1::basic_string<char, std::__1::char_traits<char>, std::__1::allocator<char> >::__short"*
  %38 = getelementptr inbounds %"struct.std::__1::basic_string<char, std::__1::char_traits<char>, std::__1::allocator<char> >::__short", %"struct.std::__1::basic_string<char, std::__1::char_traits<char>, std::__1::allocator<char> >::__short"* %37, i64 0, i32 1, i32 0
  %39 = load i8, i8* %38, align 1
  %40 = icmp slt i8 %39, 0
  %41 = getelementptr inbounds %"class.std::__1::basic_string", %"class.std::__1::basic_string"* %36, i64 0, i32 0, i32 0, i32 0, i32 0, i32 0, i32 0
  %42 = load i8*, i8** %41, align 8
  %43 = bitcast %"class.std::__1::basic_string"* %36 to i8*
  %44 = select i1 %40, i8* %42, i8* %43
  %45 = getelementptr inbounds %"class.google_apis::drive::Property", %"class.google_apis::drive::Property"* %26, i64 0, i32 1, i32 0, i32 0, i32 0, i32 0, i32 0, i32 1
  %46 = load i64, i64* %45, align 8
  %47 = zext i8 %39 to i64
  %48 = select i1 %40, i64 %46, i64 %47
  %49 = call %"class.base::Value"* @_ZN4base15DictionaryValue9SetStringENS_16BasicStringPieceIcNSt3__111char_traitsIcEEEES5_(%"class.base::DictionaryValue"* nonnull %28, i8* getelementptr inbounds ([4 x i8], [4 x i8]* @.str.36, i64 0, i64 0), i64 3, i8* %44, i64 %48) #16
  %50 = getelementptr inbounds %"class.google_apis::drive::Property", %"class.google_apis::drive::Property"* %26, i64 0, i32 2
  %51 = bitcast %"class.std::__1::basic_string"* %50 to %"struct.std::__1::basic_string<char, std::__1::char_traits<char>, std::__1::allocator<char> >::__short"*
  %52 = getelementptr inbounds %"struct.std::__1::basic_string<char, std::__1::char_traits<char>, std::__1::allocator<char> >::__short", %"struct.std::__1::basic_string<char, std::__1::char_traits<char>, std::__1::allocator<char> >::__short"* %51, i64 0, i32 1, i32 0
  %53 = load i8, i8* %52, align 1
  %54 = icmp slt i8 %53, 0
  %55 = getelementptr inbounds %"class.std::__1::basic_string", %"class.std::__1::basic_string"* %50, i64 0, i32 0, i32 0, i32 0, i32 0, i32 0, i32 0
  %56 = load i8*, i8** %55, align 8
  %57 = bitcast %"class.std::__1::basic_string"* %50 to i8*
  %58 = select i1 %54, i8* %56, i8* %57
  %59 = getelementptr inbounds %"class.google_apis::drive::Property", %"class.google_apis::drive::Property"* %26, i64 0, i32 2, i32 0, i32 0, i32 0, i32 0, i32 0, i32 1
  %60 = load i64, i64* %59, align 8
  %61 = zext i8 %53 to i64
  %62 = select i1 %54, i64 %60, i64 %61
  %63 = call %"class.base::Value"* @_ZN4base15DictionaryValue9SetStringENS_16BasicStringPieceIcNSt3__111char_traitsIcEEEES5_(%"class.base::DictionaryValue"* nonnull %28, i8* getelementptr inbounds ([6 x i8], [6 x i8]* @.str.27, i64 0, i64 0), i64 5, i8* %58, i64 %62) #16
  %64 = bitcast i8* %27 to %"class.base::Value"*
  call void @_ZN4base9ListValue6AppendENSt3__110unique_ptrINS_5ValueENS1_14default_deleteIS3_EEEE(%"class.base::ListValue"* nonnull %11, %"class.base::Value"* nonnull %64) #16
  %65 = load i8, i8* %19, align 1
  %66 = icmp slt i8 %65, 0
  br i1 %66, label %67, label %69

67:                                               ; preds = %33
  %68 = load i8*, i8** %17, align 8
  call void @_ZdlPv(i8* %68) #17
  br label %69

69:                                               ; preds = %67, %33
  call void @llvm.lifetime.end.p0i8(i64 24, i8* nonnull %16) #16
  %70 = getelementptr inbounds %"class.google_apis::drive::Property", %"class.google_apis::drive::Property"* %26, i64 1
  %71 = icmp eq %"class.google_apis::drive::Property"* %70, %13
  br i1 %71, label %22, label %25

72:                                               ; preds = %2, %22
  ret void
}

declare zeroext i1 @_ZN4base10JSONWriter5WriteERKNS_5ValueEPNSt3__112basic_stringIcNS4_11char_traitsIcEENS4_9allocatorIcEEEEm(%"class.base::Value"* dereferenceable(32), %"class.std::__1::basic_string"*, i64) local_unnamed_addr #2

; Function Attrs: nounwind
declare void @_ZN4base5ValueD2Ev(%"class.base::Value"*) unnamed_addr #3

; Function Attrs: nounwind ssp uwtable
define hidden void @_ZNK11google_apis5drive18FilesInsertRequest14GetURLInternalEv(%class.GURL* noalias sret, %"class.google_apis::drive::FilesInsertRequest"*) unnamed_addr #0 align 2 {
  %3 = alloca %"class.std::__1::basic_string", align 8
  %4 = getelementptr inbounds %"class.google_apis::drive::FilesInsertRequest", %"class.google_apis::drive::FilesInsertRequest"* %1, i64 0, i32 1
  %5 = bitcast %"class.std::__1::basic_string"* %3 to i8*
  call void @llvm.lifetime.start.p0i8(i64 24, i8* nonnull %5) #16
  %6 = getelementptr inbounds %"class.google_apis::drive::FilesInsertRequest", %"class.google_apis::drive::FilesInsertRequest"* %1, i64 0, i32 2
  %7 = load i32, i32* %6, align 8
  %8 = icmp eq i32 %7, 1
  %9 = select i1 %8, i64 7, i64 0
  %10 = trunc i64 %9 to i8
  %11 = bitcast %"class.std::__1::basic_string"* %3 to %"struct.std::__1::basic_string<char, std::__1::char_traits<char>, std::__1::allocator<char> >::__short"*
  %12 = getelementptr inbounds %"struct.std::__1::basic_string<char, std::__1::char_traits<char>, std::__1::allocator<char> >::__short", %"struct.std::__1::basic_string<char, std::__1::char_traits<char>, std::__1::allocator<char> >::__short"* %11, i64 0, i32 1, i32 0
  store i8 %10, i8* %12, align 1
  br i1 %8, label %13, label %14

13:                                               ; preds = %2
  call void @llvm.memcpy.p0i8.p0i8.i64(i8* nonnull align 8 %5, i8* align 1 getelementptr inbounds ([8 x i8], [8 x i8]* @.str.11, i64 0, i64 0), i64 %9, i1 false) #16
  br label %14

14:                                               ; preds = %2, %13
  %15 = getelementptr inbounds i8, i8* %5, i64 %9
  store i8 0, i8* %15, align 1
  call void @_ZNK11google_apis20DriveApiUrlGenerator17GetFilesInsertUrlERKNSt3__112basic_stringIcNS1_11char_traitsIcEENS1_9allocatorIcEEEE(%class.GURL* sret %0, %"class.google_apis::DriveApiUrlGenerator"* %4, %"class.std::__1::basic_string"* nonnull dereferenceable(24) %3) #16
  %16 = load i8, i8* %12, align 1
  %17 = icmp slt i8 %16, 0
  br i1 %17, label %18, label %21

18:                                               ; preds = %14
  %19 = getelementptr inbounds %"class.std::__1::basic_string", %"class.std::__1::basic_string"* %3, i64 0, i32 0, i32 0, i32 0, i32 0, i32 0, i32 0
  %20 = load i8*, i8** %19, align 8
  call void @_ZdlPv(i8* %20) #17
  br label %21

21:                                               ; preds = %14, %18
  call void @llvm.lifetime.end.p0i8(i64 24, i8* nonnull %5) #16
  ret void
}

declare void @_ZNK11google_apis20DriveApiUrlGenerator17GetFilesInsertUrlERKNSt3__112basic_stringIcNS1_11char_traitsIcEENS1_9allocatorIcEEEE(%class.GURL* sret, %"class.google_apis::DriveApiUrlGenerator"*, %"class.std::__1::basic_string"* dereferenceable(24)) local_unnamed_addr #2

; Function Attrs: nounwind ssp uwtable
define hidden void @_ZN11google_apis5drive17FilesPatchRequestC2EPNS_13RequestSenderERKNS_20DriveApiUrlGeneratorEN4base12OnceCallbackIFvNS_17DriveApiErrorCodeENSt3__110unique_ptrINS_12FileResourceENSA_14default_deleteISC_EEEEEEE(%"class.google_apis::drive::FilesPatchRequest"*, %"class.google_apis::RequestSender"*, %"class.google_apis::DriveApiUrlGenerator"* dereferenceable(360), %"class.base::OnceCallback"* nocapture) unnamed_addr #0 align 2 {
  %5 = alloca %"class.base::RepeatingCallback.42", align 8
  %6 = alloca %"class.base::RepeatingCallback.42", align 8
  %7 = alloca %"class.base::OnceCallback", align 8
  %8 = getelementptr inbounds %"class.base::OnceCallback", %"class.base::OnceCallback"* %3, i64 0, i32 0, i32 0, i32 0
  %9 = bitcast %"class.base::OnceCallback"* %3 to i64*
  %10 = load i64, i64* %9, align 8
  store %"class.base::internal::BindStateBase"* null, %"class.base::internal::BindStateBase"** %8, align 8
  %11 = bitcast %"class.base::RepeatingCallback.42"* %5 to i8*
  call void @llvm.lifetime.start.p0i8(i64 8, i8* nonnull %11) #16
  %12 = bitcast %"class.base::RepeatingCallback.42"* %6 to i8*
  call void @llvm.lifetime.start.p0i8(i64 8, i8* nonnull %12) #16
  %13 = getelementptr inbounds %"class.google_apis::drive::FilesPatchRequest", %"class.google_apis::drive::FilesPatchRequest"* %0, i64 0, i32 0, i32 0, i32 0
  %14 = getelementptr inbounds %"class.base::RepeatingCallback.42", %"class.base::RepeatingCallback.42"* %5, i64 0, i32 0, i32 0, i32 0, i32 0
  store %"class.base::internal::BindStateBase"* null, %"class.base::internal::BindStateBase"** %14, align 8
  %15 = getelementptr inbounds %"class.base::RepeatingCallback.42", %"class.base::RepeatingCallback.42"* %6, i64 0, i32 0, i32 0, i32 0, i32 0
  store %"class.base::internal::BindStateBase"* null, %"class.base::internal::BindStateBase"** %15, align 8
  call void @_ZN11google_apis19UrlFetchRequestBaseC2EPNS_13RequestSenderEN4base17RepeatingCallbackIFvllEEES6_(%"class.google_apis::UrlFetchRequestBase"* %13, %"class.google_apis::RequestSender"* %1, %"class.base::RepeatingCallback.42"* nonnull %5, %"class.base::RepeatingCallback.42"* nonnull %6) #16
  %16 = getelementptr inbounds %"class.base::RepeatingCallback.42", %"class.base::RepeatingCallback.42"* %6, i64 0, i32 0, i32 0
  call void @_ZN4base8internal12CallbackBaseD2Ev(%"class.base::internal::CallbackBase"* nonnull %16) #16
  %17 = getelementptr inbounds %"class.base::RepeatingCallback.42", %"class.base::RepeatingCallback.42"* %5, i64 0, i32 0, i32 0
  call void @_ZN4base8internal12CallbackBaseD2Ev(%"class.base::internal::CallbackBase"* nonnull %17) #16
  %18 = getelementptr inbounds %"class.google_apis::drive::FilesPatchRequest", %"class.google_apis::drive::FilesPatchRequest"* %0, i64 0, i32 0, i32 0, i32 1
  %19 = bitcast %"class.std::__1::basic_string"* %18 to i8*
  call void @llvm.memset.p0i8.i64(i8* align 8 %19, i8 0, i64 24, i1 false) #16
  call void @llvm.lifetime.end.p0i8(i64 8, i8* nonnull %11) #16
  call void @llvm.lifetime.end.p0i8(i64 8, i8* nonnull %12) #16
  %20 = bitcast %"class.google_apis::drive::FilesPatchRequest"* %0 to <2 x i32 (...)**>*
  store <2 x i32 (...)**> <i32 (...)** bitcast (i8** getelementptr inbounds ({ [21 x i8*], [7 x i8*] }, { [21 x i8*], [7 x i8*] }* @_ZTVN11google_apis5drive19DriveApiDataRequestINS_12FileResourceEEE, i64 0, inrange i32 0, i64 2) to i32 (...)**), i32 (...)** bitcast (i8** getelementptr inbounds ({ [21 x i8*], [7 x i8*] }, { [21 x i8*], [7 x i8*] }* @_ZTVN11google_apis5drive19DriveApiDataRequestINS_12FileResourceEEE, i64 0, inrange i32 1, i64 2) to i32 (...)**)>, <2 x i32 (...)**>* %20, align 8
  %21 = getelementptr inbounds %"class.google_apis::drive::FilesPatchRequest", %"class.google_apis::drive::FilesPatchRequest"* %0, i64 0, i32 0, i32 1
  %22 = getelementptr inbounds %"class.base::OnceCallback", %"class.base::OnceCallback"* %7, i64 0, i32 0, i32 0, i32 0
  %23 = bitcast %"class.base::OnceCallback"* %21 to i64*
  store i64 %10, i64* %23, align 8
  store %"class.base::internal::BindStateBase"* null, %"class.base::internal::BindStateBase"** %22, align 8
  %24 = getelementptr inbounds %"class.google_apis::drive::FilesPatchRequest", %"class.google_apis::drive::FilesPatchRequest"* %0, i64 0, i32 0, i32 2, i32 0
  %25 = ptrtoint %"class.google_apis::drive::FilesPatchRequest"* %0 to i64
  call void @_ZN4base8internal18WeakPtrFactoryBaseC2Em(%"class.base::internal::WeakPtrFactoryBase"* %24, i64 %25) #16
  %26 = getelementptr inbounds %"class.base::OnceCallback", %"class.base::OnceCallback"* %7, i64 0, i32 0
  call void @_ZN4base8internal12CallbackBaseD2Ev(%"class.base::internal::CallbackBase"* nonnull %26) #16
  %27 = bitcast %"class.google_apis::drive::FilesPatchRequest"* %0 to <2 x i32 (...)**>*
  store <2 x i32 (...)**> <i32 (...)** bitcast (i8** getelementptr inbounds ({ [21 x i8*], [7 x i8*] }, { [21 x i8*], [7 x i8*] }* @_ZTVN11google_apis5drive17FilesPatchRequestE, i64 0, inrange i32 0, i64 2) to i32 (...)**), i32 (...)** bitcast (i8** getelementptr inbounds ({ [21 x i8*], [7 x i8*] }, { [21 x i8*], [7 x i8*] }* @_ZTVN11google_apis5drive17FilesPatchRequestE, i64 0, inrange i32 1, i64 2) to i32 (...)**)>, <2 x i32 (...)**>* %27, align 8
  %28 = getelementptr inbounds %"class.google_apis::drive::FilesPatchRequest", %"class.google_apis::drive::FilesPatchRequest"* %0, i64 0, i32 1
  call void @_ZN11google_apis20DriveApiUrlGeneratorC1ERKS0_(%"class.google_apis::DriveApiUrlGenerator"* %28, %"class.google_apis::DriveApiUrlGenerator"* dereferenceable(360) %2) #16
  %29 = getelementptr inbounds %"class.google_apis::drive::FilesPatchRequest", %"class.google_apis::drive::FilesPatchRequest"* %0, i64 0, i32 2
  %30 = getelementptr inbounds %"class.google_apis::drive::FilesPatchRequest", %"class.google_apis::drive::FilesPatchRequest"* %0, i64 0, i32 4
  %31 = bitcast %"class.std::__1::basic_string"* %29 to i8*
  call void @llvm.memset.p0i8.i64(i8* align 8 %31, i8 0, i64 25, i1 false)
  store i8 1, i8* %30, align 1
  %32 = getelementptr inbounds %"class.google_apis::drive::FilesPatchRequest", %"class.google_apis::drive::FilesPatchRequest"* %0, i64 0, i32 5
  %33 = bitcast %"class.std::__1::basic_string"* %32 to i8*
  call void @llvm.memset.p0i8.i64(i8* align 8 %33, i8 0, i64 88, i1 false)
  ret void
}

; Function Attrs: nounwind ssp uwtable
define hidden void @_ZN11google_apis5drive17FilesPatchRequestD2Ev(%"class.google_apis::drive::FilesPatchRequest"*) unnamed_addr #0 align 2 {
  %2 = bitcast %"class.google_apis::drive::FilesPatchRequest"* %0 to <2 x i32 (...)**>*
  store <2 x i32 (...)**> <i32 (...)** bitcast (i8** getelementptr inbounds ({ [21 x i8*], [7 x i8*] }, { [21 x i8*], [7 x i8*] }* @_ZTVN11google_apis5drive17FilesPatchRequestE, i64 0, inrange i32 0, i64 2) to i32 (...)**), i32 (...)** bitcast (i8** getelementptr inbounds ({ [21 x i8*], [7 x i8*] }, { [21 x i8*], [7 x i8*] }* @_ZTVN11google_apis5drive17FilesPatchRequestE, i64 0, inrange i32 1, i64 2) to i32 (...)**)>, <2 x i32 (...)**>* %2, align 8
  %3 = getelementptr inbounds %"class.google_apis::drive::FilesPatchRequest", %"class.google_apis::drive::FilesPatchRequest"* %0, i64 0, i32 9
  %4 = getelementptr inbounds %"class.std::__1::vector.65", %"class.std::__1::vector.65"* %3, i64 0, i32 0, i32 0
  %5 = load %"class.google_apis::drive::Property"*, %"class.google_apis::drive::Property"** %4, align 8
  %6 = icmp eq %"class.google_apis::drive::Property"* %5, null
  br i1 %6, label %39, label %7

7:                                                ; preds = %1
  %8 = bitcast %"class.google_apis::drive::Property"* %5 to i8*
  %9 = getelementptr inbounds %"class.google_apis::drive::FilesPatchRequest", %"class.google_apis::drive::FilesPatchRequest"* %0, i64 0, i32 9, i32 0, i32 1
  %10 = load %"class.google_apis::drive::Property"*, %"class.google_apis::drive::Property"** %9, align 8
  %11 = icmp eq %"class.google_apis::drive::Property"* %10, %5
  br i1 %11, label %37, label %12

12:                                               ; preds = %7, %32
  %13 = phi %"class.google_apis::drive::Property"* [ %14, %32 ], [ %10, %7 ]
  %14 = getelementptr inbounds %"class.google_apis::drive::Property", %"class.google_apis::drive::Property"* %13, i64 -1
  %15 = getelementptr inbounds %"class.google_apis::drive::Property", %"class.google_apis::drive::Property"* %13, i64 -1, i32 2
  %16 = bitcast %"class.std::__1::basic_string"* %15 to %"struct.std::__1::basic_string<char, std::__1::char_traits<char>, std::__1::allocator<char> >::__short"*
  %17 = getelementptr inbounds %"struct.std::__1::basic_string<char, std::__1::char_traits<char>, std::__1::allocator<char> >::__short", %"struct.std::__1::basic_string<char, std::__1::char_traits<char>, std::__1::allocator<char> >::__short"* %16, i64 0, i32 1, i32 0
  %18 = load i8, i8* %17, align 1
  %19 = icmp slt i8 %18, 0
  br i1 %19, label %20, label %23

20:                                               ; preds = %12
  %21 = getelementptr inbounds %"class.std::__1::basic_string", %"class.std::__1::basic_string"* %15, i64 0, i32 0, i32 0, i32 0, i32 0, i32 0, i32 0
  %22 = load i8*, i8** %21, align 8
  tail call void @_ZdlPv(i8* %22) #17
  br label %23

23:                                               ; preds = %20, %12
  %24 = getelementptr inbounds %"class.google_apis::drive::Property", %"class.google_apis::drive::Property"* %13, i64 -1, i32 1
  %25 = bitcast %"class.std::__1::basic_string"* %24 to %"struct.std::__1::basic_string<char, std::__1::char_traits<char>, std::__1::allocator<char> >::__short"*
  %26 = getelementptr inbounds %"struct.std::__1::basic_string<char, std::__1::char_traits<char>, std::__1::allocator<char> >::__short", %"struct.std::__1::basic_string<char, std::__1::char_traits<char>, std::__1::allocator<char> >::__short"* %25, i64 0, i32 1, i32 0
  %27 = load i8, i8* %26, align 1
  %28 = icmp slt i8 %27, 0
  br i1 %28, label %29, label %32

29:                                               ; preds = %23
  %30 = getelementptr inbounds %"class.std::__1::basic_string", %"class.std::__1::basic_string"* %24, i64 0, i32 0, i32 0, i32 0, i32 0, i32 0, i32 0
  %31 = load i8*, i8** %30, align 8
  tail call void @_ZdlPv(i8* %31) #17
  br label %32

32:                                               ; preds = %29, %23
  %33 = icmp eq %"class.google_apis::drive::Property"* %14, %5
  br i1 %33, label %34, label %12

34:                                               ; preds = %32
  %35 = bitcast %"class.std::__1::vector.65"* %3 to i8**
  %36 = load i8*, i8** %35, align 8
  br label %37

37:                                               ; preds = %34, %7
  %38 = phi i8* [ %36, %34 ], [ %8, %7 ]
  store %"class.google_apis::drive::Property"* %5, %"class.google_apis::drive::Property"** %9, align 8
  tail call void @_ZdlPv(i8* %38) #17
  br label %39

39:                                               ; preds = %1, %37
  %40 = getelementptr inbounds %"class.google_apis::drive::FilesPatchRequest", %"class.google_apis::drive::FilesPatchRequest"* %0, i64 0, i32 8
  %41 = getelementptr inbounds %"class.std::__1::vector.58", %"class.std::__1::vector.58"* %40, i64 0, i32 0, i32 0
  %42 = load %"class.std::__1::basic_string"*, %"class.std::__1::basic_string"** %41, align 8
  %43 = icmp eq %"class.std::__1::basic_string"* %42, null
  br i1 %43, label %66, label %44

44:                                               ; preds = %39
  %45 = bitcast %"class.std::__1::basic_string"* %42 to i8*
  %46 = getelementptr inbounds %"class.google_apis::drive::FilesPatchRequest", %"class.google_apis::drive::FilesPatchRequest"* %0, i64 0, i32 8, i32 0, i32 1
  %47 = load %"class.std::__1::basic_string"*, %"class.std::__1::basic_string"** %46, align 8
  %48 = icmp eq %"class.std::__1::basic_string"* %47, %42
  br i1 %48, label %64, label %49

49:                                               ; preds = %44, %59
  %50 = phi %"class.std::__1::basic_string"* [ %51, %59 ], [ %47, %44 ]
  %51 = getelementptr inbounds %"class.std::__1::basic_string", %"class.std::__1::basic_string"* %50, i64 -1
  %52 = bitcast %"class.std::__1::basic_string"* %51 to %"struct.std::__1::basic_string<char, std::__1::char_traits<char>, std::__1::allocator<char> >::__short"*
  %53 = getelementptr inbounds %"struct.std::__1::basic_string<char, std::__1::char_traits<char>, std::__1::allocator<char> >::__short", %"struct.std::__1::basic_string<char, std::__1::char_traits<char>, std::__1::allocator<char> >::__short"* %52, i64 0, i32 1, i32 0
  %54 = load i8, i8* %53, align 1
  %55 = icmp slt i8 %54, 0
  br i1 %55, label %56, label %59

56:                                               ; preds = %49
  %57 = getelementptr inbounds %"class.std::__1::basic_string", %"class.std::__1::basic_string"* %51, i64 0, i32 0, i32 0, i32 0, i32 0, i32 0, i32 0
  %58 = load i8*, i8** %57, align 8
  tail call void @_ZdlPv(i8* %58) #17
  br label %59

59:                                               ; preds = %56, %49
  %60 = icmp eq %"class.std::__1::basic_string"* %51, %42
  br i1 %60, label %61, label %49

61:                                               ; preds = %59
  %62 = bitcast %"class.std::__1::vector.58"* %40 to i8**
  %63 = load i8*, i8** %62, align 8
  br label %64

64:                                               ; preds = %61, %44
  %65 = phi i8* [ %63, %61 ], [ %45, %44 ]
  store %"class.std::__1::basic_string"* %42, %"class.std::__1::basic_string"** %46, align 8
  tail call void @_ZdlPv(i8* %65) #17
  br label %66

66:                                               ; preds = %39, %64
  %67 = getelementptr inbounds %"class.google_apis::drive::FilesPatchRequest", %"class.google_apis::drive::FilesPatchRequest"* %0, i64 0, i32 5
  %68 = bitcast %"class.std::__1::basic_string"* %67 to %"struct.std::__1::basic_string<char, std::__1::char_traits<char>, std::__1::allocator<char> >::__short"*
  %69 = getelementptr inbounds %"struct.std::__1::basic_string<char, std::__1::char_traits<char>, std::__1::allocator<char> >::__short", %"struct.std::__1::basic_string<char, std::__1::char_traits<char>, std::__1::allocator<char> >::__short"* %68, i64 0, i32 1, i32 0
  %70 = load i8, i8* %69, align 1
  %71 = icmp slt i8 %70, 0
  br i1 %71, label %72, label %75

72:                                               ; preds = %66
  %73 = getelementptr inbounds %"class.std::__1::basic_string", %"class.std::__1::basic_string"* %67, i64 0, i32 0, i32 0, i32 0, i32 0, i32 0, i32 0
  %74 = load i8*, i8** %73, align 8
  tail call void @_ZdlPv(i8* %74) #17
  br label %75

75:                                               ; preds = %66, %72
  %76 = getelementptr inbounds %"class.google_apis::drive::FilesPatchRequest", %"class.google_apis::drive::FilesPatchRequest"* %0, i64 0, i32 2
  %77 = bitcast %"class.std::__1::basic_string"* %76 to %"struct.std::__1::basic_string<char, std::__1::char_traits<char>, std::__1::allocator<char> >::__short"*
  %78 = getelementptr inbounds %"struct.std::__1::basic_string<char, std::__1::char_traits<char>, std::__1::allocator<char> >::__short", %"struct.std::__1::basic_string<char, std::__1::char_traits<char>, std::__1::allocator<char> >::__short"* %77, i64 0, i32 1, i32 0
  %79 = load i8, i8* %78, align 1
  %80 = icmp slt i8 %79, 0
  br i1 %80, label %81, label %84

81:                                               ; preds = %75
  %82 = getelementptr inbounds %"class.std::__1::basic_string", %"class.std::__1::basic_string"* %76, i64 0, i32 0, i32 0, i32 0, i32 0, i32 0, i32 0
  %83 = load i8*, i8** %82, align 8
  tail call void @_ZdlPv(i8* %83) #17
  br label %84

84:                                               ; preds = %75, %81
  %85 = getelementptr inbounds %"class.google_apis::drive::FilesPatchRequest", %"class.google_apis::drive::FilesPatchRequest"* %0, i64 0, i32 1
  tail call void @_ZN11google_apis20DriveApiUrlGeneratorD1Ev(%"class.google_apis::DriveApiUrlGenerator"* %85) #16
  %86 = bitcast %"class.google_apis::drive::FilesPatchRequest"* %0 to <2 x i32 (...)**>*
  store <2 x i32 (...)**> <i32 (...)** bitcast (i8** getelementptr inbounds ({ [21 x i8*], [7 x i8*] }, { [21 x i8*], [7 x i8*] }* @_ZTVN11google_apis5drive19DriveApiDataRequestINS_12FileResourceEEE, i64 0, inrange i32 0, i64 2) to i32 (...)**), i32 (...)** bitcast (i8** getelementptr inbounds ({ [21 x i8*], [7 x i8*] }, { [21 x i8*], [7 x i8*] }* @_ZTVN11google_apis5drive19DriveApiDataRequestINS_12FileResourceEEE, i64 0, inrange i32 1, i64 2) to i32 (...)**)>, <2 x i32 (...)**>* %86, align 8
  %87 = getelementptr inbounds %"class.google_apis::drive::FilesPatchRequest", %"class.google_apis::drive::FilesPatchRequest"* %0, i64 0, i32 0, i32 2, i32 0
  tail call void @_ZN4base8internal18WeakPtrFactoryBaseD2Ev(%"class.base::internal::WeakPtrFactoryBase"* %87) #16
  %88 = getelementptr inbounds %"class.google_apis::drive::FilesPatchRequest", %"class.google_apis::drive::FilesPatchRequest"* %0, i64 0, i32 0, i32 1, i32 0
  tail call void @_ZN4base8internal12CallbackBaseD2Ev(%"class.base::internal::CallbackBase"* %88) #16
  %89 = bitcast %"class.google_apis::drive::FilesPatchRequest"* %0 to <2 x i32 (...)**>*
  store <2 x i32 (...)**> <i32 (...)** bitcast (i8** getelementptr inbounds ({ [21 x i8*], [7 x i8*] }, { [21 x i8*], [7 x i8*] }* @_ZTVN11google_apis5drive27DriveApiPartialFieldRequestE, i64 0, inrange i32 0, i64 2) to i32 (...)**), i32 (...)** bitcast (i8** getelementptr inbounds ({ [21 x i8*], [7 x i8*] }, { [21 x i8*], [7 x i8*] }* @_ZTVN11google_apis5drive27DriveApiPartialFieldRequestE, i64 0, inrange i32 1, i64 2) to i32 (...)**)>, <2 x i32 (...)**>* %89, align 8
  %90 = getelementptr inbounds %"class.google_apis::drive::FilesPatchRequest", %"class.google_apis::drive::FilesPatchRequest"* %0, i64 0, i32 0, i32 0, i32 1
  %91 = bitcast %"class.std::__1::basic_string"* %90 to %"struct.std::__1::basic_string<char, std::__1::char_traits<char>, std::__1::allocator<char> >::__short"*
  %92 = getelementptr inbounds %"struct.std::__1::basic_string<char, std::__1::char_traits<char>, std::__1::allocator<char> >::__short", %"struct.std::__1::basic_string<char, std::__1::char_traits<char>, std::__1::allocator<char> >::__short"* %91, i64 0, i32 1, i32 0
  %93 = load i8, i8* %92, align 1
  %94 = icmp slt i8 %93, 0
  br i1 %94, label %95, label %98

95:                                               ; preds = %84
  %96 = getelementptr inbounds %"class.std::__1::basic_string", %"class.std::__1::basic_string"* %90, i64 0, i32 0, i32 0, i32 0, i32 0, i32 0, i32 0
  %97 = load i8*, i8** %96, align 8
  tail call void @_ZdlPv(i8* %97) #17
  br label %98

98:                                               ; preds = %84, %95
  %99 = getelementptr inbounds %"class.google_apis::drive::FilesPatchRequest", %"class.google_apis::drive::FilesPatchRequest"* %0, i64 0, i32 0, i32 0, i32 0
  tail call void @_ZN11google_apis19UrlFetchRequestBaseD2Ev(%"class.google_apis::UrlFetchRequestBase"* %99) #16
  ret void
}

; Function Attrs: nounwind ssp uwtable
define hidden void @_ZThn8_N11google_apis5drive17FilesPatchRequestD1Ev(%"class.google_apis::drive::FilesPatchRequest"*) unnamed_addr #0 align 2 {
  %2 = getelementptr inbounds %"class.google_apis::drive::FilesPatchRequest", %"class.google_apis::drive::FilesPatchRequest"* %0, i64 -1, i32 9, i32 0, i32 2
  %3 = bitcast %"class.std::__1::__compressed_pair.67"* %2 to %"class.google_apis::drive::FilesPatchRequest"*
  tail call void @_ZN11google_apis5drive17FilesPatchRequestD2Ev(%"class.google_apis::drive::FilesPatchRequest"* %3) #16
  ret void
}

; Function Attrs: nounwind ssp uwtable
define hidden void @_ZN11google_apis5drive17FilesPatchRequestD0Ev(%"class.google_apis::drive::FilesPatchRequest"*) unnamed_addr #0 align 2 {
  tail call void @_ZN11google_apis5drive17FilesPatchRequestD2Ev(%"class.google_apis::drive::FilesPatchRequest"* %0) #16
  %2 = bitcast %"class.google_apis::drive::FilesPatchRequest"* %0 to i8*
  tail call void @_ZdlPv(i8* %2) #17
  ret void
}

; Function Attrs: nounwind ssp uwtable
define hidden void @_ZThn8_N11google_apis5drive17FilesPatchRequestD0Ev(%"class.google_apis::drive::FilesPatchRequest"*) unnamed_addr #0 align 2 {
  %2 = getelementptr inbounds %"class.google_apis::drive::FilesPatchRequest", %"class.google_apis::drive::FilesPatchRequest"* %0, i64 -1, i32 9, i32 0, i32 2
  %3 = bitcast %"class.std::__1::__compressed_pair.67"* %2 to %"class.google_apis::drive::FilesPatchRequest"*
  tail call void @_ZN11google_apis5drive17FilesPatchRequestD2Ev(%"class.google_apis::drive::FilesPatchRequest"* %3) #16
  %4 = bitcast %"class.std::__1::__compressed_pair.67"* %2 to i8*
  tail call void @_ZdlPv(i8* %4) #17
  ret void
}

; Function Attrs: nounwind ssp uwtable
define hidden void @_ZNK11google_apis5drive17FilesPatchRequest14GetRequestTypeEv(%"class.std::__1::basic_string"* noalias sret, %"class.google_apis::drive::FilesPatchRequest"* nocapture readnone) unnamed_addr #0 align 2 {
  %3 = bitcast %"class.std::__1::basic_string"* %0 to %"struct.std::__1::basic_string<char, std::__1::char_traits<char>, std::__1::allocator<char> >::__short"*
  %4 = getelementptr inbounds %"struct.std::__1::basic_string<char, std::__1::char_traits<char>, std::__1::allocator<char> >::__short", %"struct.std::__1::basic_string<char, std::__1::char_traits<char>, std::__1::allocator<char> >::__short"* %3, i64 0, i32 1, i32 0
  store i8 5, i8* %4, align 1
  %5 = bitcast %"class.std::__1::basic_string"* %0 to i8*
  tail call void @llvm.memcpy.p0i8.p0i8.i64(i8* align 8 %5, i8* align 1 getelementptr inbounds ([6 x i8], [6 x i8]* @.str.13, i64 0, i64 0), i64 5, i1 false) #16
  %6 = getelementptr inbounds i8, i8* %5, i64 5
  store i8 0, i8* %6, align 1
  ret void
}

; Function Attrs: nounwind ssp uwtable
define hidden void @_ZNK11google_apis5drive17FilesPatchRequest22GetExtraRequestHeadersEv(%"class.std::__1::vector.58"* noalias sret, %"class.google_apis::drive::FilesPatchRequest"* nocapture readnone) unnamed_addr #0 align 2 {
  %3 = alloca %"class.std::__1::basic_string", align 8
  %4 = bitcast %"class.std::__1::vector.58"* %0 to i8*
  tail call void @llvm.memset.p0i8.i64(i8* align 8 %4, i8 0, i64 24, i1 false) #16
  %5 = bitcast %"class.std::__1::basic_string"* %3 to i8*
  call void @llvm.lifetime.start.p0i8(i64 24, i8* nonnull %5) #16
  %6 = tail call i64 @strlen(i8* getelementptr inbounds ([0 x i8], [0 x i8]* @_ZN11google_apis4util17kIfMatchAllHeaderE, i64 0, i64 0)) #16
  %7 = icmp ugt i64 %6, -17
  br i1 %7, label %8, label %10

8:                                                ; preds = %2
  %9 = bitcast %"class.std::__1::basic_string"* %3 to %"class.std::__1::__basic_string_common"*
  call void @_ZNKSt3__121__basic_string_commonILb1EE20__throw_length_errorEv(%"class.std::__1::__basic_string_common"* nonnull %9) #18
  unreachable

10:                                               ; preds = %2
  %11 = icmp ult i64 %6, 23
  br i1 %11, label %20, label %12

12:                                               ; preds = %10
  %13 = add nuw i64 %6, 16
  %14 = and i64 %13, -16
  %15 = tail call i8* @_Znwm(i64 %14) #17
  %16 = getelementptr inbounds %"class.std::__1::basic_string", %"class.std::__1::basic_string"* %3, i64 0, i32 0, i32 0, i32 0, i32 0, i32 0, i32 0
  store i8* %15, i8** %16, align 8
  %17 = or i64 %14, -9223372036854775808
  %18 = getelementptr inbounds %"class.std::__1::basic_string", %"class.std::__1::basic_string"* %3, i64 0, i32 0, i32 0, i32 0, i32 0, i32 0, i32 2
  store i64 %17, i64* %18, align 8
  %19 = getelementptr inbounds %"class.std::__1::basic_string", %"class.std::__1::basic_string"* %3, i64 0, i32 0, i32 0, i32 0, i32 0, i32 0, i32 1
  store i64 %6, i64* %19, align 8
  br label %25

20:                                               ; preds = %10
  %21 = trunc i64 %6 to i8
  %22 = bitcast %"class.std::__1::basic_string"* %3 to %"struct.std::__1::basic_string<char, std::__1::char_traits<char>, std::__1::allocator<char> >::__short"*
  %23 = getelementptr inbounds %"struct.std::__1::basic_string<char, std::__1::char_traits<char>, std::__1::allocator<char> >::__short", %"struct.std::__1::basic_string<char, std::__1::char_traits<char>, std::__1::allocator<char> >::__short"* %22, i64 0, i32 1, i32 0
  store i8 %21, i8* %23, align 1
  %24 = icmp eq i64 %6, 0
  br i1 %24, label %27, label %25

25:                                               ; preds = %20, %12
  %26 = phi i8* [ %15, %12 ], [ %5, %20 ]
  call void @llvm.memcpy.p0i8.p0i8.i64(i8* nonnull align 1 %26, i8* align 1 getelementptr inbounds ([0 x i8], [0 x i8]* @_ZN11google_apis4util17kIfMatchAllHeaderE, i64 0, i64 0), i64 %6, i1 false) #16
  br label %27

27:                                               ; preds = %20, %25
  %28 = phi i8* [ %5, %20 ], [ %26, %25 ]
  %29 = getelementptr inbounds i8, i8* %28, i64 %6
  store i8 0, i8* %29, align 1
  call void @_ZNSt3__16vectorINS_12basic_stringIcNS_11char_traitsIcEENS_9allocatorIcEEEENS4_IS6_EEE21__push_back_slow_pathIS6_EEvOT_(%"class.std::__1::vector.58"* %0, %"class.std::__1::basic_string"* nonnull dereferenceable(24) %3) #16
  %30 = bitcast %"class.std::__1::basic_string"* %3 to %"struct.std::__1::basic_string<char, std::__1::char_traits<char>, std::__1::allocator<char> >::__short"*
  %31 = getelementptr inbounds %"struct.std::__1::basic_string<char, std::__1::char_traits<char>, std::__1::allocator<char> >::__short", %"struct.std::__1::basic_string<char, std::__1::char_traits<char>, std::__1::allocator<char> >::__short"* %30, i64 0, i32 1, i32 0
  %32 = load i8, i8* %31, align 1
  %33 = icmp slt i8 %32, 0
  br i1 %33, label %34, label %37

34:                                               ; preds = %27
  %35 = getelementptr inbounds %"class.std::__1::basic_string", %"class.std::__1::basic_string"* %3, i64 0, i32 0, i32 0, i32 0, i32 0, i32 0, i32 0
  %36 = load i8*, i8** %35, align 8
  call void @_ZdlPv(i8* %36) #17
  br label %37

37:                                               ; preds = %27, %34
  call void @llvm.lifetime.end.p0i8(i64 24, i8* nonnull %5) #16
  ret void
}

; Function Attrs: nounwind ssp uwtable
define hidden void @_ZNK11google_apis5drive17FilesPatchRequest14GetURLInternalEv(%class.GURL* noalias sret, %"class.google_apis::drive::FilesPatchRequest"*) unnamed_addr #0 align 2 {
  %3 = getelementptr inbounds %"class.google_apis::drive::FilesPatchRequest", %"class.google_apis::drive::FilesPatchRequest"* %1, i64 0, i32 1
  %4 = getelementptr inbounds %"class.google_apis::drive::FilesPatchRequest", %"class.google_apis::drive::FilesPatchRequest"* %1, i64 0, i32 2
  %5 = getelementptr inbounds %"class.google_apis::drive::FilesPatchRequest", %"class.google_apis::drive::FilesPatchRequest"* %1, i64 0, i32 3
  %6 = load i8, i8* %5, align 8, !range !8
  %7 = icmp ne i8 %6, 0
  %8 = getelementptr inbounds %"class.google_apis::drive::FilesPatchRequest", %"class.google_apis::drive::FilesPatchRequest"* %1, i64 0, i32 4
  %9 = load i8, i8* %8, align 1, !range !8
  %10 = icmp ne i8 %9, 0
  tail call void @_ZNK11google_apis20DriveApiUrlGenerator16GetFilesPatchUrlERKNSt3__112basic_stringIcNS1_11char_traitsIcEENS1_9allocatorIcEEEEbb(%class.GURL* sret %0, %"class.google_apis::DriveApiUrlGenerator"* %3, %"class.std::__1::basic_string"* dereferenceable(24) %4, i1 zeroext %7, i1 zeroext %10) #16
  ret void
}

declare void @_ZNK11google_apis20DriveApiUrlGenerator16GetFilesPatchUrlERKNSt3__112basic_stringIcNS1_11char_traitsIcEENS1_9allocatorIcEEEEbb(%class.GURL* sret, %"class.google_apis::DriveApiUrlGenerator"*, %"class.std::__1::basic_string"* dereferenceable(24), i1 zeroext, i1 zeroext) local_unnamed_addr #2

; Function Attrs: nounwind ssp uwtable
define hidden zeroext i1 @_ZN11google_apis5drive17FilesPatchRequest14GetContentDataEPNSt3__112basic_stringIcNS2_11char_traitsIcEENS2_9allocatorIcEEEES9_(%"class.google_apis::drive::FilesPatchRequest"*, %"class.std::__1::basic_string"*, %"class.std::__1::basic_string"*) unnamed_addr #0 align 2 {
  %4 = alloca %"class.base::DictionaryValue", align 8
  %5 = alloca %"class.std::__1::basic_string", align 8
  %6 = alloca %"class.std::__1::basic_string", align 8
  %7 = getelementptr inbounds %"class.google_apis::drive::FilesPatchRequest", %"class.google_apis::drive::FilesPatchRequest"* %0, i64 0, i32 5
  %8 = bitcast %"class.std::__1::basic_string"* %7 to %"struct.std::__1::basic_string<char, std::__1::char_traits<char>, std::__1::allocator<char> >::__short"*
  %9 = getelementptr inbounds %"struct.std::__1::basic_string<char, std::__1::char_traits<char>, std::__1::allocator<char> >::__short", %"struct.std::__1::basic_string<char, std::__1::char_traits<char>, std::__1::allocator<char> >::__short"* %8, i64 0, i32 1, i32 0
  %10 = load i8, i8* %9, align 1
  %11 = icmp slt i8 %10, 0
  br i1 %11, label %12, label %15

12:                                               ; preds = %3
  %13 = getelementptr inbounds %"class.google_apis::drive::FilesPatchRequest", %"class.google_apis::drive::FilesPatchRequest"* %0, i64 0, i32 5, i32 0, i32 0, i32 0, i32 0, i32 0, i32 1
  %14 = load i64, i64* %13, align 8
  br label %17

15:                                               ; preds = %3
  %16 = zext i8 %10 to i64
  br label %17

17:                                               ; preds = %12, %15
  %18 = phi i64 [ %14, %12 ], [ %16, %15 ]
  %19 = icmp eq i64 %18, 0
  br i1 %19, label %20, label %34

20:                                               ; preds = %17
  %21 = getelementptr inbounds %"class.google_apis::drive::FilesPatchRequest", %"class.google_apis::drive::FilesPatchRequest"* %0, i64 0, i32 6, i32 0, i32 0
  %22 = load i64, i64* %21, align 8
  %23 = icmp eq i64 %22, 0
  br i1 %23, label %24, label %34

24:                                               ; preds = %20
  %25 = getelementptr inbounds %"class.google_apis::drive::FilesPatchRequest", %"class.google_apis::drive::FilesPatchRequest"* %0, i64 0, i32 7, i32 0, i32 0
  %26 = load i64, i64* %25, align 8
  %27 = icmp eq i64 %26, 0
  br i1 %27, label %28, label %34

28:                                               ; preds = %24
  %29 = getelementptr inbounds %"class.google_apis::drive::FilesPatchRequest", %"class.google_apis::drive::FilesPatchRequest"* %0, i64 0, i32 8, i32 0, i32 0
  %30 = load %"class.std::__1::basic_string"*, %"class.std::__1::basic_string"** %29, align 8
  %31 = getelementptr inbounds %"class.google_apis::drive::FilesPatchRequest", %"class.google_apis::drive::FilesPatchRequest"* %0, i64 0, i32 8, i32 0, i32 1
  %32 = load %"class.std::__1::basic_string"*, %"class.std::__1::basic_string"** %31, align 8
  %33 = icmp eq %"class.std::__1::basic_string"* %30, %32
  br i1 %33, label %181, label %34

34:                                               ; preds = %28, %24, %20, %17
  %35 = load i8, i8* getelementptr inbounds ([0 x i8], [0 x i8]* @_ZN11google_apis4util27kContentTypeApplicationJsonE, i64 0, i64 0), align 1
  %36 = tail call i1 @llvm.is.constant.i8(i8 %35) #16
  br i1 %36, label %37, label %60

37:                                               ; preds = %34
  %38 = tail call i64 @strlen(i8* getelementptr inbounds ([0 x i8], [0 x i8]* @_ZN11google_apis4util27kContentTypeApplicationJsonE, i64 0, i64 0)) #16
  %39 = icmp ult i64 %38, 23
  br i1 %39, label %40, label %58

40:                                               ; preds = %37
  %41 = bitcast %"class.std::__1::basic_string"* %1 to %"struct.std::__1::basic_string<char, std::__1::char_traits<char>, std::__1::allocator<char> >::__short"*
  %42 = getelementptr inbounds %"struct.std::__1::basic_string<char, std::__1::char_traits<char>, std::__1::allocator<char> >::__short", %"struct.std::__1::basic_string<char, std::__1::char_traits<char>, std::__1::allocator<char> >::__short"* %41, i64 0, i32 1, i32 0
  %43 = load i8, i8* %42, align 1
  %44 = icmp slt i8 %43, 0
  br i1 %44, label %45, label %49

45:                                               ; preds = %40
  %46 = getelementptr inbounds %"class.std::__1::basic_string", %"class.std::__1::basic_string"* %1, i64 0, i32 0, i32 0, i32 0, i32 0, i32 0, i32 1
  store i64 %38, i64* %46, align 8
  %47 = getelementptr inbounds %"class.std::__1::basic_string", %"class.std::__1::basic_string"* %1, i64 0, i32 0, i32 0, i32 0, i32 0, i32 0, i32 0
  %48 = load i8*, i8** %47, align 8
  br label %52

49:                                               ; preds = %40
  %50 = trunc i64 %38 to i8
  store i8 %50, i8* %42, align 1
  %51 = bitcast %"class.std::__1::basic_string"* %1 to i8*
  br label %52

52:                                               ; preds = %49, %45
  %53 = phi i8* [ %48, %45 ], [ %51, %49 ]
  %54 = icmp eq i64 %38, 0
  br i1 %54, label %56, label %55

55:                                               ; preds = %52
  tail call void @llvm.memcpy.p0i8.p0i8.i64(i8* align 1 %53, i8* align 1 getelementptr inbounds ([0 x i8], [0 x i8]* @_ZN11google_apis4util27kContentTypeApplicationJsonE, i64 0, i64 0), i64 %38, i1 false) #16
  br label %56

56:                                               ; preds = %55, %52
  %57 = getelementptr inbounds i8, i8* %53, i64 %38
  store i8 0, i8* %57, align 1
  br label %62

58:                                               ; preds = %37
  %59 = tail call dereferenceable(24) %"class.std::__1::basic_string"* @_ZNSt3__112basic_stringIcNS_11char_traitsIcEENS_9allocatorIcEEE17__assign_externalEPKcm(%"class.std::__1::basic_string"* %1, i8* getelementptr inbounds ([0 x i8], [0 x i8]* @_ZN11google_apis4util27kContentTypeApplicationJsonE, i64 0, i64 0), i64 %38) #16
  br label %62

60:                                               ; preds = %34
  %61 = tail call dereferenceable(24) %"class.std::__1::basic_string"* @_ZNSt3__112basic_stringIcNS_11char_traitsIcEENS_9allocatorIcEEE17__assign_externalEPKc(%"class.std::__1::basic_string"* %1, i8* getelementptr inbounds ([0 x i8], [0 x i8]* @_ZN11google_apis4util27kContentTypeApplicationJsonE, i64 0, i64 0)) #16
  br label %62

62:                                               ; preds = %56, %58, %60
  %63 = bitcast %"class.base::DictionaryValue"* %4 to i8*
  call void @llvm.lifetime.start.p0i8(i64 32, i8* nonnull %63) #16
  %64 = bitcast %"class.base::DictionaryValue"* %4 to i8*
  call void @llvm.memset.p0i8.i64(i8* nonnull align 8 %64, i8 -86, i64 32, i1 false)
  call void @_ZN4base15DictionaryValueC1Ev(%"class.base::DictionaryValue"* nonnull %4) #16
  %65 = load i8, i8* %9, align 1
  %66 = icmp slt i8 %65, 0
  br i1 %66, label %67, label %70

67:                                               ; preds = %62
  %68 = getelementptr inbounds %"class.google_apis::drive::FilesPatchRequest", %"class.google_apis::drive::FilesPatchRequest"* %0, i64 0, i32 5, i32 0, i32 0, i32 0, i32 0, i32 0, i32 1
  %69 = load i64, i64* %68, align 8
  br label %72

70:                                               ; preds = %62
  %71 = zext i8 %65 to i64
  br label %72

72:                                               ; preds = %67, %70
  %73 = phi i64 [ %69, %67 ], [ %71, %70 ]
  %74 = icmp eq i64 %73, 0
  br i1 %74, label %85, label %75

75:                                               ; preds = %72
  %76 = getelementptr inbounds %"class.std::__1::basic_string", %"class.std::__1::basic_string"* %7, i64 0, i32 0, i32 0, i32 0, i32 0, i32 0, i32 0
  %77 = load i8*, i8** %76, align 8
  %78 = bitcast %"class.std::__1::basic_string"* %7 to i8*
  %79 = select i1 %66, i8* %77, i8* %78
  %80 = getelementptr inbounds %"class.google_apis::drive::FilesPatchRequest", %"class.google_apis::drive::FilesPatchRequest"* %0, i64 0, i32 5, i32 0, i32 0, i32 0, i32 0, i32 0, i32 1
  %81 = load i64, i64* %80, align 8
  %82 = zext i8 %65 to i64
  %83 = select i1 %66, i64 %81, i64 %82
  %84 = call %"class.base::Value"* @_ZN4base15DictionaryValue9SetStringENS_16BasicStringPieceIcNSt3__111char_traitsIcEEEES5_(%"class.base::DictionaryValue"* nonnull %4, i8* getelementptr inbounds ([6 x i8], [6 x i8]* @.str.10, i64 0, i64 0), i64 5, i8* %79, i64 %83) #16
  br label %85

85:                                               ; preds = %75, %72
  %86 = getelementptr inbounds %"class.google_apis::drive::FilesPatchRequest", %"class.google_apis::drive::FilesPatchRequest"* %0, i64 0, i32 6
  %87 = getelementptr inbounds %"class.base::Time", %"class.base::Time"* %86, i64 0, i32 0, i32 0
  %88 = load i64, i64* %87, align 8
  %89 = icmp eq i64 %88, 0
  br i1 %89, label %109, label %90

90:                                               ; preds = %85
  %91 = bitcast %"class.std::__1::basic_string"* %5 to i8*
  call void @llvm.lifetime.start.p0i8(i64 24, i8* nonnull %91) #16
  call void @_ZN11google_apis4util18FormatTimeAsStringERKN4base4TimeE(%"class.std::__1::basic_string"* nonnull sret %5, %"class.base::Time"* dereferenceable(8) %86) #16
  %92 = bitcast %"class.std::__1::basic_string"* %5 to %"struct.std::__1::basic_string<char, std::__1::char_traits<char>, std::__1::allocator<char> >::__short"*
  %93 = getelementptr inbounds %"struct.std::__1::basic_string<char, std::__1::char_traits<char>, std::__1::allocator<char> >::__short", %"struct.std::__1::basic_string<char, std::__1::char_traits<char>, std::__1::allocator<char> >::__short"* %92, i64 0, i32 1, i32 0
  %94 = load i8, i8* %93, align 1
  %95 = icmp slt i8 %94, 0
  %96 = getelementptr inbounds %"class.std::__1::basic_string", %"class.std::__1::basic_string"* %5, i64 0, i32 0, i32 0, i32 0, i32 0, i32 0, i32 0
  %97 = load i8*, i8** %96, align 8
  %98 = select i1 %95, i8* %97, i8* %91
  %99 = getelementptr inbounds %"class.std::__1::basic_string", %"class.std::__1::basic_string"* %5, i64 0, i32 0, i32 0, i32 0, i32 0, i32 0, i32 1
  %100 = load i64, i64* %99, align 8
  %101 = zext i8 %94 to i64
  %102 = select i1 %95, i64 %100, i64 %101
  %103 = call %"class.base::Value"* @_ZN4base15DictionaryValue9SetStringENS_16BasicStringPieceIcNSt3__111char_traitsIcEEEES5_(%"class.base::DictionaryValue"* nonnull %4, i8* getelementptr inbounds ([13 x i8], [13 x i8]* @.str.7, i64 0, i64 0), i64 12, i8* %98, i64 %102) #16
  %104 = load i8, i8* %93, align 1
  %105 = icmp slt i8 %104, 0
  br i1 %105, label %106, label %108

106:                                              ; preds = %90
  %107 = load i8*, i8** %96, align 8
  call void @_ZdlPv(i8* %107) #17
  br label %108

108:                                              ; preds = %90, %106
  call void @llvm.lifetime.end.p0i8(i64 24, i8* nonnull %91) #16
  br label %109

109:                                              ; preds = %108, %85
  %110 = getelementptr inbounds %"class.google_apis::drive::FilesPatchRequest", %"class.google_apis::drive::FilesPatchRequest"* %0, i64 0, i32 7
  %111 = getelementptr inbounds %"class.base::Time", %"class.base::Time"* %110, i64 0, i32 0, i32 0
  %112 = load i64, i64* %111, align 8
  %113 = icmp eq i64 %112, 0
  br i1 %113, label %133, label %114

114:                                              ; preds = %109
  %115 = bitcast %"class.std::__1::basic_string"* %6 to i8*
  call void @llvm.lifetime.start.p0i8(i64 24, i8* nonnull %115) #16
  call void @_ZN11google_apis4util18FormatTimeAsStringERKN4base4TimeE(%"class.std::__1::basic_string"* nonnull sret %6, %"class.base::Time"* dereferenceable(8) %110) #16
  %116 = bitcast %"class.std::__1::basic_string"* %6 to %"struct.std::__1::basic_string<char, std::__1::char_traits<char>, std::__1::allocator<char> >::__short"*
  %117 = getelementptr inbounds %"struct.std::__1::basic_string<char, std::__1::char_traits<char>, std::__1::allocator<char> >::__short", %"struct.std::__1::basic_string<char, std::__1::char_traits<char>, std::__1::allocator<char> >::__short"* %116, i64 0, i32 1, i32 0
  %118 = load i8, i8* %117, align 1
  %119 = icmp slt i8 %118, 0
  %120 = getelementptr inbounds %"class.std::__1::basic_string", %"class.std::__1::basic_string"* %6, i64 0, i32 0, i32 0, i32 0, i32 0, i32 0, i32 0
  %121 = load i8*, i8** %120, align 8
  %122 = select i1 %119, i8* %121, i8* %115
  %123 = getelementptr inbounds %"class.std::__1::basic_string", %"class.std::__1::basic_string"* %6, i64 0, i32 0, i32 0, i32 0, i32 0, i32 0, i32 1
  %124 = load i64, i64* %123, align 8
  %125 = zext i8 %118 to i64
  %126 = select i1 %119, i64 %124, i64 %125
  %127 = call %"class.base::Value"* @_ZN4base15DictionaryValue9SetStringENS_16BasicStringPieceIcNSt3__111char_traitsIcEEEES5_(%"class.base::DictionaryValue"* nonnull %4, i8* getelementptr inbounds ([19 x i8], [19 x i8]* @.str.5, i64 0, i64 0), i64 18, i8* %122, i64 %126) #16
  %128 = load i8, i8* %117, align 1
  %129 = icmp slt i8 %128, 0
  br i1 %129, label %130, label %132

130:                                              ; preds = %114
  %131 = load i8*, i8** %120, align 8
  call void @_ZdlPv(i8* %131) #17
  br label %132

132:                                              ; preds = %114, %130
  call void @llvm.lifetime.end.p0i8(i64 24, i8* nonnull %115) #16
  br label %133

133:                                              ; preds = %132, %109
  %134 = getelementptr inbounds %"class.google_apis::drive::FilesPatchRequest", %"class.google_apis::drive::FilesPatchRequest"* %0, i64 0, i32 8
  %135 = getelementptr inbounds %"class.std::__1::vector.58", %"class.std::__1::vector.58"* %134, i64 0, i32 0, i32 0
  %136 = load %"class.std::__1::basic_string"*, %"class.std::__1::basic_string"** %135, align 8
  %137 = getelementptr inbounds %"class.google_apis::drive::FilesPatchRequest", %"class.google_apis::drive::FilesPatchRequest"* %0, i64 0, i32 8, i32 0, i32 1
  %138 = load %"class.std::__1::basic_string"*, %"class.std::__1::basic_string"** %137, align 8
  %139 = icmp eq %"class.std::__1::basic_string"* %136, %138
  br i1 %139, label %177, label %140

140:                                              ; preds = %133
  %141 = call i8* @_Znwm(i64 32) #17
  %142 = bitcast i8* %141 to %"class.base::ListValue"*
  call void @_ZN4base9ListValueC1Ev(%"class.base::ListValue"* nonnull %142) #16
  %143 = bitcast %"class.std::__1::basic_string"** %137 to i64*
  %144 = load i64, i64* %143, align 8
  %145 = bitcast %"class.std::__1::vector.58"* %134 to i64*
  %146 = load i64, i64* %145, align 8
  %147 = icmp eq i64 %144, %146
  br i1 %147, label %148, label %151

148:                                              ; preds = %151, %140
  %149 = bitcast i8* %141 to %"class.base::Value"*
  %150 = call %"class.base::Value"* @_ZN4base15DictionaryValue3SetENS_16BasicStringPieceIcNSt3__111char_traitsIcEEEENS2_10unique_ptrINS_5ValueENS2_14default_deleteIS7_EEEE(%"class.base::DictionaryValue"* nonnull %4, i8* getelementptr inbounds ([8 x i8], [8 x i8]* @.str.9, i64 0, i64 0), i64 7, %"class.base::Value"* nonnull %149) #16
  br label %177

151:                                              ; preds = %140, %151
  %152 = phi i64 [ %171, %151 ], [ 0, %140 ]
  %153 = call i8* @_Znwm(i64 32) #17
  %154 = bitcast i8* %153 to %"class.base::DictionaryValue"*
  call void @_ZN4base15DictionaryValueC1Ev(%"class.base::DictionaryValue"* nonnull %154) #16
  %155 = load %"class.std::__1::basic_string"*, %"class.std::__1::basic_string"** %135, align 8
  %156 = getelementptr inbounds %"class.std::__1::basic_string", %"class.std::__1::basic_string"* %155, i64 %152
  %157 = bitcast %"class.std::__1::basic_string"* %156 to %"struct.std::__1::basic_string<char, std::__1::char_traits<char>, std::__1::allocator<char> >::__short"*
  %158 = getelementptr inbounds %"struct.std::__1::basic_string<char, std::__1::char_traits<char>, std::__1::allocator<char> >::__short", %"struct.std::__1::basic_string<char, std::__1::char_traits<char>, std::__1::allocator<char> >::__short"* %157, i64 0, i32 1, i32 0
  %159 = load i8, i8* %158, align 1
  %160 = icmp slt i8 %159, 0
  %161 = getelementptr inbounds %"class.std::__1::basic_string", %"class.std::__1::basic_string"* %156, i64 0, i32 0, i32 0, i32 0, i32 0, i32 0, i32 0
  %162 = load i8*, i8** %161, align 8
  %163 = bitcast %"class.std::__1::basic_string"* %156 to i8*
  %164 = select i1 %160, i8* %162, i8* %163
  %165 = getelementptr inbounds %"class.std::__1::basic_string", %"class.std::__1::basic_string"* %155, i64 %152, i32 0, i32 0, i32 0, i32 0, i32 0, i32 1
  %166 = load i64, i64* %165, align 8
  %167 = zext i8 %159 to i64
  %168 = select i1 %160, i64 %166, i64 %167
  %169 = call %"class.base::Value"* @_ZN4base15DictionaryValue9SetStringENS_16BasicStringPieceIcNSt3__111char_traitsIcEEEES5_(%"class.base::DictionaryValue"* nonnull %154, i8* getelementptr inbounds ([3 x i8], [3 x i8]* @.str.8, i64 0, i64 0), i64 2, i8* %164, i64 %168) #16
  %170 = bitcast i8* %153 to %"class.base::Value"*
  call void @_ZN4base9ListValue6AppendENSt3__110unique_ptrINS_5ValueENS1_14default_deleteIS3_EEEE(%"class.base::ListValue"* nonnull %142, %"class.base::Value"* nonnull %170) #16
  %171 = add nuw i64 %152, 1
  %172 = load i64, i64* %143, align 8
  %173 = load i64, i64* %145, align 8
  %174 = sub i64 %172, %173
  %175 = sdiv exact i64 %174, 24
  %176 = icmp ult i64 %171, %175
  br i1 %176, label %151, label %148

177:                                              ; preds = %148, %133
  %178 = getelementptr inbounds %"class.google_apis::drive::FilesPatchRequest", %"class.google_apis::drive::FilesPatchRequest"* %0, i64 0, i32 9
  call fastcc void @_ZN11google_apis5drive12_GLOBAL__N_116AttachPropertiesERKNSt3__16vectorINS0_8PropertyENS2_9allocatorIS4_EEEEPN4base15DictionaryValueE(%"class.std::__1::vector.65"* dereferenceable(24) %178, %"class.base::DictionaryValue"* nonnull %4)
  %179 = getelementptr inbounds %"class.base::DictionaryValue", %"class.base::DictionaryValue"* %4, i64 0, i32 0
  %180 = call zeroext i1 @_ZN4base10JSONWriter5WriteERKNS_5ValueEPNSt3__112basic_stringIcNS4_11char_traitsIcEENS4_9allocatorIcEEEEm(%"class.base::Value"* nonnull dereferenceable(32) %179, %"class.std::__1::basic_string"* %2, i64 200) #16
  call void @_ZN4base5ValueD2Ev(%"class.base::Value"* nonnull %179) #16
  call void @llvm.lifetime.end.p0i8(i64 32, i8* nonnull %63) #16
  br label %181

181:                                              ; preds = %28, %177
  %182 = phi i1 [ true, %177 ], [ false, %28 ]
  ret i1 %182
}

; Function Attrs: nounwind ssp uwtable
define hidden void @_ZN11google_apis5drive16FilesCopyRequestC2EPNS_13RequestSenderERKNS_20DriveApiUrlGeneratorEN4base12OnceCallbackIFvNS_17DriveApiErrorCodeENSt3__110unique_ptrINS_12FileResourceENSA_14default_deleteISC_EEEEEEE(%"class.google_apis::drive::FilesCopyRequest"*, %"class.google_apis::RequestSender"*, %"class.google_apis::DriveApiUrlGenerator"* dereferenceable(360), %"class.base::OnceCallback"* nocapture) unnamed_addr #0 align 2 {
  %5 = alloca %"class.base::RepeatingCallback.42", align 8
  %6 = alloca %"class.base::RepeatingCallback.42", align 8
  %7 = alloca %"class.base::OnceCallback", align 8
  %8 = getelementptr inbounds %"class.base::OnceCallback", %"class.base::OnceCallback"* %3, i64 0, i32 0, i32 0, i32 0
  %9 = bitcast %"class.base::OnceCallback"* %3 to i64*
  %10 = load i64, i64* %9, align 8
  store %"class.base::internal::BindStateBase"* null, %"class.base::internal::BindStateBase"** %8, align 8
  %11 = bitcast %"class.base::RepeatingCallback.42"* %5 to i8*
  call void @llvm.lifetime.start.p0i8(i64 8, i8* nonnull %11) #16
  %12 = bitcast %"class.base::RepeatingCallback.42"* %6 to i8*
  call void @llvm.lifetime.start.p0i8(i64 8, i8* nonnull %12) #16
  %13 = getelementptr inbounds %"class.google_apis::drive::FilesCopyRequest", %"class.google_apis::drive::FilesCopyRequest"* %0, i64 0, i32 0, i32 0, i32 0
  %14 = getelementptr inbounds %"class.base::RepeatingCallback.42", %"class.base::RepeatingCallback.42"* %5, i64 0, i32 0, i32 0, i32 0, i32 0
  store %"class.base::internal::BindStateBase"* null, %"class.base::internal::BindStateBase"** %14, align 8
  %15 = getelementptr inbounds %"class.base::RepeatingCallback.42", %"class.base::RepeatingCallback.42"* %6, i64 0, i32 0, i32 0, i32 0, i32 0
  store %"class.base::internal::BindStateBase"* null, %"class.base::internal::BindStateBase"** %15, align 8
  call void @_ZN11google_apis19UrlFetchRequestBaseC2EPNS_13RequestSenderEN4base17RepeatingCallbackIFvllEEES6_(%"class.google_apis::UrlFetchRequestBase"* %13, %"class.google_apis::RequestSender"* %1, %"class.base::RepeatingCallback.42"* nonnull %5, %"class.base::RepeatingCallback.42"* nonnull %6) #16
  %16 = getelementptr inbounds %"class.base::RepeatingCallback.42", %"class.base::RepeatingCallback.42"* %6, i64 0, i32 0, i32 0
  call void @_ZN4base8internal12CallbackBaseD2Ev(%"class.base::internal::CallbackBase"* nonnull %16) #16
  %17 = getelementptr inbounds %"class.base::RepeatingCallback.42", %"class.base::RepeatingCallback.42"* %5, i64 0, i32 0, i32 0
  call void @_ZN4base8internal12CallbackBaseD2Ev(%"class.base::internal::CallbackBase"* nonnull %17) #16
  %18 = getelementptr inbounds %"class.google_apis::drive::FilesCopyRequest", %"class.google_apis::drive::FilesCopyRequest"* %0, i64 0, i32 0, i32 0, i32 1
  %19 = bitcast %"class.std::__1::basic_string"* %18 to i8*
  call void @llvm.memset.p0i8.i64(i8* align 8 %19, i8 0, i64 24, i1 false) #16
  call void @llvm.lifetime.end.p0i8(i64 8, i8* nonnull %11) #16
  call void @llvm.lifetime.end.p0i8(i64 8, i8* nonnull %12) #16
  %20 = bitcast %"class.google_apis::drive::FilesCopyRequest"* %0 to <2 x i32 (...)**>*
  store <2 x i32 (...)**> <i32 (...)** bitcast (i8** getelementptr inbounds ({ [21 x i8*], [7 x i8*] }, { [21 x i8*], [7 x i8*] }* @_ZTVN11google_apis5drive19DriveApiDataRequestINS_12FileResourceEEE, i64 0, inrange i32 0, i64 2) to i32 (...)**), i32 (...)** bitcast (i8** getelementptr inbounds ({ [21 x i8*], [7 x i8*] }, { [21 x i8*], [7 x i8*] }* @_ZTVN11google_apis5drive19DriveApiDataRequestINS_12FileResourceEEE, i64 0, inrange i32 1, i64 2) to i32 (...)**)>, <2 x i32 (...)**>* %20, align 8
  %21 = getelementptr inbounds %"class.google_apis::drive::FilesCopyRequest", %"class.google_apis::drive::FilesCopyRequest"* %0, i64 0, i32 0, i32 1
  %22 = getelementptr inbounds %"class.base::OnceCallback", %"class.base::OnceCallback"* %7, i64 0, i32 0, i32 0, i32 0
  %23 = bitcast %"class.base::OnceCallback"* %21 to i64*
  store i64 %10, i64* %23, align 8
  store %"class.base::internal::BindStateBase"* null, %"class.base::internal::BindStateBase"** %22, align 8
  %24 = getelementptr inbounds %"class.google_apis::drive::FilesCopyRequest", %"class.google_apis::drive::FilesCopyRequest"* %0, i64 0, i32 0, i32 2, i32 0
  %25 = ptrtoint %"class.google_apis::drive::FilesCopyRequest"* %0 to i64
  call void @_ZN4base8internal18WeakPtrFactoryBaseC2Em(%"class.base::internal::WeakPtrFactoryBase"* %24, i64 %25) #16
  %26 = getelementptr inbounds %"class.base::OnceCallback", %"class.base::OnceCallback"* %7, i64 0, i32 0
  call void @_ZN4base8internal12CallbackBaseD2Ev(%"class.base::internal::CallbackBase"* nonnull %26) #16
  %27 = bitcast %"class.google_apis::drive::FilesCopyRequest"* %0 to <2 x i32 (...)**>*
  store <2 x i32 (...)**> <i32 (...)** bitcast (i8** getelementptr inbounds ({ [21 x i8*], [7 x i8*] }, { [21 x i8*], [7 x i8*] }* @_ZTVN11google_apis5drive16FilesCopyRequestE, i64 0, inrange i32 0, i64 2) to i32 (...)**), i32 (...)** bitcast (i8** getelementptr inbounds ({ [21 x i8*], [7 x i8*] }, { [21 x i8*], [7 x i8*] }* @_ZTVN11google_apis5drive16FilesCopyRequestE, i64 0, inrange i32 1, i64 2) to i32 (...)**)>, <2 x i32 (...)**>* %27, align 8
  %28 = getelementptr inbounds %"class.google_apis::drive::FilesCopyRequest", %"class.google_apis::drive::FilesCopyRequest"* %0, i64 0, i32 1
  call void @_ZN11google_apis20DriveApiUrlGeneratorC1ERKS0_(%"class.google_apis::DriveApiUrlGenerator"* %28, %"class.google_apis::DriveApiUrlGenerator"* dereferenceable(360) %2) #16
  %29 = getelementptr inbounds %"class.google_apis::drive::FilesCopyRequest", %"class.google_apis::drive::FilesCopyRequest"* %0, i64 0, i32 2
  %30 = getelementptr inbounds %"class.google_apis::drive::FilesCopyRequest", %"class.google_apis::drive::FilesCopyRequest"* %0, i64 0, i32 4, i32 0, i32 0
  %31 = bitcast %"class.std::__1::basic_string"* %29 to i8*
  call void @llvm.memset.p0i8.i64(i8* align 8 %31, i8 0, i64 28, i1 false)
  %32 = bitcast i64* %30 to i8*
  call void @llvm.memset.p0i8.i64(i8* align 8 %32, i8 0, i64 56, i1 false)
  ret void
}

; Function Attrs: nounwind ssp uwtable
define hidden void @_ZN11google_apis5drive16FilesCopyRequestD2Ev(%"class.google_apis::drive::FilesCopyRequest"*) unnamed_addr #0 align 2 {
  %2 = bitcast %"class.google_apis::drive::FilesCopyRequest"* %0 to <2 x i32 (...)**>*
  store <2 x i32 (...)**> <i32 (...)** bitcast (i8** getelementptr inbounds ({ [21 x i8*], [7 x i8*] }, { [21 x i8*], [7 x i8*] }* @_ZTVN11google_apis5drive16FilesCopyRequestE, i64 0, inrange i32 0, i64 2) to i32 (...)**), i32 (...)** bitcast (i8** getelementptr inbounds ({ [21 x i8*], [7 x i8*] }, { [21 x i8*], [7 x i8*] }* @_ZTVN11google_apis5drive16FilesCopyRequestE, i64 0, inrange i32 1, i64 2) to i32 (...)**)>, <2 x i32 (...)**>* %2, align 8
  %3 = getelementptr inbounds %"class.google_apis::drive::FilesCopyRequest", %"class.google_apis::drive::FilesCopyRequest"* %0, i64 0, i32 6
  %4 = bitcast %"class.std::__1::basic_string"* %3 to %"struct.std::__1::basic_string<char, std::__1::char_traits<char>, std::__1::allocator<char> >::__short"*
  %5 = getelementptr inbounds %"struct.std::__1::basic_string<char, std::__1::char_traits<char>, std::__1::allocator<char> >::__short", %"struct.std::__1::basic_string<char, std::__1::char_traits<char>, std::__1::allocator<char> >::__short"* %4, i64 0, i32 1, i32 0
  %6 = load i8, i8* %5, align 1
  %7 = icmp slt i8 %6, 0
  br i1 %7, label %8, label %11

8:                                                ; preds = %1
  %9 = getelementptr inbounds %"class.std::__1::basic_string", %"class.std::__1::basic_string"* %3, i64 0, i32 0, i32 0, i32 0, i32 0, i32 0, i32 0
  %10 = load i8*, i8** %9, align 8
  tail call void @_ZdlPv(i8* %10) #17
  br label %11

11:                                               ; preds = %1, %8
  %12 = getelementptr inbounds %"class.google_apis::drive::FilesCopyRequest", %"class.google_apis::drive::FilesCopyRequest"* %0, i64 0, i32 5
  %13 = getelementptr inbounds %"class.std::__1::vector.58", %"class.std::__1::vector.58"* %12, i64 0, i32 0, i32 0
  %14 = load %"class.std::__1::basic_string"*, %"class.std::__1::basic_string"** %13, align 8
  %15 = icmp eq %"class.std::__1::basic_string"* %14, null
  br i1 %15, label %38, label %16

16:                                               ; preds = %11
  %17 = bitcast %"class.std::__1::basic_string"* %14 to i8*
  %18 = getelementptr inbounds %"class.google_apis::drive::FilesCopyRequest", %"class.google_apis::drive::FilesCopyRequest"* %0, i64 0, i32 5, i32 0, i32 1
  %19 = load %"class.std::__1::basic_string"*, %"class.std::__1::basic_string"** %18, align 8
  %20 = icmp eq %"class.std::__1::basic_string"* %19, %14
  br i1 %20, label %36, label %21

21:                                               ; preds = %16, %31
  %22 = phi %"class.std::__1::basic_string"* [ %23, %31 ], [ %19, %16 ]
  %23 = getelementptr inbounds %"class.std::__1::basic_string", %"class.std::__1::basic_string"* %22, i64 -1
  %24 = bitcast %"class.std::__1::basic_string"* %23 to %"struct.std::__1::basic_string<char, std::__1::char_traits<char>, std::__1::allocator<char> >::__short"*
  %25 = getelementptr inbounds %"struct.std::__1::basic_string<char, std::__1::char_traits<char>, std::__1::allocator<char> >::__short", %"struct.std::__1::basic_string<char, std::__1::char_traits<char>, std::__1::allocator<char> >::__short"* %24, i64 0, i32 1, i32 0
  %26 = load i8, i8* %25, align 1
  %27 = icmp slt i8 %26, 0
  br i1 %27, label %28, label %31

28:                                               ; preds = %21
  %29 = getelementptr inbounds %"class.std::__1::basic_string", %"class.std::__1::basic_string"* %23, i64 0, i32 0, i32 0, i32 0, i32 0, i32 0, i32 0
  %30 = load i8*, i8** %29, align 8
  tail call void @_ZdlPv(i8* %30) #17
  br label %31

31:                                               ; preds = %28, %21
  %32 = icmp eq %"class.std::__1::basic_string"* %23, %14
  br i1 %32, label %33, label %21

33:                                               ; preds = %31
  %34 = bitcast %"class.std::__1::vector.58"* %12 to i8**
  %35 = load i8*, i8** %34, align 8
  br label %36

36:                                               ; preds = %33, %16
  %37 = phi i8* [ %35, %33 ], [ %17, %16 ]
  store %"class.std::__1::basic_string"* %14, %"class.std::__1::basic_string"** %18, align 8
  tail call void @_ZdlPv(i8* %37) #17
  br label %38

38:                                               ; preds = %11, %36
  %39 = getelementptr inbounds %"class.google_apis::drive::FilesCopyRequest", %"class.google_apis::drive::FilesCopyRequest"* %0, i64 0, i32 2
  %40 = bitcast %"class.std::__1::basic_string"* %39 to %"struct.std::__1::basic_string<char, std::__1::char_traits<char>, std::__1::allocator<char> >::__short"*
  %41 = getelementptr inbounds %"struct.std::__1::basic_string<char, std::__1::char_traits<char>, std::__1::allocator<char> >::__short", %"struct.std::__1::basic_string<char, std::__1::char_traits<char>, std::__1::allocator<char> >::__short"* %40, i64 0, i32 1, i32 0
  %42 = load i8, i8* %41, align 1
  %43 = icmp slt i8 %42, 0
  br i1 %43, label %44, label %47

44:                                               ; preds = %38
  %45 = getelementptr inbounds %"class.std::__1::basic_string", %"class.std::__1::basic_string"* %39, i64 0, i32 0, i32 0, i32 0, i32 0, i32 0, i32 0
  %46 = load i8*, i8** %45, align 8
  tail call void @_ZdlPv(i8* %46) #17
  br label %47

47:                                               ; preds = %38, %44
  %48 = getelementptr inbounds %"class.google_apis::drive::FilesCopyRequest", %"class.google_apis::drive::FilesCopyRequest"* %0, i64 0, i32 1
  tail call void @_ZN11google_apis20DriveApiUrlGeneratorD1Ev(%"class.google_apis::DriveApiUrlGenerator"* %48) #16
  %49 = bitcast %"class.google_apis::drive::FilesCopyRequest"* %0 to <2 x i32 (...)**>*
  store <2 x i32 (...)**> <i32 (...)** bitcast (i8** getelementptr inbounds ({ [21 x i8*], [7 x i8*] }, { [21 x i8*], [7 x i8*] }* @_ZTVN11google_apis5drive19DriveApiDataRequestINS_12FileResourceEEE, i64 0, inrange i32 0, i64 2) to i32 (...)**), i32 (...)** bitcast (i8** getelementptr inbounds ({ [21 x i8*], [7 x i8*] }, { [21 x i8*], [7 x i8*] }* @_ZTVN11google_apis5drive19DriveApiDataRequestINS_12FileResourceEEE, i64 0, inrange i32 1, i64 2) to i32 (...)**)>, <2 x i32 (...)**>* %49, align 8
  %50 = getelementptr inbounds %"class.google_apis::drive::FilesCopyRequest", %"class.google_apis::drive::FilesCopyRequest"* %0, i64 0, i32 0, i32 2, i32 0
  tail call void @_ZN4base8internal18WeakPtrFactoryBaseD2Ev(%"class.base::internal::WeakPtrFactoryBase"* %50) #16
  %51 = getelementptr inbounds %"class.google_apis::drive::FilesCopyRequest", %"class.google_apis::drive::FilesCopyRequest"* %0, i64 0, i32 0, i32 1, i32 0
  tail call void @_ZN4base8internal12CallbackBaseD2Ev(%"class.base::internal::CallbackBase"* %51) #16
  %52 = bitcast %"class.google_apis::drive::FilesCopyRequest"* %0 to <2 x i32 (...)**>*
  store <2 x i32 (...)**> <i32 (...)** bitcast (i8** getelementptr inbounds ({ [21 x i8*], [7 x i8*] }, { [21 x i8*], [7 x i8*] }* @_ZTVN11google_apis5drive27DriveApiPartialFieldRequestE, i64 0, inrange i32 0, i64 2) to i32 (...)**), i32 (...)** bitcast (i8** getelementptr inbounds ({ [21 x i8*], [7 x i8*] }, { [21 x i8*], [7 x i8*] }* @_ZTVN11google_apis5drive27DriveApiPartialFieldRequestE, i64 0, inrange i32 1, i64 2) to i32 (...)**)>, <2 x i32 (...)**>* %52, align 8
  %53 = getelementptr inbounds %"class.google_apis::drive::FilesCopyRequest", %"class.google_apis::drive::FilesCopyRequest"* %0, i64 0, i32 0, i32 0, i32 1
  %54 = bitcast %"class.std::__1::basic_string"* %53 to %"struct.std::__1::basic_string<char, std::__1::char_traits<char>, std::__1::allocator<char> >::__short"*
  %55 = getelementptr inbounds %"struct.std::__1::basic_string<char, std::__1::char_traits<char>, std::__1::allocator<char> >::__short", %"struct.std::__1::basic_string<char, std::__1::char_traits<char>, std::__1::allocator<char> >::__short"* %54, i64 0, i32 1, i32 0
  %56 = load i8, i8* %55, align 1
  %57 = icmp slt i8 %56, 0
  br i1 %57, label %58, label %61

58:                                               ; preds = %47
  %59 = getelementptr inbounds %"class.std::__1::basic_string", %"class.std::__1::basic_string"* %53, i64 0, i32 0, i32 0, i32 0, i32 0, i32 0, i32 0
  %60 = load i8*, i8** %59, align 8
  tail call void @_ZdlPv(i8* %60) #17
  br label %61

61:                                               ; preds = %47, %58
  %62 = getelementptr inbounds %"class.google_apis::drive::FilesCopyRequest", %"class.google_apis::drive::FilesCopyRequest"* %0, i64 0, i32 0, i32 0, i32 0
  tail call void @_ZN11google_apis19UrlFetchRequestBaseD2Ev(%"class.google_apis::UrlFetchRequestBase"* %62) #16
  ret void
}

; Function Attrs: nounwind ssp uwtable
define hidden void @_ZThn8_N11google_apis5drive16FilesCopyRequestD1Ev(%"class.google_apis::drive::FilesCopyRequest"*) unnamed_addr #0 align 2 {
  %2 = getelementptr inbounds %"class.google_apis::drive::FilesCopyRequest", %"class.google_apis::drive::FilesCopyRequest"* %0, i64 -1, i32 6, i32 0, i32 0, i32 0, i32 0, i32 0, i32 2
  %3 = bitcast i64* %2 to %"class.google_apis::drive::FilesCopyRequest"*
  tail call void @_ZN11google_apis5drive16FilesCopyRequestD2Ev(%"class.google_apis::drive::FilesCopyRequest"* %3) #16
  ret void
}

; Function Attrs: nounwind ssp uwtable
define hidden void @_ZN11google_apis5drive16FilesCopyRequestD0Ev(%"class.google_apis::drive::FilesCopyRequest"*) unnamed_addr #0 align 2 {
  tail call void @_ZN11google_apis5drive16FilesCopyRequestD2Ev(%"class.google_apis::drive::FilesCopyRequest"* %0) #16
  %2 = bitcast %"class.google_apis::drive::FilesCopyRequest"* %0 to i8*
  tail call void @_ZdlPv(i8* %2) #17
  ret void
}

; Function Attrs: nounwind ssp uwtable
define hidden void @_ZThn8_N11google_apis5drive16FilesCopyRequestD0Ev(%"class.google_apis::drive::FilesCopyRequest"*) unnamed_addr #0 align 2 {
  %2 = getelementptr inbounds %"class.google_apis::drive::FilesCopyRequest", %"class.google_apis::drive::FilesCopyRequest"* %0, i64 -1, i32 6, i32 0, i32 0, i32 0, i32 0, i32 0, i32 2
  %3 = bitcast i64* %2 to %"class.google_apis::drive::FilesCopyRequest"*
  tail call void @_ZN11google_apis5drive16FilesCopyRequestD2Ev(%"class.google_apis::drive::FilesCopyRequest"* %3) #16
  %4 = bitcast i64* %2 to i8*
  tail call void @_ZdlPv(i8* %4) #17
  ret void
}

; Function Attrs: nounwind ssp uwtable
define hidden void @_ZNK11google_apis5drive16FilesCopyRequest14GetRequestTypeEv(%"class.std::__1::basic_string"* noalias sret, %"class.google_apis::drive::FilesCopyRequest"* nocapture readnone) unnamed_addr #0 align 2 {
  %3 = bitcast %"class.std::__1::basic_string"* %0 to %"struct.std::__1::basic_string<char, std::__1::char_traits<char>, std::__1::allocator<char> >::__short"*
  %4 = getelementptr inbounds %"struct.std::__1::basic_string<char, std::__1::char_traits<char>, std::__1::allocator<char> >::__short", %"struct.std::__1::basic_string<char, std::__1::char_traits<char>, std::__1::allocator<char> >::__short"* %3, i64 0, i32 1, i32 0
  store i8 4, i8* %4, align 1
  %5 = bitcast %"class.std::__1::basic_string"* %0 to i8*
  %6 = bitcast %"class.std::__1::basic_string"* %0 to i32*
  store i32 1414745936, i32* %6, align 8
  %7 = getelementptr inbounds i8, i8* %5, i64 4
  store i8 0, i8* %7, align 4
  ret void
}

; Function Attrs: nounwind ssp uwtable
define hidden void @_ZNK11google_apis5drive16FilesCopyRequest14GetURLInternalEv(%class.GURL* noalias sret, %"class.google_apis::drive::FilesCopyRequest"*) unnamed_addr #0 align 2 {
  %3 = alloca %"class.std::__1::basic_string", align 8
  %4 = getelementptr inbounds %"class.google_apis::drive::FilesCopyRequest", %"class.google_apis::drive::FilesCopyRequest"* %1, i64 0, i32 1
  %5 = getelementptr inbounds %"class.google_apis::drive::FilesCopyRequest", %"class.google_apis::drive::FilesCopyRequest"* %1, i64 0, i32 2
  %6 = bitcast %"class.std::__1::basic_string"* %3 to i8*
  call void @llvm.lifetime.start.p0i8(i64 24, i8* nonnull %6) #16
  %7 = getelementptr inbounds %"class.google_apis::drive::FilesCopyRequest", %"class.google_apis::drive::FilesCopyRequest"* %1, i64 0, i32 3
  %8 = load i32, i32* %7, align 8
  %9 = icmp eq i32 %8, 1
  %10 = select i1 %9, i64 7, i64 0
  %11 = trunc i64 %10 to i8
  %12 = bitcast %"class.std::__1::basic_string"* %3 to %"struct.std::__1::basic_string<char, std::__1::char_traits<char>, std::__1::allocator<char> >::__short"*
  %13 = getelementptr inbounds %"struct.std::__1::basic_string<char, std::__1::char_traits<char>, std::__1::allocator<char> >::__short", %"struct.std::__1::basic_string<char, std::__1::char_traits<char>, std::__1::allocator<char> >::__short"* %12, i64 0, i32 1, i32 0
  store i8 %11, i8* %13, align 1
  br i1 %9, label %14, label %15

14:                                               ; preds = %2
  call void @llvm.memcpy.p0i8.p0i8.i64(i8* nonnull align 8 %6, i8* align 1 getelementptr inbounds ([8 x i8], [8 x i8]* @.str.11, i64 0, i64 0), i64 %10, i1 false) #16
  br label %15

15:                                               ; preds = %2, %14
  %16 = getelementptr inbounds i8, i8* %6, i64 %10
  store i8 0, i8* %16, align 1
  call void @_ZNK11google_apis20DriveApiUrlGenerator15GetFilesCopyUrlERKNSt3__112basic_stringIcNS1_11char_traitsIcEENS1_9allocatorIcEEEES9_(%class.GURL* sret %0, %"class.google_apis::DriveApiUrlGenerator"* %4, %"class.std::__1::basic_string"* dereferenceable(24) %5, %"class.std::__1::basic_string"* nonnull dereferenceable(24) %3) #16
  %17 = load i8, i8* %13, align 1
  %18 = icmp slt i8 %17, 0
  br i1 %18, label %19, label %22

19:                                               ; preds = %15
  %20 = getelementptr inbounds %"class.std::__1::basic_string", %"class.std::__1::basic_string"* %3, i64 0, i32 0, i32 0, i32 0, i32 0, i32 0, i32 0
  %21 = load i8*, i8** %20, align 8
  call void @_ZdlPv(i8* %21) #17
  br label %22

22:                                               ; preds = %15, %19
  call void @llvm.lifetime.end.p0i8(i64 24, i8* nonnull %6) #16
  ret void
}

declare void @_ZNK11google_apis20DriveApiUrlGenerator15GetFilesCopyUrlERKNSt3__112basic_stringIcNS1_11char_traitsIcEENS1_9allocatorIcEEEES9_(%class.GURL* sret, %"class.google_apis::DriveApiUrlGenerator"*, %"class.std::__1::basic_string"* dereferenceable(24), %"class.std::__1::basic_string"* dereferenceable(24)) local_unnamed_addr #2

; Function Attrs: nounwind ssp uwtable
define hidden zeroext i1 @_ZN11google_apis5drive16FilesCopyRequest14GetContentDataEPNSt3__112basic_stringIcNS2_11char_traitsIcEENS2_9allocatorIcEEEES9_(%"class.google_apis::drive::FilesCopyRequest"*, %"class.std::__1::basic_string"*, %"class.std::__1::basic_string"*) unnamed_addr #0 align 2 {
  %4 = alloca %"class.base::DictionaryValue", align 8
  %5 = alloca %"class.std::__1::basic_string", align 8
  %6 = getelementptr inbounds %"class.google_apis::drive::FilesCopyRequest", %"class.google_apis::drive::FilesCopyRequest"* %0, i64 0, i32 5
  %7 = getelementptr inbounds %"class.std::__1::vector.58", %"class.std::__1::vector.58"* %6, i64 0, i32 0, i32 0
  %8 = load %"class.std::__1::basic_string"*, %"class.std::__1::basic_string"** %7, align 8
  %9 = getelementptr inbounds %"class.google_apis::drive::FilesCopyRequest", %"class.google_apis::drive::FilesCopyRequest"* %0, i64 0, i32 5, i32 0, i32 1
  %10 = load %"class.std::__1::basic_string"*, %"class.std::__1::basic_string"** %9, align 8
  %11 = icmp eq %"class.std::__1::basic_string"* %8, %10
  br i1 %11, label %12, label %26

12:                                               ; preds = %3
  %13 = getelementptr inbounds %"class.google_apis::drive::FilesCopyRequest", %"class.google_apis::drive::FilesCopyRequest"* %0, i64 0, i32 6
  %14 = bitcast %"class.std::__1::basic_string"* %13 to %"struct.std::__1::basic_string<char, std::__1::char_traits<char>, std::__1::allocator<char> >::__short"*
  %15 = getelementptr inbounds %"struct.std::__1::basic_string<char, std::__1::char_traits<char>, std::__1::allocator<char> >::__short", %"struct.std::__1::basic_string<char, std::__1::char_traits<char>, std::__1::allocator<char> >::__short"* %14, i64 0, i32 1, i32 0
  %16 = load i8, i8* %15, align 1
  %17 = icmp slt i8 %16, 0
  br i1 %17, label %18, label %21

18:                                               ; preds = %12
  %19 = getelementptr inbounds %"class.google_apis::drive::FilesCopyRequest", %"class.google_apis::drive::FilesCopyRequest"* %0, i64 0, i32 6, i32 0, i32 0, i32 0, i32 0, i32 0, i32 1
  %20 = load i64, i64* %19, align 8
  br label %23

21:                                               ; preds = %12
  %22 = zext i8 %16 to i64
  br label %23

23:                                               ; preds = %18, %21
  %24 = phi i64 [ %20, %18 ], [ %22, %21 ]
  %25 = icmp eq i64 %24, 0
  br i1 %25, label %148, label %26

26:                                               ; preds = %23, %3
  %27 = load i8, i8* getelementptr inbounds ([0 x i8], [0 x i8]* @_ZN11google_apis4util27kContentTypeApplicationJsonE, i64 0, i64 0), align 1
  %28 = tail call i1 @llvm.is.constant.i8(i8 %27) #16
  br i1 %28, label %29, label %52

29:                                               ; preds = %26
  %30 = tail call i64 @strlen(i8* getelementptr inbounds ([0 x i8], [0 x i8]* @_ZN11google_apis4util27kContentTypeApplicationJsonE, i64 0, i64 0)) #16
  %31 = icmp ult i64 %30, 23
  br i1 %31, label %32, label %50

32:                                               ; preds = %29
  %33 = bitcast %"class.std::__1::basic_string"* %1 to %"struct.std::__1::basic_string<char, std::__1::char_traits<char>, std::__1::allocator<char> >::__short"*
  %34 = getelementptr inbounds %"struct.std::__1::basic_string<char, std::__1::char_traits<char>, std::__1::allocator<char> >::__short", %"struct.std::__1::basic_string<char, std::__1::char_traits<char>, std::__1::allocator<char> >::__short"* %33, i64 0, i32 1, i32 0
  %35 = load i8, i8* %34, align 1
  %36 = icmp slt i8 %35, 0
  br i1 %36, label %37, label %41

37:                                               ; preds = %32
  %38 = getelementptr inbounds %"class.std::__1::basic_string", %"class.std::__1::basic_string"* %1, i64 0, i32 0, i32 0, i32 0, i32 0, i32 0, i32 1
  store i64 %30, i64* %38, align 8
  %39 = getelementptr inbounds %"class.std::__1::basic_string", %"class.std::__1::basic_string"* %1, i64 0, i32 0, i32 0, i32 0, i32 0, i32 0, i32 0
  %40 = load i8*, i8** %39, align 8
  br label %44

41:                                               ; preds = %32
  %42 = trunc i64 %30 to i8
  store i8 %42, i8* %34, align 1
  %43 = bitcast %"class.std::__1::basic_string"* %1 to i8*
  br label %44

44:                                               ; preds = %41, %37
  %45 = phi i8* [ %40, %37 ], [ %43, %41 ]
  %46 = icmp eq i64 %30, 0
  br i1 %46, label %48, label %47

47:                                               ; preds = %44
  tail call void @llvm.memcpy.p0i8.p0i8.i64(i8* align 1 %45, i8* align 1 getelementptr inbounds ([0 x i8], [0 x i8]* @_ZN11google_apis4util27kContentTypeApplicationJsonE, i64 0, i64 0), i64 %30, i1 false) #16
  br label %48

48:                                               ; preds = %47, %44
  %49 = getelementptr inbounds i8, i8* %45, i64 %30
  store i8 0, i8* %49, align 1
  br label %54

50:                                               ; preds = %29
  %51 = tail call dereferenceable(24) %"class.std::__1::basic_string"* @_ZNSt3__112basic_stringIcNS_11char_traitsIcEENS_9allocatorIcEEE17__assign_externalEPKcm(%"class.std::__1::basic_string"* %1, i8* getelementptr inbounds ([0 x i8], [0 x i8]* @_ZN11google_apis4util27kContentTypeApplicationJsonE, i64 0, i64 0), i64 %30) #16
  br label %54

52:                                               ; preds = %26
  %53 = tail call dereferenceable(24) %"class.std::__1::basic_string"* @_ZNSt3__112basic_stringIcNS_11char_traitsIcEENS_9allocatorIcEEE17__assign_externalEPKc(%"class.std::__1::basic_string"* %1, i8* getelementptr inbounds ([0 x i8], [0 x i8]* @_ZN11google_apis4util27kContentTypeApplicationJsonE, i64 0, i64 0)) #16
  br label %54

54:                                               ; preds = %48, %50, %52
  %55 = bitcast %"class.base::DictionaryValue"* %4 to i8*
  call void @llvm.lifetime.start.p0i8(i64 32, i8* nonnull %55) #16
  %56 = bitcast %"class.base::DictionaryValue"* %4 to i8*
  call void @llvm.memset.p0i8.i64(i8* nonnull align 8 %56, i8 -86, i64 32, i1 false)
  call void @_ZN4base15DictionaryValueC1Ev(%"class.base::DictionaryValue"* nonnull %4) #16
  %57 = getelementptr inbounds %"class.google_apis::drive::FilesCopyRequest", %"class.google_apis::drive::FilesCopyRequest"* %0, i64 0, i32 4
  %58 = getelementptr inbounds %"class.base::Time", %"class.base::Time"* %57, i64 0, i32 0, i32 0
  %59 = load i64, i64* %58, align 8
  %60 = icmp eq i64 %59, 0
  br i1 %60, label %80, label %61

61:                                               ; preds = %54
  %62 = bitcast %"class.std::__1::basic_string"* %5 to i8*
  call void @llvm.lifetime.start.p0i8(i64 24, i8* nonnull %62) #16
  call void @_ZN11google_apis4util18FormatTimeAsStringERKN4base4TimeE(%"class.std::__1::basic_string"* nonnull sret %5, %"class.base::Time"* dereferenceable(8) %57) #16
  %63 = bitcast %"class.std::__1::basic_string"* %5 to %"struct.std::__1::basic_string<char, std::__1::char_traits<char>, std::__1::allocator<char> >::__short"*
  %64 = getelementptr inbounds %"struct.std::__1::basic_string<char, std::__1::char_traits<char>, std::__1::allocator<char> >::__short", %"struct.std::__1::basic_string<char, std::__1::char_traits<char>, std::__1::allocator<char> >::__short"* %63, i64 0, i32 1, i32 0
  %65 = load i8, i8* %64, align 1
  %66 = icmp slt i8 %65, 0
  %67 = getelementptr inbounds %"class.std::__1::basic_string", %"class.std::__1::basic_string"* %5, i64 0, i32 0, i32 0, i32 0, i32 0, i32 0, i32 0
  %68 = load i8*, i8** %67, align 8
  %69 = select i1 %66, i8* %68, i8* %62
  %70 = getelementptr inbounds %"class.std::__1::basic_string", %"class.std::__1::basic_string"* %5, i64 0, i32 0, i32 0, i32 0, i32 0, i32 0, i32 1
  %71 = load i64, i64* %70, align 8
  %72 = zext i8 %65 to i64
  %73 = select i1 %66, i64 %71, i64 %72
  %74 = call %"class.base::Value"* @_ZN4base15DictionaryValue9SetStringENS_16BasicStringPieceIcNSt3__111char_traitsIcEEEES5_(%"class.base::DictionaryValue"* nonnull %4, i8* getelementptr inbounds ([13 x i8], [13 x i8]* @.str.7, i64 0, i64 0), i64 12, i8* %69, i64 %73) #16
  %75 = load i8, i8* %64, align 1
  %76 = icmp slt i8 %75, 0
  br i1 %76, label %77, label %79

77:                                               ; preds = %61
  %78 = load i8*, i8** %67, align 8
  call void @_ZdlPv(i8* %78) #17
  br label %79

79:                                               ; preds = %61, %77
  call void @llvm.lifetime.end.p0i8(i64 24, i8* nonnull %62) #16
  br label %80

80:                                               ; preds = %79, %54
  %81 = load %"class.std::__1::basic_string"*, %"class.std::__1::basic_string"** %7, align 8
  %82 = load %"class.std::__1::basic_string"*, %"class.std::__1::basic_string"** %9, align 8
  %83 = icmp eq %"class.std::__1::basic_string"* %81, %82
  br i1 %83, label %121, label %84

84:                                               ; preds = %80
  %85 = call i8* @_Znwm(i64 32) #17
  %86 = bitcast i8* %85 to %"class.base::ListValue"*
  call void @_ZN4base9ListValueC1Ev(%"class.base::ListValue"* nonnull %86) #16
  %87 = bitcast %"class.std::__1::basic_string"** %9 to i64*
  %88 = load i64, i64* %87, align 8
  %89 = bitcast %"class.std::__1::vector.58"* %6 to i64*
  %90 = load i64, i64* %89, align 8
  %91 = icmp eq i64 %88, %90
  br i1 %91, label %92, label %95

92:                                               ; preds = %95, %84
  %93 = bitcast i8* %85 to %"class.base::Value"*
  %94 = call %"class.base::Value"* @_ZN4base15DictionaryValue3SetENS_16BasicStringPieceIcNSt3__111char_traitsIcEEEENS2_10unique_ptrINS_5ValueENS2_14default_deleteIS7_EEEE(%"class.base::DictionaryValue"* nonnull %4, i8* getelementptr inbounds ([8 x i8], [8 x i8]* @.str.9, i64 0, i64 0), i64 7, %"class.base::Value"* nonnull %93) #16
  br label %121

95:                                               ; preds = %84, %95
  %96 = phi i64 [ %115, %95 ], [ 0, %84 ]
  %97 = call i8* @_Znwm(i64 32) #17
  %98 = bitcast i8* %97 to %"class.base::DictionaryValue"*
  call void @_ZN4base15DictionaryValueC1Ev(%"class.base::DictionaryValue"* nonnull %98) #16
  %99 = load %"class.std::__1::basic_string"*, %"class.std::__1::basic_string"** %7, align 8
  %100 = getelementptr inbounds %"class.std::__1::basic_string", %"class.std::__1::basic_string"* %99, i64 %96
  %101 = bitcast %"class.std::__1::basic_string"* %100 to %"struct.std::__1::basic_string<char, std::__1::char_traits<char>, std::__1::allocator<char> >::__short"*
  %102 = getelementptr inbounds %"struct.std::__1::basic_string<char, std::__1::char_traits<char>, std::__1::allocator<char> >::__short", %"struct.std::__1::basic_string<char, std::__1::char_traits<char>, std::__1::allocator<char> >::__short"* %101, i64 0, i32 1, i32 0
  %103 = load i8, i8* %102, align 1
  %104 = icmp slt i8 %103, 0
  %105 = getelementptr inbounds %"class.std::__1::basic_string", %"class.std::__1::basic_string"* %100, i64 0, i32 0, i32 0, i32 0, i32 0, i32 0, i32 0
  %106 = load i8*, i8** %105, align 8
  %107 = bitcast %"class.std::__1::basic_string"* %100 to i8*
  %108 = select i1 %104, i8* %106, i8* %107
  %109 = getelementptr inbounds %"class.std::__1::basic_string", %"class.std::__1::basic_string"* %99, i64 %96, i32 0, i32 0, i32 0, i32 0, i32 0, i32 1
  %110 = load i64, i64* %109, align 8
  %111 = zext i8 %103 to i64
  %112 = select i1 %104, i64 %110, i64 %111
  %113 = call %"class.base::Value"* @_ZN4base15DictionaryValue9SetStringENS_16BasicStringPieceIcNSt3__111char_traitsIcEEEES5_(%"class.base::DictionaryValue"* nonnull %98, i8* getelementptr inbounds ([3 x i8], [3 x i8]* @.str.8, i64 0, i64 0), i64 2, i8* %108, i64 %112) #16
  %114 = bitcast i8* %97 to %"class.base::Value"*
  call void @_ZN4base9ListValue6AppendENSt3__110unique_ptrINS_5ValueENS1_14default_deleteIS3_EEEE(%"class.base::ListValue"* nonnull %86, %"class.base::Value"* nonnull %114) #16
  %115 = add nuw i64 %96, 1
  %116 = load i64, i64* %87, align 8
  %117 = load i64, i64* %89, align 8
  %118 = sub i64 %116, %117
  %119 = sdiv exact i64 %118, 24
  %120 = icmp ult i64 %115, %119
  br i1 %120, label %95, label %92

121:                                              ; preds = %92, %80
  %122 = getelementptr inbounds %"class.google_apis::drive::FilesCopyRequest", %"class.google_apis::drive::FilesCopyRequest"* %0, i64 0, i32 6
  %123 = bitcast %"class.std::__1::basic_string"* %122 to %"struct.std::__1::basic_string<char, std::__1::char_traits<char>, std::__1::allocator<char> >::__short"*
  %124 = getelementptr inbounds %"struct.std::__1::basic_string<char, std::__1::char_traits<char>, std::__1::allocator<char> >::__short", %"struct.std::__1::basic_string<char, std::__1::char_traits<char>, std::__1::allocator<char> >::__short"* %123, i64 0, i32 1, i32 0
  %125 = load i8, i8* %124, align 1
  %126 = icmp slt i8 %125, 0
  br i1 %126, label %127, label %130

127:                                              ; preds = %121
  %128 = getelementptr inbounds %"class.google_apis::drive::FilesCopyRequest", %"class.google_apis::drive::FilesCopyRequest"* %0, i64 0, i32 6, i32 0, i32 0, i32 0, i32 0, i32 0, i32 1
  %129 = load i64, i64* %128, align 8
  br label %132

130:                                              ; preds = %121
  %131 = zext i8 %125 to i64
  br label %132

132:                                              ; preds = %127, %130
  %133 = phi i64 [ %129, %127 ], [ %131, %130 ]
  %134 = icmp eq i64 %133, 0
  br i1 %134, label %145, label %135

135:                                              ; preds = %132
  %136 = getelementptr inbounds %"class.std::__1::basic_string", %"class.std::__1::basic_string"* %122, i64 0, i32 0, i32 0, i32 0, i32 0, i32 0, i32 0
  %137 = load i8*, i8** %136, align 8
  %138 = bitcast %"class.std::__1::basic_string"* %122 to i8*
  %139 = select i1 %126, i8* %137, i8* %138
  %140 = getelementptr inbounds %"class.google_apis::drive::FilesCopyRequest", %"class.google_apis::drive::FilesCopyRequest"* %0, i64 0, i32 6, i32 0, i32 0, i32 0, i32 0, i32 0, i32 1
  %141 = load i64, i64* %140, align 8
  %142 = zext i8 %125 to i64
  %143 = select i1 %126, i64 %141, i64 %142
  %144 = call %"class.base::Value"* @_ZN4base15DictionaryValue9SetStringENS_16BasicStringPieceIcNSt3__111char_traitsIcEEEES5_(%"class.base::DictionaryValue"* nonnull %4, i8* getelementptr inbounds ([6 x i8], [6 x i8]* @.str.10, i64 0, i64 0), i64 5, i8* %139, i64 %143) #16
  br label %145

145:                                              ; preds = %135, %132
  %146 = getelementptr inbounds %"class.base::DictionaryValue", %"class.base::DictionaryValue"* %4, i64 0, i32 0
  %147 = call zeroext i1 @_ZN4base10JSONWriter5WriteERKNS_5ValueEPNSt3__112basic_stringIcNS4_11char_traitsIcEENS4_9allocatorIcEEEEm(%"class.base::Value"* nonnull dereferenceable(32) %146, %"class.std::__1::basic_string"* %2, i64 200) #16
  call void @_ZN4base5ValueD2Ev(%"class.base::Value"* nonnull %146) #16
  call void @llvm.lifetime.end.p0i8(i64 32, i8* nonnull %55) #16
  br label %148

148:                                              ; preds = %23, %145
  %149 = phi i1 [ true, %145 ], [ false, %23 ]
  ret i1 %149
}

; Function Attrs: nounwind ssp uwtable
define hidden void @_ZN11google_apis5drive20TeamDriveListRequestC2EPNS_13RequestSenderERKNS_20DriveApiUrlGeneratorEN4base12OnceCallbackIFvNS_17DriveApiErrorCodeENSt3__110unique_ptrINS_13TeamDriveListENSA_14default_deleteISC_EEEEEEE(%"class.google_apis::drive::TeamDriveListRequest"*, %"class.google_apis::RequestSender"*, %"class.google_apis::DriveApiUrlGenerator"* dereferenceable(360), %"class.base::OnceCallback.119"* nocapture) unnamed_addr #0 align 2 {
  %5 = alloca %"class.base::RepeatingCallback.42", align 8
  %6 = alloca %"class.base::RepeatingCallback.42", align 8
  %7 = alloca %"class.base::OnceCallback.119", align 8
  %8 = getelementptr inbounds %"class.base::OnceCallback.119", %"class.base::OnceCallback.119"* %3, i64 0, i32 0, i32 0, i32 0
  %9 = bitcast %"class.base::OnceCallback.119"* %3 to i64*
  %10 = load i64, i64* %9, align 8
  store %"class.base::internal::BindStateBase"* null, %"class.base::internal::BindStateBase"** %8, align 8
  %11 = bitcast %"class.base::RepeatingCallback.42"* %5 to i8*
  call void @llvm.lifetime.start.p0i8(i64 8, i8* nonnull %11) #16
  %12 = bitcast %"class.base::RepeatingCallback.42"* %6 to i8*
  call void @llvm.lifetime.start.p0i8(i64 8, i8* nonnull %12) #16
  %13 = getelementptr inbounds %"class.google_apis::drive::TeamDriveListRequest", %"class.google_apis::drive::TeamDriveListRequest"* %0, i64 0, i32 0, i32 0, i32 0
  %14 = getelementptr inbounds %"class.base::RepeatingCallback.42", %"class.base::RepeatingCallback.42"* %5, i64 0, i32 0, i32 0, i32 0, i32 0
  store %"class.base::internal::BindStateBase"* null, %"class.base::internal::BindStateBase"** %14, align 8
  %15 = getelementptr inbounds %"class.base::RepeatingCallback.42", %"class.base::RepeatingCallback.42"* %6, i64 0, i32 0, i32 0, i32 0, i32 0
  store %"class.base::internal::BindStateBase"* null, %"class.base::internal::BindStateBase"** %15, align 8
  call void @_ZN11google_apis19UrlFetchRequestBaseC2EPNS_13RequestSenderEN4base17RepeatingCallbackIFvllEEES6_(%"class.google_apis::UrlFetchRequestBase"* %13, %"class.google_apis::RequestSender"* %1, %"class.base::RepeatingCallback.42"* nonnull %5, %"class.base::RepeatingCallback.42"* nonnull %6) #16
  %16 = getelementptr inbounds %"class.base::RepeatingCallback.42", %"class.base::RepeatingCallback.42"* %6, i64 0, i32 0, i32 0
  call void @_ZN4base8internal12CallbackBaseD2Ev(%"class.base::internal::CallbackBase"* nonnull %16) #16
  %17 = getelementptr inbounds %"class.base::RepeatingCallback.42", %"class.base::RepeatingCallback.42"* %5, i64 0, i32 0, i32 0
  call void @_ZN4base8internal12CallbackBaseD2Ev(%"class.base::internal::CallbackBase"* nonnull %17) #16
  %18 = getelementptr inbounds %"class.google_apis::drive::TeamDriveListRequest", %"class.google_apis::drive::TeamDriveListRequest"* %0, i64 0, i32 0, i32 0, i32 1
  %19 = bitcast %"class.std::__1::basic_string"* %18 to i8*
  call void @llvm.memset.p0i8.i64(i8* align 8 %19, i8 0, i64 24, i1 false) #16
  call void @llvm.lifetime.end.p0i8(i64 8, i8* nonnull %11) #16
  call void @llvm.lifetime.end.p0i8(i64 8, i8* nonnull %12) #16
  %20 = bitcast %"class.google_apis::drive::TeamDriveListRequest"* %0 to <2 x i32 (...)**>*
  store <2 x i32 (...)**> <i32 (...)** bitcast (i8** getelementptr inbounds ({ [21 x i8*], [7 x i8*] }, { [21 x i8*], [7 x i8*] }* @_ZTVN11google_apis5drive19DriveApiDataRequestINS_13TeamDriveListEEE, i64 0, inrange i32 0, i64 2) to i32 (...)**), i32 (...)** bitcast (i8** getelementptr inbounds ({ [21 x i8*], [7 x i8*] }, { [21 x i8*], [7 x i8*] }* @_ZTVN11google_apis5drive19DriveApiDataRequestINS_13TeamDriveListEEE, i64 0, inrange i32 1, i64 2) to i32 (...)**)>, <2 x i32 (...)**>* %20, align 8
  %21 = getelementptr inbounds %"class.google_apis::drive::TeamDriveListRequest", %"class.google_apis::drive::TeamDriveListRequest"* %0, i64 0, i32 0, i32 1
  %22 = getelementptr inbounds %"class.base::OnceCallback.119", %"class.base::OnceCallback.119"* %7, i64 0, i32 0, i32 0, i32 0
  %23 = bitcast %"class.base::OnceCallback.119"* %21 to i64*
  store i64 %10, i64* %23, align 8
  store %"class.base::internal::BindStateBase"* null, %"class.base::internal::BindStateBase"** %22, align 8
  %24 = getelementptr inbounds %"class.google_apis::drive::TeamDriveListRequest", %"class.google_apis::drive::TeamDriveListRequest"* %0, i64 0, i32 0, i32 2, i32 0
  %25 = ptrtoint %"class.google_apis::drive::TeamDriveListRequest"* %0 to i64
  call void @_ZN4base8internal18WeakPtrFactoryBaseC2Em(%"class.base::internal::WeakPtrFactoryBase"* %24, i64 %25) #16
  %26 = getelementptr inbounds %"class.base::OnceCallback.119", %"class.base::OnceCallback.119"* %7, i64 0, i32 0
  call void @_ZN4base8internal12CallbackBaseD2Ev(%"class.base::internal::CallbackBase"* nonnull %26) #16
  %27 = bitcast %"class.google_apis::drive::TeamDriveListRequest"* %0 to <2 x i32 (...)**>*
  store <2 x i32 (...)**> <i32 (...)** bitcast (i8** getelementptr inbounds ({ [21 x i8*], [7 x i8*] }, { [21 x i8*], [7 x i8*] }* @_ZTVN11google_apis5drive20TeamDriveListRequestE, i64 0, inrange i32 0, i64 2) to i32 (...)**), i32 (...)** bitcast (i8** getelementptr inbounds ({ [21 x i8*], [7 x i8*] }, { [21 x i8*], [7 x i8*] }* @_ZTVN11google_apis5drive20TeamDriveListRequestE, i64 0, inrange i32 1, i64 2) to i32 (...)**)>, <2 x i32 (...)**>* %27, align 8
  %28 = getelementptr inbounds %"class.google_apis::drive::TeamDriveListRequest", %"class.google_apis::drive::TeamDriveListRequest"* %0, i64 0, i32 1
  call void @_ZN11google_apis20DriveApiUrlGeneratorC1ERKS0_(%"class.google_apis::DriveApiUrlGenerator"* %28, %"class.google_apis::DriveApiUrlGenerator"* dereferenceable(360) %2) #16
  %29 = getelementptr inbounds %"class.google_apis::drive::TeamDriveListRequest", %"class.google_apis::drive::TeamDriveListRequest"* %0, i64 0, i32 2
  store i32 30, i32* %29, align 8
  %30 = getelementptr inbounds %"class.google_apis::drive::TeamDriveListRequest", %"class.google_apis::drive::TeamDriveListRequest"* %0, i64 0, i32 3
  %31 = bitcast %"class.std::__1::basic_string"* %30 to i8*
  call void @llvm.memset.p0i8.i64(i8* align 8 %31, i8 0, i64 24, i1 false) #16
  ret void
}

; Function Attrs: nounwind ssp uwtable
define hidden void @_ZN11google_apis5drive20TeamDriveListRequestD2Ev(%"class.google_apis::drive::TeamDriveListRequest"*) unnamed_addr #0 align 2 {
  %2 = bitcast %"class.google_apis::drive::TeamDriveListRequest"* %0 to <2 x i32 (...)**>*
  store <2 x i32 (...)**> <i32 (...)** bitcast (i8** getelementptr inbounds ({ [21 x i8*], [7 x i8*] }, { [21 x i8*], [7 x i8*] }* @_ZTVN11google_apis5drive20TeamDriveListRequestE, i64 0, inrange i32 0, i64 2) to i32 (...)**), i32 (...)** bitcast (i8** getelementptr inbounds ({ [21 x i8*], [7 x i8*] }, { [21 x i8*], [7 x i8*] }* @_ZTVN11google_apis5drive20TeamDriveListRequestE, i64 0, inrange i32 1, i64 2) to i32 (...)**)>, <2 x i32 (...)**>* %2, align 8
  %3 = getelementptr inbounds %"class.google_apis::drive::TeamDriveListRequest", %"class.google_apis::drive::TeamDriveListRequest"* %0, i64 0, i32 3
  %4 = bitcast %"class.std::__1::basic_string"* %3 to %"struct.std::__1::basic_string<char, std::__1::char_traits<char>, std::__1::allocator<char> >::__short"*
  %5 = getelementptr inbounds %"struct.std::__1::basic_string<char, std::__1::char_traits<char>, std::__1::allocator<char> >::__short", %"struct.std::__1::basic_string<char, std::__1::char_traits<char>, std::__1::allocator<char> >::__short"* %4, i64 0, i32 1, i32 0
  %6 = load i8, i8* %5, align 1
  %7 = icmp slt i8 %6, 0
  br i1 %7, label %8, label %11

8:                                                ; preds = %1
  %9 = getelementptr inbounds %"class.std::__1::basic_string", %"class.std::__1::basic_string"* %3, i64 0, i32 0, i32 0, i32 0, i32 0, i32 0, i32 0
  %10 = load i8*, i8** %9, align 8
  tail call void @_ZdlPv(i8* %10) #17
  br label %11

11:                                               ; preds = %1, %8
  %12 = getelementptr inbounds %"class.google_apis::drive::TeamDriveListRequest", %"class.google_apis::drive::TeamDriveListRequest"* %0, i64 0, i32 1
  tail call void @_ZN11google_apis20DriveApiUrlGeneratorD1Ev(%"class.google_apis::DriveApiUrlGenerator"* %12) #16
  %13 = bitcast %"class.google_apis::drive::TeamDriveListRequest"* %0 to <2 x i32 (...)**>*
  store <2 x i32 (...)**> <i32 (...)** bitcast (i8** getelementptr inbounds ({ [21 x i8*], [7 x i8*] }, { [21 x i8*], [7 x i8*] }* @_ZTVN11google_apis5drive19DriveApiDataRequestINS_13TeamDriveListEEE, i64 0, inrange i32 0, i64 2) to i32 (...)**), i32 (...)** bitcast (i8** getelementptr inbounds ({ [21 x i8*], [7 x i8*] }, { [21 x i8*], [7 x i8*] }* @_ZTVN11google_apis5drive19DriveApiDataRequestINS_13TeamDriveListEEE, i64 0, inrange i32 1, i64 2) to i32 (...)**)>, <2 x i32 (...)**>* %13, align 8
  %14 = getelementptr inbounds %"class.google_apis::drive::TeamDriveListRequest", %"class.google_apis::drive::TeamDriveListRequest"* %0, i64 0, i32 0, i32 2, i32 0
  tail call void @_ZN4base8internal18WeakPtrFactoryBaseD2Ev(%"class.base::internal::WeakPtrFactoryBase"* %14) #16
  %15 = getelementptr inbounds %"class.google_apis::drive::TeamDriveListRequest", %"class.google_apis::drive::TeamDriveListRequest"* %0, i64 0, i32 0, i32 1, i32 0
  tail call void @_ZN4base8internal12CallbackBaseD2Ev(%"class.base::internal::CallbackBase"* %15) #16
  %16 = bitcast %"class.google_apis::drive::TeamDriveListRequest"* %0 to <2 x i32 (...)**>*
  store <2 x i32 (...)**> <i32 (...)** bitcast (i8** getelementptr inbounds ({ [21 x i8*], [7 x i8*] }, { [21 x i8*], [7 x i8*] }* @_ZTVN11google_apis5drive27DriveApiPartialFieldRequestE, i64 0, inrange i32 0, i64 2) to i32 (...)**), i32 (...)** bitcast (i8** getelementptr inbounds ({ [21 x i8*], [7 x i8*] }, { [21 x i8*], [7 x i8*] }* @_ZTVN11google_apis5drive27DriveApiPartialFieldRequestE, i64 0, inrange i32 1, i64 2) to i32 (...)**)>, <2 x i32 (...)**>* %16, align 8
  %17 = getelementptr inbounds %"class.google_apis::drive::TeamDriveListRequest", %"class.google_apis::drive::TeamDriveListRequest"* %0, i64 0, i32 0, i32 0, i32 1
  %18 = bitcast %"class.std::__1::basic_string"* %17 to %"struct.std::__1::basic_string<char, std::__1::char_traits<char>, std::__1::allocator<char> >::__short"*
  %19 = getelementptr inbounds %"struct.std::__1::basic_string<char, std::__1::char_traits<char>, std::__1::allocator<char> >::__short", %"struct.std::__1::basic_string<char, std::__1::char_traits<char>, std::__1::allocator<char> >::__short"* %18, i64 0, i32 1, i32 0
  %20 = load i8, i8* %19, align 1
  %21 = icmp slt i8 %20, 0
  br i1 %21, label %22, label %25

22:                                               ; preds = %11
  %23 = getelementptr inbounds %"class.std::__1::basic_string", %"class.std::__1::basic_string"* %17, i64 0, i32 0, i32 0, i32 0, i32 0, i32 0, i32 0
  %24 = load i8*, i8** %23, align 8
  tail call void @_ZdlPv(i8* %24) #17
  br label %25

25:                                               ; preds = %11, %22
  %26 = getelementptr inbounds %"class.google_apis::drive::TeamDriveListRequest", %"class.google_apis::drive::TeamDriveListRequest"* %0, i64 0, i32 0, i32 0, i32 0
  tail call void @_ZN11google_apis19UrlFetchRequestBaseD2Ev(%"class.google_apis::UrlFetchRequestBase"* %26) #16
  ret void
}

; Function Attrs: nounwind ssp uwtable
define hidden void @_ZThn8_N11google_apis5drive20TeamDriveListRequestD1Ev(%"class.google_apis::drive::TeamDriveListRequest"*) unnamed_addr #0 align 2 {
  %2 = getelementptr inbounds %"class.google_apis::drive::TeamDriveListRequest", %"class.google_apis::drive::TeamDriveListRequest"* %0, i64 -1, i32 3, i32 0, i32 0, i32 0, i32 0, i32 0, i32 2
  %3 = bitcast i64* %2 to %"class.google_apis::drive::TeamDriveListRequest"*
  tail call void @_ZN11google_apis5drive20TeamDriveListRequestD2Ev(%"class.google_apis::drive::TeamDriveListRequest"* %3) #16
  ret void
}

; Function Attrs: nounwind ssp uwtable
define hidden void @_ZN11google_apis5drive20TeamDriveListRequestD0Ev(%"class.google_apis::drive::TeamDriveListRequest"*) unnamed_addr #0 align 2 {
  tail call void @_ZN11google_apis5drive20TeamDriveListRequestD2Ev(%"class.google_apis::drive::TeamDriveListRequest"* %0) #16
  %2 = bitcast %"class.google_apis::drive::TeamDriveListRequest"* %0 to i8*
  tail call void @_ZdlPv(i8* %2) #17
  ret void
}

; Function Attrs: nounwind ssp uwtable
define hidden void @_ZThn8_N11google_apis5drive20TeamDriveListRequestD0Ev(%"class.google_apis::drive::TeamDriveListRequest"*) unnamed_addr #0 align 2 {
  %2 = getelementptr inbounds %"class.google_apis::drive::TeamDriveListRequest", %"class.google_apis::drive::TeamDriveListRequest"* %0, i64 -1, i32 3, i32 0, i32 0, i32 0, i32 0, i32 0, i32 2
  %3 = bitcast i64* %2 to %"class.google_apis::drive::TeamDriveListRequest"*
  tail call void @_ZN11google_apis5drive20TeamDriveListRequestD2Ev(%"class.google_apis::drive::TeamDriveListRequest"* %3) #16
  %4 = bitcast i64* %2 to i8*
  tail call void @_ZdlPv(i8* %4) #17
  ret void
}

; Function Attrs: nounwind ssp uwtable
define hidden void @_ZNK11google_apis5drive20TeamDriveListRequest14GetURLInternalEv(%class.GURL* noalias sret, %"class.google_apis::drive::TeamDriveListRequest"*) unnamed_addr #0 align 2 {
  %3 = getelementptr inbounds %"class.google_apis::drive::TeamDriveListRequest", %"class.google_apis::drive::TeamDriveListRequest"* %1, i64 0, i32 1
  %4 = getelementptr inbounds %"class.google_apis::drive::TeamDriveListRequest", %"class.google_apis::drive::TeamDriveListRequest"* %1, i64 0, i32 2
  %5 = load i32, i32* %4, align 8
  %6 = getelementptr inbounds %"class.google_apis::drive::TeamDriveListRequest", %"class.google_apis::drive::TeamDriveListRequest"* %1, i64 0, i32 3
  tail call void @_ZNK11google_apis20DriveApiUrlGenerator19GetTeamDriveListUrlEiRKNSt3__112basic_stringIcNS1_11char_traitsIcEENS1_9allocatorIcEEEE(%class.GURL* sret %0, %"class.google_apis::DriveApiUrlGenerator"* %3, i32 %5, %"class.std::__1::basic_string"* dereferenceable(24) %6) #16
  ret void
}

