; ModuleID = '../../chrome/browser/sync_file_system/drive_backend/drive_backend_constants.cc'
source_filename = "../../chrome/browser/sync_file_system/drive_backend/drive_backend_constants.cc"
target datalayout = "e-m:e-i64:64-f80:128-n8:16:32:64-S128"
target triple = "x86_64-unknown-linux-gnu"

@_ZN16sync_file_system13drive_backend20kSyncRootFolderTitleE = hidden local_unnamed_addr constant [27 x i8] c"Chrome Syncable FileSystem\00", align 16
@_ZN16sync_file_system13drive_backend20kMimeTypeOctetStreamE = hidden local_unnamed_addr constant [25 x i8] c"application/octet-stream\00", align 16
@_ZN16sync_file_system13drive_backend13kDatabaseNameE = hidden local_unnamed_addr constant [17 x i8] c"DriveMetadata_v2\00", align 16
@_ZN16sync_file_system13drive_backend19kDatabaseVersionKeyE = hidden local_unnamed_addr constant [8 x i8] c"VERSION\00", align 1
@_ZN16sync_file_system13drive_backend23kCurrentDatabaseVersionE = hidden local_unnamed_addr constant i64 3, align 8
@_ZN16sync_file_system13drive_backend22kDatabaseOnDiskVersionE = hidden local_unnamed_addr constant i64 4, align 8
@_ZN16sync_file_system13drive_backend19kServiceMetadataKeyE = hidden local_unnamed_addr constant [8 x i8] c"SERVICE\00", align 1
@_ZN16sync_file_system13drive_backend22kFileMetadataKeyPrefixE = hidden local_unnamed_addr constant [7 x i8] c"FILE: \00", align 1
@_ZN16sync_file_system13drive_backend21kFileTrackerKeyPrefixE = hidden local_unnamed_addr constant [10 x i8] c"TRACKER: \00", align 1
@_ZN16sync_file_system13drive_backend22kLastValidationTimeKeyE = hidden local_unnamed_addr constant [11 x i8] c"LAST_VALID\00", align 1
@_ZN16sync_file_system13drive_backend26kAppRootIDByAppIDKeyPrefixE = hidden local_unnamed_addr constant [11 x i8] c"APP_ROOT: \00", align 1
@_ZN16sync_file_system13drive_backend33kActiveTrackerIDByFileIDKeyPrefixE = hidden local_unnamed_addr constant [14 x i8] c"ACTIVE_FILE: \00", align 1
@_ZN16sync_file_system13drive_backend27kTrackerIDByFileIDKeyPrefixE = hidden local_unnamed_addr constant [15 x i8] c"TRACKER_FILE: \00", align 1
@_ZN16sync_file_system13drive_backend30kMultiTrackerByFileIDKeyPrefixE = hidden local_unnamed_addr constant [13 x i8] c"MULTI_FILE: \00", align 1
@_ZN16sync_file_system13drive_backend41kActiveTrackerIDByParentAndTitleKeyPrefixE = hidden local_unnamed_addr constant [14 x i8] c"ACTIVE_PATH: \00", align 1
@_ZN16sync_file_system13drive_backend35kTrackerIDByParentAndTitleKeyPrefixE = hidden local_unnamed_addr constant [15 x i8] c"TRACKER_PATH: \00", align 1
@_ZN16sync_file_system13drive_backend36kMultiBackingParentAndTitleKeyPrefixE = hidden local_unnamed_addr constant [13 x i8] c"MULTI_PATH: \00", align 1
@_ZN16sync_file_system13drive_backend17kDirtyIDKeyPrefixE = hidden local_unnamed_addr constant [8 x i8] c"DIRTY: \00", align 1
@_ZN16sync_file_system13drive_backend24kDemotedDirtyIDKeyPrefixE = hidden local_unnamed_addr constant [16 x i8] c"DEMOTED_DIRTY: \00", align 16
@_ZN16sync_file_system13drive_backend9kMaxRetryE = hidden local_unnamed_addr constant i32 5, align 4
@_ZN16sync_file_system13drive_backend29kListChangesRetryDelaySecondsE = hidden local_unnamed_addr constant i64 3600, align 8
@_ZN16sync_file_system13drive_backend17kInvalidTrackerIDE = hidden local_unnamed_addr constant i64 0, align 8

!llvm.module.flags = !{!0, !1}

!0 = !{i32 1, !"wchar_size", i32 4}
!1 = !{i32 7, !"PIC Level", i32 2}
