; ModuleID = '../../google_apis/drive/drive_api_parser.cc'
source_filename = "../../google_apis/drive/drive_api_parser.cc"
target datalayout = "e-m:e-i64:64-f80:128-n8:16:32:64-S128"
target triple = "x86_64-unknown-linux-gnu"

module asm ".symver exp, exp@GLIBC_2.2.5"
module asm ".symver exp2, exp2@GLIBC_2.2.5"
module asm ".symver exp2f, exp2f@GLIBC_2.2.5"
module asm ".symver expf, expf@GLIBC_2.2.5"
module asm ".symver lgamma, lgamma@GLIBC_2.2.5"
module asm ".symver lgammaf, lgammaf@GLIBC_2.2.5"
module asm ".symver lgammal, lgammal@GLIBC_2.2.5"
module asm ".symver log, log@GLIBC_2.2.5"
module asm ".symver log2, log2@GLIBC_2.2.5"
module asm ".symver log2f, log2f@GLIBC_2.2.5"
module asm ".symver logf, logf@GLIBC_2.2.5"
module asm ".symver pow, pow@GLIBC_2.2.5"
module asm ".symver powf, powf@GLIBC_2.2.5"

%"struct.google_apis::(anonymous namespace)::ChangeTypeMap" = type { i32, i8* }
%"class.std::__1::locale::id" = type <{ %"struct.std::__1::once_flag", i32, [4 x i8] }>
%"struct.std::__1::once_flag" = type { i64 }
%"class.google_apis::AboutResource" = type { i64, i64, i64, %"class.std::__1::basic_string" }
%"class.std::__1::basic_string" = type { %"class.std::__1::__compressed_pair" }
%"class.std::__1::__compressed_pair" = type { %"struct.std::__1::__compressed_pair_elem" }
%"struct.std::__1::__compressed_pair_elem" = type { %"struct.std::__1::basic_string<char, std::__1::char_traits<char>, std::__1::allocator<char> >::__rep" }
%"struct.std::__1::basic_string<char, std::__1::char_traits<char>, std::__1::allocator<char> >::__rep" = type { %union.anon }
%union.anon = type { %"struct.std::__1::basic_string<char, std::__1::char_traits<char>, std::__1::allocator<char> >::__long" }
%"struct.std::__1::basic_string<char, std::__1::char_traits<char>, std::__1::allocator<char> >::__long" = type { i8*, i64, i64 }
%"class.google_apis::TeamDriveCapabilities" = type { i8, i8, i8, i8, i8, i8, i8, i8, i8, i8, i8, i8, i8 }
%"class.google_apis::TeamDriveResource" = type <{ %"class.std::__1::basic_string", %"class.std::__1::basic_string", %"class.google_apis::TeamDriveCapabilities", [3 x i8] }>
%"class.google_apis::TeamDriveList" = type { %"class.std::__1::basic_string", %"class.std::__1::vector.63" }
%"class.std::__1::vector.63" = type { %"class.std::__1::__vector_base.64" }
%"class.std::__1::__vector_base.64" = type { %"class.std::__1::unique_ptr.48"*, %"class.std::__1::unique_ptr.48"*, %"class.std::__1::__compressed_pair.65" }
%"class.std::__1::unique_ptr.48" = type { %"class.std::__1::__compressed_pair.49" }
%"class.std::__1::__compressed_pair.49" = type { %"struct.std::__1::__compressed_pair_elem.50" }
%"struct.std::__1::__compressed_pair_elem.50" = type { %"class.google_apis::TeamDriveResource"* }
%"class.std::__1::__compressed_pair.65" = type { %"struct.std::__1::__compressed_pair_elem.66" }
%"struct.std::__1::__compressed_pair_elem.66" = type { %"class.std::__1::unique_ptr.48"* }
%"class.google_apis::ParentReference" = type { %"class.std::__1::basic_string" }
%"class.google_apis::FileResourceCapabilities" = type { i8, i8, i8, i8, i8, i8, i8, i8, i8, i8, i8, i8, i8, i8, i8, i8, i8 }
%"class.google_apis::FileResource" = type { %"class.std::__1::basic_string", %"class.std::__1::basic_string", %"class.std::__1::basic_string", %"class.std::__1::basic_string", %"class.google_apis::FileLabels", %"class.google_apis::ImageMediaMetadata", %"class.base::Time", %"class.base::Time", %"class.base::Time", %"class.base::Time", %"class.base::Time", i8, %"class.std::__1::basic_string", i64, %class.GURL, %class.GURL, %"class.std::__1::vector.115", %"class.std::__1::vector.121", %"class.google_apis::FileResourceCapabilities", %"class.std::__1::basic_string" }
%"class.google_apis::FileLabels" = type { i8, i8 }
%"class.google_apis::ImageMediaMetadata" = type { i32, i32, i32 }
%"class.base::Time" = type { %"class.base::time_internal::TimeBase" }
%"class.base::time_internal::TimeBase" = type { i64 }
%class.GURL = type { %"class.std::__1::basic_string", i8, %"struct.url::Parsed", %"class.std::__1::unique_ptr.109" }
%"struct.url::Parsed" = type { %"struct.url::Component", %"struct.url::Component", %"struct.url::Component", %"struct.url::Component", %"struct.url::Component", %"struct.url::Component", %"struct.url::Component", %"struct.url::Component", i8, %"struct.url::Parsed"* }
%"struct.url::Component" = type { i32, i32 }
%"class.std::__1::unique_ptr.109" = type { %"class.std::__1::__compressed_pair.110" }
%"class.std::__1::__compressed_pair.110" = type { %"struct.std::__1::__compressed_pair_elem.111" }
%"struct.std::__1::__compressed_pair_elem.111" = type { %class.GURL* }
%"class.std::__1::vector.115" = type { %"class.std::__1::__vector_base.116" }
%"class.std::__1::__vector_base.116" = type { %"class.google_apis::ParentReference"*, %"class.google_apis::ParentReference"*, %"class.std::__1::__compressed_pair.117" }
%"class.std::__1::__compressed_pair.117" = type { %"struct.std::__1::__compressed_pair_elem.96" }
%"struct.std::__1::__compressed_pair_elem.96" = type { %"class.google_apis::ParentReference"* }
%"class.std::__1::vector.121" = type { %"class.std::__1::__vector_base.122" }
%"class.std::__1::__vector_base.122" = type { %"struct.google_apis::FileResource::OpenWithLink"*, %"struct.google_apis::FileResource::OpenWithLink"*, %"class.std::__1::__compressed_pair.123" }
%"struct.google_apis::FileResource::OpenWithLink" = type { %"class.std::__1::basic_string", %class.GURL }
%"class.std::__1::__compressed_pair.123" = type { %"struct.std::__1::__compressed_pair_elem.124" }
%"struct.std::__1::__compressed_pair_elem.124" = type { %"struct.google_apis::FileResource::OpenWithLink"* }
%"class.google_apis::FileList" = type { %class.GURL, %"class.std::__1::vector.143" }
%"class.std::__1::vector.143" = type { %"class.std::__1::__vector_base.144" }
%"class.std::__1::__vector_base.144" = type { %"class.std::__1::unique_ptr.137"*, %"class.std::__1::unique_ptr.137"*, %"class.std::__1::__compressed_pair.145" }
%"class.std::__1::unique_ptr.137" = type { %"class.std::__1::__compressed_pair.138" }
%"class.std::__1::__compressed_pair.138" = type { %"struct.std::__1::__compressed_pair_elem.139" }
%"struct.std::__1::__compressed_pair_elem.139" = type { %"class.google_apis::FileResource"* }
%"class.std::__1::__compressed_pair.145" = type { %"struct.std::__1::__compressed_pair_elem.146" }
%"struct.std::__1::__compressed_pair_elem.146" = type { %"class.std::__1::unique_ptr.137"* }
%"class.google_apis::ChangeResource" = type { i64, i32, %"class.std::__1::basic_string", i8, %"class.std::__1::unique_ptr.137", %"class.base::Time", %"class.std::__1::basic_string", %"class.std::__1::unique_ptr.48" }
%"class.google_apis::ChangeList" = type { %class.GURL, i64, %"class.std::__1::basic_string", %"class.std::__1::vector.180" }
%"class.std::__1::vector.180" = type { %"class.std::__1::__vector_base.181" }
%"class.std::__1::__vector_base.181" = type { %"class.std::__1::unique_ptr.174"*, %"class.std::__1::unique_ptr.174"*, %"class.std::__1::__compressed_pair.182" }
%"class.std::__1::unique_ptr.174" = type { %"class.std::__1::__compressed_pair.175" }
%"class.std::__1::__compressed_pair.175" = type { %"struct.std::__1::__compressed_pair_elem.176" }
%"struct.std::__1::__compressed_pair_elem.176" = type { %"class.google_apis::ChangeResource"* }
%"class.std::__1::__compressed_pair.182" = type { %"struct.std::__1::__compressed_pair_elem.183" }
%"struct.std::__1::__compressed_pair_elem.183" = type { %"class.std::__1::unique_ptr.174"* }
%"class.google_apis::StartPageToken" = type { %"class.std::__1::basic_string" }
%"struct.std::__1::basic_string<char, std::__1::char_traits<char>, std::__1::allocator<char> >::__short" = type { [23 x i8], %struct.anon }
%struct.anon = type { i8 }
%"class.base::Value" = type { %"class.absl::variant" }
%"class.absl::variant" = type { %"class.absl::variant_internal::VariantCopyAssignBaseNontrivial" }
%"class.absl::variant_internal::VariantCopyAssignBaseNontrivial" = type { %"class.absl::variant_internal::VariantMoveAssignBaseNontrivial" }
%"class.absl::variant_internal::VariantMoveAssignBaseNontrivial" = type { %"class.absl::variant_internal::VariantCopyBaseNontrivial" }
%"class.absl::variant_internal::VariantCopyBaseNontrivial" = type { %"class.absl::variant_internal::VariantMoveBaseNontrivial" }
%"class.absl::variant_internal::VariantMoveBaseNontrivial" = type { %"class.absl::variant_internal::VariantStateBaseDestructorNontrivial" }
%"class.absl::variant_internal::VariantStateBaseDestructorNontrivial" = type { %"class.absl::variant_internal::VariantStateBase" }
%"class.absl::variant_internal::VariantStateBase" = type { %"union.absl::variant_internal::DestructibleUnionImpl", i64 }
%"union.absl::variant_internal::DestructibleUnionImpl" = type { %"union.absl::variant_internal::DestructibleUnionImpl.4" }
%"union.absl::variant_internal::DestructibleUnionImpl.4" = type { %"union.absl::variant_internal::DestructibleUnionImpl.5" }
%"union.absl::variant_internal::DestructibleUnionImpl.5" = type { %"union.absl::variant_internal::DestructibleUnionImpl.6" }
%"union.absl::variant_internal::DestructibleUnionImpl.6" = type { %"union.absl::variant_internal::DestructibleUnionImpl.7" }
%"union.absl::variant_internal::DestructibleUnionImpl.7" = type { %"class.std::__1::basic_string" }
%"class.logging::LogMessage" = type { i32 (...)**, i32, %"class.std::__1::basic_ostringstream", i64, i8*, i32, %"class.base::ScopedClearLastErrorBase" }
%"class.std::__1::basic_ostringstream" = type { %"class.std::__1::basic_ostream.base", %"class.std::__1::basic_stringbuf", %"class.std::__1::basic_ios.base" }
%"class.std::__1::basic_ostream.base" = type { i32 (...)** }
%"class.std::__1::basic_stringbuf" = type <{ %"class.std::__1::basic_streambuf", %"class.std::__1::basic_string", i8*, i32, [4 x i8] }>
%"class.std::__1::basic_streambuf" = type { i32 (...)**, %"class.std::__1::locale", i8*, i8*, i8*, i8*, i8*, i8* }
%"class.std::__1::locale" = type { %"class.std::__1::locale::__imp"* }
%"class.std::__1::locale::__imp" = type opaque
%"class.std::__1::basic_ios.base" = type <{ %"class.std::__1::ios_base", %"class.std::__1::basic_ostream"*, i32 }>
%"class.std::__1::ios_base" = type { i32 (...)**, i32, i64, i64, i32, i32, i8*, i8*, void (i32, %"class.std::__1::ios_base"*, i32)**, i32*, i64, i64, i64*, i64, i64, i8**, i64, i64 }
%"class.std::__1::basic_ostream" = type { i32 (...)**, %"class.std::__1::basic_ios.base" }
%"class.base::ScopedClearLastErrorBase" = type { i32 }
%"class.base::DictionaryValue" = type { %"class.base::Value" }
%"class.base::JSONValueConverter" = type { %"class.std::__1::vector.31" }
%"class.std::__1::vector.31" = type { %"class.std::__1::__vector_base.32" }
%"class.std::__1::__vector_base.32" = type { %"class.std::__1::unique_ptr.33"*, %"class.std::__1::unique_ptr.33"*, %"class.std::__1::__compressed_pair.34" }
%"class.std::__1::unique_ptr.33" = type { %"class.std::__1::__compressed_pair.252" }
%"class.std::__1::__compressed_pair.252" = type { %"struct.std::__1::__compressed_pair_elem.253" }
%"struct.std::__1::__compressed_pair_elem.253" = type { %"class.base::internal::FieldConverterBase.254"* }
%"class.base::internal::FieldConverterBase.254" = type { i32 (...)**, %"class.std::__1::basic_string" }
%"class.std::__1::__compressed_pair.34" = type { %"struct.std::__1::__compressed_pair_elem.35" }
%"struct.std::__1::__compressed_pair_elem.35" = type { %"class.std::__1::unique_ptr.33"* }
%"class.base::JSONValueConverter.39" = type { %"class.std::__1::vector.40" }
%"class.std::__1::vector.40" = type { %"class.std::__1::__vector_base.41" }
%"class.std::__1::__vector_base.41" = type { %"class.std::__1::unique_ptr.42"*, %"class.std::__1::unique_ptr.42"*, %"class.std::__1::__compressed_pair.43" }
%"class.std::__1::unique_ptr.42" = type { %"class.std::__1::__compressed_pair.258" }
%"class.std::__1::__compressed_pair.258" = type { %"struct.std::__1::__compressed_pair_elem.259" }
%"struct.std::__1::__compressed_pair_elem.259" = type { %"class.base::internal::FieldConverterBase.260"* }
%"class.base::internal::FieldConverterBase.260" = type { i32 (...)**, %"class.std::__1::basic_string" }
%"class.std::__1::__compressed_pair.43" = type { %"struct.std::__1::__compressed_pair_elem.44" }
%"struct.std::__1::__compressed_pair_elem.44" = type { %"class.std::__1::unique_ptr.42"* }
%"class.base::JSONValueConverter.54" = type { %"class.std::__1::vector.55" }
%"class.std::__1::vector.55" = type { %"class.std::__1::__vector_base.56" }
%"class.std::__1::__vector_base.56" = type { %"class.std::__1::unique_ptr.57"*, %"class.std::__1::unique_ptr.57"*, %"class.std::__1::__compressed_pair.58" }
%"class.std::__1::unique_ptr.57" = type { %"class.std::__1::__compressed_pair.264" }
%"class.std::__1::__compressed_pair.264" = type { %"struct.std::__1::__compressed_pair_elem.265" }
%"struct.std::__1::__compressed_pair_elem.265" = type { %"class.base::internal::FieldConverterBase.266"* }
%"class.base::internal::FieldConverterBase.266" = type { i32 (...)**, %"class.std::__1::basic_string" }
%"class.std::__1::__compressed_pair.58" = type { %"struct.std::__1::__compressed_pair_elem.59" }
%"struct.std::__1::__compressed_pair_elem.59" = type { %"class.std::__1::unique_ptr.57"* }
%"class.base::JSONValueConverter.70" = type { %"class.std::__1::vector.71" }
%"class.std::__1::vector.71" = type { %"class.std::__1::__vector_base.72" }
%"class.std::__1::__vector_base.72" = type { %"class.std::__1::unique_ptr.73"*, %"class.std::__1::unique_ptr.73"*, %"class.std::__1::__compressed_pair.74" }
%"class.std::__1::unique_ptr.73" = type { %"class.std::__1::__compressed_pair.270" }
%"class.std::__1::__compressed_pair.270" = type { %"struct.std::__1::__compressed_pair_elem.271" }
%"struct.std::__1::__compressed_pair_elem.271" = type { %"class.base::internal::FieldConverterBase.272"* }
%"class.base::internal::FieldConverterBase.272" = type { i32 (...)**, %"class.std::__1::basic_string" }
%"class.std::__1::__compressed_pair.74" = type { %"struct.std::__1::__compressed_pair_elem.75" }
%"struct.std::__1::__compressed_pair_elem.75" = type { %"class.std::__1::unique_ptr.73"* }
%"class.base::JSONValueConverter.85" = type { %"class.std::__1::vector.86" }
%"class.std::__1::vector.86" = type { %"class.std::__1::__vector_base.87" }
%"class.std::__1::__vector_base.87" = type { %"class.std::__1::unique_ptr.88"*, %"class.std::__1::unique_ptr.88"*, %"class.std::__1::__compressed_pair.89" }
%"class.std::__1::unique_ptr.88" = type { %"class.std::__1::__compressed_pair.247" }
%"class.std::__1::__compressed_pair.247" = type { %"struct.std::__1::__compressed_pair_elem.248" }
%"struct.std::__1::__compressed_pair_elem.248" = type { %"class.base::internal::FieldConverterBase"* }
%"class.base::internal::FieldConverterBase" = type { i32 (...)**, %"class.std::__1::basic_string" }
%"class.std::__1::__compressed_pair.89" = type { %"struct.std::__1::__compressed_pair_elem.90" }
%"struct.std::__1::__compressed_pair_elem.90" = type { %"class.std::__1::unique_ptr.88"* }
%"class.base::JSONValueConverter.100" = type { %"class.std::__1::vector.101" }
%"class.std::__1::vector.101" = type { %"class.std::__1::__vector_base.102" }
%"class.std::__1::__vector_base.102" = type { %"class.std::__1::unique_ptr.103"*, %"class.std::__1::unique_ptr.103"*, %"class.std::__1::__compressed_pair.104" }
%"class.std::__1::unique_ptr.103" = type { %"class.std::__1::__compressed_pair.276" }
%"class.std::__1::__compressed_pair.276" = type { %"struct.std::__1::__compressed_pair_elem.277" }
%"struct.std::__1::__compressed_pair_elem.277" = type { %"class.base::internal::FieldConverterBase.278"* }
%"class.base::internal::FieldConverterBase.278" = type { i32 (...)**, %"class.std::__1::basic_string" }
%"class.std::__1::__compressed_pair.104" = type { %"struct.std::__1::__compressed_pair_elem.105" }
%"struct.std::__1::__compressed_pair_elem.105" = type { %"class.std::__1::unique_ptr.103"* }
%"class.std::__1::__vector_base_common" = type { i8 }
%"class.base::JSONValueConverter.128" = type { %"class.std::__1::vector.129" }
%"class.std::__1::vector.129" = type { %"class.std::__1::__vector_base.130" }
%"class.std::__1::__vector_base.130" = type { %"class.std::__1::unique_ptr.131"*, %"class.std::__1::unique_ptr.131"*, %"class.std::__1::__compressed_pair.132" }
%"class.std::__1::unique_ptr.131" = type { %"class.std::__1::__compressed_pair.282" }
%"class.std::__1::__compressed_pair.282" = type { %"struct.std::__1::__compressed_pair_elem.283" }
%"struct.std::__1::__compressed_pair_elem.283" = type { %"class.base::internal::FieldConverterBase.284"* }
%"class.base::internal::FieldConverterBase.284" = type { i32 (...)**, %"class.std::__1::basic_string" }
%"class.std::__1::__compressed_pair.132" = type { %"struct.std::__1::__compressed_pair_elem.133" }
%"struct.std::__1::__compressed_pair_elem.133" = type { %"class.std::__1::unique_ptr.131"* }
%"class.base::JSONValueConverter.202" = type { %"class.std::__1::vector.203" }
%"class.std::__1::vector.203" = type { %"class.std::__1::__vector_base.204" }
%"class.std::__1::__vector_base.204" = type { %"class.std::__1::unique_ptr.205"*, %"class.std::__1::unique_ptr.205"*, %"class.std::__1::__compressed_pair.206" }
%"class.std::__1::unique_ptr.205" = type { %"class.std::__1::__compressed_pair.306" }
%"class.std::__1::__compressed_pair.306" = type { %"struct.std::__1::__compressed_pair_elem.307" }
%"struct.std::__1::__compressed_pair_elem.307" = type { %"class.base::internal::FieldConverterBase.308"* }
%"class.base::internal::FieldConverterBase.308" = type { i32 (...)**, %"class.std::__1::basic_string" }
%"class.std::__1::__compressed_pair.206" = type { %"struct.std::__1::__compressed_pair_elem.207" }
%"struct.std::__1::__compressed_pair_elem.207" = type { %"class.std::__1::unique_ptr.205"* }
%"class.base::JSONValueConverter.217" = type { %"class.std::__1::vector.218" }
%"class.std::__1::vector.218" = type { %"class.std::__1::__vector_base.219" }
%"class.std::__1::__vector_base.219" = type { %"class.std::__1::unique_ptr.220"*, %"class.std::__1::unique_ptr.220"*, %"class.std::__1::__compressed_pair.221" }
%"class.std::__1::unique_ptr.220" = type { %"class.std::__1::__compressed_pair.312" }
%"class.std::__1::__compressed_pair.312" = type { %"struct.std::__1::__compressed_pair_elem.313" }
%"struct.std::__1::__compressed_pair_elem.313" = type { %"class.base::internal::FieldConverterBase.314"* }
%"class.base::internal::FieldConverterBase.314" = type { i32 (...)**, %"class.std::__1::basic_string" }
%"class.std::__1::__compressed_pair.221" = type { %"struct.std::__1::__compressed_pair_elem.222" }
%"struct.std::__1::__compressed_pair_elem.222" = type { %"class.std::__1::unique_ptr.220"* }
%"class.base::ListValue" = type { %"class.base::Value" }
%"class.std::__1::vector.23" = type { %"class.std::__1::__vector_base.24" }
%"class.std::__1::__vector_base.24" = type { %"class.base::Value"*, %"class.base::Value"*, %"class.std::__1::__compressed_pair.25" }
%"class.std::__1::__compressed_pair.25" = type { %"struct.std::__1::__compressed_pair_elem.26" }
%"struct.std::__1::__compressed_pair_elem.26" = type { %"class.base::Value"* }
%"class.base::detail::const_dict_iterator::pointer" = type { %"struct.std::__1::pair.330" }
%"struct.std::__1::pair.330" = type { %"class.std::__1::basic_string"*, %"class.base::Value"* }
%"class.base::detail::const_dict_iterator" = type { %"class.std::__1::__wrap_iter" }
%"class.std::__1::__wrap_iter" = type { %"struct.std::__1::pair"* }
%"struct.std::__1::pair" = type opaque
%"class.base::detail::const_dict_iterator_proxy" = type { %"class.base::flat_map"* }
%"class.base::flat_map" = type { %"class.base::internal::flat_tree" }
%"class.base::internal::flat_tree" = type { %"class.std::__1::vector.15" }
%"class.std::__1::vector.15" = type { %"class.std::__1::__vector_base.16" }
%"class.std::__1::__vector_base.16" = type { %"struct.std::__1::pair"*, %"struct.std::__1::pair"*, %"class.std::__1::__compressed_pair.17" }
%"class.std::__1::__compressed_pair.17" = type { %"struct.std::__1::__compressed_pair_elem.18" }
%"struct.std::__1::__compressed_pair_elem.18" = type { %"struct.std::__1::pair"* }
%"class.base::DictionaryValue::Iterator" = type { %"class.base::DictionaryValue"*, %"class.base::detail::const_dict_iterator" }
%"class.base::JSONValueConverter.150" = type { %"class.std::__1::vector.151" }
%"class.std::__1::vector.151" = type { %"class.std::__1::__vector_base.152" }
%"class.std::__1::__vector_base.152" = type { %"class.std::__1::unique_ptr.153"*, %"class.std::__1::unique_ptr.153"*, %"class.std::__1::__compressed_pair.154" }
%"class.std::__1::unique_ptr.153" = type { %"class.std::__1::__compressed_pair.288" }
%"class.std::__1::__compressed_pair.288" = type { %"struct.std::__1::__compressed_pair_elem.289" }
%"struct.std::__1::__compressed_pair_elem.289" = type { %"class.base::internal::FieldConverterBase.290"* }
%"class.base::internal::FieldConverterBase.290" = type { i32 (...)**, %"class.std::__1::basic_string" }
%"class.std::__1::__compressed_pair.154" = type { %"struct.std::__1::__compressed_pair_elem.155" }
%"struct.std::__1::__compressed_pair_elem.155" = type { %"class.std::__1::unique_ptr.153"* }
%"class.base::JSONValueConverter.165" = type { %"class.std::__1::vector.166" }
%"class.std::__1::vector.166" = type { %"class.std::__1::__vector_base.167" }
%"class.std::__1::__vector_base.167" = type { %"class.std::__1::unique_ptr.168"*, %"class.std::__1::unique_ptr.168"*, %"class.std::__1::__compressed_pair.169" }
%"class.std::__1::unique_ptr.168" = type { %"class.std::__1::__compressed_pair.294" }
%"class.std::__1::__compressed_pair.294" = type { %"struct.std::__1::__compressed_pair_elem.295" }
%"struct.std::__1::__compressed_pair_elem.295" = type { %"class.base::internal::FieldConverterBase.296"* }
%"class.base::internal::FieldConverterBase.296" = type { i32 (...)**, %"class.std::__1::basic_string" }
%"class.std::__1::__compressed_pair.169" = type { %"struct.std::__1::__compressed_pair_elem.170" }
%"struct.std::__1::__compressed_pair_elem.170" = type { %"class.std::__1::unique_ptr.168"* }
%"class.base::JSONValueConverter.187" = type { %"class.std::__1::vector.188" }
%"class.std::__1::vector.188" = type { %"class.std::__1::__vector_base.189" }
%"class.std::__1::__vector_base.189" = type { %"class.std::__1::unique_ptr.190"*, %"class.std::__1::unique_ptr.190"*, %"class.std::__1::__compressed_pair.191" }
%"class.std::__1::unique_ptr.190" = type { %"class.std::__1::__compressed_pair.300" }
%"class.std::__1::__compressed_pair.300" = type { %"struct.std::__1::__compressed_pair_elem.301" }
%"struct.std::__1::__compressed_pair_elem.301" = type { %"class.base::internal::FieldConverterBase.302"* }
%"class.base::internal::FieldConverterBase.302" = type { i32 (...)**, %"class.std::__1::basic_string" }
%"class.std::__1::__compressed_pair.191" = type { %"struct.std::__1::__compressed_pair_elem.192" }
%"struct.std::__1::__compressed_pair_elem.192" = type { %"class.std::__1::unique_ptr.190"* }
%"class.base::JSONValueConverter.232" = type { %"class.std::__1::vector.233" }
%"class.std::__1::vector.233" = type { %"class.std::__1::__vector_base.234" }
%"class.std::__1::__vector_base.234" = type { %"class.std::__1::unique_ptr.235"*, %"class.std::__1::unique_ptr.235"*, %"class.std::__1::__compressed_pair.236" }
%"class.std::__1::unique_ptr.235" = type { %"class.std::__1::__compressed_pair.318" }
%"class.std::__1::__compressed_pair.318" = type { %"struct.std::__1::__compressed_pair_elem.319" }
%"struct.std::__1::__compressed_pair_elem.319" = type { %"class.base::internal::FieldConverterBase.320"* }
%"class.base::internal::FieldConverterBase.320" = type { i32 (...)**, %"class.std::__1::basic_string" }
%"class.std::__1::__compressed_pair.236" = type { %"struct.std::__1::__compressed_pair_elem.237" }
%"struct.std::__1::__compressed_pair_elem.237" = type { %"class.std::__1::unique_ptr.235"* }
%"class.logging::CheckError" = type { %"class.logging::LogMessage"* }
%"class.std::__1::basic_ostream<char, std::__1::char_traits<char> >::sentry" = type { i8, %"class.std::__1::basic_ostream"* }
%"class.std::__1::locale::facet" = type { %"class.std::__1::__shared_count" }
%"class.std::__1::__shared_count" = type { i32 (...)**, i64 }
%"class.std::__1::ctype" = type <{ %"class.std::__1::locale::facet", i16*, i8, [7 x i8] }>
%"class.base::internal::FieldConverter" = type { %"class.base::internal::FieldConverterBase.254", i64, %"class.std::__1::unique_ptr.334" }
%"class.std::__1::unique_ptr.334" = type { %"class.std::__1::__compressed_pair.335" }
%"class.std::__1::__compressed_pair.335" = type { %"struct.std::__1::__compressed_pair_elem.336" }
%"struct.std::__1::__compressed_pair_elem.336" = type { %"class.base::internal::ValueConverter"* }
%"class.base::internal::ValueConverter" = type { i32 (...)** }
%"class.base::internal::CustomFieldConverter" = type { %"class.base::internal::ValueConverter", i1 (i8*, i64, i64*)* }
%"class.base::internal::FieldConverter.349" = type { %"class.base::internal::FieldConverterBase.254", i64, %"class.std::__1::unique_ptr.350" }
%"class.std::__1::unique_ptr.350" = type { %"class.std::__1::__compressed_pair.351" }
%"class.std::__1::__compressed_pair.351" = type { %"struct.std::__1::__compressed_pair_elem.352" }
%"struct.std::__1::__compressed_pair_elem.352" = type { %"class.base::internal::ValueConverter.353"* }
%"class.base::internal::ValueConverter.353" = type { i32 (...)** }
%"class.base::internal::FieldConverter.363" = type { %"class.base::internal::FieldConverterBase.260", i64, %"class.std::__1::unique_ptr.364" }
%"class.std::__1::unique_ptr.364" = type { %"class.std::__1::__compressed_pair.365" }
%"class.std::__1::__compressed_pair.365" = type { %"struct.std::__1::__compressed_pair_elem.366" }
%"struct.std::__1::__compressed_pair_elem.366" = type { %"class.base::internal::ValueConverter.367"* }
%"class.base::internal::ValueConverter.367" = type { i32 (...)** }
%"class.base::internal::FieldConverter.381" = type { %"class.base::internal::FieldConverterBase.266", i64, %"class.std::__1::unique_ptr.350" }
%"class.base::internal::FieldConverter.391" = type { %"class.base::internal::FieldConverterBase.266", i64, %"class.std::__1::unique_ptr.392" }
%"class.std::__1::unique_ptr.392" = type { %"class.std::__1::__compressed_pair.393" }
%"class.std::__1::__compressed_pair.393" = type { %"struct.std::__1::__compressed_pair_elem.394" }
%"struct.std::__1::__compressed_pair_elem.394" = type { %"class.base::internal::ValueConverter.395"* }
%"class.base::internal::ValueConverter.395" = type { i32 (...)** }
%"class.base::internal::NestedValueConverter" = type { %"class.base::internal::ValueConverter.395", %"class.base::JSONValueConverter.39" }
%"class.base::internal::FieldConverter.405" = type { %"class.base::internal::FieldConverterBase.272", i64, %"class.std::__1::unique_ptr.350" }
%"class.base::internal::FieldConverter.415" = type { %"class.base::internal::FieldConverterBase.272", i64, %"class.std::__1::unique_ptr.416" }
%"class.std::__1::unique_ptr.416" = type { %"class.std::__1::__compressed_pair.417" }
%"class.std::__1::__compressed_pair.417" = type { %"struct.std::__1::__compressed_pair_elem.418" }
%"struct.std::__1::__compressed_pair_elem.418" = type { %"class.base::internal::ValueConverter.419"* }
%"class.base::internal::ValueConverter.419" = type { i32 (...)** }
%"class.base::internal::RepeatedMessageConverter" = type { %"class.base::internal::ValueConverter.419", %"class.base::JSONValueConverter.54" }
%"class.base::CheckedContiguousIterator" = type { %"class.base::Value"*, %"class.base::Value"*, %"class.base::Value"* }
%"class.logging::CheckOpResult" = type { i8* }
%"class.base::internal::FieldConverter.432" = type { %"class.base::internal::FieldConverterBase", i64, %"class.std::__1::unique_ptr.350" }
%"class.base::internal::FieldConverter.442" = type { %"class.base::internal::FieldConverterBase.278", i64, %"class.std::__1::unique_ptr.364" }
%"class.base::internal::FieldConverter.452" = type { %"class.base::internal::FieldConverterBase.284", i64, %"class.std::__1::unique_ptr.350" }
%"class.base::internal::FieldConverter.462" = type { %"class.base::internal::FieldConverterBase.284", i64, %"class.std::__1::unique_ptr.463" }
%"class.std::__1::unique_ptr.463" = type { %"class.std::__1::__compressed_pair.464" }
%"class.std::__1::__compressed_pair.464" = type { %"struct.std::__1::__compressed_pair_elem.465" }
%"struct.std::__1::__compressed_pair_elem.465" = type { %"class.base::internal::ValueConverter.466"* }
%"class.base::internal::ValueConverter.466" = type { i32 (...)** }
%"class.base::internal::NestedValueConverter.473" = type { %"class.base::internal::ValueConverter.466", %"class.base::JSONValueConverter.202" }
%"class.base::internal::FieldConverter.477" = type { %"class.base::internal::FieldConverterBase.284", i64, %"class.std::__1::unique_ptr.478" }
%"class.std::__1::unique_ptr.478" = type { %"class.std::__1::__compressed_pair.479" }
%"class.std::__1::__compressed_pair.479" = type { %"struct.std::__1::__compressed_pair_elem.480" }
%"struct.std::__1::__compressed_pair_elem.480" = type { %"class.base::internal::ValueConverter.481"* }
%"class.base::internal::ValueConverter.481" = type { i32 (...)** }
%"class.base::internal::NestedValueConverter.488" = type { %"class.base::internal::ValueConverter.481", %"class.base::JSONValueConverter.217" }
%"class.base::internal::FieldConverter.492" = type { %"class.base::internal::FieldConverterBase.284", i64, %"class.std::__1::unique_ptr.493" }
%"class.std::__1::unique_ptr.493" = type { %"class.std::__1::__compressed_pair.494" }
%"class.std::__1::__compressed_pair.494" = type { %"struct.std::__1::__compressed_pair_elem.495" }
%"struct.std::__1::__compressed_pair_elem.495" = type { %"class.base::internal::ValueConverter.496"* }
%"class.base::internal::ValueConverter.496" = type { i32 (...)** }
%"class.base::internal::NestedValueConverter.503" = type { %"class.base::internal::ValueConverter.496", %"class.base::JSONValueConverter.100" }
%"class.base::internal::FieldConverter.507" = type { %"class.base::internal::FieldConverterBase.284", i64, %"class.std::__1::unique_ptr.508" }
%"class.std::__1::unique_ptr.508" = type { %"class.std::__1::__compressed_pair.509" }
%"class.std::__1::__compressed_pair.509" = type { %"struct.std::__1::__compressed_pair_elem.510" }
%"struct.std::__1::__compressed_pair_elem.510" = type { %"class.base::internal::ValueConverter.511"* }
%"class.base::internal::ValueConverter.511" = type { i32 (...)** }
%"class.base::internal::CustomFieldConverter.518" = type { %"class.base::internal::ValueConverter.511", i1 (i8*, i64, %"class.base::Time"*)* }
%"class.base::internal::FieldConverter.522" = type { %"class.base::internal::FieldConverterBase.284", i64, %"class.std::__1::unique_ptr.364" }
%"class.base::internal::FieldConverter.529" = type { %"class.base::internal::FieldConverterBase.284", i64, %"class.std::__1::unique_ptr.334" }
%"class.base::internal::FieldConverter.536" = type { %"class.base::internal::FieldConverterBase.284", i64, %"class.std::__1::unique_ptr.537" }
%"class.std::__1::unique_ptr.537" = type { %"class.std::__1::__compressed_pair.538" }
%"class.std::__1::__compressed_pair.538" = type { %"struct.std::__1::__compressed_pair_elem.539" }
%"struct.std::__1::__compressed_pair_elem.539" = type { %"class.base::internal::ValueConverter.540"* }
%"class.base::internal::ValueConverter.540" = type { i32 (...)** }
%"class.base::internal::CustomFieldConverter.547" = type { %"class.base::internal::ValueConverter.540", i1 (i8*, i64, %class.GURL*)* }
%"class.base::internal::FieldConverter.551" = type { %"class.base::internal::FieldConverterBase.284", i64, %"class.std::__1::unique_ptr.552" }
%"class.std::__1::unique_ptr.552" = type { %"class.std::__1::__compressed_pair.553" }
%"class.std::__1::__compressed_pair.553" = type { %"struct.std::__1::__compressed_pair_elem.554" }
%"struct.std::__1::__compressed_pair_elem.554" = type { %"class.base::internal::ValueConverter.555"* }
%"class.base::internal::ValueConverter.555" = type { i32 (...)** }
%"class.base::internal::ValueFieldConverter" = type { %"class.base::internal::ValueConverter.555", i1 (%"class.base::Value"*, %"class.std::__1::vector.115"*)* }
%"class.base::internal::FieldConverter.565" = type { %"class.base::internal::FieldConverterBase.284", i64, %"class.std::__1::unique_ptr.566" }
%"class.std::__1::unique_ptr.566" = type { %"class.std::__1::__compressed_pair.567" }
%"class.std::__1::__compressed_pair.567" = type { %"struct.std::__1::__compressed_pair_elem.568" }
%"struct.std::__1::__compressed_pair_elem.568" = type { %"class.base::internal::ValueConverter.569"* }
%"class.base::internal::ValueConverter.569" = type { i32 (...)** }
%"class.base::internal::ValueFieldConverter.576" = type { %"class.base::internal::ValueConverter.569", i1 (%"class.base::Value"*, %"class.std::__1::vector.121"*)* }
%"class.base::internal::FieldConverter.580" = type { %"class.base::internal::FieldConverterBase.290", i64, %"class.std::__1::unique_ptr.537" }
%"class.base::internal::FieldConverter.590" = type { %"class.base::internal::FieldConverterBase.290", i64, %"class.std::__1::unique_ptr.591" }
%"class.std::__1::unique_ptr.591" = type { %"class.std::__1::__compressed_pair.592" }
%"class.std::__1::__compressed_pair.592" = type { %"struct.std::__1::__compressed_pair_elem.593" }
%"struct.std::__1::__compressed_pair_elem.593" = type { %"class.base::internal::ValueConverter.594"* }
%"class.base::internal::ValueConverter.594" = type { i32 (...)** }
%"class.base::internal::RepeatedMessageConverter.601" = type { %"class.base::internal::ValueConverter.594", %"class.base::JSONValueConverter.128" }
%"class.base::internal::FieldConverter.608" = type { %"class.base::internal::FieldConverterBase.296", i64, %"class.std::__1::unique_ptr.334" }
%"class.base::internal::FieldConverter.618" = type { %"class.base::internal::FieldConverterBase.296", i64, %"class.std::__1::unique_ptr.619" }
%"class.std::__1::unique_ptr.619" = type { %"class.std::__1::__compressed_pair.620" }
%"class.std::__1::__compressed_pair.620" = type { %"struct.std::__1::__compressed_pair_elem.621" }
%"struct.std::__1::__compressed_pair_elem.621" = type { %"class.base::internal::ValueConverter.622"* }
%"class.base::internal::ValueConverter.622" = type { i32 (...)** }
%"class.base::internal::CustomFieldConverter.629" = type { %"class.base::internal::ValueConverter.622", i1 (i8*, i64, i32*)* }
%"class.base::internal::FieldConverter.633" = type { %"class.base::internal::FieldConverterBase.296", i64, %"class.std::__1::unique_ptr.350" }
%"class.base::internal::FieldConverter.640" = type { %"class.base::internal::FieldConverterBase.296", i64, %"class.std::__1::unique_ptr.364" }
%"class.base::internal::FieldConverter.647" = type { %"class.base::internal::FieldConverterBase.296", i64, %"class.std::__1::unique_ptr.648" }
%"class.std::__1::unique_ptr.648" = type { %"class.std::__1::__compressed_pair.649" }
%"class.std::__1::__compressed_pair.649" = type { %"struct.std::__1::__compressed_pair_elem.650" }
%"struct.std::__1::__compressed_pair_elem.650" = type { %"class.base::internal::ValueConverter.651"* }
%"class.base::internal::ValueConverter.651" = type { i32 (...)** }
%"class.base::internal::ValueFieldConverter.658" = type { %"class.base::internal::ValueConverter.651", i1 (%"class.base::Value"*, %"class.std::__1::unique_ptr.137"*)* }
%"class.base::internal::FieldConverter.662" = type { %"class.base::internal::FieldConverterBase.296", i64, %"class.std::__1::unique_ptr.508" }
%"class.base::internal::FieldConverter.669" = type { %"class.base::internal::FieldConverterBase.296", i64, %"class.std::__1::unique_ptr.670" }
%"class.std::__1::unique_ptr.670" = type { %"class.std::__1::__compressed_pair.671" }
%"class.std::__1::__compressed_pair.671" = type { %"struct.std::__1::__compressed_pair_elem.672" }
%"struct.std::__1::__compressed_pair_elem.672" = type { %"class.base::internal::ValueConverter.673"* }
%"class.base::internal::ValueConverter.673" = type { i32 (...)** }
%"class.base::internal::ValueFieldConverter.680" = type { %"class.base::internal::ValueConverter.673", i1 (%"class.base::Value"*, %"class.std::__1::unique_ptr.48"*)* }
%"class.base::internal::FieldConverter.684" = type { %"class.base::internal::FieldConverterBase.302", i64, %"class.std::__1::unique_ptr.537" }
%"class.base::internal::FieldConverter.694" = type { %"class.base::internal::FieldConverterBase.302", i64, %"class.std::__1::unique_ptr.334" }
%"class.base::internal::FieldConverter.701" = type { %"class.base::internal::FieldConverterBase.302", i64, %"class.std::__1::unique_ptr.350" }
%"class.base::internal::FieldConverter.708" = type { %"class.base::internal::FieldConverterBase.302", i64, %"class.std::__1::unique_ptr.709" }
%"class.std::__1::unique_ptr.709" = type { %"class.std::__1::__compressed_pair.710" }
%"class.std::__1::__compressed_pair.710" = type { %"struct.std::__1::__compressed_pair_elem.711" }
%"struct.std::__1::__compressed_pair_elem.711" = type { %"class.base::internal::ValueConverter.712"* }
%"class.base::internal::ValueConverter.712" = type { i32 (...)** }
%"class.base::internal::RepeatedMessageConverter.719" = type { %"class.base::internal::ValueConverter.712", %"class.base::JSONValueConverter.165" }
%"class.base::internal::FieldConverter.726" = type { %"class.base::internal::FieldConverterBase.308", i64, %"class.std::__1::unique_ptr.364" }
%"class.base::internal::FieldConverter.736" = type { %"class.base::internal::FieldConverterBase.314", i64, %"class.std::__1::unique_ptr.737" }
%"class.std::__1::unique_ptr.737" = type { %"class.std::__1::__compressed_pair.738" }
%"class.std::__1::__compressed_pair.738" = type { %"struct.std::__1::__compressed_pair_elem.739" }
%"struct.std::__1::__compressed_pair_elem.739" = type { %"class.base::internal::ValueConverter.740"* }
%"class.base::internal::ValueConverter.740" = type { i32 (...)** }
%"class.base::internal::FieldConverter.754" = type { %"class.base::internal::FieldConverterBase.320", i64, %"class.std::__1::unique_ptr.350" }

$_ZN4base18JSONValueConverterIN11google_apis13AboutResourceEE19RegisterCustomFieldIlEEvRKNSt3__112basic_stringIcNS5_11char_traitsIcEENS5_9allocatorIcEEEEMS2_T_PFbNS_16BasicStringPieceIcS8_EEPSE_E = comdat any

$_ZN4base18JSONValueConverterIN11google_apis13AboutResourceEE19RegisterStringFieldERKNSt3__112basic_stringIcNS4_11char_traitsIcEENS4_9allocatorIcEEEEMS2_SA_ = comdat any

$_ZN4base18JSONValueConverterIN11google_apis21TeamDriveCapabilitiesEE17RegisterBoolFieldERKNSt3__112basic_stringIcNS4_11char_traitsIcEENS4_9allocatorIcEEEEMS2_b = comdat any

$_ZN4base18JSONValueConverterIN11google_apis17TeamDriveResourceEE19RegisterStringFieldERKNSt3__112basic_stringIcNS4_11char_traitsIcEENS4_9allocatorIcEEEEMS2_SA_ = comdat any

$_ZN4base18JSONValueConverterIN11google_apis17TeamDriveResourceEE19RegisterNestedFieldINS1_21TeamDriveCapabilitiesEEEvRKNSt3__112basic_stringIcNS6_11char_traitsIcEENS6_9allocatorIcEEEEMS2_T_ = comdat any

$_ZN4base18JSONValueConverterIN11google_apis13TeamDriveListEE19RegisterStringFieldERKNSt3__112basic_stringIcNS4_11char_traitsIcEENS4_9allocatorIcEEEEMS2_SA_ = comdat any

$_ZN4base18JSONValueConverterIN11google_apis13TeamDriveListEE23RegisterRepeatedMessageINS1_17TeamDriveResourceEEEvRKNSt3__112basic_stringIcNS6_11char_traitsIcEENS6_9allocatorIcEEEEMS2_NS6_6vectorINS6_10unique_ptrIT_NS6_14default_deleteISH_EEEENSA_ISK_EEEE = comdat any

$_ZN4base18JSONValueConverterIN11google_apis15ParentReferenceEE19RegisterStringFieldERKNSt3__112basic_stringIcNS4_11char_traitsIcEENS4_9allocatorIcEEEEMS2_SA_ = comdat any

$_ZN4base18JSONValueConverterIN11google_apis24FileResourceCapabilitiesEE17RegisterBoolFieldERKNSt3__112basic_stringIcNS4_11char_traitsIcEENS4_9allocatorIcEEEEMS2_b = comdat any

$_ZNSt3__16vectorIN11google_apis12FileResource12OpenWithLinkENS_9allocatorIS3_EEEC2ERKS6_ = comdat any

$_ZN4base18JSONValueConverterIN11google_apis12FileResourceEE19RegisterStringFieldERKNSt3__112basic_stringIcNS4_11char_traitsIcEENS4_9allocatorIcEEEEMS2_SA_ = comdat any

$_ZN4base18JSONValueConverterIN11google_apis12FileResourceEE19RegisterNestedFieldINS1_10FileLabelsEEEvRKNSt3__112basic_stringIcNS6_11char_traitsIcEENS6_9allocatorIcEEEEMS2_T_ = comdat any

$_ZN4base18JSONValueConverterIN11google_apis12FileResourceEE19RegisterNestedFieldINS1_18ImageMediaMetadataEEEvRKNSt3__112basic_stringIcNS6_11char_traitsIcEENS6_9allocatorIcEEEEMS2_T_ = comdat any

$_ZN4base18JSONValueConverterIN11google_apis12FileResourceEE19RegisterNestedFieldINS1_24FileResourceCapabilitiesEEEvRKNSt3__112basic_stringIcNS6_11char_traitsIcEENS6_9allocatorIcEEEEMS2_T_ = comdat any

$_ZN4base18JSONValueConverterIN11google_apis12FileResourceEE19RegisterCustomFieldINS_4TimeEEEvRKNSt3__112basic_stringIcNS6_11char_traitsIcEENS6_9allocatorIcEEEEMS2_T_PFbNS_16BasicStringPieceIcS9_EEPSF_E = comdat any

$_ZN4base18JSONValueConverterIN11google_apis12FileResourceEE17RegisterBoolFieldERKNSt3__112basic_stringIcNS4_11char_traitsIcEENS4_9allocatorIcEEEEMS2_b = comdat any

$_ZN4base18JSONValueConverterIN11google_apis12FileResourceEE19RegisterCustomFieldIlEEvRKNSt3__112basic_stringIcNS5_11char_traitsIcEENS5_9allocatorIcEEEEMS2_T_PFbNS_16BasicStringPieceIcS8_EEPSE_E = comdat any

$_ZN4base18JSONValueConverterIN11google_apis12FileResourceEE19RegisterCustomFieldI4GURLEEvRKNSt3__112basic_stringIcNS6_11char_traitsIcEENS6_9allocatorIcEEEEMS2_T_PFbNS_16BasicStringPieceIcS9_EEPSF_E = comdat any

$_ZN4base18JSONValueConverterIN11google_apis12FileResourceEE24RegisterCustomValueFieldINSt3__16vectorINS1_15ParentReferenceENS5_9allocatorIS7_EEEEEEvRKNS5_12basic_stringIcNS5_11char_traitsIcEENS8_IcEEEEMS2_T_PFbPKNS_5ValueEPSI_E = comdat any

$_ZN4base18JSONValueConverterIN11google_apis12FileResourceEE24RegisterCustomValueFieldINSt3__16vectorINS2_12OpenWithLinkENS5_9allocatorIS7_EEEEEEvRKNS5_12basic_stringIcNS5_11char_traitsIcEENS8_IcEEEEMS2_T_PFbPKNS_5ValueEPSI_E = comdat any

$_ZN4base18JSONValueConverterIN11google_apis8FileListEE19RegisterCustomFieldI4GURLEEvRKNSt3__112basic_stringIcNS6_11char_traitsIcEENS6_9allocatorIcEEEEMS2_T_PFbNS_16BasicStringPieceIcS9_EEPSF_E = comdat any

$_ZN4base18JSONValueConverterIN11google_apis8FileListEE23RegisterRepeatedMessageINS1_12FileResourceEEEvRKNSt3__112basic_stringIcNS6_11char_traitsIcEENS6_9allocatorIcEEEEMS2_NS6_6vectorINS6_10unique_ptrIT_NS6_14default_deleteISH_EEEENSA_ISK_EEEE = comdat any

$_ZN4base18JSONValueConverterIN11google_apis14ChangeResourceEE19RegisterCustomFieldIlEEvRKNSt3__112basic_stringIcNS5_11char_traitsIcEENS5_9allocatorIcEEEEMS2_T_PFbNS_16BasicStringPieceIcS8_EEPSE_E = comdat any

$_ZN4base18JSONValueConverterIN11google_apis14ChangeResourceEE19RegisterCustomFieldINS2_10ChangeTypeEEEvRKNSt3__112basic_stringIcNS6_11char_traitsIcEENS6_9allocatorIcEEEEMS2_T_PFbNS_16BasicStringPieceIcS9_EEPSF_E = comdat any

$_ZN4base18JSONValueConverterIN11google_apis14ChangeResourceEE19RegisterStringFieldERKNSt3__112basic_stringIcNS4_11char_traitsIcEENS4_9allocatorIcEEEEMS2_SA_ = comdat any

$_ZN4base18JSONValueConverterIN11google_apis14ChangeResourceEE17RegisterBoolFieldERKNSt3__112basic_stringIcNS4_11char_traitsIcEENS4_9allocatorIcEEEEMS2_b = comdat any

$_ZN4base18JSONValueConverterIN11google_apis14ChangeResourceEE24RegisterCustomValueFieldINSt3__110unique_ptrINS1_12FileResourceENS5_14default_deleteIS7_EEEEEEvRKNS5_12basic_stringIcNS5_11char_traitsIcEENS5_9allocatorIcEEEEMS2_T_PFbPKNS_5ValueEPSJ_E = comdat any

$_ZN4base18JSONValueConverterIN11google_apis14ChangeResourceEE19RegisterCustomFieldINS_4TimeEEEvRKNSt3__112basic_stringIcNS6_11char_traitsIcEENS6_9allocatorIcEEEEMS2_T_PFbNS_16BasicStringPieceIcS9_EEPSF_E = comdat any

$_ZN4base18JSONValueConverterIN11google_apis14ChangeResourceEE24RegisterCustomValueFieldINSt3__110unique_ptrINS1_17TeamDriveResourceENS5_14default_deleteIS7_EEEEEEvRKNS5_12basic_stringIcNS5_11char_traitsIcEENS5_9allocatorIcEEEEMS2_T_PFbPKNS_5ValueEPSJ_E = comdat any

$_ZN4base18JSONValueConverterIN11google_apis10ChangeListEE19RegisterCustomFieldI4GURLEEvRKNSt3__112basic_stringIcNS6_11char_traitsIcEENS6_9allocatorIcEEEEMS2_T_PFbNS_16BasicStringPieceIcS9_EEPSF_E = comdat any

$_ZN4base18JSONValueConverterIN11google_apis10ChangeListEE19RegisterCustomFieldIlEEvRKNSt3__112basic_stringIcNS5_11char_traitsIcEENS5_9allocatorIcEEEEMS2_T_PFbNS_16BasicStringPieceIcS8_EEPSE_E = comdat any

$_ZN4base18JSONValueConverterIN11google_apis10ChangeListEE19RegisterStringFieldERKNSt3__112basic_stringIcNS4_11char_traitsIcEENS4_9allocatorIcEEEEMS2_SA_ = comdat any

$_ZN4base18JSONValueConverterIN11google_apis10ChangeListEE23RegisterRepeatedMessageINS1_14ChangeResourceEEEvRKNSt3__112basic_stringIcNS6_11char_traitsIcEENS6_9allocatorIcEEEEMS2_NS6_6vectorINS6_10unique_ptrIT_NS6_14default_deleteISH_EEEENSA_ISK_EEEE = comdat any

$_ZN4base18JSONValueConverterIN11google_apis10FileLabelsEE17RegisterBoolFieldERKNSt3__112basic_stringIcNS4_11char_traitsIcEENS4_9allocatorIcEEEEMS2_b = comdat any

$_ZN4base18JSONValueConverterIN11google_apis18ImageMediaMetadataEE16RegisterIntFieldERKNSt3__112basic_stringIcNS4_11char_traitsIcEENS4_9allocatorIcEEEEMS2_i = comdat any

$_ZN4base18JSONValueConverterIN11google_apis14StartPageTokenEE19RegisterStringFieldERKNSt3__112basic_stringIcNS4_11char_traitsIcEENS4_9allocatorIcEEEEMS2_SA_ = comdat any

$_ZNSt3__16vectorIN11google_apis15ParentReferenceENS_9allocatorIS2_EEE8__appendEm = comdat any

$_ZN4absl16variant_internal26TypedThrowBadVariantAccessIRKNSt3__16vectorIN4base5ValueENS2_9allocatorIS5_EEEEEET_v = comdat any

$_ZNSt3__16vectorIN11google_apis12FileResource12OpenWithLinkENS_9allocatorIS3_EEE7reserveEm = comdat any

$_ZNSt3__16vectorIN11google_apis12FileResource12OpenWithLinkENS_9allocatorIS3_EEE21__push_back_slow_pathIRKS3_EEvOT_ = comdat any

$_ZNSt3__124__put_character_sequenceIcNS_11char_traitsIcEEEERNS_13basic_ostreamIT_T0_EES7_PKS4_m = comdat any

$_ZNSt3__116__pad_and_outputIcNS_11char_traitsIcEEEENS_19ostreambuf_iteratorIT_T0_EES6_PKS4_S8_S8_RNS_8ios_baseES4_ = comdat any

$_ZNSt3__16vectorINS_10unique_ptrIN4base8internal18FieldConverterBaseIN11google_apis13AboutResourceEEENS_14default_deleteIS7_EEEENS_9allocatorISA_EEE21__push_back_slow_pathISA_EEvOT_ = comdat any

$_ZN4base8internal14FieldConverterIN11google_apis13AboutResourceElED2Ev = comdat any

$_ZN4base8internal14FieldConverterIN11google_apis13AboutResourceElED0Ev = comdat any

$_ZNK4base8internal14FieldConverterIN11google_apis13AboutResourceElE12ConvertFieldERKNS_5ValueEPS3_ = comdat any

$_ZN4base8internal18FieldConverterBaseIN11google_apis13AboutResourceEED2Ev = comdat any

$_ZN4base8internal18FieldConverterBaseIN11google_apis13AboutResourceEED0Ev = comdat any

$_ZN4base8internal14ValueConverterIlED2Ev = comdat any

$_ZN4base8internal20CustomFieldConverterIlED0Ev = comdat any

$_ZNK4base8internal20CustomFieldConverterIlE7ConvertERKNS_5ValueEPl = comdat any

$_ZN4base8internal14FieldConverterIN11google_apis13AboutResourceENSt3__112basic_stringIcNS4_11char_traitsIcEENS4_9allocatorIcEEEEED2Ev = comdat any

$_ZN4base8internal14FieldConverterIN11google_apis13AboutResourceENSt3__112basic_stringIcNS4_11char_traitsIcEENS4_9allocatorIcEEEEED0Ev = comdat any

$_ZNK4base8internal14FieldConverterIN11google_apis13AboutResourceENSt3__112basic_stringIcNS4_11char_traitsIcEENS4_9allocatorIcEEEEE12ConvertFieldERKNS_5ValueEPS3_ = comdat any

$_ZNSt3__16vectorINS_10unique_ptrIN4base8internal18FieldConverterBaseIN11google_apis21TeamDriveCapabilitiesEEENS_14default_deleteIS7_EEEENS_9allocatorISA_EEE21__push_back_slow_pathISA_EEvOT_ = comdat any

$_ZN4base8internal14FieldConverterIN11google_apis21TeamDriveCapabilitiesEbED2Ev = comdat any

$_ZN4base8internal14FieldConverterIN11google_apis21TeamDriveCapabilitiesEbED0Ev = comdat any

$_ZNK4base8internal14FieldConverterIN11google_apis21TeamDriveCapabilitiesEbE12ConvertFieldERKNS_5ValueEPS3_ = comdat any

$_ZN4base8internal18FieldConverterBaseIN11google_apis21TeamDriveCapabilitiesEED2Ev = comdat any

$_ZN4base8internal18FieldConverterBaseIN11google_apis21TeamDriveCapabilitiesEED0Ev = comdat any

$_ZNSt3__16vectorINS_10unique_ptrIN4base8internal18FieldConverterBaseIN11google_apis17TeamDriveResourceEEENS_14default_deleteIS7_EEEENS_9allocatorISA_EEE21__push_back_slow_pathISA_EEvOT_ = comdat any

$_ZN4base8internal14FieldConverterIN11google_apis17TeamDriveResourceENSt3__112basic_stringIcNS4_11char_traitsIcEENS4_9allocatorIcEEEEED2Ev = comdat any

$_ZN4base8internal14FieldConverterIN11google_apis17TeamDriveResourceENSt3__112basic_stringIcNS4_11char_traitsIcEENS4_9allocatorIcEEEEED0Ev = comdat any

$_ZNK4base8internal14FieldConverterIN11google_apis17TeamDriveResourceENSt3__112basic_stringIcNS4_11char_traitsIcEENS4_9allocatorIcEEEEE12ConvertFieldERKNS_5ValueEPS3_ = comdat any

$_ZN4base8internal18FieldConverterBaseIN11google_apis17TeamDriveResourceEED2Ev = comdat any

$_ZN4base8internal18FieldConverterBaseIN11google_apis17TeamDriveResourceEED0Ev = comdat any

$_ZN4base8internal14FieldConverterIN11google_apis17TeamDriveResourceENS2_21TeamDriveCapabilitiesEED2Ev = comdat any

$_ZN4base8internal14FieldConverterIN11google_apis17TeamDriveResourceENS2_21TeamDriveCapabilitiesEED0Ev = comdat any

$_ZNK4base8internal14FieldConverterIN11google_apis17TeamDriveResourceENS2_21TeamDriveCapabilitiesEE12ConvertFieldERKNS_5ValueEPS3_ = comdat any

$_ZN4base8internal20NestedValueConverterIN11google_apis21TeamDriveCapabilitiesEED2Ev = comdat any

$_ZN4base8internal20NestedValueConverterIN11google_apis21TeamDriveCapabilitiesEED0Ev = comdat any

$_ZNK4base8internal20NestedValueConverterIN11google_apis21TeamDriveCapabilitiesEE7ConvertERKNS_5ValueEPS3_ = comdat any

$_ZNSt3__16vectorINS_10unique_ptrIN4base8internal18FieldConverterBaseIN11google_apis13TeamDriveListEEENS_14default_deleteIS7_EEEENS_9allocatorISA_EEE21__push_back_slow_pathISA_EEvOT_ = comdat any

$_ZN4base8internal14FieldConverterIN11google_apis13TeamDriveListENSt3__112basic_stringIcNS4_11char_traitsIcEENS4_9allocatorIcEEEEED2Ev = comdat any

$_ZN4base8internal14FieldConverterIN11google_apis13TeamDriveListENSt3__112basic_stringIcNS4_11char_traitsIcEENS4_9allocatorIcEEEEED0Ev = comdat any

$_ZNK4base8internal14FieldConverterIN11google_apis13TeamDriveListENSt3__112basic_stringIcNS4_11char_traitsIcEENS4_9allocatorIcEEEEE12ConvertFieldERKNS_5ValueEPS3_ = comdat any

$_ZN4base8internal18FieldConverterBaseIN11google_apis13TeamDriveListEED2Ev = comdat any

$_ZN4base8internal18FieldConverterBaseIN11google_apis13TeamDriveListEED0Ev = comdat any

$_ZN4base8internal14FieldConverterIN11google_apis13TeamDriveListENSt3__16vectorINS4_10unique_ptrINS2_17TeamDriveResourceENS4_14default_deleteIS7_EEEENS4_9allocatorISA_EEEEED2Ev = comdat any

$_ZN4base8internal14FieldConverterIN11google_apis13TeamDriveListENSt3__16vectorINS4_10unique_ptrINS2_17TeamDriveResourceENS4_14default_deleteIS7_EEEENS4_9allocatorISA_EEEEED0Ev = comdat any

$_ZNK4base8internal14FieldConverterIN11google_apis13TeamDriveListENSt3__16vectorINS4_10unique_ptrINS2_17TeamDriveResourceENS4_14default_deleteIS7_EEEENS4_9allocatorISA_EEEEE12ConvertFieldERKNS_5ValueEPS3_ = comdat any

$_ZN4base8internal24RepeatedMessageConverterIN11google_apis17TeamDriveResourceEED2Ev = comdat any

$_ZN4base8internal24RepeatedMessageConverterIN11google_apis17TeamDriveResourceEED0Ev = comdat any

$_ZNK4base8internal24RepeatedMessageConverterIN11google_apis17TeamDriveResourceEE7ConvertERKNS_5ValueEPNSt3__16vectorINS8_10unique_ptrIS3_NS8_14default_deleteIS3_EEEENS8_9allocatorISD_EEEE = comdat any

$_ZNSt3__16vectorINS_10unique_ptrIN11google_apis17TeamDriveResourceENS_14default_deleteIS3_EEEENS_9allocatorIS6_EEE7reserveEm = comdat any

$_ZNK4base25CheckedContiguousIteratorIKNS_5ValueEEdeEv = comdat any

$_ZN4base25CheckedContiguousIteratorIKNS_5ValueEEppEv = comdat any

$_ZN4base25CheckedContiguousIteratorIKNS_5ValueEEC2EPS2_S4_S4_ = comdat any

$_ZZN7logging15CheckOpValueStrIPKN4base5ValueEEENSt3__19enable_ifIXaasr4base8internal23SupportsOstreamOperatorIRKT_EE5valuentsr3std11is_functionINS5_14remove_pointerIS7_E4typeEEE5valueEPcE4typeES9_ENUlRNS5_13basic_ostreamIcNS5_11char_traitsIcEEEEPKvE_8__invokeESK_SM_ = comdat any

$_ZNK4base25CheckedContiguousIteratorIKNS_5ValueEE15CheckComparableERKS3_ = comdat any

$_ZNSt3__16vectorINS_10unique_ptrIN11google_apis17TeamDriveResourceENS_14default_deleteIS3_EEEENS_9allocatorIS6_EEE21__push_back_slow_pathIS6_EEvOT_ = comdat any

$_ZNSt3__16vectorINS_10unique_ptrIN4base8internal18FieldConverterBaseIN11google_apis15ParentReferenceEEENS_14default_deleteIS7_EEEENS_9allocatorISA_EEE21__push_back_slow_pathISA_EEvOT_ = comdat any

$_ZN4base8internal14FieldConverterIN11google_apis15ParentReferenceENSt3__112basic_stringIcNS4_11char_traitsIcEENS4_9allocatorIcEEEEED2Ev = comdat any

$_ZN4base8internal14FieldConverterIN11google_apis15ParentReferenceENSt3__112basic_stringIcNS4_11char_traitsIcEENS4_9allocatorIcEEEEED0Ev = comdat any

$_ZNK4base8internal14FieldConverterIN11google_apis15ParentReferenceENSt3__112basic_stringIcNS4_11char_traitsIcEENS4_9allocatorIcEEEEE12ConvertFieldERKNS_5ValueEPS3_ = comdat any

$_ZN4base8internal18FieldConverterBaseIN11google_apis15ParentReferenceEED2Ev = comdat any

$_ZN4base8internal18FieldConverterBaseIN11google_apis15ParentReferenceEED0Ev = comdat any

$_ZNSt3__16vectorINS_10unique_ptrIN4base8internal18FieldConverterBaseIN11google_apis24FileResourceCapabilitiesEEENS_14default_deleteIS7_EEEENS_9allocatorISA_EEE21__push_back_slow_pathISA_EEvOT_ = comdat any

$_ZN4base8internal14FieldConverterIN11google_apis24FileResourceCapabilitiesEbED2Ev = comdat any

$_ZN4base8internal14FieldConverterIN11google_apis24FileResourceCapabilitiesEbED0Ev = comdat any

$_ZNK4base8internal14FieldConverterIN11google_apis24FileResourceCapabilitiesEbE12ConvertFieldERKNS_5ValueEPS3_ = comdat any

$_ZN4base8internal18FieldConverterBaseIN11google_apis24FileResourceCapabilitiesEED2Ev = comdat any

$_ZN4base8internal18FieldConverterBaseIN11google_apis24FileResourceCapabilitiesEED0Ev = comdat any

$_ZNSt3__16vectorINS_10unique_ptrIN4base8internal18FieldConverterBaseIN11google_apis12FileResourceEEENS_14default_deleteIS7_EEEENS_9allocatorISA_EEE21__push_back_slow_pathISA_EEvOT_ = comdat any

$_ZN4base8internal14FieldConverterIN11google_apis12FileResourceENSt3__112basic_stringIcNS4_11char_traitsIcEENS4_9allocatorIcEEEEED2Ev = comdat any

$_ZN4base8internal14FieldConverterIN11google_apis12FileResourceENSt3__112basic_stringIcNS4_11char_traitsIcEENS4_9allocatorIcEEEEED0Ev = comdat any

$_ZNK4base8internal14FieldConverterIN11google_apis12FileResourceENSt3__112basic_stringIcNS4_11char_traitsIcEENS4_9allocatorIcEEEEE12ConvertFieldERKNS_5ValueEPS3_ = comdat any

$_ZN4base8internal18FieldConverterBaseIN11google_apis12FileResourceEED2Ev = comdat any

$_ZN4base8internal18FieldConverterBaseIN11google_apis12FileResourceEED0Ev = comdat any

$_ZN4base8internal14FieldConverterIN11google_apis12FileResourceENS2_10FileLabelsEED2Ev = comdat any

$_ZN4base8internal14FieldConverterIN11google_apis12FileResourceENS2_10FileLabelsEED0Ev = comdat any

$_ZNK4base8internal14FieldConverterIN11google_apis12FileResourceENS2_10FileLabelsEE12ConvertFieldERKNS_5ValueEPS3_ = comdat any

$_ZN4base8internal20NestedValueConverterIN11google_apis10FileLabelsEED2Ev = comdat any

$_ZN4base8internal20NestedValueConverterIN11google_apis10FileLabelsEED0Ev = comdat any

$_ZNK4base8internal20NestedValueConverterIN11google_apis10FileLabelsEE7ConvertERKNS_5ValueEPS3_ = comdat any

$_ZN4base8internal14FieldConverterIN11google_apis12FileResourceENS2_18ImageMediaMetadataEED2Ev = comdat any

$_ZN4base8internal14FieldConverterIN11google_apis12FileResourceENS2_18ImageMediaMetadataEED0Ev = comdat any

$_ZNK4base8internal14FieldConverterIN11google_apis12FileResourceENS2_18ImageMediaMetadataEE12ConvertFieldERKNS_5ValueEPS3_ = comdat any

$_ZN4base8internal20NestedValueConverterIN11google_apis18ImageMediaMetadataEED2Ev = comdat any

$_ZN4base8internal20NestedValueConverterIN11google_apis18ImageMediaMetadataEED0Ev = comdat any

$_ZNK4base8internal20NestedValueConverterIN11google_apis18ImageMediaMetadataEE7ConvertERKNS_5ValueEPS3_ = comdat any

$_ZN4base8internal14FieldConverterIN11google_apis12FileResourceENS2_24FileResourceCapabilitiesEED2Ev = comdat any

$_ZN4base8internal14FieldConverterIN11google_apis12FileResourceENS2_24FileResourceCapabilitiesEED0Ev = comdat any

$_ZNK4base8internal14FieldConverterIN11google_apis12FileResourceENS2_24FileResourceCapabilitiesEE12ConvertFieldERKNS_5ValueEPS3_ = comdat any

$_ZN4base8internal20NestedValueConverterIN11google_apis24FileResourceCapabilitiesEED2Ev = comdat any

$_ZN4base8internal20NestedValueConverterIN11google_apis24FileResourceCapabilitiesEED0Ev = comdat any

$_ZNK4base8internal20NestedValueConverterIN11google_apis24FileResourceCapabilitiesEE7ConvertERKNS_5ValueEPS3_ = comdat any

$_ZN4base8internal14FieldConverterIN11google_apis12FileResourceENS_4TimeEED2Ev = comdat any

$_ZN4base8internal14FieldConverterIN11google_apis12FileResourceENS_4TimeEED0Ev = comdat any

$_ZNK4base8internal14FieldConverterIN11google_apis12FileResourceENS_4TimeEE12ConvertFieldERKNS_5ValueEPS3_ = comdat any

$_ZN4base8internal20CustomFieldConverterINS_4TimeEED0Ev = comdat any

$_ZNK4base8internal20CustomFieldConverterINS_4TimeEE7ConvertERKNS_5ValueEPS2_ = comdat any

$_ZN4base8internal14ValueConverterINS_4TimeEED2Ev = comdat any

$_ZN4base8internal14FieldConverterIN11google_apis12FileResourceEbED2Ev = comdat any

$_ZN4base8internal14FieldConverterIN11google_apis12FileResourceEbED0Ev = comdat any

$_ZNK4base8internal14FieldConverterIN11google_apis12FileResourceEbE12ConvertFieldERKNS_5ValueEPS3_ = comdat any

$_ZN4base8internal14FieldConverterIN11google_apis12FileResourceElED2Ev = comdat any

$_ZN4base8internal14FieldConverterIN11google_apis12FileResourceElED0Ev = comdat any

$_ZNK4base8internal14FieldConverterIN11google_apis12FileResourceElE12ConvertFieldERKNS_5ValueEPS3_ = comdat any

$_ZN4base8internal14FieldConverterIN11google_apis12FileResourceE4GURLED2Ev = comdat any

$_ZN4base8internal14FieldConverterIN11google_apis12FileResourceE4GURLED0Ev = comdat any

$_ZNK4base8internal14FieldConverterIN11google_apis12FileResourceE4GURLE12ConvertFieldERKNS_5ValueEPS3_ = comdat any

$_ZN4base8internal20CustomFieldConverterI4GURLED0Ev = comdat any

$_ZNK4base8internal20CustomFieldConverterI4GURLE7ConvertERKNS_5ValueEPS2_ = comdat any

$_ZN4base8internal14ValueConverterI4GURLED2Ev = comdat any

$_ZN4base8internal14FieldConverterIN11google_apis12FileResourceENSt3__16vectorINS2_15ParentReferenceENS4_9allocatorIS6_EEEEED2Ev = comdat any

$_ZN4base8internal14FieldConverterIN11google_apis12FileResourceENSt3__16vectorINS2_15ParentReferenceENS4_9allocatorIS6_EEEEED0Ev = comdat any

$_ZNK4base8internal14FieldConverterIN11google_apis12FileResourceENSt3__16vectorINS2_15ParentReferenceENS4_9allocatorIS6_EEEEE12ConvertFieldERKNS_5ValueEPS3_ = comdat any

$_ZN4base8internal14ValueConverterINSt3__16vectorIN11google_apis15ParentReferenceENS2_9allocatorIS5_EEEEED2Ev = comdat any

$_ZN4base8internal19ValueFieldConverterINSt3__16vectorIN11google_apis15ParentReferenceENS2_9allocatorIS5_EEEEED0Ev = comdat any

$_ZNK4base8internal19ValueFieldConverterINSt3__16vectorIN11google_apis15ParentReferenceENS2_9allocatorIS5_EEEEE7ConvertERKNS_5ValueEPS8_ = comdat any

$_ZN4base8internal14FieldConverterIN11google_apis12FileResourceENSt3__16vectorINS3_12OpenWithLinkENS4_9allocatorIS6_EEEEED2Ev = comdat any

$_ZN4base8internal14FieldConverterIN11google_apis12FileResourceENSt3__16vectorINS3_12OpenWithLinkENS4_9allocatorIS6_EEEEED0Ev = comdat any

$_ZNK4base8internal14FieldConverterIN11google_apis12FileResourceENSt3__16vectorINS3_12OpenWithLinkENS4_9allocatorIS6_EEEEE12ConvertFieldERKNS_5ValueEPS3_ = comdat any

$_ZN4base8internal14ValueConverterINSt3__16vectorIN11google_apis12FileResource12OpenWithLinkENS2_9allocatorIS6_EEEEED2Ev = comdat any

$_ZN4base8internal19ValueFieldConverterINSt3__16vectorIN11google_apis12FileResource12OpenWithLinkENS2_9allocatorIS6_EEEEED0Ev = comdat any

$_ZNK4base8internal19ValueFieldConverterINSt3__16vectorIN11google_apis12FileResource12OpenWithLinkENS2_9allocatorIS6_EEEEE7ConvertERKNS_5ValueEPS9_ = comdat any

$_ZNSt3__16vectorINS_10unique_ptrIN4base8internal18FieldConverterBaseIN11google_apis8FileListEEENS_14default_deleteIS7_EEEENS_9allocatorISA_EEE21__push_back_slow_pathISA_EEvOT_ = comdat any

$_ZN4base8internal14FieldConverterIN11google_apis8FileListE4GURLED2Ev = comdat any

$_ZN4base8internal14FieldConverterIN11google_apis8FileListE4GURLED0Ev = comdat any

$_ZNK4base8internal14FieldConverterIN11google_apis8FileListE4GURLE12ConvertFieldERKNS_5ValueEPS3_ = comdat any

$_ZN4base8internal18FieldConverterBaseIN11google_apis8FileListEED2Ev = comdat any

$_ZN4base8internal18FieldConverterBaseIN11google_apis8FileListEED0Ev = comdat any

$_ZN4base8internal14FieldConverterIN11google_apis8FileListENSt3__16vectorINS4_10unique_ptrINS2_12FileResourceENS4_14default_deleteIS7_EEEENS4_9allocatorISA_EEEEED2Ev = comdat any

$_ZN4base8internal14FieldConverterIN11google_apis8FileListENSt3__16vectorINS4_10unique_ptrINS2_12FileResourceENS4_14default_deleteIS7_EEEENS4_9allocatorISA_EEEEED0Ev = comdat any

$_ZNK4base8internal14FieldConverterIN11google_apis8FileListENSt3__16vectorINS4_10unique_ptrINS2_12FileResourceENS4_14default_deleteIS7_EEEENS4_9allocatorISA_EEEEE12ConvertFieldERKNS_5ValueEPS3_ = comdat any

$_ZN4base8internal24RepeatedMessageConverterIN11google_apis12FileResourceEED2Ev = comdat any

$_ZN4base8internal24RepeatedMessageConverterIN11google_apis12FileResourceEED0Ev = comdat any

$_ZNK4base8internal24RepeatedMessageConverterIN11google_apis12FileResourceEE7ConvertERKNS_5ValueEPNSt3__16vectorINS8_10unique_ptrIS3_NS8_14default_deleteIS3_EEEENS8_9allocatorISD_EEEE = comdat any

$_ZNSt3__16vectorINS_10unique_ptrIN11google_apis12FileResourceENS_14default_deleteIS3_EEEENS_9allocatorIS6_EEE7reserveEm = comdat any

$_ZNSt3__16vectorINS_10unique_ptrIN11google_apis12FileResourceENS_14default_deleteIS3_EEEENS_9allocatorIS6_EEE21__push_back_slow_pathIS6_EEvOT_ = comdat any

$_ZNSt3__16vectorINS_10unique_ptrIN4base8internal18FieldConverterBaseIN11google_apis14ChangeResourceEEENS_14default_deleteIS7_EEEENS_9allocatorISA_EEE21__push_back_slow_pathISA_EEvOT_ = comdat any

$_ZN4base8internal14FieldConverterIN11google_apis14ChangeResourceElED2Ev = comdat any

$_ZN4base8internal14FieldConverterIN11google_apis14ChangeResourceElED0Ev = comdat any

$_ZNK4base8internal14FieldConverterIN11google_apis14ChangeResourceElE12ConvertFieldERKNS_5ValueEPS3_ = comdat any

$_ZN4base8internal18FieldConverterBaseIN11google_apis14ChangeResourceEED2Ev = comdat any

$_ZN4base8internal18FieldConverterBaseIN11google_apis14ChangeResourceEED0Ev = comdat any

$_ZN4base8internal14FieldConverterIN11google_apis14ChangeResourceENS3_10ChangeTypeEED2Ev = comdat any

$_ZN4base8internal14FieldConverterIN11google_apis14ChangeResourceENS3_10ChangeTypeEED0Ev = comdat any

$_ZNK4base8internal14FieldConverterIN11google_apis14ChangeResourceENS3_10ChangeTypeEE12ConvertFieldERKNS_5ValueEPS3_ = comdat any

$_ZN4base8internal14ValueConverterIN11google_apis14ChangeResource10ChangeTypeEED2Ev = comdat any

$_ZN4base8internal20CustomFieldConverterIN11google_apis14ChangeResource10ChangeTypeEED0Ev = comdat any

$_ZNK4base8internal20CustomFieldConverterIN11google_apis14ChangeResource10ChangeTypeEE7ConvertERKNS_5ValueEPS4_ = comdat any

$_ZN4base8internal14FieldConverterIN11google_apis14ChangeResourceENSt3__112basic_stringIcNS4_11char_traitsIcEENS4_9allocatorIcEEEEED2Ev = comdat any

$_ZN4base8internal14FieldConverterIN11google_apis14ChangeResourceENSt3__112basic_stringIcNS4_11char_traitsIcEENS4_9allocatorIcEEEEED0Ev = comdat any

$_ZNK4base8internal14FieldConverterIN11google_apis14ChangeResourceENSt3__112basic_stringIcNS4_11char_traitsIcEENS4_9allocatorIcEEEEE12ConvertFieldERKNS_5ValueEPS3_ = comdat any

$_ZN4base8internal14FieldConverterIN11google_apis14ChangeResourceEbED2Ev = comdat any

$_ZN4base8internal14FieldConverterIN11google_apis14ChangeResourceEbED0Ev = comdat any

$_ZNK4base8internal14FieldConverterIN11google_apis14ChangeResourceEbE12ConvertFieldERKNS_5ValueEPS3_ = comdat any

$_ZN4base8internal14FieldConverterIN11google_apis14ChangeResourceENSt3__110unique_ptrINS2_12FileResourceENS4_14default_deleteIS6_EEEEED2Ev = comdat any

$_ZN4base8internal14FieldConverterIN11google_apis14ChangeResourceENSt3__110unique_ptrINS2_12FileResourceENS4_14default_deleteIS6_EEEEED0Ev = comdat any

$_ZNK4base8internal14FieldConverterIN11google_apis14ChangeResourceENSt3__110unique_ptrINS2_12FileResourceENS4_14default_deleteIS6_EEEEE12ConvertFieldERKNS_5ValueEPS3_ = comdat any

$_ZN4base8internal14ValueConverterINSt3__110unique_ptrIN11google_apis12FileResourceENS2_14default_deleteIS5_EEEEED2Ev = comdat any

$_ZN4base8internal19ValueFieldConverterINSt3__110unique_ptrIN11google_apis12FileResourceENS2_14default_deleteIS5_EEEEED0Ev = comdat any

$_ZNK4base8internal19ValueFieldConverterINSt3__110unique_ptrIN11google_apis12FileResourceENS2_14default_deleteIS5_EEEEE7ConvertERKNS_5ValueEPS8_ = comdat any

$_ZN4base8internal14FieldConverterIN11google_apis14ChangeResourceENS_4TimeEED2Ev = comdat any

$_ZN4base8internal14FieldConverterIN11google_apis14ChangeResourceENS_4TimeEED0Ev = comdat any

$_ZNK4base8internal14FieldConverterIN11google_apis14ChangeResourceENS_4TimeEE12ConvertFieldERKNS_5ValueEPS3_ = comdat any

$_ZN4base8internal14FieldConverterIN11google_apis14ChangeResourceENSt3__110unique_ptrINS2_17TeamDriveResourceENS4_14default_deleteIS6_EEEEED2Ev = comdat any

$_ZN4base8internal14FieldConverterIN11google_apis14ChangeResourceENSt3__110unique_ptrINS2_17TeamDriveResourceENS4_14default_deleteIS6_EEEEED0Ev = comdat any

$_ZNK4base8internal14FieldConverterIN11google_apis14ChangeResourceENSt3__110unique_ptrINS2_17TeamDriveResourceENS4_14default_deleteIS6_EEEEE12ConvertFieldERKNS_5ValueEPS3_ = comdat any

$_ZN4base8internal19ValueFieldConverterINSt3__110unique_ptrIN11google_apis17TeamDriveResourceENS2_14default_deleteIS5_EEEEED0Ev = comdat any

$_ZNK4base8internal19ValueFieldConverterINSt3__110unique_ptrIN11google_apis17TeamDriveResourceENS2_14default_deleteIS5_EEEEE7ConvertERKNS_5ValueEPS8_ = comdat any

$_ZN4base8internal14ValueConverterINSt3__110unique_ptrIN11google_apis17TeamDriveResourceENS2_14default_deleteIS5_EEEEED2Ev = comdat any

$_ZNSt3__16vectorINS_10unique_ptrIN4base8internal18FieldConverterBaseIN11google_apis10ChangeListEEENS_14default_deleteIS7_EEEENS_9allocatorISA_EEE21__push_back_slow_pathISA_EEvOT_ = comdat any

$_ZN4base8internal14FieldConverterIN11google_apis10ChangeListE4GURLED2Ev = comdat any

$_ZN4base8internal14FieldConverterIN11google_apis10ChangeListE4GURLED0Ev = comdat any

$_ZNK4base8internal14FieldConverterIN11google_apis10ChangeListE4GURLE12ConvertFieldERKNS_5ValueEPS3_ = comdat any

$_ZN4base8internal18FieldConverterBaseIN11google_apis10ChangeListEED2Ev = comdat any

$_ZN4base8internal18FieldConverterBaseIN11google_apis10ChangeListEED0Ev = comdat any

$_ZN4base8internal14FieldConverterIN11google_apis10ChangeListElED2Ev = comdat any

$_ZN4base8internal14FieldConverterIN11google_apis10ChangeListElED0Ev = comdat any

$_ZNK4base8internal14FieldConverterIN11google_apis10ChangeListElE12ConvertFieldERKNS_5ValueEPS3_ = comdat any

$_ZN4base8internal14FieldConverterIN11google_apis10ChangeListENSt3__112basic_stringIcNS4_11char_traitsIcEENS4_9allocatorIcEEEEED2Ev = comdat any

$_ZN4base8internal14FieldConverterIN11google_apis10ChangeListENSt3__112basic_stringIcNS4_11char_traitsIcEENS4_9allocatorIcEEEEED0Ev = comdat any

$_ZNK4base8internal14FieldConverterIN11google_apis10ChangeListENSt3__112basic_stringIcNS4_11char_traitsIcEENS4_9allocatorIcEEEEE12ConvertFieldERKNS_5ValueEPS3_ = comdat any

$_ZN4base8internal14FieldConverterIN11google_apis10ChangeListENSt3__16vectorINS4_10unique_ptrINS2_14ChangeResourceENS4_14default_deleteIS7_EEEENS4_9allocatorISA_EEEEED2Ev = comdat any

$_ZN4base8internal14FieldConverterIN11google_apis10ChangeListENSt3__16vectorINS4_10unique_ptrINS2_14ChangeResourceENS4_14default_deleteIS7_EEEENS4_9allocatorISA_EEEEED0Ev = comdat any

$_ZNK4base8internal14FieldConverterIN11google_apis10ChangeListENSt3__16vectorINS4_10unique_ptrINS2_14ChangeResourceENS4_14default_deleteIS7_EEEENS4_9allocatorISA_EEEEE12ConvertFieldERKNS_5ValueEPS3_ = comdat any

$_ZN4base8internal24RepeatedMessageConverterIN11google_apis14ChangeResourceEED2Ev = comdat any

$_ZN4base8internal24RepeatedMessageConverterIN11google_apis14ChangeResourceEED0Ev = comdat any

$_ZNK4base8internal24RepeatedMessageConverterIN11google_apis14ChangeResourceEE7ConvertERKNS_5ValueEPNSt3__16vectorINS8_10unique_ptrIS3_NS8_14default_deleteIS3_EEEENS8_9allocatorISD_EEEE = comdat any

$_ZNSt3__16vectorINS_10unique_ptrIN11google_apis14ChangeResourceENS_14default_deleteIS3_EEEENS_9allocatorIS6_EEE7reserveEm = comdat any

$_ZNSt3__16vectorINS_10unique_ptrIN11google_apis14ChangeResourceENS_14default_deleteIS3_EEEENS_9allocatorIS6_EEE21__push_back_slow_pathIS6_EEvOT_ = comdat any

$_ZNSt3__16vectorINS_10unique_ptrIN4base8internal18FieldConverterBaseIN11google_apis10FileLabelsEEENS_14default_deleteIS7_EEEENS_9allocatorISA_EEE21__push_back_slow_pathISA_EEvOT_ = comdat any

$_ZN4base8internal14FieldConverterIN11google_apis10FileLabelsEbED2Ev = comdat any

$_ZN4base8internal14FieldConverterIN11google_apis10FileLabelsEbED0Ev = comdat any

$_ZNK4base8internal14FieldConverterIN11google_apis10FileLabelsEbE12ConvertFieldERKNS_5ValueEPS3_ = comdat any

$_ZN4base8internal18FieldConverterBaseIN11google_apis10FileLabelsEED2Ev = comdat any

$_ZN4base8internal18FieldConverterBaseIN11google_apis10FileLabelsEED0Ev = comdat any

$_ZNSt3__16vectorINS_10unique_ptrIN4base8internal18FieldConverterBaseIN11google_apis18ImageMediaMetadataEEENS_14default_deleteIS7_EEEENS_9allocatorISA_EEE21__push_back_slow_pathISA_EEvOT_ = comdat any

$_ZN4base8internal14FieldConverterIN11google_apis18ImageMediaMetadataEiED2Ev = comdat any

$_ZN4base8internal14FieldConverterIN11google_apis18ImageMediaMetadataEiED0Ev = comdat any

$_ZNK4base8internal14FieldConverterIN11google_apis18ImageMediaMetadataEiE12ConvertFieldERKNS_5ValueEPS3_ = comdat any

$_ZN4base8internal18FieldConverterBaseIN11google_apis18ImageMediaMetadataEED2Ev = comdat any

$_ZN4base8internal18FieldConverterBaseIN11google_apis18ImageMediaMetadataEED0Ev = comdat any

$_ZNSt3__16vectorINS_10unique_ptrIN4base8internal18FieldConverterBaseIN11google_apis14StartPageTokenEEENS_14default_deleteIS7_EEEENS_9allocatorISA_EEE21__push_back_slow_pathISA_EEvOT_ = comdat any

$_ZN4base8internal14FieldConverterIN11google_apis14StartPageTokenENSt3__112basic_stringIcNS4_11char_traitsIcEENS4_9allocatorIcEEEEED2Ev = comdat any

$_ZN4base8internal14FieldConverterIN11google_apis14StartPageTokenENSt3__112basic_stringIcNS4_11char_traitsIcEENS4_9allocatorIcEEEEED0Ev = comdat any

$_ZNK4base8internal14FieldConverterIN11google_apis14StartPageTokenENSt3__112basic_stringIcNS4_11char_traitsIcEENS4_9allocatorIcEEEEE12ConvertFieldERKNS_5ValueEPS3_ = comdat any

$_ZN4base8internal18FieldConverterBaseIN11google_apis14StartPageTokenEED2Ev = comdat any

$_ZN4base8internal18FieldConverterBaseIN11google_apis14StartPageTokenEED0Ev = comdat any

$_ZTVN4base8internal14FieldConverterIN11google_apis13AboutResourceElEE = comdat any

$_ZTVN4base8internal18FieldConverterBaseIN11google_apis13AboutResourceEEE = comdat any

$_ZTVN4base8internal20CustomFieldConverterIlEE = comdat any

$_ZTVN4base8internal14FieldConverterIN11google_apis13AboutResourceENSt3__112basic_stringIcNS4_11char_traitsIcEENS4_9allocatorIcEEEEEE = comdat any

$_ZTVN4base8internal14FieldConverterIN11google_apis21TeamDriveCapabilitiesEbEE = comdat any

$_ZTVN4base8internal18FieldConverterBaseIN11google_apis21TeamDriveCapabilitiesEEE = comdat any

$_ZTVN4base8internal14FieldConverterIN11google_apis17TeamDriveResourceENSt3__112basic_stringIcNS4_11char_traitsIcEENS4_9allocatorIcEEEEEE = comdat any

$_ZTVN4base8internal18FieldConverterBaseIN11google_apis17TeamDriveResourceEEE = comdat any

$_ZTVN4base8internal14FieldConverterIN11google_apis17TeamDriveResourceENS2_21TeamDriveCapabilitiesEEE = comdat any

$_ZTVN4base8internal20NestedValueConverterIN11google_apis21TeamDriveCapabilitiesEEE = comdat any

$_ZTVN4base8internal14FieldConverterIN11google_apis13TeamDriveListENSt3__112basic_stringIcNS4_11char_traitsIcEENS4_9allocatorIcEEEEEE = comdat any

$_ZTVN4base8internal18FieldConverterBaseIN11google_apis13TeamDriveListEEE = comdat any

$_ZTVN4base8internal14FieldConverterIN11google_apis13TeamDriveListENSt3__16vectorINS4_10unique_ptrINS2_17TeamDriveResourceENS4_14default_deleteIS7_EEEENS4_9allocatorISA_EEEEEE = comdat any

$_ZTVN4base8internal24RepeatedMessageConverterIN11google_apis17TeamDriveResourceEEE = comdat any

$_ZTVN4base8internal14FieldConverterIN11google_apis15ParentReferenceENSt3__112basic_stringIcNS4_11char_traitsIcEENS4_9allocatorIcEEEEEE = comdat any

$_ZTVN4base8internal18FieldConverterBaseIN11google_apis15ParentReferenceEEE = comdat any

$_ZTVN4base8internal14FieldConverterIN11google_apis24FileResourceCapabilitiesEbEE = comdat any

$_ZTVN4base8internal18FieldConverterBaseIN11google_apis24FileResourceCapabilitiesEEE = comdat any

$_ZTVN4base8internal14FieldConverterIN11google_apis12FileResourceENSt3__112basic_stringIcNS4_11char_traitsIcEENS4_9allocatorIcEEEEEE = comdat any

$_ZTVN4base8internal18FieldConverterBaseIN11google_apis12FileResourceEEE = comdat any

$_ZTVN4base8internal14FieldConverterIN11google_apis12FileResourceENS2_10FileLabelsEEE = comdat any

$_ZTVN4base8internal20NestedValueConverterIN11google_apis10FileLabelsEEE = comdat any

$_ZTVN4base8internal14FieldConverterIN11google_apis12FileResourceENS2_18ImageMediaMetadataEEE = comdat any

$_ZTVN4base8internal20NestedValueConverterIN11google_apis18ImageMediaMetadataEEE = comdat any

$_ZTVN4base8internal14FieldConverterIN11google_apis12FileResourceENS2_24FileResourceCapabilitiesEEE = comdat any

$_ZTVN4base8internal20NestedValueConverterIN11google_apis24FileResourceCapabilitiesEEE = comdat any

$_ZTVN4base8internal14FieldConverterIN11google_apis12FileResourceENS_4TimeEEE = comdat any

$_ZTVN4base8internal20CustomFieldConverterINS_4TimeEEE = comdat any

$_ZTVN4base8internal14FieldConverterIN11google_apis12FileResourceEbEE = comdat any

$_ZTVN4base8internal14FieldConverterIN11google_apis12FileResourceElEE = comdat any

$_ZTVN4base8internal14FieldConverterIN11google_apis12FileResourceE4GURLEE = comdat any

$_ZTVN4base8internal20CustomFieldConverterI4GURLEE = comdat any

$_ZTVN4base8internal14FieldConverterIN11google_apis12FileResourceENSt3__16vectorINS2_15ParentReferenceENS4_9allocatorIS6_EEEEEE = comdat any

$_ZTVN4base8internal19ValueFieldConverterINSt3__16vectorIN11google_apis15ParentReferenceENS2_9allocatorIS5_EEEEEE = comdat any

$_ZTVN4base8internal14FieldConverterIN11google_apis12FileResourceENSt3__16vectorINS3_12OpenWithLinkENS4_9allocatorIS6_EEEEEE = comdat any

$_ZTVN4base8internal19ValueFieldConverterINSt3__16vectorIN11google_apis12FileResource12OpenWithLinkENS2_9allocatorIS6_EEEEEE = comdat any

$_ZTVN4base8internal14FieldConverterIN11google_apis8FileListE4GURLEE = comdat any

$_ZTVN4base8internal18FieldConverterBaseIN11google_apis8FileListEEE = comdat any

$_ZTVN4base8internal14FieldConverterIN11google_apis8FileListENSt3__16vectorINS4_10unique_ptrINS2_12FileResourceENS4_14default_deleteIS7_EEEENS4_9allocatorISA_EEEEEE = comdat any

$_ZTVN4base8internal24RepeatedMessageConverterIN11google_apis12FileResourceEEE = comdat any

$_ZTVN4base8internal14FieldConverterIN11google_apis14ChangeResourceElEE = comdat any

$_ZTVN4base8internal18FieldConverterBaseIN11google_apis14ChangeResourceEEE = comdat any

$_ZTVN4base8internal14FieldConverterIN11google_apis14ChangeResourceENS3_10ChangeTypeEEE = comdat any

$_ZTVN4base8internal20CustomFieldConverterIN11google_apis14ChangeResource10ChangeTypeEEE = comdat any

$_ZTVN4base8internal14FieldConverterIN11google_apis14ChangeResourceENSt3__112basic_stringIcNS4_11char_traitsIcEENS4_9allocatorIcEEEEEE = comdat any

$_ZTVN4base8internal14FieldConverterIN11google_apis14ChangeResourceEbEE = comdat any

$_ZTVN4base8internal14FieldConverterIN11google_apis14ChangeResourceENSt3__110unique_ptrINS2_12FileResourceENS4_14default_deleteIS6_EEEEEE = comdat any

$_ZTVN4base8internal19ValueFieldConverterINSt3__110unique_ptrIN11google_apis12FileResourceENS2_14default_deleteIS5_EEEEEE = comdat any

$_ZTVN4base8internal14FieldConverterIN11google_apis14ChangeResourceENS_4TimeEEE = comdat any

$_ZTVN4base8internal14FieldConverterIN11google_apis14ChangeResourceENSt3__110unique_ptrINS2_17TeamDriveResourceENS4_14default_deleteIS6_EEEEEE = comdat any

$_ZTVN4base8internal19ValueFieldConverterINSt3__110unique_ptrIN11google_apis17TeamDriveResourceENS2_14default_deleteIS5_EEEEEE = comdat any

$_ZTVN4base8internal14FieldConverterIN11google_apis10ChangeListE4GURLEE = comdat any

$_ZTVN4base8internal18FieldConverterBaseIN11google_apis10ChangeListEEE = comdat any

$_ZTVN4base8internal14FieldConverterIN11google_apis10ChangeListElEE = comdat any

$_ZTVN4base8internal14FieldConverterIN11google_apis10ChangeListENSt3__112basic_stringIcNS4_11char_traitsIcEENS4_9allocatorIcEEEEEE = comdat any

$_ZTVN4base8internal14FieldConverterIN11google_apis10ChangeListENSt3__16vectorINS4_10unique_ptrINS2_14ChangeResourceENS4_14default_deleteIS7_EEEENS4_9allocatorISA_EEEEEE = comdat any

$_ZTVN4base8internal24RepeatedMessageConverterIN11google_apis14ChangeResourceEEE = comdat any

$_ZTVN4base8internal14FieldConverterIN11google_apis10FileLabelsEbEE = comdat any

$_ZTVN4base8internal18FieldConverterBaseIN11google_apis10FileLabelsEEE = comdat any

$_ZTVN4base8internal14FieldConverterIN11google_apis18ImageMediaMetadataEiEE = comdat any

$_ZTVN4base8internal18FieldConverterBaseIN11google_apis18ImageMediaMetadataEEE = comdat any

$_ZTVN4base8internal14FieldConverterIN11google_apis14StartPageTokenENSt3__112basic_stringIcNS4_11char_traitsIcEENS4_9allocatorIcEEEEEE = comdat any

$_ZTVN4base8internal18FieldConverterBaseIN11google_apis14StartPageTokenEEE = comdat any

@_ZN11google_apis12_GLOBAL__N_110kAboutKindE = internal unnamed_addr constant [12 x i8] c"drive#about\00", align 1
@.str = private unnamed_addr constant [44 x i8] c"../../google_apis/drive/drive_api_parser.cc\00", align 1
@.str.1 = private unnamed_addr constant [47 x i8] c"Unable to create: Invalid About resource JSON!\00", align 1
@_ZN11google_apis12_GLOBAL__N_116kLargestChangeIdE = internal unnamed_addr constant [16 x i8] c"largestChangeId\00", align 16
@_ZN11google_apis12_GLOBAL__N_116kQuotaBytesTotalE = internal unnamed_addr constant [16 x i8] c"quotaBytesTotal\00", align 16
@_ZN11google_apis12_GLOBAL__N_124kQuotaBytesUsedAggregateE = internal unnamed_addr constant [24 x i8] c"quotaBytesUsedAggregate\00", align 16
@_ZN11google_apis12_GLOBAL__N_113kRootFolderIdE = internal unnamed_addr constant [13 x i8] c"rootFolderId\00", align 1
@.str.2 = private unnamed_addr constant [46 x i8] c"Unable to parse: Invalid About resource JSON!\00", align 1
@_ZN11google_apis12_GLOBAL__N_115kCanAddChildrenE = internal unnamed_addr constant [15 x i8] c"canAddChildren\00", align 1
@_ZN11google_apis12_GLOBAL__N_111kCanCommentE = internal unnamed_addr constant [11 x i8] c"canComment\00", align 1
@_ZN11google_apis12_GLOBAL__N_18kCanCopyE = internal unnamed_addr constant [8 x i8] c"canCopy\00", align 1
@_ZN11google_apis12_GLOBAL__N_119kCanDeleteTeamDriveE = internal unnamed_addr constant [19 x i8] c"canDeleteTeamDrive\00", align 16
@_ZN11google_apis12_GLOBAL__N_112kCanDownloadE = internal unnamed_addr constant [12 x i8] c"canDownload\00", align 1
@_ZN11google_apis12_GLOBAL__N_18kCanEditE = internal unnamed_addr constant [8 x i8] c"canEdit\00", align 1
@_ZN11google_apis12_GLOBAL__N_116kCanListChildrenE = internal unnamed_addr constant [16 x i8] c"canListChildren\00", align 16
@_ZN11google_apis12_GLOBAL__N_117kCanManageMembersE = internal unnamed_addr constant [17 x i8] c"canManageMembers\00", align 16
@_ZN11google_apis12_GLOBAL__N_117kCanReadRevisionsE = internal unnamed_addr constant [17 x i8] c"canReadRevisions\00", align 16
@_ZN11google_apis12_GLOBAL__N_118kCanRemoveChildrenE = internal unnamed_addr constant [18 x i8] c"canRemoveChildren\00", align 16
@_ZN11google_apis12_GLOBAL__N_110kCanRenameE = internal unnamed_addr constant [10 x i8] c"canRename\00", align 1
@_ZN11google_apis12_GLOBAL__N_119kCanRenameTeamDriveE = internal unnamed_addr constant [19 x i8] c"canRenameTeamDrive\00", align 16
@_ZN11google_apis12_GLOBAL__N_114kTeamDriveKindE = internal unnamed_addr constant [16 x i8] c"drive#teamDrive\00", align 16
@.str.3 = private unnamed_addr constant [52 x i8] c"Unable to create: Invalid Team Drive resource JSON!\00", align 1
@_ZN11google_apis12_GLOBAL__N_113kCapabilitiesE = internal unnamed_addr constant [13 x i8] c"capabilities\00", align 1
@.str.4 = private unnamed_addr constant [51 x i8] c"Unable to parse: Invalid Team Drive resource JSON!\00", align 1
@_ZN11google_apis12_GLOBAL__N_114kNextPageTokenE = internal unnamed_addr constant [14 x i8] c"nextPageToken\00", align 1
@_ZN11google_apis12_GLOBAL__N_16kItemsE = internal unnamed_addr constant [6 x i8] c"items\00", align 1
@_ZN11google_apis12_GLOBAL__N_118kTeamDriveListKindE = internal unnamed_addr constant [20 x i8] c"drive#teamDriveList\00", align 16
@.str.5 = private unnamed_addr constant [46 x i8] c"Unable to create: Invalid TeamDriveList JSON!\00", align 1
@.str.6 = private unnamed_addr constant [39 x i8] c"Unable to parse: Invalid TeamDriveList\00", align 1
@_ZN11google_apis12_GLOBAL__N_120kParentReferenceKindE = internal unnamed_addr constant [22 x i8] c"drive#parentReference\00", align 16
@.str.7 = private unnamed_addr constant [47 x i8] c"Unable to create: Invalid ParentRefernce JSON!\00", align 1
@.str.8 = private unnamed_addr constant [41 x i8] c"Unable to parse: Invalid ParentReference\00", align 1
@_ZN11google_apis12_GLOBAL__N_128kCanChangeRestrictedDownloadE = internal unnamed_addr constant [28 x i8] c"canChangeRestrictedDownload\00", align 16
@_ZN11google_apis12_GLOBAL__N_110kCanDeleteE = internal unnamed_addr constant [10 x i8] c"canDelete\00", align 1
@_ZN11google_apis12_GLOBAL__N_125kCanMoveItemIntoTeamDriveE = internal unnamed_addr constant [25 x i8] c"canMoveItemIntoTeamDrive\00", align 16
@_ZN11google_apis12_GLOBAL__N_121kCanMoveTeamDriveItemE = internal unnamed_addr constant [21 x i8] c"canMoveTeamDriveItem\00", align 16
@_ZN11google_apis12_GLOBAL__N_117kCanReadTeamDriveE = internal unnamed_addr constant [17 x i8] c"canReadTeamDrive\00", align 16
@_ZN11google_apis12_GLOBAL__N_111kCanUntrashE = internal unnamed_addr constant [11 x i8] c"canUntrash\00", align 1
@_ZN11google_apis12_GLOBAL__N_16kTitleE = internal unnamed_addr constant [6 x i8] c"title\00", align 1
@_ZN11google_apis12_GLOBAL__N_17kLabelsE = internal unnamed_addr constant [7 x i8] c"labels\00", align 1
@_ZN11google_apis12_GLOBAL__N_119kImageMediaMetadataE = internal unnamed_addr constant [19 x i8] c"imageMediaMetadata\00", align 16
@_ZN11google_apis12_GLOBAL__N_112kCreatedDateE = internal unnamed_addr constant [12 x i8] c"createdDate\00", align 1
@_ZN11google_apis12_GLOBAL__N_113kModifiedDateE = internal unnamed_addr constant [13 x i8] c"modifiedDate\00", align 1
@_ZN11google_apis12_GLOBAL__N_117kModifiedByMeDateE = internal unnamed_addr constant [17 x i8] c"modifiedByMeDate\00", align 16
@_ZN11google_apis12_GLOBAL__N_119kLastViewedByMeDateE = internal unnamed_addr constant [19 x i8] c"lastViewedByMeDate\00", align 16
@_ZN11google_apis12_GLOBAL__N_117kSharedWithMeDateE = internal unnamed_addr constant [17 x i8] c"sharedWithMeDate\00", align 16
@_ZN11google_apis12_GLOBAL__N_17kSharedE = internal unnamed_addr constant [7 x i8] c"shared\00", align 1
@_ZN11google_apis12_GLOBAL__N_112kMd5ChecksumE = internal unnamed_addr constant [12 x i8] c"md5Checksum\00", align 1
@_ZN11google_apis12_GLOBAL__N_114kAlternateLinkE = internal unnamed_addr constant [14 x i8] c"alternateLink\00", align 1
@_ZN11google_apis12_GLOBAL__N_110kShareLinkE = internal unnamed_addr constant [10 x i8] c"shareLink\00", align 1
@_ZN11google_apis12_GLOBAL__N_18kParentsE = internal unnamed_addr constant [8 x i8] c"parents\00", align 1
@_ZN11google_apis12_GLOBAL__N_114kOpenWithLinksE = internal unnamed_addr constant [14 x i8] c"openWithLinks\00", align 1
@_ZN11google_apis12_GLOBAL__N_112kTeamDriveIdE = internal unnamed_addr constant [12 x i8] c"teamDriveId\00", align 1
@_ZN11google_apis12_GLOBAL__N_19kFileKindE = internal unnamed_addr constant [11 x i8] c"drive#file\00", align 1
@.str.9 = private unnamed_addr constant [45 x i8] c"Unable to create: Invalid FileResource JSON!\00", align 1
@_ZN11google_apis12_GLOBAL__N_120kDriveFolderMimeTypeE = internal constant [35 x i8] c"application/vnd.google-apps.folder\00", align 16
@.str.10 = private unnamed_addr constant [38 x i8] c"Unable to parse: Invalid FileResource\00", align 1
@_ZN11google_apis12_GLOBAL__N_113kFileListKindE = internal unnamed_addr constant [15 x i8] c"drive#fileList\00", align 1
@.str.11 = private unnamed_addr constant [41 x i8] c"Unable to create: Invalid FileList JSON!\00", align 1
@.str.12 = private unnamed_addr constant [34 x i8] c"Unable to parse: Invalid FileList\00", align 1
@_ZN11google_apis12_GLOBAL__N_17kFileIdE = internal unnamed_addr constant [7 x i8] c"fileId\00", align 1
@_ZN11google_apis12_GLOBAL__N_18kDeletedE = internal unnamed_addr constant [8 x i8] c"deleted\00", align 1
@_ZN11google_apis12_GLOBAL__N_117kModificationDateE = internal unnamed_addr constant [17 x i8] c"modificationDate\00", align 16
@_ZN11google_apis12_GLOBAL__N_111kChangeKindE = internal unnamed_addr constant [13 x i8] c"drive#change\00", align 1
@.str.13 = private unnamed_addr constant [47 x i8] c"Unable to create: Invalid ChangeResource JSON!\00", align 1
@.str.14 = private unnamed_addr constant [40 x i8] c"Unable to parse: Invalid ChangeResource\00", align 1
@_ZN11google_apis12_GLOBAL__N_114kChangeTypeMapE = internal unnamed_addr constant [2 x %"struct.google_apis::(anonymous namespace)::ChangeTypeMap"] [%"struct.google_apis::(anonymous namespace)::ChangeTypeMap" { i32 1, i8* getelementptr inbounds ([5 x i8], [5 x i8]* @.str.24, i32 0, i32 0) }, %"struct.google_apis::(anonymous namespace)::ChangeTypeMap" { i32 2, i8* getelementptr inbounds ([10 x i8], [10 x i8]* @.str.25, i32 0, i32 0) }], align 16
@_ZN11google_apis12_GLOBAL__N_118kNewStartPageTokenE = internal unnamed_addr constant [18 x i8] c"newStartPageToken\00", align 16
@_ZN11google_apis12_GLOBAL__N_115kChangeListKindE = internal unnamed_addr constant [17 x i8] c"drive#changeList\00", align 16
@.str.15 = private unnamed_addr constant [43 x i8] c"Unable to create: Invalid ChangeList JSON!\00", align 1
@.str.16 = private unnamed_addr constant [36 x i8] c"Unable to parse: Invalid ChangeList\00", align 1
@_ZN11google_apis12_GLOBAL__N_113kLabelTrashedE = internal unnamed_addr constant [8 x i8] c"trashed\00", align 1
@_ZN11google_apis12_GLOBAL__N_113kLabelStarredE = internal unnamed_addr constant [8 x i8] c"starred\00", align 1
@.str.17 = private unnamed_addr constant [43 x i8] c"Unable to create: Invalid FileLabels JSON!\00", align 1
@.str.18 = private unnamed_addr constant [37 x i8] c"Unable to parse: Invalid FileLabels.\00", align 1
@_ZN11google_apis12_GLOBAL__N_124kImageMediaMetadataWidthE = internal unnamed_addr constant [6 x i8] c"width\00", align 1
@_ZN11google_apis12_GLOBAL__N_125kImageMediaMetadataHeightE = internal unnamed_addr constant [7 x i8] c"height\00", align 1
@.str.19 = private unnamed_addr constant [51 x i8] c"Unable to create: Invalid ImageMediaMetadata JSON!\00", align 1
@.str.20 = private unnamed_addr constant [45 x i8] c"Unable to parse: Invalid ImageMediaMetadata.\00", align 1
@_ZN11google_apis12_GLOBAL__N_115kStartPageTokenE = internal unnamed_addr constant [15 x i8] c"startPageToken\00", align 1
@.str.21 = private unnamed_addr constant [46 x i8] c"Unable to parse: Invalid StartPageToken JSON.\00", align 1
@.str.22 = private unnamed_addr constant [41 x i8] c"Unable to parse: Invalid StartPageToken.\00", align 1
@_ZN11google_apis12_GLOBAL__N_15kKindE = internal constant [5 x i8] c"kind\00", align 1
@.str.24 = private unnamed_addr constant [5 x i8] c"file\00", align 1
@.str.25 = private unnamed_addr constant [10 x i8] c"teamDrive\00", align 1
@_ZNSt3__15ctypeIcE2idE = external global %"class.std::__1::locale::id", align 8
@_ZTVN4base8internal14FieldConverterIN11google_apis13AboutResourceElEE = linkonce_odr hidden unnamed_addr constant { [5 x i8*] } { [5 x i8*] [i8* null, i8* null, i8* bitcast (void (%"class.base::internal::FieldConverter"*)* @_ZN4base8internal14FieldConverterIN11google_apis13AboutResourceElED2Ev to i8*), i8* bitcast (void (%"class.base::internal::FieldConverter"*)* @_ZN4base8internal14FieldConverterIN11google_apis13AboutResourceElED0Ev to i8*), i8* bitcast (i1 (%"class.base::internal::FieldConverter"*, %"class.base::Value"*, %"class.google_apis::AboutResource"*)* @_ZNK4base8internal14FieldConverterIN11google_apis13AboutResourceElE12ConvertFieldERKNS_5ValueEPS3_ to i8*)] }, comdat, align 8
@_ZTVN4base8internal18FieldConverterBaseIN11google_apis13AboutResourceEEE = linkonce_odr hidden unnamed_addr constant { [5 x i8*] } { [5 x i8*] [i8* null, i8* null, i8* bitcast (void (%"class.base::internal::FieldConverterBase.254"*)* @_ZN4base8internal18FieldConverterBaseIN11google_apis13AboutResourceEED2Ev to i8*), i8* bitcast (void (%"class.base::internal::FieldConverterBase.254"*)* @_ZN4base8internal18FieldConverterBaseIN11google_apis13AboutResourceEED0Ev to i8*), i8* bitcast (void ()* @__cxa_pure_virtual to i8*)] }, comdat, align 8
@_ZTVN4base8internal20CustomFieldConverterIlEE = linkonce_odr hidden unnamed_addr constant { [5 x i8*] } { [5 x i8*] [i8* null, i8* null, i8* bitcast (void (%"class.base::internal::ValueConverter"*)* @_ZN4base8internal14ValueConverterIlED2Ev to i8*), i8* bitcast (void (%"class.base::internal::CustomFieldConverter"*)* @_ZN4base8internal20CustomFieldConverterIlED0Ev to i8*), i8* bitcast (i1 (%"class.base::internal::CustomFieldConverter"*, %"class.base::Value"*, i64*)* @_ZNK4base8internal20CustomFieldConverterIlE7ConvertERKNS_5ValueEPl to i8*)] }, comdat, align 8
@_ZTVN4base8internal14FieldConverterIN11google_apis13AboutResourceENSt3__112basic_stringIcNS4_11char_traitsIcEENS4_9allocatorIcEEEEEE = linkonce_odr hidden unnamed_addr constant { [5 x i8*] } { [5 x i8*] [i8* null, i8* null, i8* bitcast (void (%"class.base::internal::FieldConverter.349"*)* @_ZN4base8internal14FieldConverterIN11google_apis13AboutResourceENSt3__112basic_stringIcNS4_11char_traitsIcEENS4_9allocatorIcEEEEED2Ev to i8*), i8* bitcast (void (%"class.base::internal::FieldConverter.349"*)* @_ZN4base8internal14FieldConverterIN11google_apis13AboutResourceENSt3__112basic_stringIcNS4_11char_traitsIcEENS4_9allocatorIcEEEEED0Ev to i8*), i8* bitcast (i1 (%"class.base::internal::FieldConverter.349"*, %"class.base::Value"*, %"class.google_apis::AboutResource"*)* @_ZNK4base8internal14FieldConverterIN11google_apis13AboutResourceENSt3__112basic_stringIcNS4_11char_traitsIcEENS4_9allocatorIcEEEEE12ConvertFieldERKNS_5ValueEPS3_ to i8*)] }, comdat, align 8
@_ZTVN4base8internal19BasicValueConverterINSt3__112basic_stringIcNS2_11char_traitsIcEENS2_9allocatorIcEEEEEE = external unnamed_addr constant { [5 x i8*] }, align 8
@_ZTVN4base8internal14FieldConverterIN11google_apis21TeamDriveCapabilitiesEbEE = linkonce_odr hidden unnamed_addr constant { [5 x i8*] } { [5 x i8*] [i8* null, i8* null, i8* bitcast (void (%"class.base::internal::FieldConverter.363"*)* @_ZN4base8internal14FieldConverterIN11google_apis21TeamDriveCapabilitiesEbED2Ev to i8*), i8* bitcast (void (%"class.base::internal::FieldConverter.363"*)* @_ZN4base8internal14FieldConverterIN11google_apis21TeamDriveCapabilitiesEbED0Ev to i8*), i8* bitcast (i1 (%"class.base::internal::FieldConverter.363"*, %"class.base::Value"*, %"class.google_apis::TeamDriveCapabilities"*)* @_ZNK4base8internal14FieldConverterIN11google_apis21TeamDriveCapabilitiesEbE12ConvertFieldERKNS_5ValueEPS3_ to i8*)] }, comdat, align 8
@_ZTVN4base8internal18FieldConverterBaseIN11google_apis21TeamDriveCapabilitiesEEE = linkonce_odr hidden unnamed_addr constant { [5 x i8*] } { [5 x i8*] [i8* null, i8* null, i8* bitcast (void (%"class.base::internal::FieldConverterBase.260"*)* @_ZN4base8internal18FieldConverterBaseIN11google_apis21TeamDriveCapabilitiesEED2Ev to i8*), i8* bitcast (void (%"class.base::internal::FieldConverterBase.260"*)* @_ZN4base8internal18FieldConverterBaseIN11google_apis21TeamDriveCapabilitiesEED0Ev to i8*), i8* bitcast (void ()* @__cxa_pure_virtual to i8*)] }, comdat, align 8
@_ZTVN4base8internal19BasicValueConverterIbEE = external unnamed_addr constant { [5 x i8*] }, align 8
@_ZTVN4base8internal14FieldConverterIN11google_apis17TeamDriveResourceENSt3__112basic_stringIcNS4_11char_traitsIcEENS4_9allocatorIcEEEEEE = linkonce_odr hidden unnamed_addr constant { [5 x i8*] } { [5 x i8*] [i8* null, i8* null, i8* bitcast (void (%"class.base::internal::FieldConverter.381"*)* @_ZN4base8internal14FieldConverterIN11google_apis17TeamDriveResourceENSt3__112basic_stringIcNS4_11char_traitsIcEENS4_9allocatorIcEEEEED2Ev to i8*), i8* bitcast (void (%"class.base::internal::FieldConverter.381"*)* @_ZN4base8internal14FieldConverterIN11google_apis17TeamDriveResourceENSt3__112basic_stringIcNS4_11char_traitsIcEENS4_9allocatorIcEEEEED0Ev to i8*), i8* bitcast (i1 (%"class.base::internal::FieldConverter.381"*, %"class.base::Value"*, %"class.google_apis::TeamDriveResource"*)* @_ZNK4base8internal14FieldConverterIN11google_apis17TeamDriveResourceENSt3__112basic_stringIcNS4_11char_traitsIcEENS4_9allocatorIcEEEEE12ConvertFieldERKNS_5ValueEPS3_ to i8*)] }, comdat, align 8
@_ZTVN4base8internal18FieldConverterBaseIN11google_apis17TeamDriveResourceEEE = linkonce_odr hidden unnamed_addr constant { [5 x i8*] } { [5 x i8*] [i8* null, i8* null, i8* bitcast (void (%"class.base::internal::FieldConverterBase.266"*)* @_ZN4base8internal18FieldConverterBaseIN11google_apis17TeamDriveResourceEED2Ev to i8*), i8* bitcast (void (%"class.base::internal::FieldConverterBase.266"*)* @_ZN4base8internal18FieldConverterBaseIN11google_apis17TeamDriveResourceEED0Ev to i8*), i8* bitcast (void ()* @__cxa_pure_virtual to i8*)] }, comdat, align 8
@_ZTVN4base8internal14FieldConverterIN11google_apis17TeamDriveResourceENS2_21TeamDriveCapabilitiesEEE = linkonce_odr hidden unnamed_addr constant { [5 x i8*] } { [5 x i8*] [i8* null, i8* null, i8* bitcast (void (%"class.base::internal::FieldConverter.391"*)* @_ZN4base8internal14FieldConverterIN11google_apis17TeamDriveResourceENS2_21TeamDriveCapabilitiesEED2Ev to i8*), i8* bitcast (void (%"class.base::internal::FieldConverter.391"*)* @_ZN4base8internal14FieldConverterIN11google_apis17TeamDriveResourceENS2_21TeamDriveCapabilitiesEED0Ev to i8*), i8* bitcast (i1 (%"class.base::internal::FieldConverter.391"*, %"class.base::Value"*, %"class.google_apis::TeamDriveResource"*)* @_ZNK4base8internal14FieldConverterIN11google_apis17TeamDriveResourceENS2_21TeamDriveCapabilitiesEE12ConvertFieldERKNS_5ValueEPS3_ to i8*)] }, comdat, align 8
@_ZTVN4base8internal20NestedValueConverterIN11google_apis21TeamDriveCapabilitiesEEE = linkonce_odr hidden unnamed_addr constant { [5 x i8*] } { [5 x i8*] [i8* null, i8* null, i8* bitcast (void (%"class.base::internal::NestedValueConverter"*)* @_ZN4base8internal20NestedValueConverterIN11google_apis21TeamDriveCapabilitiesEED2Ev to i8*), i8* bitcast (void (%"class.base::internal::NestedValueConverter"*)* @_ZN4base8internal20NestedValueConverterIN11google_apis21TeamDriveCapabilitiesEED0Ev to i8*), i8* bitcast (i1 (%"class.base::internal::NestedValueConverter"*, %"class.base::Value"*, %"class.google_apis::TeamDriveCapabilities"*)* @_ZNK4base8internal20NestedValueConverterIN11google_apis21TeamDriveCapabilitiesEE7ConvertERKNS_5ValueEPS3_ to i8*)] }, comdat, align 8
@_ZTVN4base8internal14FieldConverterIN11google_apis13TeamDriveListENSt3__112basic_stringIcNS4_11char_traitsIcEENS4_9allocatorIcEEEEEE = linkonce_odr hidden unnamed_addr constant { [5 x i8*] } { [5 x i8*] [i8* null, i8* null, i8* bitcast (void (%"class.base::internal::FieldConverter.405"*)* @_ZN4base8internal14FieldConverterIN11google_apis13TeamDriveListENSt3__112basic_stringIcNS4_11char_traitsIcEENS4_9allocatorIcEEEEED2Ev to i8*), i8* bitcast (void (%"class.base::internal::FieldConverter.405"*)* @_ZN4base8internal14FieldConverterIN11google_apis13TeamDriveListENSt3__112basic_stringIcNS4_11char_traitsIcEENS4_9allocatorIcEEEEED0Ev to i8*), i8* bitcast (i1 (%"class.base::internal::FieldConverter.405"*, %"class.base::Value"*, %"class.google_apis::TeamDriveList"*)* @_ZNK4base8internal14FieldConverterIN11google_apis13TeamDriveListENSt3__112basic_stringIcNS4_11char_traitsIcEENS4_9allocatorIcEEEEE12ConvertFieldERKNS_5ValueEPS3_ to i8*)] }, comdat, align 8
@_ZTVN4base8internal18FieldConverterBaseIN11google_apis13TeamDriveListEEE = linkonce_odr hidden unnamed_addr constant { [5 x i8*] } { [5 x i8*] [i8* null, i8* null, i8* bitcast (void (%"class.base::internal::FieldConverterBase.272"*)* @_ZN4base8internal18FieldConverterBaseIN11google_apis13TeamDriveListEED2Ev to i8*), i8* bitcast (void (%"class.base::internal::FieldConverterBase.272"*)* @_ZN4base8internal18FieldConverterBaseIN11google_apis13TeamDriveListEED0Ev to i8*), i8* bitcast (void ()* @__cxa_pure_virtual to i8*)] }, comdat, align 8
@_ZTVN4base8internal14FieldConverterIN11google_apis13TeamDriveListENSt3__16vectorINS4_10unique_ptrINS2_17TeamDriveResourceENS4_14default_deleteIS7_EEEENS4_9allocatorISA_EEEEEE = linkonce_odr hidden unnamed_addr constant { [5 x i8*] } { [5 x i8*] [i8* null, i8* null, i8* bitcast (void (%"class.base::internal::FieldConverter.415"*)* @_ZN4base8internal14FieldConverterIN11google_apis13TeamDriveListENSt3__16vectorINS4_10unique_ptrINS2_17TeamDriveResourceENS4_14default_deleteIS7_EEEENS4_9allocatorISA_EEEEED2Ev to i8*), i8* bitcast (void (%"class.base::internal::FieldConverter.415"*)* @_ZN4base8internal14FieldConverterIN11google_apis13TeamDriveListENSt3__16vectorINS4_10unique_ptrINS2_17TeamDriveResourceENS4_14default_deleteIS7_EEEENS4_9allocatorISA_EEEEED0Ev to i8*), i8* bitcast (i1 (%"class.base::internal::FieldConverter.415"*, %"class.base::Value"*, %"class.google_apis::TeamDriveList"*)* @_ZNK4base8internal14FieldConverterIN11google_apis13TeamDriveListENSt3__16vectorINS4_10unique_ptrINS2_17TeamDriveResourceENS4_14default_deleteIS7_EEEENS4_9allocatorISA_EEEEE12ConvertFieldERKNS_5ValueEPS3_ to i8*)] }, comdat, align 8
@_ZTVN4base8internal24RepeatedMessageConverterIN11google_apis17TeamDriveResourceEEE = linkonce_odr hidden unnamed_addr constant { [5 x i8*] } { [5 x i8*] [i8* null, i8* null, i8* bitcast (void (%"class.base::internal::RepeatedMessageConverter"*)* @_ZN4base8internal24RepeatedMessageConverterIN11google_apis17TeamDriveResourceEED2Ev to i8*), i8* bitcast (void (%"class.base::internal::RepeatedMessageConverter"*)* @_ZN4base8internal24RepeatedMessageConverterIN11google_apis17TeamDriveResourceEED0Ev to i8*), i8* bitcast (i1 (%"class.base::internal::RepeatedMessageConverter"*, %"class.base::Value"*, %"class.std::__1::vector.63"*)* @_ZNK4base8internal24RepeatedMessageConverterIN11google_apis17TeamDriveResourceEE7ConvertERKNS_5ValueEPNSt3__16vectorINS8_10unique_ptrIS3_NS8_14default_deleteIS3_EEEENS8_9allocatorISD_EEEE to i8*)] }, comdat, align 8
@.str.28 = private unnamed_addr constant [17 x i8] c"start <= current\00", align 1
@.str.29 = private unnamed_addr constant [42 x i8] c"../../base/containers/checked_iterators.h\00", align 1
@.str.30 = private unnamed_addr constant [15 x i8] c"current <= end\00", align 1
@.str.31 = private unnamed_addr constant [23 x i8] c"start_ == other.start_\00", align 1
@.str.32 = private unnamed_addr constant [19 x i8] c"end_ == other.end_\00", align 1
@.str.33 = private unnamed_addr constant [17 x i8] c"current_ != end_\00", align 1
@_ZTVN4base8internal14FieldConverterIN11google_apis15ParentReferenceENSt3__112basic_stringIcNS4_11char_traitsIcEENS4_9allocatorIcEEEEEE = linkonce_odr hidden unnamed_addr constant { [5 x i8*] } { [5 x i8*] [i8* null, i8* null, i8* bitcast (void (%"class.base::internal::FieldConverter.432"*)* @_ZN4base8internal14FieldConverterIN11google_apis15ParentReferenceENSt3__112basic_stringIcNS4_11char_traitsIcEENS4_9allocatorIcEEEEED2Ev to i8*), i8* bitcast (void (%"class.base::internal::FieldConverter.432"*)* @_ZN4base8internal14FieldConverterIN11google_apis15ParentReferenceENSt3__112basic_stringIcNS4_11char_traitsIcEENS4_9allocatorIcEEEEED0Ev to i8*), i8* bitcast (i1 (%"class.base::internal::FieldConverter.432"*, %"class.base::Value"*, %"class.google_apis::ParentReference"*)* @_ZNK4base8internal14FieldConverterIN11google_apis15ParentReferenceENSt3__112basic_stringIcNS4_11char_traitsIcEENS4_9allocatorIcEEEEE12ConvertFieldERKNS_5ValueEPS3_ to i8*)] }, comdat, align 8
@_ZTVN4base8internal18FieldConverterBaseIN11google_apis15ParentReferenceEEE = linkonce_odr hidden unnamed_addr constant { [5 x i8*] } { [5 x i8*] [i8* null, i8* null, i8* bitcast (void (%"class.base::internal::FieldConverterBase"*)* @_ZN4base8internal18FieldConverterBaseIN11google_apis15ParentReferenceEED2Ev to i8*), i8* bitcast (void (%"class.base::internal::FieldConverterBase"*)* @_ZN4base8internal18FieldConverterBaseIN11google_apis15ParentReferenceEED0Ev to i8*), i8* bitcast (void ()* @__cxa_pure_virtual to i8*)] }, comdat, align 8
@_ZTVN4base8internal14FieldConverterIN11google_apis24FileResourceCapabilitiesEbEE = linkonce_odr hidden unnamed_addr constant { [5 x i8*] } { [5 x i8*] [i8* null, i8* null, i8* bitcast (void (%"class.base::internal::FieldConverter.442"*)* @_ZN4base8internal14FieldConverterIN11google_apis24FileResourceCapabilitiesEbED2Ev to i8*), i8* bitcast (void (%"class.base::internal::FieldConverter.442"*)* @_ZN4base8internal14FieldConverterIN11google_apis24FileResourceCapabilitiesEbED0Ev to i8*), i8* bitcast (i1 (%"class.base::internal::FieldConverter.442"*, %"class.base::Value"*, %"class.google_apis::FileResourceCapabilities"*)* @_ZNK4base8internal14FieldConverterIN11google_apis24FileResourceCapabilitiesEbE12ConvertFieldERKNS_5ValueEPS3_ to i8*)] }, comdat, align 8
@_ZTVN4base8internal18FieldConverterBaseIN11google_apis24FileResourceCapabilitiesEEE = linkonce_odr hidden unnamed_addr constant { [5 x i8*] } { [5 x i8*] [i8* null, i8* null, i8* bitcast (void (%"class.base::internal::FieldConverterBase.278"*)* @_ZN4base8internal18FieldConverterBaseIN11google_apis24FileResourceCapabilitiesEED2Ev to i8*), i8* bitcast (void (%"class.base::internal::FieldConverterBase.278"*)* @_ZN4base8internal18FieldConverterBaseIN11google_apis24FileResourceCapabilitiesEED0Ev to i8*), i8* bitcast (void ()* @__cxa_pure_virtual to i8*)] }, comdat, align 8
@_ZTVN4base8internal14FieldConverterIN11google_apis12FileResourceENSt3__112basic_stringIcNS4_11char_traitsIcEENS4_9allocatorIcEEEEEE = linkonce_odr hidden unnamed_addr constant { [5 x i8*] } { [5 x i8*] [i8* null, i8* null, i8* bitcast (void (%"class.base::internal::FieldConverter.452"*)* @_ZN4base8internal14FieldConverterIN11google_apis12FileResourceENSt3__112basic_stringIcNS4_11char_traitsIcEENS4_9allocatorIcEEEEED2Ev to i8*), i8* bitcast (void (%"class.base::internal::FieldConverter.452"*)* @_ZN4base8internal14FieldConverterIN11google_apis12FileResourceENSt3__112basic_stringIcNS4_11char_traitsIcEENS4_9allocatorIcEEEEED0Ev to i8*), i8* bitcast (i1 (%"class.base::internal::FieldConverter.452"*, %"class.base::Value"*, %"class.google_apis::FileResource"*)* @_ZNK4base8internal14FieldConverterIN11google_apis12FileResourceENSt3__112basic_stringIcNS4_11char_traitsIcEENS4_9allocatorIcEEEEE12ConvertFieldERKNS_5ValueEPS3_ to i8*)] }, comdat, align 8
@_ZTVN4base8internal18FieldConverterBaseIN11google_apis12FileResourceEEE = linkonce_odr hidden unnamed_addr constant { [5 x i8*] } { [5 x i8*] [i8* null, i8* null, i8* bitcast (void (%"class.base::internal::FieldConverterBase.284"*)* @_ZN4base8internal18FieldConverterBaseIN11google_apis12FileResourceEED2Ev to i8*), i8* bitcast (void (%"class.base::internal::FieldConverterBase.284"*)* @_ZN4base8internal18FieldConverterBaseIN11google_apis12FileResourceEED0Ev to i8*), i8* bitcast (void ()* @__cxa_pure_virtual to i8*)] }, comdat, align 8
@_ZTVN4base8internal14FieldConverterIN11google_apis12FileResourceENS2_10FileLabelsEEE = linkonce_odr hidden unnamed_addr constant { [5 x i8*] } { [5 x i8*] [i8* null, i8* null, i8* bitcast (void (%"class.base::internal::FieldConverter.462"*)* @_ZN4base8internal14FieldConverterIN11google_apis12FileResourceENS2_10FileLabelsEED2Ev to i8*), i8* bitcast (void (%"class.base::internal::FieldConverter.462"*)* @_ZN4base8internal14FieldConverterIN11google_apis12FileResourceENS2_10FileLabelsEED0Ev to i8*), i8* bitcast (i1 (%"class.base::internal::FieldConverter.462"*, %"class.base::Value"*, %"class.google_apis::FileResource"*)* @_ZNK4base8internal14FieldConverterIN11google_apis12FileResourceENS2_10FileLabelsEE12ConvertFieldERKNS_5ValueEPS3_ to i8*)] }, comdat, align 8
@_ZTVN4base8internal20NestedValueConverterIN11google_apis10FileLabelsEEE = linkonce_odr hidden unnamed_addr constant { [5 x i8*] } { [5 x i8*] [i8* null, i8* null, i8* bitcast (void (%"class.base::internal::NestedValueConverter.473"*)* @_ZN4base8internal20NestedValueConverterIN11google_apis10FileLabelsEED2Ev to i8*), i8* bitcast (void (%"class.base::internal::NestedValueConverter.473"*)* @_ZN4base8internal20NestedValueConverterIN11google_apis10FileLabelsEED0Ev to i8*), i8* bitcast (i1 (%"class.base::internal::NestedValueConverter.473"*, %"class.base::Value"*, %"class.google_apis::FileLabels"*)* @_ZNK4base8internal20NestedValueConverterIN11google_apis10FileLabelsEE7ConvertERKNS_5ValueEPS3_ to i8*)] }, comdat, align 8
@_ZTVN4base8internal14FieldConverterIN11google_apis12FileResourceENS2_18ImageMediaMetadataEEE = linkonce_odr hidden unnamed_addr constant { [5 x i8*] } { [5 x i8*] [i8* null, i8* null, i8* bitcast (void (%"class.base::internal::FieldConverter.477"*)* @_ZN4base8internal14FieldConverterIN11google_apis12FileResourceENS2_18ImageMediaMetadataEED2Ev to i8*), i8* bitcast (void (%"class.base::internal::FieldConverter.477"*)* @_ZN4base8internal14FieldConverterIN11google_apis12FileResourceENS2_18ImageMediaMetadataEED0Ev to i8*), i8* bitcast (i1 (%"class.base::internal::FieldConverter.477"*, %"class.base::Value"*, %"class.google_apis::FileResource"*)* @_ZNK4base8internal14FieldConverterIN11google_apis12FileResourceENS2_18ImageMediaMetadataEE12ConvertFieldERKNS_5ValueEPS3_ to i8*)] }, comdat, align 8
@_ZTVN4base8internal20NestedValueConverterIN11google_apis18ImageMediaMetadataEEE = linkonce_odr hidden unnamed_addr constant { [5 x i8*] } { [5 x i8*] [i8* null, i8* null, i8* bitcast (void (%"class.base::internal::NestedValueConverter.488"*)* @_ZN4base8internal20NestedValueConverterIN11google_apis18ImageMediaMetadataEED2Ev to i8*), i8* bitcast (void (%"class.base::internal::NestedValueConverter.488"*)* @_ZN4base8internal20NestedValueConverterIN11google_apis18ImageMediaMetadataEED0Ev to i8*), i8* bitcast (i1 (%"class.base::internal::NestedValueConverter.488"*, %"class.base::Value"*, %"class.google_apis::ImageMediaMetadata"*)* @_ZNK4base8internal20NestedValueConverterIN11google_apis18ImageMediaMetadataEE7ConvertERKNS_5ValueEPS3_ to i8*)] }, comdat, align 8
@_ZTVN4base8internal14FieldConverterIN11google_apis12FileResourceENS2_24FileResourceCapabilitiesEEE = linkonce_odr hidden unnamed_addr constant { [5 x i8*] } { [5 x i8*] [i8* null, i8* null, i8* bitcast (void (%"class.base::internal::FieldConverter.492"*)* @_ZN4base8internal14FieldConverterIN11google_apis12FileResourceENS2_24FileResourceCapabilitiesEED2Ev to i8*), i8* bitcast (void (%"class.base::internal::FieldConverter.492"*)* @_ZN4base8internal14FieldConverterIN11google_apis12FileResourceENS2_24FileResourceCapabilitiesEED0Ev to i8*), i8* bitcast (i1 (%"class.base::internal::FieldConverter.492"*, %"class.base::Value"*, %"class.google_apis::FileResource"*)* @_ZNK4base8internal14FieldConverterIN11google_apis12FileResourceENS2_24FileResourceCapabilitiesEE12ConvertFieldERKNS_5ValueEPS3_ to i8*)] }, comdat, align 8
@_ZTVN4base8internal20NestedValueConverterIN11google_apis24FileResourceCapabilitiesEEE = linkonce_odr hidden unnamed_addr constant { [5 x i8*] } { [5 x i8*] [i8* null, i8* null, i8* bitcast (void (%"class.base::internal::NestedValueConverter.503"*)* @_ZN4base8internal20NestedValueConverterIN11google_apis24FileResourceCapabilitiesEED2Ev to i8*), i8* bitcast (void (%"class.base::internal::NestedValueConverter.503"*)* @_ZN4base8internal20NestedValueConverterIN11google_apis24FileResourceCapabilitiesEED0Ev to i8*), i8* bitcast (i1 (%"class.base::internal::NestedValueConverter.503"*, %"class.base::Value"*, %"class.google_apis::FileResourceCapabilities"*)* @_ZNK4base8internal20NestedValueConverterIN11google_apis24FileResourceCapabilitiesEE7ConvertERKNS_5ValueEPS3_ to i8*)] }, comdat, align 8
@_ZTVN4base8internal14FieldConverterIN11google_apis12FileResourceENS_4TimeEEE = linkonce_odr hidden unnamed_addr constant { [5 x i8*] } { [5 x i8*] [i8* null, i8* null, i8* bitcast (void (%"class.base::internal::FieldConverter.507"*)* @_ZN4base8internal14FieldConverterIN11google_apis12FileResourceENS_4TimeEED2Ev to i8*), i8* bitcast (void (%"class.base::internal::FieldConverter.507"*)* @_ZN4base8internal14FieldConverterIN11google_apis12FileResourceENS_4TimeEED0Ev to i8*), i8* bitcast (i1 (%"class.base::internal::FieldConverter.507"*, %"class.base::Value"*, %"class.google_apis::FileResource"*)* @_ZNK4base8internal14FieldConverterIN11google_apis12FileResourceENS_4TimeEE12ConvertFieldERKNS_5ValueEPS3_ to i8*)] }, comdat, align 8
@_ZTVN4base8internal20CustomFieldConverterINS_4TimeEEE = linkonce_odr hidden unnamed_addr constant { [5 x i8*] } { [5 x i8*] [i8* null, i8* null, i8* bitcast (void (%"class.base::internal::ValueConverter.511"*)* @_ZN4base8internal14ValueConverterINS_4TimeEED2Ev to i8*), i8* bitcast (void (%"class.base::internal::CustomFieldConverter.518"*)* @_ZN4base8internal20CustomFieldConverterINS_4TimeEED0Ev to i8*), i8* bitcast (i1 (%"class.base::internal::CustomFieldConverter.518"*, %"class.base::Value"*, %"class.base::Time"*)* @_ZNK4base8internal20CustomFieldConverterINS_4TimeEE7ConvertERKNS_5ValueEPS2_ to i8*)] }, comdat, align 8
@_ZTVN4base8internal14FieldConverterIN11google_apis12FileResourceEbEE = linkonce_odr hidden unnamed_addr constant { [5 x i8*] } { [5 x i8*] [i8* null, i8* null, i8* bitcast (void (%"class.base::internal::FieldConverter.522"*)* @_ZN4base8internal14FieldConverterIN11google_apis12FileResourceEbED2Ev to i8*), i8* bitcast (void (%"class.base::internal::FieldConverter.522"*)* @_ZN4base8internal14FieldConverterIN11google_apis12FileResourceEbED0Ev to i8*), i8* bitcast (i1 (%"class.base::internal::FieldConverter.522"*, %"class.base::Value"*, %"class.google_apis::FileResource"*)* @_ZNK4base8internal14FieldConverterIN11google_apis12FileResourceEbE12ConvertFieldERKNS_5ValueEPS3_ to i8*)] }, comdat, align 8
@_ZTVN4base8internal14FieldConverterIN11google_apis12FileResourceElEE = linkonce_odr hidden unnamed_addr constant { [5 x i8*] } { [5 x i8*] [i8* null, i8* null, i8* bitcast (void (%"class.base::internal::FieldConverter.529"*)* @_ZN4base8internal14FieldConverterIN11google_apis12FileResourceElED2Ev to i8*), i8* bitcast (void (%"class.base::internal::FieldConverter.529"*)* @_ZN4base8internal14FieldConverterIN11google_apis12FileResourceElED0Ev to i8*), i8* bitcast (i1 (%"class.base::internal::FieldConverter.529"*, %"class.base::Value"*, %"class.google_apis::FileResource"*)* @_ZNK4base8internal14FieldConverterIN11google_apis12FileResourceElE12ConvertFieldERKNS_5ValueEPS3_ to i8*)] }, comdat, align 8
@_ZTVN4base8internal14FieldConverterIN11google_apis12FileResourceE4GURLEE = linkonce_odr hidden unnamed_addr constant { [5 x i8*] } { [5 x i8*] [i8* null, i8* null, i8* bitcast (void (%"class.base::internal::FieldConverter.536"*)* @_ZN4base8internal14FieldConverterIN11google_apis12FileResourceE4GURLED2Ev to i8*), i8* bitcast (void (%"class.base::internal::FieldConverter.536"*)* @_ZN4base8internal14FieldConverterIN11google_apis12FileResourceE4GURLED0Ev to i8*), i8* bitcast (i1 (%"class.base::internal::FieldConverter.536"*, %"class.base::Value"*, %"class.google_apis::FileResource"*)* @_ZNK4base8internal14FieldConverterIN11google_apis12FileResourceE4GURLE12ConvertFieldERKNS_5ValueEPS3_ to i8*)] }, comdat, align 8
@_ZTVN4base8internal20CustomFieldConverterI4GURLEE = linkonce_odr hidden unnamed_addr constant { [5 x i8*] } { [5 x i8*] [i8* null, i8* null, i8* bitcast (void (%"class.base::internal::ValueConverter.540"*)* @_ZN4base8internal14ValueConverterI4GURLED2Ev to i8*), i8* bitcast (void (%"class.base::internal::CustomFieldConverter.547"*)* @_ZN4base8internal20CustomFieldConverterI4GURLED0Ev to i8*), i8* bitcast (i1 (%"class.base::internal::CustomFieldConverter.547"*, %"class.base::Value"*, %class.GURL*)* @_ZNK4base8internal20CustomFieldConverterI4GURLE7ConvertERKNS_5ValueEPS2_ to i8*)] }, comdat, align 8
@_ZTVN4base8internal14FieldConverterIN11google_apis12FileResourceENSt3__16vectorINS2_15ParentReferenceENS4_9allocatorIS6_EEEEEE = linkonce_odr hidden unnamed_addr constant { [5 x i8*] } { [5 x i8*] [i8* null, i8* null, i8* bitcast (void (%"class.base::internal::FieldConverter.551"*)* @_ZN4base8internal14FieldConverterIN11google_apis12FileResourceENSt3__16vectorINS2_15ParentReferenceENS4_9allocatorIS6_EEEEED2Ev to i8*), i8* bitcast (void (%"class.base::internal::FieldConverter.551"*)* @_ZN4base8internal14FieldConverterIN11google_apis12FileResourceENSt3__16vectorINS2_15ParentReferenceENS4_9allocatorIS6_EEEEED0Ev to i8*), i8* bitcast (i1 (%"class.base::internal::FieldConverter.551"*, %"class.base::Value"*, %"class.google_apis::FileResource"*)* @_ZNK4base8internal14FieldConverterIN11google_apis12FileResourceENSt3__16vectorINS2_15ParentReferenceENS4_9allocatorIS6_EEEEE12ConvertFieldERKNS_5ValueEPS3_ to i8*)] }, comdat, align 8
@_ZTVN4base8internal19ValueFieldConverterINSt3__16vectorIN11google_apis15ParentReferenceENS2_9allocatorIS5_EEEEEE = linkonce_odr hidden unnamed_addr constant { [5 x i8*] } { [5 x i8*] [i8* null, i8* null, i8* bitcast (void (%"class.base::internal::ValueConverter.555"*)* @_ZN4base8internal14ValueConverterINSt3__16vectorIN11google_apis15ParentReferenceENS2_9allocatorIS5_EEEEED2Ev to i8*), i8* bitcast (void (%"class.base::internal::ValueFieldConverter"*)* @_ZN4base8internal19ValueFieldConverterINSt3__16vectorIN11google_apis15ParentReferenceENS2_9allocatorIS5_EEEEED0Ev to i8*), i8* bitcast (i1 (%"class.base::internal::ValueFieldConverter"*, %"class.base::Value"*, %"class.std::__1::vector.115"*)* @_ZNK4base8internal19ValueFieldConverterINSt3__16vectorIN11google_apis15ParentReferenceENS2_9allocatorIS5_EEEEE7ConvertERKNS_5ValueEPS8_ to i8*)] }, comdat, align 8
@_ZTVN4base8internal14FieldConverterIN11google_apis12FileResourceENSt3__16vectorINS3_12OpenWithLinkENS4_9allocatorIS6_EEEEEE = linkonce_odr hidden unnamed_addr constant { [5 x i8*] } { [5 x i8*] [i8* null, i8* null, i8* bitcast (void (%"class.base::internal::FieldConverter.565"*)* @_ZN4base8internal14FieldConverterIN11google_apis12FileResourceENSt3__16vectorINS3_12OpenWithLinkENS4_9allocatorIS6_EEEEED2Ev to i8*), i8* bitcast (void (%"class.base::internal::FieldConverter.565"*)* @_ZN4base8internal14FieldConverterIN11google_apis12FileResourceENSt3__16vectorINS3_12OpenWithLinkENS4_9allocatorIS6_EEEEED0Ev to i8*), i8* bitcast (i1 (%"class.base::internal::FieldConverter.565"*, %"class.base::Value"*, %"class.google_apis::FileResource"*)* @_ZNK4base8internal14FieldConverterIN11google_apis12FileResourceENSt3__16vectorINS3_12OpenWithLinkENS4_9allocatorIS6_EEEEE12ConvertFieldERKNS_5ValueEPS3_ to i8*)] }, comdat, align 8
@_ZTVN4base8internal19ValueFieldConverterINSt3__16vectorIN11google_apis12FileResource12OpenWithLinkENS2_9allocatorIS6_EEEEEE = linkonce_odr hidden unnamed_addr constant { [5 x i8*] } { [5 x i8*] [i8* null, i8* null, i8* bitcast (void (%"class.base::internal::ValueConverter.569"*)* @_ZN4base8internal14ValueConverterINSt3__16vectorIN11google_apis12FileResource12OpenWithLinkENS2_9allocatorIS6_EEEEED2Ev to i8*), i8* bitcast (void (%"class.base::internal::ValueFieldConverter.576"*)* @_ZN4base8internal19ValueFieldConverterINSt3__16vectorIN11google_apis12FileResource12OpenWithLinkENS2_9allocatorIS6_EEEEED0Ev to i8*), i8* bitcast (i1 (%"class.base::internal::ValueFieldConverter.576"*, %"class.base::Value"*, %"class.std::__1::vector.121"*)* @_ZNK4base8internal19ValueFieldConverterINSt3__16vectorIN11google_apis12FileResource12OpenWithLinkENS2_9allocatorIS6_EEEEE7ConvertERKNS_5ValueEPS9_ to i8*)] }, comdat, align 8
@_ZTVN4base8internal14FieldConverterIN11google_apis8FileListE4GURLEE = linkonce_odr hidden unnamed_addr constant { [5 x i8*] } { [5 x i8*] [i8* null, i8* null, i8* bitcast (void (%"class.base::internal::FieldConverter.580"*)* @_ZN4base8internal14FieldConverterIN11google_apis8FileListE4GURLED2Ev to i8*), i8* bitcast (void (%"class.base::internal::FieldConverter.580"*)* @_ZN4base8internal14FieldConverterIN11google_apis8FileListE4GURLED0Ev to i8*), i8* bitcast (i1 (%"class.base::internal::FieldConverter.580"*, %"class.base::Value"*, %"class.google_apis::FileList"*)* @_ZNK4base8internal14FieldConverterIN11google_apis8FileListE4GURLE12ConvertFieldERKNS_5ValueEPS3_ to i8*)] }, comdat, align 8
@_ZTVN4base8internal18FieldConverterBaseIN11google_apis8FileListEEE = linkonce_odr hidden unnamed_addr constant { [5 x i8*] } { [5 x i8*] [i8* null, i8* null, i8* bitcast (void (%"class.base::internal::FieldConverterBase.290"*)* @_ZN4base8internal18FieldConverterBaseIN11google_apis8FileListEED2Ev to i8*), i8* bitcast (void (%"class.base::internal::FieldConverterBase.290"*)* @_ZN4base8internal18FieldConverterBaseIN11google_apis8FileListEED0Ev to i8*), i8* bitcast (void ()* @__cxa_pure_virtual to i8*)] }, comdat, align 8
@_ZTVN4base8internal14FieldConverterIN11google_apis8FileListENSt3__16vectorINS4_10unique_ptrINS2_12FileResourceENS4_14default_deleteIS7_EEEENS4_9allocatorISA_EEEEEE = linkonce_odr hidden unnamed_addr constant { [5 x i8*] } { [5 x i8*] [i8* null, i8* null, i8* bitcast (void (%"class.base::internal::FieldConverter.590"*)* @_ZN4base8internal14FieldConverterIN11google_apis8FileListENSt3__16vectorINS4_10unique_ptrINS2_12FileResourceENS4_14default_deleteIS7_EEEENS4_9allocatorISA_EEEEED2Ev to i8*), i8* bitcast (void (%"class.base::internal::FieldConverter.590"*)* @_ZN4base8internal14FieldConverterIN11google_apis8FileListENSt3__16vectorINS4_10unique_ptrINS2_12FileResourceENS4_14default_deleteIS7_EEEENS4_9allocatorISA_EEEEED0Ev to i8*), i8* bitcast (i1 (%"class.base::internal::FieldConverter.590"*, %"class.base::Value"*, %"class.google_apis::FileList"*)* @_ZNK4base8internal14FieldConverterIN11google_apis8FileListENSt3__16vectorINS4_10unique_ptrINS2_12FileResourceENS4_14default_deleteIS7_EEEENS4_9allocatorISA_EEEEE12ConvertFieldERKNS_5ValueEPS3_ to i8*)] }, comdat, align 8
@_ZTVN4base8internal24RepeatedMessageConverterIN11google_apis12FileResourceEEE = linkonce_odr hidden unnamed_addr constant { [5 x i8*] } { [5 x i8*] [i8* null, i8* null, i8* bitcast (void (%"class.base::internal::RepeatedMessageConverter.601"*)* @_ZN4base8internal24RepeatedMessageConverterIN11google_apis12FileResourceEED2Ev to i8*), i8* bitcast (void (%"class.base::internal::RepeatedMessageConverter.601"*)* @_ZN4base8internal24RepeatedMessageConverterIN11google_apis12FileResourceEED0Ev to i8*), i8* bitcast (i1 (%"class.base::internal::RepeatedMessageConverter.601"*, %"class.base::Value"*, %"class.std::__1::vector.143"*)* @_ZNK4base8internal24RepeatedMessageConverterIN11google_apis12FileResourceEE7ConvertERKNS_5ValueEPNSt3__16vectorINS8_10unique_ptrIS3_NS8_14default_deleteIS3_EEEENS8_9allocatorISD_EEEE to i8*)] }, comdat, align 8
@_ZTVN4base8internal14FieldConverterIN11google_apis14ChangeResourceElEE = linkonce_odr hidden unnamed_addr constant { [5 x i8*] } { [5 x i8*] [i8* null, i8* null, i8* bitcast (void (%"class.base::internal::FieldConverter.608"*)* @_ZN4base8internal14FieldConverterIN11google_apis14ChangeResourceElED2Ev to i8*), i8* bitcast (void (%"class.base::internal::FieldConverter.608"*)* @_ZN4base8internal14FieldConverterIN11google_apis14ChangeResourceElED0Ev to i8*), i8* bitcast (i1 (%"class.base::internal::FieldConverter.608"*, %"class.base::Value"*, %"class.google_apis::ChangeResource"*)* @_ZNK4base8internal14FieldConverterIN11google_apis14ChangeResourceElE12ConvertFieldERKNS_5ValueEPS3_ to i8*)] }, comdat, align 8
@_ZTVN4base8internal18FieldConverterBaseIN11google_apis14ChangeResourceEEE = linkonce_odr hidden unnamed_addr constant { [5 x i8*] } { [5 x i8*] [i8* null, i8* null, i8* bitcast (void (%"class.base::internal::FieldConverterBase.296"*)* @_ZN4base8internal18FieldConverterBaseIN11google_apis14ChangeResourceEED2Ev to i8*), i8* bitcast (void (%"class.base::internal::FieldConverterBase.296"*)* @_ZN4base8internal18FieldConverterBaseIN11google_apis14ChangeResourceEED0Ev to i8*), i8* bitcast (void ()* @__cxa_pure_virtual to i8*)] }, comdat, align 8
@_ZTVN4base8internal14FieldConverterIN11google_apis14ChangeResourceENS3_10ChangeTypeEEE = linkonce_odr hidden unnamed_addr constant { [5 x i8*] } { [5 x i8*] [i8* null, i8* null, i8* bitcast (void (%"class.base::internal::FieldConverter.618"*)* @_ZN4base8internal14FieldConverterIN11google_apis14ChangeResourceENS3_10ChangeTypeEED2Ev to i8*), i8* bitcast (void (%"class.base::internal::FieldConverter.618"*)* @_ZN4base8internal14FieldConverterIN11google_apis14ChangeResourceENS3_10ChangeTypeEED0Ev to i8*), i8* bitcast (i1 (%"class.base::internal::FieldConverter.618"*, %"class.base::Value"*, %"class.google_apis::ChangeResource"*)* @_ZNK4base8internal14FieldConverterIN11google_apis14ChangeResourceENS3_10ChangeTypeEE12ConvertFieldERKNS_5ValueEPS3_ to i8*)] }, comdat, align 8
@_ZTVN4base8internal20CustomFieldConverterIN11google_apis14ChangeResource10ChangeTypeEEE = linkonce_odr hidden unnamed_addr constant { [5 x i8*] } { [5 x i8*] [i8* null, i8* null, i8* bitcast (void (%"class.base::internal::ValueConverter.622"*)* @_ZN4base8internal14ValueConverterIN11google_apis14ChangeResource10ChangeTypeEED2Ev to i8*), i8* bitcast (void (%"class.base::internal::CustomFieldConverter.629"*)* @_ZN4base8internal20CustomFieldConverterIN11google_apis14ChangeResource10ChangeTypeEED0Ev to i8*), i8* bitcast (i1 (%"class.base::internal::CustomFieldConverter.629"*, %"class.base::Value"*, i32*)* @_ZNK4base8internal20CustomFieldConverterIN11google_apis14ChangeResource10ChangeTypeEE7ConvertERKNS_5ValueEPS4_ to i8*)] }, comdat, align 8
@_ZTVN4base8internal14FieldConverterIN11google_apis14ChangeResourceENSt3__112basic_stringIcNS4_11char_traitsIcEENS4_9allocatorIcEEEEEE = linkonce_odr hidden unnamed_addr constant { [5 x i8*] } { [5 x i8*] [i8* null, i8* null, i8* bitcast (void (%"class.base::internal::FieldConverter.633"*)* @_ZN4base8internal14FieldConverterIN11google_apis14ChangeResourceENSt3__112basic_stringIcNS4_11char_traitsIcEENS4_9allocatorIcEEEEED2Ev to i8*), i8* bitcast (void (%"class.base::internal::FieldConverter.633"*)* @_ZN4base8internal14FieldConverterIN11google_apis14ChangeResourceENSt3__112basic_stringIcNS4_11char_traitsIcEENS4_9allocatorIcEEEEED0Ev to i8*), i8* bitcast (i1 (%"class.base::internal::FieldConverter.633"*, %"class.base::Value"*, %"class.google_apis::ChangeResource"*)* @_ZNK4base8internal14FieldConverterIN11google_apis14ChangeResourceENSt3__112basic_stringIcNS4_11char_traitsIcEENS4_9allocatorIcEEEEE12ConvertFieldERKNS_5ValueEPS3_ to i8*)] }, comdat, align 8
@_ZTVN4base8internal14FieldConverterIN11google_apis14ChangeResourceEbEE = linkonce_odr hidden unnamed_addr constant { [5 x i8*] } { [5 x i8*] [i8* null, i8* null, i8* bitcast (void (%"class.base::internal::FieldConverter.640"*)* @_ZN4base8internal14FieldConverterIN11google_apis14ChangeResourceEbED2Ev to i8*), i8* bitcast (void (%"class.base::internal::FieldConverter.640"*)* @_ZN4base8internal14FieldConverterIN11google_apis14ChangeResourceEbED0Ev to i8*), i8* bitcast (i1 (%"class.base::internal::FieldConverter.640"*, %"class.base::Value"*, %"class.google_apis::ChangeResource"*)* @_ZNK4base8internal14FieldConverterIN11google_apis14ChangeResourceEbE12ConvertFieldERKNS_5ValueEPS3_ to i8*)] }, comdat, align 8
@_ZTVN4base8internal14FieldConverterIN11google_apis14ChangeResourceENSt3__110unique_ptrINS2_12FileResourceENS4_14default_deleteIS6_EEEEEE = linkonce_odr hidden unnamed_addr constant { [5 x i8*] } { [5 x i8*] [i8* null, i8* null, i8* bitcast (void (%"class.base::internal::FieldConverter.647"*)* @_ZN4base8internal14FieldConverterIN11google_apis14ChangeResourceENSt3__110unique_ptrINS2_12FileResourceENS4_14default_deleteIS6_EEEEED2Ev to i8*), i8* bitcast (void (%"class.base::internal::FieldConverter.647"*)* @_ZN4base8internal14FieldConverterIN11google_apis14ChangeResourceENSt3__110unique_ptrINS2_12FileResourceENS4_14default_deleteIS6_EEEEED0Ev to i8*), i8* bitcast (i1 (%"class.base::internal::FieldConverter.647"*, %"class.base::Value"*, %"class.google_apis::ChangeResource"*)* @_ZNK4base8internal14FieldConverterIN11google_apis14ChangeResourceENSt3__110unique_ptrINS2_12FileResourceENS4_14default_deleteIS6_EEEEE12ConvertFieldERKNS_5ValueEPS3_ to i8*)] }, comdat, align 8
@_ZTVN4base8internal19ValueFieldConverterINSt3__110unique_ptrIN11google_apis12FileResourceENS2_14default_deleteIS5_EEEEEE = linkonce_odr hidden unnamed_addr constant { [5 x i8*] } { [5 x i8*] [i8* null, i8* null, i8* bitcast (void (%"class.base::internal::ValueConverter.651"*)* @_ZN4base8internal14ValueConverterINSt3__110unique_ptrIN11google_apis12FileResourceENS2_14default_deleteIS5_EEEEED2Ev to i8*), i8* bitcast (void (%"class.base::internal::ValueFieldConverter.658"*)* @_ZN4base8internal19ValueFieldConverterINSt3__110unique_ptrIN11google_apis12FileResourceENS2_14default_deleteIS5_EEEEED0Ev to i8*), i8* bitcast (i1 (%"class.base::internal::ValueFieldConverter.658"*, %"class.base::Value"*, %"class.std::__1::unique_ptr.137"*)* @_ZNK4base8internal19ValueFieldConverterINSt3__110unique_ptrIN11google_apis12FileResourceENS2_14default_deleteIS5_EEEEE7ConvertERKNS_5ValueEPS8_ to i8*)] }, comdat, align 8
@_ZTVN4base8internal14FieldConverterIN11google_apis14ChangeResourceENS_4TimeEEE = linkonce_odr hidden unnamed_addr constant { [5 x i8*] } { [5 x i8*] [i8* null, i8* null, i8* bitcast (void (%"class.base::internal::FieldConverter.662"*)* @_ZN4base8internal14FieldConverterIN11google_apis14ChangeResourceENS_4TimeEED2Ev to i8*), i8* bitcast (void (%"class.base::internal::FieldConverter.662"*)* @_ZN4base8internal14FieldConverterIN11google_apis14ChangeResourceENS_4TimeEED0Ev to i8*), i8* bitcast (i1 (%"class.base::internal::FieldConverter.662"*, %"class.base::Value"*, %"class.google_apis::ChangeResource"*)* @_ZNK4base8internal14FieldConverterIN11google_apis14ChangeResourceENS_4TimeEE12ConvertFieldERKNS_5ValueEPS3_ to i8*)] }, comdat, align 8
@_ZTVN4base8internal14FieldConverterIN11google_apis14ChangeResourceENSt3__110unique_ptrINS2_17TeamDriveResourceENS4_14default_deleteIS6_EEEEEE = linkonce_odr hidden unnamed_addr constant { [5 x i8*] } { [5 x i8*] [i8* null, i8* null, i8* bitcast (void (%"class.base::internal::FieldConverter.669"*)* @_ZN4base8internal14FieldConverterIN11google_apis14ChangeResourceENSt3__110unique_ptrINS2_17TeamDriveResourceENS4_14default_deleteIS6_EEEEED2Ev to i8*), i8* bitcast (void (%"class.base::internal::FieldConverter.669"*)* @_ZN4base8internal14FieldConverterIN11google_apis14ChangeResourceENSt3__110unique_ptrINS2_17TeamDriveResourceENS4_14default_deleteIS6_EEEEED0Ev to i8*), i8* bitcast (i1 (%"class.base::internal::FieldConverter.669"*, %"class.base::Value"*, %"class.google_apis::ChangeResource"*)* @_ZNK4base8internal14FieldConverterIN11google_apis14ChangeResourceENSt3__110unique_ptrINS2_17TeamDriveResourceENS4_14default_deleteIS6_EEEEE12ConvertFieldERKNS_5ValueEPS3_ to i8*)] }, comdat, align 8
@_ZTVN4base8internal19ValueFieldConverterINSt3__110unique_ptrIN11google_apis17TeamDriveResourceENS2_14default_deleteIS5_EEEEEE = linkonce_odr hidden unnamed_addr constant { [5 x i8*] } { [5 x i8*] [i8* null, i8* null, i8* bitcast (void (%"class.base::internal::ValueConverter.673"*)* @_ZN4base8internal14ValueConverterINSt3__110unique_ptrIN11google_apis17TeamDriveResourceENS2_14default_deleteIS5_EEEEED2Ev to i8*), i8* bitcast (void (%"class.base::internal::ValueFieldConverter.680"*)* @_ZN4base8internal19ValueFieldConverterINSt3__110unique_ptrIN11google_apis17TeamDriveResourceENS2_14default_deleteIS5_EEEEED0Ev to i8*), i8* bitcast (i1 (%"class.base::internal::ValueFieldConverter.680"*, %"class.base::Value"*, %"class.std::__1::unique_ptr.48"*)* @_ZNK4base8internal19ValueFieldConverterINSt3__110unique_ptrIN11google_apis17TeamDriveResourceENS2_14default_deleteIS5_EEEEE7ConvertERKNS_5ValueEPS8_ to i8*)] }, comdat, align 8
@_ZTVN4base8internal14FieldConverterIN11google_apis10ChangeListE4GURLEE = linkonce_odr hidden unnamed_addr constant { [5 x i8*] } { [5 x i8*] [i8* null, i8* null, i8* bitcast (void (%"class.base::internal::FieldConverter.684"*)* @_ZN4base8internal14FieldConverterIN11google_apis10ChangeListE4GURLED2Ev to i8*), i8* bitcast (void (%"class.base::internal::FieldConverter.684"*)* @_ZN4base8internal14FieldConverterIN11google_apis10ChangeListE4GURLED0Ev to i8*), i8* bitcast (i1 (%"class.base::internal::FieldConverter.684"*, %"class.base::Value"*, %"class.google_apis::ChangeList"*)* @_ZNK4base8internal14FieldConverterIN11google_apis10ChangeListE4GURLE12ConvertFieldERKNS_5ValueEPS3_ to i8*)] }, comdat, align 8
@_ZTVN4base8internal18FieldConverterBaseIN11google_apis10ChangeListEEE = linkonce_odr hidden unnamed_addr constant { [5 x i8*] } { [5 x i8*] [i8* null, i8* null, i8* bitcast (void (%"class.base::internal::FieldConverterBase.302"*)* @_ZN4base8internal18FieldConverterBaseIN11google_apis10ChangeListEED2Ev to i8*), i8* bitcast (void (%"class.base::internal::FieldConverterBase.302"*)* @_ZN4base8internal18FieldConverterBaseIN11google_apis10ChangeListEED0Ev to i8*), i8* bitcast (void ()* @__cxa_pure_virtual to i8*)] }, comdat, align 8
@_ZTVN4base8internal14FieldConverterIN11google_apis10ChangeListElEE = linkonce_odr hidden unnamed_addr constant { [5 x i8*] } { [5 x i8*] [i8* null, i8* null, i8* bitcast (void (%"class.base::internal::FieldConverter.694"*)* @_ZN4base8internal14FieldConverterIN11google_apis10ChangeListElED2Ev to i8*), i8* bitcast (void (%"class.base::internal::FieldConverter.694"*)* @_ZN4base8internal14FieldConverterIN11google_apis10ChangeListElED0Ev to i8*), i8* bitcast (i1 (%"class.base::internal::FieldConverter.694"*, %"class.base::Value"*, %"class.google_apis::ChangeList"*)* @_ZNK4base8internal14FieldConverterIN11google_apis10ChangeListElE12ConvertFieldERKNS_5ValueEPS3_ to i8*)] }, comdat, align 8
@_ZTVN4base8internal14FieldConverterIN11google_apis10ChangeListENSt3__112basic_stringIcNS4_11char_traitsIcEENS4_9allocatorIcEEEEEE = linkonce_odr hidden unnamed_addr constant { [5 x i8*] } { [5 x i8*] [i8* null, i8* null, i8* bitcast (void (%"class.base::internal::FieldConverter.701"*)* @_ZN4base8internal14FieldConverterIN11google_apis10ChangeListENSt3__112basic_stringIcNS4_11char_traitsIcEENS4_9allocatorIcEEEEED2Ev to i8*), i8* bitcast (void (%"class.base::internal::FieldConverter.701"*)* @_ZN4base8internal14FieldConverterIN11google_apis10ChangeListENSt3__112basic_stringIcNS4_11char_traitsIcEENS4_9allocatorIcEEEEED0Ev to i8*), i8* bitcast (i1 (%"class.base::internal::FieldConverter.701"*, %"class.base::Value"*, %"class.google_apis::ChangeList"*)* @_ZNK4base8internal14FieldConverterIN11google_apis10ChangeListENSt3__112basic_stringIcNS4_11char_traitsIcEENS4_9allocatorIcEEEEE12ConvertFieldERKNS_5ValueEPS3_ to i8*)] }, comdat, align 8
@_ZTVN4base8internal14FieldConverterIN11google_apis10ChangeListENSt3__16vectorINS4_10unique_ptrINS2_14ChangeResourceENS4_14default_deleteIS7_EEEENS4_9allocatorISA_EEEEEE = linkonce_odr hidden unnamed_addr constant { [5 x i8*] } { [5 x i8*] [i8* null, i8* null, i8* bitcast (void (%"class.base::internal::FieldConverter.708"*)* @_ZN4base8internal14FieldConverterIN11google_apis10ChangeListENSt3__16vectorINS4_10unique_ptrINS2_14ChangeResourceENS4_14default_deleteIS7_EEEENS4_9allocatorISA_EEEEED2Ev to i8*), i8* bitcast (void (%"class.base::internal::FieldConverter.708"*)* @_ZN4base8internal14FieldConverterIN11google_apis10ChangeListENSt3__16vectorINS4_10unique_ptrINS2_14ChangeResourceENS4_14default_deleteIS7_EEEENS4_9allocatorISA_EEEEED0Ev to i8*), i8* bitcast (i1 (%"class.base::internal::FieldConverter.708"*, %"class.base::Value"*, %"class.google_apis::ChangeList"*)* @_ZNK4base8internal14FieldConverterIN11google_apis10ChangeListENSt3__16vectorINS4_10unique_ptrINS2_14ChangeResourceENS4_14default_deleteIS7_EEEENS4_9allocatorISA_EEEEE12ConvertFieldERKNS_5ValueEPS3_ to i8*)] }, comdat, align 8
@_ZTVN4base8internal24RepeatedMessageConverterIN11google_apis14ChangeResourceEEE = linkonce_odr hidden unnamed_addr constant { [5 x i8*] } { [5 x i8*] [i8* null, i8* null, i8* bitcast (void (%"class.base::internal::RepeatedMessageConverter.719"*)* @_ZN4base8internal24RepeatedMessageConverterIN11google_apis14ChangeResourceEED2Ev to i8*), i8* bitcast (void (%"class.base::internal::RepeatedMessageConverter.719"*)* @_ZN4base8internal24RepeatedMessageConverterIN11google_apis14ChangeResourceEED0Ev to i8*), i8* bitcast (i1 (%"class.base::internal::RepeatedMessageConverter.719"*, %"class.base::Value"*, %"class.std::__1::vector.180"*)* @_ZNK4base8internal24RepeatedMessageConverterIN11google_apis14ChangeResourceEE7ConvertERKNS_5ValueEPNSt3__16vectorINS8_10unique_ptrIS3_NS8_14default_deleteIS3_EEEENS8_9allocatorISD_EEEE to i8*)] }, comdat, align 8
@_ZTVN4base8internal14FieldConverterIN11google_apis10FileLabelsEbEE = linkonce_odr hidden unnamed_addr constant { [5 x i8*] } { [5 x i8*] [i8* null, i8* null, i8* bitcast (void (%"class.base::internal::FieldConverter.726"*)* @_ZN4base8internal14FieldConverterIN11google_apis10FileLabelsEbED2Ev to i8*), i8* bitcast (void (%"class.base::internal::FieldConverter.726"*)* @_ZN4base8internal14FieldConverterIN11google_apis10FileLabelsEbED0Ev to i8*), i8* bitcast (i1 (%"class.base::internal::FieldConverter.726"*, %"class.base::Value"*, %"class.google_apis::FileLabels"*)* @_ZNK4base8internal14FieldConverterIN11google_apis10FileLabelsEbE12ConvertFieldERKNS_5ValueEPS3_ to i8*)] }, comdat, align 8
@_ZTVN4base8internal18FieldConverterBaseIN11google_apis10FileLabelsEEE = linkonce_odr hidden unnamed_addr constant { [5 x i8*] } { [5 x i8*] [i8* null, i8* null, i8* bitcast (void (%"class.base::internal::FieldConverterBase.308"*)* @_ZN4base8internal18FieldConverterBaseIN11google_apis10FileLabelsEED2Ev to i8*), i8* bitcast (void (%"class.base::internal::FieldConverterBase.308"*)* @_ZN4base8internal18FieldConverterBaseIN11google_apis10FileLabelsEED0Ev to i8*), i8* bitcast (void ()* @__cxa_pure_virtual to i8*)] }, comdat, align 8
@_ZTVN4base8internal14FieldConverterIN11google_apis18ImageMediaMetadataEiEE = linkonce_odr hidden unnamed_addr constant { [5 x i8*] } { [5 x i8*] [i8* null, i8* null, i8* bitcast (void (%"class.base::internal::FieldConverter.736"*)* @_ZN4base8internal14FieldConverterIN11google_apis18ImageMediaMetadataEiED2Ev to i8*), i8* bitcast (void (%"class.base::internal::FieldConverter.736"*)* @_ZN4base8internal14FieldConverterIN11google_apis18ImageMediaMetadataEiED0Ev to i8*), i8* bitcast (i1 (%"class.base::internal::FieldConverter.736"*, %"class.base::Value"*, %"class.google_apis::ImageMediaMetadata"*)* @_ZNK4base8internal14FieldConverterIN11google_apis18ImageMediaMetadataEiE12ConvertFieldERKNS_5ValueEPS3_ to i8*)] }, comdat, align 8
@_ZTVN4base8internal18FieldConverterBaseIN11google_apis18ImageMediaMetadataEEE = linkonce_odr hidden unnamed_addr constant { [5 x i8*] } { [5 x i8*] [i8* null, i8* null, i8* bitcast (void (%"class.base::internal::FieldConverterBase.314"*)* @_ZN4base8internal18FieldConverterBaseIN11google_apis18ImageMediaMetadataEED2Ev to i8*), i8* bitcast (void (%"class.base::internal::FieldConverterBase.314"*)* @_ZN4base8internal18FieldConverterBaseIN11google_apis18ImageMediaMetadataEED0Ev to i8*), i8* bitcast (void ()* @__cxa_pure_virtual to i8*)] }, comdat, align 8
@_ZTVN4base8internal19BasicValueConverterIiEE = external unnamed_addr constant { [5 x i8*] }, align 8
@_ZTVN4base8internal14FieldConverterIN11google_apis14StartPageTokenENSt3__112basic_stringIcNS4_11char_traitsIcEENS4_9allocatorIcEEEEEE = linkonce_odr hidden unnamed_addr constant { [5 x i8*] } { [5 x i8*] [i8* null, i8* null, i8* bitcast (void (%"class.base::internal::FieldConverter.754"*)* @_ZN4base8internal14FieldConverterIN11google_apis14StartPageTokenENSt3__112basic_stringIcNS4_11char_traitsIcEENS4_9allocatorIcEEEEED2Ev to i8*), i8* bitcast (void (%"class.base::internal::FieldConverter.754"*)* @_ZN4base8internal14FieldConverterIN11google_apis14StartPageTokenENSt3__112basic_stringIcNS4_11char_traitsIcEENS4_9allocatorIcEEEEED0Ev to i8*), i8* bitcast (i1 (%"class.base::internal::FieldConverter.754"*, %"class.base::Value"*, %"class.google_apis::StartPageToken"*)* @_ZNK4base8internal14FieldConverterIN11google_apis14StartPageTokenENSt3__112basic_stringIcNS4_11char_traitsIcEENS4_9allocatorIcEEEEE12ConvertFieldERKNS_5ValueEPS3_ to i8*)] }, comdat, align 8
@_ZTVN4base8internal18FieldConverterBaseIN11google_apis14StartPageTokenEEE = linkonce_odr hidden unnamed_addr constant { [5 x i8*] } { [5 x i8*] [i8* null, i8* null, i8* bitcast (void (%"class.base::internal::FieldConverterBase.320"*)* @_ZN4base8internal18FieldConverterBaseIN11google_apis14StartPageTokenEED2Ev to i8*), i8* bitcast (void (%"class.base::internal::FieldConverterBase.320"*)* @_ZN4base8internal18FieldConverterBaseIN11google_apis14StartPageTokenEED0Ev to i8*), i8* bitcast (void ()* @__cxa_pure_virtual to i8*)] }, comdat, align 8

@_ZN11google_apis13AboutResourceC1Ev = hidden unnamed_addr alias void (%"class.google_apis::AboutResource"*), void (%"class.google_apis::AboutResource"*)* @_ZN11google_apis13AboutResourceC2Ev
@_ZN11google_apis13AboutResourceD1Ev = hidden unnamed_addr alias void (%"class.google_apis::AboutResource"*), void (%"class.google_apis::AboutResource"*)* @_ZN11google_apis13AboutResourceD2Ev
@_ZN11google_apis21TeamDriveCapabilitiesC1Ev = hidden unnamed_addr alias void (%"class.google_apis::TeamDriveCapabilities"*), void (%"class.google_apis::TeamDriveCapabilities"*)* @_ZN11google_apis21TeamDriveCapabilitiesC2Ev
@_ZN11google_apis21TeamDriveCapabilitiesC1ERKS0_ = hidden unnamed_addr alias void (%"class.google_apis::TeamDriveCapabilities"*, %"class.google_apis::TeamDriveCapabilities"*), void (%"class.google_apis::TeamDriveCapabilities"*, %"class.google_apis::TeamDriveCapabilities"*)* @_ZN11google_apis21TeamDriveCapabilitiesC2ERKS0_
@_ZN11google_apis21TeamDriveCapabilitiesD1Ev = hidden unnamed_addr alias void (%"class.google_apis::TeamDriveCapabilities"*), void (%"class.google_apis::TeamDriveCapabilities"*)* @_ZN11google_apis21TeamDriveCapabilitiesD2Ev
@_ZN11google_apis17TeamDriveResourceC1Ev = hidden unnamed_addr alias void (%"class.google_apis::TeamDriveResource"*), void (%"class.google_apis::TeamDriveResource"*)* @_ZN11google_apis17TeamDriveResourceC2Ev
@_ZN11google_apis17TeamDriveResourceD1Ev = hidden unnamed_addr alias void (%"class.google_apis::TeamDriveResource"*), void (%"class.google_apis::TeamDriveResource"*)* @_ZN11google_apis17TeamDriveResourceD2Ev
@_ZN11google_apis13TeamDriveListC1Ev = hidden unnamed_addr alias void (%"class.google_apis::TeamDriveList"*), void (%"class.google_apis::TeamDriveList"*)* @_ZN11google_apis13TeamDriveListC2Ev
@_ZN11google_apis13TeamDriveListD1Ev = hidden unnamed_addr alias void (%"class.google_apis::TeamDriveList"*), void (%"class.google_apis::TeamDriveList"*)* @_ZN11google_apis13TeamDriveListD2Ev
@_ZN11google_apis15ParentReferenceC1Ev = hidden unnamed_addr alias void (%"class.google_apis::ParentReference"*), void (%"class.google_apis::ParentReference"*)* @_ZN11google_apis15ParentReferenceC2Ev
@_ZN11google_apis15ParentReferenceD1Ev = hidden unnamed_addr alias void (%"class.google_apis::ParentReference"*), void (%"class.google_apis::ParentReference"*)* @_ZN11google_apis15ParentReferenceD2Ev
@_ZN11google_apis24FileResourceCapabilitiesC1Ev = hidden unnamed_addr alias void (%"class.google_apis::FileResourceCapabilities"*), void (%"class.google_apis::FileResourceCapabilities"*)* @_ZN11google_apis24FileResourceCapabilitiesC2Ev
@_ZN11google_apis24FileResourceCapabilitiesC1ERKS0_ = hidden unnamed_addr alias void (%"class.google_apis::FileResourceCapabilities"*, %"class.google_apis::FileResourceCapabilities"*), void (%"class.google_apis::FileResourceCapabilities"*, %"class.google_apis::FileResourceCapabilities"*)* @_ZN11google_apis24FileResourceCapabilitiesC2ERKS0_
@_ZN11google_apis24FileResourceCapabilitiesD1Ev = hidden unnamed_addr alias void (%"class.google_apis::FileResourceCapabilities"*), void (%"class.google_apis::FileResourceCapabilities"*)* @_ZN11google_apis24FileResourceCapabilitiesD2Ev
@_ZN11google_apis12FileResourceC1Ev = hidden unnamed_addr alias void (%"class.google_apis::FileResource"*), void (%"class.google_apis::FileResource"*)* @_ZN11google_apis12FileResourceC2Ev
@_ZN11google_apis12FileResourceC1ERKS0_ = hidden unnamed_addr alias void (%"class.google_apis::FileResource"*, %"class.google_apis::FileResource"*), void (%"class.google_apis::FileResource"*, %"class.google_apis::FileResource"*)* @_ZN11google_apis12FileResourceC2ERKS0_
@_ZN11google_apis12FileResourceD1Ev = hidden unnamed_addr alias void (%"class.google_apis::FileResource"*), void (%"class.google_apis::FileResource"*)* @_ZN11google_apis12FileResourceD2Ev
@_ZN11google_apis8FileListC1Ev = hidden unnamed_addr alias void (%"class.google_apis::FileList"*), void (%"class.google_apis::FileList"*)* @_ZN11google_apis8FileListC2Ev
@_ZN11google_apis8FileListD1Ev = hidden unnamed_addr alias void (%"class.google_apis::FileList"*), void (%"class.google_apis::FileList"*)* @_ZN11google_apis8FileListD2Ev
@_ZN11google_apis14ChangeResourceC1Ev = hidden unnamed_addr alias void (%"class.google_apis::ChangeResource"*), void (%"class.google_apis::ChangeResource"*)* @_ZN11google_apis14ChangeResourceC2Ev
@_ZN11google_apis14ChangeResourceD1Ev = hidden unnamed_addr alias void (%"class.google_apis::ChangeResource"*), void (%"class.google_apis::ChangeResource"*)* @_ZN11google_apis14ChangeResourceD2Ev
@_ZN11google_apis10ChangeListC1Ev = hidden unnamed_addr alias void (%"class.google_apis::ChangeList"*), void (%"class.google_apis::ChangeList"*)* @_ZN11google_apis10ChangeListC2Ev
@_ZN11google_apis10ChangeListD1Ev = hidden unnamed_addr alias void (%"class.google_apis::ChangeList"*), void (%"class.google_apis::ChangeList"*)* @_ZN11google_apis10ChangeListD2Ev
@_ZN11google_apis10FileLabelsC1Ev = hidden unnamed_addr alias void (%"class.google_apis::FileLabels"*), void (%"class.google_apis::FileLabels"*)* @_ZN11google_apis10FileLabelsC2Ev
@_ZN11google_apis10FileLabelsD1Ev = hidden unnamed_addr alias void (%"class.google_apis::FileLabels"*), void (%"class.google_apis::FileLabels"*)* @_ZN11google_apis10FileLabelsD2Ev
@_ZN11google_apis18ImageMediaMetadataC1Ev = hidden unnamed_addr alias void (%"class.google_apis::ImageMediaMetadata"*), void (%"class.google_apis::ImageMediaMetadata"*)* @_ZN11google_apis18ImageMediaMetadataC2Ev
@_ZN11google_apis18ImageMediaMetadataD1Ev = hidden unnamed_addr alias void (%"class.google_apis::ImageMediaMetadata"*), void (%"class.google_apis::ImageMediaMetadata"*)* @_ZN11google_apis18ImageMediaMetadataD2Ev
@_ZN11google_apis14StartPageTokenC1Ev = hidden unnamed_addr alias void (%"class.google_apis::StartPageToken"*), void (%"class.google_apis::StartPageToken"*)* @_ZN11google_apis14StartPageTokenC2Ev
@_ZN11google_apis14StartPageTokenD1Ev = hidden unnamed_addr alias void (%"class.google_apis::StartPageToken"*), void (%"class.google_apis::StartPageToken"*)* @_ZN11google_apis14StartPageTokenD2Ev

; Function Attrs: nounwind ssp uwtable
define hidden void @_ZN11google_apis13AboutResourceC2Ev(%"class.google_apis::AboutResource"* nocapture) unnamed_addr #0 align 2 {
  %2 = bitcast %"class.google_apis::AboutResource"* %0 to i8*
  call void @llvm.memset.p0i8.i64(i8* align 8 %2, i8 0, i64 48, i1 false)
  ret void
}

; Function Attrs: nounwind ssp uwtable
define hidden void @_ZN11google_apis13AboutResourceD2Ev(%"class.google_apis::AboutResource"* nocapture readonly) unnamed_addr #0 align 2 {
  %2 = getelementptr inbounds %"class.google_apis::AboutResource", %"class.google_apis::AboutResource"* %0, i64 0, i32 3
  %3 = bitcast %"class.std::__1::basic_string"* %2 to %"struct.std::__1::basic_string<char, std::__1::char_traits<char>, std::__1::allocator<char> >::__short"*
  %4 = getelementptr inbounds %"struct.std::__1::basic_string<char, std::__1::char_traits<char>, std::__1::allocator<char> >::__short", %"struct.std::__1::basic_string<char, std::__1::char_traits<char>, std::__1::allocator<char> >::__short"* %3, i64 0, i32 1, i32 0
  %5 = load i8, i8* %4, align 1
  %6 = icmp slt i8 %5, 0
  br i1 %6, label %7, label %10

7:                                                ; preds = %1
  %8 = getelementptr inbounds %"class.std::__1::basic_string", %"class.std::__1::basic_string"* %2, i64 0, i32 0, i32 0, i32 0, i32 0, i32 0, i32 0
  %9 = load i8*, i8** %8, align 8
  tail call void @_ZdlPv(i8* %9) #14
  br label %10

10:                                               ; preds = %1, %7
  ret void
}

; Function Attrs: nounwind ssp uwtable
define hidden %"class.google_apis::AboutResource"* @_ZN11google_apis13AboutResource10CreateFromERKN4base5ValueE(%"class.base::Value"* dereferenceable(32)) local_unnamed_addr #0 align 2 {
  %2 = alloca %"class.std::__1::basic_string", align 8
  %3 = alloca %"class.logging::LogMessage", align 8
  %4 = tail call i8* @_Znwm(i64 48) #14
  tail call void @llvm.memset.p0i8.i64(i8* nonnull align 8 %4, i8 0, i64 48, i1 false) #15
  %5 = bitcast %"class.std::__1::basic_string"* %2 to i8*
  call void @llvm.lifetime.start.p0i8(i64 24, i8* nonnull %5) #15
  %6 = bitcast %"class.std::__1::basic_string"* %2 to %"struct.std::__1::basic_string<char, std::__1::char_traits<char>, std::__1::allocator<char> >::__short"*
  %7 = getelementptr inbounds %"struct.std::__1::basic_string<char, std::__1::char_traits<char>, std::__1::allocator<char> >::__short", %"struct.std::__1::basic_string<char, std::__1::char_traits<char>, std::__1::allocator<char> >::__short"* %6, i64 0, i32 1, i32 0
  store i8 11, i8* %7, align 1
  call void @llvm.memcpy.p0i8.p0i8.i64(i8* nonnull align 8 %5, i8* align 1 getelementptr inbounds ([12 x i8], [12 x i8]* @_ZN11google_apis12_GLOBAL__N_110kAboutKindE, i64 0, i64 0), i64 11, i1 false) #15
  %8 = getelementptr inbounds i8, i8* %5, i64 11
  store i8 0, i8* %8, align 1
  %9 = call fastcc zeroext i1 @_ZN11google_apis12_GLOBAL__N_122IsResourceKindExpectedERKN4base5ValueERKNSt3__112basic_stringIcNS5_11char_traitsIcEENS5_9allocatorIcEEEE(%"class.base::Value"* dereferenceable(32) %0, %"class.std::__1::basic_string"* nonnull dereferenceable(24) %2)
  br i1 %9, label %10, label %14

10:                                               ; preds = %1
  %11 = ptrtoint i8* %4 to i64
  %12 = bitcast i8* %4 to %"class.google_apis::AboutResource"*
  %13 = tail call zeroext i1 @_ZN11google_apis13AboutResource5ParseERKN4base5ValueE(%"class.google_apis::AboutResource"* nonnull %12, %"class.base::Value"* dereferenceable(32) %0)
  call void @llvm.lifetime.end.p0i8(i64 24, i8* nonnull %5) #15
  br i1 %13, label %31, label %15

14:                                               ; preds = %1
  call void @llvm.lifetime.end.p0i8(i64 24, i8* nonnull %5) #15
  br label %15

15:                                               ; preds = %10, %14
  %16 = tail call zeroext i1 @_ZN7logging22ShouldCreateLogMessageEi(i32 2) #15
  br i1 %16, label %17, label %22

17:                                               ; preds = %15
  %18 = bitcast %"class.logging::LogMessage"* %3 to i8*
  call void @llvm.lifetime.start.p0i8(i64 304, i8* nonnull %18) #15
  call void @_ZN7logging10LogMessageC1EPKcii(%"class.logging::LogMessage"* nonnull %3, i8* getelementptr inbounds ([44 x i8], [44 x i8]* @.str, i64 0, i64 0), i32 246, i32 2) #15
  %19 = getelementptr inbounds %"class.logging::LogMessage", %"class.logging::LogMessage"* %3, i64 0, i32 2
  %20 = bitcast %"class.std::__1::basic_ostringstream"* %19 to %"class.std::__1::basic_ostream"*
  %21 = call dereferenceable(160) %"class.std::__1::basic_ostream"* @_ZNSt3__124__put_character_sequenceIcNS_11char_traitsIcEEEERNS_13basic_ostreamIT_T0_EES7_PKS4_m(%"class.std::__1::basic_ostream"* dereferenceable(160) %20, i8* getelementptr inbounds ([47 x i8], [47 x i8]* @.str.1, i64 0, i64 0), i64 46) #15
  call void @_ZN7logging10LogMessageD1Ev(%"class.logging::LogMessage"* nonnull %3) #15
  call void @llvm.lifetime.end.p0i8(i64 304, i8* nonnull %18) #15
  br label %22

22:                                               ; preds = %15, %17
  %23 = getelementptr inbounds i8, i8* %4, i64 47
  %24 = load i8, i8* %23, align 1
  %25 = icmp slt i8 %24, 0
  br i1 %25, label %26, label %30

26:                                               ; preds = %22
  %27 = getelementptr inbounds i8, i8* %4, i64 24
  %28 = bitcast i8* %27 to i8**
  %29 = load i8*, i8** %28, align 8
  call void @_ZdlPv(i8* %29) #14
  br label %30

30:                                               ; preds = %26, %22
  call void @_ZdlPv(i8* nonnull %4) #14
  br label %31

31:                                               ; preds = %10, %30
  %32 = phi i64 [ 0, %30 ], [ %11, %10 ]
  %33 = inttoptr i64 %32 to %"class.google_apis::AboutResource"*
  ret %"class.google_apis::AboutResource"* %33
}

; Function Attrs: argmemonly nounwind
declare void @llvm.lifetime.start.p0i8(i64 immarg, i8* nocapture) #1

; Function Attrs: nobuiltin nofree
declare noalias nonnull i8* @_Znwm(i64) local_unnamed_addr #2

; Function Attrs: nounwind ssp uwtable
define internal fastcc zeroext i1 @_ZN11google_apis12_GLOBAL__N_122IsResourceKindExpectedERKN4base5ValueERKNSt3__112basic_stringIcNS5_11char_traitsIcEENS5_9allocatorIcEEEE(%"class.base::Value"* dereferenceable(32), %"class.std::__1::basic_string"* nocapture readonly dereferenceable(24)) unnamed_addr #0 {
  %3 = alloca %"class.base::DictionaryValue"*, align 8
  %4 = alloca %"class.std::__1::basic_string", align 8
  %5 = bitcast %"class.base::DictionaryValue"** %3 to i8*
  call void @llvm.lifetime.start.p0i8(i64 8, i8* nonnull %5) #15
  store %"class.base::DictionaryValue"* null, %"class.base::DictionaryValue"** %3, align 8
  %6 = bitcast %"class.std::__1::basic_string"* %4 to i8*
  call void @llvm.lifetime.start.p0i8(i64 24, i8* nonnull %6) #15
  %7 = getelementptr inbounds %"class.std::__1::basic_string", %"class.std::__1::basic_string"* %4, i64 0, i32 0, i32 0, i32 0, i32 0, i32 0, i32 0
  %8 = getelementptr inbounds %"class.std::__1::basic_string", %"class.std::__1::basic_string"* %4, i64 0, i32 0, i32 0, i32 0, i32 0, i32 0, i32 1
  call void @llvm.memset.p0i8.i64(i8* nonnull align 8 %6, i8 0, i64 24, i1 false) #15
  %9 = call zeroext i1 @_ZNK4base5Value15GetAsDictionaryEPPKNS_15DictionaryValueE(%"class.base::Value"* %0, %"class.base::DictionaryValue"** nonnull %3) #15
  br i1 %9, label %10, label %69

10:                                               ; preds = %2
  %11 = load %"class.base::DictionaryValue"*, %"class.base::DictionaryValue"** %3, align 8
  %12 = call zeroext i1 @_ZNK4base15DictionaryValue6HasKeyENS_16BasicStringPieceIcNSt3__111char_traitsIcEEEE(%"class.base::DictionaryValue"* %11, i8* getelementptr inbounds ([5 x i8], [5 x i8]* @_ZN11google_apis12_GLOBAL__N_15kKindE, i64 0, i64 0), i64 4) #15
  br i1 %12, label %13, label %69

13:                                               ; preds = %10
  %14 = load %"class.base::DictionaryValue"*, %"class.base::DictionaryValue"** %3, align 8
  %15 = call zeroext i1 @_ZNK4base15DictionaryValue9GetStringENS_16BasicStringPieceIcNSt3__111char_traitsIcEEEEPNS2_12basic_stringIcS4_NS2_9allocatorIcEEEE(%"class.base::DictionaryValue"* %14, i8* getelementptr inbounds ([5 x i8], [5 x i8]* @_ZN11google_apis12_GLOBAL__N_15kKindE, i64 0, i64 0), i64 4, %"class.std::__1::basic_string"* nonnull %4) #15
  %16 = bitcast %"class.std::__1::basic_string"* %4 to %"struct.std::__1::basic_string<char, std::__1::char_traits<char>, std::__1::allocator<char> >::__short"*
  %17 = getelementptr inbounds %"struct.std::__1::basic_string<char, std::__1::char_traits<char>, std::__1::allocator<char> >::__short", %"struct.std::__1::basic_string<char, std::__1::char_traits<char>, std::__1::allocator<char> >::__short"* %16, i64 0, i32 1, i32 0
  %18 = load i8, i8* %17, align 1
  br i1 %15, label %19, label %63

19:                                               ; preds = %13
  %20 = icmp slt i8 %18, 0
  %21 = load i64, i64* %8, align 8
  %22 = zext i8 %18 to i64
  %23 = select i1 %20, i64 %21, i64 %22
  %24 = bitcast %"class.std::__1::basic_string"* %1 to %"struct.std::__1::basic_string<char, std::__1::char_traits<char>, std::__1::allocator<char> >::__short"*
  %25 = getelementptr inbounds %"struct.std::__1::basic_string<char, std::__1::char_traits<char>, std::__1::allocator<char> >::__short", %"struct.std::__1::basic_string<char, std::__1::char_traits<char>, std::__1::allocator<char> >::__short"* %24, i64 0, i32 1, i32 0
  %26 = load i8, i8* %25, align 1
  %27 = icmp slt i8 %26, 0
  %28 = getelementptr inbounds %"class.std::__1::basic_string", %"class.std::__1::basic_string"* %1, i64 0, i32 0, i32 0, i32 0, i32 0, i32 0, i32 1
  %29 = load i64, i64* %28, align 8
  %30 = zext i8 %26 to i64
  %31 = select i1 %27, i64 %29, i64 %30
  %32 = icmp eq i64 %23, %31
  br i1 %32, label %33, label %63

33:                                               ; preds = %19
  %34 = load i8*, i8** %7, align 8
  %35 = select i1 %20, i8* %34, i8* %6
  %36 = getelementptr inbounds %"class.std::__1::basic_string", %"class.std::__1::basic_string"* %1, i64 0, i32 0, i32 0, i32 0, i32 0, i32 0, i32 0
  %37 = load i8*, i8** %36, align 8
  %38 = bitcast %"class.std::__1::basic_string"* %1 to i8*
  %39 = select i1 %27, i8* %37, i8* %38
  %40 = icmp eq i64 %23, 0
  br i1 %20, label %47, label %41

41:                                               ; preds = %33
  br i1 %40, label %69, label %42

42:                                               ; preds = %41
  %43 = ptrtoint i8* %34 to i64
  %44 = trunc i64 %43 to i8
  %45 = load i8, i8* %39, align 1
  %46 = icmp eq i8 %45, %44
  br i1 %46, label %51, label %63

47:                                               ; preds = %33
  br i1 %40, label %66, label %48

48:                                               ; preds = %47
  %49 = call i32 @bcmp(i8* %35, i8* %39, i64 %23) #15
  %50 = icmp eq i32 %49, 0
  br label %66

51:                                               ; preds = %42, %58
  %52 = phi i64 [ %55, %58 ], [ %22, %42 ]
  %53 = phi i8* [ %56, %58 ], [ %6, %42 ]
  %54 = phi i8* [ %59, %58 ], [ %39, %42 ]
  %55 = add i64 %52, -1
  %56 = getelementptr inbounds i8, i8* %53, i64 1
  %57 = icmp eq i64 %55, 0
  br i1 %57, label %63, label %58

58:                                               ; preds = %51
  %59 = getelementptr inbounds i8, i8* %54, i64 1
  %60 = load i8, i8* %56, align 1
  %61 = load i8, i8* %59, align 1
  %62 = icmp eq i8 %60, %61
  br i1 %62, label %51, label %63

63:                                               ; preds = %58, %51, %42, %13, %19
  %64 = phi i1 [ false, %19 ], [ false, %13 ], [ false, %42 ], [ true, %51 ], [ false, %58 ]
  %65 = icmp slt i8 %18, 0
  br i1 %65, label %66, label %69

66:                                               ; preds = %47, %48, %63
  %67 = phi i1 [ %64, %63 ], [ true, %47 ], [ %50, %48 ]
  %68 = load i8*, i8** %7, align 8
  call void @_ZdlPv(i8* %68) #14
  br label %69

69:                                               ; preds = %41, %2, %10, %63, %66
  %70 = phi i1 [ %64, %63 ], [ %67, %66 ], [ true, %41 ], [ false, %2 ], [ false, %10 ]
  call void @llvm.lifetime.end.p0i8(i64 24, i8* nonnull %6) #15
  call void @llvm.lifetime.end.p0i8(i64 8, i8* nonnull %5) #15
  ret i1 %70
}

; Function Attrs: nounwind ssp uwtable
define hidden zeroext i1 @_ZN11google_apis13AboutResource5ParseERKN4base5ValueE(%"class.google_apis::AboutResource"*, %"class.base::Value"* dereferenceable(32)) local_unnamed_addr #0 align 2 {
  %3 = alloca %"class.base::JSONValueConverter", align 8
  %4 = alloca %"class.logging::LogMessage", align 8
  %5 = bitcast %"class.base::JSONValueConverter"* %3 to i8*
  call void @llvm.lifetime.start.p0i8(i64 24, i8* nonnull %5) #15
  %6 = getelementptr inbounds %"class.base::JSONValueConverter", %"class.base::JSONValueConverter"* %3, i64 0, i32 0, i32 0, i32 0
  %7 = getelementptr inbounds %"class.base::JSONValueConverter", %"class.base::JSONValueConverter"* %3, i64 0, i32 0, i32 0, i32 1
  call void @llvm.memset.p0i8.i64(i8* nonnull align 8 %5, i8 0, i64 24, i1 false) #15
  call void @_ZN11google_apis13AboutResource21RegisterJSONConverterEPN4base18JSONValueConverterIS0_EE(%"class.base::JSONValueConverter"* nonnull %3) #15
  %8 = getelementptr inbounds %"class.base::Value", %"class.base::Value"* %1, i64 0, i32 0, i32 0, i32 0, i32 0, i32 0, i32 0, i32 0, i32 1
  %9 = load i64, i64* %8, align 8
  %10 = trunc i64 %9 to i8
  %11 = icmp eq i8 %10, 6
  br i1 %11, label %12, label %53

12:                                               ; preds = %2
  %13 = bitcast %"class.std::__1::unique_ptr.33"** %7 to i64*
  %14 = load i64, i64* %13, align 8
  %15 = bitcast %"class.base::JSONValueConverter"* %3 to i64*
  %16 = load i64, i64* %15, align 8
  %17 = icmp eq i64 %14, %16
  %18 = inttoptr i64 %16 to %"class.std::__1::unique_ptr.33"*
  br i1 %17, label %64, label %19

19:                                               ; preds = %12, %46
  %20 = phi i64 [ %49, %46 ], [ %16, %12 ]
  %21 = phi i64 [ %47, %46 ], [ 0, %12 ]
  %22 = inttoptr i64 %20 to %"class.std::__1::unique_ptr.33"*
  %23 = getelementptr inbounds %"class.std::__1::unique_ptr.33", %"class.std::__1::unique_ptr.33"* %22, i64 %21, i32 0, i32 0, i32 0
  %24 = load %"class.base::internal::FieldConverterBase.254"*, %"class.base::internal::FieldConverterBase.254"** %23, align 8
  %25 = getelementptr inbounds %"class.base::internal::FieldConverterBase.254", %"class.base::internal::FieldConverterBase.254"* %24, i64 0, i32 1
  %26 = bitcast %"class.std::__1::basic_string"* %25 to %"struct.std::__1::basic_string<char, std::__1::char_traits<char>, std::__1::allocator<char> >::__short"*
  %27 = getelementptr inbounds %"struct.std::__1::basic_string<char, std::__1::char_traits<char>, std::__1::allocator<char> >::__short", %"struct.std::__1::basic_string<char, std::__1::char_traits<char>, std::__1::allocator<char> >::__short"* %26, i64 0, i32 1, i32 0
  %28 = load i8, i8* %27, align 1
  %29 = icmp slt i8 %28, 0
  %30 = getelementptr inbounds %"class.std::__1::basic_string", %"class.std::__1::basic_string"* %25, i64 0, i32 0, i32 0, i32 0, i32 0, i32 0, i32 0
  %31 = load i8*, i8** %30, align 8
  %32 = bitcast %"class.std::__1::basic_string"* %25 to i8*
  %33 = select i1 %29, i8* %31, i8* %32
  %34 = getelementptr inbounds %"class.base::internal::FieldConverterBase.254", %"class.base::internal::FieldConverterBase.254"* %24, i64 0, i32 1, i32 0, i32 0, i32 0, i32 0, i32 0, i32 1
  %35 = load i64, i64* %34, align 8
  %36 = zext i8 %28 to i64
  %37 = select i1 %29, i64 %35, i64 %36
  %38 = call %"class.base::Value"* @_ZNK4base5Value8FindPathENS_16BasicStringPieceIcNSt3__111char_traitsIcEEEE(%"class.base::Value"* %1, i8* %33, i64 %37) #15
  %39 = icmp eq %"class.base::Value"* %38, null
  br i1 %39, label %46, label %40

40:                                               ; preds = %19
  %41 = bitcast %"class.base::internal::FieldConverterBase.254"* %24 to i1 (%"class.base::internal::FieldConverterBase.254"*, %"class.base::Value"*, %"class.google_apis::AboutResource"*)***
  %42 = load i1 (%"class.base::internal::FieldConverterBase.254"*, %"class.base::Value"*, %"class.google_apis::AboutResource"*)**, i1 (%"class.base::internal::FieldConverterBase.254"*, %"class.base::Value"*, %"class.google_apis::AboutResource"*)*** %41, align 8
  %43 = getelementptr inbounds i1 (%"class.base::internal::FieldConverterBase.254"*, %"class.base::Value"*, %"class.google_apis::AboutResource"*)*, i1 (%"class.base::internal::FieldConverterBase.254"*, %"class.base::Value"*, %"class.google_apis::AboutResource"*)** %42, i64 2
  %44 = load i1 (%"class.base::internal::FieldConverterBase.254"*, %"class.base::Value"*, %"class.google_apis::AboutResource"*)*, i1 (%"class.base::internal::FieldConverterBase.254"*, %"class.base::Value"*, %"class.google_apis::AboutResource"*)** %43, align 8
  %45 = call zeroext i1 %44(%"class.base::internal::FieldConverterBase.254"* %24, %"class.base::Value"* nonnull dereferenceable(32) %38, %"class.google_apis::AboutResource"* %0) #15
  br i1 %45, label %46, label %53

46:                                               ; preds = %40, %19
  %47 = add nuw i64 %21, 1
  %48 = load i64, i64* %13, align 8
  %49 = load i64, i64* %15, align 8
  %50 = sub i64 %48, %49
  %51 = ashr exact i64 %50, 3
  %52 = icmp ult i64 %47, %51
  br i1 %52, label %19, label %62

53:                                               ; preds = %40, %2
  %54 = call zeroext i1 @_ZN7logging22ShouldCreateLogMessageEi(i32 2) #15
  br i1 %54, label %55, label %60

55:                                               ; preds = %53
  %56 = bitcast %"class.logging::LogMessage"* %4 to i8*
  call void @llvm.lifetime.start.p0i8(i64 304, i8* nonnull %56) #15
  call void @_ZN7logging10LogMessageC1EPKcii(%"class.logging::LogMessage"* nonnull %4, i8* getelementptr inbounds ([44 x i8], [44 x i8]* @.str, i64 0, i64 0), i32 271, i32 2) #15
  %57 = getelementptr inbounds %"class.logging::LogMessage", %"class.logging::LogMessage"* %4, i64 0, i32 2
  %58 = bitcast %"class.std::__1::basic_ostringstream"* %57 to %"class.std::__1::basic_ostream"*
  %59 = call dereferenceable(160) %"class.std::__1::basic_ostream"* @_ZNSt3__124__put_character_sequenceIcNS_11char_traitsIcEEEERNS_13basic_ostreamIT_T0_EES7_PKS4_m(%"class.std::__1::basic_ostream"* dereferenceable(160) %58, i8* getelementptr inbounds ([46 x i8], [46 x i8]* @.str.2, i64 0, i64 0), i64 45) #15
  call void @_ZN7logging10LogMessageD1Ev(%"class.logging::LogMessage"* nonnull %4) #15
  call void @llvm.lifetime.end.p0i8(i64 304, i8* nonnull %56) #15
  br label %60

60:                                               ; preds = %53, %55
  %61 = load %"class.std::__1::unique_ptr.33"*, %"class.std::__1::unique_ptr.33"** %6, align 8
  br label %64

62:                                               ; preds = %46
  %63 = inttoptr i64 %49 to %"class.std::__1::unique_ptr.33"*
  br label %64

64:                                               ; preds = %62, %60, %12
  %65 = phi %"class.std::__1::unique_ptr.33"* [ %61, %60 ], [ %18, %12 ], [ %63, %62 ]
  %66 = phi i1 [ false, %60 ], [ true, %12 ], [ true, %62 ]
  %67 = icmp eq %"class.std::__1::unique_ptr.33"* %65, null
  br i1 %67, label %90, label %68

68:                                               ; preds = %64
  %69 = bitcast %"class.std::__1::unique_ptr.33"* %65 to i8*
  %70 = load %"class.std::__1::unique_ptr.33"*, %"class.std::__1::unique_ptr.33"** %7, align 8
  %71 = icmp eq %"class.std::__1::unique_ptr.33"* %70, %65
  br i1 %71, label %88, label %72

72:                                               ; preds = %68, %83
  %73 = phi %"class.std::__1::unique_ptr.33"* [ %74, %83 ], [ %70, %68 ]
  %74 = getelementptr inbounds %"class.std::__1::unique_ptr.33", %"class.std::__1::unique_ptr.33"* %73, i64 -1
  %75 = getelementptr inbounds %"class.std::__1::unique_ptr.33", %"class.std::__1::unique_ptr.33"* %74, i64 0, i32 0, i32 0, i32 0
  %76 = load %"class.base::internal::FieldConverterBase.254"*, %"class.base::internal::FieldConverterBase.254"** %75, align 8
  store %"class.base::internal::FieldConverterBase.254"* null, %"class.base::internal::FieldConverterBase.254"** %75, align 8
  %77 = icmp eq %"class.base::internal::FieldConverterBase.254"* %76, null
  br i1 %77, label %83, label %78

78:                                               ; preds = %72
  %79 = bitcast %"class.base::internal::FieldConverterBase.254"* %76 to void (%"class.base::internal::FieldConverterBase.254"*)***
  %80 = load void (%"class.base::internal::FieldConverterBase.254"*)**, void (%"class.base::internal::FieldConverterBase.254"*)*** %79, align 8
  %81 = getelementptr inbounds void (%"class.base::internal::FieldConverterBase.254"*)*, void (%"class.base::internal::FieldConverterBase.254"*)** %80, i64 1
  %82 = load void (%"class.base::internal::FieldConverterBase.254"*)*, void (%"class.base::internal::FieldConverterBase.254"*)** %81, align 8
  call void %82(%"class.base::internal::FieldConverterBase.254"* nonnull %76) #15
  br label %83

83:                                               ; preds = %78, %72
  %84 = icmp eq %"class.std::__1::unique_ptr.33"* %74, %65
  br i1 %84, label %85, label %72

85:                                               ; preds = %83
  %86 = bitcast %"class.base::JSONValueConverter"* %3 to i8**
  %87 = load i8*, i8** %86, align 8
  br label %88

88:                                               ; preds = %85, %68
  %89 = phi i8* [ %87, %85 ], [ %69, %68 ]
  store %"class.std::__1::unique_ptr.33"* %65, %"class.std::__1::unique_ptr.33"** %7, align 8
  call void @_ZdlPv(i8* %89) #14
  br label %90

90:                                               ; preds = %64, %88
  call void @llvm.lifetime.end.p0i8(i64 24, i8* nonnull %5) #15
  ret i1 %66
}

; Function Attrs: argmemonly nounwind
declare void @llvm.lifetime.end.p0i8(i64 immarg, i8* nocapture) #1

declare zeroext i1 @_ZN7logging22ShouldCreateLogMessageEi(i32) local_unnamed_addr #3

declare void @_ZN7logging10LogMessageC1EPKcii(%"class.logging::LogMessage"*, i8*, i32, i32) unnamed_addr #3

; Function Attrs: nounwind
declare void @_ZN7logging10LogMessageD1Ev(%"class.logging::LogMessage"*) unnamed_addr #4

; Function Attrs: nounwind ssp uwtable
define hidden void @_ZN11google_apis13AboutResource21RegisterJSONConverterEPN4base18JSONValueConverterIS0_EE(%"class.base::JSONValueConverter"*) local_unnamed_addr #0 align 2 {
  %2 = alloca %"class.std::__1::basic_string", align 8
  %3 = alloca %"class.std::__1::basic_string", align 8
  %4 = alloca %"class.std::__1::basic_string", align 8
  %5 = alloca %"class.std::__1::basic_string", align 8
  %6 = bitcast %"class.std::__1::basic_string"* %2 to i8*
  call void @llvm.lifetime.start.p0i8(i64 24, i8* nonnull %6) #15
  %7 = bitcast %"class.std::__1::basic_string"* %2 to %"struct.std::__1::basic_string<char, std::__1::char_traits<char>, std::__1::allocator<char> >::__short"*
  %8 = getelementptr inbounds %"struct.std::__1::basic_string<char, std::__1::char_traits<char>, std::__1::allocator<char> >::__short", %"struct.std::__1::basic_string<char, std::__1::char_traits<char>, std::__1::allocator<char> >::__short"* %7, i64 0, i32 1, i32 0
  store i8 15, i8* %8, align 1
  call void @llvm.memcpy.p0i8.p0i8.i64(i8* nonnull align 8 %6, i8* align 16 getelementptr inbounds ([16 x i8], [16 x i8]* @_ZN11google_apis12_GLOBAL__N_116kLargestChangeIdE, i64 0, i64 0), i64 15, i1 false) #15
  %9 = getelementptr inbounds i8, i8* %6, i64 15
  store i8 0, i8* %9, align 1
  call void @_ZN4base18JSONValueConverterIN11google_apis13AboutResourceEE19RegisterCustomFieldIlEEvRKNSt3__112basic_stringIcNS5_11char_traitsIcEENS5_9allocatorIcEEEEMS2_T_PFbNS_16BasicStringPieceIcS8_EEPSE_E(%"class.base::JSONValueConverter"* %0, %"class.std::__1::basic_string"* nonnull dereferenceable(24) %2, i64 0, i1 (i8*, i64, i64*)* nonnull @_ZN4base13StringToInt64ENS_16BasicStringPieceIcNSt3__111char_traitsIcEEEEPl)
  %10 = load i8, i8* %8, align 1
  %11 = icmp slt i8 %10, 0
  br i1 %11, label %12, label %15

12:                                               ; preds = %1
  %13 = getelementptr inbounds %"class.std::__1::basic_string", %"class.std::__1::basic_string"* %2, i64 0, i32 0, i32 0, i32 0, i32 0, i32 0, i32 0
  %14 = load i8*, i8** %13, align 8
  call void @_ZdlPv(i8* %14) #14
  br label %15

15:                                               ; preds = %1, %12
  call void @llvm.lifetime.end.p0i8(i64 24, i8* nonnull %6) #15
  %16 = bitcast %"class.std::__1::basic_string"* %3 to i8*
  call void @llvm.lifetime.start.p0i8(i64 24, i8* nonnull %16) #15
  %17 = bitcast %"class.std::__1::basic_string"* %3 to %"struct.std::__1::basic_string<char, std::__1::char_traits<char>, std::__1::allocator<char> >::__short"*
  %18 = getelementptr inbounds %"struct.std::__1::basic_string<char, std::__1::char_traits<char>, std::__1::allocator<char> >::__short", %"struct.std::__1::basic_string<char, std::__1::char_traits<char>, std::__1::allocator<char> >::__short"* %17, i64 0, i32 1, i32 0
  store i8 15, i8* %18, align 1
  call void @llvm.memcpy.p0i8.p0i8.i64(i8* nonnull align 8 %16, i8* align 16 getelementptr inbounds ([16 x i8], [16 x i8]* @_ZN11google_apis12_GLOBAL__N_116kQuotaBytesTotalE, i64 0, i64 0), i64 15, i1 false) #15
  %19 = getelementptr inbounds i8, i8* %16, i64 15
  store i8 0, i8* %19, align 1
  call void @_ZN4base18JSONValueConverterIN11google_apis13AboutResourceEE19RegisterCustomFieldIlEEvRKNSt3__112basic_stringIcNS5_11char_traitsIcEENS5_9allocatorIcEEEEMS2_T_PFbNS_16BasicStringPieceIcS8_EEPSE_E(%"class.base::JSONValueConverter"* %0, %"class.std::__1::basic_string"* nonnull dereferenceable(24) %3, i64 8, i1 (i8*, i64, i64*)* nonnull @_ZN4base13StringToInt64ENS_16BasicStringPieceIcNSt3__111char_traitsIcEEEEPl)
  %20 = load i8, i8* %18, align 1
  %21 = icmp slt i8 %20, 0
  br i1 %21, label %22, label %25

22:                                               ; preds = %15
  %23 = getelementptr inbounds %"class.std::__1::basic_string", %"class.std::__1::basic_string"* %3, i64 0, i32 0, i32 0, i32 0, i32 0, i32 0, i32 0
  %24 = load i8*, i8** %23, align 8
  call void @_ZdlPv(i8* %24) #14
  br label %25

25:                                               ; preds = %15, %22
  call void @llvm.lifetime.end.p0i8(i64 24, i8* nonnull %16) #15
  %26 = bitcast %"class.std::__1::basic_string"* %4 to i8*
  call void @llvm.lifetime.start.p0i8(i64 24, i8* nonnull %26) #15
  %27 = call i8* @_Znwm(i64 32) #14
  %28 = getelementptr inbounds %"class.std::__1::basic_string", %"class.std::__1::basic_string"* %4, i64 0, i32 0, i32 0, i32 0, i32 0, i32 0, i32 0
  store i8* %27, i8** %28, align 8
  %29 = getelementptr inbounds %"class.std::__1::basic_string", %"class.std::__1::basic_string"* %4, i64 0, i32 0, i32 0, i32 0, i32 0, i32 0, i32 1
  %30 = bitcast i64* %29 to <2 x i64>*
  store <2 x i64> <i64 23, i64 -9223372036854775776>, <2 x i64>* %30, align 8
  call void @llvm.memcpy.p0i8.p0i8.i64(i8* nonnull align 1 %27, i8* align 16 getelementptr inbounds ([24 x i8], [24 x i8]* @_ZN11google_apis12_GLOBAL__N_124kQuotaBytesUsedAggregateE, i64 0, i64 0), i64 23, i1 false) #15
  %31 = getelementptr inbounds i8, i8* %27, i64 23
  store i8 0, i8* %31, align 1
  call void @_ZN4base18JSONValueConverterIN11google_apis13AboutResourceEE19RegisterCustomFieldIlEEvRKNSt3__112basic_stringIcNS5_11char_traitsIcEENS5_9allocatorIcEEEEMS2_T_PFbNS_16BasicStringPieceIcS8_EEPSE_E(%"class.base::JSONValueConverter"* %0, %"class.std::__1::basic_string"* nonnull dereferenceable(24) %4, i64 16, i1 (i8*, i64, i64*)* nonnull @_ZN4base13StringToInt64ENS_16BasicStringPieceIcNSt3__111char_traitsIcEEEEPl)
  %32 = bitcast %"class.std::__1::basic_string"* %4 to %"struct.std::__1::basic_string<char, std::__1::char_traits<char>, std::__1::allocator<char> >::__short"*
  %33 = getelementptr inbounds %"struct.std::__1::basic_string<char, std::__1::char_traits<char>, std::__1::allocator<char> >::__short", %"struct.std::__1::basic_string<char, std::__1::char_traits<char>, std::__1::allocator<char> >::__short"* %32, i64 0, i32 1, i32 0
  %34 = load i8, i8* %33, align 1
  %35 = icmp slt i8 %34, 0
  br i1 %35, label %36, label %38

36:                                               ; preds = %25
  %37 = load i8*, i8** %28, align 8
  call void @_ZdlPv(i8* %37) #14
  br label %38

38:                                               ; preds = %25, %36
  call void @llvm.lifetime.end.p0i8(i64 24, i8* nonnull %26) #15
  %39 = bitcast %"class.std::__1::basic_string"* %5 to i8*
  call void @llvm.lifetime.start.p0i8(i64 24, i8* nonnull %39) #15
  %40 = bitcast %"class.std::__1::basic_string"* %5 to %"struct.std::__1::basic_string<char, std::__1::char_traits<char>, std::__1::allocator<char> >::__short"*
  %41 = getelementptr inbounds %"struct.std::__1::basic_string<char, std::__1::char_traits<char>, std::__1::allocator<char> >::__short", %"struct.std::__1::basic_string<char, std::__1::char_traits<char>, std::__1::allocator<char> >::__short"* %40, i64 0, i32 1, i32 0
  store i8 12, i8* %41, align 1
  call void @llvm.memcpy.p0i8.p0i8.i64(i8* nonnull align 8 %39, i8* align 1 getelementptr inbounds ([13 x i8], [13 x i8]* @_ZN11google_apis12_GLOBAL__N_113kRootFolderIdE, i64 0, i64 0), i64 12, i1 false) #15
  %42 = getelementptr inbounds i8, i8* %39, i64 12
  store i8 0, i8* %42, align 4
  call void @_ZN4base18JSONValueConverterIN11google_apis13AboutResourceEE19RegisterStringFieldERKNSt3__112basic_stringIcNS4_11char_traitsIcEENS4_9allocatorIcEEEEMS2_SA_(%"class.base::JSONValueConverter"* %0, %"class.std::__1::basic_string"* nonnull dereferenceable(24) %5, i64 24)
  %43 = load i8, i8* %41, align 1
  %44 = icmp slt i8 %43, 0
  br i1 %44, label %45, label %48

45:                                               ; preds = %38
  %46 = getelementptr inbounds %"class.std::__1::basic_string", %"class.std::__1::basic_string"* %5, i64 0, i32 0, i32 0, i32 0, i32 0, i32 0, i32 0
  %47 = load i8*, i8** %46, align 8
  call void @_ZdlPv(i8* %47) #14
  br label %48

48:                                               ; preds = %38, %45
  call void @llvm.lifetime.end.p0i8(i64 24, i8* nonnull %39) #15
  ret void
}

; Function Attrs: nounwind ssp uwtable
define linkonce_odr hidden void @_ZN4base18JSONValueConverterIN11google_apis13AboutResourceEE19RegisterCustomFieldIlEEvRKNSt3__112basic_stringIcNS5_11char_traitsIcEENS5_9allocatorIcEEEEMS2_T_PFbNS_16BasicStringPieceIcS8_EEPSE_E(%"class.base::JSONValueConverter"*, %"class.std::__1::basic_string"* dereferenceable(24), i64, i1 (i8*, i64, i64*)*) local_unnamed_addr #0 comdat align 2 {
  %5 = alloca %"class.std::__1::unique_ptr.33", align 8
  %6 = getelementptr inbounds %"class.base::JSONValueConverter", %"class.base::JSONValueConverter"* %0, i64 0, i32 0
  %7 = bitcast %"class.std::__1::unique_ptr.33"* %5 to i8*
  call void @llvm.lifetime.start.p0i8(i64 8, i8* nonnull %7) #15
  %8 = tail call i8* @_Znwm(i64 16) #14
  %9 = bitcast i8* %8 to i32 (...)***
  store i32 (...)** bitcast (i8** getelementptr inbounds ({ [5 x i8*] }, { [5 x i8*] }* @_ZTVN4base8internal20CustomFieldConverterIlEE, i64 0, inrange i32 0, i64 2) to i32 (...)**), i32 (...)*** %9, align 8
  %10 = getelementptr inbounds i8, i8* %8, i64 8
  %11 = bitcast i8* %10 to i1 (i8*, i64, i64*)**
  store i1 (i8*, i64, i64*)* %3, i1 (i8*, i64, i64*)** %11, align 8
  %12 = ptrtoint i8* %8 to i64
  %13 = tail call i8* @_Znwm(i64 48) #14
  %14 = bitcast i8* %13 to i32 (...)***
  store i32 (...)** bitcast (i8** getelementptr inbounds ({ [5 x i8*] }, { [5 x i8*] }* @_ZTVN4base8internal18FieldConverterBaseIN11google_apis13AboutResourceEEE, i64 0, inrange i32 0, i64 2) to i32 (...)**), i32 (...)*** %14, align 8
  %15 = getelementptr inbounds i8, i8* %13, i64 8
  %16 = bitcast %"class.std::__1::basic_string"* %1 to %"struct.std::__1::basic_string<char, std::__1::char_traits<char>, std::__1::allocator<char> >::__short"*
  %17 = getelementptr inbounds %"struct.std::__1::basic_string<char, std::__1::char_traits<char>, std::__1::allocator<char> >::__short", %"struct.std::__1::basic_string<char, std::__1::char_traits<char>, std::__1::allocator<char> >::__short"* %16, i64 0, i32 1, i32 0
  %18 = load i8, i8* %17, align 1
  %19 = icmp slt i8 %18, 0
  br i1 %19, label %22, label %20

20:                                               ; preds = %4
  %21 = bitcast %"class.std::__1::basic_string"* %1 to i8*
  tail call void @llvm.memcpy.p0i8.p0i8.i64(i8* align 8 %15, i8* align 8 %21, i64 24, i1 false) #15
  br label %28

22:                                               ; preds = %4
  %23 = bitcast i8* %15 to %"class.std::__1::basic_string"*
  %24 = getelementptr inbounds %"class.std::__1::basic_string", %"class.std::__1::basic_string"* %1, i64 0, i32 0, i32 0, i32 0, i32 0, i32 0, i32 0
  %25 = load i8*, i8** %24, align 8
  %26 = getelementptr inbounds %"class.std::__1::basic_string", %"class.std::__1::basic_string"* %1, i64 0, i32 0, i32 0, i32 0, i32 0, i32 0, i32 1
  %27 = load i64, i64* %26, align 8
  tail call void @_ZNSt3__112basic_stringIcNS_11char_traitsIcEENS_9allocatorIcEEE25__init_copy_ctor_externalEPKcm(%"class.std::__1::basic_string"* %23, i8* %25, i64 %27) #15
  br label %28

28:                                               ; preds = %20, %22
  store i32 (...)** bitcast (i8** getelementptr inbounds ({ [5 x i8*] }, { [5 x i8*] }* @_ZTVN4base8internal14FieldConverterIN11google_apis13AboutResourceElEE, i64 0, inrange i32 0, i64 2) to i32 (...)**), i32 (...)*** %14, align 8
  %29 = getelementptr inbounds i8, i8* %13, i64 32
  %30 = bitcast i8* %29 to i64*
  store i64 %2, i64* %30, align 8
  %31 = getelementptr inbounds i8, i8* %13, i64 40
  %32 = bitcast i8* %31 to i64*
  store i64 %12, i64* %32, align 8
  %33 = ptrtoint i8* %13 to i64
  %34 = bitcast %"class.std::__1::unique_ptr.33"* %5 to i64*
  store i64 %33, i64* %34, align 8
  %35 = getelementptr inbounds %"class.base::JSONValueConverter", %"class.base::JSONValueConverter"* %0, i64 0, i32 0, i32 0, i32 1
  %36 = load %"class.std::__1::unique_ptr.33"*, %"class.std::__1::unique_ptr.33"** %35, align 8
  %37 = getelementptr inbounds %"class.base::JSONValueConverter", %"class.base::JSONValueConverter"* %0, i64 0, i32 0, i32 0, i32 2, i32 0, i32 0
  %38 = load %"class.std::__1::unique_ptr.33"*, %"class.std::__1::unique_ptr.33"** %37, align 8
  %39 = icmp ult %"class.std::__1::unique_ptr.33"* %36, %38
  br i1 %39, label %40, label %46

40:                                               ; preds = %28
  %41 = getelementptr inbounds %"class.std::__1::unique_ptr.33", %"class.std::__1::unique_ptr.33"* %5, i64 0, i32 0, i32 0, i32 0
  store %"class.base::internal::FieldConverterBase.254"* null, %"class.base::internal::FieldConverterBase.254"** %41, align 8
  %42 = bitcast %"class.std::__1::unique_ptr.33"* %36 to i64*
  store i64 %33, i64* %42, align 8
  %43 = getelementptr inbounds %"class.std::__1::unique_ptr.33", %"class.std::__1::unique_ptr.33"* %36, i64 1
  %44 = ptrtoint %"class.std::__1::unique_ptr.33"* %43 to i64
  %45 = bitcast %"class.std::__1::unique_ptr.33"** %35 to i64*
  store i64 %44, i64* %45, align 8
  br label %47

46:                                               ; preds = %28
  call void @_ZNSt3__16vectorINS_10unique_ptrIN4base8internal18FieldConverterBaseIN11google_apis13AboutResourceEEENS_14default_deleteIS7_EEEENS_9allocatorISA_EEE21__push_back_slow_pathISA_EEvOT_(%"class.std::__1::vector.31"* %6, %"class.std::__1::unique_ptr.33"* nonnull dereferenceable(8) %5) #15
  br label %47

47:                                               ; preds = %40, %46
  %48 = getelementptr inbounds %"class.std::__1::unique_ptr.33", %"class.std::__1::unique_ptr.33"* %5, i64 0, i32 0, i32 0, i32 0
  %49 = load %"class.base::internal::FieldConverterBase.254"*, %"class.base::internal::FieldConverterBase.254"** %48, align 8
  store %"class.base::internal::FieldConverterBase.254"* null, %"class.base::internal::FieldConverterBase.254"** %48, align 8
  %50 = icmp eq %"class.base::internal::FieldConverterBase.254"* %49, null
  br i1 %50, label %56, label %51

51:                                               ; preds = %47
  %52 = bitcast %"class.base::internal::FieldConverterBase.254"* %49 to void (%"class.base::internal::FieldConverterBase.254"*)***
  %53 = load void (%"class.base::internal::FieldConverterBase.254"*)**, void (%"class.base::internal::FieldConverterBase.254"*)*** %52, align 8
  %54 = getelementptr inbounds void (%"class.base::internal::FieldConverterBase.254"*)*, void (%"class.base::internal::FieldConverterBase.254"*)** %53, i64 1
  %55 = load void (%"class.base::internal::FieldConverterBase.254"*)*, void (%"class.base::internal::FieldConverterBase.254"*)** %54, align 8
  call void %55(%"class.base::internal::FieldConverterBase.254"* nonnull %49) #15
  br label %56

56:                                               ; preds = %51, %47
  call void @llvm.lifetime.end.p0i8(i64 8, i8* nonnull %7) #15
  ret void
}

declare zeroext i1 @_ZN4base13StringToInt64ENS_16BasicStringPieceIcNSt3__111char_traitsIcEEEEPl(i8*, i64, i64*) #3

; Function Attrs: nounwind ssp uwtable
define linkonce_odr hidden void @_ZN4base18JSONValueConverterIN11google_apis13AboutResourceEE19RegisterStringFieldERKNSt3__112basic_stringIcNS4_11char_traitsIcEENS4_9allocatorIcEEEEMS2_SA_(%"class.base::JSONValueConverter"*, %"class.std::__1::basic_string"* dereferenceable(24), i64) local_unnamed_addr #0 comdat align 2 {
  %4 = alloca %"class.std::__1::unique_ptr.33", align 8
  %5 = getelementptr inbounds %"class.base::JSONValueConverter", %"class.base::JSONValueConverter"* %0, i64 0, i32 0
  %6 = bitcast %"class.std::__1::unique_ptr.33"* %4 to i8*
  call void @llvm.lifetime.start.p0i8(i64 8, i8* nonnull %6) #15
  %7 = tail call i8* @_Znwm(i64 8) #14
  %8 = bitcast i8* %7 to i32 (...)***
  store i32 (...)** bitcast (i8** getelementptr inbounds ({ [5 x i8*] }, { [5 x i8*] }* @_ZTVN4base8internal19BasicValueConverterINSt3__112basic_stringIcNS2_11char_traitsIcEENS2_9allocatorIcEEEEEE, i64 0, inrange i32 0, i64 2) to i32 (...)**), i32 (...)*** %8, align 8
  %9 = ptrtoint i8* %7 to i64
  %10 = tail call i8* @_Znwm(i64 48) #14
  %11 = bitcast i8* %10 to i32 (...)***
  store i32 (...)** bitcast (i8** getelementptr inbounds ({ [5 x i8*] }, { [5 x i8*] }* @_ZTVN4base8internal18FieldConverterBaseIN11google_apis13AboutResourceEEE, i64 0, inrange i32 0, i64 2) to i32 (...)**), i32 (...)*** %11, align 8
  %12 = getelementptr inbounds i8, i8* %10, i64 8
  %13 = bitcast %"class.std::__1::basic_string"* %1 to %"struct.std::__1::basic_string<char, std::__1::char_traits<char>, std::__1::allocator<char> >::__short"*
  %14 = getelementptr inbounds %"struct.std::__1::basic_string<char, std::__1::char_traits<char>, std::__1::allocator<char> >::__short", %"struct.std::__1::basic_string<char, std::__1::char_traits<char>, std::__1::allocator<char> >::__short"* %13, i64 0, i32 1, i32 0
  %15 = load i8, i8* %14, align 1
  %16 = icmp slt i8 %15, 0
  br i1 %16, label %19, label %17

17:                                               ; preds = %3
  %18 = bitcast %"class.std::__1::basic_string"* %1 to i8*
  tail call void @llvm.memcpy.p0i8.p0i8.i64(i8* align 8 %12, i8* align 8 %18, i64 24, i1 false) #15
  br label %25

19:                                               ; preds = %3
  %20 = bitcast i8* %12 to %"class.std::__1::basic_string"*
  %21 = getelementptr inbounds %"class.std::__1::basic_string", %"class.std::__1::basic_string"* %1, i64 0, i32 0, i32 0, i32 0, i32 0, i32 0, i32 0
  %22 = load i8*, i8** %21, align 8
  %23 = getelementptr inbounds %"class.std::__1::basic_string", %"class.std::__1::basic_string"* %1, i64 0, i32 0, i32 0, i32 0, i32 0, i32 0, i32 1
  %24 = load i64, i64* %23, align 8
  tail call void @_ZNSt3__112basic_stringIcNS_11char_traitsIcEENS_9allocatorIcEEE25__init_copy_ctor_externalEPKcm(%"class.std::__1::basic_string"* %20, i8* %22, i64 %24) #15
  br label %25

25:                                               ; preds = %17, %19
  store i32 (...)** bitcast (i8** getelementptr inbounds ({ [5 x i8*] }, { [5 x i8*] }* @_ZTVN4base8internal14FieldConverterIN11google_apis13AboutResourceENSt3__112basic_stringIcNS4_11char_traitsIcEENS4_9allocatorIcEEEEEE, i64 0, inrange i32 0, i64 2) to i32 (...)**), i32 (...)*** %11, align 8
  %26 = getelementptr inbounds i8, i8* %10, i64 32
  %27 = bitcast i8* %26 to i64*
  store i64 %2, i64* %27, align 8
  %28 = getelementptr inbounds i8, i8* %10, i64 40
  %29 = bitcast i8* %28 to i64*
  store i64 %9, i64* %29, align 8
  %30 = ptrtoint i8* %10 to i64
  %31 = bitcast %"class.std::__1::unique_ptr.33"* %4 to i64*
  store i64 %30, i64* %31, align 8
  %32 = getelementptr inbounds %"class.base::JSONValueConverter", %"class.base::JSONValueConverter"* %0, i64 0, i32 0, i32 0, i32 1
  %33 = load %"class.std::__1::unique_ptr.33"*, %"class.std::__1::unique_ptr.33"** %32, align 8
  %34 = getelementptr inbounds %"class.base::JSONValueConverter", %"class.base::JSONValueConverter"* %0, i64 0, i32 0, i32 0, i32 2, i32 0, i32 0
  %35 = load %"class.std::__1::unique_ptr.33"*, %"class.std::__1::unique_ptr.33"** %34, align 8
  %36 = icmp ult %"class.std::__1::unique_ptr.33"* %33, %35
  br i1 %36, label %37, label %43

37:                                               ; preds = %25
  %38 = getelementptr inbounds %"class.std::__1::unique_ptr.33", %"class.std::__1::unique_ptr.33"* %4, i64 0, i32 0, i32 0, i32 0
  store %"class.base::internal::FieldConverterBase.254"* null, %"class.base::internal::FieldConverterBase.254"** %38, align 8
  %39 = bitcast %"class.std::__1::unique_ptr.33"* %33 to i64*
  store i64 %30, i64* %39, align 8
  %40 = getelementptr inbounds %"class.std::__1::unique_ptr.33", %"class.std::__1::unique_ptr.33"* %33, i64 1
  %41 = ptrtoint %"class.std::__1::unique_ptr.33"* %40 to i64
  %42 = bitcast %"class.std::__1::unique_ptr.33"** %32 to i64*
  store i64 %41, i64* %42, align 8
  br label %44

43:                                               ; preds = %25
  call void @_ZNSt3__16vectorINS_10unique_ptrIN4base8internal18FieldConverterBaseIN11google_apis13AboutResourceEEENS_14default_deleteIS7_EEEENS_9allocatorISA_EEE21__push_back_slow_pathISA_EEvOT_(%"class.std::__1::vector.31"* %5, %"class.std::__1::unique_ptr.33"* nonnull dereferenceable(8) %4) #15
  br label %44

44:                                               ; preds = %37, %43
  %45 = getelementptr inbounds %"class.std::__1::unique_ptr.33", %"class.std::__1::unique_ptr.33"* %4, i64 0, i32 0, i32 0, i32 0
  %46 = load %"class.base::internal::FieldConverterBase.254"*, %"class.base::internal::FieldConverterBase.254"** %45, align 8
  store %"class.base::internal::FieldConverterBase.254"* null, %"class.base::internal::FieldConverterBase.254"** %45, align 8
  %47 = icmp eq %"class.base::internal::FieldConverterBase.254"* %46, null
  br i1 %47, label %53, label %48

48:                                               ; preds = %44
  %49 = bitcast %"class.base::internal::FieldConverterBase.254"* %46 to void (%"class.base::internal::FieldConverterBase.254"*)***
  %50 = load void (%"class.base::internal::FieldConverterBase.254"*)**, void (%"class.base::internal::FieldConverterBase.254"*)*** %49, align 8
  %51 = getelementptr inbounds void (%"class.base::internal::FieldConverterBase.254"*)*, void (%"class.base::internal::FieldConverterBase.254"*)** %50, i64 1
  %52 = load void (%"class.base::internal::FieldConverterBase.254"*)*, void (%"class.base::internal::FieldConverterBase.254"*)** %51, align 8
  call void %52(%"class.base::internal::FieldConverterBase.254"* nonnull %46) #15
  br label %53

53:                                               ; preds = %48, %44
  call void @llvm.lifetime.end.p0i8(i64 8, i8* nonnull %6) #15
  ret void
}

; Function Attrs: nofree norecurse nounwind ssp uwtable writeonly
define hidden void @_ZN11google_apis21TeamDriveCapabilitiesC2Ev(%"class.google_apis::TeamDriveCapabilities"* nocapture) unnamed_addr #5 align 2 {
  %2 = getelementptr inbounds %"class.google_apis::TeamDriveCapabilities", %"class.google_apis::TeamDriveCapabilities"* %0, i64 0, i32 0
  call void @llvm.memset.p0i8.i64(i8* align 1 %2, i8 0, i64 13, i1 false)
  ret void
}

; Function Attrs: nounwind ssp uwtable
define hidden void @_ZN11google_apis21TeamDriveCapabilitiesC2ERKS0_(%"class.google_apis::TeamDriveCapabilities"* nocapture, %"class.google_apis::TeamDriveCapabilities"* nocapture readonly dereferenceable(13)) unnamed_addr #0 align 2 {
  %3 = getelementptr inbounds %"class.google_apis::TeamDriveCapabilities", %"class.google_apis::TeamDriveCapabilities"* %0, i64 0, i32 0
  %4 = getelementptr inbounds %"class.google_apis::TeamDriveCapabilities", %"class.google_apis::TeamDriveCapabilities"* %1, i64 0, i32 0
  tail call void @llvm.memcpy.p0i8.p0i8.i64(i8* align 1 %3, i8* align 1 %4, i64 13, i1 false)
  ret void
}

; Function Attrs: argmemonly nounwind
declare void @llvm.memcpy.p0i8.p0i8.i64(i8* nocapture writeonly, i8* nocapture readonly, i64, i1 immarg) #1

; Function Attrs: norecurse nounwind readnone ssp uwtable
define hidden void @_ZN11google_apis21TeamDriveCapabilitiesD2Ev(%"class.google_apis::TeamDriveCapabilities"* nocapture) unnamed_addr #6 align 2 {
  ret void
}

; Function Attrs: nounwind ssp uwtable
define hidden void @_ZN11google_apis21TeamDriveCapabilities21RegisterJSONConverterEPN4base18JSONValueConverterIS0_EE(%"class.base::JSONValueConverter.39"*) local_unnamed_addr #0 align 2 {
  %2 = alloca %"class.std::__1::basic_string", align 8
  %3 = alloca %"class.std::__1::basic_string", align 8
  %4 = alloca %"class.std::__1::basic_string", align 8
  %5 = alloca %"class.std::__1::basic_string", align 8
  %6 = alloca %"class.std::__1::basic_string", align 8
  %7 = alloca %"class.std::__1::basic_string", align 8
  %8 = alloca %"class.std::__1::basic_string", align 8
  %9 = alloca %"class.std::__1::basic_string", align 8
  %10 = alloca %"class.std::__1::basic_string", align 8
  %11 = alloca %"class.std::__1::basic_string", align 8
  %12 = alloca %"class.std::__1::basic_string", align 8
  %13 = alloca %"class.std::__1::basic_string", align 8
  %14 = alloca %"class.std::__1::basic_string", align 8
  %15 = bitcast %"class.std::__1::basic_string"* %2 to i8*
  call void @llvm.lifetime.start.p0i8(i64 24, i8* nonnull %15) #15
  %16 = bitcast %"class.std::__1::basic_string"* %2 to %"struct.std::__1::basic_string<char, std::__1::char_traits<char>, std::__1::allocator<char> >::__short"*
  %17 = getelementptr inbounds %"struct.std::__1::basic_string<char, std::__1::char_traits<char>, std::__1::allocator<char> >::__short", %"struct.std::__1::basic_string<char, std::__1::char_traits<char>, std::__1::allocator<char> >::__short"* %16, i64 0, i32 1, i32 0
  store i8 14, i8* %17, align 1
  call void @llvm.memcpy.p0i8.p0i8.i64(i8* nonnull align 8 %15, i8* align 1 getelementptr inbounds ([15 x i8], [15 x i8]* @_ZN11google_apis12_GLOBAL__N_115kCanAddChildrenE, i64 0, i64 0), i64 14, i1 false) #15
  %18 = getelementptr inbounds i8, i8* %15, i64 14
  store i8 0, i8* %18, align 2
  call void @_ZN4base18JSONValueConverterIN11google_apis21TeamDriveCapabilitiesEE17RegisterBoolFieldERKNSt3__112basic_stringIcNS4_11char_traitsIcEENS4_9allocatorIcEEEEMS2_b(%"class.base::JSONValueConverter.39"* %0, %"class.std::__1::basic_string"* nonnull dereferenceable(24) %2, i64 0)
  %19 = load i8, i8* %17, align 1
  %20 = icmp slt i8 %19, 0
  br i1 %20, label %21, label %24

21:                                               ; preds = %1
  %22 = getelementptr inbounds %"class.std::__1::basic_string", %"class.std::__1::basic_string"* %2, i64 0, i32 0, i32 0, i32 0, i32 0, i32 0, i32 0
  %23 = load i8*, i8** %22, align 8
  call void @_ZdlPv(i8* %23) #14
  br label %24

24:                                               ; preds = %1, %21
  call void @llvm.lifetime.end.p0i8(i64 24, i8* nonnull %15) #15
  %25 = bitcast %"class.std::__1::basic_string"* %3 to i8*
  call void @llvm.lifetime.start.p0i8(i64 24, i8* nonnull %25) #15
  %26 = bitcast %"class.std::__1::basic_string"* %3 to %"struct.std::__1::basic_string<char, std::__1::char_traits<char>, std::__1::allocator<char> >::__short"*
  %27 = getelementptr inbounds %"struct.std::__1::basic_string<char, std::__1::char_traits<char>, std::__1::allocator<char> >::__short", %"struct.std::__1::basic_string<char, std::__1::char_traits<char>, std::__1::allocator<char> >::__short"* %26, i64 0, i32 1, i32 0
  store i8 10, i8* %27, align 1
  call void @llvm.memcpy.p0i8.p0i8.i64(i8* nonnull align 8 %25, i8* align 1 getelementptr inbounds ([11 x i8], [11 x i8]* @_ZN11google_apis12_GLOBAL__N_111kCanCommentE, i64 0, i64 0), i64 10, i1 false) #15
  %28 = getelementptr inbounds i8, i8* %25, i64 10
  store i8 0, i8* %28, align 2
  call void @_ZN4base18JSONValueConverterIN11google_apis21TeamDriveCapabilitiesEE17RegisterBoolFieldERKNSt3__112basic_stringIcNS4_11char_traitsIcEENS4_9allocatorIcEEEEMS2_b(%"class.base::JSONValueConverter.39"* %0, %"class.std::__1::basic_string"* nonnull dereferenceable(24) %3, i64 1)
  %29 = load i8, i8* %27, align 1
  %30 = icmp slt i8 %29, 0
  br i1 %30, label %31, label %34

31:                                               ; preds = %24
  %32 = getelementptr inbounds %"class.std::__1::basic_string", %"class.std::__1::basic_string"* %3, i64 0, i32 0, i32 0, i32 0, i32 0, i32 0, i32 0
  %33 = load i8*, i8** %32, align 8
  call void @_ZdlPv(i8* %33) #14
  br label %34

34:                                               ; preds = %24, %31
  call void @llvm.lifetime.end.p0i8(i64 24, i8* nonnull %25) #15
  %35 = bitcast %"class.std::__1::basic_string"* %4 to i8*
  call void @llvm.lifetime.start.p0i8(i64 24, i8* nonnull %35) #15
  %36 = bitcast %"class.std::__1::basic_string"* %4 to %"struct.std::__1::basic_string<char, std::__1::char_traits<char>, std::__1::allocator<char> >::__short"*
  %37 = getelementptr inbounds %"struct.std::__1::basic_string<char, std::__1::char_traits<char>, std::__1::allocator<char> >::__short", %"struct.std::__1::basic_string<char, std::__1::char_traits<char>, std::__1::allocator<char> >::__short"* %36, i64 0, i32 1, i32 0
  store i8 7, i8* %37, align 1
  call void @llvm.memcpy.p0i8.p0i8.i64(i8* nonnull align 8 %35, i8* align 1 getelementptr inbounds ([8 x i8], [8 x i8]* @_ZN11google_apis12_GLOBAL__N_18kCanCopyE, i64 0, i64 0), i64 7, i1 false) #15
  %38 = getelementptr inbounds i8, i8* %35, i64 7
  store i8 0, i8* %38, align 1
  call void @_ZN4base18JSONValueConverterIN11google_apis21TeamDriveCapabilitiesEE17RegisterBoolFieldERKNSt3__112basic_stringIcNS4_11char_traitsIcEENS4_9allocatorIcEEEEMS2_b(%"class.base::JSONValueConverter.39"* %0, %"class.std::__1::basic_string"* nonnull dereferenceable(24) %4, i64 2)
  %39 = load i8, i8* %37, align 1
  %40 = icmp slt i8 %39, 0
  br i1 %40, label %41, label %44

41:                                               ; preds = %34
  %42 = getelementptr inbounds %"class.std::__1::basic_string", %"class.std::__1::basic_string"* %4, i64 0, i32 0, i32 0, i32 0, i32 0, i32 0, i32 0
  %43 = load i8*, i8** %42, align 8
  call void @_ZdlPv(i8* %43) #14
  br label %44

44:                                               ; preds = %34, %41
  call void @llvm.lifetime.end.p0i8(i64 24, i8* nonnull %35) #15
  %45 = bitcast %"class.std::__1::basic_string"* %5 to i8*
  call void @llvm.lifetime.start.p0i8(i64 24, i8* nonnull %45) #15
  %46 = bitcast %"class.std::__1::basic_string"* %5 to %"struct.std::__1::basic_string<char, std::__1::char_traits<char>, std::__1::allocator<char> >::__short"*
  %47 = getelementptr inbounds %"struct.std::__1::basic_string<char, std::__1::char_traits<char>, std::__1::allocator<char> >::__short", %"struct.std::__1::basic_string<char, std::__1::char_traits<char>, std::__1::allocator<char> >::__short"* %46, i64 0, i32 1, i32 0
  store i8 18, i8* %47, align 1
  call void @llvm.memcpy.p0i8.p0i8.i64(i8* nonnull align 8 %45, i8* align 16 getelementptr inbounds ([19 x i8], [19 x i8]* @_ZN11google_apis12_GLOBAL__N_119kCanDeleteTeamDriveE, i64 0, i64 0), i64 18, i1 false) #15
  %48 = getelementptr inbounds i8, i8* %45, i64 18
  store i8 0, i8* %48, align 2
  call void @_ZN4base18JSONValueConverterIN11google_apis21TeamDriveCapabilitiesEE17RegisterBoolFieldERKNSt3__112basic_stringIcNS4_11char_traitsIcEENS4_9allocatorIcEEEEMS2_b(%"class.base::JSONValueConverter.39"* %0, %"class.std::__1::basic_string"* nonnull dereferenceable(24) %5, i64 3)
  %49 = load i8, i8* %47, align 1
  %50 = icmp slt i8 %49, 0
  br i1 %50, label %51, label %54

51:                                               ; preds = %44
  %52 = getelementptr inbounds %"class.std::__1::basic_string", %"class.std::__1::basic_string"* %5, i64 0, i32 0, i32 0, i32 0, i32 0, i32 0, i32 0
  %53 = load i8*, i8** %52, align 8
  call void @_ZdlPv(i8* %53) #14
  br label %54

54:                                               ; preds = %44, %51
  call void @llvm.lifetime.end.p0i8(i64 24, i8* nonnull %45) #15
  %55 = bitcast %"class.std::__1::basic_string"* %6 to i8*
  call void @llvm.lifetime.start.p0i8(i64 24, i8* nonnull %55) #15
  %56 = bitcast %"class.std::__1::basic_string"* %6 to %"struct.std::__1::basic_string<char, std::__1::char_traits<char>, std::__1::allocator<char> >::__short"*
  %57 = getelementptr inbounds %"struct.std::__1::basic_string<char, std::__1::char_traits<char>, std::__1::allocator<char> >::__short", %"struct.std::__1::basic_string<char, std::__1::char_traits<char>, std::__1::allocator<char> >::__short"* %56, i64 0, i32 1, i32 0
  store i8 11, i8* %57, align 1
  call void @llvm.memcpy.p0i8.p0i8.i64(i8* nonnull align 8 %55, i8* align 1 getelementptr inbounds ([12 x i8], [12 x i8]* @_ZN11google_apis12_GLOBAL__N_112kCanDownloadE, i64 0, i64 0), i64 11, i1 false) #15
  %58 = getelementptr inbounds i8, i8* %55, i64 11
  store i8 0, i8* %58, align 1
  call void @_ZN4base18JSONValueConverterIN11google_apis21TeamDriveCapabilitiesEE17RegisterBoolFieldERKNSt3__112basic_stringIcNS4_11char_traitsIcEENS4_9allocatorIcEEEEMS2_b(%"class.base::JSONValueConverter.39"* %0, %"class.std::__1::basic_string"* nonnull dereferenceable(24) %6, i64 4)
  %59 = load i8, i8* %57, align 1
  %60 = icmp slt i8 %59, 0
  br i1 %60, label %61, label %64

61:                                               ; preds = %54
  %62 = getelementptr inbounds %"class.std::__1::basic_string", %"class.std::__1::basic_string"* %6, i64 0, i32 0, i32 0, i32 0, i32 0, i32 0, i32 0
  %63 = load i8*, i8** %62, align 8
  call void @_ZdlPv(i8* %63) #14
  br label %64

64:                                               ; preds = %54, %61
  call void @llvm.lifetime.end.p0i8(i64 24, i8* nonnull %55) #15
  %65 = bitcast %"class.std::__1::basic_string"* %7 to i8*
  call void @llvm.lifetime.start.p0i8(i64 24, i8* nonnull %65) #15
  %66 = bitcast %"class.std::__1::basic_string"* %7 to %"struct.std::__1::basic_string<char, std::__1::char_traits<char>, std::__1::allocator<char> >::__short"*
  %67 = getelementptr inbounds %"struct.std::__1::basic_string<char, std::__1::char_traits<char>, std::__1::allocator<char> >::__short", %"struct.std::__1::basic_string<char, std::__1::char_traits<char>, std::__1::allocator<char> >::__short"* %66, i64 0, i32 1, i32 0
  store i8 7, i8* %67, align 1
  call void @llvm.memcpy.p0i8.p0i8.i64(i8* nonnull align 8 %65, i8* align 1 getelementptr inbounds ([8 x i8], [8 x i8]* @_ZN11google_apis12_GLOBAL__N_18kCanEditE, i64 0, i64 0), i64 7, i1 false) #15
  %68 = getelementptr inbounds i8, i8* %65, i64 7
  store i8 0, i8* %68, align 1
  call void @_ZN4base18JSONValueConverterIN11google_apis21TeamDriveCapabilitiesEE17RegisterBoolFieldERKNSt3__112basic_stringIcNS4_11char_traitsIcEENS4_9allocatorIcEEEEMS2_b(%"class.base::JSONValueConverter.39"* %0, %"class.std::__1::basic_string"* nonnull dereferenceable(24) %7, i64 5)
  %69 = load i8, i8* %67, align 1
  %70 = icmp slt i8 %69, 0
  br i1 %70, label %71, label %74

71:                                               ; preds = %64
  %72 = getelementptr inbounds %"class.std::__1::basic_string", %"class.std::__1::basic_string"* %7, i64 0, i32 0, i32 0, i32 0, i32 0, i32 0, i32 0
  %73 = load i8*, i8** %72, align 8
  call void @_ZdlPv(i8* %73) #14
  br label %74

74:                                               ; preds = %64, %71
  call void @llvm.lifetime.end.p0i8(i64 24, i8* nonnull %65) #15
  %75 = bitcast %"class.std::__1::basic_string"* %8 to i8*
  call void @llvm.lifetime.start.p0i8(i64 24, i8* nonnull %75) #15
  %76 = bitcast %"class.std::__1::basic_string"* %8 to %"struct.std::__1::basic_string<char, std::__1::char_traits<char>, std::__1::allocator<char> >::__short"*
  %77 = getelementptr inbounds %"struct.std::__1::basic_string<char, std::__1::char_traits<char>, std::__1::allocator<char> >::__short", %"struct.std::__1::basic_string<char, std::__1::char_traits<char>, std::__1::allocator<char> >::__short"* %76, i64 0, i32 1, i32 0
  store i8 15, i8* %77, align 1
  call void @llvm.memcpy.p0i8.p0i8.i64(i8* nonnull align 8 %75, i8* align 16 getelementptr inbounds ([16 x i8], [16 x i8]* @_ZN11google_apis12_GLOBAL__N_116kCanListChildrenE, i64 0, i64 0), i64 15, i1 false) #15
  %78 = getelementptr inbounds i8, i8* %75, i64 15
  store i8 0, i8* %78, align 1
  call void @_ZN4base18JSONValueConverterIN11google_apis21TeamDriveCapabilitiesEE17RegisterBoolFieldERKNSt3__112basic_stringIcNS4_11char_traitsIcEENS4_9allocatorIcEEEEMS2_b(%"class.base::JSONValueConverter.39"* %0, %"class.std::__1::basic_string"* nonnull dereferenceable(24) %8, i64 6)
  %79 = load i8, i8* %77, align 1
  %80 = icmp slt i8 %79, 0
  br i1 %80, label %81, label %84

81:                                               ; preds = %74
  %82 = getelementptr inbounds %"class.std::__1::basic_string", %"class.std::__1::basic_string"* %8, i64 0, i32 0, i32 0, i32 0, i32 0, i32 0, i32 0
  %83 = load i8*, i8** %82, align 8
  call void @_ZdlPv(i8* %83) #14
  br label %84

84:                                               ; preds = %74, %81
  call void @llvm.lifetime.end.p0i8(i64 24, i8* nonnull %75) #15
  %85 = bitcast %"class.std::__1::basic_string"* %9 to i8*
  call void @llvm.lifetime.start.p0i8(i64 24, i8* nonnull %85) #15
  %86 = bitcast %"class.std::__1::basic_string"* %9 to %"struct.std::__1::basic_string<char, std::__1::char_traits<char>, std::__1::allocator<char> >::__short"*
  %87 = getelementptr inbounds %"struct.std::__1::basic_string<char, std::__1::char_traits<char>, std::__1::allocator<char> >::__short", %"struct.std::__1::basic_string<char, std::__1::char_traits<char>, std::__1::allocator<char> >::__short"* %86, i64 0, i32 1, i32 0
  store i8 16, i8* %87, align 1
  call void @llvm.memcpy.p0i8.p0i8.i64(i8* nonnull align 8 %85, i8* align 16 getelementptr inbounds ([17 x i8], [17 x i8]* @_ZN11google_apis12_GLOBAL__N_117kCanManageMembersE, i64 0, i64 0), i64 16, i1 false) #15
  %88 = getelementptr inbounds %"class.std::__1::basic_string", %"class.std::__1::basic_string"* %9, i64 0, i32 0, i32 0, i32 0, i32 0, i32 0, i32 2
  %89 = bitcast i64* %88 to i8*
  store i8 0, i8* %89, align 8
  call void @_ZN4base18JSONValueConverterIN11google_apis21TeamDriveCapabilitiesEE17RegisterBoolFieldERKNSt3__112basic_stringIcNS4_11char_traitsIcEENS4_9allocatorIcEEEEMS2_b(%"class.base::JSONValueConverter.39"* %0, %"class.std::__1::basic_string"* nonnull dereferenceable(24) %9, i64 7)
  %90 = load i8, i8* %87, align 1
  %91 = icmp slt i8 %90, 0
  br i1 %91, label %92, label %95

92:                                               ; preds = %84
  %93 = getelementptr inbounds %"class.std::__1::basic_string", %"class.std::__1::basic_string"* %9, i64 0, i32 0, i32 0, i32 0, i32 0, i32 0, i32 0
  %94 = load i8*, i8** %93, align 8
  call void @_ZdlPv(i8* %94) #14
  br label %95

95:                                               ; preds = %84, %92
  call void @llvm.lifetime.end.p0i8(i64 24, i8* nonnull %85) #15
  %96 = bitcast %"class.std::__1::basic_string"* %10 to i8*
  call void @llvm.lifetime.start.p0i8(i64 24, i8* nonnull %96) #15
  %97 = bitcast %"class.std::__1::basic_string"* %10 to %"struct.std::__1::basic_string<char, std::__1::char_traits<char>, std::__1::allocator<char> >::__short"*
  %98 = getelementptr inbounds %"struct.std::__1::basic_string<char, std::__1::char_traits<char>, std::__1::allocator<char> >::__short", %"struct.std::__1::basic_string<char, std::__1::char_traits<char>, std::__1::allocator<char> >::__short"* %97, i64 0, i32 1, i32 0
  store i8 16, i8* %98, align 1
  call void @llvm.memcpy.p0i8.p0i8.i64(i8* nonnull align 8 %96, i8* align 16 getelementptr inbounds ([17 x i8], [17 x i8]* @_ZN11google_apis12_GLOBAL__N_117kCanReadRevisionsE, i64 0, i64 0), i64 16, i1 false) #15
  %99 = getelementptr inbounds %"class.std::__1::basic_string", %"class.std::__1::basic_string"* %10, i64 0, i32 0, i32 0, i32 0, i32 0, i32 0, i32 2
  %100 = bitcast i64* %99 to i8*
  store i8 0, i8* %100, align 8
  call void @_ZN4base18JSONValueConverterIN11google_apis21TeamDriveCapabilitiesEE17RegisterBoolFieldERKNSt3__112basic_stringIcNS4_11char_traitsIcEENS4_9allocatorIcEEEEMS2_b(%"class.base::JSONValueConverter.39"* %0, %"class.std::__1::basic_string"* nonnull dereferenceable(24) %10, i64 8)
  %101 = load i8, i8* %98, align 1
  %102 = icmp slt i8 %101, 0
  br i1 %102, label %103, label %106

103:                                              ; preds = %95
  %104 = getelementptr inbounds %"class.std::__1::basic_string", %"class.std::__1::basic_string"* %10, i64 0, i32 0, i32 0, i32 0, i32 0, i32 0, i32 0
  %105 = load i8*, i8** %104, align 8
  call void @_ZdlPv(i8* %105) #14
  br label %106

106:                                              ; preds = %95, %103
  call void @llvm.lifetime.end.p0i8(i64 24, i8* nonnull %96) #15
  %107 = bitcast %"class.std::__1::basic_string"* %11 to i8*
  call void @llvm.lifetime.start.p0i8(i64 24, i8* nonnull %107) #15
  %108 = bitcast %"class.std::__1::basic_string"* %11 to %"struct.std::__1::basic_string<char, std::__1::char_traits<char>, std::__1::allocator<char> >::__short"*
  %109 = getelementptr inbounds %"struct.std::__1::basic_string<char, std::__1::char_traits<char>, std::__1::allocator<char> >::__short", %"struct.std::__1::basic_string<char, std::__1::char_traits<char>, std::__1::allocator<char> >::__short"* %108, i64 0, i32 1, i32 0
  store i8 17, i8* %109, align 1
  call void @llvm.memcpy.p0i8.p0i8.i64(i8* nonnull align 8 %107, i8* align 16 getelementptr inbounds ([18 x i8], [18 x i8]* @_ZN11google_apis12_GLOBAL__N_118kCanRemoveChildrenE, i64 0, i64 0), i64 17, i1 false) #15
  %110 = getelementptr inbounds i8, i8* %107, i64 17
  store i8 0, i8* %110, align 1
  call void @_ZN4base18JSONValueConverterIN11google_apis21TeamDriveCapabilitiesEE17RegisterBoolFieldERKNSt3__112basic_stringIcNS4_11char_traitsIcEENS4_9allocatorIcEEEEMS2_b(%"class.base::JSONValueConverter.39"* %0, %"class.std::__1::basic_string"* nonnull dereferenceable(24) %11, i64 9)
  %111 = load i8, i8* %109, align 1
  %112 = icmp slt i8 %111, 0
  br i1 %112, label %113, label %116

113:                                              ; preds = %106
  %114 = getelementptr inbounds %"class.std::__1::basic_string", %"class.std::__1::basic_string"* %11, i64 0, i32 0, i32 0, i32 0, i32 0, i32 0, i32 0
  %115 = load i8*, i8** %114, align 8
  call void @_ZdlPv(i8* %115) #14
  br label %116

116:                                              ; preds = %106, %113
  call void @llvm.lifetime.end.p0i8(i64 24, i8* nonnull %107) #15
  %117 = bitcast %"class.std::__1::basic_string"* %12 to i8*
  call void @llvm.lifetime.start.p0i8(i64 24, i8* nonnull %117) #15
  %118 = bitcast %"class.std::__1::basic_string"* %12 to %"struct.std::__1::basic_string<char, std::__1::char_traits<char>, std::__1::allocator<char> >::__short"*
  %119 = getelementptr inbounds %"struct.std::__1::basic_string<char, std::__1::char_traits<char>, std::__1::allocator<char> >::__short", %"struct.std::__1::basic_string<char, std::__1::char_traits<char>, std::__1::allocator<char> >::__short"* %118, i64 0, i32 1, i32 0
  store i8 9, i8* %119, align 1
  call void @llvm.memcpy.p0i8.p0i8.i64(i8* nonnull align 8 %117, i8* align 1 getelementptr inbounds ([10 x i8], [10 x i8]* @_ZN11google_apis12_GLOBAL__N_110kCanRenameE, i64 0, i64 0), i64 9, i1 false) #15
  %120 = getelementptr inbounds i8, i8* %117, i64 9
  store i8 0, i8* %120, align 1
  call void @_ZN4base18JSONValueConverterIN11google_apis21TeamDriveCapabilitiesEE17RegisterBoolFieldERKNSt3__112basic_stringIcNS4_11char_traitsIcEENS4_9allocatorIcEEEEMS2_b(%"class.base::JSONValueConverter.39"* %0, %"class.std::__1::basic_string"* nonnull dereferenceable(24) %12, i64 10)
  %121 = load i8, i8* %119, align 1
  %122 = icmp slt i8 %121, 0
  br i1 %122, label %123, label %126

123:                                              ; preds = %116
  %124 = getelementptr inbounds %"class.std::__1::basic_string", %"class.std::__1::basic_string"* %12, i64 0, i32 0, i32 0, i32 0, i32 0, i32 0, i32 0
  %125 = load i8*, i8** %124, align 8
  call void @_ZdlPv(i8* %125) #14
  br label %126

126:                                              ; preds = %116, %123
  call void @llvm.lifetime.end.p0i8(i64 24, i8* nonnull %117) #15
  %127 = bitcast %"class.std::__1::basic_string"* %13 to i8*
  call void @llvm.lifetime.start.p0i8(i64 24, i8* nonnull %127) #15
  %128 = bitcast %"class.std::__1::basic_string"* %13 to %"struct.std::__1::basic_string<char, std::__1::char_traits<char>, std::__1::allocator<char> >::__short"*
  %129 = getelementptr inbounds %"struct.std::__1::basic_string<char, std::__1::char_traits<char>, std::__1::allocator<char> >::__short", %"struct.std::__1::basic_string<char, std::__1::char_traits<char>, std::__1::allocator<char> >::__short"* %128, i64 0, i32 1, i32 0
  store i8 18, i8* %129, align 1
  call void @llvm.memcpy.p0i8.p0i8.i64(i8* nonnull align 8 %127, i8* align 16 getelementptr inbounds ([19 x i8], [19 x i8]* @_ZN11google_apis12_GLOBAL__N_119kCanRenameTeamDriveE, i64 0, i64 0), i64 18, i1 false) #15
  %130 = getelementptr inbounds i8, i8* %127, i64 18
  store i8 0, i8* %130, align 2
  call void @_ZN4base18JSONValueConverterIN11google_apis21TeamDriveCapabilitiesEE17RegisterBoolFieldERKNSt3__112basic_stringIcNS4_11char_traitsIcEENS4_9allocatorIcEEEEMS2_b(%"class.base::JSONValueConverter.39"* %0, %"class.std::__1::basic_string"* nonnull dereferenceable(24) %13, i64 11)
  %131 = load i8, i8* %129, align 1
  %132 = icmp slt i8 %131, 0
  br i1 %132, label %133, label %136

133:                                              ; preds = %126
  %134 = getelementptr inbounds %"class.std::__1::basic_string", %"class.std::__1::basic_string"* %13, i64 0, i32 0, i32 0, i32 0, i32 0, i32 0, i32 0
  %135 = load i8*, i8** %134, align 8
  call void @_ZdlPv(i8* %135) #14
  br label %136

136:                                              ; preds = %126, %133
  call void @llvm.lifetime.end.p0i8(i64 24, i8* nonnull %127) #15
  %137 = bitcast %"class.std::__1::basic_string"* %14 to i8*
  call void @llvm.lifetime.start.p0i8(i64 24, i8* nonnull %137) #15
  %138 = bitcast %"class.std::__1::basic_string"* %14 to %"struct.std::__1::basic_string<char, std::__1::char_traits<char>, std::__1::allocator<char> >::__short"*
  %139 = getelementptr inbounds %"struct.std::__1::basic_string<char, std::__1::char_traits<char>, std::__1::allocator<char> >::__short", %"struct.std::__1::basic_string<char, std::__1::char_traits<char>, std::__1::allocator<char> >::__short"* %138, i64 0, i32 1, i32 0
  store i8 8, i8* %139, align 1
  %140 = bitcast %"class.std::__1::basic_string"* %14 to i64*
  store i64 7310012245879972195, i64* %140, align 8
  %141 = getelementptr inbounds %"class.std::__1::basic_string", %"class.std::__1::basic_string"* %14, i64 0, i32 0, i32 0, i32 0, i32 0, i32 0, i32 1
  %142 = bitcast i64* %141 to i8*
  store i8 0, i8* %142, align 8
  call void @_ZN4base18JSONValueConverterIN11google_apis21TeamDriveCapabilitiesEE17RegisterBoolFieldERKNSt3__112basic_stringIcNS4_11char_traitsIcEENS4_9allocatorIcEEEEMS2_b(%"class.base::JSONValueConverter.39"* %0, %"class.std::__1::basic_string"* nonnull dereferenceable(24) %14, i64 12)
  %143 = load i8, i8* %139, align 1
  %144 = icmp slt i8 %143, 0
  br i1 %144, label %145, label %148

145:                                              ; preds = %136
  %146 = getelementptr inbounds %"class.std::__1::basic_string", %"class.std::__1::basic_string"* %14, i64 0, i32 0, i32 0, i32 0, i32 0, i32 0, i32 0
  %147 = load i8*, i8** %146, align 8
  call void @_ZdlPv(i8* %147) #14
  br label %148

148:                                              ; preds = %136, %145
  call void @llvm.lifetime.end.p0i8(i64 24, i8* nonnull %137) #15
  ret void
}

; Function Attrs: nounwind ssp uwtable
define linkonce_odr hidden void @_ZN4base18JSONValueConverterIN11google_apis21TeamDriveCapabilitiesEE17RegisterBoolFieldERKNSt3__112basic_stringIcNS4_11char_traitsIcEENS4_9allocatorIcEEEEMS2_b(%"class.base::JSONValueConverter.39"*, %"class.std::__1::basic_string"* dereferenceable(24), i64) local_unnamed_addr #0 comdat align 2 {
  %4 = alloca %"class.std::__1::unique_ptr.42", align 8
  %5 = getelementptr inbounds %"class.base::JSONValueConverter.39", %"class.base::JSONValueConverter.39"* %0, i64 0, i32 0
  %6 = bitcast %"class.std::__1::unique_ptr.42"* %4 to i8*
  call void @llvm.lifetime.start.p0i8(i64 8, i8* nonnull %6) #15
  %7 = tail call i8* @_Znwm(i64 8) #14
  %8 = bitcast i8* %7 to i32 (...)***
  store i32 (...)** bitcast (i8** getelementptr inbounds ({ [5 x i8*] }, { [5 x i8*] }* @_ZTVN4base8internal19BasicValueConverterIbEE, i64 0, inrange i32 0, i64 2) to i32 (...)**), i32 (...)*** %8, align 8
  %9 = ptrtoint i8* %7 to i64
  %10 = tail call i8* @_Znwm(i64 48) #14
  %11 = bitcast i8* %10 to i32 (...)***
  store i32 (...)** bitcast (i8** getelementptr inbounds ({ [5 x i8*] }, { [5 x i8*] }* @_ZTVN4base8internal18FieldConverterBaseIN11google_apis21TeamDriveCapabilitiesEEE, i64 0, inrange i32 0, i64 2) to i32 (...)**), i32 (...)*** %11, align 8
  %12 = getelementptr inbounds i8, i8* %10, i64 8
  %13 = bitcast %"class.std::__1::basic_string"* %1 to %"struct.std::__1::basic_string<char, std::__1::char_traits<char>, std::__1::allocator<char> >::__short"*
  %14 = getelementptr inbounds %"struct.std::__1::basic_string<char, std::__1::char_traits<char>, std::__1::allocator<char> >::__short", %"struct.std::__1::basic_string<char, std::__1::char_traits<char>, std::__1::allocator<char> >::__short"* %13, i64 0, i32 1, i32 0
  %15 = load i8, i8* %14, align 1
  %16 = icmp slt i8 %15, 0
  br i1 %16, label %19, label %17

17:                                               ; preds = %3
  %18 = bitcast %"class.std::__1::basic_string"* %1 to i8*
  tail call void @llvm.memcpy.p0i8.p0i8.i64(i8* align 8 %12, i8* align 8 %18, i64 24, i1 false) #15
  br label %25

19:                                               ; preds = %3
  %20 = bitcast i8* %12 to %"class.std::__1::basic_string"*
  %21 = getelementptr inbounds %"class.std::__1::basic_string", %"class.std::__1::basic_string"* %1, i64 0, i32 0, i32 0, i32 0, i32 0, i32 0, i32 0
  %22 = load i8*, i8** %21, align 8
  %23 = getelementptr inbounds %"class.std::__1::basic_string", %"class.std::__1::basic_string"* %1, i64 0, i32 0, i32 0, i32 0, i32 0, i32 0, i32 1
  %24 = load i64, i64* %23, align 8
  tail call void @_ZNSt3__112basic_stringIcNS_11char_traitsIcEENS_9allocatorIcEEE25__init_copy_ctor_externalEPKcm(%"class.std::__1::basic_string"* %20, i8* %22, i64 %24) #15
  br label %25

25:                                               ; preds = %17, %19
  store i32 (...)** bitcast (i8** getelementptr inbounds ({ [5 x i8*] }, { [5 x i8*] }* @_ZTVN4base8internal14FieldConverterIN11google_apis21TeamDriveCapabilitiesEbEE, i64 0, inrange i32 0, i64 2) to i32 (...)**), i32 (...)*** %11, align 8
  %26 = getelementptr inbounds i8, i8* %10, i64 32
  %27 = bitcast i8* %26 to i64*
  store i64 %2, i64* %27, align 8
  %28 = getelementptr inbounds i8, i8* %10, i64 40
  %29 = bitcast i8* %28 to i64*
  store i64 %9, i64* %29, align 8
  %30 = ptrtoint i8* %10 to i64
  %31 = bitcast %"class.std::__1::unique_ptr.42"* %4 to i64*
  store i64 %30, i64* %31, align 8
  %32 = getelementptr inbounds %"class.base::JSONValueConverter.39", %"class.base::JSONValueConverter.39"* %0, i64 0, i32 0, i32 0, i32 1
  %33 = load %"class.std::__1::unique_ptr.42"*, %"class.std::__1::unique_ptr.42"** %32, align 8
  %34 = getelementptr inbounds %"class.base::JSONValueConverter.39", %"class.base::JSONValueConverter.39"* %0, i64 0, i32 0, i32 0, i32 2, i32 0, i32 0
  %35 = load %"class.std::__1::unique_ptr.42"*, %"class.std::__1::unique_ptr.42"** %34, align 8
  %36 = icmp ult %"class.std::__1::unique_ptr.42"* %33, %35
  br i1 %36, label %37, label %43

37:                                               ; preds = %25
  %38 = getelementptr inbounds %"class.std::__1::unique_ptr.42", %"class.std::__1::unique_ptr.42"* %4, i64 0, i32 0, i32 0, i32 0
  store %"class.base::internal::FieldConverterBase.260"* null, %"class.base::internal::FieldConverterBase.260"** %38, align 8
  %39 = bitcast %"class.std::__1::unique_ptr.42"* %33 to i64*
  store i64 %30, i64* %39, align 8
  %40 = getelementptr inbounds %"class.std::__1::unique_ptr.42", %"class.std::__1::unique_ptr.42"* %33, i64 1
  %41 = ptrtoint %"class.std::__1::unique_ptr.42"* %40 to i64
  %42 = bitcast %"class.std::__1::unique_ptr.42"** %32 to i64*
  store i64 %41, i64* %42, align 8
  br label %44

43:                                               ; preds = %25
  call void @_ZNSt3__16vectorINS_10unique_ptrIN4base8internal18FieldConverterBaseIN11google_apis21TeamDriveCapabilitiesEEENS_14default_deleteIS7_EEEENS_9allocatorISA_EEE21__push_back_slow_pathISA_EEvOT_(%"class.std::__1::vector.40"* %5, %"class.std::__1::unique_ptr.42"* nonnull dereferenceable(8) %4) #15
  br label %44

44:                                               ; preds = %37, %43
  %45 = getelementptr inbounds %"class.std::__1::unique_ptr.42", %"class.std::__1::unique_ptr.42"* %4, i64 0, i32 0, i32 0, i32 0
  %46 = load %"class.base::internal::FieldConverterBase.260"*, %"class.base::internal::FieldConverterBase.260"** %45, align 8
  store %"class.base::internal::FieldConverterBase.260"* null, %"class.base::internal::FieldConverterBase.260"** %45, align 8
  %47 = icmp eq %"class.base::internal::FieldConverterBase.260"* %46, null
  br i1 %47, label %53, label %48

48:                                               ; preds = %44
  %49 = bitcast %"class.base::internal::FieldConverterBase.260"* %46 to void (%"class.base::internal::FieldConverterBase.260"*)***
  %50 = load void (%"class.base::internal::FieldConverterBase.260"*)**, void (%"class.base::internal::FieldConverterBase.260"*)*** %49, align 8
  %51 = getelementptr inbounds void (%"class.base::internal::FieldConverterBase.260"*)*, void (%"class.base::internal::FieldConverterBase.260"*)** %50, i64 1
  %52 = load void (%"class.base::internal::FieldConverterBase.260"*)*, void (%"class.base::internal::FieldConverterBase.260"*)** %51, align 8
  call void %52(%"class.base::internal::FieldConverterBase.260"* nonnull %46) #15
  br label %53

53:                                               ; preds = %48, %44
  call void @llvm.lifetime.end.p0i8(i64 8, i8* nonnull %6) #15
  ret void
}

; Function Attrs: nounwind ssp uwtable
define hidden void @_ZN11google_apis17TeamDriveResourceC2Ev(%"class.google_apis::TeamDriveResource"* nocapture) unnamed_addr #0 align 2 {
  %2 = bitcast %"class.google_apis::TeamDriveResource"* %0 to i8*
  call void @llvm.memset.p0i8.i64(i8* align 8 %2, i8 0, i64 61, i1 false)
  ret void
}

; Function Attrs: nounwind ssp uwtable
define hidden void @_ZN11google_apis17TeamDriveResourceD2Ev(%"class.google_apis::TeamDriveResource"* nocapture readonly) unnamed_addr #0 align 2 {
  %2 = getelementptr inbounds %"class.google_apis::TeamDriveResource", %"class.google_apis::TeamDriveResource"* %0, i64 0, i32 1
  %3 = bitcast %"class.std::__1::basic_string"* %2 to %"struct.std::__1::basic_string<char, std::__1::char_traits<char>, std::__1::allocator<char> >::__short"*
  %4 = getelementptr inbounds %"struct.std::__1::basic_string<char, std::__1::char_traits<char>, std::__1::allocator<char> >::__short", %"struct.std::__1::basic_string<char, std::__1::char_traits<char>, std::__1::allocator<char> >::__short"* %3, i64 0, i32 1, i32 0
  %5 = load i8, i8* %4, align 1
  %6 = icmp slt i8 %5, 0
  br i1 %6, label %7, label %10

7:                                                ; preds = %1
  %8 = getelementptr inbounds %"class.std::__1::basic_string", %"class.std::__1::basic_string"* %2, i64 0, i32 0, i32 0, i32 0, i32 0, i32 0, i32 0
  %9 = load i8*, i8** %8, align 8
  tail call void @_ZdlPv(i8* %9) #14
  br label %10

10:                                               ; preds = %1, %7
  %11 = bitcast %"class.google_apis::TeamDriveResource"* %0 to %"struct.std::__1::basic_string<char, std::__1::char_traits<char>, std::__1::allocator<char> >::__short"*
  %12 = getelementptr inbounds %"struct.std::__1::basic_string<char, std::__1::char_traits<char>, std::__1::allocator<char> >::__short", %"struct.std::__1::basic_string<char, std::__1::char_traits<char>, std::__1::allocator<char> >::__short"* %11, i64 0, i32 1, i32 0
  %13 = load i8, i8* %12, align 1
  %14 = icmp slt i8 %13, 0
  br i1 %14, label %15, label %18

15:                                               ; preds = %10
  %16 = getelementptr inbounds %"class.google_apis::TeamDriveResource", %"class.google_apis::TeamDriveResource"* %0, i64 0, i32 0, i32 0, i32 0, i32 0, i32 0, i32 0, i32 0
  %17 = load i8*, i8** %16, align 8
  tail call void @_ZdlPv(i8* %17) #14
  br label %18

18:                                               ; preds = %10, %15
  ret void
}

; Function Attrs: nounwind ssp uwtable
define hidden %"class.google_apis::TeamDriveResource"* @_ZN11google_apis17TeamDriveResource10CreateFromERKN4base5ValueE(%"class.base::Value"* dereferenceable(32)) local_unnamed_addr #0 align 2 {
  %2 = alloca %"class.std::__1::basic_string", align 8
  %3 = alloca %"class.logging::LogMessage", align 8
  %4 = tail call i8* @_Znwm(i64 64) #14
  tail call void @llvm.memset.p0i8.i64(i8* nonnull align 8 %4, i8 0, i64 61, i1 false) #15
  %5 = bitcast %"class.std::__1::basic_string"* %2 to i8*
  call void @llvm.lifetime.start.p0i8(i64 24, i8* nonnull %5) #15
  %6 = bitcast %"class.std::__1::basic_string"* %2 to %"struct.std::__1::basic_string<char, std::__1::char_traits<char>, std::__1::allocator<char> >::__short"*
  %7 = getelementptr inbounds %"struct.std::__1::basic_string<char, std::__1::char_traits<char>, std::__1::allocator<char> >::__short", %"struct.std::__1::basic_string<char, std::__1::char_traits<char>, std::__1::allocator<char> >::__short"* %6, i64 0, i32 1, i32 0
  store i8 15, i8* %7, align 1
  call void @llvm.memcpy.p0i8.p0i8.i64(i8* nonnull align 8 %5, i8* align 16 getelementptr inbounds ([16 x i8], [16 x i8]* @_ZN11google_apis12_GLOBAL__N_114kTeamDriveKindE, i64 0, i64 0), i64 15, i1 false) #15
  %8 = getelementptr inbounds i8, i8* %5, i64 15
  store i8 0, i8* %8, align 1
  %9 = call fastcc zeroext i1 @_ZN11google_apis12_GLOBAL__N_122IsResourceKindExpectedERKN4base5ValueERKNSt3__112basic_stringIcNS5_11char_traitsIcEENS5_9allocatorIcEEEE(%"class.base::Value"* dereferenceable(32) %0, %"class.std::__1::basic_string"* nonnull dereferenceable(24) %2)
  br i1 %9, label %10, label %14

10:                                               ; preds = %1
  %11 = ptrtoint i8* %4 to i64
  %12 = bitcast i8* %4 to %"class.google_apis::TeamDriveResource"*
  %13 = tail call zeroext i1 @_ZN11google_apis17TeamDriveResource5ParseERKN4base5ValueE(%"class.google_apis::TeamDriveResource"* nonnull %12, %"class.base::Value"* dereferenceable(32) %0)
  call void @llvm.lifetime.end.p0i8(i64 24, i8* nonnull %5) #15
  br i1 %13, label %38, label %15

14:                                               ; preds = %1
  call void @llvm.lifetime.end.p0i8(i64 24, i8* nonnull %5) #15
  br label %15

15:                                               ; preds = %10, %14
  %16 = tail call zeroext i1 @_ZN7logging22ShouldCreateLogMessageEi(i32 2) #15
  br i1 %16, label %17, label %22

17:                                               ; preds = %15
  %18 = bitcast %"class.logging::LogMessage"* %3 to i8*
  call void @llvm.lifetime.start.p0i8(i64 304, i8* nonnull %18) #15
  call void @_ZN7logging10LogMessageC1EPKcii(%"class.logging::LogMessage"* nonnull %3, i8* getelementptr inbounds ([44 x i8], [44 x i8]* @.str, i64 0, i64 0), i32 341, i32 2) #15
  %19 = getelementptr inbounds %"class.logging::LogMessage", %"class.logging::LogMessage"* %3, i64 0, i32 2
  %20 = bitcast %"class.std::__1::basic_ostringstream"* %19 to %"class.std::__1::basic_ostream"*
  %21 = call dereferenceable(160) %"class.std::__1::basic_ostream"* @_ZNSt3__124__put_character_sequenceIcNS_11char_traitsIcEEEERNS_13basic_ostreamIT_T0_EES7_PKS4_m(%"class.std::__1::basic_ostream"* dereferenceable(160) %20, i8* getelementptr inbounds ([52 x i8], [52 x i8]* @.str.3, i64 0, i64 0), i64 51) #15
  call void @_ZN7logging10LogMessageD1Ev(%"class.logging::LogMessage"* nonnull %3) #15
  call void @llvm.lifetime.end.p0i8(i64 304, i8* nonnull %18) #15
  br label %22

22:                                               ; preds = %15, %17
  %23 = getelementptr inbounds i8, i8* %4, i64 47
  %24 = load i8, i8* %23, align 1
  %25 = icmp slt i8 %24, 0
  br i1 %25, label %26, label %30

26:                                               ; preds = %22
  %27 = getelementptr inbounds i8, i8* %4, i64 24
  %28 = bitcast i8* %27 to i8**
  %29 = load i8*, i8** %28, align 8
  call void @_ZdlPv(i8* %29) #14
  br label %30

30:                                               ; preds = %26, %22
  %31 = getelementptr inbounds i8, i8* %4, i64 23
  %32 = load i8, i8* %31, align 1
  %33 = icmp slt i8 %32, 0
  br i1 %33, label %34, label %37

34:                                               ; preds = %30
  %35 = bitcast i8* %4 to i8**
  %36 = load i8*, i8** %35, align 8
  call void @_ZdlPv(i8* %36) #14
  br label %37

37:                                               ; preds = %34, %30
  call void @_ZdlPv(i8* nonnull %4) #14
  br label %38

38:                                               ; preds = %10, %37
  %39 = phi i64 [ 0, %37 ], [ %11, %10 ]
  %40 = inttoptr i64 %39 to %"class.google_apis::TeamDriveResource"*
  ret %"class.google_apis::TeamDriveResource"* %40
}

; Function Attrs: nounwind ssp uwtable
define hidden zeroext i1 @_ZN11google_apis17TeamDriveResource5ParseERKN4base5ValueE(%"class.google_apis::TeamDriveResource"*, %"class.base::Value"* dereferenceable(32)) local_unnamed_addr #0 align 2 {
  %3 = alloca %"class.base::JSONValueConverter.54", align 8
  %4 = alloca %"class.logging::LogMessage", align 8
  %5 = bitcast %"class.base::JSONValueConverter.54"* %3 to i8*
  call void @llvm.lifetime.start.p0i8(i64 24, i8* nonnull %5) #15
  %6 = getelementptr inbounds %"class.base::JSONValueConverter.54", %"class.base::JSONValueConverter.54"* %3, i64 0, i32 0, i32 0, i32 0
  %7 = getelementptr inbounds %"class.base::JSONValueConverter.54", %"class.base::JSONValueConverter.54"* %3, i64 0, i32 0, i32 0, i32 1
  call void @llvm.memset.p0i8.i64(i8* nonnull align 8 %5, i8 0, i64 24, i1 false) #15
  call void @_ZN11google_apis17TeamDriveResource21RegisterJSONConverterEPN4base18JSONValueConverterIS0_EE(%"class.base::JSONValueConverter.54"* nonnull %3) #15
  %8 = getelementptr inbounds %"class.base::Value", %"class.base::Value"* %1, i64 0, i32 0, i32 0, i32 0, i32 0, i32 0, i32 0, i32 0, i32 1
  %9 = load i64, i64* %8, align 8
  %10 = trunc i64 %9 to i8
  %11 = icmp eq i8 %10, 6
  br i1 %11, label %12, label %53

12:                                               ; preds = %2
  %13 = bitcast %"class.std::__1::unique_ptr.57"** %7 to i64*
  %14 = load i64, i64* %13, align 8
  %15 = bitcast %"class.base::JSONValueConverter.54"* %3 to i64*
  %16 = load i64, i64* %15, align 8
  %17 = icmp eq i64 %14, %16
  %18 = inttoptr i64 %16 to %"class.std::__1::unique_ptr.57"*
  br i1 %17, label %64, label %19

19:                                               ; preds = %12, %46
  %20 = phi i64 [ %49, %46 ], [ %16, %12 ]
  %21 = phi i64 [ %47, %46 ], [ 0, %12 ]
  %22 = inttoptr i64 %20 to %"class.std::__1::unique_ptr.57"*
  %23 = getelementptr inbounds %"class.std::__1::unique_ptr.57", %"class.std::__1::unique_ptr.57"* %22, i64 %21, i32 0, i32 0, i32 0
  %24 = load %"class.base::internal::FieldConverterBase.266"*, %"class.base::internal::FieldConverterBase.266"** %23, align 8
  %25 = getelementptr inbounds %"class.base::internal::FieldConverterBase.266", %"class.base::internal::FieldConverterBase.266"* %24, i64 0, i32 1
  %26 = bitcast %"class.std::__1::basic_string"* %25 to %"struct.std::__1::basic_string<char, std::__1::char_traits<char>, std::__1::allocator<char> >::__short"*
  %27 = getelementptr inbounds %"struct.std::__1::basic_string<char, std::__1::char_traits<char>, std::__1::allocator<char> >::__short", %"struct.std::__1::basic_string<char, std::__1::char_traits<char>, std::__1::allocator<char> >::__short"* %26, i64 0, i32 1, i32 0
  %28 = load i8, i8* %27, align 1
  %29 = icmp slt i8 %28, 0
  %30 = getelementptr inbounds %"class.std::__1::basic_string", %"class.std::__1::basic_string"* %25, i64 0, i32 0, i32 0, i32 0, i32 0, i32 0, i32 0
  %31 = load i8*, i8** %30, align 8
  %32 = bitcast %"class.std::__1::basic_string"* %25 to i8*
  %33 = select i1 %29, i8* %31, i8* %32
  %34 = getelementptr inbounds %"class.base::internal::FieldConverterBase.266", %"class.base::internal::FieldConverterBase.266"* %24, i64 0, i32 1, i32 0, i32 0, i32 0, i32 0, i32 0, i32 1
  %35 = load i64, i64* %34, align 8
  %36 = zext i8 %28 to i64
  %37 = select i1 %29, i64 %35, i64 %36
  %38 = call %"class.base::Value"* @_ZNK4base5Value8FindPathENS_16BasicStringPieceIcNSt3__111char_traitsIcEEEE(%"class.base::Value"* %1, i8* %33, i64 %37) #15
  %39 = icmp eq %"class.base::Value"* %38, null
  br i1 %39, label %46, label %40

40:                                               ; preds = %19
  %41 = bitcast %"class.base::internal::FieldConverterBase.266"* %24 to i1 (%"class.base::internal::FieldConverterBase.266"*, %"class.base::Value"*, %"class.google_apis::TeamDriveResource"*)***
  %42 = load i1 (%"class.base::internal::FieldConverterBase.266"*, %"class.base::Value"*, %"class.google_apis::TeamDriveResource"*)**, i1 (%"class.base::internal::FieldConverterBase.266"*, %"class.base::Value"*, %"class.google_apis::TeamDriveResource"*)*** %41, align 8
  %43 = getelementptr inbounds i1 (%"class.base::internal::FieldConverterBase.266"*, %"class.base::Value"*, %"class.google_apis::TeamDriveResource"*)*, i1 (%"class.base::internal::FieldConverterBase.266"*, %"class.base::Value"*, %"class.google_apis::TeamDriveResource"*)** %42, i64 2
  %44 = load i1 (%"class.base::internal::FieldConverterBase.266"*, %"class.base::Value"*, %"class.google_apis::TeamDriveResource"*)*, i1 (%"class.base::internal::FieldConverterBase.266"*, %"class.base::Value"*, %"class.google_apis::TeamDriveResource"*)** %43, align 8
  %45 = call zeroext i1 %44(%"class.base::internal::FieldConverterBase.266"* %24, %"class.base::Value"* nonnull dereferenceable(32) %38, %"class.google_apis::TeamDriveResource"* %0) #15
  br i1 %45, label %46, label %53

46:                                               ; preds = %40, %19
  %47 = add nuw i64 %21, 1
  %48 = load i64, i64* %13, align 8
  %49 = load i64, i64* %15, align 8
  %50 = sub i64 %48, %49
  %51 = ashr exact i64 %50, 3
  %52 = icmp ult i64 %47, %51
  br i1 %52, label %19, label %62

53:                                               ; preds = %40, %2
  %54 = call zeroext i1 @_ZN7logging22ShouldCreateLogMessageEi(i32 2) #15
  br i1 %54, label %55, label %60

55:                                               ; preds = %53
  %56 = bitcast %"class.logging::LogMessage"* %4 to i8*
  call void @llvm.lifetime.start.p0i8(i64 304, i8* nonnull %56) #15
  call void @_ZN7logging10LogMessageC1EPKcii(%"class.logging::LogMessage"* nonnull %4, i8* getelementptr inbounds ([44 x i8], [44 x i8]* @.str, i64 0, i64 0), i32 359, i32 2) #15
  %57 = getelementptr inbounds %"class.logging::LogMessage", %"class.logging::LogMessage"* %4, i64 0, i32 2
  %58 = bitcast %"class.std::__1::basic_ostringstream"* %57 to %"class.std::__1::basic_ostream"*
  %59 = call dereferenceable(160) %"class.std::__1::basic_ostream"* @_ZNSt3__124__put_character_sequenceIcNS_11char_traitsIcEEEERNS_13basic_ostreamIT_T0_EES7_PKS4_m(%"class.std::__1::basic_ostream"* dereferenceable(160) %58, i8* getelementptr inbounds ([51 x i8], [51 x i8]* @.str.4, i64 0, i64 0), i64 50) #15
  call void @_ZN7logging10LogMessageD1Ev(%"class.logging::LogMessage"* nonnull %4) #15
  call void @llvm.lifetime.end.p0i8(i64 304, i8* nonnull %56) #15
  br label %60

60:                                               ; preds = %53, %55
  %61 = load %"class.std::__1::unique_ptr.57"*, %"class.std::__1::unique_ptr.57"** %6, align 8
  br label %64

62:                                               ; preds = %46
  %63 = inttoptr i64 %49 to %"class.std::__1::unique_ptr.57"*
  br label %64

64:                                               ; preds = %62, %60, %12
  %65 = phi %"class.std::__1::unique_ptr.57"* [ %61, %60 ], [ %18, %12 ], [ %63, %62 ]
  %66 = phi i1 [ false, %60 ], [ true, %12 ], [ true, %62 ]
  %67 = icmp eq %"class.std::__1::unique_ptr.57"* %65, null
  br i1 %67, label %90, label %68

68:                                               ; preds = %64
  %69 = bitcast %"class.std::__1::unique_ptr.57"* %65 to i8*
  %70 = load %"class.std::__1::unique_ptr.57"*, %"class.std::__1::unique_ptr.57"** %7, align 8
  %71 = icmp eq %"class.std::__1::unique_ptr.57"* %70, %65
  br i1 %71, label %88, label %72

72:                                               ; preds = %68, %83
  %73 = phi %"class.std::__1::unique_ptr.57"* [ %74, %83 ], [ %70, %68 ]
  %74 = getelementptr inbounds %"class.std::__1::unique_ptr.57", %"class.std::__1::unique_ptr.57"* %73, i64 -1
  %75 = getelementptr inbounds %"class.std::__1::unique_ptr.57", %"class.std::__1::unique_ptr.57"* %74, i64 0, i32 0, i32 0, i32 0
  %76 = load %"class.base::internal::FieldConverterBase.266"*, %"class.base::internal::FieldConverterBase.266"** %75, align 8
  store %"class.base::internal::FieldConverterBase.266"* null, %"class.base::internal::FieldConverterBase.266"** %75, align 8
  %77 = icmp eq %"class.base::internal::FieldConverterBase.266"* %76, null
  br i1 %77, label %83, label %78

78:                                               ; preds = %72
  %79 = bitcast %"class.base::internal::FieldConverterBase.266"* %76 to void (%"class.base::internal::FieldConverterBase.266"*)***
  %80 = load void (%"class.base::internal::FieldConverterBase.266"*)**, void (%"class.base::internal::FieldConverterBase.266"*)*** %79, align 8
  %81 = getelementptr inbounds void (%"class.base::internal::FieldConverterBase.266"*)*, void (%"class.base::internal::FieldConverterBase.266"*)** %80, i64 1
  %82 = load void (%"class.base::internal::FieldConverterBase.266"*)*, void (%"class.base::internal::FieldConverterBase.266"*)** %81, align 8
  call void %82(%"class.base::internal::FieldConverterBase.266"* nonnull %76) #15
  br label %83

83:                                               ; preds = %78, %72
  %84 = icmp eq %"class.std::__1::unique_ptr.57"* %74, %65
  br i1 %84, label %85, label %72

85:                                               ; preds = %83
  %86 = bitcast %"class.base::JSONValueConverter.54"* %3 to i8**
  %87 = load i8*, i8** %86, align 8
  br label %88

88:                                               ; preds = %85, %68
  %89 = phi i8* [ %87, %85 ], [ %69, %68 ]
  store %"class.std::__1::unique_ptr.57"* %65, %"class.std::__1::unique_ptr.57"** %7, align 8
  call void @_ZdlPv(i8* %89) #14
  br label %90

90:                                               ; preds = %64, %88
  call void @llvm.lifetime.end.p0i8(i64 24, i8* nonnull %5) #15
  ret i1 %66
}

; Function Attrs: nounwind ssp uwtable
define hidden void @_ZN11google_apis17TeamDriveResource21RegisterJSONConverterEPN4base18JSONValueConverterIS0_EE(%"class.base::JSONValueConverter.54"*) local_unnamed_addr #0 align 2 {
  %2 = alloca %"class.std::__1::basic_string", align 8
  %3 = alloca %"class.std::__1::basic_string", align 8
  %4 = alloca %"class.std::__1::basic_string", align 8
  %5 = bitcast %"class.std::__1::basic_string"* %2 to i8*
  call void @llvm.lifetime.start.p0i8(i64 24, i8* nonnull %5) #15
  %6 = bitcast %"class.std::__1::basic_string"* %2 to %"struct.std::__1::basic_string<char, std::__1::char_traits<char>, std::__1::allocator<char> >::__short"*
  %7 = getelementptr inbounds %"struct.std::__1::basic_string<char, std::__1::char_traits<char>, std::__1::allocator<char> >::__short", %"struct.std::__1::basic_string<char, std::__1::char_traits<char>, std::__1::allocator<char> >::__short"* %6, i64 0, i32 1, i32 0
  store i8 2, i8* %7, align 1
  %8 = bitcast %"class.std::__1::basic_string"* %2 to i16*
  store i16 25705, i16* %8, align 8
  %9 = getelementptr inbounds i8, i8* %5, i64 2
  store i8 0, i8* %9, align 2
  call void @_ZN4base18JSONValueConverterIN11google_apis17TeamDriveResourceEE19RegisterStringFieldERKNSt3__112basic_stringIcNS4_11char_traitsIcEENS4_9allocatorIcEEEEMS2_SA_(%"class.base::JSONValueConverter.54"* %0, %"class.std::__1::basic_string"* nonnull dereferenceable(24) %2, i64 0)
  %10 = load i8, i8* %7, align 1
  %11 = icmp slt i8 %10, 0
  br i1 %11, label %12, label %15

12:                                               ; preds = %1
  %13 = getelementptr inbounds %"class.std::__1::basic_string", %"class.std::__1::basic_string"* %2, i64 0, i32 0, i32 0, i32 0, i32 0, i32 0, i32 0
  %14 = load i8*, i8** %13, align 8
  call void @_ZdlPv(i8* %14) #14
  br label %15

15:                                               ; preds = %1, %12
  call void @llvm.lifetime.end.p0i8(i64 24, i8* nonnull %5) #15
  %16 = bitcast %"class.std::__1::basic_string"* %3 to i8*
  call void @llvm.lifetime.start.p0i8(i64 24, i8* nonnull %16) #15
  %17 = bitcast %"class.std::__1::basic_string"* %3 to %"struct.std::__1::basic_string<char, std::__1::char_traits<char>, std::__1::allocator<char> >::__short"*
  %18 = getelementptr inbounds %"struct.std::__1::basic_string<char, std::__1::char_traits<char>, std::__1::allocator<char> >::__short", %"struct.std::__1::basic_string<char, std::__1::char_traits<char>, std::__1::allocator<char> >::__short"* %17, i64 0, i32 1, i32 0
  store i8 4, i8* %18, align 1
  %19 = bitcast %"class.std::__1::basic_string"* %3 to i32*
  store i32 1701667182, i32* %19, align 8
  %20 = getelementptr inbounds i8, i8* %16, i64 4
  store i8 0, i8* %20, align 4
  call void @_ZN4base18JSONValueConverterIN11google_apis17TeamDriveResourceEE19RegisterStringFieldERKNSt3__112basic_stringIcNS4_11char_traitsIcEENS4_9allocatorIcEEEEMS2_SA_(%"class.base::JSONValueConverter.54"* %0, %"class.std::__1::basic_string"* nonnull dereferenceable(24) %3, i64 24)
  %21 = load i8, i8* %18, align 1
  %22 = icmp slt i8 %21, 0
  br i1 %22, label %23, label %26

23:                                               ; preds = %15
  %24 = getelementptr inbounds %"class.std::__1::basic_string", %"class.std::__1::basic_string"* %3, i64 0, i32 0, i32 0, i32 0, i32 0, i32 0, i32 0
  %25 = load i8*, i8** %24, align 8
  call void @_ZdlPv(i8* %25) #14
  br label %26

26:                                               ; preds = %15, %23
  call void @llvm.lifetime.end.p0i8(i64 24, i8* nonnull %16) #15
  %27 = bitcast %"class.std::__1::basic_string"* %4 to i8*
  call void @llvm.lifetime.start.p0i8(i64 24, i8* nonnull %27) #15
  %28 = bitcast %"class.std::__1::basic_string"* %4 to %"struct.std::__1::basic_string<char, std::__1::char_traits<char>, std::__1::allocator<char> >::__short"*
  %29 = getelementptr inbounds %"struct.std::__1::basic_string<char, std::__1::char_traits<char>, std::__1::allocator<char> >::__short", %"struct.std::__1::basic_string<char, std::__1::char_traits<char>, std::__1::allocator<char> >::__short"* %28, i64 0, i32 1, i32 0
  store i8 12, i8* %29, align 1
  call void @llvm.memcpy.p0i8.p0i8.i64(i8* nonnull align 8 %27, i8* align 1 getelementptr inbounds ([13 x i8], [13 x i8]* @_ZN11google_apis12_GLOBAL__N_113kCapabilitiesE, i64 0, i64 0), i64 12, i1 false) #15
  %30 = getelementptr inbounds i8, i8* %27, i64 12
  store i8 0, i8* %30, align 4
  call void @_ZN4base18JSONValueConverterIN11google_apis17TeamDriveResourceEE19RegisterNestedFieldINS1_21TeamDriveCapabilitiesEEEvRKNSt3__112basic_stringIcNS6_11char_traitsIcEENS6_9allocatorIcEEEEMS2_T_(%"class.base::JSONValueConverter.54"* %0, %"class.std::__1::basic_string"* nonnull dereferenceable(24) %4, i64 48)
  %31 = load i8, i8* %29, align 1
  %32 = icmp slt i8 %31, 0
  br i1 %32, label %33, label %36

33:                                               ; preds = %26
  %34 = getelementptr inbounds %"class.std::__1::basic_string", %"class.std::__1::basic_string"* %4, i64 0, i32 0, i32 0, i32 0, i32 0, i32 0, i32 0
  %35 = load i8*, i8** %34, align 8
  call void @_ZdlPv(i8* %35) #14
  br label %36

36:                                               ; preds = %26, %33
  call void @llvm.lifetime.end.p0i8(i64 24, i8* nonnull %27) #15
  ret void
}

; Function Attrs: nounwind ssp uwtable
define linkonce_odr hidden void @_ZN4base18JSONValueConverterIN11google_apis17TeamDriveResourceEE19RegisterStringFieldERKNSt3__112basic_stringIcNS4_11char_traitsIcEENS4_9allocatorIcEEEEMS2_SA_(%"class.base::JSONValueConverter.54"*, %"class.std::__1::basic_string"* dereferenceable(24), i64) local_unnamed_addr #0 comdat align 2 {
  %4 = alloca %"class.std::__1::unique_ptr.57", align 8
  %5 = getelementptr inbounds %"class.base::JSONValueConverter.54", %"class.base::JSONValueConverter.54"* %0, i64 0, i32 0
  %6 = bitcast %"class.std::__1::unique_ptr.57"* %4 to i8*
  call void @llvm.lifetime.start.p0i8(i64 8, i8* nonnull %6) #15
  %7 = tail call i8* @_Znwm(i64 8) #14
  %8 = bitcast i8* %7 to i32 (...)***
  store i32 (...)** bitcast (i8** getelementptr inbounds ({ [5 x i8*] }, { [5 x i8*] }* @_ZTVN4base8internal19BasicValueConverterINSt3__112basic_stringIcNS2_11char_traitsIcEENS2_9allocatorIcEEEEEE, i64 0, inrange i32 0, i64 2) to i32 (...)**), i32 (...)*** %8, align 8
  %9 = ptrtoint i8* %7 to i64
  %10 = tail call i8* @_Znwm(i64 48) #14
  %11 = bitcast i8* %10 to i32 (...)***
  store i32 (...)** bitcast (i8** getelementptr inbounds ({ [5 x i8*] }, { [5 x i8*] }* @_ZTVN4base8internal18FieldConverterBaseIN11google_apis17TeamDriveResourceEEE, i64 0, inrange i32 0, i64 2) to i32 (...)**), i32 (...)*** %11, align 8
  %12 = getelementptr inbounds i8, i8* %10, i64 8
  %13 = bitcast %"class.std::__1::basic_string"* %1 to %"struct.std::__1::basic_string<char, std::__1::char_traits<char>, std::__1::allocator<char> >::__short"*
  %14 = getelementptr inbounds %"struct.std::__1::basic_string<char, std::__1::char_traits<char>, std::__1::allocator<char> >::__short", %"struct.std::__1::basic_string<char, std::__1::char_traits<char>, std::__1::allocator<char> >::__short"* %13, i64 0, i32 1, i32 0
  %15 = load i8, i8* %14, align 1
  %16 = icmp slt i8 %15, 0
  br i1 %16, label %19, label %17

17:                                               ; preds = %3
  %18 = bitcast %"class.std::__1::basic_string"* %1 to i8*
  tail call void @llvm.memcpy.p0i8.p0i8.i64(i8* align 8 %12, i8* align 8 %18, i64 24, i1 false) #15
  br label %25

19:                                               ; preds = %3
  %20 = bitcast i8* %12 to %"class.std::__1::basic_string"*
  %21 = getelementptr inbounds %"class.std::__1::basic_string", %"class.std::__1::basic_string"* %1, i64 0, i32 0, i32 0, i32 0, i32 0, i32 0, i32 0
  %22 = load i8*, i8** %21, align 8
  %23 = getelementptr inbounds %"class.std::__1::basic_string", %"class.std::__1::basic_string"* %1, i64 0, i32 0, i32 0, i32 0, i32 0, i32 0, i32 1
  %24 = load i64, i64* %23, align 8
  tail call void @_ZNSt3__112basic_stringIcNS_11char_traitsIcEENS_9allocatorIcEEE25__init_copy_ctor_externalEPKcm(%"class.std::__1::basic_string"* %20, i8* %22, i64 %24) #15
  br label %25

25:                                               ; preds = %17, %19
  store i32 (...)** bitcast (i8** getelementptr inbounds ({ [5 x i8*] }, { [5 x i8*] }* @_ZTVN4base8internal14FieldConverterIN11google_apis17TeamDriveResourceENSt3__112basic_stringIcNS4_11char_traitsIcEENS4_9allocatorIcEEEEEE, i64 0, inrange i32 0, i64 2) to i32 (...)**), i32 (...)*** %11, align 8
  %26 = getelementptr inbounds i8, i8* %10, i64 32
  %27 = bitcast i8* %26 to i64*
  store i64 %2, i64* %27, align 8
  %28 = getelementptr inbounds i8, i8* %10, i64 40
  %29 = bitcast i8* %28 to i64*
  store i64 %9, i64* %29, align 8
  %30 = ptrtoint i8* %10 to i64
  %31 = bitcast %"class.std::__1::unique_ptr.57"* %4 to i64*
  store i64 %30, i64* %31, align 8
  %32 = getelementptr inbounds %"class.base::JSONValueConverter.54", %"class.base::JSONValueConverter.54"* %0, i64 0, i32 0, i32 0, i32 1
  %33 = load %"class.std::__1::unique_ptr.57"*, %"class.std::__1::unique_ptr.57"** %32, align 8
  %34 = getelementptr inbounds %"class.base::JSONValueConverter.54", %"class.base::JSONValueConverter.54"* %0, i64 0, i32 0, i32 0, i32 2, i32 0, i32 0
  %35 = load %"class.std::__1::unique_ptr.57"*, %"class.std::__1::unique_ptr.57"** %34, align 8
  %36 = icmp ult %"class.std::__1::unique_ptr.57"* %33, %35
  br i1 %36, label %37, label %43

37:                                               ; preds = %25
  %38 = getelementptr inbounds %"class.std::__1::unique_ptr.57", %"class.std::__1::unique_ptr.57"* %4, i64 0, i32 0, i32 0, i32 0
  store %"class.base::internal::FieldConverterBase.266"* null, %"class.base::internal::FieldConverterBase.266"** %38, align 8
  %39 = bitcast %"class.std::__1::unique_ptr.57"* %33 to i64*
  store i64 %30, i64* %39, align 8
  %40 = getelementptr inbounds %"class.std::__1::unique_ptr.57", %"class.std::__1::unique_ptr.57"* %33, i64 1
  %41 = ptrtoint %"class.std::__1::unique_ptr.57"* %40 to i64
  %42 = bitcast %"class.std::__1::unique_ptr.57"** %32 to i64*
  store i64 %41, i64* %42, align 8
  br label %44

43:                                               ; preds = %25
  call void @_ZNSt3__16vectorINS_10unique_ptrIN4base8internal18FieldConverterBaseIN11google_apis17TeamDriveResourceEEENS_14default_deleteIS7_EEEENS_9allocatorISA_EEE21__push_back_slow_pathISA_EEvOT_(%"class.std::__1::vector.55"* %5, %"class.std::__1::unique_ptr.57"* nonnull dereferenceable(8) %4) #15
  br label %44

44:                                               ; preds = %37, %43
  %45 = getelementptr inbounds %"class.std::__1::unique_ptr.57", %"class.std::__1::unique_ptr.57"* %4, i64 0, i32 0, i32 0, i32 0
  %46 = load %"class.base::internal::FieldConverterBase.266"*, %"class.base::internal::FieldConverterBase.266"** %45, align 8
  store %"class.base::internal::FieldConverterBase.266"* null, %"class.base::internal::FieldConverterBase.266"** %45, align 8
  %47 = icmp eq %"class.base::internal::FieldConverterBase.266"* %46, null
  br i1 %47, label %53, label %48

48:                                               ; preds = %44
  %49 = bitcast %"class.base::internal::FieldConverterBase.266"* %46 to void (%"class.base::internal::FieldConverterBase.266"*)***
  %50 = load void (%"class.base::internal::FieldConverterBase.266"*)**, void (%"class.base::internal::FieldConverterBase.266"*)*** %49, align 8
  %51 = getelementptr inbounds void (%"class.base::internal::FieldConverterBase.266"*)*, void (%"class.base::internal::FieldConverterBase.266"*)** %50, i64 1
  %52 = load void (%"class.base::internal::FieldConverterBase.266"*)*, void (%"class.base::internal::FieldConverterBase.266"*)** %51, align 8
  call void %52(%"class.base::internal::FieldConverterBase.266"* nonnull %46) #15
  br label %53

53:                                               ; preds = %48, %44
  call void @llvm.lifetime.end.p0i8(i64 8, i8* nonnull %6) #15
  ret void
}

; Function Attrs: nounwind ssp uwtable
define linkonce_odr hidden void @_ZN4base18JSONValueConverterIN11google_apis17TeamDriveResourceEE19RegisterNestedFieldINS1_21TeamDriveCapabilitiesEEEvRKNSt3__112basic_stringIcNS6_11char_traitsIcEENS6_9allocatorIcEEEEMS2_T_(%"class.base::JSONValueConverter.54"*, %"class.std::__1::basic_string"* dereferenceable(24), i64) local_unnamed_addr #0 comdat align 2 {
  %4 = alloca %"class.std::__1::unique_ptr.57", align 8
  %5 = getelementptr inbounds %"class.base::JSONValueConverter.54", %"class.base::JSONValueConverter.54"* %0, i64 0, i32 0
  %6 = bitcast %"class.std::__1::unique_ptr.57"* %4 to i8*
  call void @llvm.lifetime.start.p0i8(i64 8, i8* nonnull %6) #15
  %7 = tail call i8* @_Znwm(i64 32) #14
  %8 = bitcast i8* %7 to i32 (...)***
  store i32 (...)** bitcast (i8** getelementptr inbounds ({ [5 x i8*] }, { [5 x i8*] }* @_ZTVN4base8internal20NestedValueConverterIN11google_apis21TeamDriveCapabilitiesEEE, i64 0, inrange i32 0, i64 2) to i32 (...)**), i32 (...)*** %8, align 8
  %9 = getelementptr inbounds i8, i8* %7, i64 8
  %10 = bitcast i8* %9 to %"class.base::JSONValueConverter.39"*
  tail call void @llvm.memset.p0i8.i64(i8* align 8 %9, i8 0, i64 24, i1 false) #15
  tail call void @_ZN11google_apis21TeamDriveCapabilities21RegisterJSONConverterEPN4base18JSONValueConverterIS0_EE(%"class.base::JSONValueConverter.39"* %10) #15
  %11 = ptrtoint i8* %7 to i64
  %12 = tail call i8* @_Znwm(i64 48) #14
  %13 = bitcast i8* %12 to i32 (...)***
  store i32 (...)** bitcast (i8** getelementptr inbounds ({ [5 x i8*] }, { [5 x i8*] }* @_ZTVN4base8internal18FieldConverterBaseIN11google_apis17TeamDriveResourceEEE, i64 0, inrange i32 0, i64 2) to i32 (...)**), i32 (...)*** %13, align 8
  %14 = getelementptr inbounds i8, i8* %12, i64 8
  %15 = bitcast %"class.std::__1::basic_string"* %1 to %"struct.std::__1::basic_string<char, std::__1::char_traits<char>, std::__1::allocator<char> >::__short"*
  %16 = getelementptr inbounds %"struct.std::__1::basic_string<char, std::__1::char_traits<char>, std::__1::allocator<char> >::__short", %"struct.std::__1::basic_string<char, std::__1::char_traits<char>, std::__1::allocator<char> >::__short"* %15, i64 0, i32 1, i32 0
  %17 = load i8, i8* %16, align 1
  %18 = icmp slt i8 %17, 0
  br i1 %18, label %21, label %19

19:                                               ; preds = %3
  %20 = bitcast %"class.std::__1::basic_string"* %1 to i8*
  tail call void @llvm.memcpy.p0i8.p0i8.i64(i8* align 8 %14, i8* align 8 %20, i64 24, i1 false) #15
  br label %27

21:                                               ; preds = %3
  %22 = bitcast i8* %14 to %"class.std::__1::basic_string"*
  %23 = getelementptr inbounds %"class.std::__1::basic_string", %"class.std::__1::basic_string"* %1, i64 0, i32 0, i32 0, i32 0, i32 0, i32 0, i32 0
  %24 = load i8*, i8** %23, align 8
  %25 = getelementptr inbounds %"class.std::__1::basic_string", %"class.std::__1::basic_string"* %1, i64 0, i32 0, i32 0, i32 0, i32 0, i32 0, i32 1
  %26 = load i64, i64* %25, align 8
  tail call void @_ZNSt3__112basic_stringIcNS_11char_traitsIcEENS_9allocatorIcEEE25__init_copy_ctor_externalEPKcm(%"class.std::__1::basic_string"* %22, i8* %24, i64 %26) #15
  br label %27

27:                                               ; preds = %19, %21
  store i32 (...)** bitcast (i8** getelementptr inbounds ({ [5 x i8*] }, { [5 x i8*] }* @_ZTVN4base8internal14FieldConverterIN11google_apis17TeamDriveResourceENS2_21TeamDriveCapabilitiesEEE, i64 0, inrange i32 0, i64 2) to i32 (...)**), i32 (...)*** %13, align 8
  %28 = getelementptr inbounds i8, i8* %12, i64 32
  %29 = bitcast i8* %28 to i64*
  store i64 %2, i64* %29, align 8
  %30 = getelementptr inbounds i8, i8* %12, i64 40
  %31 = bitcast i8* %30 to i64*
  store i64 %11, i64* %31, align 8
  %32 = ptrtoint i8* %12 to i64
  %33 = bitcast %"class.std::__1::unique_ptr.57"* %4 to i64*
  store i64 %32, i64* %33, align 8
  %34 = getelementptr inbounds %"class.base::JSONValueConverter.54", %"class.base::JSONValueConverter.54"* %0, i64 0, i32 0, i32 0, i32 1
  %35 = load %"class.std::__1::unique_ptr.57"*, %"class.std::__1::unique_ptr.57"** %34, align 8
  %36 = getelementptr inbounds %"class.base::JSONValueConverter.54", %"class.base::JSONValueConverter.54"* %0, i64 0, i32 0, i32 0, i32 2, i32 0, i32 0
  %37 = load %"class.std::__1::unique_ptr.57"*, %"class.std::__1::unique_ptr.57"** %36, align 8
  %38 = icmp ult %"class.std::__1::unique_ptr.57"* %35, %37
  br i1 %38, label %39, label %45

39:                                               ; preds = %27
  %40 = getelementptr inbounds %"class.std::__1::unique_ptr.57", %"class.std::__1::unique_ptr.57"* %4, i64 0, i32 0, i32 0, i32 0
  store %"class.base::internal::FieldConverterBase.266"* null, %"class.base::internal::FieldConverterBase.266"** %40, align 8
  %41 = bitcast %"class.std::__1::unique_ptr.57"* %35 to i64*
  store i64 %32, i64* %41, align 8
  %42 = getelementptr inbounds %"class.std::__1::unique_ptr.57", %"class.std::__1::unique_ptr.57"* %35, i64 1
  %43 = ptrtoint %"class.std::__1::unique_ptr.57"* %42 to i64
  %44 = bitcast %"class.std::__1::unique_ptr.57"** %34 to i64*
  store i64 %43, i64* %44, align 8
  br label %46

45:                                               ; preds = %27
  call void @_ZNSt3__16vectorINS_10unique_ptrIN4base8internal18FieldConverterBaseIN11google_apis17TeamDriveResourceEEENS_14default_deleteIS7_EEEENS_9allocatorISA_EEE21__push_back_slow_pathISA_EEvOT_(%"class.std::__1::vector.55"* %5, %"class.std::__1::unique_ptr.57"* nonnull dereferenceable(8) %4) #15
  br label %46

46:                                               ; preds = %39, %45
  %47 = getelementptr inbounds %"class.std::__1::unique_ptr.57", %"class.std::__1::unique_ptr.57"* %4, i64 0, i32 0, i32 0, i32 0
  %48 = load %"class.base::internal::FieldConverterBase.266"*, %"class.base::internal::FieldConverterBase.266"** %47, align 8
  store %"class.base::internal::FieldConverterBase.266"* null, %"class.base::internal::FieldConverterBase.266"** %47, align 8
  %49 = icmp eq %"class.base::internal::FieldConverterBase.266"* %48, null
  br i1 %49, label %55, label %50

50:                                               ; preds = %46
  %51 = bitcast %"class.base::internal::FieldConverterBase.266"* %48 to void (%"class.base::internal::FieldConverterBase.266"*)***
  %52 = load void (%"class.base::internal::FieldConverterBase.266"*)**, void (%"class.base::internal::FieldConverterBase.266"*)*** %51, align 8
  %53 = getelementptr inbounds void (%"class.base::internal::FieldConverterBase.266"*)*, void (%"class.base::internal::FieldConverterBase.266"*)** %52, i64 1
  %54 = load void (%"class.base::internal::FieldConverterBase.266"*)*, void (%"class.base::internal::FieldConverterBase.266"*)** %53, align 8
  call void %54(%"class.base::internal::FieldConverterBase.266"* nonnull %48) #15
  br label %55

55:                                               ; preds = %50, %46
  call void @llvm.lifetime.end.p0i8(i64 8, i8* nonnull %6) #15
  ret void
}

; Function Attrs: nounwind ssp uwtable
define hidden void @_ZN11google_apis13TeamDriveListC2Ev(%"class.google_apis::TeamDriveList"* nocapture) unnamed_addr #0 align 2 {
  %2 = bitcast %"class.google_apis::TeamDriveList"* %0 to i8*
  call void @llvm.memset.p0i8.i64(i8* align 8 %2, i8 0, i64 48, i1 false)
  ret void
}

; Function Attrs: nounwind ssp uwtable
define hidden void @_ZN11google_apis13TeamDriveListD2Ev(%"class.google_apis::TeamDriveList"* nocapture) unnamed_addr #0 align 2 {
  %2 = getelementptr inbounds %"class.google_apis::TeamDriveList", %"class.google_apis::TeamDriveList"* %0, i64 0, i32 1
  %3 = getelementptr inbounds %"class.std::__1::vector.63", %"class.std::__1::vector.63"* %2, i64 0, i32 0, i32 0
  %4 = load %"class.std::__1::unique_ptr.48"*, %"class.std::__1::unique_ptr.48"** %3, align 8
  %5 = icmp eq %"class.std::__1::unique_ptr.48"* %4, null
  br i1 %5, label %43, label %6

6:                                                ; preds = %1
  %7 = bitcast %"class.std::__1::unique_ptr.48"* %4 to i8*
  %8 = getelementptr inbounds %"class.google_apis::TeamDriveList", %"class.google_apis::TeamDriveList"* %0, i64 0, i32 1, i32 0, i32 1
  %9 = load %"class.std::__1::unique_ptr.48"*, %"class.std::__1::unique_ptr.48"** %8, align 8
  %10 = icmp eq %"class.std::__1::unique_ptr.48"* %9, %4
  br i1 %10, label %41, label %11

11:                                               ; preds = %6, %36
  %12 = phi %"class.std::__1::unique_ptr.48"* [ %13, %36 ], [ %9, %6 ]
  %13 = getelementptr inbounds %"class.std::__1::unique_ptr.48", %"class.std::__1::unique_ptr.48"* %12, i64 -1
  %14 = getelementptr inbounds %"class.std::__1::unique_ptr.48", %"class.std::__1::unique_ptr.48"* %13, i64 0, i32 0, i32 0, i32 0
  %15 = load %"class.google_apis::TeamDriveResource"*, %"class.google_apis::TeamDriveResource"** %14, align 8
  store %"class.google_apis::TeamDriveResource"* null, %"class.google_apis::TeamDriveResource"** %14, align 8
  %16 = icmp eq %"class.google_apis::TeamDriveResource"* %15, null
  br i1 %16, label %36, label %17

17:                                               ; preds = %11
  %18 = getelementptr inbounds %"class.google_apis::TeamDriveResource", %"class.google_apis::TeamDriveResource"* %15, i64 0, i32 1
  %19 = bitcast %"class.std::__1::basic_string"* %18 to %"struct.std::__1::basic_string<char, std::__1::char_traits<char>, std::__1::allocator<char> >::__short"*
  %20 = getelementptr inbounds %"struct.std::__1::basic_string<char, std::__1::char_traits<char>, std::__1::allocator<char> >::__short", %"struct.std::__1::basic_string<char, std::__1::char_traits<char>, std::__1::allocator<char> >::__short"* %19, i64 0, i32 1, i32 0
  %21 = load i8, i8* %20, align 1
  %22 = icmp slt i8 %21, 0
  br i1 %22, label %23, label %26

23:                                               ; preds = %17
  %24 = getelementptr inbounds %"class.std::__1::basic_string", %"class.std::__1::basic_string"* %18, i64 0, i32 0, i32 0, i32 0, i32 0, i32 0, i32 0
  %25 = load i8*, i8** %24, align 8
  tail call void @_ZdlPv(i8* %25) #14
  br label %26

26:                                               ; preds = %23, %17
  %27 = bitcast %"class.google_apis::TeamDriveResource"* %15 to %"struct.std::__1::basic_string<char, std::__1::char_traits<char>, std::__1::allocator<char> >::__short"*
  %28 = getelementptr inbounds %"struct.std::__1::basic_string<char, std::__1::char_traits<char>, std::__1::allocator<char> >::__short", %"struct.std::__1::basic_string<char, std::__1::char_traits<char>, std::__1::allocator<char> >::__short"* %27, i64 0, i32 1, i32 0
  %29 = load i8, i8* %28, align 1
  %30 = icmp slt i8 %29, 0
  br i1 %30, label %31, label %34

31:                                               ; preds = %26
  %32 = getelementptr inbounds %"class.google_apis::TeamDriveResource", %"class.google_apis::TeamDriveResource"* %15, i64 0, i32 0, i32 0, i32 0, i32 0, i32 0, i32 0, i32 0
  %33 = load i8*, i8** %32, align 8
  tail call void @_ZdlPv(i8* %33) #14
  br label %34

34:                                               ; preds = %31, %26
  %35 = bitcast %"class.google_apis::TeamDriveResource"* %15 to i8*
  tail call void @_ZdlPv(i8* %35) #14
  br label %36

36:                                               ; preds = %34, %11
  %37 = icmp eq %"class.std::__1::unique_ptr.48"* %13, %4
  br i1 %37, label %38, label %11

38:                                               ; preds = %36
  %39 = bitcast %"class.std::__1::vector.63"* %2 to i8**
  %40 = load i8*, i8** %39, align 8
  br label %41

41:                                               ; preds = %38, %6
  %42 = phi i8* [ %40, %38 ], [ %7, %6 ]
  store %"class.std::__1::unique_ptr.48"* %4, %"class.std::__1::unique_ptr.48"** %8, align 8
  tail call void @_ZdlPv(i8* %42) #14
  br label %43

43:                                               ; preds = %1, %41
  %44 = bitcast %"class.google_apis::TeamDriveList"* %0 to %"struct.std::__1::basic_string<char, std::__1::char_traits<char>, std::__1::allocator<char> >::__short"*
  %45 = getelementptr inbounds %"struct.std::__1::basic_string<char, std::__1::char_traits<char>, std::__1::allocator<char> >::__short", %"struct.std::__1::basic_string<char, std::__1::char_traits<char>, std::__1::allocator<char> >::__short"* %44, i64 0, i32 1, i32 0
  %46 = load i8, i8* %45, align 1
  %47 = icmp slt i8 %46, 0
  br i1 %47, label %48, label %51

48:                                               ; preds = %43
  %49 = getelementptr inbounds %"class.google_apis::TeamDriveList", %"class.google_apis::TeamDriveList"* %0, i64 0, i32 0, i32 0, i32 0, i32 0, i32 0, i32 0, i32 0
  %50 = load i8*, i8** %49, align 8
  tail call void @_ZdlPv(i8* %50) #14
  br label %51

51:                                               ; preds = %43, %48
  ret void
}

; Function Attrs: nounwind ssp uwtable
define hidden void @_ZN11google_apis13TeamDriveList21RegisterJSONConverterEPN4base18JSONValueConverterIS0_EE(%"class.base::JSONValueConverter.70"*) local_unnamed_addr #0 align 2 {
  %2 = alloca %"class.std::__1::basic_string", align 8
  %3 = alloca %"class.std::__1::basic_string", align 8
  %4 = bitcast %"class.std::__1::basic_string"* %2 to i8*
  call void @llvm.lifetime.start.p0i8(i64 24, i8* nonnull %4) #15
  %5 = bitcast %"class.std::__1::basic_string"* %2 to %"struct.std::__1::basic_string<char, std::__1::char_traits<char>, std::__1::allocator<char> >::__short"*
  %6 = getelementptr inbounds %"struct.std::__1::basic_string<char, std::__1::char_traits<char>, std::__1::allocator<char> >::__short", %"struct.std::__1::basic_string<char, std::__1::char_traits<char>, std::__1::allocator<char> >::__short"* %5, i64 0, i32 1, i32 0
  store i8 13, i8* %6, align 1
  call void @llvm.memcpy.p0i8.p0i8.i64(i8* nonnull align 8 %4, i8* align 1 getelementptr inbounds ([14 x i8], [14 x i8]* @_ZN11google_apis12_GLOBAL__N_114kNextPageTokenE, i64 0, i64 0), i64 13, i1 false) #15
  %7 = getelementptr inbounds i8, i8* %4, i64 13
  store i8 0, i8* %7, align 1
  call void @_ZN4base18JSONValueConverterIN11google_apis13TeamDriveListEE19RegisterStringFieldERKNSt3__112basic_stringIcNS4_11char_traitsIcEENS4_9allocatorIcEEEEMS2_SA_(%"class.base::JSONValueConverter.70"* %0, %"class.std::__1::basic_string"* nonnull dereferenceable(24) %2, i64 0)
  %8 = load i8, i8* %6, align 1
  %9 = icmp slt i8 %8, 0
  br i1 %9, label %10, label %13

10:                                               ; preds = %1
  %11 = getelementptr inbounds %"class.std::__1::basic_string", %"class.std::__1::basic_string"* %2, i64 0, i32 0, i32 0, i32 0, i32 0, i32 0, i32 0
  %12 = load i8*, i8** %11, align 8
  call void @_ZdlPv(i8* %12) #14
  br label %13

13:                                               ; preds = %1, %10
  call void @llvm.lifetime.end.p0i8(i64 24, i8* nonnull %4) #15
  %14 = bitcast %"class.std::__1::basic_string"* %3 to i8*
  call void @llvm.lifetime.start.p0i8(i64 24, i8* nonnull %14) #15
  %15 = bitcast %"class.std::__1::basic_string"* %3 to %"struct.std::__1::basic_string<char, std::__1::char_traits<char>, std::__1::allocator<char> >::__short"*
  %16 = getelementptr inbounds %"struct.std::__1::basic_string<char, std::__1::char_traits<char>, std::__1::allocator<char> >::__short", %"struct.std::__1::basic_string<char, std::__1::char_traits<char>, std::__1::allocator<char> >::__short"* %15, i64 0, i32 1, i32 0
  store i8 5, i8* %16, align 1
  call void @llvm.memcpy.p0i8.p0i8.i64(i8* nonnull align 8 %14, i8* align 1 getelementptr inbounds ([6 x i8], [6 x i8]* @_ZN11google_apis12_GLOBAL__N_16kItemsE, i64 0, i64 0), i64 5, i1 false) #15
  %17 = getelementptr inbounds i8, i8* %14, i64 5
  store i8 0, i8* %17, align 1
  call void @_ZN4base18JSONValueConverterIN11google_apis13TeamDriveListEE23RegisterRepeatedMessageINS1_17TeamDriveResourceEEEvRKNSt3__112basic_stringIcNS6_11char_traitsIcEENS6_9allocatorIcEEEEMS2_NS6_6vectorINS6_10unique_ptrIT_NS6_14default_deleteISH_EEEENSA_ISK_EEEE(%"class.base::JSONValueConverter.70"* %0, %"class.std::__1::basic_string"* nonnull dereferenceable(24) %3, i64 24)
  %18 = load i8, i8* %16, align 1
  %19 = icmp slt i8 %18, 0
  br i1 %19, label %20, label %23

20:                                               ; preds = %13
  %21 = getelementptr inbounds %"class.std::__1::basic_string", %"class.std::__1::basic_string"* %3, i64 0, i32 0, i32 0, i32 0, i32 0, i32 0, i32 0
  %22 = load i8*, i8** %21, align 8
  call void @_ZdlPv(i8* %22) #14
  br label %23

23:                                               ; preds = %13, %20
  call void @llvm.lifetime.end.p0i8(i64 24, i8* nonnull %14) #15
  ret void
}

; Function Attrs: nounwind ssp uwtable
define linkonce_odr hidden void @_ZN4base18JSONValueConverterIN11google_apis13TeamDriveListEE19RegisterStringFieldERKNSt3__112basic_stringIcNS4_11char_traitsIcEENS4_9allocatorIcEEEEMS2_SA_(%"class.base::JSONValueConverter.70"*, %"class.std::__1::basic_string"* dereferenceable(24), i64) local_unnamed_addr #0 comdat align 2 {
  %4 = alloca %"class.std::__1::unique_ptr.73", align 8
  %5 = getelementptr inbounds %"class.base::JSONValueConverter.70", %"class.base::JSONValueConverter.70"* %0, i64 0, i32 0
  %6 = bitcast %"class.std::__1::unique_ptr.73"* %4 to i8*
  call void @llvm.lifetime.start.p0i8(i64 8, i8* nonnull %6) #15
  %7 = tail call i8* @_Znwm(i64 8) #14
  %8 = bitcast i8* %7 to i32 (...)***
  store i32 (...)** bitcast (i8** getelementptr inbounds ({ [5 x i8*] }, { [5 x i8*] }* @_ZTVN4base8internal19BasicValueConverterINSt3__112basic_stringIcNS2_11char_traitsIcEENS2_9allocatorIcEEEEEE, i64 0, inrange i32 0, i64 2) to i32 (...)**), i32 (...)*** %8, align 8
  %9 = ptrtoint i8* %7 to i64
  %10 = tail call i8* @_Znwm(i64 48) #14
  %11 = bitcast i8* %10 to i32 (...)***
  store i32 (...)** bitcast (i8** getelementptr inbounds ({ [5 x i8*] }, { [5 x i8*] }* @_ZTVN4base8internal18FieldConverterBaseIN11google_apis13TeamDriveListEEE, i64 0, inrange i32 0, i64 2) to i32 (...)**), i32 (...)*** %11, align 8
  %12 = getelementptr inbounds i8, i8* %10, i64 8
  %13 = bitcast %"class.std::__1::basic_string"* %1 to %"struct.std::__1::basic_string<char, std::__1::char_traits<char>, std::__1::allocator<char> >::__short"*
  %14 = getelementptr inbounds %"struct.std::__1::basic_string<char, std::__1::char_traits<char>, std::__1::allocator<char> >::__short", %"struct.std::__1::basic_string<char, std::__1::char_traits<char>, std::__1::allocator<char> >::__short"* %13, i64 0, i32 1, i32 0
  %15 = load i8, i8* %14, align 1
  %16 = icmp slt i8 %15, 0
  br i1 %16, label %19, label %17

17:                                               ; preds = %3
  %18 = bitcast %"class.std::__1::basic_string"* %1 to i8*
  tail call void @llvm.memcpy.p0i8.p0i8.i64(i8* align 8 %12, i8* align 8 %18, i64 24, i1 false) #15
  br label %25

19:                                               ; preds = %3
  %20 = bitcast i8* %12 to %"class.std::__1::basic_string"*
  %21 = getelementptr inbounds %"class.std::__1::basic_string", %"class.std::__1::basic_string"* %1, i64 0, i32 0, i32 0, i32 0, i32 0, i32 0, i32 0
  %22 = load i8*, i8** %21, align 8
  %23 = getelementptr inbounds %"class.std::__1::basic_string", %"class.std::__1::basic_string"* %1, i64 0, i32 0, i32 0, i32 0, i32 0, i32 0, i32 1
  %24 = load i64, i64* %23, align 8
  tail call void @_ZNSt3__112basic_stringIcNS_11char_traitsIcEENS_9allocatorIcEEE25__init_copy_ctor_externalEPKcm(%"class.std::__1::basic_string"* %20, i8* %22, i64 %24) #15
  br label %25

25:                                               ; preds = %17, %19
  store i32 (...)** bitcast (i8** getelementptr inbounds ({ [5 x i8*] }, { [5 x i8*] }* @_ZTVN4base8internal14FieldConverterIN11google_apis13TeamDriveListENSt3__112basic_stringIcNS4_11char_traitsIcEENS4_9allocatorIcEEEEEE, i64 0, inrange i32 0, i64 2) to i32 (...)**), i32 (...)*** %11, align 8
  %26 = getelementptr inbounds i8, i8* %10, i64 32
  %27 = bitcast i8* %26 to i64*
  store i64 %2, i64* %27, align 8
  %28 = getelementptr inbounds i8, i8* %10, i64 40
  %29 = bitcast i8* %28 to i64*
  store i64 %9, i64* %29, align 8
  %30 = ptrtoint i8* %10 to i64
  %31 = bitcast %"class.std::__1::unique_ptr.73"* %4 to i64*
  store i64 %30, i64* %31, align 8
  %32 = getelementptr inbounds %"class.base::JSONValueConverter.70", %"class.base::JSONValueConverter.70"* %0, i64 0, i32 0, i32 0, i32 1
  %33 = load %"class.std::__1::unique_ptr.73"*, %"class.std::__1::unique_ptr.73"** %32, align 8
  %34 = getelementptr inbounds %"class.base::JSONValueConverter.70", %"class.base::JSONValueConverter.70"* %0, i64 0, i32 0, i32 0, i32 2, i32 0, i32 0
  %35 = load %"class.std::__1::unique_ptr.73"*, %"class.std::__1::unique_ptr.73"** %34, align 8
  %36 = icmp ult %"class.std::__1::unique_ptr.73"* %33, %35
  br i1 %36, label %37, label %43

37:                                               ; preds = %25
  %38 = getelementptr inbounds %"class.std::__1::unique_ptr.73", %"class.std::__1::unique_ptr.73"* %4, i64 0, i32 0, i32 0, i32 0
  store %"class.base::internal::FieldConverterBase.272"* null, %"class.base::internal::FieldConverterBase.272"** %38, align 8
  %39 = bitcast %"class.std::__1::unique_ptr.73"* %33 to i64*
  store i64 %30, i64* %39, align 8
  %40 = getelementptr inbounds %"class.std::__1::unique_ptr.73", %"class.std::__1::unique_ptr.73"* %33, i64 1
  %41 = ptrtoint %"class.std::__1::unique_ptr.73"* %40 to i64
  %42 = bitcast %"class.std::__1::unique_ptr.73"** %32 to i64*
  store i64 %41, i64* %42, align 8
  br label %44

43:                                               ; preds = %25
  call void @_ZNSt3__16vectorINS_10unique_ptrIN4base8internal18FieldConverterBaseIN11google_apis13TeamDriveListEEENS_14default_deleteIS7_EEEENS_9allocatorISA_EEE21__push_back_slow_pathISA_EEvOT_(%"class.std::__1::vector.71"* %5, %"class.std::__1::unique_ptr.73"* nonnull dereferenceable(8) %4) #15
  br label %44

44:                                               ; preds = %37, %43
  %45 = getelementptr inbounds %"class.std::__1::unique_ptr.73", %"class.std::__1::unique_ptr.73"* %4, i64 0, i32 0, i32 0, i32 0
  %46 = load %"class.base::internal::FieldConverterBase.272"*, %"class.base::internal::FieldConverterBase.272"** %45, align 8
  store %"class.base::internal::FieldConverterBase.272"* null, %"class.base::internal::FieldConverterBase.272"** %45, align 8
  %47 = icmp eq %"class.base::internal::FieldConverterBase.272"* %46, null
  br i1 %47, label %53, label %48

48:                                               ; preds = %44
  %49 = bitcast %"class.base::internal::FieldConverterBase.272"* %46 to void (%"class.base::internal::FieldConverterBase.272"*)***
  %50 = load void (%"class.base::internal::FieldConverterBase.272"*)**, void (%"class.base::internal::FieldConverterBase.272"*)*** %49, align 8
  %51 = getelementptr inbounds void (%"class.base::internal::FieldConverterBase.272"*)*, void (%"class.base::internal::FieldConverterBase.272"*)** %50, i64 1
  %52 = load void (%"class.base::internal::FieldConverterBase.272"*)*, void (%"class.base::internal::FieldConverterBase.272"*)** %51, align 8
  call void %52(%"class.base::internal::FieldConverterBase.272"* nonnull %46) #15
  br label %53

53:                                               ; preds = %48, %44
  call void @llvm.lifetime.end.p0i8(i64 8, i8* nonnull %6) #15
  ret void
}

; Function Attrs: nounwind ssp uwtable
define linkonce_odr hidden void @_ZN4base18JSONValueConverterIN11google_apis13TeamDriveListEE23RegisterRepeatedMessageINS1_17TeamDriveResourceEEEvRKNSt3__112basic_stringIcNS6_11char_traitsIcEENS6_9allocatorIcEEEEMS2_NS6_6vectorINS6_10unique_ptrIT_NS6_14default_deleteISH_EEEENSA_ISK_EEEE(%"class.base::JSONValueConverter.70"*, %"class.std::__1::basic_string"* dereferenceable(24), i64) local_unnamed_addr #0 comdat align 2 {
  %4 = alloca %"class.std::__1::unique_ptr.73", align 8
  %5 = getelementptr inbounds %"class.base::JSONValueConverter.70", %"class.base::JSONValueConverter.70"* %0, i64 0, i32 0
  %6 = bitcast %"class.std::__1::unique_ptr.73"* %4 to i8*
  call void @llvm.lifetime.start.p0i8(i64 8, i8* nonnull %6) #15
  %7 = tail call i8* @_Znwm(i64 32) #14
  %8 = bitcast i8* %7 to i32 (...)***
  store i32 (...)** bitcast (i8** getelementptr inbounds ({ [5 x i8*] }, { [5 x i8*] }* @_ZTVN4base8internal24RepeatedMessageConverterIN11google_apis17TeamDriveResourceEEE, i64 0, inrange i32 0, i64 2) to i32 (...)**), i32 (...)*** %8, align 8
  %9 = getelementptr inbounds i8, i8* %7, i64 8
  %10 = bitcast i8* %9 to %"class.base::JSONValueConverter.54"*
  tail call void @llvm.memset.p0i8.i64(i8* align 8 %9, i8 0, i64 24, i1 false) #15
  tail call void @_ZN11google_apis17TeamDriveResource21RegisterJSONConverterEPN4base18JSONValueConverterIS0_EE(%"class.base::JSONValueConverter.54"* %10) #15
  %11 = ptrtoint i8* %7 to i64
  %12 = tail call i8* @_Znwm(i64 48) #14
  %13 = bitcast i8* %12 to i32 (...)***
  store i32 (...)** bitcast (i8** getelementptr inbounds ({ [5 x i8*] }, { [5 x i8*] }* @_ZTVN4base8internal18FieldConverterBaseIN11google_apis13TeamDriveListEEE, i64 0, inrange i32 0, i64 2) to i32 (...)**), i32 (...)*** %13, align 8
  %14 = getelementptr inbounds i8, i8* %12, i64 8
  %15 = bitcast %"class.std::__1::basic_string"* %1 to %"struct.std::__1::basic_string<char, std::__1::char_traits<char>, std::__1::allocator<char> >::__short"*
  %16 = getelementptr inbounds %"struct.std::__1::basic_string<char, std::__1::char_traits<char>, std::__1::allocator<char> >::__short", %"struct.std::__1::basic_string<char, std::__1::char_traits<char>, std::__1::allocator<char> >::__short"* %15, i64 0, i32 1, i32 0
  %17 = load i8, i8* %16, align 1
  %18 = icmp slt i8 %17, 0
  br i1 %18, label %21, label %19

19:                                               ; preds = %3
  %20 = bitcast %"class.std::__1::basic_string"* %1 to i8*
  tail call void @llvm.memcpy.p0i8.p0i8.i64(i8* align 8 %14, i8* align 8 %20, i64 24, i1 false) #15
  br label %27

21:                                               ; preds = %3
  %22 = bitcast i8* %14 to %"class.std::__1::basic_string"*
  %23 = getelementptr inbounds %"class.std::__1::basic_string", %"class.std::__1::basic_string"* %1, i64 0, i32 0, i32 0, i32 0, i32 0, i32 0, i32 0
  %24 = load i8*, i8** %23, align 8
  %25 = getelementptr inbounds %"class.std::__1::basic_string", %"class.std::__1::basic_string"* %1, i64 0, i32 0, i32 0, i32 0, i32 0, i32 0, i32 1
  %26 = load i64, i64* %25, align 8
  tail call void @_ZNSt3__112basic_stringIcNS_11char_traitsIcEENS_9allocatorIcEEE25__init_copy_ctor_externalEPKcm(%"class.std::__1::basic_string"* %22, i8* %24, i64 %26) #15
  br label %27

27:                                               ; preds = %19, %21
  store i32 (...)** bitcast (i8** getelementptr inbounds ({ [5 x i8*] }, { [5 x i8*] }* @_ZTVN4base8internal14FieldConverterIN11google_apis13TeamDriveListENSt3__16vectorINS4_10unique_ptrINS2_17TeamDriveResourceENS4_14default_deleteIS7_EEEENS4_9allocatorISA_EEEEEE, i64 0, inrange i32 0, i64 2) to i32 (...)**), i32 (...)*** %13, align 8
  %28 = getelementptr inbounds i8, i8* %12, i64 32
  %29 = bitcast i8* %28 to i64*
  store i64 %2, i64* %29, align 8
  %30 = getelementptr inbounds i8, i8* %12, i64 40
  %31 = bitcast i8* %30 to i64*
  store i64 %11, i64* %31, align 8
  %32 = ptrtoint i8* %12 to i64
  %33 = bitcast %"class.std::__1::unique_ptr.73"* %4 to i64*
  store i64 %32, i64* %33, align 8
  %34 = getelementptr inbounds %"class.base::JSONValueConverter.70", %"class.base::JSONValueConverter.70"* %0, i64 0, i32 0, i32 0, i32 1
  %35 = load %"class.std::__1::unique_ptr.73"*, %"class.std::__1::unique_ptr.73"** %34, align 8
  %36 = getelementptr inbounds %"class.base::JSONValueConverter.70", %"class.base::JSONValueConverter.70"* %0, i64 0, i32 0, i32 0, i32 2, i32 0, i32 0
  %37 = load %"class.std::__1::unique_ptr.73"*, %"class.std::__1::unique_ptr.73"** %36, align 8
  %38 = icmp ult %"class.std::__1::unique_ptr.73"* %35, %37
  br i1 %38, label %39, label %45

39:                                               ; preds = %27
  %40 = getelementptr inbounds %"class.std::__1::unique_ptr.73", %"class.std::__1::unique_ptr.73"* %4, i64 0, i32 0, i32 0, i32 0
  store %"class.base::internal::FieldConverterBase.272"* null, %"class.base::internal::FieldConverterBase.272"** %40, align 8
  %41 = bitcast %"class.std::__1::unique_ptr.73"* %35 to i64*
  store i64 %32, i64* %41, align 8
  %42 = getelementptr inbounds %"class.std::__1::unique_ptr.73", %"class.std::__1::unique_ptr.73"* %35, i64 1
  %43 = ptrtoint %"class.std::__1::unique_ptr.73"* %42 to i64
  %44 = bitcast %"class.std::__1::unique_ptr.73"** %34 to i64*
  store i64 %43, i64* %44, align 8
  br label %46

45:                                               ; preds = %27
  call void @_ZNSt3__16vectorINS_10unique_ptrIN4base8internal18FieldConverterBaseIN11google_apis13TeamDriveListEEENS_14default_deleteIS7_EEEENS_9allocatorISA_EEE21__push_back_slow_pathISA_EEvOT_(%"class.std::__1::vector.71"* %5, %"class.std::__1::unique_ptr.73"* nonnull dereferenceable(8) %4) #15
  br label %46

46:                                               ; preds = %39, %45
  %47 = getelementptr inbounds %"class.std::__1::unique_ptr.73", %"class.std::__1::unique_ptr.73"* %4, i64 0, i32 0, i32 0, i32 0
  %48 = load %"class.base::internal::FieldConverterBase.272"*, %"class.base::internal::FieldConverterBase.272"** %47, align 8
  store %"class.base::internal::FieldConverterBase.272"* null, %"class.base::internal::FieldConverterBase.272"** %47, align 8
  %49 = icmp eq %"class.base::internal::FieldConverterBase.272"* %48, null
  br i1 %49, label %55, label %50

50:                                               ; preds = %46
  %51 = bitcast %"class.base::internal::FieldConverterBase.272"* %48 to void (%"class.base::internal::FieldConverterBase.272"*)***
  %52 = load void (%"class.base::internal::FieldConverterBase.272"*)**, void (%"class.base::internal::FieldConverterBase.272"*)*** %51, align 8
  %53 = getelementptr inbounds void (%"class.base::internal::FieldConverterBase.272"*)*, void (%"class.base::internal::FieldConverterBase.272"*)** %52, i64 1
  %54 = load void (%"class.base::internal::FieldConverterBase.272"*)*, void (%"class.base::internal::FieldConverterBase.272"*)** %53, align 8
  call void %54(%"class.base::internal::FieldConverterBase.272"* nonnull %48) #15
  br label %55

55:                                               ; preds = %50, %46
  call void @llvm.lifetime.end.p0i8(i64 8, i8* nonnull %6) #15
  ret void
}

; Function Attrs: nounwind ssp uwtable
define hidden zeroext i1 @_ZN11google_apis13TeamDriveList20HasTeamDriveListKindERKN4base5ValueE(%"class.base::Value"* dereferenceable(32)) local_unnamed_addr #0 align 2 {
  %2 = alloca %"class.std::__1::basic_string", align 8
  %3 = bitcast %"class.std::__1::basic_string"* %2 to i8*
  call void @llvm.lifetime.start.p0i8(i64 24, i8* nonnull %3) #15
  %4 = bitcast %"class.std::__1::basic_string"* %2 to %"struct.std::__1::basic_string<char, std::__1::char_traits<char>, std::__1::allocator<char> >::__short"*
  %5 = getelementptr inbounds %"struct.std::__1::basic_string<char, std::__1::char_traits<char>, std::__1::allocator<char> >::__short", %"struct.std::__1::basic_string<char, std::__1::char_traits<char>, std::__1::allocator<char> >::__short"* %4, i64 0, i32 1, i32 0
  store i8 19, i8* %5, align 1
  call void @llvm.memcpy.p0i8.p0i8.i64(i8* nonnull align 8 %3, i8* align 16 getelementptr inbounds ([20 x i8], [20 x i8]* @_ZN11google_apis12_GLOBAL__N_118kTeamDriveListKindE, i64 0, i64 0), i64 19, i1 false) #15
  %6 = getelementptr inbounds i8, i8* %3, i64 19
  store i8 0, i8* %6, align 1
  %7 = call fastcc zeroext i1 @_ZN11google_apis12_GLOBAL__N_122IsResourceKindExpectedERKN4base5ValueERKNSt3__112basic_stringIcNS5_11char_traitsIcEENS5_9allocatorIcEEEE(%"class.base::Value"* dereferenceable(32) %0, %"class.std::__1::basic_string"* nonnull dereferenceable(24) %2)
  call void @llvm.lifetime.end.p0i8(i64 24, i8* nonnull %3) #15
  ret i1 %7
}

; Function Attrs: nounwind ssp uwtable
define hidden %"class.google_apis::TeamDriveList"* @_ZN11google_apis13TeamDriveList10CreateFromERKN4base5ValueE(%"class.base::Value"* dereferenceable(32)) local_unnamed_addr #0 align 2 {
  %2 = alloca %"class.std::__1::basic_string", align 8
  %3 = alloca %"class.logging::LogMessage", align 8
  %4 = tail call i8* @_Znwm(i64 48) #14
  tail call void @llvm.memset.p0i8.i64(i8* nonnull align 8 %4, i8 0, i64 48, i1 false) #15
  %5 = bitcast %"class.std::__1::basic_string"* %2 to i8*
  call void @llvm.lifetime.start.p0i8(i64 24, i8* nonnull %5) #15
  %6 = bitcast %"class.std::__1::basic_string"* %2 to %"struct.std::__1::basic_string<char, std::__1::char_traits<char>, std::__1::allocator<char> >::__short"*
  %7 = getelementptr inbounds %"struct.std::__1::basic_string<char, std::__1::char_traits<char>, std::__1::allocator<char> >::__short", %"struct.std::__1::basic_string<char, std::__1::char_traits<char>, std::__1::allocator<char> >::__short"* %6, i64 0, i32 1, i32 0
  store i8 19, i8* %7, align 1
  call void @llvm.memcpy.p0i8.p0i8.i64(i8* nonnull align 8 %5, i8* align 16 getelementptr inbounds ([20 x i8], [20 x i8]* @_ZN11google_apis12_GLOBAL__N_118kTeamDriveListKindE, i64 0, i64 0), i64 19, i1 false) #15
  %8 = getelementptr inbounds i8, i8* %5, i64 19
  store i8 0, i8* %8, align 1
  %9 = call fastcc zeroext i1 @_ZN11google_apis12_GLOBAL__N_122IsResourceKindExpectedERKN4base5ValueERKNSt3__112basic_stringIcNS5_11char_traitsIcEENS5_9allocatorIcEEEE(%"class.base::Value"* dereferenceable(32) %0, %"class.std::__1::basic_string"* nonnull dereferenceable(24) %2) #15
  call void @llvm.lifetime.end.p0i8(i64 24, i8* nonnull %5) #15
  br i1 %9, label %10, label %14

10:                                               ; preds = %1
  %11 = ptrtoint i8* %4 to i64
  %12 = bitcast i8* %4 to %"class.google_apis::TeamDriveList"*
  %13 = tail call zeroext i1 @_ZN11google_apis13TeamDriveList5ParseERKN4base5ValueE(%"class.google_apis::TeamDriveList"* nonnull %12, %"class.base::Value"* dereferenceable(32) %0)
  br i1 %13, label %23, label %14

14:                                               ; preds = %10, %1
  %15 = tail call zeroext i1 @_ZN7logging22ShouldCreateLogMessageEi(i32 2) #15
  br i1 %15, label %16, label %21

16:                                               ; preds = %14
  %17 = bitcast %"class.logging::LogMessage"* %3 to i8*
  call void @llvm.lifetime.start.p0i8(i64 304, i8* nonnull %17) #15
  call void @_ZN7logging10LogMessageC1EPKcii(%"class.logging::LogMessage"* nonnull %3, i8* getelementptr inbounds ([44 x i8], [44 x i8]* @.str, i64 0, i64 0), i32 391, i32 2) #15
  %18 = getelementptr inbounds %"class.logging::LogMessage", %"class.logging::LogMessage"* %3, i64 0, i32 2
  %19 = bitcast %"class.std::__1::basic_ostringstream"* %18 to %"class.std::__1::basic_ostream"*
  %20 = call dereferenceable(160) %"class.std::__1::basic_ostream"* @_ZNSt3__124__put_character_sequenceIcNS_11char_traitsIcEEEERNS_13basic_ostreamIT_T0_EES7_PKS4_m(%"class.std::__1::basic_ostream"* dereferenceable(160) %19, i8* getelementptr inbounds ([46 x i8], [46 x i8]* @.str.5, i64 0, i64 0), i64 45) #15
  call void @_ZN7logging10LogMessageD1Ev(%"class.logging::LogMessage"* nonnull %3) #15
  call void @llvm.lifetime.end.p0i8(i64 304, i8* nonnull %17) #15
  br label %21

21:                                               ; preds = %14, %16
  %22 = bitcast i8* %4 to %"class.google_apis::TeamDriveList"*
  call void @_ZN11google_apis13TeamDriveListD2Ev(%"class.google_apis::TeamDriveList"* nonnull %22) #15
  call void @_ZdlPv(i8* nonnull %4) #14
  br label %23

23:                                               ; preds = %10, %21
  %24 = phi i64 [ 0, %21 ], [ %11, %10 ]
  %25 = inttoptr i64 %24 to %"class.google_apis::TeamDriveList"*
  ret %"class.google_apis::TeamDriveList"* %25
}

; Function Attrs: nounwind ssp uwtable
define hidden zeroext i1 @_ZN11google_apis13TeamDriveList5ParseERKN4base5ValueE(%"class.google_apis::TeamDriveList"*, %"class.base::Value"* dereferenceable(32)) local_unnamed_addr #0 align 2 {
  %3 = alloca %"class.std::__1::basic_string", align 8
  %4 = alloca %"class.std::__1::basic_string", align 8
  %5 = alloca %"class.base::JSONValueConverter.70", align 8
  %6 = alloca %"class.logging::LogMessage", align 8
  %7 = bitcast %"class.base::JSONValueConverter.70"* %5 to i8*
  call void @llvm.lifetime.start.p0i8(i64 24, i8* nonnull %7) #15
  %8 = getelementptr inbounds %"class.base::JSONValueConverter.70", %"class.base::JSONValueConverter.70"* %5, i64 0, i32 0, i32 0, i32 0
  %9 = getelementptr inbounds %"class.base::JSONValueConverter.70", %"class.base::JSONValueConverter.70"* %5, i64 0, i32 0, i32 0, i32 1
  call void @llvm.memset.p0i8.i64(i8* nonnull align 8 %7, i8 0, i64 24, i1 false) #15
  %10 = bitcast %"class.std::__1::basic_string"* %3 to i8*
  call void @llvm.lifetime.start.p0i8(i64 24, i8* nonnull %10) #15
  %11 = bitcast %"class.std::__1::basic_string"* %3 to %"struct.std::__1::basic_string<char, std::__1::char_traits<char>, std::__1::allocator<char> >::__short"*
  %12 = getelementptr inbounds %"struct.std::__1::basic_string<char, std::__1::char_traits<char>, std::__1::allocator<char> >::__short", %"struct.std::__1::basic_string<char, std::__1::char_traits<char>, std::__1::allocator<char> >::__short"* %11, i64 0, i32 1, i32 0
  store i8 13, i8* %12, align 1
  call void @llvm.memcpy.p0i8.p0i8.i64(i8* nonnull align 8 %10, i8* align 1 getelementptr inbounds ([14 x i8], [14 x i8]* @_ZN11google_apis12_GLOBAL__N_114kNextPageTokenE, i64 0, i64 0), i64 13, i1 false) #15
  %13 = getelementptr inbounds i8, i8* %10, i64 13
  store i8 0, i8* %13, align 1
  call void @_ZN4base18JSONValueConverterIN11google_apis13TeamDriveListEE19RegisterStringFieldERKNSt3__112basic_stringIcNS4_11char_traitsIcEENS4_9allocatorIcEEEEMS2_SA_(%"class.base::JSONValueConverter.70"* nonnull %5, %"class.std::__1::basic_string"* nonnull dereferenceable(24) %3, i64 0) #15
  %14 = load i8, i8* %12, align 1
  %15 = icmp slt i8 %14, 0
  br i1 %15, label %16, label %19

16:                                               ; preds = %2
  %17 = getelementptr inbounds %"class.std::__1::basic_string", %"class.std::__1::basic_string"* %3, i64 0, i32 0, i32 0, i32 0, i32 0, i32 0, i32 0
  %18 = load i8*, i8** %17, align 8
  call void @_ZdlPv(i8* %18) #14
  br label %19

19:                                               ; preds = %16, %2
  call void @llvm.lifetime.end.p0i8(i64 24, i8* nonnull %10) #15
  %20 = bitcast %"class.std::__1::basic_string"* %4 to i8*
  call void @llvm.lifetime.start.p0i8(i64 24, i8* nonnull %20) #15
  %21 = bitcast %"class.std::__1::basic_string"* %4 to %"struct.std::__1::basic_string<char, std::__1::char_traits<char>, std::__1::allocator<char> >::__short"*
  %22 = getelementptr inbounds %"struct.std::__1::basic_string<char, std::__1::char_traits<char>, std::__1::allocator<char> >::__short", %"struct.std::__1::basic_string<char, std::__1::char_traits<char>, std::__1::allocator<char> >::__short"* %21, i64 0, i32 1, i32 0
  store i8 5, i8* %22, align 1
  call void @llvm.memcpy.p0i8.p0i8.i64(i8* nonnull align 8 %20, i8* align 1 getelementptr inbounds ([6 x i8], [6 x i8]* @_ZN11google_apis12_GLOBAL__N_16kItemsE, i64 0, i64 0), i64 5, i1 false) #15
  %23 = getelementptr inbounds i8, i8* %20, i64 5
  store i8 0, i8* %23, align 1
  call void @_ZN4base18JSONValueConverterIN11google_apis13TeamDriveListEE23RegisterRepeatedMessageINS1_17TeamDriveResourceEEEvRKNSt3__112basic_stringIcNS6_11char_traitsIcEENS6_9allocatorIcEEEEMS2_NS6_6vectorINS6_10unique_ptrIT_NS6_14default_deleteISH_EEEENSA_ISK_EEEE(%"class.base::JSONValueConverter.70"* nonnull %5, %"class.std::__1::basic_string"* nonnull dereferenceable(24) %4, i64 24) #15
  %24 = load i8, i8* %22, align 1
  %25 = icmp slt i8 %24, 0
  br i1 %25, label %26, label %29

26:                                               ; preds = %19
  %27 = getelementptr inbounds %"class.std::__1::basic_string", %"class.std::__1::basic_string"* %4, i64 0, i32 0, i32 0, i32 0, i32 0, i32 0, i32 0
  %28 = load i8*, i8** %27, align 8
  call void @_ZdlPv(i8* %28) #14
  br label %29

29:                                               ; preds = %19, %26
  call void @llvm.lifetime.end.p0i8(i64 24, i8* nonnull %20) #15
  %30 = getelementptr inbounds %"class.base::Value", %"class.base::Value"* %1, i64 0, i32 0, i32 0, i32 0, i32 0, i32 0, i32 0, i32 0, i32 1
  %31 = load i64, i64* %30, align 8
  %32 = trunc i64 %31 to i8
  %33 = icmp eq i8 %32, 6
  br i1 %33, label %34, label %75

34:                                               ; preds = %29
  %35 = bitcast %"class.std::__1::unique_ptr.73"** %9 to i64*
  %36 = load i64, i64* %35, align 8
  %37 = bitcast %"class.base::JSONValueConverter.70"* %5 to i64*
  %38 = load i64, i64* %37, align 8
  %39 = icmp eq i64 %36, %38
  %40 = inttoptr i64 %38 to %"class.std::__1::unique_ptr.73"*
  br i1 %39, label %86, label %41

41:                                               ; preds = %34, %68
  %42 = phi i64 [ %71, %68 ], [ %38, %34 ]
  %43 = phi i64 [ %69, %68 ], [ 0, %34 ]
  %44 = inttoptr i64 %42 to %"class.std::__1::unique_ptr.73"*
  %45 = getelementptr inbounds %"class.std::__1::unique_ptr.73", %"class.std::__1::unique_ptr.73"* %44, i64 %43, i32 0, i32 0, i32 0
  %46 = load %"class.base::internal::FieldConverterBase.272"*, %"class.base::internal::FieldConverterBase.272"** %45, align 8
  %47 = getelementptr inbounds %"class.base::internal::FieldConverterBase.272", %"class.base::internal::FieldConverterBase.272"* %46, i64 0, i32 1
  %48 = bitcast %"class.std::__1::basic_string"* %47 to %"struct.std::__1::basic_string<char, std::__1::char_traits<char>, std::__1::allocator<char> >::__short"*
  %49 = getelementptr inbounds %"struct.std::__1::basic_string<char, std::__1::char_traits<char>, std::__1::allocator<char> >::__short", %"struct.std::__1::basic_string<char, std::__1::char_traits<char>, std::__1::allocator<char> >::__short"* %48, i64 0, i32 1, i32 0
  %50 = load i8, i8* %49, align 1
  %51 = icmp slt i8 %50, 0
  %52 = getelementptr inbounds %"class.std::__1::basic_string", %"class.std::__1::basic_string"* %47, i64 0, i32 0, i32 0, i32 0, i32 0, i32 0, i32 0
  %53 = load i8*, i8** %52, align 8
  %54 = bitcast %"class.std::__1::basic_string"* %47 to i8*
  %55 = select i1 %51, i8* %53, i8* %54
  %56 = getelementptr inbounds %"class.base::internal::FieldConverterBase.272", %"class.base::internal::FieldConverterBase.272"* %46, i64 0, i32 1, i32 0, i32 0, i32 0, i32 0, i32 0, i32 1
  %57 = load i64, i64* %56, align 8
  %58 = zext i8 %50 to i64
  %59 = select i1 %51, i64 %57, i64 %58
  %60 = call %"class.base::Value"* @_ZNK4base5Value8FindPathENS_16BasicStringPieceIcNSt3__111char_traitsIcEEEE(%"class.base::Value"* %1, i8* %55, i64 %59) #15
  %61 = icmp eq %"class.base::Value"* %60, null
  br i1 %61, label %68, label %62

62:                                               ; preds = %41
  %63 = bitcast %"class.base::internal::FieldConverterBase.272"* %46 to i1 (%"class.base::internal::FieldConverterBase.272"*, %"class.base::Value"*, %"class.google_apis::TeamDriveList"*)***
  %64 = load i1 (%"class.base::internal::FieldConverterBase.272"*, %"class.base::Value"*, %"class.google_apis::TeamDriveList"*)**, i1 (%"class.base::internal::FieldConverterBase.272"*, %"class.base::Value"*, %"class.google_apis::TeamDriveList"*)*** %63, align 8
  %65 = getelementptr inbounds i1 (%"class.base::internal::FieldConverterBase.272"*, %"class.base::Value"*, %"class.google_apis::TeamDriveList"*)*, i1 (%"class.base::internal::FieldConverterBase.272"*, %"class.base::Value"*, %"class.google_apis::TeamDriveList"*)** %64, i64 2
  %66 = load i1 (%"class.base::internal::FieldConverterBase.272"*, %"class.base::Value"*, %"class.google_apis::TeamDriveList"*)*, i1 (%"class.base::internal::FieldConverterBase.272"*, %"class.base::Value"*, %"class.google_apis::TeamDriveList"*)** %65, align 8
  %67 = call zeroext i1 %66(%"class.base::internal::FieldConverterBase.272"* %46, %"class.base::Value"* nonnull dereferenceable(32) %60, %"class.google_apis::TeamDriveList"* %0) #15
  br i1 %67, label %68, label %75

68:                                               ; preds = %62, %41
  %69 = add nuw i64 %43, 1
  %70 = load i64, i64* %35, align 8
  %71 = load i64, i64* %37, align 8
  %72 = sub i64 %70, %71
  %73 = ashr exact i64 %72, 3
  %74 = icmp ult i64 %69, %73
  br i1 %74, label %41, label %84

75:                                               ; preds = %62, %29
  %76 = call zeroext i1 @_ZN7logging22ShouldCreateLogMessageEi(i32 2) #15
  br i1 %76, label %77, label %82

77:                                               ; preds = %75
  %78 = bitcast %"class.logging::LogMessage"* %6 to i8*
  call void @llvm.lifetime.start.p0i8(i64 304, i8* nonnull %78) #15
  call void @_ZN7logging10LogMessageC1EPKcii(%"class.logging::LogMessage"* nonnull %6, i8* getelementptr inbounds ([44 x i8], [44 x i8]* @.str, i64 0, i64 0), i32 400, i32 2) #15
  %79 = getelementptr inbounds %"class.logging::LogMessage", %"class.logging::LogMessage"* %6, i64 0, i32 2
  %80 = bitcast %"class.std::__1::basic_ostringstream"* %79 to %"class.std::__1::basic_ostream"*
  %81 = call dereferenceable(160) %"class.std::__1::basic_ostream"* @_ZNSt3__124__put_character_sequenceIcNS_11char_traitsIcEEEERNS_13basic_ostreamIT_T0_EES7_PKS4_m(%"class.std::__1::basic_ostream"* dereferenceable(160) %80, i8* getelementptr inbounds ([39 x i8], [39 x i8]* @.str.6, i64 0, i64 0), i64 38) #15
  call void @_ZN7logging10LogMessageD1Ev(%"class.logging::LogMessage"* nonnull %6) #15
  call void @llvm.lifetime.end.p0i8(i64 304, i8* nonnull %78) #15
  br label %82

82:                                               ; preds = %75, %77
  %83 = load %"class.std::__1::unique_ptr.73"*, %"class.std::__1::unique_ptr.73"** %8, align 8
  br label %86

84:                                               ; preds = %68
  %85 = inttoptr i64 %71 to %"class.std::__1::unique_ptr.73"*
  br label %86

86:                                               ; preds = %84, %82, %34
  %87 = phi %"class.std::__1::unique_ptr.73"* [ %83, %82 ], [ %40, %34 ], [ %85, %84 ]
  %88 = phi i1 [ false, %82 ], [ true, %34 ], [ true, %84 ]
  %89 = icmp eq %"class.std::__1::unique_ptr.73"* %87, null
  br i1 %89, label %112, label %90

90:                                               ; preds = %86
  %91 = bitcast %"class.std::__1::unique_ptr.73"* %87 to i8*
  %92 = load %"class.std::__1::unique_ptr.73"*, %"class.std::__1::unique_ptr.73"** %9, align 8
  %93 = icmp eq %"class.std::__1::unique_ptr.73"* %92, %87
  br i1 %93, label %110, label %94

94:                                               ; preds = %90, %105
  %95 = phi %"class.std::__1::unique_ptr.73"* [ %96, %105 ], [ %92, %90 ]
  %96 = getelementptr inbounds %"class.std::__1::unique_ptr.73", %"class.std::__1::unique_ptr.73"* %95, i64 -1
  %97 = getelementptr inbounds %"class.std::__1::unique_ptr.73", %"class.std::__1::unique_ptr.73"* %96, i64 0, i32 0, i32 0, i32 0
  %98 = load %"class.base::internal::FieldConverterBase.272"*, %"class.base::internal::FieldConverterBase.272"** %97, align 8
  store %"class.base::internal::FieldConverterBase.272"* null, %"class.base::internal::FieldConverterBase.272"** %97, align 8
  %99 = icmp eq %"class.base::internal::FieldConverterBase.272"* %98, null
  br i1 %99, label %105, label %100

100:                                              ; preds = %94
  %101 = bitcast %"class.base::internal::FieldConverterBase.272"* %98 to void (%"class.base::internal::FieldConverterBase.272"*)***
  %102 = load void (%"class.base::internal::FieldConverterBase.272"*)**, void (%"class.base::internal::FieldConverterBase.272"*)*** %101, align 8
  %103 = getelementptr inbounds void (%"class.base::internal::FieldConverterBase.272"*)*, void (%"class.base::internal::FieldConverterBase.272"*)** %102, i64 1
  %104 = load void (%"class.base::internal::FieldConverterBase.272"*)*, void (%"class.base::internal::FieldConverterBase.272"*)** %103, align 8
  call void %104(%"class.base::internal::FieldConverterBase.272"* nonnull %98) #15
  br label %105

105:                                              ; preds = %100, %94
  %106 = icmp eq %"class.std::__1::unique_ptr.73"* %96, %87
  br i1 %106, label %107, label %94

107:                                              ; preds = %105
  %108 = bitcast %"class.base::JSONValueConverter.70"* %5 to i8**
  %109 = load i8*, i8** %108, align 8
  br label %110

110:                                              ; preds = %107, %90
  %111 = phi i8* [ %109, %107 ], [ %91, %90 ]
  store %"class.std::__1::unique_ptr.73"* %87, %"class.std::__1::unique_ptr.73"** %9, align 8
  call void @_ZdlPv(i8* %111) #14
  br label %112

112:                                              ; preds = %86, %110
  call void @llvm.lifetime.end.p0i8(i64 24, i8* nonnull %7) #15
  ret i1 %88
}

; Function Attrs: nounwind ssp uwtable
define hidden void @_ZN11google_apis15ParentReferenceC2Ev(%"class.google_apis::ParentReference"* nocapture) unnamed_addr #0 align 2 {
  %2 = bitcast %"class.google_apis::ParentReference"* %0 to i8*
  tail call void @llvm.memset.p0i8.i64(i8* align 8 %2, i8 0, i64 24, i1 false) #15
  ret void
}

; Function Attrs: nounwind ssp uwtable
define hidden void @_ZN11google_apis15ParentReferenceD2Ev(%"class.google_apis::ParentReference"* nocapture readonly) unnamed_addr #0 align 2 {
  %2 = bitcast %"class.google_apis::ParentReference"* %0 to %"struct.std::__1::basic_string<char, std::__1::char_traits<char>, std::__1::allocator<char> >::__short"*
  %3 = getelementptr inbounds %"struct.std::__1::basic_string<char, std::__1::char_traits<char>, std::__1::allocator<char> >::__short", %"struct.std::__1::basic_string<char, std::__1::char_traits<char>, std::__1::allocator<char> >::__short"* %2, i64 0, i32 1, i32 0
  %4 = load i8, i8* %3, align 1
  %5 = icmp slt i8 %4, 0
  br i1 %5, label %6, label %9

6:                                                ; preds = %1
  %7 = getelementptr inbounds %"class.google_apis::ParentReference", %"class.google_apis::ParentReference"* %0, i64 0, i32 0, i32 0, i32 0, i32 0, i32 0, i32 0, i32 0
  %8 = load i8*, i8** %7, align 8
  tail call void @_ZdlPv(i8* %8) #14
  br label %9

9:                                                ; preds = %1, %6
  ret void
}

; Function Attrs: nounwind ssp uwtable
define hidden void @_ZN11google_apis15ParentReference21RegisterJSONConverterEPN4base18JSONValueConverterIS0_EE(%"class.base::JSONValueConverter.85"*) local_unnamed_addr #0 align 2 {
  %2 = alloca %"class.std::__1::basic_string", align 8
  %3 = bitcast %"class.std::__1::basic_string"* %2 to i8*
  call void @llvm.lifetime.start.p0i8(i64 24, i8* nonnull %3) #15
  %4 = bitcast %"class.std::__1::basic_string"* %2 to %"struct.std::__1::basic_string<char, std::__1::char_traits<char>, std::__1::allocator<char> >::__short"*
  %5 = getelementptr inbounds %"struct.std::__1::basic_string<char, std::__1::char_traits<char>, std::__1::allocator<char> >::__short", %"struct.std::__1::basic_string<char, std::__1::char_traits<char>, std::__1::allocator<char> >::__short"* %4, i64 0, i32 1, i32 0
  store i8 2, i8* %5, align 1
  %6 = bitcast %"class.std::__1::basic_string"* %2 to i16*
  store i16 25705, i16* %6, align 8
  %7 = getelementptr inbounds i8, i8* %3, i64 2
  store i8 0, i8* %7, align 2
  call void @_ZN4base18JSONValueConverterIN11google_apis15ParentReferenceEE19RegisterStringFieldERKNSt3__112basic_stringIcNS4_11char_traitsIcEENS4_9allocatorIcEEEEMS2_SA_(%"class.base::JSONValueConverter.85"* %0, %"class.std::__1::basic_string"* nonnull dereferenceable(24) %2, i64 0)
  %8 = load i8, i8* %5, align 1
  %9 = icmp slt i8 %8, 0
  br i1 %9, label %10, label %13

10:                                               ; preds = %1
  %11 = getelementptr inbounds %"class.std::__1::basic_string", %"class.std::__1::basic_string"* %2, i64 0, i32 0, i32 0, i32 0, i32 0, i32 0, i32 0
  %12 = load i8*, i8** %11, align 8
  call void @_ZdlPv(i8* %12) #14
  br label %13

13:                                               ; preds = %1, %10
  call void @llvm.lifetime.end.p0i8(i64 24, i8* nonnull %3) #15
  ret void
}

; Function Attrs: nounwind ssp uwtable
define linkonce_odr hidden void @_ZN4base18JSONValueConverterIN11google_apis15ParentReferenceEE19RegisterStringFieldERKNSt3__112basic_stringIcNS4_11char_traitsIcEENS4_9allocatorIcEEEEMS2_SA_(%"class.base::JSONValueConverter.85"*, %"class.std::__1::basic_string"* dereferenceable(24), i64) local_unnamed_addr #0 comdat align 2 {
  %4 = alloca %"class.std::__1::unique_ptr.88", align 8
  %5 = getelementptr inbounds %"class.base::JSONValueConverter.85", %"class.base::JSONValueConverter.85"* %0, i64 0, i32 0
  %6 = bitcast %"class.std::__1::unique_ptr.88"* %4 to i8*
  call void @llvm.lifetime.start.p0i8(i64 8, i8* nonnull %6) #15
  %7 = tail call i8* @_Znwm(i64 8) #14
  %8 = bitcast i8* %7 to i32 (...)***
  store i32 (...)** bitcast (i8** getelementptr inbounds ({ [5 x i8*] }, { [5 x i8*] }* @_ZTVN4base8internal19BasicValueConverterINSt3__112basic_stringIcNS2_11char_traitsIcEENS2_9allocatorIcEEEEEE, i64 0, inrange i32 0, i64 2) to i32 (...)**), i32 (...)*** %8, align 8
  %9 = ptrtoint i8* %7 to i64
  %10 = tail call i8* @_Znwm(i64 48) #14
  %11 = bitcast i8* %10 to i32 (...)***
  store i32 (...)** bitcast (i8** getelementptr inbounds ({ [5 x i8*] }, { [5 x i8*] }* @_ZTVN4base8internal18FieldConverterBaseIN11google_apis15ParentReferenceEEE, i64 0, inrange i32 0, i64 2) to i32 (...)**), i32 (...)*** %11, align 8
  %12 = getelementptr inbounds i8, i8* %10, i64 8
  %13 = bitcast %"class.std::__1::basic_string"* %1 to %"struct.std::__1::basic_string<char, std::__1::char_traits<char>, std::__1::allocator<char> >::__short"*
  %14 = getelementptr inbounds %"struct.std::__1::basic_string<char, std::__1::char_traits<char>, std::__1::allocator<char> >::__short", %"struct.std::__1::basic_string<char, std::__1::char_traits<char>, std::__1::allocator<char> >::__short"* %13, i64 0, i32 1, i32 0
  %15 = load i8, i8* %14, align 1
  %16 = icmp slt i8 %15, 0
  br i1 %16, label %19, label %17

17:                                               ; preds = %3
  %18 = bitcast %"class.std::__1::basic_string"* %1 to i8*
  tail call void @llvm.memcpy.p0i8.p0i8.i64(i8* align 8 %12, i8* align 8 %18, i64 24, i1 false) #15
  br label %25

19:                                               ; preds = %3
  %20 = bitcast i8* %12 to %"class.std::__1::basic_string"*
  %21 = getelementptr inbounds %"class.std::__1::basic_string", %"class.std::__1::basic_string"* %1, i64 0, i32 0, i32 0, i32 0, i32 0, i32 0, i32 0
  %22 = load i8*, i8** %21, align 8
  %23 = getelementptr inbounds %"class.std::__1::basic_string", %"class.std::__1::basic_string"* %1, i64 0, i32 0, i32 0, i32 0, i32 0, i32 0, i32 1
  %24 = load i64, i64* %23, align 8
  tail call void @_ZNSt3__112basic_stringIcNS_11char_traitsIcEENS_9allocatorIcEEE25__init_copy_ctor_externalEPKcm(%"class.std::__1::basic_string"* %20, i8* %22, i64 %24) #15
  br label %25

25:                                               ; preds = %17, %19
  store i32 (...)** bitcast (i8** getelementptr inbounds ({ [5 x i8*] }, { [5 x i8*] }* @_ZTVN4base8internal14FieldConverterIN11google_apis15ParentReferenceENSt3__112basic_stringIcNS4_11char_traitsIcEENS4_9allocatorIcEEEEEE, i64 0, inrange i32 0, i64 2) to i32 (...)**), i32 (...)*** %11, align 8
  %26 = getelementptr inbounds i8, i8* %10, i64 32
  %27 = bitcast i8* %26 to i64*
  store i64 %2, i64* %27, align 8
  %28 = getelementptr inbounds i8, i8* %10, i64 40
  %29 = bitcast i8* %28 to i64*
  store i64 %9, i64* %29, align 8
  %30 = ptrtoint i8* %10 to i64
  %31 = bitcast %"class.std::__1::unique_ptr.88"* %4 to i64*
  store i64 %30, i64* %31, align 8
  %32 = getelementptr inbounds %"class.base::JSONValueConverter.85", %"class.base::JSONValueConverter.85"* %0, i64 0, i32 0, i32 0, i32 1
  %33 = load %"class.std::__1::unique_ptr.88"*, %"class.std::__1::unique_ptr.88"** %32, align 8
  %34 = getelementptr inbounds %"class.base::JSONValueConverter.85", %"class.base::JSONValueConverter.85"* %0, i64 0, i32 0, i32 0, i32 2, i32 0, i32 0
  %35 = load %"class.std::__1::unique_ptr.88"*, %"class.std::__1::unique_ptr.88"** %34, align 8
  %36 = icmp ult %"class.std::__1::unique_ptr.88"* %33, %35
  br i1 %36, label %37, label %43

37:                                               ; preds = %25
  %38 = getelementptr inbounds %"class.std::__1::unique_ptr.88", %"class.std::__1::unique_ptr.88"* %4, i64 0, i32 0, i32 0, i32 0
  store %"class.base::internal::FieldConverterBase"* null, %"class.base::internal::FieldConverterBase"** %38, align 8
  %39 = bitcast %"class.std::__1::unique_ptr.88"* %33 to i64*
  store i64 %30, i64* %39, align 8
  %40 = getelementptr inbounds %"class.std::__1::unique_ptr.88", %"class.std::__1::unique_ptr.88"* %33, i64 1
  %41 = ptrtoint %"class.std::__1::unique_ptr.88"* %40 to i64
  %42 = bitcast %"class.std::__1::unique_ptr.88"** %32 to i64*
  store i64 %41, i64* %42, align 8
  br label %44

43:                                               ; preds = %25
  call void @_ZNSt3__16vectorINS_10unique_ptrIN4base8internal18FieldConverterBaseIN11google_apis15ParentReferenceEEENS_14default_deleteIS7_EEEENS_9allocatorISA_EEE21__push_back_slow_pathISA_EEvOT_(%"class.std::__1::vector.86"* %5, %"class.std::__1::unique_ptr.88"* nonnull dereferenceable(8) %4) #15
  br label %44

44:                                               ; preds = %37, %43
  %45 = getelementptr inbounds %"class.std::__1::unique_ptr.88", %"class.std::__1::unique_ptr.88"* %4, i64 0, i32 0, i32 0, i32 0
  %46 = load %"class.base::internal::FieldConverterBase"*, %"class.base::internal::FieldConverterBase"** %45, align 8
  store %"class.base::internal::FieldConverterBase"* null, %"class.base::internal::FieldConverterBase"** %45, align 8
  %47 = icmp eq %"class.base::internal::FieldConverterBase"* %46, null
  br i1 %47, label %53, label %48

48:                                               ; preds = %44
  %49 = bitcast %"class.base::internal::FieldConverterBase"* %46 to void (%"class.base::internal::FieldConverterBase"*)***
  %50 = load void (%"class.base::internal::FieldConverterBase"*)**, void (%"class.base::internal::FieldConverterBase"*)*** %49, align 8
  %51 = getelementptr inbounds void (%"class.base::internal::FieldConverterBase"*)*, void (%"class.base::internal::FieldConverterBase"*)** %50, i64 1
  %52 = load void (%"class.base::internal::FieldConverterBase"*)*, void (%"class.base::internal::FieldConverterBase"*)** %51, align 8
  call void %52(%"class.base::internal::FieldConverterBase"* nonnull %46) #15
  br label %53

53:                                               ; preds = %48, %44
  call void @llvm.lifetime.end.p0i8(i64 8, i8* nonnull %6) #15
  ret void
}

; Function Attrs: nounwind ssp uwtable
define hidden %"class.google_apis::ParentReference"* @_ZN11google_apis15ParentReference10CreateFromERKN4base5ValueE(%"class.base::Value"* dereferenceable(32)) local_unnamed_addr #0 align 2 {
  %2 = alloca %"class.std::__1::basic_string", align 8
  %3 = alloca %"class.logging::LogMessage", align 8
  %4 = tail call i8* @_Znwm(i64 24) #14
  tail call void @llvm.memset.p0i8.i64(i8* nonnull align 8 %4, i8 0, i64 24, i1 false) #15
  %5 = bitcast %"class.std::__1::basic_string"* %2 to i8*
  call void @llvm.lifetime.start.p0i8(i64 24, i8* nonnull %5) #15
  %6 = bitcast %"class.std::__1::basic_string"* %2 to %"struct.std::__1::basic_string<char, std::__1::char_traits<char>, std::__1::allocator<char> >::__short"*
  %7 = getelementptr inbounds %"struct.std::__1::basic_string<char, std::__1::char_traits<char>, std::__1::allocator<char> >::__short", %"struct.std::__1::basic_string<char, std::__1::char_traits<char>, std::__1::allocator<char> >::__short"* %6, i64 0, i32 1, i32 0
  store i8 21, i8* %7, align 1
  call void @llvm.memcpy.p0i8.p0i8.i64(i8* nonnull align 8 %5, i8* align 16 getelementptr inbounds ([22 x i8], [22 x i8]* @_ZN11google_apis12_GLOBAL__N_120kParentReferenceKindE, i64 0, i64 0), i64 21, i1 false) #15
  %8 = getelementptr inbounds i8, i8* %5, i64 21
  store i8 0, i8* %8, align 1
  %9 = call fastcc zeroext i1 @_ZN11google_apis12_GLOBAL__N_122IsResourceKindExpectedERKN4base5ValueERKNSt3__112basic_stringIcNS5_11char_traitsIcEENS5_9allocatorIcEEEE(%"class.base::Value"* dereferenceable(32) %0, %"class.std::__1::basic_string"* nonnull dereferenceable(24) %2)
  br i1 %9, label %10, label %14

10:                                               ; preds = %1
  %11 = ptrtoint i8* %4 to i64
  %12 = bitcast i8* %4 to %"class.google_apis::ParentReference"*
  %13 = tail call zeroext i1 @_ZN11google_apis15ParentReference5ParseERKN4base5ValueE(%"class.google_apis::ParentReference"* nonnull %12, %"class.base::Value"* dereferenceable(32) %0)
  call void @llvm.lifetime.end.p0i8(i64 24, i8* nonnull %5) #15
  br i1 %13, label %30, label %15

14:                                               ; preds = %1
  call void @llvm.lifetime.end.p0i8(i64 24, i8* nonnull %5) #15
  br label %15

15:                                               ; preds = %10, %14
  %16 = tail call zeroext i1 @_ZN7logging22ShouldCreateLogMessageEi(i32 2) #15
  br i1 %16, label %17, label %22

17:                                               ; preds = %15
  %18 = bitcast %"class.logging::LogMessage"* %3 to i8*
  call void @llvm.lifetime.start.p0i8(i64 304, i8* nonnull %18) #15
  call void @_ZN7logging10LogMessageC1EPKcii(%"class.logging::LogMessage"* nonnull %3, i8* getelementptr inbounds ([44 x i8], [44 x i8]* @.str, i64 0, i64 0), i32 425, i32 2) #15
  %19 = getelementptr inbounds %"class.logging::LogMessage", %"class.logging::LogMessage"* %3, i64 0, i32 2
  %20 = bitcast %"class.std::__1::basic_ostringstream"* %19 to %"class.std::__1::basic_ostream"*
  %21 = call dereferenceable(160) %"class.std::__1::basic_ostream"* @_ZNSt3__124__put_character_sequenceIcNS_11char_traitsIcEEEERNS_13basic_ostreamIT_T0_EES7_PKS4_m(%"class.std::__1::basic_ostream"* dereferenceable(160) %20, i8* getelementptr inbounds ([47 x i8], [47 x i8]* @.str.7, i64 0, i64 0), i64 46) #15
  call void @_ZN7logging10LogMessageD1Ev(%"class.logging::LogMessage"* nonnull %3) #15
  call void @llvm.lifetime.end.p0i8(i64 304, i8* nonnull %18) #15
  br label %22

22:                                               ; preds = %15, %17
  %23 = getelementptr inbounds i8, i8* %4, i64 23
  %24 = load i8, i8* %23, align 1
  %25 = icmp slt i8 %24, 0
  br i1 %25, label %26, label %29

26:                                               ; preds = %22
  %27 = bitcast i8* %4 to i8**
  %28 = load i8*, i8** %27, align 8
  call void @_ZdlPv(i8* %28) #14
  br label %29

29:                                               ; preds = %26, %22
  call void @_ZdlPv(i8* nonnull %4) #14
  br label %30

30:                                               ; preds = %10, %29
  %31 = phi i64 [ 0, %29 ], [ %11, %10 ]
  %32 = inttoptr i64 %31 to %"class.google_apis::ParentReference"*
  ret %"class.google_apis::ParentReference"* %32
}

; Function Attrs: nounwind ssp uwtable
define hidden zeroext i1 @_ZN11google_apis15ParentReference5ParseERKN4base5ValueE(%"class.google_apis::ParentReference"*, %"class.base::Value"* dereferenceable(32)) local_unnamed_addr #0 align 2 {
  %3 = alloca %"class.std::__1::basic_string", align 8
  %4 = alloca %"class.base::JSONValueConverter.85", align 8
  %5 = alloca %"class.logging::LogMessage", align 8
  %6 = bitcast %"class.base::JSONValueConverter.85"* %4 to i8*
  call void @llvm.lifetime.start.p0i8(i64 24, i8* nonnull %6) #15
  %7 = getelementptr inbounds %"class.base::JSONValueConverter.85", %"class.base::JSONValueConverter.85"* %4, i64 0, i32 0, i32 0, i32 0
  %8 = getelementptr inbounds %"class.base::JSONValueConverter.85", %"class.base::JSONValueConverter.85"* %4, i64 0, i32 0, i32 0, i32 1
  call void @llvm.memset.p0i8.i64(i8* nonnull align 8 %6, i8 0, i64 24, i1 false) #15
  %9 = bitcast %"class.std::__1::basic_string"* %3 to i8*
  call void @llvm.lifetime.start.p0i8(i64 24, i8* nonnull %9) #15
  %10 = bitcast %"class.std::__1::basic_string"* %3 to %"struct.std::__1::basic_string<char, std::__1::char_traits<char>, std::__1::allocator<char> >::__short"*
  %11 = getelementptr inbounds %"struct.std::__1::basic_string<char, std::__1::char_traits<char>, std::__1::allocator<char> >::__short", %"struct.std::__1::basic_string<char, std::__1::char_traits<char>, std::__1::allocator<char> >::__short"* %10, i64 0, i32 1, i32 0
  store i8 2, i8* %11, align 1
  %12 = bitcast %"class.std::__1::basic_string"* %3 to i16*
  store i16 25705, i16* %12, align 8
  %13 = getelementptr inbounds i8, i8* %9, i64 2
  store i8 0, i8* %13, align 2
  call void @_ZN4base18JSONValueConverterIN11google_apis15ParentReferenceEE19RegisterStringFieldERKNSt3__112basic_stringIcNS4_11char_traitsIcEENS4_9allocatorIcEEEEMS2_SA_(%"class.base::JSONValueConverter.85"* nonnull %4, %"class.std::__1::basic_string"* nonnull dereferenceable(24) %3, i64 0) #15
  %14 = load i8, i8* %11, align 1
  %15 = icmp slt i8 %14, 0
  br i1 %15, label %16, label %19

16:                                               ; preds = %2
  %17 = getelementptr inbounds %"class.std::__1::basic_string", %"class.std::__1::basic_string"* %3, i64 0, i32 0, i32 0, i32 0, i32 0, i32 0, i32 0
  %18 = load i8*, i8** %17, align 8
  call void @_ZdlPv(i8* %18) #14
  br label %19

19:                                               ; preds = %2, %16
  call void @llvm.lifetime.end.p0i8(i64 24, i8* nonnull %9) #15
  %20 = getelementptr inbounds %"class.base::Value", %"class.base::Value"* %1, i64 0, i32 0, i32 0, i32 0, i32 0, i32 0, i32 0, i32 0, i32 1
  %21 = load i64, i64* %20, align 8
  %22 = trunc i64 %21 to i8
  %23 = icmp eq i8 %22, 6
  br i1 %23, label %24, label %65

24:                                               ; preds = %19
  %25 = bitcast %"class.std::__1::unique_ptr.88"** %8 to i64*
  %26 = load i64, i64* %25, align 8
  %27 = bitcast %"class.base::JSONValueConverter.85"* %4 to i64*
  %28 = load i64, i64* %27, align 8
  %29 = icmp eq i64 %26, %28
  %30 = inttoptr i64 %28 to %"class.std::__1::unique_ptr.88"*
  br i1 %29, label %76, label %31

31:                                               ; preds = %24, %58
  %32 = phi i64 [ %61, %58 ], [ %28, %24 ]
  %33 = phi i64 [ %59, %58 ], [ 0, %24 ]
  %34 = inttoptr i64 %32 to %"class.std::__1::unique_ptr.88"*
  %35 = getelementptr inbounds %"class.std::__1::unique_ptr.88", %"class.std::__1::unique_ptr.88"* %34, i64 %33, i32 0, i32 0, i32 0
  %36 = load %"class.base::internal::FieldConverterBase"*, %"class.base::internal::FieldConverterBase"** %35, align 8
  %37 = getelementptr inbounds %"class.base::internal::FieldConverterBase", %"class.base::internal::FieldConverterBase"* %36, i64 0, i32 1
  %38 = bitcast %"class.std::__1::basic_string"* %37 to %"struct.std::__1::basic_string<char, std::__1::char_traits<char>, std::__1::allocator<char> >::__short"*
  %39 = getelementptr inbounds %"struct.std::__1::basic_string<char, std::__1::char_traits<char>, std::__1::allocator<char> >::__short", %"struct.std::__1::basic_string<char, std::__1::char_traits<char>, std::__1::allocator<char> >::__short"* %38, i64 0, i32 1, i32 0
  %40 = load i8, i8* %39, align 1
  %41 = icmp slt i8 %40, 0
  %42 = getelementptr inbounds %"class.std::__1::basic_string", %"class.std::__1::basic_string"* %37, i64 0, i32 0, i32 0, i32 0, i32 0, i32 0, i32 0
  %43 = load i8*, i8** %42, align 8
  %44 = bitcast %"class.std::__1::basic_string"* %37 to i8*
  %45 = select i1 %41, i8* %43, i8* %44
  %46 = getelementptr inbounds %"class.base::internal::FieldConverterBase", %"class.base::internal::FieldConverterBase"* %36, i64 0, i32 1, i32 0, i32 0, i32 0, i32 0, i32 0, i32 1
  %47 = load i64, i64* %46, align 8
  %48 = zext i8 %40 to i64
  %49 = select i1 %41, i64 %47, i64 %48
  %50 = call %"class.base::Value"* @_ZNK4base5Value8FindPathENS_16BasicStringPieceIcNSt3__111char_traitsIcEEEE(%"class.base::Value"* %1, i8* %45, i64 %49) #15
  %51 = icmp eq %"class.base::Value"* %50, null
  br i1 %51, label %58, label %52

52:                                               ; preds = %31
  %53 = bitcast %"class.base::internal::FieldConverterBase"* %36 to i1 (%"class.base::internal::FieldConverterBase"*, %"class.base::Value"*, %"class.google_apis::ParentReference"*)***
  %54 = load i1 (%"class.base::internal::FieldConverterBase"*, %"class.base::Value"*, %"class.google_apis::ParentReference"*)**, i1 (%"class.base::internal::FieldConverterBase"*, %"class.base::Value"*, %"class.google_apis::ParentReference"*)*** %53, align 8
  %55 = getelementptr inbounds i1 (%"class.base::internal::FieldConverterBase"*, %"class.base::Value"*, %"class.google_apis::ParentReference"*)*, i1 (%"class.base::internal::FieldConverterBase"*, %"class.base::Value"*, %"class.google_apis::ParentReference"*)** %54, i64 2
  %56 = load i1 (%"class.base::internal::FieldConverterBase"*, %"class.base::Value"*, %"class.google_apis::ParentReference"*)*, i1 (%"class.base::internal::FieldConverterBase"*, %"class.base::Value"*, %"class.google_apis::ParentReference"*)** %55, align 8
  %57 = call zeroext i1 %56(%"class.base::internal::FieldConverterBase"* %36, %"class.base::Value"* nonnull dereferenceable(32) %50, %"class.google_apis::ParentReference"* %0) #15
  br i1 %57, label %58, label %65

58:                                               ; preds = %52, %31
  %59 = add nuw i64 %33, 1
  %60 = load i64, i64* %25, align 8
  %61 = load i64, i64* %27, align 8
  %62 = sub i64 %60, %61
  %63 = ashr exact i64 %62, 3
  %64 = icmp ult i64 %59, %63
  br i1 %64, label %31, label %74

65:                                               ; preds = %52, %19
  %66 = call zeroext i1 @_ZN7logging22ShouldCreateLogMessageEi(i32 2) #15
  br i1 %66, label %67, label %72

67:                                               ; preds = %65
  %68 = bitcast %"class.logging::LogMessage"* %5 to i8*
  call void @llvm.lifetime.start.p0i8(i64 304, i8* nonnull %68) #15
  call void @_ZN7logging10LogMessageC1EPKcii(%"class.logging::LogMessage"* nonnull %5, i8* getelementptr inbounds ([44 x i8], [44 x i8]* @.str, i64 0, i64 0), i32 434, i32 2) #15
  %69 = getelementptr inbounds %"class.logging::LogMessage", %"class.logging::LogMessage"* %5, i64 0, i32 2
  %70 = bitcast %"class.std::__1::basic_ostringstream"* %69 to %"class.std::__1::basic_ostream"*
  %71 = call dereferenceable(160) %"class.std::__1::basic_ostream"* @_ZNSt3__124__put_character_sequenceIcNS_11char_traitsIcEEEERNS_13basic_ostreamIT_T0_EES7_PKS4_m(%"class.std::__1::basic_ostream"* dereferenceable(160) %70, i8* getelementptr inbounds ([41 x i8], [41 x i8]* @.str.8, i64 0, i64 0), i64 40) #15
  call void @_ZN7logging10LogMessageD1Ev(%"class.logging::LogMessage"* nonnull %5) #15
  call void @llvm.lifetime.end.p0i8(i64 304, i8* nonnull %68) #15
  br label %72

72:                                               ; preds = %65, %67
  %73 = load %"class.std::__1::unique_ptr.88"*, %"class.std::__1::unique_ptr.88"** %7, align 8
  br label %76

74:                                               ; preds = %58
  %75 = inttoptr i64 %61 to %"class.std::__1::unique_ptr.88"*
  br label %76

76:                                               ; preds = %74, %72, %24
  %77 = phi %"class.std::__1::unique_ptr.88"* [ %73, %72 ], [ %30, %24 ], [ %75, %74 ]
  %78 = phi i1 [ false, %72 ], [ true, %24 ], [ true, %74 ]
  %79 = icmp eq %"class.std::__1::unique_ptr.88"* %77, null
  br i1 %79, label %102, label %80

80:                                               ; preds = %76
  %81 = bitcast %"class.std::__1::unique_ptr.88"* %77 to i8*
  %82 = load %"class.std::__1::unique_ptr.88"*, %"class.std::__1::unique_ptr.88"** %8, align 8
  %83 = icmp eq %"class.std::__1::unique_ptr.88"* %82, %77
  br i1 %83, label %100, label %84

84:                                               ; preds = %80, %95
  %85 = phi %"class.std::__1::unique_ptr.88"* [ %86, %95 ], [ %82, %80 ]
  %86 = getelementptr inbounds %"class.std::__1::unique_ptr.88", %"class.std::__1::unique_ptr.88"* %85, i64 -1
  %87 = getelementptr inbounds %"class.std::__1::unique_ptr.88", %"class.std::__1::unique_ptr.88"* %86, i64 0, i32 0, i32 0, i32 0
  %88 = load %"class.base::internal::FieldConverterBase"*, %"class.base::internal::FieldConverterBase"** %87, align 8
  store %"class.base::internal::FieldConverterBase"* null, %"class.base::internal::FieldConverterBase"** %87, align 8
  %89 = icmp eq %"class.base::internal::FieldConverterBase"* %88, null
  br i1 %89, label %95, label %90

90:                                               ; preds = %84
  %91 = bitcast %"class.base::internal::FieldConverterBase"* %88 to void (%"class.base::internal::FieldConverterBase"*)***
  %92 = load void (%"class.base::internal::FieldConverterBase"*)**, void (%"class.base::internal::FieldConverterBase"*)*** %91, align 8
  %93 = getelementptr inbounds void (%"class.base::internal::FieldConverterBase"*)*, void (%"class.base::internal::FieldConverterBase"*)** %92, i64 1
  %94 = load void (%"class.base::internal::FieldConverterBase"*)*, void (%"class.base::internal::FieldConverterBase"*)** %93, align 8
  call void %94(%"class.base::internal::FieldConverterBase"* nonnull %88) #15
  br label %95

95:                                               ; preds = %90, %84
  %96 = icmp eq %"class.std::__1::unique_ptr.88"* %86, %77
  br i1 %96, label %97, label %84

97:                                               ; preds = %95
  %98 = bitcast %"class.base::JSONValueConverter.85"* %4 to i8**
  %99 = load i8*, i8** %98, align 8
  br label %100

100:                                              ; preds = %97, %80
  %101 = phi i8* [ %99, %97 ], [ %81, %80 ]
  store %"class.std::__1::unique_ptr.88"* %77, %"class.std::__1::unique_ptr.88"** %8, align 8
  call void @_ZdlPv(i8* %101) #14
  br label %102

102:                                              ; preds = %76, %100
  call void @llvm.lifetime.end.p0i8(i64 24, i8* nonnull %6) #15
  ret i1 %78
}

; Function Attrs: nofree norecurse nounwind ssp uwtable writeonly
define hidden void @_ZN11google_apis24FileResourceCapabilitiesC2Ev(%"class.google_apis::FileResourceCapabilities"* nocapture) unnamed_addr #5 align 2 {
  %2 = getelementptr inbounds %"class.google_apis::FileResourceCapabilities", %"class.google_apis::FileResourceCapabilities"* %0, i64 0, i32 0
  call void @llvm.memset.p0i8.i64(i8* align 1 %2, i8 0, i64 17, i1 false)
  ret void
}

; Function Attrs: nounwind ssp uwtable
define hidden void @_ZN11google_apis24FileResourceCapabilitiesC2ERKS0_(%"class.google_apis::FileResourceCapabilities"* nocapture, %"class.google_apis::FileResourceCapabilities"* nocapture readonly dereferenceable(17)) unnamed_addr #0 align 2 {
  %3 = getelementptr inbounds %"class.google_apis::FileResourceCapabilities", %"class.google_apis::FileResourceCapabilities"* %0, i64 0, i32 0
  %4 = getelementptr inbounds %"class.google_apis::FileResourceCapabilities", %"class.google_apis::FileResourceCapabilities"* %1, i64 0, i32 0
  tail call void @llvm.memcpy.p0i8.p0i8.i64(i8* align 1 %3, i8* align 1 %4, i64 17, i1 false)
  ret void
}

; Function Attrs: norecurse nounwind readnone ssp uwtable
define hidden void @_ZN11google_apis24FileResourceCapabilitiesD2Ev(%"class.google_apis::FileResourceCapabilities"* nocapture) unnamed_addr #6 align 2 {
  ret void
}

; Function Attrs: nounwind ssp uwtable
define hidden void @_ZN11google_apis24FileResourceCapabilities21RegisterJSONConverterEPN4base18JSONValueConverterIS0_EE(%"class.base::JSONValueConverter.100"*) local_unnamed_addr #0 align 2 {
  %2 = alloca %"class.std::__1::basic_string", align 8
  %3 = alloca %"class.std::__1::basic_string", align 8
  %4 = alloca %"class.std::__1::basic_string", align 8
  %5 = alloca %"class.std::__1::basic_string", align 8
  %6 = alloca %"class.std::__1::basic_string", align 8
  %7 = alloca %"class.std::__1::basic_string", align 8
  %8 = alloca %"class.std::__1::basic_string", align 8
  %9 = alloca %"class.std::__1::basic_string", align 8
  %10 = alloca %"class.std::__1::basic_string", align 8
  %11 = alloca %"class.std::__1::basic_string", align 8
  %12 = alloca %"class.std::__1::basic_string", align 8
  %13 = alloca %"class.std::__1::basic_string", align 8
  %14 = alloca %"class.std::__1::basic_string", align 8
  %15 = alloca %"class.std::__1::basic_string", align 8
  %16 = alloca %"class.std::__1::basic_string", align 8
  %17 = alloca %"class.std::__1::basic_string", align 8
  %18 = alloca %"class.std::__1::basic_string", align 8
  %19 = bitcast %"class.std::__1::basic_string"* %2 to i8*
  call void @llvm.lifetime.start.p0i8(i64 24, i8* nonnull %19) #15
  %20 = bitcast %"class.std::__1::basic_string"* %2 to %"struct.std::__1::basic_string<char, std::__1::char_traits<char>, std::__1::allocator<char> >::__short"*
  %21 = getelementptr inbounds %"struct.std::__1::basic_string<char, std::__1::char_traits<char>, std::__1::allocator<char> >::__short", %"struct.std::__1::basic_string<char, std::__1::char_traits<char>, std::__1::allocator<char> >::__short"* %20, i64 0, i32 1, i32 0
  store i8 14, i8* %21, align 1
  call void @llvm.memcpy.p0i8.p0i8.i64(i8* nonnull align 8 %19, i8* align 1 getelementptr inbounds ([15 x i8], [15 x i8]* @_ZN11google_apis12_GLOBAL__N_115kCanAddChildrenE, i64 0, i64 0), i64 14, i1 false) #15
  %22 = getelementptr inbounds i8, i8* %19, i64 14
  store i8 0, i8* %22, align 2
  call void @_ZN4base18JSONValueConverterIN11google_apis24FileResourceCapabilitiesEE17RegisterBoolFieldERKNSt3__112basic_stringIcNS4_11char_traitsIcEENS4_9allocatorIcEEEEMS2_b(%"class.base::JSONValueConverter.100"* %0, %"class.std::__1::basic_string"* nonnull dereferenceable(24) %2, i64 0)
  %23 = load i8, i8* %21, align 1
  %24 = icmp slt i8 %23, 0
  br i1 %24, label %25, label %28

25:                                               ; preds = %1
  %26 = getelementptr inbounds %"class.std::__1::basic_string", %"class.std::__1::basic_string"* %2, i64 0, i32 0, i32 0, i32 0, i32 0, i32 0, i32 0
  %27 = load i8*, i8** %26, align 8
  call void @_ZdlPv(i8* %27) #14
  br label %28

28:                                               ; preds = %1, %25
  call void @llvm.lifetime.end.p0i8(i64 24, i8* nonnull %19) #15
  %29 = bitcast %"class.std::__1::basic_string"* %3 to i8*
  call void @llvm.lifetime.start.p0i8(i64 24, i8* nonnull %29) #15
  %30 = call i8* @_Znwm(i64 32) #14
  %31 = getelementptr inbounds %"class.std::__1::basic_string", %"class.std::__1::basic_string"* %3, i64 0, i32 0, i32 0, i32 0, i32 0, i32 0, i32 0
  store i8* %30, i8** %31, align 8
  %32 = getelementptr inbounds %"class.std::__1::basic_string", %"class.std::__1::basic_string"* %3, i64 0, i32 0, i32 0, i32 0, i32 0, i32 0, i32 1
  %33 = bitcast i64* %32 to <2 x i64>*
  store <2 x i64> <i64 27, i64 -9223372036854775776>, <2 x i64>* %33, align 8
  call void @llvm.memcpy.p0i8.p0i8.i64(i8* nonnull align 1 %30, i8* align 16 getelementptr inbounds ([28 x i8], [28 x i8]* @_ZN11google_apis12_GLOBAL__N_128kCanChangeRestrictedDownloadE, i64 0, i64 0), i64 27, i1 false) #15
  %34 = getelementptr inbounds i8, i8* %30, i64 27
  store i8 0, i8* %34, align 1
  call void @_ZN4base18JSONValueConverterIN11google_apis24FileResourceCapabilitiesEE17RegisterBoolFieldERKNSt3__112basic_stringIcNS4_11char_traitsIcEENS4_9allocatorIcEEEEMS2_b(%"class.base::JSONValueConverter.100"* %0, %"class.std::__1::basic_string"* nonnull dereferenceable(24) %3, i64 1)
  %35 = bitcast %"class.std::__1::basic_string"* %3 to %"struct.std::__1::basic_string<char, std::__1::char_traits<char>, std::__1::allocator<char> >::__short"*
  %36 = getelementptr inbounds %"struct.std::__1::basic_string<char, std::__1::char_traits<char>, std::__1::allocator<char> >::__short", %"struct.std::__1::basic_string<char, std::__1::char_traits<char>, std::__1::allocator<char> >::__short"* %35, i64 0, i32 1, i32 0
  %37 = load i8, i8* %36, align 1
  %38 = icmp slt i8 %37, 0
  br i1 %38, label %39, label %41

39:                                               ; preds = %28
  %40 = load i8*, i8** %31, align 8
  call void @_ZdlPv(i8* %40) #14
  br label %41

41:                                               ; preds = %28, %39
  call void @llvm.lifetime.end.p0i8(i64 24, i8* nonnull %29) #15
  %42 = bitcast %"class.std::__1::basic_string"* %4 to i8*
  call void @llvm.lifetime.start.p0i8(i64 24, i8* nonnull %42) #15
  %43 = bitcast %"class.std::__1::basic_string"* %4 to %"struct.std::__1::basic_string<char, std::__1::char_traits<char>, std::__1::allocator<char> >::__short"*
  %44 = getelementptr inbounds %"struct.std::__1::basic_string<char, std::__1::char_traits<char>, std::__1::allocator<char> >::__short", %"struct.std::__1::basic_string<char, std::__1::char_traits<char>, std::__1::allocator<char> >::__short"* %43, i64 0, i32 1, i32 0
  store i8 10, i8* %44, align 1
  call void @llvm.memcpy.p0i8.p0i8.i64(i8* nonnull align 8 %42, i8* align 1 getelementptr inbounds ([11 x i8], [11 x i8]* @_ZN11google_apis12_GLOBAL__N_111kCanCommentE, i64 0, i64 0), i64 10, i1 false) #15
  %45 = getelementptr inbounds i8, i8* %42, i64 10
  store i8 0, i8* %45, align 2
  call void @_ZN4base18JSONValueConverterIN11google_apis24FileResourceCapabilitiesEE17RegisterBoolFieldERKNSt3__112basic_stringIcNS4_11char_traitsIcEENS4_9allocatorIcEEEEMS2_b(%"class.base::JSONValueConverter.100"* %0, %"class.std::__1::basic_string"* nonnull dereferenceable(24) %4, i64 2)
  %46 = load i8, i8* %44, align 1
  %47 = icmp slt i8 %46, 0
  br i1 %47, label %48, label %51

48:                                               ; preds = %41
  %49 = getelementptr inbounds %"class.std::__1::basic_string", %"class.std::__1::basic_string"* %4, i64 0, i32 0, i32 0, i32 0, i32 0, i32 0, i32 0
  %50 = load i8*, i8** %49, align 8
  call void @_ZdlPv(i8* %50) #14
  br label %51

51:                                               ; preds = %41, %48
  call void @llvm.lifetime.end.p0i8(i64 24, i8* nonnull %42) #15
  %52 = bitcast %"class.std::__1::basic_string"* %5 to i8*
  call void @llvm.lifetime.start.p0i8(i64 24, i8* nonnull %52) #15
  %53 = bitcast %"class.std::__1::basic_string"* %5 to %"struct.std::__1::basic_string<char, std::__1::char_traits<char>, std::__1::allocator<char> >::__short"*
  %54 = getelementptr inbounds %"struct.std::__1::basic_string<char, std::__1::char_traits<char>, std::__1::allocator<char> >::__short", %"struct.std::__1::basic_string<char, std::__1::char_traits<char>, std::__1::allocator<char> >::__short"* %53, i64 0, i32 1, i32 0
  store i8 7, i8* %54, align 1
  call void @llvm.memcpy.p0i8.p0i8.i64(i8* nonnull align 8 %52, i8* align 1 getelementptr inbounds ([8 x i8], [8 x i8]* @_ZN11google_apis12_GLOBAL__N_18kCanCopyE, i64 0, i64 0), i64 7, i1 false) #15
  %55 = getelementptr inbounds i8, i8* %52, i64 7
  store i8 0, i8* %55, align 1
  call void @_ZN4base18JSONValueConverterIN11google_apis24FileResourceCapabilitiesEE17RegisterBoolFieldERKNSt3__112basic_stringIcNS4_11char_traitsIcEENS4_9allocatorIcEEEEMS2_b(%"class.base::JSONValueConverter.100"* %0, %"class.std::__1::basic_string"* nonnull dereferenceable(24) %5, i64 3)
  %56 = load i8, i8* %54, align 1
  %57 = icmp slt i8 %56, 0
  br i1 %57, label %58, label %61

58:                                               ; preds = %51
  %59 = getelementptr inbounds %"class.std::__1::basic_string", %"class.std::__1::basic_string"* %5, i64 0, i32 0, i32 0, i32 0, i32 0, i32 0, i32 0
  %60 = load i8*, i8** %59, align 8
  call void @_ZdlPv(i8* %60) #14
  br label %61

61:                                               ; preds = %51, %58
  call void @llvm.lifetime.end.p0i8(i64 24, i8* nonnull %52) #15
  %62 = bitcast %"class.std::__1::basic_string"* %6 to i8*
  call void @llvm.lifetime.start.p0i8(i64 24, i8* nonnull %62) #15
  %63 = bitcast %"class.std::__1::basic_string"* %6 to %"struct.std::__1::basic_string<char, std::__1::char_traits<char>, std::__1::allocator<char> >::__short"*
  %64 = getelementptr inbounds %"struct.std::__1::basic_string<char, std::__1::char_traits<char>, std::__1::allocator<char> >::__short", %"struct.std::__1::basic_string<char, std::__1::char_traits<char>, std::__1::allocator<char> >::__short"* %63, i64 0, i32 1, i32 0
  store i8 9, i8* %64, align 1
  call void @llvm.memcpy.p0i8.p0i8.i64(i8* nonnull align 8 %62, i8* align 1 getelementptr inbounds ([10 x i8], [10 x i8]* @_ZN11google_apis12_GLOBAL__N_110kCanDeleteE, i64 0, i64 0), i64 9, i1 false) #15
  %65 = getelementptr inbounds i8, i8* %62, i64 9
  store i8 0, i8* %65, align 1
  call void @_ZN4base18JSONValueConverterIN11google_apis24FileResourceCapabilitiesEE17RegisterBoolFieldERKNSt3__112basic_stringIcNS4_11char_traitsIcEENS4_9allocatorIcEEEEMS2_b(%"class.base::JSONValueConverter.100"* %0, %"class.std::__1::basic_string"* nonnull dereferenceable(24) %6, i64 4)
  %66 = load i8, i8* %64, align 1
  %67 = icmp slt i8 %66, 0
  br i1 %67, label %68, label %71

68:                                               ; preds = %61
  %69 = getelementptr inbounds %"class.std::__1::basic_string", %"class.std::__1::basic_string"* %6, i64 0, i32 0, i32 0, i32 0, i32 0, i32 0, i32 0
  %70 = load i8*, i8** %69, align 8
  call void @_ZdlPv(i8* %70) #14
  br label %71

71:                                               ; preds = %61, %68
  call void @llvm.lifetime.end.p0i8(i64 24, i8* nonnull %62) #15
  %72 = bitcast %"class.std::__1::basic_string"* %7 to i8*
  call void @llvm.lifetime.start.p0i8(i64 24, i8* nonnull %72) #15
  %73 = bitcast %"class.std::__1::basic_string"* %7 to %"struct.std::__1::basic_string<char, std::__1::char_traits<char>, std::__1::allocator<char> >::__short"*
  %74 = getelementptr inbounds %"struct.std::__1::basic_string<char, std::__1::char_traits<char>, std::__1::allocator<char> >::__short", %"struct.std::__1::basic_string<char, std::__1::char_traits<char>, std::__1::allocator<char> >::__short"* %73, i64 0, i32 1, i32 0
  store i8 11, i8* %74, align 1
  call void @llvm.memcpy.p0i8.p0i8.i64(i8* nonnull align 8 %72, i8* align 1 getelementptr inbounds ([12 x i8], [12 x i8]* @_ZN11google_apis12_GLOBAL__N_112kCanDownloadE, i64 0, i64 0), i64 11, i1 false) #15
  %75 = getelementptr inbounds i8, i8* %72, i64 11
  store i8 0, i8* %75, align 1
  call void @_ZN4base18JSONValueConverterIN11google_apis24FileResourceCapabilitiesEE17RegisterBoolFieldERKNSt3__112basic_stringIcNS4_11char_traitsIcEENS4_9allocatorIcEEEEMS2_b(%"class.base::JSONValueConverter.100"* %0, %"class.std::__1::basic_string"* nonnull dereferenceable(24) %7, i64 5)
  %76 = load i8, i8* %74, align 1
  %77 = icmp slt i8 %76, 0
  br i1 %77, label %78, label %81

78:                                               ; preds = %71
  %79 = getelementptr inbounds %"class.std::__1::basic_string", %"class.std::__1::basic_string"* %7, i64 0, i32 0, i32 0, i32 0, i32 0, i32 0, i32 0
  %80 = load i8*, i8** %79, align 8
  call void @_ZdlPv(i8* %80) #14
  br label %81

81:                                               ; preds = %71, %78
  call void @llvm.lifetime.end.p0i8(i64 24, i8* nonnull %72) #15
  %82 = bitcast %"class.std::__1::basic_string"* %8 to i8*
  call void @llvm.lifetime.start.p0i8(i64 24, i8* nonnull %82) #15
  %83 = bitcast %"class.std::__1::basic_string"* %8 to %"struct.std::__1::basic_string<char, std::__1::char_traits<char>, std::__1::allocator<char> >::__short"*
  %84 = getelementptr inbounds %"struct.std::__1::basic_string<char, std::__1::char_traits<char>, std::__1::allocator<char> >::__short", %"struct.std::__1::basic_string<char, std::__1::char_traits<char>, std::__1::allocator<char> >::__short"* %83, i64 0, i32 1, i32 0
  store i8 7, i8* %84, align 1
  call void @llvm.memcpy.p0i8.p0i8.i64(i8* nonnull align 8 %82, i8* align 1 getelementptr inbounds ([8 x i8], [8 x i8]* @_ZN11google_apis12_GLOBAL__N_18kCanEditE, i64 0, i64 0), i64 7, i1 false) #15
  %85 = getelementptr inbounds i8, i8* %82, i64 7
  store i8 0, i8* %85, align 1
  call void @_ZN4base18JSONValueConverterIN11google_apis24FileResourceCapabilitiesEE17RegisterBoolFieldERKNSt3__112basic_stringIcNS4_11char_traitsIcEENS4_9allocatorIcEEEEMS2_b(%"class.base::JSONValueConverter.100"* %0, %"class.std::__1::basic_string"* nonnull dereferenceable(24) %8, i64 6)
  %86 = load i8, i8* %84, align 1
  %87 = icmp slt i8 %86, 0
  br i1 %87, label %88, label %91

88:                                               ; preds = %81
  %89 = getelementptr inbounds %"class.std::__1::basic_string", %"class.std::__1::basic_string"* %8, i64 0, i32 0, i32 0, i32 0, i32 0, i32 0, i32 0
  %90 = load i8*, i8** %89, align 8
  call void @_ZdlPv(i8* %90) #14
  br label %91

91:                                               ; preds = %81, %88
  call void @llvm.lifetime.end.p0i8(i64 24, i8* nonnull %82) #15
  %92 = bitcast %"class.std::__1::basic_string"* %9 to i8*
  call void @llvm.lifetime.start.p0i8(i64 24, i8* nonnull %92) #15
  %93 = bitcast %"class.std::__1::basic_string"* %9 to %"struct.std::__1::basic_string<char, std::__1::char_traits<char>, std::__1::allocator<char> >::__short"*
  %94 = getelementptr inbounds %"struct.std::__1::basic_string<char, std::__1::char_traits<char>, std::__1::allocator<char> >::__short", %"struct.std::__1::basic_string<char, std::__1::char_traits<char>, std::__1::allocator<char> >::__short"* %93, i64 0, i32 1, i32 0
  store i8 15, i8* %94, align 1
  call void @llvm.memcpy.p0i8.p0i8.i64(i8* nonnull align 8 %92, i8* align 16 getelementptr inbounds ([16 x i8], [16 x i8]* @_ZN11google_apis12_GLOBAL__N_116kCanListChildrenE, i64 0, i64 0), i64 15, i1 false) #15
  %95 = getelementptr inbounds i8, i8* %92, i64 15
  store i8 0, i8* %95, align 1
  call void @_ZN4base18JSONValueConverterIN11google_apis24FileResourceCapabilitiesEE17RegisterBoolFieldERKNSt3__112basic_stringIcNS4_11char_traitsIcEENS4_9allocatorIcEEEEMS2_b(%"class.base::JSONValueConverter.100"* %0, %"class.std::__1::basic_string"* nonnull dereferenceable(24) %9, i64 7)
  %96 = load i8, i8* %94, align 1
  %97 = icmp slt i8 %96, 0
  br i1 %97, label %98, label %101

98:                                               ; preds = %91
  %99 = getelementptr inbounds %"class.std::__1::basic_string", %"class.std::__1::basic_string"* %9, i64 0, i32 0, i32 0, i32 0, i32 0, i32 0, i32 0
  %100 = load i8*, i8** %99, align 8
  call void @_ZdlPv(i8* %100) #14
  br label %101

101:                                              ; preds = %91, %98
  call void @llvm.lifetime.end.p0i8(i64 24, i8* nonnull %92) #15
  %102 = bitcast %"class.std::__1::basic_string"* %10 to i8*
  call void @llvm.lifetime.start.p0i8(i64 24, i8* nonnull %102) #15
  %103 = call i8* @_Znwm(i64 32) #14
  %104 = getelementptr inbounds %"class.std::__1::basic_string", %"class.std::__1::basic_string"* %10, i64 0, i32 0, i32 0, i32 0, i32 0, i32 0, i32 0
  store i8* %103, i8** %104, align 8
  %105 = getelementptr inbounds %"class.std::__1::basic_string", %"class.std::__1::basic_string"* %10, i64 0, i32 0, i32 0, i32 0, i32 0, i32 0, i32 1
  %106 = bitcast i64* %105 to <2 x i64>*
  store <2 x i64> <i64 24, i64 -9223372036854775776>, <2 x i64>* %106, align 8
  call void @llvm.memcpy.p0i8.p0i8.i64(i8* nonnull align 1 %103, i8* align 16 getelementptr inbounds ([25 x i8], [25 x i8]* @_ZN11google_apis12_GLOBAL__N_125kCanMoveItemIntoTeamDriveE, i64 0, i64 0), i64 24, i1 false) #15
  %107 = getelementptr inbounds i8, i8* %103, i64 24
  store i8 0, i8* %107, align 1
  call void @_ZN4base18JSONValueConverterIN11google_apis24FileResourceCapabilitiesEE17RegisterBoolFieldERKNSt3__112basic_stringIcNS4_11char_traitsIcEENS4_9allocatorIcEEEEMS2_b(%"class.base::JSONValueConverter.100"* %0, %"class.std::__1::basic_string"* nonnull dereferenceable(24) %10, i64 8)
  %108 = bitcast %"class.std::__1::basic_string"* %10 to %"struct.std::__1::basic_string<char, std::__1::char_traits<char>, std::__1::allocator<char> >::__short"*
  %109 = getelementptr inbounds %"struct.std::__1::basic_string<char, std::__1::char_traits<char>, std::__1::allocator<char> >::__short", %"struct.std::__1::basic_string<char, std::__1::char_traits<char>, std::__1::allocator<char> >::__short"* %108, i64 0, i32 1, i32 0
  %110 = load i8, i8* %109, align 1
  %111 = icmp slt i8 %110, 0
  br i1 %111, label %112, label %114

112:                                              ; preds = %101
  %113 = load i8*, i8** %104, align 8
  call void @_ZdlPv(i8* %113) #14
  br label %114

114:                                              ; preds = %101, %112
  call void @llvm.lifetime.end.p0i8(i64 24, i8* nonnull %102) #15
  %115 = bitcast %"class.std::__1::basic_string"* %11 to i8*
  call void @llvm.lifetime.start.p0i8(i64 24, i8* nonnull %115) #15
  %116 = bitcast %"class.std::__1::basic_string"* %11 to %"struct.std::__1::basic_string<char, std::__1::char_traits<char>, std::__1::allocator<char> >::__short"*
  %117 = getelementptr inbounds %"struct.std::__1::basic_string<char, std::__1::char_traits<char>, std::__1::allocator<char> >::__short", %"struct.std::__1::basic_string<char, std::__1::char_traits<char>, std::__1::allocator<char> >::__short"* %116, i64 0, i32 1, i32 0
  store i8 20, i8* %117, align 1
  call void @llvm.memcpy.p0i8.p0i8.i64(i8* nonnull align 8 %115, i8* align 16 getelementptr inbounds ([21 x i8], [21 x i8]* @_ZN11google_apis12_GLOBAL__N_121kCanMoveTeamDriveItemE, i64 0, i64 0), i64 20, i1 false) #15
  %118 = getelementptr inbounds i8, i8* %115, i64 20
  store i8 0, i8* %118, align 4
  call void @_ZN4base18JSONValueConverterIN11google_apis24FileResourceCapabilitiesEE17RegisterBoolFieldERKNSt3__112basic_stringIcNS4_11char_traitsIcEENS4_9allocatorIcEEEEMS2_b(%"class.base::JSONValueConverter.100"* %0, %"class.std::__1::basic_string"* nonnull dereferenceable(24) %11, i64 9)
  %119 = load i8, i8* %117, align 1
  %120 = icmp slt i8 %119, 0
  br i1 %120, label %121, label %124

121:                                              ; preds = %114
  %122 = getelementptr inbounds %"class.std::__1::basic_string", %"class.std::__1::basic_string"* %11, i64 0, i32 0, i32 0, i32 0, i32 0, i32 0, i32 0
  %123 = load i8*, i8** %122, align 8
  call void @_ZdlPv(i8* %123) #14
  br label %124

124:                                              ; preds = %114, %121
  call void @llvm.lifetime.end.p0i8(i64 24, i8* nonnull %115) #15
  %125 = bitcast %"class.std::__1::basic_string"* %12 to i8*
  call void @llvm.lifetime.start.p0i8(i64 24, i8* nonnull %125) #15
  %126 = bitcast %"class.std::__1::basic_string"* %12 to %"struct.std::__1::basic_string<char, std::__1::char_traits<char>, std::__1::allocator<char> >::__short"*
  %127 = getelementptr inbounds %"struct.std::__1::basic_string<char, std::__1::char_traits<char>, std::__1::allocator<char> >::__short", %"struct.std::__1::basic_string<char, std::__1::char_traits<char>, std::__1::allocator<char> >::__short"* %126, i64 0, i32 1, i32 0
  store i8 16, i8* %127, align 1
  call void @llvm.memcpy.p0i8.p0i8.i64(i8* nonnull align 8 %125, i8* align 16 getelementptr inbounds ([17 x i8], [17 x i8]* @_ZN11google_apis12_GLOBAL__N_117kCanReadRevisionsE, i64 0, i64 0), i64 16, i1 false) #15
  %128 = getelementptr inbounds %"class.std::__1::basic_string", %"class.std::__1::basic_string"* %12, i64 0, i32 0, i32 0, i32 0, i32 0, i32 0, i32 2
  %129 = bitcast i64* %128 to i8*
  store i8 0, i8* %129, align 8
  call void @_ZN4base18JSONValueConverterIN11google_apis24FileResourceCapabilitiesEE17RegisterBoolFieldERKNSt3__112basic_stringIcNS4_11char_traitsIcEENS4_9allocatorIcEEEEMS2_b(%"class.base::JSONValueConverter.100"* %0, %"class.std::__1::basic_string"* nonnull dereferenceable(24) %12, i64 10)
  %130 = load i8, i8* %127, align 1
  %131 = icmp slt i8 %130, 0
  br i1 %131, label %132, label %135

132:                                              ; preds = %124
  %133 = getelementptr inbounds %"class.std::__1::basic_string", %"class.std::__1::basic_string"* %12, i64 0, i32 0, i32 0, i32 0, i32 0, i32 0, i32 0
  %134 = load i8*, i8** %133, align 8
  call void @_ZdlPv(i8* %134) #14
  br label %135

135:                                              ; preds = %124, %132
  call void @llvm.lifetime.end.p0i8(i64 24, i8* nonnull %125) #15
  %136 = bitcast %"class.std::__1::basic_string"* %13 to i8*
  call void @llvm.lifetime.start.p0i8(i64 24, i8* nonnull %136) #15
  %137 = bitcast %"class.std::__1::basic_string"* %13 to %"struct.std::__1::basic_string<char, std::__1::char_traits<char>, std::__1::allocator<char> >::__short"*
  %138 = getelementptr inbounds %"struct.std::__1::basic_string<char, std::__1::char_traits<char>, std::__1::allocator<char> >::__short", %"struct.std::__1::basic_string<char, std::__1::char_traits<char>, std::__1::allocator<char> >::__short"* %137, i64 0, i32 1, i32 0
  store i8 16, i8* %138, align 1
  call void @llvm.memcpy.p0i8.p0i8.i64(i8* nonnull align 8 %136, i8* align 16 getelementptr inbounds ([17 x i8], [17 x i8]* @_ZN11google_apis12_GLOBAL__N_117kCanReadTeamDriveE, i64 0, i64 0), i64 16, i1 false) #15
  %139 = getelementptr inbounds %"class.std::__1::basic_string", %"class.std::__1::basic_string"* %13, i64 0, i32 0, i32 0, i32 0, i32 0, i32 0, i32 2
  %140 = bitcast i64* %139 to i8*
  store i8 0, i8* %140, align 8
  call void @_ZN4base18JSONValueConverterIN11google_apis24FileResourceCapabilitiesEE17RegisterBoolFieldERKNSt3__112basic_stringIcNS4_11char_traitsIcEENS4_9allocatorIcEEEEMS2_b(%"class.base::JSONValueConverter.100"* %0, %"class.std::__1::basic_string"* nonnull dereferenceable(24) %13, i64 11)
  %141 = load i8, i8* %138, align 1
  %142 = icmp slt i8 %141, 0
  br i1 %142, label %143, label %146

143:                                              ; preds = %135
  %144 = getelementptr inbounds %"class.std::__1::basic_string", %"class.std::__1::basic_string"* %13, i64 0, i32 0, i32 0, i32 0, i32 0, i32 0, i32 0
  %145 = load i8*, i8** %144, align 8
  call void @_ZdlPv(i8* %145) #14
  br label %146

146:                                              ; preds = %135, %143
  call void @llvm.lifetime.end.p0i8(i64 24, i8* nonnull %136) #15
  %147 = bitcast %"class.std::__1::basic_string"* %14 to i8*
  call void @llvm.lifetime.start.p0i8(i64 24, i8* nonnull %147) #15
  %148 = bitcast %"class.std::__1::basic_string"* %14 to %"struct.std::__1::basic_string<char, std::__1::char_traits<char>, std::__1::allocator<char> >::__short"*
  %149 = getelementptr inbounds %"struct.std::__1::basic_string<char, std::__1::char_traits<char>, std::__1::allocator<char> >::__short", %"struct.std::__1::basic_string<char, std::__1::char_traits<char>, std::__1::allocator<char> >::__short"* %148, i64 0, i32 1, i32 0
  store i8 17, i8* %149, align 1
  call void @llvm.memcpy.p0i8.p0i8.i64(i8* nonnull align 8 %147, i8* align 16 getelementptr inbounds ([18 x i8], [18 x i8]* @_ZN11google_apis12_GLOBAL__N_118kCanRemoveChildrenE, i64 0, i64 0), i64 17, i1 false) #15
  %150 = getelementptr inbounds i8, i8* %147, i64 17
  store i8 0, i8* %150, align 1
  call void @_ZN4base18JSONValueConverterIN11google_apis24FileResourceCapabilitiesEE17RegisterBoolFieldERKNSt3__112basic_stringIcNS4_11char_traitsIcEENS4_9allocatorIcEEEEMS2_b(%"class.base::JSONValueConverter.100"* %0, %"class.std::__1::basic_string"* nonnull dereferenceable(24) %14, i64 12)
  %151 = load i8, i8* %149, align 1
  %152 = icmp slt i8 %151, 0
  br i1 %152, label %153, label %156

153:                                              ; preds = %146
  %154 = getelementptr inbounds %"class.std::__1::basic_string", %"class.std::__1::basic_string"* %14, i64 0, i32 0, i32 0, i32 0, i32 0, i32 0, i32 0
  %155 = load i8*, i8** %154, align 8
  call void @_ZdlPv(i8* %155) #14
  br label %156

156:                                              ; preds = %146, %153
  call void @llvm.lifetime.end.p0i8(i64 24, i8* nonnull %147) #15
  %157 = bitcast %"class.std::__1::basic_string"* %15 to i8*
  call void @llvm.lifetime.start.p0i8(i64 24, i8* nonnull %157) #15
  %158 = bitcast %"class.std::__1::basic_string"* %15 to %"struct.std::__1::basic_string<char, std::__1::char_traits<char>, std::__1::allocator<char> >::__short"*
  %159 = getelementptr inbounds %"struct.std::__1::basic_string<char, std::__1::char_traits<char>, std::__1::allocator<char> >::__short", %"struct.std::__1::basic_string<char, std::__1::char_traits<char>, std::__1::allocator<char> >::__short"* %158, i64 0, i32 1, i32 0
  store i8 9, i8* %159, align 1
  call void @llvm.memcpy.p0i8.p0i8.i64(i8* nonnull align 8 %157, i8* align 1 getelementptr inbounds ([10 x i8], [10 x i8]* @_ZN11google_apis12_GLOBAL__N_110kCanRenameE, i64 0, i64 0), i64 9, i1 false) #15
  %160 = getelementptr inbounds i8, i8* %157, i64 9
  store i8 0, i8* %160, align 1
  call void @_ZN4base18JSONValueConverterIN11google_apis24FileResourceCapabilitiesEE17RegisterBoolFieldERKNSt3__112basic_stringIcNS4_11char_traitsIcEENS4_9allocatorIcEEEEMS2_b(%"class.base::JSONValueConverter.100"* %0, %"class.std::__1::basic_string"* nonnull dereferenceable(24) %15, i64 13)
  %161 = load i8, i8* %159, align 1
  %162 = icmp slt i8 %161, 0
  br i1 %162, label %163, label %166

163:                                              ; preds = %156
  %164 = getelementptr inbounds %"class.std::__1::basic_string", %"class.std::__1::basic_string"* %15, i64 0, i32 0, i32 0, i32 0, i32 0, i32 0, i32 0
  %165 = load i8*, i8** %164, align 8
  call void @_ZdlPv(i8* %165) #14
  br label %166

166:                                              ; preds = %156, %163
  call void @llvm.lifetime.end.p0i8(i64 24, i8* nonnull %157) #15
  %167 = bitcast %"class.std::__1::basic_string"* %16 to i8*
  call void @llvm.lifetime.start.p0i8(i64 24, i8* nonnull %167) #15
  %168 = bitcast %"class.std::__1::basic_string"* %16 to %"struct.std::__1::basic_string<char, std::__1::char_traits<char>, std::__1::allocator<char> >::__short"*
  %169 = getelementptr inbounds %"struct.std::__1::basic_string<char, std::__1::char_traits<char>, std::__1::allocator<char> >::__short", %"struct.std::__1::basic_string<char, std::__1::char_traits<char>, std::__1::allocator<char> >::__short"* %168, i64 0, i32 1, i32 0
  store i8 8, i8* %169, align 1
  %170 = bitcast %"class.std::__1::basic_string"* %16 to i64*
  store i64 7310012245879972195, i64* %170, align 8
  %171 = getelementptr inbounds %"class.std::__1::basic_string", %"class.std::__1::basic_string"* %16, i64 0, i32 0, i32 0, i32 0, i32 0, i32 0, i32 1
  %172 = bitcast i64* %171 to i8*
  store i8 0, i8* %172, align 8
  call void @_ZN4base18JSONValueConverterIN11google_apis24FileResourceCapabilitiesEE17RegisterBoolFieldERKNSt3__112basic_stringIcNS4_11char_traitsIcEENS4_9allocatorIcEEEEMS2_b(%"class.base::JSONValueConverter.100"* %0, %"class.std::__1::basic_string"* nonnull dereferenceable(24) %16, i64 14)
  %173 = load i8, i8* %169, align 1
  %174 = icmp slt i8 %173, 0
  br i1 %174, label %175, label %178

175:                                              ; preds = %166
  %176 = getelementptr inbounds %"class.std::__1::basic_string", %"class.std::__1::basic_string"* %16, i64 0, i32 0, i32 0, i32 0, i32 0, i32 0, i32 0
  %177 = load i8*, i8** %176, align 8
  call void @_ZdlPv(i8* %177) #14
  br label %178

178:                                              ; preds = %166, %175
  call void @llvm.lifetime.end.p0i8(i64 24, i8* nonnull %167) #15
  %179 = bitcast %"class.std::__1::basic_string"* %17 to i8*
  call void @llvm.lifetime.start.p0i8(i64 24, i8* nonnull %179) #15
  %180 = bitcast %"class.std::__1::basic_string"* %17 to %"struct.std::__1::basic_string<char, std::__1::char_traits<char>, std::__1::allocator<char> >::__short"*
  %181 = getelementptr inbounds %"struct.std::__1::basic_string<char, std::__1::char_traits<char>, std::__1::allocator<char> >::__short", %"struct.std::__1::basic_string<char, std::__1::char_traits<char>, std::__1::allocator<char> >::__short"* %180, i64 0, i32 1, i32 0
  store i8 8, i8* %181, align 1
  %182 = bitcast %"class.std::__1::basic_string"* %17 to i64*
  store i64 7526466545936916835, i64* %182, align 8
  %183 = getelementptr inbounds %"class.std::__1::basic_string", %"class.std::__1::basic_string"* %17, i64 0, i32 0, i32 0, i32 0, i32 0, i32 0, i32 1
  %184 = bitcast i64* %183 to i8*
  store i8 0, i8* %184, align 8
  call void @_ZN4base18JSONValueConverterIN11google_apis24FileResourceCapabilitiesEE17RegisterBoolFieldERKNSt3__112basic_stringIcNS4_11char_traitsIcEENS4_9allocatorIcEEEEMS2_b(%"class.base::JSONValueConverter.100"* %0, %"class.std::__1::basic_string"* nonnull dereferenceable(24) %17, i64 15)
  %185 = load i8, i8* %181, align 1
  %186 = icmp slt i8 %185, 0
  br i1 %186, label %187, label %190

187:                                              ; preds = %178
  %188 = getelementptr inbounds %"class.std::__1::basic_string", %"class.std::__1::basic_string"* %17, i64 0, i32 0, i32 0, i32 0, i32 0, i32 0, i32 0
  %189 = load i8*, i8** %188, align 8
  call void @_ZdlPv(i8* %189) #14
  br label %190

190:                                              ; preds = %178, %187
  call void @llvm.lifetime.end.p0i8(i64 24, i8* nonnull %179) #15
  %191 = bitcast %"class.std::__1::basic_string"* %18 to i8*
  call void @llvm.lifetime.start.p0i8(i64 24, i8* nonnull %191) #15
  %192 = bitcast %"class.std::__1::basic_string"* %18 to %"struct.std::__1::basic_string<char, std::__1::char_traits<char>, std::__1::allocator<char> >::__short"*
  %193 = getelementptr inbounds %"struct.std::__1::basic_string<char, std::__1::char_traits<char>, std::__1::allocator<char> >::__short", %"struct.std::__1::basic_string<char, std::__1::char_traits<char>, std::__1::allocator<char> >::__short"* %192, i64 0, i32 1, i32 0
  store i8 10, i8* %193, align 1
  call void @llvm.memcpy.p0i8.p0i8.i64(i8* nonnull align 8 %191, i8* align 1 getelementptr inbounds ([11 x i8], [11 x i8]* @_ZN11google_apis12_GLOBAL__N_111kCanUntrashE, i64 0, i64 0), i64 10, i1 false) #15
  %194 = getelementptr inbounds i8, i8* %191, i64 10
  store i8 0, i8* %194, align 2
  call void @_ZN4base18JSONValueConverterIN11google_apis24FileResourceCapabilitiesEE17RegisterBoolFieldERKNSt3__112basic_stringIcNS4_11char_traitsIcEENS4_9allocatorIcEEEEMS2_b(%"class.base::JSONValueConverter.100"* %0, %"class.std::__1::basic_string"* nonnull dereferenceable(24) %18, i64 16)
  %195 = load i8, i8* %193, align 1
  %196 = icmp slt i8 %195, 0
  br i1 %196, label %197, label %200

197:                                              ; preds = %190
  %198 = getelementptr inbounds %"class.std::__1::basic_string", %"class.std::__1::basic_string"* %18, i64 0, i32 0, i32 0, i32 0, i32 0, i32 0, i32 0
  %199 = load i8*, i8** %198, align 8
  call void @_ZdlPv(i8* %199) #14
  br label %200

200:                                              ; preds = %190, %197
  call void @llvm.lifetime.end.p0i8(i64 24, i8* nonnull %191) #15
  ret void
}

; Function Attrs: nounwind ssp uwtable
define linkonce_odr hidden void @_ZN4base18JSONValueConverterIN11google_apis24FileResourceCapabilitiesEE17RegisterBoolFieldERKNSt3__112basic_stringIcNS4_11char_traitsIcEENS4_9allocatorIcEEEEMS2_b(%"class.base::JSONValueConverter.100"*, %"class.std::__1::basic_string"* dereferenceable(24), i64) local_unnamed_addr #0 comdat align 2 {
  %4 = alloca %"class.std::__1::unique_ptr.103", align 8
  %5 = getelementptr inbounds %"class.base::JSONValueConverter.100", %"class.base::JSONValueConverter.100"* %0, i64 0, i32 0
  %6 = bitcast %"class.std::__1::unique_ptr.103"* %4 to i8*
  call void @llvm.lifetime.start.p0i8(i64 8, i8* nonnull %6) #15
  %7 = tail call i8* @_Znwm(i64 8) #14
  %8 = bitcast i8* %7 to i32 (...)***
  store i32 (...)** bitcast (i8** getelementptr inbounds ({ [5 x i8*] }, { [5 x i8*] }* @_ZTVN4base8internal19BasicValueConverterIbEE, i64 0, inrange i32 0, i64 2) to i32 (...)**), i32 (...)*** %8, align 8
  %9 = ptrtoint i8* %7 to i64
  %10 = tail call i8* @_Znwm(i64 48) #14
  %11 = bitcast i8* %10 to i32 (...)***
  store i32 (...)** bitcast (i8** getelementptr inbounds ({ [5 x i8*] }, { [5 x i8*] }* @_ZTVN4base8internal18FieldConverterBaseIN11google_apis24FileResourceCapabilitiesEEE, i64 0, inrange i32 0, i64 2) to i32 (...)**), i32 (...)*** %11, align 8
  %12 = getelementptr inbounds i8, i8* %10, i64 8
  %13 = bitcast %"class.std::__1::basic_string"* %1 to %"struct.std::__1::basic_string<char, std::__1::char_traits<char>, std::__1::allocator<char> >::__short"*
  %14 = getelementptr inbounds %"struct.std::__1::basic_string<char, std::__1::char_traits<char>, std::__1::allocator<char> >::__short", %"struct.std::__1::basic_string<char, std::__1::char_traits<char>, std::__1::allocator<char> >::__short"* %13, i64 0, i32 1, i32 0
  %15 = load i8, i8* %14, align 1
  %16 = icmp slt i8 %15, 0
  br i1 %16, label %19, label %17

17:                                               ; preds = %3
  %18 = bitcast %"class.std::__1::basic_string"* %1 to i8*
  tail call void @llvm.memcpy.p0i8.p0i8.i64(i8* align 8 %12, i8* align 8 %18, i64 24, i1 false) #15
  br label %25

19:                                               ; preds = %3
  %20 = bitcast i8* %12 to %"class.std::__1::basic_string"*
  %21 = getelementptr inbounds %"class.std::__1::basic_string", %"class.std::__1::basic_string"* %1, i64 0, i32 0, i32 0, i32 0, i32 0, i32 0, i32 0
  %22 = load i8*, i8** %21, align 8
  %23 = getelementptr inbounds %"class.std::__1::basic_string", %"class.std::__1::basic_string"* %1, i64 0, i32 0, i32 0, i32 0, i32 0, i32 0, i32 1
  %24 = load i64, i64* %23, align 8
  tail call void @_ZNSt3__112basic_stringIcNS_11char_traitsIcEENS_9allocatorIcEEE25__init_copy_ctor_externalEPKcm(%"class.std::__1::basic_string"* %20, i8* %22, i64 %24) #15
  br label %25

25:                                               ; preds = %17, %19
  store i32 (...)** bitcast (i8** getelementptr inbounds ({ [5 x i8*] }, { [5 x i8*] }* @_ZTVN4base8internal14FieldConverterIN11google_apis24FileResourceCapabilitiesEbEE, i64 0, inrange i32 0, i64 2) to i32 (...)**), i32 (...)*** %11, align 8
  %26 = getelementptr inbounds i8, i8* %10, i64 32
  %27 = bitcast i8* %26 to i64*
  store i64 %2, i64* %27, align 8
  %28 = getelementptr inbounds i8, i8* %10, i64 40
  %29 = bitcast i8* %28 to i64*
  store i64 %9, i64* %29, align 8
  %30 = ptrtoint i8* %10 to i64
  %31 = bitcast %"class.std::__1::unique_ptr.103"* %4 to i64*
  store i64 %30, i64* %31, align 8
  %32 = getelementptr inbounds %"class.base::JSONValueConverter.100", %"class.base::JSONValueConverter.100"* %0, i64 0, i32 0, i32 0, i32 1
  %33 = load %"class.std::__1::unique_ptr.103"*, %"class.std::__1::unique_ptr.103"** %32, align 8
  %34 = getelementptr inbounds %"class.base::JSONValueConverter.100", %"class.base::JSONValueConverter.100"* %0, i64 0, i32 0, i32 0, i32 2, i32 0, i32 0
  %35 = load %"class.std::__1::unique_ptr.103"*, %"class.std::__1::unique_ptr.103"** %34, align 8
  %36 = icmp ult %"class.std::__1::unique_ptr.103"* %33, %35
  br i1 %36, label %37, label %43

37:                                               ; preds = %25
  %38 = getelementptr inbounds %"class.std::__1::unique_ptr.103", %"class.std::__1::unique_ptr.103"* %4, i64 0, i32 0, i32 0, i32 0
  store %"class.base::internal::FieldConverterBase.278"* null, %"class.base::internal::FieldConverterBase.278"** %38, align 8
  %39 = bitcast %"class.std::__1::unique_ptr.103"* %33 to i64*
  store i64 %30, i64* %39, align 8
  %40 = getelementptr inbounds %"class.std::__1::unique_ptr.103", %"class.std::__1::unique_ptr.103"* %33, i64 1
  %41 = ptrtoint %"class.std::__1::unique_ptr.103"* %40 to i64
  %42 = bitcast %"class.std::__1::unique_ptr.103"** %32 to i64*
  store i64 %41, i64* %42, align 8
  br label %44

43:                                               ; preds = %25
  call void @_ZNSt3__16vectorINS_10unique_ptrIN4base8internal18FieldConverterBaseIN11google_apis24FileResourceCapabilitiesEEENS_14default_deleteIS7_EEEENS_9allocatorISA_EEE21__push_back_slow_pathISA_EEvOT_(%"class.std::__1::vector.101"* %5, %"class.std::__1::unique_ptr.103"* nonnull dereferenceable(8) %4) #15
  br label %44

44:                                               ; preds = %37, %43
  %45 = getelementptr inbounds %"class.std::__1::unique_ptr.103", %"class.std::__1::unique_ptr.103"* %4, i64 0, i32 0, i32 0, i32 0
  %46 = load %"class.base::internal::FieldConverterBase.278"*, %"class.base::internal::FieldConverterBase.278"** %45, align 8
  store %"class.base::internal::FieldConverterBase.278"* null, %"class.base::internal::FieldConverterBase.278"** %45, align 8
  %47 = icmp eq %"class.base::internal::FieldConverterBase.278"* %46, null
  br i1 %47, label %53, label %48

48:                                               ; preds = %44
  %49 = bitcast %"class.base::internal::FieldConverterBase.278"* %46 to void (%"class.base::internal::FieldConverterBase.278"*)***
  %50 = load void (%"class.base::internal::FieldConverterBase.278"*)**, void (%"class.base::internal::FieldConverterBase.278"*)*** %49, align 8
  %51 = getelementptr inbounds void (%"class.base::internal::FieldConverterBase.278"*)*, void (%"class.base::internal::FieldConverterBase.278"*)** %50, i64 1
  %52 = load void (%"class.base::internal::FieldConverterBase.278"*)*, void (%"class.base::internal::FieldConverterBase.278"*)** %51, align 8
  call void %52(%"class.base::internal::FieldConverterBase.278"* nonnull %46) #15
  br label %53

53:                                               ; preds = %48, %44
  call void @llvm.lifetime.end.p0i8(i64 8, i8* nonnull %6) #15
  ret void
}

; Function Attrs: nounwind ssp uwtable
define hidden void @_ZN11google_apis12FileResourceC2Ev(%"class.google_apis::FileResource"*) unnamed_addr #0 align 2 {
  %2 = getelementptr inbounds %"class.google_apis::FileResource", %"class.google_apis::FileResource"* %0, i64 0, i32 5, i32 0
  %3 = bitcast %"class.google_apis::FileResource"* %0 to i8*
  call void @llvm.memset.p0i8.i64(i8* align 8 %3, i8 0, i64 98, i1 false)
  store i32 -1, i32* %2, align 4
  %4 = getelementptr inbounds %"class.google_apis::FileResource", %"class.google_apis::FileResource"* %0, i64 0, i32 5, i32 1
  store i32 -1, i32* %4, align 4
  %5 = getelementptr inbounds %"class.google_apis::FileResource", %"class.google_apis::FileResource"* %0, i64 0, i32 5, i32 2
  store i32 -1, i32* %5, align 4
  %6 = getelementptr inbounds %"class.google_apis::FileResource", %"class.google_apis::FileResource"* %0, i64 0, i32 6, i32 0, i32 0
  %7 = getelementptr inbounds %"class.google_apis::FileResource", %"class.google_apis::FileResource"* %0, i64 0, i32 12
  %8 = bitcast %"class.std::__1::basic_string"* %7 to i8*
  tail call void @llvm.memset.p0i8.i64(i8* align 8 %8, i8 0, i64 24, i1 false) #15
  %9 = getelementptr inbounds %"class.google_apis::FileResource", %"class.google_apis::FileResource"* %0, i64 0, i32 13
  %10 = bitcast i64* %6 to i8*
  call void @llvm.memset.p0i8.i64(i8* align 8 %10, i8 0, i64 41, i1 false)
  store i64 -1, i64* %9, align 8
  %11 = getelementptr inbounds %"class.google_apis::FileResource", %"class.google_apis::FileResource"* %0, i64 0, i32 14
  tail call void @_ZN4GURLC1Ev(%class.GURL* %11) #15
  %12 = getelementptr inbounds %"class.google_apis::FileResource", %"class.google_apis::FileResource"* %0, i64 0, i32 15
  tail call void @_ZN4GURLC1Ev(%class.GURL* %12) #15
  %13 = getelementptr inbounds %"class.google_apis::FileResource", %"class.google_apis::FileResource"* %0, i64 0, i32 16
  %14 = getelementptr inbounds %"class.google_apis::FileResource", %"class.google_apis::FileResource"* %0, i64 0, i32 19
  %15 = bitcast %"class.std::__1::basic_string"* %14 to i8*
  tail call void @llvm.memset.p0i8.i64(i8* align 8 %15, i8 0, i64 24, i1 false) #15
  %16 = bitcast %"class.std::__1::vector.115"* %13 to i8*
  call void @llvm.memset.p0i8.i64(i8* align 8 %16, i8 0, i64 65, i1 false)
  ret void
}

declare void @_ZN4GURLC1Ev(%class.GURL*) unnamed_addr #3

; Function Attrs: nounwind ssp uwtable
define hidden void @_ZN11google_apis12FileResourceC2ERKS0_(%"class.google_apis::FileResource"*, %"class.google_apis::FileResource"* dereferenceable(528)) unnamed_addr #0 align 2 {
  %3 = bitcast %"class.google_apis::FileResource"* %1 to %"struct.std::__1::basic_string<char, std::__1::char_traits<char>, std::__1::allocator<char> >::__short"*
  %4 = getelementptr inbounds %"struct.std::__1::basic_string<char, std::__1::char_traits<char>, std::__1::allocator<char> >::__short", %"struct.std::__1::basic_string<char, std::__1::char_traits<char>, std::__1::allocator<char> >::__short"* %3, i64 0, i32 1, i32 0
  %5 = load i8, i8* %4, align 1
  %6 = icmp slt i8 %5, 0
  br i1 %6, label %10, label %7

7:                                                ; preds = %2
  %8 = bitcast %"class.google_apis::FileResource"* %0 to i8*
  %9 = bitcast %"class.google_apis::FileResource"* %1 to i8*
  tail call void @llvm.memcpy.p0i8.p0i8.i64(i8* align 8 %8, i8* align 8 %9, i64 24, i1 false) #15
  br label %16

10:                                               ; preds = %2
  %11 = getelementptr inbounds %"class.google_apis::FileResource", %"class.google_apis::FileResource"* %0, i64 0, i32 0
  %12 = getelementptr inbounds %"class.google_apis::FileResource", %"class.google_apis::FileResource"* %1, i64 0, i32 0, i32 0, i32 0, i32 0, i32 0, i32 0, i32 0
  %13 = load i8*, i8** %12, align 8
  %14 = getelementptr inbounds %"class.google_apis::FileResource", %"class.google_apis::FileResource"* %1, i64 0, i32 0, i32 0, i32 0, i32 0, i32 0, i32 0, i32 1
  %15 = load i64, i64* %14, align 8
  tail call void @_ZNSt3__112basic_stringIcNS_11char_traitsIcEENS_9allocatorIcEEE25__init_copy_ctor_externalEPKcm(%"class.std::__1::basic_string"* %11, i8* %13, i64 %15) #15
  br label %16

16:                                               ; preds = %7, %10
  %17 = getelementptr inbounds %"class.google_apis::FileResource", %"class.google_apis::FileResource"* %0, i64 0, i32 1
  %18 = getelementptr inbounds %"class.google_apis::FileResource", %"class.google_apis::FileResource"* %1, i64 0, i32 1
  %19 = bitcast %"class.std::__1::basic_string"* %18 to %"struct.std::__1::basic_string<char, std::__1::char_traits<char>, std::__1::allocator<char> >::__short"*
  %20 = getelementptr inbounds %"struct.std::__1::basic_string<char, std::__1::char_traits<char>, std::__1::allocator<char> >::__short", %"struct.std::__1::basic_string<char, std::__1::char_traits<char>, std::__1::allocator<char> >::__short"* %19, i64 0, i32 1, i32 0
  %21 = load i8, i8* %20, align 1
  %22 = icmp slt i8 %21, 0
  br i1 %22, label %26, label %23

23:                                               ; preds = %16
  %24 = bitcast %"class.std::__1::basic_string"* %17 to i8*
  %25 = bitcast %"class.std::__1::basic_string"* %18 to i8*
  tail call void @llvm.memcpy.p0i8.p0i8.i64(i8* align 8 %24, i8* align 8 %25, i64 24, i1 false) #15
  br label %31

26:                                               ; preds = %16
  %27 = getelementptr inbounds %"class.std::__1::basic_string", %"class.std::__1::basic_string"* %18, i64 0, i32 0, i32 0, i32 0, i32 0, i32 0, i32 0
  %28 = load i8*, i8** %27, align 8
  %29 = getelementptr inbounds %"class.google_apis::FileResource", %"class.google_apis::FileResource"* %1, i64 0, i32 1, i32 0, i32 0, i32 0, i32 0, i32 0, i32 1
  %30 = load i64, i64* %29, align 8
  tail call void @_ZNSt3__112basic_stringIcNS_11char_traitsIcEENS_9allocatorIcEEE25__init_copy_ctor_externalEPKcm(%"class.std::__1::basic_string"* %17, i8* %28, i64 %30) #15
  br label %31

31:                                               ; preds = %23, %26
  %32 = getelementptr inbounds %"class.google_apis::FileResource", %"class.google_apis::FileResource"* %0, i64 0, i32 2
  %33 = getelementptr inbounds %"class.google_apis::FileResource", %"class.google_apis::FileResource"* %1, i64 0, i32 2
  %34 = bitcast %"class.std::__1::basic_string"* %33 to %"struct.std::__1::basic_string<char, std::__1::char_traits<char>, std::__1::allocator<char> >::__short"*
  %35 = getelementptr inbounds %"struct.std::__1::basic_string<char, std::__1::char_traits<char>, std::__1::allocator<char> >::__short", %"struct.std::__1::basic_string<char, std::__1::char_traits<char>, std::__1::allocator<char> >::__short"* %34, i64 0, i32 1, i32 0
  %36 = load i8, i8* %35, align 1
  %37 = icmp slt i8 %36, 0
  br i1 %37, label %41, label %38

38:                                               ; preds = %31
  %39 = bitcast %"class.std::__1::basic_string"* %32 to i8*
  %40 = bitcast %"class.std::__1::basic_string"* %33 to i8*
  tail call void @llvm.memcpy.p0i8.p0i8.i64(i8* align 8 %39, i8* align 8 %40, i64 24, i1 false) #15
  br label %46

41:                                               ; preds = %31
  %42 = getelementptr inbounds %"class.std::__1::basic_string", %"class.std::__1::basic_string"* %33, i64 0, i32 0, i32 0, i32 0, i32 0, i32 0, i32 0
  %43 = load i8*, i8** %42, align 8
  %44 = getelementptr inbounds %"class.google_apis::FileResource", %"class.google_apis::FileResource"* %1, i64 0, i32 2, i32 0, i32 0, i32 0, i32 0, i32 0, i32 1
  %45 = load i64, i64* %44, align 8
  tail call void @_ZNSt3__112basic_stringIcNS_11char_traitsIcEENS_9allocatorIcEEE25__init_copy_ctor_externalEPKcm(%"class.std::__1::basic_string"* %32, i8* %43, i64 %45) #15
  br label %46

46:                                               ; preds = %38, %41
  %47 = getelementptr inbounds %"class.google_apis::FileResource", %"class.google_apis::FileResource"* %0, i64 0, i32 3
  %48 = getelementptr inbounds %"class.google_apis::FileResource", %"class.google_apis::FileResource"* %1, i64 0, i32 3
  %49 = bitcast %"class.std::__1::basic_string"* %48 to %"struct.std::__1::basic_string<char, std::__1::char_traits<char>, std::__1::allocator<char> >::__short"*
  %50 = getelementptr inbounds %"struct.std::__1::basic_string<char, std::__1::char_traits<char>, std::__1::allocator<char> >::__short", %"struct.std::__1::basic_string<char, std::__1::char_traits<char>, std::__1::allocator<char> >::__short"* %49, i64 0, i32 1, i32 0
  %51 = load i8, i8* %50, align 1
  %52 = icmp slt i8 %51, 0
  br i1 %52, label %56, label %53

53:                                               ; preds = %46
  %54 = bitcast %"class.std::__1::basic_string"* %47 to i8*
  %55 = bitcast %"class.std::__1::basic_string"* %48 to i8*
  tail call void @llvm.memcpy.p0i8.p0i8.i64(i8* align 8 %54, i8* align 8 %55, i64 24, i1 false) #15
  br label %61

56:                                               ; preds = %46
  %57 = getelementptr inbounds %"class.std::__1::basic_string", %"class.std::__1::basic_string"* %48, i64 0, i32 0, i32 0, i32 0, i32 0, i32 0, i32 0
  %58 = load i8*, i8** %57, align 8
  %59 = getelementptr inbounds %"class.google_apis::FileResource", %"class.google_apis::FileResource"* %1, i64 0, i32 3, i32 0, i32 0, i32 0, i32 0, i32 0, i32 1
  %60 = load i64, i64* %59, align 8
  tail call void @_ZNSt3__112basic_stringIcNS_11char_traitsIcEENS_9allocatorIcEEE25__init_copy_ctor_externalEPKcm(%"class.std::__1::basic_string"* %47, i8* %58, i64 %60) #15
  br label %61

61:                                               ; preds = %53, %56
  %62 = getelementptr inbounds %"class.google_apis::FileResource", %"class.google_apis::FileResource"* %0, i64 0, i32 4, i32 0
  %63 = getelementptr inbounds %"class.google_apis::FileResource", %"class.google_apis::FileResource"* %1, i64 0, i32 4, i32 0
  tail call void @llvm.memcpy.p0i8.p0i8.i64(i8* align 8 %62, i8* align 8 %63, i64 57, i1 false)
  %64 = getelementptr inbounds %"class.google_apis::FileResource", %"class.google_apis::FileResource"* %0, i64 0, i32 12
  %65 = getelementptr inbounds %"class.google_apis::FileResource", %"class.google_apis::FileResource"* %1, i64 0, i32 12
  %66 = bitcast %"class.std::__1::basic_string"* %65 to %"struct.std::__1::basic_string<char, std::__1::char_traits<char>, std::__1::allocator<char> >::__short"*
  %67 = getelementptr inbounds %"struct.std::__1::basic_string<char, std::__1::char_traits<char>, std::__1::allocator<char> >::__short", %"struct.std::__1::basic_string<char, std::__1::char_traits<char>, std::__1::allocator<char> >::__short"* %66, i64 0, i32 1, i32 0
  %68 = load i8, i8* %67, align 1
  %69 = icmp slt i8 %68, 0
  br i1 %69, label %73, label %70

70:                                               ; preds = %61
  %71 = bitcast %"class.std::__1::basic_string"* %64 to i8*
  %72 = bitcast %"class.std::__1::basic_string"* %65 to i8*
  tail call void @llvm.memcpy.p0i8.p0i8.i64(i8* align 8 %71, i8* align 8 %72, i64 24, i1 false) #15
  br label %78

73:                                               ; preds = %61
  %74 = getelementptr inbounds %"class.std::__1::basic_string", %"class.std::__1::basic_string"* %65, i64 0, i32 0, i32 0, i32 0, i32 0, i32 0, i32 0
  %75 = load i8*, i8** %74, align 8
  %76 = getelementptr inbounds %"class.google_apis::FileResource", %"class.google_apis::FileResource"* %1, i64 0, i32 12, i32 0, i32 0, i32 0, i32 0, i32 0, i32 1
  %77 = load i64, i64* %76, align 8
  tail call void @_ZNSt3__112basic_stringIcNS_11char_traitsIcEENS_9allocatorIcEEE25__init_copy_ctor_externalEPKcm(%"class.std::__1::basic_string"* %64, i8* %75, i64 %77) #15
  br label %78

78:                                               ; preds = %70, %73
  %79 = getelementptr inbounds %"class.google_apis::FileResource", %"class.google_apis::FileResource"* %0, i64 0, i32 13
  %80 = getelementptr inbounds %"class.google_apis::FileResource", %"class.google_apis::FileResource"* %1, i64 0, i32 13
  %81 = load i64, i64* %80, align 8
  store i64 %81, i64* %79, align 8
  %82 = getelementptr inbounds %"class.google_apis::FileResource", %"class.google_apis::FileResource"* %0, i64 0, i32 14
  %83 = getelementptr inbounds %"class.google_apis::FileResource", %"class.google_apis::FileResource"* %1, i64 0, i32 14
  tail call void @_ZN4GURLC1ERKS_(%class.GURL* %82, %class.GURL* dereferenceable(120) %83) #15
  %84 = getelementptr inbounds %"class.google_apis::FileResource", %"class.google_apis::FileResource"* %0, i64 0, i32 15
  %85 = getelementptr inbounds %"class.google_apis::FileResource", %"class.google_apis::FileResource"* %1, i64 0, i32 15
  tail call void @_ZN4GURLC1ERKS_(%class.GURL* %84, %class.GURL* dereferenceable(120) %85) #15
  %86 = getelementptr inbounds %"class.google_apis::FileResource", %"class.google_apis::FileResource"* %0, i64 0, i32 16
  %87 = getelementptr inbounds %"class.google_apis::FileResource", %"class.google_apis::FileResource"* %1, i64 0, i32 16
  %88 = bitcast %"class.std::__1::vector.115"* %86 to i8*
  tail call void @llvm.memset.p0i8.i64(i8* align 8 %88, i8 0, i64 24, i1 false) #15
  %89 = getelementptr inbounds %"class.google_apis::FileResource", %"class.google_apis::FileResource"* %1, i64 0, i32 16, i32 0, i32 1
  %90 = bitcast %"class.google_apis::ParentReference"** %89 to i64*
  %91 = load i64, i64* %90, align 8
  %92 = bitcast %"class.std::__1::vector.115"* %87 to i64*
  %93 = load i64, i64* %92, align 8
  %94 = sub i64 %91, %93
  %95 = sdiv exact i64 %94, 24
  %96 = icmp eq i64 %94, 0
  br i1 %96, label %139, label %97

97:                                               ; preds = %78
  %98 = icmp ugt i64 %95, 768614336404564650
  br i1 %98, label %99, label %101

99:                                               ; preds = %97
  %100 = bitcast %"class.std::__1::vector.115"* %86 to %"class.std::__1::__vector_base_common"*
  tail call void @_ZNKSt3__120__vector_base_commonILb1EE20__throw_length_errorEv(%"class.std::__1::__vector_base_common"* %100) #16
  unreachable

101:                                              ; preds = %97
  %102 = tail call i8* @_Znwm(i64 %94) #14
  %103 = bitcast i8* %102 to %"class.google_apis::ParentReference"*
  %104 = getelementptr inbounds %"class.google_apis::FileResource", %"class.google_apis::FileResource"* %0, i64 0, i32 16, i32 0, i32 1
  %105 = bitcast %"class.google_apis::ParentReference"** %104 to i8**
  store i8* %102, i8** %105, align 8
  %106 = bitcast %"class.std::__1::vector.115"* %86 to i8**
  store i8* %102, i8** %106, align 8
  %107 = getelementptr inbounds %"class.google_apis::ParentReference", %"class.google_apis::ParentReference"* %103, i64 %95
  %108 = getelementptr inbounds %"class.google_apis::FileResource", %"class.google_apis::FileResource"* %0, i64 0, i32 16, i32 0, i32 2, i32 0, i32 0
  store %"class.google_apis::ParentReference"* %107, %"class.google_apis::ParentReference"** %108, align 8
  %109 = getelementptr inbounds %"class.std::__1::vector.115", %"class.std::__1::vector.115"* %87, i64 0, i32 0, i32 0
  %110 = load %"class.google_apis::ParentReference"*, %"class.google_apis::ParentReference"** %109, align 8
  %111 = load %"class.google_apis::ParentReference"*, %"class.google_apis::ParentReference"** %89, align 8
  %112 = bitcast %"class.google_apis::ParentReference"** %104 to i64*
  %113 = ptrtoint i8* %102 to i64
  %114 = icmp eq %"class.google_apis::ParentReference"* %110, %111
  br i1 %114, label %137, label %115

115:                                              ; preds = %101, %131
  %116 = phi %"class.google_apis::ParentReference"* [ %133, %131 ], [ %103, %101 ]
  %117 = phi %"class.google_apis::ParentReference"* [ %132, %131 ], [ %110, %101 ]
  %118 = bitcast %"class.google_apis::ParentReference"* %117 to %"struct.std::__1::basic_string<char, std::__1::char_traits<char>, std::__1::allocator<char> >::__short"*
  %119 = getelementptr inbounds %"struct.std::__1::basic_string<char, std::__1::char_traits<char>, std::__1::allocator<char> >::__short", %"struct.std::__1::basic_string<char, std::__1::char_traits<char>, std::__1::allocator<char> >::__short"* %118, i64 0, i32 1, i32 0
  %120 = load i8, i8* %119, align 1
  %121 = icmp slt i8 %120, 0
  br i1 %121, label %125, label %122

122:                                              ; preds = %115
  %123 = bitcast %"class.google_apis::ParentReference"* %116 to i8*
  %124 = bitcast %"class.google_apis::ParentReference"* %117 to i8*
  tail call void @llvm.memcpy.p0i8.p0i8.i64(i8* align 8 %123, i8* align 8 %124, i64 24, i1 false) #15
  br label %131

125:                                              ; preds = %115
  %126 = getelementptr inbounds %"class.google_apis::ParentReference", %"class.google_apis::ParentReference"* %116, i64 0, i32 0
  %127 = getelementptr inbounds %"class.google_apis::ParentReference", %"class.google_apis::ParentReference"* %117, i64 0, i32 0, i32 0, i32 0, i32 0, i32 0, i32 0, i32 0
  %128 = load i8*, i8** %127, align 8
  %129 = getelementptr inbounds %"class.google_apis::ParentReference", %"class.google_apis::ParentReference"* %117, i64 0, i32 0, i32 0, i32 0, i32 0, i32 0, i32 0, i32 1
  %130 = load i64, i64* %129, align 8
  tail call void @_ZNSt3__112basic_stringIcNS_11char_traitsIcEENS_9allocatorIcEEE25__init_copy_ctor_externalEPKcm(%"class.std::__1::basic_string"* %126, i8* %128, i64 %130) #15
  br label %131

131:                                              ; preds = %125, %122
  %132 = getelementptr inbounds %"class.google_apis::ParentReference", %"class.google_apis::ParentReference"* %117, i64 1
  %133 = getelementptr inbounds %"class.google_apis::ParentReference", %"class.google_apis::ParentReference"* %116, i64 1
  %134 = icmp eq %"class.google_apis::ParentReference"* %132, %111
  br i1 %134, label %135, label %115

135:                                              ; preds = %131
  %136 = ptrtoint %"class.google_apis::ParentReference"* %133 to i64
  br label %137

137:                                              ; preds = %135, %101
  %138 = phi i64 [ %113, %101 ], [ %136, %135 ]
  store i64 %138, i64* %112, align 8
  br label %139

139:                                              ; preds = %78, %137
  %140 = getelementptr inbounds %"class.google_apis::FileResource", %"class.google_apis::FileResource"* %0, i64 0, i32 17
  %141 = getelementptr inbounds %"class.google_apis::FileResource", %"class.google_apis::FileResource"* %1, i64 0, i32 17
  tail call void @_ZNSt3__16vectorIN11google_apis12FileResource12OpenWithLinkENS_9allocatorIS3_EEEC2ERKS6_(%"class.std::__1::vector.121"* %140, %"class.std::__1::vector.121"* dereferenceable(24) %141)
  %142 = getelementptr inbounds %"class.google_apis::FileResource", %"class.google_apis::FileResource"* %0, i64 0, i32 18, i32 0
  %143 = getelementptr inbounds %"class.google_apis::FileResource", %"class.google_apis::FileResource"* %1, i64 0, i32 18, i32 0
  tail call void @llvm.memcpy.p0i8.p0i8.i64(i8* align 1 %142, i8* align 1 %143, i64 17, i1 false) #15
  %144 = getelementptr inbounds %"class.google_apis::FileResource", %"class.google_apis::FileResource"* %0, i64 0, i32 19
  %145 = getelementptr inbounds %"class.google_apis::FileResource", %"class.google_apis::FileResource"* %1, i64 0, i32 19
  %146 = bitcast %"class.std::__1::basic_string"* %145 to %"struct.std::__1::basic_string<char, std::__1::char_traits<char>, std::__1::allocator<char> >::__short"*
  %147 = getelementptr inbounds %"struct.std::__1::basic_string<char, std::__1::char_traits<char>, std::__1::allocator<char> >::__short", %"struct.std::__1::basic_string<char, std::__1::char_traits<char>, std::__1::allocator<char> >::__short"* %146, i64 0, i32 1, i32 0
  %148 = load i8, i8* %147, align 1
  %149 = icmp slt i8 %148, 0
  br i1 %149, label %153, label %150

150:                                              ; preds = %139
  %151 = bitcast %"class.std::__1::basic_string"* %144 to i8*
  %152 = bitcast %"class.std::__1::basic_string"* %145 to i8*
  tail call void @llvm.memcpy.p0i8.p0i8.i64(i8* align 8 %151, i8* align 8 %152, i64 24, i1 false) #15
  br label %158

153:                                              ; preds = %139
  %154 = getelementptr inbounds %"class.std::__1::basic_string", %"class.std::__1::basic_string"* %145, i64 0, i32 0, i32 0, i32 0, i32 0, i32 0, i32 0
  %155 = load i8*, i8** %154, align 8
  %156 = getelementptr inbounds %"class.google_apis::FileResource", %"class.google_apis::FileResource"* %1, i64 0, i32 19, i32 0, i32 0, i32 0, i32 0, i32 0, i32 1
  %157 = load i64, i64* %156, align 8
  tail call void @_ZNSt3__112basic_stringIcNS_11char_traitsIcEENS_9allocatorIcEEE25__init_copy_ctor_externalEPKcm(%"class.std::__1::basic_string"* %144, i8* %155, i64 %157) #15
  br label %158

158:                                              ; preds = %150, %153
  ret void
}

declare void @_ZN4GURLC1ERKS_(%class.GURL*, %class.GURL* dereferenceable(120)) unnamed_addr #3

; Function Attrs: nounwind ssp uwtable
define linkonce_odr hidden void @_ZNSt3__16vectorIN11google_apis12FileResource12OpenWithLinkENS_9allocatorIS3_EEEC2ERKS6_(%"class.std::__1::vector.121"*, %"class.std::__1::vector.121"* dereferenceable(24)) unnamed_addr #0 comdat align 2 {
  %3 = bitcast %"class.std::__1::vector.121"* %0 to i8*
  tail call void @llvm.memset.p0i8.i64(i8* align 8 %3, i8 0, i64 24, i1 false) #15
  %4 = getelementptr inbounds %"class.std::__1::vector.121", %"class.std::__1::vector.121"* %1, i64 0, i32 0, i32 1
  %5 = bitcast %"struct.google_apis::FileResource::OpenWithLink"** %4 to i64*
  %6 = load i64, i64* %5, align 8
  %7 = bitcast %"class.std::__1::vector.121"* %1 to i64*
  %8 = load i64, i64* %7, align 8
  %9 = sub i64 %6, %8
  %10 = sdiv exact i64 %9, 144
  %11 = icmp eq i64 %9, 0
  br i1 %11, label %58, label %12

12:                                               ; preds = %2
  %13 = icmp ugt i64 %10, 128102389400760775
  br i1 %13, label %14, label %16

14:                                               ; preds = %12
  %15 = bitcast %"class.std::__1::vector.121"* %0 to %"class.std::__1::__vector_base_common"*
  tail call void @_ZNKSt3__120__vector_base_commonILb1EE20__throw_length_errorEv(%"class.std::__1::__vector_base_common"* %15) #16
  unreachable

16:                                               ; preds = %12
  %17 = tail call i8* @_Znwm(i64 %9) #14
  %18 = bitcast i8* %17 to %"struct.google_apis::FileResource::OpenWithLink"*
  %19 = getelementptr inbounds %"class.std::__1::vector.121", %"class.std::__1::vector.121"* %0, i64 0, i32 0, i32 1
  %20 = bitcast %"struct.google_apis::FileResource::OpenWithLink"** %19 to i8**
  store i8* %17, i8** %20, align 8
  %21 = bitcast %"class.std::__1::vector.121"* %0 to i8**
  store i8* %17, i8** %21, align 8
  %22 = getelementptr inbounds %"struct.google_apis::FileResource::OpenWithLink", %"struct.google_apis::FileResource::OpenWithLink"* %18, i64 %10
  %23 = getelementptr inbounds %"class.std::__1::vector.121", %"class.std::__1::vector.121"* %0, i64 0, i32 0, i32 2, i32 0, i32 0
  store %"struct.google_apis::FileResource::OpenWithLink"* %22, %"struct.google_apis::FileResource::OpenWithLink"** %23, align 8
  %24 = getelementptr inbounds %"class.std::__1::vector.121", %"class.std::__1::vector.121"* %1, i64 0, i32 0, i32 0
  %25 = load %"struct.google_apis::FileResource::OpenWithLink"*, %"struct.google_apis::FileResource::OpenWithLink"** %24, align 8
  %26 = load %"struct.google_apis::FileResource::OpenWithLink"*, %"struct.google_apis::FileResource::OpenWithLink"** %4, align 8
  %27 = bitcast %"struct.google_apis::FileResource::OpenWithLink"** %19 to i64*
  %28 = ptrtoint i8* %17 to i64
  %29 = icmp eq %"struct.google_apis::FileResource::OpenWithLink"* %25, %26
  br i1 %29, label %56, label %30

30:                                               ; preds = %16
  %31 = bitcast i8* %17 to %"struct.google_apis::FileResource::OpenWithLink"*
  br label %32

32:                                               ; preds = %48, %30
  %33 = phi %"struct.google_apis::FileResource::OpenWithLink"* [ %52, %48 ], [ %31, %30 ]
  %34 = phi %"struct.google_apis::FileResource::OpenWithLink"* [ %51, %48 ], [ %25, %30 ]
  %35 = bitcast %"struct.google_apis::FileResource::OpenWithLink"* %34 to %"struct.std::__1::basic_string<char, std::__1::char_traits<char>, std::__1::allocator<char> >::__short"*
  %36 = getelementptr inbounds %"struct.std::__1::basic_string<char, std::__1::char_traits<char>, std::__1::allocator<char> >::__short", %"struct.std::__1::basic_string<char, std::__1::char_traits<char>, std::__1::allocator<char> >::__short"* %35, i64 0, i32 1, i32 0
  %37 = load i8, i8* %36, align 1
  %38 = icmp slt i8 %37, 0
  br i1 %38, label %42, label %39

39:                                               ; preds = %32
  %40 = bitcast %"struct.google_apis::FileResource::OpenWithLink"* %33 to i8*
  %41 = bitcast %"struct.google_apis::FileResource::OpenWithLink"* %34 to i8*
  tail call void @llvm.memcpy.p0i8.p0i8.i64(i8* align 8 %40, i8* align 8 %41, i64 24, i1 false) #15
  br label %48

42:                                               ; preds = %32
  %43 = getelementptr inbounds %"struct.google_apis::FileResource::OpenWithLink", %"struct.google_apis::FileResource::OpenWithLink"* %33, i64 0, i32 0
  %44 = getelementptr inbounds %"struct.google_apis::FileResource::OpenWithLink", %"struct.google_apis::FileResource::OpenWithLink"* %34, i64 0, i32 0, i32 0, i32 0, i32 0, i32 0, i32 0, i32 0
  %45 = load i8*, i8** %44, align 8
  %46 = getelementptr inbounds %"struct.google_apis::FileResource::OpenWithLink", %"struct.google_apis::FileResource::OpenWithLink"* %34, i64 0, i32 0, i32 0, i32 0, i32 0, i32 0, i32 0, i32 1
  %47 = load i64, i64* %46, align 8
  tail call void @_ZNSt3__112basic_stringIcNS_11char_traitsIcEENS_9allocatorIcEEE25__init_copy_ctor_externalEPKcm(%"class.std::__1::basic_string"* %43, i8* %45, i64 %47) #15
  br label %48

48:                                               ; preds = %42, %39
  %49 = getelementptr inbounds %"struct.google_apis::FileResource::OpenWithLink", %"struct.google_apis::FileResource::OpenWithLink"* %33, i64 0, i32 1
  %50 = getelementptr inbounds %"struct.google_apis::FileResource::OpenWithLink", %"struct.google_apis::FileResource::OpenWithLink"* %34, i64 0, i32 1
  tail call void @_ZN4GURLC1ERKS_(%class.GURL* %49, %class.GURL* dereferenceable(120) %50) #15
  %51 = getelementptr inbounds %"struct.google_apis::FileResource::OpenWithLink", %"struct.google_apis::FileResource::OpenWithLink"* %34, i64 1
  %52 = getelementptr inbounds %"struct.google_apis::FileResource::OpenWithLink", %"struct.google_apis::FileResource::OpenWithLink"* %33, i64 1
  %53 = icmp eq %"struct.google_apis::FileResource::OpenWithLink"* %51, %26
  br i1 %53, label %54, label %32

54:                                               ; preds = %48
  %55 = ptrtoint %"struct.google_apis::FileResource::OpenWithLink"* %52 to i64
  br label %56

56:                                               ; preds = %16, %54
  %57 = phi i64 [ %28, %16 ], [ %55, %54 ]
  store i64 %57, i64* %27, align 8
  br label %58

58:                                               ; preds = %2, %56
  ret void
}

; Function Attrs: nounwind ssp uwtable
define hidden void @_ZN11google_apis12FileResourceD2Ev(%"class.google_apis::FileResource"*) unnamed_addr #0 align 2 {
  %2 = getelementptr inbounds %"class.google_apis::FileResource", %"class.google_apis::FileResource"* %0, i64 0, i32 19
  %3 = bitcast %"class.std::__1::basic_string"* %2 to %"struct.std::__1::basic_string<char, std::__1::char_traits<char>, std::__1::allocator<char> >::__short"*
  %4 = getelementptr inbounds %"struct.std::__1::basic_string<char, std::__1::char_traits<char>, std::__1::allocator<char> >::__short", %"struct.std::__1::basic_string<char, std::__1::char_traits<char>, std::__1::allocator<char> >::__short"* %3, i64 0, i32 1, i32 0
  %5 = load i8, i8* %4, align 1
  %6 = icmp slt i8 %5, 0
  br i1 %6, label %7, label %10

7:                                                ; preds = %1
  %8 = getelementptr inbounds %"class.std::__1::basic_string", %"class.std::__1::basic_string"* %2, i64 0, i32 0, i32 0, i32 0, i32 0, i32 0, i32 0
  %9 = load i8*, i8** %8, align 8
  tail call void @_ZdlPv(i8* %9) #14
  br label %10

10:                                               ; preds = %1, %7
  %11 = getelementptr inbounds %"class.google_apis::FileResource", %"class.google_apis::FileResource"* %0, i64 0, i32 17
  %12 = getelementptr inbounds %"class.std::__1::vector.121", %"class.std::__1::vector.121"* %11, i64 0, i32 0, i32 0
  %13 = load %"struct.google_apis::FileResource::OpenWithLink"*, %"struct.google_apis::FileResource::OpenWithLink"** %12, align 8
  %14 = icmp eq %"struct.google_apis::FileResource::OpenWithLink"* %13, null
  br i1 %14, label %38, label %15

15:                                               ; preds = %10
  %16 = bitcast %"struct.google_apis::FileResource::OpenWithLink"* %13 to i8*
  %17 = getelementptr inbounds %"class.google_apis::FileResource", %"class.google_apis::FileResource"* %0, i64 0, i32 17, i32 0, i32 1
  %18 = load %"struct.google_apis::FileResource::OpenWithLink"*, %"struct.google_apis::FileResource::OpenWithLink"** %17, align 8
  %19 = icmp eq %"struct.google_apis::FileResource::OpenWithLink"* %18, %13
  br i1 %19, label %36, label %20

20:                                               ; preds = %15, %31
  %21 = phi %"struct.google_apis::FileResource::OpenWithLink"* [ %22, %31 ], [ %18, %15 ]
  %22 = getelementptr inbounds %"struct.google_apis::FileResource::OpenWithLink", %"struct.google_apis::FileResource::OpenWithLink"* %21, i64 -1
  %23 = getelementptr inbounds %"struct.google_apis::FileResource::OpenWithLink", %"struct.google_apis::FileResource::OpenWithLink"* %21, i64 -1, i32 1
  tail call void @_ZN4GURLD1Ev(%class.GURL* %23) #15
  %24 = bitcast %"struct.google_apis::FileResource::OpenWithLink"* %22 to %"struct.std::__1::basic_string<char, std::__1::char_traits<char>, std::__1::allocator<char> >::__short"*
  %25 = getelementptr inbounds %"struct.std::__1::basic_string<char, std::__1::char_traits<char>, std::__1::allocator<char> >::__short", %"struct.std::__1::basic_string<char, std::__1::char_traits<char>, std::__1::allocator<char> >::__short"* %24, i64 0, i32 1, i32 0
  %26 = load i8, i8* %25, align 1
  %27 = icmp slt i8 %26, 0
  br i1 %27, label %28, label %31

28:                                               ; preds = %20
  %29 = getelementptr inbounds %"struct.google_apis::FileResource::OpenWithLink", %"struct.google_apis::FileResource::OpenWithLink"* %22, i64 0, i32 0, i32 0, i32 0, i32 0, i32 0, i32 0, i32 0
  %30 = load i8*, i8** %29, align 8
  tail call void @_ZdlPv(i8* %30) #14
  br label %31

31:                                               ; preds = %28, %20
  %32 = icmp eq %"struct.google_apis::FileResource::OpenWithLink"* %22, %13
  br i1 %32, label %33, label %20

33:                                               ; preds = %31
  %34 = bitcast %"class.std::__1::vector.121"* %11 to i8**
  %35 = load i8*, i8** %34, align 8
  br label %36

36:                                               ; preds = %33, %15
  %37 = phi i8* [ %35, %33 ], [ %16, %15 ]
  store %"struct.google_apis::FileResource::OpenWithLink"* %13, %"struct.google_apis::FileResource::OpenWithLink"** %17, align 8
  tail call void @_ZdlPv(i8* %37) #14
  br label %38

38:                                               ; preds = %10, %36
  %39 = getelementptr inbounds %"class.google_apis::FileResource", %"class.google_apis::FileResource"* %0, i64 0, i32 16
  %40 = getelementptr inbounds %"class.std::__1::vector.115", %"class.std::__1::vector.115"* %39, i64 0, i32 0, i32 0
  %41 = load %"class.google_apis::ParentReference"*, %"class.google_apis::ParentReference"** %40, align 8
  %42 = icmp eq %"class.google_apis::ParentReference"* %41, null
  br i1 %42, label %65, label %43

43:                                               ; preds = %38
  %44 = bitcast %"class.google_apis::ParentReference"* %41 to i8*
  %45 = getelementptr inbounds %"class.google_apis::FileResource", %"class.google_apis::FileResource"* %0, i64 0, i32 16, i32 0, i32 1
  %46 = load %"class.google_apis::ParentReference"*, %"class.google_apis::ParentReference"** %45, align 8
  %47 = icmp eq %"class.google_apis::ParentReference"* %46, %41
  br i1 %47, label %63, label %48

48:                                               ; preds = %43, %58
  %49 = phi %"class.google_apis::ParentReference"* [ %50, %58 ], [ %46, %43 ]
  %50 = getelementptr inbounds %"class.google_apis::ParentReference", %"class.google_apis::ParentReference"* %49, i64 -1
  %51 = bitcast %"class.google_apis::ParentReference"* %50 to %"struct.std::__1::basic_string<char, std::__1::char_traits<char>, std::__1::allocator<char> >::__short"*
  %52 = getelementptr inbounds %"struct.std::__1::basic_string<char, std::__1::char_traits<char>, std::__1::allocator<char> >::__short", %"struct.std::__1::basic_string<char, std::__1::char_traits<char>, std::__1::allocator<char> >::__short"* %51, i64 0, i32 1, i32 0
  %53 = load i8, i8* %52, align 1
  %54 = icmp slt i8 %53, 0
  br i1 %54, label %55, label %58

55:                                               ; preds = %48
  %56 = getelementptr inbounds %"class.google_apis::ParentReference", %"class.google_apis::ParentReference"* %50, i64 0, i32 0, i32 0, i32 0, i32 0, i32 0, i32 0, i32 0
  %57 = load i8*, i8** %56, align 8
  tail call void @_ZdlPv(i8* %57) #14
  br label %58

58:                                               ; preds = %55, %48
  %59 = icmp eq %"class.google_apis::ParentReference"* %50, %41
  br i1 %59, label %60, label %48

60:                                               ; preds = %58
  %61 = bitcast %"class.std::__1::vector.115"* %39 to i8**
  %62 = load i8*, i8** %61, align 8
  br label %63

63:                                               ; preds = %60, %43
  %64 = phi i8* [ %62, %60 ], [ %44, %43 ]
  store %"class.google_apis::ParentReference"* %41, %"class.google_apis::ParentReference"** %45, align 8
  tail call void @_ZdlPv(i8* %64) #14
  br label %65

65:                                               ; preds = %38, %63
  %66 = getelementptr inbounds %"class.google_apis::FileResource", %"class.google_apis::FileResource"* %0, i64 0, i32 15
  tail call void @_ZN4GURLD1Ev(%class.GURL* %66) #15
  %67 = getelementptr inbounds %"class.google_apis::FileResource", %"class.google_apis::FileResource"* %0, i64 0, i32 14
  tail call void @_ZN4GURLD1Ev(%class.GURL* %67) #15
  %68 = getelementptr inbounds %"class.google_apis::FileResource", %"class.google_apis::FileResource"* %0, i64 0, i32 12
  %69 = bitcast %"class.std::__1::basic_string"* %68 to %"struct.std::__1::basic_string<char, std::__1::char_traits<char>, std::__1::allocator<char> >::__short"*
  %70 = getelementptr inbounds %"struct.std::__1::basic_string<char, std::__1::char_traits<char>, std::__1::allocator<char> >::__short", %"struct.std::__1::basic_string<char, std::__1::char_traits<char>, std::__1::allocator<char> >::__short"* %69, i64 0, i32 1, i32 0
  %71 = load i8, i8* %70, align 1
  %72 = icmp slt i8 %71, 0
  br i1 %72, label %73, label %76

73:                                               ; preds = %65
  %74 = getelementptr inbounds %"class.std::__1::basic_string", %"class.std::__1::basic_string"* %68, i64 0, i32 0, i32 0, i32 0, i32 0, i32 0, i32 0
  %75 = load i8*, i8** %74, align 8
  tail call void @_ZdlPv(i8* %75) #14
  br label %76

76:                                               ; preds = %65, %73
  %77 = getelementptr inbounds %"class.google_apis::FileResource", %"class.google_apis::FileResource"* %0, i64 0, i32 3
  %78 = bitcast %"class.std::__1::basic_string"* %77 to %"struct.std::__1::basic_string<char, std::__1::char_traits<char>, std::__1::allocator<char> >::__short"*
  %79 = getelementptr inbounds %"struct.std::__1::basic_string<char, std::__1::char_traits<char>, std::__1::allocator<char> >::__short", %"struct.std::__1::basic_string<char, std::__1::char_traits<char>, std::__1::allocator<char> >::__short"* %78, i64 0, i32 1, i32 0
  %80 = load i8, i8* %79, align 1
  %81 = icmp slt i8 %80, 0
  br i1 %81, label %82, label %85

82:                                               ; preds = %76
  %83 = getelementptr inbounds %"class.std::__1::basic_string", %"class.std::__1::basic_string"* %77, i64 0, i32 0, i32 0, i32 0, i32 0, i32 0, i32 0
  %84 = load i8*, i8** %83, align 8
  tail call void @_ZdlPv(i8* %84) #14
  br label %85

85:                                               ; preds = %76, %82
  %86 = getelementptr inbounds %"class.google_apis::FileResource", %"class.google_apis::FileResource"* %0, i64 0, i32 2
  %87 = bitcast %"class.std::__1::basic_string"* %86 to %"struct.std::__1::basic_string<char, std::__1::char_traits<char>, std::__1::allocator<char> >::__short"*
  %88 = getelementptr inbounds %"struct.std::__1::basic_string<char, std::__1::char_traits<char>, std::__1::allocator<char> >::__short", %"struct.std::__1::basic_string<char, std::__1::char_traits<char>, std::__1::allocator<char> >::__short"* %87, i64 0, i32 1, i32 0
  %89 = load i8, i8* %88, align 1
  %90 = icmp slt i8 %89, 0
  br i1 %90, label %91, label %94

91:                                               ; preds = %85
  %92 = getelementptr inbounds %"class.std::__1::basic_string", %"class.std::__1::basic_string"* %86, i64 0, i32 0, i32 0, i32 0, i32 0, i32 0, i32 0
  %93 = load i8*, i8** %92, align 8
  tail call void @_ZdlPv(i8* %93) #14
  br label %94

94:                                               ; preds = %85, %91
  %95 = getelementptr inbounds %"class.google_apis::FileResource", %"class.google_apis::FileResource"* %0, i64 0, i32 1
  %96 = bitcast %"class.std::__1::basic_string"* %95 to %"struct.std::__1::basic_string<char, std::__1::char_traits<char>, std::__1::allocator<char> >::__short"*
  %97 = getelementptr inbounds %"struct.std::__1::basic_string<char, std::__1::char_traits<char>, std::__1::allocator<char> >::__short", %"struct.std::__1::basic_string<char, std::__1::char_traits<char>, std::__1::allocator<char> >::__short"* %96, i64 0, i32 1, i32 0
  %98 = load i8, i8* %97, align 1
  %99 = icmp slt i8 %98, 0
  br i1 %99, label %100, label %103

100:                                              ; preds = %94
  %101 = getelementptr inbounds %"class.std::__1::basic_string", %"class.std::__1::basic_string"* %95, i64 0, i32 0, i32 0, i32 0, i32 0, i32 0, i32 0
  %102 = load i8*, i8** %101, align 8
  tail call void @_ZdlPv(i8* %102) #14
  br label %103

103:                                              ; preds = %94, %100
  %104 = bitcast %"class.google_apis::FileResource"* %0 to %"struct.std::__1::basic_string<char, std::__1::char_traits<char>, std::__1::allocator<char> >::__short"*
  %105 = getelementptr inbounds %"struct.std::__1::basic_string<char, std::__1::char_traits<char>, std::__1::allocator<char> >::__short", %"struct.std::__1::basic_string<char, std::__1::char_traits<char>, std::__1::allocator<char> >::__short"* %104, i64 0, i32 1, i32 0
  %106 = load i8, i8* %105, align 1
  %107 = icmp slt i8 %106, 0
  br i1 %107, label %108, label %111

108:                                              ; preds = %103
  %109 = getelementptr inbounds %"class.google_apis::FileResource", %"class.google_apis::FileResource"* %0, i64 0, i32 0, i32 0, i32 0, i32 0, i32 0, i32 0, i32 0
  %110 = load i8*, i8** %109, align 8
  tail call void @_ZdlPv(i8* %110) #14
  br label %111

111:                                              ; preds = %103, %108
  ret void
}

; Function Attrs: nounwind
declare void @_ZN4GURLD1Ev(%class.GURL*) unnamed_addr #4

; Function Attrs: nounwind ssp uwtable
define hidden void @_ZN11google_apis12FileResource21RegisterJSONConverterEPN4base18JSONValueConverterIS0_EE(%"class.base::JSONValueConverter.128"*) local_unnamed_addr #0 align 2 {
  %2 = alloca %"class.std::__1::basic_string", align 8
  %3 = alloca %"class.std::__1::basic_string", align 8
  %4 = alloca %"class.std::__1::basic_string", align 8
  %5 = alloca %"class.std::__1::basic_string", align 8
  %6 = alloca %"class.std::__1::basic_string", align 8
  %7 = alloca %"class.std::__1::basic_string", align 8
  %8 = alloca %"class.std::__1::basic_string", align 8
  %9 = alloca %"class.std::__1::basic_string", align 8
  %10 = alloca %"class.std::__1::basic_string", align 8
  %11 = alloca %"class.std::__1::basic_string", align 8
  %12 = alloca %"class.std::__1::basic_string", align 8
  %13 = alloca %"class.std::__1::basic_string", align 8
  %14 = alloca %"class.std::__1::basic_string", align 8
  %15 = alloca %"class.std::__1::basic_string", align 8
  %16 = alloca %"class.std::__1::basic_string", align 8
  %17 = alloca %"class.std::__1::basic_string", align 8
  %18 = alloca %"class.std::__1::basic_string", align 8
  %19 = alloca %"class.std::__1::basic_string", align 8
  %20 = alloca %"class.std::__1::basic_string", align 8
  %21 = alloca %"class.std::__1::basic_string", align 8
  %22 = bitcast %"class.std::__1::basic_string"* %2 to i8*
  call void @llvm.lifetime.start.p0i8(i64 24, i8* nonnull %22) #15
  %23 = bitcast %"class.std::__1::basic_string"* %2 to %"struct.std::__1::basic_string<char, std::__1::char_traits<char>, std::__1::allocator<char> >::__short"*
  %24 = getelementptr inbounds %"struct.std::__1::basic_string<char, std::__1::char_traits<char>, std::__1::allocator<char> >::__short", %"struct.std::__1::basic_string<char, std::__1::char_traits<char>, std::__1::allocator<char> >::__short"* %23, i64 0, i32 1, i32 0
  store i8 2, i8* %24, align 1
  %25 = bitcast %"class.std::__1::basic_string"* %2 to i16*
  store i16 25705, i16* %25, align 8
  %26 = getelementptr inbounds i8, i8* %22, i64 2
  store i8 0, i8* %26, align 2
  call void @_ZN4base18JSONValueConverterIN11google_apis12FileResourceEE19RegisterStringFieldERKNSt3__112basic_stringIcNS4_11char_traitsIcEENS4_9allocatorIcEEEEMS2_SA_(%"class.base::JSONValueConverter.128"* %0, %"class.std::__1::basic_string"* nonnull dereferenceable(24) %2, i64 0)
  %27 = load i8, i8* %24, align 1
  %28 = icmp slt i8 %27, 0
  br i1 %28, label %29, label %32

29:                                               ; preds = %1
  %30 = getelementptr inbounds %"class.std::__1::basic_string", %"class.std::__1::basic_string"* %2, i64 0, i32 0, i32 0, i32 0, i32 0, i32 0, i32 0
  %31 = load i8*, i8** %30, align 8
  call void @_ZdlPv(i8* %31) #14
  br label %32

32:                                               ; preds = %1, %29
  call void @llvm.lifetime.end.p0i8(i64 24, i8* nonnull %22) #15
  %33 = bitcast %"class.std::__1::basic_string"* %3 to i8*
  call void @llvm.lifetime.start.p0i8(i64 24, i8* nonnull %33) #15
  %34 = bitcast %"class.std::__1::basic_string"* %3 to %"struct.std::__1::basic_string<char, std::__1::char_traits<char>, std::__1::allocator<char> >::__short"*
  %35 = getelementptr inbounds %"struct.std::__1::basic_string<char, std::__1::char_traits<char>, std::__1::allocator<char> >::__short", %"struct.std::__1::basic_string<char, std::__1::char_traits<char>, std::__1::allocator<char> >::__short"* %34, i64 0, i32 1, i32 0
  store i8 4, i8* %35, align 1
  %36 = bitcast %"class.std::__1::basic_string"* %3 to i32*
  store i32 1734440037, i32* %36, align 8
  %37 = getelementptr inbounds i8, i8* %33, i64 4
  store i8 0, i8* %37, align 4
  call void @_ZN4base18JSONValueConverterIN11google_apis12FileResourceEE19RegisterStringFieldERKNSt3__112basic_stringIcNS4_11char_traitsIcEENS4_9allocatorIcEEEEMS2_SA_(%"class.base::JSONValueConverter.128"* %0, %"class.std::__1::basic_string"* nonnull dereferenceable(24) %3, i64 24)
  %38 = load i8, i8* %35, align 1
  %39 = icmp slt i8 %38, 0
  br i1 %39, label %40, label %43

40:                                               ; preds = %32
  %41 = getelementptr inbounds %"class.std::__1::basic_string", %"class.std::__1::basic_string"* %3, i64 0, i32 0, i32 0, i32 0, i32 0, i32 0, i32 0
  %42 = load i8*, i8** %41, align 8
  call void @_ZdlPv(i8* %42) #14
  br label %43

43:                                               ; preds = %32, %40
  call void @llvm.lifetime.end.p0i8(i64 24, i8* nonnull %33) #15
  %44 = bitcast %"class.std::__1::basic_string"* %4 to i8*
  call void @llvm.lifetime.start.p0i8(i64 24, i8* nonnull %44) #15
  %45 = bitcast %"class.std::__1::basic_string"* %4 to %"struct.std::__1::basic_string<char, std::__1::char_traits<char>, std::__1::allocator<char> >::__short"*
  %46 = getelementptr inbounds %"struct.std::__1::basic_string<char, std::__1::char_traits<char>, std::__1::allocator<char> >::__short", %"struct.std::__1::basic_string<char, std::__1::char_traits<char>, std::__1::allocator<char> >::__short"* %45, i64 0, i32 1, i32 0
  store i8 5, i8* %46, align 1
  call void @llvm.memcpy.p0i8.p0i8.i64(i8* nonnull align 8 %44, i8* align 1 getelementptr inbounds ([6 x i8], [6 x i8]* @_ZN11google_apis12_GLOBAL__N_16kTitleE, i64 0, i64 0), i64 5, i1 false) #15
  %47 = getelementptr inbounds i8, i8* %44, i64 5
  store i8 0, i8* %47, align 1
  call void @_ZN4base18JSONValueConverterIN11google_apis12FileResourceEE19RegisterStringFieldERKNSt3__112basic_stringIcNS4_11char_traitsIcEENS4_9allocatorIcEEEEMS2_SA_(%"class.base::JSONValueConverter.128"* %0, %"class.std::__1::basic_string"* nonnull dereferenceable(24) %4, i64 48)
  %48 = load i8, i8* %46, align 1
  %49 = icmp slt i8 %48, 0
  br i1 %49, label %50, label %53

50:                                               ; preds = %43
  %51 = getelementptr inbounds %"class.std::__1::basic_string", %"class.std::__1::basic_string"* %4, i64 0, i32 0, i32 0, i32 0, i32 0, i32 0, i32 0
  %52 = load i8*, i8** %51, align 8
  call void @_ZdlPv(i8* %52) #14
  br label %53

53:                                               ; preds = %43, %50
  call void @llvm.lifetime.end.p0i8(i64 24, i8* nonnull %44) #15
  %54 = bitcast %"class.std::__1::basic_string"* %5 to i8*
  call void @llvm.lifetime.start.p0i8(i64 24, i8* nonnull %54) #15
  %55 = bitcast %"class.std::__1::basic_string"* %5 to %"struct.std::__1::basic_string<char, std::__1::char_traits<char>, std::__1::allocator<char> >::__short"*
  %56 = getelementptr inbounds %"struct.std::__1::basic_string<char, std::__1::char_traits<char>, std::__1::allocator<char> >::__short", %"struct.std::__1::basic_string<char, std::__1::char_traits<char>, std::__1::allocator<char> >::__short"* %55, i64 0, i32 1, i32 0
  store i8 8, i8* %56, align 1
  %57 = bitcast %"class.std::__1::basic_string"* %5 to i64*
  store i64 7309475598608197997, i64* %57, align 8
  %58 = getelementptr inbounds %"class.std::__1::basic_string", %"class.std::__1::basic_string"* %5, i64 0, i32 0, i32 0, i32 0, i32 0, i32 0, i32 1
  %59 = bitcast i64* %58 to i8*
  store i8 0, i8* %59, align 8
  call void @_ZN4base18JSONValueConverterIN11google_apis12FileResourceEE19RegisterStringFieldERKNSt3__112basic_stringIcNS4_11char_traitsIcEENS4_9allocatorIcEEEEMS2_SA_(%"class.base::JSONValueConverter.128"* %0, %"class.std::__1::basic_string"* nonnull dereferenceable(24) %5, i64 72)
  %60 = load i8, i8* %56, align 1
  %61 = icmp slt i8 %60, 0
  br i1 %61, label %62, label %65

62:                                               ; preds = %53
  %63 = getelementptr inbounds %"class.std::__1::basic_string", %"class.std::__1::basic_string"* %5, i64 0, i32 0, i32 0, i32 0, i32 0, i32 0, i32 0
  %64 = load i8*, i8** %63, align 8
  call void @_ZdlPv(i8* %64) #14
  br label %65

65:                                               ; preds = %53, %62
  call void @llvm.lifetime.end.p0i8(i64 24, i8* nonnull %54) #15
  %66 = bitcast %"class.std::__1::basic_string"* %6 to i8*
  call void @llvm.lifetime.start.p0i8(i64 24, i8* nonnull %66) #15
  %67 = bitcast %"class.std::__1::basic_string"* %6 to %"struct.std::__1::basic_string<char, std::__1::char_traits<char>, std::__1::allocator<char> >::__short"*
  %68 = getelementptr inbounds %"struct.std::__1::basic_string<char, std::__1::char_traits<char>, std::__1::allocator<char> >::__short", %"struct.std::__1::basic_string<char, std::__1::char_traits<char>, std::__1::allocator<char> >::__short"* %67, i64 0, i32 1, i32 0
  store i8 6, i8* %68, align 1
  call void @llvm.memcpy.p0i8.p0i8.i64(i8* nonnull align 8 %66, i8* align 1 getelementptr inbounds ([7 x i8], [7 x i8]* @_ZN11google_apis12_GLOBAL__N_17kLabelsE, i64 0, i64 0), i64 6, i1 false) #15
  %69 = getelementptr inbounds i8, i8* %66, i64 6
  store i8 0, i8* %69, align 2
  call void @_ZN4base18JSONValueConverterIN11google_apis12FileResourceEE19RegisterNestedFieldINS1_10FileLabelsEEEvRKNSt3__112basic_stringIcNS6_11char_traitsIcEENS6_9allocatorIcEEEEMS2_T_(%"class.base::JSONValueConverter.128"* %0, %"class.std::__1::basic_string"* nonnull dereferenceable(24) %6, i64 96)
  %70 = load i8, i8* %68, align 1
  %71 = icmp slt i8 %70, 0
  br i1 %71, label %72, label %75

72:                                               ; preds = %65
  %73 = getelementptr inbounds %"class.std::__1::basic_string", %"class.std::__1::basic_string"* %6, i64 0, i32 0, i32 0, i32 0, i32 0, i32 0, i32 0
  %74 = load i8*, i8** %73, align 8
  call void @_ZdlPv(i8* %74) #14
  br label %75

75:                                               ; preds = %65, %72
  call void @llvm.lifetime.end.p0i8(i64 24, i8* nonnull %66) #15
  %76 = bitcast %"class.std::__1::basic_string"* %7 to i8*
  call void @llvm.lifetime.start.p0i8(i64 24, i8* nonnull %76) #15
  %77 = bitcast %"class.std::__1::basic_string"* %7 to %"struct.std::__1::basic_string<char, std::__1::char_traits<char>, std::__1::allocator<char> >::__short"*
  %78 = getelementptr inbounds %"struct.std::__1::basic_string<char, std::__1::char_traits<char>, std::__1::allocator<char> >::__short", %"struct.std::__1::basic_string<char, std::__1::char_traits<char>, std::__1::allocator<char> >::__short"* %77, i64 0, i32 1, i32 0
  store i8 18, i8* %78, align 1
  call void @llvm.memcpy.p0i8.p0i8.i64(i8* nonnull align 8 %76, i8* align 16 getelementptr inbounds ([19 x i8], [19 x i8]* @_ZN11google_apis12_GLOBAL__N_119kImageMediaMetadataE, i64 0, i64 0), i64 18, i1 false) #15
  %79 = getelementptr inbounds i8, i8* %76, i64 18
  store i8 0, i8* %79, align 2
  call void @_ZN4base18JSONValueConverterIN11google_apis12FileResourceEE19RegisterNestedFieldINS1_18ImageMediaMetadataEEEvRKNSt3__112basic_stringIcNS6_11char_traitsIcEENS6_9allocatorIcEEEEMS2_T_(%"class.base::JSONValueConverter.128"* %0, %"class.std::__1::basic_string"* nonnull dereferenceable(24) %7, i64 100)
  %80 = load i8, i8* %78, align 1
  %81 = icmp slt i8 %80, 0
  br i1 %81, label %82, label %85

82:                                               ; preds = %75
  %83 = getelementptr inbounds %"class.std::__1::basic_string", %"class.std::__1::basic_string"* %7, i64 0, i32 0, i32 0, i32 0, i32 0, i32 0, i32 0
  %84 = load i8*, i8** %83, align 8
  call void @_ZdlPv(i8* %84) #14
  br label %85

85:                                               ; preds = %75, %82
  call void @llvm.lifetime.end.p0i8(i64 24, i8* nonnull %76) #15
  %86 = bitcast %"class.std::__1::basic_string"* %8 to i8*
  call void @llvm.lifetime.start.p0i8(i64 24, i8* nonnull %86) #15
  %87 = bitcast %"class.std::__1::basic_string"* %8 to %"struct.std::__1::basic_string<char, std::__1::char_traits<char>, std::__1::allocator<char> >::__short"*
  %88 = getelementptr inbounds %"struct.std::__1::basic_string<char, std::__1::char_traits<char>, std::__1::allocator<char> >::__short", %"struct.std::__1::basic_string<char, std::__1::char_traits<char>, std::__1::allocator<char> >::__short"* %87, i64 0, i32 1, i32 0
  store i8 12, i8* %88, align 1
  call void @llvm.memcpy.p0i8.p0i8.i64(i8* nonnull align 8 %86, i8* align 1 getelementptr inbounds ([13 x i8], [13 x i8]* @_ZN11google_apis12_GLOBAL__N_113kCapabilitiesE, i64 0, i64 0), i64 12, i1 false) #15
  %89 = getelementptr inbounds i8, i8* %86, i64 12
  store i8 0, i8* %89, align 4
  call void @_ZN4base18JSONValueConverterIN11google_apis12FileResourceEE19RegisterNestedFieldINS1_24FileResourceCapabilitiesEEEvRKNSt3__112basic_stringIcNS6_11char_traitsIcEENS6_9allocatorIcEEEEMS2_T_(%"class.base::JSONValueConverter.128"* %0, %"class.std::__1::basic_string"* nonnull dereferenceable(24) %8, i64 480)
  %90 = load i8, i8* %88, align 1
  %91 = icmp slt i8 %90, 0
  br i1 %91, label %92, label %95

92:                                               ; preds = %85
  %93 = getelementptr inbounds %"class.std::__1::basic_string", %"class.std::__1::basic_string"* %8, i64 0, i32 0, i32 0, i32 0, i32 0, i32 0, i32 0
  %94 = load i8*, i8** %93, align 8
  call void @_ZdlPv(i8* %94) #14
  br label %95

95:                                               ; preds = %85, %92
  call void @llvm.lifetime.end.p0i8(i64 24, i8* nonnull %86) #15
  %96 = bitcast %"class.std::__1::basic_string"* %9 to i8*
  call void @llvm.lifetime.start.p0i8(i64 24, i8* nonnull %96) #15
  %97 = bitcast %"class.std::__1::basic_string"* %9 to %"struct.std::__1::basic_string<char, std::__1::char_traits<char>, std::__1::allocator<char> >::__short"*
  %98 = getelementptr inbounds %"struct.std::__1::basic_string<char, std::__1::char_traits<char>, std::__1::allocator<char> >::__short", %"struct.std::__1::basic_string<char, std::__1::char_traits<char>, std::__1::allocator<char> >::__short"* %97, i64 0, i32 1, i32 0
  store i8 11, i8* %98, align 1
  call void @llvm.memcpy.p0i8.p0i8.i64(i8* nonnull align 8 %96, i8* align 1 getelementptr inbounds ([12 x i8], [12 x i8]* @_ZN11google_apis12_GLOBAL__N_112kCreatedDateE, i64 0, i64 0), i64 11, i1 false) #15
  %99 = getelementptr inbounds i8, i8* %96, i64 11
  store i8 0, i8* %99, align 1
  call void @_ZN4base18JSONValueConverterIN11google_apis12FileResourceEE19RegisterCustomFieldINS_4TimeEEEvRKNSt3__112basic_stringIcNS6_11char_traitsIcEENS6_9allocatorIcEEEEMS2_T_PFbNS_16BasicStringPieceIcS9_EEPSF_E(%"class.base::JSONValueConverter.128"* %0, %"class.std::__1::basic_string"* nonnull dereferenceable(24) %9, i64 112, i1 (i8*, i64, %"class.base::Time"*)* nonnull @_ZN11google_apis4util17GetTimeFromStringEN4base16BasicStringPieceIcNSt3__111char_traitsIcEEEEPNS1_4TimeE)
  %100 = load i8, i8* %98, align 1
  %101 = icmp slt i8 %100, 0
  br i1 %101, label %102, label %105

102:                                              ; preds = %95
  %103 = getelementptr inbounds %"class.std::__1::basic_string", %"class.std::__1::basic_string"* %9, i64 0, i32 0, i32 0, i32 0, i32 0, i32 0, i32 0
  %104 = load i8*, i8** %103, align 8
  call void @_ZdlPv(i8* %104) #14
  br label %105

105:                                              ; preds = %95, %102
  call void @llvm.lifetime.end.p0i8(i64 24, i8* nonnull %96) #15
  %106 = bitcast %"class.std::__1::basic_string"* %10 to i8*
  call void @llvm.lifetime.start.p0i8(i64 24, i8* nonnull %106) #15
  %107 = bitcast %"class.std::__1::basic_string"* %10 to %"struct.std::__1::basic_string<char, std::__1::char_traits<char>, std::__1::allocator<char> >::__short"*
  %108 = getelementptr inbounds %"struct.std::__1::basic_string<char, std::__1::char_traits<char>, std::__1::allocator<char> >::__short", %"struct.std::__1::basic_string<char, std::__1::char_traits<char>, std::__1::allocator<char> >::__short"* %107, i64 0, i32 1, i32 0
  store i8 12, i8* %108, align 1
  call void @llvm.memcpy.p0i8.p0i8.i64(i8* nonnull align 8 %106, i8* align 1 getelementptr inbounds ([13 x i8], [13 x i8]* @_ZN11google_apis12_GLOBAL__N_113kModifiedDateE, i64 0, i64 0), i64 12, i1 false) #15
  %109 = getelementptr inbounds i8, i8* %106, i64 12
  store i8 0, i8* %109, align 4
  call void @_ZN4base18JSONValueConverterIN11google_apis12FileResourceEE19RegisterCustomFieldINS_4TimeEEEvRKNSt3__112basic_stringIcNS6_11char_traitsIcEENS6_9allocatorIcEEEEMS2_T_PFbNS_16BasicStringPieceIcS9_EEPSF_E(%"class.base::JSONValueConverter.128"* %0, %"class.std::__1::basic_string"* nonnull dereferenceable(24) %10, i64 120, i1 (i8*, i64, %"class.base::Time"*)* nonnull @_ZN11google_apis4util17GetTimeFromStringEN4base16BasicStringPieceIcNSt3__111char_traitsIcEEEEPNS1_4TimeE)
  %110 = load i8, i8* %108, align 1
  %111 = icmp slt i8 %110, 0
  br i1 %111, label %112, label %115

112:                                              ; preds = %105
  %113 = getelementptr inbounds %"class.std::__1::basic_string", %"class.std::__1::basic_string"* %10, i64 0, i32 0, i32 0, i32 0, i32 0, i32 0, i32 0
  %114 = load i8*, i8** %113, align 8
  call void @_ZdlPv(i8* %114) #14
  br label %115

115:                                              ; preds = %105, %112
  call void @llvm.lifetime.end.p0i8(i64 24, i8* nonnull %106) #15
  %116 = bitcast %"class.std::__1::basic_string"* %11 to i8*
  call void @llvm.lifetime.start.p0i8(i64 24, i8* nonnull %116) #15
  %117 = bitcast %"class.std::__1::basic_string"* %11 to %"struct.std::__1::basic_string<char, std::__1::char_traits<char>, std::__1::allocator<char> >::__short"*
  %118 = getelementptr inbounds %"struct.std::__1::basic_string<char, std::__1::char_traits<char>, std::__1::allocator<char> >::__short", %"struct.std::__1::basic_string<char, std::__1::char_traits<char>, std::__1::allocator<char> >::__short"* %117, i64 0, i32 1, i32 0
  store i8 16, i8* %118, align 1
  call void @llvm.memcpy.p0i8.p0i8.i64(i8* nonnull align 8 %116, i8* align 16 getelementptr inbounds ([17 x i8], [17 x i8]* @_ZN11google_apis12_GLOBAL__N_117kModifiedByMeDateE, i64 0, i64 0), i64 16, i1 false) #15
  %119 = getelementptr inbounds %"class.std::__1::basic_string", %"class.std::__1::basic_string"* %11, i64 0, i32 0, i32 0, i32 0, i32 0, i32 0, i32 2
  %120 = bitcast i64* %119 to i8*
  store i8 0, i8* %120, align 8
  call void @_ZN4base18JSONValueConverterIN11google_apis12FileResourceEE19RegisterCustomFieldINS_4TimeEEEvRKNSt3__112basic_stringIcNS6_11char_traitsIcEENS6_9allocatorIcEEEEMS2_T_PFbNS_16BasicStringPieceIcS9_EEPSF_E(%"class.base::JSONValueConverter.128"* %0, %"class.std::__1::basic_string"* nonnull dereferenceable(24) %11, i64 128, i1 (i8*, i64, %"class.base::Time"*)* nonnull @_ZN11google_apis4util17GetTimeFromStringEN4base16BasicStringPieceIcNSt3__111char_traitsIcEEEEPNS1_4TimeE)
  %121 = load i8, i8* %118, align 1
  %122 = icmp slt i8 %121, 0
  br i1 %122, label %123, label %126

123:                                              ; preds = %115
  %124 = getelementptr inbounds %"class.std::__1::basic_string", %"class.std::__1::basic_string"* %11, i64 0, i32 0, i32 0, i32 0, i32 0, i32 0, i32 0
  %125 = load i8*, i8** %124, align 8
  call void @_ZdlPv(i8* %125) #14
  br label %126

126:                                              ; preds = %115, %123
  call void @llvm.lifetime.end.p0i8(i64 24, i8* nonnull %116) #15
  %127 = bitcast %"class.std::__1::basic_string"* %12 to i8*
  call void @llvm.lifetime.start.p0i8(i64 24, i8* nonnull %127) #15
  %128 = bitcast %"class.std::__1::basic_string"* %12 to %"struct.std::__1::basic_string<char, std::__1::char_traits<char>, std::__1::allocator<char> >::__short"*
  %129 = getelementptr inbounds %"struct.std::__1::basic_string<char, std::__1::char_traits<char>, std::__1::allocator<char> >::__short", %"struct.std::__1::basic_string<char, std::__1::char_traits<char>, std::__1::allocator<char> >::__short"* %128, i64 0, i32 1, i32 0
  store i8 18, i8* %129, align 1
  call void @llvm.memcpy.p0i8.p0i8.i64(i8* nonnull align 8 %127, i8* align 16 getelementptr inbounds ([19 x i8], [19 x i8]* @_ZN11google_apis12_GLOBAL__N_119kLastViewedByMeDateE, i64 0, i64 0), i64 18, i1 false) #15
  %130 = getelementptr inbounds i8, i8* %127, i64 18
  store i8 0, i8* %130, align 2
  call void @_ZN4base18JSONValueConverterIN11google_apis12FileResourceEE19RegisterCustomFieldINS_4TimeEEEvRKNSt3__112basic_stringIcNS6_11char_traitsIcEENS6_9allocatorIcEEEEMS2_T_PFbNS_16BasicStringPieceIcS9_EEPSF_E(%"class.base::JSONValueConverter.128"* %0, %"class.std::__1::basic_string"* nonnull dereferenceable(24) %12, i64 136, i1 (i8*, i64, %"class.base::Time"*)* nonnull @_ZN11google_apis4util17GetTimeFromStringEN4base16BasicStringPieceIcNSt3__111char_traitsIcEEEEPNS1_4TimeE)
  %131 = load i8, i8* %129, align 1
  %132 = icmp slt i8 %131, 0
  br i1 %132, label %133, label %136

133:                                              ; preds = %126
  %134 = getelementptr inbounds %"class.std::__1::basic_string", %"class.std::__1::basic_string"* %12, i64 0, i32 0, i32 0, i32 0, i32 0, i32 0, i32 0
  %135 = load i8*, i8** %134, align 8
  call void @_ZdlPv(i8* %135) #14
  br label %136

136:                                              ; preds = %126, %133
  call void @llvm.lifetime.end.p0i8(i64 24, i8* nonnull %127) #15
  %137 = bitcast %"class.std::__1::basic_string"* %13 to i8*
  call void @llvm.lifetime.start.p0i8(i64 24, i8* nonnull %137) #15
  %138 = bitcast %"class.std::__1::basic_string"* %13 to %"struct.std::__1::basic_string<char, std::__1::char_traits<char>, std::__1::allocator<char> >::__short"*
  %139 = getelementptr inbounds %"struct.std::__1::basic_string<char, std::__1::char_traits<char>, std::__1::allocator<char> >::__short", %"struct.std::__1::basic_string<char, std::__1::char_traits<char>, std::__1::allocator<char> >::__short"* %138, i64 0, i32 1, i32 0
  store i8 16, i8* %139, align 1
  call void @llvm.memcpy.p0i8.p0i8.i64(i8* nonnull align 8 %137, i8* align 16 getelementptr inbounds ([17 x i8], [17 x i8]* @_ZN11google_apis12_GLOBAL__N_117kSharedWithMeDateE, i64 0, i64 0), i64 16, i1 false) #15
  %140 = getelementptr inbounds %"class.std::__1::basic_string", %"class.std::__1::basic_string"* %13, i64 0, i32 0, i32 0, i32 0, i32 0, i32 0, i32 2
  %141 = bitcast i64* %140 to i8*
  store i8 0, i8* %141, align 8
  call void @_ZN4base18JSONValueConverterIN11google_apis12FileResourceEE19RegisterCustomFieldINS_4TimeEEEvRKNSt3__112basic_stringIcNS6_11char_traitsIcEENS6_9allocatorIcEEEEMS2_T_PFbNS_16BasicStringPieceIcS9_EEPSF_E(%"class.base::JSONValueConverter.128"* %0, %"class.std::__1::basic_string"* nonnull dereferenceable(24) %13, i64 144, i1 (i8*, i64, %"class.base::Time"*)* nonnull @_ZN11google_apis4util17GetTimeFromStringEN4base16BasicStringPieceIcNSt3__111char_traitsIcEEEEPNS1_4TimeE)
  %142 = load i8, i8* %139, align 1
  %143 = icmp slt i8 %142, 0
  br i1 %143, label %144, label %147

144:                                              ; preds = %136
  %145 = getelementptr inbounds %"class.std::__1::basic_string", %"class.std::__1::basic_string"* %13, i64 0, i32 0, i32 0, i32 0, i32 0, i32 0, i32 0
  %146 = load i8*, i8** %145, align 8
  call void @_ZdlPv(i8* %146) #14
  br label %147

147:                                              ; preds = %136, %144
  call void @llvm.lifetime.end.p0i8(i64 24, i8* nonnull %137) #15
  %148 = bitcast %"class.std::__1::basic_string"* %14 to i8*
  call void @llvm.lifetime.start.p0i8(i64 24, i8* nonnull %148) #15
  %149 = bitcast %"class.std::__1::basic_string"* %14 to %"struct.std::__1::basic_string<char, std::__1::char_traits<char>, std::__1::allocator<char> >::__short"*
  %150 = getelementptr inbounds %"struct.std::__1::basic_string<char, std::__1::char_traits<char>, std::__1::allocator<char> >::__short", %"struct.std::__1::basic_string<char, std::__1::char_traits<char>, std::__1::allocator<char> >::__short"* %149, i64 0, i32 1, i32 0
  store i8 6, i8* %150, align 1
  call void @llvm.memcpy.p0i8.p0i8.i64(i8* nonnull align 8 %148, i8* align 1 getelementptr inbounds ([7 x i8], [7 x i8]* @_ZN11google_apis12_GLOBAL__N_17kSharedE, i64 0, i64 0), i64 6, i1 false) #15
  %151 = getelementptr inbounds i8, i8* %148, i64 6
  store i8 0, i8* %151, align 2
  call void @_ZN4base18JSONValueConverterIN11google_apis12FileResourceEE17RegisterBoolFieldERKNSt3__112basic_stringIcNS4_11char_traitsIcEENS4_9allocatorIcEEEEMS2_b(%"class.base::JSONValueConverter.128"* %0, %"class.std::__1::basic_string"* nonnull dereferenceable(24) %14, i64 152)
  %152 = load i8, i8* %150, align 1
  %153 = icmp slt i8 %152, 0
  br i1 %153, label %154, label %157

154:                                              ; preds = %147
  %155 = getelementptr inbounds %"class.std::__1::basic_string", %"class.std::__1::basic_string"* %14, i64 0, i32 0, i32 0, i32 0, i32 0, i32 0, i32 0
  %156 = load i8*, i8** %155, align 8
  call void @_ZdlPv(i8* %156) #14
  br label %157

157:                                              ; preds = %147, %154
  call void @llvm.lifetime.end.p0i8(i64 24, i8* nonnull %148) #15
  %158 = bitcast %"class.std::__1::basic_string"* %15 to i8*
  call void @llvm.lifetime.start.p0i8(i64 24, i8* nonnull %158) #15
  %159 = bitcast %"class.std::__1::basic_string"* %15 to %"struct.std::__1::basic_string<char, std::__1::char_traits<char>, std::__1::allocator<char> >::__short"*
  %160 = getelementptr inbounds %"struct.std::__1::basic_string<char, std::__1::char_traits<char>, std::__1::allocator<char> >::__short", %"struct.std::__1::basic_string<char, std::__1::char_traits<char>, std::__1::allocator<char> >::__short"* %159, i64 0, i32 1, i32 0
  store i8 11, i8* %160, align 1
  call void @llvm.memcpy.p0i8.p0i8.i64(i8* nonnull align 8 %158, i8* align 1 getelementptr inbounds ([12 x i8], [12 x i8]* @_ZN11google_apis12_GLOBAL__N_112kMd5ChecksumE, i64 0, i64 0), i64 11, i1 false) #15
  %161 = getelementptr inbounds i8, i8* %158, i64 11
  store i8 0, i8* %161, align 1
  call void @_ZN4base18JSONValueConverterIN11google_apis12FileResourceEE19RegisterStringFieldERKNSt3__112basic_stringIcNS4_11char_traitsIcEENS4_9allocatorIcEEEEMS2_SA_(%"class.base::JSONValueConverter.128"* %0, %"class.std::__1::basic_string"* nonnull dereferenceable(24) %15, i64 160)
  %162 = load i8, i8* %160, align 1
  %163 = icmp slt i8 %162, 0
  br i1 %163, label %164, label %167

164:                                              ; preds = %157
  %165 = getelementptr inbounds %"class.std::__1::basic_string", %"class.std::__1::basic_string"* %15, i64 0, i32 0, i32 0, i32 0, i32 0, i32 0, i32 0
  %166 = load i8*, i8** %165, align 8
  call void @_ZdlPv(i8* %166) #14
  br label %167

167:                                              ; preds = %157, %164
  call void @llvm.lifetime.end.p0i8(i64 24, i8* nonnull %158) #15
  %168 = bitcast %"class.std::__1::basic_string"* %16 to i8*
  call void @llvm.lifetime.start.p0i8(i64 24, i8* nonnull %168) #15
  %169 = bitcast %"class.std::__1::basic_string"* %16 to %"struct.std::__1::basic_string<char, std::__1::char_traits<char>, std::__1::allocator<char> >::__short"*
  %170 = getelementptr inbounds %"struct.std::__1::basic_string<char, std::__1::char_traits<char>, std::__1::allocator<char> >::__short", %"struct.std::__1::basic_string<char, std::__1::char_traits<char>, std::__1::allocator<char> >::__short"* %169, i64 0, i32 1, i32 0
  store i8 8, i8* %170, align 1
  %171 = bitcast %"class.std::__1::basic_string"* %16 to i64*
  store i64 7312272751894227302, i64* %171, align 8
  %172 = getelementptr inbounds %"class.std::__1::basic_string", %"class.std::__1::basic_string"* %16, i64 0, i32 0, i32 0, i32 0, i32 0, i32 0, i32 1
  %173 = bitcast i64* %172 to i8*
  store i8 0, i8* %173, align 8
  call void @_ZN4base18JSONValueConverterIN11google_apis12FileResourceEE19RegisterCustomFieldIlEEvRKNSt3__112basic_stringIcNS5_11char_traitsIcEENS5_9allocatorIcEEEEMS2_T_PFbNS_16BasicStringPieceIcS8_EEPSE_E(%"class.base::JSONValueConverter.128"* %0, %"class.std::__1::basic_string"* nonnull dereferenceable(24) %16, i64 184, i1 (i8*, i64, i64*)* nonnull @_ZN4base13StringToInt64ENS_16BasicStringPieceIcNSt3__111char_traitsIcEEEEPl)
  %174 = load i8, i8* %170, align 1
  %175 = icmp slt i8 %174, 0
  br i1 %175, label %176, label %179

176:                                              ; preds = %167
  %177 = getelementptr inbounds %"class.std::__1::basic_string", %"class.std::__1::basic_string"* %16, i64 0, i32 0, i32 0, i32 0, i32 0, i32 0, i32 0
  %178 = load i8*, i8** %177, align 8
  call void @_ZdlPv(i8* %178) #14
  br label %179

179:                                              ; preds = %167, %176
  call void @llvm.lifetime.end.p0i8(i64 24, i8* nonnull %168) #15
  %180 = bitcast %"class.std::__1::basic_string"* %17 to i8*
  call void @llvm.lifetime.start.p0i8(i64 24, i8* nonnull %180) #15
  %181 = bitcast %"class.std::__1::basic_string"* %17 to %"struct.std::__1::basic_string<char, std::__1::char_traits<char>, std::__1::allocator<char> >::__short"*
  %182 = getelementptr inbounds %"struct.std::__1::basic_string<char, std::__1::char_traits<char>, std::__1::allocator<char> >::__short", %"struct.std::__1::basic_string<char, std::__1::char_traits<char>, std::__1::allocator<char> >::__short"* %181, i64 0, i32 1, i32 0
  store i8 13, i8* %182, align 1
  call void @llvm.memcpy.p0i8.p0i8.i64(i8* nonnull align 8 %180, i8* align 1 getelementptr inbounds ([14 x i8], [14 x i8]* @_ZN11google_apis12_GLOBAL__N_114kAlternateLinkE, i64 0, i64 0), i64 13, i1 false) #15
  %183 = getelementptr inbounds i8, i8* %180, i64 13
  store i8 0, i8* %183, align 1
  call void @_ZN4base18JSONValueConverterIN11google_apis12FileResourceEE19RegisterCustomFieldI4GURLEEvRKNSt3__112basic_stringIcNS6_11char_traitsIcEENS6_9allocatorIcEEEEMS2_T_PFbNS_16BasicStringPieceIcS9_EEPSF_E(%"class.base::JSONValueConverter.128"* %0, %"class.std::__1::basic_string"* nonnull dereferenceable(24) %17, i64 192, i1 (i8*, i64, %class.GURL*)* nonnull @_ZN11google_apis12_GLOBAL__N_117GetGURLFromStringEN4base16BasicStringPieceIcNSt3__111char_traitsIcEEEEP4GURL)
  %184 = load i8, i8* %182, align 1
  %185 = icmp slt i8 %184, 0
  br i1 %185, label %186, label %189

186:                                              ; preds = %179
  %187 = getelementptr inbounds %"class.std::__1::basic_string", %"class.std::__1::basic_string"* %17, i64 0, i32 0, i32 0, i32 0, i32 0, i32 0, i32 0
  %188 = load i8*, i8** %187, align 8
  call void @_ZdlPv(i8* %188) #14
  br label %189

189:                                              ; preds = %179, %186
  call void @llvm.lifetime.end.p0i8(i64 24, i8* nonnull %180) #15
  %190 = bitcast %"class.std::__1::basic_string"* %18 to i8*
  call void @llvm.lifetime.start.p0i8(i64 24, i8* nonnull %190) #15
  %191 = bitcast %"class.std::__1::basic_string"* %18 to %"struct.std::__1::basic_string<char, std::__1::char_traits<char>, std::__1::allocator<char> >::__short"*
  %192 = getelementptr inbounds %"struct.std::__1::basic_string<char, std::__1::char_traits<char>, std::__1::allocator<char> >::__short", %"struct.std::__1::basic_string<char, std::__1::char_traits<char>, std::__1::allocator<char> >::__short"* %191, i64 0, i32 1, i32 0
  store i8 9, i8* %192, align 1
  call void @llvm.memcpy.p0i8.p0i8.i64(i8* nonnull align 8 %190, i8* align 1 getelementptr inbounds ([10 x i8], [10 x i8]* @_ZN11google_apis12_GLOBAL__N_110kShareLinkE, i64 0, i64 0), i64 9, i1 false) #15
  %193 = getelementptr inbounds i8, i8* %190, i64 9
  store i8 0, i8* %193, align 1
  call void @_ZN4base18JSONValueConverterIN11google_apis12FileResourceEE19RegisterCustomFieldI4GURLEEvRKNSt3__112basic_stringIcNS6_11char_traitsIcEENS6_9allocatorIcEEEEMS2_T_PFbNS_16BasicStringPieceIcS9_EEPSF_E(%"class.base::JSONValueConverter.128"* %0, %"class.std::__1::basic_string"* nonnull dereferenceable(24) %18, i64 312, i1 (i8*, i64, %class.GURL*)* nonnull @_ZN11google_apis12_GLOBAL__N_117GetGURLFromStringEN4base16BasicStringPieceIcNSt3__111char_traitsIcEEEEP4GURL)
  %194 = load i8, i8* %192, align 1
  %195 = icmp slt i8 %194, 0
  br i1 %195, label %196, label %199

196:                                              ; preds = %189
  %197 = getelementptr inbounds %"class.std::__1::basic_string", %"class.std::__1::basic_string"* %18, i64 0, i32 0, i32 0, i32 0, i32 0, i32 0, i32 0
  %198 = load i8*, i8** %197, align 8
  call void @_ZdlPv(i8* %198) #14
  br label %199

199:                                              ; preds = %189, %196
  call void @llvm.lifetime.end.p0i8(i64 24, i8* nonnull %190) #15
  %200 = bitcast %"class.std::__1::basic_string"* %19 to i8*
  call void @llvm.lifetime.start.p0i8(i64 24, i8* nonnull %200) #15
  %201 = bitcast %"class.std::__1::basic_string"* %19 to %"struct.std::__1::basic_string<char, std::__1::char_traits<char>, std::__1::allocator<char> >::__short"*
  %202 = getelementptr inbounds %"struct.std::__1::basic_string<char, std::__1::char_traits<char>, std::__1::allocator<char> >::__short", %"struct.std::__1::basic_string<char, std::__1::char_traits<char>, std::__1::allocator<char> >::__short"* %201, i64 0, i32 1, i32 0
  store i8 7, i8* %202, align 1
  call void @llvm.memcpy.p0i8.p0i8.i64(i8* nonnull align 8 %200, i8* align 1 getelementptr inbounds ([8 x i8], [8 x i8]* @_ZN11google_apis12_GLOBAL__N_18kParentsE, i64 0, i64 0), i64 7, i1 false) #15
  %203 = getelementptr inbounds i8, i8* %200, i64 7
  store i8 0, i8* %203, align 1
  call void @_ZN4base18JSONValueConverterIN11google_apis12FileResourceEE24RegisterCustomValueFieldINSt3__16vectorINS1_15ParentReferenceENS5_9allocatorIS7_EEEEEEvRKNS5_12basic_stringIcNS5_11char_traitsIcEENS8_IcEEEEMS2_T_PFbPKNS_5ValueEPSI_E(%"class.base::JSONValueConverter.128"* %0, %"class.std::__1::basic_string"* nonnull dereferenceable(24) %19, i64 432, i1 (%"class.base::Value"*, %"class.std::__1::vector.115"*)* nonnull @_ZN11google_apis12_GLOBAL__N_119GetParentsFromValueEPKN4base5ValueEPNSt3__16vectorINS_15ParentReferenceENS5_9allocatorIS7_EEEE)
  %204 = load i8, i8* %202, align 1
  %205 = icmp slt i8 %204, 0
  br i1 %205, label %206, label %209

206:                                              ; preds = %199
  %207 = getelementptr inbounds %"class.std::__1::basic_string", %"class.std::__1::basic_string"* %19, i64 0, i32 0, i32 0, i32 0, i32 0, i32 0, i32 0
  %208 = load i8*, i8** %207, align 8
  call void @_ZdlPv(i8* %208) #14
  br label %209

209:                                              ; preds = %199, %206
  call void @llvm.lifetime.end.p0i8(i64 24, i8* nonnull %200) #15
  %210 = bitcast %"class.std::__1::basic_string"* %20 to i8*
  call void @llvm.lifetime.start.p0i8(i64 24, i8* nonnull %210) #15
  %211 = bitcast %"class.std::__1::basic_string"* %20 to %"struct.std::__1::basic_string<char, std::__1::char_traits<char>, std::__1::allocator<char> >::__short"*
  %212 = getelementptr inbounds %"struct.std::__1::basic_string<char, std::__1::char_traits<char>, std::__1::allocator<char> >::__short", %"struct.std::__1::basic_string<char, std::__1::char_traits<char>, std::__1::allocator<char> >::__short"* %211, i64 0, i32 1, i32 0
  store i8 13, i8* %212, align 1
  call void @llvm.memcpy.p0i8.p0i8.i64(i8* nonnull align 8 %210, i8* align 1 getelementptr inbounds ([14 x i8], [14 x i8]* @_ZN11google_apis12_GLOBAL__N_114kOpenWithLinksE, i64 0, i64 0), i64 13, i1 false) #15
  %213 = getelementptr inbounds i8, i8* %210, i64 13
  store i8 0, i8* %213, align 1
  call void @_ZN4base18JSONValueConverterIN11google_apis12FileResourceEE24RegisterCustomValueFieldINSt3__16vectorINS2_12OpenWithLinkENS5_9allocatorIS7_EEEEEEvRKNS5_12basic_stringIcNS5_11char_traitsIcEENS8_IcEEEEMS2_T_PFbPKNS_5ValueEPSI_E(%"class.base::JSONValueConverter.128"* %0, %"class.std::__1::basic_string"* nonnull dereferenceable(24) %20, i64 456, i1 (%"class.base::Value"*, %"class.std::__1::vector.121"*)* nonnull @_ZN11google_apis12_GLOBAL__N_135GetOpenWithLinksFromDictionaryValueEPKN4base5ValueEPNSt3__16vectorINS_12FileResource12OpenWithLinkENS5_9allocatorIS8_EEEE)
  %214 = load i8, i8* %212, align 1
  %215 = icmp slt i8 %214, 0
  br i1 %215, label %216, label %219

216:                                              ; preds = %209
  %217 = getelementptr inbounds %"class.std::__1::basic_string", %"class.std::__1::basic_string"* %20, i64 0, i32 0, i32 0, i32 0, i32 0, i32 0, i32 0
  %218 = load i8*, i8** %217, align 8
  call void @_ZdlPv(i8* %218) #14
  br label %219

219:                                              ; preds = %209, %216
  call void @llvm.lifetime.end.p0i8(i64 24, i8* nonnull %210) #15
  %220 = bitcast %"class.std::__1::basic_string"* %21 to i8*
  call void @llvm.lifetime.start.p0i8(i64 24, i8* nonnull %220) #15
  %221 = bitcast %"class.std::__1::basic_string"* %21 to %"struct.std::__1::basic_string<char, std::__1::char_traits<char>, std::__1::allocator<char> >::__short"*
  %222 = getelementptr inbounds %"struct.std::__1::basic_string<char, std::__1::char_traits<char>, std::__1::allocator<char> >::__short", %"struct.std::__1::basic_string<char, std::__1::char_traits<char>, std::__1::allocator<char> >::__short"* %221, i64 0, i32 1, i32 0
  store i8 11, i8* %222, align 1
  call void @llvm.memcpy.p0i8.p0i8.i64(i8* nonnull align 8 %220, i8* align 1 getelementptr inbounds ([12 x i8], [12 x i8]* @_ZN11google_apis12_GLOBAL__N_112kTeamDriveIdE, i64 0, i64 0), i64 11, i1 false) #15
  %223 = getelementptr inbounds i8, i8* %220, i64 11
  store i8 0, i8* %223, align 1
  call void @_ZN4base18JSONValueConverterIN11google_apis12FileResourceEE19RegisterStringFieldERKNSt3__112basic_stringIcNS4_11char_traitsIcEENS4_9allocatorIcEEEEMS2_SA_(%"class.base::JSONValueConverter.128"* %0, %"class.std::__1::basic_string"* nonnull dereferenceable(24) %21, i64 504)
  %224 = load i8, i8* %222, align 1
  %225 = icmp slt i8 %224, 0
  br i1 %225, label %226, label %229

226:                                              ; preds = %219
  %227 = getelementptr inbounds %"class.std::__1::basic_string", %"class.std::__1::basic_string"* %21, i64 0, i32 0, i32 0, i32 0, i32 0, i32 0, i32 0
  %228 = load i8*, i8** %227, align 8
  call void @_ZdlPv(i8* %228) #14
  br label %229

229:                                              ; preds = %219, %226
  call void @llvm.lifetime.end.p0i8(i64 24, i8* nonnull %220) #15
  ret void
}

; Function Attrs: nounwind ssp uwtable
define linkonce_odr hidden void @_ZN4base18JSONValueConverterIN11google_apis12FileResourceEE19RegisterStringFieldERKNSt3__112basic_stringIcNS4_11char_traitsIcEENS4_9allocatorIcEEEEMS2_SA_(%"class.base::JSONValueConverter.128"*, %"class.std::__1::basic_string"* dereferenceable(24), i64) local_unnamed_addr #0 comdat align 2 {
  %4 = alloca %"class.std::__1::unique_ptr.131", align 8
  %5 = getelementptr inbounds %"class.base::JSONValueConverter.128", %"class.base::JSONValueConverter.128"* %0, i64 0, i32 0
  %6 = bitcast %"class.std::__1::unique_ptr.131"* %4 to i8*
  call void @llvm.lifetime.start.p0i8(i64 8, i8* nonnull %6) #15
  %7 = tail call i8* @_Znwm(i64 8) #14
  %8 = bitcast i8* %7 to i32 (...)***
  store i32 (...)** bitcast (i8** getelementptr inbounds ({ [5 x i8*] }, { [5 x i8*] }* @_ZTVN4base8internal19BasicValueConverterINSt3__112basic_stringIcNS2_11char_traitsIcEENS2_9allocatorIcEEEEEE, i64 0, inrange i32 0, i64 2) to i32 (...)**), i32 (...)*** %8, align 8
  %9 = ptrtoint i8* %7 to i64
  %10 = tail call i8* @_Znwm(i64 48) #14
  %11 = bitcast i8* %10 to i32 (...)***
  store i32 (...)** bitcast (i8** getelementptr inbounds ({ [5 x i8*] }, { [5 x i8*] }* @_ZTVN4base8internal18FieldConverterBaseIN11google_apis12FileResourceEEE, i64 0, inrange i32 0, i64 2) to i32 (...)**), i32 (...)*** %11, align 8
  %12 = getelementptr inbounds i8, i8* %10, i64 8
  %13 = bitcast %"class.std::__1::basic_string"* %1 to %"struct.std::__1::basic_string<char, std::__1::char_traits<char>, std::__1::allocator<char> >::__short"*
  %14 = getelementptr inbounds %"struct.std::__1::basic_string<char, std::__1::char_traits<char>, std::__1::allocator<char> >::__short", %"struct.std::__1::basic_string<char, std::__1::char_traits<char>, std::__1::allocator<char> >::__short"* %13, i64 0, i32 1, i32 0
  %15 = load i8, i8* %14, align 1
  %16 = icmp slt i8 %15, 0
  br i1 %16, label %19, label %17

17:                                               ; preds = %3
  %18 = bitcast %"class.std::__1::basic_string"* %1 to i8*
  tail call void @llvm.memcpy.p0i8.p0i8.i64(i8* align 8 %12, i8* align 8 %18, i64 24, i1 false) #15
  br label %25

19:                                               ; preds = %3
  %20 = bitcast i8* %12 to %"class.std::__1::basic_string"*
  %21 = getelementptr inbounds %"class.std::__1::basic_string", %"class.std::__1::basic_string"* %1, i64 0, i32 0, i32 0, i32 0, i32 0, i32 0, i32 0
  %22 = load i8*, i8** %21, align 8
  %23 = getelementptr inbounds %"class.std::__1::basic_string", %"class.std::__1::basic_string"* %1, i64 0, i32 0, i32 0, i32 0, i32 0, i32 0, i32 1
  %24 = load i64, i64* %23, align 8
  tail call void @_ZNSt3__112basic_stringIcNS_11char_traitsIcEENS_9allocatorIcEEE25__init_copy_ctor_externalEPKcm(%"class.std::__1::basic_string"* %20, i8* %22, i64 %24) #15
  br label %25

25:                                               ; preds = %17, %19
  store i32 (...)** bitcast (i8** getelementptr inbounds ({ [5 x i8*] }, { [5 x i8*] }* @_ZTVN4base8internal14FieldConverterIN11google_apis12FileResourceENSt3__112basic_stringIcNS4_11char_traitsIcEENS4_9allocatorIcEEEEEE, i64 0, inrange i32 0, i64 2) to i32 (...)**), i32 (...)*** %11, align 8
  %26 = getelementptr inbounds i8, i8* %10, i64 32
  %27 = bitcast i8* %26 to i64*
  store i64 %2, i64* %27, align 8
  %28 = getelementptr inbounds i8, i8* %10, i64 40
  %29 = bitcast i8* %28 to i64*
  store i64 %9, i64* %29, align 8
  %30 = ptrtoint i8* %10 to i64
  %31 = bitcast %"class.std::__1::unique_ptr.131"* %4 to i64*
  store i64 %30, i64* %31, align 8
  %32 = getelementptr inbounds %"class.base::JSONValueConverter.128", %"class.base::JSONValueConverter.128"* %0, i64 0, i32 0, i32 0, i32 1
  %33 = load %"class.std::__1::unique_ptr.131"*, %"class.std::__1::unique_ptr.131"** %32, align 8
  %34 = getelementptr inbounds %"class.base::JSONValueConverter.128", %"class.base::JSONValueConverter.128"* %0, i64 0, i32 0, i32 0, i32 2, i32 0, i32 0
  %35 = load %"class.std::__1::unique_ptr.131"*, %"class.std::__1::unique_ptr.131"** %34, align 8
  %36 = icmp ult %"class.std::__1::unique_ptr.131"* %33, %35
  br i1 %36, label %37, label %43

37:                                               ; preds = %25
  %38 = getelementptr inbounds %"class.std::__1::unique_ptr.131", %"class.std::__1::unique_ptr.131"* %4, i64 0, i32 0, i32 0, i32 0
  store %"class.base::internal::FieldConverterBase.284"* null, %"class.base::internal::FieldConverterBase.284"** %38, align 8
  %39 = bitcast %"class.std::__1::unique_ptr.131"* %33 to i64*
  store i64 %30, i64* %39, align 8
  %40 = getelementptr inbounds %"class.std::__1::unique_ptr.131", %"class.std::__1::unique_ptr.131"* %33, i64 1
  %41 = ptrtoint %"class.std::__1::unique_ptr.131"* %40 to i64
  %42 = bitcast %"class.std::__1::unique_ptr.131"** %32 to i64*
  store i64 %41, i64* %42, align 8
  br label %44

43:                                               ; preds = %25
  call void @_ZNSt3__16vectorINS_10unique_ptrIN4base8internal18FieldConverterBaseIN11google_apis12FileResourceEEENS_14default_deleteIS7_EEEENS_9allocatorISA_EEE21__push_back_slow_pathISA_EEvOT_(%"class.std::__1::vector.129"* %5, %"class.std::__1::unique_ptr.131"* nonnull dereferenceable(8) %4) #15
  br label %44

44:                                               ; preds = %37, %43
  %45 = getelementptr inbounds %"class.std::__1::unique_ptr.131", %"class.std::__1::unique_ptr.131"* %4, i64 0, i32 0, i32 0, i32 0
  %46 = load %"class.base::internal::FieldConverterBase.284"*, %"class.base::internal::FieldConverterBase.284"** %45, align 8
  store %"class.base::internal::FieldConverterBase.284"* null, %"class.base::internal::FieldConverterBase.284"** %45, align 8
  %47 = icmp eq %"class.base::internal::FieldConverterBase.284"* %46, null
  br i1 %47, label %53, label %48

48:                                               ; preds = %44
  %49 = bitcast %"class.base::internal::FieldConverterBase.284"* %46 to void (%"class.base::internal::FieldConverterBase.284"*)***
  %50 = load void (%"class.base::internal::FieldConverterBase.284"*)**, void (%"class.base::internal::FieldConverterBase.284"*)*** %49, align 8
  %51 = getelementptr inbounds void (%"class.base::internal::FieldConverterBase.284"*)*, void (%"class.base::internal::FieldConverterBase.284"*)** %50, i64 1
  %52 = load void (%"class.base::internal::FieldConverterBase.284"*)*, void (%"class.base::internal::FieldConverterBase.284"*)** %51, align 8
  call void %52(%"class.base::internal::FieldConverterBase.284"* nonnull %46) #15
  br label %53

53:                                               ; preds = %48, %44
  call void @llvm.lifetime.end.p0i8(i64 8, i8* nonnull %6) #15
  ret void
}

; Function Attrs: nounwind ssp uwtable
define linkonce_odr hidden void @_ZN4base18JSONValueConverterIN11google_apis12FileResourceEE19RegisterNestedFieldINS1_10FileLabelsEEEvRKNSt3__112basic_stringIcNS6_11char_traitsIcEENS6_9allocatorIcEEEEMS2_T_(%"class.base::JSONValueConverter.128"*, %"class.std::__1::basic_string"* dereferenceable(24), i64) local_unnamed_addr #0 comdat align 2 {
  %4 = alloca %"class.std::__1::basic_string", align 8
  %5 = alloca %"class.std::__1::basic_string", align 8
  %6 = alloca %"class.std::__1::unique_ptr.131", align 8
  %7 = getelementptr inbounds %"class.base::JSONValueConverter.128", %"class.base::JSONValueConverter.128"* %0, i64 0, i32 0
  %8 = bitcast %"class.std::__1::unique_ptr.131"* %6 to i8*
  call void @llvm.lifetime.start.p0i8(i64 8, i8* nonnull %8) #15
  %9 = tail call i8* @_Znwm(i64 32) #14
  %10 = bitcast i8* %9 to i32 (...)***
  store i32 (...)** bitcast (i8** getelementptr inbounds ({ [5 x i8*] }, { [5 x i8*] }* @_ZTVN4base8internal20NestedValueConverterIN11google_apis10FileLabelsEEE, i64 0, inrange i32 0, i64 2) to i32 (...)**), i32 (...)*** %10, align 8
  %11 = getelementptr inbounds i8, i8* %9, i64 8
  %12 = bitcast i8* %11 to %"class.base::JSONValueConverter.202"*
  tail call void @llvm.memset.p0i8.i64(i8* align 8 %11, i8 0, i64 24, i1 false) #15
  %13 = bitcast %"class.std::__1::basic_string"* %4 to i8*
  call void @llvm.lifetime.start.p0i8(i64 24, i8* nonnull %13) #15
  %14 = bitcast %"class.std::__1::basic_string"* %4 to %"struct.std::__1::basic_string<char, std::__1::char_traits<char>, std::__1::allocator<char> >::__short"*
  %15 = getelementptr inbounds %"struct.std::__1::basic_string<char, std::__1::char_traits<char>, std::__1::allocator<char> >::__short", %"struct.std::__1::basic_string<char, std::__1::char_traits<char>, std::__1::allocator<char> >::__short"* %14, i64 0, i32 1, i32 0
  store i8 7, i8* %15, align 1
  call void @llvm.memcpy.p0i8.p0i8.i64(i8* nonnull align 8 %13, i8* align 1 getelementptr inbounds ([8 x i8], [8 x i8]* @_ZN11google_apis12_GLOBAL__N_113kLabelTrashedE, i64 0, i64 0), i64 7, i1 false) #15
  %16 = getelementptr inbounds i8, i8* %13, i64 7
  store i8 0, i8* %16, align 1
  call void @_ZN4base18JSONValueConverterIN11google_apis10FileLabelsEE17RegisterBoolFieldERKNSt3__112basic_stringIcNS4_11char_traitsIcEENS4_9allocatorIcEEEEMS2_b(%"class.base::JSONValueConverter.202"* %12, %"class.std::__1::basic_string"* nonnull dereferenceable(24) %4, i64 0) #15
  %17 = load i8, i8* %15, align 1
  %18 = icmp slt i8 %17, 0
  br i1 %18, label %19, label %22

19:                                               ; preds = %3
  %20 = getelementptr inbounds %"class.std::__1::basic_string", %"class.std::__1::basic_string"* %4, i64 0, i32 0, i32 0, i32 0, i32 0, i32 0, i32 0
  %21 = load i8*, i8** %20, align 8
  call void @_ZdlPv(i8* %21) #14
  br label %22

22:                                               ; preds = %19, %3
  call void @llvm.lifetime.end.p0i8(i64 24, i8* nonnull %13) #15
  %23 = bitcast %"class.std::__1::basic_string"* %5 to i8*
  call void @llvm.lifetime.start.p0i8(i64 24, i8* nonnull %23) #15
  %24 = bitcast %"class.std::__1::basic_string"* %5 to %"struct.std::__1::basic_string<char, std::__1::char_traits<char>, std::__1::allocator<char> >::__short"*
  %25 = getelementptr inbounds %"struct.std::__1::basic_string<char, std::__1::char_traits<char>, std::__1::allocator<char> >::__short", %"struct.std::__1::basic_string<char, std::__1::char_traits<char>, std::__1::allocator<char> >::__short"* %24, i64 0, i32 1, i32 0
  store i8 7, i8* %25, align 1
  call void @llvm.memcpy.p0i8.p0i8.i64(i8* nonnull align 8 %23, i8* align 1 getelementptr inbounds ([8 x i8], [8 x i8]* @_ZN11google_apis12_GLOBAL__N_113kLabelStarredE, i64 0, i64 0), i64 7, i1 false) #15
  %26 = getelementptr inbounds i8, i8* %23, i64 7
  store i8 0, i8* %26, align 1
  call void @_ZN4base18JSONValueConverterIN11google_apis10FileLabelsEE17RegisterBoolFieldERKNSt3__112basic_stringIcNS4_11char_traitsIcEENS4_9allocatorIcEEEEMS2_b(%"class.base::JSONValueConverter.202"* %12, %"class.std::__1::basic_string"* nonnull dereferenceable(24) %5, i64 1) #15
  %27 = load i8, i8* %25, align 1
  %28 = icmp slt i8 %27, 0
  br i1 %28, label %29, label %32

29:                                               ; preds = %22
  %30 = getelementptr inbounds %"class.std::__1::basic_string", %"class.std::__1::basic_string"* %5, i64 0, i32 0, i32 0, i32 0, i32 0, i32 0, i32 0
  %31 = load i8*, i8** %30, align 8
  call void @_ZdlPv(i8* %31) #14
  br label %32

32:                                               ; preds = %22, %29
  call void @llvm.lifetime.end.p0i8(i64 24, i8* nonnull %23) #15
  %33 = ptrtoint i8* %9 to i64
  %34 = call i8* @_Znwm(i64 48) #14
  %35 = bitcast i8* %34 to i32 (...)***
  store i32 (...)** bitcast (i8** getelementptr inbounds ({ [5 x i8*] }, { [5 x i8*] }* @_ZTVN4base8internal18FieldConverterBaseIN11google_apis12FileResourceEEE, i64 0, inrange i32 0, i64 2) to i32 (...)**), i32 (...)*** %35, align 8
  %36 = getelementptr inbounds i8, i8* %34, i64 8
  %37 = bitcast %"class.std::__1::basic_string"* %1 to %"struct.std::__1::basic_string<char, std::__1::char_traits<char>, std::__1::allocator<char> >::__short"*
  %38 = getelementptr inbounds %"struct.std::__1::basic_string<char, std::__1::char_traits<char>, std::__1::allocator<char> >::__short", %"struct.std::__1::basic_string<char, std::__1::char_traits<char>, std::__1::allocator<char> >::__short"* %37, i64 0, i32 1, i32 0
  %39 = load i8, i8* %38, align 1
  %40 = icmp slt i8 %39, 0
  br i1 %40, label %43, label %41

41:                                               ; preds = %32
  %42 = bitcast %"class.std::__1::basic_string"* %1 to i8*
  call void @llvm.memcpy.p0i8.p0i8.i64(i8* align 8 %36, i8* align 8 %42, i64 24, i1 false) #15
  br label %49

43:                                               ; preds = %32
  %44 = bitcast i8* %36 to %"class.std::__1::basic_string"*
  %45 = getelementptr inbounds %"class.std::__1::basic_string", %"class.std::__1::basic_string"* %1, i64 0, i32 0, i32 0, i32 0, i32 0, i32 0, i32 0
  %46 = load i8*, i8** %45, align 8
  %47 = getelementptr inbounds %"class.std::__1::basic_string", %"class.std::__1::basic_string"* %1, i64 0, i32 0, i32 0, i32 0, i32 0, i32 0, i32 1
  %48 = load i64, i64* %47, align 8
  call void @_ZNSt3__112basic_stringIcNS_11char_traitsIcEENS_9allocatorIcEEE25__init_copy_ctor_externalEPKcm(%"class.std::__1::basic_string"* %44, i8* %46, i64 %48) #15
  br label %49

49:                                               ; preds = %41, %43
  store i32 (...)** bitcast (i8** getelementptr inbounds ({ [5 x i8*] }, { [5 x i8*] }* @_ZTVN4base8internal14FieldConverterIN11google_apis12FileResourceENS2_10FileLabelsEEE, i64 0, inrange i32 0, i64 2) to i32 (...)**), i32 (...)*** %35, align 8
  %50 = getelementptr inbounds i8, i8* %34, i64 32
  %51 = bitcast i8* %50 to i64*
  store i64 %2, i64* %51, align 8
  %52 = getelementptr inbounds i8, i8* %34, i64 40
  %53 = bitcast i8* %52 to i64*
  store i64 %33, i64* %53, align 8
  %54 = ptrtoint i8* %34 to i64
  %55 = bitcast %"class.std::__1::unique_ptr.131"* %6 to i64*
  store i64 %54, i64* %55, align 8
  %56 = getelementptr inbounds %"class.base::JSONValueConverter.128", %"class.base::JSONValueConverter.128"* %0, i64 0, i32 0, i32 0, i32 1
  %57 = load %"class.std::__1::unique_ptr.131"*, %"class.std::__1::unique_ptr.131"** %56, align 8
  %58 = getelementptr inbounds %"class.base::JSONValueConverter.128", %"class.base::JSONValueConverter.128"* %0, i64 0, i32 0, i32 0, i32 2, i32 0, i32 0
  %59 = load %"class.std::__1::unique_ptr.131"*, %"class.std::__1::unique_ptr.131"** %58, align 8
  %60 = icmp ult %"class.std::__1::unique_ptr.131"* %57, %59
  br i1 %60, label %61, label %67

61:                                               ; preds = %49
  %62 = getelementptr inbounds %"class.std::__1::unique_ptr.131", %"class.std::__1::unique_ptr.131"* %6, i64 0, i32 0, i32 0, i32 0
  store %"class.base::internal::FieldConverterBase.284"* null, %"class.base::internal::FieldConverterBase.284"** %62, align 8
  %63 = bitcast %"class.std::__1::unique_ptr.131"* %57 to i64*
  store i64 %54, i64* %63, align 8
  %64 = getelementptr inbounds %"class.std::__1::unique_ptr.131", %"class.std::__1::unique_ptr.131"* %57, i64 1
  %65 = ptrtoint %"class.std::__1::unique_ptr.131"* %64 to i64
  %66 = bitcast %"class.std::__1::unique_ptr.131"** %56 to i64*
  store i64 %65, i64* %66, align 8
  br label %68

67:                                               ; preds = %49
  call void @_ZNSt3__16vectorINS_10unique_ptrIN4base8internal18FieldConverterBaseIN11google_apis12FileResourceEEENS_14default_deleteIS7_EEEENS_9allocatorISA_EEE21__push_back_slow_pathISA_EEvOT_(%"class.std::__1::vector.129"* %7, %"class.std::__1::unique_ptr.131"* nonnull dereferenceable(8) %6) #15
  br label %68

68:                                               ; preds = %61, %67
  %69 = getelementptr inbounds %"class.std::__1::unique_ptr.131", %"class.std::__1::unique_ptr.131"* %6, i64 0, i32 0, i32 0, i32 0
  %70 = load %"class.base::internal::FieldConverterBase.284"*, %"class.base::internal::FieldConverterBase.284"** %69, align 8
  store %"class.base::internal::FieldConverterBase.284"* null, %"class.base::internal::FieldConverterBase.284"** %69, align 8
  %71 = icmp eq %"class.base::internal::FieldConverterBase.284"* %70, null
  br i1 %71, label %77, label %72

72:                                               ; preds = %68
  %73 = bitcast %"class.base::internal::FieldConverterBase.284"* %70 to void (%"class.base::internal::FieldConverterBase.284"*)***
  %74 = load void (%"class.base::internal::FieldConverterBase.284"*)**, void (%"class.base::internal::FieldConverterBase.284"*)*** %73, align 8
  %75 = getelementptr inbounds void (%"class.base::internal::FieldConverterBase.284"*)*, void (%"class.base::internal::FieldConverterBase.284"*)** %74, i64 1
  %76 = load void (%"class.base::internal::FieldConverterBase.284"*)*, void (%"class.base::internal::FieldConverterBase.284"*)** %75, align 8
  call void %76(%"class.base::internal::FieldConverterBase.284"* nonnull %70) #15
  br label %77

77:                                               ; preds = %72, %68
  call void @llvm.lifetime.end.p0i8(i64 8, i8* nonnull %8) #15
  ret void
}

; Function Attrs: nounwind ssp uwtable
define linkonce_odr hidden void @_ZN4base18JSONValueConverterIN11google_apis12FileResourceEE19RegisterNestedFieldINS1_18ImageMediaMetadataEEEvRKNSt3__112basic_stringIcNS6_11char_traitsIcEENS6_9allocatorIcEEEEMS2_T_(%"class.base::JSONValueConverter.128"*, %"class.std::__1::basic_string"* dereferenceable(24), i64) local_unnamed_addr #0 comdat align 2 {
  %4 = alloca %"class.std::__1::unique_ptr.131", align 8
  %5 = getelementptr inbounds %"class.base::JSONValueConverter.128", %"class.base::JSONValueConverter.128"* %0, i64 0, i32 0
  %6 = bitcast %"class.std::__1::unique_ptr.131"* %4 to i8*
  call void @llvm.lifetime.start.p0i8(i64 8, i8* nonnull %6) #15
  %7 = tail call i8* @_Znwm(i64 32) #14
  %8 = bitcast i8* %7 to i32 (...)***
  store i32 (...)** bitcast (i8** getelementptr inbounds ({ [5 x i8*] }, { [5 x i8*] }* @_ZTVN4base8internal20NestedValueConverterIN11google_apis18ImageMediaMetadataEEE, i64 0, inrange i32 0, i64 2) to i32 (...)**), i32 (...)*** %8, align 8
  %9 = getelementptr inbounds i8, i8* %7, i64 8
  %10 = bitcast i8* %9 to %"class.base::JSONValueConverter.217"*
  tail call void @llvm.memset.p0i8.i64(i8* align 8 %9, i8 0, i64 24, i1 false) #15
  tail call void @_ZN11google_apis18ImageMediaMetadata21RegisterJSONConverterEPN4base18JSONValueConverterIS0_EE(%"class.base::JSONValueConverter.217"* %10) #15
  %11 = ptrtoint i8* %7 to i64
  %12 = tail call i8* @_Znwm(i64 48) #14
  %13 = bitcast i8* %12 to i32 (...)***
  store i32 (...)** bitcast (i8** getelementptr inbounds ({ [5 x i8*] }, { [5 x i8*] }* @_ZTVN4base8internal18FieldConverterBaseIN11google_apis12FileResourceEEE, i64 0, inrange i32 0, i64 2) to i32 (...)**), i32 (...)*** %13, align 8
  %14 = getelementptr inbounds i8, i8* %12, i64 8
  %15 = bitcast %"class.std::__1::basic_string"* %1 to %"struct.std::__1::basic_string<char, std::__1::char_traits<char>, std::__1::allocator<char> >::__short"*
  %16 = getelementptr inbounds %"struct.std::__1::basic_string<char, std::__1::char_traits<char>, std::__1::allocator<char> >::__short", %"struct.std::__1::basic_string<char, std::__1::char_traits<char>, std::__1::allocator<char> >::__short"* %15, i64 0, i32 1, i32 0
  %17 = load i8, i8* %16, align 1
  %18 = icmp slt i8 %17, 0
  br i1 %18, label %21, label %19

19:                                               ; preds = %3
  %20 = bitcast %"class.std::__1::basic_string"* %1 to i8*
  tail call void @llvm.memcpy.p0i8.p0i8.i64(i8* align 8 %14, i8* align 8 %20, i64 24, i1 false) #15
  br label %27

21:                                               ; preds = %3
  %22 = bitcast i8* %14 to %"class.std::__1::basic_string"*
  %23 = getelementptr inbounds %"class.std::__1::basic_string", %"class.std::__1::basic_string"* %1, i64 0, i32 0, i32 0, i32 0, i32 0, i32 0, i32 0
  %24 = load i8*, i8** %23, align 8
  %25 = getelementptr inbounds %"class.std::__1::basic_string", %"class.std::__1::basic_string"* %1, i64 0, i32 0, i32 0, i32 0, i32 0, i32 0, i32 1
  %26 = load i64, i64* %25, align 8
  tail call void @_ZNSt3__112basic_stringIcNS_11char_traitsIcEENS_9allocatorIcEEE25__init_copy_ctor_externalEPKcm(%"class.std::__1::basic_string"* %22, i8* %24, i64 %26) #15
  br label %27

27:                                               ; preds = %19, %21
  store i32 (...)** bitcast (i8** getelementptr inbounds ({ [5 x i8*] }, { [5 x i8*] }* @_ZTVN4base8internal14FieldConverterIN11google_apis12FileResourceENS2_18ImageMediaMetadataEEE, i64 0, inrange i32 0, i64 2) to i32 (...)**), i32 (...)*** %13, align 8
  %28 = getelementptr inbounds i8, i8* %12, i64 32
  %29 = bitcast i8* %28 to i64*
  store i64 %2, i64* %29, align 8
  %30 = getelementptr inbounds i8, i8* %12, i64 40
  %31 = bitcast i8* %30 to i64*
  store i64 %11, i64* %31, align 8
  %32 = ptrtoint i8* %12 to i64
  %33 = bitcast %"class.std::__1::unique_ptr.131"* %4 to i64*
  store i64 %32, i64* %33, align 8
  %34 = getelementptr inbounds %"class.base::JSONValueConverter.128", %"class.base::JSONValueConverter.128"* %0, i64 0, i32 0, i32 0, i32 1
  %35 = load %"class.std::__1::unique_ptr.131"*, %"class.std::__1::unique_ptr.131"** %34, align 8
  %36 = getelementptr inbounds %"class.base::JSONValueConverter.128", %"class.base::JSONValueConverter.128"* %0, i64 0, i32 0, i32 0, i32 2, i32 0, i32 0
  %37 = load %"class.std::__1::unique_ptr.131"*, %"class.std::__1::unique_ptr.131"** %36, align 8
  %38 = icmp ult %"class.std::__1::unique_ptr.131"* %35, %37
  br i1 %38, label %39, label %45

39:                                               ; preds = %27
  %40 = getelementptr inbounds %"class.std::__1::unique_ptr.131", %"class.std::__1::unique_ptr.131"* %4, i64 0, i32 0, i32 0, i32 0
  store %"class.base::internal::FieldConverterBase.284"* null, %"class.base::internal::FieldConverterBase.284"** %40, align 8
  %41 = bitcast %"class.std::__1::unique_ptr.131"* %35 to i64*
  store i64 %32, i64* %41, align 8
  %42 = getelementptr inbounds %"class.std::__1::unique_ptr.131", %"class.std::__1::unique_ptr.131"* %35, i64 1
  %43 = ptrtoint %"class.std::__1::unique_ptr.131"* %42 to i64
  %44 = bitcast %"class.std::__1::unique_ptr.131"** %34 to i64*
  store i64 %43, i64* %44, align 8
  br label %46

45:                                               ; preds = %27
  call void @_ZNSt3__16vectorINS_10unique_ptrIN4base8internal18FieldConverterBaseIN11google_apis12FileResourceEEENS_14default_deleteIS7_EEEENS_9allocatorISA_EEE21__push_back_slow_pathISA_EEvOT_(%"class.std::__1::vector.129"* %5, %"class.std::__1::unique_ptr.131"* nonnull dereferenceable(8) %4) #15
  br label %46

46:                                               ; preds = %39, %45
  %47 = getelementptr inbounds %"class.std::__1::unique_ptr.131", %"class.std::__1::unique_ptr.131"* %4, i64 0, i32 0, i32 0, i32 0
  %48 = load %"class.base::internal::FieldConverterBase.284"*, %"class.base::internal::FieldConverterBase.284"** %47, align 8
  store %"class.base::internal::FieldConverterBase.284"* null, %"class.base::internal::FieldConverterBase.284"** %47, align 8
  %49 = icmp eq %"class.base::internal::FieldConverterBase.284"* %48, null
  br i1 %49, label %55, label %50

50:                                               ; preds = %46
  %51 = bitcast %"class.base::internal::FieldConverterBase.284"* %48 to void (%"class.base::internal::FieldConverterBase.284"*)***
  %52 = load void (%"class.base::internal::FieldConverterBase.284"*)**, void (%"class.base::internal::FieldConverterBase.284"*)*** %51, align 8
  %53 = getelementptr inbounds void (%"class.base::internal::FieldConverterBase.284"*)*, void (%"class.base::internal::FieldConverterBase.284"*)** %52, i64 1
  %54 = load void (%"class.base::internal::FieldConverterBase.284"*)*, void (%"class.base::internal::FieldConverterBase.284"*)** %53, align 8
  call void %54(%"class.base::internal::FieldConverterBase.284"* nonnull %48) #15
  br label %55

55:                                               ; preds = %50, %46
  call void @llvm.lifetime.end.p0i8(i64 8, i8* nonnull %6) #15
  ret void
}

; Function Attrs: nounwind ssp uwtable
define linkonce_odr hidden void @_ZN4base18JSONValueConverterIN11google_apis12FileResourceEE19RegisterNestedFieldINS1_24FileResourceCapabilitiesEEEvRKNSt3__112basic_stringIcNS6_11char_traitsIcEENS6_9allocatorIcEEEEMS2_T_(%"class.base::JSONValueConverter.128"*, %"class.std::__1::basic_string"* dereferenceable(24), i64) local_unnamed_addr #0 comdat align 2 {
  %4 = alloca %"class.std::__1::unique_ptr.131", align 8
  %5 = getelementptr inbounds %"class.base::JSONValueConverter.128", %"class.base::JSONValueConverter.128"* %0, i64 0, i32 0
  %6 = bitcast %"class.std::__1::unique_ptr.131"* %4 to i8*
  call void @llvm.lifetime.start.p0i8(i64 8, i8* nonnull %6) #15
  %7 = tail call i8* @_Znwm(i64 32) #14
  %8 = bitcast i8* %7 to i32 (...)***
  store i32 (...)** bitcast (i8** getelementptr inbounds ({ [5 x i8*] }, { [5 x i8*] }* @_ZTVN4base8internal20NestedValueConverterIN11google_apis24FileResourceCapabilitiesEEE, i64 0, inrange i32 0, i64 2) to i32 (...)**), i32 (...)*** %8, align 8
  %9 = getelementptr inbounds i8, i8* %7, i64 8
  %10 = bitcast i8* %9 to %"class.base::JSONValueConverter.100"*
  tail call void @llvm.memset.p0i8.i64(i8* align 8 %9, i8 0, i64 24, i1 false) #15
  tail call void @_ZN11google_apis24FileResourceCapabilities21RegisterJSONConverterEPN4base18JSONValueConverterIS0_EE(%"class.base::JSONValueConverter.100"* %10) #15
  %11 = ptrtoint i8* %7 to i64
  %12 = tail call i8* @_Znwm(i64 48) #14
  %13 = bitcast i8* %12 to i32 (...)***
  store i32 (...)** bitcast (i8** getelementptr inbounds ({ [5 x i8*] }, { [5 x i8*] }* @_ZTVN4base8internal18FieldConverterBaseIN11google_apis12FileResourceEEE, i64 0, inrange i32 0, i64 2) to i32 (...)**), i32 (...)*** %13, align 8
  %14 = getelementptr inbounds i8, i8* %12, i64 8
  %15 = bitcast %"class.std::__1::basic_string"* %1 to %"struct.std::__1::basic_string<char, std::__1::char_traits<char>, std::__1::allocator<char> >::__short"*
  %16 = getelementptr inbounds %"struct.std::__1::basic_string<char, std::__1::char_traits<char>, std::__1::allocator<char> >::__short", %"struct.std::__1::basic_string<char, std::__1::char_traits<char>, std::__1::allocator<char> >::__short"* %15, i64 0, i32 1, i32 0
  %17 = load i8, i8* %16, align 1
  %18 = icmp slt i8 %17, 0
  br i1 %18, label %21, label %19

19:                                               ; preds = %3
  %20 = bitcast %"class.std::__1::basic_string"* %1 to i8*
  tail call void @llvm.memcpy.p0i8.p0i8.i64(i8* align 8 %14, i8* align 8 %20, i64 24, i1 false) #15
  br label %27

21:                                               ; preds = %3
  %22 = bitcast i8* %14 to %"class.std::__1::basic_string"*
  %23 = getelementptr inbounds %"class.std::__1::basic_string", %"class.std::__1::basic_string"* %1, i64 0, i32 0, i32 0, i32 0, i32 0, i32 0, i32 0
  %24 = load i8*, i8** %23, align 8
  %25 = getelementptr inbounds %"class.std::__1::basic_string", %"class.std::__1::basic_string"* %1, i64 0, i32 0, i32 0, i32 0, i32 0, i32 0, i32 1
  %26 = load i64, i64* %25, align 8
  tail call void @_ZNSt3__112basic_stringIcNS_11char_traitsIcEENS_9allocatorIcEEE25__init_copy_ctor_externalEPKcm(%"class.std::__1::basic_string"* %22, i8* %24, i64 %26) #15
  br label %27

27:                                               ; preds = %19, %21
  store i32 (...)** bitcast (i8** getelementptr inbounds ({ [5 x i8*] }, { [5 x i8*] }* @_ZTVN4base8internal14FieldConverterIN11google_apis12FileResourceENS2_24FileResourceCapabilitiesEEE, i64 0, inrange i32 0, i64 2) to i32 (...)**), i32 (...)*** %13, align 8
  %28 = getelementptr inbounds i8, i8* %12, i64 32
  %29 = bitcast i8* %28 to i64*
  store i64 %2, i64* %29, align 8
  %30 = getelementptr inbounds i8, i8* %12, i64 40
  %31 = bitcast i8* %30 to i64*
  store i64 %11, i64* %31, align 8
  %32 = ptrtoint i8* %12 to i64
  %33 = bitcast %"class.std::__1::unique_ptr.131"* %4 to i64*
  store i64 %32, i64* %33, align 8
  %34 = getelementptr inbounds %"class.base::JSONValueConverter.128", %"class.base::JSONValueConverter.128"* %0, i64 0, i32 0, i32 0, i32 1
  %35 = load %"class.std::__1::unique_ptr.131"*, %"class.std::__1::unique_ptr.131"** %34, align 8
  %36 = getelementptr inbounds %"class.base::JSONValueConverter.128", %"class.base::JSONValueConverter.128"* %0, i64 0, i32 0, i32 0, i32 2, i32 0, i32 0
  %37 = load %"class.std::__1::unique_ptr.131"*, %"class.std::__1::unique_ptr.131"** %36, align 8
  %38 = icmp ult %"class.std::__1::unique_ptr.131"* %35, %37
  br i1 %38, label %39, label %45

39:                                               ; preds = %27
  %40 = getelementptr inbounds %"class.std::__1::unique_ptr.131", %"class.std::__1::unique_ptr.131"* %4, i64 0, i32 0, i32 0, i32 0
  store %"class.base::internal::FieldConverterBase.284"* null, %"class.base::internal::FieldConverterBase.284"** %40, align 8
  %41 = bitcast %"class.std::__1::unique_ptr.131"* %35 to i64*
  store i64 %32, i64* %41, align 8
  %42 = getelementptr inbounds %"class.std::__1::unique_ptr.131", %"class.std::__1::unique_ptr.131"* %35, i64 1
  %43 = ptrtoint %"class.std::__1::unique_ptr.131"* %42 to i64
  %44 = bitcast %"class.std::__1::unique_ptr.131"** %34 to i64*
  store i64 %43, i64* %44, align 8
  br label %46

45:                                               ; preds = %27
  call void @_ZNSt3__16vectorINS_10unique_ptrIN4base8internal18FieldConverterBaseIN11google_apis12FileResourceEEENS_14default_deleteIS7_EEEENS_9allocatorISA_EEE21__push_back_slow_pathISA_EEvOT_(%"class.std::__1::vector.129"* %5, %"class.std::__1::unique_ptr.131"* nonnull dereferenceable(8) %4) #15
  br label %46

46:                                               ; preds = %39, %45
  %47 = getelementptr inbounds %"class.std::__1::unique_ptr.131", %"class.std::__1::unique_ptr.131"* %4, i64 0, i32 0, i32 0, i32 0
  %48 = load %"class.base::internal::FieldConverterBase.284"*, %"class.base::internal::FieldConverterBase.284"** %47, align 8
  store %"class.base::internal::FieldConverterBase.284"* null, %"class.base::internal::FieldConverterBase.284"** %47, align 8
  %49 = icmp eq %"class.base::internal::FieldConverterBase.284"* %48, null
  br i1 %49, label %55, label %50

50:                                               ; preds = %46
  %51 = bitcast %"class.base::internal::FieldConverterBase.284"* %48 to void (%"class.base::internal::FieldConverterBase.284"*)***
  %52 = load void (%"class.base::internal::FieldConverterBase.284"*)**, void (%"class.base::internal::FieldConverterBase.284"*)*** %51, align 8
  %53 = getelementptr inbounds void (%"class.base::internal::FieldConverterBase.284"*)*, void (%"class.base::internal::FieldConverterBase.284"*)** %52, i64 1
  %54 = load void (%"class.base::internal::FieldConverterBase.284"*)*, void (%"class.base::internal::FieldConverterBase.284"*)** %53, align 8
  call void %54(%"class.base::internal::FieldConverterBase.284"* nonnull %48) #15
  br label %55

55:                                               ; preds = %50, %46
  call void @llvm.lifetime.end.p0i8(i64 8, i8* nonnull %6) #15
  ret void
}

; Function Attrs: nounwind ssp uwtable
define linkonce_odr hidden void @_ZN4base18JSONValueConverterIN11google_apis12FileResourceEE19RegisterCustomFieldINS_4TimeEEEvRKNSt3__112basic_stringIcNS6_11char_traitsIcEENS6_9allocatorIcEEEEMS2_T_PFbNS_16BasicStringPieceIcS9_EEPSF_E(%"class.base::JSONValueConverter.128"*, %"class.std::__1::basic_string"* dereferenceable(24), i64, i1 (i8*, i64, %"class.base::Time"*)*) local_unnamed_addr #0 comdat align 2 {
  %5 = alloca %"class.std::__1::unique_ptr.131", align 8
  %6 = getelementptr inbounds %"class.base::JSONValueConverter.128", %"class.base::JSONValueConverter.128"* %0, i64 0, i32 0
  %7 = bitcast %"class.std::__1::unique_ptr.131"* %5 to i8*
  call void @llvm.lifetime.start.p0i8(i64 8, i8* nonnull %7) #15
  %8 = tail call i8* @_Znwm(i64 16) #14
  %9 = bitcast i8* %8 to i32 (...)***
  store i32 (...)** bitcast (i8** getelementptr inbounds ({ [5 x i8*] }, { [5 x i8*] }* @_ZTVN4base8internal20CustomFieldConverterINS_4TimeEEE, i64 0, inrange i32 0, i64 2) to i32 (...)**), i32 (...)*** %9, align 8
  %10 = getelementptr inbounds i8, i8* %8, i64 8
  %11 = bitcast i8* %10 to i1 (i8*, i64, %"class.base::Time"*)**
  store i1 (i8*, i64, %"class.base::Time"*)* %3, i1 (i8*, i64, %"class.base::Time"*)** %11, align 8
  %12 = ptrtoint i8* %8 to i64
  %13 = tail call i8* @_Znwm(i64 48) #14
  %14 = bitcast i8* %13 to i32 (...)***
  store i32 (...)** bitcast (i8** getelementptr inbounds ({ [5 x i8*] }, { [5 x i8*] }* @_ZTVN4base8internal18FieldConverterBaseIN11google_apis12FileResourceEEE, i64 0, inrange i32 0, i64 2) to i32 (...)**), i32 (...)*** %14, align 8
  %15 = getelementptr inbounds i8, i8* %13, i64 8
  %16 = bitcast %"class.std::__1::basic_string"* %1 to %"struct.std::__1::basic_string<char, std::__1::char_traits<char>, std::__1::allocator<char> >::__short"*
  %17 = getelementptr inbounds %"struct.std::__1::basic_string<char, std::__1::char_traits<char>, std::__1::allocator<char> >::__short", %"struct.std::__1::basic_string<char, std::__1::char_traits<char>, std::__1::allocator<char> >::__short"* %16, i64 0, i32 1, i32 0
  %18 = load i8, i8* %17, align 1
  %19 = icmp slt i8 %18, 0
  br i1 %19, label %22, label %20

20:                                               ; preds = %4
  %21 = bitcast %"class.std::__1::basic_string"* %1 to i8*
  tail call void @llvm.memcpy.p0i8.p0i8.i64(i8* align 8 %15, i8* align 8 %21, i64 24, i1 false) #15
  br label %28

22:                                               ; preds = %4
  %23 = bitcast i8* %15 to %"class.std::__1::basic_string"*
  %24 = getelementptr inbounds %"class.std::__1::basic_string", %"class.std::__1::basic_string"* %1, i64 0, i32 0, i32 0, i32 0, i32 0, i32 0, i32 0
  %25 = load i8*, i8** %24, align 8
  %26 = getelementptr inbounds %"class.std::__1::basic_string", %"class.std::__1::basic_string"* %1, i64 0, i32 0, i32 0, i32 0, i32 0, i32 0, i32 1
  %27 = load i64, i64* %26, align 8
  tail call void @_ZNSt3__112basic_stringIcNS_11char_traitsIcEENS_9allocatorIcEEE25__init_copy_ctor_externalEPKcm(%"class.std::__1::basic_string"* %23, i8* %25, i64 %27) #15
  br label %28

28:                                               ; preds = %20, %22
  store i32 (...)** bitcast (i8** getelementptr inbounds ({ [5 x i8*] }, { [5 x i8*] }* @_ZTVN4base8internal14FieldConverterIN11google_apis12FileResourceENS_4TimeEEE, i64 0, inrange i32 0, i64 2) to i32 (...)**), i32 (...)*** %14, align 8
  %29 = getelementptr inbounds i8, i8* %13, i64 32
  %30 = bitcast i8* %29 to i64*
  store i64 %2, i64* %30, align 8
  %31 = getelementptr inbounds i8, i8* %13, i64 40
  %32 = bitcast i8* %31 to i64*
  store i64 %12, i64* %32, align 8
  %33 = ptrtoint i8* %13 to i64
  %34 = bitcast %"class.std::__1::unique_ptr.131"* %5 to i64*
  store i64 %33, i64* %34, align 8
  %35 = getelementptr inbounds %"class.base::JSONValueConverter.128", %"class.base::JSONValueConverter.128"* %0, i64 0, i32 0, i32 0, i32 1
  %36 = load %"class.std::__1::unique_ptr.131"*, %"class.std::__1::unique_ptr.131"** %35, align 8
  %37 = getelementptr inbounds %"class.base::JSONValueConverter.128", %"class.base::JSONValueConverter.128"* %0, i64 0, i32 0, i32 0, i32 2, i32 0, i32 0
  %38 = load %"class.std::__1::unique_ptr.131"*, %"class.std::__1::unique_ptr.131"** %37, align 8
  %39 = icmp ult %"class.std::__1::unique_ptr.131"* %36, %38
  br i1 %39, label %40, label %46

40:                                               ; preds = %28
  %41 = getelementptr inbounds %"class.std::__1::unique_ptr.131", %"class.std::__1::unique_ptr.131"* %5, i64 0, i32 0, i32 0, i32 0
  store %"class.base::internal::FieldConverterBase.284"* null, %"class.base::internal::FieldConverterBase.284"** %41, align 8
  %42 = bitcast %"class.std::__1::unique_ptr.131"* %36 to i64*
  store i64 %33, i64* %42, align 8
  %43 = getelementptr inbounds %"class.std::__1::unique_ptr.131", %"class.std::__1::unique_ptr.131"* %36, i64 1
  %44 = ptrtoint %"class.std::__1::unique_ptr.131"* %43 to i64
  %45 = bitcast %"class.std::__1::unique_ptr.131"** %35 to i64*
  store i64 %44, i64* %45, align 8
  br label %47

46:                                               ; preds = %28
  call void @_ZNSt3__16vectorINS_10unique_ptrIN4base8internal18FieldConverterBaseIN11google_apis12FileResourceEEENS_14default_deleteIS7_EEEENS_9allocatorISA_EEE21__push_back_slow_pathISA_EEvOT_(%"class.std::__1::vector.129"* %6, %"class.std::__1::unique_ptr.131"* nonnull dereferenceable(8) %5) #15
  br label %47

47:                                               ; preds = %40, %46
  %48 = getelementptr inbounds %"class.std::__1::unique_ptr.131", %"class.std::__1::unique_ptr.131"* %5, i64 0, i32 0, i32 0, i32 0
  %49 = load %"class.base::internal::FieldConverterBase.284"*, %"class.base::internal::FieldConverterBase.284"** %48, align 8
  store %"class.base::internal::FieldConverterBase.284"* null, %"class.base::internal::FieldConverterBase.284"** %48, align 8
  %50 = icmp eq %"class.base::internal::FieldConverterBase.284"* %49, null
  br i1 %50, label %56, label %51

51:                                               ; preds = %47
  %52 = bitcast %"class.base::internal::FieldConverterBase.284"* %49 to void (%"class.base::internal::FieldConverterBase.284"*)***
  %53 = load void (%"class.base::internal::FieldConverterBase.284"*)**, void (%"class.base::internal::FieldConverterBase.284"*)*** %52, align 8
  %54 = getelementptr inbounds void (%"class.base::internal::FieldConverterBase.284"*)*, void (%"class.base::internal::FieldConverterBase.284"*)** %53, i64 1
  %55 = load void (%"class.base::internal::FieldConverterBase.284"*)*, void (%"class.base::internal::FieldConverterBase.284"*)** %54, align 8
  call void %55(%"class.base::internal::FieldConverterBase.284"* nonnull %49) #15
  br label %56

56:                                               ; preds = %51, %47
  call void @llvm.lifetime.end.p0i8(i64 8, i8* nonnull %7) #15
  ret void
}

declare zeroext i1 @_ZN11google_apis4util17GetTimeFromStringEN4base16BasicStringPieceIcNSt3__111char_traitsIcEEEEPNS1_4TimeE(i8*, i64, %"class.base::Time"*) #3

; Function Attrs: nounwind ssp uwtable
define linkonce_odr hidden void @_ZN4base18JSONValueConverterIN11google_apis12FileResourceEE17RegisterBoolFieldERKNSt3__112basic_stringIcNS4_11char_traitsIcEENS4_9allocatorIcEEEEMS2_b(%"class.base::JSONValueConverter.128"*, %"class.std::__1::basic_string"* dereferenceable(24), i64) local_unnamed_addr #0 comdat align 2 {
  %4 = alloca %"class.std::__1::unique_ptr.131", align 8
  %5 = getelementptr inbounds %"class.base::JSONValueConverter.128", %"class.base::JSONValueConverter.128"* %0, i64 0, i32 0
  %6 = bitcast %"class.std::__1::unique_ptr.131"* %4 to i8*
  call void @llvm.lifetime.start.p0i8(i64 8, i8* nonnull %6) #15
  %7 = tail call i8* @_Znwm(i64 8) #14
  %8 = bitcast i8* %7 to i32 (...)***
  store i32 (...)** bitcast (i8** getelementptr inbounds ({ [5 x i8*] }, { [5 x i8*] }* @_ZTVN4base8internal19BasicValueConverterIbEE, i64 0, inrange i32 0, i64 2) to i32 (...)**), i32 (...)*** %8, align 8
  %9 = ptrtoint i8* %7 to i64
  %10 = tail call i8* @_Znwm(i64 48) #14
  %11 = bitcast i8* %10 to i32 (...)***
  store i32 (...)** bitcast (i8** getelementptr inbounds ({ [5 x i8*] }, { [5 x i8*] }* @_ZTVN4base8internal18FieldConverterBaseIN11google_apis12FileResourceEEE, i64 0, inrange i32 0, i64 2) to i32 (...)**), i32 (...)*** %11, align 8
  %12 = getelementptr inbounds i8, i8* %10, i64 8
  %13 = bitcast %"class.std::__1::basic_string"* %1 to %"struct.std::__1::basic_string<char, std::__1::char_traits<char>, std::__1::allocator<char> >::__short"*
  %14 = getelementptr inbounds %"struct.std::__1::basic_string<char, std::__1::char_traits<char>, std::__1::allocator<char> >::__short", %"struct.std::__1::basic_string<char, std::__1::char_traits<char>, std::__1::allocator<char> >::__short"* %13, i64 0, i32 1, i32 0
  %15 = load i8, i8* %14, align 1
  %16 = icmp slt i8 %15, 0
  br i1 %16, label %19, label %17

17:                                               ; preds = %3
  %18 = bitcast %"class.std::__1::basic_string"* %1 to i8*
  tail call void @llvm.memcpy.p0i8.p0i8.i64(i8* align 8 %12, i8* align 8 %18, i64 24, i1 false) #15
  br label %25

19:                                               ; preds = %3
  %20 = bitcast i8* %12 to %"class.std::__1::basic_string"*
  %21 = getelementptr inbounds %"class.std::__1::basic_string", %"class.std::__1::basic_string"* %1, i64 0, i32 0, i32 0, i32 0, i32 0, i32 0, i32 0
  %22 = load i8*, i8** %21, align 8
  %23 = getelementptr inbounds %"class.std::__1::basic_string", %"class.std::__1::basic_string"* %1, i64 0, i32 0, i32 0, i32 0, i32 0, i32 0, i32 1
  %24 = load i64, i64* %23, align 8
  tail call void @_ZNSt3__112basic_stringIcNS_11char_traitsIcEENS_9allocatorIcEEE25__init_copy_ctor_externalEPKcm(%"class.std::__1::basic_string"* %20, i8* %22, i64 %24) #15
  br label %25

25:                                               ; preds = %17, %19
  store i32 (...)** bitcast (i8** getelementptr inbounds ({ [5 x i8*] }, { [5 x i8*] }* @_ZTVN4base8internal14FieldConverterIN11google_apis12FileResourceEbEE, i64 0, inrange i32 0, i64 2) to i32 (...)**), i32 (...)*** %11, align 8
  %26 = getelementptr inbounds i8, i8* %10, i64 32
  %27 = bitcast i8* %26 to i64*
  store i64 %2, i64* %27, align 8
  %28 = getelementptr inbounds i8, i8* %10, i64 40
  %29 = bitcast i8* %28 to i64*
  store i64 %9, i64* %29, align 8
  %30 = ptrtoint i8* %10 to i64
  %31 = bitcast %"class.std::__1::unique_ptr.131"* %4 to i64*
  store i64 %30, i64* %31, align 8
  %32 = getelementptr inbounds %"class.base::JSONValueConverter.128", %"class.base::JSONValueConverter.128"* %0, i64 0, i32 0, i32 0, i32 1
  %33 = load %"class.std::__1::unique_ptr.131"*, %"class.std::__1::unique_ptr.131"** %32, align 8
  %34 = getelementptr inbounds %"class.base::JSONValueConverter.128", %"class.base::JSONValueConverter.128"* %0, i64 0, i32 0, i32 0, i32 2, i32 0, i32 0
  %35 = load %"class.std::__1::unique_ptr.131"*, %"class.std::__1::unique_ptr.131"** %34, align 8
  %36 = icmp ult %"class.std::__1::unique_ptr.131"* %33, %35
  br i1 %36, label %37, label %43

37:                                               ; preds = %25
  %38 = getelementptr inbounds %"class.std::__1::unique_ptr.131", %"class.std::__1::unique_ptr.131"* %4, i64 0, i32 0, i32 0, i32 0
  store %"class.base::internal::FieldConverterBase.284"* null, %"class.base::internal::FieldConverterBase.284"** %38, align 8
  %39 = bitcast %"class.std::__1::unique_ptr.131"* %33 to i64*
  store i64 %30, i64* %39, align 8
  %40 = getelementptr inbounds %"class.std::__1::unique_ptr.131", %"class.std::__1::unique_ptr.131"* %33, i64 1
  %41 = ptrtoint %"class.std::__1::unique_ptr.131"* %40 to i64
  %42 = bitcast %"class.std::__1::unique_ptr.131"** %32 to i64*
  store i64 %41, i64* %42, align 8
  br label %44

43:                                               ; preds = %25
  call void @_ZNSt3__16vectorINS_10unique_ptrIN4base8internal18FieldConverterBaseIN11google_apis12FileResourceEEENS_14default_deleteIS7_EEEENS_9allocatorISA_EEE21__push_back_slow_pathISA_EEvOT_(%"class.std::__1::vector.129"* %5, %"class.std::__1::unique_ptr.131"* nonnull dereferenceable(8) %4) #15
  br label %44

44:                                               ; preds = %37, %43
  %45 = getelementptr inbounds %"class.std::__1::unique_ptr.131", %"class.std::__1::unique_ptr.131"* %4, i64 0, i32 0, i32 0, i32 0
  %46 = load %"class.base::internal::FieldConverterBase.284"*, %"class.base::internal::FieldConverterBase.284"** %45, align 8
  store %"class.base::internal::FieldConverterBase.284"* null, %"class.base::internal::FieldConverterBase.284"** %45, align 8
  %47 = icmp eq %"class.base::internal::FieldConverterBase.284"* %46, null
  br i1 %47, label %53, label %48

48:                                               ; preds = %44
  %49 = bitcast %"class.base::internal::FieldConverterBase.284"* %46 to void (%"class.base::internal::FieldConverterBase.284"*)***
  %50 = load void (%"class.base::internal::FieldConverterBase.284"*)**, void (%"class.base::internal::FieldConverterBase.284"*)*** %49, align 8
  %51 = getelementptr inbounds void (%"class.base::internal::FieldConverterBase.284"*)*, void (%"class.base::internal::FieldConverterBase.284"*)** %50, i64 1
  %52 = load void (%"class.base::internal::FieldConverterBase.284"*)*, void (%"class.base::internal::FieldConverterBase.284"*)** %51, align 8
  call void %52(%"class.base::internal::FieldConverterBase.284"* nonnull %46) #15
  br label %53

53:                                               ; preds = %48, %44
  call void @llvm.lifetime.end.p0i8(i64 8, i8* nonnull %6) #15
  ret void
}

; Function Attrs: nounwind ssp uwtable
define linkonce_odr hidden void @_ZN4base18JSONValueConverterIN11google_apis12FileResourceEE19RegisterCustomFieldIlEEvRKNSt3__112basic_stringIcNS5_11char_traitsIcEENS5_9allocatorIcEEEEMS2_T_PFbNS_16BasicStringPieceIcS8_EEPSE_E(%"class.base::JSONValueConverter.128"*, %"class.std::__1::basic_string"* dereferenceable(24), i64, i1 (i8*, i64, i64*)*) local_unnamed_addr #0 comdat align 2 {
  %5 = alloca %"class.std::__1::unique_ptr.131", align 8
  %6 = getelementptr inbounds %"class.base::JSONValueConverter.128", %"class.base::JSONValueConverter.128"* %0, i64 0, i32 0
  %7 = bitcast %"class.std::__1::unique_ptr.131"* %5 to i8*
  call void @llvm.lifetime.start.p0i8(i64 8, i8* nonnull %7) #15
  %8 = tail call i8* @_Znwm(i64 16) #14
  %9 = bitcast i8* %8 to i32 (...)***
  store i32 (...)** bitcast (i8** getelementptr inbounds ({ [5 x i8*] }, { [5 x i8*] }* @_ZTVN4base8internal20CustomFieldConverterIlEE, i64 0, inrange i32 0, i64 2) to i32 (...)**), i32 (...)*** %9, align 8
  %10 = getelementptr inbounds i8, i8* %8, i64 8
  %11 = bitcast i8* %10 to i1 (i8*, i64, i64*)**
  store i1 (i8*, i64, i64*)* %3, i1 (i8*, i64, i64*)** %11, align 8
  %12 = ptrtoint i8* %8 to i64
  %13 = tail call i8* @_Znwm(i64 48) #14
  %14 = bitcast i8* %13 to i32 (...)***
  store i32 (...)** bitcast (i8** getelementptr inbounds ({ [5 x i8*] }, { [5 x i8*] }* @_ZTVN4base8internal18FieldConverterBaseIN11google_apis12FileResourceEEE, i64 0, inrange i32 0, i64 2) to i32 (...)**), i32 (...)*** %14, align 8
  %15 = getelementptr inbounds i8, i8* %13, i64 8
  %16 = bitcast %"class.std::__1::basic_string"* %1 to %"struct.std::__1::basic_string<char, std::__1::char_traits<char>, std::__1::allocator<char> >::__short"*
  %17 = getelementptr inbounds %"struct.std::__1::basic_string<char, std::__1::char_traits<char>, std::__1::allocator<char> >::__short", %"struct.std::__1::basic_string<char, std::__1::char_traits<char>, std::__1::allocator<char> >::__short"* %16, i64 0, i32 1, i32 0
  %18 = load i8, i8* %17, align 1
  %19 = icmp slt i8 %18, 0
  br i1 %19, label %22, label %20

20:                                               ; preds = %4
  %21 = bitcast %"class.std::__1::basic_string"* %1 to i8*
  tail call void @llvm.memcpy.p0i8.p0i8.i64(i8* align 8 %15, i8* align 8 %21, i64 24, i1 false) #15
  br label %28

22:                                               ; preds = %4
  %23 = bitcast i8* %15 to %"class.std::__1::basic_string"*
  %24 = getelementptr inbounds %"class.std::__1::basic_string", %"class.std::__1::basic_string"* %1, i64 0, i32 0, i32 0, i32 0, i32 0, i32 0, i32 0
  %25 = load i8*, i8** %24, align 8
  %26 = getelementptr inbounds %"class.std::__1::basic_string", %"class.std::__1::basic_string"* %1, i64 0, i32 0, i32 0, i32 0, i32 0, i32 0, i32 1
  %27 = load i64, i64* %26, align 8
  tail call void @_ZNSt3__112basic_stringIcNS_11char_traitsIcEENS_9allocatorIcEEE25__init_copy_ctor_externalEPKcm(%"class.std::__1::basic_string"* %23, i8* %25, i64 %27) #15
  br label %28

28:                                               ; preds = %20, %22
  store i32 (...)** bitcast (i8** getelementptr inbounds ({ [5 x i8*] }, { [5 x i8*] }* @_ZTVN4base8internal14FieldConverterIN11google_apis12FileResourceElEE, i64 0, inrange i32 0, i64 2) to i32 (...)**), i32 (...)*** %14, align 8
  %29 = getelementptr inbounds i8, i8* %13, i64 32
  %30 = bitcast i8* %29 to i64*
  store i64 %2, i64* %30, align 8
  %31 = getelementptr inbounds i8, i8* %13, i64 40
  %32 = bitcast i8* %31 to i64*
  store i64 %12, i64* %32, align 8
  %33 = ptrtoint i8* %13 to i64
  %34 = bitcast %"class.std::__1::unique_ptr.131"* %5 to i64*
  store i64 %33, i64* %34, align 8
  %35 = getelementptr inbounds %"class.base::JSONValueConverter.128", %"class.base::JSONValueConverter.128"* %0, i64 0, i32 0, i32 0, i32 1
  %36 = load %"class.std::__1::unique_ptr.131"*, %"class.std::__1::unique_ptr.131"** %35, align 8
  %37 = getelementptr inbounds %"class.base::JSONValueConverter.128", %"class.base::JSONValueConverter.128"* %0, i64 0, i32 0, i32 0, i32 2, i32 0, i32 0
  %38 = load %"class.std::__1::unique_ptr.131"*, %"class.std::__1::unique_ptr.131"** %37, align 8
  %39 = icmp ult %"class.std::__1::unique_ptr.131"* %36, %38
  br i1 %39, label %40, label %46

40:                                               ; preds = %28
  %41 = getelementptr inbounds %"class.std::__1::unique_ptr.131", %"class.std::__1::unique_ptr.131"* %5, i64 0, i32 0, i32 0, i32 0
  store %"class.base::internal::FieldConverterBase.284"* null, %"class.base::internal::FieldConverterBase.284"** %41, align 8
  %42 = bitcast %"class.std::__1::unique_ptr.131"* %36 to i64*
  store i64 %33, i64* %42, align 8
  %43 = getelementptr inbounds %"class.std::__1::unique_ptr.131", %"class.std::__1::unique_ptr.131"* %36, i64 1
  %44 = ptrtoint %"class.std::__1::unique_ptr.131"* %43 to i64
  %45 = bitcast %"class.std::__1::unique_ptr.131"** %35 to i64*
  store i64 %44, i64* %45, align 8
  br label %47

46:                                               ; preds = %28
  call void @_ZNSt3__16vectorINS_10unique_ptrIN4base8internal18FieldConverterBaseIN11google_apis12FileResourceEEENS_14default_deleteIS7_EEEENS_9allocatorISA_EEE21__push_back_slow_pathISA_EEvOT_(%"class.std::__1::vector.129"* %6, %"class.std::__1::unique_ptr.131"* nonnull dereferenceable(8) %5) #15
  br label %47

47:                                               ; preds = %40, %46
  %48 = getelementptr inbounds %"class.std::__1::unique_ptr.131", %"class.std::__1::unique_ptr.131"* %5, i64 0, i32 0, i32 0, i32 0
  %49 = load %"class.base::internal::FieldConverterBase.284"*, %"class.base::internal::FieldConverterBase.284"** %48, align 8
  store %"class.base::internal::FieldConverterBase.284"* null, %"class.base::internal::FieldConverterBase.284"** %48, align 8
  %50 = icmp eq %"class.base::internal::FieldConverterBase.284"* %49, null
  br i1 %50, label %56, label %51

51:                                               ; preds = %47
  %52 = bitcast %"class.base::internal::FieldConverterBase.284"* %49 to void (%"class.base::internal::FieldConverterBase.284"*)***
  %53 = load void (%"class.base::internal::FieldConverterBase.284"*)**, void (%"class.base::internal::FieldConverterBase.284"*)*** %52, align 8
  %54 = getelementptr inbounds void (%"class.base::internal::FieldConverterBase.284"*)*, void (%"class.base::internal::FieldConverterBase.284"*)** %53, i64 1
  %55 = load void (%"class.base::internal::FieldConverterBase.284"*)*, void (%"class.base::internal::FieldConverterBase.284"*)** %54, align 8
  call void %55(%"class.base::internal::FieldConverterBase.284"* nonnull %49) #15
  br label %56

56:                                               ; preds = %51, %47
  call void @llvm.lifetime.end.p0i8(i64 8, i8* nonnull %7) #15
  ret void
}

; Function Attrs: nounwind ssp uwtable
define linkonce_odr hidden void @_ZN4base18JSONValueConverterIN11google_apis12FileResourceEE19RegisterCustomFieldI4GURLEEvRKNSt3__112basic_stringIcNS6_11char_traitsIcEENS6_9allocatorIcEEEEMS2_T_PFbNS_16BasicStringPieceIcS9_EEPSF_E(%"class.base::JSONValueConverter.128"*, %"class.std::__1::basic_string"* dereferenceable(24), i64, i1 (i8*, i64, %class.GURL*)*) local_unnamed_addr #0 comdat align 2 {
  %5 = alloca %"class.std::__1::unique_ptr.131", align 8
  %6 = getelementptr inbounds %"class.base::JSONValueConverter.128", %"class.base::JSONValueConverter.128"* %0, i64 0, i32 0
  %7 = bitcast %"class.std::__1::unique_ptr.131"* %5 to i8*
  call void @llvm.lifetime.start.p0i8(i64 8, i8* nonnull %7) #15
  %8 = tail call i8* @_Znwm(i64 16) #14
  %9 = bitcast i8* %8 to i32 (...)***
  store i32 (...)** bitcast (i8** getelementptr inbounds ({ [5 x i8*] }, { [5 x i8*] }* @_ZTVN4base8internal20CustomFieldConverterI4GURLEE, i64 0, inrange i32 0, i64 2) to i32 (...)**), i32 (...)*** %9, align 8
  %10 = getelementptr inbounds i8, i8* %8, i64 8
  %11 = bitcast i8* %10 to i1 (i8*, i64, %class.GURL*)**
  store i1 (i8*, i64, %class.GURL*)* %3, i1 (i8*, i64, %class.GURL*)** %11, align 8
  %12 = ptrtoint i8* %8 to i64
  %13 = tail call i8* @_Znwm(i64 48) #14
  %14 = bitcast i8* %13 to i32 (...)***
  store i32 (...)** bitcast (i8** getelementptr inbounds ({ [5 x i8*] }, { [5 x i8*] }* @_ZTVN4base8internal18FieldConverterBaseIN11google_apis12FileResourceEEE, i64 0, inrange i32 0, i64 2) to i32 (...)**), i32 (...)*** %14, align 8
  %15 = getelementptr inbounds i8, i8* %13, i64 8
  %16 = bitcast %"class.std::__1::basic_string"* %1 to %"struct.std::__1::basic_string<char, std::__1::char_traits<char>, std::__1::allocator<char> >::__short"*
  %17 = getelementptr inbounds %"struct.std::__1::basic_string<char, std::__1::char_traits<char>, std::__1::allocator<char> >::__short", %"struct.std::__1::basic_string<char, std::__1::char_traits<char>, std::__1::allocator<char> >::__short"* %16, i64 0, i32 1, i32 0
  %18 = load i8, i8* %17, align 1
  %19 = icmp slt i8 %18, 0
  br i1 %19, label %22, label %20

20:                                               ; preds = %4
  %21 = bitcast %"class.std::__1::basic_string"* %1 to i8*
  tail call void @llvm.memcpy.p0i8.p0i8.i64(i8* align 8 %15, i8* align 8 %21, i64 24, i1 false) #15
  br label %28

22:                                               ; preds = %4
  %23 = bitcast i8* %15 to %"class.std::__1::basic_string"*
  %24 = getelementptr inbounds %"class.std::__1::basic_string", %"class.std::__1::basic_string"* %1, i64 0, i32 0, i32 0, i32 0, i32 0, i32 0, i32 0
  %25 = load i8*, i8** %24, align 8
  %26 = getelementptr inbounds %"class.std::__1::basic_string", %"class.std::__1::basic_string"* %1, i64 0, i32 0, i32 0, i32 0, i32 0, i32 0, i32 1
  %27 = load i64, i64* %26, align 8
  tail call void @_ZNSt3__112basic_stringIcNS_11char_traitsIcEENS_9allocatorIcEEE25__init_copy_ctor_externalEPKcm(%"class.std::__1::basic_string"* %23, i8* %25, i64 %27) #15
  br label %28

28:                                               ; preds = %20, %22
  store i32 (...)** bitcast (i8** getelementptr inbounds ({ [5 x i8*] }, { [5 x i8*] }* @_ZTVN4base8internal14FieldConverterIN11google_apis12FileResourceE4GURLEE, i64 0, inrange i32 0, i64 2) to i32 (...)**), i32 (...)*** %14, align 8
  %29 = getelementptr inbounds i8, i8* %13, i64 32
  %30 = bitcast i8* %29 to i64*
  store i64 %2, i64* %30, align 8
  %31 = getelementptr inbounds i8, i8* %13, i64 40
  %32 = bitcast i8* %31 to i64*
  store i64 %12, i64* %32, align 8
  %33 = ptrtoint i8* %13 to i64
  %34 = bitcast %"class.std::__1::unique_ptr.131"* %5 to i64*
  store i64 %33, i64* %34, align 8
  %35 = getelementptr inbounds %"class.base::JSONValueConverter.128", %"class.base::JSONValueConverter.128"* %0, i64 0, i32 0, i32 0, i32 1
  %36 = load %"class.std::__1::unique_ptr.131"*, %"class.std::__1::unique_ptr.131"** %35, align 8
  %37 = getelementptr inbounds %"class.base::JSONValueConverter.128", %"class.base::JSONValueConverter.128"* %0, i64 0, i32 0, i32 0, i32 2, i32 0, i32 0
  %38 = load %"class.std::__1::unique_ptr.131"*, %"class.std::__1::unique_ptr.131"** %37, align 8
  %39 = icmp ult %"class.std::__1::unique_ptr.131"* %36, %38
  br i1 %39, label %40, label %46

40:                                               ; preds = %28
  %41 = getelementptr inbounds %"class.std::__1::unique_ptr.131", %"class.std::__1::unique_ptr.131"* %5, i64 0, i32 0, i32 0, i32 0
  store %"class.base::internal::FieldConverterBase.284"* null, %"class.base::internal::FieldConverterBase.284"** %41, align 8
  %42 = bitcast %"class.std::__1::unique_ptr.131"* %36 to i64*
  store i64 %33, i64* %42, align 8
  %43 = getelementptr inbounds %"class.std::__1::unique_ptr.131", %"class.std::__1::unique_ptr.131"* %36, i64 1
  %44 = ptrtoint %"class.std::__1::unique_ptr.131"* %43 to i64
  %45 = bitcast %"class.std::__1::unique_ptr.131"** %35 to i64*
  store i64 %44, i64* %45, align 8
  br label %47

46:                                               ; preds = %28
  call void @_ZNSt3__16vectorINS_10unique_ptrIN4base8internal18FieldConverterBaseIN11google_apis12FileResourceEEENS_14default_deleteIS7_EEEENS_9allocatorISA_EEE21__push_back_slow_pathISA_EEvOT_(%"class.std::__1::vector.129"* %6, %"class.std::__1::unique_ptr.131"* nonnull dereferenceable(8) %5) #15
  br label %47

47:                                               ; preds = %40, %46
  %48 = getelementptr inbounds %"class.std::__1::unique_ptr.131", %"class.std::__1::unique_ptr.131"* %5, i64 0, i32 0, i32 0, i32 0
  %49 = load %"class.base::internal::FieldConverterBase.284"*, %"class.base::internal::FieldConverterBase.284"** %48, align 8
  store %"class.base::internal::FieldConverterBase.284"* null, %"class.base::internal::FieldConverterBase.284"** %48, align 8
  %50 = icmp eq %"class.base::internal::FieldConverterBase.284"* %49, null
  br i1 %50, label %56, label %51

51:                                               ; preds = %47
  %52 = bitcast %"class.base::internal::FieldConverterBase.284"* %49 to void (%"class.base::internal::FieldConverterBase.284"*)***
  %53 = load void (%"class.base::internal::FieldConverterBase.284"*)**, void (%"class.base::internal::FieldConverterBase.284"*)*** %52, align 8
  %54 = getelementptr inbounds void (%"class.base::internal::FieldConverterBase.284"*)*, void (%"class.base::internal::FieldConverterBase.284"*)** %53, i64 1
  %55 = load void (%"class.base::internal::FieldConverterBase.284"*)*, void (%"class.base::internal::FieldConverterBase.284"*)** %54, align 8
  call void %55(%"class.base::internal::FieldConverterBase.284"* nonnull %49) #15
  br label %56

56:                                               ; preds = %51, %47
  call void @llvm.lifetime.end.p0i8(i64 8, i8* nonnull %7) #15
  ret void
}

; Function Attrs: nounwind ssp uwtable
define internal zeroext i1 @_ZN11google_apis12_GLOBAL__N_117GetGURLFromStringEN4base16BasicStringPieceIcNSt3__111char_traitsIcEEEEP4GURL(i8*, i64, %class.GURL*) #0 {
  %4 = alloca %class.GURL, align 8
  %5 = bitcast %class.GURL* %4 to i8*
  call void @llvm.lifetime.start.p0i8(i64 120, i8* nonnull %5) #15
  call void @_ZN4GURLC1EN4base16BasicStringPieceIcNSt3__111char_traitsIcEEEE(%class.GURL* nonnull %4, i8* %0, i64 %1) #15
  %6 = call dereferenceable(120) %class.GURL* @_ZN4GURLaSEOS_(%class.GURL* %2, %class.GURL* nonnull dereferenceable(120) %4) #15
  call void @_ZN4GURLD1Ev(%class.GURL* nonnull %4) #15
  call void @llvm.lifetime.end.p0i8(i64 120, i8* nonnull %5) #15
  ret i1 true
}

; Function Attrs: nounwind ssp uwtable
define linkonce_odr hidden void @_ZN4base18JSONValueConverterIN11google_apis12FileResourceEE24RegisterCustomValueFieldINSt3__16vectorINS1_15ParentReferenceENS5_9allocatorIS7_EEEEEEvRKNS5_12basic_stringIcNS5_11char_traitsIcEENS8_IcEEEEMS2_T_PFbPKNS_5ValueEPSI_E(%"class.base::JSONValueConverter.128"*, %"class.std::__1::basic_string"* dereferenceable(24), i64, i1 (%"class.base::Value"*, %"class.std::__1::vector.115"*)*) local_unnamed_addr #0 comdat align 2 {
  %5 = alloca %"class.std::__1::unique_ptr.131", align 8
  %6 = getelementptr inbounds %"class.base::JSONValueConverter.128", %"class.base::JSONValueConverter.128"* %0, i64 0, i32 0
  %7 = bitcast %"class.std::__1::unique_ptr.131"* %5 to i8*
  call void @llvm.lifetime.start.p0i8(i64 8, i8* nonnull %7) #15
  %8 = tail call i8* @_Znwm(i64 16) #14
  %9 = bitcast i8* %8 to i32 (...)***
  store i32 (...)** bitcast (i8** getelementptr inbounds ({ [5 x i8*] }, { [5 x i8*] }* @_ZTVN4base8internal19ValueFieldConverterINSt3__16vectorIN11google_apis15ParentReferenceENS2_9allocatorIS5_EEEEEE, i64 0, inrange i32 0, i64 2) to i32 (...)**), i32 (...)*** %9, align 8
  %10 = getelementptr inbounds i8, i8* %8, i64 8
  %11 = bitcast i8* %10 to i1 (%"class.base::Value"*, %"class.std::__1::vector.115"*)**
  store i1 (%"class.base::Value"*, %"class.std::__1::vector.115"*)* %3, i1 (%"class.base::Value"*, %"class.std::__1::vector.115"*)** %11, align 8
  %12 = ptrtoint i8* %8 to i64
  %13 = tail call i8* @_Znwm(i64 48) #14
  %14 = bitcast i8* %13 to i32 (...)***
  store i32 (...)** bitcast (i8** getelementptr inbounds ({ [5 x i8*] }, { [5 x i8*] }* @_ZTVN4base8internal18FieldConverterBaseIN11google_apis12FileResourceEEE, i64 0, inrange i32 0, i64 2) to i32 (...)**), i32 (...)*** %14, align 8
  %15 = getelementptr inbounds i8, i8* %13, i64 8
  %16 = bitcast %"class.std::__1::basic_string"* %1 to %"struct.std::__1::basic_string<char, std::__1::char_traits<char>, std::__1::allocator<char> >::__short"*
  %17 = getelementptr inbounds %"struct.std::__1::basic_string<char, std::__1::char_traits<char>, std::__1::allocator<char> >::__short", %"struct.std::__1::basic_string<char, std::__1::char_traits<char>, std::__1::allocator<char> >::__short"* %16, i64 0, i32 1, i32 0
  %18 = load i8, i8* %17, align 1
  %19 = icmp slt i8 %18, 0
  br i1 %19, label %22, label %20

20:                                               ; preds = %4
  %21 = bitcast %"class.std::__1::basic_string"* %1 to i8*
  tail call void @llvm.memcpy.p0i8.p0i8.i64(i8* align 8 %15, i8* align 8 %21, i64 24, i1 false) #15
  br label %28

22:                                               ; preds = %4
  %23 = bitcast i8* %15 to %"class.std::__1::basic_string"*
  %24 = getelementptr inbounds %"class.std::__1::basic_string", %"class.std::__1::basic_string"* %1, i64 0, i32 0, i32 0, i32 0, i32 0, i32 0, i32 0
  %25 = load i8*, i8** %24, align 8
