; ModuleID = '../../third_party/icu/source/i18n/dtfmtsym.cpp'
source_filename = "../../third_party/icu/source/i18n/dtfmtsym.cpp"
target datalayout = "e-m:e-i64:64-f80:128-n8:16:32:64-S128"
target triple = "x86_64-unknown-linux-gnu"

%"class.std::__1::mutex" = type { %union.pthread_mutex_t }
%union.pthread_mutex_t = type { %struct.__pthread_mutex_s }
%struct.__pthread_mutex_s = type { i32, i32, i32, i32, i32, i16, i16, %struct.__pthread_internal_list }
%struct.__pthread_internal_list = type { %struct.__pthread_internal_list*, %struct.__pthread_internal_list* }
%"class.icu_69::UMutex" = type { [40 x i8], %"struct.std::__1::atomic.2", %"class.icu_69::UMutex"* }
%"struct.std::__1::atomic.2" = type { %"struct.std::__1::__atomic_base.3" }
%"struct.std::__1::__atomic_base.3" = type { %"struct.std::__1::__cxx_atomic_impl.4" }
%"struct.std::__1::__cxx_atomic_impl.4" = type { %"struct.std::__1::__cxx_atomic_base_impl.5" }
%"struct.std::__1::__cxx_atomic_base_impl.5" = type { %"class.std::__1::mutex"* }
%"class.icu_69::ResourceSink" = type { %"class.icu_69::UObject" }
%"class.icu_69::UObject" = type { i32 (...)** }
%struct.UHashtable = type { %struct.UHashElement*, i32 (i8*)*, i8 (i8*, i8*)*, i8 (i8*, i8*)*, void (i8*)*, void (i8*)*, i32, i32, i32, i32, float, float, i8, i8 }
%struct.UHashElement = type { i32, %union.UElement, %union.UElement }
%union.UElement = type { i8* }
%"class.icu_69::Hashtable" = type { %struct.UHashtable*, %struct.UHashtable }
%"class.icu_69::UVector" = type { %"class.icu_69::UObject", i32, i32, %union.UElement*, void (i8*)*, i8 (i8*, i8*)* }
%"class.icu_69::LocalPointer" = type { %"class.icu_69::LocalPointerBase" }
%"class.icu_69::LocalPointerBase" = type { %"class.icu_69::UVector"* }
%"class.icu_69::Replaceable" = type { %"class.icu_69::UObject" }
%"struct.icu_69::ContextUsageTypeNameToEnumValue" = type { i8*, i32 }
%"class.icu_69::MaybeStackArray" = type <{ i8*, i32, i8, [40 x i8], [3 x i8] }>
%"class.icu_69::SharedDateFormatSymbols" = type { %"class.icu_69::SharedObject", %"class.icu_69::DateFormatSymbols" }
%"class.icu_69::SharedObject" = type { %"class.icu_69::UObject", i32, %"struct.std::__1::atomic", %"class.icu_69::UnifiedCacheBase"* }
%"struct.std::__1::atomic" = type { %"struct.std::__1::__atomic_base" }
%"struct.std::__1::__atomic_base" = type { %"struct.std::__1::__atomic_base.0" }
%"struct.std::__1::__atomic_base.0" = type { %"struct.std::__1::__cxx_atomic_impl" }
%"struct.std::__1::__cxx_atomic_impl" = type { %"struct.std::__1::__cxx_atomic_base_impl" }
%"struct.std::__1::__cxx_atomic_base_impl" = type { i32 }
%"class.icu_69::UnifiedCacheBase" = type { %"class.icu_69::UObject" }
%"class.icu_69::DateFormatSymbols" = type <{ %"class.icu_69::UObject", %"class.icu_69::UnicodeString"*, i32, [4 x i8], %"class.icu_69::UnicodeString"*, i32, [4 x i8], %"class.icu_69::UnicodeString"*, i32, [4 x i8], %"class.icu_69::UnicodeString"*, i32, [4 x i8], %"class.icu_69::UnicodeString"*, i32, [4 x i8], %"class.icu_69::UnicodeString"*, i32, [4 x i8], %"class.icu_69::UnicodeString"*, i32, [4 x i8], %"class.icu_69::UnicodeString"*, i32, [4 x i8], %"class.icu_69::UnicodeString"*, i32, [4 x i8], %"class.icu_69::UnicodeString"*, i32, [4 x i8], %"class.icu_69::UnicodeString"*, i32, [4 x i8], %"class.icu_69::UnicodeString"*, i32, [4 x i8], %"class.icu_69::UnicodeString"*, i32, [4 x i8], %"class.icu_69::UnicodeString"*, i32, [4 x i8], %"class.icu_69::UnicodeString"*, i32, [4 x i8], %"class.icu_69::UnicodeString"*, i32, [4 x i8], %"class.icu_69::UnicodeString"*, i32, [4 x i8], %"class.icu_69::UnicodeString"*, i32, [4 x i8], %"class.icu_69::UnicodeString"*, i32, [4 x i8], %"class.icu_69::UnicodeString", %"class.icu_69::UnicodeString"*, i32, [4 x i8], %"class.icu_69::UnicodeString"*, i32, [4 x i8], %"class.icu_69::UnicodeString"*, i32, [4 x i8], %"class.icu_69::UnicodeString"*, i32, [4 x i8], %"class.icu_69::UnicodeString"*, i32, [4 x i8], %"class.icu_69::UnicodeString"*, i32, [4 x i8], %"class.icu_69::UnicodeString"*, i32, [4 x i8], %"class.icu_69::UnicodeString"**, %"class.icu_69::UnicodeString"**, i32, i32, %"class.icu_69::Locale", %"class.icu_69::UnicodeString", [14 x [2 x i8]], [4 x i8], %"class.icu_69::UnicodeString"*, i32, [4 x i8], %"class.icu_69::UnicodeString"*, i32, [4 x i8], %"class.icu_69::UnicodeString"*, i32, [4 x i8], %"class.icu_69::UnicodeString"*, i32, [4 x i8], %"class.icu_69::UnicodeString"*, i32, [4 x i8], %"class.icu_69::UnicodeString"*, i32, [157 x i8], [157 x i8], [2 x i8] }>
%"class.icu_69::Locale" = type <{ %"class.icu_69::UObject", [12 x i8], [6 x i8], [4 x i8], [2 x i8], i32, [4 x i8], i8*, [157 x i8], [3 x i8], i8*, i8, [7 x i8] }>
%"class.icu_69::UnicodeString" = type { %"class.icu_69::Replaceable", %"union.icu_69::UnicodeString::StackBufferOrFields" }
%"union.icu_69::UnicodeString::StackBufferOrFields" = type { %struct.anon.1, [32 x i8] }
%struct.anon.1 = type { i16, i32, i32, i16* }
%"class.icu_69::LocaleCacheKey" = type { %"class.icu_69::CacheKey.base", [3 x i8], %"class.icu_69::Locale" }
%"class.icu_69::CacheKey.base" = type { %"class.icu_69::CacheKeyBase.base" }
%"class.icu_69::CacheKeyBase.base" = type <{ %"class.icu_69::UObject", i32, i8 }>
%"class.icu_69::UnifiedCache" = type { %"class.icu_69::UnifiedCacheBase", %struct.UHashtable*, i32, i32, i32, i32, i32, i64, %"class.icu_69::SharedObject"* }
%"class.icu_69::CacheKey" = type { %"class.icu_69::CacheKeyBase.base", [3 x i8] }
%"class.icu_69::CacheKeyBase" = type <{ %"class.icu_69::UObject", i32, i8, [3 x i8] }>
%"class.icu_69::ConstChar16Ptr" = type { i16* }
%"struct.icu_69::(anonymous namespace)::CalendarDataSink" = type { %"class.icu_69::ResourceSink", %"class.icu_69::Hashtable", %"class.icu_69::Hashtable", %"class.icu_69::Hashtable", %"class.icu_69::MemoryPool", %"class.icu_69::UVector", %"class.icu_69::UnicodeString", %"class.icu_69::UnicodeString", %"class.icu_69::LocalPointer", %"class.icu_69::UnicodeString" }
%"class.icu_69::MemoryPool" = type { i32, %"class.icu_69::MaybeStackArray.6" }
%"class.icu_69::MaybeStackArray.6" = type { %"class.icu_69::Hashtable"**, i32, i8, [8 x %"class.icu_69::Hashtable"*] }
%"class.icu_69::CharString" = type { %"class.icu_69::MaybeStackArray", i32, [4 x i8] }
%"class.icu_69::LocaleBased" = type { i8*, i8* }
%struct.UResourceBundle = type { i8*, %struct.UResourceDataEntry*, i8*, %struct.UResourceDataEntry*, i8*, %struct.ResourceData, [64 x i8], i32, i32, i8, i8, i32, i32, i32, i32 }
%struct.UResourceDataEntry = type { i8*, i8*, %struct.UResourceDataEntry*, %struct.UResourceDataEntry*, %struct.UResourceDataEntry*, %struct.ResourceData, [3 x i8], i32, i32 }
%struct.ResourceData = type { %struct.UDataMemory*, i32*, i16*, i8*, i32, i32, i16*, i32, i32, i8, i8, i8, i8 }
%struct.UDataMemory = type opaque
%"class.icu_69::NumberingSystem" = type <{ %"class.icu_69::UObject", %"class.icu_69::UnicodeString", i32, i8, [9 x i8], [2 x i8] }>
%"class.icu_69::StringEnumeration" = type <{ %"class.icu_69::UObject", %"class.icu_69::UnicodeString", [32 x i8], i8*, i32, [4 x i8] }>
%"class.icu_69::TimeZoneNames" = type { %"class.icu_69::UObject" }
%"class.icu_69::ResourceValue" = type { %"class.icu_69::UObject" }
%"class.icu_69::ResourceTable" = type { i16*, i32*, i16*, i32*, i32, [4 x i8], %"class.icu_69::ResourceTracer" }
%"class.icu_69::ResourceTracer" = type <{ %struct.UResourceBundle*, %"class.icu_69::ResourceTracer"*, i8*, i32, [4 x i8] }>
%"class.icu_69::ResourceArray" = type { i16*, i32*, i32, [4 x i8], %"class.icu_69::ResourceTracer" }
%"class.std::type_info" = type { i32 (...)**, i8* }

$_ZN6icu_6915MaybeStackArrayIcLi40EEC5Ev = comdat any

$_ZN6icu_6915MaybeStackArrayIcLi40EEC5Ei10UErrorCode = comdat any

$_ZN6icu_6915MaybeStackArrayIcLi40EE6resizeEii = comdat any

$_ZN6icu_6915MaybeStackArrayIcLi40EED5Ev = comdat any

$_ZN6icu_6915MaybeStackArrayIcLi40EE12releaseArrayEv = comdat any

$_ZN6icu_6915MaybeStackArrayIcLi40EEC5EOS1_ = comdat any

$_ZN6icu_6915MaybeStackArrayIcLi40EE17resetToStackArrayEv = comdat any

$_ZN6icu_6915MaybeStackArrayIcLi40EEaSEOS1_ = comdat any

$_ZNK6icu_6915MaybeStackArrayIcLi40EE11getCapacityEv = comdat any

$_ZNK6icu_6915MaybeStackArrayIcLi40EE8getAliasEv = comdat any

$_ZNK6icu_6915MaybeStackArrayIcLi40EE13getArrayLimitEv = comdat any

$_ZNK6icu_6915MaybeStackArrayIcLi40EEixEl = comdat any

$_ZN6icu_6915MaybeStackArrayIcLi40EEixEl = comdat any

$_ZN6icu_6915MaybeStackArrayIcLi40EE12aliasInsteadEPci = comdat any

$_ZN6icu_6915MaybeStackArrayIcLi40EE13orphanOrCloneEiRi = comdat any

$_ZN6icu_6915MaybeStackArrayIcLi40EE8copyFromERKS1_R10UErrorCode = comdat any

$_ZN6icu_6910MemoryPoolINS_9HashtableELi8EE6createIJiR10UErrorCodeEEEPS1_DpOT_ = comdat any

$_ZN6icu_6914LocaleCacheKeyINS_23SharedDateFormatSymbolsEED2Ev = comdat any

$_ZNK6icu_6912UnifiedCache3getINS_23SharedDateFormatSymbolsEEEvRKNS_8CacheKeyIT_EEPKvRPKS4_R10UErrorCode = comdat any

$_ZN6icu_6914LocaleCacheKeyINS_23SharedDateFormatSymbolsEED0Ev = comdat any

$_ZNK6icu_6914LocaleCacheKeyINS_23SharedDateFormatSymbolsEE8hashCodeEv = comdat any

$_ZNK6icu_6914LocaleCacheKeyINS_23SharedDateFormatSymbolsEE5cloneEv = comdat any

$_ZNK6icu_6914LocaleCacheKeyINS_23SharedDateFormatSymbolsEEeqERKNS_12CacheKeyBaseE = comdat any

$_ZNK6icu_6914LocaleCacheKeyINS_23SharedDateFormatSymbolsEE16writeDescriptionEPci = comdat any

$_ZTVN6icu_6914LocaleCacheKeyINS_23SharedDateFormatSymbolsEEE = comdat any

$_ZTSN6icu_6914LocaleCacheKeyINS_23SharedDateFormatSymbolsEEE = comdat any

$_ZTSN6icu_698CacheKeyINS_23SharedDateFormatSymbolsEEE = comdat any

$_ZTIN6icu_698CacheKeyINS_23SharedDateFormatSymbolsEEE = comdat any

$_ZTIN6icu_6914LocaleCacheKeyINS_23SharedDateFormatSymbolsEEE = comdat any

@_ZTVN6icu_6923SharedDateFormatSymbolsE = hidden unnamed_addr constant { [5 x i8*] } { [5 x i8*] [i8* null, i8* bitcast ({ i8*, i8*, i8* }* @_ZTIN6icu_6923SharedDateFormatSymbolsE to i8*), i8* bitcast (void (%"class.icu_69::SharedDateFormatSymbols"*)* @_ZN6icu_6923SharedDateFormatSymbolsD2Ev to i8*), i8* bitcast (void (%"class.icu_69::SharedDateFormatSymbols"*)* @_ZN6icu_6923SharedDateFormatSymbolsD0Ev to i8*), i8* bitcast (i8* (%"class.icu_69::UObject"*)* @_ZNK6icu_697UObject17getDynamicClassIDEv to i8*)] }, align 8
@_ZZN6icu_6917DateFormatSymbols16getStaticClassIDEvE7classID = internal global i8 0, align 1
@_ZTVN6icu_6917DateFormatSymbolsE = hidden unnamed_addr constant { [5 x i8*] } { [5 x i8*] [i8* null, i8* bitcast ({ i8*, i8*, i8* }* @_ZTIN6icu_6917DateFormatSymbolsE to i8*), i8* bitcast (void (%"class.icu_69::DateFormatSymbols"*)* @_ZN6icu_6917DateFormatSymbolsD2Ev to i8*), i8* bitcast (void (%"class.icu_69::DateFormatSymbols"*)* @_ZN6icu_6917DateFormatSymbolsD0Ev to i8*), i8* bitcast (i8* (%"class.icu_69::DateFormatSymbols"*)* @_ZNK6icu_6917DateFormatSymbols17getDynamicClassIDEv to i8*)] }, align 8
@_ZZNK6icu_6917DateFormatSymbols14getZoneStringsERiS1_E4LOCK = internal global { [40 x i8], { { %"class.std::__1::mutex"* } }, %"class.icu_69::UMutex"* } zeroinitializer, align 8
@_ZZN6icu_6917DateFormatSymbols20initZoneStringsArrayEvE5TYPES = internal constant [4 x i32] [i32 2, i32 16, i32 4, i32 32], align 16
@_ZL13gPatternChars = internal constant [38 x i16] [i16 71, i16 121, i16 77, i16 100, i16 107, i16 72, i16 109, i16 115, i16 83, i16 69, i16 68, i16 70, i16 119, i16 87, i16 97, i16 104, i16 75, i16 122, i16 89, i16 101, i16 117, i16 103, i16 65, i16 90, i16 118, i16 99, i16 76, i16 81, i16 113, i16 86, i16 85, i16 79, i16 88, i16 120, i16 114, i16 98, i16 66, i16 0], align 16
@__const._ZN6icu_6917DateFormatSymbols14initializeDataERKNS_6LocaleEPKcR10UErrorCodea.calendarSink = private unnamed_addr constant { %"class.icu_69::ResourceSink", { %struct.UHashtable*, { %struct.UHashElement*, i32 (i8*)*, i8 (i8*, i8*)*, i8 (i8*, i8*)*, void (i8*)*, void (i8*)*, i32, i32, i32, i32, float, float, i8, i8, [6 x i8] } }, { %struct.UHashtable*, { %struct.UHashElement*, i32 (i8*)*, i8 (i8*, i8*)*, i8 (i8*, i8*)*, void (i8*)*, void (i8*)*, i32, i32, i32, i32, float, float, i8, i8, [6 x i8] } }, { %struct.UHashtable*, { %struct.UHashElement*, i32 (i8*)*, i8 (i8*, i8*)*, i8 (i8*, i8*)*, void (i8*)*, void (i8*)*, i32, i32, i32, i32, float, float, i8, i8, [6 x i8] } }, { i32, [4 x i8], { %"class.icu_69::Hashtable"**, i32, i8, [3 x i8], [8 x %"class.icu_69::Hashtable"*] } }, %"class.icu_69::UVector", { %"class.icu_69::Replaceable", { { i16, [2 x i8], i32, i32, [4 x i8], i16* }, [32 x i8] } }, { %"class.icu_69::Replaceable", { { i16, [2 x i8], i32, i32, [4 x i8], i16* }, [32 x i8] } }, %"class.icu_69::LocalPointer", { %"class.icu_69::Replaceable", { { i16, [2 x i8], i32, i32, [4 x i8], i16* }, [32 x i8] } } } { %"class.icu_69::ResourceSink" { %"class.icu_69::UObject" { i32 (...)** inttoptr (i64 -6148914691236517206 to i32 (...)**) } }, { %struct.UHashtable*, { %struct.UHashElement*, i32 (i8*)*, i8 (i8*, i8*)*, i8 (i8*, i8*)*, void (i8*)*, void (i8*)*, i32, i32, i32, i32, float, float, i8, i8, [6 x i8] } } { %struct.UHashtable* inttoptr (i64 -6148914691236517206 to %struct.UHashtable*), { %struct.UHashElement*, i32 (i8*)*, i8 (i8*, i8*)*, i8 (i8*, i8*)*, void (i8*)*, void (i8*)*, i32, i32, i32, i32, float, float, i8, i8, [6 x i8] } { %struct.UHashElement* inttoptr (i64 -6148914691236517206 to %struct.UHashElement*), i32 (i8*)* inttoptr (i64 -6148914691236517206 to i32 (i8*)*), i8 (i8*, i8*)* inttoptr (i64 -6148914691236517206 to i8 (i8*, i8*)*), i8 (i8*, i8*)* inttoptr (i64 -6148914691236517206 to i8 (i8*, i8*)*), void (i8*)* inttoptr (i64 -6148914691236517206 to void (i8*)*), void (i8*)* inttoptr (i64 -6148914691236517206 to void (i8*)*), i32 -1431655766, i32 -1431655766, i32 -1431655766, i32 -1431655766, float 0xFFFFFFFFE0000000, float 0xFFFFFFFFE0000000, i8 -86, i8 -86, [6 x i8] c"\AA\AA\AA\AA\AA\AA" } }, { %struct.UHashtable*, { %struct.UHashElement*, i32 (i8*)*, i8 (i8*, i8*)*, i8 (i8*, i8*)*, void (i8*)*, void (i8*)*, i32, i32, i32, i32, float, float, i8, i8, [6 x i8] } } { %struct.UHashtable* inttoptr (i64 -6148914691236517206 to %struct.UHashtable*), { %struct.UHashElement*, i32 (i8*)*, i8 (i8*, i8*)*, i8 (i8*, i8*)*, void (i8*)*, void (i8*)*, i32, i32, i32, i32, float, float, i8, i8, [6 x i8] } { %struct.UHashElement* inttoptr (i64 -6148914691236517206 to %struct.UHashElement*), i32 (i8*)* inttoptr (i64 -6148914691236517206 to i32 (i8*)*), i8 (i8*, i8*)* inttoptr (i64 -6148914691236517206 to i8 (i8*, i8*)*), i8 (i8*, i8*)* inttoptr (i64 -6148914691236517206 to i8 (i8*, i8*)*), void (i8*)* inttoptr (i64 -6148914691236517206 to void (i8*)*), void (i8*)* inttoptr (i64 -6148914691236517206 to void (i8*)*), i32 -1431655766, i32 -1431655766, i32 -1431655766, i32 -1431655766, float 0xFFFFFFFFE0000000, float 0xFFFFFFFFE0000000, i8 -86, i8 -86, [6 x i8] c"\AA\AA\AA\AA\AA\AA" } }, { %struct.UHashtable*, { %struct.UHashElement*, i32 (i8*)*, i8 (i8*, i8*)*, i8 (i8*, i8*)*, void (i8*)*, void (i8*)*, i32, i32, i32, i32, float, float, i8, i8, [6 x i8] } } { %struct.UHashtable* inttoptr (i64 -6148914691236517206 to %struct.UHashtable*), { %struct.UHashElement*, i32 (i8*)*, i8 (i8*, i8*)*, i8 (i8*, i8*)*, void (i8*)*, void (i8*)*, i32, i32, i32, i32, float, float, i8, i8, [6 x i8] } { %struct.UHashElement* inttoptr (i64 -6148914691236517206 to %struct.UHashElement*), i32 (i8*)* inttoptr (i64 -6148914691236517206 to i32 (i8*)*), i8 (i8*, i8*)* inttoptr (i64 -6148914691236517206 to i8 (i8*, i8*)*), i8 (i8*, i8*)* inttoptr (i64 -6148914691236517206 to i8 (i8*, i8*)*), void (i8*)* inttoptr (i64 -6148914691236517206 to void (i8*)*), void (i8*)* inttoptr (i64 -6148914691236517206 to void (i8*)*), i32 -1431655766, i32 -1431655766, i32 -1431655766, i32 -1431655766, float 0xFFFFFFFFE0000000, float 0xFFFFFFFFE0000000, i8 -86, i8 -86, [6 x i8] c"\AA\AA\AA\AA\AA\AA" } }, { i32, [4 x i8], { %"class.icu_69::Hashtable"**, i32, i8, [3 x i8], [8 x %"class.icu_69::Hashtable"*] } } { i32 -1431655766, [4 x i8] c"\AA\AA\AA\AA", { %"class.icu_69::Hashtable"**, i32, i8, [3 x i8], [8 x %"class.icu_69::Hashtable"*] } { %"class.icu_69::Hashtable"** inttoptr (i64 -6148914691236517206 to %"class.icu_69::Hashtable"**), i32 -1431655766, i8 -86, [3 x i8] c"\AA\AA\AA", [8 x %"class.icu_69::Hashtable"*] [%"class.icu_69::Hashtable"* inttoptr (i64 -6148914691236517206 to %"class.icu_69::Hashtable"*), %"class.icu_69::Hashtable"* inttoptr (i64 -6148914691236517206 to %"class.icu_69::Hashtable"*), %"class.icu_69::Hashtable"* inttoptr (i64 -6148914691236517206 to %"class.icu_69::Hashtable"*), %"class.icu_69::Hashtable"* inttoptr (i64 -6148914691236517206 to %"class.icu_69::Hashtable"*), %"class.icu_69::Hashtable"* inttoptr (i64 -6148914691236517206 to %"class.icu_69::Hashtable"*), %"class.icu_69::Hashtable"* inttoptr (i64 -6148914691236517206 to %"class.icu_69::Hashtable"*), %"class.icu_69::Hashtable"* inttoptr (i64 -6148914691236517206 to %"class.icu_69::Hashtable"*), %"class.icu_69::Hashtable"* inttoptr (i64 -6148914691236517206 to %"class.icu_69::Hashtable"*)] } }, %"class.icu_69::UVector" { %"class.icu_69::UObject" { i32 (...)** inttoptr (i64 -6148914691236517206 to i32 (...)**) }, i32 -1431655766, i32 -1431655766, %union.UElement* inttoptr (i64 -6148914691236517206 to %union.UElement*), void (i8*)* inttoptr (i64 -6148914691236517206 to void (i8*)*), i8 (i8*, i8*)* inttoptr (i64 -6148914691236517206 to i8 (i8*, i8*)*) }, { %"class.icu_69::Replaceable", { { i16, [2 x i8], i32, i32, [4 x i8], i16* }, [32 x i8] } } { %"class.icu_69::Replaceable" { %"class.icu_69::UObject" { i32 (...)** inttoptr (i64 -6148914691236517206 to i32 (...)**) } }, { { i16, [2 x i8], i32, i32, [4 x i8], i16* }, [32 x i8] } { { i16, [2 x i8], i32, i32, [4 x i8], i16* } { i16 -21846, [2 x i8] c"\AA\AA", i32 -1431655766, i32 -1431655766, [4 x i8] c"\AA\AA\AA\AA", i16* inttoptr (i64 -6148914691236517206 to i16*) }, [32 x i8] c"\AA\AA\AA\AA\AA\AA\AA\AA\AA\AA\AA\AA\AA\AA\AA\AA\AA\AA\AA\AA\AA\AA\AA\AA\AA\AA\AA\AA\AA\AA\AA\AA" } }, { %"class.icu_69::Replaceable", { { i16, [2 x i8], i32, i32, [4 x i8], i16* }, [32 x i8] } } { %"class.icu_69::Replaceable" { %"class.icu_69::UObject" { i32 (...)** inttoptr (i64 -6148914691236517206 to i32 (...)**) } }, { { i16, [2 x i8], i32, i32, [4 x i8], i16* }, [32 x i8] } { { i16, [2 x i8], i32, i32, [4 x i8], i16* } { i16 -21846, [2 x i8] c"\AA\AA", i32 -1431655766, i32 -1431655766, [4 x i8] c"\AA\AA\AA\AA", i16* inttoptr (i64 -6148914691236517206 to i16*) }, [32 x i8] c"\AA\AA\AA\AA\AA\AA\AA\AA\AA\AA\AA\AA\AA\AA\AA\AA\AA\AA\AA\AA\AA\AA\AA\AA\AA\AA\AA\AA\AA\AA\AA\AA" } }, %"class.icu_69::LocalPointer" { %"class.icu_69::LocalPointerBase" { %"class.icu_69::UVector"* inttoptr (i64 -6148914691236517206 to %"class.icu_69::UVector"*) } }, { %"class.icu_69::Replaceable", { { i16, [2 x i8], i32, i32, [4 x i8], i16* }, [32 x i8] } } { %"class.icu_69::Replaceable" { %"class.icu_69::UObject" { i32 (...)** inttoptr (i64 -6148914691236517206 to i32 (...)**) } }, { { i16, [2 x i8], i32, i32, [4 x i8], i16* }, [32 x i8] } { { i16, [2 x i8], i32, i32, [4 x i8], i16* } { i16 -21846, [2 x i8] c"\AA\AA", i32 -1431655766, i32 -1431655766, [4 x i8] c"\AA\AA\AA\AA", i16* inttoptr (i64 -6148914691236517206 to i16*) }, [32 x i8] c"\AA\AA\AA\AA\AA\AA\AA\AA\AA\AA\AA\AA\AA\AA\AA\AA\AA\AA\AA\AA\AA\AA\AA\AA\AA\AA\AA\AA\AA\AA\AA\AA" } } }, align 8
@_ZN6icu_69L12gCalendarTagE = internal constant [9 x i8] c"calendar\00", align 1
@_ZN6icu_69L13gGregorianTagE = internal constant [10 x i8] c"gregorian\00", align 1
@_ZN6icu_6912_GLOBAL__N_118kGregorianTagUCharE = internal constant [9 x i16] [i16 103, i16 114, i16 101, i16 103, i16 111, i16 114, i16 105, i16 97, i16 110], align 16
@.str = private unnamed_addr constant [1 x i8] zeroinitializer, align 1
@_ZN6icu_69L17gMonthPatternsTagE = internal constant [14 x i8] c"monthPatterns\00", align 1
@_ZN6icu_69L15gNamesFormatTagE = internal constant [7 x i8] c"format\00", align 1
@_ZN6icu_69L13gNamesWideTagE = internal constant [5 x i8] c"wide\00", align 1
@_ZN6icu_69L13gNamesAbbrTagE = internal constant [12 x i8] c"abbreviated\00", align 1
@_ZN6icu_69L15gNamesNarrowTagE = internal constant [7 x i8] c"narrow\00", align 1
@_ZN6icu_69L19gNamesStandaloneTagE = internal constant [12 x i8] c"stand-alone\00", align 1
@_ZN6icu_69L16gNamesNumericTagE = internal constant [8 x i8] c"numeric\00", align 1
@_ZN6icu_69L12gNamesAllTagE = internal constant [4 x i8] c"all\00", align 1
@_ZN6icu_69L18gCyclicNameSetsTagE = internal constant [15 x i8] c"cyclicNameSets\00", align 1
@_ZN6icu_69L16gNameSetYearsTagE = internal constant [6 x i8] c"years\00", align 1
@_ZN6icu_69L18gNameSetZodiacsTagE = internal constant [8 x i8] c"zodiacs\00", align 1
@_ZN6icu_69L21gContextTransformsTagE = internal constant [18 x i8] c"contextTransforms\00", align 16
@_ZN6icu_69L19contextUsageTypeMapE = internal unnamed_addr constant [14 x %"struct.icu_69::ContextUsageTypeNameToEnumValue"] [%"struct.icu_69::ContextUsageTypeNameToEnumValue" { i8* getelementptr inbounds ([25 x i8], [25 x i8]* @.str.1, i32 0, i32 0), i32 4 }, %"struct.icu_69::ContextUsageTypeNameToEnumValue" { i8* getelementptr inbounds ([11 x i8], [11 x i8]* @.str.2, i32 0, i32 0), i32 6 }, %"struct.icu_69::ContextUsageTypeNameToEnumValue" { i8* getelementptr inbounds ([29 x i8], [29 x i8]* @.str.3, i32 0, i32 0), i32 5 }, %"struct.icu_69::ContextUsageTypeNameToEnumValue" { i8* getelementptr inbounds ([9 x i8], [9 x i8]* @.str.4, i32 0, i32 0), i32 8 }, %"struct.icu_69::ContextUsageTypeNameToEnumValue" { i8* getelementptr inbounds ([9 x i8], [9 x i8]* @.str.5, i32 0, i32 0), i32 7 }, %"struct.icu_69::ContextUsageTypeNameToEnumValue" { i8* getelementptr inbounds ([11 x i8], [11 x i8]* @.str.6, i32 0, i32 0), i32 9 }, %"struct.icu_69::ContextUsageTypeNameToEnumValue" { i8* getelementptr inbounds ([14 x i8], [14 x i8]* @.str.7, i32 0, i32 0), i32 12 }, %"struct.icu_69::ContextUsageTypeNameToEnumValue" { i8* getelementptr inbounds ([15 x i8], [15 x i8]* @.str.8, i32 0, i32 0), i32 13 }, %"struct.icu_69::ContextUsageTypeNameToEnumValue" { i8* getelementptr inbounds ([27 x i8], [27 x i8]* @.str.9, i32 0, i32 0), i32 1 }, %"struct.icu_69::ContextUsageTypeNameToEnumValue" { i8* getelementptr inbounds ([13 x i8], [13 x i8]* @.str.10, i32 0, i32 0), i32 3 }, %"struct.icu_69::ContextUsageTypeNameToEnumValue" { i8* getelementptr inbounds ([31 x i8], [31 x i8]* @.str.11, i32 0, i32 0), i32 2 }, %"struct.icu_69::ContextUsageTypeNameToEnumValue" { i8* getelementptr inbounds ([10 x i8], [10 x i8]* @.str.12, i32 0, i32 0), i32 10 }, %"struct.icu_69::ContextUsageTypeNameToEnumValue" { i8* getelementptr inbounds ([11 x i8], [11 x i8]* @.str.13, i32 0, i32 0), i32 11 }, %"struct.icu_69::ContextUsageTypeNameToEnumValue" zeroinitializer], align 16
@_ZN6icu_69L18gNumberElementsTagE = internal constant [15 x i8] c"NumberElements\00", align 1
@_ZN6icu_69L11gSymbolsTagE = internal constant [8 x i8] c"symbols\00", align 1
@_ZN6icu_69L17gTimeSeparatorTagE = internal constant [14 x i8] c"timeSeparator\00", align 1
@_ZN6icu_69L13gDayPeriodTagE = internal constant [10 x i8] c"dayPeriod\00", align 1
@_ZN6icu_69L8gErasTagE = internal constant [5 x i8] c"eras\00", align 1
@_ZN6icu_69L14gMonthNamesTagE = internal constant [11 x i8] c"monthNames\00", align 1
@_ZN6icu_69L15gAmPmMarkersTagE = internal constant [12 x i8] c"AmPmMarkers\00", align 1
@_ZN6icu_69L19gAmPmMarkersAbbrTagE = internal constant [16 x i8] c"AmPmMarkersAbbr\00", align 16
@_ZN6icu_69L21gAmPmMarkersNarrowTagE = internal constant [18 x i8] c"AmPmMarkersNarrow\00", align 16
@_ZN6icu_69L12gQuartersTagE = internal constant [9 x i8] c"quarters\00", align 1
@_ZN6icu_69L12gDayNamesTagE = internal constant [9 x i8] c"dayNames\00", align 1
@_ZN6icu_69L14gNamesShortTagE = internal constant [6 x i8] c"short\00", align 1
@_ZL15gLastResortEras = internal constant [2 x [3 x i16]] [[3 x i16] [i16 66, i16 67, i16 0], [3 x i16] [i16 65, i16 68, i16 0]], align 2
@_ZL21gLastResortMonthNames = internal constant [13 x [3 x i16]] [[3 x i16] [i16 48, i16 49, i16 0], [3 x i16] [i16 48, i16 50, i16 0], [3 x i16] [i16 48, i16 51, i16 0], [3 x i16] [i16 48, i16 52, i16 0], [3 x i16] [i16 48, i16 53, i16 0], [3 x i16] [i16 48, i16 54, i16 0], [3 x i16] [i16 48, i16 55, i16 0], [3 x i16] [i16 48, i16 56, i16 0], [3 x i16] [i16 48, i16 57, i16 0], [3 x i16] [i16 49, i16 48, i16 0], [3 x i16] [i16 49, i16 49, i16 0], [3 x i16] [i16 49, i16 50, i16 0], [3 x i16] [i16 49, i16 51, i16 0]], align 16
@_ZL19gLastResortDayNames = internal constant [8 x [2 x i16]] [[2 x i16] [i16 48, i16 0], [2 x i16] [i16 49, i16 0], [2 x i16] [i16 50, i16 0], [2 x i16] [i16 51, i16 0], [2 x i16] [i16 52, i16 0], [2 x i16] [i16 53, i16 0], [2 x i16] [i16 54, i16 0], [2 x i16] [i16 55, i16 0]], align 16
@_ZL22gLastResortAmPmMarkers = internal constant [2 x [3 x i16]] [[3 x i16] [i16 65, i16 77, i16 0], [3 x i16] [i16 80, i16 77, i16 0]], align 2
@_ZL19gLastResortQuarters = internal constant [4 x [2 x i16]] [[2 x i16] [i16 49, i16 0], [2 x i16] [i16 50, i16 0], [2 x i16] [i16 51, i16 0], [2 x i16] [i16 52, i16 0]], align 16
@_ZTVN10__cxxabiv120__si_class_type_infoE = external global i8*
@_ZTSN6icu_6923SharedDateFormatSymbolsE = hidden constant [35 x i8] c"N6icu_6923SharedDateFormatSymbolsE\00", align 1
@_ZTIN6icu_6912SharedObjectE = external constant i8*
@_ZTIN6icu_6923SharedDateFormatSymbolsE = hidden constant { i8*, i8*, i8* } { i8* bitcast (i8** getelementptr inbounds (i8*, i8** @_ZTVN10__cxxabiv120__si_class_type_infoE, i64 2) to i8*), i8* getelementptr inbounds ([35 x i8], [35 x i8]* @_ZTSN6icu_6923SharedDateFormatSymbolsE, i32 0, i32 0), i8* bitcast (i8** @_ZTIN6icu_6912SharedObjectE to i8*) }, align 8
@_ZTSN6icu_6917DateFormatSymbolsE = hidden constant [29 x i8] c"N6icu_6917DateFormatSymbolsE\00", align 1
@_ZTIN6icu_697UObjectE = external constant i8*
@_ZTIN6icu_6917DateFormatSymbolsE = hidden constant { i8*, i8*, i8* } { i8* bitcast (i8** getelementptr inbounds (i8*, i8** @_ZTVN10__cxxabiv120__si_class_type_infoE, i64 2) to i8*), i8* getelementptr inbounds ([29 x i8], [29 x i8]* @_ZTSN6icu_6917DateFormatSymbolsE, i32 0, i32 0), i8* bitcast (i8** @_ZTIN6icu_697UObjectE to i8*) }, align 8
@_ZTVN6icu_6913UnicodeStringE = external unnamed_addr constant { [13 x i8*] }, align 8
@_ZTVN6icu_6912_GLOBAL__N_116CalendarDataSinkE = internal unnamed_addr constant { [6 x i8*] } { [6 x i8*] [i8* null, i8* bitcast ({ i8*, i8*, i8* }* @_ZTIN6icu_6912_GLOBAL__N_116CalendarDataSinkE to i8*), i8* bitcast (void (%"struct.icu_69::(anonymous namespace)::CalendarDataSink"*)* @_ZN6icu_6912_GLOBAL__N_116CalendarDataSinkD2Ev to i8*), i8* bitcast (void (%"struct.icu_69::(anonymous namespace)::CalendarDataSink"*)* @_ZN6icu_6912_GLOBAL__N_116CalendarDataSinkD0Ev to i8*), i8* bitcast (i8* (%"class.icu_69::UObject"*)* @_ZNK6icu_697UObject17getDynamicClassIDEv to i8*), i8* bitcast (void (%"struct.icu_69::(anonymous namespace)::CalendarDataSink"*, i8*, %"class.icu_69::ResourceValue"*, i8, i32*)* @_ZN6icu_6912_GLOBAL__N_116CalendarDataSink3putEPKcRNS_13ResourceValueEaR10UErrorCode to i8*)] }, align 8
@_ZTSN6icu_6912_GLOBAL__N_116CalendarDataSinkE = internal constant [42 x i8] c"N6icu_6912_GLOBAL__N_116CalendarDataSinkE\00", align 1
@_ZTIN6icu_6912ResourceSinkE = external constant i8*
@_ZTIN6icu_6912_GLOBAL__N_116CalendarDataSinkE = internal constant { i8*, i8*, i8* } { i8* bitcast (i8** getelementptr inbounds (i8*, i8** @_ZTVN10__cxxabiv120__si_class_type_infoE, i64 2) to i8*), i8* getelementptr inbounds ([42 x i8], [42 x i8]* @_ZTSN6icu_6912_GLOBAL__N_116CalendarDataSinkE, i32 0, i32 0), i8* bitcast (i8** @_ZTIN6icu_6912ResourceSinkE to i8*) }, align 8
@_ZN6icu_6912_GLOBAL__N_125kCalendarAliasPrefixUCharE = internal constant [17 x i16] [i16 47, i16 76, i16 79, i16 67, i16 65, i16 76, i16 69, i16 47, i16 99, i16 97, i16 108, i16 101, i16 110, i16 100, i16 97, i16 114, i16 47], align 16
@_ZN6icu_6912_GLOBAL__N_116kVariantTagUCharE = internal constant [8 x i16] [i16 37, i16 118, i16 97, i16 114, i16 105, i16 97, i16 110, i16 116], align 16
@_ZN6icu_6912_GLOBAL__N_123kCyclicNameSetsTagUCharE = internal constant [14 x i16] [i16 99, i16 121, i16 99, i16 108, i16 105, i16 99, i16 78, i16 97, i16 109, i16 101, i16 83, i16 101, i16 116, i16 115], align 16
@_ZN6icu_6912_GLOBAL__N_113kZodiacsUCharE = internal constant [8 x i16] [i16 47, i16 122, i16 111, i16 100, i16 105, i16 97, i16 99, i16 115], align 16
@_ZN6icu_6912_GLOBAL__N_114kYearsTagUCharE = internal constant [6 x i16] [i16 47, i16 121, i16 101, i16 97, i16 114, i16 115], align 2
@_ZN6icu_6912_GLOBAL__N_117kDayPartsTagUCharE = internal constant [9 x i16] [i16 47, i16 100, i16 97, i16 121, i16 80, i16 97, i16 114, i16 116, i16 115], align 16
@_ZN6icu_6912_GLOBAL__N_115kFormatTagUCharE = internal constant [7 x i16] [i16 47, i16 102, i16 111, i16 114, i16 109, i16 97, i16 116], align 2
@_ZN6icu_6912_GLOBAL__N_113kAbbrTagUCharE = internal constant [12 x i16] [i16 47, i16 97, i16 98, i16 98, i16 114, i16 101, i16 118, i16 105, i16 97, i16 116, i16 101, i16 100], align 16
@_ZN6icu_6912_GLOBAL__N_113kLeapTagUCharE = internal constant [4 x i16] [i16 108, i16 101, i16 97, i16 112], align 2
@.str.1 = private unnamed_addr constant [25 x i8] c"day-format-except-narrow\00", align 1
@.str.2 = private unnamed_addr constant [11 x i8] c"day-narrow\00", align 1
@.str.3 = private unnamed_addr constant [29 x i8] c"day-standalone-except-narrow\00", align 1
@.str.4 = private unnamed_addr constant [9 x i8] c"era-abbr\00", align 1
@.str.5 = private unnamed_addr constant [9 x i8] c"era-name\00", align 1
@.str.6 = private unnamed_addr constant [11 x i8] c"era-narrow\00", align 1
@.str.7 = private unnamed_addr constant [14 x i8] c"metazone-long\00", align 1
@.str.8 = private unnamed_addr constant [15 x i8] c"metazone-short\00", align 1
@.str.9 = private unnamed_addr constant [27 x i8] c"month-format-except-narrow\00", align 1
@.str.10 = private unnamed_addr constant [13 x i8] c"month-narrow\00", align 1
@.str.11 = private unnamed_addr constant [31 x i8] c"month-standalone-except-narrow\00", align 1
@.str.12 = private unnamed_addr constant [10 x i8] c"zone-long\00", align 1
@.str.13 = private unnamed_addr constant [11 x i8] c"zone-short\00", align 1
@_ZN6icu_69L13dayPeriodKeysE = internal unnamed_addr constant [10 x i8*] [i8* getelementptr inbounds ([9 x i8], [9 x i8]* @.str.14, i32 0, i32 0), i8* getelementptr inbounds ([5 x i8], [5 x i8]* @.str.15, i32 0, i32 0), i8* getelementptr inbounds ([9 x i8], [9 x i8]* @.str.16, i32 0, i32 0), i8* getelementptr inbounds ([11 x i8], [11 x i8]* @.str.17, i32 0, i32 0), i8* getelementptr inbounds ([9 x i8], [9 x i8]* @.str.18, i32 0, i32 0), i8* getelementptr inbounds ([7 x i8], [7 x i8]* @.str.19, i32 0, i32 0), i8* getelementptr inbounds ([9 x i8], [9 x i8]* @.str.20, i32 0, i32 0), i8* getelementptr inbounds ([11 x i8], [11 x i8]* @.str.21, i32 0, i32 0), i8* getelementptr inbounds ([9 x i8], [9 x i8]* @.str.22, i32 0, i32 0), i8* getelementptr inbounds ([7 x i8], [7 x i8]* @.str.23, i32 0, i32 0)], align 16
@.str.14 = private unnamed_addr constant [9 x i8] c"midnight\00", align 1
@.str.15 = private unnamed_addr constant [5 x i8] c"noon\00", align 1
@.str.16 = private unnamed_addr constant [9 x i8] c"morning1\00", align 1
@.str.17 = private unnamed_addr constant [11 x i8] c"afternoon1\00", align 1
@.str.18 = private unnamed_addr constant [9 x i8] c"evening1\00", align 1
@.str.19 = private unnamed_addr constant [7 x i8] c"night1\00", align 1
@.str.20 = private unnamed_addr constant [9 x i8] c"morning2\00", align 1
@.str.21 = private unnamed_addr constant [11 x i8] c"afternoon2\00", align 1
@.str.22 = private unnamed_addr constant [9 x i8] c"evening2\00", align 1
@.str.23 = private unnamed_addr constant [7 x i8] c"night2\00", align 1
@_ZTVN6icu_6914LocaleCacheKeyINS_23SharedDateFormatSymbolsEEE = linkonce_odr hidden unnamed_addr constant { [10 x i8*] } { [10 x i8*] [i8* null, i8* bitcast ({ i8*, i8*, i8* }* @_ZTIN6icu_6914LocaleCacheKeyINS_23SharedDateFormatSymbolsEEE to i8*), i8* bitcast (void (%"class.icu_69::LocaleCacheKey"*)* @_ZN6icu_6914LocaleCacheKeyINS_23SharedDateFormatSymbolsEED2Ev to i8*), i8* bitcast (void (%"class.icu_69::LocaleCacheKey"*)* @_ZN6icu_6914LocaleCacheKeyINS_23SharedDateFormatSymbolsEED0Ev to i8*), i8* bitcast (i8* (%"class.icu_69::UObject"*)* @_ZNK6icu_697UObject17getDynamicClassIDEv to i8*), i8* bitcast (i32 (%"class.icu_69::LocaleCacheKey"*)* @_ZNK6icu_6914LocaleCacheKeyINS_23SharedDateFormatSymbolsEE8hashCodeEv to i8*), i8* bitcast (%"class.icu_69::CacheKeyBase"* (%"class.icu_69::LocaleCacheKey"*)* @_ZNK6icu_6914LocaleCacheKeyINS_23SharedDateFormatSymbolsEE5cloneEv to i8*), i8* bitcast (i8 (%"class.icu_69::LocaleCacheKey"*, %"class.icu_69::CacheKeyBase"*)* @_ZNK6icu_6914LocaleCacheKeyINS_23SharedDateFormatSymbolsEEeqERKNS_12CacheKeyBaseE to i8*), i8* bitcast (%"class.icu_69::SharedDateFormatSymbols"* (%"class.icu_69::LocaleCacheKey"*, i8*, i32*)* @_ZNK6icu_6914LocaleCacheKeyINS_23SharedDateFormatSymbolsEE12createObjectEPKvR10UErrorCode to i8*), i8* bitcast (i8* (%"class.icu_69::LocaleCacheKey"*, i8*, i32)* @_ZNK6icu_6914LocaleCacheKeyINS_23SharedDateFormatSymbolsEE16writeDescriptionEPci to i8*)] }, comdat, align 8
@_ZTSN6icu_6914LocaleCacheKeyINS_23SharedDateFormatSymbolsEEE = linkonce_odr hidden constant [57 x i8] c"N6icu_6914LocaleCacheKeyINS_23SharedDateFormatSymbolsEEE\00", comdat, align 1
@_ZTSN6icu_698CacheKeyINS_23SharedDateFormatSymbolsEEE = linkonce_odr hidden constant [50 x i8] c"N6icu_698CacheKeyINS_23SharedDateFormatSymbolsEEE\00", comdat, align 1
@_ZTIN6icu_6912CacheKeyBaseE = external constant i8*
@_ZTIN6icu_698CacheKeyINS_23SharedDateFormatSymbolsEEE = linkonce_odr hidden constant { i8*, i8*, i8* } { i8* bitcast (i8** getelementptr inbounds (i8*, i8** @_ZTVN10__cxxabiv120__si_class_type_infoE, i64 2) to i8*), i8* getelementptr inbounds ([50 x i8], [50 x i8]* @_ZTSN6icu_698CacheKeyINS_23SharedDateFormatSymbolsEEE, i32 0, i32 0), i8* bitcast (i8** @_ZTIN6icu_6912CacheKeyBaseE to i8*) }, comdat, align 8
@_ZTIN6icu_6914LocaleCacheKeyINS_23SharedDateFormatSymbolsEEE = linkonce_odr hidden constant { i8*, i8*, i8* } { i8* bitcast (i8** getelementptr inbounds (i8*, i8** @_ZTVN10__cxxabiv120__si_class_type_infoE, i64 2) to i8*), i8* getelementptr inbounds ([57 x i8], [57 x i8]* @_ZTSN6icu_6914LocaleCacheKeyINS_23SharedDateFormatSymbolsEEE, i32 0, i32 0), i8* bitcast ({ i8*, i8*, i8* }* @_ZTIN6icu_698CacheKeyINS_23SharedDateFormatSymbolsEEE to i8*) }, comdat, align 8
@_ZTVN6icu_6912CacheKeyBaseE = external unnamed_addr constant { [10 x i8*] }, align 8

@_ZN6icu_6915MaybeStackArrayIcLi40EEC1Ev = weak_odr hidden unnamed_addr alias void (%"class.icu_69::MaybeStackArray"*), void (%"class.icu_69::MaybeStackArray"*)* @_ZN6icu_6915MaybeStackArrayIcLi40EEC2Ev
@_ZN6icu_6915MaybeStackArrayIcLi40EEC1Ei10UErrorCode = weak_odr hidden unnamed_addr alias void (%"class.icu_69::MaybeStackArray"*, i32, i32), void (%"class.icu_69::MaybeStackArray"*, i32, i32)* @_ZN6icu_6915MaybeStackArrayIcLi40EEC2Ei10UErrorCode
@_ZN6icu_6915MaybeStackArrayIcLi40EED1Ev = weak_odr hidden unnamed_addr alias void (%"class.icu_69::MaybeStackArray"*), void (%"class.icu_69::MaybeStackArray"*)* @_ZN6icu_6915MaybeStackArrayIcLi40EED2Ev
@_ZN6icu_6915MaybeStackArrayIcLi40EEC1EOS1_ = weak_odr hidden unnamed_addr alias void (%"class.icu_69::MaybeStackArray"*, %"class.icu_69::MaybeStackArray"*), void (%"class.icu_69::MaybeStackArray"*, %"class.icu_69::MaybeStackArray"*)* @_ZN6icu_6915MaybeStackArrayIcLi40EEC2EOS1_
@_ZN6icu_6923SharedDateFormatSymbolsD1Ev = hidden unnamed_addr alias void (%"class.icu_69::SharedDateFormatSymbols"*), void (%"class.icu_69::SharedDateFormatSymbols"*)* @_ZN6icu_6923SharedDateFormatSymbolsD2Ev
@_ZN6icu_6917DateFormatSymbolsC1ERKNS_6LocaleER10UErrorCode = hidden unnamed_addr alias void (%"class.icu_69::DateFormatSymbols"*, %"class.icu_69::Locale"*, i32*), void (%"class.icu_69::DateFormatSymbols"*, %"class.icu_69::Locale"*, i32*)* @_ZN6icu_6917DateFormatSymbolsC2ERKNS_6LocaleER10UErrorCode
@_ZN6icu_6917DateFormatSymbolsC1ER10UErrorCode = hidden unnamed_addr alias void (%"class.icu_69::DateFormatSymbols"*, i32*), void (%"class.icu_69::DateFormatSymbols"*, i32*)* @_ZN6icu_6917DateFormatSymbolsC2ER10UErrorCode
@_ZN6icu_6917DateFormatSymbolsC1ERKNS_6LocaleEPKcR10UErrorCode = hidden unnamed_addr alias void (%"class.icu_69::DateFormatSymbols"*, %"class.icu_69::Locale"*, i8*, i32*), void (%"class.icu_69::DateFormatSymbols"*, %"class.icu_69::Locale"*, i8*, i32*)* @_ZN6icu_6917DateFormatSymbolsC2ERKNS_6LocaleEPKcR10UErrorCode
@_ZN6icu_6917DateFormatSymbolsC1EPKcR10UErrorCode = hidden unnamed_addr alias void (%"class.icu_69::DateFormatSymbols"*, i8*, i32*), void (%"class.icu_69::DateFormatSymbols"*, i8*, i32*)* @_ZN6icu_6917DateFormatSymbolsC2EPKcR10UErrorCode
@_ZN6icu_6917DateFormatSymbolsC1ERKS0_ = hidden unnamed_addr alias void (%"class.icu_69::DateFormatSymbols"*, %"class.icu_69::DateFormatSymbols"*), void (%"class.icu_69::DateFormatSymbols"*, %"class.icu_69::DateFormatSymbols"*)* @_ZN6icu_6917DateFormatSymbolsC2ERKS0_
@_ZN6icu_6917DateFormatSymbolsD1Ev = hidden unnamed_addr alias void (%"class.icu_69::DateFormatSymbols"*), void (%"class.icu_69::DateFormatSymbols"*)* @_ZN6icu_6917DateFormatSymbolsD2Ev

; Function Attrs: nounwind ssp uwtable
define weak_odr hidden void @_ZN6icu_6915MaybeStackArrayIcLi40EEC2Ev(%"class.icu_69::MaybeStackArray"*) unnamed_addr #0 comdat($_ZN6icu_6915MaybeStackArrayIcLi40EEC5Ev) align 2 {
  %2 = getelementptr inbounds %"class.icu_69::MaybeStackArray", %"class.icu_69::MaybeStackArray"* %0, i64 0, i32 0
  %3 = getelementptr inbounds %"class.icu_69::MaybeStackArray", %"class.icu_69::MaybeStackArray"* %0, i64 0, i32 3, i64 0
  store i8* %3, i8** %2, align 8
  %4 = getelementptr inbounds %"class.icu_69::MaybeStackArray", %"class.icu_69::MaybeStackArray"* %0, i64 0, i32 1
  store i32 40, i32* %4, align 8
  %5 = getelementptr inbounds %"class.icu_69::MaybeStackArray", %"class.icu_69::MaybeStackArray"* %0, i64 0, i32 2
  store i8 0, i8* %5, align 4
  ret void
}

; Function Attrs: nounwind ssp uwtable
define weak_odr hidden void @_ZN6icu_6915MaybeStackArrayIcLi40EEC2Ei10UErrorCode(%"class.icu_69::MaybeStackArray"*, i32, i32) unnamed_addr #0 comdat($_ZN6icu_6915MaybeStackArrayIcLi40EEC5Ei10UErrorCode) align 2 {
  %4 = getelementptr inbounds %"class.icu_69::MaybeStackArray", %"class.icu_69::MaybeStackArray"* %0, i64 0, i32 0
  %5 = getelementptr inbounds %"class.icu_69::MaybeStackArray", %"class.icu_69::MaybeStackArray"* %0, i64 0, i32 3, i64 0
  store i8* %5, i8** %4, align 8
  %6 = getelementptr inbounds %"class.icu_69::MaybeStackArray", %"class.icu_69::MaybeStackArray"* %0, i64 0, i32 1
  store i32 40, i32* %6, align 8
  %7 = getelementptr inbounds %"class.icu_69::MaybeStackArray", %"class.icu_69::MaybeStackArray"* %0, i64 0, i32 2
  store i8 0, i8* %7, align 4
  %8 = icmp slt i32 %2, 1
  %9 = icmp sgt i32 %1, 40
  %10 = and i1 %9, %8
  br i1 %10, label %11, label %21

11:                                               ; preds = %3
  %12 = sext i32 %1 to i64
  %13 = tail call noalias i8* @uprv_malloc_69(i64 %12) #12
  %14 = icmp eq i8* %13, null
  br i1 %14, label %21, label %15

15:                                               ; preds = %11
  %16 = load i8, i8* %7, align 4
  %17 = icmp eq i8 %16, 0
  br i1 %17, label %20, label %18

18:                                               ; preds = %15
  %19 = load i8*, i8** %4, align 8
  tail call void @uprv_free_69(i8* %19) #13
  br label %20

20:                                               ; preds = %18, %15
  store i8* %13, i8** %4, align 8
  store i32 %1, i32* %6, align 8
  store i8 1, i8* %7, align 4
  br label %21

21:                                               ; preds = %3, %11, %20
  ret void
}

; Function Attrs: inlinehint nounwind ssp uwtable
define weak_odr hidden i8* @_ZN6icu_6915MaybeStackArrayIcLi40EE6resizeEii(%"class.icu_69::MaybeStackArray"*, i32, i32) local_unnamed_addr #1 comdat align 2 {
  %4 = icmp sgt i32 %1, 0
  br i1 %4, label %5, label %31

5:                                                ; preds = %3
  %6 = sext i32 %1 to i64
  %7 = tail call noalias i8* @uprv_malloc_69(i64 %6) #12
  %8 = icmp eq i8* %7, null
  br i1 %8, label %31, label %9

9:                                                ; preds = %5
  %10 = icmp sgt i32 %2, 0
  br i1 %10, label %11, label %21

11:                                               ; preds = %9
  %12 = getelementptr inbounds %"class.icu_69::MaybeStackArray", %"class.icu_69::MaybeStackArray"* %0, i64 0, i32 1
  %13 = load i32, i32* %12, align 8
  %14 = icmp slt i32 %13, %2
  %15 = select i1 %14, i32 %13, i32 %2
  %16 = icmp sgt i32 %15, %1
  %17 = select i1 %16, i32 %1, i32 %15
  %18 = getelementptr inbounds %"class.icu_69::MaybeStackArray", %"class.icu_69::MaybeStackArray"* %0, i64 0, i32 0
  %19 = load i8*, i8** %18, align 8
  %20 = sext i32 %17 to i64
  tail call void @llvm.memcpy.p0i8.p0i8.i64(i8* nonnull align 1 %7, i8* align 1 %19, i64 %20, i1 false)
  br label %21

21:                                               ; preds = %11, %9
  %22 = getelementptr inbounds %"class.icu_69::MaybeStackArray", %"class.icu_69::MaybeStackArray"* %0, i64 0, i32 2
  %23 = load i8, i8* %22, align 4
  %24 = icmp eq i8 %23, 0
  br i1 %24, label %28, label %25

25:                                               ; preds = %21
  %26 = getelementptr inbounds %"class.icu_69::MaybeStackArray", %"class.icu_69::MaybeStackArray"* %0, i64 0, i32 0
  %27 = load i8*, i8** %26, align 8
  tail call void @uprv_free_69(i8* %27) #13
  br label %28

28:                                               ; preds = %21, %25
  %29 = getelementptr inbounds %"class.icu_69::MaybeStackArray", %"class.icu_69::MaybeStackArray"* %0, i64 0, i32 0
  store i8* %7, i8** %29, align 8
  %30 = getelementptr inbounds %"class.icu_69::MaybeStackArray", %"class.icu_69::MaybeStackArray"* %0, i64 0, i32 1
  store i32 %1, i32* %30, align 8
  store i8 1, i8* %22, align 4
  br label %31

31:                                               ; preds = %3, %28, %5
  %32 = phi i8* [ null, %5 ], [ %7, %28 ], [ null, %3 ]
  ret i8* %32
}

; Function Attrs: nounwind ssp uwtable
define weak_odr hidden void @_ZN6icu_6915MaybeStackArrayIcLi40EED2Ev(%"class.icu_69::MaybeStackArray"*) unnamed_addr #0 comdat($_ZN6icu_6915MaybeStackArrayIcLi40EED5Ev) align 2 {
  %2 = getelementptr inbounds %"class.icu_69::MaybeStackArray", %"class.icu_69::MaybeStackArray"* %0, i64 0, i32 2
  %3 = load i8, i8* %2, align 4
  %4 = icmp eq i8 %3, 0
  br i1 %4, label %8, label %5

5:                                                ; preds = %1
  %6 = getelementptr inbounds %"class.icu_69::MaybeStackArray", %"class.icu_69::MaybeStackArray"* %0, i64 0, i32 0
  %7 = load i8*, i8** %6, align 8
  tail call void @uprv_free_69(i8* %7) #13
  br label %8

8:                                                ; preds = %1, %5
  ret void
}

; Function Attrs: nounwind ssp uwtable
define weak_odr hidden void @_ZN6icu_6915MaybeStackArrayIcLi40EE12releaseArrayEv(%"class.icu_69::MaybeStackArray"*) local_unnamed_addr #0 comdat align 2 {
  %2 = getelementptr inbounds %"class.icu_69::MaybeStackArray", %"class.icu_69::MaybeStackArray"* %0, i64 0, i32 2
  %3 = load i8, i8* %2, align 4
  %4 = icmp eq i8 %3, 0
  br i1 %4, label %8, label %5

5:                                                ; preds = %1
  %6 = getelementptr inbounds %"class.icu_69::MaybeStackArray", %"class.icu_69::MaybeStackArray"* %0, i64 0, i32 0
  %7 = load i8*, i8** %6, align 8
  tail call void @uprv_free_69(i8* %7) #13
  br label %8

8:                                                ; preds = %1, %5
  ret void
}

; Function Attrs: nounwind ssp uwtable
define weak_odr hidden void @_ZN6icu_6915MaybeStackArrayIcLi40EEC2EOS1_(%"class.icu_69::MaybeStackArray"*, %"class.icu_69::MaybeStackArray"* dereferenceable(56)) unnamed_addr #0 comdat($_ZN6icu_6915MaybeStackArrayIcLi40EEC5EOS1_) align 2 {
  %3 = getelementptr inbounds %"class.icu_69::MaybeStackArray", %"class.icu_69::MaybeStackArray"* %1, i64 0, i32 0
  %4 = bitcast %"class.icu_69::MaybeStackArray"* %1 to i64*
  %5 = load i64, i64* %4, align 8
  %6 = bitcast %"class.icu_69::MaybeStackArray"* %0 to i64*
  store i64 %5, i64* %6, align 8
  %7 = getelementptr inbounds %"class.icu_69::MaybeStackArray", %"class.icu_69::MaybeStackArray"* %0, i64 0, i32 1
  %8 = getelementptr inbounds %"class.icu_69::MaybeStackArray", %"class.icu_69::MaybeStackArray"* %1, i64 0, i32 1
  %9 = load i32, i32* %8, align 8
  store i32 %9, i32* %7, align 8
  %10 = getelementptr inbounds %"class.icu_69::MaybeStackArray", %"class.icu_69::MaybeStackArray"* %0, i64 0, i32 2
  %11 = getelementptr inbounds %"class.icu_69::MaybeStackArray", %"class.icu_69::MaybeStackArray"* %1, i64 0, i32 2
  %12 = load i8, i8* %11, align 4
  store i8 %12, i8* %10, align 4
  %13 = load i8*, i8** %3, align 8
  %14 = getelementptr inbounds %"class.icu_69::MaybeStackArray", %"class.icu_69::MaybeStackArray"* %1, i64 0, i32 3, i64 0
  %15 = icmp eq i8* %13, %14
  br i1 %15, label %16, label %21

16:                                               ; preds = %2
  %17 = getelementptr inbounds %"class.icu_69::MaybeStackArray", %"class.icu_69::MaybeStackArray"* %0, i64 0, i32 0
  %18 = getelementptr inbounds %"class.icu_69::MaybeStackArray", %"class.icu_69::MaybeStackArray"* %0, i64 0, i32 3, i64 0
  store i8* %18, i8** %17, align 8
  %19 = load i32, i32* %8, align 8
  %20 = sext i32 %19 to i64
  tail call void @llvm.memcpy.p0i8.p0i8.i64(i8* align 1 %18, i8* align 1 %13, i64 %20, i1 false)
  br label %22

21:                                               ; preds = %2
  store i8* %14, i8** %3, align 8
  store i32 40, i32* %8, align 8
  store i8 0, i8* %11, align 4
  br label %22

22:                                               ; preds = %21, %16
  ret void
}

; Function Attrs: argmemonly nounwind
declare void @llvm.memcpy.p0i8.p0i8.i64(i8* nocapture writeonly, i8* nocapture readonly, i64, i1 immarg) #2

; Function Attrs: nounwind ssp uwtable
define weak_odr hidden void @_ZN6icu_6915MaybeStackArrayIcLi40EE17resetToStackArrayEv(%"class.icu_69::MaybeStackArray"*) local_unnamed_addr #0 comdat align 2 {
  %2 = getelementptr inbounds %"class.icu_69::MaybeStackArray", %"class.icu_69::MaybeStackArray"* %0, i64 0, i32 3, i64 0
  %3 = getelementptr inbounds %"class.icu_69::MaybeStackArray", %"class.icu_69::MaybeStackArray"* %0, i64 0, i32 0
  store i8* %2, i8** %3, align 8
  %4 = getelementptr inbounds %"class.icu_69::MaybeStackArray", %"class.icu_69::MaybeStackArray"* %0, i64 0, i32 1
  store i32 40, i32* %4, align 8
  %5 = getelementptr inbounds %"class.icu_69::MaybeStackArray", %"class.icu_69::MaybeStackArray"* %0, i64 0, i32 2
  store i8 0, i8* %5, align 4
  ret void
}

; Function Attrs: inlinehint nounwind ssp uwtable
define weak_odr hidden dereferenceable(56) %"class.icu_69::MaybeStackArray"* @_ZN6icu_6915MaybeStackArrayIcLi40EEaSEOS1_(%"class.icu_69::MaybeStackArray"*, %"class.icu_69::MaybeStackArray"* dereferenceable(56)) local_unnamed_addr #1 comdat align 2 {
  %3 = getelementptr inbounds %"class.icu_69::MaybeStackArray", %"class.icu_69::MaybeStackArray"* %0, i64 0, i32 2
  %4 = load i8, i8* %3, align 4
  %5 = icmp eq i8 %4, 0
  br i1 %5, label %9, label %6

6:                                                ; preds = %2
  %7 = getelementptr inbounds %"class.icu_69::MaybeStackArray", %"class.icu_69::MaybeStackArray"* %0, i64 0, i32 0
  %8 = load i8*, i8** %7, align 8
  tail call void @uprv_free_69(i8* %8) #13
  br label %9

9:                                                ; preds = %2, %6
  %10 = getelementptr inbounds %"class.icu_69::MaybeStackArray", %"class.icu_69::MaybeStackArray"* %1, i64 0, i32 1
  %11 = load i32, i32* %10, align 8
  %12 = getelementptr inbounds %"class.icu_69::MaybeStackArray", %"class.icu_69::MaybeStackArray"* %0, i64 0, i32 1
  store i32 %11, i32* %12, align 8
  %13 = getelementptr inbounds %"class.icu_69::MaybeStackArray", %"class.icu_69::MaybeStackArray"* %1, i64 0, i32 2
  %14 = load i8, i8* %13, align 4
  store i8 %14, i8* %3, align 4
  %15 = getelementptr inbounds %"class.icu_69::MaybeStackArray", %"class.icu_69::MaybeStackArray"* %1, i64 0, i32 0
  %16 = load i8*, i8** %15, align 8
  %17 = getelementptr inbounds %"class.icu_69::MaybeStackArray", %"class.icu_69::MaybeStackArray"* %1, i64 0, i32 3, i64 0
  %18 = icmp eq i8* %16, %17
  br i1 %18, label %19, label %24

19:                                               ; preds = %9
  %20 = getelementptr inbounds %"class.icu_69::MaybeStackArray", %"class.icu_69::MaybeStackArray"* %0, i64 0, i32 3, i64 0
  %21 = getelementptr inbounds %"class.icu_69::MaybeStackArray", %"class.icu_69::MaybeStackArray"* %0, i64 0, i32 0
  store i8* %20, i8** %21, align 8
  %22 = load i32, i32* %10, align 8
  %23 = sext i32 %22 to i64
  tail call void @llvm.memcpy.p0i8.p0i8.i64(i8* align 1 %20, i8* align 1 %16, i64 %23, i1 false)
  br label %26

24:                                               ; preds = %9
  %25 = getelementptr inbounds %"class.icu_69::MaybeStackArray", %"class.icu_69::MaybeStackArray"* %0, i64 0, i32 0
  store i8* %16, i8** %25, align 8
  store i8* %17, i8** %15, align 8
  store i32 40, i32* %10, align 8
  store i8 0, i8* %13, align 4
  br label %26

26:                                               ; preds = %24, %19
  ret %"class.icu_69::MaybeStackArray"* %0
}

; Function Attrs: nounwind ssp uwtable
define weak_odr hidden i32 @_ZNK6icu_6915MaybeStackArrayIcLi40EE11getCapacityEv(%"class.icu_69::MaybeStackArray"*) local_unnamed_addr #0 comdat align 2 {
  %2 = getelementptr inbounds %"class.icu_69::MaybeStackArray", %"class.icu_69::MaybeStackArray"* %0, i64 0, i32 1
  %3 = load i32, i32* %2, align 8
  ret i32 %3
}

; Function Attrs: nounwind ssp uwtable
define weak_odr hidden i8* @_ZNK6icu_6915MaybeStackArrayIcLi40EE8getAliasEv(%"class.icu_69::MaybeStackArray"*) local_unnamed_addr #0 comdat align 2 {
  %2 = getelementptr inbounds %"class.icu_69::MaybeStackArray", %"class.icu_69::MaybeStackArray"* %0, i64 0, i32 0
  %3 = load i8*, i8** %2, align 8
  ret i8* %3
}

; Function Attrs: nounwind ssp uwtable
define weak_odr hidden i8* @_ZNK6icu_6915MaybeStackArrayIcLi40EE13getArrayLimitEv(%"class.icu_69::MaybeStackArray"*) local_unnamed_addr #0 comdat align 2 {
  %2 = getelementptr inbounds %"class.icu_69::MaybeStackArray", %"class.icu_69::MaybeStackArray"* %0, i64 0, i32 0
  %3 = load i8*, i8** %2, align 8
  %4 = getelementptr inbounds %"class.icu_69::MaybeStackArray", %"class.icu_69::MaybeStackArray"* %0, i64 0, i32 1
  %5 = load i32, i32* %4, align 8
  %6 = sext i32 %5 to i64
  %7 = getelementptr inbounds i8, i8* %3, i64 %6
  ret i8* %7
}

; Function Attrs: nounwind ssp uwtable
define weak_odr hidden dereferenceable(1) i8* @_ZNK6icu_6915MaybeStackArrayIcLi40EEixEl(%"class.icu_69::MaybeStackArray"*, i64) local_unnamed_addr #0 comdat align 2 {
  %3 = getelementptr inbounds %"class.icu_69::MaybeStackArray", %"class.icu_69::MaybeStackArray"* %0, i64 0, i32 0
  %4 = load i8*, i8** %3, align 8
  %5 = getelementptr inbounds i8, i8* %4, i64 %1
  ret i8* %5
}

; Function Attrs: nounwind ssp uwtable
define weak_odr hidden dereferenceable(1) i8* @_ZN6icu_6915MaybeStackArrayIcLi40EEixEl(%"class.icu_69::MaybeStackArray"*, i64) local_unnamed_addr #0 comdat align 2 {
  %3 = getelementptr inbounds %"class.icu_69::MaybeStackArray", %"class.icu_69::MaybeStackArray"* %0, i64 0, i32 0
  %4 = load i8*, i8** %3, align 8
  %5 = getelementptr inbounds i8, i8* %4, i64 %1
  ret i8* %5
}

; Function Attrs: nounwind ssp uwtable
define weak_odr hidden void @_ZN6icu_6915MaybeStackArrayIcLi40EE12aliasInsteadEPci(%"class.icu_69::MaybeStackArray"*, i8*, i32) local_unnamed_addr #0 comdat align 2 {
  %4 = icmp ne i8* %1, null
  %5 = icmp sgt i32 %2, 0
  %6 = and i1 %4, %5
  br i1 %6, label %7, label %17

7:                                                ; preds = %3
  %8 = getelementptr inbounds %"class.icu_69::MaybeStackArray", %"class.icu_69::MaybeStackArray"* %0, i64 0, i32 2
  %9 = load i8, i8* %8, align 4
  %10 = icmp eq i8 %9, 0
  br i1 %10, label %14, label %11

11:                                               ; preds = %7
  %12 = getelementptr inbounds %"class.icu_69::MaybeStackArray", %"class.icu_69::MaybeStackArray"* %0, i64 0, i32 0
  %13 = load i8*, i8** %12, align 8
  tail call void @uprv_free_69(i8* %13) #13
  br label %14

14:                                               ; preds = %7, %11
  %15 = getelementptr inbounds %"class.icu_69::MaybeStackArray", %"class.icu_69::MaybeStackArray"* %0, i64 0, i32 0
  store i8* %1, i8** %15, align 8
  %16 = getelementptr inbounds %"class.icu_69::MaybeStackArray", %"class.icu_69::MaybeStackArray"* %0, i64 0, i32 1
  store i32 %2, i32* %16, align 8
  store i8 0, i8* %8, align 4
  br label %17

17:                                               ; preds = %14, %3
  ret void
}

; Function Attrs: argmemonly nounwind
declare void @llvm.lifetime.start.p0i8(i64 immarg, i8* nocapture) #2

; Function Attrs: allocsize(0)
declare noalias i8* @uprv_malloc_69(i64) local_unnamed_addr #3

; Function Attrs: argmemonly nounwind
declare void @llvm.lifetime.end.p0i8(i64 immarg, i8* nocapture) #2

; Function Attrs: inlinehint nounwind ssp uwtable
define weak_odr hidden i8* @_ZN6icu_6915MaybeStackArrayIcLi40EE13orphanOrCloneEiRi(%"class.icu_69::MaybeStackArray"*, i32, i32* dereferenceable(4)) local_unnamed_addr #1 comdat align 2 {
  %4 = getelementptr inbounds %"class.icu_69::MaybeStackArray", %"class.icu_69::MaybeStackArray"* %0, i64 0, i32 2
  %5 = load i8, i8* %4, align 4
  %6 = icmp eq i8 %5, 0
  br i1 %6, label %10, label %7

7:                                                ; preds = %3
  %8 = getelementptr inbounds %"class.icu_69::MaybeStackArray", %"class.icu_69::MaybeStackArray"* %0, i64 0, i32 0
  %9 = load i8*, i8** %8, align 8
  br label %23

10:                                               ; preds = %3
  %11 = icmp slt i32 %1, 1
  br i1 %11, label %29, label %12

12:                                               ; preds = %10
  %13 = getelementptr inbounds %"class.icu_69::MaybeStackArray", %"class.icu_69::MaybeStackArray"* %0, i64 0, i32 1
  %14 = load i32, i32* %13, align 8
  %15 = icmp slt i32 %14, %1
  %16 = select i1 %15, i32 %14, i32 %1
  %17 = sext i32 %16 to i64
  %18 = tail call noalias i8* @uprv_malloc_69(i64 %17) #12
  %19 = icmp eq i8* %18, null
  br i1 %19, label %29, label %20

20:                                               ; preds = %12
  %21 = getelementptr inbounds %"class.icu_69::MaybeStackArray", %"class.icu_69::MaybeStackArray"* %0, i64 0, i32 0
  %22 = load i8*, i8** %21, align 8
  tail call void @llvm.memcpy.p0i8.p0i8.i64(i8* nonnull align 1 %18, i8* align 1 %22, i64 %17, i1 false)
  br label %23

23:                                               ; preds = %20, %7
  %24 = phi i32 [ %1, %7 ], [ %16, %20 ]
  %25 = phi i8* [ %9, %7 ], [ %18, %20 ]
  store i32 %24, i32* %2, align 4
  %26 = getelementptr inbounds %"class.icu_69::MaybeStackArray", %"class.icu_69::MaybeStackArray"* %0, i64 0, i32 3, i64 0
  %27 = getelementptr inbounds %"class.icu_69::MaybeStackArray", %"class.icu_69::MaybeStackArray"* %0, i64 0, i32 0
  store i8* %26, i8** %27, align 8
  %28 = getelementptr inbounds %"class.icu_69::MaybeStackArray", %"class.icu_69::MaybeStackArray"* %0, i64 0, i32 1
  store i32 40, i32* %28, align 8
  store i8 0, i8* %4, align 4
  br label %29

29:                                               ; preds = %12, %10, %23
  %30 = phi i8* [ %25, %23 ], [ null, %10 ], [ null, %12 ]
  ret i8* %30
}

; Function Attrs: nounwind ssp uwtable
define weak_odr hidden void @_ZN6icu_6915MaybeStackArrayIcLi40EE8copyFromERKS1_R10UErrorCode(%"class.icu_69::MaybeStackArray"*, %"class.icu_69::MaybeStackArray"* dereferenceable(56), i32* dereferenceable(4)) local_unnamed_addr #0 comdat align 2 {
  %4 = load i32, i32* %2, align 4
  %5 = icmp slt i32 %4, 1
  br i1 %5, label %6, label %27

6:                                                ; preds = %3
  %7 = getelementptr inbounds %"class.icu_69::MaybeStackArray", %"class.icu_69::MaybeStackArray"* %1, i64 0, i32 1
  %8 = load i32, i32* %7, align 8
  %9 = icmp sgt i32 %8, 0
  br i1 %9, label %10, label %21

10:                                               ; preds = %6
  %11 = sext i32 %8 to i64
  %12 = tail call noalias i8* @uprv_malloc_69(i64 %11) #12
  %13 = icmp eq i8* %12, null
  br i1 %13, label %21, label %14

14:                                               ; preds = %10
  %15 = getelementptr inbounds %"class.icu_69::MaybeStackArray", %"class.icu_69::MaybeStackArray"* %0, i64 0, i32 2
  %16 = load i8, i8* %15, align 4
  %17 = icmp eq i8 %16, 0
  br i1 %17, label %22, label %18

18:                                               ; preds = %14
  %19 = getelementptr inbounds %"class.icu_69::MaybeStackArray", %"class.icu_69::MaybeStackArray"* %0, i64 0, i32 0
  %20 = load i8*, i8** %19, align 8
  tail call void @uprv_free_69(i8* %20) #13
  br label %22

21:                                               ; preds = %10, %6
  store i32 7, i32* %2, align 4
  br label %27

22:                                               ; preds = %18, %14
  %23 = getelementptr inbounds %"class.icu_69::MaybeStackArray", %"class.icu_69::MaybeStackArray"* %0, i64 0, i32 0
  store i8* %12, i8** %23, align 8
  %24 = getelementptr inbounds %"class.icu_69::MaybeStackArray", %"class.icu_69::MaybeStackArray"* %0, i64 0, i32 1
  store i32 %8, i32* %24, align 8
  store i8 1, i8* %15, align 4
  %25 = getelementptr inbounds %"class.icu_69::MaybeStackArray", %"class.icu_69::MaybeStackArray"* %1, i64 0, i32 0
  %26 = load i8*, i8** %25, align 8
  tail call void @llvm.memcpy.p0i8.p0i8.i64(i8* nonnull align 1 %12, i8* align 1 %26, i64 %11, i1 false)
  br label %27

27:                                               ; preds = %3, %21, %22
  ret void
}

declare void @uprv_free_69(i8*) local_unnamed_addr #4

; Function Attrs: nounwind ssp uwtable
define hidden void @_ZN6icu_6923SharedDateFormatSymbolsD2Ev(%"class.icu_69::SharedDateFormatSymbols"*) unnamed_addr #0 align 2 {
  %2 = getelementptr inbounds %"class.icu_69::SharedDateFormatSymbols", %"class.icu_69::SharedDateFormatSymbols"* %0, i64 0, i32 0, i32 0, i32 0
  store i32 (...)** bitcast (i8** getelementptr inbounds ({ [5 x i8*] }, { [5 x i8*] }* @_ZTVN6icu_6923SharedDateFormatSymbolsE, i64 0, inrange i32 0, i64 2) to i32 (...)**), i32 (...)*** %2, align 8
  %3 = getelementptr inbounds %"class.icu_69::SharedDateFormatSymbols", %"class.icu_69::SharedDateFormatSymbols"* %0, i64 0, i32 1
  %4 = getelementptr inbounds %"class.icu_69::DateFormatSymbols", %"class.icu_69::DateFormatSymbols"* %3, i64 0, i32 0, i32 0
  store i32 (...)** bitcast (i8** getelementptr inbounds ({ [5 x i8*] }, { [5 x i8*] }* @_ZTVN6icu_6917DateFormatSymbolsE, i64 0, inrange i32 0, i64 2) to i32 (...)**), i32 (...)*** %4, align 8
  tail call void @_ZN6icu_6917DateFormatSymbols7disposeEv(%"class.icu_69::DateFormatSymbols"* %3) #13
  %5 = getelementptr inbounds %"class.icu_69::SharedDateFormatSymbols", %"class.icu_69::SharedDateFormatSymbols"* %0, i64 0, i32 1, i32 85
  tail call void @_ZN6icu_6913UnicodeStringD1Ev(%"class.icu_69::UnicodeString"* %5) #13
  %6 = getelementptr inbounds %"class.icu_69::SharedDateFormatSymbols", %"class.icu_69::SharedDateFormatSymbols"* %0, i64 0, i32 1, i32 84
  tail call void @_ZN6icu_696LocaleD1Ev(%"class.icu_69::Locale"* %6) #13
  %7 = getelementptr inbounds %"class.icu_69::SharedDateFormatSymbols", %"class.icu_69::SharedDateFormatSymbols"* %0, i64 0, i32 1, i32 58
  tail call void @_ZN6icu_6913UnicodeStringD1Ev(%"class.icu_69::UnicodeString"* %7) #13
  %8 = getelementptr inbounds %"class.icu_69::DateFormatSymbols", %"class.icu_69::DateFormatSymbols"* %3, i64 0, i32 0
  tail call void @_ZN6icu_697UObjectD2Ev(%"class.icu_69::UObject"* %8) #13
  %9 = getelementptr inbounds %"class.icu_69::SharedDateFormatSymbols", %"class.icu_69::SharedDateFormatSymbols"* %0, i64 0, i32 0
  tail call void @_ZN6icu_6912SharedObjectD2Ev(%"class.icu_69::SharedObject"* %9) #13
  ret void
}

; Function Attrs: nounwind
declare void @_ZN6icu_6912SharedObjectD2Ev(%"class.icu_69::SharedObject"*) unnamed_addr #5

; Function Attrs: nounwind ssp uwtable
define hidden void @_ZN6icu_6923SharedDateFormatSymbolsD0Ev(%"class.icu_69::SharedDateFormatSymbols"*) unnamed_addr #0 align 2 {
  %2 = getelementptr inbounds %"class.icu_69::SharedDateFormatSymbols", %"class.icu_69::SharedDateFormatSymbols"* %0, i64 0, i32 0, i32 0, i32 0
  store i32 (...)** bitcast (i8** getelementptr inbounds ({ [5 x i8*] }, { [5 x i8*] }* @_ZTVN6icu_6923SharedDateFormatSymbolsE, i64 0, inrange i32 0, i64 2) to i32 (...)**), i32 (...)*** %2, align 8
  %3 = getelementptr inbounds %"class.icu_69::SharedDateFormatSymbols", %"class.icu_69::SharedDateFormatSymbols"* %0, i64 0, i32 1
  %4 = getelementptr inbounds %"class.icu_69::DateFormatSymbols", %"class.icu_69::DateFormatSymbols"* %3, i64 0, i32 0, i32 0
  store i32 (...)** bitcast (i8** getelementptr inbounds ({ [5 x i8*] }, { [5 x i8*] }* @_ZTVN6icu_6917DateFormatSymbolsE, i64 0, inrange i32 0, i64 2) to i32 (...)**), i32 (...)*** %4, align 8
  tail call void @_ZN6icu_6917DateFormatSymbols7disposeEv(%"class.icu_69::DateFormatSymbols"* %3) #13
  %5 = getelementptr inbounds %"class.icu_69::SharedDateFormatSymbols", %"class.icu_69::SharedDateFormatSymbols"* %0, i64 0, i32 1, i32 85
  tail call void @_ZN6icu_6913UnicodeStringD1Ev(%"class.icu_69::UnicodeString"* %5) #13
  %6 = getelementptr inbounds %"class.icu_69::SharedDateFormatSymbols", %"class.icu_69::SharedDateFormatSymbols"* %0, i64 0, i32 1, i32 84
  tail call void @_ZN6icu_696LocaleD1Ev(%"class.icu_69::Locale"* %6) #13
  %7 = getelementptr inbounds %"class.icu_69::SharedDateFormatSymbols", %"class.icu_69::SharedDateFormatSymbols"* %0, i64 0, i32 1, i32 58
  tail call void @_ZN6icu_6913UnicodeStringD1Ev(%"class.icu_69::UnicodeString"* %7) #13
  %8 = getelementptr inbounds %"class.icu_69::DateFormatSymbols", %"class.icu_69::DateFormatSymbols"* %3, i64 0, i32 0
  tail call void @_ZN6icu_697UObjectD2Ev(%"class.icu_69::UObject"* %8) #13
  %9 = getelementptr inbounds %"class.icu_69::SharedDateFormatSymbols", %"class.icu_69::SharedDateFormatSymbols"* %0, i64 0, i32 0
  tail call void @_ZN6icu_6912SharedObjectD2Ev(%"class.icu_69::SharedObject"* %9) #13
  %10 = bitcast %"class.icu_69::SharedDateFormatSymbols"* %0 to i8*
  tail call void @_ZN6icu_697UMemorydlEPv(i8* %10) #13
  ret void
}

; Function Attrs: nounwind
declare void @_ZN6icu_697UMemorydlEPv(i8*) local_unnamed_addr #5

; Function Attrs: nounwind ssp uwtable
define hidden %"class.icu_69::SharedDateFormatSymbols"* @_ZNK6icu_6914LocaleCacheKeyINS_23SharedDateFormatSymbolsEE12createObjectEPKvR10UErrorCode(%"class.icu_69::LocaleCacheKey"*, i8* nocapture readnone, i32* dereferenceable(4)) unnamed_addr #0 align 2 {
  %4 = alloca [256 x i8], align 16
  %5 = getelementptr inbounds [256 x i8], [256 x i8]* %4, i64 0, i64 0
  call void @llvm.lifetime.start.p0i8(i64 256, i8* nonnull %5) #13
  call void @llvm.memset.p0i8.i64(i8* nonnull align 16 %5, i8 -86, i64 256, i1 false)
  %6 = getelementptr inbounds %"class.icu_69::LocaleCacheKey", %"class.icu_69::LocaleCacheKey"* %0, i64 0, i32 2
  call void @_ZN6icu_698Calendar25getCalendarTypeFromLocaleERKNS_6LocaleEPciR10UErrorCode(%"class.icu_69::Locale"* dereferenceable(224) %6, i8* nonnull %5, i32 256, i32* dereferenceable(4) %2) #13
  %7 = load i32, i32* %2, align 4
  %8 = icmp slt i32 %7, 1
  br i1 %8, label %9, label %39

9:                                                ; preds = %3
  %10 = call i8* @_ZN6icu_697UMemorynwEm(i64 1264) #13
  %11 = icmp eq i8* %10, null
  br i1 %11, label %31, label %12

12:                                               ; preds = %9
  %13 = bitcast i8* %10 to %"class.icu_69::SharedDateFormatSymbols"*
  %14 = bitcast i8* %10 to i32 (...)***
  %15 = getelementptr inbounds i8, i8* %10, i64 8
  call void @llvm.memset.p0i8.i64(i8* align 8 %15, i8 0, i64 16, i1 false) #13
  store i32 (...)** bitcast (i8** getelementptr inbounds ({ [5 x i8*] }, { [5 x i8*] }* @_ZTVN6icu_6923SharedDateFormatSymbolsE, i64 0, inrange i32 0, i64 2) to i32 (...)**), i32 (...)*** %14, align 8
  %16 = getelementptr inbounds i8, i8* %10, i64 24
  %17 = bitcast i8* %16 to %"class.icu_69::DateFormatSymbols"*
  %18 = bitcast i8* %16 to i32 (...)***
  store i32 (...)** bitcast (i8** getelementptr inbounds ({ [5 x i8*] }, { [5 x i8*] }* @_ZTVN6icu_6917DateFormatSymbolsE, i64 0, inrange i32 0, i64 2) to i32 (...)**), i32 (...)*** %18, align 8
  %19 = getelementptr inbounds i8, i8* %10, i64 336
  %20 = bitcast i8* %19 to i32 (...)***
  store i32 (...)** bitcast (i8** getelementptr inbounds ({ [13 x i8*] }, { [13 x i8*] }* @_ZTVN6icu_6913UnicodeStringE, i64 0, inrange i32 0, i64 2) to i32 (...)**), i32 (...)*** %20, align 8
  %21 = getelementptr inbounds i8, i8* %10, i64 344
  %22 = bitcast i8* %21 to i16*
  store i16 2, i16* %22, align 8
  %23 = getelementptr inbounds i8, i8* %10, i64 536
  %24 = bitcast i8* %23 to %"class.icu_69::Locale"*
  call void @_ZN6icu_696LocaleC1Ev(%"class.icu_69::Locale"* %24) #13
  %25 = getelementptr inbounds i8, i8* %10, i64 760
  %26 = bitcast i8* %25 to i32 (...)***
  store i32 (...)** bitcast (i8** getelementptr inbounds ({ [13 x i8*] }, { [13 x i8*] }* @_ZTVN6icu_6913UnicodeStringE, i64 0, inrange i32 0, i64 2) to i32 (...)**), i32 (...)*** %26, align 8
  %27 = getelementptr inbounds i8, i8* %10, i64 768
  %28 = bitcast i8* %27 to i16*
  store i16 2, i16* %28, align 8
  call void @_ZN6icu_6917DateFormatSymbols14initializeDataERKNS_6LocaleEPKcR10UErrorCodea(%"class.icu_69::DateFormatSymbols"* %17, %"class.icu_69::Locale"* dereferenceable(224) %6, i8* nonnull %5, i32* dereferenceable(4) %2, i8 signext 0) #13
  %29 = load i32, i32* %2, align 4
  %30 = icmp slt i32 %29, 1
  br i1 %30, label %37, label %32

31:                                               ; preds = %9
  store i32 7, i32* %2, align 4
  br label %39

32:                                               ; preds = %12
  %33 = bitcast i8* %10 to void (%"class.icu_69::SharedDateFormatSymbols"*)***
  %34 = load void (%"class.icu_69::SharedDateFormatSymbols"*)**, void (%"class.icu_69::SharedDateFormatSymbols"*)*** %33, align 8
  %35 = getelementptr inbounds void (%"class.icu_69::SharedDateFormatSymbols"*)*, void (%"class.icu_69::SharedDateFormatSymbols"*)** %34, i64 1
  %36 = load void (%"class.icu_69::SharedDateFormatSymbols"*)*, void (%"class.icu_69::SharedDateFormatSymbols"*)** %35, align 8
  call void %36(%"class.icu_69::SharedDateFormatSymbols"* nonnull %13) #13
  br label %39

37:                                               ; preds = %12
  %38 = bitcast i8* %10 to %"class.icu_69::SharedObject"*
  call void @_ZNK6icu_6912SharedObject6addRefEv(%"class.icu_69::SharedObject"* nonnull %38) #13
  br label %39

39:                                               ; preds = %31, %32, %37, %3
  %40 = phi %"class.icu_69::SharedDateFormatSymbols"* [ null, %3 ], [ null, %31 ], [ null, %32 ], [ %13, %37 ]
  call void @llvm.lifetime.end.p0i8(i64 256, i8* nonnull %5) #13
  ret %"class.icu_69::SharedDateFormatSymbols"* %40
}

; Function Attrs: argmemonly nounwind
declare void @llvm.memset.p0i8.i64(i8* nocapture writeonly, i8, i64, i1 immarg) #2

declare void @_ZN6icu_698Calendar25getCalendarTypeFromLocaleERKNS_6LocaleEPciR10UErrorCode(%"class.icu_69::Locale"* dereferenceable(224), i8*, i32, i32* dereferenceable(4)) local_unnamed_addr #4

; Function Attrs: nounwind
declare i8* @_ZN6icu_697UMemorynwEm(i64) local_unnamed_addr #5

declare void @_ZNK6icu_6912SharedObject6addRefEv(%"class.icu_69::SharedObject"*) local_unnamed_addr #4

; Function Attrs: norecurse nounwind readnone ssp uwtable
define hidden nonnull i8* @_ZN6icu_6917DateFormatSymbols16getStaticClassIDEv() local_unnamed_addr #6 align 2 {
  ret i8* @_ZZN6icu_6917DateFormatSymbols16getStaticClassIDEvE7classID
}

; Function Attrs: norecurse nounwind readnone ssp uwtable
define hidden nonnull i8* @_ZNK6icu_6917DateFormatSymbols17getDynamicClassIDEv(%"class.icu_69::DateFormatSymbols"* nocapture readnone) unnamed_addr #6 align 2 {
  ret i8* @_ZZN6icu_6917DateFormatSymbols16getStaticClassIDEvE7classID
}

; Function Attrs: nounwind ssp uwtable
define hidden %"class.icu_69::DateFormatSymbols"* @_ZN6icu_6917DateFormatSymbols15createForLocaleERKNS_6LocaleER10UErrorCode(%"class.icu_69::Locale"* dereferenceable(224), i32* dereferenceable(4)) local_unnamed_addr #0 align 2 {
  %3 = alloca %"class.icu_69::LocaleCacheKey", align 8
  %4 = alloca %"class.icu_69::SharedDateFormatSymbols"*, align 8
  %5 = bitcast %"class.icu_69::SharedDateFormatSymbols"** %4 to i8*
  call void @llvm.lifetime.start.p0i8(i64 8, i8* nonnull %5) #13
  store %"class.icu_69::SharedDateFormatSymbols"* null, %"class.icu_69::SharedDateFormatSymbols"** %4, align 8
  %6 = tail call %"class.icu_69::UnifiedCache"* @_ZN6icu_6912UnifiedCache11getInstanceER10UErrorCode(i32* dereferenceable(4) %1) #13
  %7 = load i32, i32* %1, align 4
  %8 = icmp slt i32 %7, 1
  br i1 %8, label %9, label %42

9:                                                ; preds = %2
  %10 = bitcast %"class.icu_69::LocaleCacheKey"* %3 to i8*
  call void @llvm.lifetime.start.p0i8(i64 240, i8* nonnull %10) #13
  %11 = getelementptr inbounds %"class.icu_69::LocaleCacheKey", %"class.icu_69::LocaleCacheKey"* %3, i64 0, i32 0, i32 0, i32 1
  store i32 0, i32* %11, align 8
  %12 = getelementptr inbounds %"class.icu_69::LocaleCacheKey", %"class.icu_69::LocaleCacheKey"* %3, i64 0, i32 0, i32 0, i32 2
  store i8 0, i8* %12, align 4
  %13 = getelementptr inbounds %"class.icu_69::LocaleCacheKey", %"class.icu_69::LocaleCacheKey"* %3, i64 0, i32 0, i32 0, i32 0, i32 0
  store i32 (...)** bitcast (i8** getelementptr inbounds ({ [10 x i8*] }, { [10 x i8*] }* @_ZTVN6icu_6914LocaleCacheKeyINS_23SharedDateFormatSymbolsEEE, i64 0, inrange i32 0, i64 2) to i32 (...)**), i32 (...)*** %13, align 8
  %14 = getelementptr inbounds %"class.icu_69::LocaleCacheKey", %"class.icu_69::LocaleCacheKey"* %3, i64 0, i32 2
  call void @_ZN6icu_696LocaleC1ERKS0_(%"class.icu_69::Locale"* %14, %"class.icu_69::Locale"* dereferenceable(224) %0) #13
  %15 = bitcast %"class.icu_69::LocaleCacheKey"* %3 to %"class.icu_69::CacheKey"*
  call void @_ZNK6icu_6912UnifiedCache3getINS_23SharedDateFormatSymbolsEEEvRKNS_8CacheKeyIT_EEPKvRPKS4_R10UErrorCode(%"class.icu_69::UnifiedCache"* %6, %"class.icu_69::CacheKey"* nonnull dereferenceable(16) %15, i8* null, %"class.icu_69::SharedDateFormatSymbols"** nonnull dereferenceable(8) %4, i32* dereferenceable(4) %1) #13
  store i32 (...)** bitcast (i8** getelementptr inbounds ({ [10 x i8*] }, { [10 x i8*] }* @_ZTVN6icu_6914LocaleCacheKeyINS_23SharedDateFormatSymbolsEEE, i64 0, inrange i32 0, i64 2) to i32 (...)**), i32 (...)*** %13, align 8
  call void @_ZN6icu_696LocaleD1Ev(%"class.icu_69::Locale"* %14) #13
  %16 = bitcast %"class.icu_69::LocaleCacheKey"* %3 to %"class.icu_69::CacheKeyBase"*
  call void @_ZN6icu_6912CacheKeyBaseD2Ev(%"class.icu_69::CacheKeyBase"* nonnull %16) #13
  call void @llvm.lifetime.end.p0i8(i64 240, i8* nonnull %10) #13
  %17 = load i32, i32* %1, align 4
  %18 = icmp slt i32 %17, 1
  br i1 %18, label %19, label %42

19:                                               ; preds = %9
  %20 = call i8* @_ZN6icu_697UMemorynwEm(i64 1240) #13
  %21 = icmp eq i8* %20, null
  br i1 %21, label %22, label %25

22:                                               ; preds = %19
  %23 = bitcast %"class.icu_69::SharedDateFormatSymbols"** %4 to %"class.icu_69::SharedObject"**
  %24 = load %"class.icu_69::SharedObject"*, %"class.icu_69::SharedObject"** %23, align 8
  call void @_ZNK6icu_6912SharedObject9removeRefEv(%"class.icu_69::SharedObject"* %24) #13
  store i32 7, i32* %1, align 4
  br label %42

25:                                               ; preds = %19
  %26 = bitcast i8* %20 to %"class.icu_69::DateFormatSymbols"*
  %27 = load %"class.icu_69::SharedDateFormatSymbols"*, %"class.icu_69::SharedDateFormatSymbols"** %4, align 8
  %28 = getelementptr inbounds %"class.icu_69::SharedDateFormatSymbols", %"class.icu_69::SharedDateFormatSymbols"* %27, i64 0, i32 1
  %29 = bitcast i8* %20 to i32 (...)***
  store i32 (...)** bitcast (i8** getelementptr inbounds ({ [5 x i8*] }, { [5 x i8*] }* @_ZTVN6icu_6917DateFormatSymbolsE, i64 0, inrange i32 0, i64 2) to i32 (...)**), i32 (...)*** %29, align 8
  %30 = getelementptr inbounds i8, i8* %20, i64 312
  %31 = bitcast i8* %30 to i32 (...)***
  store i32 (...)** bitcast (i8** getelementptr inbounds ({ [13 x i8*] }, { [13 x i8*] }* @_ZTVN6icu_6913UnicodeStringE, i64 0, inrange i32 0, i64 2) to i32 (...)**), i32 (...)*** %31, align 8
  %32 = getelementptr inbounds i8, i8* %20, i64 320
  %33 = bitcast i8* %32 to i16*
  store i16 2, i16* %33, align 8
  %34 = getelementptr inbounds i8, i8* %20, i64 512
  %35 = bitcast i8* %34 to %"class.icu_69::Locale"*
  call void @_ZN6icu_696LocaleC1Ev(%"class.icu_69::Locale"* %35) #13
  %36 = getelementptr inbounds i8, i8* %20, i64 736
  %37 = bitcast i8* %36 to i32 (...)***
  store i32 (...)** bitcast (i8** getelementptr inbounds ({ [13 x i8*] }, { [13 x i8*] }* @_ZTVN6icu_6913UnicodeStringE, i64 0, inrange i32 0, i64 2) to i32 (...)**), i32 (...)*** %37, align 8
  %38 = getelementptr inbounds i8, i8* %20, i64 744
  %39 = bitcast i8* %38 to i16*
  store i16 2, i16* %39, align 8
  call void @_ZN6icu_6917DateFormatSymbols8copyDataERKS0_(%"class.icu_69::DateFormatSymbols"* nonnull %26, %"class.icu_69::DateFormatSymbols"* dereferenceable(1240) %28) #13
  %40 = bitcast %"class.icu_69::SharedDateFormatSymbols"** %4 to %"class.icu_69::SharedObject"**
  %41 = load %"class.icu_69::SharedObject"*, %"class.icu_69::SharedObject"** %40, align 8
  call void @_ZNK6icu_6912SharedObject9removeRefEv(%"class.icu_69::SharedObject"* %41) #13
  br label %42

42:                                               ; preds = %2, %25, %22, %9
  %43 = phi %"class.icu_69::DateFormatSymbols"* [ null, %9 ], [ null, %22 ], [ %26, %25 ], [ null, %2 ]
  call void @llvm.lifetime.end.p0i8(i64 8, i8* nonnull %5) #13
  ret %"class.icu_69::DateFormatSymbols"* %43
}

declare void @_ZNK6icu_6912SharedObject9removeRefEv(%"class.icu_69::SharedObject"*) local_unnamed_addr #4

; Function Attrs: nounwind ssp uwtable
define hidden void @_ZN6icu_6917DateFormatSymbolsC2ERKNS_6LocaleER10UErrorCode(%"class.icu_69::DateFormatSymbols"*, %"class.icu_69::Locale"* dereferenceable(224), i32* dereferenceable(4)) unnamed_addr #0 align 2 {
  %4 = getelementptr inbounds %"class.icu_69::DateFormatSymbols", %"class.icu_69::DateFormatSymbols"* %0, i64 0, i32 0, i32 0
  store i32 (...)** bitcast (i8** getelementptr inbounds ({ [5 x i8*] }, { [5 x i8*] }* @_ZTVN6icu_6917DateFormatSymbolsE, i64 0, inrange i32 0, i64 2) to i32 (...)**), i32 (...)*** %4, align 8
  %5 = getelementptr inbounds %"class.icu_69::DateFormatSymbols", %"class.icu_69::DateFormatSymbols"* %0, i64 0, i32 58, i32 0, i32 0, i32 0
  store i32 (...)** bitcast (i8** getelementptr inbounds ({ [13 x i8*] }, { [13 x i8*] }* @_ZTVN6icu_6913UnicodeStringE, i64 0, inrange i32 0, i64 2) to i32 (...)**), i32 (...)*** %5, align 8
  %6 = getelementptr inbounds %"class.icu_69::DateFormatSymbols", %"class.icu_69::DateFormatSymbols"* %0, i64 0, i32 58, i32 1, i32 0, i32 0
  store i16 2, i16* %6, align 8
  %7 = getelementptr inbounds %"class.icu_69::DateFormatSymbols", %"class.icu_69::DateFormatSymbols"* %0, i64 0, i32 84
  tail call void @_ZN6icu_696LocaleC1Ev(%"class.icu_69::Locale"* %7) #13
  %8 = getelementptr inbounds %"class.icu_69::DateFormatSymbols", %"class.icu_69::DateFormatSymbols"* %0, i64 0, i32 85, i32 0, i32 0, i32 0
  store i32 (...)** bitcast (i8** getelementptr inbounds ({ [13 x i8*] }, { [13 x i8*] }* @_ZTVN6icu_6913UnicodeStringE, i64 0, inrange i32 0, i64 2) to i32 (...)**), i32 (...)*** %8, align 8
  %9 = getelementptr inbounds %"class.icu_69::DateFormatSymbols", %"class.icu_69::DateFormatSymbols"* %0, i64 0, i32 85, i32 1, i32 0, i32 0
  store i16 2, i16* %9, align 8
  tail call void @_ZN6icu_6917DateFormatSymbols14initializeDataERKNS_6LocaleEPKcR10UErrorCodea(%"class.icu_69::DateFormatSymbols"* %0, %"class.icu_69::Locale"* dereferenceable(224) %1, i8* null, i32* dereferenceable(4) %2, i8 signext 0)
  ret void
}

declare void @_ZN6icu_696LocaleC1Ev(%"class.icu_69::Locale"*) unnamed_addr #4

; Function Attrs: nounwind ssp uwtable
define hidden void @_ZN6icu_6917DateFormatSymbols14initializeDataERKNS_6LocaleEPKcR10UErrorCodea(%"class.icu_69::DateFormatSymbols"*, %"class.icu_69::Locale"* dereferenceable(224), i8*, i32* dereferenceable(4), i8 signext) local_unnamed_addr #0 align 2 {
  %6 = alloca %"class.icu_69::ConstChar16Ptr", align 8
  %7 = alloca %"class.icu_69::ConstChar16Ptr", align 8
  %8 = alloca %"class.icu_69::ConstChar16Ptr", align 8
  %9 = alloca %"class.icu_69::ConstChar16Ptr", align 8
  %10 = alloca %"class.icu_69::ConstChar16Ptr", align 8
  %11 = alloca %"class.icu_69::ConstChar16Ptr", align 8
  %12 = alloca %"class.icu_69::ConstChar16Ptr", align 8
  %13 = alloca %"class.icu_69::ConstChar16Ptr", align 8
  %14 = alloca %"class.icu_69::ConstChar16Ptr", align 8
  %15 = alloca %"class.icu_69::ConstChar16Ptr", align 8
  %16 = alloca %"class.icu_69::ConstChar16Ptr", align 8
  %17 = alloca %"class.icu_69::ConstChar16Ptr", align 8
  %18 = alloca %"class.icu_69::ConstChar16Ptr", align 8
  %19 = alloca %"class.icu_69::ConstChar16Ptr", align 8
  %20 = alloca %"class.icu_69::ConstChar16Ptr", align 8
  %21 = alloca %"class.icu_69::ConstChar16Ptr", align 8
  %22 = alloca %"class.icu_69::ConstChar16Ptr", align 8
  %23 = alloca %"class.icu_69::ConstChar16Ptr", align 8
  %24 = alloca %"class.icu_69::ConstChar16Ptr", align 8
  %25 = alloca %"class.icu_69::ConstChar16Ptr", align 8
  %26 = alloca %"class.icu_69::ConstChar16Ptr", align 8
  %27 = alloca %"class.icu_69::ConstChar16Ptr", align 8
  %28 = alloca %"class.icu_69::ConstChar16Ptr", align 8
  %29 = alloca %"class.icu_69::UnicodeString", align 8
  %30 = alloca %"class.icu_69::UnicodeString", align 8
  %31 = alloca %"class.icu_69::UnicodeString", align 8
  %32 = alloca %"class.icu_69::UnicodeString", align 8
  %33 = alloca %"class.icu_69::UnicodeString", align 8
  %34 = alloca %"class.icu_69::UnicodeString", align 8
  %35 = alloca %"class.icu_69::UnicodeString", align 8
  %36 = alloca %"class.icu_69::UnicodeString", align 8
  %37 = alloca %"class.icu_69::UnicodeString", align 8
  %38 = alloca %"class.icu_69::UnicodeString", align 8
  %39 = alloca %"class.icu_69::UnicodeString", align 8
  %40 = alloca %"class.icu_69::UnicodeString", align 8
  %41 = alloca %"class.icu_69::UnicodeString", align 8
  %42 = alloca %"class.icu_69::UnicodeString", align 8
  %43 = alloca %"class.icu_69::UnicodeString", align 8
  %44 = alloca %"class.icu_69::UnicodeString", align 8
  %45 = alloca %"class.icu_69::UnicodeString", align 8
  %46 = alloca i16, align 2
  %47 = alloca i32, align 4
  %48 = alloca %"class.icu_69::ConstChar16Ptr", align 8
  %49 = alloca %"class.icu_69::UnicodeString", align 8
  %50 = alloca %"class.icu_69::UnicodeString", align 8
  %51 = alloca i32, align 4
  %52 = alloca %"struct.icu_69::(anonymous namespace)::CalendarDataSink", align 8
  %53 = alloca %"class.icu_69::UnicodeString", align 8
  %54 = alloca %"class.icu_69::CharString", align 8
  %55 = alloca %"class.icu_69::ConstChar16Ptr", align 8
  %56 = alloca %"class.icu_69::ConstChar16Ptr", align 8
  %57 = alloca %"class.icu_69::CharString", align 8
  %58 = alloca i32, align 4
  %59 = alloca %"class.icu_69::UnicodeString", align 8
  %60 = alloca %"class.icu_69::LocaleBased", align 8
  %61 = alloca i32, align 4
  %62 = alloca i32, align 4
  %63 = alloca %"class.icu_69::ConstChar16Ptr", align 8
  %64 = alloca i32, align 4
  %65 = alloca i32, align 4
  %66 = alloca %"class.icu_69::ConstChar16Ptr", align 8
  %67 = bitcast i32* %51 to i8*
  call void @llvm.lifetime.start.p0i8(i64 4, i8* nonnull %67) #13
  store i32 0, i32* %51, align 4
  %68 = getelementptr inbounds %"class.icu_69::DateFormatSymbols", %"class.icu_69::DateFormatSymbols"* %0, i64 0, i32 1
  store %"class.icu_69::UnicodeString"* null, %"class.icu_69::UnicodeString"** %68, align 8
  %69 = getelementptr inbounds %"class.icu_69::DateFormatSymbols", %"class.icu_69::DateFormatSymbols"* %0, i64 0, i32 2
  store i32 0, i32* %69, align 8
  %70 = getelementptr inbounds %"class.icu_69::DateFormatSymbols", %"class.icu_69::DateFormatSymbols"* %0, i64 0, i32 4
  store %"class.icu_69::UnicodeString"* null, %"class.icu_69::UnicodeString"** %70, align 8
  %71 = getelementptr inbounds %"class.icu_69::DateFormatSymbols", %"class.icu_69::DateFormatSymbols"* %0, i64 0, i32 5
  store i32 0, i32* %71, align 8
  %72 = getelementptr inbounds %"class.icu_69::DateFormatSymbols", %"class.icu_69::DateFormatSymbols"* %0, i64 0, i32 7
  store %"class.icu_69::UnicodeString"* null, %"class.icu_69::UnicodeString"** %72, align 8
  %73 = getelementptr inbounds %"class.icu_69::DateFormatSymbols", %"class.icu_69::DateFormatSymbols"* %0, i64 0, i32 8
  store i32 0, i32* %73, align 8
  %74 = getelementptr inbounds %"class.icu_69::DateFormatSymbols", %"class.icu_69::DateFormatSymbols"* %0, i64 0, i32 10
  store %"class.icu_69::UnicodeString"* null, %"class.icu_69::UnicodeString"** %74, align 8
  %75 = getelementptr inbounds %"class.icu_69::DateFormatSymbols", %"class.icu_69::DateFormatSymbols"* %0, i64 0, i32 11
  store i32 0, i32* %75, align 8
  %76 = getelementptr inbounds %"class.icu_69::DateFormatSymbols", %"class.icu_69::DateFormatSymbols"* %0, i64 0, i32 13
  store %"class.icu_69::UnicodeString"* null, %"class.icu_69::UnicodeString"** %76, align 8
  %77 = getelementptr inbounds %"class.icu_69::DateFormatSymbols", %"class.icu_69::DateFormatSymbols"* %0, i64 0, i32 14
  store i32 0, i32* %77, align 8
  %78 = getelementptr inbounds %"class.icu_69::DateFormatSymbols", %"class.icu_69::DateFormatSymbols"* %0, i64 0, i32 16
  store %"class.icu_69::UnicodeString"* null, %"class.icu_69::UnicodeString"** %78, align 8
  %79 = getelementptr inbounds %"class.icu_69::DateFormatSymbols", %"class.icu_69::DateFormatSymbols"* %0, i64 0, i32 17
  store i32 0, i32* %79, align 8
  %80 = getelementptr inbounds %"class.icu_69::DateFormatSymbols", %"class.icu_69::DateFormatSymbols"* %0, i64 0, i32 19
  store %"class.icu_69::UnicodeString"* null, %"class.icu_69::UnicodeString"** %80, align 8
  %81 = getelementptr inbounds %"class.icu_69::DateFormatSymbols", %"class.icu_69::DateFormatSymbols"* %0, i64 0, i32 20
  store i32 0, i32* %81, align 8
  %82 = getelementptr inbounds %"class.icu_69::DateFormatSymbols", %"class.icu_69::DateFormatSymbols"* %0, i64 0, i32 22
  store %"class.icu_69::UnicodeString"* null, %"class.icu_69::UnicodeString"** %82, align 8
  %83 = getelementptr inbounds %"class.icu_69::DateFormatSymbols", %"class.icu_69::DateFormatSymbols"* %0, i64 0, i32 23
  store i32 0, i32* %83, align 8
  %84 = getelementptr inbounds %"class.icu_69::DateFormatSymbols", %"class.icu_69::DateFormatSymbols"* %0, i64 0, i32 25
  store %"class.icu_69::UnicodeString"* null, %"class.icu_69::UnicodeString"** %84, align 8
  %85 = getelementptr inbounds %"class.icu_69::DateFormatSymbols", %"class.icu_69::DateFormatSymbols"* %0, i64 0, i32 26
  store i32 0, i32* %85, align 8
  %86 = getelementptr inbounds %"class.icu_69::DateFormatSymbols", %"class.icu_69::DateFormatSymbols"* %0, i64 0, i32 28
  store %"class.icu_69::UnicodeString"* null, %"class.icu_69::UnicodeString"** %86, align 8
  %87 = getelementptr inbounds %"class.icu_69::DateFormatSymbols", %"class.icu_69::DateFormatSymbols"* %0, i64 0, i32 29
  store i32 0, i32* %87, align 8
  %88 = getelementptr inbounds %"class.icu_69::DateFormatSymbols", %"class.icu_69::DateFormatSymbols"* %0, i64 0, i32 31
  store %"class.icu_69::UnicodeString"* null, %"class.icu_69::UnicodeString"** %88, align 8
  %89 = getelementptr inbounds %"class.icu_69::DateFormatSymbols", %"class.icu_69::DateFormatSymbols"* %0, i64 0, i32 32
  store i32 0, i32* %89, align 8
  %90 = getelementptr inbounds %"class.icu_69::DateFormatSymbols", %"class.icu_69::DateFormatSymbols"* %0, i64 0, i32 34
  store %"class.icu_69::UnicodeString"* null, %"class.icu_69::UnicodeString"** %90, align 8
  %91 = getelementptr inbounds %"class.icu_69::DateFormatSymbols", %"class.icu_69::DateFormatSymbols"* %0, i64 0, i32 35
  store i32 0, i32* %91, align 8
  %92 = getelementptr inbounds %"class.icu_69::DateFormatSymbols", %"class.icu_69::DateFormatSymbols"* %0, i64 0, i32 37
  store %"class.icu_69::UnicodeString"* null, %"class.icu_69::UnicodeString"** %92, align 8
  %93 = getelementptr inbounds %"class.icu_69::DateFormatSymbols", %"class.icu_69::DateFormatSymbols"* %0, i64 0, i32 38
  store i32 0, i32* %93, align 8
  %94 = getelementptr inbounds %"class.icu_69::DateFormatSymbols", %"class.icu_69::DateFormatSymbols"* %0, i64 0, i32 40
  store %"class.icu_69::UnicodeString"* null, %"class.icu_69::UnicodeString"** %94, align 8
  %95 = getelementptr inbounds %"class.icu_69::DateFormatSymbols", %"class.icu_69::DateFormatSymbols"* %0, i64 0, i32 41
  store i32 0, i32* %95, align 8
  %96 = getelementptr inbounds %"class.icu_69::DateFormatSymbols", %"class.icu_69::DateFormatSymbols"* %0, i64 0, i32 43
  store %"class.icu_69::UnicodeString"* null, %"class.icu_69::UnicodeString"** %96, align 8
  %97 = getelementptr inbounds %"class.icu_69::DateFormatSymbols", %"class.icu_69::DateFormatSymbols"* %0, i64 0, i32 44
  store i32 0, i32* %97, align 8
  %98 = getelementptr inbounds %"class.icu_69::DateFormatSymbols", %"class.icu_69::DateFormatSymbols"* %0, i64 0, i32 46
  store %"class.icu_69::UnicodeString"* null, %"class.icu_69::UnicodeString"** %98, align 8
  %99 = getelementptr inbounds %"class.icu_69::DateFormatSymbols", %"class.icu_69::DateFormatSymbols"* %0, i64 0, i32 47
  store i32 0, i32* %99, align 8
  %100 = getelementptr inbounds %"class.icu_69::DateFormatSymbols", %"class.icu_69::DateFormatSymbols"* %0, i64 0, i32 49
  store %"class.icu_69::UnicodeString"* null, %"class.icu_69::UnicodeString"** %100, align 8
  %101 = getelementptr inbounds %"class.icu_69::DateFormatSymbols", %"class.icu_69::DateFormatSymbols"* %0, i64 0, i32 50
  store i32 0, i32* %101, align 8
  %102 = getelementptr inbounds %"class.icu_69::DateFormatSymbols", %"class.icu_69::DateFormatSymbols"* %0, i64 0, i32 52
  store %"class.icu_69::UnicodeString"* null, %"class.icu_69::UnicodeString"** %102, align 8
  %103 = getelementptr inbounds %"class.icu_69::DateFormatSymbols", %"class.icu_69::DateFormatSymbols"* %0, i64 0, i32 53
  store i32 0, i32* %103, align 8
  %104 = getelementptr inbounds %"class.icu_69::DateFormatSymbols", %"class.icu_69::DateFormatSymbols"* %0, i64 0, i32 55
  store %"class.icu_69::UnicodeString"* null, %"class.icu_69::UnicodeString"** %104, align 8
  %105 = getelementptr inbounds %"class.icu_69::DateFormatSymbols", %"class.icu_69::DateFormatSymbols"* %0, i64 0, i32 56
  store i32 0, i32* %105, align 8
  %106 = getelementptr inbounds %"class.icu_69::DateFormatSymbols", %"class.icu_69::DateFormatSymbols"* %0, i64 0, i32 58
  tail call void @_ZN6icu_6913UnicodeString10setToBogusEv(%"class.icu_69::UnicodeString"* %106) #13
  %107 = getelementptr inbounds %"class.icu_69::DateFormatSymbols", %"class.icu_69::DateFormatSymbols"* %0, i64 0, i32 59
  store %"class.icu_69::UnicodeString"* null, %"class.icu_69::UnicodeString"** %107, align 8
  %108 = getelementptr inbounds %"class.icu_69::DateFormatSymbols", %"class.icu_69::DateFormatSymbols"* %0, i64 0, i32 60
  store i32 0, i32* %108, align 8
  %109 = getelementptr inbounds %"class.icu_69::DateFormatSymbols", %"class.icu_69::DateFormatSymbols"* %0, i64 0, i32 62
  store %"class.icu_69::UnicodeString"* null, %"class.icu_69::UnicodeString"** %109, align 8
  %110 = getelementptr inbounds %"class.icu_69::DateFormatSymbols", %"class.icu_69::DateFormatSymbols"* %0, i64 0, i32 63
  store i32 0, i32* %110, align 8
  %111 = getelementptr inbounds %"class.icu_69::DateFormatSymbols", %"class.icu_69::DateFormatSymbols"* %0, i64 0, i32 65
  store %"class.icu_69::UnicodeString"* null, %"class.icu_69::UnicodeString"** %111, align 8
  %112 = getelementptr inbounds %"class.icu_69::DateFormatSymbols", %"class.icu_69::DateFormatSymbols"* %0, i64 0, i32 66
  store i32 0, i32* %112, align 8
  %113 = getelementptr inbounds %"class.icu_69::DateFormatSymbols", %"class.icu_69::DateFormatSymbols"* %0, i64 0, i32 68
  store %"class.icu_69::UnicodeString"* null, %"class.icu_69::UnicodeString"** %113, align 8
  %114 = getelementptr inbounds %"class.icu_69::DateFormatSymbols", %"class.icu_69::DateFormatSymbols"* %0, i64 0, i32 69
  store i32 0, i32* %114, align 8
  %115 = getelementptr inbounds %"class.icu_69::DateFormatSymbols", %"class.icu_69::DateFormatSymbols"* %0, i64 0, i32 71
  store %"class.icu_69::UnicodeString"* null, %"class.icu_69::UnicodeString"** %115, align 8
  %116 = getelementptr inbounds %"class.icu_69::DateFormatSymbols", %"class.icu_69::DateFormatSymbols"* %0, i64 0, i32 72
  store i32 0, i32* %116, align 8
  %117 = getelementptr inbounds %"class.icu_69::DateFormatSymbols", %"class.icu_69::DateFormatSymbols"* %0, i64 0, i32 74
  store %"class.icu_69::UnicodeString"* null, %"class.icu_69::UnicodeString"** %117, align 8
  %118 = getelementptr inbounds %"class.icu_69::DateFormatSymbols", %"class.icu_69::DateFormatSymbols"* %0, i64 0, i32 75
  store i32 0, i32* %118, align 8
  %119 = getelementptr inbounds %"class.icu_69::DateFormatSymbols", %"class.icu_69::DateFormatSymbols"* %0, i64 0, i32 77
  store %"class.icu_69::UnicodeString"* null, %"class.icu_69::UnicodeString"** %119, align 8
  %120 = getelementptr inbounds %"class.icu_69::DateFormatSymbols", %"class.icu_69::DateFormatSymbols"* %0, i64 0, i32 78
  store i32 0, i32* %120, align 8
  %121 = getelementptr inbounds %"class.icu_69::DateFormatSymbols", %"class.icu_69::DateFormatSymbols"* %0, i64 0, i32 80
  %122 = getelementptr inbounds %"class.icu_69::DateFormatSymbols", %"class.icu_69::DateFormatSymbols"* %0, i64 0, i32 88
  store %"class.icu_69::UnicodeString"* null, %"class.icu_69::UnicodeString"** %122, align 8
  %123 = getelementptr inbounds %"class.icu_69::DateFormatSymbols", %"class.icu_69::DateFormatSymbols"* %0, i64 0, i32 89
  store i32 0, i32* %123, align 8
  %124 = getelementptr inbounds %"class.icu_69::DateFormatSymbols", %"class.icu_69::DateFormatSymbols"* %0, i64 0, i32 91
  store %"class.icu_69::UnicodeString"* null, %"class.icu_69::UnicodeString"** %124, align 8
  %125 = getelementptr inbounds %"class.icu_69::DateFormatSymbols", %"class.icu_69::DateFormatSymbols"* %0, i64 0, i32 92
  store i32 0, i32* %125, align 8
  %126 = getelementptr inbounds %"class.icu_69::DateFormatSymbols", %"class.icu_69::DateFormatSymbols"* %0, i64 0, i32 94
  store %"class.icu_69::UnicodeString"* null, %"class.icu_69::UnicodeString"** %126, align 8
  %127 = getelementptr inbounds %"class.icu_69::DateFormatSymbols", %"class.icu_69::DateFormatSymbols"* %0, i64 0, i32 95
  store i32 0, i32* %127, align 8
  %128 = getelementptr inbounds %"class.icu_69::DateFormatSymbols", %"class.icu_69::DateFormatSymbols"* %0, i64 0, i32 97
  store %"class.icu_69::UnicodeString"* null, %"class.icu_69::UnicodeString"** %128, align 8
  %129 = getelementptr inbounds %"class.icu_69::DateFormatSymbols", %"class.icu_69::DateFormatSymbols"* %0, i64 0, i32 98
  store i32 0, i32* %129, align 8
  %130 = getelementptr inbounds %"class.icu_69::DateFormatSymbols", %"class.icu_69::DateFormatSymbols"* %0, i64 0, i32 100
  store %"class.icu_69::UnicodeString"* null, %"class.icu_69::UnicodeString"** %130, align 8
  %131 = getelementptr inbounds %"class.icu_69::DateFormatSymbols", %"class.icu_69::DateFormatSymbols"* %0, i64 0, i32 101
  store i32 0, i32* %131, align 8
  %132 = getelementptr inbounds %"class.icu_69::DateFormatSymbols", %"class.icu_69::DateFormatSymbols"* %0, i64 0, i32 103
  store %"class.icu_69::UnicodeString"* null, %"class.icu_69::UnicodeString"** %132, align 8
  %133 = getelementptr inbounds %"class.icu_69::DateFormatSymbols", %"class.icu_69::DateFormatSymbols"* %0, i64 0, i32 104
  store i32 0, i32* %133, align 8
  %134 = getelementptr inbounds %"class.icu_69::DateFormatSymbols", %"class.icu_69::DateFormatSymbols"* %0, i64 0, i32 86, i64 0, i64 0
  tail call void @llvm.memset.p0i8.i64(i8* align 8 %134, i8 0, i64 28, i1 false)
  %135 = getelementptr inbounds %"class.icu_69::DateFormatSymbols", %"class.icu_69::DateFormatSymbols"* %0, i64 0, i32 84
  %136 = bitcast %"class.icu_69::UnicodeString"*** %121 to i8*
  call void @llvm.memset.p0i8.i64(i8* align 8 %136, i8 0, i64 24, i1 false)
  %137 = tail call dereferenceable(224) %"class.icu_69::Locale"* @_ZN6icu_696LocaleaSERKS0_(%"class.icu_69::Locale"* %135, %"class.icu_69::Locale"* dereferenceable(224) %1) #13
  %138 = load i32, i32* %3, align 4
  %139 = icmp slt i32 %138, 1
  br i1 %139, label %140, label %3925

140:                                              ; preds = %5
  %141 = bitcast %"struct.icu_69::(anonymous namespace)::CalendarDataSink"* %52 to i8*
  call void @llvm.lifetime.start.p0i8(i64 600, i8* nonnull %141) #13
  call void @llvm.memcpy.p0i8.p0i8.i64(i8* nonnull align 8 %141, i8* align 8 bitcast ({ %"class.icu_69::ResourceSink", { %struct.UHashtable*, { %struct.UHashElement*, i32 (i8*)*, i8 (i8*, i8*)*, i8 (i8*, i8*)*, void (i8*)*, void (i8*)*, i32, i32, i32, i32, float, float, i8, i8, [6 x i8] } }, { %struct.UHashtable*, { %struct.UHashElement*, i32 (i8*)*, i8 (i8*, i8*)*, i8 (i8*, i8*)*, void (i8*)*, void (i8*)*, i32, i32, i32, i32, float, float, i8, i8, [6 x i8] } }, { %struct.UHashtable*, { %struct.UHashElement*, i32 (i8*)*, i8 (i8*, i8*)*, i8 (i8*, i8*)*, void (i8*)*, void (i8*)*, i32, i32, i32, i32, float, float, i8, i8, [6 x i8] } }, { i32, [4 x i8], { %"class.icu_69::Hashtable"**, i32, i8, [3 x i8], [8 x %"class.icu_69::Hashtable"*] } }, %"class.icu_69::UVector", { %"class.icu_69::Replaceable", { { i16, [2 x i8], i32, i32, [4 x i8], i16* }, [32 x i8] } }, { %"class.icu_69::Replaceable", { { i16, [2 x i8], i32, i32, [4 x i8], i16* }, [32 x i8] } }, %"class.icu_69::LocalPointer", { %"class.icu_69::Replaceable", { { i16, [2 x i8], i32, i32, [4 x i8], i16* }, [32 x i8] } } }* @__const._ZN6icu_6917DateFormatSymbols14initializeDataERKNS_6LocaleEPKcR10UErrorCodea.calendarSink to i8*), i64 600, i1 false)
  %142 = getelementptr inbounds %"struct.icu_69::(anonymous namespace)::CalendarDataSink", %"struct.icu_69::(anonymous namespace)::CalendarDataSink"* %52, i64 0, i32 0, i32 0, i32 0
  store i32 (...)** bitcast (i8** getelementptr inbounds ({ [6 x i8*] }, { [6 x i8*] }* @_ZTVN6icu_6912_GLOBAL__N_116CalendarDataSinkE, i64 0, inrange i32 0, i64 2) to i32 (...)**), i32 (...)*** %142, align 8
  %143 = getelementptr inbounds %"struct.icu_69::(anonymous namespace)::CalendarDataSink", %"struct.icu_69::(anonymous namespace)::CalendarDataSink"* %52, i64 0, i32 1, i32 0
  store %struct.UHashtable* null, %struct.UHashtable** %143, align 8
  %144 = getelementptr inbounds %"struct.icu_69::(anonymous namespace)::CalendarDataSink", %"struct.icu_69::(anonymous namespace)::CalendarDataSink"* %52, i64 0, i32 1, i32 1
  %145 = call %struct.UHashtable* @uhash_init_69(%struct.UHashtable* %144, i32 (i8*)* nonnull @uhash_hashUnicodeString_69, i8 (i8*, i8*)* nonnull @uhash_compareUnicodeString_69, i8 (i8*, i8*)* null, i32* %3) #13
  %146 = load i32, i32* %3, align 4
  %147 = icmp sgt i32 %146, 0
  br i1 %147, label %148, label %150

148:                                              ; preds = %140
  %149 = getelementptr inbounds %"struct.icu_69::(anonymous namespace)::CalendarDataSink", %"struct.icu_69::(anonymous namespace)::CalendarDataSink"* %52, i64 0, i32 2, i32 0
  store %struct.UHashtable* null, %struct.UHashtable** %149, align 8
  br label %160

150:                                              ; preds = %140
  store %struct.UHashtable* %144, %struct.UHashtable** %143, align 8
  %151 = call void (i8*)* @uhash_setKeyDeleter_69(%struct.UHashtable* %144, void (i8*)* nonnull @uprv_deleteUObject_69) #13
  %152 = load i32, i32* %3, align 4
  %153 = getelementptr inbounds %"struct.icu_69::(anonymous namespace)::CalendarDataSink", %"struct.icu_69::(anonymous namespace)::CalendarDataSink"* %52, i64 0, i32 2, i32 0
  store %struct.UHashtable* null, %struct.UHashtable** %153, align 8
  %154 = icmp slt i32 %152, 1
  br i1 %154, label %155, label %160

155:                                              ; preds = %150
  %156 = getelementptr inbounds %"struct.icu_69::(anonymous namespace)::CalendarDataSink", %"struct.icu_69::(anonymous namespace)::CalendarDataSink"* %52, i64 0, i32 2, i32 1
  %157 = call %struct.UHashtable* @uhash_init_69(%struct.UHashtable* %156, i32 (i8*)* nonnull @uhash_hashUnicodeString_69, i8 (i8*, i8*)* nonnull @uhash_compareUnicodeString_69, i8 (i8*, i8*)* null, i32* %3) #13
  %158 = load i32, i32* %3, align 4
  %159 = icmp sgt i32 %158, 0
  br i1 %159, label %160, label %163

160:                                              ; preds = %148, %155, %150
  %161 = phi %struct.UHashtable** [ %153, %150 ], [ %153, %155 ], [ %149, %148 ]
  %162 = getelementptr inbounds %"struct.icu_69::(anonymous namespace)::CalendarDataSink", %"struct.icu_69::(anonymous namespace)::CalendarDataSink"* %52, i64 0, i32 3, i32 0
  store %struct.UHashtable* null, %struct.UHashtable** %162, align 8
  br label %175

163:                                              ; preds = %155
  store %struct.UHashtable* %156, %struct.UHashtable** %153, align 8
  %164 = call void (i8*)* @uhash_setKeyDeleter_69(%struct.UHashtable* %156, void (i8*)* nonnull @uprv_deleteUObject_69) #13
  %165 = load i32, i32* %3, align 4
  %166 = getelementptr inbounds %"struct.icu_69::(anonymous namespace)::CalendarDataSink", %"struct.icu_69::(anonymous namespace)::CalendarDataSink"* %52, i64 0, i32 3, i32 0
  store %struct.UHashtable* null, %struct.UHashtable** %166, align 8
  %167 = icmp slt i32 %165, 1
  br i1 %167, label %168, label %175

168:                                              ; preds = %163
  %169 = getelementptr inbounds %"struct.icu_69::(anonymous namespace)::CalendarDataSink", %"struct.icu_69::(anonymous namespace)::CalendarDataSink"* %52, i64 0, i32 3, i32 1
  %170 = call %struct.UHashtable* @uhash_init_69(%struct.UHashtable* %169, i32 (i8*)* nonnull @uhash_hashUnicodeString_69, i8 (i8*, i8*)* nonnull @uhash_compareUnicodeString_69, i8 (i8*, i8*)* null, i32* %3) #13
  %171 = load i32, i32* %3, align 4
  %172 = icmp sgt i32 %171, 0
  br i1 %172, label %175, label %173

173:                                              ; preds = %168
  store %struct.UHashtable* %169, %struct.UHashtable** %166, align 8
  %174 = call void (i8*)* @uhash_setKeyDeleter_69(%struct.UHashtable* %169, void (i8*)* nonnull @uprv_deleteUObject_69) #13
  br label %175

175:                                              ; preds = %160, %163, %168, %173
  %176 = phi %struct.UHashtable** [ %161, %160 ], [ %153, %163 ], [ %153, %168 ], [ %153, %173 ]
  %177 = getelementptr inbounds %"struct.icu_69::(anonymous namespace)::CalendarDataSink", %"struct.icu_69::(anonymous namespace)::CalendarDataSink"* %52, i64 0, i32 4, i32 0
  store i32 0, i32* %177, align 8
  %178 = getelementptr inbounds %"struct.icu_69::(anonymous namespace)::CalendarDataSink", %"struct.icu_69::(anonymous namespace)::CalendarDataSink"* %52, i64 0, i32 4, i32 1, i32 0
  %179 = getelementptr inbounds %"struct.icu_69::(anonymous namespace)::CalendarDataSink", %"struct.icu_69::(anonymous namespace)::CalendarDataSink"* %52, i64 0, i32 4, i32 1, i32 3, i64 0
  store %"class.icu_69::Hashtable"** %179, %"class.icu_69::Hashtable"*** %178, align 8
  %180 = getelementptr inbounds %"struct.icu_69::(anonymous namespace)::CalendarDataSink", %"struct.icu_69::(anonymous namespace)::CalendarDataSink"* %52, i64 0, i32 4, i32 1, i32 1
  store i32 8, i32* %180, align 8
  %181 = getelementptr inbounds %"struct.icu_69::(anonymous namespace)::CalendarDataSink", %"struct.icu_69::(anonymous namespace)::CalendarDataSink"* %52, i64 0, i32 4, i32 1, i32 2
  store i8 0, i8* %181, align 4
  %182 = getelementptr inbounds %"struct.icu_69::(anonymous namespace)::CalendarDataSink", %"struct.icu_69::(anonymous namespace)::CalendarDataSink"* %52, i64 0, i32 5
  call void @_ZN6icu_697UVectorC1EPFvPvEPFa8UElementS4_ER10UErrorCode(%"class.icu_69::UVector"* %182, void (i8*)* nonnull @uprv_deleteUObject_69, i8 (i8*, i8*)* nonnull @uhash_compareUnicodeString_69, i32* dereferenceable(4) %3) #13
  %183 = getelementptr inbounds %"struct.icu_69::(anonymous namespace)::CalendarDataSink", %"struct.icu_69::(anonymous namespace)::CalendarDataSink"* %52, i64 0, i32 6, i32 0, i32 0, i32 0
  store i32 (...)** bitcast (i8** getelementptr inbounds ({ [13 x i8*] }, { [13 x i8*] }* @_ZTVN6icu_6913UnicodeStringE, i64 0, inrange i32 0, i64 2) to i32 (...)**), i32 (...)*** %183, align 8
  %184 = getelementptr inbounds %"struct.icu_69::(anonymous namespace)::CalendarDataSink", %"struct.icu_69::(anonymous namespace)::CalendarDataSink"* %52, i64 0, i32 6, i32 1, i32 0, i32 0
  store i16 2, i16* %184, align 8
  %185 = getelementptr inbounds %"struct.icu_69::(anonymous namespace)::CalendarDataSink", %"struct.icu_69::(anonymous namespace)::CalendarDataSink"* %52, i64 0, i32 7, i32 0, i32 0, i32 0
  store i32 (...)** bitcast (i8** getelementptr inbounds ({ [13 x i8*] }, { [13 x i8*] }* @_ZTVN6icu_6913UnicodeStringE, i64 0, inrange i32 0, i64 2) to i32 (...)**), i32 (...)*** %185, align 8
  %186 = getelementptr inbounds %"struct.icu_69::(anonymous namespace)::CalendarDataSink", %"struct.icu_69::(anonymous namespace)::CalendarDataSink"* %52, i64 0, i32 7, i32 1, i32 0, i32 0
  store i16 2, i16* %186, align 8
  %187 = getelementptr inbounds %"struct.icu_69::(anonymous namespace)::CalendarDataSink", %"struct.icu_69::(anonymous namespace)::CalendarDataSink"* %52, i64 0, i32 8, i32 0, i32 0
  store %"class.icu_69::UVector"* null, %"class.icu_69::UVector"** %187, align 8
  %188 = getelementptr inbounds %"struct.icu_69::(anonymous namespace)::CalendarDataSink", %"struct.icu_69::(anonymous namespace)::CalendarDataSink"* %52, i64 0, i32 9, i32 0, i32 0, i32 0
  store i32 (...)** bitcast (i8** getelementptr inbounds ({ [13 x i8*] }, { [13 x i8*] }* @_ZTVN6icu_6913UnicodeStringE, i64 0, inrange i32 0, i64 2) to i32 (...)**), i32 (...)*** %188, align 8
  %189 = getelementptr inbounds %"struct.icu_69::(anonymous namespace)::CalendarDataSink", %"struct.icu_69::(anonymous namespace)::CalendarDataSink"* %52, i64 0, i32 9, i32 1, i32 0, i32 0
  store i16 2, i16* %189, align 8
  %190 = call i8* @_ZNK6icu_696Locale11getBaseNameEv(%"class.icu_69::Locale"* %1) #13
  %191 = call %struct.UResourceBundle* @ures_open_69(i8* null, i8* %190, i32* %3) #13
  %192 = call %struct.UResourceBundle* @ures_getByKey_69(%struct.UResourceBundle* %191, i8* getelementptr inbounds ([9 x i8], [9 x i8]* @_ZN6icu_69L12gCalendarTagE, i64 0, i64 0), %struct.UResourceBundle* null, i32* %3) #13
  %193 = load i32, i32* %3, align 4
  %194 = icmp slt i32 %193, 1
  br i1 %194, label %195, label %3924

195:                                              ; preds = %175
  %196 = bitcast %"class.icu_69::UnicodeString"* %53 to i8*
  call void @llvm.lifetime.start.p0i8(i64 64, i8* nonnull %196) #13
  call void @llvm.memset.p0i8.i64(i8* nonnull align 8 %196, i8 -86, i64 64, i1 false)
  %197 = icmp eq i8* %2, null
  br i1 %197, label %202, label %198

198:                                              ; preds = %195
  %199 = load i8, i8* %2, align 1
  %200 = icmp eq i8 %199, 0
  %201 = select i1 %200, i8* getelementptr inbounds ([10 x i8], [10 x i8]* @_ZN6icu_69L13gGregorianTagE, i64 0, i64 0), i8* %2
  br label %202

202:                                              ; preds = %198, %195
  %203 = phi i8* [ getelementptr inbounds ([10 x i8], [10 x i8]* @_ZN6icu_69L13gGregorianTagE, i64 0, i64 0), %195 ], [ %201, %198 ]
  call void @_ZN6icu_6913UnicodeStringC1EPKciNS0_10EInvariantE(%"class.icu_69::UnicodeString"* nonnull %53, i8* %203, i32 -1, i32 0) #13
  %204 = getelementptr inbounds %"class.icu_69::UnicodeString", %"class.icu_69::UnicodeString"* %53, i64 0, i32 1, i32 0, i32 0
  %205 = load i16, i16* %204, align 8
  %206 = and i16 %205, 1
  %207 = icmp eq i16 %206, 0
  br i1 %207, label %208, label %277

208:                                              ; preds = %202
  %209 = bitcast %"class.icu_69::CharString"* %54 to i8*
  %210 = getelementptr inbounds %"class.icu_69::CharString", %"class.icu_69::CharString"* %54, i64 0, i32 0, i32 0
  %211 = getelementptr inbounds %"class.icu_69::CharString", %"class.icu_69::CharString"* %54, i64 0, i32 0, i32 3, i64 0
  %212 = getelementptr inbounds %"class.icu_69::CharString", %"class.icu_69::CharString"* %54, i64 0, i32 0, i32 1
  %213 = getelementptr inbounds %"class.icu_69::CharString", %"class.icu_69::CharString"* %54, i64 0, i32 0, i32 2
  %214 = getelementptr inbounds %"class.icu_69::CharString", %"class.icu_69::CharString"* %54, i64 0, i32 1
  %215 = getelementptr inbounds %"struct.icu_69::(anonymous namespace)::CalendarDataSink", %"struct.icu_69::(anonymous namespace)::CalendarDataSink"* %52, i64 0, i32 6
  %216 = getelementptr inbounds %"struct.icu_69::(anonymous namespace)::CalendarDataSink", %"struct.icu_69::(anonymous namespace)::CalendarDataSink"* %52, i64 0, i32 7
  %217 = getelementptr inbounds %"struct.icu_69::(anonymous namespace)::CalendarDataSink", %"struct.icu_69::(anonymous namespace)::CalendarDataSink"* %52, i64 0, i32 0
  %218 = getelementptr inbounds %"class.icu_69::ConstChar16Ptr", %"class.icu_69::ConstChar16Ptr"* %56, i64 0, i32 0
  %219 = getelementptr inbounds %"class.icu_69::ConstChar16Ptr", %"class.icu_69::ConstChar16Ptr"* %55, i64 0, i32 0
  br label %220

220:                                              ; preds = %208, %273
  call void @llvm.lifetime.start.p0i8(i64 64, i8* nonnull %209) #13
  call void @llvm.memset.p0i8.i64(i8* nonnull align 8 %209, i8 -86, i64 64, i1 false)
  store i8* %211, i8** %210, align 8
  store i32 40, i32* %212, align 8
  store i8 0, i8* %213, align 4
  store i32 0, i32* %214, align 8
  store i8 0, i8* %211, align 1
  %221 = call dereferenceable(64) %"class.icu_69::CharString"* @_ZN6icu_6910CharString20appendInvariantCharsERKNS_13UnicodeStringER10UErrorCode(%"class.icu_69::CharString"* nonnull %54, %"class.icu_69::UnicodeString"* nonnull dereferenceable(64) %53, i32* dereferenceable(4) %3) #13
  %222 = load i32, i32* %3, align 4
  %223 = icmp slt i32 %222, 1
  br i1 %223, label %224, label %266

224:                                              ; preds = %220
  %225 = load i8*, i8** %210, align 8
  %226 = call %struct.UResourceBundle* @ures_getByKeyWithFallback_69(%struct.UResourceBundle* %192, i8* %225, %struct.UResourceBundle* null, i32* %3) #13
  %227 = load i32, i32* %3, align 4
  %228 = icmp eq i32 %227, 2
  br i1 %228, label %229, label %243

229:                                              ; preds = %224
  call void @ures_close_69(%struct.UResourceBundle* %226) #13
  %230 = call i32 @strcmp(i8* %225, i8* getelementptr inbounds ([10 x i8], [10 x i8]* @_ZN6icu_69L13gGregorianTagE, i64 0, i64 0)) #14
  %231 = icmp eq i32 %230, 0
  br i1 %231, label %266, label %232

232:                                              ; preds = %229
  store i16* getelementptr inbounds ([9 x i16], [9 x i16]* @_ZN6icu_6912_GLOBAL__N_118kGregorianTagUCharE, i64 0, i64 0), i16** %219, align 8
  %233 = call dereferenceable(64) %"class.icu_69::UnicodeString"* @_ZN6icu_6913UnicodeString5setToEaNS_14ConstChar16PtrEi(%"class.icu_69::UnicodeString"* nonnull %53, i8 signext 0, %"class.icu_69::ConstChar16Ptr"* nonnull %55, i32 9) #13
  %234 = load i16*, i16** %219, align 8
  call void asm sideeffect "", "rm,~{memory},~{dirflag},~{fpsr},~{flags}"(i16* %234) #13, !srcloc !2
  %235 = load %"class.icu_69::UVector"*, %"class.icu_69::UVector"** %187, align 8
  %236 = icmp eq %"class.icu_69::UVector"* %235, null
  br i1 %236, label %242, label %237

237:                                              ; preds = %232
  %238 = bitcast %"class.icu_69::UVector"* %235 to void (%"class.icu_69::UVector"*)***
  %239 = load void (%"class.icu_69::UVector"*)**, void (%"class.icu_69::UVector"*)*** %238, align 8
  %240 = getelementptr inbounds void (%"class.icu_69::UVector"*)*, void (%"class.icu_69::UVector"*)** %239, i64 1
  %241 = load void (%"class.icu_69::UVector"*)*, void (%"class.icu_69::UVector"*)** %240, align 8
  call void %241(%"class.icu_69::UVector"* nonnull %235) #13
  br label %242

242:                                              ; preds = %232, %237
  store %"class.icu_69::UVector"* null, %"class.icu_69::UVector"** %187, align 8
  store i32 %222, i32* %3, align 4
  br label %266

243:                                              ; preds = %224
  %244 = call dereferenceable(64) %"class.icu_69::UnicodeString"* @_ZN6icu_6913UnicodeStringaSERKS0_(%"class.icu_69::UnicodeString"* %215, %"class.icu_69::UnicodeString"* nonnull dereferenceable(64) %53) #13
  call void @_ZN6icu_6913UnicodeString10setToBogusEv(%"class.icu_69::UnicodeString"* %216) #13
  call void @_ZN6icu_697UVector17removeAllElementsEv(%"class.icu_69::UVector"* %182) #13
  call void @ures_getAllItemsWithFallback_69(%struct.UResourceBundle* %226, i8* getelementptr inbounds ([1 x i8], [1 x i8]* @.str, i64 0, i64 0), %"class.icu_69::ResourceSink"* nonnull dereferenceable(8) %217, i32* dereferenceable(4) %3) #13
  call void @ures_close_69(%struct.UResourceBundle* %226) #13
  %245 = load i32, i32* %3, align 4
  %246 = icmp slt i32 %245, 1
  br i1 %246, label %247, label %266

247:                                              ; preds = %243
  %248 = call i32 @strcmp(i8* %225, i8* getelementptr inbounds ([10 x i8], [10 x i8]* @_ZN6icu_69L13gGregorianTagE, i64 0, i64 0)) #14
  %249 = icmp eq i32 %248, 0
  br i1 %249, label %266, label %250

250:                                              ; preds = %247
  %251 = call dereferenceable(64) %"class.icu_69::UnicodeString"* @_ZN6icu_6913UnicodeStringaSERKS0_(%"class.icu_69::UnicodeString"* nonnull %53, %"class.icu_69::UnicodeString"* dereferenceable(64) %216) #13
  %252 = load i16, i16* %204, align 8
  %253 = and i16 %252, 1
  %254 = icmp eq i16 %253, 0
  br i1 %254, label %266, label %255

255:                                              ; preds = %250
  store i16* getelementptr inbounds ([9 x i16], [9 x i16]* @_ZN6icu_6912_GLOBAL__N_118kGregorianTagUCharE, i64 0, i64 0), i16** %218, align 8
  %256 = call dereferenceable(64) %"class.icu_69::UnicodeString"* @_ZN6icu_6913UnicodeString5setToEaNS_14ConstChar16PtrEi(%"class.icu_69::UnicodeString"* nonnull %53, i8 signext 0, %"class.icu_69::ConstChar16Ptr"* nonnull %56, i32 9) #13
  %257 = load i16*, i16** %218, align 8
  call void asm sideeffect "", "rm,~{memory},~{dirflag},~{fpsr},~{flags}"(i16* %257) #13, !srcloc !2
  %258 = load %"class.icu_69::UVector"*, %"class.icu_69::UVector"** %187, align 8
  %259 = icmp eq %"class.icu_69::UVector"* %258, null
  br i1 %259, label %265, label %260

260:                                              ; preds = %255
  %261 = bitcast %"class.icu_69::UVector"* %258 to void (%"class.icu_69::UVector"*)***
  %262 = load void (%"class.icu_69::UVector"*)**, void (%"class.icu_69::UVector"*)*** %261, align 8
  %263 = getelementptr inbounds void (%"class.icu_69::UVector"*)*, void (%"class.icu_69::UVector"*)** %262, i64 1
  %264 = load void (%"class.icu_69::UVector"*)*, void (%"class.icu_69::UVector"*)** %263, align 8
  call void %264(%"class.icu_69::UVector"* nonnull %258) #13
  br label %265

265:                                              ; preds = %255, %260
  store %"class.icu_69::UVector"* null, %"class.icu_69::UVector"** %187, align 8
  br label %266

266:                                              ; preds = %242, %229, %243, %247, %250, %265, %220
  %267 = phi i32 [ 1, %220 ], [ 2, %242 ], [ 1, %229 ], [ 3, %243 ], [ 3, %247 ], [ 0, %250 ], [ 0, %265 ]
  %268 = load i8, i8* %213, align 4
  %269 = icmp eq i8 %268, 0
  br i1 %269, label %272, label %270

270:                                              ; preds = %266
  %271 = load i8*, i8** %210, align 8
  call void @uprv_free_69(i8* %271) #13
  br label %272

272:                                              ; preds = %266, %270
  call void @llvm.lifetime.end.p0i8(i64 64, i8* nonnull %209) #13
  switch i32 %267, label %3923 [
    i32 0, label %273
    i32 2, label %273
    i32 3, label %277
  ]

273:                                              ; preds = %272, %272
  %274 = load i16, i16* %204, align 8
  %275 = and i16 %274, 1
  %276 = icmp eq i16 %275, 0
  br i1 %276, label %220, label %277

277:                                              ; preds = %273, %272, %202
  %278 = bitcast %"class.icu_69::CharString"* %57 to i8*
  call void @llvm.lifetime.start.p0i8(i64 64, i8* nonnull %278) #13
  call void @llvm.memset.p0i8.i64(i8* nonnull align 8 %278, i8 -86, i64 64, i1 false)
  %279 = getelementptr inbounds %"class.icu_69::CharString", %"class.icu_69::CharString"* %57, i64 0, i32 0, i32 0
  %280 = getelementptr inbounds %"class.icu_69::CharString", %"class.icu_69::CharString"* %57, i64 0, i32 0, i32 3, i64 0
  store i8* %280, i8** %279, align 8
  %281 = getelementptr inbounds %"class.icu_69::CharString", %"class.icu_69::CharString"* %57, i64 0, i32 0, i32 1
  store i32 40, i32* %281, align 8
  %282 = getelementptr inbounds %"class.icu_69::CharString", %"class.icu_69::CharString"* %57, i64 0, i32 0, i32 2
  store i8 0, i8* %282, align 4
  %283 = getelementptr inbounds %"class.icu_69::CharString", %"class.icu_69::CharString"* %57, i64 0, i32 1
  store i32 0, i32* %283, align 8
  store i8 0, i8* %280, align 1
  %284 = bitcast i32* %58 to i8*
  call void @llvm.lifetime.start.p0i8(i64 4, i8* nonnull %284) #13
  %285 = load i32, i32* %3, align 4
  store i32 %285, i32* %58, align 4
  %286 = call i8* @_ZN6icu_697UMemorynaEm(i64 456) #13
  %287 = icmp eq i8* %286, null
  br i1 %287, label %288, label %289

288:                                              ; preds = %277
  store %"class.icu_69::UnicodeString"* null, %"class.icu_69::UnicodeString"** %115, align 8
  br label %426

289:                                              ; preds = %277
  %290 = bitcast i8* %286 to i64*
  store i64 7, i64* %290, align 8
  %291 = getelementptr inbounds i8, i8* %286, i64 8
  %292 = bitcast i8* %291 to i32 (...)***
  store i32 (...)** bitcast (i8** getelementptr inbounds ({ [13 x i8*] }, { [13 x i8*] }* @_ZTVN6icu_6913UnicodeStringE, i64 0, inrange i32 0, i64 2) to i32 (...)**), i32 (...)*** %292, align 8
  %293 = getelementptr inbounds i8, i8* %286, i64 16
  %294 = bitcast i8* %293 to i16*
  store i16 2, i16* %294, align 8
  %295 = getelementptr inbounds i8, i8* %286, i64 72
  %296 = bitcast i8* %295 to i32 (...)***
  store i32 (...)** bitcast (i8** getelementptr inbounds ({ [13 x i8*] }, { [13 x i8*] }* @_ZTVN6icu_6913UnicodeStringE, i64 0, inrange i32 0, i64 2) to i32 (...)**), i32 (...)*** %296, align 8
  %297 = getelementptr inbounds i8, i8* %286, i64 80
  %298 = bitcast i8* %297 to i16*
  store i16 2, i16* %298, align 8
  %299 = getelementptr inbounds i8, i8* %286, i64 136
  %300 = bitcast i8* %299 to i32 (...)***
  store i32 (...)** bitcast (i8** getelementptr inbounds ({ [13 x i8*] }, { [13 x i8*] }* @_ZTVN6icu_6913UnicodeStringE, i64 0, inrange i32 0, i64 2) to i32 (...)**), i32 (...)*** %300, align 8
  %301 = getelementptr inbounds i8, i8* %286, i64 144
  %302 = bitcast i8* %301 to i16*
  store i16 2, i16* %302, align 8
  %303 = getelementptr inbounds i8, i8* %286, i64 200
  %304 = bitcast i8* %303 to i32 (...)***
  store i32 (...)** bitcast (i8** getelementptr inbounds ({ [13 x i8*] }, { [13 x i8*] }* @_ZTVN6icu_6913UnicodeStringE, i64 0, inrange i32 0, i64 2) to i32 (...)**), i32 (...)*** %304, align 8
  %305 = getelementptr inbounds i8, i8* %286, i64 208
  %306 = bitcast i8* %305 to i16*
  store i16 2, i16* %306, align 8
  %307 = getelementptr inbounds i8, i8* %286, i64 264
  %308 = bitcast i8* %307 to i32 (...)***
  store i32 (...)** bitcast (i8** getelementptr inbounds ({ [13 x i8*] }, { [13 x i8*] }* @_ZTVN6icu_6913UnicodeStringE, i64 0, inrange i32 0, i64 2) to i32 (...)**), i32 (...)*** %308, align 8
  %309 = getelementptr inbounds i8, i8* %286, i64 272
  %310 = bitcast i8* %309 to i16*
  store i16 2, i16* %310, align 8
  %311 = getelementptr inbounds i8, i8* %286, i64 328
  %312 = bitcast i8* %311 to i32 (...)***
  store i32 (...)** bitcast (i8** getelementptr inbounds ({ [13 x i8*] }, { [13 x i8*] }* @_ZTVN6icu_6913UnicodeStringE, i64 0, inrange i32 0, i64 2) to i32 (...)**), i32 (...)*** %312, align 8
  %313 = getelementptr inbounds i8, i8* %286, i64 336
  %314 = bitcast i8* %313 to i16*
  store i16 2, i16* %314, align 8
  %315 = getelementptr inbounds i8, i8* %286, i64 392
  %316 = bitcast i8* %315 to i32 (...)***
  store i32 (...)** bitcast (i8** getelementptr inbounds ({ [13 x i8*] }, { [13 x i8*] }* @_ZTVN6icu_6913UnicodeStringE, i64 0, inrange i32 0, i64 2) to i32 (...)**), i32 (...)*** %316, align 8
  %317 = getelementptr inbounds i8, i8* %286, i64 400
  %318 = bitcast i8* %317 to i16*
  store i16 2, i16* %318, align 8
  %319 = bitcast %"class.icu_69::UnicodeString"** %115 to i8**
  store i8* %291, i8** %319, align 8
  %320 = icmp eq i8* %291, null
  br i1 %320, label %426, label %321

321:                                              ; preds = %289
  %322 = bitcast i8* %291 to %"class.icu_69::UnicodeString"*
  store i32 0, i32* %283, align 8
  %323 = load i8*, i8** %279, align 8
  store i8 0, i8* %323, align 1
  %324 = call dereferenceable(64) %"class.icu_69::CharString"* @_ZN6icu_6910CharString6appendEPKciR10UErrorCode(%"class.icu_69::CharString"* nonnull %57, i8* getelementptr inbounds ([14 x i8], [14 x i8]* @_ZN6icu_69L17gMonthPatternsTagE, i64 0, i64 0), i32 -1, i32* nonnull dereferenceable(4) %58) #13
  %325 = call dereferenceable(64) %"class.icu_69::CharString"* @_ZN6icu_6910CharString6appendEcR10UErrorCode(%"class.icu_69::CharString"* %324, i8 signext 47, i32* nonnull dereferenceable(4) %58) #13
  %326 = call dereferenceable(64) %"class.icu_69::CharString"* @_ZN6icu_6910CharString6appendEPKciR10UErrorCode(%"class.icu_69::CharString"* %325, i8* getelementptr inbounds ([7 x i8], [7 x i8]* @_ZN6icu_69L15gNamesFormatTagE, i64 0, i64 0), i32 -1, i32* nonnull dereferenceable(4) %58) #13
  %327 = call dereferenceable(64) %"class.icu_69::CharString"* @_ZN6icu_6910CharString6appendEcR10UErrorCode(%"class.icu_69::CharString"* %326, i8 signext 47, i32* nonnull dereferenceable(4) %58) #13
  %328 = call dereferenceable(64) %"class.icu_69::CharString"* @_ZN6icu_6910CharString6appendEPKciR10UErrorCode(%"class.icu_69::CharString"* %327, i8* getelementptr inbounds ([5 x i8], [5 x i8]* @_ZN6icu_69L13gNamesWideTagE, i64 0, i64 0), i32 -1, i32* nonnull dereferenceable(4) %58) #13
  call fastcc void @_ZN6icu_69L20initLeapMonthPatternEPNS_13UnicodeStringEiRNS_12_GLOBAL__N_116CalendarDataSinkERNS_10CharStringER10UErrorCode(%"class.icu_69::UnicodeString"* nonnull %322, i32 0, %"struct.icu_69::(anonymous namespace)::CalendarDataSink"* nonnull dereferenceable(600) %52, %"class.icu_69::CharString"* dereferenceable(64) %328, i32* nonnull dereferenceable(4) %58)
  %329 = load %"class.icu_69::UnicodeString"*, %"class.icu_69::UnicodeString"** %115, align 8
  store i32 0, i32* %283, align 8
  %330 = load i8*, i8** %279, align 8
  store i8 0, i8* %330, align 1
  %331 = call dereferenceable(64) %"class.icu_69::CharString"* @_ZN6icu_6910CharString6appendEPKciR10UErrorCode(%"class.icu_69::CharString"* nonnull %57, i8* getelementptr inbounds ([14 x i8], [14 x i8]* @_ZN6icu_69L17gMonthPatternsTagE, i64 0, i64 0), i32 -1, i32* nonnull dereferenceable(4) %58) #13
  %332 = call dereferenceable(64) %"class.icu_69::CharString"* @_ZN6icu_6910CharString6appendEcR10UErrorCode(%"class.icu_69::CharString"* %331, i8 signext 47, i32* nonnull dereferenceable(4) %58) #13
  %333 = call dereferenceable(64) %"class.icu_69::CharString"* @_ZN6icu_6910CharString6appendEPKciR10UErrorCode(%"class.icu_69::CharString"* %332, i8* getelementptr inbounds ([7 x i8], [7 x i8]* @_ZN6icu_69L15gNamesFormatTagE, i64 0, i64 0), i32 -1, i32* nonnull dereferenceable(4) %58) #13
  %334 = call dereferenceable(64) %"class.icu_69::CharString"* @_ZN6icu_6910CharString6appendEcR10UErrorCode(%"class.icu_69::CharString"* %333, i8 signext 47, i32* nonnull dereferenceable(4) %58) #13
  %335 = call dereferenceable(64) %"class.icu_69::CharString"* @_ZN6icu_6910CharString6appendEPKciR10UErrorCode(%"class.icu_69::CharString"* %334, i8* getelementptr inbounds ([12 x i8], [12 x i8]* @_ZN6icu_69L13gNamesAbbrTagE, i64 0, i64 0), i32 -1, i32* nonnull dereferenceable(4) %58) #13
  call fastcc void @_ZN6icu_69L20initLeapMonthPatternEPNS_13UnicodeStringEiRNS_12_GLOBAL__N_116CalendarDataSinkERNS_10CharStringER10UErrorCode(%"class.icu_69::UnicodeString"* %329, i32 1, %"struct.icu_69::(anonymous namespace)::CalendarDataSink"* nonnull dereferenceable(600) %52, %"class.icu_69::CharString"* dereferenceable(64) %335, i32* nonnull dereferenceable(4) %58)
  %336 = load %"class.icu_69::UnicodeString"*, %"class.icu_69::UnicodeString"** %115, align 8
  store i32 0, i32* %283, align 8
  %337 = load i8*, i8** %279, align 8
  store i8 0, i8* %337, align 1
  %338 = call dereferenceable(64) %"class.icu_69::CharString"* @_ZN6icu_6910CharString6appendEPKciR10UErrorCode(%"class.icu_69::CharString"* nonnull %57, i8* getelementptr inbounds ([14 x i8], [14 x i8]* @_ZN6icu_69L17gMonthPatternsTagE, i64 0, i64 0), i32 -1, i32* nonnull dereferenceable(4) %58) #13
  %339 = call dereferenceable(64) %"class.icu_69::CharString"* @_ZN6icu_6910CharString6appendEcR10UErrorCode(%"class.icu_69::CharString"* %338, i8 signext 47, i32* nonnull dereferenceable(4) %58) #13
  %340 = call dereferenceable(64) %"class.icu_69::CharString"* @_ZN6icu_6910CharString6appendEPKciR10UErrorCode(%"class.icu_69::CharString"* %339, i8* getelementptr inbounds ([7 x i8], [7 x i8]* @_ZN6icu_69L15gNamesFormatTagE, i64 0, i64 0), i32 -1, i32* nonnull dereferenceable(4) %58) #13
  %341 = call dereferenceable(64) %"class.icu_69::CharString"* @_ZN6icu_6910CharString6appendEcR10UErrorCode(%"class.icu_69::CharString"* %340, i8 signext 47, i32* nonnull dereferenceable(4) %58) #13
  %342 = call dereferenceable(64) %"class.icu_69::CharString"* @_ZN6icu_6910CharString6appendEPKciR10UErrorCode(%"class.icu_69::CharString"* %341, i8* getelementptr inbounds ([7 x i8], [7 x i8]* @_ZN6icu_69L15gNamesNarrowTagE, i64 0, i64 0), i32 -1, i32* nonnull dereferenceable(4) %58) #13
  call fastcc void @_ZN6icu_69L20initLeapMonthPatternEPNS_13UnicodeStringEiRNS_12_GLOBAL__N_116CalendarDataSinkERNS_10CharStringER10UErrorCode(%"class.icu_69::UnicodeString"* %336, i32 2, %"struct.icu_69::(anonymous namespace)::CalendarDataSink"* nonnull dereferenceable(600) %52, %"class.icu_69::CharString"* dereferenceable(64) %342, i32* nonnull dereferenceable(4) %58)
  %343 = load %"class.icu_69::UnicodeString"*, %"class.icu_69::UnicodeString"** %115, align 8
  store i32 0, i32* %283, align 8
  %344 = load i8*, i8** %279, align 8
  store i8 0, i8* %344, align 1
  %345 = call dereferenceable(64) %"class.icu_69::CharString"* @_ZN6icu_6910CharString6appendEPKciR10UErrorCode(%"class.icu_69::CharString"* nonnull %57, i8* getelementptr inbounds ([14 x i8], [14 x i8]* @_ZN6icu_69L17gMonthPatternsTagE, i64 0, i64 0), i32 -1, i32* nonnull dereferenceable(4) %58) #13
  %346 = call dereferenceable(64) %"class.icu_69::CharString"* @_ZN6icu_6910CharString6appendEcR10UErrorCode(%"class.icu_69::CharString"* %345, i8 signext 47, i32* nonnull dereferenceable(4) %58) #13
  %347 = call dereferenceable(64) %"class.icu_69::CharString"* @_ZN6icu_6910CharString6appendEPKciR10UErrorCode(%"class.icu_69::CharString"* %346, i8* getelementptr inbounds ([12 x i8], [12 x i8]* @_ZN6icu_69L19gNamesStandaloneTagE, i64 0, i64 0), i32 -1, i32* nonnull dereferenceable(4) %58) #13
  %348 = call dereferenceable(64) %"class.icu_69::CharString"* @_ZN6icu_6910CharString6appendEcR10UErrorCode(%"class.icu_69::CharString"* %347, i8 signext 47, i32* nonnull dereferenceable(4) %58) #13
  %349 = call dereferenceable(64) %"class.icu_69::CharString"* @_ZN6icu_6910CharString6appendEPKciR10UErrorCode(%"class.icu_69::CharString"* %348, i8* getelementptr inbounds ([5 x i8], [5 x i8]* @_ZN6icu_69L13gNamesWideTagE, i64 0, i64 0), i32 -1, i32* nonnull dereferenceable(4) %58) #13
  call fastcc void @_ZN6icu_69L20initLeapMonthPatternEPNS_13UnicodeStringEiRNS_12_GLOBAL__N_116CalendarDataSinkERNS_10CharStringER10UErrorCode(%"class.icu_69::UnicodeString"* %343, i32 3, %"struct.icu_69::(anonymous namespace)::CalendarDataSink"* nonnull dereferenceable(600) %52, %"class.icu_69::CharString"* dereferenceable(64) %349, i32* nonnull dereferenceable(4) %58)
  %350 = load %"class.icu_69::UnicodeString"*, %"class.icu_69::UnicodeString"** %115, align 8
  store i32 0, i32* %283, align 8
  %351 = load i8*, i8** %279, align 8
  store i8 0, i8* %351, align 1
  %352 = call dereferenceable(64) %"class.icu_69::CharString"* @_ZN6icu_6910CharString6appendEPKciR10UErrorCode(%"class.icu_69::CharString"* nonnull %57, i8* getelementptr inbounds ([14 x i8], [14 x i8]* @_ZN6icu_69L17gMonthPatternsTagE, i64 0, i64 0), i32 -1, i32* nonnull dereferenceable(4) %58) #13
  %353 = call dereferenceable(64) %"class.icu_69::CharString"* @_ZN6icu_6910CharString6appendEcR10UErrorCode(%"class.icu_69::CharString"* %352, i8 signext 47, i32* nonnull dereferenceable(4) %58) #13
  %354 = call dereferenceable(64) %"class.icu_69::CharString"* @_ZN6icu_6910CharString6appendEPKciR10UErrorCode(%"class.icu_69::CharString"* %353, i8* getelementptr inbounds ([12 x i8], [12 x i8]* @_ZN6icu_69L19gNamesStandaloneTagE, i64 0, i64 0), i32 -1, i32* nonnull dereferenceable(4) %58) #13
  %355 = call dereferenceable(64) %"class.icu_69::CharString"* @_ZN6icu_6910CharString6appendEcR10UErrorCode(%"class.icu_69::CharString"* %354, i8 signext 47, i32* nonnull dereferenceable(4) %58) #13
  %356 = call dereferenceable(64) %"class.icu_69::CharString"* @_ZN6icu_6910CharString6appendEPKciR10UErrorCode(%"class.icu_69::CharString"* %355, i8* getelementptr inbounds ([12 x i8], [12 x i8]* @_ZN6icu_69L13gNamesAbbrTagE, i64 0, i64 0), i32 -1, i32* nonnull dereferenceable(4) %58) #13
  call fastcc void @_ZN6icu_69L20initLeapMonthPatternEPNS_13UnicodeStringEiRNS_12_GLOBAL__N_116CalendarDataSinkERNS_10CharStringER10UErrorCode(%"class.icu_69::UnicodeString"* %350, i32 4, %"struct.icu_69::(anonymous namespace)::CalendarDataSink"* nonnull dereferenceable(600) %52, %"class.icu_69::CharString"* dereferenceable(64) %356, i32* nonnull dereferenceable(4) %58)
  %357 = load %"class.icu_69::UnicodeString"*, %"class.icu_69::UnicodeString"** %115, align 8
  store i32 0, i32* %283, align 8
  %358 = load i8*, i8** %279, align 8
  store i8 0, i8* %358, align 1
  %359 = call dereferenceable(64) %"class.icu_69::CharString"* @_ZN6icu_6910CharString6appendEPKciR10UErrorCode(%"class.icu_69::CharString"* nonnull %57, i8* getelementptr inbounds ([14 x i8], [14 x i8]* @_ZN6icu_69L17gMonthPatternsTagE, i64 0, i64 0), i32 -1, i32* nonnull dereferenceable(4) %58) #13
  %360 = call dereferenceable(64) %"class.icu_69::CharString"* @_ZN6icu_6910CharString6appendEcR10UErrorCode(%"class.icu_69::CharString"* %359, i8 signext 47, i32* nonnull dereferenceable(4) %58) #13
  %361 = call dereferenceable(64) %"class.icu_69::CharString"* @_ZN6icu_6910CharString6appendEPKciR10UErrorCode(%"class.icu_69::CharString"* %360, i8* getelementptr inbounds ([12 x i8], [12 x i8]* @_ZN6icu_69L19gNamesStandaloneTagE, i64 0, i64 0), i32 -1, i32* nonnull dereferenceable(4) %58) #13
  %362 = call dereferenceable(64) %"class.icu_69::CharString"* @_ZN6icu_6910CharString6appendEcR10UErrorCode(%"class.icu_69::CharString"* %361, i8 signext 47, i32* nonnull dereferenceable(4) %58) #13
  %363 = call dereferenceable(64) %"class.icu_69::CharString"* @_ZN6icu_6910CharString6appendEPKciR10UErrorCode(%"class.icu_69::CharString"* %362, i8* getelementptr inbounds ([7 x i8], [7 x i8]* @_ZN6icu_69L15gNamesNarrowTagE, i64 0, i64 0), i32 -1, i32* nonnull dereferenceable(4) %58) #13
  call fastcc void @_ZN6icu_69L20initLeapMonthPatternEPNS_13UnicodeStringEiRNS_12_GLOBAL__N_116CalendarDataSinkERNS_10CharStringER10UErrorCode(%"class.icu_69::UnicodeString"* %357, i32 5, %"struct.icu_69::(anonymous namespace)::CalendarDataSink"* nonnull dereferenceable(600) %52, %"class.icu_69::CharString"* dereferenceable(64) %363, i32* nonnull dereferenceable(4) %58)
  %364 = load %"class.icu_69::UnicodeString"*, %"class.icu_69::UnicodeString"** %115, align 8
  store i32 0, i32* %283, align 8
  %365 = load i8*, i8** %279, align 8
  store i8 0, i8* %365, align 1
  %366 = call dereferenceable(64) %"class.icu_69::CharString"* @_ZN6icu_6910CharString6appendEPKciR10UErrorCode(%"class.icu_69::CharString"* nonnull %57, i8* getelementptr inbounds ([14 x i8], [14 x i8]* @_ZN6icu_69L17gMonthPatternsTagE, i64 0, i64 0), i32 -1, i32* nonnull dereferenceable(4) %58) #13
  %367 = call dereferenceable(64) %"class.icu_69::CharString"* @_ZN6icu_6910CharString6appendEcR10UErrorCode(%"class.icu_69::CharString"* %366, i8 signext 47, i32* nonnull dereferenceable(4) %58) #13
  %368 = call dereferenceable(64) %"class.icu_69::CharString"* @_ZN6icu_6910CharString6appendEPKciR10UErrorCode(%"class.icu_69::CharString"* %367, i8* getelementptr inbounds ([8 x i8], [8 x i8]* @_ZN6icu_69L16gNamesNumericTagE, i64 0, i64 0), i32 -1, i32* nonnull dereferenceable(4) %58) #13
  %369 = call dereferenceable(64) %"class.icu_69::CharString"* @_ZN6icu_6910CharString6appendEcR10UErrorCode(%"class.icu_69::CharString"* %368, i8 signext 47, i32* nonnull dereferenceable(4) %58) #13
  %370 = call dereferenceable(64) %"class.icu_69::CharString"* @_ZN6icu_6910CharString6appendEPKciR10UErrorCode(%"class.icu_69::CharString"* %369, i8* getelementptr inbounds ([4 x i8], [4 x i8]* @_ZN6icu_69L12gNamesAllTagE, i64 0, i64 0), i32 -1, i32* nonnull dereferenceable(4) %58) #13
  call fastcc void @_ZN6icu_69L20initLeapMonthPatternEPNS_13UnicodeStringEiRNS_12_GLOBAL__N_116CalendarDataSinkERNS_10CharStringER10UErrorCode(%"class.icu_69::UnicodeString"* %364, i32 6, %"struct.icu_69::(anonymous namespace)::CalendarDataSink"* nonnull dereferenceable(600) %52, %"class.icu_69::CharString"* dereferenceable(64) %370, i32* nonnull dereferenceable(4) %58)
  %371 = load i32, i32* %58, align 4
  %372 = icmp sgt i32 %371, 0
  %373 = load %"class.icu_69::UnicodeString"*, %"class.icu_69::UnicodeString"** %115, align 8
  br i1 %372, label %411, label %374

374:                                              ; preds = %321
  %375 = getelementptr inbounds %"class.icu_69::UnicodeString", %"class.icu_69::UnicodeString"* %373, i64 1, i32 1, i32 0, i32 0
  %376 = load i16, i16* %375, align 8
  %377 = icmp ugt i16 %376, 31
  br i1 %377, label %382, label %378

378:                                              ; preds = %374
  %379 = getelementptr inbounds %"class.icu_69::UnicodeString", %"class.icu_69::UnicodeString"* %373, i64 1
  %380 = call dereferenceable(64) %"class.icu_69::UnicodeString"* @_ZN6icu_6913UnicodeString8copyFromERKS0_a(%"class.icu_69::UnicodeString"* %379, %"class.icu_69::UnicodeString"* dereferenceable(64) %373, i8 signext 0) #13
  %381 = load %"class.icu_69::UnicodeString"*, %"class.icu_69::UnicodeString"** %115, align 8
  br label %382

382:                                              ; preds = %374, %378
  %383 = phi %"class.icu_69::UnicodeString"* [ %373, %374 ], [ %381, %378 ]
  %384 = getelementptr inbounds %"class.icu_69::UnicodeString", %"class.icu_69::UnicodeString"* %383, i64 2, i32 1, i32 0, i32 0
  %385 = load i16, i16* %384, align 8
  %386 = icmp ugt i16 %385, 31
  br i1 %386, label %392, label %387

387:                                              ; preds = %382
  %388 = getelementptr inbounds %"class.icu_69::UnicodeString", %"class.icu_69::UnicodeString"* %383, i64 2
  %389 = getelementptr inbounds %"class.icu_69::UnicodeString", %"class.icu_69::UnicodeString"* %383, i64 5
  %390 = call dereferenceable(64) %"class.icu_69::UnicodeString"* @_ZN6icu_6913UnicodeString8copyFromERKS0_a(%"class.icu_69::UnicodeString"* %388, %"class.icu_69::UnicodeString"* dereferenceable(64) %389, i8 signext 0) #13
  %391 = load %"class.icu_69::UnicodeString"*, %"class.icu_69::UnicodeString"** %115, align 8
  br label %392

392:                                              ; preds = %382, %387
  %393 = phi %"class.icu_69::UnicodeString"* [ %383, %382 ], [ %391, %387 ]
  %394 = getelementptr inbounds %"class.icu_69::UnicodeString", %"class.icu_69::UnicodeString"* %393, i64 3, i32 1, i32 0, i32 0
  %395 = load i16, i16* %394, align 8
  %396 = icmp ugt i16 %395, 31
  br i1 %396, label %401, label %397

397:                                              ; preds = %392
  %398 = getelementptr inbounds %"class.icu_69::UnicodeString", %"class.icu_69::UnicodeString"* %393, i64 3
  %399 = call dereferenceable(64) %"class.icu_69::UnicodeString"* @_ZN6icu_6913UnicodeString8copyFromERKS0_a(%"class.icu_69::UnicodeString"* %398, %"class.icu_69::UnicodeString"* dereferenceable(64) %393, i8 signext 0) #13
  %400 = load %"class.icu_69::UnicodeString"*, %"class.icu_69::UnicodeString"** %115, align 8
  br label %401

401:                                              ; preds = %392, %397
  %402 = phi %"class.icu_69::UnicodeString"* [ %393, %392 ], [ %400, %397 ]
  %403 = getelementptr inbounds %"class.icu_69::UnicodeString", %"class.icu_69::UnicodeString"* %402, i64 4, i32 1, i32 0, i32 0
  %404 = load i16, i16* %403, align 8
  %405 = icmp ugt i16 %404, 31
  br i1 %405, label %410, label %406

406:                                              ; preds = %401
  %407 = getelementptr inbounds %"class.icu_69::UnicodeString", %"class.icu_69::UnicodeString"* %402, i64 4
  %408 = getelementptr inbounds %"class.icu_69::UnicodeString", %"class.icu_69::UnicodeString"* %402, i64 1
  %409 = call dereferenceable(64) %"class.icu_69::UnicodeString"* @_ZN6icu_6913UnicodeString8copyFromERKS0_a(%"class.icu_69::UnicodeString"* %407, %"class.icu_69::UnicodeString"* dereferenceable(64) %408, i8 signext 0) #13
  br label %410

410:                                              ; preds = %401, %406
  store i32 7, i32* %116, align 8
  br label %426

411:                                              ; preds = %321
  %412 = icmp eq %"class.icu_69::UnicodeString"* %373, null
  br i1 %412, label %425, label %413

413:                                              ; preds = %411
  %414 = getelementptr inbounds %"class.icu_69::UnicodeString", %"class.icu_69::UnicodeString"* %373, i64 -1, i32 1, i32 1, i64 24
  %415 = bitcast i8* %414 to i64*
  %416 = load i64, i64* %415, align 8
  %417 = icmp eq i64 %416, 0
  br i1 %417, label %424, label %418

418:                                              ; preds = %413
  %419 = getelementptr inbounds %"class.icu_69::UnicodeString", %"class.icu_69::UnicodeString"* %373, i64 %416
  br label %420

420:                                              ; preds = %418, %420
  %421 = phi %"class.icu_69::UnicodeString"* [ %422, %420 ], [ %419, %418 ]
  %422 = getelementptr inbounds %"class.icu_69::UnicodeString", %"class.icu_69::UnicodeString"* %421, i64 -1
  call void @_ZN6icu_6913UnicodeStringD1Ev(%"class.icu_69::UnicodeString"* %422) #13
  %423 = icmp eq %"class.icu_69::UnicodeString"* %422, %373
  br i1 %423, label %424, label %420

424:                                              ; preds = %420, %413
  call void @_ZN6icu_697UMemorydaEPv(i8* %414) #13
  br label %425

425:                                              ; preds = %424, %411
  store %"class.icu_69::UnicodeString"* null, %"class.icu_69::UnicodeString"** %115, align 8
  br label %426

426:                                              ; preds = %288, %289, %410, %425
  %427 = load i32, i32* %3, align 4
  store i32 %427, i32* %58, align 4
  store i32 0, i32* %283, align 8
  %428 = load i8*, i8** %279, align 8
  store i8 0, i8* %428, align 1
  %429 = call dereferenceable(64) %"class.icu_69::CharString"* @_ZN6icu_6910CharString6appendEPKciR10UErrorCode(%"class.icu_69::CharString"* nonnull %57, i8* getelementptr inbounds ([15 x i8], [15 x i8]* @_ZN6icu_69L18gCyclicNameSetsTagE, i64 0, i64 0), i32 -1, i32* nonnull dereferenceable(4) %58) #13
  %430 = call dereferenceable(64) %"class.icu_69::CharString"* @_ZN6icu_6910CharString6appendEcR10UErrorCode(%"class.icu_69::CharString"* %429, i8 signext 47, i32* nonnull dereferenceable(4) %58) #13
  %431 = call dereferenceable(64) %"class.icu_69::CharString"* @_ZN6icu_6910CharString6appendEPKciR10UErrorCode(%"class.icu_69::CharString"* %430, i8* getelementptr inbounds ([6 x i8], [6 x i8]* @_ZN6icu_69L16gNameSetYearsTagE, i64 0, i64 0), i32 -1, i32* nonnull dereferenceable(4) %58) #13
  %432 = call dereferenceable(64) %"class.icu_69::CharString"* @_ZN6icu_6910CharString6appendEcR10UErrorCode(%"class.icu_69::CharString"* %431, i8 signext 47, i32* nonnull dereferenceable(4) %58) #13
  %433 = call dereferenceable(64) %"class.icu_69::CharString"* @_ZN6icu_6910CharString6appendEPKciR10UErrorCode(%"class.icu_69::CharString"* %432, i8* getelementptr inbounds ([7 x i8], [7 x i8]* @_ZN6icu_69L15gNamesFormatTagE, i64 0, i64 0), i32 -1, i32* nonnull dereferenceable(4) %58) #13
  %434 = call dereferenceable(64) %"class.icu_69::CharString"* @_ZN6icu_6910CharString6appendEcR10UErrorCode(%"class.icu_69::CharString"* %433, i8 signext 47, i32* nonnull dereferenceable(4) %58) #13
  %435 = call dereferenceable(64) %"class.icu_69::CharString"* @_ZN6icu_6910CharString6appendEPKciR10UErrorCode(%"class.icu_69::CharString"* %434, i8* getelementptr inbounds ([12 x i8], [12 x i8]* @_ZN6icu_69L13gNamesAbbrTagE, i64 0, i64 0), i32 -1, i32* nonnull dereferenceable(4) %58) #13
  %436 = load i32, i32* %58, align 4
  %437 = icmp sgt i32 %436, 0
  br i1 %437, label %453, label %438

438:                                              ; preds = %426
  %439 = bitcast %"class.icu_69::UnicodeString"* %50 to i8*
  call void @llvm.lifetime.start.p0i8(i64 64, i8* nonnull %439) #13
  call void @llvm.memset.p0i8.i64(i8* nonnull align 8 %439, i8 -86, i64 64, i1 false) #13
  %440 = getelementptr inbounds %"class.icu_69::CharString", %"class.icu_69::CharString"* %435, i64 0, i32 0, i32 0
  %441 = load i8*, i8** %440, align 8
  call void @_ZN6icu_6913UnicodeStringC1EPKciNS0_10EInvariantE(%"class.icu_69::UnicodeString"* nonnull %50, i8* %441, i32 -1, i32 0) #13
  %442 = load %struct.UHashtable*, %struct.UHashtable** %143, align 8
  %443 = call i8* @uhash_get_69(%struct.UHashtable* %442, i8* nonnull %439) #13
  %444 = icmp eq i8* %443, null
  br i1 %444, label %451, label %445

445:                                              ; preds = %438
  %446 = load %struct.UHashtable*, %struct.UHashtable** %176, align 8
  %447 = call i32 @uhash_geti_69(%struct.UHashtable* %446, i8* nonnull %439) #13
  store i32 %447, i32* %118, align 4
  %448 = bitcast %"class.icu_69::UnicodeString"** %117 to i8**
  store i8* %443, i8** %448, align 8
  %449 = load %struct.UHashtable*, %struct.UHashtable** %143, align 8
  %450 = call i8* @uhash_remove_69(%struct.UHashtable* %449, i8* nonnull %439) #13
  br label %452

451:                                              ; preds = %438
  store i32 0, i32* %118, align 4
  store i32 2, i32* %58, align 4
  br label %452

452:                                              ; preds = %451, %445
  call void @_ZN6icu_6913UnicodeStringD1Ev(%"class.icu_69::UnicodeString"* nonnull %50) #13
  call void @llvm.lifetime.end.p0i8(i64 64, i8* nonnull %439) #13
  br label %453

453:                                              ; preds = %426, %452
  store i32 0, i32* %283, align 8
  %454 = load i8*, i8** %279, align 8
  store i8 0, i8* %454, align 1
  %455 = call dereferenceable(64) %"class.icu_69::CharString"* @_ZN6icu_6910CharString6appendEPKciR10UErrorCode(%"class.icu_69::CharString"* nonnull %57, i8* getelementptr inbounds ([15 x i8], [15 x i8]* @_ZN6icu_69L18gCyclicNameSetsTagE, i64 0, i64 0), i32 -1, i32* nonnull dereferenceable(4) %58) #13
  %456 = call dereferenceable(64) %"class.icu_69::CharString"* @_ZN6icu_6910CharString6appendEcR10UErrorCode(%"class.icu_69::CharString"* %455, i8 signext 47, i32* nonnull dereferenceable(4) %58) #13
  %457 = call dereferenceable(64) %"class.icu_69::CharString"* @_ZN6icu_6910CharString6appendEPKciR10UErrorCode(%"class.icu_69::CharString"* %456, i8* getelementptr inbounds ([8 x i8], [8 x i8]* @_ZN6icu_69L18gNameSetZodiacsTagE, i64 0, i64 0), i32 -1, i32* nonnull dereferenceable(4) %58) #13
  %458 = call dereferenceable(64) %"class.icu_69::CharString"* @_ZN6icu_6910CharString6appendEcR10UErrorCode(%"class.icu_69::CharString"* %457, i8 signext 47, i32* nonnull dereferenceable(4) %58) #13
  %459 = call dereferenceable(64) %"class.icu_69::CharString"* @_ZN6icu_6910CharString6appendEPKciR10UErrorCode(%"class.icu_69::CharString"* %458, i8* getelementptr inbounds ([7 x i8], [7 x i8]* @_ZN6icu_69L15gNamesFormatTagE, i64 0, i64 0), i32 -1, i32* nonnull dereferenceable(4) %58) #13
  %460 = call dereferenceable(64) %"class.icu_69::CharString"* @_ZN6icu_6910CharString6appendEcR10UErrorCode(%"class.icu_69::CharString"* %459, i8 signext 47, i32* nonnull dereferenceable(4) %58) #13
  %461 = call dereferenceable(64) %"class.icu_69::CharString"* @_ZN6icu_6910CharString6appendEPKciR10UErrorCode(%"class.icu_69::CharString"* %460, i8* getelementptr inbounds ([12 x i8], [12 x i8]* @_ZN6icu_69L13gNamesAbbrTagE, i64 0, i64 0), i32 -1, i32* nonnull dereferenceable(4) %58) #13
  %462 = load i32, i32* %58, align 4
  %463 = icmp sgt i32 %462, 0
  br i1 %463, label %479, label %464

464:                                              ; preds = %453
  %465 = bitcast %"class.icu_69::UnicodeString"* %49 to i8*
  call void @llvm.lifetime.start.p0i8(i64 64, i8* nonnull %465) #13
  call void @llvm.memset.p0i8.i64(i8* nonnull align 8 %465, i8 -86, i64 64, i1 false) #13
  %466 = getelementptr inbounds %"class.icu_69::CharString", %"class.icu_69::CharString"* %461, i64 0, i32 0, i32 0
  %467 = load i8*, i8** %466, align 8
  call void @_ZN6icu_6913UnicodeStringC1EPKciNS0_10EInvariantE(%"class.icu_69::UnicodeString"* nonnull %49, i8* %467, i32 -1, i32 0) #13
  %468 = load %struct.UHashtable*, %struct.UHashtable** %143, align 8
  %469 = call i8* @uhash_get_69(%struct.UHashtable* %468, i8* nonnull %465) #13
  %470 = icmp eq i8* %469, null
  br i1 %470, label %477, label %471

471:                                              ; preds = %464
  %472 = load %struct.UHashtable*, %struct.UHashtable** %176, align 8
  %473 = call i32 @uhash_geti_69(%struct.UHashtable* %472, i8* nonnull %465) #13
  store i32 %473, i32* %120, align 4
  %474 = bitcast %"class.icu_69::UnicodeString"** %119 to i8**
  store i8* %469, i8** %474, align 8
  %475 = load %struct.UHashtable*, %struct.UHashtable** %143, align 8
  %476 = call i8* @uhash_remove_69(%struct.UHashtable* %475, i8* nonnull %465) #13
  br label %478

477:                                              ; preds = %464
  store i32 0, i32* %120, align 4
  store i32 2, i32* %58, align 4
  br label %478

478:                                              ; preds = %477, %471
  call void @_ZN6icu_6913UnicodeStringD1Ev(%"class.icu_69::UnicodeString"* nonnull %49) #13
  call void @llvm.lifetime.end.p0i8(i64 64, i8* nonnull %465) #13
  br label %479

479:                                              ; preds = %453, %478
  store i32 0, i32* %58, align 4
  %480 = getelementptr inbounds %"class.icu_69::Locale", %"class.icu_69::Locale"* %1, i64 0, i32 7
  %481 = load i8*, i8** %480, align 8
  %482 = call %struct.UResourceBundle* @ures_open_69(i8* null, i8* %481, i32* nonnull %58) #13
  %483 = load i32, i32* %58, align 4
  %484 = icmp sgt i32 %483, 0
  br i1 %484, label %581, label %485

485:                                              ; preds = %479
  %486 = call %struct.UResourceBundle* @ures_getByKeyWithFallback_69(%struct.UResourceBundle* %482, i8* getelementptr inbounds ([18 x i8], [18 x i8]* @_ZN6icu_69L21gContextTransformsTagE, i64 0, i64 0), %struct.UResourceBundle* null, i32* nonnull %58) #13
  %487 = load i32, i32* %58, align 4
  %488 = icmp sgt i32 %487, 0
  br i1 %488, label %532, label %489

489:                                              ; preds = %485
  %490 = call %struct.UResourceBundle* @ures_getNextResource_69(%struct.UResourceBundle* %486, %struct.UResourceBundle* null, i32* nonnull %58) #13
  %491 = icmp eq %struct.UResourceBundle* %490, null
  br i1 %491, label %531, label %492

492:                                              ; preds = %489, %528
  %493 = phi %struct.UResourceBundle* [ %529, %528 ], [ %490, %489 ]
  %494 = call i32* @ures_getIntVector_69(%struct.UResourceBundle* nonnull %493, i32* nonnull %51, i32* %3) #13
  %495 = load i32, i32* %58, align 4
  %496 = icmp slt i32 %495, 1
  %497 = icmp ne i32* %494, null
  %498 = and i1 %497, %496
  %499 = load i32, i32* %51, align 4
  %500 = icmp sgt i32 %499, 1
  %501 = and i1 %498, %500
  br i1 %501, label %502, label %528

502:                                              ; preds = %492
  %503 = call i8* @ures_getKey_69(%struct.UResourceBundle* nonnull %493) #13
  %504 = icmp eq i8* %503, null
  br i1 %504, label %528, label %505

505:                                              ; preds = %502
  %506 = call i32 @strcmp(i8* nonnull %503, i8* nonnull getelementptr inbounds ([25 x i8], [25 x i8]* @.str.1, i64 0, i64 0)) #14
  %507 = icmp sgt i32 %506, 0
  br i1 %507, label %508, label %511

508:                                              ; preds = %505
  %509 = call i32 @strcmp(i8* nonnull %503, i8* nonnull getelementptr inbounds ([11 x i8], [11 x i8]* @.str.2, i64 0, i64 0)) #14
  %510 = icmp sgt i32 %509, 0
  br i1 %510, label %3926, label %511

511:                                              ; preds = %3956, %3953, %3950, %3947, %3944, %3941, %3938, %3935, %3932, %3929, %3926, %508, %505
  %512 = phi %"struct.icu_69::ContextUsageTypeNameToEnumValue"* [ getelementptr inbounds ([14 x %"struct.icu_69::ContextUsageTypeNameToEnumValue"], [14 x %"struct.icu_69::ContextUsageTypeNameToEnumValue"]* @_ZN6icu_69L19contextUsageTypeMapE, i64 0, i64 0), %505 ], [ getelementptr inbounds ([14 x %"struct.icu_69::ContextUsageTypeNameToEnumValue"], [14 x %"struct.icu_69::ContextUsageTypeNameToEnumValue"]* @_ZN6icu_69L19contextUsageTypeMapE, i64 0, i64 1), %508 ], [ getelementptr inbounds ([14 x %"struct.icu_69::ContextUsageTypeNameToEnumValue"], [14 x %"struct.icu_69::ContextUsageTypeNameToEnumValue"]* @_ZN6icu_69L19contextUsageTypeMapE, i64 0, i64 2), %3926 ], [ getelementptr inbounds ([14 x %"struct.icu_69::ContextUsageTypeNameToEnumValue"], [14 x %"struct.icu_69::ContextUsageTypeNameToEnumValue"]* @_ZN6icu_69L19contextUsageTypeMapE, i64 0, i64 3), %3929 ], [ getelementptr inbounds ([14 x %"struct.icu_69::ContextUsageTypeNameToEnumValue"], [14 x %"struct.icu_69::ContextUsageTypeNameToEnumValue"]* @_ZN6icu_69L19contextUsageTypeMapE, i64 0, i64 4), %3932 ], [ getelementptr inbounds ([14 x %"struct.icu_69::ContextUsageTypeNameToEnumValue"], [14 x %"struct.icu_69::ContextUsageTypeNameToEnumValue"]* @_ZN6icu_69L19contextUsageTypeMapE, i64 0, i64 5), %3935 ], [ getelementptr inbounds ([14 x %"struct.icu_69::ContextUsageTypeNameToEnumValue"], [14 x %"struct.icu_69::ContextUsageTypeNameToEnumValue"]* @_ZN6icu_69L19contextUsageTypeMapE, i64 0, i64 6), %3938 ], [ getelementptr inbounds ([14 x %"struct.icu_69::ContextUsageTypeNameToEnumValue"], [14 x %"struct.icu_69::ContextUsageTypeNameToEnumValue"]* @_ZN6icu_69L19contextUsageTypeMapE, i64 0, i64 7), %3941 ], [ getelementptr inbounds ([14 x %"struct.icu_69::ContextUsageTypeNameToEnumValue"], [14 x %"struct.icu_69::ContextUsageTypeNameToEnumValue"]* @_ZN6icu_69L19contextUsageTypeMapE, i64 0, i64 8), %3944 ], [ getelementptr inbounds ([14 x %"struct.icu_69::ContextUsageTypeNameToEnumValue"], [14 x %"struct.icu_69::ContextUsageTypeNameToEnumValue"]* @_ZN6icu_69L19contextUsageTypeMapE, i64 0, i64 9), %3947 ], [ getelementptr inbounds ([14 x %"struct.icu_69::ContextUsageTypeNameToEnumValue"], [14 x %"struct.icu_69::ContextUsageTypeNameToEnumValue"]* @_ZN6icu_69L19contextUsageTypeMapE, i64 0, i64 10), %3950 ], [ getelementptr inbounds ([14 x %"struct.icu_69::ContextUsageTypeNameToEnumValue"], [14 x %"struct.icu_69::ContextUsageTypeNameToEnumValue"]* @_ZN6icu_69L19contextUsageTypeMapE, i64 0, i64 11), %3953 ], [ getelementptr inbounds ([14 x %"struct.icu_69::ContextUsageTypeNameToEnumValue"], [14 x %"struct.icu_69::ContextUsageTypeNameToEnumValue"]* @_ZN6icu_69L19contextUsageTypeMapE, i64 0, i64 12), %3956 ]
  %513 = phi i32 [ %506, %505 ], [ %509, %508 ], [ %3927, %3926 ], [ %3930, %3929 ], [ %3933, %3932 ], [ %3936, %3935 ], [ %3939, %3938 ], [ %3942, %3941 ], [ %3945, %3944 ], [ %3948, %3947 ], [ %3951, %3950 ], [ %3954, %3953 ], [ %3957, %3956 ]
  %514 = icmp eq i32 %513, 0
  br i1 %514, label %515, label %528

515:                                              ; preds = %511
  %516 = load i32, i32* %494, align 4
  %517 = trunc i32 %516 to i8
  %518 = getelementptr inbounds %"struct.icu_69::ContextUsageTypeNameToEnumValue", %"struct.icu_69::ContextUsageTypeNameToEnumValue"* %512, i64 0, i32 1
  %519 = load i32, i32* %518, align 8
  %520 = zext i32 %519 to i64
  %521 = getelementptr inbounds %"class.icu_69::DateFormatSymbols", %"class.icu_69::DateFormatSymbols"* %0, i64 0, i32 86, i64 %520, i64 0
  store i8 %517, i8* %521, align 2
  %522 = getelementptr inbounds i32, i32* %494, i64 1
  %523 = load i32, i32* %522, align 4
  %524 = trunc i32 %523 to i8
  %525 = load i32, i32* %518, align 8
  %526 = zext i32 %525 to i64
  %527 = getelementptr inbounds %"class.icu_69::DateFormatSymbols", %"class.icu_69::DateFormatSymbols"* %0, i64 0, i32 86, i64 %526, i64 1
  store i8 %524, i8* %527, align 1
  br label %528

528:                                              ; preds = %3956, %502, %515, %511, %492
  store i32 0, i32* %58, align 4
  call void @ures_close_69(%struct.UResourceBundle* nonnull %493) #13
  %529 = call %struct.UResourceBundle* @ures_getNextResource_69(%struct.UResourceBundle* %486, %struct.UResourceBundle* null, i32* nonnull %58) #13
  %530 = icmp eq %struct.UResourceBundle* %529, null
  br i1 %530, label %531, label %492

531:                                              ; preds = %528, %489
  call void @ures_close_69(%struct.UResourceBundle* %486) #13
  br label %532

532:                                              ; preds = %485, %531
  store i32 0, i32* %58, align 4
  %533 = call %"class.icu_69::NumberingSystem"* @_ZN6icu_6915NumberingSystem14createInstanceERKNS_6LocaleER10UErrorCode(%"class.icu_69::Locale"* dereferenceable(224) %1, i32* nonnull dereferenceable(4) %58) #13
  %534 = icmp ne %"class.icu_69::NumberingSystem"* %533, null
  %535 = load i32, i32* %58, align 4
  %536 = icmp sgt i32 %535, 0
  %537 = or i1 %534, %536
  br i1 %537, label %539, label %538

538:                                              ; preds = %532
  store i32 7, i32* %58, align 4
  call void @ures_close_69(%struct.UResourceBundle* %482) #13
  br label %581

539:                                              ; preds = %532
  %540 = icmp sgt i32 %535, 0
  br i1 %540, label %574, label %541

541:                                              ; preds = %539
  %542 = call %struct.UResourceBundle* @ures_getByKeyWithFallback_69(%struct.UResourceBundle* %482, i8* getelementptr inbounds ([15 x i8], [15 x i8]* @_ZN6icu_69L18gNumberElementsTagE, i64 0, i64 0), %struct.UResourceBundle* null, i32* nonnull %58) #13
  %543 = call i8* @_ZNK6icu_6915NumberingSystem7getNameEv(%"class.icu_69::NumberingSystem"* %533) #13
  %544 = call %struct.UResourceBundle* @ures_getByKeyWithFallback_69(%struct.UResourceBundle* %542, i8* %543, %struct.UResourceBundle* null, i32* nonnull %58) #13
  %545 = call %struct.UResourceBundle* @ures_getByKeyWithFallback_69(%struct.UResourceBundle* %544, i8* getelementptr inbounds ([8 x i8], [8 x i8]* @_ZN6icu_69L11gSymbolsTagE, i64 0, i64 0), %struct.UResourceBundle* null, i32* nonnull %58) #13
  %546 = bitcast %"class.icu_69::UnicodeString"* %59 to i8*
  call void @llvm.lifetime.start.p0i8(i64 64, i8* nonnull %546) #13
  %547 = bitcast %"class.icu_69::ConstChar16Ptr"* %48 to i8*
  call void @llvm.lifetime.start.p0i8(i64 8, i8* nonnull %547)
  call void @llvm.memset.p0i8.i64(i8* nonnull align 8 %546, i8 -86, i64 64, i1 false) #13, !alias.scope !3
  %548 = getelementptr inbounds %"class.icu_69::UnicodeString", %"class.icu_69::UnicodeString"* %59, i64 0, i32 0, i32 0, i32 0
  store i32 (...)** bitcast (i8** getelementptr inbounds ({ [13 x i8*] }, { [13 x i8*] }* @_ZTVN6icu_6913UnicodeStringE, i64 0, inrange i32 0, i64 2) to i32 (...)**), i32 (...)*** %548, align 8, !alias.scope !3
  %549 = getelementptr inbounds %"class.icu_69::UnicodeString", %"class.icu_69::UnicodeString"* %59, i64 0, i32 1, i32 0, i32 0
  store i16 2, i16* %549, align 8, !alias.scope !3
  %550 = bitcast i32* %47 to i8*
  call void @llvm.lifetime.start.p0i8(i64 4, i8* nonnull %550) #13, !noalias !3
  store i32 0, i32* %47, align 4, !noalias !3
  %551 = call i16* @ures_getStringByKey_69(%struct.UResourceBundle* %545, i8* getelementptr inbounds ([14 x i8], [14 x i8]* @_ZN6icu_69L17gTimeSeparatorTagE, i64 0, i64 0), i32* nonnull %47, i32* nonnull %58) #13, !noalias !3
  %552 = load i32, i32* %58, align 4, !noalias !3
  %553 = icmp sgt i32 %552, 0
  br i1 %553, label %559, label %554

554:                                              ; preds = %541
  %555 = getelementptr inbounds %"class.icu_69::ConstChar16Ptr", %"class.icu_69::ConstChar16Ptr"* %48, i64 0, i32 0
  store i16* %551, i16** %555, align 8, !noalias !3
  %556 = load i32, i32* %47, align 4, !noalias !3
  %557 = call dereferenceable(64) %"class.icu_69::UnicodeString"* @_ZN6icu_6913UnicodeString5setToEaNS_14ConstChar16PtrEi(%"class.icu_69::UnicodeString"* nonnull %59, i8 signext 1, %"class.icu_69::ConstChar16Ptr"* nonnull %48, i32 %556) #13
  %558 = load i16*, i16** %555, align 8, !noalias !3
  call void asm sideeffect "", "rm,~{memory},~{dirflag},~{fpsr},~{flags}"(i16* %558) #13, !srcloc !2
  br label %560

559:                                              ; preds = %541
  call void @_ZN6icu_6913UnicodeString10setToBogusEv(%"class.icu_69::UnicodeString"* nonnull %59) #13
  br label %560

560:                                              ; preds = %554, %559
  call void @llvm.lifetime.end.p0i8(i64 4, i8* nonnull %550) #13, !noalias !3
  call void @llvm.lifetime.end.p0i8(i64 8, i8* nonnull %547)
  %561 = call dereferenceable(64) %"class.icu_69::UnicodeString"* @_ZN6icu_6913UnicodeStringaSEOS0_(%"class.icu_69::UnicodeString"* %106, %"class.icu_69::UnicodeString"* nonnull dereferenceable(64) %59) #13
  call void @_ZN6icu_6913UnicodeStringD1Ev(%"class.icu_69::UnicodeString"* nonnull %59) #13
  call void @llvm.lifetime.end.p0i8(i64 64, i8* nonnull %546) #13
  %562 = load i32, i32* %58, align 4
  %563 = icmp slt i32 %562, 1
  br i1 %563, label %565, label %564

564:                                              ; preds = %560
  call void @_ZN6icu_6913UnicodeString10setToBogusEv(%"class.icu_69::UnicodeString"* %106) #13
  br label %565

565:                                              ; preds = %560, %564
  %566 = icmp eq %struct.UResourceBundle* %545, null
  br i1 %566, label %568, label %567

567:                                              ; preds = %565
  call void @ures_close_69(%struct.UResourceBundle* nonnull %545) #13
  br label %568

568:                                              ; preds = %565, %567
  %569 = icmp eq %struct.UResourceBundle* %544, null
  br i1 %569, label %571, label %570

570:                                              ; preds = %568
  call void @ures_close_69(%struct.UResourceBundle* nonnull %544) #13
  br label %571

571:                                              ; preds = %568, %570
  %572 = icmp eq %struct.UResourceBundle* %542, null
  br i1 %572, label %574, label %573

573:                                              ; preds = %571
  call void @ures_close_69(%struct.UResourceBundle* nonnull %542) #13
  br label %574

574:                                              ; preds = %573, %571, %539
  call void @ures_close_69(%struct.UResourceBundle* %482) #13
  %575 = icmp eq %"class.icu_69::NumberingSystem"* %533, null
  br i1 %575, label %581, label %576

576:                                              ; preds = %574
  %577 = bitcast %"class.icu_69::NumberingSystem"* %533 to void (%"class.icu_69::NumberingSystem"*)***
  %578 = load void (%"class.icu_69::NumberingSystem"*)**, void (%"class.icu_69::NumberingSystem"*)*** %577, align 8
  %579 = getelementptr inbounds void (%"class.icu_69::NumberingSystem"*)*, void (%"class.icu_69::NumberingSystem"*)** %578, i64 1
  %580 = load void (%"class.icu_69::NumberingSystem"*)*, void (%"class.icu_69::NumberingSystem"*)** %579, align 8
  call void %580(%"class.icu_69::NumberingSystem"* nonnull %533) #13
  br label %581

581:                                              ; preds = %538, %576, %574, %479
  %582 = getelementptr inbounds %"class.icu_69::DateFormatSymbols", %"class.icu_69::DateFormatSymbols"* %0, i64 0, i32 58, i32 1, i32 0, i32 0
  %583 = load i16, i16* %582, align 8
  %584 = and i16 %583, 1
  %585 = icmp eq i16 %584, 0
  br i1 %585, label %599, label %586

586:                                              ; preds = %581
  %587 = bitcast i16* %46 to i8*
  call void @llvm.lifetime.start.p0i8(i64 2, i8* nonnull %587)
  store i16 58, i16* %46, align 2
  call void @_ZN6icu_6913UnicodeString7unBogusEv(%"class.icu_69::UnicodeString"* %106) #13
  %588 = load i16, i16* %582, align 8
  %589 = icmp slt i16 %588, 0
  br i1 %589, label %593, label %590

590:                                              ; preds = %586
  %591 = lshr i16 %588, 5
  %592 = zext i16 %591 to i32
  br label %596

593:                                              ; preds = %586
  %594 = getelementptr inbounds %"class.icu_69::DateFormatSymbols", %"class.icu_69::DateFormatSymbols"* %0, i64 0, i32 58, i32 1, i32 0, i32 1
  %595 = load i32, i32* %594, align 4
  br label %596

596:                                              ; preds = %590, %593
  %597 = phi i32 [ %592, %590 ], [ %595, %593 ]
  %598 = call dereferenceable(64) %"class.icu_69::UnicodeString"* @_ZN6icu_6913UnicodeString9doReplaceEiiPKDsii(%"class.icu_69::UnicodeString"* %106, i32 0, i32 %597, i16* nonnull %46, i32 0, i32 1) #13
  call void @llvm.lifetime.end.p0i8(i64 2, i8* nonnull %587)
  br label %599

599:                                              ; preds = %581, %596
  store i32 0, i32* %283, align 8
  %600 = load i8*, i8** %279, align 8
  store i8 0, i8* %600, align 1
  %601 = call dereferenceable(64) %"class.icu_69::CharString"* @_ZN6icu_6910CharString6appendEPKciR10UErrorCode(%"class.icu_69::CharString"* nonnull %57, i8* getelementptr inbounds ([10 x i8], [10 x i8]* @_ZN6icu_69L13gDayPeriodTagE, i64 0, i64 0), i32 -1, i32* dereferenceable(4) %3) #13
  %602 = call dereferenceable(64) %"class.icu_69::CharString"* @_ZN6icu_6910CharString6appendEcR10UErrorCode(%"class.icu_69::CharString"* %601, i8 signext 47, i32* dereferenceable(4) %3) #13
  %603 = call dereferenceable(64) %"class.icu_69::CharString"* @_ZN6icu_6910CharString6appendEPKciR10UErrorCode(%"class.icu_69::CharString"* %602, i8* getelementptr inbounds ([7 x i8], [7 x i8]* @_ZN6icu_69L15gNamesFormatTagE, i64 0, i64 0), i32 -1, i32* dereferenceable(4) %3) #13
  %604 = call dereferenceable(64) %"class.icu_69::CharString"* @_ZN6icu_6910CharString6appendEcR10UErrorCode(%"class.icu_69::CharString"* %603, i8 signext 47, i32* dereferenceable(4) %3) #13
  %605 = call dereferenceable(64) %"class.icu_69::CharString"* @_ZN6icu_6910CharString6appendEPKciR10UErrorCode(%"class.icu_69::CharString"* %604, i8* getelementptr inbounds ([5 x i8], [5 x i8]* @_ZN6icu_69L13gNamesWideTagE, i64 0, i64 0), i32 -1, i32* dereferenceable(4) %3) #13
  %606 = call fastcc %"class.icu_69::UnicodeString"* @_ZN6icu_6920loadDayPeriodStringsERNS_12_GLOBAL__N_116CalendarDataSinkERNS_10CharStringERiR10UErrorCode(%"struct.icu_69::(anonymous namespace)::CalendarDataSink"* nonnull dereferenceable(600) %52, %"class.icu_69::CharString"* dereferenceable(64) %605, i32* dereferenceable(4) %125, i32* dereferenceable(4) %3)
  store %"class.icu_69::UnicodeString"* %606, %"class.icu_69::UnicodeString"** %124, align 8
  store i32 0, i32* %283, align 8
  %607 = load i8*, i8** %279, align 8
  store i8 0, i8* %607, align 1
  %608 = call dereferenceable(64) %"class.icu_69::CharString"* @_ZN6icu_6910CharString6appendEPKciR10UErrorCode(%"class.icu_69::CharString"* nonnull %57, i8* getelementptr inbounds ([10 x i8], [10 x i8]* @_ZN6icu_69L13gDayPeriodTagE, i64 0, i64 0), i32 -1, i32* dereferenceable(4) %3) #13
  %609 = call dereferenceable(64) %"class.icu_69::CharString"* @_ZN6icu_6910CharString6appendEcR10UErrorCode(%"class.icu_69::CharString"* %608, i8 signext 47, i32* dereferenceable(4) %3) #13
  %610 = call dereferenceable(64) %"class.icu_69::CharString"* @_ZN6icu_6910CharString6appendEPKciR10UErrorCode(%"class.icu_69::CharString"* %609, i8* getelementptr inbounds ([7 x i8], [7 x i8]* @_ZN6icu_69L15gNamesFormatTagE, i64 0, i64 0), i32 -1, i32* dereferenceable(4) %3) #13
  %611 = call dereferenceable(64) %"class.icu_69::CharString"* @_ZN6icu_6910CharString6appendEcR10UErrorCode(%"class.icu_69::CharString"* %610, i8 signext 47, i32* dereferenceable(4) %3) #13
  %612 = call dereferenceable(64) %"class.icu_69::CharString"* @_ZN6icu_6910CharString6appendEPKciR10UErrorCode(%"class.icu_69::CharString"* %611, i8* getelementptr inbounds ([7 x i8], [7 x i8]* @_ZN6icu_69L15gNamesNarrowTagE, i64 0, i64 0), i32 -1, i32* dereferenceable(4) %3) #13
  %613 = call fastcc %"class.icu_69::UnicodeString"* @_ZN6icu_6920loadDayPeriodStringsERNS_12_GLOBAL__N_116CalendarDataSinkERNS_10CharStringERiR10UErrorCode(%"struct.icu_69::(anonymous namespace)::CalendarDataSink"* nonnull dereferenceable(600) %52, %"class.icu_69::CharString"* dereferenceable(64) %612, i32* dereferenceable(4) %127, i32* dereferenceable(4) %3)
  store %"class.icu_69::UnicodeString"* %613, %"class.icu_69::UnicodeString"** %126, align 8
  store i32 0, i32* %283, align 8
  %614 = load i8*, i8** %279, align 8
  store i8 0, i8* %614, align 1
  %615 = call dereferenceable(64) %"class.icu_69::CharString"* @_ZN6icu_6910CharString6appendEPKciR10UErrorCode(%"class.icu_69::CharString"* nonnull %57, i8* getelementptr inbounds ([10 x i8], [10 x i8]* @_ZN6icu_69L13gDayPeriodTagE, i64 0, i64 0), i32 -1, i32* dereferenceable(4) %3) #13
  %616 = call dereferenceable(64) %"class.icu_69::CharString"* @_ZN6icu_6910CharString6appendEcR10UErrorCode(%"class.icu_69::CharString"* %615, i8 signext 47, i32* dereferenceable(4) %3) #13
  %617 = call dereferenceable(64) %"class.icu_69::CharString"* @_ZN6icu_6910CharString6appendEPKciR10UErrorCode(%"class.icu_69::CharString"* %616, i8* getelementptr inbounds ([7 x i8], [7 x i8]* @_ZN6icu_69L15gNamesFormatTagE, i64 0, i64 0), i32 -1, i32* dereferenceable(4) %3) #13
  %618 = call dereferenceable(64) %"class.icu_69::CharString"* @_ZN6icu_6910CharString6appendEcR10UErrorCode(%"class.icu_69::CharString"* %617, i8 signext 47, i32* dereferenceable(4) %3) #13
  %619 = call dereferenceable(64) %"class.icu_69::CharString"* @_ZN6icu_6910CharString6appendEPKciR10UErrorCode(%"class.icu_69::CharString"* %618, i8* getelementptr inbounds ([12 x i8], [12 x i8]* @_ZN6icu_69L13gNamesAbbrTagE, i64 0, i64 0), i32 -1, i32* dereferenceable(4) %3) #13
  %620 = call fastcc %"class.icu_69::UnicodeString"* @_ZN6icu_6920loadDayPeriodStringsERNS_12_GLOBAL__N_116CalendarDataSinkERNS_10CharStringERiR10UErrorCode(%"struct.icu_69::(anonymous namespace)::CalendarDataSink"* nonnull dereferenceable(600) %52, %"class.icu_69::CharString"* dereferenceable(64) %619, i32* dereferenceable(4) %123, i32* dereferenceable(4) %3)
  store %"class.icu_69::UnicodeString"* %620, %"class.icu_69::UnicodeString"** %122, align 8
  store i32 0, i32* %283, align 8
  %621 = load i8*, i8** %279, align 8
  store i8 0, i8* %621, align 1
  %622 = call dereferenceable(64) %"class.icu_69::CharString"* @_ZN6icu_6910CharString6appendEPKciR10UErrorCode(%"class.icu_69::CharString"* nonnull %57, i8* getelementptr inbounds ([10 x i8], [10 x i8]* @_ZN6icu_69L13gDayPeriodTagE, i64 0, i64 0), i32 -1, i32* dereferenceable(4) %3) #13
  %623 = call dereferenceable(64) %"class.icu_69::CharString"* @_ZN6icu_6910CharString6appendEcR10UErrorCode(%"class.icu_69::CharString"* %622, i8 signext 47, i32* dereferenceable(4) %3) #13
  %624 = call dereferenceable(64) %"class.icu_69::CharString"* @_ZN6icu_6910CharString6appendEPKciR10UErrorCode(%"class.icu_69::CharString"* %623, i8* getelementptr inbounds ([12 x i8], [12 x i8]* @_ZN6icu_69L19gNamesStandaloneTagE, i64 0, i64 0), i32 -1, i32* dereferenceable(4) %3) #13
  %625 = call dereferenceable(64) %"class.icu_69::CharString"* @_ZN6icu_6910CharString6appendEcR10UErrorCode(%"class.icu_69::CharString"* %624, i8 signext 47, i32* dereferenceable(4) %3) #13
  %626 = call dereferenceable(64) %"class.icu_69::CharString"* @_ZN6icu_6910CharString6appendEPKciR10UErrorCode(%"class.icu_69::CharString"* %625, i8* getelementptr inbounds ([5 x i8], [5 x i8]* @_ZN6icu_69L13gNamesWideTagE, i64 0, i64 0), i32 -1, i32* dereferenceable(4) %3) #13
  %627 = call fastcc %"class.icu_69::UnicodeString"* @_ZN6icu_6920loadDayPeriodStringsERNS_12_GLOBAL__N_116CalendarDataSinkERNS_10CharStringERiR10UErrorCode(%"struct.icu_69::(anonymous namespace)::CalendarDataSink"* nonnull dereferenceable(600) %52, %"class.icu_69::CharString"* dereferenceable(64) %626, i32* dereferenceable(4) %131, i32* dereferenceable(4) %3)
  store %"class.icu_69::UnicodeString"* %627, %"class.icu_69::UnicodeString"** %130, align 8
  store i32 0, i32* %283, align 8
  %628 = load i8*, i8** %279, align 8
  store i8 0, i8* %628, align 1
  %629 = call dereferenceable(64) %"class.icu_69::CharString"* @_ZN6icu_6910CharString6appendEPKciR10UErrorCode(%"class.icu_69::CharString"* nonnull %57, i8* getelementptr inbounds ([10 x i8], [10 x i8]* @_ZN6icu_69L13gDayPeriodTagE, i64 0, i64 0), i32 -1, i32* dereferenceable(4) %3) #13
  %630 = call dereferenceable(64) %"class.icu_69::CharString"* @_ZN6icu_6910CharString6appendEcR10UErrorCode(%"class.icu_69::CharString"* %629, i8 signext 47, i32* dereferenceable(4) %3) #13
  %631 = call dereferenceable(64) %"class.icu_69::CharString"* @_ZN6icu_6910CharString6appendEPKciR10UErrorCode(%"class.icu_69::CharString"* %630, i8* getelementptr inbounds ([12 x i8], [12 x i8]* @_ZN6icu_69L19gNamesStandaloneTagE, i64 0, i64 0), i32 -1, i32* dereferenceable(4) %3) #13
  %632 = call dereferenceable(64) %"class.icu_69::CharString"* @_ZN6icu_6910CharString6appendEcR10UErrorCode(%"class.icu_69::CharString"* %631, i8 signext 47, i32* dereferenceable(4) %3) #13
  %633 = call dereferenceable(64) %"class.icu_69::CharString"* @_ZN6icu_6910CharString6appendEPKciR10UErrorCode(%"class.icu_69::CharString"* %632, i8* getelementptr inbounds ([7 x i8], [7 x i8]* @_ZN6icu_69L15gNamesNarrowTagE, i64 0, i64 0), i32 -1, i32* dereferenceable(4) %3) #13
  %634 = call fastcc %"class.icu_69::UnicodeString"* @_ZN6icu_6920loadDayPeriodStringsERNS_12_GLOBAL__N_116CalendarDataSinkERNS_10CharStringERiR10UErrorCode(%"struct.icu_69::(anonymous namespace)::CalendarDataSink"* nonnull dereferenceable(600) %52, %"class.icu_69::CharString"* dereferenceable(64) %633, i32* dereferenceable(4) %133, i32* dereferenceable(4) %3)
  store %"class.icu_69::UnicodeString"* %634, %"class.icu_69::UnicodeString"** %132, align 8
  store i32 0, i32* %283, align 8
  %635 = load i8*, i8** %279, align 8
  store i8 0, i8* %635, align 1
  %636 = call dereferenceable(64) %"class.icu_69::CharString"* @_ZN6icu_6910CharString6appendEPKciR10UErrorCode(%"class.icu_69::CharString"* nonnull %57, i8* getelementptr inbounds ([10 x i8], [10 x i8]* @_ZN6icu_69L13gDayPeriodTagE, i64 0, i64 0), i32 -1, i32* dereferenceable(4) %3) #13
  %637 = call dereferenceable(64) %"class.icu_69::CharString"* @_ZN6icu_6910CharString6appendEcR10UErrorCode(%"class.icu_69::CharString"* %636, i8 signext 47, i32* dereferenceable(4) %3) #13
  %638 = call dereferenceable(64) %"class.icu_69::CharString"* @_ZN6icu_6910CharString6appendEPKciR10UErrorCode(%"class.icu_69::CharString"* %637, i8* getelementptr inbounds ([12 x i8], [12 x i8]* @_ZN6icu_69L19gNamesStandaloneTagE, i64 0, i64 0), i32 -1, i32* dereferenceable(4) %3) #13
  %639 = call dereferenceable(64) %"class.icu_69::CharString"* @_ZN6icu_6910CharString6appendEcR10UErrorCode(%"class.icu_69::CharString"* %638, i8 signext 47, i32* dereferenceable(4) %3) #13
  %640 = call dereferenceable(64) %"class.icu_69::CharString"* @_ZN6icu_6910CharString6appendEPKciR10UErrorCode(%"class.icu_69::CharString"* %639, i8* getelementptr inbounds ([12 x i8], [12 x i8]* @_ZN6icu_69L13gNamesAbbrTagE, i64 0, i64 0), i32 -1, i32* dereferenceable(4) %3) #13
  %641 = call fastcc %"class.icu_69::UnicodeString"* @_ZN6icu_6920loadDayPeriodStringsERNS_12_GLOBAL__N_116CalendarDataSinkERNS_10CharStringERiR10UErrorCode(%"struct.icu_69::(anonymous namespace)::CalendarDataSink"* nonnull dereferenceable(600) %52, %"class.icu_69::CharString"* dereferenceable(64) %640, i32* dereferenceable(4) %129, i32* dereferenceable(4) %3)
  store %"class.icu_69::UnicodeString"* %641, %"class.icu_69::UnicodeString"** %128, align 8
  %642 = bitcast %"class.icu_69::LocaleBased"* %60 to i8*
  call void @llvm.lifetime.start.p0i8(i64 16, i8* nonnull %642) #13
  %643 = getelementptr inbounds %"class.icu_69::LocaleBased", %"class.icu_69::LocaleBased"* %60, i64 0, i32 0
  %644 = getelementptr inbounds %"class.icu_69::LocaleBased", %"class.icu_69::LocaleBased"* %60, i64 0, i32 1
  %645 = getelementptr inbounds %"class.icu_69::DateFormatSymbols", %"class.icu_69::DateFormatSymbols"* %0, i64 0, i32 105, i64 0
  %646 = getelementptr inbounds %"class.icu_69::DateFormatSymbols", %"class.icu_69::DateFormatSymbols"* %0, i64 0, i32 106, i64 0
  store i8* %645, i8** %643, align 8
  store i8* %646, i8** %644, align 8
  %647 = call i8* @ures_getLocaleByType_69(%struct.UResourceBundle* %192, i32 1, i32* %3) #13
  %648 = call i8* @ures_getLocaleByType_69(%struct.UResourceBundle* %192, i32 0, i32* %3) #13
  call void @_ZN6icu_6911LocaleBased12setLocaleIDsEPKcS2_(%"class.icu_69::LocaleBased"* nonnull %60, i8* %647, i8* %648) #13
  store i32 0, i32* %283, align 8
  %649 = load i8*, i8** %279, align 8
  store i8 0, i8* %649, align 1
  %650 = call dereferenceable(64) %"class.icu_69::CharString"* @_ZN6icu_6910CharString6appendEPKciR10UErrorCode(%"class.icu_69::CharString"* nonnull %57, i8* getelementptr inbounds ([5 x i8], [5 x i8]* @_ZN6icu_69L8gErasTagE, i64 0, i64 0), i32 -1, i32* dereferenceable(4) %3) #13
  %651 = call dereferenceable(64) %"class.icu_69::CharString"* @_ZN6icu_6910CharString6appendEcR10UErrorCode(%"class.icu_69::CharString"* %650, i8 signext 47, i32* dereferenceable(4) %3) #13
  %652 = call dereferenceable(64) %"class.icu_69::CharString"* @_ZN6icu_6910CharString6appendEPKciR10UErrorCode(%"class.icu_69::CharString"* %651, i8* getelementptr inbounds ([12 x i8], [12 x i8]* @_ZN6icu_69L13gNamesAbbrTagE, i64 0, i64 0), i32 -1, i32* dereferenceable(4) %3) #13
  %653 = load i32, i32* %3, align 4
  %654 = icmp sgt i32 %653, 0
  br i1 %654, label %671, label %655

655:                                              ; preds = %599
  %656 = bitcast %"class.icu_69::UnicodeString"* %45 to i8*
  call void @llvm.lifetime.start.p0i8(i64 64, i8* nonnull %656) #13
  call void @llvm.memset.p0i8.i64(i8* nonnull align 8 %656, i8 -86, i64 64, i1 false) #13
  %657 = getelementptr inbounds %"class.icu_69::CharString", %"class.icu_69::CharString"* %652, i64 0, i32 0, i32 0
  %658 = load i8*, i8** %657, align 8
  call void @_ZN6icu_6913UnicodeStringC1EPKciNS0_10EInvariantE(%"class.icu_69::UnicodeString"* nonnull %45, i8* %658, i32 -1, i32 0) #13
  %659 = load %struct.UHashtable*, %struct.UHashtable** %143, align 8
  %660 = call i8* @uhash_get_69(%struct.UHashtable* %659, i8* nonnull %656) #13
  %661 = icmp eq i8* %660, null
  br i1 %661, label %668, label %662

662:                                              ; preds = %655
  %663 = load %struct.UHashtable*, %struct.UHashtable** %176, align 8
  %664 = call i32 @uhash_geti_69(%struct.UHashtable* %663, i8* nonnull %656) #13
  store i32 %664, i32* %69, align 4
  %665 = bitcast %"class.icu_69::UnicodeString"** %68 to i8**
  store i8* %660, i8** %665, align 8
  %666 = load %struct.UHashtable*, %struct.UHashtable** %143, align 8
  %667 = call i8* @uhash_remove_69(%struct.UHashtable* %666, i8* nonnull %656) #13
  br label %669

668:                                              ; preds = %655
  store i32 0, i32* %69, align 4
  store i32 2, i32* %3, align 4
  br label %669

669:                                              ; preds = %668, %662
  call void @_ZN6icu_6913UnicodeStringD1Ev(%"class.icu_69::UnicodeString"* nonnull %45) #13
  call void @llvm.lifetime.end.p0i8(i64 64, i8* nonnull %656) #13
  %670 = load i32, i32* %3, align 4
  br label %671

671:                                              ; preds = %599, %669
  %672 = phi i32 [ %653, %599 ], [ %670, %669 ]
  store i32 0, i32* %283, align 8
  %673 = load i8*, i8** %279, align 8
  store i8 0, i8* %673, align 1
  %674 = call dereferenceable(64) %"class.icu_69::CharString"* @_ZN6icu_6910CharString6appendEPKciR10UErrorCode(%"class.icu_69::CharString"* nonnull %57, i8* getelementptr inbounds ([5 x i8], [5 x i8]* @_ZN6icu_69L8gErasTagE, i64 0, i64 0), i32 -1, i32* dereferenceable(4) %3) #13
  %675 = call dereferenceable(64) %"class.icu_69::CharString"* @_ZN6icu_6910CharString6appendEcR10UErrorCode(%"class.icu_69::CharString"* %674, i8 signext 47, i32* dereferenceable(4) %3) #13
  %676 = call dereferenceable(64) %"class.icu_69::CharString"* @_ZN6icu_6910CharString6appendEPKciR10UErrorCode(%"class.icu_69::CharString"* %675, i8* getelementptr inbounds ([5 x i8], [5 x i8]* @_ZN6icu_69L13gNamesWideTagE, i64 0, i64 0), i32 -1, i32* dereferenceable(4) %3) #13
  %677 = load i32, i32* %3, align 4
  %678 = icmp sgt i32 %677, 0
  br i1 %678, label %695, label %679

679:                                              ; preds = %671
  %680 = bitcast %"class.icu_69::UnicodeString"* %44 to i8*
  call void @llvm.lifetime.start.p0i8(i64 64, i8* nonnull %680) #13
  call void @llvm.memset.p0i8.i64(i8* nonnull align 8 %680, i8 -86, i64 64, i1 false) #13
  %681 = getelementptr inbounds %"class.icu_69::CharString", %"class.icu_69::CharString"* %676, i64 0, i32 0, i32 0
  %682 = load i8*, i8** %681, align 8
  call void @_ZN6icu_6913UnicodeStringC1EPKciNS0_10EInvariantE(%"class.icu_69::UnicodeString"* nonnull %44, i8* %682, i32 -1, i32 0) #13
  %683 = load %struct.UHashtable*, %struct.UHashtable** %143, align 8
  %684 = call i8* @uhash_get_69(%struct.UHashtable* %683, i8* nonnull %680) #13
  %685 = icmp eq i8* %684, null
  br i1 %685, label %692, label %686

686:                                              ; preds = %679
  %687 = load %struct.UHashtable*, %struct.UHashtable** %176, align 8
  %688 = call i32 @uhash_geti_69(%struct.UHashtable* %687, i8* nonnull %680) #13
  store i32 %688, i32* %71, align 4
  %689 = bitcast %"class.icu_69::UnicodeString"** %70 to i8**
  store i8* %684, i8** %689, align 8
  %690 = load %struct.UHashtable*, %struct.UHashtable** %143, align 8
  %691 = call i8* @uhash_remove_69(%struct.UHashtable* %690, i8* nonnull %680) #13
  br label %693

692:                                              ; preds = %679
  store i32 0, i32* %71, align 4
  store i32 2, i32* %3, align 4
  br label %693

693:                                              ; preds = %692, %686
  call void @_ZN6icu_6913UnicodeStringD1Ev(%"class.icu_69::UnicodeString"* nonnull %44) #13
  call void @llvm.lifetime.end.p0i8(i64 64, i8* nonnull %680) #13
  %694 = load i32, i32* %3, align 4
  br label %695

695:                                              ; preds = %671, %693
  %696 = phi i32 [ %677, %671 ], [ %694, %693 ]
  %697 = icmp eq i32 %696, 2
  br i1 %697, label %698, label %769

698:                                              ; preds = %695
  store i32 %672, i32* %3, align 4
  %699 = load %"class.icu_69::UnicodeString"*, %"class.icu_69::UnicodeString"** %68, align 8
  %700 = load i32, i32* %69, align 8
  store i32 %700, i32* %71, align 4
  %701 = icmp eq i32 %700, 0
  %702 = select i1 %701, i32 1, i32 %700
  %703 = sext i32 %702 to i64
  %704 = call { i64, i1 } @llvm.umul.with.overflow.i64(i64 %703, i64 64) #13
  %705 = extractvalue { i64, i1 } %704, 1
  %706 = extractvalue { i64, i1 } %704, 0
  %707 = or i64 %706, 8
  %708 = select i1 %705, i64 -1, i64 %707
  %709 = call i8* @_ZN6icu_697UMemorynaEm(i64 %708) #13
  %710 = icmp eq i8* %709, null
  br i1 %710, label %711, label %712

711:                                              ; preds = %698
  store %"class.icu_69::UnicodeString"* null, %"class.icu_69::UnicodeString"** %70, align 8
  br label %769

712:                                              ; preds = %698
  %713 = bitcast i8* %709 to i64*
  store i64 %703, i64* %713, align 8
  %714 = getelementptr inbounds i8, i8* %709, i64 8
  %715 = bitcast i8* %714 to %"class.icu_69::UnicodeString"*
  %716 = getelementptr inbounds %"class.icu_69::UnicodeString", %"class.icu_69::UnicodeString"* %715, i64 %703
  %717 = shl nsw i64 %703, 6
  %718 = add nsw i64 %717, -64
  %719 = lshr exact i64 %718, 6
  %720 = add nuw nsw i64 %719, 1
  %721 = and i64 %720, 7
  %722 = icmp eq i64 %721, 0
  br i1 %722, label %731, label %723

723:                                              ; preds = %712, %723
  %724 = phi %"class.icu_69::UnicodeString"* [ %728, %723 ], [ %715, %712 ]
  %725 = phi i64 [ %729, %723 ], [ %721, %712 ]
  %726 = getelementptr inbounds %"class.icu_69::UnicodeString", %"class.icu_69::UnicodeString"* %724, i64 0, i32 0, i32 0, i32 0
  store i32 (...)** bitcast (i8** getelementptr inbounds ({ [13 x i8*] }, { [13 x i8*] }* @_ZTVN6icu_6913UnicodeStringE, i64 0, inrange i32 0, i64 2) to i32 (...)**), i32 (...)*** %726, align 8
  %727 = getelementptr inbounds %"class.icu_69::UnicodeString", %"class.icu_69::UnicodeString"* %724, i64 0, i32 1, i32 0, i32 0
  store i16 2, i16* %727, align 8
  %728 = getelementptr inbounds %"class.icu_69::UnicodeString", %"class.icu_69::UnicodeString"* %724, i64 1
  %729 = add i64 %725, -1
  %730 = icmp eq i64 %729, 0
  br i1 %730, label %731, label %723, !llvm.loop !6

731:                                              ; preds = %723, %712
  %732 = phi %"class.icu_69::UnicodeString"* [ %715, %712 ], [ %728, %723 ]
  %733 = icmp ult i64 %718, 448
  br i1 %733, label %754, label %734

734:                                              ; preds = %731, %734
  %735 = phi %"class.icu_69::UnicodeString"* [ %752, %734 ], [ %732, %731 ]
  %736 = getelementptr inbounds %"class.icu_69::UnicodeString", %"class.icu_69::UnicodeString"* %735, i64 0, i32 0, i32 0, i32 0
  store i32 (...)** bitcast (i8** getelementptr inbounds ({ [13 x i8*] }, { [13 x i8*] }* @_ZTVN6icu_6913UnicodeStringE, i64 0, inrange i32 0, i64 2) to i32 (...)**), i32 (...)*** %736, align 8
  %737 = getelementptr inbounds %"class.icu_69::UnicodeString", %"class.icu_69::UnicodeString"* %735, i64 0, i32 1, i32 0, i32 0
  store i16 2, i16* %737, align 8
  %738 = getelementptr inbounds %"class.icu_69::UnicodeString", %"class.icu_69::UnicodeString"* %735, i64 1, i32 0, i32 0, i32 0
  store i32 (...)** bitcast (i8** getelementptr inbounds ({ [13 x i8*] }, { [13 x i8*] }* @_ZTVN6icu_6913UnicodeStringE, i64 0, inrange i32 0, i64 2) to i32 (...)**), i32 (...)*** %738, align 8
  %739 = getelementptr inbounds %"class.icu_69::UnicodeString", %"class.icu_69::UnicodeString"* %735, i64 1, i32 1, i32 0, i32 0
  store i16 2, i16* %739, align 8
  %740 = getelementptr inbounds %"class.icu_69::UnicodeString", %"class.icu_69::UnicodeString"* %735, i64 2, i32 0, i32 0, i32 0
  store i32 (...)** bitcast (i8** getelementptr inbounds ({ [13 x i8*] }, { [13 x i8*] }* @_ZTVN6icu_6913UnicodeStringE, i64 0, inrange i32 0, i64 2) to i32 (...)**), i32 (...)*** %740, align 8
  %741 = getelementptr inbounds %"class.icu_69::UnicodeString", %"class.icu_69::UnicodeString"* %735, i64 2, i32 1, i32 0, i32 0
  store i16 2, i16* %741, align 8
  %742 = getelementptr inbounds %"class.icu_69::UnicodeString", %"class.icu_69::UnicodeString"* %735, i64 3, i32 0, i32 0, i32 0
  store i32 (...)** bitcast (i8** getelementptr inbounds ({ [13 x i8*] }, { [13 x i8*] }* @_ZTVN6icu_6913UnicodeStringE, i64 0, inrange i32 0, i64 2) to i32 (...)**), i32 (...)*** %742, align 8
  %743 = getelementptr inbounds %"class.icu_69::UnicodeString", %"class.icu_69::UnicodeString"* %735, i64 3, i32 1, i32 0, i32 0
  store i16 2, i16* %743, align 8
  %744 = getelementptr inbounds %"class.icu_69::UnicodeString", %"class.icu_69::UnicodeString"* %735, i64 4, i32 0, i32 0, i32 0
  store i32 (...)** bitcast (i8** getelementptr inbounds ({ [13 x i8*] }, { [13 x i8*] }* @_ZTVN6icu_6913UnicodeStringE, i64 0, inrange i32 0, i64 2) to i32 (...)**), i32 (...)*** %744, align 8
  %745 = getelementptr inbounds %"class.icu_69::UnicodeString", %"class.icu_69::UnicodeString"* %735, i64 4, i32 1, i32 0, i32 0
  store i16 2, i16* %745, align 8
  %746 = getelementptr inbounds %"class.icu_69::UnicodeString", %"class.icu_69::UnicodeString"* %735, i64 5, i32 0, i32 0, i32 0
  store i32 (...)** bitcast (i8** getelementptr inbounds ({ [13 x i8*] }, { [13 x i8*] }* @_ZTVN6icu_6913UnicodeStringE, i64 0, inrange i32 0, i64 2) to i32 (...)**), i32 (...)*** %746, align 8
  %747 = getelementptr inbounds %"class.icu_69::UnicodeString", %"class.icu_69::UnicodeString"* %735, i64 5, i32 1, i32 0, i32 0
  store i16 2, i16* %747, align 8
  %748 = getelementptr inbounds %"class.icu_69::UnicodeString", %"class.icu_69::UnicodeString"* %735, i64 6, i32 0, i32 0, i32 0
  store i32 (...)** bitcast (i8** getelementptr inbounds ({ [13 x i8*] }, { [13 x i8*] }* @_ZTVN6icu_6913UnicodeStringE, i64 0, inrange i32 0, i64 2) to i32 (...)**), i32 (...)*** %748, align 8
  %749 = getelementptr inbounds %"class.icu_69::UnicodeString", %"class.icu_69::UnicodeString"* %735, i64 6, i32 1, i32 0, i32 0
  store i16 2, i16* %749, align 8
  %750 = getelementptr inbounds %"class.icu_69::UnicodeString", %"class.icu_69::UnicodeString"* %735, i64 7, i32 0, i32 0, i32 0
  store i32 (...)** bitcast (i8** getelementptr inbounds ({ [13 x i8*] }, { [13 x i8*] }* @_ZTVN6icu_6913UnicodeStringE, i64 0, inrange i32 0, i64 2) to i32 (...)**), i32 (...)*** %750, align 8
  %751 = getelementptr inbounds %"class.icu_69::UnicodeString", %"class.icu_69::UnicodeString"* %735, i64 7, i32 1, i32 0, i32 0
  store i16 2, i16* %751, align 8
  %752 = getelementptr inbounds %"class.icu_69::UnicodeString", %"class.icu_69::UnicodeString"* %735, i64 8
  %753 = icmp eq %"class.icu_69::UnicodeString"* %752, %716
  br i1 %753, label %754, label %734

754:                                              ; preds = %734, %731
  %755 = bitcast %"class.icu_69::UnicodeString"** %70 to i8**
  store i8* %714, i8** %755, align 8
  %756 = icmp sgt i32 %700, 0
  br i1 %756, label %757, label %769

757:                                              ; preds = %754
  %758 = zext i32 %700 to i64
  %759 = call dereferenceable(64) %"class.icu_69::UnicodeString"* @_ZN6icu_6913UnicodeString12fastCopyFromERKS0_(%"class.icu_69::UnicodeString"* %715, %"class.icu_69::UnicodeString"* dereferenceable(64) %699) #13
  %760 = icmp eq i32 %700, 1
  br i1 %760, label %769, label %761

761:                                              ; preds = %757, %761
  %762 = phi i64 [ %767, %761 ], [ 1, %757 ]
  %763 = load %"class.icu_69::UnicodeString"*, %"class.icu_69::UnicodeString"** %70, align 8
  %764 = getelementptr inbounds %"class.icu_69::UnicodeString", %"class.icu_69::UnicodeString"* %763, i64 %762
  %765 = getelementptr inbounds %"class.icu_69::UnicodeString", %"class.icu_69::UnicodeString"* %699, i64 %762
  %766 = call dereferenceable(64) %"class.icu_69::UnicodeString"* @_ZN6icu_6913UnicodeString12fastCopyFromERKS0_(%"class.icu_69::UnicodeString"* %764, %"class.icu_69::UnicodeString"* dereferenceable(64) %765) #13
  %767 = add nuw nsw i64 %762, 1
  %768 = icmp eq i64 %767, %758
  br i1 %768, label %769, label %761

769:                                              ; preds = %761, %757, %754, %711, %695
  %770 = load i32, i32* %3, align 4
  store i32 0, i32* %283, align 8
  %771 = load i8*, i8** %279, align 8
  store i8 0, i8* %771, align 1
  %772 = call dereferenceable(64) %"class.icu_69::CharString"* @_ZN6icu_6910CharString6appendEPKciR10UErrorCode(%"class.icu_69::CharString"* nonnull %57, i8* getelementptr inbounds ([5 x i8], [5 x i8]* @_ZN6icu_69L8gErasTagE, i64 0, i64 0), i32 -1, i32* dereferenceable(4) %3) #13
  %773 = call dereferenceable(64) %"class.icu_69::CharString"* @_ZN6icu_6910CharString6appendEcR10UErrorCode(%"class.icu_69::CharString"* %772, i8 signext 47, i32* dereferenceable(4) %3) #13
  %774 = call dereferenceable(64) %"class.icu_69::CharString"* @_ZN6icu_6910CharString6appendEPKciR10UErrorCode(%"class.icu_69::CharString"* %773, i8* getelementptr inbounds ([7 x i8], [7 x i8]* @_ZN6icu_69L15gNamesNarrowTagE, i64 0, i64 0), i32 -1, i32* dereferenceable(4) %3) #13
  %775 = load i32, i32* %3, align 4
  %776 = icmp sgt i32 %775, 0
  br i1 %776, label %793, label %777

777:                                              ; preds = %769
  %778 = bitcast %"class.icu_69::UnicodeString"* %43 to i8*
  call void @llvm.lifetime.start.p0i8(i64 64, i8* nonnull %778) #13
  call void @llvm.memset.p0i8.i64(i8* nonnull align 8 %778, i8 -86, i64 64, i1 false) #13
  %779 = getelementptr inbounds %"class.icu_69::CharString", %"class.icu_69::CharString"* %774, i64 0, i32 0, i32 0
  %780 = load i8*, i8** %779, align 8
  call void @_ZN6icu_6913UnicodeStringC1EPKciNS0_10EInvariantE(%"class.icu_69::UnicodeString"* nonnull %43, i8* %780, i32 -1, i32 0) #13
  %781 = load %struct.UHashtable*, %struct.UHashtable** %143, align 8
  %782 = call i8* @uhash_get_69(%struct.UHashtable* %781, i8* nonnull %778) #13
  %783 = icmp eq i8* %782, null
  br i1 %783, label %790, label %784

784:                                              ; preds = %777
  %785 = load %struct.UHashtable*, %struct.UHashtable** %176, align 8
  %786 = call i32 @uhash_geti_69(%struct.UHashtable* %785, i8* nonnull %778) #13
  store i32 %786, i32* %73, align 4
  %787 = bitcast %"class.icu_69::UnicodeString"** %72 to i8**
  store i8* %782, i8** %787, align 8
  %788 = load %struct.UHashtable*, %struct.UHashtable** %143, align 8
  %789 = call i8* @uhash_remove_69(%struct.UHashtable* %788, i8* nonnull %778) #13
  br label %791

790:                                              ; preds = %777
  store i32 0, i32* %73, align 4
  store i32 2, i32* %3, align 4
  br label %791

791:                                              ; preds = %790, %784
  call void @_ZN6icu_6913UnicodeStringD1Ev(%"class.icu_69::UnicodeString"* nonnull %43) #13
  call void @llvm.lifetime.end.p0i8(i64 64, i8* nonnull %778) #13
  %792 = load i32, i32* %3, align 4
  br label %793

793:                                              ; preds = %769, %791
  %794 = phi i32 [ %775, %769 ], [ %792, %791 ]
  %795 = icmp eq i32 %794, 2
  br i1 %795, label %796, label %867

796:                                              ; preds = %793
  store i32 %770, i32* %3, align 4
  %797 = load %"class.icu_69::UnicodeString"*, %"class.icu_69::UnicodeString"** %68, align 8
  %798 = load i32, i32* %69, align 8
  store i32 %798, i32* %73, align 4
  %799 = icmp eq i32 %798, 0
  %800 = select i1 %799, i32 1, i32 %798
  %801 = sext i32 %800 to i64
  %802 = call { i64, i1 } @llvm.umul.with.overflow.i64(i64 %801, i64 64) #13
  %803 = extractvalue { i64, i1 } %802, 1
  %804 = extractvalue { i64, i1 } %802, 0
  %805 = or i64 %804, 8
  %806 = select i1 %803, i64 -1, i64 %805
  %807 = call i8* @_ZN6icu_697UMemorynaEm(i64 %806) #13
  %808 = icmp eq i8* %807, null
  br i1 %808, label %809, label %810

809:                                              ; preds = %796
  store %"class.icu_69::UnicodeString"* null, %"class.icu_69::UnicodeString"** %72, align 8
  br label %867

810:                                              ; preds = %796
  %811 = bitcast i8* %807 to i64*
  store i64 %801, i64* %811, align 8
  %812 = getelementptr inbounds i8, i8* %807, i64 8
  %813 = bitcast i8* %812 to %"class.icu_69::UnicodeString"*
  %814 = getelementptr inbounds %"class.icu_69::UnicodeString", %"class.icu_69::UnicodeString"* %813, i64 %801
  %815 = shl nsw i64 %801, 6
  %816 = add nsw i64 %815, -64
  %817 = lshr exact i64 %816, 6
  %818 = add nuw nsw i64 %817, 1
  %819 = and i64 %818, 7
  %820 = icmp eq i64 %819, 0
  br i1 %820, label %829, label %821

821:                                              ; preds = %810, %821
  %822 = phi %"class.icu_69::UnicodeString"* [ %826, %821 ], [ %813, %810 ]
  %823 = phi i64 [ %827, %821 ], [ %819, %810 ]
  %824 = getelementptr inbounds %"class.icu_69::UnicodeString", %"class.icu_69::UnicodeString"* %822, i64 0, i32 0, i32 0, i32 0
  store i32 (...)** bitcast (i8** getelementptr inbounds ({ [13 x i8*] }, { [13 x i8*] }* @_ZTVN6icu_6913UnicodeStringE, i64 0, inrange i32 0, i64 2) to i32 (...)**), i32 (...)*** %824, align 8
  %825 = getelementptr inbounds %"class.icu_69::UnicodeString", %"class.icu_69::UnicodeString"* %822, i64 0, i32 1, i32 0, i32 0
  store i16 2, i16* %825, align 8
  %826 = getelementptr inbounds %"class.icu_69::UnicodeString", %"class.icu_69::UnicodeString"* %822, i64 1
  %827 = add i64 %823, -1
  %828 = icmp eq i64 %827, 0
  br i1 %828, label %829, label %821, !llvm.loop !8

829:                                              ; preds = %821, %810
  %830 = phi %"class.icu_69::UnicodeString"* [ %813, %810 ], [ %826, %821 ]
  %831 = icmp ult i64 %816, 448
  br i1 %831, label %852, label %832

832:                                              ; preds = %829, %832
  %833 = phi %"class.icu_69::UnicodeString"* [ %850, %832 ], [ %830, %829 ]
  %834 = getelementptr inbounds %"class.icu_69::UnicodeString", %"class.icu_69::UnicodeString"* %833, i64 0, i32 0, i32 0, i32 0
  store i32 (...)** bitcast (i8** getelementptr inbounds ({ [13 x i8*] }, { [13 x i8*] }* @_ZTVN6icu_6913UnicodeStringE, i64 0, inrange i32 0, i64 2) to i32 (...)**), i32 (...)*** %834, align 8
  %835 = getelementptr inbounds %"class.icu_69::UnicodeString", %"class.icu_69::UnicodeString"* %833, i64 0, i32 1, i32 0, i32 0
  store i16 2, i16* %835, align 8
  %836 = getelementptr inbounds %"class.icu_69::UnicodeString", %"class.icu_69::UnicodeString"* %833, i64 1, i32 0, i32 0, i32 0
  store i32 (...)** bitcast (i8** getelementptr inbounds ({ [13 x i8*] }, { [13 x i8*] }* @_ZTVN6icu_6913UnicodeStringE, i64 0, inrange i32 0, i64 2) to i32 (...)**), i32 (...)*** %836, align 8
  %837 = getelementptr inbounds %"class.icu_69::UnicodeString", %"class.icu_69::UnicodeString"* %833, i64 1, i32 1, i32 0, i32 0
  store i16 2, i16* %837, align 8
  %838 = getelementptr inbounds %"class.icu_69::UnicodeString", %"class.icu_69::UnicodeString"* %833, i64 2, i32 0, i32 0, i32 0
  store i32 (...)** bitcast (i8** getelementptr inbounds ({ [13 x i8*] }, { [13 x i8*] }* @_ZTVN6icu_6913UnicodeStringE, i64 0, inrange i32 0, i64 2) to i32 (...)**), i32 (...)*** %838, align 8
  %839 = getelementptr inbounds %"class.icu_69::UnicodeString", %"class.icu_69::UnicodeString"* %833, i64 2, i32 1, i32 0, i32 0
  store i16 2, i16* %839, align 8
  %840 = getelementptr inbounds %"class.icu_69::UnicodeString", %"class.icu_69::UnicodeString"* %833, i64 3, i32 0, i32 0, i32 0
  store i32 (...)** bitcast (i8** getelementptr inbounds ({ [13 x i8*] }, { [13 x i8*] }* @_ZTVN6icu_6913UnicodeStringE, i64 0, inrange i32 0, i64 2) to i32 (...)**), i32 (...)*** %840, align 8
  %841 = getelementptr inbounds %"class.icu_69::UnicodeString", %"class.icu_69::UnicodeString"* %833, i64 3, i32 1, i32 0, i32 0
  store i16 2, i16* %841, align 8
  %842 = getelementptr inbounds %"class.icu_69::UnicodeString", %"class.icu_69::UnicodeString"* %833, i64 4, i32 0, i32 0, i32 0
  store i32 (...)** bitcast (i8** getelementptr inbounds ({ [13 x i8*] }, { [13 x i8*] }* @_ZTVN6icu_6913UnicodeStringE, i64 0, inrange i32 0, i64 2) to i32 (...)**), i32 (...)*** %842, align 8
  %843 = getelementptr inbounds %"class.icu_69::UnicodeString", %"class.icu_69::UnicodeString"* %833, i64 4, i32 1, i32 0, i32 0
  store i16 2, i16* %843, align 8
  %844 = getelementptr inbounds %"class.icu_69::UnicodeString", %"class.icu_69::UnicodeString"* %833, i64 5, i32 0, i32 0, i32 0
  store i32 (...)** bitcast (i8** getelementptr inbounds ({ [13 x i8*] }, { [13 x i8*] }* @_ZTVN6icu_6913UnicodeStringE, i64 0, inrange i32 0, i64 2) to i32 (...)**), i32 (...)*** %844, align 8
  %845 = getelementptr inbounds %"class.icu_69::UnicodeString", %"class.icu_69::UnicodeString"* %833, i64 5, i32 1, i32 0, i32 0
  store i16 2, i16* %845, align 8
  %846 = getelementptr inbounds %"class.icu_69::UnicodeString", %"class.icu_69::UnicodeString"* %833, i64 6, i32 0, i32 0, i32 0
  store i32 (...)** bitcast (i8** getelementptr inbounds ({ [13 x i8*] }, { [13 x i8*] }* @_ZTVN6icu_6913UnicodeStringE, i64 0, inrange i32 0, i64 2) to i32 (...)**), i32 (...)*** %846, align 8
  %847 = getelementptr inbounds %"class.icu_69::UnicodeString", %"class.icu_69::UnicodeString"* %833, i64 6, i32 1, i32 0, i32 0
  store i16 2, i16* %847, align 8
  %848 = getelementptr inbounds %"class.icu_69::UnicodeString", %"class.icu_69::UnicodeString"* %833, i64 7, i32 0, i32 0, i32 0
  store i32 (...)** bitcast (i8** getelementptr inbounds ({ [13 x i8*] }, { [13 x i8*] }* @_ZTVN6icu_6913UnicodeStringE, i64 0, inrange i32 0, i64 2) to i32 (...)**), i32 (...)*** %848, align 8
  %849 = getelementptr inbounds %"class.icu_69::UnicodeString", %"class.icu_69::UnicodeString"* %833, i64 7, i32 1, i32 0, i32 0
  store i16 2, i16* %849, align 8
  %850 = getelementptr inbounds %"class.icu_69::UnicodeString", %"class.icu_69::UnicodeString"* %833, i64 8
  %851 = icmp eq %"class.icu_69::UnicodeString"* %850, %814
  br i1 %851, label %852, label %832

852:                                              ; preds = %832, %829
  %853 = bitcast %"class.icu_69::UnicodeString"** %72 to i8**
  store i8* %812, i8** %853, align 8
  %854 = icmp sgt i32 %798, 0
  br i1 %854, label %855, label %867

855:                                              ; preds = %852
  %856 = zext i32 %798 to i64
  %857 = call dereferenceable(64) %"class.icu_69::UnicodeString"* @_ZN6icu_6913UnicodeString12fastCopyFromERKS0_(%"class.icu_69::UnicodeString"* %813, %"class.icu_69::UnicodeString"* dereferenceable(64) %797) #13
  %858 = icmp eq i32 %798, 1
  br i1 %858, label %867, label %859

859:                                              ; preds = %855, %859
  %860 = phi i64 [ %865, %859 ], [ 1, %855 ]
  %861 = load %"class.icu_69::UnicodeString"*, %"class.icu_69::UnicodeString"** %72, align 8
  %862 = getelementptr inbounds %"class.icu_69::UnicodeString", %"class.icu_69::UnicodeString"* %861, i64 %860
  %863 = getelementptr inbounds %"class.icu_69::UnicodeString", %"class.icu_69::UnicodeString"* %797, i64 %860
  %864 = call dereferenceable(64) %"class.icu_69::UnicodeString"* @_ZN6icu_6913UnicodeString12fastCopyFromERKS0_(%"class.icu_69::UnicodeString"* %862, %"class.icu_69::UnicodeString"* dereferenceable(64) %863) #13
  %865 = add nuw nsw i64 %860, 1
  %866 = icmp eq i64 %865, %856
  br i1 %866, label %867, label %859

867:                                              ; preds = %859, %855, %852, %809, %793
  store i32 0, i32* %283, align 8
  %868 = load i8*, i8** %279, align 8
  store i8 0, i8* %868, align 1
  %869 = call dereferenceable(64) %"class.icu_69::CharString"* @_ZN6icu_6910CharString6appendEPKciR10UErrorCode(%"class.icu_69::CharString"* nonnull %57, i8* getelementptr inbounds ([11 x i8], [11 x i8]* @_ZN6icu_69L14gMonthNamesTagE, i64 0, i64 0), i32 -1, i32* dereferenceable(4) %3) #13
  %870 = call dereferenceable(64) %"class.icu_69::CharString"* @_ZN6icu_6910CharString6appendEcR10UErrorCode(%"class.icu_69::CharString"* %869, i8 signext 47, i32* dereferenceable(4) %3) #13
  %871 = call dereferenceable(64) %"class.icu_69::CharString"* @_ZN6icu_6910CharString6appendEPKciR10UErrorCode(%"class.icu_69::CharString"* %870, i8* getelementptr inbounds ([7 x i8], [7 x i8]* @_ZN6icu_69L15gNamesFormatTagE, i64 0, i64 0), i32 -1, i32* dereferenceable(4) %3) #13
  %872 = call dereferenceable(64) %"class.icu_69::CharString"* @_ZN6icu_6910CharString6appendEcR10UErrorCode(%"class.icu_69::CharString"* %871, i8 signext 47, i32* dereferenceable(4) %3) #13
  %873 = call dereferenceable(64) %"class.icu_69::CharString"* @_ZN6icu_6910CharString6appendEPKciR10UErrorCode(%"class.icu_69::CharString"* %872, i8* getelementptr inbounds ([5 x i8], [5 x i8]* @_ZN6icu_69L13gNamesWideTagE, i64 0, i64 0), i32 -1, i32* dereferenceable(4) %3) #13
  %874 = load i32, i32* %3, align 4
  %875 = icmp sgt i32 %874, 0
  br i1 %875, label %891, label %876

876:                                              ; preds = %867
  %877 = bitcast %"class.icu_69::UnicodeString"* %42 to i8*
  call void @llvm.lifetime.start.p0i8(i64 64, i8* nonnull %877) #13
  call void @llvm.memset.p0i8.i64(i8* nonnull align 8 %877, i8 -86, i64 64, i1 false) #13
  %878 = getelementptr inbounds %"class.icu_69::CharString", %"class.icu_69::CharString"* %873, i64 0, i32 0, i32 0
  %879 = load i8*, i8** %878, align 8
  call void @_ZN6icu_6913UnicodeStringC1EPKciNS0_10EInvariantE(%"class.icu_69::UnicodeString"* nonnull %42, i8* %879, i32 -1, i32 0) #13
  %880 = load %struct.UHashtable*, %struct.UHashtable** %143, align 8
  %881 = call i8* @uhash_get_69(%struct.UHashtable* %880, i8* nonnull %877) #13
  %882 = icmp eq i8* %881, null
  br i1 %882, label %889, label %883

883:                                              ; preds = %876
  %884 = load %struct.UHashtable*, %struct.UHashtable** %176, align 8
  %885 = call i32 @uhash_geti_69(%struct.UHashtable* %884, i8* nonnull %877) #13
  store i32 %885, i32* %75, align 4
  %886 = bitcast %"class.icu_69::UnicodeString"** %74 to i8**
  store i8* %881, i8** %886, align 8
  %887 = load %struct.UHashtable*, %struct.UHashtable** %143, align 8
  %888 = call i8* @uhash_remove_69(%struct.UHashtable* %887, i8* nonnull %877) #13
  br label %890

889:                                              ; preds = %876
  store i32 0, i32* %75, align 4
  store i32 2, i32* %3, align 4
  br label %890

890:                                              ; preds = %889, %883
  call void @_ZN6icu_6913UnicodeStringD1Ev(%"class.icu_69::UnicodeString"* nonnull %42) #13
  call void @llvm.lifetime.end.p0i8(i64 64, i8* nonnull %877) #13
  br label %891

891:                                              ; preds = %867, %890
  store i32 0, i32* %283, align 8
  %892 = load i8*, i8** %279, align 8
  store i8 0, i8* %892, align 1
  %893 = call dereferenceable(64) %"class.icu_69::CharString"* @_ZN6icu_6910CharString6appendEPKciR10UErrorCode(%"class.icu_69::CharString"* nonnull %57, i8* getelementptr inbounds ([11 x i8], [11 x i8]* @_ZN6icu_69L14gMonthNamesTagE, i64 0, i64 0), i32 -1, i32* dereferenceable(4) %3) #13
  %894 = call dereferenceable(64) %"class.icu_69::CharString"* @_ZN6icu_6910CharString6appendEcR10UErrorCode(%"class.icu_69::CharString"* %893, i8 signext 47, i32* dereferenceable(4) %3) #13
  %895 = call dereferenceable(64) %"class.icu_69::CharString"* @_ZN6icu_6910CharString6appendEPKciR10UErrorCode(%"class.icu_69::CharString"* %894, i8* getelementptr inbounds ([7 x i8], [7 x i8]* @_ZN6icu_69L15gNamesFormatTagE, i64 0, i64 0), i32 -1, i32* dereferenceable(4) %3) #13
  %896 = call dereferenceable(64) %"class.icu_69::CharString"* @_ZN6icu_6910CharString6appendEcR10UErrorCode(%"class.icu_69::CharString"* %895, i8 signext 47, i32* dereferenceable(4) %3) #13
  %897 = call dereferenceable(64) %"class.icu_69::CharString"* @_ZN6icu_6910CharString6appendEPKciR10UErrorCode(%"class.icu_69::CharString"* %896, i8* getelementptr inbounds ([12 x i8], [12 x i8]* @_ZN6icu_69L13gNamesAbbrTagE, i64 0, i64 0), i32 -1, i32* dereferenceable(4) %3) #13
  %898 = load i32, i32* %3, align 4
  %899 = icmp sgt i32 %898, 0
  br i1 %899, label %915, label %900

900:                                              ; preds = %891
  %901 = bitcast %"class.icu_69::UnicodeString"* %41 to i8*
  call void @llvm.lifetime.start.p0i8(i64 64, i8* nonnull %901) #13
  call void @llvm.memset.p0i8.i64(i8* nonnull align 8 %901, i8 -86, i64 64, i1 false) #13
  %902 = getelementptr inbounds %"class.icu_69::CharString", %"class.icu_69::CharString"* %897, i64 0, i32 0, i32 0
  %903 = load i8*, i8** %902, align 8
  call void @_ZN6icu_6913UnicodeStringC1EPKciNS0_10EInvariantE(%"class.icu_69::UnicodeString"* nonnull %41, i8* %903, i32 -1, i32 0) #13
  %904 = load %struct.UHashtable*, %struct.UHashtable** %143, align 8
  %905 = call i8* @uhash_get_69(%struct.UHashtable* %904, i8* nonnull %901) #13
  %906 = icmp eq i8* %905, null
  br i1 %906, label %913, label %907

907:                                              ; preds = %900
  %908 = load %struct.UHashtable*, %struct.UHashtable** %176, align 8
  %909 = call i32 @uhash_geti_69(%struct.UHashtable* %908, i8* nonnull %901) #13
  store i32 %909, i32* %77, align 4
  %910 = bitcast %"class.icu_69::UnicodeString"** %76 to i8**
  store i8* %905, i8** %910, align 8
  %911 = load %struct.UHashtable*, %struct.UHashtable** %143, align 8
  %912 = call i8* @uhash_remove_69(%struct.UHashtable* %911, i8* nonnull %901) #13
  br label %914

913:                                              ; preds = %900
  store i32 0, i32* %77, align 4
  store i32 2, i32* %3, align 4
  br label %914

914:                                              ; preds = %913, %907
  call void @_ZN6icu_6913UnicodeStringD1Ev(%"class.icu_69::UnicodeString"* nonnull %41) #13
  call void @llvm.lifetime.end.p0i8(i64 64, i8* nonnull %901) #13
  br label %915

915:                                              ; preds = %891, %914
  store i32 0, i32* %283, align 8
  %916 = load i8*, i8** %279, align 8
  store i8 0, i8* %916, align 1
  %917 = call dereferenceable(64) %"class.icu_69::CharString"* @_ZN6icu_6910CharString6appendEPKciR10UErrorCode(%"class.icu_69::CharString"* nonnull %57, i8* getelementptr inbounds ([11 x i8], [11 x i8]* @_ZN6icu_69L14gMonthNamesTagE, i64 0, i64 0), i32 -1, i32* dereferenceable(4) %3) #13
  %918 = call dereferenceable(64) %"class.icu_69::CharString"* @_ZN6icu_6910CharString6appendEcR10UErrorCode(%"class.icu_69::CharString"* %917, i8 signext 47, i32* dereferenceable(4) %3) #13
  %919 = call dereferenceable(64) %"class.icu_69::CharString"* @_ZN6icu_6910CharString6appendEPKciR10UErrorCode(%"class.icu_69::CharString"* %918, i8* getelementptr inbounds ([12 x i8], [12 x i8]* @_ZN6icu_69L19gNamesStandaloneTagE, i64 0, i64 0), i32 -1, i32* dereferenceable(4) %3) #13
  %920 = call dereferenceable(64) %"class.icu_69::CharString"* @_ZN6icu_6910CharString6appendEcR10UErrorCode(%"class.icu_69::CharString"* %919, i8 signext 47, i32* dereferenceable(4) %3) #13
  %921 = call dereferenceable(64) %"class.icu_69::CharString"* @_ZN6icu_6910CharString6appendEPKciR10UErrorCode(%"class.icu_69::CharString"* %920, i8* getelementptr inbounds ([5 x i8], [5 x i8]* @_ZN6icu_69L13gNamesWideTagE, i64 0, i64 0), i32 -1, i32* dereferenceable(4) %3) #13
  %922 = load i32, i32* %3, align 4
  %923 = icmp sgt i32 %922, 0
  br i1 %923, label %940, label %924

924:                                              ; preds = %915
  %925 = bitcast %"class.icu_69::UnicodeString"* %40 to i8*
  call void @llvm.lifetime.start.p0i8(i64 64, i8* nonnull %925) #13
  call void @llvm.memset.p0i8.i64(i8* nonnull align 8 %925, i8 -86, i64 64, i1 false) #13
  %926 = getelementptr inbounds %"class.icu_69::CharString", %"class.icu_69::CharString"* %921, i64 0, i32 0, i32 0
  %927 = load i8*, i8** %926, align 8
  call void @_ZN6icu_6913UnicodeStringC1EPKciNS0_10EInvariantE(%"class.icu_69::UnicodeString"* nonnull %40, i8* %927, i32 -1, i32 0) #13
  %928 = load %struct.UHashtable*, %struct.UHashtable** %143, align 8
  %929 = call i8* @uhash_get_69(%struct.UHashtable* %928, i8* nonnull %925) #13
  %930 = icmp eq i8* %929, null
  br i1 %930, label %937, label %931

931:                                              ; preds = %924
  %932 = load %struct.UHashtable*, %struct.UHashtable** %176, align 8
  %933 = call i32 @uhash_geti_69(%struct.UHashtable* %932, i8* nonnull %925) #13
  store i32 %933, i32* %81, align 4
  %934 = bitcast %"class.icu_69::UnicodeString"** %80 to i8**
  store i8* %929, i8** %934, align 8
  %935 = load %struct.UHashtable*, %struct.UHashtable** %143, align 8
  %936 = call i8* @uhash_remove_69(%struct.UHashtable* %935, i8* nonnull %925) #13
  br label %938

937:                                              ; preds = %924
  store i32 0, i32* %81, align 4
  store i32 2, i32* %3, align 4
  br label %938

938:                                              ; preds = %937, %931
  call void @_ZN6icu_6913UnicodeStringD1Ev(%"class.icu_69::UnicodeString"* nonnull %40) #13
  call void @llvm.lifetime.end.p0i8(i64 64, i8* nonnull %925) #13
  %939 = load i32, i32* %3, align 4
  br label %940

940:                                              ; preds = %915, %938
  %941 = phi i32 [ %922, %915 ], [ %939, %938 ]
  %942 = icmp eq i32 %941, 2
  br i1 %942, label %943, label %1014

943:                                              ; preds = %940
  store i32 0, i32* %3, align 4
  %944 = load %"class.icu_69::UnicodeString"*, %"class.icu_69::UnicodeString"** %74, align 8
  %945 = load i32, i32* %75, align 8
  store i32 %945, i32* %81, align 4
  %946 = icmp eq i32 %945, 0
  %947 = select i1 %946, i32 1, i32 %945
  %948 = sext i32 %947 to i64
  %949 = call { i64, i1 } @llvm.umul.with.overflow.i64(i64 %948, i64 64) #13
  %950 = extractvalue { i64, i1 } %949, 1
  %951 = extractvalue { i64, i1 } %949, 0
  %952 = or i64 %951, 8
  %953 = select i1 %950, i64 -1, i64 %952
  %954 = call i8* @_ZN6icu_697UMemorynaEm(i64 %953) #13
  %955 = icmp eq i8* %954, null
  br i1 %955, label %956, label %957

956:                                              ; preds = %943
  store %"class.icu_69::UnicodeString"* null, %"class.icu_69::UnicodeString"** %80, align 8
  br label %1014

957:                                              ; preds = %943
  %958 = bitcast i8* %954 to i64*
  store i64 %948, i64* %958, align 8
  %959 = getelementptr inbounds i8, i8* %954, i64 8
  %960 = bitcast i8* %959 to %"class.icu_69::UnicodeString"*
  %961 = getelementptr inbounds %"class.icu_69::UnicodeString", %"class.icu_69::UnicodeString"* %960, i64 %948
  %962 = shl nsw i64 %948, 6
  %963 = add nsw i64 %962, -64
  %964 = lshr exact i64 %963, 6
  %965 = add nuw nsw i64 %964, 1
  %966 = and i64 %965, 7
  %967 = icmp eq i64 %966, 0
  br i1 %967, label %976, label %968

968:                                              ; preds = %957, %968
  %969 = phi %"class.icu_69::UnicodeString"* [ %973, %968 ], [ %960, %957 ]
  %970 = phi i64 [ %974, %968 ], [ %966, %957 ]
  %971 = getelementptr inbounds %"class.icu_69::UnicodeString", %"class.icu_69::UnicodeString"* %969, i64 0, i32 0, i32 0, i32 0
  store i32 (...)** bitcast (i8** getelementptr inbounds ({ [13 x i8*] }, { [13 x i8*] }* @_ZTVN6icu_6913UnicodeStringE, i64 0, inrange i32 0, i64 2) to i32 (...)**), i32 (...)*** %971, align 8
  %972 = getelementptr inbounds %"class.icu_69::UnicodeString", %"class.icu_69::UnicodeString"* %969, i64 0, i32 1, i32 0, i32 0
  store i16 2, i16* %972, align 8
  %973 = getelementptr inbounds %"class.icu_69::UnicodeString", %"class.icu_69::UnicodeString"* %969, i64 1
  %974 = add i64 %970, -1
  %975 = icmp eq i64 %974, 0
  br i1 %975, label %976, label %968, !llvm.loop !9

976:                                              ; preds = %968, %957
  %977 = phi %"class.icu_69::UnicodeString"* [ %960, %957 ], [ %973, %968 ]
  %978 = icmp ult i64 %963, 448
  br i1 %978, label %999, label %979

979:                                              ; preds = %976, %979
  %980 = phi %"class.icu_69::UnicodeString"* [ %997, %979 ], [ %977, %976 ]
  %981 = getelementptr inbounds %"class.icu_69::UnicodeString", %"class.icu_69::UnicodeString"* %980, i64 0, i32 0, i32 0, i32 0
  store i32 (...)** bitcast (i8** getelementptr inbounds ({ [13 x i8*] }, { [13 x i8*] }* @_ZTVN6icu_6913UnicodeStringE, i64 0, inrange i32 0, i64 2) to i32 (...)**), i32 (...)*** %981, align 8
  %982 = getelementptr inbounds %"class.icu_69::UnicodeString", %"class.icu_69::UnicodeString"* %980, i64 0, i32 1, i32 0, i32 0
  store i16 2, i16* %982, align 8
  %983 = getelementptr inbounds %"class.icu_69::UnicodeString", %"class.icu_69::UnicodeString"* %980, i64 1, i32 0, i32 0, i32 0
  store i32 (...)** bitcast (i8** getelementptr inbounds ({ [13 x i8*] }, { [13 x i8*] }* @_ZTVN6icu_6913UnicodeStringE, i64 0, inrange i32 0, i64 2) to i32 (...)**), i32 (...)*** %983, align 8
  %984 = getelementptr inbounds %"class.icu_69::UnicodeString", %"class.icu_69::UnicodeString"* %980, i64 1, i32 1, i32 0, i32 0
  store i16 2, i16* %984, align 8
  %985 = getelementptr inbounds %"class.icu_69::UnicodeString", %"class.icu_69::UnicodeString"* %980, i64 2, i32 0, i32 0, i32 0
  store i32 (...)** bitcast (i8** getelementptr inbounds ({ [13 x i8*] }, { [13 x i8*] }* @_ZTVN6icu_6913UnicodeStringE, i64 0, inrange i32 0, i64 2) to i32 (...)**), i32 (...)*** %985, align 8
  %986 = getelementptr inbounds %"class.icu_69::UnicodeString", %"class.icu_69::UnicodeString"* %980, i64 2, i32 1, i32 0, i32 0
  store i16 2, i16* %986, align 8
  %987 = getelementptr inbounds %"class.icu_69::UnicodeString", %"class.icu_69::UnicodeString"* %980, i64 3, i32 0, i32 0, i32 0
  store i32 (...)** bitcast (i8** getelementptr inbounds ({ [13 x i8*] }, { [13 x i8*] }* @_ZTVN6icu_6913UnicodeStringE, i64 0, inrange i32 0, i64 2) to i32 (...)**), i32 (...)*** %987, align 8
  %988 = getelementptr inbounds %"class.icu_69::UnicodeString", %"class.icu_69::UnicodeString"* %980, i64 3, i32 1, i32 0, i32 0
  store i16 2, i16* %988, align 8
  %989 = getelementptr inbounds %"class.icu_69::UnicodeString", %"class.icu_69::UnicodeString"* %980, i64 4, i32 0, i32 0, i32 0
  store i32 (...)** bitcast (i8** getelementptr inbounds ({ [13 x i8*] }, { [13 x i8*] }* @_ZTVN6icu_6913UnicodeStringE, i64 0, inrange i32 0, i64 2) to i32 (...)**), i32 (...)*** %989, align 8
  %990 = getelementptr inbounds %"class.icu_69::UnicodeString", %"class.icu_69::UnicodeString"* %980, i64 4, i32 1, i32 0, i32 0
  store i16 2, i16* %990, align 8
  %991 = getelementptr inbounds %"class.icu_69::UnicodeString", %"class.icu_69::UnicodeString"* %980, i64 5, i32 0, i32 0, i32 0
  store i32 (...)** bitcast (i8** getelementptr inbounds ({ [13 x i8*] }, { [13 x i8*] }* @_ZTVN6icu_6913UnicodeStringE, i64 0, inrange i32 0, i64 2) to i32 (...)**), i32 (...)*** %991, align 8
  %992 = getelementptr inbounds %"class.icu_69::UnicodeString", %"class.icu_69::UnicodeString"* %980, i64 5, i32 1, i32 0, i32 0
  store i16 2, i16* %992, align 8
  %993 = getelementptr inbounds %"class.icu_69::UnicodeString", %"class.icu_69::UnicodeString"* %980, i64 6, i32 0, i32 0, i32 0
  store i32 (...)** bitcast (i8** getelementptr inbounds ({ [13 x i8*] }, { [13 x i8*] }* @_ZTVN6icu_6913UnicodeStringE, i64 0, inrange i32 0, i64 2) to i32 (...)**), i32 (...)*** %993, align 8
  %994 = getelementptr inbounds %"class.icu_69::UnicodeString", %"class.icu_69::UnicodeString"* %980, i64 6, i32 1, i32 0, i32 0
  store i16 2, i16* %994, align 8
  %995 = getelementptr inbounds %"class.icu_69::UnicodeString", %"class.icu_69::UnicodeString"* %980, i64 7, i32 0, i32 0, i32 0
  store i32 (...)** bitcast (i8** getelementptr inbounds ({ [13 x i8*] }, { [13 x i8*] }* @_ZTVN6icu_6913UnicodeStringE, i64 0, inrange i32 0, i64 2) to i32 (...)**), i32 (...)*** %995, align 8
  %996 = getelementptr inbounds %"class.icu_69::UnicodeString", %"class.icu_69::UnicodeString"* %980, i64 7, i32 1, i32 0, i32 0
  store i16 2, i16* %996, align 8
  %997 = getelementptr inbounds %"class.icu_69::UnicodeString", %"class.icu_69::UnicodeString"* %980, i64 8
  %998 = icmp eq %"class.icu_69::UnicodeString"* %997, %961
  br i1 %998, label %999, label %979

999:                                              ; preds = %979, %976
  %1000 = bitcast %"class.icu_69::UnicodeString"** %80 to i8**
  store i8* %959, i8** %1000, align 8
  %1001 = icmp sgt i32 %945, 0
  br i1 %1001, label %1002, label %1014

1002:                                             ; preds = %999
  %1003 = zext i32 %945 to i64
  %1004 = call dereferenceable(64) %"class.icu_69::UnicodeString"* @_ZN6icu_6913UnicodeString12fastCopyFromERKS0_(%"class.icu_69::UnicodeString"* %960, %"class.icu_69::UnicodeString"* dereferenceable(64) %944) #13
  %1005 = icmp eq i32 %945, 1
  br i1 %1005, label %1014, label %1006

1006:                                             ; preds = %1002, %1006
  %1007 = phi i64 [ %1012, %1006 ], [ 1, %1002 ]
  %1008 = load %"class.icu_69::UnicodeString"*, %"class.icu_69::UnicodeString"** %80, align 8
  %1009 = getelementptr inbounds %"class.icu_69::UnicodeString", %"class.icu_69::UnicodeString"* %1008, i64 %1007
  %1010 = getelementptr inbounds %"class.icu_69::UnicodeString", %"class.icu_69::UnicodeString"* %944, i64 %1007
  %1011 = call dereferenceable(64) %"class.icu_69::UnicodeString"* @_ZN6icu_6913UnicodeString12fastCopyFromERKS0_(%"class.icu_69::UnicodeString"* %1009, %"class.icu_69::UnicodeString"* dereferenceable(64) %1010) #13
  %1012 = add nuw nsw i64 %1007, 1
  %1013 = icmp eq i64 %1012, %1003
  br i1 %1013, label %1014, label %1006

1014:                                             ; preds = %1006, %1002, %999, %956, %940
  store i32 0, i32* %283, align 8
  %1015 = load i8*, i8** %279, align 8
  store i8 0, i8* %1015, align 1
  %1016 = call dereferenceable(64) %"class.icu_69::CharString"* @_ZN6icu_6910CharString6appendEPKciR10UErrorCode(%"class.icu_69::CharString"* nonnull %57, i8* getelementptr inbounds ([11 x i8], [11 x i8]* @_ZN6icu_69L14gMonthNamesTagE, i64 0, i64 0), i32 -1, i32* dereferenceable(4) %3) #13
  %1017 = call dereferenceable(64) %"class.icu_69::CharString"* @_ZN6icu_6910CharString6appendEcR10UErrorCode(%"class.icu_69::CharString"* %1016, i8 signext 47, i32* dereferenceable(4) %3) #13
  %1018 = call dereferenceable(64) %"class.icu_69::CharString"* @_ZN6icu_6910CharString6appendEPKciR10UErrorCode(%"class.icu_69::CharString"* %1017, i8* getelementptr inbounds ([12 x i8], [12 x i8]* @_ZN6icu_69L19gNamesStandaloneTagE, i64 0, i64 0), i32 -1, i32* dereferenceable(4) %3) #13
  %1019 = call dereferenceable(64) %"class.icu_69::CharString"* @_ZN6icu_6910CharString6appendEcR10UErrorCode(%"class.icu_69::CharString"* %1018, i8 signext 47, i32* dereferenceable(4) %3) #13
  %1020 = call dereferenceable(64) %"class.icu_69::CharString"* @_ZN6icu_6910CharString6appendEPKciR10UErrorCode(%"class.icu_69::CharString"* %1019, i8* getelementptr inbounds ([12 x i8], [12 x i8]* @_ZN6icu_69L13gNamesAbbrTagE, i64 0, i64 0), i32 -1, i32* dereferenceable(4) %3) #13
  %1021 = load i32, i32* %3, align 4
  %1022 = icmp sgt i32 %1021, 0
  br i1 %1022, label %1039, label %1023

1023:                                             ; preds = %1014
  %1024 = bitcast %"class.icu_69::UnicodeString"* %39 to i8*
  call void @llvm.lifetime.start.p0i8(i64 64, i8* nonnull %1024) #13
  call void @llvm.memset.p0i8.i64(i8* nonnull align 8 %1024, i8 -86, i64 64, i1 false) #13
  %1025 = getelementptr inbounds %"class.icu_69::CharString", %"class.icu_69::CharString"* %1020, i64 0, i32 0, i32 0
  %1026 = load i8*, i8** %1025, align 8
  call void @_ZN6icu_6913UnicodeStringC1EPKciNS0_10EInvariantE(%"class.icu_69::UnicodeString"* nonnull %39, i8* %1026, i32 -1, i32 0) #13
  %1027 = load %struct.UHashtable*, %struct.UHashtable** %143, align 8
  %1028 = call i8* @uhash_get_69(%struct.UHashtable* %1027, i8* nonnull %1024) #13
  %1029 = icmp eq i8* %1028, null
  br i1 %1029, label %1036, label %1030

1030:                                             ; preds = %1023
  %1031 = load %struct.UHashtable*, %struct.UHashtable** %176, align 8
  %1032 = call i32 @uhash_geti_69(%struct.UHashtable* %1031, i8* nonnull %1024) #13
  store i32 %1032, i32* %83, align 4
  %1033 = bitcast %"class.icu_69::UnicodeString"** %82 to i8**
  store i8* %1028, i8** %1033, align 8
  %1034 = load %struct.UHashtable*, %struct.UHashtable** %143, align 8
  %1035 = call i8* @uhash_remove_69(%struct.UHashtable* %1034, i8* nonnull %1024) #13
  br label %1037

1036:                                             ; preds = %1023
  store i32 0, i32* %83, align 4
  store i32 2, i32* %3, align 4
  br label %1037

1037:                                             ; preds = %1036, %1030
  call void @_ZN6icu_6913UnicodeStringD1Ev(%"class.icu_69::UnicodeString"* nonnull %39) #13
  call void @llvm.lifetime.end.p0i8(i64 64, i8* nonnull %1024) #13
  %1038 = load i32, i32* %3, align 4
  br label %1039

1039:                                             ; preds = %1014, %1037
  %1040 = phi i32 [ %1021, %1014 ], [ %1038, %1037 ]
  %1041 = icmp eq i32 %1040, 2
  br i1 %1041, label %1042, label %1113

1042:                                             ; preds = %1039
  store i32 0, i32* %3, align 4
  %1043 = load %"class.icu_69::UnicodeString"*, %"class.icu_69::UnicodeString"** %76, align 8
  %1044 = load i32, i32* %77, align 8
  store i32 %1044, i32* %83, align 4
  %1045 = icmp eq i32 %1044, 0
  %1046 = select i1 %1045, i32 1, i32 %1044
  %1047 = sext i32 %1046 to i64
  %1048 = call { i64, i1 } @llvm.umul.with.overflow.i64(i64 %1047, i64 64) #13
  %1049 = extractvalue { i64, i1 } %1048, 1
  %1050 = extractvalue { i64, i1 } %1048, 0
  %1051 = or i64 %1050, 8
  %1052 = select i1 %1049, i64 -1, i64 %1051
  %1053 = call i8* @_ZN6icu_697UMemorynaEm(i64 %1052) #13
  %1054 = icmp eq i8* %1053, null
  br i1 %1054, label %1055, label %1056

1055:                                             ; preds = %1042
  store %"class.icu_69::UnicodeString"* null, %"class.icu_69::UnicodeString"** %82, align 8
  br label %1113

1056:                                             ; preds = %1042
  %1057 = bitcast i8* %1053 to i64*
  store i64 %1047, i64* %1057, align 8
  %1058 = getelementptr inbounds i8, i8* %1053, i64 8
  %1059 = bitcast i8* %1058 to %"class.icu_69::UnicodeString"*
  %1060 = getelementptr inbounds %"class.icu_69::UnicodeString", %"class.icu_69::UnicodeString"* %1059, i64 %1047
  %1061 = shl nsw i64 %1047, 6
  %1062 = add nsw i64 %1061, -64
  %1063 = lshr exact i64 %1062, 6
  %1064 = add nuw nsw i64 %1063, 1
  %1065 = and i64 %1064, 7
  %1066 = icmp eq i64 %1065, 0
  br i1 %1066, label %1075, label %1067

1067:                                             ; preds = %1056, %1067
  %1068 = phi %"class.icu_69::UnicodeString"* [ %1072, %1067 ], [ %1059, %1056 ]
  %1069 = phi i64 [ %1073, %1067 ], [ %1065, %1056 ]
  %1070 = getelementptr inbounds %"class.icu_69::UnicodeString", %"class.icu_69::UnicodeString"* %1068, i64 0, i32 0, i32 0, i32 0
  store i32 (...)** bitcast (i8** getelementptr inbounds ({ [13 x i8*] }, { [13 x i8*] }* @_ZTVN6icu_6913UnicodeStringE, i64 0, inrange i32 0, i64 2) to i32 (...)**), i32 (...)*** %1070, align 8
  %1071 = getelementptr inbounds %"class.icu_69::UnicodeString", %"class.icu_69::UnicodeString"* %1068, i64 0, i32 1, i32 0, i32 0
  store i16 2, i16* %1071, align 8
  %1072 = getelementptr inbounds %"class.icu_69::UnicodeString", %"class.icu_69::UnicodeString"* %1068, i64 1
  %1073 = add i64 %1069, -1
  %1074 = icmp eq i64 %1073, 0
  br i1 %1074, label %1075, label %1067, !llvm.loop !10

1075:                                             ; preds = %1067, %1056
  %1076 = phi %"class.icu_69::UnicodeString"* [ %1059, %1056 ], [ %1072, %1067 ]
  %1077 = icmp ult i64 %1062, 448
  br i1 %1077, label %1098, label %1078

1078:                                             ; preds = %1075, %1078
  %1079 = phi %"class.icu_69::UnicodeString"* [ %1096, %1078 ], [ %1076, %1075 ]
  %1080 = getelementptr inbounds %"class.icu_69::UnicodeString", %"class.icu_69::UnicodeString"* %1079, i64 0, i32 0, i32 0, i32 0
  store i32 (...)** bitcast (i8** getelementptr inbounds ({ [13 x i8*] }, { [13 x i8*] }* @_ZTVN6icu_6913UnicodeStringE, i64 0, inrange i32 0, i64 2) to i32 (...)**), i32 (...)*** %1080, align 8
  %1081 = getelementptr inbounds %"class.icu_69::UnicodeString", %"class.icu_69::UnicodeString"* %1079, i64 0, i32 1, i32 0, i32 0
  store i16 2, i16* %1081, align 8
  %1082 = getelementptr inbounds %"class.icu_69::UnicodeString", %"class.icu_69::UnicodeString"* %1079, i64 1, i32 0, i32 0, i32 0
  store i32 (...)** bitcast (i8** getelementptr inbounds ({ [13 x i8*] }, { [13 x i8*] }* @_ZTVN6icu_6913UnicodeStringE, i64 0, inrange i32 0, i64 2) to i32 (...)**), i32 (...)*** %1082, align 8
  %1083 = getelementptr inbounds %"class.icu_69::UnicodeString", %"class.icu_69::UnicodeString"* %1079, i64 1, i32 1, i32 0, i32 0
  store i16 2, i16* %1083, align 8
  %1084 = getelementptr inbounds %"class.icu_69::UnicodeString", %"class.icu_69::UnicodeString"* %1079, i64 2, i32 0, i32 0, i32 0
  store i32 (...)** bitcast (i8** getelementptr inbounds ({ [13 x i8*] }, { [13 x i8*] }* @_ZTVN6icu_6913UnicodeStringE, i64 0, inrange i32 0, i64 2) to i32 (...)**), i32 (...)*** %1084, align 8
  %1085 = getelementptr inbounds %"class.icu_69::UnicodeString", %"class.icu_69::UnicodeString"* %1079, i64 2, i32 1, i32 0, i32 0
  store i16 2, i16* %1085, align 8
  %1086 = getelementptr inbounds %"class.icu_69::UnicodeString", %"class.icu_69::UnicodeString"* %1079, i64 3, i32 0, i32 0, i32 0
  store i32 (...)** bitcast (i8** getelementptr inbounds ({ [13 x i8*] }, { [13 x i8*] }* @_ZTVN6icu_6913UnicodeStringE, i64 0, inrange i32 0, i64 2) to i32 (...)**), i32 (...)*** %1086, align 8
  %1087 = getelementptr inbounds %"class.icu_69::UnicodeString", %"class.icu_69::UnicodeString"* %1079, i64 3, i32 1, i32 0, i32 0
  store i16 2, i16* %1087, align 8
  %1088 = getelementptr inbounds %"class.icu_69::UnicodeString", %"class.icu_69::UnicodeString"* %1079, i64 4, i32 0, i32 0, i32 0
  store i32 (...)** bitcast (i8** getelementptr inbounds ({ [13 x i8*] }, { [13 x i8*] }* @_ZTVN6icu_6913UnicodeStringE, i64 0, inrange i32 0, i64 2) to i32 (...)**), i32 (...)*** %1088, align 8
  %1089 = getelementptr inbounds %"class.icu_69::UnicodeString", %"class.icu_69::UnicodeString"* %1079, i64 4, i32 1, i32 0, i32 0
  store i16 2, i16* %1089, align 8
  %1090 = getelementptr inbounds %"class.icu_69::UnicodeString", %"class.icu_69::UnicodeString"* %1079, i64 5, i32 0, i32 0, i32 0
  store i32 (...)** bitcast (i8** getelementptr inbounds ({ [13 x i8*] }, { [13 x i8*] }* @_ZTVN6icu_6913UnicodeStringE, i64 0, inrange i32 0, i64 2) to i32 (...)**), i32 (...)*** %1090, align 8
  %1091 = getelementptr inbounds %"class.icu_69::UnicodeString", %"class.icu_69::UnicodeString"* %1079, i64 5, i32 1, i32 0, i32 0
  store i16 2, i16* %1091, align 8
  %1092 = getelementptr inbounds %"class.icu_69::UnicodeString", %"class.icu_69::UnicodeString"* %1079, i64 6, i32 0, i32 0, i32 0
  store i32 (...)** bitcast (i8** getelementptr inbounds ({ [13 x i8*] }, { [13 x i8*] }* @_ZTVN6icu_6913UnicodeStringE, i64 0, inrange i32 0, i64 2) to i32 (...)**), i32 (...)*** %1092, align 8
  %1093 = getelementptr inbounds %"class.icu_69::UnicodeString", %"class.icu_69::UnicodeString"* %1079, i64 6, i32 1, i32 0, i32 0
  store i16 2, i16* %1093, align 8
  %1094 = getelementptr inbounds %"class.icu_69::UnicodeString", %"class.icu_69::UnicodeString"* %1079, i64 7, i32 0, i32 0, i32 0
  store i32 (...)** bitcast (i8** getelementptr inbounds ({ [13 x i8*] }, { [13 x i8*] }* @_ZTVN6icu_6913UnicodeStringE, i64 0, inrange i32 0, i64 2) to i32 (...)**), i32 (...)*** %1094, align 8
  %1095 = getelementptr inbounds %"class.icu_69::UnicodeString", %"class.icu_69::UnicodeString"* %1079, i64 7, i32 1, i32 0, i32 0
  store i16 2, i16* %1095, align 8
  %1096 = getelementptr inbounds %"class.icu_69::UnicodeString", %"class.icu_69::UnicodeString"* %1079, i64 8
  %1097 = icmp eq %"class.icu_69::UnicodeString"* %1096, %1060
  br i1 %1097, label %1098, label %1078

1098:                                             ; preds = %1078, %1075
  %1099 = bitcast %"class.icu_69::UnicodeString"** %82 to i8**
  store i8* %1058, i8** %1099, align 8
  %1100 = icmp sgt i32 %1044, 0
  br i1 %1100, label %1101, label %1113

1101:                                             ; preds = %1098
  %1102 = zext i32 %1044 to i64
  %1103 = call dereferenceable(64) %"class.icu_69::UnicodeString"* @_ZN6icu_6913UnicodeString12fastCopyFromERKS0_(%"class.icu_69::UnicodeString"* %1059, %"class.icu_69::UnicodeString"* dereferenceable(64) %1043) #13
  %1104 = icmp eq i32 %1044, 1
  br i1 %1104, label %1113, label %1105

1105:                                             ; preds = %1101, %1105
  %1106 = phi i64 [ %1111, %1105 ], [ 1, %1101 ]
  %1107 = load %"class.icu_69::UnicodeString"*, %"class.icu_69::UnicodeString"** %82, align 8
  %1108 = getelementptr inbounds %"class.icu_69::UnicodeString", %"class.icu_69::UnicodeString"* %1107, i64 %1106
  %1109 = getelementptr inbounds %"class.icu_69::UnicodeString", %"class.icu_69::UnicodeString"* %1043, i64 %1106
  %1110 = call dereferenceable(64) %"class.icu_69::UnicodeString"* @_ZN6icu_6913UnicodeString12fastCopyFromERKS0_(%"class.icu_69::UnicodeString"* %1108, %"class.icu_69::UnicodeString"* dereferenceable(64) %1109) #13
  %1111 = add nuw nsw i64 %1106, 1
  %1112 = icmp eq i64 %1111, %1102
  br i1 %1112, label %1113, label %1105

1113:                                             ; preds = %1105, %1101, %1098, %1055, %1039
  %1114 = bitcast i32* %61 to i8*
  call void @llvm.lifetime.start.p0i8(i64 4, i8* nonnull %1114) #13
  %1115 = load i32, i32* %3, align 4
  store i32 %1115, i32* %61, align 4
  store i32 0, i32* %283, align 8
  %1116 = load i8*, i8** %279, align 8
  store i8 0, i8* %1116, align 1
  %1117 = call dereferenceable(64) %"class.icu_69::CharString"* @_ZN6icu_6910CharString6appendEPKciR10UErrorCode(%"class.icu_69::CharString"* nonnull %57, i8* getelementptr inbounds ([11 x i8], [11 x i8]* @_ZN6icu_69L14gMonthNamesTagE, i64 0, i64 0), i32 -1, i32* nonnull dereferenceable(4) %61) #13
  %1118 = call dereferenceable(64) %"class.icu_69::CharString"* @_ZN6icu_6910CharString6appendEcR10UErrorCode(%"class.icu_69::CharString"* %1117, i8 signext 47, i32* nonnull dereferenceable(4) %61) #13
  %1119 = call dereferenceable(64) %"class.icu_69::CharString"* @_ZN6icu_6910CharString6appendEPKciR10UErrorCode(%"class.icu_69::CharString"* %1118, i8* getelementptr inbounds ([7 x i8], [7 x i8]* @_ZN6icu_69L15gNamesFormatTagE, i64 0, i64 0), i32 -1, i32* nonnull dereferenceable(4) %61) #13
  %1120 = call dereferenceable(64) %"class.icu_69::CharString"* @_ZN6icu_6910CharString6appendEcR10UErrorCode(%"class.icu_69::CharString"* %1119, i8 signext 47, i32* nonnull dereferenceable(4) %61) #13
  %1121 = call dereferenceable(64) %"class.icu_69::CharString"* @_ZN6icu_6910CharString6appendEPKciR10UErrorCode(%"class.icu_69::CharString"* %1120, i8* getelementptr inbounds ([7 x i8], [7 x i8]* @_ZN6icu_69L15gNamesNarrowTagE, i64 0, i64 0), i32 -1, i32* nonnull dereferenceable(4) %61) #13
  %1122 = load i32, i32* %61, align 4
  %1123 = icmp sgt i32 %1122, 0
  br i1 %1123, label %1139, label %1124

1124:                                             ; preds = %1113
  %1125 = bitcast %"class.icu_69::UnicodeString"* %38 to i8*
  call void @llvm.lifetime.start.p0i8(i64 64, i8* nonnull %1125) #13
  call void @llvm.memset.p0i8.i64(i8* nonnull align 8 %1125, i8 -86, i64 64, i1 false) #13
  %1126 = getelementptr inbounds %"class.icu_69::CharString", %"class.icu_69::CharString"* %1121, i64 0, i32 0, i32 0
  %1127 = load i8*, i8** %1126, align 8
  call void @_ZN6icu_6913UnicodeStringC1EPKciNS0_10EInvariantE(%"class.icu_69::UnicodeString"* nonnull %38, i8* %1127, i32 -1, i32 0) #13
  %1128 = load %struct.UHashtable*, %struct.UHashtable** %143, align 8
  %1129 = call i8* @uhash_get_69(%struct.UHashtable* %1128, i8* nonnull %1125) #13
  %1130 = icmp eq i8* %1129, null
  br i1 %1130, label %1137, label %1131

1131:                                             ; preds = %1124
  %1132 = load %struct.UHashtable*, %struct.UHashtable** %176, align 8
  %1133 = call i32 @uhash_geti_69(%struct.UHashtable* %1132, i8* nonnull %1125) #13
  store i32 %1133, i32* %79, align 4
  %1134 = bitcast %"class.icu_69::UnicodeString"** %78 to i8**
  store i8* %1129, i8** %1134, align 8
  %1135 = load %struct.UHashtable*, %struct.UHashtable** %143, align 8
  %1136 = call i8* @uhash_remove_69(%struct.UHashtable* %1135, i8* nonnull %1125) #13
  br label %1138

1137:                                             ; preds = %1124
  store i32 0, i32* %79, align 4
  store i32 2, i32* %61, align 4
  br label %1138

1138:                                             ; preds = %1137, %1131
  call void @_ZN6icu_6913UnicodeStringD1Ev(%"class.icu_69::UnicodeString"* nonnull %38) #13
  call void @llvm.lifetime.end.p0i8(i64 64, i8* nonnull %1125) #13
  br label %1139

1139:                                             ; preds = %1113, %1138
  store i32 0, i32* %283, align 8
  %1140 = load i8*, i8** %279, align 8
  store i8 0, i8* %1140, align 1
  %1141 = call dereferenceable(64) %"class.icu_69::CharString"* @_ZN6icu_6910CharString6appendEPKciR10UErrorCode(%"class.icu_69::CharString"* nonnull %57, i8* getelementptr inbounds ([11 x i8], [11 x i8]* @_ZN6icu_69L14gMonthNamesTagE, i64 0, i64 0), i32 -1, i32* nonnull dereferenceable(4) %61) #13
  %1142 = call dereferenceable(64) %"class.icu_69::CharString"* @_ZN6icu_6910CharString6appendEcR10UErrorCode(%"class.icu_69::CharString"* %1141, i8 signext 47, i32* nonnull dereferenceable(4) %61) #13
  %1143 = call dereferenceable(64) %"class.icu_69::CharString"* @_ZN6icu_6910CharString6appendEPKciR10UErrorCode(%"class.icu_69::CharString"* %1142, i8* getelementptr inbounds ([12 x i8], [12 x i8]* @_ZN6icu_69L19gNamesStandaloneTagE, i64 0, i64 0), i32 -1, i32* nonnull dereferenceable(4) %61) #13
  %1144 = call dereferenceable(64) %"class.icu_69::CharString"* @_ZN6icu_6910CharString6appendEcR10UErrorCode(%"class.icu_69::CharString"* %1143, i8 signext 47, i32* nonnull dereferenceable(4) %61) #13
  %1145 = call dereferenceable(64) %"class.icu_69::CharString"* @_ZN6icu_6910CharString6appendEPKciR10UErrorCode(%"class.icu_69::CharString"* %1144, i8* getelementptr inbounds ([7 x i8], [7 x i8]* @_ZN6icu_69L15gNamesNarrowTagE, i64 0, i64 0), i32 -1, i32* nonnull dereferenceable(4) %61) #13
  %1146 = icmp sgt i32 %1115, 0
  br i1 %1146, label %1163, label %1147

1147:                                             ; preds = %1139
  %1148 = bitcast %"class.icu_69::UnicodeString"* %37 to i8*
  call void @llvm.lifetime.start.p0i8(i64 64, i8* nonnull %1148) #13
  call void @llvm.memset.p0i8.i64(i8* nonnull align 8 %1148, i8 -86, i64 64, i1 false) #13
  %1149 = getelementptr inbounds %"class.icu_69::CharString", %"class.icu_69::CharString"* %1145, i64 0, i32 0, i32 0
  %1150 = load i8*, i8** %1149, align 8
  call void @_ZN6icu_6913UnicodeStringC1EPKciNS0_10EInvariantE(%"class.icu_69::UnicodeString"* nonnull %37, i8* %1150, i32 -1, i32 0) #13
  %1151 = load %struct.UHashtable*, %struct.UHashtable** %143, align 8
  %1152 = call i8* @uhash_get_69(%struct.UHashtable* %1151, i8* nonnull %1148) #13
  %1153 = icmp eq i8* %1152, null
  br i1 %1153, label %1160, label %1154

1154:                                             ; preds = %1147
  %1155 = load %struct.UHashtable*, %struct.UHashtable** %176, align 8
  %1156 = call i32 @uhash_geti_69(%struct.UHashtable* %1155, i8* nonnull %1148) #13
  store i32 %1156, i32* %85, align 4
  %1157 = bitcast %"class.icu_69::UnicodeString"** %84 to i8**
  store i8* %1152, i8** %1157, align 8
  %1158 = load %struct.UHashtable*, %struct.UHashtable** %143, align 8
  %1159 = call i8* @uhash_remove_69(%struct.UHashtable* %1158, i8* nonnull %1148) #13
  br label %1161

1160:                                             ; preds = %1147
  store i32 0, i32* %85, align 4
  br label %1161

1161:                                             ; preds = %1160, %1154
  %1162 = phi i32 [ 2, %1160 ], [ %1115, %1154 ]
  call void @_ZN6icu_6913UnicodeStringD1Ev(%"class.icu_69::UnicodeString"* nonnull %37) #13
  call void @llvm.lifetime.end.p0i8(i64 64, i8* nonnull %1148) #13
  br label %1163

1163:                                             ; preds = %1139, %1161
  %1164 = phi i32 [ %1115, %1139 ], [ %1162, %1161 ]
  %1165 = load i32, i32* %61, align 4
  %1166 = icmp eq i32 %1165, 2
  %1167 = icmp ne i32 %1164, 2
  %1168 = and i1 %1167, %1166
  br i1 %1168, label %1169, label %1240

1169:                                             ; preds = %1163
  %1170 = load %"class.icu_69::UnicodeString"*, %"class.icu_69::UnicodeString"** %84, align 8
  %1171 = load i32, i32* %85, align 8
  store i32 %1171, i32* %79, align 4
  %1172 = icmp eq i32 %1171, 0
  %1173 = select i1 %1172, i32 1, i32 %1171
  %1174 = sext i32 %1173 to i64
  %1175 = call { i64, i1 } @llvm.umul.with.overflow.i64(i64 %1174, i64 64) #13
  %1176 = extractvalue { i64, i1 } %1175, 1
  %1177 = extractvalue { i64, i1 } %1175, 0
  %1178 = or i64 %1177, 8
  %1179 = select i1 %1176, i64 -1, i64 %1178
  %1180 = call i8* @_ZN6icu_697UMemorynaEm(i64 %1179) #13
  %1181 = icmp eq i8* %1180, null
  br i1 %1181, label %1182, label %1183

1182:                                             ; preds = %1169
  store %"class.icu_69::UnicodeString"* null, %"class.icu_69::UnicodeString"** %78, align 8
  br label %1459

1183:                                             ; preds = %1169
  %1184 = bitcast i8* %1180 to i64*
  store i64 %1174, i64* %1184, align 8
  %1185 = getelementptr inbounds i8, i8* %1180, i64 8
  %1186 = bitcast i8* %1185 to %"class.icu_69::UnicodeString"*
  %1187 = getelementptr inbounds %"class.icu_69::UnicodeString", %"class.icu_69::UnicodeString"* %1186, i64 %1174
  %1188 = shl nsw i64 %1174, 6
  %1189 = add nsw i64 %1188, -64
  %1190 = lshr exact i64 %1189, 6
  %1191 = add nuw nsw i64 %1190, 1
  %1192 = and i64 %1191, 7
  %1193 = icmp eq i64 %1192, 0
  br i1 %1193, label %1202, label %1194

1194:                                             ; preds = %1183, %1194
  %1195 = phi %"class.icu_69::UnicodeString"* [ %1199, %1194 ], [ %1186, %1183 ]
  %1196 = phi i64 [ %1200, %1194 ], [ %1192, %1183 ]
  %1197 = getelementptr inbounds %"class.icu_69::UnicodeString", %"class.icu_69::UnicodeString"* %1195, i64 0, i32 0, i32 0, i32 0
  store i32 (...)** bitcast (i8** getelementptr inbounds ({ [13 x i8*] }, { [13 x i8*] }* @_ZTVN6icu_6913UnicodeStringE, i64 0, inrange i32 0, i64 2) to i32 (...)**), i32 (...)*** %1197, align 8
  %1198 = getelementptr inbounds %"class.icu_69::UnicodeString", %"class.icu_69::UnicodeString"* %1195, i64 0, i32 1, i32 0, i32 0
  store i16 2, i16* %1198, align 8
  %1199 = getelementptr inbounds %"class.icu_69::UnicodeString", %"class.icu_69::UnicodeString"* %1195, i64 1
  %1200 = add i64 %1196, -1
  %1201 = icmp eq i64 %1200, 0
  br i1 %1201, label %1202, label %1194, !llvm.loop !11

1202:                                             ; preds = %1194, %1183
  %1203 = phi %"class.icu_69::UnicodeString"* [ %1186, %1183 ], [ %1199, %1194 ]
  %1204 = icmp ult i64 %1189, 448
  br i1 %1204, label %1225, label %1205

1205:                                             ; preds = %1202, %1205
  %1206 = phi %"class.icu_69::UnicodeString"* [ %1223, %1205 ], [ %1203, %1202 ]
  %1207 = getelementptr inbounds %"class.icu_69::UnicodeString", %"class.icu_69::UnicodeString"* %1206, i64 0, i32 0, i32 0, i32 0
  store i32 (...)** bitcast (i8** getelementptr inbounds ({ [13 x i8*] }, { [13 x i8*] }* @_ZTVN6icu_6913UnicodeStringE, i64 0, inrange i32 0, i64 2) to i32 (...)**), i32 (...)*** %1207, align 8
  %1208 = getelementptr inbounds %"class.icu_69::UnicodeString", %"class.icu_69::UnicodeString"* %1206, i64 0, i32 1, i32 0, i32 0
  store i16 2, i16* %1208, align 8
  %1209 = getelementptr inbounds %"class.icu_69::UnicodeString", %"class.icu_69::UnicodeString"* %1206, i64 1, i32 0, i32 0, i32 0
  store i32 (...)** bitcast (i8** getelementptr inbounds ({ [13 x i8*] }, { [13 x i8*] }* @_ZTVN6icu_6913UnicodeStringE, i64 0, inrange i32 0, i64 2) to i32 (...)**), i32 (...)*** %1209, align 8
  %1210 = getelementptr inbounds %"class.icu_69::UnicodeString", %"class.icu_69::UnicodeString"* %1206, i64 1, i32 1, i32 0, i32 0
  store i16 2, i16* %1210, align 8
  %1211 = getelementptr inbounds %"class.icu_69::UnicodeString", %"class.icu_69::UnicodeString"* %1206, i64 2, i32 0, i32 0, i32 0
  store i32 (...)** bitcast (i8** getelementptr inbounds ({ [13 x i8*] }, { [13 x i8*] }* @_ZTVN6icu_6913UnicodeStringE, i64 0, inrange i32 0, i64 2) to i32 (...)**), i32 (...)*** %1211, align 8
  %1212 = getelementptr inbounds %"class.icu_69::UnicodeString", %"class.icu_69::UnicodeString"* %1206, i64 2, i32 1, i32 0, i32 0
  store i16 2, i16* %1212, align 8
  %1213 = getelementptr inbounds %"class.icu_69::UnicodeString", %"class.icu_69::UnicodeString"* %1206, i64 3, i32 0, i32 0, i32 0
  store i32 (...)** bitcast (i8** getelementptr inbounds ({ [13 x i8*] }, { [13 x i8*] }* @_ZTVN6icu_6913UnicodeStringE, i64 0, inrange i32 0, i64 2) to i32 (...)**), i32 (...)*** %1213, align 8
  %1214 = getelementptr inbounds %"class.icu_69::UnicodeString", %"class.icu_69::UnicodeString"* %1206, i64 3, i32 1, i32 0, i32 0
  store i16 2, i16* %1214, align 8
  %1215 = getelementptr inbounds %"class.icu_69::UnicodeString", %"class.icu_69::UnicodeString"* %1206, i64 4, i32 0, i32 0, i32 0
  store i32 (...)** bitcast (i8** getelementptr inbounds ({ [13 x i8*] }, { [13 x i8*] }* @_ZTVN6icu_6913UnicodeStringE, i64 0, inrange i32 0, i64 2) to i32 (...)**), i32 (...)*** %1215, align 8
  %1216 = getelementptr inbounds %"class.icu_69::UnicodeString", %"class.icu_69::UnicodeString"* %1206, i64 4, i32 1, i32 0, i32 0
  store i16 2, i16* %1216, align 8
  %1217 = getelementptr inbounds %"class.icu_69::UnicodeString", %"class.icu_69::UnicodeString"* %1206, i64 5, i32 0, i32 0, i32 0
  store i32 (...)** bitcast (i8** getelementptr inbounds ({ [13 x i8*] }, { [13 x i8*] }* @_ZTVN6icu_6913UnicodeStringE, i64 0, inrange i32 0, i64 2) to i32 (...)**), i32 (...)*** %1217, align 8
  %1218 = getelementptr inbounds %"class.icu_69::UnicodeString", %"class.icu_69::UnicodeString"* %1206, i64 5, i32 1, i32 0, i32 0
  store i16 2, i16* %1218, align 8
  %1219 = getelementptr inbounds %"class.icu_69::UnicodeString", %"class.icu_69::UnicodeString"* %1206, i64 6, i32 0, i32 0, i32 0
  store i32 (...)** bitcast (i8** getelementptr inbounds ({ [13 x i8*] }, { [13 x i8*] }* @_ZTVN6icu_6913UnicodeStringE, i64 0, inrange i32 0, i64 2) to i32 (...)**), i32 (...)*** %1219, align 8
  %1220 = getelementptr inbounds %"class.icu_69::UnicodeString", %"class.icu_69::UnicodeString"* %1206, i64 6, i32 1, i32 0, i32 0
  store i16 2, i16* %1220, align 8
  %1221 = getelementptr inbounds %"class.icu_69::UnicodeString", %"class.icu_69::UnicodeString"* %1206, i64 7, i32 0, i32 0, i32 0
  store i32 (...)** bitcast (i8** getelementptr inbounds ({ [13 x i8*] }, { [13 x i8*] }* @_ZTVN6icu_6913UnicodeStringE, i64 0, inrange i32 0, i64 2) to i32 (...)**), i32 (...)*** %1221, align 8
  %1222 = getelementptr inbounds %"class.icu_69::UnicodeString", %"class.icu_69::UnicodeString"* %1206, i64 7, i32 1, i32 0, i32 0
  store i16 2, i16* %1222, align 8
  %1223 = getelementptr inbounds %"class.icu_69::UnicodeString", %"class.icu_69::UnicodeString"* %1206, i64 8
  %1224 = icmp eq %"class.icu_69::UnicodeString"* %1223, %1187
  br i1 %1224, label %1225, label %1205

1225:                                             ; preds = %1205, %1202
  %1226 = bitcast %"class.icu_69::UnicodeString"** %78 to i8**
  store i8* %1185, i8** %1226, align 8
  %1227 = icmp sgt i32 %1171, 0
  br i1 %1227, label %1228, label %1459

1228:                                             ; preds = %1225
  %1229 = zext i32 %1171 to i64
  %1230 = call dereferenceable(64) %"class.icu_69::UnicodeString"* @_ZN6icu_6913UnicodeString12fastCopyFromERKS0_(%"class.icu_69::UnicodeString"* %1186, %"class.icu_69::UnicodeString"* dereferenceable(64) %1170) #13
  %1231 = icmp eq i32 %1171, 1
  br i1 %1231, label %1459, label %1232

1232:                                             ; preds = %1228, %1232
  %1233 = phi i64 [ %1238, %1232 ], [ 1, %1228 ]
  %1234 = load %"class.icu_69::UnicodeString"*, %"class.icu_69::UnicodeString"** %78, align 8
  %1235 = getelementptr inbounds %"class.icu_69::UnicodeString", %"class.icu_69::UnicodeString"* %1234, i64 %1233
  %1236 = getelementptr inbounds %"class.icu_69::UnicodeString", %"class.icu_69::UnicodeString"* %1170, i64 %1233
  %1237 = call dereferenceable(64) %"class.icu_69::UnicodeString"* @_ZN6icu_6913UnicodeString12fastCopyFromERKS0_(%"class.icu_69::UnicodeString"* %1235, %"class.icu_69::UnicodeString"* dereferenceable(64) %1236) #13
  %1238 = add nuw nsw i64 %1233, 1
  %1239 = icmp eq i64 %1238, %1229
  br i1 %1239, label %1459, label %1232

1240:                                             ; preds = %1163
  %1241 = icmp ne i32 %1165, 2
  %1242 = icmp eq i32 %1164, 2
  %1243 = and i1 %1242, %1241
  br i1 %1243, label %1244, label %1315

1244:                                             ; preds = %1240
  %1245 = load %"class.icu_69::UnicodeString"*, %"class.icu_69::UnicodeString"** %78, align 8
  %1246 = load i32, i32* %79, align 8
  store i32 %1246, i32* %85, align 4
  %1247 = icmp eq i32 %1246, 0
  %1248 = select i1 %1247, i32 1, i32 %1246
  %1249 = sext i32 %1248 to i64
  %1250 = call { i64, i1 } @llvm.umul.with.overflow.i64(i64 %1249, i64 64) #13
  %1251 = extractvalue { i64, i1 } %1250, 1
  %1252 = extractvalue { i64, i1 } %1250, 0
  %1253 = or i64 %1252, 8
  %1254 = select i1 %1251, i64 -1, i64 %1253
  %1255 = call i8* @_ZN6icu_697UMemorynaEm(i64 %1254) #13
  %1256 = icmp eq i8* %1255, null
  br i1 %1256, label %1257, label %1258

1257:                                             ; preds = %1244
  store %"class.icu_69::UnicodeString"* null, %"class.icu_69::UnicodeString"** %84, align 8
  br label %1459

1258:                                             ; preds = %1244
  %1259 = bitcast i8* %1255 to i64*
  store i64 %1249, i64* %1259, align 8
  %1260 = getelementptr inbounds i8, i8* %1255, i64 8
  %1261 = bitcast i8* %1260 to %"class.icu_69::UnicodeString"*
  %1262 = getelementptr inbounds %"class.icu_69::UnicodeString", %"class.icu_69::UnicodeString"* %1261, i64 %1249
  %1263 = shl nsw i64 %1249, 6
  %1264 = add nsw i64 %1263, -64
  %1265 = lshr exact i64 %1264, 6
  %1266 = add nuw nsw i64 %1265, 1
  %1267 = and i64 %1266, 7
  %1268 = icmp eq i64 %1267, 0
  br i1 %1268, label %1277, label %1269

1269:                                             ; preds = %1258, %1269
  %1270 = phi %"class.icu_69::UnicodeString"* [ %1274, %1269 ], [ %1261, %1258 ]
  %1271 = phi i64 [ %1275, %1269 ], [ %1267, %1258 ]
  %1272 = getelementptr inbounds %"class.icu_69::UnicodeString", %"class.icu_69::UnicodeString"* %1270, i64 0, i32 0, i32 0, i32 0
  store i32 (...)** bitcast (i8** getelementptr inbounds ({ [13 x i8*] }, { [13 x i8*] }* @_ZTVN6icu_6913UnicodeStringE, i64 0, inrange i32 0, i64 2) to i32 (...)**), i32 (...)*** %1272, align 8
  %1273 = getelementptr inbounds %"class.icu_69::UnicodeString", %"class.icu_69::UnicodeString"* %1270, i64 0, i32 1, i32 0, i32 0
  store i16 2, i16* %1273, align 8
  %1274 = getelementptr inbounds %"class.icu_69::UnicodeString", %"class.icu_69::UnicodeString"* %1270, i64 1
  %1275 = add i64 %1271, -1
  %1276 = icmp eq i64 %1275, 0
  br i1 %1276, label %1277, label %1269, !llvm.loop !12

1277:                                             ; preds = %1269, %1258
  %1278 = phi %"class.icu_69::UnicodeString"* [ %1261, %1258 ], [ %1274, %1269 ]
  %1279 = icmp ult i64 %1264, 448
  br i1 %1279, label %1300, label %1280

1280:                                             ; preds = %1277, %1280
  %1281 = phi %"class.icu_69::UnicodeString"* [ %1298, %1280 ], [ %1278, %1277 ]
  %1282 = getelementptr inbounds %"class.icu_69::UnicodeString", %"class.icu_69::UnicodeString"* %1281, i64 0, i32 0, i32 0, i32 0
  store i32 (...)** bitcast (i8** getelementptr inbounds ({ [13 x i8*] }, { [13 x i8*] }* @_ZTVN6icu_6913UnicodeStringE, i64 0, inrange i32 0, i64 2) to i32 (...)**), i32 (...)*** %1282, align 8
  %1283 = getelementptr inbounds %"class.icu_69::UnicodeString", %"class.icu_69::UnicodeString"* %1281, i64 0, i32 1, i32 0, i32 0
  store i16 2, i16* %1283, align 8
  %1284 = getelementptr inbounds %"class.icu_69::UnicodeString", %"class.icu_69::UnicodeString"* %1281, i64 1, i32 0, i32 0, i32 0
  store i32 (...)** bitcast (i8** getelementptr inbounds ({ [13 x i8*] }, { [13 x i8*] }* @_ZTVN6icu_6913UnicodeStringE, i64 0, inrange i32 0, i64 2) to i32 (...)**), i32 (...)*** %1284, align 8
  %1285 = getelementptr inbounds %"class.icu_69::UnicodeString", %"class.icu_69::UnicodeString"* %1281, i64 1, i32 1, i32 0, i32 0
  store i16 2, i16* %1285, align 8
  %1286 = getelementptr inbounds %"class.icu_69::UnicodeString", %"class.icu_69::UnicodeString"* %1281, i64 2, i32 0, i32 0, i32 0
  store i32 (...)** bitcast (i8** getelementptr inbounds ({ [13 x i8*] }, { [13 x i8*] }* @_ZTVN6icu_6913UnicodeStringE, i64 0, inrange i32 0, i64 2) to i32 (...)**), i32 (...)*** %1286, align 8
  %1287 = getelementptr inbounds %"class.icu_69::UnicodeString", %"class.icu_69::UnicodeString"* %1281, i64 2, i32 1, i32 0, i32 0
  store i16 2, i16* %1287, align 8
  %1288 = getelementptr inbounds %"class.icu_69::UnicodeString", %"class.icu_69::UnicodeString"* %1281, i64 3, i32 0, i32 0, i32 0
  store i32 (...)** bitcast (i8** getelementptr inbounds ({ [13 x i8*] }, { [13 x i8*] }* @_ZTVN6icu_6913UnicodeStringE, i64 0, inrange i32 0, i64 2) to i32 (...)**), i32 (...)*** %1288, align 8
  %1289 = getelementptr inbounds %"class.icu_69::UnicodeString", %"class.icu_69::UnicodeString"* %1281, i64 3, i32 1, i32 0, i32 0
  store i16 2, i16* %1289, align 8
  %1290 = getelementptr inbounds %"class.icu_69::UnicodeString", %"class.icu_69::UnicodeString"* %1281, i64 4, i32 0, i32 0, i32 0
  store i32 (...)** bitcast (i8** getelementptr inbounds ({ [13 x i8*] }, { [13 x i8*] }* @_ZTVN6icu_6913UnicodeStringE, i64 0, inrange i32 0, i64 2) to i32 (...)**), i32 (...)*** %1290, align 8
  %1291 = getelementptr inbounds %"class.icu_69::UnicodeString", %"class.icu_69::UnicodeString"* %1281, i64 4, i32 1, i32 0, i32 0
  store i16 2, i16* %1291, align 8
  %1292 = getelementptr inbounds %"class.icu_69::UnicodeString", %"class.icu_69::UnicodeString"* %1281, i64 5, i32 0, i32 0, i32 0
  store i32 (...)** bitcast (i8** getelementptr inbounds ({ [13 x i8*] }, { [13 x i8*] }* @_ZTVN6icu_6913UnicodeStringE, i64 0, inrange i32 0, i64 2) to i32 (...)**), i32 (...)*** %1292, align 8
  %1293 = getelementptr inbounds %"class.icu_69::UnicodeString", %"class.icu_69::UnicodeString"* %1281, i64 5, i32 1, i32 0, i32 0
  store i16 2, i16* %1293, align 8
  %1294 = getelementptr inbounds %"class.icu_69::UnicodeString", %"class.icu_69::UnicodeString"* %1281, i64 6, i32 0, i32 0, i32 0
  store i32 (...)** bitcast (i8** getelementptr inbounds ({ [13 x i8*] }, { [13 x i8*] }* @_ZTVN6icu_6913UnicodeStringE, i64 0, inrange i32 0, i64 2) to i32 (...)**), i32 (...)*** %1294, align 8
  %1295 = getelementptr inbounds %"class.icu_69::UnicodeString", %"class.icu_69::UnicodeString"* %1281, i64 6, i32 1, i32 0, i32 0
  store i16 2, i16* %1295, align 8
  %1296 = getelementptr inbounds %"class.icu_69::UnicodeString", %"class.icu_69::UnicodeString"* %1281, i64 7, i32 0, i32 0, i32 0
  store i32 (...)** bitcast (i8** getelementptr inbounds ({ [13 x i8*] }, { [13 x i8*] }* @_ZTVN6icu_6913UnicodeStringE, i64 0, inrange i32 0, i64 2) to i32 (...)**), i32 (...)*** %1296, align 8
  %1297 = getelementptr inbounds %"class.icu_69::UnicodeString", %"class.icu_69::UnicodeString"* %1281, i64 7, i32 1, i32 0, i32 0
  store i16 2, i16* %1297, align 8
  %1298 = getelementptr inbounds %"class.icu_69::UnicodeString", %"class.icu_69::UnicodeString"* %1281, i64 8
  %1299 = icmp eq %"class.icu_69::UnicodeString"* %1298, %1262
  br i1 %1299, label %1300, label %1280

1300:                                             ; preds = %1280, %1277
  %1301 = bitcast %"class.icu_69::UnicodeString"** %84 to i8**
  store i8* %1260, i8** %1301, align 8
  %1302 = icmp sgt i32 %1246, 0
  br i1 %1302, label %1303, label %1459

1303:                                             ; preds = %1300
  %1304 = zext i32 %1246 to i64
  %1305 = call dereferenceable(64) %"class.icu_69::UnicodeString"* @_ZN6icu_6913UnicodeString12fastCopyFromERKS0_(%"class.icu_69::UnicodeString"* %1261, %"class.icu_69::UnicodeString"* dereferenceable(64) %1245) #13
  %1306 = icmp eq i32 %1246, 1
  br i1 %1306, label %1459, label %1307

1307:                                             ; preds = %1303, %1307
  %1308 = phi i64 [ %1313, %1307 ], [ 1, %1303 ]
  %1309 = load %"class.icu_69::UnicodeString"*, %"class.icu_69::UnicodeString"** %84, align 8
  %1310 = getelementptr inbounds %"class.icu_69::UnicodeString", %"class.icu_69::UnicodeString"* %1309, i64 %1308
  %1311 = getelementptr inbounds %"class.icu_69::UnicodeString", %"class.icu_69::UnicodeString"* %1245, i64 %1308
  %1312 = call dereferenceable(64) %"class.icu_69::UnicodeString"* @_ZN6icu_6913UnicodeString12fastCopyFromERKS0_(%"class.icu_69::UnicodeString"* %1310, %"class.icu_69::UnicodeString"* dereferenceable(64) %1311) #13
  %1313 = add nuw nsw i64 %1308, 1
  %1314 = icmp eq i64 %1313, %1304
  br i1 %1314, label %1459, label %1307

1315:                                             ; preds = %1240
  %1316 = and i1 %1242, %1166
  br i1 %1316, label %1317, label %1459

1317:                                             ; preds = %1315
  %1318 = load %"class.icu_69::UnicodeString"*, %"class.icu_69::UnicodeString"** %76, align 8
  %1319 = load i32, i32* %77, align 8
  store i32 %1319, i32* %79, align 4
  %1320 = icmp eq i32 %1319, 0
  %1321 = select i1 %1320, i32 1, i32 %1319
  %1322 = sext i32 %1321 to i64
  %1323 = call { i64, i1 } @llvm.umul.with.overflow.i64(i64 %1322, i64 64) #13
  %1324 = extractvalue { i64, i1 } %1323, 1
  %1325 = extractvalue { i64, i1 } %1323, 0
