; ModuleID = 'gen/third_party/blink/renderer/bindings/modules/v8/encoded_av_chunk_sequence_or_encoded_av_chunk.cc'
source_filename = "gen/third_party/blink/renderer/bindings/modules/v8/encoded_av_chunk_sequence_or_encoded_av_chunk.cc"
target datalayout = "e-m:e-i64:64-f80:128-n8:16:32:64-S128"
target triple = "x86_64-unknown-linux-gnu"

module asm ".symver exp, exp@GLIBC_2.2.5"
module asm ".symver exp2, exp2@GLIBC_2.2.5"
module asm ".symver exp2f, exp2f@GLIBC_2.2.5"
module asm ".symver expf, expf@GLIBC_2.2.5"
module asm ".symver lgamma, lgamma@GLIBC_2.2.5"
module asm ".symver lgammaf, lgammaf@GLIBC_2.2.5"
module asm ".symver lgammal, lgammal@GLIBC_2.2.5"
module asm ".symver log, log@GLIBC_2.2.5"
module asm ".symver log2, log2@GLIBC_2.2.5"
module asm ".symver log2f, log2f@GLIBC_2.2.5"
module asm ".symver logf, logf@GLIBC_2.2.5"
module asm ".symver pow, pow@GLIBC_2.2.5"
module asm ".symver powf, powf@GLIBC_2.2.5"

%"class.blink::AtomicEntryFlag" = type { %"struct.std::__1::atomic.218" }
%"struct.std::__1::atomic.218" = type { %"struct.std::__1::__atomic_base.219" }
%"struct.std::__1::__atomic_base.219" = type { %"struct.std::__1::__atomic_base.220" }
%"struct.std::__1::__atomic_base.220" = type { %"struct.std::__1::__cxx_atomic_impl.221" }
%"struct.std::__1::__cxx_atomic_impl.221" = type { %"struct.std::__1::__cxx_atomic_base_impl.222" }
%"struct.std::__1::__cxx_atomic_base_impl.222" = type { i32 }
%"class.WTF::ThreadSpecific" = type { %"class.blink::ThreadState"**, %"class.base::ThreadLocalStorage::Slot" }
%"class.blink::ThreadState" = type <{ %"class.std::__1::unique_ptr", i32, [4 x i8], %"class.std::__1::unique_ptr.132", %"class.std::__1::unique_ptr.132", i8**, i8, i8, i8, i8, i8, i8, [2 x i8], i64, i64, i32, i32, i32, [4 x i8], %"class.WTF::Deque", %"class.v8::Isolate"*, void (%"class.v8::Isolate"*, %"class.v8::EmbedderGraph"*, i8*)*, %"class.std::__1::unique_ptr.142", %"class.std::__1::unique_ptr.148", %"struct.blink::ThreadState::GCData", %"class.std::__1::unique_ptr.160", %"class.std::__1::unique_ptr.166", %"class.base::JobHandle", %"class.base::JobHandle", %"struct.std::__1::atomic.172", [7 x i8], i64, i8, [7 x i8], i64, %"class.base::TimeTicks", i8, i8, [6 x i8] }>
%"class.std::__1::unique_ptr" = type { %"class.std::__1::__compressed_pair" }
%"class.std::__1::__compressed_pair" = type { %"struct.std::__1::__compressed_pair_elem" }
%"struct.std::__1::__compressed_pair_elem" = type { %"class.blink::ThreadHeap"* }
%"class.blink::ThreadHeap" = type { %"class.blink::ThreadState"*, %"class.std::__1::unique_ptr.6", %"class.std::__1::unique_ptr.10", %"class.std::__1::unique_ptr.16", %"class.std::__1::unique_ptr.22", %"class.std::__1::unique_ptr.28", %"class.std::__1::unique_ptr.34", %"class.std::__1::unique_ptr.41", %"class.std::__1::unique_ptr.48", %"class.std::__1::unique_ptr.48", %"class.std::__1::unique_ptr.55", %"class.std::__1::unique_ptr.62", %"class.std::__1::unique_ptr.69", %"class.std::__1::unique_ptr.69", %"class.std::__1::unique_ptr.76", %"class.std::__1::unique_ptr.83", %"class.std::__1::unique_ptr.90", %"class.std::__1::unique_ptr.113", %"struct.blink::ThreadHeap::LastAllocatedRegion", [9 x %"class.blink::BaseArena"*], i64, i64 }
%"class.std::__1::unique_ptr.6" = type { %"class.std::__1::__compressed_pair.7" }
%"class.std::__1::__compressed_pair.7" = type { %"struct.std::__1::__compressed_pair_elem.8" }
%"struct.std::__1::__compressed_pair_elem.8" = type { %"class.blink::ThreadHeapStatsCollector"* }
%"class.blink::ThreadHeapStatsCollector" = type opaque
%"class.std::__1::unique_ptr.10" = type { %"class.std::__1::__compressed_pair.11" }
%"class.std::__1::__compressed_pair.11" = type { %"struct.std::__1::__compressed_pair_elem.12" }
%"struct.std::__1::__compressed_pair_elem.12" = type { %"class.blink::RegionTree"* }
%"class.blink::RegionTree" = type opaque
%"class.std::__1::unique_ptr.16" = type { %"class.std::__1::__compressed_pair.17" }
%"class.std::__1::__compressed_pair.17" = type { %"struct.std::__1::__compressed_pair_elem.18" }
%"struct.std::__1::__compressed_pair_elem.18" = type { %"class.blink::PageBloomFilter"* }
%"class.blink::PageBloomFilter" = type opaque
%"class.std::__1::unique_ptr.22" = type { %"class.std::__1::__compressed_pair.23" }
%"class.std::__1::__compressed_pair.23" = type { %"struct.std::__1::__compressed_pair_elem.24" }
%"struct.std::__1::__compressed_pair_elem.24" = type { %"class.blink::PagePool"* }
%"class.blink::PagePool" = type opaque
%"class.std::__1::unique_ptr.28" = type { %"class.std::__1::__compressed_pair.29" }
%"class.std::__1::__compressed_pair.29" = type { %"struct.std::__1::__compressed_pair_elem.30" }
%"struct.std::__1::__compressed_pair_elem.30" = type { %"class.blink::ProcessHeapReporter"* }
%"class.blink::ProcessHeapReporter" = type opaque
%"class.std::__1::unique_ptr.34" = type { %"class.std::__1::__compressed_pair.35" }
%"class.std::__1::__compressed_pair.35" = type { %"struct.std::__1::__compressed_pair_elem.36" }
%"struct.std::__1::__compressed_pair_elem.36" = type { %"class.blink::Worklist"* }
%"class.blink::Worklist" = type { [4 x %"struct.blink::Worklist<blink::TraceDescriptor, 512, 4>::PrivateSegmentHolder"], %"class.blink::Worklist<blink::TraceDescriptor, 512, 4>::GlobalPool" }
%"struct.blink::Worklist<blink::TraceDescriptor, 512, 4>::PrivateSegmentHolder" = type { %"class.blink::Worklist<blink::TraceDescriptor, 512, 4>::Segment"*, %"class.blink::Worklist<blink::TraceDescriptor, 512, 4>::Segment"*, [64 x i8] }
%"class.blink::Worklist<blink::TraceDescriptor, 512, 4>::Segment" = type { %"class.blink::Worklist<blink::TraceDescriptor, 512, 4>::Segment"*, i64, [512 x %"struct.blink::TraceDescriptor"] }
%"struct.blink::TraceDescriptor" = type { i8*, void (%"class.blink::Visitor"*, i8*)* }
%"class.blink::Visitor" = type { i32 (...)**, %"class.blink::ThreadState"* }
%"class.blink::Worklist<blink::TraceDescriptor, 512, 4>::GlobalPool" = type { %"class.base::Lock", %"class.blink::Worklist<blink::TraceDescriptor, 512, 4>::Segment"*, %"struct.std::__1::atomic" }
%"class.base::Lock" = type { %"class.base::internal::LockImpl" }
%"class.base::internal::LockImpl" = type { %union.pthread_mutex_t }
%union.pthread_mutex_t = type { %struct.__pthread_mutex_s }
%struct.__pthread_mutex_s = type { i32, i32, i32, i32, i32, i16, i16, %struct.__pthread_internal_list }
%struct.__pthread_internal_list = type { %struct.__pthread_internal_list*, %struct.__pthread_internal_list* }
%"struct.std::__1::atomic" = type { %"struct.std::__1::__atomic_base" }
%"struct.std::__1::__atomic_base" = type { %"struct.std::__1::__atomic_base.37" }
%"struct.std::__1::__atomic_base.37" = type { %"struct.std::__1::__cxx_atomic_impl" }
%"struct.std::__1::__cxx_atomic_impl" = type { %"struct.std::__1::__cxx_atomic_base_impl" }
%"struct.std::__1::__cxx_atomic_base_impl" = type { i64 }
%"class.std::__1::unique_ptr.41" = type { %"class.std::__1::__compressed_pair.42" }
%"class.std::__1::__compressed_pair.42" = type { %"struct.std::__1::__compressed_pair_elem.43" }
%"struct.std::__1::__compressed_pair_elem.43" = type { %"class.blink::Worklist.44"* }
%"class.blink::Worklist.44" = type { [4 x %"struct.blink::Worklist<blink::HeapObjectHeader *, 64, 4>::PrivateSegmentHolder"], %"class.blink::Worklist<blink::HeapObjectHeader *, 64, 4>::GlobalPool" }
%"struct.blink::Worklist<blink::HeapObjectHeader *, 64, 4>::PrivateSegmentHolder" = type { %"class.blink::Worklist<blink::HeapObjectHeader *, 64, 4>::Segment"*, %"class.blink::Worklist<blink::HeapObjectHeader *, 64, 4>::Segment"*, [64 x i8] }
%"class.blink::Worklist<blink::HeapObjectHeader *, 64, 4>::Segment" = type opaque
%"class.blink::Worklist<blink::HeapObjectHeader *, 64, 4>::GlobalPool" = type { %"class.base::Lock", %"class.blink::Worklist<blink::HeapObjectHeader *, 64, 4>::Segment"*, %"struct.std::__1::atomic" }
%"class.std::__1::unique_ptr.48" = type { %"class.std::__1::__compressed_pair.49" }
%"class.std::__1::__compressed_pair.49" = type { %"struct.std::__1::__compressed_pair_elem.50" }
%"struct.std::__1::__compressed_pair_elem.50" = type { %"class.blink::Worklist.51"* }
%"class.blink::Worklist.51" = type { [4 x %"struct.blink::Worklist<const void *, 16, 4>::PrivateSegmentHolder"], %"class.blink::Worklist<const void *, 16, 4>::GlobalPool" }
%"struct.blink::Worklist<const void *, 16, 4>::PrivateSegmentHolder" = type { %"class.blink::Worklist<const void *, 16, 4>::Segment"*, %"class.blink::Worklist<const void *, 16, 4>::Segment"*, [64 x i8] }
%"class.blink::Worklist<const void *, 16, 4>::Segment" = type { %"class.blink::Worklist<const void *, 16, 4>::Segment"*, i64, [16 x i8*] }
%"class.blink::Worklist<const void *, 16, 4>::GlobalPool" = type { %"class.base::Lock", %"class.blink::Worklist<const void *, 16, 4>::Segment"*, %"struct.std::__1::atomic" }
%"class.std::__1::unique_ptr.55" = type { %"class.std::__1::__compressed_pair.56" }
%"class.std::__1::__compressed_pair.56" = type { %"struct.std::__1::__compressed_pair_elem.57" }
%"struct.std::__1::__compressed_pair_elem.57" = type { %"class.blink::Worklist.58"* }
%"class.blink::Worklist.58" = type { [4 x %"struct.blink::Worklist<blink::CustomCallbackItem, 64, 4>::PrivateSegmentHolder"], %"class.blink::Worklist<blink::CustomCallbackItem, 64, 4>::GlobalPool" }
%"struct.blink::Worklist<blink::CustomCallbackItem, 64, 4>::PrivateSegmentHolder" = type { %"class.blink::Worklist<blink::CustomCallbackItem, 64, 4>::Segment"*, %"class.blink::Worklist<blink::CustomCallbackItem, 64, 4>::Segment"*, [64 x i8] }
%"class.blink::Worklist<blink::CustomCallbackItem, 64, 4>::Segment" = type opaque
%"class.blink::Worklist<blink::CustomCallbackItem, 64, 4>::GlobalPool" = type { %"class.base::Lock", %"class.blink::Worklist<blink::CustomCallbackItem, 64, 4>::Segment"*, %"struct.std::__1::atomic" }
%"class.std::__1::unique_ptr.62" = type { %"class.std::__1::__compressed_pair.63" }
%"class.std::__1::__compressed_pair.63" = type { %"struct.std::__1::__compressed_pair_elem.64" }
%"struct.std::__1::__compressed_pair_elem.64" = type { %"class.blink::Worklist.65"* }
%"class.blink::Worklist.65" = type { [4 x %"struct.blink::Worklist<const void *const *, 256, 4>::PrivateSegmentHolder"], %"class.blink::Worklist<const void *const *, 256, 4>::GlobalPool" }
%"struct.blink::Worklist<const void *const *, 256, 4>::PrivateSegmentHolder" = type { %"class.blink::Worklist<const void *const *, 256, 4>::Segment"*, %"class.blink::Worklist<const void *const *, 256, 4>::Segment"*, [64 x i8] }
%"class.blink::Worklist<const void *const *, 256, 4>::Segment" = type opaque
%"class.blink::Worklist<const void *const *, 256, 4>::GlobalPool" = type { %"class.base::Lock", %"class.blink::Worklist<const void *const *, 256, 4>::Segment"*, %"struct.std::__1::atomic" }
%"class.std::__1::unique_ptr.69" = type { %"class.std::__1::__compressed_pair.70" }
%"class.std::__1::__compressed_pair.70" = type { %"struct.std::__1::__compressed_pair_elem.71" }
%"struct.std::__1::__compressed_pair_elem.71" = type { %"class.blink::Worklist.72"* }
%"class.blink::Worklist.72" = type { [4 x %"struct.blink::Worklist<blink::EphemeronPairItem, 64, 4>::PrivateSegmentHolder"], %"class.blink::Worklist<blink::EphemeronPairItem, 64, 4>::GlobalPool" }
%"struct.blink::Worklist<blink::EphemeronPairItem, 64, 4>::PrivateSegmentHolder" = type { %"class.blink::Worklist<blink::EphemeronPairItem, 64, 4>::Segment"*, %"class.blink::Worklist<blink::EphemeronPairItem, 64, 4>::Segment"*, [64 x i8] }
%"class.blink::Worklist<blink::EphemeronPairItem, 64, 4>::Segment" = type opaque
%"class.blink::Worklist<blink::EphemeronPairItem, 64, 4>::GlobalPool" = type { %"class.base::Lock", %"class.blink::Worklist<blink::EphemeronPairItem, 64, 4>::Segment"*, %"struct.std::__1::atomic" }
%"class.std::__1::unique_ptr.76" = type { %"class.std::__1::__compressed_pair.77" }
%"class.std::__1::__compressed_pair.77" = type { %"struct.std::__1::__compressed_pair_elem.78" }
%"struct.std::__1::__compressed_pair_elem.78" = type { %"class.blink::Worklist.79"* }
%"class.blink::Worklist.79" = type { [4 x %"struct.blink::Worklist<const blink::TraceWrapperV8Reference<v8::Value> *, 16, 4>::PrivateSegmentHolder"], %"class.blink::Worklist<const blink::TraceWrapperV8Reference<v8::Value> *, 16, 4>::GlobalPool" }
%"struct.blink::Worklist<const blink::TraceWrapperV8Reference<v8::Value> *, 16, 4>::PrivateSegmentHolder" = type { %"class.blink::Worklist<const blink::TraceWrapperV8Reference<v8::Value> *, 16, 4>::Segment"*, %"class.blink::Worklist<const blink::TraceWrapperV8Reference<v8::Value> *, 16, 4>::Segment"*, [64 x i8] }
%"class.blink::Worklist<const blink::TraceWrapperV8Reference<v8::Value> *, 16, 4>::Segment" = type opaque
%"class.blink::Worklist<const blink::TraceWrapperV8Reference<v8::Value> *, 16, 4>::GlobalPool" = type { %"class.base::Lock", %"class.blink::Worklist<const blink::TraceWrapperV8Reference<v8::Value> *, 16, 4>::Segment"*, %"struct.std::__1::atomic" }
%"class.std::__1::unique_ptr.83" = type { %"class.std::__1::__compressed_pair.84" }
%"class.std::__1::__compressed_pair.84" = type { %"struct.std::__1::__compressed_pair_elem.85" }
%"struct.std::__1::__compressed_pair_elem.85" = type { %"class.blink::Worklist.86"* }
%"class.blink::Worklist.86" = type { [4 x %"struct.blink::Worklist<blink::NotSafeToConcurrentlyTraceItem, 64, 4>::PrivateSegmentHolder"], %"class.blink::Worklist<blink::NotSafeToConcurrentlyTraceItem, 64, 4>::GlobalPool" }
%"struct.blink::Worklist<blink::NotSafeToConcurrentlyTraceItem, 64, 4>::PrivateSegmentHolder" = type { %"class.blink::Worklist<blink::NotSafeToConcurrentlyTraceItem, 64, 4>::Segment"*, %"class.blink::Worklist<blink::NotSafeToConcurrentlyTraceItem, 64, 4>::Segment"*, [64 x i8] }
%"class.blink::Worklist<blink::NotSafeToConcurrentlyTraceItem, 64, 4>::Segment" = type { %"class.blink::Worklist<blink::NotSafeToConcurrentlyTraceItem, 64, 4>::Segment"*, i64, [64 x %"struct.blink::NotSafeToConcurrentlyTraceItem"] }
%"struct.blink::NotSafeToConcurrentlyTraceItem" = type { %"struct.blink::TraceDescriptor", i64 }
%"class.blink::Worklist<blink::NotSafeToConcurrentlyTraceItem, 64, 4>::GlobalPool" = type { %"class.base::Lock", %"class.blink::Worklist<blink::NotSafeToConcurrentlyTraceItem, 64, 4>::Segment"*, %"struct.std::__1::atomic" }
%"class.std::__1::unique_ptr.90" = type { %"class.std::__1::__compressed_pair.91" }
%"class.std::__1::__compressed_pair.91" = type { %"struct.std::__1::__compressed_pair_elem.92" }
%"struct.std::__1::__compressed_pair_elem.92" = type { %"class.blink::WeakContainersWorklist"* }
%"class.blink::WeakContainersWorklist" = type { %"class.WTF::Mutex", %"class.std::__1::unordered_set" }
%"class.WTF::Mutex" = type { %"class.WTF::MutexBase" }
%"class.WTF::MutexBase" = type { %"struct.WTF::PlatformMutex" }
%"struct.WTF::PlatformMutex" = type { %union.pthread_mutex_t }
%"class.std::__1::unordered_set" = type { %"class.std::__1::__hash_table" }
%"class.std::__1::__hash_table" = type <{ %"class.std::__1::unique_ptr.93", %"class.std::__1::__compressed_pair.100", %"class.std::__1::__compressed_pair.105", %"class.std::__1::__compressed_pair.107", [4 x i8] }>
%"class.std::__1::unique_ptr.93" = type { %"class.std::__1::__compressed_pair.94" }
%"class.std::__1::__compressed_pair.94" = type { %"struct.std::__1::__compressed_pair_elem.95", %"struct.std::__1::__compressed_pair_elem.96" }
%"struct.std::__1::__compressed_pair_elem.95" = type { %"struct.std::__1::__hash_node_base"** }
%"struct.std::__1::__hash_node_base" = type { %"struct.std::__1::__hash_node_base"* }
%"struct.std::__1::__compressed_pair_elem.96" = type { %"class.std::__1::__bucket_list_deallocator" }
%"class.std::__1::__bucket_list_deallocator" = type { %"class.std::__1::__compressed_pair.97" }
%"class.std::__1::__compressed_pair.97" = type { %"struct.std::__1::__compressed_pair_elem.98" }
%"struct.std::__1::__compressed_pair_elem.98" = type { i64 }
%"class.std::__1::__compressed_pair.100" = type { %"struct.std::__1::__compressed_pair_elem.101" }
%"struct.std::__1::__compressed_pair_elem.101" = type { %"struct.std::__1::__hash_node_base" }
%"class.std::__1::__compressed_pair.105" = type { %"struct.std::__1::__compressed_pair_elem.98" }
%"class.std::__1::__compressed_pair.107" = type { %"struct.std::__1::__compressed_pair_elem.108" }
%"struct.std::__1::__compressed_pair_elem.108" = type { float }
%"class.std::__1::unique_ptr.113" = type { %"class.std::__1::__compressed_pair.114" }
%"class.std::__1::__compressed_pair.114" = type { %"struct.std::__1::__compressed_pair_elem.115" }
%"struct.std::__1::__compressed_pair_elem.115" = type { %"class.blink::HeapCompact"* }
%"class.blink::HeapCompact" = type <{ %"class.blink::ThreadHeap"*, %"class.std::__1::unique_ptr.116", i8, [7 x i8], i64, i64, i32, [4 x i8], i64, i8, [7 x i8] }>
%"class.std::__1::unique_ptr.116" = type { %"class.std::__1::__compressed_pair.117" }
%"class.std::__1::__compressed_pair.117" = type { %"struct.std::__1::__compressed_pair_elem.118" }
%"struct.std::__1::__compressed_pair_elem.118" = type { %"class.blink::HeapCompact::MovableObjectFixups"* }
%"class.blink::HeapCompact::MovableObjectFixups" = type opaque
%"struct.blink::ThreadHeap::LastAllocatedRegion" = type { i8*, i64 }
%"class.blink::BaseArena" = type <{ i32 (...)**, %"class.blink::PageStackThreadSafe", %"class.blink::PageStackThreadSafe", %"class.blink::PageStackThreadSafe", %"class.blink::PageStackThreadSafe", %"class.blink::ThreadState"*, i32, [4 x i8] }>
%"class.blink::PageStackThreadSafe" = type { %"class.blink::PageStack", %"class.WTF::Mutex" }
%"class.blink::PageStack" = type { %"class.WTF::Vector.125" }
%"class.WTF::Vector.125" = type { %"class.WTF::VectorBuffer.126" }
%"class.WTF::VectorBuffer.126" = type { %"class.WTF::VectorBufferBase.127" }
%"class.WTF::VectorBufferBase.127" = type { %"class.blink::BasePage"**, i32, i32 }
%"class.blink::BasePage" = type <{ i32 (...)**, %"class.blink::PageMemory"*, %"class.blink::BaseArena"*, %"class.blink::ThreadState"*, i64, i8, i8, i8, [5 x i8] }>
%"class.blink::PageMemory" = type opaque
%"class.std::__1::unique_ptr.132" = type { %"class.std::__1::__compressed_pair.133" }
%"class.std::__1::__compressed_pair.133" = type { %"struct.std::__1::__compressed_pair_elem.134" }
%"struct.std::__1::__compressed_pair_elem.134" = type { %"class.blink::PersistentRegion"* }
%"class.blink::PersistentRegion" = type { %"class.blink::PersistentRegionBase" }
%"class.blink::PersistentRegionBase" = type { %"class.blink::PersistentNode"*, %"struct.blink::PersistentNodeSlots"* }
%"class.blink::PersistentNode" = type { i8*, void (%"class.blink::Visitor"*, i8*)* }
%"struct.blink::PersistentNodeSlots" = type { %"struct.blink::PersistentNodeSlots"*, [256 x %"class.blink::PersistentNode"] }
%"class.WTF::Deque" = type { %"class.WTF::Deque<std::__1::pair<void *, bool (*)(const blink::LivenessBroker &, void *)>, 0, WTF::PartitionAllocator>::BackingBuffer", i32, i32 }
%"class.WTF::Deque<std::__1::pair<void *, bool (*)(const blink::LivenessBroker &, void *)>, 0, WTF::PartitionAllocator>::BackingBuffer" = type { %"class.WTF::VectorBuffer.140" }
%"class.WTF::VectorBuffer.140" = type { %"class.WTF::VectorBufferBase.141" }
%"class.WTF::VectorBufferBase.141" = type { %"struct.std::__1::pair"*, i32, i32 }
%"struct.std::__1::pair" = type { i8*, i1 (%"class.blink::LivenessBroker"*, i8*)* }
%"class.blink::LivenessBroker" = type { i8 }
%"class.v8::Isolate" = type { i8 }
%"class.v8::EmbedderGraph" = type opaque
%"class.std::__1::unique_ptr.142" = type { %"class.std::__1::__compressed_pair.143" }
%"class.std::__1::__compressed_pair.143" = type { %"struct.std::__1::__compressed_pair_elem.144" }
%"struct.std::__1::__compressed_pair_elem.144" = type { %"class.blink::UnifiedHeapController"* }
%"class.blink::UnifiedHeapController" = type opaque
%"class.std::__1::unique_ptr.148" = type { %"class.std::__1::__compressed_pair.149" }
%"class.std::__1::__compressed_pair.149" = type { %"struct.std::__1::__compressed_pair_elem.150" }
%"struct.std::__1::__compressed_pair_elem.150" = type { %"class.v8::EmbedderRootsHandler"* }
%"class.v8::EmbedderRootsHandler" = type { i32 (...)** }
%"struct.blink::ThreadState::GCData" = type { i32, i32, i32, i32, %"class.std::__1::unique_ptr.154" }
%"class.std::__1::unique_ptr.154" = type { %"class.std::__1::__compressed_pair.155" }
%"class.std::__1::__compressed_pair.155" = type { %"struct.std::__1::__compressed_pair_elem.156" }
%"struct.std::__1::__compressed_pair_elem.156" = type { %"class.blink::MarkingVisitor"* }
%"class.blink::MarkingVisitor" = type { %"class.blink::MarkingVisitorBase", %"class.blink::MarkingVisitor::RecentlyRetracedWeakContainers" }
%"class.blink::MarkingVisitorBase" = type { %"class.blink::Visitor", %"class.blink::Worklist<blink::TraceDescriptor, 512, 4>::View", %"class.blink::Worklist<blink::HeapObjectHeader *, 64, 4>::View", %"class.blink::Worklist<const void *, 16, 4>::View", %"class.blink::Worklist<blink::CustomCallbackItem, 64, 4>::View", %"class.blink::Worklist<const void *const *, 256, 4>::View", %"class.blink::Worklist<blink::EphemeronPairItem, 64, 4>::View", %"class.blink::Worklist<blink::EphemeronPairItem, 64, 4>::View", %"class.blink::WeakContainersWorklist"*, i64, i32, i32 }
%"class.blink::Worklist<blink::TraceDescriptor, 512, 4>::View" = type <{ %"class.blink::Worklist"*, i32, [4 x i8] }>
%"class.blink::Worklist<blink::HeapObjectHeader *, 64, 4>::View" = type <{ %"class.blink::Worklist.44"*, i32, [4 x i8] }>
%"class.blink::Worklist<const void *, 16, 4>::View" = type <{ %"class.blink::Worklist.51"*, i32, [4 x i8] }>
%"class.blink::Worklist<blink::CustomCallbackItem, 64, 4>::View" = type <{ %"class.blink::Worklist.58"*, i32, [4 x i8] }>
%"class.blink::Worklist<const void *const *, 256, 4>::View" = type <{ %"class.blink::Worklist.65"*, i32, [4 x i8] }>
%"class.blink::Worklist<blink::EphemeronPairItem, 64, 4>::View" = type <{ %"class.blink::Worklist.72"*, i32, [4 x i8] }>
%"class.blink::MarkingVisitor::RecentlyRetracedWeakContainers" = type { %"class.std::__1::vector", i64 }
%"class.std::__1::vector" = type { %"class.std::__1::__vector_base" }
%"class.std::__1::__vector_base" = type { %"class.blink::HeapObjectHeader"**, %"class.blink::HeapObjectHeader"**, %"class.std::__1::__compressed_pair.176" }
%"class.blink::HeapObjectHeader" = type { i32, i16, i16 }
%"class.std::__1::__compressed_pair.176" = type { %"struct.std::__1::__compressed_pair_elem.177" }
%"struct.std::__1::__compressed_pair_elem.177" = type { %"class.blink::HeapObjectHeader"** }
%"class.std::__1::unique_ptr.160" = type { %"class.std::__1::__compressed_pair.161" }
%"class.std::__1::__compressed_pair.161" = type { %"struct.std::__1::__compressed_pair_elem.162" }
%"struct.std::__1::__compressed_pair_elem.162" = type { %"class.blink::ThreadState::IncrementalMarkingScheduler"* }
%"class.blink::ThreadState::IncrementalMarkingScheduler" = type opaque
%"class.std::__1::unique_ptr.166" = type { %"class.std::__1::__compressed_pair.167" }
%"class.std::__1::__compressed_pair.167" = type { %"struct.std::__1::__compressed_pair_elem.168" }
%"struct.std::__1::__compressed_pair_elem.168" = type { %"class.blink::MarkingSchedulingOracle"* }
%"class.blink::MarkingSchedulingOracle" = type opaque
%"class.base::JobHandle" = type { %class.scoped_refptr }
%class.scoped_refptr = type { %"class.base::internal::JobTaskSource"* }
%"class.base::internal::JobTaskSource" = type opaque
%"struct.std::__1::atomic.172" = type { %"struct.std::__1::__atomic_base.173" }
%"struct.std::__1::__atomic_base.173" = type { %"struct.std::__1::__cxx_atomic_impl.174" }
%"struct.std::__1::__cxx_atomic_impl.174" = type { %"struct.std::__1::__cxx_atomic_base_impl.175" }
%"struct.std::__1::__cxx_atomic_base_impl.175" = type { i8 }
%"class.base::TimeTicks" = type { %"class.base::time_internal::TimeBase" }
%"class.base::time_internal::TimeBase" = type { i64 }
%"class.base::ThreadLocalStorage::Slot" = type { i32, i32 }
%"struct.blink::GCInfo" = type { void (%"class.blink::Visitor"*, i8*)*, void (i8*)*, { i8*, i8 } (i8*)*, i8 }
%"class.blink::GCInfoTable" = type { %"struct.blink::GCInfo"**, i32, i32, %"class.WTF::Mutex" }
%"struct.blink::WrapperTypeInfo" = type { i16, void (%"class.v8::Isolate"*, %"class.blink::DOMWrapperWorld"*, %"class.v8::Template"*)*, void (%"class.v8::Context"*, %"class.blink::DOMWrapperWorld"*, %"class.v8::Object"*, %"class.v8::Object"*, %"class.v8::Object"*, %"class.v8::Template"*, i64)*, i8*, %"struct.blink::WrapperTypeInfo"*, i8 }
%"class.blink::DOMWrapperWorld" = type { %"class.WTF::RefCounted", i32, i32, %"class.blink::Persistent" }
%"class.WTF::RefCounted" = type { %"class.base::RefCounted" }
%"class.base::RefCounted" = type { %"class.base::subtle::RefCountedBase" }
%"class.base::subtle::RefCountedBase" = type { i32 }
%"class.blink::Persistent" = type { %"class.blink::PersistentBase" }
%"class.blink::PersistentBase" = type { %"class.blink::DOMDataStore"*, %"class.blink::PersistentNodePtr" }
%"class.blink::DOMDataStore" = type { i32 (...)**, i8, [7 x i8], %"class.blink::HeapHashMap" }
%"class.blink::HeapHashMap" = type { %"class.WTF::HashMap" }
%"class.WTF::HashMap" = type { %"class.WTF::HashTable" }
%"class.WTF::HashTable" = type <{ %"struct.WTF::KeyValuePair"*, i32, i32, i32, [4 x i8] }>
%"struct.WTF::KeyValuePair" = type { %"class.blink::WeakMember", %"class.blink::TraceWrapperV8Reference" }
%"class.blink::WeakMember" = type { %"class.blink::MemberBase.202" }
%"class.blink::MemberBase.202" = type { %"class.blink::ScriptWrappable"* }
%"class.blink::ScriptWrappable" = type { %"class.blink::NameClient", %"class.blink::TraceWrapperV8Reference" }
%"class.blink::NameClient" = type { i32 (...)** }
%"class.blink::TraceWrapperV8Reference" = type { %"class.v8::TracedReference" }
%"class.v8::TracedReference" = type { %"class.v8::BasicTracedReference" }
%"class.v8::BasicTracedReference" = type { %"class.v8::TracedReferenceBase" }
%"class.v8::TracedReferenceBase" = type { i64* }
%"class.blink::PersistentNodePtr" = type { %"class.blink::PersistentNode"* }
%"class.v8::Template" = type { i8 }
%"class.v8::Context" = type { i8 }
%"class.v8::Object" = type { i8 }
%"class.blink::EncodedAudioChunkOrEncodedVideoChunkSequenceOrEncodedAudioChunkOrEncodedVideoChunk" = type { i32, %"class.blink::Member", %"class.blink::HeapVector", %"class.blink::Member.4" }
%"class.blink::Member" = type { %"class.blink::MemberBase" }
%"class.blink::MemberBase" = type { %"class.blink::EncodedAudioChunk"* }
%"class.blink::EncodedAudioChunk" = type { %"class.blink::ScriptWrappable", %"class.base::TimeDelta", i8, %"class.blink::Member.0" }
%"class.base::TimeDelta" = type { i64 }
%"class.blink::Member.0" = type { %"class.blink::MemberBase.1" }
%"class.blink::MemberBase.1" = type { %"class.blink::DOMArrayBuffer"* }
%"class.blink::DOMArrayBuffer" = type { %"class.blink::DOMArrayBufferBase.base", [7 x i8] }
%"class.blink::DOMArrayBufferBase.base" = type <{ %"class.blink::ScriptWrappable", %"class.blink::ArrayBufferContents", i8 }>
%"class.blink::ArrayBufferContents" = type { %"class.std::__1::shared_ptr" }
%"class.std::__1::shared_ptr" = type { %"class.v8::BackingStore"*, %"class.std::__1::__shared_weak_count"* }
%"class.v8::BackingStore" = type { i8 }
%"class.std::__1::__shared_weak_count" = type { %"class.std::__1::__shared_count", i64 }
%"class.std::__1::__shared_count" = type { i32 (...)**, i64 }
%"class.blink::HeapVector" = type { %"class.WTF::Vector" }
%"class.WTF::Vector" = type { %"class.WTF::VectorBuffer" }
%"class.WTF::VectorBuffer" = type { %"class.WTF::VectorBufferBase" }
%"class.WTF::VectorBufferBase" = type { %"class.blink::EncodedAudioChunkOrEncodedVideoChunk"*, i32, i32 }
%"class.blink::EncodedAudioChunkOrEncodedVideoChunk" = type { i32, %"class.blink::Member", %"class.blink::Member.4" }
%"class.blink::Member.4" = type { %"class.blink::MemberBase.5" }
%"class.blink::MemberBase.5" = type { %"class.blink::EncodedVideoChunk"* }
%"class.blink::EncodedVideoChunk" = type { %"class.blink::ScriptWrappable", %"class.base::TimeDelta", i8, %"class.absl::optional", %"class.blink::Member.0" }
%"class.absl::optional" = type { %"class.absl::optional_internal::optional_data" }
%"class.absl::optional_internal::optional_data" = type { %"class.absl::optional_internal::optional_data_base" }
%"class.absl::optional_internal::optional_data_base" = type { %"class.absl::optional_internal::optional_data_dtor_base" }
%"class.absl::optional_internal::optional_data_dtor_base" = type { i8, %union.anon }
%union.anon = type { %"class.base::TimeDelta" }
%"class.blink::HeapVectorBacking" = type { i8 }
%"class.v8::Value" = type { i8 }
%"class.blink::ExceptionState" = type { i32 (...)**, %"class.blink::ExceptionContext", %"class.blink::ExceptionState::ContextScope"*, %"class.v8::Isolate"*, i32, %"class.WTF::String", %"class.blink::TraceWrapperV8Reference.187" }
%"class.blink::ExceptionContext" = type { i16, i16, i8*, i8* }
%"class.blink::ExceptionState::ContextScope" = type { %"class.blink::ExceptionState"*, %"class.blink::ExceptionState::ContextScope"*, %"class.blink::ExceptionContext" }
%"class.WTF::String" = type { %class.scoped_refptr.181 }
%class.scoped_refptr.181 = type { %"class.WTF::StringImpl"* }
%"class.WTF::StringImpl" = type { i32, i32, %"struct.std::__1::atomic.182" }
%"struct.std::__1::atomic.182" = type { %"struct.std::__1::__atomic_base.183" }
%"struct.std::__1::__atomic_base.183" = type { %"struct.std::__1::__atomic_base.184" }
%"struct.std::__1::__atomic_base.184" = type { %"struct.std::__1::__cxx_atomic_impl.185" }
%"struct.std::__1::__cxx_atomic_impl.185" = type { %"struct.std::__1::__cxx_atomic_base_impl.186" }
%"struct.std::__1::__cxx_atomic_base_impl.186" = type { i32 }
%"class.blink::TraceWrapperV8Reference.187" = type { %"class.v8::TracedReference.188" }
%"class.v8::TracedReference.188" = type { %"class.v8::BasicTracedReference.189" }
%"class.v8::BasicTracedReference.189" = type { %"class.v8::TracedReferenceBase" }
%"class.blink::ScriptIterator" = type { %"class.v8::Isolate"*, %"class.v8::Local.190", %"class.v8::Local", %"class.v8::Local.191", %"class.v8::Local.191", i8, %"class.v8::MaybeLocal" }
%"class.v8::Local.190" = type { %"class.v8::Object"* }
%"class.v8::Local" = type { %"class.v8::Value"* }
%"class.v8::Local.191" = type { %"class.v8::String"* }
%"class.v8::String" = type { i8 }
%"class.v8::MaybeLocal" = type { %"class.v8::Value"* }
%"class.blink::V8PerIsolateData" = type { i32, %"class.gin::IsolateHolder", %"class.WTF::HashMap.279", %"class.WTF::HashMap.279", %"class.WTF::HashMap.284", %"class.std::__1::unique_ptr.289", %"class.std::__1::unique_ptr.336", %"class.blink::Persistent.205", i8, i8, i8, %"class.WTF::Vector.342", %"class.std::__1::unique_ptr.347", %"class.blink::Persistent.353", %"class.blink::Persistent.357", %"class.blink::RuntimeCallStats", void (%"class.v8::Isolate"*, i32, i32)*, void (%"class.v8::Isolate"*, i32, i32)*, i64 }
%"class.gin::IsolateHolder" = type { %"class.std::__1::unique_ptr.261", %"class.v8::Isolate"*, %"class.std::__1::unique_ptr.267", %"class.std::__1::unique_ptr.273", i32, i32 }
%"class.std::__1::unique_ptr.261" = type { %"class.std::__1::__compressed_pair.262" }
%"class.std::__1::__compressed_pair.262" = type { %"struct.std::__1::__compressed_pair_elem.263" }
%"struct.std::__1::__compressed_pair_elem.263" = type { %"class.v8::SnapshotCreator"* }
%"class.v8::SnapshotCreator" = type { i8* }
%"class.std::__1::unique_ptr.267" = type { %"class.std::__1::__compressed_pair.268" }
%"class.std::__1::__compressed_pair.268" = type { %"struct.std::__1::__compressed_pair_elem.269" }
%"struct.std::__1::__compressed_pair_elem.269" = type { %"class.gin::PerIsolateData"* }
%"class.gin::PerIsolateData" = type opaque
%"class.std::__1::unique_ptr.273" = type { %"class.std::__1::__compressed_pair.274" }
%"class.std::__1::__compressed_pair.274" = type { %"struct.std::__1::__compressed_pair_elem.275" }
%"struct.std::__1::__compressed_pair_elem.275" = type { %"class.gin::V8IsolateMemoryDumpProvider"* }
%"class.gin::V8IsolateMemoryDumpProvider" = type opaque
%"class.WTF::HashMap.279" = type { %"class.WTF::HashTable.280" }
%"class.WTF::HashTable.280" = type <{ %"struct.WTF::KeyValuePair.283"*, i32, i32, i32, [4 x i8] }>
%"struct.WTF::KeyValuePair.283" = type opaque
%"class.WTF::HashMap.284" = type { %"class.WTF::HashTable.285" }
%"class.WTF::HashTable.285" = type <{ %"struct.WTF::KeyValuePair.288"*, i32, i32, i32, [4 x i8] }>
%"struct.WTF::KeyValuePair.288" = type opaque
%"class.std::__1::unique_ptr.289" = type { %"class.std::__1::__compressed_pair.290" }
%"class.std::__1::__compressed_pair.290" = type { %"struct.std::__1::__compressed_pair_elem.291" }
%"struct.std::__1::__compressed_pair_elem.291" = type { %"class.blink::StringCache"* }
%"class.blink::StringCache" = type { %"class.v8::GlobalValueMap", %"class.v8::PersistentValueMapBase<WTF::StringImpl *, v8::String, blink::StringCacheMapTraits>::PersistentValueReference", %"class.v8::GlobalValueMap.297", %class.scoped_refptr.181 }
%"class.v8::GlobalValueMap" = type { %"class.v8::PersistentValueMapBase" }
%"class.v8::PersistentValueMapBase" = type { %"class.v8::Isolate"*, %"class.WTF::HashMap.292", i8* }
%"class.WTF::HashMap.292" = type { %"class.WTF::HashTable.293" }
%"class.WTF::HashTable.293" = type <{ %"struct.WTF::KeyValuePair.296"*, i32, i32, i32, [4 x i8] }>
%"struct.WTF::KeyValuePair.296" = type { %"class.WTF::StringImpl"*, i64 }
%"class.v8::PersistentValueMapBase<WTF::StringImpl *, v8::String, blink::StringCacheMapTraits>::PersistentValueReference" = type { i64 }
%"class.v8::GlobalValueMap.297" = type { %"class.v8::PersistentValueMapBase.298" }
%"class.v8::PersistentValueMapBase.298" = type { %"class.v8::Isolate"*, %"class.WTF::HashMap.299", i8* }
%"class.WTF::HashMap.299" = type { %"class.WTF::HashTable.300" }
%"class.WTF::HashTable.300" = type <{ %"struct.WTF::KeyValuePair.303"*, i32, i32, i32, [4 x i8] }>
%"struct.WTF::KeyValuePair.303" = type { %"class.blink::ParkableStringImpl"*, i64 }
%"class.blink::ParkableStringImpl" = type { %"class.WTF::RefCounted.304", %"class.WTF::String", %"class.std::__1::unique_ptr.306" }
%"class.WTF::RefCounted.304" = type { %"class.base::RefCounted.305" }
%"class.base::RefCounted.305" = type { %"class.base::subtle::RefCountedBase" }
%"class.std::__1::unique_ptr.306" = type { %"class.std::__1::__compressed_pair.307" }
%"class.std::__1::__compressed_pair.307" = type { %"struct.std::__1::__compressed_pair_elem.308" }
%"struct.std::__1::__compressed_pair_elem.308" = type { %"struct.blink::ParkableStringImpl::ParkableMetadata"* }
%"struct.blink::ParkableStringImpl::ParkableMetadata" = type { %"class.WTF::Mutex", i32, i8, i8, %"class.std::__1::unique_ptr.309", %"class.std::__1::unique_ptr.320", %"class.WTF::Vector.326", i8, i32 }
%"class.std::__1::unique_ptr.309" = type { %"class.std::__1::__compressed_pair.310" }
%"class.std::__1::__compressed_pair.310" = type { %"struct.std::__1::__compressed_pair_elem.311" }
%"struct.std::__1::__compressed_pair_elem.311" = type { %"class.WTF::Vector.312"* }
%"class.WTF::Vector.312" = type { %"class.WTF::VectorBuffer.313" }
%"class.WTF::VectorBuffer.313" = type { %"class.WTF::VectorBufferBase.314" }
%"class.WTF::VectorBufferBase.314" = type { i8*, i32, i32 }
%"class.std::__1::unique_ptr.320" = type { %"class.std::__1::__compressed_pair.321" }
%"class.std::__1::__compressed_pair.321" = type { %"struct.std::__1::__compressed_pair_elem.322" }
%"struct.std::__1::__compressed_pair_elem.322" = type { %"class.blink::DiskDataMetadata"* }
%"class.blink::DiskDataMetadata" = type { i64, i64 }
%"class.WTF::Vector.326" = type { %"class.WTF::VectorBuffer.327" }
%"class.WTF::VectorBuffer.327" = type { %"class.WTF::VectorBufferBase.314", [32 x i8] }
%"class.std::__1::unique_ptr.336" = type { %"class.std::__1::__compressed_pair.337" }
%"class.std::__1::__compressed_pair.337" = type { %"struct.std::__1::__compressed_pair_elem.338" }
%"struct.std::__1::__compressed_pair_elem.338" = type { %"class.blink::V8PrivateProperty"* }
%"class.blink::V8PrivateProperty" = type opaque
%"class.blink::Persistent.205" = type { %"class.blink::PersistentBase.206" }
%"class.blink::PersistentBase.206" = type { %"class.blink::ScriptState"*, %"class.blink::PersistentNodePtr" }
%"class.blink::ScriptState" = type { %"class.v8::Isolate"*, %"class.blink::ScopedPersistent", %class.scoped_refptr.196, %"class.blink::Member.203", %"class.blink::SelfKeepAlive", %"class.util::TokenType" }
%"class.blink::ScopedPersistent" = type { %"class.v8::Persistent" }
%"class.v8::Persistent" = type { %"class.v8::PersistentBase" }
%"class.v8::PersistentBase" = type { %"class.v8::Context"* }
%class.scoped_refptr.196 = type { %"class.blink::DOMWrapperWorld"* }
%"class.blink::Member.203" = type { %"class.blink::MemberBase.204" }
%"class.blink::MemberBase.204" = type { %"class.blink::V8PerContextData"* }
%"class.blink::V8PerContextData" = type opaque
%"class.blink::SelfKeepAlive" = type { %"class.blink::Persistent.205" }
%"class.util::TokenType" = type { %"class.base::StrongAlias" }
%"class.base::StrongAlias" = type { %"class.base::UnguessableToken" }
%"class.base::UnguessableToken" = type { %"class.base::Token" }
%"class.base::Token" = type { i64, i64 }
%"class.WTF::Vector.342" = type { %"class.WTF::VectorBuffer.343" }
%"class.WTF::VectorBuffer.343" = type { %"class.WTF::VectorBufferBase.344" }
%"class.WTF::VectorBufferBase.344" = type { %"class.base::OnceCallback"*, i32, i32 }
%"class.base::OnceCallback" = type opaque
%"class.std::__1::unique_ptr.347" = type { %"class.std::__1::__compressed_pair.348" }
%"class.std::__1::__compressed_pair.348" = type { %"struct.std::__1::__compressed_pair_elem.349" }
%"struct.std::__1::__compressed_pair_elem.349" = type { %"class.blink::V8PerIsolateData::Data"* }
%"class.blink::V8PerIsolateData::Data" = type { i32 (...)** }
%"class.blink::Persistent.353" = type { %"class.blink::PersistentBase.354" }
%"class.blink::PersistentBase.354" = type { %"class.blink::V8PerIsolateData::GarbageCollectedData"*, %"class.blink::PersistentNodePtr" }
%"class.blink::V8PerIsolateData::GarbageCollectedData" = type { i32 (...)** }
%"class.blink::Persistent.357" = type { %"class.blink::PersistentBase.358" }
%"class.blink::PersistentBase.358" = type { %"class.blink::ActiveScriptWrappableManager"*, %"class.blink::PersistentNodePtr" }
%"class.blink::ActiveScriptWrappableManager" = type { %"class.blink::HeapVector.361", i64 }
%"class.blink::HeapVector.361" = type { %"class.WTF::Vector.364" }
%"class.WTF::Vector.364" = type { %"class.WTF::VectorBuffer.365" }
%"class.WTF::VectorBuffer.365" = type { %"class.WTF::VectorBufferBase.366" }
%"class.WTF::VectorBufferBase.366" = type { %"struct.std::__1::pair.367"*, i32, i32 }
%"struct.std::__1::pair.367" = type { %"class.blink::UntracedMember", %"class.blink::Member.369" }
%"class.blink::UntracedMember" = type { %"class.blink::MemberBase.368" }
%"class.blink::MemberBase.368" = type { %"class.blink::ActiveScriptWrappableBase"* }
%"class.blink::ActiveScriptWrappableBase" = type { %"class.blink::GarbageCollectedMixin" }
%"class.blink::GarbageCollectedMixin" = type { i32 (...)** }
%"class.blink::Member.369" = type { %"class.blink::MemberBase.370" }
%"class.blink::MemberBase.370" = type { %"class.blink::ActiveScriptWrappableBase"* }
%"class.blink::RuntimeCallStats" = type { %"class.blink::RuntimeCallTimer"*, i8, [40 x %"class.blink::RuntimeCallCounter"], %"class.base::TickClock"* }
%"class.blink::RuntimeCallTimer" = type { %"class.blink::RuntimeCallCounter"*, %"class.blink::RuntimeCallTimer"*, %"class.base::TimeTicks", %"class.base::TimeDelta", %"class.base::TickClock"* }
%"class.blink::RuntimeCallCounter" = type { i64, %"class.base::TimeDelta", i8* }
%"class.base::TickClock" = type opaque
%"class.v8::Array" = type { i8 }
%"class.v8::internal::Isolate" = type opaque
%"class.logging::CheckError" = type { %"class.logging::LogMessage"* }
%"class.logging::LogMessage" = type { i32 (...)**, i32, %"class.std::__1::basic_ostringstream", i64, i8*, i32, %"class.base::ScopedClearLastErrorBase" }
%"class.std::__1::basic_ostringstream" = type { %"class.std::__1::basic_ostream.base", %"class.std::__1::basic_stringbuf", %"class.std::__1::basic_ios.base" }
%"class.std::__1::basic_ostream.base" = type { i32 (...)** }
%"class.std::__1::basic_stringbuf" = type <{ %"class.std::__1::basic_streambuf", %"class.std::__1::basic_string", i8*, i32, [4 x i8] }>
%"class.std::__1::basic_streambuf" = type { i32 (...)**, %"class.std::__1::locale", i8*, i8*, i8*, i8*, i8*, i8* }
%"class.std::__1::locale" = type { %"class.std::__1::locale::__imp"* }
%"class.std::__1::locale::__imp" = type opaque
%"class.std::__1::basic_string" = type { %"class.std::__1::__compressed_pair.208" }
%"class.std::__1::__compressed_pair.208" = type { %"struct.std::__1::__compressed_pair_elem.209" }
%"struct.std::__1::__compressed_pair_elem.209" = type { %"struct.std::__1::basic_string<char, std::__1::char_traits<char>, std::__1::allocator<char> >::__rep" }
%"struct.std::__1::basic_string<char, std::__1::char_traits<char>, std::__1::allocator<char> >::__rep" = type { %union.anon.210 }
%union.anon.210 = type { %"struct.std::__1::basic_string<char, std::__1::char_traits<char>, std::__1::allocator<char> >::__long" }
%"struct.std::__1::basic_string<char, std::__1::char_traits<char>, std::__1::allocator<char> >::__long" = type { i8*, i64, i64 }
%"class.std::__1::basic_ios.base" = type <{ %"class.std::__1::ios_base", %"class.std::__1::basic_ostream"*, i32 }>
%"class.std::__1::ios_base" = type { i32 (...)**, i32, i64, i64, i32, i32, i8*, i8*, void (i32, %"class.std::__1::ios_base"*, i32)**, i32*, i64, i64, i64*, i64, i64, i8**, i64, i64 }
%"class.std::__1::basic_ostream" = type { i32 (...)**, %"class.std::__1::basic_ios.base" }
%"class.base::ScopedClearLastErrorBase" = type { i32 }
%"class.logging::CheckOpResult" = type { i8* }
%"class.blink::NormalPageArena" = type { %"class.blink::BaseArena.base", [4 x i8], %"class.blink::FreeList", i8*, i64, i64 }
%"class.blink::BaseArena.base" = type <{ i32 (...)**, %"class.blink::PageStackThreadSafe", %"class.blink::PageStackThreadSafe", %"class.blink::PageStackThreadSafe", %"class.blink::PageStackThreadSafe", %"class.blink::ThreadState"*, i32 }>
%"class.blink::FreeList" = type <{ [17 x %"class.blink::FreeListEntry"*], [17 x %"class.blink::FreeListEntry"*], i32, [4 x i8] }>
%"class.blink::FreeListEntry" = type { %"class.blink::HeapObjectHeader", %"class.blink::FreeListEntry"* }
%"class.blink::PlatformAwareObjectStartBitmap" = type { %"class.blink::ObjectStartBitmap" }
%"class.blink::ObjectStartBitmap" = type { i8*, [2048 x i8] }
%"class.blink::ExecutionContext" = type opaque
%"class.absl::optional.373" = type { %"class.absl::optional_internal::optional_data.374" }
%"class.absl::optional_internal::optional_data.374" = type { %"class.absl::optional_internal::optional_data_base.375" }
%"class.absl::optional_internal::optional_data_base.375" = type { %"class.absl::optional_internal::optional_data_dtor_base.376" }
%"class.absl::optional_internal::optional_data_dtor_base.376" = type { i8, %union.anon.377 }
%union.anon.377 = type { %"class.blink::RuntimeCallTimerScope" }
%"class.blink::RuntimeCallTimerScope" = type { %"class.blink::RuntimeCallStats"*, %"class.blink::RuntimeCallTimer" }

$_ZN5blink12DOMDataStore10GetWrapperEPNS_15ScriptWrappableEPN2v87IsolateE = comdat any

$_ZN5blink11ScriptState4FromEN2v85LocalINS1_7ContextEEE = comdat any

$_ZN3WTF9HashTableIN5blink10WeakMemberIKNS1_15ScriptWrappableEEENS_12KeyValuePairIS5_NS1_23TraceWrapperV8ReferenceIN2v86ObjectEEEEENS_24KeyValuePairKeyExtractorENS_10MemberHashIS4_EENS_18HashMapValueTraitsINS_10HashTraitsIS5_EENSG_ISA_EEEESH_NS1_13HeapAllocatorEE4findEPS4_ = comdat any

$_ZN3WTF6VectorIN5blink36EncodedAudioChunkOrEncodedVideoChunkELj0ENS1_13HeapAllocatorEEaSERKS4_ = comdat any

$_ZN3WTF6VectorIN5blink36EncodedAudioChunkOrEncodedVideoChunkELj0ENS1_13HeapAllocatorEE15ReserveCapacityEj = comdat any

$_ZN3WTF6VectorIN5blink36EncodedAudioChunkOrEncodedVideoChunkELj0ENS1_13HeapAllocatorEE16ReallocateBufferEj = comdat any

$_ZN5blink13HeapAllocator13QuantizedSizeINS_36EncodedAudioChunkOrEncodedVideoChunkEEEmm = comdat any

$_ZN5blink25MakeGarbageCollectedTraitINS_17HeapVectorBackingINS_36EncodedAudioChunkOrEncodedVideoChunkEN3WTF12VectorTraitsIS2_EEEEE4CallEm = comdat any

$_ZN5blink17HeapVectorBackingINS_36EncodedAudioChunkOrEncodedVideoChunkEN3WTF12VectorTraitsIS1_EEE14AllocateObjectIS5_EEPvm = comdat any

$_ZN5blink10TraceTraitINS_17HeapVectorBackingINS_36EncodedAudioChunkOrEncodedVideoChunkEN3WTF12VectorTraitsIS2_EEEEE5TraceEPNS_7VisitorEPKv = comdat any

$_ZN5blink8internal14FinalizerTraitINS_17HeapVectorBackingINS_36EncodedAudioChunkOrEncodedVideoChunkEN3WTF12VectorTraitsIS3_EEEEE8FinalizeEPv = comdat any

$_ZN5blink9NameTraitINS_17HeapVectorBackingINS_36EncodedAudioChunkOrEncodedVideoChunkEN3WTF12VectorTraitsIS2_EEEEE7GetNameEPKv = comdat any

$_ZN3WTF15ConstructTraitsIN5blink36EncodedAudioChunkOrEncodedVideoChunkENS_12VectorTraitsIS2_EENS1_13HeapAllocatorEE25ConstructAndNotifyElementIJRKS2_EEEPS2_PvDpOT_ = comdat any

$_ZN5blink10TraceTraitINS_17EncodedAudioChunkEE5TraceEPNS_7VisitorEPKv = comdat any

$_ZN5blink10TraceTraitINS_14DOMArrayBufferEE5TraceEPNS_7VisitorEPKv = comdat any

$_ZN5blink10TraceTraitINS_17EncodedVideoChunkEE5TraceEPNS_7VisitorEPKv = comdat any

$_ZN5blink8bindings29CreateIDLSequenceFromIteratorINS_36EncodedAudioChunkOrEncodedVideoChunkEEENS_17NativeValueTraitsINS_11IDLSequenceIT_EEvE8ImplTypeEPN2v87IsolateENS_14ScriptIteratorERNS_14ExceptionStateE = comdat any

$_ZN3WTF15ConstructTraitsIN5blink36EncodedAudioChunkOrEncodedVideoChunkENS_12VectorTraitsIS2_EENS1_13HeapAllocatorEE25ConstructAndNotifyElementIJS2_EEEPS2_PvDpOT_ = comdat any

$_ZN3WTF6VectorIN5blink36EncodedAudioChunkOrEncodedVideoChunkELj0ENS1_13HeapAllocatorEE14AppendSlowCaseIS2_EEvOT_ = comdat any

$_ZN5blink20ToV8SequenceInternalINS_10HeapVectorINS_36EncodedAudioChunkOrEncodedVideoChunkELj0EEEEEN2v85LocalINS4_5ArrayEEERKT_NS5_INS4_6ObjectEEEPNS4_7IsolateE = comdat any

$_ZZN5blink11GCInfoTraitINS_17HeapVectorBackingINS_36EncodedAudioChunkOrEncodedVideoChunkEN3WTF12VectorTraitsIS2_EEEEE5IndexEvE7kGcInfo = comdat any

$_ZZN5blink11GCInfoTraitINS_17HeapVectorBackingINS_36EncodedAudioChunkOrEncodedVideoChunkEN3WTF12VectorTraitsIS2_EEEEE5IndexEvE13gc_info_index = comdat any

@.str = private unnamed_addr constant [131 x i8] c"The provided value is not of type '(sequence<(EncodedAudioChunk or EncodedVideoChunk)> or EncodedAudioChunk or EncodedVideoChunk)'\00", align 1
@_ZN3WTF8internal25g_main_thread_stack_startE = external local_unnamed_addr global i64, align 8
@_ZN3WTF8internal39g_main_thread_underestimated_stack_sizeE = external local_unnamed_addr global i64, align 8
@_ZN5blink15DOMWrapperWorld41number_of_non_main_worlds_in_main_thread_E = external local_unnamed_addr global i32, align 4
@.str.1 = private unnamed_addr constant [66 x i8] c"../../third_party/blink/renderer/platform/bindings/script_state.h\00", align 1
@.str.2 = private unnamed_addr constant [13 x i8] c"script_state\00", align 1
@.str.3 = private unnamed_addr constant [34 x i8] c"script_state->context_ == context\00", align 1
@_ZN5blink11ThreadState25incremental_marking_flag_E = external local_unnamed_addr global %"class.blink::AtomicEntryFlag", align 4
@.str.4 = private unnamed_addr constant [44 x i8] c"count <= MaxElementCountInBackingStore<T>()\00", align 1
@.str.5 = private unnamed_addr constant [74 x i8] c"../../third_party/blink/renderer/platform/heap/impl/heap_allocator_impl.h\00", align 1
@_ZN5blink11ThreadState16thread_specific_E = external local_unnamed_addr global %"class.WTF::ThreadSpecific"*, align 8
@__PRETTY_FUNCTION__._ZN3WTF21GetStringWithTypeNameIPN5blink11ThreadStateEEEPKcv = private unnamed_addr constant [68 x i8] c"const char *WTF::GetStringWithTypeName() [T = blink::ThreadState *]\00", align 1
@.str.6 = private unnamed_addr constant [18 x i8] c"num_elements > 0u\00", align 1
@.str.7 = private unnamed_addr constant [93 x i8] c"../../third_party/blink/renderer/platform/heap/impl/collection_support/heap_vector_backing.h\00", align 1
@.str.8 = private unnamed_addr constant [23 x i8] c"allocation_size > size\00", align 1
@.str.9 = private unnamed_addr constant [59 x i8] c"../../third_party/blink/renderer/platform/heap/impl/heap.h\00", align 1
@_ZZN5blink11GCInfoTraitINS_17HeapVectorBackingINS_36EncodedAudioChunkOrEncodedVideoChunkEN3WTF12VectorTraitsIS2_EEEEE5IndexEvE7kGcInfo = linkonce_odr hidden constant %"struct.blink::GCInfo" { void (%"class.blink::Visitor"*, i8*)* @_ZN5blink10TraceTraitINS_17HeapVectorBackingINS_36EncodedAudioChunkOrEncodedVideoChunkEN3WTF12VectorTraitsIS2_EEEEE5TraceEPNS_7VisitorEPKv, void (i8*)* @_ZN5blink8internal14FinalizerTraitINS_17HeapVectorBackingINS_36EncodedAudioChunkOrEncodedVideoChunkEN3WTF12VectorTraitsIS3_EEEEE8FinalizeEPv, { i8*, i8 } (i8*)* @_ZN5blink9NameTraitINS_17HeapVectorBackingINS_36EncodedAudioChunkOrEncodedVideoChunkEN3WTF12VectorTraitsIS2_EEEEE7GetNameEPKv, i8 0 }, comdat, align 8
@_ZZN5blink11GCInfoTraitINS_17HeapVectorBackingINS_36EncodedAudioChunkOrEncodedVideoChunkEN3WTF12VectorTraitsIS2_EEEEE5IndexEvE13gc_info_index = linkonce_odr hidden global { { i32 } } zeroinitializer, comdat, align 4
@.str.10 = private unnamed_addr constant [13 x i8] c"InternalNode\00", align 1
@_ZN5blink11GCInfoTable13global_table_E = external local_unnamed_addr global %"class.blink::GCInfoTable"*, align 8
@.str.11 = private unnamed_addr constant [55 x i8] c"../../third_party/blink/renderer/platform/wtf/vector.h\00", align 1
@.str.12 = private unnamed_addr constant [33 x i8] c"Allocator::IsAllocationAllowed()\00", align 1
@_ZN5blink19V8EncodedAudioChunk18wrapper_type_info_E = external global %"struct.blink::WrapperTypeInfo", align 8
@_ZN5blink19V8EncodedVideoChunk18wrapper_type_info_E = external global %"struct.blink::WrapperTypeInfo", align 8
@_ZN5blink26RuntimeEnabledFeaturesBase36is_blink_runtime_call_stats_enabled_E = external local_unnamed_addr global i8, align 1

@_ZN5blink82EncodedAudioChunkOrEncodedVideoChunkSequenceOrEncodedAudioChunkOrEncodedVideoChunkC1Ev = hidden unnamed_addr alias void (%"class.blink::EncodedAudioChunkOrEncodedVideoChunkSequenceOrEncodedAudioChunkOrEncodedVideoChunk"*), void (%"class.blink::EncodedAudioChunkOrEncodedVideoChunkSequenceOrEncodedAudioChunkOrEncodedVideoChunk"*)* @_ZN5blink82EncodedAudioChunkOrEncodedVideoChunkSequenceOrEncodedAudioChunkOrEncodedVideoChunkC2Ev
@_ZN5blink82EncodedAudioChunkOrEncodedVideoChunkSequenceOrEncodedAudioChunkOrEncodedVideoChunkC1ERKS0_ = hidden unnamed_addr alias void (%"class.blink::EncodedAudioChunkOrEncodedVideoChunkSequenceOrEncodedAudioChunkOrEncodedVideoChunk"*, %"class.blink::EncodedAudioChunkOrEncodedVideoChunkSequenceOrEncodedAudioChunkOrEncodedVideoChunk"*), void (%"class.blink::EncodedAudioChunkOrEncodedVideoChunkSequenceOrEncodedAudioChunkOrEncodedVideoChunk"*, %"class.blink::EncodedAudioChunkOrEncodedVideoChunkSequenceOrEncodedAudioChunkOrEncodedVideoChunk"*)* @_ZN5blink82EncodedAudioChunkOrEncodedVideoChunkSequenceOrEncodedAudioChunkOrEncodedVideoChunkC2ERKS0_
@_ZN5blink82EncodedAudioChunkOrEncodedVideoChunkSequenceOrEncodedAudioChunkOrEncodedVideoChunkD1Ev = hidden unnamed_addr alias void (%"class.blink::EncodedAudioChunkOrEncodedVideoChunkSequenceOrEncodedAudioChunkOrEncodedVideoChunk"*), void (%"class.blink::EncodedAudioChunkOrEncodedVideoChunkSequenceOrEncodedAudioChunkOrEncodedVideoChunk"*)* @_ZN5blink82EncodedAudioChunkOrEncodedVideoChunkSequenceOrEncodedAudioChunkOrEncodedVideoChunkD2Ev

; Function Attrs: nounwind ssp uwtable
define hidden void @_ZN5blink82EncodedAudioChunkOrEncodedVideoChunkSequenceOrEncodedAudioChunkOrEncodedVideoChunkC2Ev(%"class.blink::EncodedAudioChunkOrEncodedVideoChunkSequenceOrEncodedAudioChunkOrEncodedVideoChunk"* nocapture) unnamed_addr #0 align 2 {
  %2 = getelementptr inbounds %"class.blink::EncodedAudioChunkOrEncodedVideoChunkSequenceOrEncodedAudioChunkOrEncodedVideoChunk", %"class.blink::EncodedAudioChunkOrEncodedVideoChunkSequenceOrEncodedAudioChunkOrEncodedVideoChunk"* %0, i64 0, i32 0
  store i32 0, i32* %2, align 8
  %3 = getelementptr inbounds %"class.blink::EncodedAudioChunkOrEncodedVideoChunkSequenceOrEncodedAudioChunkOrEncodedVideoChunk", %"class.blink::EncodedAudioChunkOrEncodedVideoChunkSequenceOrEncodedAudioChunkOrEncodedVideoChunk"* %0, i64 0, i32 1, i32 0, i32 0
  %4 = bitcast %"class.blink::EncodedAudioChunk"** %3 to i8*
  call void @llvm.memset.p0i8.i64(i8* align 8 %4, i8 0, i64 32, i1 false)
  ret void
}

; Function Attrs: norecurse nounwind readonly ssp uwtable
define hidden %"class.blink::EncodedAudioChunk"* @_ZNK5blink82EncodedAudioChunkOrEncodedVideoChunkSequenceOrEncodedAudioChunkOrEncodedVideoChunk22GetAsEncodedAudioChunkEv(%"class.blink::EncodedAudioChunkOrEncodedVideoChunkSequenceOrEncodedAudioChunkOrEncodedVideoChunk"* nocapture readonly) local_unnamed_addr #1 align 2 {
  %2 = getelementptr inbounds %"class.blink::EncodedAudioChunkOrEncodedVideoChunkSequenceOrEncodedAudioChunkOrEncodedVideoChunk", %"class.blink::EncodedAudioChunkOrEncodedVideoChunkSequenceOrEncodedAudioChunkOrEncodedVideoChunk"* %0, i64 0, i32 1, i32 0, i32 0
  %3 = load %"class.blink::EncodedAudioChunk"*, %"class.blink::EncodedAudioChunk"** %2, align 8
  ret %"class.blink::EncodedAudioChunk"* %3
}

; Function Attrs: nounwind ssp uwtable
define hidden void @_ZN5blink82EncodedAudioChunkOrEncodedVideoChunkSequenceOrEncodedAudioChunkOrEncodedVideoChunk20SetEncodedAudioChunkEPNS_17EncodedAudioChunkE(%"class.blink::EncodedAudioChunkOrEncodedVideoChunkSequenceOrEncodedAudioChunkOrEncodedVideoChunk"* nocapture, %"class.blink::EncodedAudioChunk"*) local_unnamed_addr #0 align 2 {
  %3 = getelementptr inbounds %"class.blink::EncodedAudioChunkOrEncodedVideoChunkSequenceOrEncodedAudioChunkOrEncodedVideoChunk", %"class.blink::EncodedAudioChunkOrEncodedVideoChunkSequenceOrEncodedAudioChunkOrEncodedVideoChunk"* %0, i64 0, i32 1
  %4 = ptrtoint %"class.blink::EncodedAudioChunk"* %1 to i64
  %5 = bitcast %"class.blink::Member"* %3 to i64*
  store atomic i64 %4, i64* %5 monotonic, align 8
  %6 = load atomic i32, i32* getelementptr inbounds (%"class.blink::AtomicEntryFlag", %"class.blink::AtomicEntryFlag"* @_ZN5blink11ThreadState25incremental_marking_flag_E, i64 0, i32 0, i32 0, i32 0, i32 0, i32 0, i32 0) monotonic, align 4
  %7 = icmp eq i32 %6, 0
  br i1 %7, label %11, label %8

8:                                                ; preds = %2
  %9 = bitcast %"class.blink::EncodedAudioChunk"* %1 to i8*
  %10 = tail call zeroext i1 @_ZN5blink14MarkingVisitor16WriteBarrierSlowEPv(i8* %9) #9
  br label %11

11:                                               ; preds = %2, %8
  %12 = getelementptr inbounds %"class.blink::EncodedAudioChunkOrEncodedVideoChunkSequenceOrEncodedAudioChunkOrEncodedVideoChunk", %"class.blink::EncodedAudioChunkOrEncodedVideoChunkSequenceOrEncodedAudioChunkOrEncodedVideoChunk"* %0, i64 0, i32 0
  store i32 1, i32* %12, align 8
  ret void
}

; Function Attrs: nounwind ssp uwtable
define hidden void @_ZN5blink82EncodedAudioChunkOrEncodedVideoChunkSequenceOrEncodedAudioChunkOrEncodedVideoChunk21FromEncodedAudioChunkEPNS_17EncodedAudioChunkE(%"class.blink::EncodedAudioChunkOrEncodedVideoChunkSequenceOrEncodedAudioChunkOrEncodedVideoChunk"* noalias nocapture sret, %"class.blink::EncodedAudioChunk"*) local_unnamed_addr #0 align 2 {
  %3 = bitcast %"class.blink::EncodedAudioChunkOrEncodedVideoChunkSequenceOrEncodedAudioChunkOrEncodedVideoChunk"* %0 to i64*
  store i64 -6148914691236517206, i64* %3, align 8
  %4 = getelementptr inbounds %"class.blink::EncodedAudioChunkOrEncodedVideoChunkSequenceOrEncodedAudioChunkOrEncodedVideoChunk", %"class.blink::EncodedAudioChunkOrEncodedVideoChunkSequenceOrEncodedAudioChunkOrEncodedVideoChunk"* %0, i64 0, i32 0
  store i32 0, i32* %4, align 8
  %5 = getelementptr inbounds %"class.blink::EncodedAudioChunkOrEncodedVideoChunkSequenceOrEncodedAudioChunkOrEncodedVideoChunk", %"class.blink::EncodedAudioChunkOrEncodedVideoChunkSequenceOrEncodedAudioChunkOrEncodedVideoChunk"* %0, i64 0, i32 1, i32 0, i32 0
  %6 = getelementptr inbounds %"class.blink::EncodedAudioChunk"*, %"class.blink::EncodedAudioChunk"** %5, i64 1
  %7 = bitcast %"class.blink::EncodedAudioChunk"** %6 to i8*
  tail call void @llvm.memset.p0i8.i64(i8* align 8 %7, i8 0, i64 24, i1 false) #9
  %8 = getelementptr inbounds %"class.blink::EncodedAudioChunkOrEncodedVideoChunkSequenceOrEncodedAudioChunkOrEncodedVideoChunk", %"class.blink::EncodedAudioChunkOrEncodedVideoChunkSequenceOrEncodedAudioChunkOrEncodedVideoChunk"* %0, i64 0, i32 1
  %9 = ptrtoint %"class.blink::EncodedAudioChunk"* %1 to i64
  %10 = bitcast %"class.blink::Member"* %8 to i64*
  store atomic i64 %9, i64* %10 monotonic, align 8
  %11 = load atomic i32, i32* getelementptr inbounds (%"class.blink::AtomicEntryFlag", %"class.blink::AtomicEntryFlag"* @_ZN5blink11ThreadState25incremental_marking_flag_E, i64 0, i32 0, i32 0, i32 0, i32 0, i32 0, i32 0) monotonic, align 4
  %12 = icmp eq i32 %11, 0
  br i1 %12, label %16, label %13

13:                                               ; preds = %2
  %14 = bitcast %"class.blink::EncodedAudioChunk"* %1 to i8*
  %15 = tail call zeroext i1 @_ZN5blink14MarkingVisitor16WriteBarrierSlowEPv(i8* %14) #9
  br label %16

16:                                               ; preds = %2, %13
  store i32 1, i32* %4, align 8
  ret void
}

; Function Attrs: argmemonly nounwind
declare void @llvm.memset.p0i8.i64(i8* nocapture writeonly, i8, i64, i1 immarg) #2

; Function Attrs: norecurse nounwind readnone ssp uwtable
define hidden dereferenceable(16) %"class.blink::HeapVector"* @_ZNK5blink82EncodedAudioChunkOrEncodedVideoChunkSequenceOrEncodedAudioChunkOrEncodedVideoChunk49GetAsEncodedAudioChunkOrEncodedVideoChunkSequenceEv(%"class.blink::EncodedAudioChunkOrEncodedVideoChunkSequenceOrEncodedAudioChunkOrEncodedVideoChunk"* readnone) local_unnamed_addr #3 align 2 {
  %2 = getelementptr inbounds %"class.blink::EncodedAudioChunkOrEncodedVideoChunkSequenceOrEncodedAudioChunkOrEncodedVideoChunk", %"class.blink::EncodedAudioChunkOrEncodedVideoChunkSequenceOrEncodedAudioChunkOrEncodedVideoChunk"* %0, i64 0, i32 2
  ret %"class.blink::HeapVector"* %2
}

; Function Attrs: nounwind ssp uwtable
define hidden void @_ZN5blink82EncodedAudioChunkOrEncodedVideoChunkSequenceOrEncodedAudioChunkOrEncodedVideoChunk47SetEncodedAudioChunkOrEncodedVideoChunkSequenceERKNS_10HeapVectorINS_36EncodedAudioChunkOrEncodedVideoChunkELj0EEE(%"class.blink::EncodedAudioChunkOrEncodedVideoChunkSequenceOrEncodedAudioChunkOrEncodedVideoChunk"*, %"class.blink::HeapVector"* dereferenceable(16)) local_unnamed_addr #0 align 2 {
  %3 = getelementptr inbounds %"class.blink::EncodedAudioChunkOrEncodedVideoChunkSequenceOrEncodedAudioChunkOrEncodedVideoChunk", %"class.blink::EncodedAudioChunkOrEncodedVideoChunkSequenceOrEncodedAudioChunkOrEncodedVideoChunk"* %0, i64 0, i32 2, i32 0
  %4 = getelementptr inbounds %"class.blink::HeapVector", %"class.blink::HeapVector"* %1, i64 0, i32 0
  %5 = tail call dereferenceable(16) %"class.WTF::Vector"* @_ZN3WTF6VectorIN5blink36EncodedAudioChunkOrEncodedVideoChunkELj0ENS1_13HeapAllocatorEEaSERKS4_(%"class.WTF::Vector"* %3, %"class.WTF::Vector"* dereferenceable(16) %4) #9
  %6 = getelementptr inbounds %"class.blink::EncodedAudioChunkOrEncodedVideoChunkSequenceOrEncodedAudioChunkOrEncodedVideoChunk", %"class.blink::EncodedAudioChunkOrEncodedVideoChunkSequenceOrEncodedAudioChunkOrEncodedVideoChunk"* %0, i64 0, i32 0
  store i32 2, i32* %6, align 8
  ret void
}

; Function Attrs: nounwind ssp uwtable
define hidden void @_ZN5blink82EncodedAudioChunkOrEncodedVideoChunkSequenceOrEncodedAudioChunkOrEncodedVideoChunk48FromEncodedAudioChunkOrEncodedVideoChunkSequenceERKNS_10HeapVectorINS_36EncodedAudioChunkOrEncodedVideoChunkELj0EEE(%"class.blink::EncodedAudioChunkOrEncodedVideoChunkSequenceOrEncodedAudioChunkOrEncodedVideoChunk"* noalias sret, %"class.blink::HeapVector"* dereferenceable(16)) local_unnamed_addr #0 align 2 {
  %3 = bitcast %"class.blink::EncodedAudioChunkOrEncodedVideoChunkSequenceOrEncodedAudioChunkOrEncodedVideoChunk"* %0 to i64*
  store i64 -6148914691236517206, i64* %3, align 8
  %4 = getelementptr inbounds %"class.blink::EncodedAudioChunkOrEncodedVideoChunkSequenceOrEncodedAudioChunkOrEncodedVideoChunk", %"class.blink::EncodedAudioChunkOrEncodedVideoChunkSequenceOrEncodedAudioChunkOrEncodedVideoChunk"* %0, i64 0, i32 0
  store i32 0, i32* %4, align 8
  %5 = getelementptr inbounds %"class.blink::EncodedAudioChunkOrEncodedVideoChunkSequenceOrEncodedAudioChunkOrEncodedVideoChunk", %"class.blink::EncodedAudioChunkOrEncodedVideoChunkSequenceOrEncodedAudioChunkOrEncodedVideoChunk"* %0, i64 0, i32 1, i32 0, i32 0
  %6 = bitcast %"class.blink::EncodedAudioChunk"** %5 to i8*
  tail call void @llvm.memset.p0i8.i64(i8* align 8 %6, i8 0, i64 32, i1 false) #9
  %7 = getelementptr inbounds %"class.blink::EncodedAudioChunkOrEncodedVideoChunkSequenceOrEncodedAudioChunkOrEncodedVideoChunk", %"class.blink::EncodedAudioChunkOrEncodedVideoChunkSequenceOrEncodedAudioChunkOrEncodedVideoChunk"* %0, i64 0, i32 2, i32 0
  %8 = getelementptr inbounds %"class.blink::HeapVector", %"class.blink::HeapVector"* %1, i64 0, i32 0
  %9 = tail call dereferenceable(16) %"class.WTF::Vector"* @_ZN3WTF6VectorIN5blink36EncodedAudioChunkOrEncodedVideoChunkELj0ENS1_13HeapAllocatorEEaSERKS4_(%"class.WTF::Vector"* %7, %"class.WTF::Vector"* dereferenceable(16) %8) #9
  store i32 2, i32* %4, align 8
  ret void
}

; Function Attrs: norecurse nounwind readonly ssp uwtable
define hidden %"class.blink::EncodedVideoChunk"* @_ZNK5blink82EncodedAudioChunkOrEncodedVideoChunkSequenceOrEncodedAudioChunkOrEncodedVideoChunk22GetAsEncodedVideoChunkEv(%"class.blink::EncodedAudioChunkOrEncodedVideoChunkSequenceOrEncodedAudioChunkOrEncodedVideoChunk"* nocapture readonly) local_unnamed_addr #1 align 2 {
  %2 = getelementptr inbounds %"class.blink::EncodedAudioChunkOrEncodedVideoChunkSequenceOrEncodedAudioChunkOrEncodedVideoChunk", %"class.blink::EncodedAudioChunkOrEncodedVideoChunkSequenceOrEncodedAudioChunkOrEncodedVideoChunk"* %0, i64 0, i32 3, i32 0, i32 0
  %3 = load %"class.blink::EncodedVideoChunk"*, %"class.blink::EncodedVideoChunk"** %2, align 8
  ret %"class.blink::EncodedVideoChunk"* %3
}

; Function Attrs: nounwind ssp uwtable
define hidden void @_ZN5blink82EncodedAudioChunkOrEncodedVideoChunkSequenceOrEncodedAudioChunkOrEncodedVideoChunk20SetEncodedVideoChunkEPNS_17EncodedVideoChunkE(%"class.blink::EncodedAudioChunkOrEncodedVideoChunkSequenceOrEncodedAudioChunkOrEncodedVideoChunk"* nocapture, %"class.blink::EncodedVideoChunk"*) local_unnamed_addr #0 align 2 {
  %3 = getelementptr inbounds %"class.blink::EncodedAudioChunkOrEncodedVideoChunkSequenceOrEncodedAudioChunkOrEncodedVideoChunk", %"class.blink::EncodedAudioChunkOrEncodedVideoChunkSequenceOrEncodedAudioChunkOrEncodedVideoChunk"* %0, i64 0, i32 3
  %4 = ptrtoint %"class.blink::EncodedVideoChunk"* %1 to i64
  %5 = bitcast %"class.blink::Member.4"* %3 to i64*
  store atomic i64 %4, i64* %5 monotonic, align 8
  %6 = load atomic i32, i32* getelementptr inbounds (%"class.blink::AtomicEntryFlag", %"class.blink::AtomicEntryFlag"* @_ZN5blink11ThreadState25incremental_marking_flag_E, i64 0, i32 0, i32 0, i32 0, i32 0, i32 0, i32 0) monotonic, align 4
  %7 = icmp eq i32 %6, 0
  br i1 %7, label %11, label %8

8:                                                ; preds = %2
  %9 = bitcast %"class.blink::EncodedVideoChunk"* %1 to i8*
  %10 = tail call zeroext i1 @_ZN5blink14MarkingVisitor16WriteBarrierSlowEPv(i8* %9) #9
  br label %11

11:                                               ; preds = %2, %8
  %12 = getelementptr inbounds %"class.blink::EncodedAudioChunkOrEncodedVideoChunkSequenceOrEncodedAudioChunkOrEncodedVideoChunk", %"class.blink::EncodedAudioChunkOrEncodedVideoChunkSequenceOrEncodedAudioChunkOrEncodedVideoChunk"* %0, i64 0, i32 0
  store i32 3, i32* %12, align 8
  ret void
}

; Function Attrs: nounwind ssp uwtable
define hidden void @_ZN5blink82EncodedAudioChunkOrEncodedVideoChunkSequenceOrEncodedAudioChunkOrEncodedVideoChunk21FromEncodedVideoChunkEPNS_17EncodedVideoChunkE(%"class.blink::EncodedAudioChunkOrEncodedVideoChunkSequenceOrEncodedAudioChunkOrEncodedVideoChunk"* noalias nocapture sret, %"class.blink::EncodedVideoChunk"*) local_unnamed_addr #0 align 2 {
  %3 = bitcast %"class.blink::EncodedAudioChunkOrEncodedVideoChunkSequenceOrEncodedAudioChunkOrEncodedVideoChunk"* %0 to i64*
  store i64 -6148914691236517206, i64* %3, align 8
  %4 = getelementptr inbounds %"class.blink::EncodedAudioChunkOrEncodedVideoChunkSequenceOrEncodedAudioChunkOrEncodedVideoChunk", %"class.blink::EncodedAudioChunkOrEncodedVideoChunkSequenceOrEncodedAudioChunkOrEncodedVideoChunk"* %0, i64 0, i32 0
  store i32 0, i32* %4, align 8
  %5 = getelementptr inbounds %"class.blink::EncodedAudioChunkOrEncodedVideoChunkSequenceOrEncodedAudioChunkOrEncodedVideoChunk", %"class.blink::EncodedAudioChunkOrEncodedVideoChunkSequenceOrEncodedAudioChunkOrEncodedVideoChunk"* %0, i64 0, i32 1, i32 0, i32 0
  %6 = bitcast %"class.blink::EncodedAudioChunk"** %5 to i8*
  tail call void @llvm.memset.p0i8.i64(i8* align 8 %6, i8 0, i64 24, i1 false) #9
  %7 = getelementptr inbounds %"class.blink::EncodedAudioChunkOrEncodedVideoChunkSequenceOrEncodedAudioChunkOrEncodedVideoChunk", %"class.blink::EncodedAudioChunkOrEncodedVideoChunkSequenceOrEncodedAudioChunkOrEncodedVideoChunk"* %0, i64 0, i32 3
  %8 = ptrtoint %"class.blink::EncodedVideoChunk"* %1 to i64
  %9 = bitcast %"class.blink::Member.4"* %7 to i64*
  store atomic i64 %8, i64* %9 monotonic, align 8
  %10 = load atomic i32, i32* getelementptr inbounds (%"class.blink::AtomicEntryFlag", %"class.blink::AtomicEntryFlag"* @_ZN5blink11ThreadState25incremental_marking_flag_E, i64 0, i32 0, i32 0, i32 0, i32 0, i32 0, i32 0) monotonic, align 4
  %11 = icmp eq i32 %10, 0
  br i1 %11, label %15, label %12

12:                                               ; preds = %2
  %13 = bitcast %"class.blink::EncodedVideoChunk"* %1 to i8*
  %14 = tail call zeroext i1 @_ZN5blink14MarkingVisitor16WriteBarrierSlowEPv(i8* %13) #9
  br label %15

15:                                               ; preds = %2, %12
  store i32 3, i32* %4, align 8
  ret void
}

; Function Attrs: nounwind ssp uwtable
define hidden void @_ZN5blink82EncodedAudioChunkOrEncodedVideoChunkSequenceOrEncodedAudioChunkOrEncodedVideoChunkC2ERKS0_(%"class.blink::EncodedAudioChunkOrEncodedVideoChunkSequenceOrEncodedAudioChunkOrEncodedVideoChunk"* nocapture, %"class.blink::EncodedAudioChunkOrEncodedVideoChunkSequenceOrEncodedAudioChunkOrEncodedVideoChunk"* nocapture readonly dereferenceable(40)) unnamed_addr #0 align 2 {
  %3 = getelementptr inbounds %"class.blink::EncodedAudioChunkOrEncodedVideoChunkSequenceOrEncodedAudioChunkOrEncodedVideoChunk", %"class.blink::EncodedAudioChunkOrEncodedVideoChunkSequenceOrEncodedAudioChunkOrEncodedVideoChunk"* %0, i64 0, i32 0
  %4 = getelementptr inbounds %"class.blink::EncodedAudioChunkOrEncodedVideoChunkSequenceOrEncodedAudioChunkOrEncodedVideoChunk", %"class.blink::EncodedAudioChunkOrEncodedVideoChunkSequenceOrEncodedAudioChunkOrEncodedVideoChunk"* %1, i64 0, i32 0
  %5 = load i32, i32* %4, align 8
  store i32 %5, i32* %3, align 8
  %6 = getelementptr inbounds %"class.blink::EncodedAudioChunkOrEncodedVideoChunkSequenceOrEncodedAudioChunkOrEncodedVideoChunk", %"class.blink::EncodedAudioChunkOrEncodedVideoChunkSequenceOrEncodedAudioChunkOrEncodedVideoChunk"* %0, i64 0, i32 1
  %7 = getelementptr inbounds %"class.blink::EncodedAudioChunkOrEncodedVideoChunkSequenceOrEncodedAudioChunkOrEncodedVideoChunk", %"class.blink::EncodedAudioChunkOrEncodedVideoChunkSequenceOrEncodedAudioChunkOrEncodedVideoChunk"* %1, i64 0, i32 1
  %8 = bitcast %"class.blink::Member"* %7 to i64*
  %9 = load i64, i64* %8, align 8
  %10 = bitcast %"class.blink::Member"* %6 to i64*
  store i64 %9, i64* %10, align 8
  %11 = getelementptr inbounds %"class.blink::EncodedAudioChunkOrEncodedVideoChunkSequenceOrEncodedAudioChunkOrEncodedVideoChunk", %"class.blink::EncodedAudioChunkOrEncodedVideoChunkSequenceOrEncodedAudioChunkOrEncodedVideoChunk"* %0, i64 0, i32 2
  %12 = getelementptr inbounds %"class.blink::EncodedAudioChunkOrEncodedVideoChunkSequenceOrEncodedAudioChunkOrEncodedVideoChunk", %"class.blink::EncodedAudioChunkOrEncodedVideoChunkSequenceOrEncodedAudioChunkOrEncodedVideoChunk"* %1, i64 0, i32 2, i32 0, i32 0, i32 0, i32 1
  %13 = load i32, i32* %12, align 8
  %14 = getelementptr inbounds %"class.blink::HeapVector", %"class.blink::HeapVector"* %11, i64 0, i32 0, i32 0, i32 0, i32 0
  store %"class.blink::EncodedAudioChunkOrEncodedVideoChunk"* null, %"class.blink::EncodedAudioChunkOrEncodedVideoChunk"** %14, align 8
  %15 = getelementptr inbounds %"class.blink::EncodedAudioChunkOrEncodedVideoChunkSequenceOrEncodedAudioChunkOrEncodedVideoChunk", %"class.blink::EncodedAudioChunkOrEncodedVideoChunkSequenceOrEncodedAudioChunkOrEncodedVideoChunk"* %0, i64 0, i32 2, i32 0, i32 0, i32 0, i32 1
  store i32 0, i32* %15, align 8
  %16 = icmp eq i32 %13, 0
  br i1 %16, label %32, label %17

17:                                               ; preds = %2
  %18 = zext i32 %13 to i64
  %19 = tail call i64 @_ZN5blink13HeapAllocator13QuantizedSizeINS_36EncodedAudioChunkOrEncodedVideoChunkEEEmm(i64 %18) #9
  %20 = udiv i64 %19, 24
  %21 = tail call %"class.blink::HeapVectorBacking"* @_ZN5blink25MakeGarbageCollectedTraitINS_17HeapVectorBackingINS_36EncodedAudioChunkOrEncodedVideoChunkEN3WTF12VectorTraitsIS2_EEEEE4CallEm(i64 %20) #9
  %22 = ptrtoint %"class.blink::HeapVectorBacking"* %21 to i64
  %23 = bitcast %"class.blink::HeapVector"* %11 to i64*
  store atomic i64 %22, i64* %23 monotonic, align 8
  %24 = trunc i64 %20 to i32
  store i32 %24, i32* %15, align 8
  %25 = load atomic i32, i32* getelementptr inbounds (%"class.blink::AtomicEntryFlag", %"class.blink::AtomicEntryFlag"* @_ZN5blink11ThreadState25incremental_marking_flag_E, i64 0, i32 0, i32 0, i32 0, i32 0, i32 0, i32 0) monotonic, align 4
  %26 = icmp eq i32 %25, 0
  %27 = bitcast %"class.blink::HeapVectorBacking"* %21 to %"class.blink::EncodedAudioChunkOrEncodedVideoChunk"*
  br i1 %26, label %32, label %28

28:                                               ; preds = %17
  %29 = getelementptr inbounds %"class.blink::HeapVectorBacking", %"class.blink::HeapVectorBacking"* %21, i64 0, i32 0
  %30 = tail call zeroext i1 @_ZN5blink14MarkingVisitor16WriteBarrierSlowEPv(i8* %29) #9
  %31 = load %"class.blink::EncodedAudioChunkOrEncodedVideoChunk"*, %"class.blink::EncodedAudioChunkOrEncodedVideoChunk"** %14, align 8
  br label %32

32:                                               ; preds = %28, %17, %2
  %33 = phi %"class.blink::EncodedAudioChunkOrEncodedVideoChunk"* [ null, %2 ], [ %27, %17 ], [ %31, %28 ]
  %34 = getelementptr inbounds %"class.blink::EncodedAudioChunkOrEncodedVideoChunkSequenceOrEncodedAudioChunkOrEncodedVideoChunk", %"class.blink::EncodedAudioChunkOrEncodedVideoChunkSequenceOrEncodedAudioChunkOrEncodedVideoChunk"* %1, i64 0, i32 2, i32 0, i32 0, i32 0, i32 2
  %35 = load i32, i32* %34, align 4
  %36 = getelementptr inbounds %"class.blink::EncodedAudioChunkOrEncodedVideoChunkSequenceOrEncodedAudioChunkOrEncodedVideoChunk", %"class.blink::EncodedAudioChunkOrEncodedVideoChunkSequenceOrEncodedAudioChunkOrEncodedVideoChunk"* %0, i64 0, i32 2, i32 0, i32 0, i32 0, i32 2
  store i32 %35, i32* %36, align 4
  %37 = getelementptr inbounds %"class.blink::EncodedAudioChunkOrEncodedVideoChunkSequenceOrEncodedAudioChunkOrEncodedVideoChunk", %"class.blink::EncodedAudioChunkOrEncodedVideoChunkSequenceOrEncodedAudioChunkOrEncodedVideoChunk"* %1, i64 0, i32 2, i32 0, i32 0, i32 0, i32 0
  %38 = load %"class.blink::EncodedAudioChunkOrEncodedVideoChunk"*, %"class.blink::EncodedAudioChunkOrEncodedVideoChunk"** %37, align 8
  %39 = load i32, i32* %34, align 4
  %40 = zext i32 %39 to i64
  %41 = getelementptr inbounds %"class.blink::EncodedAudioChunkOrEncodedVideoChunk", %"class.blink::EncodedAudioChunkOrEncodedVideoChunk"* %38, i64 %40
  %42 = icmp eq i32 %39, 0
  br i1 %42, label %51, label %43

43:                                               ; preds = %32, %43
  %44 = phi %"class.blink::EncodedAudioChunkOrEncodedVideoChunk"* [ %48, %43 ], [ %33, %32 ]
  %45 = phi %"class.blink::EncodedAudioChunkOrEncodedVideoChunk"* [ %49, %43 ], [ %38, %32 ]
  %46 = bitcast %"class.blink::EncodedAudioChunkOrEncodedVideoChunk"* %44 to i8*
  %47 = tail call %"class.blink::EncodedAudioChunkOrEncodedVideoChunk"* @_ZN3WTF15ConstructTraitsIN5blink36EncodedAudioChunkOrEncodedVideoChunkENS_12VectorTraitsIS2_EENS1_13HeapAllocatorEE25ConstructAndNotifyElementIJRKS2_EEEPS2_PvDpOT_(i8* %46, %"class.blink::EncodedAudioChunkOrEncodedVideoChunk"* dereferenceable(24) %45) #9
  %48 = getelementptr inbounds %"class.blink::EncodedAudioChunkOrEncodedVideoChunk", %"class.blink::EncodedAudioChunkOrEncodedVideoChunk"* %44, i64 1
  %49 = getelementptr inbounds %"class.blink::EncodedAudioChunkOrEncodedVideoChunk", %"class.blink::EncodedAudioChunkOrEncodedVideoChunk"* %45, i64 1
  %50 = icmp eq %"class.blink::EncodedAudioChunkOrEncodedVideoChunk"* %49, %41
  br i1 %50, label %51, label %43

51:                                               ; preds = %43, %32
  %52 = getelementptr inbounds %"class.blink::EncodedAudioChunkOrEncodedVideoChunkSequenceOrEncodedAudioChunkOrEncodedVideoChunk", %"class.blink::EncodedAudioChunkOrEncodedVideoChunkSequenceOrEncodedAudioChunkOrEncodedVideoChunk"* %0, i64 0, i32 3
  %53 = getelementptr inbounds %"class.blink::EncodedAudioChunkOrEncodedVideoChunkSequenceOrEncodedAudioChunkOrEncodedVideoChunk", %"class.blink::EncodedAudioChunkOrEncodedVideoChunkSequenceOrEncodedAudioChunkOrEncodedVideoChunk"* %1, i64 0, i32 3
  %54 = bitcast %"class.blink::Member.4"* %53 to i64*
  %55 = load i64, i64* %54, align 8
  %56 = bitcast %"class.blink::Member.4"* %52 to i64*
  store i64 %55, i64* %56, align 8
  ret void
}

; Function Attrs: norecurse nounwind readnone ssp uwtable
define hidden void @_ZN5blink82EncodedAudioChunkOrEncodedVideoChunkSequenceOrEncodedAudioChunkOrEncodedVideoChunkD2Ev(%"class.blink::EncodedAudioChunkOrEncodedVideoChunkSequenceOrEncodedAudioChunkOrEncodedVideoChunk"* nocapture) unnamed_addr #3 align 2 {
  ret void
}

; Function Attrs: nounwind ssp uwtable
define hidden dereferenceable(40) %"class.blink::EncodedAudioChunkOrEncodedVideoChunkSequenceOrEncodedAudioChunkOrEncodedVideoChunk"* @_ZN5blink82EncodedAudioChunkOrEncodedVideoChunkSequenceOrEncodedAudioChunkOrEncodedVideoChunkaSERKS0_(%"class.blink::EncodedAudioChunkOrEncodedVideoChunkSequenceOrEncodedAudioChunkOrEncodedVideoChunk"* returned, %"class.blink::EncodedAudioChunkOrEncodedVideoChunkSequenceOrEncodedAudioChunkOrEncodedVideoChunk"* dereferenceable(40)) local_unnamed_addr #0 align 2 {
  %3 = getelementptr inbounds %"class.blink::EncodedAudioChunkOrEncodedVideoChunkSequenceOrEncodedAudioChunkOrEncodedVideoChunk", %"class.blink::EncodedAudioChunkOrEncodedVideoChunkSequenceOrEncodedAudioChunkOrEncodedVideoChunk"* %1, i64 0, i32 0
  %4 = load i32, i32* %3, align 8
  %5 = getelementptr inbounds %"class.blink::EncodedAudioChunkOrEncodedVideoChunkSequenceOrEncodedAudioChunkOrEncodedVideoChunk", %"class.blink::EncodedAudioChunkOrEncodedVideoChunkSequenceOrEncodedAudioChunkOrEncodedVideoChunk"* %0, i64 0, i32 0
  store i32 %4, i32* %5, align 8
  %6 = getelementptr inbounds %"class.blink::EncodedAudioChunkOrEncodedVideoChunkSequenceOrEncodedAudioChunkOrEncodedVideoChunk", %"class.blink::EncodedAudioChunkOrEncodedVideoChunkSequenceOrEncodedAudioChunkOrEncodedVideoChunk"* %0, i64 0, i32 1
  %7 = getelementptr inbounds %"class.blink::EncodedAudioChunkOrEncodedVideoChunkSequenceOrEncodedAudioChunkOrEncodedVideoChunk", %"class.blink::EncodedAudioChunkOrEncodedVideoChunkSequenceOrEncodedAudioChunkOrEncodedVideoChunk"* %1, i64 0, i32 1
  %8 = bitcast %"class.blink::Member"* %7 to i64*
  %9 = load i64, i64* %8, align 8
  %10 = bitcast %"class.blink::Member"* %6 to i64*
  store atomic i64 %9, i64* %10 monotonic, align 8
  %11 = load atomic i32, i32* getelementptr inbounds (%"class.blink::AtomicEntryFlag", %"class.blink::AtomicEntryFlag"* @_ZN5blink11ThreadState25incremental_marking_flag_E, i64 0, i32 0, i32 0, i32 0, i32 0, i32 0, i32 0) monotonic, align 4
  %12 = icmp eq i32 %11, 0
  br i1 %12, label %16, label %13

13:                                               ; preds = %2
  %14 = inttoptr i64 %9 to i8*
  %15 = tail call zeroext i1 @_ZN5blink14MarkingVisitor16WriteBarrierSlowEPv(i8* %14) #9
  br label %16

16:                                               ; preds = %2, %13
  %17 = getelementptr inbounds %"class.blink::EncodedAudioChunkOrEncodedVideoChunkSequenceOrEncodedAudioChunkOrEncodedVideoChunk", %"class.blink::EncodedAudioChunkOrEncodedVideoChunkSequenceOrEncodedAudioChunkOrEncodedVideoChunk"* %0, i64 0, i32 2, i32 0
  %18 = getelementptr inbounds %"class.blink::EncodedAudioChunkOrEncodedVideoChunkSequenceOrEncodedAudioChunkOrEncodedVideoChunk", %"class.blink::EncodedAudioChunkOrEncodedVideoChunkSequenceOrEncodedAudioChunkOrEncodedVideoChunk"* %1, i64 0, i32 2, i32 0
  %19 = tail call dereferenceable(16) %"class.WTF::Vector"* @_ZN3WTF6VectorIN5blink36EncodedAudioChunkOrEncodedVideoChunkELj0ENS1_13HeapAllocatorEEaSERKS4_(%"class.WTF::Vector"* %17, %"class.WTF::Vector"* dereferenceable(16) %18) #9
  %20 = getelementptr inbounds %"class.blink::EncodedAudioChunkOrEncodedVideoChunkSequenceOrEncodedAudioChunkOrEncodedVideoChunk", %"class.blink::EncodedAudioChunkOrEncodedVideoChunkSequenceOrEncodedAudioChunkOrEncodedVideoChunk"* %0, i64 0, i32 3
  %21 = getelementptr inbounds %"class.blink::EncodedAudioChunkOrEncodedVideoChunkSequenceOrEncodedAudioChunkOrEncodedVideoChunk", %"class.blink::EncodedAudioChunkOrEncodedVideoChunkSequenceOrEncodedAudioChunkOrEncodedVideoChunk"* %1, i64 0, i32 3
  %22 = bitcast %"class.blink::Member.4"* %21 to i64*
  %23 = load i64, i64* %22, align 8
  %24 = bitcast %"class.blink::Member.4"* %20 to i64*
  store atomic i64 %23, i64* %24 monotonic, align 8
  %25 = load atomic i32, i32* getelementptr inbounds (%"class.blink::AtomicEntryFlag", %"class.blink::AtomicEntryFlag"* @_ZN5blink11ThreadState25incremental_marking_flag_E, i64 0, i32 0, i32 0, i32 0, i32 0, i32 0, i32 0) monotonic, align 4
  %26 = icmp eq i32 %25, 0
  br i1 %26, label %30, label %27

27:                                               ; preds = %16
  %28 = inttoptr i64 %23 to i8*
  %29 = tail call zeroext i1 @_ZN5blink14MarkingVisitor16WriteBarrierSlowEPv(i8* %28) #9
  br label %30

30:                                               ; preds = %16, %27
  ret %"class.blink::EncodedAudioChunkOrEncodedVideoChunkSequenceOrEncodedAudioChunkOrEncodedVideoChunk"* %0
}

; Function Attrs: nounwind ssp uwtable
define hidden void @_ZNK5blink82EncodedAudioChunkOrEncodedVideoChunkSequenceOrEncodedAudioChunkOrEncodedVideoChunk5TraceEPNS_7VisitorE(%"class.blink::EncodedAudioChunkOrEncodedVideoChunkSequenceOrEncodedAudioChunkOrEncodedVideoChunk"*, %"class.blink::Visitor"*) local_unnamed_addr #0 align 2 {
  %3 = getelementptr inbounds %"class.blink::EncodedAudioChunkOrEncodedVideoChunkSequenceOrEncodedAudioChunkOrEncodedVideoChunk", %"class.blink::EncodedAudioChunkOrEncodedVideoChunkSequenceOrEncodedAudioChunkOrEncodedVideoChunk"* %0, i64 0, i32 1
  %4 = bitcast %"class.blink::Member"* %3 to i64*
  %5 = load atomic i64, i64* %4 monotonic, align 8
  %6 = icmp eq i64 %5, 0
  br i1 %6, label %13, label %7

7:                                                ; preds = %2
  %8 = inttoptr i64 %5 to i8*
  %9 = bitcast %"class.blink::Visitor"* %1 to void (%"class.blink::Visitor"*, i8*, i8*, void (%"class.blink::Visitor"*, i8*)*)***
  %10 = load void (%"class.blink::Visitor"*, i8*, i8*, void (%"class.blink::Visitor"*, i8*)*)**, void (%"class.blink::Visitor"*, i8*, i8*, void (%"class.blink::Visitor"*, i8*)*)*** %9, align 8
  %11 = getelementptr inbounds void (%"class.blink::Visitor"*, i8*, i8*, void (%"class.blink::Visitor"*, i8*)*)*, void (%"class.blink::Visitor"*, i8*, i8*, void (%"class.blink::Visitor"*, i8*)*)** %10, i64 5
  %12 = load void (%"class.blink::Visitor"*, i8*, i8*, void (%"class.blink::Visitor"*, i8*)*)*, void (%"class.blink::Visitor"*, i8*, i8*, void (%"class.blink::Visitor"*, i8*)*)** %11, align 8
  tail call void %12(%"class.blink::Visitor"* %1, i8* nonnull %8, i8* nonnull %8, void (%"class.blink::Visitor"*, i8*)* nonnull @_ZN5blink10TraceTraitINS_17EncodedAudioChunkEE5TraceEPNS_7VisitorEPKv) #9
  br label %13

13:                                               ; preds = %2, %7
  %14 = getelementptr inbounds %"class.blink::EncodedAudioChunkOrEncodedVideoChunkSequenceOrEncodedAudioChunkOrEncodedVideoChunk", %"class.blink::EncodedAudioChunkOrEncodedVideoChunkSequenceOrEncodedAudioChunkOrEncodedVideoChunk"* %0, i64 0, i32 2
  %15 = bitcast %"class.blink::HeapVector"* %14 to i64*
  %16 = load atomic i64, i64* %15 monotonic, align 8
  %17 = icmp eq i64 %16, 0
  %18 = bitcast %"class.blink::HeapVector"* %14 to i8**
  %19 = bitcast %"class.blink::Visitor"* %1 to void (%"class.blink::Visitor"*, i8**)***
  %20 = load void (%"class.blink::Visitor"*, i8**)**, void (%"class.blink::Visitor"*, i8**)*** %19, align 8
  %21 = getelementptr inbounds void (%"class.blink::Visitor"*, i8**)*, void (%"class.blink::Visitor"*, i8**)** %20, i64 11
  %22 = load void (%"class.blink::Visitor"*, i8**)*, void (%"class.blink::Visitor"*, i8**)** %21, align 8
  tail call void %22(%"class.blink::Visitor"* %1, i8** %18) #9
  br i1 %17, label %29, label %23

23:                                               ; preds = %13
  %24 = inttoptr i64 %16 to i8*
  %25 = bitcast %"class.blink::Visitor"* %1 to void (%"class.blink::Visitor"*, i8*, i8*, void (%"class.blink::Visitor"*, i8*)*)***
  %26 = load void (%"class.blink::Visitor"*, i8*, i8*, void (%"class.blink::Visitor"*, i8*)*)**, void (%"class.blink::Visitor"*, i8*, i8*, void (%"class.blink::Visitor"*, i8*)*)*** %25, align 8
  %27 = getelementptr inbounds void (%"class.blink::Visitor"*, i8*, i8*, void (%"class.blink::Visitor"*, i8*)*)*, void (%"class.blink::Visitor"*, i8*, i8*, void (%"class.blink::Visitor"*, i8*)*)** %26, i64 5
  %28 = load void (%"class.blink::Visitor"*, i8*, i8*, void (%"class.blink::Visitor"*, i8*)*)*, void (%"class.blink::Visitor"*, i8*, i8*, void (%"class.blink::Visitor"*, i8*)*)** %27, align 8
  tail call void %28(%"class.blink::Visitor"* %1, i8* nonnull %24, i8* nonnull %24, void (%"class.blink::Visitor"*, i8*)* nonnull @_ZN5blink10TraceTraitINS_17HeapVectorBackingINS_36EncodedAudioChunkOrEncodedVideoChunkEN3WTF12VectorTraitsIS2_EEEEE5TraceEPNS_7VisitorEPKv) #9
  br label %29

29:                                               ; preds = %13, %23
  %30 = getelementptr inbounds %"class.blink::EncodedAudioChunkOrEncodedVideoChunkSequenceOrEncodedAudioChunkOrEncodedVideoChunk", %"class.blink::EncodedAudioChunkOrEncodedVideoChunkSequenceOrEncodedAudioChunkOrEncodedVideoChunk"* %0, i64 0, i32 3
  %31 = bitcast %"class.blink::Member.4"* %30 to i64*
  %32 = load atomic i64, i64* %31 monotonic, align 8
  %33 = icmp eq i64 %32, 0
  br i1 %33, label %40, label %34

34:                                               ; preds = %29
  %35 = inttoptr i64 %32 to i8*
  %36 = bitcast %"class.blink::Visitor"* %1 to void (%"class.blink::Visitor"*, i8*, i8*, void (%"class.blink::Visitor"*, i8*)*)***
  %37 = load void (%"class.blink::Visitor"*, i8*, i8*, void (%"class.blink::Visitor"*, i8*)*)**, void (%"class.blink::Visitor"*, i8*, i8*, void (%"class.blink::Visitor"*, i8*)*)*** %36, align 8
  %38 = getelementptr inbounds void (%"class.blink::Visitor"*, i8*, i8*, void (%"class.blink::Visitor"*, i8*)*)*, void (%"class.blink::Visitor"*, i8*, i8*, void (%"class.blink::Visitor"*, i8*)*)** %37, i64 5
  %39 = load void (%"class.blink::Visitor"*, i8*, i8*, void (%"class.blink::Visitor"*, i8*)*)*, void (%"class.blink::Visitor"*, i8*, i8*, void (%"class.blink::Visitor"*, i8*)*)** %38, align 8
  tail call void %39(%"class.blink::Visitor"* %1, i8* nonnull %35, i8* nonnull %35, void (%"class.blink::Visitor"*, i8*)* nonnull @_ZN5blink10TraceTraitINS_17EncodedVideoChunkEE5TraceEPNS_7VisitorEPKv) #9
  br label %40

40:                                               ; preds = %29, %34
  ret void
}

; Function Attrs: nounwind ssp uwtable
define hidden void @_ZN5blink84V8EncodedAudioChunkOrEncodedVideoChunkSequenceOrEncodedAudioChunkOrEncodedVideoChunk6ToImplEPN2v87IsolateENS1_5LocalINS1_5ValueEEERNS_82EncodedAudioChunkOrEncodedVideoChunkSequenceOrEncodedAudioChunkOrEncodedVideoChunkENS_23UnionTypeConversionModeERNS_14ExceptionStateE(%"class.v8::Isolate"*, %"class.v8::Value"*, %"class.blink::EncodedAudioChunkOrEncodedVideoChunkSequenceOrEncodedAudioChunkOrEncodedVideoChunk"* dereferenceable(40), i32, %"class.blink::ExceptionState"* dereferenceable(72)) local_unnamed_addr #0 align 2 {
  %6 = alloca %"class.blink::ScriptIterator", align 8
  %7 = alloca %"class.blink::HeapVector", align 8
  %8 = icmp eq %"class.v8::Value"* %1, null
  br i1 %8, label %127, label %9

9:                                                ; preds = %5
  %10 = icmp eq i32 %3, 0
  br i1 %10, label %11, label %32

11:                                               ; preds = %9
  %12 = bitcast %"class.v8::Value"* %1 to i64*
  %13 = load i64, i64* %12, align 8
  %14 = and i64 %13, 3
  %15 = icmp eq i64 %14, 1
  br i1 %15, label %16, label %32

16:                                               ; preds = %11
  %17 = add i64 %13, -1
  %18 = inttoptr i64 %17 to i32*
  %19 = load i32, i32* %18, align 4
  %20 = and i64 %13, -4294967296
  %21 = zext i32 %19 to i64
  %22 = or i64 %20, %21
  %23 = add i64 %22, 7
  %24 = inttoptr i64 %23 to i16*
  %25 = load i16, i16* %24, align 2
  %26 = icmp eq i16 %25, 67
  br i1 %26, label %27, label %32

27:                                               ; preds = %16
  %28 = add i64 %13, 23
  %29 = inttoptr i64 %28 to i32*
  %30 = load i32, i32* %29, align 4
  %31 = ashr i32 %30, 1
  switch i32 %31, label %32 [
    i32 5, label %127
    i32 3, label %127
  ]

32:                                               ; preds = %27, %16, %11, %9
  %33 = ptrtoint %"class.v8::Isolate"* %0 to i64
  %34 = add i64 %33, 8
  %35 = inttoptr i64 %34 to %"class.blink::V8PerIsolateData"**
  %36 = load %"class.blink::V8PerIsolateData"*, %"class.blink::V8PerIsolateData"** %35, align 8
  %37 = tail call zeroext i1 @_ZN5blink16V8PerIsolateData11HasInstanceEPKNS_15WrapperTypeInfoEN2v85LocalINS4_5ValueEEE(%"class.blink::V8PerIsolateData"* %36, %"struct.blink::WrapperTypeInfo"* nonnull @_ZN5blink19V8EncodedAudioChunk18wrapper_type_info_E, %"class.v8::Value"* nonnull %1) #9
  br i1 %37, label %38, label %68

38:                                               ; preds = %32
  %39 = bitcast %"class.v8::Value"* %1 to i64*
  %40 = load i64, i64* %39, align 8
  %41 = add i64 %40, -1
  %42 = inttoptr i64 %41 to i32*
  %43 = load i32, i32* %42, align 4
  %44 = and i64 %40, -4294967296
  %45 = zext i32 %43 to i64
  %46 = or i64 %44, %45
  %47 = add i64 %46, 7
  %48 = inttoptr i64 %47 to i16*
  %49 = load i16, i16* %48, align 2
  switch i16 %49, label %54 [
    i16 1057, label %50
    i16 1056, label %50
    i16 1040, label %50
  ]

50:                                               ; preds = %38, %38, %38
  %51 = add i64 %40, 19
  %52 = inttoptr i64 %51 to i8**
  %53 = load i8*, i8** %52, align 1
  br label %57

54:                                               ; preds = %38
  %55 = bitcast %"class.v8::Value"* %1 to %"class.v8::Object"*
  %56 = tail call i8* @_ZN2v86Object38SlowGetAlignedPointerFromInternalFieldEi(%"class.v8::Object"* nonnull %55, i32 1) #9
  br label %57

57:                                               ; preds = %50, %54
  %58 = phi i8* [ %53, %50 ], [ %56, %54 ]
  %59 = getelementptr inbounds %"class.blink::EncodedAudioChunkOrEncodedVideoChunkSequenceOrEncodedAudioChunkOrEncodedVideoChunk", %"class.blink::EncodedAudioChunkOrEncodedVideoChunkSequenceOrEncodedAudioChunkOrEncodedVideoChunk"* %2, i64 0, i32 1
  %60 = ptrtoint i8* %58 to i64
  %61 = bitcast %"class.blink::Member"* %59 to i64*
  store atomic i64 %60, i64* %61 monotonic, align 8
  %62 = load atomic i32, i32* getelementptr inbounds (%"class.blink::AtomicEntryFlag", %"class.blink::AtomicEntryFlag"* @_ZN5blink11ThreadState25incremental_marking_flag_E, i64 0, i32 0, i32 0, i32 0, i32 0, i32 0, i32 0) monotonic, align 4
  %63 = icmp eq i32 %62, 0
  br i1 %63, label %66, label %64

64:                                               ; preds = %57
  %65 = tail call zeroext i1 @_ZN5blink14MarkingVisitor16WriteBarrierSlowEPv(i8* %58) #9
  br label %66

66:                                               ; preds = %57, %64
  %67 = getelementptr inbounds %"class.blink::EncodedAudioChunkOrEncodedVideoChunkSequenceOrEncodedAudioChunkOrEncodedVideoChunk", %"class.blink::EncodedAudioChunkOrEncodedVideoChunkSequenceOrEncodedAudioChunkOrEncodedVideoChunk"* %2, i64 0, i32 0
  store i32 1, i32* %67, align 8
  br label %127

68:                                               ; preds = %32
  %69 = load %"class.blink::V8PerIsolateData"*, %"class.blink::V8PerIsolateData"** %35, align 8
  %70 = tail call zeroext i1 @_ZN5blink16V8PerIsolateData11HasInstanceEPKNS_15WrapperTypeInfoEN2v85LocalINS4_5ValueEEE(%"class.blink::V8PerIsolateData"* %69, %"struct.blink::WrapperTypeInfo"* nonnull @_ZN5blink19V8EncodedVideoChunk18wrapper_type_info_E, %"class.v8::Value"* nonnull %1) #9
  br i1 %70, label %71, label %101

71:                                               ; preds = %68
  %72 = bitcast %"class.v8::Value"* %1 to i64*
  %73 = load i64, i64* %72, align 8
  %74 = add i64 %73, -1
  %75 = inttoptr i64 %74 to i32*
  %76 = load i32, i32* %75, align 4
  %77 = and i64 %73, -4294967296
  %78 = zext i32 %76 to i64
  %79 = or i64 %77, %78
  %80 = add i64 %79, 7
  %81 = inttoptr i64 %80 to i16*
  %82 = load i16, i16* %81, align 2
  switch i16 %82, label %87 [
    i16 1057, label %83
    i16 1056, label %83
    i16 1040, label %83
  ]

83:                                               ; preds = %71, %71, %71
  %84 = add i64 %73, 19
  %85 = inttoptr i64 %84 to i8**
  %86 = load i8*, i8** %85, align 1
  br label %90

87:                                               ; preds = %71
  %88 = bitcast %"class.v8::Value"* %1 to %"class.v8::Object"*
  %89 = tail call i8* @_ZN2v86Object38SlowGetAlignedPointerFromInternalFieldEi(%"class.v8::Object"* nonnull %88, i32 1) #9
  br label %90

90:                                               ; preds = %83, %87
  %91 = phi i8* [ %86, %83 ], [ %89, %87 ]
  %92 = getelementptr inbounds %"class.blink::EncodedAudioChunkOrEncodedVideoChunkSequenceOrEncodedAudioChunkOrEncodedVideoChunk", %"class.blink::EncodedAudioChunkOrEncodedVideoChunkSequenceOrEncodedAudioChunkOrEncodedVideoChunk"* %2, i64 0, i32 3
  %93 = ptrtoint i8* %91 to i64
  %94 = bitcast %"class.blink::Member.4"* %92 to i64*
  store atomic i64 %93, i64* %94 monotonic, align 8
  %95 = load atomic i32, i32* getelementptr inbounds (%"class.blink::AtomicEntryFlag", %"class.blink::AtomicEntryFlag"* @_ZN5blink11ThreadState25incremental_marking_flag_E, i64 0, i32 0, i32 0, i32 0, i32 0, i32 0, i32 0) monotonic, align 4
  %96 = icmp eq i32 %95, 0
  br i1 %96, label %99, label %97

97:                                               ; preds = %90
  %98 = tail call zeroext i1 @_ZN5blink14MarkingVisitor16WriteBarrierSlowEPv(i8* %91) #9
  br label %99

99:                                               ; preds = %90, %97
  %100 = getelementptr inbounds %"class.blink::EncodedAudioChunkOrEncodedVideoChunkSequenceOrEncodedAudioChunkOrEncodedVideoChunk", %"class.blink::EncodedAudioChunkOrEncodedVideoChunkSequenceOrEncodedAudioChunkOrEncodedVideoChunk"* %2, i64 0, i32 0
  store i32 3, i32* %100, align 8
  br label %127

101:                                              ; preds = %68
  %102 = tail call zeroext i1 @_ZNK2v85Value8IsObjectEv(%"class.v8::Value"* nonnull %1) #9
  br i1 %102, label %103, label %125

103:                                              ; preds = %101
  %104 = bitcast %"class.blink::ScriptIterator"* %6 to i8*
  call void @llvm.lifetime.start.p0i8(i64 56, i8* nonnull %104) #9
  call void @llvm.memset.p0i8.i64(i8* nonnull align 8 %104, i8 -86, i64 56, i1 false)
  %105 = bitcast %"class.v8::Value"* %1 to %"class.v8::Object"*
  call void @_ZN5blink14ScriptIterator12FromIterableEPN2v87IsolateENS1_5LocalINS1_6ObjectEEERNS_14ExceptionStateE(%"class.blink::ScriptIterator"* nonnull sret %6, %"class.v8::Isolate"* %0, %"class.v8::Object"* nonnull %105, %"class.blink::ExceptionState"* dereferenceable(72) %4) #9
  %106 = getelementptr inbounds %"class.blink::ExceptionState", %"class.blink::ExceptionState"* %4, i64 0, i32 4
  %107 = load i32, i32* %106, align 8
  %108 = icmp eq i32 %107, 0
  br i1 %108, label %109, label %126

109:                                              ; preds = %103
  %110 = getelementptr inbounds %"class.blink::ScriptIterator", %"class.blink::ScriptIterator"* %6, i64 0, i32 1, i32 0
  %111 = load %"class.v8::Object"*, %"class.v8::Object"** %110, align 8
  %112 = icmp eq %"class.v8::Object"* %111, null
  br i1 %112, label %124, label %113

113:                                              ; preds = %109
  %114 = bitcast %"class.blink::HeapVector"* %7 to i8*
  call void @llvm.lifetime.start.p0i8(i64 16, i8* nonnull %114) #9
  %115 = bitcast %"class.blink::HeapVector"* %7 to i8*
  call void @llvm.memset.p0i8.i64(i8* nonnull align 8 %115, i8 -86, i64 16, i1 false)
  call void @_ZN5blink8bindings29CreateIDLSequenceFromIteratorINS_36EncodedAudioChunkOrEncodedVideoChunkEEENS_17NativeValueTraitsINS_11IDLSequenceIT_EEvE8ImplTypeEPN2v87IsolateENS_14ScriptIteratorERNS_14ExceptionStateE(%"class.blink::HeapVector"* nonnull sret %7, %"class.v8::Isolate"* %0, %"class.blink::ScriptIterator"* nonnull byval(%"class.blink::ScriptIterator") align 8 %6, %"class.blink::ExceptionState"* dereferenceable(72) %4) #9
  %116 = load i32, i32* %106, align 8
  %117 = icmp eq i32 %116, 0
  br i1 %117, label %118, label %123

118:                                              ; preds = %113
  %119 = getelementptr inbounds %"class.blink::EncodedAudioChunkOrEncodedVideoChunkSequenceOrEncodedAudioChunkOrEncodedVideoChunk", %"class.blink::EncodedAudioChunkOrEncodedVideoChunkSequenceOrEncodedAudioChunkOrEncodedVideoChunk"* %2, i64 0, i32 2, i32 0
  %120 = getelementptr inbounds %"class.blink::HeapVector", %"class.blink::HeapVector"* %7, i64 0, i32 0
  %121 = call dereferenceable(16) %"class.WTF::Vector"* @_ZN3WTF6VectorIN5blink36EncodedAudioChunkOrEncodedVideoChunkELj0ENS1_13HeapAllocatorEEaSERKS4_(%"class.WTF::Vector"* %119, %"class.WTF::Vector"* nonnull dereferenceable(16) %120) #9
  %122 = getelementptr inbounds %"class.blink::EncodedAudioChunkOrEncodedVideoChunkSequenceOrEncodedAudioChunkOrEncodedVideoChunk", %"class.blink::EncodedAudioChunkOrEncodedVideoChunkSequenceOrEncodedAudioChunkOrEncodedVideoChunk"* %2, i64 0, i32 0
  store i32 2, i32* %122, align 8
  br label %123

123:                                              ; preds = %113, %118
  call void @llvm.lifetime.end.p0i8(i64 16, i8* nonnull %114) #9
  call void @llvm.lifetime.end.p0i8(i64 56, i8* nonnull %104) #9
  br label %127

124:                                              ; preds = %109
  call void @llvm.lifetime.end.p0i8(i64 56, i8* nonnull %104) #9
  br label %125

125:                                              ; preds = %124, %101
  call void @_ZN5blink14ExceptionState14ThrowTypeErrorEPKc(%"class.blink::ExceptionState"* %4, i8* getelementptr inbounds ([131 x i8], [131 x i8]* @.str, i64 0, i64 0)) #9
  br label %127

126:                                              ; preds = %103
  call void @llvm.lifetime.end.p0i8(i64 56, i8* nonnull %104) #9
  br label %127

127:                                              ; preds = %27, %27, %126, %123, %5, %125, %99, %66
  ret void
}

; Function Attrs: argmemonly nounwind
declare void @llvm.lifetime.start.p0i8(i64 immarg, i8* nocapture) #2

; Function Attrs: argmemonly nounwind
declare void @llvm.lifetime.end.p0i8(i64 immarg, i8* nocapture) #2

declare zeroext i1 @_ZNK2v85Value8IsObjectEv(%"class.v8::Value"*) local_unnamed_addr #4

declare void @_ZN5blink14ScriptIterator12FromIterableEPN2v87IsolateENS1_5LocalINS1_6ObjectEEERNS_14ExceptionStateE(%"class.blink::ScriptIterator"* sret, %"class.v8::Isolate"*, %"class.v8::Object"*, %"class.blink::ExceptionState"* dereferenceable(72)) local_unnamed_addr #4

declare void @_ZN5blink14ExceptionState14ThrowTypeErrorEPKc(%"class.blink::ExceptionState"*, i8*) local_unnamed_addr #4

; Function Attrs: nounwind ssp uwtable
define hidden %"class.v8::Value"* @_ZN5blink4ToV8ERKNS_82EncodedAudioChunkOrEncodedVideoChunkSequenceOrEncodedAudioChunkOrEncodedVideoChunkEN2v85LocalINS3_6ObjectEEEPNS3_7IsolateE(%"class.blink::EncodedAudioChunkOrEncodedVideoChunkSequenceOrEncodedAudioChunkOrEncodedVideoChunk"* dereferenceable(40), %"class.v8::Object"*, %"class.v8::Isolate"*) local_unnamed_addr #0 {
  %4 = getelementptr inbounds %"class.blink::EncodedAudioChunkOrEncodedVideoChunkSequenceOrEncodedAudioChunkOrEncodedVideoChunk", %"class.blink::EncodedAudioChunkOrEncodedVideoChunkSequenceOrEncodedAudioChunkOrEncodedVideoChunk"* %0, i64 0, i32 0
  %5 = load i32, i32* %4, align 8
  switch i32 %5, label %68 [
    i32 0, label %6
    i32 1, label %10
    i32 2, label %37
    i32 3, label %41
  ]

6:                                                ; preds = %3
  %7 = ptrtoint %"class.v8::Isolate"* %2 to i64
  %8 = add i64 %7, 176
  %9 = inttoptr i64 %8 to %"class.v8::Value"*
  br label %68

10:                                               ; preds = %3
  %11 = getelementptr inbounds %"class.blink::EncodedAudioChunkOrEncodedVideoChunkSequenceOrEncodedAudioChunkOrEncodedVideoChunk", %"class.blink::EncodedAudioChunkOrEncodedVideoChunkSequenceOrEncodedAudioChunkOrEncodedVideoChunk"* %0, i64 0, i32 1, i32 0, i32 0
  %12 = load %"class.blink::EncodedAudioChunk"*, %"class.blink::EncodedAudioChunk"** %11, align 8
  %13 = getelementptr inbounds %"class.blink::EncodedAudioChunk", %"class.blink::EncodedAudioChunk"* %12, i64 0, i32 0
  %14 = icmp eq %"class.blink::EncodedAudioChunk"* %12, null
  br i1 %14, label %15, label %18, !prof !2

15:                                               ; preds = %10
  %16 = ptrtoint %"class.v8::Isolate"* %2 to i64
  %17 = add i64 %16, 176
  br label %34

18:                                               ; preds = %10
  %19 = tail call %"class.v8::Object"* @_ZN5blink12DOMDataStore10GetWrapperEPNS_15ScriptWrappableEPN2v87IsolateE(%"class.blink::ScriptWrappable"* nonnull %13, %"class.v8::Isolate"* %2) #9
  %20 = ptrtoint %"class.v8::Object"* %19 to i64
  %21 = icmp eq %"class.v8::Object"* %19, null
  br i1 %21, label %22, label %34

22:                                               ; preds = %18
  %23 = tail call %"class.v8::Context"* @_ZN2v86Object15CreationContextEv(%"class.v8::Object"* %1) #9
  %24 = tail call %"class.blink::ScriptState"* @_ZN5blink11ScriptState4FromEN2v85LocalINS1_7ContextEEE(%"class.v8::Context"* %23) #9
  %25 = bitcast %"class.blink::EncodedAudioChunk"* %12 to %"class.v8::Value"* (%"class.blink::ScriptWrappable"*, %"class.blink::ScriptState"*)***
  %26 = load %"class.v8::Value"* (%"class.blink::ScriptWrappable"*, %"class.blink::ScriptState"*)**, %"class.v8::Value"* (%"class.blink::ScriptWrappable"*, %"class.blink::ScriptState"*)*** %25, align 8
  %27 = getelementptr inbounds %"class.v8::Value"* (%"class.blink::ScriptWrappable"*, %"class.blink::ScriptState"*)*, %"class.v8::Value"* (%"class.blink::ScriptWrappable"*, %"class.blink::ScriptState"*)** %26, i64 7
  %28 = load %"class.v8::Value"* (%"class.blink::ScriptWrappable"*, %"class.blink::ScriptState"*)*, %"class.v8::Value"* (%"class.blink::ScriptWrappable"*, %"class.blink::ScriptState"*)** %27, align 8
  %29 = tail call %"class.v8::Value"* %28(%"class.blink::ScriptWrappable"* nonnull %13, %"class.blink::ScriptState"* %24) #9
  %30 = icmp eq %"class.v8::Value"* %29, null
  br i1 %30, label %31, label %32, !prof !2

31:                                               ; preds = %22
  tail call void @_ZN2v82V812ToLocalEmptyEv() #9
  br label %32

32:                                               ; preds = %31, %22
  %33 = ptrtoint %"class.v8::Value"* %29 to i64
  br label %34

34:                                               ; preds = %15, %18, %32
  %35 = phi i64 [ %17, %15 ], [ %33, %32 ], [ %20, %18 ]
  %36 = inttoptr i64 %35 to %"class.v8::Value"*
  br label %68

37:                                               ; preds = %3
  %38 = getelementptr inbounds %"class.blink::EncodedAudioChunkOrEncodedVideoChunkSequenceOrEncodedAudioChunkOrEncodedVideoChunk", %"class.blink::EncodedAudioChunkOrEncodedVideoChunkSequenceOrEncodedAudioChunkOrEncodedVideoChunk"* %0, i64 0, i32 2
  %39 = tail call %"class.v8::Array"* @_ZN5blink20ToV8SequenceInternalINS_10HeapVectorINS_36EncodedAudioChunkOrEncodedVideoChunkELj0EEEEEN2v85LocalINS4_5ArrayEEERKT_NS5_INS4_6ObjectEEEPNS4_7IsolateE(%"class.blink::HeapVector"* dereferenceable(16) %38, %"class.v8::Object"* %1, %"class.v8::Isolate"* %2) #9
  %40 = bitcast %"class.v8::Array"* %39 to %"class.v8::Value"*
  br label %68

41:                                               ; preds = %3
  %42 = getelementptr inbounds %"class.blink::EncodedAudioChunkOrEncodedVideoChunkSequenceOrEncodedAudioChunkOrEncodedVideoChunk", %"class.blink::EncodedAudioChunkOrEncodedVideoChunkSequenceOrEncodedAudioChunkOrEncodedVideoChunk"* %0, i64 0, i32 3, i32 0, i32 0
  %43 = load %"class.blink::EncodedVideoChunk"*, %"class.blink::EncodedVideoChunk"** %42, align 8
  %44 = getelementptr inbounds %"class.blink::EncodedVideoChunk", %"class.blink::EncodedVideoChunk"* %43, i64 0, i32 0
  %45 = icmp eq %"class.blink::EncodedVideoChunk"* %43, null
  br i1 %45, label %46, label %49, !prof !2

46:                                               ; preds = %41
  %47 = ptrtoint %"class.v8::Isolate"* %2 to i64
  %48 = add i64 %47, 176
  br label %65

49:                                               ; preds = %41
  %50 = tail call %"class.v8::Object"* @_ZN5blink12DOMDataStore10GetWrapperEPNS_15ScriptWrappableEPN2v87IsolateE(%"class.blink::ScriptWrappable"* nonnull %44, %"class.v8::Isolate"* %2) #9
  %51 = ptrtoint %"class.v8::Object"* %50 to i64
  %52 = icmp eq %"class.v8::Object"* %50, null
  br i1 %52, label %53, label %65

53:                                               ; preds = %49
  %54 = tail call %"class.v8::Context"* @_ZN2v86Object15CreationContextEv(%"class.v8::Object"* %1) #9
  %55 = tail call %"class.blink::ScriptState"* @_ZN5blink11ScriptState4FromEN2v85LocalINS1_7ContextEEE(%"class.v8::Context"* %54) #9
  %56 = bitcast %"class.blink::EncodedVideoChunk"* %43 to %"class.v8::Value"* (%"class.blink::ScriptWrappable"*, %"class.blink::ScriptState"*)***
  %57 = load %"class.v8::Value"* (%"class.blink::ScriptWrappable"*, %"class.blink::ScriptState"*)**, %"class.v8::Value"* (%"class.blink::ScriptWrappable"*, %"class.blink::ScriptState"*)*** %56, align 8
  %58 = getelementptr inbounds %"class.v8::Value"* (%"class.blink::ScriptWrappable"*, %"class.blink::ScriptState"*)*, %"class.v8::Value"* (%"class.blink::ScriptWrappable"*, %"class.blink::ScriptState"*)** %57, i64 7
  %59 = load %"class.v8::Value"* (%"class.blink::ScriptWrappable"*, %"class.blink::ScriptState"*)*, %"class.v8::Value"* (%"class.blink::ScriptWrappable"*, %"class.blink::ScriptState"*)** %58, align 8
  %60 = tail call %"class.v8::Value"* %59(%"class.blink::ScriptWrappable"* nonnull %44, %"class.blink::ScriptState"* %55) #9
  %61 = icmp eq %"class.v8::Value"* %60, null
  br i1 %61, label %62, label %63, !prof !2

62:                                               ; preds = %53
  tail call void @_ZN2v82V812ToLocalEmptyEv() #9
  br label %63

63:                                               ; preds = %62, %53
  %64 = ptrtoint %"class.v8::Value"* %60 to i64
  br label %65

65:                                               ; preds = %46, %49, %63
  %66 = phi i64 [ %48, %46 ], [ %64, %63 ], [ %51, %49 ]
  %67 = inttoptr i64 %66 to %"class.v8::Value"*
  br label %68

68:                                               ; preds = %3, %65, %37, %34, %6
  %69 = phi %"class.v8::Value"* [ %67, %65 ], [ %40, %37 ], [ %36, %34 ], [ %9, %6 ], [ null, %3 ]
  ret %"class.v8::Value"* %69
}

; Function Attrs: nounwind ssp uwtable
define hidden void @_ZN5blink17NativeValueTraitsINS_82EncodedAudioChunkOrEncodedVideoChunkSequenceOrEncodedAudioChunkOrEncodedVideoChunkEvE11NativeValueEPN2v87IsolateENS3_5LocalINS3_5ValueEEERNS_14ExceptionStateE(%"class.blink::EncodedAudioChunkOrEncodedVideoChunkSequenceOrEncodedAudioChunkOrEncodedVideoChunk"* noalias sret, %"class.v8::Isolate"*, %"class.v8::Value"*, %"class.blink::ExceptionState"* dereferenceable(72)) local_unnamed_addr #0 align 2 {
  %5 = bitcast %"class.blink::EncodedAudioChunkOrEncodedVideoChunkSequenceOrEncodedAudioChunkOrEncodedVideoChunk"* %0 to i64*
  store i64 -6148914691236517206, i64* %5, align 8
  %6 = getelementptr inbounds %"class.blink::EncodedAudioChunkOrEncodedVideoChunkSequenceOrEncodedAudioChunkOrEncodedVideoChunk", %"class.blink::EncodedAudioChunkOrEncodedVideoChunkSequenceOrEncodedAudioChunkOrEncodedVideoChunk"* %0, i64 0, i32 0
  store i32 0, i32* %6, align 8
  %7 = getelementptr inbounds %"class.blink::EncodedAudioChunkOrEncodedVideoChunkSequenceOrEncodedAudioChunkOrEncodedVideoChunk", %"class.blink::EncodedAudioChunkOrEncodedVideoChunkSequenceOrEncodedAudioChunkOrEncodedVideoChunk"* %0, i64 0, i32 1, i32 0, i32 0
  %8 = bitcast %"class.blink::EncodedAudioChunk"** %7 to i8*
  tail call void @llvm.memset.p0i8.i64(i8* align 8 %8, i8 0, i64 32, i1 false) #9
  tail call void @_ZN5blink84V8EncodedAudioChunkOrEncodedVideoChunkSequenceOrEncodedAudioChunkOrEncodedVideoChunk6ToImplEPN2v87IsolateENS1_5LocalINS1_5ValueEEERNS_82EncodedAudioChunkOrEncodedVideoChunkSequenceOrEncodedAudioChunkOrEncodedVideoChunkENS_23UnionTypeConversionModeERNS_14ExceptionStateE(%"class.v8::Isolate"* %1, %"class.v8::Value"* %2, %"class.blink::EncodedAudioChunkOrEncodedVideoChunkSequenceOrEncodedAudioChunkOrEncodedVideoChunk"* dereferenceable(40) %0, i32 1, %"class.blink::ExceptionState"* dereferenceable(72) %3)
  ret void
}

; Function Attrs: nounwind ssp uwtable
define linkonce_odr hidden %"class.v8::Object"* @_ZN5blink12DOMDataStore10GetWrapperEPNS_15ScriptWrappableEPN2v87IsolateE(%"class.blink::ScriptWrappable"*, %"class.v8::Isolate"*) local_unnamed_addr #0 comdat align 2 {
  %3 = alloca i64, align 8
  %4 = bitcast i64* %3 to i8*
  call void @llvm.lifetime.start.p0i8(i64 8, i8* nonnull %4) #9
  %5 = load i64, i64* @_ZN3WTF8internal25g_main_thread_stack_startE, align 8
  %6 = ptrtoint i64* %3 to i64
  %7 = sub i64 %5, %6
  %8 = load i64, i64* @_ZN3WTF8internal39g_main_thread_underestimated_stack_sizeE, align 8
  %9 = icmp ult i64 %7, %8
  call void @llvm.lifetime.end.p0i8(i64 8, i8* nonnull %4) #9
  %10 = load i32, i32* @_ZN5blink15DOMWrapperWorld41number_of_non_main_worlds_in_main_thread_E, align 4
  %11 = icmp eq i32 %10, 0
  %12 = and i1 %9, %11
  br i1 %12, label %13, label %24

13:                                               ; preds = %2
  %14 = getelementptr inbounds %"class.blink::ScriptWrappable", %"class.blink::ScriptWrappable"* %0, i64 0, i32 1
  %15 = bitcast %"class.blink::TraceWrapperV8Reference"* %14 to %"class.v8::Object"**
  %16 = load %"class.v8::Object"*, %"class.v8::Object"** %15, align 8
  %17 = icmp eq %"class.v8::Object"* %16, null
  br i1 %17, label %68, label %18

18:                                               ; preds = %13
  %19 = bitcast %"class.v8::Object"* %16 to i64*
  %20 = bitcast %"class.v8::Isolate"* %1 to %"class.v8::internal::Isolate"*
  %21 = load i64, i64* %19, align 8
  %22 = call i64* @_ZN2v811HandleScope12CreateHandleEPNS_8internal7IsolateEm(%"class.v8::internal::Isolate"* %20, i64 %21) #9
  %23 = bitcast i64* %22 to %"class.v8::Object"*
  br label %68

24:                                               ; preds = %2
  %25 = call %"class.v8::Context"* @_ZN2v87Isolate17GetCurrentContextEv(%"class.v8::Isolate"* %1) #9
  %26 = call %"class.blink::ScriptState"* @_ZN5blink11ScriptState4FromEN2v85LocalINS1_7ContextEEE(%"class.v8::Context"* %25) #9
  %27 = getelementptr inbounds %"class.blink::ScriptState", %"class.blink::ScriptState"* %26, i64 0, i32 2, i32 0
  %28 = load %"class.blink::DOMWrapperWorld"*, %"class.blink::DOMWrapperWorld"** %27, align 8
  %29 = getelementptr inbounds %"class.blink::DOMWrapperWorld", %"class.blink::DOMWrapperWorld"* %28, i64 0, i32 3, i32 0, i32 0
  %30 = load %"class.blink::DOMDataStore"*, %"class.blink::DOMDataStore"** %29, align 8
  %31 = getelementptr inbounds %"class.blink::DOMDataStore", %"class.blink::DOMDataStore"* %30, i64 0, i32 1
  %32 = load i8, i8* %31, align 8, !range !3
  %33 = icmp eq i8 %32, 0
  br i1 %33, label %45, label %34

34:                                               ; preds = %24
  %35 = getelementptr inbounds %"class.blink::ScriptWrappable", %"class.blink::ScriptWrappable"* %0, i64 0, i32 1
  %36 = bitcast %"class.blink::TraceWrapperV8Reference"* %35 to %"class.v8::Object"**
  %37 = load %"class.v8::Object"*, %"class.v8::Object"** %36, align 8
  %38 = icmp eq %"class.v8::Object"* %37, null
  br i1 %38, label %68, label %39

39:                                               ; preds = %34
  %40 = bitcast %"class.v8::Object"* %37 to i64*
  %41 = bitcast %"class.v8::Isolate"* %1 to %"class.v8::internal::Isolate"*
  %42 = load i64, i64* %40, align 8
  %43 = call i64* @_ZN2v811HandleScope12CreateHandleEPNS_8internal7IsolateEm(%"class.v8::internal::Isolate"* %41, i64 %42) #9
  %44 = bitcast i64* %43 to %"class.v8::Object"*
  br label %68

45:                                               ; preds = %24
  %46 = getelementptr inbounds %"class.blink::DOMDataStore", %"class.blink::DOMDataStore"* %30, i64 0, i32 3, i32 0
  %47 = getelementptr inbounds %"class.WTF::HashMap", %"class.WTF::HashMap"* %46, i64 0, i32 0
  %48 = call { %"struct.WTF::KeyValuePair"*, %"struct.WTF::KeyValuePair"* } @_ZN3WTF9HashTableIN5blink10WeakMemberIKNS1_15ScriptWrappableEEENS_12KeyValuePairIS5_NS1_23TraceWrapperV8ReferenceIN2v86ObjectEEEEENS_24KeyValuePairKeyExtractorENS_10MemberHashIS4_EENS_18HashMapValueTraitsINS_10HashTraitsIS5_EENSG_ISA_EEEESH_NS1_13HeapAllocatorEE4findEPS4_(%"class.WTF::HashTable"* %47, %"class.blink::ScriptWrappable"* %0) #9
  %49 = extractvalue { %"struct.WTF::KeyValuePair"*, %"struct.WTF::KeyValuePair"* } %48, 0
  %50 = getelementptr inbounds %"class.WTF::HashMap", %"class.WTF::HashMap"* %46, i64 0, i32 0, i32 0
  %51 = load %"struct.WTF::KeyValuePair"*, %"struct.WTF::KeyValuePair"** %50, align 8
  %52 = getelementptr inbounds %"class.blink::DOMDataStore", %"class.blink::DOMDataStore"* %30, i64 0, i32 3, i32 0, i32 0, i32 1
  %53 = load i32, i32* %52, align 8
  %54 = zext i32 %53 to i64
  %55 = getelementptr inbounds %"struct.WTF::KeyValuePair", %"struct.WTF::KeyValuePair"* %51, i64 %54
  %56 = icmp eq %"struct.WTF::KeyValuePair"* %49, %55
  br i1 %56, label %68, label %57

57:                                               ; preds = %45
  %58 = getelementptr inbounds %"struct.WTF::KeyValuePair", %"struct.WTF::KeyValuePair"* %49, i64 0, i32 1
  %59 = bitcast %"class.blink::TraceWrapperV8Reference"* %58 to %"class.v8::Object"**
  %60 = load %"class.v8::Object"*, %"class.v8::Object"** %59, align 8
  %61 = icmp eq %"class.v8::Object"* %60, null
  br i1 %61, label %68, label %62

62:                                               ; preds = %57
  %63 = bitcast %"class.v8::Object"* %60 to i64*
  %64 = bitcast %"class.v8::Isolate"* %1 to %"class.v8::internal::Isolate"*
  %65 = load i64, i64* %63, align 8
  %66 = call i64* @_ZN2v811HandleScope12CreateHandleEPNS_8internal7IsolateEm(%"class.v8::internal::Isolate"* %64, i64 %65) #9
  %67 = bitcast i64* %66 to %"class.v8::Object"*
  br label %68

68:                                               ; preds = %62, %57, %45, %39, %34, %18, %13
  %69 = phi %"class.v8::Object"* [ %23, %18 ], [ null, %13 ], [ %44, %39 ], [ null, %34 ], [ %67, %62 ], [ null, %57 ], [ null, %45 ]
  ret %"class.v8::Object"* %69
}

; Function Attrs: nounwind ssp uwtable
define linkonce_odr hidden %"class.blink::ScriptState"* @_ZN5blink11ScriptState4FromEN2v85LocalINS1_7ContextEEE(%"class.v8::Context"*) local_unnamed_addr #0 comdat align 2 {
  %2 = alloca %"class.logging::CheckError", align 8
  %3 = alloca %"class.logging::CheckError", align 8
  %4 = bitcast %"class.v8::Context"* %0 to i64*
  %5 = load i64, i64* %4, align 8
  %6 = add i64 %5, 23
  %7 = inttoptr i64 %6 to i32*
  %8 = load i32, i32* %7, align 4
  %9 = and i64 %5, -4294967296
  %10 = zext i32 %8 to i64
  %11 = or i64 %9, %10
  %12 = add i64 %11, 23
  %13 = inttoptr i64 %12 to i8**
  %14 = load i8*, i8** %13, align 1
  %15 = bitcast i8* %14 to %"class.blink::ScriptState"*
  %16 = icmp eq i8* %14, null
  br i1 %16, label %17, label %20

17:                                               ; preds = %1
  %18 = bitcast %"class.logging::CheckError"* %2 to i8*
  call void @llvm.lifetime.start.p0i8(i64 8, i8* nonnull %18) #9
  call void @_ZN7logging10CheckError5CheckEPKciS2_(%"class.logging::CheckError"* nonnull sret %2, i8* getelementptr inbounds ([66 x i8], [66 x i8]* @.str.1, i64 0, i64 0), i32 175, i8* getelementptr inbounds ([13 x i8], [13 x i8]* @.str.2, i64 0, i64 0)) #9
  %19 = call dereferenceable(160) %"class.std::__1::basic_ostream"* @_ZN7logging10CheckError6streamEv(%"class.logging::CheckError"* nonnull %2) #9
  call void @_ZN7logging10CheckErrorD1Ev(%"class.logging::CheckError"* nonnull %2) #9
  call void @llvm.lifetime.end.p0i8(i64 8, i8* nonnull %18) #9
  br label %20

20:                                               ; preds = %1, %17
  %21 = getelementptr inbounds i8, i8* %14, i64 8
  %22 = bitcast i8* %21 to i64**
  %23 = load i64*, i64** %22, align 8
  %24 = icmp eq i64* %23, null
  %25 = icmp eq %"class.v8::Context"* %0, null
  %26 = or i1 %25, %24
  br i1 %26, label %31, label %27

27:                                               ; preds = %20
  %28 = load i64, i64* %23, align 8
  %29 = load i64, i64* %4, align 8
  %30 = icmp eq i64 %28, %29
  br i1 %30, label %36, label %33

31:                                               ; preds = %20
  %32 = and i1 %25, %24
  br i1 %32, label %36, label %33

33:                                               ; preds = %27, %31
  %34 = bitcast %"class.logging::CheckError"* %3 to i8*
  call void @llvm.lifetime.start.p0i8(i64 8, i8* nonnull %34) #9
  call void @_ZN7logging10CheckError5CheckEPKciS2_(%"class.logging::CheckError"* nonnull sret %3, i8* getelementptr inbounds ([66 x i8], [66 x i8]* @.str.1, i64 0, i64 0), i32 176, i8* getelementptr inbounds ([34 x i8], [34 x i8]* @.str.3, i64 0, i64 0)) #9
  %35 = call dereferenceable(160) %"class.std::__1::basic_ostream"* @_ZN7logging10CheckError6streamEv(%"class.logging::CheckError"* nonnull %3) #9
  call void @_ZN7logging10CheckErrorD1Ev(%"class.logging::CheckError"* nonnull %3) #9
  call void @llvm.lifetime.end.p0i8(i64 8, i8* nonnull %34) #9
  br label %36

36:                                               ; preds = %27, %31, %33
  ret %"class.blink::ScriptState"* %15
}

declare %"class.v8::Context"* @_ZN2v86Object15CreationContextEv(%"class.v8::Object"*) local_unnamed_addr #4

declare i64* @_ZN2v811HandleScope12CreateHandleEPNS_8internal7IsolateEm(%"class.v8::internal::Isolate"*, i64) local_unnamed_addr #4

declare %"class.v8::Context"* @_ZN2v87Isolate17GetCurrentContextEv(%"class.v8::Isolate"*) local_unnamed_addr #4

; Function Attrs: nounwind ssp uwtable
define linkonce_odr hidden { %"struct.WTF::KeyValuePair"*, %"struct.WTF::KeyValuePair"* } @_ZN3WTF9HashTableIN5blink10WeakMemberIKNS1_15ScriptWrappableEEENS_12KeyValuePairIS5_NS1_23TraceWrapperV8ReferenceIN2v86ObjectEEEEENS_24KeyValuePairKeyExtractorENS_10MemberHashIS4_EENS_18HashMapValueTraitsINS_10HashTraitsIS5_EENSG_ISA_EEEESH_NS1_13HeapAllocatorEE4findEPS4_(%"class.WTF::HashTable"*, %"class.blink::ScriptWrappable"*) local_unnamed_addr #0 comdat align 2 {
  %3 = ptrtoint %"class.blink::ScriptWrappable"* %1 to i64
  %4 = getelementptr inbounds %"class.WTF::HashTable", %"class.WTF::HashTable"* %0, i64 0, i32 0
  %5 = load %"struct.WTF::KeyValuePair"*, %"struct.WTF::KeyValuePair"** %4, align 8
  %6 = icmp eq %"struct.WTF::KeyValuePair"* %5, null
  %7 = getelementptr inbounds %"class.WTF::HashTable", %"class.WTF::HashTable"* %0, i64 0, i32 1
  %8 = load i32, i32* %7, align 8
  br i1 %6, label %69, label %9

9:                                                ; preds = %2
  %10 = add i32 %8, -1
  %11 = zext i32 %10 to i64
  %12 = shl i64 %3, 32
  %13 = xor i64 %12, -1
  %14 = add i64 %13, %3
  %15 = lshr i64 %14, 22
  %16 = xor i64 %15, %14
  %17 = shl i64 %16, 13
  %18 = xor i64 %17, -1
  %19 = add i64 %16, %18
  %20 = lshr i64 %19, 8
  %21 = xor i64 %20, %19
  %22 = mul i64 %21, 9
  %23 = lshr i64 %22, 15
  %24 = xor i64 %23, %22
  %25 = shl i64 %24, 27
  %26 = xor i64 %25, -1
  %27 = add i64 %24, %26
  %28 = lshr i64 %27, 31
  %29 = xor i64 %28, %27
  %30 = trunc i64 %29 to i32
  %31 = and i32 %10, %30
  %32 = zext i32 %31 to i64
  %33 = getelementptr inbounds %"struct.WTF::KeyValuePair", %"struct.WTF::KeyValuePair"* %5, i64 %32
  %34 = getelementptr inbounds %"struct.WTF::KeyValuePair", %"struct.WTF::KeyValuePair"* %33, i64 0, i32 0, i32 0, i32 0
  %35 = load %"class.blink::ScriptWrappable"*, %"class.blink::ScriptWrappable"** %34, align 8
  %36 = icmp eq %"class.blink::ScriptWrappable"* %35, %1
  br i1 %36, label %66, label %37

37:                                               ; preds = %9
  %38 = xor i32 %30, -1
  %39 = lshr i32 %30, 23
  %40 = add i32 %39, %38
  %41 = shl i32 %40, 12
  %42 = xor i32 %41, %40
  %43 = lshr i32 %42, 7
  %44 = xor i32 %43, %42
  %45 = shl i32 %44, 2
  %46 = xor i32 %45, %44
  %47 = lshr i32 %46, 20
  %48 = xor i32 %47, %46
  %49 = or i32 %48, 1
  %50 = zext i32 %49 to i64
  br label %51

51:                                               ; preds = %57, %37
  %52 = phi i64 [ %32, %37 ], [ %61, %57 ]
  %53 = phi i64 [ 0, %37 ], [ %59, %57 ]
  %54 = getelementptr inbounds %"struct.WTF::KeyValuePair", %"struct.WTF::KeyValuePair"* %5, i64 %52, i32 0, i32 0, i32 0
  %55 = load %"class.blink::ScriptWrappable"*, %"class.blink::ScriptWrappable"** %54, align 8
  %56 = icmp eq %"class.blink::ScriptWrappable"* %55, null
  br i1 %56, label %69, label %57

57:                                               ; preds = %51
  %58 = icmp eq i64 %53, 0
  %59 = select i1 %58, i64 %50, i64 %53
  %60 = add i64 %59, %52
  %61 = and i64 %60, %11
  %62 = getelementptr inbounds %"struct.WTF::KeyValuePair", %"struct.WTF::KeyValuePair"* %5, i64 %61
  %63 = getelementptr inbounds %"struct.WTF::KeyValuePair", %"struct.WTF::KeyValuePair"* %62, i64 0, i32 0, i32 0, i32 0
  %64 = load %"class.blink::ScriptWrappable"*, %"class.blink::ScriptWrappable"** %63, align 8
  %65 = icmp eq %"class.blink::ScriptWrappable"* %64, %1
  br i1 %65, label %66, label %51

66:                                               ; preds = %57, %9
  %67 = phi %"struct.WTF::KeyValuePair"* [ %33, %9 ], [ %62, %57 ]
  %68 = icmp eq %"struct.WTF::KeyValuePair"* %67, null
  br i1 %68, label %69, label %72

69:                                               ; preds = %51, %66, %2
  %70 = zext i32 %8 to i64
  %71 = getelementptr inbounds %"struct.WTF::KeyValuePair", %"struct.WTF::KeyValuePair"* %5, i64 %70
  br label %75

72:                                               ; preds = %66
  %73 = zext i32 %8 to i64
  %74 = getelementptr inbounds %"struct.WTF::KeyValuePair", %"struct.WTF::KeyValuePair"* %5, i64 %73
  br label %75

75:                                               ; preds = %69, %72
  %76 = phi %"struct.WTF::KeyValuePair"* [ %67, %72 ], [ %71, %69 ]
  %77 = phi %"struct.WTF::KeyValuePair"* [ %74, %72 ], [ %71, %69 ]
  %78 = insertvalue { %"struct.WTF::KeyValuePair"*, %"struct.WTF::KeyValuePair"* } undef, %"struct.WTF::KeyValuePair"* %76, 0
  %79 = insertvalue { %"struct.WTF::KeyValuePair"*, %"struct.WTF::KeyValuePair"* } %78, %"struct.WTF::KeyValuePair"* %77, 1
  ret { %"struct.WTF::KeyValuePair"*, %"struct.WTF::KeyValuePair"* } %79
}

declare void @_ZN7logging10CheckError5CheckEPKciS2_(%"class.logging::CheckError"* sret, i8*, i32, i8*) local_unnamed_addr #4

declare dereferenceable(160) %"class.std::__1::basic_ostream"* @_ZN7logging10CheckError6streamEv(%"class.logging::CheckError"*) local_unnamed_addr #4

; Function Attrs: nounwind
declare void @_ZN7logging10CheckErrorD1Ev(%"class.logging::CheckError"*) unnamed_addr #5

declare void @_ZN2v82V812ToLocalEmptyEv() local_unnamed_addr #4

declare zeroext i1 @_ZN5blink14MarkingVisitor16WriteBarrierSlowEPv(i8*) local_unnamed_addr #4

; Function Attrs: nounwind ssp uwtable
define linkonce_odr hidden dereferenceable(16) %"class.WTF::Vector"* @_ZN3WTF6VectorIN5blink36EncodedAudioChunkOrEncodedVideoChunkELj0ENS1_13HeapAllocatorEEaSERKS4_(%"class.WTF::Vector"*, %"class.WTF::Vector"* dereferenceable(16)) local_unnamed_addr #0 comdat align 2 {
  %3 = icmp eq %"class.WTF::Vector"* %1, %0
  br i1 %3, label %108, label %4, !prof !2

4:                                                ; preds = %2
  %5 = getelementptr inbounds %"class.WTF::Vector", %"class.WTF::Vector"* %0, i64 0, i32 0, i32 0, i32 2
  %6 = load i32, i32* %5, align 4
  %7 = getelementptr inbounds %"class.WTF::Vector", %"class.WTF::Vector"* %1, i64 0, i32 0, i32 0, i32 2
  %8 = load i32, i32* %7, align 4
  %9 = icmp ugt i32 %6, %8
  br i1 %9, label %10, label %31

10:                                               ; preds = %4
  %11 = getelementptr inbounds %"class.WTF::Vector", %"class.WTF::Vector"* %0, i64 0, i32 0, i32 0, i32 0
  %12 = load %"class.blink::EncodedAudioChunkOrEncodedVideoChunk"*, %"class.blink::EncodedAudioChunkOrEncodedVideoChunk"** %11, align 8
  %13 = zext i32 %8 to i64
  %14 = zext i32 %6 to i64
  %15 = getelementptr inbounds %"class.blink::EncodedAudioChunkOrEncodedVideoChunk", %"class.blink::EncodedAudioChunkOrEncodedVideoChunk"* %12, i64 %14
  %16 = getelementptr inbounds %"class.blink::EncodedAudioChunkOrEncodedVideoChunk", %"class.blink::EncodedAudioChunkOrEncodedVideoChunk"* %12, i64 %13
  br label %17

17:                                               ; preds = %17, %10
  %18 = phi %"class.blink::EncodedAudioChunkOrEncodedVideoChunk"* [ %19, %17 ], [ %16, %10 ]
  tail call void @_ZN5blink36EncodedAudioChunkOrEncodedVideoChunkD1Ev(%"class.blink::EncodedAudioChunkOrEncodedVideoChunk"* %18) #9
  %19 = getelementptr inbounds %"class.blink::EncodedAudioChunkOrEncodedVideoChunk", %"class.blink::EncodedAudioChunkOrEncodedVideoChunk"* %18, i64 1
  %20 = icmp eq %"class.blink::EncodedAudioChunkOrEncodedVideoChunk"* %19, %15
  br i1 %20, label %21, label %17

21:                                               ; preds = %17
  %22 = load %"class.blink::EncodedAudioChunkOrEncodedVideoChunk"*, %"class.blink::EncodedAudioChunkOrEncodedVideoChunk"** %11, align 8
  %23 = load i32, i32* %5, align 4
  %24 = zext i32 %23 to i64
  %25 = getelementptr inbounds %"class.blink::EncodedAudioChunkOrEncodedVideoChunk", %"class.blink::EncodedAudioChunkOrEncodedVideoChunk"* %22, i64 %13
  %26 = getelementptr inbounds %"class.blink::EncodedAudioChunkOrEncodedVideoChunk", %"class.blink::EncodedAudioChunkOrEncodedVideoChunk"* %22, i64 %24
  %27 = bitcast %"class.blink::EncodedAudioChunkOrEncodedVideoChunk"* %25 to i8*
  %28 = ptrtoint %"class.blink::EncodedAudioChunkOrEncodedVideoChunk"* %26 to i64
  %29 = ptrtoint %"class.blink::EncodedAudioChunkOrEncodedVideoChunk"* %25 to i64
  %30 = sub i64 %28, %29
  tail call void @_ZN3WTF13AtomicMemzeroEPvm(i8* %27, i64 %30) #9
  store i32 %8, i32* %5, align 4
  br label %64

31:                                               ; preds = %4
  %32 = getelementptr inbounds %"class.WTF::Vector", %"class.WTF::Vector"* %0, i64 0, i32 0, i32 0, i32 1
  %33 = load i32, i32* %32, align 8
  %34 = icmp ugt i32 %8, %33
  br i1 %34, label %35, label %64

35:                                               ; preds = %31
  %36 = icmp eq i32 %33, 0
  br i1 %36, label %61, label %37

37:                                               ; preds = %35
  %38 = icmp eq i32 %6, 0
  br i1 %38, label %39, label %41

39:                                               ; preds = %37
  %40 = bitcast %"class.WTF::Vector"* %0 to i8**
  br label %56

41:                                               ; preds = %37
  %42 = getelementptr inbounds %"class.WTF::Vector", %"class.WTF::Vector"* %0, i64 0, i32 0, i32 0, i32 0
  %43 = load %"class.blink::EncodedAudioChunkOrEncodedVideoChunk"*, %"class.blink::EncodedAudioChunkOrEncodedVideoChunk"** %42, align 8
  %44 = zext i32 %6 to i64
  %45 = getelementptr inbounds %"class.blink::EncodedAudioChunkOrEncodedVideoChunk", %"class.blink::EncodedAudioChunkOrEncodedVideoChunk"* %43, i64 %44
  br label %46

46:                                               ; preds = %46, %41
  %47 = phi %"class.blink::EncodedAudioChunkOrEncodedVideoChunk"* [ %48, %46 ], [ %43, %41 ]
  tail call void @_ZN5blink36EncodedAudioChunkOrEncodedVideoChunkD1Ev(%"class.blink::EncodedAudioChunkOrEncodedVideoChunk"* %47) #9
  %48 = getelementptr inbounds %"class.blink::EncodedAudioChunkOrEncodedVideoChunk", %"class.blink::EncodedAudioChunkOrEncodedVideoChunk"* %47, i64 1
  %49 = icmp eq %"class.blink::EncodedAudioChunkOrEncodedVideoChunk"* %48, %45
  br i1 %49, label %50, label %46

50:                                               ; preds = %46
  %51 = bitcast %"class.WTF::Vector"* %0 to i8**
  %52 = load i8*, i8** %51, align 8
  %53 = load i32, i32* %5, align 4
  %54 = zext i32 %53 to i64
  %55 = mul nuw nsw i64 %54, 24
  tail call void @_ZN3WTF13AtomicMemzeroEPvm(i8* %52, i64 %55) #9
  store i32 0, i32* %5, align 4
  br label %56

56:                                               ; preds = %50, %39
  %57 = phi i8** [ %40, %39 ], [ %51, %50 ]
  %58 = load i8*, i8** %57, align 8
  %59 = bitcast %"class.WTF::Vector"* %0 to i64*
  store atomic i64 0, i64* %59 monotonic, align 8
  store i32 0, i32* %32, align 8
  tail call void @_ZN5blink13HeapAllocator17FreeVectorBackingEPv(i8* %58) #9
  %60 = load i32, i32* %7, align 4
  br label %61

61:                                               ; preds = %35, %56
  %62 = phi i32 [ %8, %35 ], [ %60, %56 ]
  tail call void @_ZN3WTF6VectorIN5blink36EncodedAudioChunkOrEncodedVideoChunkELj0ENS1_13HeapAllocatorEE15ReserveCapacityEj(%"class.WTF::Vector"* %0, i32 %62)
  %63 = load i32, i32* %5, align 4
  br label %64

64:                                               ; preds = %31, %61, %21
  %65 = phi i32 [ %6, %31 ], [ %63, %61 ], [ %8, %21 ]
  %66 = getelementptr inbounds %"class.WTF::Vector", %"class.WTF::Vector"* %1, i64 0, i32 0, i32 0, i32 0
  %67 = load %"class.blink::EncodedAudioChunkOrEncodedVideoChunk"*, %"class.blink::EncodedAudioChunkOrEncodedVideoChunk"** %66, align 8
  %68 = zext i32 %65 to i64
  %69 = getelementptr inbounds %"class.blink::EncodedAudioChunkOrEncodedVideoChunk", %"class.blink::EncodedAudioChunkOrEncodedVideoChunk"* %67, i64 %68
  %70 = getelementptr inbounds %"class.WTF::Vector", %"class.WTF::Vector"* %0, i64 0, i32 0, i32 0, i32 0
  %71 = load %"class.blink::EncodedAudioChunkOrEncodedVideoChunk"*, %"class.blink::EncodedAudioChunkOrEncodedVideoChunk"** %70, align 8
  %72 = icmp eq i32 %65, 0
  br i1 %72, label %84, label %73

73:                                               ; preds = %64, %73
  %74 = phi %"class.blink::EncodedAudioChunkOrEncodedVideoChunk"* [ %78, %73 ], [ %71, %64 ]
  %75 = phi %"class.blink::EncodedAudioChunkOrEncodedVideoChunk"* [ %77, %73 ], [ %67, %64 ]
  %76 = tail call dereferenceable(24) %"class.blink::EncodedAudioChunkOrEncodedVideoChunk"* @_ZN5blink36EncodedAudioChunkOrEncodedVideoChunkaSERKS0_(%"class.blink::EncodedAudioChunkOrEncodedVideoChunk"* %74, %"class.blink::EncodedAudioChunkOrEncodedVideoChunk"* dereferenceable(24) %75) #9
  %77 = getelementptr inbounds %"class.blink::EncodedAudioChunkOrEncodedVideoChunk", %"class.blink::EncodedAudioChunkOrEncodedVideoChunk"* %75, i64 1
  %78 = getelementptr inbounds %"class.blink::EncodedAudioChunkOrEncodedVideoChunk", %"class.blink::EncodedAudioChunkOrEncodedVideoChunk"* %74, i64 1
  %79 = icmp eq %"class.blink::EncodedAudioChunkOrEncodedVideoChunk"* %77, %69
  br i1 %79, label %80, label %73

80:                                               ; preds = %73
  %81 = load %"class.blink::EncodedAudioChunkOrEncodedVideoChunk"*, %"class.blink::EncodedAudioChunkOrEncodedVideoChunk"** %66, align 8
  %82 = load i32, i32* %5, align 4
  %83 = load %"class.blink::EncodedAudioChunkOrEncodedVideoChunk"*, %"class.blink::EncodedAudioChunkOrEncodedVideoChunk"** %70, align 8
  br label %84

84:                                               ; preds = %80, %64
  %85 = phi %"class.blink::EncodedAudioChunkOrEncodedVideoChunk"* [ %83, %80 ], [ %71, %64 ]
  %86 = phi i32 [ %82, %80 ], [ 0, %64 ]
  %87 = phi %"class.blink::EncodedAudioChunkOrEncodedVideoChunk"* [ %81, %80 ], [ %67, %64 ]
  %88 = zext i32 %86 to i64
  %89 = load i32, i32* %7, align 4
  %90 = zext i32 %89 to i64
  %91 = getelementptr inbounds %"class.blink::EncodedAudioChunkOrEncodedVideoChunk", %"class.blink::EncodedAudioChunkOrEncodedVideoChunk"* %87, i64 %90
  %92 = icmp eq i32 %86, %89
  br i1 %92, label %106, label %93

93:                                               ; preds = %84
  %94 = getelementptr inbounds %"class.blink::EncodedAudioChunkOrEncodedVideoChunk", %"class.blink::EncodedAudioChunkOrEncodedVideoChunk"* %85, i64 %88
  %95 = getelementptr inbounds %"class.blink::EncodedAudioChunkOrEncodedVideoChunk", %"class.blink::EncodedAudioChunkOrEncodedVideoChunk"* %87, i64 %88
  br label %96

96:                                               ; preds = %93, %96
  %97 = phi %"class.blink::EncodedAudioChunkOrEncodedVideoChunk"* [ %101, %96 ], [ %94, %93 ]
  %98 = phi %"class.blink::EncodedAudioChunkOrEncodedVideoChunk"* [ %102, %96 ], [ %95, %93 ]
  %99 = bitcast %"class.blink::EncodedAudioChunkOrEncodedVideoChunk"* %97 to i8*
  %100 = tail call %"class.blink::EncodedAudioChunkOrEncodedVideoChunk"* @_ZN3WTF15ConstructTraitsIN5blink36EncodedAudioChunkOrEncodedVideoChunkENS_12VectorTraitsIS2_EENS1_13HeapAllocatorEE25ConstructAndNotifyElementIJRKS2_EEEPS2_PvDpOT_(i8* %99, %"class.blink::EncodedAudioChunkOrEncodedVideoChunk"* dereferenceable(24) %98) #9
  %101 = getelementptr inbounds %"class.blink::EncodedAudioChunkOrEncodedVideoChunk", %"class.blink::EncodedAudioChunkOrEncodedVideoChunk"* %97, i64 1
  %102 = getelementptr inbounds %"class.blink::EncodedAudioChunkOrEncodedVideoChunk", %"class.blink::EncodedAudioChunkOrEncodedVideoChunk"* %98, i64 1
  %103 = icmp eq %"class.blink::EncodedAudioChunkOrEncodedVideoChunk"* %102, %91
  br i1 %103, label %104, label %96

104:                                              ; preds = %96
  %105 = load i32, i32* %7, align 4
  br label %106

106:                                              ; preds = %104, %84
  %107 = phi i32 [ %105, %104 ], [ %86, %84 ]
  store i32 %107, i32* %5, align 4
  br label %108

108:                                              ; preds = %2, %106
  ret %"class.WTF::Vector"* %0
}

; Function Attrs: nounwind ssp uwtable
define linkonce_odr hidden void @_ZN3WTF6VectorIN5blink36EncodedAudioChunkOrEncodedVideoChunkELj0ENS1_13HeapAllocatorEE15ReserveCapacityEj(%"class.WTF::Vector"*, i32) local_unnamed_addr #0 comdat align 2 {
  %3 = alloca %"class.logging::CheckError", align 8
  %4 = getelementptr inbounds %"class.WTF::Vector", %"class.WTF::Vector"* %0, i64 0, i32 0, i32 0, i32 1
  %5 = load i32, i32* %4, align 8
  %6 = icmp ult i32 %5, %1
  br i1 %6, label %7, label %59, !prof !4

7:                                                ; preds = %2
  %8 = getelementptr inbounds %"class.WTF::Vector", %"class.WTF::Vector"* %0, i64 0, i32 0, i32 0, i32 0
  %9 = load %"class.blink::EncodedAudioChunkOrEncodedVideoChunk"*, %"class.blink::EncodedAudioChunkOrEncodedVideoChunk"** %8, align 8
  %10 = icmp eq %"class.blink::EncodedAudioChunkOrEncodedVideoChunk"* %9, null
  %11 = zext i32 %1 to i64
  %12 = tail call i64 @_ZN5blink13HeapAllocator13QuantizedSizeINS_36EncodedAudioChunkOrEncodedVideoChunkEEEmm(i64 %11) #9
  br i1 %10, label %13, label %24

13:                                               ; preds = %7
  %14 = udiv i64 %12, 24
  %15 = tail call %"class.blink::HeapVectorBacking"* @_ZN5blink25MakeGarbageCollectedTraitINS_17HeapVectorBackingINS_36EncodedAudioChunkOrEncodedVideoChunkEN3WTF12VectorTraitsIS2_EEEEE4CallEm(i64 %14) #9
  %16 = ptrtoint %"class.blink::HeapVectorBacking"* %15 to i64
  %17 = bitcast %"class.WTF::Vector"* %0 to i64*
  store atomic i64 %16, i64* %17 monotonic, align 8
  %18 = trunc i64 %14 to i32
  store i32 %18, i32* %4, align 8
  %19 = load atomic i32, i32* getelementptr inbounds (%"class.blink::AtomicEntryFlag", %"class.blink::AtomicEntryFlag"* @_ZN5blink11ThreadState25incremental_marking_flag_E, i64 0, i32 0, i32 0, i32 0, i32 0, i32 0, i32 0) monotonic, align 4
  %20 = icmp eq i32 %19, 0
  br i1 %20, label %59, label %21

21:                                               ; preds = %13
  %22 = getelementptr inbounds %"class.blink::HeapVectorBacking", %"class.blink::HeapVectorBacking"* %15, i64 0, i32 0
  %23 = tail call zeroext i1 @_ZN5blink14MarkingVisitor16WriteBarrierSlowEPv(i8* %22) #9
  br label %59

24:                                               ; preds = %7
  %25 = load %"class.blink::EncodedAudioChunkOrEncodedVideoChunk"*, %"class.blink::EncodedAudioChunkOrEncodedVideoChunk"** %8, align 8
  %26 = icmp eq %"class.blink::EncodedAudioChunkOrEncodedVideoChunk"* %25, null
  br i1 %26, label %33, label %27

27:                                               ; preds = %24
  %28 = bitcast %"class.blink::EncodedAudioChunkOrEncodedVideoChunk"* %25 to i8*
  %29 = tail call zeroext i1 @_ZN5blink13HeapAllocator19ExpandVectorBackingEPvm(i8* nonnull %28, i64 %12) #9
  br i1 %29, label %30, label %33

30:                                               ; preds = %27
  %31 = udiv i64 %12, 24
  %32 = trunc i64 %31 to i32
  store i32 %32, i32* %4, align 8
  br label %59

33:                                               ; preds = %24, %27
  %34 = load %"class.WTF::ThreadSpecific"*, %"class.WTF::ThreadSpecific"** @_ZN5blink11ThreadState16thread_specific_E, align 8
  %35 = getelementptr inbounds %"class.WTF::ThreadSpecific", %"class.WTF::ThreadSpecific"* %34, i64 0, i32 1
  %36 = tail call i8* @_ZNK4base18ThreadLocalStorage4Slot3GetEv(%"class.base::ThreadLocalStorage::Slot"* %35) #9
  %37 = icmp eq i8* %36, null
  br i1 %37, label %38, label %40, !prof !2

38:                                               ; preds = %33
  %39 = tail call i8* @_ZN3WTF10Partitions16FastZeroedMallocEmPKc(i64 8, i8* getelementptr inbounds ([68 x i8], [68 x i8]* @__PRETTY_FUNCTION__._ZN3WTF21GetStringWithTypeNameIPN5blink11ThreadStateEEEPKcv, i64 0, i64 0)) #9
  tail call void @_ZN4base18ThreadLocalStorage4Slot3SetEPv(%"class.base::ThreadLocalStorage::Slot"* %35, i8* %39) #9
  br label %40

40:                                               ; preds = %38, %33
  %41 = phi i8* [ %39, %38 ], [ %36, %33 ]
  %42 = bitcast i8* %41 to %"class.blink::ThreadState"**
  %43 = load %"class.blink::ThreadState"*, %"class.blink::ThreadState"** %42, align 8
  %44 = getelementptr inbounds %"class.blink::ThreadState", %"class.blink::ThreadState"* %43, i64 0, i32 6
  %45 = load i8, i8* %44, align 8, !range !3
  %46 = icmp eq i8 %45, 0
  br i1 %46, label %51, label %47

47:                                               ; preds = %40
  %48 = getelementptr inbounds %"class.blink::ThreadState", %"class.blink::ThreadState"* %43, i64 0, i32 16
  %49 = load i32, i32* %48, align 4
  %50 = icmp eq i32 %49, 1
  br i1 %50, label %55, label %51

51:                                               ; preds = %40, %47
  %52 = getelementptr inbounds %"class.blink::ThreadState", %"class.blink::ThreadState"* %43, i64 0, i32 13
  %53 = load i64, i64* %52, align 8
  %54 = icmp eq i64 %53, 0
  br i1 %54, label %58, label %55

55:                                               ; preds = %47, %51
  %56 = bitcast %"class.logging::CheckError"* %3 to i8*
  call void @llvm.lifetime.start.p0i8(i64 8, i8* nonnull %56) #9
  call void @_ZN7logging10CheckError5CheckEPKciS2_(%"class.logging::CheckError"* nonnull sret %3, i8* getelementptr inbounds ([55 x i8], [55 x i8]* @.str.11, i64 0, i64 0), i32 1810, i8* getelementptr inbounds ([33 x i8], [33 x i8]* @.str.12, i64 0, i64 0)) #9
  %57 = call dereferenceable(160) %"class.std::__1::basic_ostream"* @_ZN7logging10CheckError6streamEv(%"class.logging::CheckError"* nonnull %3) #9
  call void @_ZN7logging10CheckErrorD1Ev(%"class.logging::CheckError"* nonnull %3) #9
  call void @llvm.lifetime.end.p0i8(i64 8, i8* nonnull %56) #9
  br label %58

58:                                               ; preds = %51, %55
  call void @_ZN3WTF6VectorIN5blink36EncodedAudioChunkOrEncodedVideoChunkELj0ENS1_13HeapAllocatorEE16ReallocateBufferEj(%"class.WTF::Vector"* %0, i32 %1)
  br label %59

59:                                               ; preds = %30, %21, %13, %2, %58
  ret void
}

; Function Attrs: nounwind
declare void @_ZN5blink36EncodedAudioChunkOrEncodedVideoChunkD1Ev(%"class.blink::EncodedAudioChunkOrEncodedVideoChunk"*) unnamed_addr #5

declare void @_ZN3WTF13AtomicMemzeroEPvm(i8*, i64) local_unnamed_addr #4

; Function Attrs: nounwind ssp uwtable
define linkonce_odr hidden void @_ZN3WTF6VectorIN5blink36EncodedAudioChunkOrEncodedVideoChunkELj0ENS1_13HeapAllocatorEE16ReallocateBufferEj(%"class.WTF::Vector"*, i32) local_unnamed_addr #0 comdat align 2 {
  %3 = icmp eq i32 %1, 0
  br i1 %3, label %4, label %13

4:                                                ; preds = %2
  %5 = bitcast %"class.WTF::Vector"* %0 to i8**
  %6 = load i8*, i8** %5, align 8
  %7 = getelementptr inbounds %"class.WTF::Vector", %"class.WTF::Vector"* %0, i64 0, i32 0, i32 0, i32 2
  %8 = load i32, i32* %7, align 4
  %9 = zext i32 %8 to i64
  %10 = bitcast %"class.WTF::Vector"* %0 to i64*
  store atomic i64 0, i64* %10 monotonic, align 8
  %11 = getelementptr inbounds %"class.WTF::Vector", %"class.WTF::Vector"* %0, i64 0, i32 0, i32 0, i32 1
  store i32 0, i32* %11, align 8
  %12 = mul nuw nsw i64 %9, 24
  tail call void @_ZN3WTF13AtomicMemzeroEPvm(i8* %6, i64 %12) #9
  tail call void @_ZN5blink13HeapAllocator17FreeVectorBackingEPv(i8* %6) #9
  br label %50

13:                                               ; preds = %2
  %14 = zext i32 %1 to i64
  %15 = tail call i64 @_ZN5blink13HeapAllocator13QuantizedSizeINS_36EncodedAudioChunkOrEncodedVideoChunkEEEmm(i64 %14) #9
  %16 = udiv i64 %15, 24
  %17 = tail call %"class.blink::HeapVectorBacking"* @_ZN5blink25MakeGarbageCollectedTraitINS_17HeapVectorBackingINS_36EncodedAudioChunkOrEncodedVideoChunkEN3WTF12VectorTraitsIS2_EEEEE4CallEm(i64 %16) #9
  %18 = ptrtoint %"class.blink::HeapVectorBacking"* %17 to i64
  %19 = getelementptr inbounds %"class.WTF::Vector", %"class.WTF::Vector"* %0, i64 0, i32 0, i32 0, i32 0
  %20 = load %"class.blink::EncodedAudioChunkOrEncodedVideoChunk"*, %"class.blink::EncodedAudioChunkOrEncodedVideoChunk"** %19, align 8
  %21 = getelementptr inbounds %"class.WTF::Vector", %"class.WTF::Vector"* %0, i64 0, i32 0, i32 0, i32 2
  %22 = icmp ne %"class.blink::HeapVectorBacking"* %17, null
  %23 = icmp ne %"class.blink::EncodedAudioChunkOrEncodedVideoChunk"* %20, null
  %24 = and i1 %22, %23
  %25 = bitcast %"class.blink::EncodedAudioChunkOrEncodedVideoChunk"* %20 to i8*
  br i1 %24, label %28, label %26, !prof !4

26:                                               ; preds = %13
  %27 = bitcast %"class.WTF::Vector"* %0 to i8**
  br label %35

28:                                               ; preds = %13
  %29 = load i32, i32* %21, align 4
  %30 = zext i32 %29 to i64
  %31 = mul nuw nsw i64 %30, 24
  %32 = getelementptr inbounds %"class.blink::HeapVectorBacking", %"class.blink::HeapVectorBacking"* %17, i64 0, i32 0
  tail call void @_ZN3WTF17AtomicWriteMemcpyEPvPKvm(i8* nonnull %32, i8* nonnull %25, i64 %31) #9
  %33 = bitcast %"class.WTF::Vector"* %0 to i8**
  %34 = load i8*, i8** %33, align 8
  br label %35

35:                                               ; preds = %26, %28
  %36 = phi i8** [ %27, %26 ], [ %33, %28 ]
  %37 = phi i8* [ %25, %26 ], [ %34, %28 ]
  %38 = load i32, i32* %21, align 4
  %39 = zext i32 %38 to i64
  %40 = mul nuw nsw i64 %39, 24
  tail call void @_ZN3WTF13AtomicMemzeroEPvm(i8* %37, i64 %40) #9
  %41 = load i8*, i8** %36, align 8
  tail call void @_ZN5blink13HeapAllocator17FreeVectorBackingEPv(i8* %41) #9
  %42 = bitcast %"class.WTF::Vector"* %0 to i64*
  store atomic i64 %18, i64* %42 monotonic, align 8
  %43 = trunc i64 %16 to i32
  %44 = getelementptr inbounds %"class.WTF::Vector", %"class.WTF::Vector"* %0, i64 0, i32 0, i32 0, i32 1
  store i32 %43, i32* %44, align 8
  %45 = load atomic i32, i32* getelementptr inbounds (%"class.blink::AtomicEntryFlag", %"class.blink::AtomicEntryFlag"* @_ZN5blink11ThreadState25incremental_marking_flag_E, i64 0, i32 0, i32 0, i32 0, i32 0, i32 0, i32 0) monotonic, align 4
  %46 = icmp eq i32 %45, 0
  br i1 %46, label %50, label %47

47:                                               ; preds = %35
  %48 = getelementptr inbounds %"class.blink::HeapVectorBacking", %"class.blink::HeapVectorBacking"* %17, i64 0, i32 0
  %49 = tail call zeroext i1 @_ZN5blink14MarkingVisitor16WriteBarrierSlowEPv(i8* %48) #9
  br label %50

50:                                               ; preds = %47, %35, %4
  ret void
}

; Function Attrs: nounwind ssp uwtable
define linkonce_odr hidden i64 @_ZN5blink13HeapAllocator13QuantizedSizeINS_36EncodedAudioChunkOrEncodedVideoChunkEEEmm(i64) local_unnamed_addr #0 comdat align 2 {
  %2 = alloca %"class.logging::CheckOpResult", align 8
  %3 = alloca %"class.logging::CheckOpResult", align 8
  %4 = alloca %"class.logging::CheckError", align 8
  %5 = bitcast %"class.logging::CheckOpResult"* %3 to i8*
  call void @llvm.lifetime.start.p0i8(i64 8, i8* nonnull %5) #9
  %6 = getelementptr inbounds %"class.logging::CheckOpResult", %"class.logging::CheckOpResult"* %3, i64 0, i32 0
  store i8* inttoptr (i64 -6148914691236517206 to i8*), i8** %6, align 8
  %7 = bitcast %"class.logging::CheckOpResult"* %2 to i8*
  call void @llvm.lifetime.start.p0i8(i64 8, i8* nonnull %7)
  %8 = icmp ugt i64 %0, 5592405
  br i1 %8, label %10, label %9

9:                                                ; preds = %1
  call void @llvm.lifetime.end.p0i8(i64 8, i8* nonnull %7)
  store i8* null, i8** %6, align 8
  br label %19

10:                                               ; preds = %1
  %11 = tail call i8* @_ZN7logging15CheckOpValueStrEm(i64 %0) #9
  %12 = tail call i8* @_ZN7logging15CheckOpValueStrEm(i64 5592405) #9
  call void @_ZN7logging13CheckOpResultC1EPKcPcS3_(%"class.logging::CheckOpResult"* nonnull %2, i8* getelementptr inbounds ([44 x i8], [44 x i8]* @.str.4, i64 0, i64 0), i8* %11, i8* %12) #9
  %13 = getelementptr inbounds %"class.logging::CheckOpResult", %"class.logging::CheckOpResult"* %2, i64 0, i32 0
  %14 = load i8*, i8** %13, align 8
  call void @llvm.lifetime.end.p0i8(i64 8, i8* nonnull %7)
  store i8* %14, i8** %6, align 8
  %15 = icmp eq i8* %14, null
  br i1 %15, label %19, label %16

16:                                               ; preds = %10
  %17 = bitcast %"class.logging::CheckError"* %4 to i8*
  call void @llvm.lifetime.start.p0i8(i64 8, i8* nonnull %17) #9
  call void @_ZN7logging10CheckError7CheckOpEPKciPNS_13CheckOpResultE(%"class.logging::CheckError"* nonnull sret %4, i8* getelementptr inbounds ([74 x i8], [74 x i8]* @.str.5, i64 0, i64 0), i32 39, %"class.logging::CheckOpResult"* nonnull %3) #9
  %18 = call dereferenceable(160) %"class.std::__1::basic_ostream"* @_ZN7logging10CheckError6streamEv(%"class.logging::CheckError"* nonnull %4) #9
  call void @_ZN7logging10CheckErrorD1Ev(%"class.logging::CheckError"* nonnull %4) #9
  call void @llvm.lifetime.end.p0i8(i64 8, i8* nonnull %17) #9
  br label %19

19:                                               ; preds = %9, %10, %16
  call void @llvm.lifetime.end.p0i8(i64 8, i8* nonnull %5) #9
  %20 = mul i64 %0, 24
  ret i64 %20
}

declare void @_ZN7logging10CheckError7CheckOpEPKciPNS_13CheckOpResultE(%"class.logging::CheckError"* sret, i8*, i32, %"class.logging::CheckOpResult"*) local_unnamed_addr #4

declare i8* @_ZN7logging15CheckOpValueStrEm(i64) local_unnamed_addr #4

declare void @_ZN7logging13CheckOpResultC1EPKcPcS3_(%"class.logging::CheckOpResult"*, i8*, i8*, i8*) unnamed_addr #4

declare i8* @_ZN3WTF10Partitions16FastZeroedMallocEmPKc(i64, i8*) local_unnamed_addr #4

declare i8* @_ZNK4base18ThreadLocalStorage4Slot3GetEv(%"class.base::ThreadLocalStorage::Slot"*) local_unnamed_addr #4

declare void @_ZN4base18ThreadLocalStorage4Slot3SetEPv(%"class.base::ThreadLocalStorage::Slot"*, i8*) local_unnamed_addr #4

declare void @_ZN3WTF17AtomicWriteMemcpyEPvPKvm(i8*, i8*, i64) local_unnamed_addr #4

declare void @_ZNK5blink36EncodedAudioChunkOrEncodedVideoChunk5TraceEPNS_7VisitorE(%"class.blink::EncodedAudioChunkOrEncodedVideoChunk"*, %"class.blink::Visitor"*) local_unnamed_addr #4

; Function Attrs: nounwind ssp uwtable
define linkonce_odr hidden %"class.blink::HeapVectorBacking"* @_ZN5blink25MakeGarbageCollectedTraitINS_17HeapVectorBackingINS_36EncodedAudioChunkOrEncodedVideoChunkEN3WTF12VectorTraitsIS2_EEEEE4CallEm(i64) local_unnamed_addr #0 comdat align 2 {
  %2 = alloca %"class.logging::CheckOpResult", align 8
  %3 = alloca %"class.logging::CheckOpResult", align 8
  %4 = alloca %"class.logging::CheckError", align 8
  %5 = bitcast %"class.logging::CheckOpResult"* %3 to i8*
  call void @llvm.lifetime.start.p0i8(i64 8, i8* nonnull %5) #9
  %6 = getelementptr inbounds %"class.logging::CheckOpResult", %"class.logging::CheckOpResult"* %3, i64 0, i32 0
  store i8* inttoptr (i64 -6148914691236517206 to i8*), i8** %6, align 8
  %7 = bitcast %"class.logging::CheckOpResult"* %2 to i8*
  call void @llvm.lifetime.start.p0i8(i64 8, i8* nonnull %7)
  %8 = icmp eq i64 %0, 0
  br i1 %8, label %10, label %9

9:                                                ; preds = %1
  call void @llvm.lifetime.end.p0i8(i64 8, i8* nonnull %7)
  store i8* null, i8** %6, align 8
  br label %19

10:                                               ; preds = %1
  %11 = tail call i8* @_ZN7logging15CheckOpValueStrEm(i64 0) #9
  %12 = tail call i8* @_ZN7logging15CheckOpValueStrEj(i32 0) #9
  call void @_ZN7logging13CheckOpResultC1EPKcPcS3_(%"class.logging::CheckOpResult"* nonnull %2, i8* getelementptr inbounds ([18 x i8], [18 x i8]* @.str.6, i64 0, i64 0), i8* %11, i8* %12) #9
  %13 = getelementptr inbounds %"class.logging::CheckOpResult", %"class.logging::CheckOpResult"* %2, i64 0, i32 0
  %14 = load i8*, i8** %13, align 8
  call void @llvm.lifetime.end.p0i8(i64 8, i8* nonnull %7)
  store i8* %14, i8** %6, align 8
  %15 = icmp eq i8* %14, null
  br i1 %15, label %19, label %16

16:                                               ; preds = %10
  %17 = bitcast %"class.logging::CheckError"* %4 to i8*
  call void @llvm.lifetime.start.p0i8(i64 8, i8* nonnull %17) #9
  call void @_ZN7logging10CheckError7CheckOpEPKciPNS_13CheckOpResultE(%"class.logging::CheckError"* nonnull sret %4, i8* getelementptr inbounds ([93 x i8], [93 x i8]* @.str.7, i64 0, i64 0), i32 86, %"class.logging::CheckOpResult"* nonnull %3) #9
  %18 = call dereferenceable(160) %"class.std::__1::basic_ostream"* @_ZN7logging10CheckError6streamEv(%"class.logging::CheckError"* nonnull %4) #9
  call void @_ZN7logging10CheckErrorD1Ev(%"class.logging::CheckError"* nonnull %4) #9
  call void @llvm.lifetime.end.p0i8(i64 8, i8* nonnull %17) #9
  br label %19

19:                                               ; preds = %9, %10, %16
  call void @llvm.lifetime.end.p0i8(i64 8, i8* nonnull %5) #9
  %20 = mul i64 %0, 24
  %21 = call i8* @_ZN5blink17HeapVectorBackingINS_36EncodedAudioChunkOrEncodedVideoChunkEN3WTF12VectorTraitsIS1_EEE14AllocateObjectIS5_EEPvm(i64 %20)
  %22 = bitcast i8* %21 to %"class.blink::HeapVectorBacking"*
  %23 = getelementptr inbounds i8, i8* %21, i64 -4
  %24 = bitcast i8* %23 to i16*
  %25 = load atomic i16, i16* %24 monotonic, align 2
  %26 = or i16 %25, 1
  store atomic i16 %26, i16* %24 release, align 2
  ret %"class.blink::HeapVectorBacking"* %22
}

; Function Attrs: nounwind ssp uwtable
define linkonce_odr hidden i8* @_ZN5blink17HeapVectorBackingINS_36EncodedAudioChunkOrEncodedVideoChunkEN3WTF12VectorTraitsIS1_EEE14AllocateObjectIS5_EEPvm(i64) local_unnamed_addr #0 comdat align 2 {
  %2 = alloca %"class.logging::CheckOpResult", align 8
  %3 = alloca %"class.logging::CheckOpResult", align 8
  %4 = alloca %"class.logging::CheckError", align 8
  %5 = load %"class.WTF::ThreadSpecific"*, %"class.WTF::ThreadSpecific"** @_ZN5blink11ThreadState16thread_specific_E, align 8
  %6 = getelementptr inbounds %"class.WTF::ThreadSpecific", %"class.WTF::ThreadSpecific"* %5, i64 0, i32 1
  %7 = tail call i8* @_ZNK4base18ThreadLocalStorage4Slot3GetEv(%"class.base::ThreadLocalStorage::Slot"* %6) #9
  %8 = icmp eq i8* %7, null
  br i1 %8, label %9, label %11, !prof !2

9:                                                ; preds = %1
  %10 = tail call i8* @_ZN3WTF10Partitions16FastZeroedMallocEmPKc(i64 8, i8* getelementptr inbounds ([68 x i8], [68 x i8]* @__PRETTY_FUNCTION__._ZN3WTF21GetStringWithTypeNameIPN5blink11ThreadStateEEEPKcv, i64 0, i64 0)) #9
  tail call void @_ZN4base18ThreadLocalStorage4Slot3SetEPv(%"class.base::ThreadLocalStorage::Slot"* %6, i8* %10) #9
  br label %11

11:                                               ; preds = %1, %9
  %12 = phi i8* [ %10, %9 ], [ %7, %1 ]
  %13 = bitcast i8* %12 to %"class.blink::ThreadState"**
  %14 = load %"class.blink::ThreadState"*, %"class.blink::ThreadState"** %13, align 8
  %15 = getelementptr inbounds %"class.blink::ThreadState", %"class.blink::ThreadState"* %14, i64 0, i32 0, i32 0, i32 0, i32 0
  %16 = load %"class.blink::ThreadHeap"*, %"class.blink::ThreadHeap"** %15, align 8
  %17 = load atomic i32, i32* getelementptr inbounds ({ { i32 } }, { { i32 } }* @_ZZN5blink11GCInfoTraitINS_17HeapVectorBackingINS_36EncodedAudioChunkOrEncodedVideoChunkEN3WTF12VectorTraitsIS2_EEEEE5IndexEvE13gc_info_index, i64 0, i32 0, i32 0) acquire, align 4
  %18 = icmp eq i32 %17, 0
  br i1 %18, label %19, label %22

19:                                               ; preds = %11
  %20 = load %"class.blink::GCInfoTable"*, %"class.blink::GCInfoTable"** @_ZN5blink11GCInfoTable13global_table_E, align 8
  %21 = tail call i32 @_ZN5blink11GCInfoTable17EnsureGCInfoIndexEPKNS_6GCInfoEPNSt3__16atomicIjEE(%"class.blink::GCInfoTable"* %20, %"struct.blink::GCInfo"* nonnull @_ZZN5blink11GCInfoTraitINS_17HeapVectorBackingINS_36EncodedAudioChunkOrEncodedVideoChunkEN3WTF12VectorTraitsIS2_EEEEE5IndexEvE7kGcInfo, %"struct.std::__1::atomic.182"* bitcast ({ { i32 } }* @_ZZN5blink11GCInfoTraitINS_17HeapVectorBackingINS_36EncodedAudioChunkOrEncodedVideoChunkEN3WTF12VectorTraitsIS2_EEEEE5IndexEvE13gc_info_index to %"struct.std::__1::atomic.182"*)) #9
  br label %22

22:                                               ; preds = %11, %19
  %23 = phi i32 [ %17, %11 ], [ %21, %19 ]
  %24 = getelementptr inbounds %"class.blink::ThreadHeap", %"class.blink::ThreadHeap"* %16, i64 0, i32 19, i64 4
  %25 = bitcast %"class.blink::BaseArena"** %24 to %"class.blink::NormalPageArena"**
  %26 = load %"class.blink::NormalPageArena"*, %"class.blink::NormalPageArena"** %25, align 8
  %27 = bitcast %"class.logging::CheckOpResult"* %3 to i8*
  call void @llvm.lifetime.start.p0i8(i64 8, i8* nonnull %27) #9
  %28 = getelementptr inbounds %"class.logging::CheckOpResult", %"class.logging::CheckOpResult"* %3, i64 0, i32 0
  store i8* inttoptr (i64 -6148914691236517206 to i8*), i8** %28, align 8
  %29 = bitcast %"class.logging::CheckOpResult"* %2 to i8*
  call void @llvm.lifetime.start.p0i8(i64 8, i8* nonnull %29) #9
  %30 = icmp ult i64 %0, -8
  br i1 %30, label %31, label %32

31:                                               ; preds = %22
  call void @llvm.lifetime.end.p0i8(i64 8, i8* nonnull %29) #9
  store i8* null, i8** %28, align 8
  br label %42

32:                                               ; preds = %22
  %33 = add nsw i64 %0, 8
  %34 = tail call i8* @_ZN7logging15CheckOpValueStrEm(i64 %33) #9
  %35 = tail call i8* @_ZN7logging15CheckOpValueStrEm(i64 %0) #9
  call void @_ZN7logging13CheckOpResultC1EPKcPcS3_(%"class.logging::CheckOpResult"* nonnull %2, i8* getelementptr inbounds ([23 x i8], [23 x i8]* @.str.8, i64 0, i64 0), i8* %34, i8* %35) #9
  %36 = getelementptr inbounds %"class.logging::CheckOpResult", %"class.logging::CheckOpResult"* %2, i64 0, i32 0
  %37 = load i8*, i8** %36, align 8
  call void @llvm.lifetime.end.p0i8(i64 8, i8* nonnull %29) #9
  store i8* %37, i8** %28, align 8
  %38 = icmp eq i8* %37, null
  br i1 %38, label %42, label %39

39:                                               ; preds = %32
  %40 = bitcast %"class.logging::CheckError"* %4 to i8*
  call void @llvm.lifetime.start.p0i8(i64 8, i8* nonnull %40) #9
  call void @_ZN7logging10CheckError7CheckOpEPKciPNS_13CheckOpResultE(%"class.logging::CheckError"* nonnull sret %4, i8* getelementptr inbounds ([59 x i8], [59 x i8]* @.str.9, i64 0, i64 0), i32 246, %"class.logging::CheckOpResult"* nonnull %3) #9
  %41 = call dereferenceable(160) %"class.std::__1::basic_ostream"* @_ZN7logging10CheckError6streamEv(%"class.logging::CheckError"* nonnull %4) #9
  call void @_ZN7logging10CheckErrorD1Ev(%"class.logging::CheckError"* nonnull %4) #9
  call void @llvm.lifetime.end.p0i8(i64 8, i8* nonnull %40) #9
  br label %42

42:                                               ; preds = %31, %32, %39
  call void @llvm.lifetime.end.p0i8(i64 8, i8* nonnull %27) #9
  %43 = add i64 %0, 15
  %44 = and i64 %43, -8
  %45 = getelementptr inbounds %"class.blink::NormalPageArena", %"class.blink::NormalPageArena"* %26, i64 0, i32 4
  %46 = load i64, i64* %45, align 8
  %47 = icmp ult i64 %46, %44
  br i1 %47, label %80, label %48, !prof !2

48:                                               ; preds = %42
  %49 = getelementptr inbounds %"class.blink::NormalPageArena", %"class.blink::NormalPageArena"* %26, i64 0, i32 3
  %50 = load i8*, i8** %49, align 8
  %51 = getelementptr inbounds i8, i8* %50, i64 %44
  store i8* %51, i8** %49, align 8
  %52 = sub i64 %46, %44
  store i64 %52, i64* %45, align 8
  %53 = bitcast i8* %50 to i32*
  store i32 0, i32* %53, align 4
  %54 = getelementptr inbounds i8, i8* %50, i64 4
  %55 = bitcast i8* %54 to i16*
  %56 = trunc i32 %23 to i16
  %57 = shl i16 %56, 2
  store atomic i16 %57, i16* %55 monotonic, align 2
  %58 = lshr exact i64 %44, 1
  %59 = trunc i64 %58 to i16
  %60 = getelementptr inbounds i8, i8* %50, i64 6
  %61 = bitcast i8* %60 to i16*
  store i16 %59, i16* %61, align 2
  %62 = ptrtoint i8* %50 to i64
  %63 = and i64 %62, -131072
  %64 = inttoptr i64 %63 to i8*
  %65 = getelementptr inbounds i8, i8* %64, i64 4400
  %66 = bitcast i8* %65 to %"class.blink::PlatformAwareObjectStartBitmap"*
  %67 = bitcast i8* %65 to i64*
  %68 = load i64, i64* %67, align 16
  %69 = sub i64 %62, %68
  %70 = lshr i64 %69, 3
  %71 = lshr i64 %69, 6
  %72 = getelementptr inbounds %"class.blink::PlatformAwareObjectStartBitmap", %"class.blink::PlatformAwareObjectStartBitmap"* %66, i64 0, i32 0, i32 1, i64 %71
  %73 = load i8, i8* %72, align 1
  %74 = trunc i64 %70 to i32
  %75 = and i32 %74, 7
  %76 = shl i32 1, %75
  %77 = trunc i32 %76 to i8
  %78 = or i8 %73, %77
  store atomic i8 %78, i8* %72 release, align 1
  %79 = getelementptr inbounds i8, i8* %50, i64 8
  br label %83

80:                                               ; preds = %42
  %81 = zext i32 %23 to i64
  %82 = call i8* @_ZN5blink15NormalPageArena17OutOfLineAllocateEmm(%"class.blink::NormalPageArena"* %26, i64 %44, i64 %81) #9
  br label %83

83:                                               ; preds = %48, %80
  %84 = phi i8* [ %79, %48 ], [ %82, %80 ]
  ret i8* %84
}

declare i8* @_ZN7logging15CheckOpValueStrEj(i32) local_unnamed_addr #4

declare i8* @_ZN5blink15NormalPageArena17OutOfLineAllocateEmm(%"class.blink::NormalPageArena"*, i64, i64) local_unnamed_addr #4

; Function Attrs: nounwind ssp uwtable
define linkonce_odr hidden void @_ZN5blink10TraceTraitINS_17HeapVectorBackingINS_36EncodedAudioChunkOrEncodedVideoChunkEN3WTF12VectorTraitsIS2_EEEEE5TraceEPNS_7VisitorEPKv(%"class.blink::Visitor"*, i8*) #0 comdat align 2 {
  %3 = icmp eq i8* %1, null
  br i1 %3, label %29, label %4

4:                                                ; preds = %2
  %5 = getelementptr inbounds i8, i8* %1, i64 -2
  %6 = bitcast i8* %5 to i16*
  %7 = load atomic i16, i16* %6 monotonic, align 2
  %8 = icmp ult i16 %7, 4
  br i1 %8, label %9, label %17

9:                                                ; preds = %4
  %10 = getelementptr inbounds i8, i8* %1, i64 -8
  %11 = ptrtoint i8* %10 to i64
  %12 = and i64 %11, -131072
  %13 = inttoptr i64 %12 to i8*
  %14 = getelementptr inbounds i8, i8* %13, i64 4144
  %15 = bitcast i8* %14 to i64*
  %16 = load i64, i64* %15, align 16
  br label %22

17:                                               ; preds = %4
  %18 = load atomic i16, i16* %6 monotonic, align 2
  %19 = lshr i16 %18, 2
  %20 = zext i16 %19 to i64
  %21 = shl nuw nsw i64 %20, 3
  br label %22

22:                                               ; preds = %9, %17
  %23 = phi i64 [ %16, %9 ], [ %21, %17 ]
  %24 = bitcast %"class.blink::Visitor"* %0 to i1 (%"class.blink::Visitor"*, i8*, void (%"class.blink::Visitor"*, i8*)*, i64)***
  %25 = load i1 (%"class.blink::Visitor"*, i8*, void (%"class.blink::Visitor"*, i8*)*, i64)**, i1 (%"class.blink::Visitor"*, i8*, void (%"class.blink::Visitor"*, i8*)*, i64)*** %24, align 8
  %26 = getelementptr inbounds i1 (%"class.blink::Visitor"*, i8*, void (%"class.blink::Visitor"*, i8*)*, i64)*, i1 (%"class.blink::Visitor"*, i8*, void (%"class.blink::Visitor"*, i8*)*, i64)** %25, i64 4
  %27 = load i1 (%"class.blink::Visitor"*, i8*, void (%"class.blink::Visitor"*, i8*)*, i64)*, i1 (%"class.blink::Visitor"*, i8*, void (%"class.blink::Visitor"*, i8*)*, i64)** %26, align 8
  %28 = tail call zeroext i1 %27(%"class.blink::Visitor"* %0, i8* nonnull %1, void (%"class.blink::Visitor"*, i8*)* nonnull @_ZN5blink10TraceTraitINS_17HeapVectorBackingINS_36EncodedAudioChunkOrEncodedVideoChunkEN3WTF12VectorTraitsIS2_EEEEE5TraceEPNS_7VisitorEPKv, i64 %23) #9
  br i1 %28, label %57, label %29

29:                                               ; preds = %2, %22
  %30 = bitcast i8* %1 to %"class.blink::EncodedAudioChunkOrEncodedVideoChunk"*
  %31 = getelementptr inbounds i8, i8* %1, i64 -2
  %32 = bitcast i8* %31 to i16*
  %33 = load i16, i16* %32, align 2
  %34 = lshr i16 %33, 2
  %35 = icmp eq i16 %34, 0
  br i1 %35, label %36, label %44, !prof !2

36:                                               ; preds = %29
  %37 = getelementptr inbounds i8, i8* %1, i64 -8
  %38 = ptrtoint i8* %37 to i64
  %39 = and i64 %38, -131072
  %40 = inttoptr i64 %39 to i8*
  %41 = getelementptr inbounds i8, i8* %40, i64 4144
  %42 = bitcast i8* %41 to i64*
  %43 = load i64, i64* %42, align 16
  br label %47

44:                                               ; preds = %29
  %45 = zext i16 %34 to i64
  %46 = shl nuw nsw i64 %45, 3
  br label %47

47:                                               ; preds = %44, %36
  %48 = phi i64 [ %43, %36 ], [ %46, %44 ]
  %49 = add i64 %48, -8
  %50 = udiv i64 %49, 24
  %51 = icmp ugt i64 %49, 23
  br i1 %51, label %52, label %57

52:                                               ; preds = %47, %52
  %53 = phi i64 [ %55, %52 ], [ 0, %47 ]
  %54 = getelementptr inbounds %"class.blink::EncodedAudioChunkOrEncodedVideoChunk", %"class.blink::EncodedAudioChunkOrEncodedVideoChunk"* %30, i64 %53
  tail call void @_ZNK5blink36EncodedAudioChunkOrEncodedVideoChunk5TraceEPNS_7VisitorE(%"class.blink::EncodedAudioChunkOrEncodedVideoChunk"* %54, %"class.blink::Visitor"* %0) #9
  %55 = add nuw nsw i64 %53, 1
  %56 = icmp ult i64 %55, %50
  br i1 %56, label %52, label %57

57:                                               ; preds = %52, %47, %22
  ret void
}

; Function Attrs: nounwind ssp uwtable
define linkonce_odr hidden void @_ZN5blink8internal14FinalizerTraitINS_17HeapVectorBackingINS_36EncodedAudioChunkOrEncodedVideoChunkEN3WTF12VectorTraitsIS3_EEEEE8FinalizeEPv(i8*) #0 comdat align 2 {
  %2 = getelementptr inbounds i8, i8* %0, i64 -2
  %3 = bitcast i8* %2 to i16*
  %4 = load i16, i16* %3, align 2
  %5 = lshr i16 %4, 2
  %6 = icmp eq i16 %5, 0
  br i1 %6, label %7, label %15, !prof !2

7:                                                ; preds = %1
  %8 = getelementptr inbounds i8, i8* %0, i64 -8
  %9 = ptrtoint i8* %8 to i64
  %10 = and i64 %9, -131072
  %11 = inttoptr i64 %10 to i8*
  %12 = getelementptr inbounds i8, i8* %11, i64 4144
  %13 = bitcast i8* %12 to i64*
  %14 = load i64, i64* %13, align 16
  br label %18

15:                                               ; preds = %1
  %16 = zext i16 %5 to i64
  %17 = shl nuw nsw i64 %16, 3
  br label %18

18:                                               ; preds = %15, %7
  %19 = phi i64 [ %14, %7 ], [ %17, %15 ]
  %20 = add i64 %19, -8
  %21 = udiv i64 %20, 24
  %22 = bitcast i8* %0 to %"class.blink::EncodedAudioChunkOrEncodedVideoChunk"*
  %23 = icmp ugt i64 %20, 23
  br i1 %23, label %24, label %31

24:                                               ; preds = %18, %24
  %25 = phi i64 [ %29, %24 ], [ 0, %18 ]
  %26 = phi i32 [ %28, %24 ], [ 0, %18 ]
  %27 = getelementptr inbounds %"class.blink::EncodedAudioChunkOrEncodedVideoChunk", %"class.blink::EncodedAudioChunkOrEncodedVideoChunk"* %22, i64 %25
  tail call void @_ZN5blink36EncodedAudioChunkOrEncodedVideoChunkD1Ev(%"class.blink::EncodedAudioChunkOrEncodedVideoChunk"* %27) #9
  %28 = add i32 %26, 1
  %29 = zext i32 %28 to i64
  %30 = icmp ugt i64 %21, %29
  br i1 %30, label %24, label %31

31:                                               ; preds = %24, %18
  ret void
}

; Function Attrs: nounwind ssp uwtable
define linkonce_odr hidden { i8*, i8 } @_ZN5blink9NameTraitINS_17HeapVectorBackingINS_36EncodedAudioChunkOrEncodedVideoChunkEN3WTF12VectorTraitsIS2_EEEEE7GetNameEPKv(i8*) #0 comdat align 2 {
  ret { i8*, i8 } { i8* getelementptr inbounds ([13 x i8], [13 x i8]* @.str.10, i64 0, i64 0), i8 1 }
}

declare i32 @_ZN5blink11GCInfoTable17EnsureGCInfoIndexEPKNS_6GCInfoEPNSt3__16atomicIjEE(%"class.blink::GCInfoTable"*, %"struct.blink::GCInfo"*, %"struct.std::__1::atomic.182"*) local_unnamed_addr #4

declare void @_ZN5blink13HeapAllocator17FreeVectorBackingEPv(i8*) local_unnamed_addr #4

declare zeroext i1 @_ZN5blink13HeapAllocator19ExpandVectorBackingEPvm(i8*, i64) local_unnamed_addr #4

declare dereferenceable(24) %"class.blink::EncodedAudioChunkOrEncodedVideoChunk"* @_ZN5blink36EncodedAudioChunkOrEncodedVideoChunkaSERKS0_(%"class.blink::EncodedAudioChunkOrEncodedVideoChunk"*, %"class.blink::EncodedAudioChunkOrEncodedVideoChunk"* dereferenceable(24)) local_unnamed_addr #4

; Function Attrs: nounwind ssp uwtable
define linkonce_odr hidden %"class.blink::EncodedAudioChunkOrEncodedVideoChunk"* @_ZN3WTF15ConstructTraitsIN5blink36EncodedAudioChunkOrEncodedVideoChunkENS_12VectorTraitsIS2_EENS1_13HeapAllocatorEE25ConstructAndNotifyElementIJRKS2_EEEPS2_PvDpOT_(i8*, %"class.blink::EncodedAudioChunkOrEncodedVideoChunk"* dereferenceable(24)) local_unnamed_addr #0 comdat align 2 {
  %3 = bitcast i8* %0 to %"class.blink::EncodedAudioChunkOrEncodedVideoChunk"*
  tail call void @_ZN5blink36EncodedAudioChunkOrEncodedVideoChunkC1ERKS0_(%"class.blink::EncodedAudioChunkOrEncodedVideoChunk"* %3, %"class.blink::EncodedAudioChunkOrEncodedVideoChunk"* dereferenceable(24) %1) #9
  %4 = load atomic i32, i32* getelementptr inbounds (%"class.blink::AtomicEntryFlag", %"class.blink::AtomicEntryFlag"* @_ZN5blink11ThreadState25incremental_marking_flag_E, i64 0, i32 0, i32 0, i32 0, i32 0, i32 0, i32 0) monotonic, align 4
  %5 = icmp eq i32 %4, 0
  br i1 %5, label %29, label %6

6:                                                ; preds = %2
  %7 = load %"class.WTF::ThreadSpecific"*, %"class.WTF::ThreadSpecific"** @_ZN5blink11ThreadState16thread_specific_E, align 8
  %8 = getelementptr inbounds %"class.WTF::ThreadSpecific", %"class.WTF::ThreadSpecific"* %7, i64 0, i32 1
  %9 = tail call i8* @_ZNK4base18ThreadLocalStorage4Slot3GetEv(%"class.base::ThreadLocalStorage::Slot"* %8) #9
  %10 = icmp eq i8* %9, null
  br i1 %10, label %11, label %13, !prof !2

11:                                               ; preds = %6
  %12 = tail call i8* @_ZN3WTF10Partitions16FastZeroedMallocEmPKc(i64 8, i8* getelementptr inbounds ([68 x i8], [68 x i8]* @__PRETTY_FUNCTION__._ZN3WTF21GetStringWithTypeNameIPN5blink11ThreadStateEEEPKcv, i64 0, i64 0)) #9
  tail call void @_ZN4base18ThreadLocalStorage4Slot3SetEPv(%"class.base::ThreadLocalStorage::Slot"* %8, i8* %12) #9
  br label %13

13:                                               ; preds = %11, %6
  %14 = phi i8* [ %12, %11 ], [ %9, %6 ]
  %15 = bitcast i8* %14 to %"class.blink::ThreadState"**
  %16 = load %"class.blink::ThreadState"*, %"class.blink::ThreadState"** %15, align 8
  %17 = getelementptr inbounds %"class.blink::ThreadState", %"class.blink::ThreadState"* %16, i64 0, i32 9
  %18 = load i8, i8* %17, align 1, !range !3
  %19 = icmp eq i8 %18, 0
  br i1 %19, label %29, label %20

20:                                               ; preds = %13
  %21 = getelementptr inbounds %"class.blink::ThreadState", %"class.blink::ThreadState"* %16, i64 0, i32 13
  %22 = load i64, i64* %21, align 8
  %23 = add i64 %22, 1
  store i64 %23, i64* %21, align 8
  %24 = getelementptr inbounds %"class.blink::ThreadState", %"class.blink::ThreadState"* %16, i64 0, i32 24, i32 4, i32 0, i32 0, i32 0
  %25 = load %"class.blink::MarkingVisitor"*, %"class.blink::MarkingVisitor"** %24, align 8
  %26 = getelementptr inbounds %"class.blink::MarkingVisitor", %"class.blink::MarkingVisitor"* %25, i64 0, i32 0, i32 0
  tail call void @_ZNK5blink36EncodedAudioChunkOrEncodedVideoChunk5TraceEPNS_7VisitorE(%"class.blink::EncodedAudioChunkOrEncodedVideoChunk"* %3, %"class.blink::Visitor"* %26) #9
  %27 = load i64, i64* %21, align 8
  %28 = add i64 %27, -1
  store i64 %28, i64* %21, align 8
  br label %29

29:                                               ; preds = %2, %13, %20
  ret %"class.blink::EncodedAudioChunkOrEncodedVideoChunk"* %3
}

declare void @_ZN5blink36EncodedAudioChunkOrEncodedVideoChunkC1ERKS0_(%"class.blink::EncodedAudioChunkOrEncodedVideoChunk"*, %"class.blink::EncodedAudioChunkOrEncodedVideoChunk"* dereferenceable(24)) unnamed_addr #4

; Function Attrs: nounwind ssp uwtable
define linkonce_odr hidden void @_ZN5blink10TraceTraitINS_17EncodedAudioChunkEE5TraceEPNS_7VisitorEPKv(%"class.blink::Visitor"*, i8*) #0 comdat align 2 {
  %3 = getelementptr inbounds i8, i8* %1, i64 32
  %4 = bitcast i8* %3 to i64*
  %5 = load atomic i64, i64* %4 monotonic, align 8
  %6 = icmp eq i64 %5, 0
  br i1 %6, label %13, label %7

7:                                                ; preds = %2
  %8 = inttoptr i64 %5 to i8*
  %9 = bitcast %"class.blink::Visitor"* %0 to void (%"class.blink::Visitor"*, i8*, i8*, void (%"class.blink::Visitor"*, i8*)*)***
  %10 = load void (%"class.blink::Visitor"*, i8*, i8*, void (%"class.blink::Visitor"*, i8*)*)**, void (%"class.blink::Visitor"*, i8*, i8*, void (%"class.blink::Visitor"*, i8*)*)*** %9, align 8
  %11 = getelementptr inbounds void (%"class.blink::Visitor"*, i8*, i8*, void (%"class.blink::Visitor"*, i8*)*)*, void (%"class.blink::Visitor"*, i8*, i8*, void (%"class.blink::Visitor"*, i8*)*)** %10, i64 5
  %12 = load void (%"class.blink::Visitor"*, i8*, i8*, void (%"class.blink::Visitor"*, i8*)*)*, void (%"class.blink::Visitor"*, i8*, i8*, void (%"class.blink::Visitor"*, i8*)*)** %11, align 8
  tail call void %12(%"class.blink::Visitor"* %0, i8* nonnull %8, i8* nonnull %8, void (%"class.blink::Visitor"*, i8*)* nonnull @_ZN5blink10TraceTraitINS_14DOMArrayBufferEE5TraceEPNS_7VisitorEPKv) #9
  br label %13

13:                                               ; preds = %2, %7
  %14 = bitcast i8* %1 to %"class.blink::ScriptWrappable"*
  tail call void @_ZNK5blink15ScriptWrappable5TraceEPNS_7VisitorE(%"class.blink::ScriptWrappable"* %14, %"class.blink::Visitor"* %0) #9
  ret void
}

declare void @_ZNK5blink15ScriptWrappable5TraceEPNS_7VisitorE(%"class.blink::ScriptWrappable"*, %"class.blink::Visitor"*) unnamed_addr #4

; Function Attrs: nounwind ssp uwtable
define linkonce_odr hidden void @_ZN5blink10TraceTraitINS_14DOMArrayBufferEE5TraceEPNS_7VisitorEPKv(%"class.blink::Visitor"*, i8*) #0 comdat align 2 {
  %3 = bitcast i8* %1 to %"class.blink::ScriptWrappable"*
  tail call void @_ZNK5blink15ScriptWrappable5TraceEPNS_7VisitorE(%"class.blink::ScriptWrappable"* %3, %"class.blink::Visitor"* %0) #9
  ret void
}

; Function Attrs: nounwind ssp uwtable
define linkonce_odr hidden void @_ZN5blink10TraceTraitINS_17EncodedVideoChunkEE5TraceEPNS_7VisitorEPKv(%"class.blink::Visitor"*, i8*) #0 comdat align 2 {
  %3 = getelementptr inbounds i8, i8* %1, i64 48
  %4 = bitcast i8* %3 to i64*
  %5 = load atomic i64, i64* %4 monotonic, align 8
  %6 = icmp eq i64 %5, 0
  br i1 %6, label %13, label %7

7:                                                ; preds = %2
  %8 = inttoptr i64 %5 to i8*
  %9 = bitcast %"class.blink::Visitor"* %0 to void (%"class.blink::Visitor"*, i8*, i8*, void (%"class.blink::Visitor"*, i8*)*)***
  %10 = load void (%"class.blink::Visitor"*, i8*, i8*, void (%"class.blink::Visitor"*, i8*)*)**, void (%"class.blink::Visitor"*, i8*, i8*, void (%"class.blink::Visitor"*, i8*)*)*** %9, align 8
  %11 = getelementptr inbounds void (%"class.blink::Visitor"*, i8*, i8*, void (%"class.blink::Visitor"*, i8*)*)*, void (%"class.blink::Visitor"*, i8*, i8*, void (%"class.blink::Visitor"*, i8*)*)** %10, i64 5
  %12 = load void (%"class.blink::Visitor"*, i8*, i8*, void (%"class.blink::Visitor"*, i8*)*)*, void (%"class.blink::Visitor"*, i8*, i8*, void (%"class.blink::Visitor"*, i8*)*)** %11, align 8
  tail call void %12(%"class.blink::Visitor"* %0, i8* nonnull %8, i8* nonnull %8, void (%"class.blink::Visitor"*, i8*)* nonnull @_ZN5blink10TraceTraitINS_14DOMArrayBufferEE5TraceEPNS_7VisitorEPKv) #9
  br label %13

13:                                               ; preds = %2, %7
  %14 = bitcast i8* %1 to %"class.blink::ScriptWrappable"*
  tail call void @_ZNK5blink15ScriptWrappable5TraceEPNS_7VisitorE(%"class.blink::ScriptWrappable"* %14, %"class.blink::Visitor"* %0) #9
  ret void
}

declare zeroext i1 @_ZN5blink16V8PerIsolateData11HasInstanceEPKNS_15WrapperTypeInfoEN2v85LocalINS4_5ValueEEE(%"class.blink::V8PerIsolateData"*, %"struct.blink::WrapperTypeInfo"*, %"class.v8::Value"*) local_unnamed_addr #4

declare i8* @_ZN2v86Object38SlowGetAlignedPointerFromInternalFieldEi(%"class.v8::Object"*, i32) local_unnamed_addr #4

; Function Attrs: nounwind ssp uwtable
define linkonce_odr hidden void @_ZN5blink8bindings29CreateIDLSequenceFromIteratorINS_36EncodedAudioChunkOrEncodedVideoChunkEEENS_17NativeValueTraitsINS_11IDLSequenceIT_EEvE8ImplTypeEPN2v87IsolateENS_14ScriptIteratorERNS_14ExceptionStateE(%"class.blink::HeapVector"* noalias sret, %"class.v8::Isolate"*, %"class.blink::ScriptIterator"* byval(%"class.blink::ScriptIterator") align 8, %"class.blink::ExceptionState"* dereferenceable(72)) local_unnamed_addr #0 comdat {
  %5 = alloca %"class.blink::HeapVector", align 8
  %6 = alloca %"class.blink::EncodedAudioChunkOrEncodedVideoChunk", align 8
  %7 = tail call %"class.v8::Context"* @_ZN2v87Isolate17GetCurrentContextEv(%"class.v8::Isolate"* %1) #9
  %8 = tail call %"class.blink::ExecutionContext"* @_ZN5blink18ToExecutionContextEN2v85LocalINS0_7ContextEEE(%"class.v8::Context"* %7) #9
  %9 = bitcast %"class.blink::HeapVector"* %5 to i8*
  call void @llvm.lifetime.start.p0i8(i64 16, i8* nonnull %9) #9
  %10 = getelementptr inbounds %"class.blink::HeapVector", %"class.blink::HeapVector"* %5, i64 0, i32 0, i32 0, i32 0, i32 0
  %11 = getelementptr inbounds %"class.blink::HeapVector", %"class.blink::HeapVector"* %5, i64 0, i32 0, i32 0, i32 0, i32 1
  %12 = getelementptr inbounds %"class.blink::HeapVector", %"class.blink::HeapVector"* %5, i64 0, i32 0, i32 0, i32 0, i32 2
  call void @llvm.memset.p0i8.i64(i8* nonnull align 8 %9, i8 0, i64 16, i1 false) #9
  %13 = call zeroext i1 @_ZN5blink14ScriptIterator4NextEPNS_16ExecutionContextERNS_14ExceptionStateEN2v85LocalINS5_5ValueEEE(%"class.blink::ScriptIterator"* nonnull %2, %"class.blink::ExecutionContext"* %8, %"class.blink::ExceptionState"* dereferenceable(72) %3, %"class.v8::Value"* null) #9
  br i1 %13, label %14, label %43

14:                                               ; preds = %4
  %15 = getelementptr inbounds %"class.blink::ScriptIterator", %"class.blink::ScriptIterator"* %2, i64 0, i32 6, i32 0
  %16 = bitcast %"class.blink::EncodedAudioChunkOrEncodedVideoChunk"* %6 to i8*
  %17 = getelementptr inbounds %"class.blink::ExceptionState", %"class.blink::ExceptionState"* %3, i64 0, i32 4
  %18 = getelementptr inbounds %"class.blink::HeapVector", %"class.blink::HeapVector"* %5, i64 0, i32 0
  br label %19

19:                                               ; preds = %14, %41
  %20 = load %"class.v8::Value"*, %"class.v8::Value"** %15, align 8
  %21 = icmp eq %"class.v8::Value"* %20, null
  br i1 %21, label %22, label %23, !prof !2

22:                                               ; preds = %19
  call void @_ZN2v82V812ToLocalEmptyEv() #9
  br label %23

23:                                               ; preds = %19, %22
  call void @llvm.lifetime.start.p0i8(i64 24, i8* nonnull %16) #9
  call void @_ZN5blink17NativeValueTraitsINS_36EncodedAudioChunkOrEncodedVideoChunkEvE11NativeValueEPN2v87IsolateENS3_5LocalINS3_5ValueEEERNS_14ExceptionStateE(%"class.blink::EncodedAudioChunkOrEncodedVideoChunk"* nonnull sret %6, %"class.v8::Isolate"* %1, %"class.v8::Value"* %20, %"class.blink::ExceptionState"* dereferenceable(72) %3) #9
  %24 = load i32, i32* %17, align 8
  %25 = icmp eq i32 %24, 0
  br i1 %25, label %28, label %26

26:                                               ; preds = %23
  %27 = bitcast %"class.blink::HeapVector"* %0 to i8*
  call void @llvm.memset.p0i8.i64(i8* align 8 %27, i8 0, i64 16, i1 false)
  call void @_ZN5blink36EncodedAudioChunkOrEncodedVideoChunkD1Ev(%"class.blink::EncodedAudioChunkOrEncodedVideoChunk"* nonnull %6) #9
  call void @llvm.lifetime.end.p0i8(i64 24, i8* nonnull %16) #9
  br label %70

28:                                               ; preds = %23
  %29 = load i32, i32* %12, align 4
  %30 = load i32, i32* %11, align 8
  %31 = icmp eq i32 %29, %30
  br i1 %31, label %40, label %32, !prof !2

32:                                               ; preds = %28
  %33 = load %"class.blink::EncodedAudioChunkOrEncodedVideoChunk"*, %"class.blink::EncodedAudioChunkOrEncodedVideoChunk"** %10, align 8
  %34 = zext i32 %29 to i64
  %35 = getelementptr inbounds %"class.blink::EncodedAudioChunkOrEncodedVideoChunk", %"class.blink::EncodedAudioChunkOrEncodedVideoChunk"* %33, i64 %34
  %36 = bitcast %"class.blink::EncodedAudioChunkOrEncodedVideoChunk"* %35 to i8*
  %37 = call %"class.blink::EncodedAudioChunkOrEncodedVideoChunk"* @_ZN3WTF15ConstructTraitsIN5blink36EncodedAudioChunkOrEncodedVideoChunkENS_12VectorTraitsIS2_EENS1_13HeapAllocatorEE25ConstructAndNotifyElementIJS2_EEEPS2_PvDpOT_(i8* %36, %"class.blink::EncodedAudioChunkOrEncodedVideoChunk"* nonnull dereferenceable(24) %6) #9
  %38 = load i32, i32* %12, align 4
  %39 = add i32 %38, 1
  store i32 %39, i32* %12, align 4
  br label %41

40:                                               ; preds = %28
  call void @_ZN3WTF6VectorIN5blink36EncodedAudioChunkOrEncodedVideoChunkELj0ENS1_13HeapAllocatorEE14AppendSlowCaseIS2_EEvOT_(%"class.WTF::Vector"* nonnull %18, %"class.blink::EncodedAudioChunkOrEncodedVideoChunk"* nonnull dereferenceable(24) %6) #9
  br label %41

41:                                               ; preds = %32, %40
  call void @_ZN5blink36EncodedAudioChunkOrEncodedVideoChunkD1Ev(%"class.blink::EncodedAudioChunkOrEncodedVideoChunk"* nonnull %6) #9
  call void @llvm.lifetime.end.p0i8(i64 24, i8* nonnull %16) #9
  %42 = call zeroext i1 @_ZN5blink14ScriptIterator4NextEPNS_16ExecutionContextERNS_14ExceptionStateEN2v85LocalINS5_5ValueEEE(%"class.blink::ScriptIterator"* nonnull %2, %"class.blink::ExecutionContext"* %8, %"class.blink::ExceptionState"* dereferenceable(72) %3, %"class.v8::Value"* null) #9
  br i1 %42, label %19, label %43

43:                                               ; preds = %41, %4
  %44 = getelementptr inbounds %"class.blink::ExceptionState", %"class.blink::ExceptionState"* %3, i64 0, i32 4
  %45 = load i32, i32* %44, align 8
  %46 = icmp eq i32 %45, 0
  br i1 %46, label %49, label %47

47:                                               ; preds = %43
  %48 = bitcast %"class.blink::HeapVector"* %0 to i8*
  call void @llvm.memset.p0i8.i64(i8* align 8 %48, i8 0, i64 16, i1 false)
  br label %70

49:                                               ; preds = %43
  %50 = getelementptr inbounds %"class.blink::HeapVector", %"class.blink::HeapVector"* %0, i64 0, i32 0, i32 0, i32 0, i32 1
  %51 = getelementptr inbounds %"class.blink::HeapVector", %"class.blink::HeapVector"* %0, i64 0, i32 0, i32 0, i32 0, i32 2
  %52 = bitcast %"class.blink::HeapVector"* %5 to i64*
  %53 = bitcast %"class.blink::HeapVector"* %0 to i64*
  store i64 0, i64* %53, align 8
  %54 = load i64, i64* %52, align 8
  %55 = bitcast %"class.blink::HeapVector"* %0 to i64*
  store atomic i64 0, i64* %52 monotonic, align 8
  store atomic i64 %54, i64* %55 monotonic, align 8
  %56 = load i32, i32* %11, align 8
  store i32 %56, i32* %50, align 8
  store i32 0, i32* %11, align 8
  %57 = load i32, i32* %12, align 4
  store i32 %57, i32* %51, align 4
  store i32 0, i32* %12, align 4
  %58 = load atomic i32, i32* getelementptr inbounds (%"class.blink::AtomicEntryFlag", %"class.blink::AtomicEntryFlag"* @_ZN5blink11ThreadState25incremental_marking_flag_E, i64 0, i32 0, i32 0, i32 0, i32 0, i32 0, i32 0) monotonic, align 4
  %59 = icmp eq i32 %58, 0
  br i1 %59, label %63, label %60

60:                                               ; preds = %49
  %61 = inttoptr i64 %54 to i8*
  %62 = call zeroext i1 @_ZN5blink14MarkingVisitor16WriteBarrierSlowEPv(i8* %61) #9
  br label %63

63:                                               ; preds = %60, %49
  %64 = load atomic i32, i32* getelementptr inbounds (%"class.blink::AtomicEntryFlag", %"class.blink::AtomicEntryFlag"* @_ZN5blink11ThreadState25incremental_marking_flag_E, i64 0, i32 0, i32 0, i32 0, i32 0, i32 0, i32 0) monotonic, align 4
  %65 = icmp eq i32 %64, 0
  br i1 %65, label %70, label %66

66:                                               ; preds = %63
  %67 = bitcast %"class.blink::HeapVector"* %5 to i8**
  %68 = load i8*, i8** %67, align 8
  %69 = call zeroext i1 @_ZN5blink14MarkingVisitor16WriteBarrierSlowEPv(i8* %68) #9
  br label %70

70:                                               ; preds = %66, %63, %26, %47
  call void @llvm.lifetime.end.p0i8(i64 16, i8* nonnull %9) #9
  ret void
}

declare %"class.blink::ExecutionContext"* @_ZN5blink18ToExecutionContextEN2v85LocalINS0_7ContextEEE(%"class.v8::Context"*) local_unnamed_addr #4

declare zeroext i1 @_ZN5blink14ScriptIterator4NextEPNS_16ExecutionContextERNS_14ExceptionStateEN2v85LocalINS5_5ValueEEE(%"class.blink::ScriptIterator"*, %"class.blink::ExecutionContext"*, %"class.blink::ExceptionState"* dereferenceable(72), %"class.v8::Value"*) local_unnamed_addr #4

declare void @_ZN5blink17NativeValueTraitsINS_36EncodedAudioChunkOrEncodedVideoChunkEvE11NativeValueEPN2v87IsolateENS3_5LocalINS3_5ValueEEERNS_14ExceptionStateE(%"class.blink::EncodedAudioChunkOrEncodedVideoChunk"* sret, %"class.v8::Isolate"*, %"class.v8::Value"*, %"class.blink::ExceptionState"* dereferenceable(72)) local_unnamed_addr #4

; Function Attrs: nounwind ssp uwtable
define linkonce_odr hidden %"class.blink::EncodedAudioChunkOrEncodedVideoChunk"* @_ZN3WTF15ConstructTraitsIN5blink36EncodedAudioChunkOrEncodedVideoChunkENS_12VectorTraitsIS2_EENS1_13HeapAllocatorEE25ConstructAndNotifyElementIJS2_EEEPS2_PvDpOT_(i8*, %"class.blink::EncodedAudioChunkOrEncodedVideoChunk"* dereferenceable(24)) local_unnamed_addr #0 comdat align 2 {
  %3 = bitcast i8* %0 to %"class.blink::EncodedAudioChunkOrEncodedVideoChunk"*
  tail call void @_ZN5blink36EncodedAudioChunkOrEncodedVideoChunkC1ERKS0_(%"class.blink::EncodedAudioChunkOrEncodedVideoChunk"* %3, %"class.blink::EncodedAudioChunkOrEncodedVideoChunk"* dereferenceable(24) %1) #9
  %4 = load atomic i32, i32* getelementptr inbounds (%"class.blink::AtomicEntryFlag", %"class.blink::AtomicEntryFlag"* @_ZN5blink11ThreadState25incremental_marking_flag_E, i64 0, i32 0, i32 0, i32 0, i32 0, i32 0, i32 0) monotonic, align 4
  %5 = icmp eq i32 %4, 0
  br i1 %5, label %29, label %6

6:                                                ; preds = %2
  %7 = load %"class.WTF::ThreadSpecific"*, %"class.WTF::ThreadSpecific"** @_ZN5blink11ThreadState16thread_specific_E, align 8
  %8 = getelementptr inbounds %"class.WTF::ThreadSpecific", %"class.WTF::ThreadSpecific"* %7, i64 0, i32 1
  %9 = tail call i8* @_ZNK4base18ThreadLocalStorage4Slot3GetEv(%"class.base::ThreadLocalStorage::Slot"* %8) #9
  %10 = icmp eq i8* %9, null
  br i1 %10, label %11, label %13, !prof !2

11:                                               ; preds = %6
  %12 = tail call i8* @_ZN3WTF10Partitions16FastZeroedMallocEmPKc(i64 8, i8* getelementptr inbounds ([68 x i8], [68 x i8]* @__PRETTY_FUNCTION__._ZN3WTF21GetStringWithTypeNameIPN5blink11ThreadStateEEEPKcv, i64 0, i64 0)) #9
  tail call void @_ZN4base18ThreadLocalStorage4Slot3SetEPv(%"class.base::ThreadLocalStorage::Slot"* %8, i8* %12) #9
  br label %13

13:                                               ; preds = %11, %6
  %14 = phi i8* [ %12, %11 ], [ %9, %6 ]
  %15 = bitcast i8* %14 to %"class.blink::ThreadState"**
  %16 = load %"class.blink::ThreadState"*, %"class.blink::ThreadState"** %15, align 8
  %17 = getelementptr inbounds %"class.blink::ThreadState", %"class.blink::ThreadState"* %16, i64 0, i32 9
  %18 = load i8, i8* %17, align 1, !range !3
  %19 = icmp eq i8 %18, 0
  br i1 %19, label %29, label %20

20:                                               ; preds = %13
  %21 = getelementptr inbounds %"class.blink::ThreadState", %"class.blink::ThreadState"* %16, i64 0, i32 13
  %22 = load i64, i64* %21, align 8
  %23 = add i64 %22, 1
  store i64 %23, i64* %21, align 8
  %24 = getelementptr inbounds %"class.blink::ThreadState", %"class.blink::ThreadState"* %16, i64 0, i32 24, i32 4, i32 0, i32 0, i32 0
  %25 = load %"class.blink::MarkingVisitor"*, %"class.blink::MarkingVisitor"** %24, align 8
  %26 = getelementptr inbounds %"class.blink::MarkingVisitor", %"class.blink::MarkingVisitor"* %25, i64 0, i32 0, i32 0
  tail call void @_ZNK5blink36EncodedAudioChunkOrEncodedVideoChunk5TraceEPNS_7VisitorE(%"class.blink::EncodedAudioChunkOrEncodedVideoChunk"* %3, %"class.blink::Visitor"* %26) #9
  %27 = load i64, i64* %21, align 8
  %28 = add i64 %27, -1
  store i64 %28, i64* %21, align 8
  br label %29

29:                                               ; preds = %2, %13, %20
  ret %"class.blink::EncodedAudioChunkOrEncodedVideoChunk"* %3
}

; Function Attrs: noinline nounwind ssp uwtable
define linkonce_odr hidden void @_ZN3WTF6VectorIN5blink36EncodedAudioChunkOrEncodedVideoChunkELj0ENS1_13HeapAllocatorEE14AppendSlowCaseIS2_EEvOT_(%"class.WTF::Vector"*, %"class.blink::EncodedAudioChunkOrEncodedVideoChunk"* dereferenceable(24)) local_unnamed_addr #6 comdat align 2 {
  %3 = getelementptr inbounds %"class.WTF::Vector", %"class.WTF::Vector"* %0, i64 0, i32 0, i32 0, i32 2
  %4 = load i32, i32* %3, align 4
  %5 = add i32 %4, 1
  %6 = getelementptr inbounds %"class.WTF::Vector", %"class.WTF::Vector"* %0, i64 0, i32 0, i32 0, i32 0
  %7 = load %"class.blink::EncodedAudioChunkOrEncodedVideoChunk"*, %"class.blink::EncodedAudioChunkOrEncodedVideoChunk"** %6, align 8
  %8 = icmp ugt %"class.blink::EncodedAudioChunkOrEncodedVideoChunk"* %7, %1
  br i1 %8, label %13, label %9

9:                                                ; preds = %2
  %10 = zext i32 %4 to i64
  %11 = getelementptr inbounds %"class.blink::EncodedAudioChunkOrEncodedVideoChunk", %"class.blink::EncodedAudioChunkOrEncodedVideoChunk"* %7, i64 %10
  %12 = icmp ugt %"class.blink::EncodedAudioChunkOrEncodedVideoChunk"* %11, %1
  br i1 %12, label %24, label %13

13:                                               ; preds = %9, %2
  %14 = getelementptr inbounds %"class.WTF::Vector", %"class.WTF::Vector"* %0, i64 0, i32 0, i32 0, i32 1
  %15 = load i32, i32* %14, align 8
  %16 = lshr i32 %15, 2
  %17 = add i32 %15, 1
  %18 = add i32 %17, %16
  %19 = icmp ugt i32 %18, 4
  %20 = select i1 %19, i32 %18, i32 4
  %21 = icmp ugt i32 %20, %5
  %22 = select i1 %21, i32 %20, i32 %5
  tail call void @_ZN3WTF6VectorIN5blink36EncodedAudioChunkOrEncodedVideoChunkELj0ENS1_13HeapAllocatorEE15ReserveCapacityEj(%"class.WTF::Vector"* %0, i32 %22) #9
  %23 = load %"class.blink::EncodedAudioChunkOrEncodedVideoChunk"*, %"class.blink::EncodedAudioChunkOrEncodedVideoChunk"** %6, align 8
  br label %40

24:                                               ; preds = %9
  %25 = ptrtoint %"class.blink::EncodedAudioChunkOrEncodedVideoChunk"* %1 to i64
  %26 = ptrtoint %"class.blink::EncodedAudioChunkOrEncodedVideoChunk"* %7 to i64
  %27 = sub i64 %25, %26
  %28 = sdiv exact i64 %27, 24
  %29 = getelementptr inbounds %"class.WTF::Vector", %"class.WTF::Vector"* %0, i64 0, i32 0, i32 0, i32 1
  %30 = load i32, i32* %29, align 8
  %31 = lshr i32 %30, 2
  %32 = add i32 %30, 1
  %33 = add i32 %32, %31
  %34 = icmp ugt i32 %33, 4
  %35 = select i1 %34, i32 %33, i32 4
  %36 = icmp ugt i32 %35, %5
  %37 = select i1 %36, i32 %35, i32 %5
  tail call void @_ZN3WTF6VectorIN5blink36EncodedAudioChunkOrEncodedVideoChunkELj0ENS1_13HeapAllocatorEE15ReserveCapacityEj(%"class.WTF::Vector"* %0, i32 %37) #9
  %38 = load %"class.blink::EncodedAudioChunkOrEncodedVideoChunk"*, %"class.blink::EncodedAudioChunkOrEncodedVideoChunk"** %6, align 8
  %39 = getelementptr inbounds %"class.blink::EncodedAudioChunkOrEncodedVideoChunk", %"class.blink::EncodedAudioChunkOrEncodedVideoChunk"* %38, i64 %28
  br label %40

40:                                               ; preds = %13, %24
  %41 = phi %"class.blink::EncodedAudioChunkOrEncodedVideoChunk"* [ %23, %13 ], [ %38, %24 ]
  %42 = phi %"class.blink::EncodedAudioChunkOrEncodedVideoChunk"* [ %1, %13 ], [ %39, %24 ]
  %43 = load i32, i32* %3, align 4
  %44 = zext i32 %43 to i64
  %45 = getelementptr inbounds %"class.blink::EncodedAudioChunkOrEncodedVideoChunk", %"class.blink::EncodedAudioChunkOrEncodedVideoChunk"* %41, i64 %44
  %46 = bitcast %"class.blink::EncodedAudioChunkOrEncodedVideoChunk"* %45 to i8*
  %47 = tail call %"class.blink::EncodedAudioChunkOrEncodedVideoChunk"* @_ZN3WTF15ConstructTraitsIN5blink36EncodedAudioChunkOrEncodedVideoChunkENS_12VectorTraitsIS2_EENS1_13HeapAllocatorEE25ConstructAndNotifyElementIJS2_EEEPS2_PvDpOT_(i8* %46, %"class.blink::EncodedAudioChunkOrEncodedVideoChunk"* dereferenceable(24) %42)
  %48 = load i32, i32* %3, align 4
  %49 = add i32 %48, 1
  store i32 %49, i32* %3, align 4
  ret void
}

; Function Attrs: inlinehint nounwind ssp uwtable
define linkonce_odr hidden %"class.v8::Array"* @_ZN5blink20ToV8SequenceInternalINS_10HeapVectorINS_36EncodedAudioChunkOrEncodedVideoChunkELj0EEEEEN2v85LocalINS4_5ArrayEEERKT_NS5_INS4_6ObjectEEEPNS4_7IsolateE(%"class.blink::HeapVector"* dereferenceable(16), %"class.v8::Object"*, %"class.v8::Isolate"*) local_unnamed_addr #7 comdat {
  %4 = alloca %"class.absl::optional.373", align 8
  %5 = getelementptr inbounds %"class.absl::optional.373", %"class.absl::optional.373"* %4, i64 0, i32 0, i32 0, i32 0, i32 0
  call void @llvm.lifetime.start.p0i8(i64 56, i8* nonnull %5) #9
  %6 = bitcast %"class.absl::optional.373"* %4 to i64*
  store i64 -6148914691236517206, i64* %6, align 8
  store i8 0, i8* %5, align 8
  %7 = getelementptr inbounds %"class.absl::optional.373", %"class.absl::optional.373"* %4, i64 0, i32 0, i32 0, i32 0, i32 1
  %8 = bitcast %union.anon.377* %7 to i8*
  call void @llvm.memset.p0i8.i64(i8* align 8 %8, i8 0, i64 48, i1 false) #9
  %9 = load i8, i8* @_ZN5blink26RuntimeEnabledFeaturesBase36is_blink_runtime_call_stats_enabled_E, align 1, !range !3
  %10 = icmp eq i8 %9, 0
  br i1 %10, label %25, label %11, !prof !4

11:                                               ; preds = %3
  %12 = tail call %"class.blink::RuntimeCallStats"* @_ZN5blink16RuntimeCallStats4FromEPN2v87IsolateE(%"class.v8::Isolate"* %2) #9
  %13 = getelementptr inbounds %"class.blink::RuntimeCallStats", %"class.blink::RuntimeCallStats"* %12, i64 0, i32 3
  %14 = bitcast %"class.base::TickClock"** %13 to i64*
  %15 = load i64, i64* %14, align 8
  %16 = getelementptr inbounds %"class.absl::optional.373", %"class.absl::optional.373"* %4, i64 0, i32 0, i32 0, i32 0, i32 1, i32 0, i32 0
  store %"class.blink::RuntimeCallStats"* %12, %"class.blink::RuntimeCallStats"** %16, align 8
  %17 = getelementptr inbounds %"class.absl::optional.373", %"class.absl::optional.373"* %4, i64 0, i32 0, i32 0, i32 0, i32 1, i32 0, i32 1
  %18 = getelementptr inbounds %"class.absl::optional.373", %"class.absl::optional.373"* %4, i64 0, i32 0, i32 0, i32 0, i32 1, i32 0, i32 1, i32 2, i32 0, i32 0
  %19 = getelementptr inbounds %"class.absl::optional.373", %"class.absl::optional.373"* %4, i64 0, i32 0, i32 0, i32 0, i32 1, i32 0, i32 1, i32 4
  %20 = bitcast i64* %18 to i8*
  call void @llvm.memset.p0i8.i64(i8* align 8 %20, i8 0, i64 16, i1 false) #9
  %21 = bitcast %"class.base::TickClock"** %19 to i64*
  store i64 %15, i64* %21, align 8
  %22 = getelementptr inbounds %"class.blink::RuntimeCallStats", %"class.blink::RuntimeCallStats"* %12, i64 0, i32 2, i64 5
  %23 = getelementptr inbounds %"class.blink::RuntimeCallStats", %"class.blink::RuntimeCallStats"* %12, i64 0, i32 0
  %24 = load %"class.blink::RuntimeCallTimer"*, %"class.blink::RuntimeCallTimer"** %23, align 8
  call void @_ZN5blink16RuntimeCallTimer5StartEPNS_18RuntimeCallCounterEPS0_(%"class.blink::RuntimeCallTimer"* %17, %"class.blink::RuntimeCallCounter"* %22, %"class.blink::RuntimeCallTimer"* %24) #9
  store %"class.blink::RuntimeCallTimer"* %17, %"class.blink::RuntimeCallTimer"** %23, align 8
  store i8 1, i8* %5, align 8
  br label %25

25:                                               ; preds = %3, %11
  %26 = call %"class.v8::Context"* @_ZN2v86Object15CreationContextEv(%"class.v8::Object"* %1) #9
  call void @_ZN2v87Context5EnterEv(%"class.v8::Context"* %26) #9
  %27 = getelementptr inbounds %"class.blink::HeapVector", %"class.blink::HeapVector"* %0, i64 0, i32 0, i32 0, i32 0, i32 2
  %28 = load i32, i32* %27, align 4
  %29 = icmp sgt i32 %28, -1
  br i1 %29, label %31, label %30, !prof !4

30:                                               ; preds = %25
  call void @llvm.trap() #9
  unreachable

31:                                               ; preds = %25
  %32 = call %"class.v8::Array"* @_ZN2v85Array3NewEPNS_7IsolateEi(%"class.v8::Isolate"* %2, i32 %28) #9
  %33 = ptrtoint %"class.v8::Array"* %32 to i64
  call void @_ZN2v87Context4ExitEv(%"class.v8::Context"* %26) #9
  %34 = call %"class.v8::Context"* @_ZN2v87Isolate17GetCurrentContextEv(%"class.v8::Isolate"* %2) #9
  %35 = getelementptr inbounds %"class.blink::HeapVector", %"class.blink::HeapVector"* %0, i64 0, i32 0, i32 0, i32 0, i32 0
  %36 = load %"class.blink::EncodedAudioChunkOrEncodedVideoChunk"*, %"class.blink::EncodedAudioChunkOrEncodedVideoChunk"** %35, align 8
  %37 = load i32, i32* %27, align 4
  %38 = zext i32 %37 to i64
  %39 = getelementptr inbounds %"class.blink::EncodedAudioChunkOrEncodedVideoChunk", %"class.blink::EncodedAudioChunkOrEncodedVideoChunk"* %36, i64 %38
  %40 = icmp eq i32 %37, 0
  br i1 %40, label %62, label %41

41:                                               ; preds = %31
  %42 = bitcast %"class.v8::Array"* %32 to %"class.v8::Object"*
  %43 = ptrtoint %"class.v8::Isolate"* %2 to i64
  %44 = add i64 %43, 160
  br label %45

45:                                               ; preds = %41, %58
  %46 = phi i32 [ 0, %41 ], [ %59, %58 ]
  %47 = phi %"class.blink::EncodedAudioChunkOrEncodedVideoChunk"* [ %36, %41 ], [ %60, %58 ]
  %48 = call %"class.v8::Value"* @_ZN5blink4ToV8ERKNS_36EncodedAudioChunkOrEncodedVideoChunkEN2v85LocalINS3_6ObjectEEEPNS3_7IsolateE(%"class.blink::EncodedAudioChunkOrEncodedVideoChunk"* dereferenceable(24) %47, %"class.v8::Object"* %42, %"class.v8::Isolate"* %2) #9
  %49 = ptrtoint %"class.v8::Value"* %48 to i64
  %50 = icmp eq %"class.v8::Value"* %48, null
  %51 = select i1 %50, i64 %44, i64 %49
  %52 = inttoptr i64 %51 to %"class.v8::Value"*
  %53 = call i16 @_ZN2v86Object18CreateDataPropertyENS_5LocalINS_7ContextEEEjNS1_INS_5ValueEEE(%"class.v8::Object"* %42, %"class.v8::Context"* %34, i32 %46, %"class.v8::Value"* %52) #9
  %54 = trunc i16 %53 to i8
  %55 = icmp eq i8 %54, 0
  %56 = icmp ult i16 %53, 256
  %57 = or i1 %56, %55
  br i1 %57, label %62, label %58, !prof !5

58:                                               ; preds = %45
  %59 = add i32 %46, 1
  %60 = getelementptr inbounds %"class.blink::EncodedAudioChunkOrEncodedVideoChunk", %"class.blink::EncodedAudioChunkOrEncodedVideoChunk"* %47, i64 1
  %61 = icmp eq %"class.blink::EncodedAudioChunkOrEncodedVideoChunk"* %60, %39
  br i1 %61, label %62, label %45

62:                                               ; preds = %58, %45, %31
  %63 = phi i64 [ %33, %31 ], [ 0, %45 ], [ %33, %58 ]
  %64 = load i8, i8* %5, align 8, !range !3
  %65 = icmp eq i8 %64, 0
  br i1 %65, label %72, label %66

66:                                               ; preds = %62
  %67 = getelementptr inbounds %"class.absl::optional.373", %"class.absl::optional.373"* %4, i64 0, i32 0, i32 0, i32 0, i32 1, i32 0, i32 0
  %68 = load %"class.blink::RuntimeCallStats"*, %"class.blink::RuntimeCallStats"** %67, align 8
  %69 = getelementptr inbounds %"class.absl::optional.373", %"class.absl::optional.373"* %4, i64 0, i32 0, i32 0, i32 0, i32 1, i32 0, i32 1
  %70 = call %"class.blink::RuntimeCallTimer"* @_ZN5blink16RuntimeCallTimer4StopEv(%"class.blink::RuntimeCallTimer"* %69) #9
  %71 = getelementptr inbounds %"class.blink::RuntimeCallStats", %"class.blink::RuntimeCallStats"* %68, i64 0, i32 0
  store %"class.blink::RuntimeCallTimer"* %70, %"class.blink::RuntimeCallTimer"** %71, align 8
  store i8 0, i8* %5, align 8
  br label %72

72:                                               ; preds = %62, %66
  call void @llvm.lifetime.end.p0i8(i64 56, i8* nonnull %5) #9
  %73 = inttoptr i64 %63 to %"class.v8::Array"*
  ret %"class.v8::Array"* %73
}

declare %"class.blink::RuntimeCallStats"* @_ZN5blink16RuntimeCallStats4FromEPN2v87IsolateE(%"class.v8::Isolate"*) local_unnamed_addr #4

declare %"class.v8::Array"* @_ZN2v85Array3NewEPNS_7IsolateEi(%"class.v8::Isolate"*, i32) local_unnamed_addr #4

declare %"class.v8::Value"* @_ZN5blink4ToV8ERKNS_36EncodedAudioChunkOrEncodedVideoChunkEN2v85LocalINS3_6ObjectEEEPNS3_7IsolateE(%"class.blink::EncodedAudioChunkOrEncodedVideoChunk"* dereferenceable(24), %"class.v8::Object"*, %"class.v8::Isolate"*) local_unnamed_addr #4

declare i16 @_ZN2v86Object18CreateDataPropertyENS_5LocalINS_7ContextEEEjNS1_INS_5ValueEEE(%"class.v8::Object"*, %"class.v8::Context"*, i32, %"class.v8::Value"*) local_unnamed_addr #4

declare %"class.blink::RuntimeCallTimer"* @_ZN5blink16RuntimeCallTimer4StopEv(%"class.blink::RuntimeCallTimer"*) local_unnamed_addr #4

declare void @_ZN5blink16RuntimeCallTimer5StartEPNS_18RuntimeCallCounterEPS0_(%"class.blink::RuntimeCallTimer"*, %"class.blink::RuntimeCallCounter"*, %"class.blink::RuntimeCallTimer"*) local_unnamed_addr #4

declare void @_ZN2v87Context5EnterEv(%"class.v8::Context"*) local_unnamed_addr #4

; Function Attrs: cold noreturn nounwind
declare void @llvm.trap() #8

declare void @_ZN2v87Context4ExitEv(%"class.v8::Context"*) local_unnamed_addr #4

attributes #0 = { nounwind ssp uwtable "correctly-rounded-divide-sqrt-fp-math"="false" "disable-tail-calls"="false" "less-precise-fpmad"="false" "min-legal-vector-width"="0" "no-frame-pointer-elim"="false" "no-frame-pointer-elim-non-leaf" "no-infs-fp-math"="false" "no-jump-tables"="false" "no-nans-fp-math"="false" "no-signed-zeros-fp-math"="false" "no-trapping-math"="false" "null-pointer-is-valid"="true" "stack-protector-buffer-size"="4" "target-cpu"="x86-64" "target-features"="+cx8,+fxsr,+mmx,+sse,+sse2,+sse3,+x87" "unsafe-fp-math"="false" "use-soft-float"="false" }
attributes #1 = { norecurse nounwind readonly ssp uwtable "correctly-rounded-divide-sqrt-fp-math"="false" "disable-tail-calls"="false" "less-precise-fpmad"="false" "min-legal-vector-width"="0" "no-frame-pointer-elim"="false" "no-frame-pointer-elim-non-leaf" "no-infs-fp-math"="false" "no-jump-tables"="false" "no-nans-fp-math"="false" "no-signed-zeros-fp-math"="false" "no-trapping-math"="false" "null-pointer-is-valid"="true" "stack-protector-buffer-size"="4" "target-cpu"="x86-64" "target-features"="+cx8,+fxsr,+mmx,+sse,+sse2,+sse3,+x87" "unsafe-fp-math"="false" "use-soft-float"="false" }
attributes #2 = { argmemonly nounwind }
attributes #3 = { norecurse nounwind readnone ssp uwtable "correctly-rounded-divide-sqrt-fp-math"="false" "disable-tail-calls"="false" "less-precise-fpmad"="false" "min-legal-vector-width"="0" "no-frame-pointer-elim"="false" "no-frame-pointer-elim-non-leaf" "no-infs-fp-math"="false" "no-jump-tables"="false" "no-nans-fp-math"="false" "no-signed-zeros-fp-math"="false" "no-trapping-math"="false" "null-pointer-is-valid"="true" "stack-protector-buffer-size"="4" "target-cpu"="x86-64" "target-features"="+cx8,+fxsr,+mmx,+sse,+sse2,+sse3,+x87" "unsafe-fp-math"="false" "use-soft-float"="false" }
attributes #4 = { "correctly-rounded-divide-sqrt-fp-math"="false" "disable-tail-calls"="false" "less-precise-fpmad"="false" "no-frame-pointer-elim"="false" "no-frame-pointer-elim-non-leaf" "no-infs-fp-math"="false" "no-nans-fp-math"="false" "no-signed-zeros-fp-math"="false" "no-trapping-math"="false" "null-pointer-is-valid"="true" "stack-protector-buffer-size"="4" "target-cpu"="x86-64" "target-features"="+cx8,+fxsr,+mmx,+sse,+sse2,+sse3,+x87" "unsafe-fp-math"="false" "use-soft-float"="false" }
attributes #5 = { nounwind "correctly-rounded-divide-sqrt-fp-math"="false" "disable-tail-calls"="false" "less-precise-fpmad"="false" "no-frame-pointer-elim"="false" "no-frame-pointer-elim-non-leaf" "no-infs-fp-math"="false" "no-nans-fp-math"="false" "no-signed-zeros-fp-math"="false" "no-trapping-math"="false" "null-pointer-is-valid"="true" "stack-protector-buffer-size"="4" "target-cpu"="x86-64" "target-features"="+cx8,+fxsr,+mmx,+sse,+sse2,+sse3,+x87" "unsafe-fp-math"="false" "use-soft-float"="false" }
attributes #6 = { noinline nounwind ssp uwtable "correctly-rounded-divide-sqrt-fp-math"="false" "disable-tail-calls"="false" "less-precise-fpmad"="false" "min-legal-vector-width"="0" "no-frame-pointer-elim"="false" "no-frame-pointer-elim-non-leaf" "no-infs-fp-math"="false" "no-jump-tables"="false" "no-nans-fp-math"="false" "no-signed-zeros-fp-math"="false" "no-trapping-math"="false" "null-pointer-is-valid"="true" "stack-protector-buffer-size"="4" "target-cpu"="x86-64" "target-features"="+cx8,+fxsr,+mmx,+sse,+sse2,+sse3,+x87" "unsafe-fp-math"="false" "use-soft-float"="false" }
attributes #7 = { inlinehint nounwind ssp uwtable "correctly-rounded-divide-sqrt-fp-math"="false" "disable-tail-calls"="false" "less-precise-fpmad"="false" "min-legal-vector-width"="0" "no-frame-pointer-elim"="false" "no-frame-pointer-elim-non-leaf" "no-infs-fp-math"="false" "no-jump-tables"="false" "no-nans-fp-math"="false" "no-signed-zeros-fp-math"="false" "no-trapping-math"="false" "null-pointer-is-valid"="true" "stack-protector-buffer-size"="4" "target-cpu"="x86-64" "target-features"="+cx8,+fxsr,+mmx,+sse,+sse2,+sse3,+x87" "unsafe-fp-math"="false" "use-soft-float"="false" }
attributes #8 = { cold noreturn nounwind }
attributes #9 = { nounwind }

!llvm.module.flags = !{!0, !1}

!0 = !{i32 1, !"wchar_size", i32 4}
!1 = !{i32 7, !"PIC Level", i32 2}
!2 = !{!"branch_weights", i32 1, i32 2000}
!3 = !{i8 0, i8 2}
!4 = !{!"branch_weights", i32 2000, i32 1}
!5 = !{!"branch_weights", i32 2002, i32 2000}
