; ModuleID = '../../chrome/browser/extensions/api/image_writer_private/error_messages.cc'
source_filename = "../../chrome/browser/extensions/api/image_writer_private/error_messages.cc"
target datalayout = "e-m:e-i64:64-f80:128-n8:16:32:64-S128"
target triple = "x86_64-unknown-linux-gnu"

@_ZN10extensions12image_writer5error8kAbortedE = hidden local_unnamed_addr constant [8 x i8] c"ABORTED\00", align 1
@_ZN10extensions12image_writer5error22kNoOperationInProgressE = hidden local_unnamed_addr constant [25 x i8] c"NO_OPERATION_IN_PROGRESS\00", align 16
@_ZN10extensions12image_writer5error27kOperationAlreadyInProgressE = hidden local_unnamed_addr constant [30 x i8] c"OPERATION_ALREADY_IN_PROGRESS\00", align 16
@_ZN10extensions12image_writer5error21kUnsupportedOperationE = hidden local_unnamed_addr constant [22 x i8] c"UNSUPPORTED_OPERATION\00", align 16
@_ZN10extensions12image_writer5error16kDeviceListErrorE = hidden local_unnamed_addr constant [18 x i8] c"DEVICE_LIST_ERROR\00", align 16
@_ZN10extensions12image_writer5error17kInvalidFileEntryE = hidden local_unnamed_addr constant [13 x i8] c"FILE_INVALID\00", align 1
@_ZN10extensions12image_writer5error18kDownloadCancelledE = hidden local_unnamed_addr constant [19 x i8] c"DOWNLOAD_CANCELLED\00", align 16
@_ZN10extensions12image_writer5error18kDownloadHashErrorE = hidden local_unnamed_addr constant [23 x i8] c"DOWNLOAD_HASH_MISMATCH\00", align 16
@_ZN10extensions12image_writer5error20kDownloadInterruptedE = hidden local_unnamed_addr constant [21 x i8] c"DOWNLOAD_INTERRUPTED\00", align 16
@_ZN10extensions12image_writer5error13kTempDirErrorE = hidden local_unnamed_addr constant [24 x i8] c"TEMP_DIR_CREATION_ERROR\00", align 16
@_ZN10extensions12image_writer5error14kTempFileErrorE = hidden local_unnamed_addr constant [25 x i8] c"TEMP_FILE_CREATION_ERROR\00", align 16
@_ZN10extensions12image_writer5error11kUrlInvalidE = hidden local_unnamed_addr constant [12 x i8] c"URL_INVALID\00", align 1
@_ZN10extensions12image_writer5error18kUnzipGenericErrorE = hidden local_unnamed_addr constant [12 x i8] c"UNZIP_ERROR\00", align 1
@_ZN10extensions12image_writer5error20kUnzipInvalidArchiveE = hidden local_unnamed_addr constant [22 x i8] c"UNZIP_INVALID_ARCHIVE\00", align 16
@_ZN10extensions12image_writer5error17kDeviceCloseErrorE = hidden local_unnamed_addr constant [20 x i8] c"DEVICE_CLOSE_FAILED\00", align 16
@_ZN10extensions12image_writer5error14kDeviceInvalidE = hidden local_unnamed_addr constant [15 x i8] c"DEVICE_INVALID\00", align 1
@_ZN10extensions12image_writer5error16kDeviceHashErrorE = hidden local_unnamed_addr constant [18 x i8] c"DEVICE_HASH_ERROR\00", align 16
@_ZN10extensions12image_writer5error16kDeviceOpenErrorE = hidden local_unnamed_addr constant [18 x i8] c"DEVICE_OPEN_ERROR\00", align 16
@_ZN10extensions12image_writer5error17kDeviceWriteErrorE = hidden local_unnamed_addr constant [19 x i8] c"DEVICE_WRITE_ERROR\00", align 16
@_ZN10extensions12image_writer5error16kImageCloseErrorE = hidden local_unnamed_addr constant [19 x i8] c"IMAGE_CLOSE_FAILED\00", align 16
@_ZN10extensions12image_writer5error13kImageInvalidE = hidden local_unnamed_addr constant [14 x i8] c"IMAGE_INVALID\00", align 1
@_ZN10extensions12image_writer5error15kImageHashErrorE = hidden local_unnamed_addr constant [17 x i8] c"IMAGE_HASH_ERROR\00", align 16
@_ZN10extensions12image_writer5error14kImageNotFoundE = hidden local_unnamed_addr constant [16 x i8] c"IMAGE_NOT_FOUND\00", align 16
@_ZN10extensions12image_writer5error15kImageOpenErrorE = hidden local_unnamed_addr constant [17 x i8] c"IMAGE_OPEN_ERROR\00", align 16
@_ZN10extensions12image_writer5error15kImageReadErrorE = hidden local_unnamed_addr constant [17 x i8] c"IMAGE_READ_ERROR\00", align 16
@_ZN10extensions12image_writer5error15kImageSizeErrorE = hidden local_unnamed_addr constant [17 x i8] c"IMAGE_STAT_ERROR\00", align 16
@_ZN10extensions12image_writer5error20kUnmountVolumesErrorE = hidden local_unnamed_addr constant [22 x i8] c"UNMOUNT_VOLUMES_ERROR\00", align 16
@_ZN10extensions12image_writer5error14kHashReadErrorE = hidden local_unnamed_addr constant [16 x i8] c"HASH_READ_ERROR\00", align 16
@_ZN10extensions12image_writer5error19kVerificationFailedE = hidden local_unnamed_addr constant [20 x i8] c"VERIFICATION_FAILED\00", align 16
@_ZN10extensions12image_writer5error25kChromeOSImageBurnerErrorE = hidden local_unnamed_addr constant [28 x i8] c"CHROMEOS_IMAGE_BURNER_ERROR\00", align 16

!llvm.module.flags = !{!0, !1}

!0 = !{i32 1, !"wchar_size", i32 4}
!1 = !{i32 7, !"PIC Level", i32 2}
