; ModuleID = 'gen/third_party/blink/renderer/core/event_type_names.cc'
source_filename = "gen/third_party/blink/renderer/core/event_type_names.cc"
target datalayout = "e-m:e-i64:64-f80:128-n8:16:32:64-S128"
target triple = "x86_64-unknown-linux-gnu"

module asm ".symver exp, exp@GLIBC_2.2.5"
module asm ".symver exp2, exp2@GLIBC_2.2.5"
module asm ".symver exp2f, exp2f@GLIBC_2.2.5"
module asm ".symver expf, expf@GLIBC_2.2.5"
module asm ".symver lgamma, lgamma@GLIBC_2.2.5"
module asm ".symver lgammaf, lgammaf@GLIBC_2.2.5"
module asm ".symver lgammal, lgammal@GLIBC_2.2.5"
module asm ".symver log, log@GLIBC_2.2.5"
module asm ".symver log2, log2@GLIBC_2.2.5"
module asm ".symver log2f, log2f@GLIBC_2.2.5"
module asm ".symver logf, logf@GLIBC_2.2.5"
module asm ".symver pow, pow@GLIBC_2.2.5"
module asm ".symver powf, powf@GLIBC_2.2.5"

%"class.WTF::AtomicString" = type { %"class.WTF::String" }
%"class.WTF::String" = type { %class.scoped_refptr }
%class.scoped_refptr = type { %"class.WTF::StringImpl"* }
%"class.WTF::StringImpl" = type { i32, i32, %"struct.std::__1::atomic" }
%"struct.std::__1::atomic" = type { %"struct.std::__1::__atomic_base" }
%"struct.std::__1::__atomic_base" = type { %"struct.std::__1::__atomic_base.0" }
%"struct.std::__1::__atomic_base.0" = type { %"struct.std::__1::__cxx_atomic_impl" }
%"struct.std::__1::__cxx_atomic_impl" = type { %"struct.std::__1::__cxx_atomic_base_impl" }
%"struct.std::__1::__cxx_atomic_base_impl" = type { i32 }
%struct.NameEntry = type { i8*, i32, i8 }

@_ZN5blink16event_type_names13names_storageE = hidden global [351 x i8*] zeroinitializer, align 16
@_ZN5blink16event_type_names12kDOMActivateE = hidden local_unnamed_addr constant %"class.WTF::AtomicString"* bitcast ([351 x i8*]* @_ZN5blink16event_type_names13names_storageE to %"class.WTF::AtomicString"*), align 8
@_ZN5blink16event_type_names25kDOMCharacterDataModifiedE = hidden local_unnamed_addr constant %"class.WTF::AtomicString"* bitcast (i8** getelementptr inbounds ([351 x i8*], [351 x i8*]* @_ZN5blink16event_type_names13names_storageE, i64 0, i64 1) to %"class.WTF::AtomicString"*), align 8
@_ZN5blink16event_type_names17kDOMContentLoadedE = hidden local_unnamed_addr constant %"class.WTF::AtomicString"* bitcast (i8** getelementptr inbounds ([351 x i8*], [351 x i8*]* @_ZN5blink16event_type_names13names_storageE, i64 0, i64 2) to %"class.WTF::AtomicString"*), align 8
@_ZN5blink16event_type_names11kDOMFocusInE = hidden local_unnamed_addr constant %"class.WTF::AtomicString"* bitcast (i8** getelementptr inbounds ([351 x i8*], [351 x i8*]* @_ZN5blink16event_type_names13names_storageE, i64 0, i64 3) to %"class.WTF::AtomicString"*), align 8
@_ZN5blink16event_type_names12kDOMFocusOutE = hidden local_unnamed_addr constant %"class.WTF::AtomicString"* bitcast (i8** getelementptr inbounds ([351 x i8*], [351 x i8*]* @_ZN5blink16event_type_names13names_storageE, i64 0, i64 4) to %"class.WTF::AtomicString"*), align 8
@_ZN5blink16event_type_names16kDOMNodeInsertedE = hidden local_unnamed_addr constant %"class.WTF::AtomicString"* bitcast (i8** getelementptr inbounds ([351 x i8*], [351 x i8*]* @_ZN5blink16event_type_names13names_storageE, i64 0, i64 5) to %"class.WTF::AtomicString"*), align 8
@_ZN5blink16event_type_names28kDOMNodeInsertedIntoDocumentE = hidden local_unnamed_addr constant %"class.WTF::AtomicString"* bitcast (i8** getelementptr inbounds ([351 x i8*], [351 x i8*]* @_ZN5blink16event_type_names13names_storageE, i64 0, i64 6) to %"class.WTF::AtomicString"*), align 8
@_ZN5blink16event_type_names15kDOMNodeRemovedE = hidden local_unnamed_addr constant %"class.WTF::AtomicString"* bitcast (i8** getelementptr inbounds ([351 x i8*], [351 x i8*]* @_ZN5blink16event_type_names13names_storageE, i64 0, i64 7) to %"class.WTF::AtomicString"*), align 8
@_ZN5blink16event_type_names27kDOMNodeRemovedFromDocumentE = hidden local_unnamed_addr constant %"class.WTF::AtomicString"* bitcast (i8** getelementptr inbounds ([351 x i8*], [351 x i8*]* @_ZN5blink16event_type_names13names_storageE, i64 0, i64 8) to %"class.WTF::AtomicString"*), align 8
@_ZN5blink16event_type_names19kDOMSubtreeModifiedE = hidden local_unnamed_addr constant %"class.WTF::AtomicString"* bitcast (i8** getelementptr inbounds ([351 x i8*], [351 x i8*]* @_ZN5blink16event_type_names13names_storageE, i64 0, i64 9) to %"class.WTF::AtomicString"*), align 8
@_ZN5blink16event_type_names6kAbortE = hidden local_unnamed_addr constant %"class.WTF::AtomicString"* bitcast (i8** getelementptr inbounds ([351 x i8*], [351 x i8*]* @_ZN5blink16event_type_names13names_storageE, i64 0, i64 10) to %"class.WTF::AtomicString"*), align 8
@_ZN5blink16event_type_names13kAbortpaymentE = hidden local_unnamed_addr constant %"class.WTF::AtomicString"* bitcast (i8** getelementptr inbounds ([351 x i8*], [351 x i8*]* @_ZN5blink16event_type_names13names_storageE, i64 0, i64 11) to %"class.WTF::AtomicString"*), align 8
@_ZN5blink16event_type_names16kAccessibleclickE = hidden local_unnamed_addr constant %"class.WTF::AtomicString"* bitcast (i8** getelementptr inbounds ([351 x i8*], [351 x i8*]* @_ZN5blink16event_type_names13names_storageE, i64 0, i64 12) to %"class.WTF::AtomicString"*), align 8
@_ZN5blink16event_type_names22kAccessiblecontextmenuE = hidden local_unnamed_addr constant %"class.WTF::AtomicString"* bitcast (i8** getelementptr inbounds ([351 x i8*], [351 x i8*]* @_ZN5blink16event_type_names13names_storageE, i64 0, i64 13) to %"class.WTF::AtomicString"*), align 8
@_ZN5blink16event_type_names20kAccessibledecrementE = hidden local_unnamed_addr constant %"class.WTF::AtomicString"* bitcast (i8** getelementptr inbounds ([351 x i8*], [351 x i8*]* @_ZN5blink16event_type_names13names_storageE, i64 0, i64 14) to %"class.WTF::AtomicString"*), align 8
@_ZN5blink16event_type_names16kAccessiblefocusE = hidden local_unnamed_addr constant %"class.WTF::AtomicString"* bitcast (i8** getelementptr inbounds ([351 x i8*], [351 x i8*]* @_ZN5blink16event_type_names13names_storageE, i64 0, i64 15) to %"class.WTF::AtomicString"*), align 8
@_ZN5blink16event_type_names20kAccessibleincrementE = hidden local_unnamed_addr constant %"class.WTF::AtomicString"* bitcast (i8** getelementptr inbounds ([351 x i8*], [351 x i8*]* @_ZN5blink16event_type_names13names_storageE, i64 0, i64 16) to %"class.WTF::AtomicString"*), align 8
@_ZN5blink16event_type_names25kAccessiblescrollintoviewE = hidden local_unnamed_addr constant %"class.WTF::AtomicString"* bitcast (i8** getelementptr inbounds ([351 x i8*], [351 x i8*]* @_ZN5blink16event_type_names13names_storageE, i64 0, i64 17) to %"class.WTF::AtomicString"*), align 8
@_ZN5blink16event_type_names9kActivateE = hidden local_unnamed_addr constant %"class.WTF::AtomicString"* bitcast (i8** getelementptr inbounds ([351 x i8*], [351 x i8*]* @_ZN5blink16event_type_names13names_storageE, i64 0, i64 18) to %"class.WTF::AtomicString"*), align 8
@_ZN5blink16event_type_names7kActiveE = hidden local_unnamed_addr constant %"class.WTF::AtomicString"* bitcast (i8** getelementptr inbounds ([351 x i8*], [351 x i8*]* @_ZN5blink16event_type_names13names_storageE, i64 0, i64 19) to %"class.WTF::AtomicString"*), align 8
@_ZN5blink16event_type_names16kAddsourcebufferE = hidden local_unnamed_addr constant %"class.WTF::AtomicString"* bitcast (i8** getelementptr inbounds ([351 x i8*], [351 x i8*]* @_ZN5blink16event_type_names13names_storageE, i64 0, i64 20) to %"class.WTF::AtomicString"*), align 8
@_ZN5blink16event_type_names10kAddstreamE = hidden local_unnamed_addr constant %"class.WTF::AtomicString"* bitcast (i8** getelementptr inbounds ([351 x i8*], [351 x i8*]* @_ZN5blink16event_type_names13names_storageE, i64 0, i64 21) to %"class.WTF::AtomicString"*), align 8
@_ZN5blink16event_type_names9kAddtrackE = hidden local_unnamed_addr constant %"class.WTF::AtomicString"* bitcast (i8** getelementptr inbounds ([351 x i8*], [351 x i8*]* @_ZN5blink16event_type_names13names_storageE, i64 0, i64 22) to %"class.WTF::AtomicString"*), align 8
@_ZN5blink16event_type_names22kAdvertisementreceivedE = hidden local_unnamed_addr constant %"class.WTF::AtomicString"* bitcast (i8** getelementptr inbounds ([351 x i8*], [351 x i8*]* @_ZN5blink16event_type_names13names_storageE, i64 0, i64 23) to %"class.WTF::AtomicString"*), align 8
@_ZN5blink16event_type_names11kAfterprintE = hidden local_unnamed_addr constant %"class.WTF::AtomicString"* bitcast (i8** getelementptr inbounds ([351 x i8*], [351 x i8*]* @_ZN5blink16event_type_names13names_storageE, i64 0, i64 24) to %"class.WTF::AtomicString"*), align 8
@_ZN5blink16event_type_names16kAnimationcancelE = hidden local_unnamed_addr constant %"class.WTF::AtomicString"* bitcast (i8** getelementptr inbounds ([351 x i8*], [351 x i8*]* @_ZN5blink16event_type_names13names_storageE, i64 0, i64 25) to %"class.WTF::AtomicString"*), align 8
@_ZN5blink16event_type_names13kAnimationendE = hidden local_unnamed_addr constant %"class.WTF::AtomicString"* bitcast (i8** getelementptr inbounds ([351 x i8*], [351 x i8*]* @_ZN5blink16event_type_names13names_storageE, i64 0, i64 26) to %"class.WTF::AtomicString"*), align 8
@_ZN5blink16event_type_names19kAnimationiterationE = hidden local_unnamed_addr constant %"class.WTF::AtomicString"* bitcast (i8** getelementptr inbounds ([351 x i8*], [351 x i8*]* @_ZN5blink16event_type_names13names_storageE, i64 0, i64 27) to %"class.WTF::AtomicString"*), align 8
@_ZN5blink16event_type_names15kAnimationstartE = hidden local_unnamed_addr constant %"class.WTF::AtomicString"* bitcast (i8** getelementptr inbounds ([351 x i8*], [351 x i8*]* @_ZN5blink16event_type_names13names_storageE, i64 0, i64 28) to %"class.WTF::AtomicString"*), align 8
@_ZN5blink16event_type_names13kAppinstalledE = hidden local_unnamed_addr constant %"class.WTF::AtomicString"* bitcast (i8** getelementptr inbounds ([351 x i8*], [351 x i8*]* @_ZN5blink16event_type_names13names_storageE, i64 0, i64 29) to %"class.WTF::AtomicString"*), align 8
@_ZN5blink16event_type_names9kAudioendE = hidden local_unnamed_addr constant %"class.WTF::AtomicString"* bitcast (i8** getelementptr inbounds ([351 x i8*], [351 x i8*]* @_ZN5blink16event_type_names13names_storageE, i64 0, i64 30) to %"class.WTF::AtomicString"*), align 8
@_ZN5blink16event_type_names13kAudioprocessE = hidden local_unnamed_addr constant %"class.WTF::AtomicString"* bitcast (i8** getelementptr inbounds ([351 x i8*], [351 x i8*]* @_ZN5blink16event_type_names13names_storageE, i64 0, i64 31) to %"class.WTF::AtomicString"*), align 8
@_ZN5blink16event_type_names11kAudiostartE = hidden local_unnamed_addr constant %"class.WTF::AtomicString"* bitcast (i8** getelementptr inbounds ([351 x i8*], [351 x i8*]* @_ZN5blink16event_type_names13names_storageE, i64 0, i64 32) to %"class.WTF::AtomicString"*), align 8
@_ZN5blink16event_type_names9kAuxclickE = hidden local_unnamed_addr constant %"class.WTF::AtomicString"* bitcast (i8** getelementptr inbounds ([351 x i8*], [351 x i8*]* @_ZN5blink16event_type_names13names_storageE, i64 0, i64 33) to %"class.WTF::AtomicString"*), align 8
@_ZN5blink16event_type_names16kAvailablechangeE = hidden local_unnamed_addr constant %"class.WTF::AtomicString"* bitcast (i8** getelementptr inbounds ([351 x i8*], [351 x i8*]* @_ZN5blink16event_type_names13names_storageE, i64 0, i64 34) to %"class.WTF::AtomicString"*), align 8
@_ZN5blink16event_type_names21kBackgroundfetchabortE = hidden local_unnamed_addr constant %"class.WTF::AtomicString"* bitcast (i8** getelementptr inbounds ([351 x i8*], [351 x i8*]* @_ZN5blink16event_type_names13names_storageE, i64 0, i64 35) to %"class.WTF::AtomicString"*), align 8
@_ZN5blink16event_type_names21kBackgroundfetchclickE = hidden local_unnamed_addr constant %"class.WTF::AtomicString"* bitcast (i8** getelementptr inbounds ([351 x i8*], [351 x i8*]* @_ZN5blink16event_type_names13names_storageE, i64 0, i64 36) to %"class.WTF::AtomicString"*), align 8
@_ZN5blink16event_type_names20kBackgroundfetchfailE = hidden local_unnamed_addr constant %"class.WTF::AtomicString"* bitcast (i8** getelementptr inbounds ([351 x i8*], [351 x i8*]* @_ZN5blink16event_type_names13names_storageE, i64 0, i64 37) to %"class.WTF::AtomicString"*), align 8
@_ZN5blink16event_type_names23kBackgroundfetchsuccessE = hidden local_unnamed_addr constant %"class.WTF::AtomicString"* bitcast (i8** getelementptr inbounds ([351 x i8*], [351 x i8*]* @_ZN5blink16event_type_names13names_storageE, i64 0, i64 38) to %"class.WTF::AtomicString"*), align 8
@_ZN5blink16event_type_names12kBeforecloseE = hidden local_unnamed_addr constant %"class.WTF::AtomicString"* bitcast (i8** getelementptr inbounds ([351 x i8*], [351 x i8*]* @_ZN5blink16event_type_names13names_storageE, i64 0, i64 39) to %"class.WTF::AtomicString"*), align 8
@_ZN5blink16event_type_names11kBeforecopyE = hidden local_unnamed_addr constant %"class.WTF::AtomicString"* bitcast (i8** getelementptr inbounds ([351 x i8*], [351 x i8*]* @_ZN5blink16event_type_names13names_storageE, i64 0, i64 40) to %"class.WTF::AtomicString"*), align 8
@_ZN5blink16event_type_names19kBeforecreatepolicyE = hidden local_unnamed_addr constant %"class.WTF::AtomicString"* bitcast (i8** getelementptr inbounds ([351 x i8*], [351 x i8*]* @_ZN5blink16event_type_names13names_storageE, i64 0, i64 41) to %"class.WTF::AtomicString"*), align 8
@_ZN5blink16event_type_names10kBeforecutE = hidden local_unnamed_addr constant %"class.WTF::AtomicString"* bitcast (i8** getelementptr inbounds ([351 x i8*], [351 x i8*]* @_ZN5blink16event_type_names13names_storageE, i64 0, i64 42) to %"class.WTF::AtomicString"*), align 8
@_ZN5blink16event_type_names12kBeforeinputE = hidden local_unnamed_addr constant %"class.WTF::AtomicString"* bitcast (i8** getelementptr inbounds ([351 x i8*], [351 x i8*]* @_ZN5blink16event_type_names13names_storageE, i64 0, i64 43) to %"class.WTF::AtomicString"*), align 8
@_ZN5blink16event_type_names20kBeforeinstallpromptE = hidden local_unnamed_addr constant %"class.WTF::AtomicString"* bitcast (i8** getelementptr inbounds ([351 x i8*], [351 x i8*]* @_ZN5blink16event_type_names13names_storageE, i64 0, i64 44) to %"class.WTF::AtomicString"*), align 8
@_ZN5blink16event_type_names12kBeforematchE = hidden local_unnamed_addr constant %"class.WTF::AtomicString"* bitcast (i8** getelementptr inbounds ([351 x i8*], [351 x i8*]* @_ZN5blink16event_type_names13names_storageE, i64 0, i64 45) to %"class.WTF::AtomicString"*), align 8
@_ZN5blink16event_type_names12kBeforepasteE = hidden local_unnamed_addr constant %"class.WTF::AtomicString"* bitcast (i8** getelementptr inbounds ([351 x i8*], [351 x i8*]* @_ZN5blink16event_type_names13names_storageE, i64 0, i64 46) to %"class.WTF::AtomicString"*), align 8
@_ZN5blink16event_type_names12kBeforeprintE = hidden local_unnamed_addr constant %"class.WTF::AtomicString"* bitcast (i8** getelementptr inbounds ([351 x i8*], [351 x i8*]* @_ZN5blink16event_type_names13names_storageE, i64 0, i64 47) to %"class.WTF::AtomicString"*), align 8
@_ZN5blink16event_type_names13kBeforeunloadE = hidden local_unnamed_addr constant %"class.WTF::AtomicString"* bitcast (i8** getelementptr inbounds ([351 x i8*], [351 x i8*]* @_ZN5blink16event_type_names13names_storageE, i64 0, i64 48) to %"class.WTF::AtomicString"*), align 8
@_ZN5blink16event_type_names15kBeforexrselectE = hidden local_unnamed_addr constant %"class.WTF::AtomicString"* bitcast (i8** getelementptr inbounds ([351 x i8*], [351 x i8*]* @_ZN5blink16event_type_names13names_storageE, i64 0, i64 49) to %"class.WTF::AtomicString"*), align 8
@_ZN5blink16event_type_names11kBeginEventE = hidden local_unnamed_addr constant %"class.WTF::AtomicString"* bitcast (i8** getelementptr inbounds ([351 x i8*], [351 x i8*]* @_ZN5blink16event_type_names13names_storageE, i64 0, i64 50) to %"class.WTF::AtomicString"*), align 8
@_ZN5blink16event_type_names8kBlockedE = hidden local_unnamed_addr constant %"class.WTF::AtomicString"* bitcast (i8** getelementptr inbounds ([351 x i8*], [351 x i8*]* @_ZN5blink16event_type_names13names_storageE, i64 0, i64 51) to %"class.WTF::AtomicString"*), align 8
@_ZN5blink16event_type_names5kBlurE = hidden local_unnamed_addr constant %"class.WTF::AtomicString"* bitcast (i8** getelementptr inbounds ([351 x i8*], [351 x i8*]* @_ZN5blink16event_type_names13names_storageE, i64 0, i64 52) to %"class.WTF::AtomicString"*), align 8
@_ZN5blink16event_type_names9kBoundaryE = hidden local_unnamed_addr constant %"class.WTF::AtomicString"* bitcast (i8** getelementptr inbounds ([351 x i8*], [351 x i8*]* @_ZN5blink16event_type_names13names_storageE, i64 0, i64 53) to %"class.WTF::AtomicString"*), align 8
@_ZN5blink16event_type_names18kBufferedamountlowE = hidden local_unnamed_addr constant %"class.WTF::AtomicString"* bitcast (i8** getelementptr inbounds ([351 x i8*], [351 x i8*]* @_ZN5blink16event_type_names13names_storageE, i64 0, i64 54) to %"class.WTF::AtomicString"*), align 8
@_ZN5blink16event_type_names7kCachedE = hidden local_unnamed_addr constant %"class.WTF::AtomicString"* bitcast (i8** getelementptr inbounds ([351 x i8*], [351 x i8*]* @_ZN5blink16event_type_names13names_storageE, i64 0, i64 55) to %"class.WTF::AtomicString"*), align 8
@_ZN5blink16event_type_names7kCancelE = hidden local_unnamed_addr constant %"class.WTF::AtomicString"* bitcast (i8** getelementptr inbounds ([351 x i8*], [351 x i8*]* @_ZN5blink16event_type_names13names_storageE, i64 0, i64 56) to %"class.WTF::AtomicString"*), align 8
@_ZN5blink16event_type_names15kCanmakepaymentE = hidden local_unnamed_addr constant %"class.WTF::AtomicString"* bitcast (i8** getelementptr inbounds ([351 x i8*], [351 x i8*]* @_ZN5blink16event_type_names13names_storageE, i64 0, i64 57) to %"class.WTF::AtomicString"*), align 8
@_ZN5blink16event_type_names8kCanplayE = hidden local_unnamed_addr constant %"class.WTF::AtomicString"* bitcast (i8** getelementptr inbounds ([351 x i8*], [351 x i8*]* @_ZN5blink16event_type_names13names_storageE, i64 0, i64 58) to %"class.WTF::AtomicString"*), align 8
@_ZN5blink16event_type_names15kCanplaythroughE = hidden local_unnamed_addr constant %"class.WTF::AtomicString"* bitcast (i8** getelementptr inbounds ([351 x i8*], [351 x i8*]* @_ZN5blink16event_type_names13names_storageE, i64 0, i64 59) to %"class.WTF::AtomicString"*), align 8
@_ZN5blink16event_type_names20kCapturehandlechangeE = hidden local_unnamed_addr constant %"class.WTF::AtomicString"* bitcast (i8** getelementptr inbounds ([351 x i8*], [351 x i8*]* @_ZN5blink16event_type_names13names_storageE, i64 0, i64 60) to %"class.WTF::AtomicString"*), align 8
@_ZN5blink16event_type_names7kChangeE = hidden local_unnamed_addr constant %"class.WTF::AtomicString"* bitcast (i8** getelementptr inbounds ([351 x i8*], [351 x i8*]* @_ZN5blink16event_type_names13names_storageE, i64 0, i64 61) to %"class.WTF::AtomicString"*), align 8
@_ZN5blink16event_type_names27kCharacteristicvaluechangedE = hidden local_unnamed_addr constant %"class.WTF::AtomicString"* bitcast (i8** getelementptr inbounds ([351 x i8*], [351 x i8*]* @_ZN5blink16event_type_names13names_storageE, i64 0, i64 62) to %"class.WTF::AtomicString"*), align 8
@_ZN5blink16event_type_names15kChargingchangeE = hidden local_unnamed_addr constant %"class.WTF::AtomicString"* bitcast (i8** getelementptr inbounds ([351 x i8*], [351 x i8*]* @_ZN5blink16event_type_names13names_storageE, i64 0, i64 63) to %"class.WTF::AtomicString"*), align 8
@_ZN5blink16event_type_names19kChargingtimechangeE = hidden local_unnamed_addr constant %"class.WTF::AtomicString"* bitcast (i8** getelementptr inbounds ([351 x i8*], [351 x i8*]* @_ZN5blink16event_type_names13names_storageE, i64 0, i64 64) to %"class.WTF::AtomicString"*), align 8
@_ZN5blink16event_type_names9kCheckingE = hidden local_unnamed_addr constant %"class.WTF::AtomicString"* bitcast (i8** getelementptr inbounds ([351 x i8*], [351 x i8*]* @_ZN5blink16event_type_names13names_storageE, i64 0, i64 65) to %"class.WTF::AtomicString"*), align 8
@_ZN5blink16event_type_names6kClickE = hidden local_unnamed_addr constant %"class.WTF::AtomicString"* bitcast (i8** getelementptr inbounds ([351 x i8*], [351 x i8*]* @_ZN5blink16event_type_names13names_storageE, i64 0, i64 66) to %"class.WTF::AtomicString"*), align 8
@_ZN5blink16event_type_names6kCloseE = hidden local_unnamed_addr constant %"class.WTF::AtomicString"* bitcast (i8** getelementptr inbounds ([351 x i8*], [351 x i8*]* @_ZN5blink16event_type_names13names_storageE, i64 0, i64 67) to %"class.WTF::AtomicString"*), align 8
@_ZN5blink16event_type_names8kClosingE = hidden local_unnamed_addr constant %"class.WTF::AtomicString"* bitcast (i8** getelementptr inbounds ([351 x i8*], [351 x i8*]* @_ZN5blink16event_type_names13names_storageE, i64 0, i64 68) to %"class.WTF::AtomicString"*), align 8
@_ZN5blink16event_type_names12kColorselectE = hidden local_unnamed_addr constant %"class.WTF::AtomicString"* bitcast (i8** getelementptr inbounds ([351 x i8*], [351 x i8*]* @_ZN5blink16event_type_names13names_storageE, i64 0, i64 69) to %"class.WTF::AtomicString"*), align 8
@_ZN5blink16event_type_names9kCompleteE = hidden local_unnamed_addr constant %"class.WTF::AtomicString"* bitcast (i8** getelementptr inbounds ([351 x i8*], [351 x i8*]* @_ZN5blink16event_type_names13names_storageE, i64 0, i64 70) to %"class.WTF::AtomicString"*), align 8
@_ZN5blink16event_type_names15kCompositionendE = hidden local_unnamed_addr constant %"class.WTF::AtomicString"* bitcast (i8** getelementptr inbounds ([351 x i8*], [351 x i8*]* @_ZN5blink16event_type_names13names_storageE, i64 0, i64 71) to %"class.WTF::AtomicString"*), align 8
@_ZN5blink16event_type_names17kCompositionstartE = hidden local_unnamed_addr constant %"class.WTF::AtomicString"* bitcast (i8** getelementptr inbounds ([351 x i8*], [351 x i8*]* @_ZN5blink16event_type_names13names_storageE, i64 0, i64 72) to %"class.WTF::AtomicString"*), align 8
@_ZN5blink16event_type_names18kCompositionupdateE = hidden local_unnamed_addr constant %"class.WTF::AtomicString"* bitcast (i8** getelementptr inbounds ([351 x i8*], [351 x i8*]* @_ZN5blink16event_type_names13names_storageE, i64 0, i64 73) to %"class.WTF::AtomicString"*), align 8
@_ZN5blink16event_type_names8kConnectE = hidden local_unnamed_addr constant %"class.WTF::AtomicString"* bitcast (i8** getelementptr inbounds ([351 x i8*], [351 x i8*]* @_ZN5blink16event_type_names13names_storageE, i64 0, i64 74) to %"class.WTF::AtomicString"*), align 8
@_ZN5blink16event_type_names11kConnectingE = hidden local_unnamed_addr constant %"class.WTF::AtomicString"* bitcast (i8** getelementptr inbounds ([351 x i8*], [351 x i8*]* @_ZN5blink16event_type_names13names_storageE, i64 0, i64 75) to %"class.WTF::AtomicString"*), align 8
@_ZN5blink16event_type_names20kConnectionavailableE = hidden local_unnamed_addr constant %"class.WTF::AtomicString"* bitcast (i8** getelementptr inbounds ([351 x i8*], [351 x i8*]* @_ZN5blink16event_type_names13names_storageE, i64 0, i64 76) to %"class.WTF::AtomicString"*), align 8
@_ZN5blink16event_type_names22kConnectionstatechangeE = hidden local_unnamed_addr constant %"class.WTF::AtomicString"* bitcast (i8** getelementptr inbounds ([351 x i8*], [351 x i8*]* @_ZN5blink16event_type_names13names_storageE, i64 0, i64 77) to %"class.WTF::AtomicString"*), align 8
@_ZN5blink16event_type_names14kContentdeleteE = hidden local_unnamed_addr constant %"class.WTF::AtomicString"* bitcast (i8** getelementptr inbounds ([351 x i8*], [351 x i8*]* @_ZN5blink16event_type_names13names_storageE, i64 0, i64 78) to %"class.WTF::AtomicString"*), align 8
@_ZN5blink16event_type_names12kContextlostE = hidden local_unnamed_addr constant %"class.WTF::AtomicString"* bitcast (i8** getelementptr inbounds ([351 x i8*], [351 x i8*]* @_ZN5blink16event_type_names13names_storageE, i64 0, i64 79) to %"class.WTF::AtomicString"*), align 8
@_ZN5blink16event_type_names12kContextmenuE = hidden local_unnamed_addr constant %"class.WTF::AtomicString"* bitcast (i8** getelementptr inbounds ([351 x i8*], [351 x i8*]* @_ZN5blink16event_type_names13names_storageE, i64 0, i64 80) to %"class.WTF::AtomicString"*), align 8
@_ZN5blink16event_type_names16kContextrestoredE = hidden local_unnamed_addr constant %"class.WTF::AtomicString"* bitcast (i8** getelementptr inbounds ([351 x i8*], [351 x i8*]* @_ZN5blink16event_type_names13names_storageE, i64 0, i64 81) to %"class.WTF::AtomicString"*), align 8
@_ZN5blink16event_type_names17kControllerchangeE = hidden local_unnamed_addr constant %"class.WTF::AtomicString"* bitcast (i8** getelementptr inbounds ([351 x i8*], [351 x i8*]* @_ZN5blink16event_type_names13names_storageE, i64 0, i64 82) to %"class.WTF::AtomicString"*), align 8
@_ZN5blink16event_type_names13kCookiechangeE = hidden local_unnamed_addr constant %"class.WTF::AtomicString"* bitcast (i8** getelementptr inbounds ([351 x i8*], [351 x i8*]* @_ZN5blink16event_type_names13names_storageE, i64 0, i64 83) to %"class.WTF::AtomicString"*), align 8
@_ZN5blink16event_type_names5kCopyE = hidden local_unnamed_addr constant %"class.WTF::AtomicString"* bitcast (i8** getelementptr inbounds ([351 x i8*], [351 x i8*]* @_ZN5blink16event_type_names13names_storageE, i64 0, i64 84) to %"class.WTF::AtomicString"*), align 8
@_ZN5blink16event_type_names19kCrossoriginmessageE = hidden local_unnamed_addr constant %"class.WTF::AtomicString"* bitcast (i8** getelementptr inbounds ([351 x i8*], [351 x i8*]* @_ZN5blink16event_type_names13names_storageE, i64 0, i64 85) to %"class.WTF::AtomicString"*), align 8
@_ZN5blink16event_type_names10kCuechangeE = hidden local_unnamed_addr constant %"class.WTF::AtomicString"* bitcast (i8** getelementptr inbounds ([351 x i8*], [351 x i8*]* @_ZN5blink16event_type_names13names_storageE, i64 0, i64 86) to %"class.WTF::AtomicString"*), align 8
@_ZN5blink16event_type_names20kCurrentscreenchangeE = hidden local_unnamed_addr constant %"class.WTF::AtomicString"* bitcast (i8** getelementptr inbounds ([351 x i8*], [351 x i8*]* @_ZN5blink16event_type_names13names_storageE, i64 0, i64 87) to %"class.WTF::AtomicString"*), align 8
@_ZN5blink16event_type_names4kCutE = hidden local_unnamed_addr constant %"class.WTF::AtomicString"* bitcast (i8** getelementptr inbounds ([351 x i8*], [351 x i8*]* @_ZN5blink16event_type_names13names_storageE, i64 0, i64 88) to %"class.WTF::AtomicString"*), align 8
@_ZN5blink16event_type_names14kDataavailableE = hidden local_unnamed_addr constant %"class.WTF::AtomicString"* bitcast (i8** getelementptr inbounds ([351 x i8*], [351 x i8*]* @_ZN5blink16event_type_names13names_storageE, i64 0, i64 89) to %"class.WTF::AtomicString"*), align 8
@_ZN5blink16event_type_names12kDatachannelE = hidden local_unnamed_addr constant %"class.WTF::AtomicString"* bitcast (i8** getelementptr inbounds ([351 x i8*], [351 x i8*]* @_ZN5blink16event_type_names13names_storageE, i64 0, i64 90) to %"class.WTF::AtomicString"*), align 8
@_ZN5blink16event_type_names9kDblclickE = hidden local_unnamed_addr constant %"class.WTF::AtomicString"* bitcast (i8** getelementptr inbounds ([351 x i8*], [351 x i8*]* @_ZN5blink16event_type_names13names_storageE, i64 0, i64 91) to %"class.WTF::AtomicString"*), align 8
@_ZN5blink16event_type_names20kDefaultsessionstartE = hidden local_unnamed_addr constant %"class.WTF::AtomicString"* bitcast (i8** getelementptr inbounds ([351 x i8*], [351 x i8*]* @_ZN5blink16event_type_names13names_storageE, i64 0, i64 92) to %"class.WTF::AtomicString"*), align 8
@_ZN5blink16event_type_names13kDevicechangeE = hidden local_unnamed_addr constant %"class.WTF::AtomicString"* bitcast (i8** getelementptr inbounds ([351 x i8*], [351 x i8*]* @_ZN5blink16event_type_names13names_storageE, i64 0, i64 93) to %"class.WTF::AtomicString"*), align 8
@_ZN5blink16event_type_names13kDevicemotionE = hidden local_unnamed_addr constant %"class.WTF::AtomicString"* bitcast (i8** getelementptr inbounds ([351 x i8*], [351 x i8*]* @_ZN5blink16event_type_names13names_storageE, i64 0, i64 94) to %"class.WTF::AtomicString"*), align 8
@_ZN5blink16event_type_names18kDeviceorientationE = hidden local_unnamed_addr constant %"class.WTF::AtomicString"* bitcast (i8** getelementptr inbounds ([351 x i8*], [351 x i8*]* @_ZN5blink16event_type_names13names_storageE, i64 0, i64 95) to %"class.WTF::AtomicString"*), align 8
@_ZN5blink16event_type_names26kDeviceorientationabsoluteE = hidden local_unnamed_addr constant %"class.WTF::AtomicString"* bitcast (i8** getelementptr inbounds ([351 x i8*], [351 x i8*]* @_ZN5blink16event_type_names13names_storageE, i64 0, i64 96) to %"class.WTF::AtomicString"*), align 8
@_ZN5blink16event_type_names22kDischargingtimechangeE = hidden local_unnamed_addr constant %"class.WTF::AtomicString"* bitcast (i8** getelementptr inbounds ([351 x i8*], [351 x i8*]* @_ZN5blink16event_type_names13names_storageE, i64 0, i64 97) to %"class.WTF::AtomicString"*), align 8
@_ZN5blink16event_type_names11kDisconnectE = hidden local_unnamed_addr constant %"class.WTF::AtomicString"* bitcast (i8** getelementptr inbounds ([351 x i8*], [351 x i8*]* @_ZN5blink16event_type_names13names_storageE, i64 0, i64 98) to %"class.WTF::AtomicString"*), align 8
@_ZN5blink16event_type_names8kDisplayE = hidden local_unnamed_addr constant %"class.WTF::AtomicString"* bitcast (i8** getelementptr inbounds ([351 x i8*], [351 x i8*]* @_ZN5blink16event_type_names13names_storageE, i64 0, i64 99) to %"class.WTF::AtomicString"*), align 8
@_ZN5blink16event_type_names12kDownloadingE = hidden local_unnamed_addr constant %"class.WTF::AtomicString"* bitcast (i8** getelementptr inbounds ([351 x i8*], [351 x i8*]* @_ZN5blink16event_type_names13names_storageE, i64 0, i64 100) to %"class.WTF::AtomicString"*), align 8
@_ZN5blink16event_type_names5kDragE = hidden local_unnamed_addr constant %"class.WTF::AtomicString"* bitcast (i8** getelementptr inbounds ([351 x i8*], [351 x i8*]* @_ZN5blink16event_type_names13names_storageE, i64 0, i64 101) to %"class.WTF::AtomicString"*), align 8
@_ZN5blink16event_type_names8kDragendE = hidden local_unnamed_addr constant %"class.WTF::AtomicString"* bitcast (i8** getelementptr inbounds ([351 x i8*], [351 x i8*]* @_ZN5blink16event_type_names13names_storageE, i64 0, i64 102) to %"class.WTF::AtomicString"*), align 8
@_ZN5blink16event_type_names10kDragenterE = hidden local_unnamed_addr constant %"class.WTF::AtomicString"* bitcast (i8** getelementptr inbounds ([351 x i8*], [351 x i8*]* @_ZN5blink16event_type_names13names_storageE, i64 0, i64 103) to %"class.WTF::AtomicString"*), align 8
@_ZN5blink16event_type_names10kDragleaveE = hidden local_unnamed_addr constant %"class.WTF::AtomicString"* bitcast (i8** getelementptr inbounds ([351 x i8*], [351 x i8*]* @_ZN5blink16event_type_names13names_storageE, i64 0, i64 104) to %"class.WTF::AtomicString"*), align 8
@_ZN5blink16event_type_names9kDragoverE = hidden local_unnamed_addr constant %"class.WTF::AtomicString"* bitcast (i8** getelementptr inbounds ([351 x i8*], [351 x i8*]* @_ZN5blink16event_type_names13names_storageE, i64 0, i64 105) to %"class.WTF::AtomicString"*), align 8
@_ZN5blink16event_type_names10kDragstartE = hidden local_unnamed_addr constant %"class.WTF::AtomicString"* bitcast (i8** getelementptr inbounds ([351 x i8*], [351 x i8*]* @_ZN5blink16event_type_names13names_storageE, i64 0, i64 106) to %"class.WTF::AtomicString"*), align 8
@_ZN5blink16event_type_names5kDropE = hidden local_unnamed_addr constant %"class.WTF::AtomicString"* bitcast (i8** getelementptr inbounds ([351 x i8*], [351 x i8*]* @_ZN5blink16event_type_names13names_storageE, i64 0, i64 107) to %"class.WTF::AtomicString"*), align 8
@_ZN5blink16event_type_names15kDurationchangeE = hidden local_unnamed_addr constant %"class.WTF::AtomicString"* bitcast (i8** getelementptr inbounds ([351 x i8*], [351 x i8*]* @_ZN5blink16event_type_names13names_storageE, i64 0, i64 108) to %"class.WTF::AtomicString"*), align 8
@_ZN5blink16event_type_names24kElementtimingbufferfullE = hidden local_unnamed_addr constant %"class.WTF::AtomicString"* bitcast (i8** getelementptr inbounds ([351 x i8*], [351 x i8*]* @_ZN5blink16event_type_names13names_storageE, i64 0, i64 109) to %"class.WTF::AtomicString"*), align 8
@_ZN5blink16event_type_names8kEmptiedE = hidden local_unnamed_addr constant %"class.WTF::AtomicString"* bitcast (i8** getelementptr inbounds ([351 x i8*], [351 x i8*]* @_ZN5blink16event_type_names13names_storageE, i64 0, i64 110) to %"class.WTF::AtomicString"*), align 8
@_ZN5blink16event_type_names10kEncryptedE = hidden local_unnamed_addr constant %"class.WTF::AtomicString"* bitcast (i8** getelementptr inbounds ([351 x i8*], [351 x i8*]* @_ZN5blink16event_type_names13names_storageE, i64 0, i64 111) to %"class.WTF::AtomicString"*), align 8
@_ZN5blink16event_type_names4kEndE = hidden local_unnamed_addr constant %"class.WTF::AtomicString"* bitcast (i8** getelementptr inbounds ([351 x i8*], [351 x i8*]* @_ZN5blink16event_type_names13names_storageE, i64 0, i64 112) to %"class.WTF::AtomicString"*), align 8
@_ZN5blink16event_type_names9kEndEventE = hidden local_unnamed_addr constant %"class.WTF::AtomicString"* bitcast (i8** getelementptr inbounds ([351 x i8*], [351 x i8*]* @_ZN5blink16event_type_names13names_storageE, i64 0, i64 113) to %"class.WTF::AtomicString"*), align 8
@_ZN5blink16event_type_names6kEndedE = hidden local_unnamed_addr constant %"class.WTF::AtomicString"* bitcast (i8** getelementptr inbounds ([351 x i8*], [351 x i8*]* @_ZN5blink16event_type_names13names_storageE, i64 0, i64 114) to %"class.WTF::AtomicString"*), align 8
@_ZN5blink16event_type_names6kEnterE = hidden local_unnamed_addr constant %"class.WTF::AtomicString"* bitcast (i8** getelementptr inbounds ([351 x i8*], [351 x i8*]* @_ZN5blink16event_type_names13names_storageE, i64 0, i64 115) to %"class.WTF::AtomicString"*), align 8
@_ZN5blink16event_type_names22kEnterpictureinpictureE = hidden local_unnamed_addr constant %"class.WTF::AtomicString"* bitcast (i8** getelementptr inbounds ([351 x i8*], [351 x i8*]* @_ZN5blink16event_type_names13names_storageE, i64 0, i64 116) to %"class.WTF::AtomicString"*), align 8
@_ZN5blink16event_type_names6kErrorE = hidden local_unnamed_addr constant %"class.WTF::AtomicString"* bitcast (i8** getelementptr inbounds ([351 x i8*], [351 x i8*]* @_ZN5blink16event_type_names13names_storageE, i64 0, i64 117) to %"class.WTF::AtomicString"*), align 8
@_ZN5blink16event_type_names22kEventtimingbufferfullE = hidden local_unnamed_addr constant %"class.WTF::AtomicString"* bitcast (i8** getelementptr inbounds ([351 x i8*], [351 x i8*]* @_ZN5blink16event_type_names13names_storageE, i64 0, i64 118) to %"class.WTF::AtomicString"*), align 8
@_ZN5blink16event_type_names5kExitE = hidden local_unnamed_addr constant %"class.WTF::AtomicString"* bitcast (i8** getelementptr inbounds ([351 x i8*], [351 x i8*]* @_ZN5blink16event_type_names13names_storageE, i64 0, i64 119) to %"class.WTF::AtomicString"*), align 8
@_ZN5blink16event_type_names6kFetchE = hidden local_unnamed_addr constant %"class.WTF::AtomicString"* bitcast (i8** getelementptr inbounds ([351 x i8*], [351 x i8*]* @_ZN5blink16event_type_names13names_storageE, i64 0, i64 120) to %"class.WTF::AtomicString"*), align 8
@_ZN5blink16event_type_names7kFinishE = hidden local_unnamed_addr constant %"class.WTF::AtomicString"* bitcast (i8** getelementptr inbounds ([351 x i8*], [351 x i8*]* @_ZN5blink16event_type_names13names_storageE, i64 0, i64 121) to %"class.WTF::AtomicString"*), align 8
@_ZN5blink16event_type_names6kFocusE = hidden local_unnamed_addr constant %"class.WTF::AtomicString"* bitcast (i8** getelementptr inbounds ([351 x i8*], [351 x i8*]* @_ZN5blink16event_type_names13names_storageE, i64 0, i64 122) to %"class.WTF::AtomicString"*), align 8
@_ZN5blink16event_type_names8kFocusinE = hidden local_unnamed_addr constant %"class.WTF::AtomicString"* bitcast (i8** getelementptr inbounds ([351 x i8*], [351 x i8*]* @_ZN5blink16event_type_names13names_storageE, i64 0, i64 123) to %"class.WTF::AtomicString"*), align 8
@_ZN5blink16event_type_names9kFocusoutE = hidden local_unnamed_addr constant %"class.WTF::AtomicString"* bitcast (i8** getelementptr inbounds ([351 x i8*], [351 x i8*]* @_ZN5blink16event_type_names13names_storageE, i64 0, i64 124) to %"class.WTF::AtomicString"*), align 8
@_ZN5blink16event_type_names13kForeignfetchE = hidden local_unnamed_addr constant %"class.WTF::AtomicString"* bitcast (i8** getelementptr inbounds ([351 x i8*], [351 x i8*]* @_ZN5blink16event_type_names13names_storageE, i64 0, i64 125) to %"class.WTF::AtomicString"*), align 8
@_ZN5blink16event_type_names9kFormdataE = hidden local_unnamed_addr constant %"class.WTF::AtomicString"* bitcast (i8** getelementptr inbounds ([351 x i8*], [351 x i8*]* @_ZN5blink16event_type_names13names_storageE, i64 0, i64 126) to %"class.WTF::AtomicString"*), align 8
@_ZN5blink16event_type_names7kFreezeE = hidden local_unnamed_addr constant %"class.WTF::AtomicString"* bitcast (i8** getelementptr inbounds ([351 x i8*], [351 x i8*]* @_ZN5blink16event_type_names13names_storageE, i64 0, i64 127) to %"class.WTF::AtomicString"*), align 8
@_ZN5blink16event_type_names17kFullscreenchangeE = hidden local_unnamed_addr constant %"class.WTF::AtomicString"* bitcast (i8** getelementptr inbounds ([351 x i8*], [351 x i8*]* @_ZN5blink16event_type_names13names_storageE, i64 0, i64 128) to %"class.WTF::AtomicString"*), align 8
@_ZN5blink16event_type_names16kFullscreenerrorE = hidden local_unnamed_addr constant %"class.WTF::AtomicString"* bitcast (i8** getelementptr inbounds ([351 x i8*], [351 x i8*]* @_ZN5blink16event_type_names13names_storageE, i64 0, i64 129) to %"class.WTF::AtomicString"*), align 8
@_ZN5blink16event_type_names17kGamepadconnectedE = hidden local_unnamed_addr constant %"class.WTF::AtomicString"* bitcast (i8** getelementptr inbounds ([351 x i8*], [351 x i8*]* @_ZN5blink16event_type_names13names_storageE, i64 0, i64 130) to %"class.WTF::AtomicString"*), align 8
@_ZN5blink16event_type_names20kGamepaddisconnectedE = hidden local_unnamed_addr constant %"class.WTF::AtomicString"* bitcast (i8** getelementptr inbounds ([351 x i8*], [351 x i8*]* @_ZN5blink16event_type_names13names_storageE, i64 0, i64 131) to %"class.WTF::AtomicString"*), align 8
@_ZN5blink16event_type_names21kGatheringstatechangeE = hidden local_unnamed_addr constant %"class.WTF::AtomicString"* bitcast (i8** getelementptr inbounds ([351 x i8*], [351 x i8*]* @_ZN5blink16event_type_names13names_storageE, i64 0, i64 132) to %"class.WTF::AtomicString"*), align 8
@_ZN5blink16event_type_names23kGattserverdisconnectedE = hidden local_unnamed_addr constant %"class.WTF::AtomicString"* bitcast (i8** getelementptr inbounds ([351 x i8*], [351 x i8*]* @_ZN5blink16event_type_names13names_storageE, i64 0, i64 133) to %"class.WTF::AtomicString"*), align 8
@_ZN5blink16event_type_names14kGeofenceenterE = hidden local_unnamed_addr constant %"class.WTF::AtomicString"* bitcast (i8** getelementptr inbounds ([351 x i8*], [351 x i8*]* @_ZN5blink16event_type_names13names_storageE, i64 0, i64 134) to %"class.WTF::AtomicString"*), align 8
@_ZN5blink16event_type_names14kGeofenceleaveE = hidden local_unnamed_addr constant %"class.WTF::AtomicString"* bitcast (i8** getelementptr inbounds ([351 x i8*], [351 x i8*]* @_ZN5blink16event_type_names13names_storageE, i64 0, i64 135) to %"class.WTF::AtomicString"*), align 8
@_ZN5blink16event_type_names15kGeometrychangeE = hidden local_unnamed_addr constant %"class.WTF::AtomicString"* bitcast (i8** getelementptr inbounds ([351 x i8*], [351 x i8*]* @_ZN5blink16event_type_names13names_storageE, i64 0, i64 136) to %"class.WTF::AtomicString"*), align 8
@_ZN5blink16event_type_names18kGestureflingstartE = hidden local_unnamed_addr constant %"class.WTF::AtomicString"* bitcast (i8** getelementptr inbounds ([351 x i8*], [351 x i8*]* @_ZN5blink16event_type_names13names_storageE, i64 0, i64 137) to %"class.WTF::AtomicString"*), align 8
@_ZN5blink16event_type_names17kGesturelongpressE = hidden local_unnamed_addr constant %"class.WTF::AtomicString"* bitcast (i8** getelementptr inbounds ([351 x i8*], [351 x i8*]* @_ZN5blink16event_type_names13names_storageE, i64 0, i64 138) to %"class.WTF::AtomicString"*), align 8
@_ZN5blink16event_type_names17kGesturescrollendE = hidden local_unnamed_addr constant %"class.WTF::AtomicString"* bitcast (i8** getelementptr inbounds ([351 x i8*], [351 x i8*]* @_ZN5blink16event_type_names13names_storageE, i64 0, i64 139) to %"class.WTF::AtomicString"*), align 8
@_ZN5blink16event_type_names19kGesturescrollstartE = hidden local_unnamed_addr constant %"class.WTF::AtomicString"* bitcast (i8** getelementptr inbounds ([351 x i8*], [351 x i8*]* @_ZN5blink16event_type_names13names_storageE, i64 0, i64 140) to %"class.WTF::AtomicString"*), align 8
@_ZN5blink16event_type_names20kGesturescrollupdateE = hidden local_unnamed_addr constant %"class.WTF::AtomicString"* bitcast (i8** getelementptr inbounds ([351 x i8*], [351 x i8*]* @_ZN5blink16event_type_names13names_storageE, i64 0, i64 141) to %"class.WTF::AtomicString"*), align 8
@_ZN5blink16event_type_names17kGestureshowpressE = hidden local_unnamed_addr constant %"class.WTF::AtomicString"* bitcast (i8** getelementptr inbounds ([351 x i8*], [351 x i8*]* @_ZN5blink16event_type_names13names_storageE, i64 0, i64 142) to %"class.WTF::AtomicString"*), align 8
@_ZN5blink16event_type_names11kGesturetapE = hidden local_unnamed_addr constant %"class.WTF::AtomicString"* bitcast (i8** getelementptr inbounds ([351 x i8*], [351 x i8*]* @_ZN5blink16event_type_names13names_storageE, i64 0, i64 143) to %"class.WTF::AtomicString"*), align 8
@_ZN5blink16event_type_names15kGesturetapdownE = hidden local_unnamed_addr constant %"class.WTF::AtomicString"* bitcast (i8** getelementptr inbounds ([351 x i8*], [351 x i8*]* @_ZN5blink16event_type_names13names_storageE, i64 0, i64 144) to %"class.WTF::AtomicString"*), align 8
@_ZN5blink16event_type_names22kGesturetapunconfirmedE = hidden local_unnamed_addr constant %"class.WTF::AtomicString"* bitcast (i8** getelementptr inbounds ([351 x i8*], [351 x i8*]* @_ZN5blink16event_type_names13names_storageE, i64 0, i64 145) to %"class.WTF::AtomicString"*), align 8
@_ZN5blink16event_type_names18kGotpointercaptureE = hidden local_unnamed_addr constant %"class.WTF::AtomicString"* bitcast (i8** getelementptr inbounds ([351 x i8*], [351 x i8*]* @_ZN5blink16event_type_names13names_storageE, i64 0, i64 146) to %"class.WTF::AtomicString"*), align 8
@_ZN5blink16event_type_names11kHashchangeE = hidden local_unnamed_addr constant %"class.WTF::AtomicString"* bitcast (i8** getelementptr inbounds ([351 x i8*], [351 x i8*]* @_ZN5blink16event_type_names13names_storageE, i64 0, i64 147) to %"class.WTF::AtomicString"*), align 8
@_ZN5blink16event_type_names5kHideE = hidden local_unnamed_addr constant %"class.WTF::AtomicString"* bitcast (i8** getelementptr inbounds ([351 x i8*], [351 x i8*]* @_ZN5blink16event_type_names13names_storageE, i64 0, i64 148) to %"class.WTF::AtomicString"*), align 8
@_ZN5blink16event_type_names13kIcecandidateE = hidden local_unnamed_addr constant %"class.WTF::AtomicString"* bitcast (i8** getelementptr inbounds ([351 x i8*], [351 x i8*]* @_ZN5blink16event_type_names13names_storageE, i64 0, i64 149) to %"class.WTF::AtomicString"*), align 8
@_ZN5blink16event_type_names18kIcecandidateerrorE = hidden local_unnamed_addr constant %"class.WTF::AtomicString"* bitcast (i8** getelementptr inbounds ([351 x i8*], [351 x i8*]* @_ZN5blink16event_type_names13names_storageE, i64 0, i64 150) to %"class.WTF::AtomicString"*), align 8
@_ZN5blink16event_type_names25kIceconnectionstatechangeE = hidden local_unnamed_addr constant %"class.WTF::AtomicString"* bitcast (i8** getelementptr inbounds ([351 x i8*], [351 x i8*]* @_ZN5blink16event_type_names13names_storageE, i64 0, i64 151) to %"class.WTF::AtomicString"*), align 8
@_ZN5blink16event_type_names24kIcegatheringstatechangeE = hidden local_unnamed_addr constant %"class.WTF::AtomicString"* bitcast (i8** getelementptr inbounds ([351 x i8*], [351 x i8*]* @_ZN5blink16event_type_names13names_storageE, i64 0, i64 152) to %"class.WTF::AtomicString"*), align 8
@_ZN5blink16event_type_names9kInactiveE = hidden local_unnamed_addr constant %"class.WTF::AtomicString"* bitcast (i8** getelementptr inbounds ([351 x i8*], [351 x i8*]* @_ZN5blink16event_type_names13names_storageE, i64 0, i64 153) to %"class.WTF::AtomicString"*), align 8
@_ZN5blink16event_type_names6kInputE = hidden local_unnamed_addr constant %"class.WTF::AtomicString"* bitcast (i8** getelementptr inbounds ([351 x i8*], [351 x i8*]* @_ZN5blink16event_type_names13names_storageE, i64 0, i64 154) to %"class.WTF::AtomicString"*), align 8
@_ZN5blink16event_type_names12kInputreportE = hidden local_unnamed_addr constant %"class.WTF::AtomicString"* bitcast (i8** getelementptr inbounds ([351 x i8*], [351 x i8*]* @_ZN5blink16event_type_names13names_storageE, i64 0, i64 155) to %"class.WTF::AtomicString"*), align 8
@_ZN5blink16event_type_names19kInputsourceschangeE = hidden local_unnamed_addr constant %"class.WTF::AtomicString"* bitcast (i8** getelementptr inbounds ([351 x i8*], [351 x i8*]* @_ZN5blink16event_type_names13names_storageE, i64 0, i64 156) to %"class.WTF::AtomicString"*), align 8
@_ZN5blink16event_type_names8kInstallE = hidden local_unnamed_addr constant %"class.WTF::AtomicString"* bitcast (i8** getelementptr inbounds ([351 x i8*], [351 x i8*]* @_ZN5blink16event_type_names13names_storageE, i64 0, i64 157) to %"class.WTF::AtomicString"*), align 8
@_ZN5blink16event_type_names17kInterfacerequestE = hidden local_unnamed_addr constant %"class.WTF::AtomicString"* bitcast (i8** getelementptr inbounds ([351 x i8*], [351 x i8*]* @_ZN5blink16event_type_names13names_storageE, i64 0, i64 158) to %"class.WTF::AtomicString"*), align 8
@_ZN5blink16event_type_names8kInvalidE = hidden local_unnamed_addr constant %"class.WTF::AtomicString"* bitcast (i8** getelementptr inbounds ([351 x i8*], [351 x i8*]* @_ZN5blink16event_type_names13names_storageE, i64 0, i64 159) to %"class.WTF::AtomicString"*), align 8
@_ZN5blink16event_type_names8kKeydownE = hidden local_unnamed_addr constant %"class.WTF::AtomicString"* bitcast (i8** getelementptr inbounds ([351 x i8*], [351 x i8*]* @_ZN5blink16event_type_names13names_storageE, i64 0, i64 160) to %"class.WTF::AtomicString"*), align 8
@_ZN5blink16event_type_names9kKeypressE = hidden local_unnamed_addr constant %"class.WTF::AtomicString"* bitcast (i8** getelementptr inbounds ([351 x i8*], [351 x i8*]* @_ZN5blink16event_type_names13names_storageE, i64 0, i64 161) to %"class.WTF::AtomicString"*), align 8
@_ZN5blink16event_type_names18kKeystatuseschangeE = hidden local_unnamed_addr constant %"class.WTF::AtomicString"* bitcast (i8** getelementptr inbounds ([351 x i8*], [351 x i8*]* @_ZN5blink16event_type_names13names_storageE, i64 0, i64 162) to %"class.WTF::AtomicString"*), align 8
@_ZN5blink16event_type_names6kKeyupE = hidden local_unnamed_addr constant %"class.WTF::AtomicString"* bitcast (i8** getelementptr inbounds ([351 x i8*], [351 x i8*]* @_ZN5blink16event_type_names13names_storageE, i64 0, i64 163) to %"class.WTF::AtomicString"*), align 8
@_ZN5blink16event_type_names15kLanguagechangeE = hidden local_unnamed_addr constant %"class.WTF::AtomicString"* bitcast (i8** getelementptr inbounds ([351 x i8*], [351 x i8*]* @_ZN5blink16event_type_names13names_storageE, i64 0, i64 164) to %"class.WTF::AtomicString"*), align 8
@_ZN5blink16event_type_names22kLeavepictureinpictureE = hidden local_unnamed_addr constant %"class.WTF::AtomicString"* bitcast (i8** getelementptr inbounds ([351 x i8*], [351 x i8*]* @_ZN5blink16event_type_names13names_storageE, i64 0, i64 165) to %"class.WTF::AtomicString"*), align 8
@_ZN5blink16event_type_names12kLevelchangeE = hidden local_unnamed_addr constant %"class.WTF::AtomicString"* bitcast (i8** getelementptr inbounds ([351 x i8*], [351 x i8*]* @_ZN5blink16event_type_names13names_storageE, i64 0, i64 166) to %"class.WTF::AtomicString"*), align 8
@_ZN5blink16event_type_names5kLoadE = hidden local_unnamed_addr constant %"class.WTF::AtomicString"* bitcast (i8** getelementptr inbounds ([351 x i8*], [351 x i8*]* @_ZN5blink16event_type_names13names_storageE, i64 0, i64 167) to %"class.WTF::AtomicString"*), align 8
@_ZN5blink16event_type_names11kLoadeddataE = hidden local_unnamed_addr constant %"class.WTF::AtomicString"* bitcast (i8** getelementptr inbounds ([351 x i8*], [351 x i8*]* @_ZN5blink16event_type_names13names_storageE, i64 0, i64 168) to %"class.WTF::AtomicString"*), align 8
@_ZN5blink16event_type_names15kLoadedmetadataE = hidden local_unnamed_addr constant %"class.WTF::AtomicString"* bitcast (i8** getelementptr inbounds ([351 x i8*], [351 x i8*]* @_ZN5blink16event_type_names13names_storageE, i64 0, i64 169) to %"class.WTF::AtomicString"*), align 8
@_ZN5blink16event_type_names8kLoadendE = hidden local_unnamed_addr constant %"class.WTF::AtomicString"* bitcast (i8** getelementptr inbounds ([351 x i8*], [351 x i8*]* @_ZN5blink16event_type_names13names_storageE, i64 0, i64 170) to %"class.WTF::AtomicString"*), align 8
@_ZN5blink16event_type_names8kLoadingE = hidden local_unnamed_addr constant %"class.WTF::AtomicString"* bitcast (i8** getelementptr inbounds ([351 x i8*], [351 x i8*]* @_ZN5blink16event_type_names13names_storageE, i64 0, i64 171) to %"class.WTF::AtomicString"*), align 8
@_ZN5blink16event_type_names12kLoadingdoneE = hidden local_unnamed_addr constant %"class.WTF::AtomicString"* bitcast (i8** getelementptr inbounds ([351 x i8*], [351 x i8*]* @_ZN5blink16event_type_names13names_storageE, i64 0, i64 172) to %"class.WTF::AtomicString"*), align 8
@_ZN5blink16event_type_names13kLoadingerrorE = hidden local_unnamed_addr constant %"class.WTF::AtomicString"* bitcast (i8** getelementptr inbounds ([351 x i8*], [351 x i8*]* @_ZN5blink16event_type_names13names_storageE, i64 0, i64 173) to %"class.WTF::AtomicString"*), align 8
@_ZN5blink16event_type_names10kLoadstartE = hidden local_unnamed_addr constant %"class.WTF::AtomicString"* bitcast (i8** getelementptr inbounds ([351 x i8*], [351 x i8*]* @_ZN5blink16event_type_names13names_storageE, i64 0, i64 174) to %"class.WTF::AtomicString"*), align 8
@_ZN5blink16event_type_names19kLostpointercaptureE = hidden local_unnamed_addr constant %"class.WTF::AtomicString"* bitcast (i8** getelementptr inbounds ([351 x i8*], [351 x i8*]* @_ZN5blink16event_type_names13names_storageE, i64 0, i64 175) to %"class.WTF::AtomicString"*), align 8
@_ZN5blink16event_type_names27kManagedconfigurationchangeE = hidden local_unnamed_addr constant %"class.WTF::AtomicString"* bitcast (i8** getelementptr inbounds ([351 x i8*], [351 x i8*]* @_ZN5blink16event_type_names13names_storageE, i64 0, i64 176) to %"class.WTF::AtomicString"*), align 8
@_ZN5blink16event_type_names5kMarkE = hidden local_unnamed_addr constant %"class.WTF::AtomicString"* bitcast (i8** getelementptr inbounds ([351 x i8*], [351 x i8*]* @_ZN5blink16event_type_names13names_storageE, i64 0, i64 177) to %"class.WTF::AtomicString"*), align 8
@_ZN5blink16event_type_names8kMessageE = hidden local_unnamed_addr constant %"class.WTF::AtomicString"* bitcast (i8** getelementptr inbounds ([351 x i8*], [351 x i8*]* @_ZN5blink16event_type_names13names_storageE, i64 0, i64 178) to %"class.WTF::AtomicString"*), align 8
@_ZN5blink16event_type_names13kMessageerrorE = hidden local_unnamed_addr constant %"class.WTF::AtomicString"* bitcast (i8** getelementptr inbounds ([351 x i8*], [351 x i8*]* @_ZN5blink16event_type_names13names_storageE, i64 0, i64 179) to %"class.WTF::AtomicString"*), align 8
@_ZN5blink16event_type_names12kMidimessageE = hidden local_unnamed_addr constant %"class.WTF::AtomicString"* bitcast (i8** getelementptr inbounds ([351 x i8*], [351 x i8*]* @_ZN5blink16event_type_names13names_storageE, i64 0, i64 180) to %"class.WTF::AtomicString"*), align 8
@_ZN5blink16event_type_names10kMousedownE = hidden local_unnamed_addr constant %"class.WTF::AtomicString"* bitcast (i8** getelementptr inbounds ([351 x i8*], [351 x i8*]* @_ZN5blink16event_type_names13names_storageE, i64 0, i64 181) to %"class.WTF::AtomicString"*), align 8
@_ZN5blink16event_type_names11kMouseenterE = hidden local_unnamed_addr constant %"class.WTF::AtomicString"* bitcast (i8** getelementptr inbounds ([351 x i8*], [351 x i8*]* @_ZN5blink16event_type_names13names_storageE, i64 0, i64 182) to %"class.WTF::AtomicString"*), align 8
@_ZN5blink16event_type_names11kMouseleaveE = hidden local_unnamed_addr constant %"class.WTF::AtomicString"* bitcast (i8** getelementptr inbounds ([351 x i8*], [351 x i8*]* @_ZN5blink16event_type_names13names_storageE, i64 0, i64 183) to %"class.WTF::AtomicString"*), align 8
@_ZN5blink16event_type_names10kMousemoveE = hidden local_unnamed_addr constant %"class.WTF::AtomicString"* bitcast (i8** getelementptr inbounds ([351 x i8*], [351 x i8*]* @_ZN5blink16event_type_names13names_storageE, i64 0, i64 184) to %"class.WTF::AtomicString"*), align 8
@_ZN5blink16event_type_names9kMouseoutE = hidden local_unnamed_addr constant %"class.WTF::AtomicString"* bitcast (i8** getelementptr inbounds ([351 x i8*], [351 x i8*]* @_ZN5blink16event_type_names13names_storageE, i64 0, i64 185) to %"class.WTF::AtomicString"*), align 8
@_ZN5blink16event_type_names10kMouseoverE = hidden local_unnamed_addr constant %"class.WTF::AtomicString"* bitcast (i8** getelementptr inbounds ([351 x i8*], [351 x i8*]* @_ZN5blink16event_type_names13names_storageE, i64 0, i64 186) to %"class.WTF::AtomicString"*), align 8
@_ZN5blink16event_type_names8kMouseupE = hidden local_unnamed_addr constant %"class.WTF::AtomicString"* bitcast (i8** getelementptr inbounds ([351 x i8*], [351 x i8*]* @_ZN5blink16event_type_names13names_storageE, i64 0, i64 187) to %"class.WTF::AtomicString"*), align 8
@_ZN5blink16event_type_names11kMousewheelE = hidden local_unnamed_addr constant %"class.WTF::AtomicString"* bitcast (i8** getelementptr inbounds ([351 x i8*], [351 x i8*]* @_ZN5blink16event_type_names13names_storageE, i64 0, i64 188) to %"class.WTF::AtomicString"*), align 8
@_ZN5blink16event_type_names5kMuteE = hidden local_unnamed_addr constant %"class.WTF::AtomicString"* bitcast (i8** getelementptr inbounds ([351 x i8*], [351 x i8*]* @_ZN5blink16event_type_names13names_storageE, i64 0, i64 189) to %"class.WTF::AtomicString"*), align 8
@_ZN5blink16event_type_names9kNavigateE = hidden local_unnamed_addr constant %"class.WTF::AtomicString"* bitcast (i8** getelementptr inbounds ([351 x i8*], [351 x i8*]* @_ZN5blink16event_type_names13names_storageE, i64 0, i64 190) to %"class.WTF::AtomicString"*), align 8
@_ZN5blink16event_type_names14kNavigateerrorE = hidden local_unnamed_addr constant %"class.WTF::AtomicString"* bitcast (i8** getelementptr inbounds ([351 x i8*], [351 x i8*]* @_ZN5blink16event_type_names13names_storageE, i64 0, i64 191) to %"class.WTF::AtomicString"*), align 8
@_ZN5blink16event_type_names16kNavigatesuccessE = hidden local_unnamed_addr constant %"class.WTF::AtomicString"* bitcast (i8** getelementptr inbounds ([351 x i8*], [351 x i8*]* @_ZN5blink16event_type_names13names_storageE, i64 0, i64 192) to %"class.WTF::AtomicString"*), align 8
@_ZN5blink16event_type_names18kNegotiationneededE = hidden local_unnamed_addr constant %"class.WTF::AtomicString"* bitcast (i8** getelementptr inbounds ([351 x i8*], [351 x i8*]* @_ZN5blink16event_type_names13names_storageE, i64 0, i64 193) to %"class.WTF::AtomicString"*), align 8
@_ZN5blink16event_type_names8kNomatchE = hidden local_unnamed_addr constant %"class.WTF::AtomicString"* bitcast (i8** getelementptr inbounds ([351 x i8*], [351 x i8*]* @_ZN5blink16event_type_names13names_storageE, i64 0, i64 194) to %"class.WTF::AtomicString"*), align 8
@_ZN5blink16event_type_names18kNotificationclickE = hidden local_unnamed_addr constant %"class.WTF::AtomicString"* bitcast (i8** getelementptr inbounds ([351 x i8*], [351 x i8*]* @_ZN5blink16event_type_names13names_storageE, i64 0, i64 195) to %"class.WTF::AtomicString"*), align 8
@_ZN5blink16event_type_names18kNotificationcloseE = hidden local_unnamed_addr constant %"class.WTF::AtomicString"* bitcast (i8** getelementptr inbounds ([351 x i8*], [351 x i8*]* @_ZN5blink16event_type_names13names_storageE, i64 0, i64 196) to %"class.WTF::AtomicString"*), align 8
@_ZN5blink16event_type_names18kNotificationerrorE = hidden local_unnamed_addr constant %"class.WTF::AtomicString"* bitcast (i8** getelementptr inbounds ([351 x i8*], [351 x i8*]* @_ZN5blink16event_type_names13names_storageE, i64 0, i64 197) to %"class.WTF::AtomicString"*), align 8
@_ZN5blink16event_type_names9kNoupdateE = hidden local_unnamed_addr constant %"class.WTF::AtomicString"* bitcast (i8** getelementptr inbounds ([351 x i8*], [351 x i8*]* @_ZN5blink16event_type_names13names_storageE, i64 0, i64 198) to %"class.WTF::AtomicString"*), align 8
@_ZN5blink16event_type_names9kObsoleteE = hidden local_unnamed_addr constant %"class.WTF::AtomicString"* bitcast (i8** getelementptr inbounds ([351 x i8*], [351 x i8*]* @_ZN5blink16event_type_names13names_storageE, i64 0, i64 199) to %"class.WTF::AtomicString"*), align 8
@_ZN5blink16event_type_names8kOfflineE = hidden local_unnamed_addr constant %"class.WTF::AtomicString"* bitcast (i8** getelementptr inbounds ([351 x i8*], [351 x i8*]* @_ZN5blink16event_type_names13names_storageE, i64 0, i64 200) to %"class.WTF::AtomicString"*), align 8
@_ZN5blink16event_type_names7kOnlineE = hidden local_unnamed_addr constant %"class.WTF::AtomicString"* bitcast (i8** getelementptr inbounds ([351 x i8*], [351 x i8*]* @_ZN5blink16event_type_names13names_storageE, i64 0, i64 201) to %"class.WTF::AtomicString"*), align 8
@_ZN5blink16event_type_names5kOpenE = hidden local_unnamed_addr constant %"class.WTF::AtomicString"* bitcast (i8** getelementptr inbounds ([351 x i8*], [351 x i8*]* @_ZN5blink16event_type_names13names_storageE, i64 0, i64 202) to %"class.WTF::AtomicString"*), align 8
@_ZN5blink16event_type_names18kOrientationchangeE = hidden local_unnamed_addr constant %"class.WTF::AtomicString"* bitcast (i8** getelementptr inbounds ([351 x i8*], [351 x i8*]* @_ZN5blink16event_type_names13names_storageE, i64 0, i64 203) to %"class.WTF::AtomicString"*), align 8
@_ZN5blink16event_type_names11kOverscrollE = hidden local_unnamed_addr constant %"class.WTF::AtomicString"* bitcast (i8** getelementptr inbounds ([351 x i8*], [351 x i8*]* @_ZN5blink16event_type_names13names_storageE, i64 0, i64 204) to %"class.WTF::AtomicString"*), align 8
@_ZN5blink16event_type_names9kPagehideE = hidden local_unnamed_addr constant %"class.WTF::AtomicString"* bitcast (i8** getelementptr inbounds ([351 x i8*], [351 x i8*]* @_ZN5blink16event_type_names13names_storageE, i64 0, i64 205) to %"class.WTF::AtomicString"*), align 8
@_ZN5blink16event_type_names9kPageshowE = hidden local_unnamed_addr constant %"class.WTF::AtomicString"* bitcast (i8** getelementptr inbounds ([351 x i8*], [351 x i8*]* @_ZN5blink16event_type_names13names_storageE, i64 0, i64 206) to %"class.WTF::AtomicString"*), align 8
@_ZN5blink16event_type_names6kPasteE = hidden local_unnamed_addr constant %"class.WTF::AtomicString"* bitcast (i8** getelementptr inbounds ([351 x i8*], [351 x i8*]* @_ZN5blink16event_type_names13names_storageE, i64 0, i64 207) to %"class.WTF::AtomicString"*), align 8
@_ZN5blink16event_type_names6kPauseE = hidden local_unnamed_addr constant %"class.WTF::AtomicString"* bitcast (i8** getelementptr inbounds ([351 x i8*], [351 x i8*]* @_ZN5blink16event_type_names13names_storageE, i64 0, i64 208) to %"class.WTF::AtomicString"*), align 8
@_ZN5blink16event_type_names18kPayerdetailchangeE = hidden local_unnamed_addr constant %"class.WTF::AtomicString"* bitcast (i8** getelementptr inbounds ([351 x i8*], [351 x i8*]* @_ZN5blink16event_type_names13names_storageE, i64 0, i64 209) to %"class.WTF::AtomicString"*), align 8
@_ZN5blink16event_type_names20kPaymentmethodchangeE = hidden local_unnamed_addr constant %"class.WTF::AtomicString"* bitcast (i8** getelementptr inbounds ([351 x i8*], [351 x i8*]* @_ZN5blink16event_type_names13names_storageE, i64 0, i64 210) to %"class.WTF::AtomicString"*), align 8
@_ZN5blink16event_type_names15kPaymentrequestE = hidden local_unnamed_addr constant %"class.WTF::AtomicString"* bitcast (i8** getelementptr inbounds ([351 x i8*], [351 x i8*]* @_ZN5blink16event_type_names13names_storageE, i64 0, i64 211) to %"class.WTF::AtomicString"*), align 8
@_ZN5blink16event_type_names13kPeriodicsyncE = hidden local_unnamed_addr constant %"class.WTF::AtomicString"* bitcast (i8** getelementptr inbounds ([351 x i8*], [351 x i8*]* @_ZN5blink16event_type_names13names_storageE, i64 0, i64 212) to %"class.WTF::AtomicString"*), align 8
@_ZN5blink16event_type_names5kPlayE = hidden local_unnamed_addr constant %"class.WTF::AtomicString"* bitcast (i8** getelementptr inbounds ([351 x i8*], [351 x i8*]* @_ZN5blink16event_type_names13names_storageE, i64 0, i64 213) to %"class.WTF::AtomicString"*), align 8
@_ZN5blink16event_type_names8kPlayingE = hidden local_unnamed_addr constant %"class.WTF::AtomicString"* bitcast (i8** getelementptr inbounds ([351 x i8*], [351 x i8*]* @_ZN5blink16event_type_names13names_storageE, i64 0, i64 214) to %"class.WTF::AtomicString"*), align 8
@_ZN5blink16event_type_names14kPointercancelE = hidden local_unnamed_addr constant %"class.WTF::AtomicString"* bitcast (i8** getelementptr inbounds ([351 x i8*], [351 x i8*]* @_ZN5blink16event_type_names13names_storageE, i64 0, i64 215) to %"class.WTF::AtomicString"*), align 8
@_ZN5blink16event_type_names12kPointerdownE = hidden local_unnamed_addr constant %"class.WTF::AtomicString"* bitcast (i8** getelementptr inbounds ([351 x i8*], [351 x i8*]* @_ZN5blink16event_type_names13names_storageE, i64 0, i64 216) to %"class.WTF::AtomicString"*), align 8
@_ZN5blink16event_type_names13kPointerenterE = hidden local_unnamed_addr constant %"class.WTF::AtomicString"* bitcast (i8** getelementptr inbounds ([351 x i8*], [351 x i8*]* @_ZN5blink16event_type_names13names_storageE, i64 0, i64 217) to %"class.WTF::AtomicString"*), align 8
@_ZN5blink16event_type_names13kPointerleaveE = hidden local_unnamed_addr constant %"class.WTF::AtomicString"* bitcast (i8** getelementptr inbounds ([351 x i8*], [351 x i8*]* @_ZN5blink16event_type_names13names_storageE, i64 0, i64 218) to %"class.WTF::AtomicString"*), align 8
@_ZN5blink16event_type_names18kPointerlockchangeE = hidden local_unnamed_addr constant %"class.WTF::AtomicString"* bitcast (i8** getelementptr inbounds ([351 x i8*], [351 x i8*]* @_ZN5blink16event_type_names13names_storageE, i64 0, i64 219) to %"class.WTF::AtomicString"*), align 8
@_ZN5blink16event_type_names17kPointerlockerrorE = hidden local_unnamed_addr constant %"class.WTF::AtomicString"* bitcast (i8** getelementptr inbounds ([351 x i8*], [351 x i8*]* @_ZN5blink16event_type_names13names_storageE, i64 0, i64 220) to %"class.WTF::AtomicString"*), align 8
@_ZN5blink16event_type_names12kPointermoveE = hidden local_unnamed_addr constant %"class.WTF::AtomicString"* bitcast (i8** getelementptr inbounds ([351 x i8*], [351 x i8*]* @_ZN5blink16event_type_names13names_storageE, i64 0, i64 221) to %"class.WTF::AtomicString"*), align 8
@_ZN5blink16event_type_names11kPointeroutE = hidden local_unnamed_addr constant %"class.WTF::AtomicString"* bitcast (i8** getelementptr inbounds ([351 x i8*], [351 x i8*]* @_ZN5blink16event_type_names13names_storageE, i64 0, i64 222) to %"class.WTF::AtomicString"*), align 8
@_ZN5blink16event_type_names12kPointeroverE = hidden local_unnamed_addr constant %"class.WTF::AtomicString"* bitcast (i8** getelementptr inbounds ([351 x i8*], [351 x i8*]* @_ZN5blink16event_type_names13names_storageE, i64 0, i64 223) to %"class.WTF::AtomicString"*), align 8
@_ZN5blink16event_type_names17kPointerrawupdateE = hidden local_unnamed_addr constant %"class.WTF::AtomicString"* bitcast (i8** getelementptr inbounds ([351 x i8*], [351 x i8*]* @_ZN5blink16event_type_names13names_storageE, i64 0, i64 224) to %"class.WTF::AtomicString"*), align 8
@_ZN5blink16event_type_names10kPointerupE = hidden local_unnamed_addr constant %"class.WTF::AtomicString"* bitcast (i8** getelementptr inbounds ([351 x i8*], [351 x i8*]* @_ZN5blink16event_type_names13names_storageE, i64 0, i64 225) to %"class.WTF::AtomicString"*), align 8
@_ZN5blink16event_type_names9kPopstateE = hidden local_unnamed_addr constant %"class.WTF::AtomicString"* bitcast (i8** getelementptr inbounds ([351 x i8*], [351 x i8*]* @_ZN5blink16event_type_names13names_storageE, i64 0, i64 226) to %"class.WTF::AtomicString"*), align 8
@_ZN5blink16event_type_names15kPortalactivateE = hidden local_unnamed_addr constant %"class.WTF::AtomicString"* bitcast (i8** getelementptr inbounds ([351 x i8*], [351 x i8*]* @_ZN5blink16event_type_names13names_storageE, i64 0, i64 227) to %"class.WTF::AtomicString"*), align 8
@_ZN5blink16event_type_names19kPrerenderingchangeE = hidden local_unnamed_addr constant %"class.WTF::AtomicString"* bitcast (i8** getelementptr inbounds ([351 x i8*], [351 x i8*]* @_ZN5blink16event_type_names13names_storageE, i64 0, i64 228) to %"class.WTF::AtomicString"*), align 8
@_ZN5blink16event_type_names15kPrioritychangeE = hidden local_unnamed_addr constant %"class.WTF::AtomicString"* bitcast (i8** getelementptr inbounds ([351 x i8*], [351 x i8*]* @_ZN5blink16event_type_names13names_storageE, i64 0, i64 229) to %"class.WTF::AtomicString"*), align 8
@_ZN5blink16event_type_names15kProcessorerrorE = hidden local_unnamed_addr constant %"class.WTF::AtomicString"* bitcast (i8** getelementptr inbounds ([351 x i8*], [351 x i8*]* @_ZN5blink16event_type_names13names_storageE, i64 0, i64 230) to %"class.WTF::AtomicString"*), align 8
@_ZN5blink16event_type_names9kProgressE = hidden local_unnamed_addr constant %"class.WTF::AtomicString"* bitcast (i8** getelementptr inbounds ([351 x i8*], [351 x i8*]* @_ZN5blink16event_type_names13names_storageE, i64 0, i64 231) to %"class.WTF::AtomicString"*), align 8
@_ZN5blink16event_type_names5kPushE = hidden local_unnamed_addr constant %"class.WTF::AtomicString"* bitcast (i8** getelementptr inbounds ([351 x i8*], [351 x i8*]* @_ZN5blink16event_type_names13names_storageE, i64 0, i64 232) to %"class.WTF::AtomicString"*), align 8
@_ZN5blink16event_type_names23kPushsubscriptionchangeE = hidden local_unnamed_addr constant %"class.WTF::AtomicString"* bitcast (i8** getelementptr inbounds ([351 x i8*], [351 x i8*]* @_ZN5blink16event_type_names13names_storageE, i64 0, i64 233) to %"class.WTF::AtomicString"*), align 8
@_ZN5blink16event_type_names11kQuicstreamE = hidden local_unnamed_addr constant %"class.WTF::AtomicString"* bitcast (i8** getelementptr inbounds ([351 x i8*], [351 x i8*]* @_ZN5blink16event_type_names13names_storageE, i64 0, i64 234) to %"class.WTF::AtomicString"*), align 8
@_ZN5blink16event_type_names12kQuotachangeE = hidden local_unnamed_addr constant %"class.WTF::AtomicString"* bitcast (i8** getelementptr inbounds ([351 x i8*], [351 x i8*]* @_ZN5blink16event_type_names13names_storageE, i64 0, i64 235) to %"class.WTF::AtomicString"*), align 8
@_ZN5blink16event_type_names11kRatechangeE = hidden local_unnamed_addr constant %"class.WTF::AtomicString"* bitcast (i8** getelementptr inbounds ([351 x i8*], [351 x i8*]* @_ZN5blink16event_type_names13names_storageE, i64 0, i64 236) to %"class.WTF::AtomicString"*), align 8
@_ZN5blink16event_type_names8kReadingE = hidden local_unnamed_addr constant %"class.WTF::AtomicString"* bitcast (i8** getelementptr inbounds ([351 x i8*], [351 x i8*]* @_ZN5blink16event_type_names13names_storageE, i64 0, i64 237) to %"class.WTF::AtomicString"*), align 8
@_ZN5blink16event_type_names13kReadingerrorE = hidden local_unnamed_addr constant %"class.WTF::AtomicString"* bitcast (i8** getelementptr inbounds ([351 x i8*], [351 x i8*]* @_ZN5blink16event_type_names13names_storageE, i64 0, i64 238) to %"class.WTF::AtomicString"*), align 8
@_ZN5blink16event_type_names17kReadystatechangeE = hidden local_unnamed_addr constant %"class.WTF::AtomicString"* bitcast (i8** getelementptr inbounds ([351 x i8*], [351 x i8*]* @_ZN5blink16event_type_names13names_storageE, i64 0, i64 239) to %"class.WTF::AtomicString"*), align 8
@_ZN5blink16event_type_names17kReflectionchangeE = hidden local_unnamed_addr constant %"class.WTF::AtomicString"* bitcast (i8** getelementptr inbounds ([351 x i8*], [351 x i8*]* @_ZN5blink16event_type_names13names_storageE, i64 0, i64 240) to %"class.WTF::AtomicString"*), align 8
@_ZN5blink16event_type_names17kRejectionhandledE = hidden local_unnamed_addr constant %"class.WTF::AtomicString"* bitcast (i8** getelementptr inbounds ([351 x i8*], [351 x i8*]* @_ZN5blink16event_type_names13names_storageE, i64 0, i64 241) to %"class.WTF::AtomicString"*), align 8
@_ZN5blink16event_type_names8kReleaseE = hidden local_unnamed_addr constant %"class.WTF::AtomicString"* bitcast (i8** getelementptr inbounds ([351 x i8*], [351 x i8*]* @_ZN5blink16event_type_names13names_storageE, i64 0, i64 242) to %"class.WTF::AtomicString"*), align 8
@_ZN5blink16event_type_names7kRemoveE = hidden local_unnamed_addr constant %"class.WTF::AtomicString"* bitcast (i8** getelementptr inbounds ([351 x i8*], [351 x i8*]* @_ZN5blink16event_type_names13names_storageE, i64 0, i64 243) to %"class.WTF::AtomicString"*), align 8
@_ZN5blink16event_type_names19kRemovesourcebufferE = hidden local_unnamed_addr constant %"class.WTF::AtomicString"* bitcast (i8** getelementptr inbounds ([351 x i8*], [351 x i8*]* @_ZN5blink16event_type_names13names_storageE, i64 0, i64 244) to %"class.WTF::AtomicString"*), align 8
@_ZN5blink16event_type_names13kRemovestreamE = hidden local_unnamed_addr constant %"class.WTF::AtomicString"* bitcast (i8** getelementptr inbounds ([351 x i8*], [351 x i8*]* @_ZN5blink16event_type_names13names_storageE, i64 0, i64 245) to %"class.WTF::AtomicString"*), align 8
@_ZN5blink16event_type_names12kRemovetrackE = hidden local_unnamed_addr constant %"class.WTF::AtomicString"* bitcast (i8** getelementptr inbounds ([351 x i8*], [351 x i8*]* @_ZN5blink16event_type_names13names_storageE, i64 0, i64 246) to %"class.WTF::AtomicString"*), align 8
@_ZN5blink16event_type_names12kRepeatEventE = hidden local_unnamed_addr constant %"class.WTF::AtomicString"* bitcast (i8** getelementptr inbounds ([351 x i8*], [351 x i8*]* @_ZN5blink16event_type_names13names_storageE, i64 0, i64 247) to %"class.WTF::AtomicString"*), align 8
@_ZN5blink16event_type_names6kResetE = hidden local_unnamed_addr constant %"class.WTF::AtomicString"* bitcast (i8** getelementptr inbounds ([351 x i8*], [351 x i8*]* @_ZN5blink16event_type_names13names_storageE, i64 0, i64 248) to %"class.WTF::AtomicString"*), align 8
@_ZN5blink16event_type_names10kResetposeE = hidden local_unnamed_addr constant %"class.WTF::AtomicString"* bitcast (i8** getelementptr inbounds ([351 x i8*], [351 x i8*]* @_ZN5blink16event_type_names13names_storageE, i64 0, i64 249) to %"class.WTF::AtomicString"*), align 8
@_ZN5blink16event_type_names7kResizeE = hidden local_unnamed_addr constant %"class.WTF::AtomicString"* bitcast (i8** getelementptr inbounds ([351 x i8*], [351 x i8*]* @_ZN5blink16event_type_names13names_storageE, i64 0, i64 250) to %"class.WTF::AtomicString"*), align 8
@_ZN5blink16event_type_names25kResourcetimingbufferfullE = hidden local_unnamed_addr constant %"class.WTF::AtomicString"* bitcast (i8** getelementptr inbounds ([351 x i8*], [351 x i8*]* @_ZN5blink16event_type_names13names_storageE, i64 0, i64 251) to %"class.WTF::AtomicString"*), align 8
@_ZN5blink16event_type_names7kResultE = hidden local_unnamed_addr constant %"class.WTF::AtomicString"* bitcast (i8** getelementptr inbounds ([351 x i8*], [351 x i8*]* @_ZN5blink16event_type_names13names_storageE, i64 0, i64 252) to %"class.WTF::AtomicString"*), align 8
@_ZN5blink16event_type_names7kResumeE = hidden local_unnamed_addr constant %"class.WTF::AtomicString"* bitcast (i8** getelementptr inbounds ([351 x i8*], [351 x i8*]* @_ZN5blink16event_type_names13names_storageE, i64 0, i64 253) to %"class.WTF::AtomicString"*), align 8
@_ZN5blink16event_type_names17kSamplebufferfullE = hidden local_unnamed_addr constant %"class.WTF::AtomicString"* bitcast (i8** getelementptr inbounds ([351 x i8*], [351 x i8*]* @_ZN5blink16event_type_names13names_storageE, i64 0, i64 254) to %"class.WTF::AtomicString"*), align 8
@_ZN5blink16event_type_names14kScreenschangeE = hidden local_unnamed_addr constant %"class.WTF::AtomicString"* bitcast (i8** getelementptr inbounds ([351 x i8*], [351 x i8*]* @_ZN5blink16event_type_names13names_storageE, i64 0, i64 255) to %"class.WTF::AtomicString"*), align 8
@_ZN5blink16event_type_names7kScrollE = hidden local_unnamed_addr constant %"class.WTF::AtomicString"* bitcast (i8** getelementptr inbounds ([351 x i8*], [351 x i8*]* @_ZN5blink16event_type_names13names_storageE, i64 0, i64 256) to %"class.WTF::AtomicString"*), align 8
@_ZN5blink16event_type_names10kScrollendE = hidden local_unnamed_addr constant %"class.WTF::AtomicString"* bitcast (i8** getelementptr inbounds ([351 x i8*], [351 x i8*]* @_ZN5blink16event_type_names13names_storageE, i64 0, i64 257) to %"class.WTF::AtomicString"*), align 8
@_ZN5blink16event_type_names7kSearchE = hidden local_unnamed_addr constant %"class.WTF::AtomicString"* bitcast (i8** getelementptr inbounds ([351 x i8*], [351 x i8*]* @_ZN5blink16event_type_names13names_storageE, i64 0, i64 258) to %"class.WTF::AtomicString"*), align 8
@_ZN5blink16event_type_names24kSecuritypolicyviolationE = hidden local_unnamed_addr constant %"class.WTF::AtomicString"* bitcast (i8** getelementptr inbounds ([351 x i8*], [351 x i8*]* @_ZN5blink16event_type_names13names_storageE, i64 0, i64 259) to %"class.WTF::AtomicString"*), align 8
@_ZN5blink16event_type_names7kSeekedE = hidden local_unnamed_addr constant %"class.WTF::AtomicString"* bitcast (i8** getelementptr inbounds ([351 x i8*], [351 x i8*]* @_ZN5blink16event_type_names13names_storageE, i64 0, i64 260) to %"class.WTF::AtomicString"*), align 8
@_ZN5blink16event_type_names8kSeekingE = hidden local_unnamed_addr constant %"class.WTF::AtomicString"* bitcast (i8** getelementptr inbounds ([351 x i8*], [351 x i8*]* @_ZN5blink16event_type_names13names_storageE, i64 0, i64 261) to %"class.WTF::AtomicString"*), align 8
@_ZN5blink16event_type_names7kSelectE = hidden local_unnamed_addr constant %"class.WTF::AtomicString"* bitcast (i8** getelementptr inbounds ([351 x i8*], [351 x i8*]* @_ZN5blink16event_type_names13names_storageE, i64 0, i64 262) to %"class.WTF::AtomicString"*), align 8
@_ZN5blink16event_type_names28kSelectedcandidatepairchangeE = hidden local_unnamed_addr constant %"class.WTF::AtomicString"* bitcast (i8** getelementptr inbounds ([351 x i8*], [351 x i8*]* @_ZN5blink16event_type_names13names_storageE, i64 0, i64 263) to %"class.WTF::AtomicString"*), align 8
@_ZN5blink16event_type_names10kSelectendE = hidden local_unnamed_addr constant %"class.WTF::AtomicString"* bitcast (i8** getelementptr inbounds ([351 x i8*], [351 x i8*]* @_ZN5blink16event_type_names13names_storageE, i64 0, i64 264) to %"class.WTF::AtomicString"*), align 8
@_ZN5blink16event_type_names16kSelectionchangeE = hidden local_unnamed_addr constant %"class.WTF::AtomicString"* bitcast (i8** getelementptr inbounds ([351 x i8*], [351 x i8*]* @_ZN5blink16event_type_names13names_storageE, i64 0, i64 265) to %"class.WTF::AtomicString"*), align 8
@_ZN5blink16event_type_names12kSelectstartE = hidden local_unnamed_addr constant %"class.WTF::AtomicString"* bitcast (i8** getelementptr inbounds ([351 x i8*], [351 x i8*]* @_ZN5blink16event_type_names13names_storageE, i64 0, i64 266) to %"class.WTF::AtomicString"*), align 8
@_ZN5blink16event_type_names22kShippingaddresschangeE = hidden local_unnamed_addr constant %"class.WTF::AtomicString"* bitcast (i8** getelementptr inbounds ([351 x i8*], [351 x i8*]* @_ZN5blink16event_type_names13names_storageE, i64 0, i64 267) to %"class.WTF::AtomicString"*), align 8
@_ZN5blink16event_type_names21kShippingoptionchangeE = hidden local_unnamed_addr constant %"class.WTF::AtomicString"* bitcast (i8** getelementptr inbounds ([351 x i8*], [351 x i8*]* @_ZN5blink16event_type_names13names_storageE, i64 0, i64 268) to %"class.WTF::AtomicString"*), align 8
@_ZN5blink16event_type_names5kShowE = hidden local_unnamed_addr constant %"class.WTF::AtomicString"* bitcast (i8** getelementptr inbounds ([351 x i8*], [351 x i8*]* @_ZN5blink16event_type_names13names_storageE, i64 0, i64 269) to %"class.WTF::AtomicString"*), align 8
@_ZN5blink16event_type_names21kSignalingstatechangeE = hidden local_unnamed_addr constant %"class.WTF::AtomicString"* bitcast (i8** getelementptr inbounds ([351 x i8*], [351 x i8*]* @_ZN5blink16event_type_names13names_storageE, i64 0, i64 270) to %"class.WTF::AtomicString"*), align 8
@_ZN5blink16event_type_names11kSlotchangeE = hidden local_unnamed_addr constant %"class.WTF::AtomicString"* bitcast (i8** getelementptr inbounds ([351 x i8*], [351 x i8*]* @_ZN5blink16event_type_names13names_storageE, i64 0, i64 271) to %"class.WTF::AtomicString"*), align 8
@_ZN5blink16event_type_names9kSoundendE = hidden local_unnamed_addr constant %"class.WTF::AtomicString"* bitcast (i8** getelementptr inbounds ([351 x i8*], [351 x i8*]* @_ZN5blink16event_type_names13names_storageE, i64 0, i64 272) to %"class.WTF::AtomicString"*), align 8
@_ZN5blink16event_type_names11kSoundstartE = hidden local_unnamed_addr constant %"class.WTF::AtomicString"* bitcast (i8** getelementptr inbounds ([351 x i8*], [351 x i8*]* @_ZN5blink16event_type_names13names_storageE, i64 0, i64 273) to %"class.WTF::AtomicString"*), align 8
@_ZN5blink16event_type_names12kSourcecloseE = hidden local_unnamed_addr constant %"class.WTF::AtomicString"* bitcast (i8** getelementptr inbounds ([351 x i8*], [351 x i8*]* @_ZN5blink16event_type_names13names_storageE, i64 0, i64 274) to %"class.WTF::AtomicString"*), align 8
@_ZN5blink16event_type_names12kSourceendedE = hidden local_unnamed_addr constant %"class.WTF::AtomicString"* bitcast (i8** getelementptr inbounds ([351 x i8*], [351 x i8*]* @_ZN5blink16event_type_names13names_storageE, i64 0, i64 275) to %"class.WTF::AtomicString"*), align 8
@_ZN5blink16event_type_names11kSourceopenE = hidden local_unnamed_addr constant %"class.WTF::AtomicString"* bitcast (i8** getelementptr inbounds ([351 x i8*], [351 x i8*]* @_ZN5blink16event_type_names13names_storageE, i64 0, i64 276) to %"class.WTF::AtomicString"*), align 8
@_ZN5blink16event_type_names10kSpeechendE = hidden local_unnamed_addr constant %"class.WTF::AtomicString"* bitcast (i8** getelementptr inbounds ([351 x i8*], [351 x i8*]* @_ZN5blink16event_type_names13names_storageE, i64 0, i64 277) to %"class.WTF::AtomicString"*), align 8
@_ZN5blink16event_type_names12kSpeechstartE = hidden local_unnamed_addr constant %"class.WTF::AtomicString"* bitcast (i8** getelementptr inbounds ([351 x i8*], [351 x i8*]* @_ZN5blink16event_type_names13names_storageE, i64 0, i64 278) to %"class.WTF::AtomicString"*), align 8
@_ZN5blink16event_type_names8kSqueezeE = hidden local_unnamed_addr constant %"class.WTF::AtomicString"* bitcast (i8** getelementptr inbounds ([351 x i8*], [351 x i8*]* @_ZN5blink16event_type_names13names_storageE, i64 0, i64 279) to %"class.WTF::AtomicString"*), align 8
@_ZN5blink16event_type_names11kSqueezeendE = hidden local_unnamed_addr constant %"class.WTF::AtomicString"* bitcast (i8** getelementptr inbounds ([351 x i8*], [351 x i8*]* @_ZN5blink16event_type_names13names_storageE, i64 0, i64 280) to %"class.WTF::AtomicString"*), align 8
@_ZN5blink16event_type_names13kSqueezestartE = hidden local_unnamed_addr constant %"class.WTF::AtomicString"* bitcast (i8** getelementptr inbounds ([351 x i8*], [351 x i8*]* @_ZN5blink16event_type_names13names_storageE, i64 0, i64 281) to %"class.WTF::AtomicString"*), align 8
@_ZN5blink16event_type_names8kStalledE = hidden local_unnamed_addr constant %"class.WTF::AtomicString"* bitcast (i8** getelementptr inbounds ([351 x i8*], [351 x i8*]* @_ZN5blink16event_type_names13names_storageE, i64 0, i64 282) to %"class.WTF::AtomicString"*), align 8
@_ZN5blink16event_type_names6kStartE = hidden local_unnamed_addr constant %"class.WTF::AtomicString"* bitcast (i8** getelementptr inbounds ([351 x i8*], [351 x i8*]* @_ZN5blink16event_type_names13names_storageE, i64 0, i64 283) to %"class.WTF::AtomicString"*), align 8
@_ZN5blink16event_type_names12kStatechangeE = hidden local_unnamed_addr constant %"class.WTF::AtomicString"* bitcast (i8** getelementptr inbounds ([351 x i8*], [351 x i8*]* @_ZN5blink16event_type_names13names_storageE, i64 0, i64 284) to %"class.WTF::AtomicString"*), align 8
@_ZN5blink16event_type_names5kStopE = hidden local_unnamed_addr constant %"class.WTF::AtomicString"* bitcast (i8** getelementptr inbounds ([351 x i8*], [351 x i8*]* @_ZN5blink16event_type_names13names_storageE, i64 0, i64 285) to %"class.WTF::AtomicString"*), align 8
@_ZN5blink16event_type_names8kStorageE = hidden local_unnamed_addr constant %"class.WTF::AtomicString"* bitcast (i8** getelementptr inbounds ([351 x i8*], [351 x i8*]* @_ZN5blink16event_type_names13names_storageE, i64 0, i64 286) to %"class.WTF::AtomicString"*), align 8
@_ZN5blink16event_type_names7kSubmitE = hidden local_unnamed_addr constant %"class.WTF::AtomicString"* bitcast (i8** getelementptr inbounds ([351 x i8*], [351 x i8*]* @_ZN5blink16event_type_names13names_storageE, i64 0, i64 287) to %"class.WTF::AtomicString"*), align 8
@_ZN5blink16event_type_names8kSuccessE = hidden local_unnamed_addr constant %"class.WTF::AtomicString"* bitcast (i8** getelementptr inbounds ([351 x i8*], [351 x i8*]* @_ZN5blink16event_type_names13names_storageE, i64 0, i64 288) to %"class.WTF::AtomicString"*), align 8
@_ZN5blink16event_type_names8kSuspendE = hidden local_unnamed_addr constant %"class.WTF::AtomicString"* bitcast (i8** getelementptr inbounds ([351 x i8*], [351 x i8*]* @_ZN5blink16event_type_names13names_storageE, i64 0, i64 289) to %"class.WTF::AtomicString"*), align 8
@_ZN5blink16event_type_names5kSyncE = hidden local_unnamed_addr constant %"class.WTF::AtomicString"* bitcast (i8** getelementptr inbounds ([351 x i8*], [351 x i8*]* @_ZN5blink16event_type_names13names_storageE, i64 0, i64 290) to %"class.WTF::AtomicString"*), align 8
@_ZN5blink16event_type_names10kTerminateE = hidden local_unnamed_addr constant %"class.WTF::AtomicString"* bitcast (i8** getelementptr inbounds ([351 x i8*], [351 x i8*]* @_ZN5blink16event_type_names13names_storageE, i64 0, i64 291) to %"class.WTF::AtomicString"*), align 8
@_ZN5blink16event_type_names10kTextInputE = hidden local_unnamed_addr constant %"class.WTF::AtomicString"* bitcast (i8** getelementptr inbounds ([351 x i8*], [351 x i8*]* @_ZN5blink16event_type_names13names_storageE, i64 0, i64 292) to %"class.WTF::AtomicString"*), align 8
@_ZN5blink16event_type_names17kTextformatupdateE = hidden local_unnamed_addr constant %"class.WTF::AtomicString"* bitcast (i8** getelementptr inbounds ([351 x i8*], [351 x i8*]* @_ZN5blink16event_type_names13names_storageE, i64 0, i64 293) to %"class.WTF::AtomicString"*), align 8
@_ZN5blink16event_type_names11kTextupdateE = hidden local_unnamed_addr constant %"class.WTF::AtomicString"* bitcast (i8** getelementptr inbounds ([351 x i8*], [351 x i8*]* @_ZN5blink16event_type_names13names_storageE, i64 0, i64 294) to %"class.WTF::AtomicString"*), align 8
@_ZN5blink16event_type_names8kTimeoutE = hidden local_unnamed_addr constant %"class.WTF::AtomicString"* bitcast (i8** getelementptr inbounds ([351 x i8*], [351 x i8*]* @_ZN5blink16event_type_names13names_storageE, i64 0, i64 295) to %"class.WTF::AtomicString"*), align 8
@_ZN5blink16event_type_names11kTimeupdateE = hidden local_unnamed_addr constant %"class.WTF::AtomicString"* bitcast (i8** getelementptr inbounds ([351 x i8*], [351 x i8*]* @_ZN5blink16event_type_names13names_storageE, i64 0, i64 296) to %"class.WTF::AtomicString"*), align 8
@_ZN5blink16event_type_names15kTimezonechangeE = hidden local_unnamed_addr constant %"class.WTF::AtomicString"* bitcast (i8** getelementptr inbounds ([351 x i8*], [351 x i8*]* @_ZN5blink16event_type_names13names_storageE, i64 0, i64 297) to %"class.WTF::AtomicString"*), align 8
@_ZN5blink16event_type_names7kToggleE = hidden local_unnamed_addr constant %"class.WTF::AtomicString"* bitcast (i8** getelementptr inbounds ([351 x i8*], [351 x i8*]* @_ZN5blink16event_type_names13names_storageE, i64 0, i64 298) to %"class.WTF::AtomicString"*), align 8
@_ZN5blink16event_type_names11kTonechangeE = hidden local_unnamed_addr constant %"class.WTF::AtomicString"* bitcast (i8** getelementptr inbounds ([351 x i8*], [351 x i8*]* @_ZN5blink16event_type_names13names_storageE, i64 0, i64 299) to %"class.WTF::AtomicString"*), align 8
@_ZN5blink16event_type_names12kTouchcancelE = hidden local_unnamed_addr constant %"class.WTF::AtomicString"* bitcast (i8** getelementptr inbounds ([351 x i8*], [351 x i8*]* @_ZN5blink16event_type_names13names_storageE, i64 0, i64 300) to %"class.WTF::AtomicString"*), align 8
@_ZN5blink16event_type_names9kTouchendE = hidden local_unnamed_addr constant %"class.WTF::AtomicString"* bitcast (i8** getelementptr inbounds ([351 x i8*], [351 x i8*]* @_ZN5blink16event_type_names13names_storageE, i64 0, i64 301) to %"class.WTF::AtomicString"*), align 8
@_ZN5blink16event_type_names10kTouchmoveE = hidden local_unnamed_addr constant %"class.WTF::AtomicString"* bitcast (i8** getelementptr inbounds ([351 x i8*], [351 x i8*]* @_ZN5blink16event_type_names13names_storageE, i64 0, i64 302) to %"class.WTF::AtomicString"*), align 8
@_ZN5blink16event_type_names11kTouchstartE = hidden local_unnamed_addr constant %"class.WTF::AtomicString"* bitcast (i8** getelementptr inbounds ([351 x i8*], [351 x i8*]* @_ZN5blink16event_type_names13names_storageE, i64 0, i64 303) to %"class.WTF::AtomicString"*), align 8
@_ZN5blink16event_type_names6kTrackE = hidden local_unnamed_addr constant %"class.WTF::AtomicString"* bitcast (i8** getelementptr inbounds ([351 x i8*], [351 x i8*]* @_ZN5blink16event_type_names13names_storageE, i64 0, i64 304) to %"class.WTF::AtomicString"*), align 8
@_ZN5blink16event_type_names17kTransitioncancelE = hidden local_unnamed_addr constant %"class.WTF::AtomicString"* bitcast (i8** getelementptr inbounds ([351 x i8*], [351 x i8*]* @_ZN5blink16event_type_names13names_storageE, i64 0, i64 305) to %"class.WTF::AtomicString"*), align 8
@_ZN5blink16event_type_names14kTransitionendE = hidden local_unnamed_addr constant %"class.WTF::AtomicString"* bitcast (i8** getelementptr inbounds ([351 x i8*], [351 x i8*]* @_ZN5blink16event_type_names13names_storageE, i64 0, i64 306) to %"class.WTF::AtomicString"*), align 8
@_ZN5blink16event_type_names14kTransitionrunE = hidden local_unnamed_addr constant %"class.WTF::AtomicString"* bitcast (i8** getelementptr inbounds ([351 x i8*], [351 x i8*]* @_ZN5blink16event_type_names13names_storageE, i64 0, i64 307) to %"class.WTF::AtomicString"*), align 8
@_ZN5blink16event_type_names16kTransitionstartE = hidden local_unnamed_addr constant %"class.WTF::AtomicString"* bitcast (i8** getelementptr inbounds ([351 x i8*], [351 x i8*]* @_ZN5blink16event_type_names13names_storageE, i64 0, i64 308) to %"class.WTF::AtomicString"*), align 8
@_ZN5blink16event_type_names11kTypechangeE = hidden local_unnamed_addr constant %"class.WTF::AtomicString"* bitcast (i8** getelementptr inbounds ([351 x i8*], [351 x i8*]* @_ZN5blink16event_type_names13names_storageE, i64 0, i64 309) to %"class.WTF::AtomicString"*), align 8
@_ZN5blink16event_type_names16kUncapturederrorE = hidden local_unnamed_addr constant %"class.WTF::AtomicString"* bitcast (i8** getelementptr inbounds ([351 x i8*], [351 x i8*]* @_ZN5blink16event_type_names13names_storageE, i64 0, i64 310) to %"class.WTF::AtomicString"*), align 8
@_ZN5blink16event_type_names19kUnhandledrejectionE = hidden local_unnamed_addr constant %"class.WTF::AtomicString"* bitcast (i8** getelementptr inbounds ([351 x i8*], [351 x i8*]* @_ZN5blink16event_type_names13names_storageE, i64 0, i64 311) to %"class.WTF::AtomicString"*), align 8
@_ZN5blink16event_type_names7kUnloadE = hidden local_unnamed_addr constant %"class.WTF::AtomicString"* bitcast (i8** getelementptr inbounds ([351 x i8*], [351 x i8*]* @_ZN5blink16event_type_names13names_storageE, i64 0, i64 312) to %"class.WTF::AtomicString"*), align 8
@_ZN5blink16event_type_names7kUnmuteE = hidden local_unnamed_addr constant %"class.WTF::AtomicString"* bitcast (i8** getelementptr inbounds ([351 x i8*], [351 x i8*]* @_ZN5blink16event_type_names13names_storageE, i64 0, i64 313) to %"class.WTF::AtomicString"*), align 8
@_ZN5blink16event_type_names7kUpdateE = hidden local_unnamed_addr constant %"class.WTF::AtomicString"* bitcast (i8** getelementptr inbounds ([351 x i8*], [351 x i8*]* @_ZN5blink16event_type_names13names_storageE, i64 0, i64 314) to %"class.WTF::AtomicString"*), align 8
@_ZN5blink16event_type_names10kUpdateendE = hidden local_unnamed_addr constant %"class.WTF::AtomicString"* bitcast (i8** getelementptr inbounds ([351 x i8*], [351 x i8*]* @_ZN5blink16event_type_names13names_storageE, i64 0, i64 315) to %"class.WTF::AtomicString"*), align 8
@_ZN5blink16event_type_names12kUpdatefoundE = hidden local_unnamed_addr constant %"class.WTF::AtomicString"* bitcast (i8** getelementptr inbounds ([351 x i8*], [351 x i8*]* @_ZN5blink16event_type_names13names_storageE, i64 0, i64 316) to %"class.WTF::AtomicString"*), align 8
@_ZN5blink16event_type_names12kUpdatereadyE = hidden local_unnamed_addr constant %"class.WTF::AtomicString"* bitcast (i8** getelementptr inbounds ([351 x i8*], [351 x i8*]* @_ZN5blink16event_type_names13names_storageE, i64 0, i64 317) to %"class.WTF::AtomicString"*), align 8
@_ZN5blink16event_type_names12kUpdatestartE = hidden local_unnamed_addr constant %"class.WTF::AtomicString"* bitcast (i8** getelementptr inbounds ([351 x i8*], [351 x i8*]* @_ZN5blink16event_type_names13names_storageE, i64 0, i64 318) to %"class.WTF::AtomicString"*), align 8
@_ZN5blink16event_type_names14kUpgradeneededE = hidden local_unnamed_addr constant %"class.WTF::AtomicString"* bitcast (i8** getelementptr inbounds ([351 x i8*], [351 x i8*]* @_ZN5blink16event_type_names13names_storageE, i64 0, i64 319) to %"class.WTF::AtomicString"*), align 8
@_ZN5blink16event_type_names14kVersionchangeE = hidden local_unnamed_addr constant %"class.WTF::AtomicString"* bitcast (i8** getelementptr inbounds ([351 x i8*], [351 x i8*]* @_ZN5blink16event_type_names13names_storageE, i64 0, i64 320) to %"class.WTF::AtomicString"*), align 8
@_ZN5blink16event_type_names17kVisibilitychangeE = hidden local_unnamed_addr constant %"class.WTF::AtomicString"* bitcast (i8** getelementptr inbounds ([351 x i8*], [351 x i8*]* @_ZN5blink16event_type_names13names_storageE, i64 0, i64 321) to %"class.WTF::AtomicString"*), align 8
@_ZN5blink16event_type_names14kVoiceschangedE = hidden local_unnamed_addr constant %"class.WTF::AtomicString"* bitcast (i8** getelementptr inbounds ([351 x i8*], [351 x i8*]* @_ZN5blink16event_type_names13names_storageE, i64 0, i64 322) to %"class.WTF::AtomicString"*), align 8
@_ZN5blink16event_type_names13kVolumechangeE = hidden local_unnamed_addr constant %"class.WTF::AtomicString"* bitcast (i8** getelementptr inbounds ([351 x i8*], [351 x i8*]* @_ZN5blink16event_type_names13names_storageE, i64 0, i64 323) to %"class.WTF::AtomicString"*), align 8
@_ZN5blink16event_type_names18kVrdisplayactivateE = hidden local_unnamed_addr constant %"class.WTF::AtomicString"* bitcast (i8** getelementptr inbounds ([351 x i8*], [351 x i8*]* @_ZN5blink16event_type_names13names_storageE, i64 0, i64 324) to %"class.WTF::AtomicString"*), align 8
@_ZN5blink16event_type_names14kVrdisplayblurE = hidden local_unnamed_addr constant %"class.WTF::AtomicString"* bitcast (i8** getelementptr inbounds ([351 x i8*], [351 x i8*]* @_ZN5blink16event_type_names13names_storageE, i64 0, i64 325) to %"class.WTF::AtomicString"*), align 8
@_ZN5blink16event_type_names17kVrdisplayconnectE = hidden local_unnamed_addr constant %"class.WTF::AtomicString"* bitcast (i8** getelementptr inbounds ([351 x i8*], [351 x i8*]* @_ZN5blink16event_type_names13names_storageE, i64 0, i64 326) to %"class.WTF::AtomicString"*), align 8
@_ZN5blink16event_type_names20kVrdisplaydeactivateE = hidden local_unnamed_addr constant %"class.WTF::AtomicString"* bitcast (i8** getelementptr inbounds ([351 x i8*], [351 x i8*]* @_ZN5blink16event_type_names13names_storageE, i64 0, i64 327) to %"class.WTF::AtomicString"*), align 8
@_ZN5blink16event_type_names20kVrdisplaydisconnectE = hidden local_unnamed_addr constant %"class.WTF::AtomicString"* bitcast (i8** getelementptr inbounds ([351 x i8*], [351 x i8*]* @_ZN5blink16event_type_names13names_storageE, i64 0, i64 328) to %"class.WTF::AtomicString"*), align 8
@_ZN5blink16event_type_names15kVrdisplayfocusE = hidden local_unnamed_addr constant %"class.WTF::AtomicString"* bitcast (i8** getelementptr inbounds ([351 x i8*], [351 x i8*]* @_ZN5blink16event_type_names13names_storageE, i64 0, i64 329) to %"class.WTF::AtomicString"*), align 8
@_ZN5blink16event_type_names23kVrdisplaypresentchangeE = hidden local_unnamed_addr constant %"class.WTF::AtomicString"* bitcast (i8** getelementptr inbounds ([351 x i8*], [351 x i8*]* @_ZN5blink16event_type_names13names_storageE, i64 0, i64 330) to %"class.WTF::AtomicString"*), align 8
@_ZN5blink16event_type_names8kWaitingE = hidden local_unnamed_addr constant %"class.WTF::AtomicString"* bitcast (i8** getelementptr inbounds ([351 x i8*], [351 x i8*]* @_ZN5blink16event_type_names13names_storageE, i64 0, i64 331) to %"class.WTF::AtomicString"*), align 8
@_ZN5blink16event_type_names14kWaitingforkeyE = hidden local_unnamed_addr constant %"class.WTF::AtomicString"* bitcast (i8** getelementptr inbounds ([351 x i8*], [351 x i8*]* @_ZN5blink16event_type_names13names_storageE, i64 0, i64 332) to %"class.WTF::AtomicString"*), align 8
@_ZN5blink16event_type_names26kWebglcontextcreationerrorE = hidden local_unnamed_addr constant %"class.WTF::AtomicString"* bitcast (i8** getelementptr inbounds ([351 x i8*], [351 x i8*]* @_ZN5blink16event_type_names13names_storageE, i64 0, i64 333) to %"class.WTF::AtomicString"*), align 8
@_ZN5blink16event_type_names17kWebglcontextlostE = hidden local_unnamed_addr constant %"class.WTF::AtomicString"* bitcast (i8** getelementptr inbounds ([351 x i8*], [351 x i8*]* @_ZN5blink16event_type_names13names_storageE, i64 0, i64 334) to %"class.WTF::AtomicString"*), align 8
@_ZN5blink16event_type_names21kWebglcontextrestoredE = hidden local_unnamed_addr constant %"class.WTF::AtomicString"* bitcast (i8** getelementptr inbounds ([351 x i8*], [351 x i8*]* @_ZN5blink16event_type_names13names_storageE, i64 0, i64 335) to %"class.WTF::AtomicString"*), align 8
@_ZN5blink16event_type_names19kWebkitAnimationEndE = hidden local_unnamed_addr constant %"class.WTF::AtomicString"* bitcast (i8** getelementptr inbounds ([351 x i8*], [351 x i8*]* @_ZN5blink16event_type_names13names_storageE, i64 0, i64 336) to %"class.WTF::AtomicString"*), align 8
@_ZN5blink16event_type_names25kWebkitAnimationIterationE = hidden local_unnamed_addr constant %"class.WTF::AtomicString"* bitcast (i8** getelementptr inbounds ([351 x i8*], [351 x i8*]* @_ZN5blink16event_type_names13names_storageE, i64 0, i64 337) to %"class.WTF::AtomicString"*), align 8
@_ZN5blink16event_type_names21kWebkitAnimationStartE = hidden local_unnamed_addr constant %"class.WTF::AtomicString"* bitcast (i8** getelementptr inbounds ([351 x i8*], [351 x i8*]* @_ZN5blink16event_type_names13names_storageE, i64 0, i64 338) to %"class.WTF::AtomicString"*), align 8
@_ZN5blink16event_type_names25kWebkitBeforeTextInsertedE = hidden local_unnamed_addr constant %"class.WTF::AtomicString"* bitcast (i8** getelementptr inbounds ([351 x i8*], [351 x i8*]* @_ZN5blink16event_type_names13names_storageE, i64 0, i64 339) to %"class.WTF::AtomicString"*), align 8
@_ZN5blink16event_type_names29kWebkitEditableContentChangedE = hidden local_unnamed_addr constant %"class.WTF::AtomicString"* bitcast (i8** getelementptr inbounds ([351 x i8*], [351 x i8*]* @_ZN5blink16event_type_names13names_storageE, i64 0, i64 340) to %"class.WTF::AtomicString"*), align 8
@_ZN5blink16event_type_names20kWebkitTransitionEndE = hidden local_unnamed_addr constant %"class.WTF::AtomicString"* bitcast (i8** getelementptr inbounds ([351 x i8*], [351 x i8*]* @_ZN5blink16event_type_names13names_storageE, i64 0, i64 341) to %"class.WTF::AtomicString"*), align 8
@_ZN5blink16event_type_names23kWebkitfullscreenchangeE = hidden local_unnamed_addr constant %"class.WTF::AtomicString"* bitcast (i8** getelementptr inbounds ([351 x i8*], [351 x i8*]* @_ZN5blink16event_type_names13names_storageE, i64 0, i64 342) to %"class.WTF::AtomicString"*), align 8
@_ZN5blink16event_type_names22kWebkitfullscreenerrorE = hidden local_unnamed_addr constant %"class.WTF::AtomicString"* bitcast (i8** getelementptr inbounds ([351 x i8*], [351 x i8*]* @_ZN5blink16event_type_names13names_storageE, i64 0, i64 343) to %"class.WTF::AtomicString"*), align 8
@_ZN5blink16event_type_names19kWebkitspeechchangeE = hidden local_unnamed_addr constant %"class.WTF::AtomicString"* bitcast (i8** getelementptr inbounds ([351 x i8*], [351 x i8*]* @_ZN5blink16event_type_names13names_storageE, i64 0, i64 344) to %"class.WTF::AtomicString"*), align 8
@_ZN5blink16event_type_names23kWebkitvisibilitychangeE = hidden local_unnamed_addr constant %"class.WTF::AtomicString"* bitcast (i8** getelementptr inbounds ([351 x i8*], [351 x i8*]* @_ZN5blink16event_type_names13names_storageE, i64 0, i64 345) to %"class.WTF::AtomicString"*), align 8
@_ZN5blink16event_type_names6kWheelE = hidden local_unnamed_addr constant %"class.WTF::AtomicString"* bitcast (i8** getelementptr inbounds ([351 x i8*], [351 x i8*]* @_ZN5blink16event_type_names13names_storageE, i64 0, i64 346) to %"class.WTF::AtomicString"*), align 8
@_ZN5blink16event_type_names6kWriteE = hidden local_unnamed_addr constant %"class.WTF::AtomicString"* bitcast (i8** getelementptr inbounds ([351 x i8*], [351 x i8*]* @_ZN5blink16event_type_names13names_storageE, i64 0, i64 347) to %"class.WTF::AtomicString"*), align 8
@_ZN5blink16event_type_names9kWriteendE = hidden local_unnamed_addr constant %"class.WTF::AtomicString"* bitcast (i8** getelementptr inbounds ([351 x i8*], [351 x i8*]* @_ZN5blink16event_type_names13names_storageE, i64 0, i64 348) to %"class.WTF::AtomicString"*), align 8
@_ZN5blink16event_type_names11kWritestartE = hidden local_unnamed_addr constant %"class.WTF::AtomicString"* bitcast (i8** getelementptr inbounds ([351 x i8*], [351 x i8*]* @_ZN5blink16event_type_names13names_storageE, i64 0, i64 349) to %"class.WTF::AtomicString"*), align 8
@_ZN5blink16event_type_names5kZoomE = hidden local_unnamed_addr constant %"class.WTF::AtomicString"* bitcast (i8** getelementptr inbounds ([351 x i8*], [351 x i8*]* @_ZN5blink16event_type_names13names_storageE, i64 0, i64 350) to %"class.WTF::AtomicString"*), align 8
@_ZZN5blink16event_type_names4InitEvE9is_loaded = internal unnamed_addr global i1 false, align 1
@_ZZN5blink16event_type_names4InitEvE6kNames = internal unnamed_addr constant [351 x %struct.NameEntry] [%struct.NameEntry { i8* getelementptr inbounds ([12 x i8], [12 x i8]* @.str, i32 0, i32 0), i32 1580932, i8 11 }, %struct.NameEntry { i8* getelementptr inbounds ([25 x i8], [25 x i8]* @.str.1, i32 0, i32 0), i32 1747391, i8 24 }, %struct.NameEntry { i8* getelementptr inbounds ([17 x i8], [17 x i8]* @.str.2, i32 0, i32 0), i32 10217403, i8 16 }, %struct.NameEntry { i8* getelementptr inbounds ([11 x i8], [11 x i8]* @.str.3, i32 0, i32 0), i32 13717889, i8 10 }, %struct.NameEntry { i8* getelementptr inbounds ([12 x i8], [12 x i8]* @.str.4, i32 0, i32 0), i32 14725020, i8 11 }, %struct.NameEntry { i8* getelementptr inbounds ([16 x i8], [16 x i8]* @.str.5, i32 0, i32 0), i32 3305523, i8 15 }, %struct.NameEntry { i8* getelementptr inbounds ([28 x i8], [28 x i8]* @.str.6, i32 0, i32 0), i32 9765719, i8 27 }, %struct.NameEntry { i8* getelementptr inbounds ([15 x i8], [15 x i8]* @.str.7, i32 0, i32 0), i32 15338285, i8 14 }, %struct.NameEntry { i8* getelementptr inbounds ([27 x i8], [27 x i8]* @.str.8, i32 0, i32 0), i32 16284219, i8 26 }, %struct.NameEntry { i8* getelementptr inbounds ([19 x i8], [19 x i8]* @.str.9, i32 0, i32 0), i32 6084203, i8 18 }, %struct.NameEntry { i8* getelementptr inbounds ([6 x i8], [6 x i8]* @.str.10, i32 0, i32 0), i32 15390287, i8 5 }, %struct.NameEntry { i8* getelementptr inbounds ([13 x i8], [13 x i8]* @.str.11, i32 0, i32 0), i32 8219725, i8 12 }, %struct.NameEntry { i8* getelementptr inbounds ([16 x i8], [16 x i8]* @.str.12, i32 0, i32 0), i32 12776382, i8 15 }, %struct.NameEntry { i8* getelementptr inbounds ([22 x i8], [22 x i8]* @.str.13, i32 0, i32 0), i32 8673538, i8 21 }, %struct.NameEntry { i8* getelementptr inbounds ([20 x i8], [20 x i8]* @.str.14, i32 0, i32 0), i32 10834834, i8 19 }, %struct.NameEntry { i8* getelementptr inbounds ([16 x i8], [16 x i8]* @.str.15, i32 0, i32 0), i32 99278, i8 15 }, %struct.NameEntry { i8* getelementptr inbounds ([20 x i8], [20 x i8]* @.str.16, i32 0, i32 0), i32 4944534, i8 19 }, %struct.NameEntry { i8* getelementptr inbounds ([25 x i8], [25 x i8]* @.str.17, i32 0, i32 0), i32 5748551, i8 24 }, %struct.NameEntry { i8* getelementptr inbounds ([9 x i8], [9 x i8]* @.str.18, i32 0, i32 0), i32 8463533, i8 8 }, %struct.NameEntry { i8* getelementptr inbounds ([7 x i8], [7 x i8]* @.str.19, i32 0, i32 0), i32 4650789, i8 6 }, %struct.NameEntry { i8* getelementptr inbounds ([16 x i8], [16 x i8]* @.str.20, i32 0, i32 0), i32 7452490, i8 15 }, %struct.NameEntry { i8* getelementptr inbounds ([10 x i8], [10 x i8]* @.str.21, i32 0, i32 0), i32 15110493, i8 9 }, %struct.NameEntry { i8* getelementptr inbounds ([9 x i8], [9 x i8]* @.str.22, i32 0, i32 0), i32 3675244, i8 8 }, %struct.NameEntry { i8* getelementptr inbounds ([22 x i8], [22 x i8]* @.str.23, i32 0, i32 0), i32 10504476, i8 21 }, %struct.NameEntry { i8* getelementptr inbounds ([11 x i8], [11 x i8]* @.str.24, i32 0, i32 0), i32 10607019, i8 10 }, %struct.NameEntry { i8* getelementptr inbounds ([16 x i8], [16 x i8]* @.str.25, i32 0, i32 0), i32 6718042, i8 15 }, %struct.NameEntry { i8* getelementptr inbounds ([13 x i8], [13 x i8]* @.str.26, i32 0, i32 0), i32 2356336, i8 12 }, %struct.NameEntry { i8* getelementptr inbounds ([19 x i8], [19 x i8]* @.str.27, i32 0, i32 0), i32 4399371, i8 18 }, %struct.NameEntry { i8* getelementptr inbounds ([15 x i8], [15 x i8]* @.str.28, i32 0, i32 0), i32 1171773, i8 14 }, %struct.NameEntry { i8* getelementptr inbounds ([13 x i8], [13 x i8]* @.str.29, i32 0, i32 0), i32 12895466, i8 12 }, %struct.NameEntry { i8* getelementptr inbounds ([9 x i8], [9 x i8]* @.str.30, i32 0, i32 0), i32 4005439, i8 8 }, %struct.NameEntry { i8* getelementptr inbounds ([13 x i8], [13 x i8]* @.str.31, i32 0, i32 0), i32 7432340, i8 12 }, %struct.NameEntry { i8* getelementptr inbounds ([11 x i8], [11 x i8]* @.str.32, i32 0, i32 0), i32 12162534, i8 10 }, %struct.NameEntry { i8* getelementptr inbounds ([9 x i8], [9 x i8]* @.str.33, i32 0, i32 0), i32 6467501, i8 8 }, %struct.NameEntry { i8* getelementptr inbounds ([16 x i8], [16 x i8]* @.str.34, i32 0, i32 0), i32 12524858, i8 15 }, %struct.NameEntry { i8* getelementptr inbounds ([21 x i8], [21 x i8]* @.str.35, i32 0, i32 0), i32 14646640, i8 20 }, %struct.NameEntry { i8* getelementptr inbounds ([21 x i8], [21 x i8]* @.str.36, i32 0, i32 0), i32 1587016, i8 20 }, %struct.NameEntry { i8* getelementptr inbounds ([20 x i8], [20 x i8]* @.str.37, i32 0, i32 0), i32 6720670, i8 19 }, %struct.NameEntry { i8* getelementptr inbounds ([23 x i8], [23 x i8]* @.str.38, i32 0, i32 0), i32 1456465, i8 22 }, %struct.NameEntry { i8* getelementptr inbounds ([12 x i8], [12 x i8]* @.str.39, i32 0, i32 0), i32 5852275, i8 11 }, %struct.NameEntry { i8* getelementptr inbounds ([11 x i8], [11 x i8]* @.str.40, i32 0, i32 0), i32 15623218, i8 10 }, %struct.NameEntry { i8* getelementptr inbounds ([19 x i8], [19 x i8]* @.str.41, i32 0, i32 0), i32 5467387, i8 18 }, %struct.NameEntry { i8* getelementptr inbounds ([10 x i8], [10 x i8]* @.str.42, i32 0, i32 0), i32 6886552, i8 9 }, %struct.NameEntry { i8* getelementptr inbounds ([12 x i8], [12 x i8]* @.str.43, i32 0, i32 0), i32 4688220, i8 11 }, %struct.NameEntry { i8* getelementptr inbounds ([20 x i8], [20 x i8]* @.str.44, i32 0, i32 0), i32 15019623, i8 19 }, %struct.NameEntry { i8* getelementptr inbounds ([12 x i8], [12 x i8]* @.str.45, i32 0, i32 0), i32 15460329, i8 11 }, %struct.NameEntry { i8* getelementptr inbounds ([12 x i8], [12 x i8]* @.str.46, i32 0, i32 0), i32 5049674, i8 11 }, %struct.NameEntry { i8* getelementptr inbounds ([12 x i8], [12 x i8]* @.str.47, i32 0, i32 0), i32 12907291, i8 11 }, %struct.NameEntry { i8* getelementptr inbounds ([13 x i8], [13 x i8]* @.str.48, i32 0, i32 0), i32 16009443, i8 12 }, %struct.NameEntry { i8* getelementptr inbounds ([15 x i8], [15 x i8]* @.str.49, i32 0, i32 0), i32 863321, i8 14 }, %struct.NameEntry { i8* getelementptr inbounds ([11 x i8], [11 x i8]* @.str.50, i32 0, i32 0), i32 3946429, i8 10 }, %struct.NameEntry { i8* getelementptr inbounds ([8 x i8], [8 x i8]* @.str.51, i32 0, i32 0), i32 7188319, i8 7 }, %struct.NameEntry { i8* getelementptr inbounds ([5 x i8], [5 x i8]* @.str.52, i32 0, i32 0), i32 3880931, i8 4 }, %struct.NameEntry { i8* getelementptr inbounds ([9 x i8], [9 x i8]* @.str.53, i32 0, i32 0), i32 8113195, i8 8 }, %struct.NameEntry { i8* getelementptr inbounds ([18 x i8], [18 x i8]* @.str.54, i32 0, i32 0), i32 11352552, i8 17 }, %struct.NameEntry { i8* getelementptr inbounds ([7 x i8], [7 x i8]* @.str.55, i32 0, i32 0), i32 2984957, i8 6 }, %struct.NameEntry { i8* getelementptr inbounds ([7 x i8], [7 x i8]* @.str.56, i32 0, i32 0), i32 9877073, i8 6 }, %struct.NameEntry { i8* getelementptr inbounds ([15 x i8], [15 x i8]* @.str.57, i32 0, i32 0), i32 4032593, i8 14 }, %struct.NameEntry { i8* getelementptr inbounds ([8 x i8], [8 x i8]* @.str.58, i32 0, i32 0), i32 10609174, i8 7 }, %struct.NameEntry { i8* getelementptr inbounds ([15 x i8], [15 x i8]* @.str.59, i32 0, i32 0), i32 3645779, i8 14 }, %struct.NameEntry { i8* getelementptr inbounds ([20 x i8], [20 x i8]* @.str.60, i32 0, i32 0), i32 8911736, i8 19 }, %struct.NameEntry { i8* getelementptr inbounds ([7 x i8], [7 x i8]* @.str.61, i32 0, i32 0), i32 3980998, i8 6 }, %struct.NameEntry { i8* getelementptr inbounds ([27 x i8], [27 x i8]* @.str.62, i32 0, i32 0), i32 13435903, i8 26 }, %struct.NameEntry { i8* getelementptr inbounds ([15 x i8], [15 x i8]* @.str.63, i32 0, i32 0), i32 12089746, i8 14 }, %struct.NameEntry { i8* getelementptr inbounds ([19 x i8], [19 x i8]* @.str.64, i32 0, i32 0), i32 2233255, i8 18 }, %struct.NameEntry { i8* getelementptr inbounds ([9 x i8], [9 x i8]* @.str.65, i32 0, i32 0), i32 12242986, i8 8 }, %struct.NameEntry { i8* getelementptr inbounds ([6 x i8], [6 x i8]* @.str.66, i32 0, i32 0), i32 10125525, i8 5 }, %struct.NameEntry { i8* getelementptr inbounds ([6 x i8], [6 x i8]* @.str.67, i32 0, i32 0), i32 3222970, i8 5 }, %struct.NameEntry { i8* getelementptr inbounds ([8 x i8], [8 x i8]* @.str.68, i32 0, i32 0), i32 16493508, i8 7 }, %struct.NameEntry { i8* getelementptr inbounds ([12 x i8], [12 x i8]* @.str.69, i32 0, i32 0), i32 6126275, i8 11 }, %struct.NameEntry { i8* getelementptr inbounds ([9 x i8], [9 x i8]* @.str.70, i32 0, i32 0), i32 6079763, i8 8 }, %struct.NameEntry { i8* getelementptr inbounds ([15 x i8], [15 x i8]* @.str.71, i32 0, i32 0), i32 5906550, i8 14 }, %struct.NameEntry { i8* getelementptr inbounds ([17 x i8], [17 x i8]* @.str.72, i32 0, i32 0), i32 16133899, i8 16 }, %struct.NameEntry { i8* getelementptr inbounds ([18 x i8], [18 x i8]* @.str.73, i32 0, i32 0), i32 7385090, i8 17 }, %struct.NameEntry { i8* getelementptr inbounds ([8 x i8], [8 x i8]* @.str.74, i32 0, i32 0), i32 12649850, i8 7 }, %struct.NameEntry { i8* getelementptr inbounds ([11 x i8], [11 x i8]* @.str.75, i32 0, i32 0), i32 1432354, i8 10 }, %struct.NameEntry { i8* getelementptr inbounds ([20 x i8], [20 x i8]* @.str.76, i32 0, i32 0), i32 4548175, i8 19 }, %struct.NameEntry { i8* getelementptr inbounds ([22 x i8], [22 x i8]* @.str.77, i32 0, i32 0), i32 16527941, i8 21 }, %struct.NameEntry { i8* getelementptr inbounds ([14 x i8], [14 x i8]* @.str.78, i32 0, i32 0), i32 13068210, i8 13 }, %struct.NameEntry { i8* getelementptr inbounds ([12 x i8], [12 x i8]* @.str.79, i32 0, i32 0), i32 9876436, i8 11 }, %struct.NameEntry { i8* getelementptr inbounds ([12 x i8], [12 x i8]* @.str.80, i32 0, i32 0), i32 14578063, i8 11 }, %struct.NameEntry { i8* getelementptr inbounds ([16 x i8], [16 x i8]* @.str.81, i32 0, i32 0), i32 81548, i8 15 }, %struct.NameEntry { i8* getelementptr inbounds ([17 x i8], [17 x i8]* @.str.82, i32 0, i32 0), i32 2370586, i8 16 }, %struct.NameEntry { i8* getelementptr inbounds ([13 x i8], [13 x i8]* @.str.83, i32 0, i32 0), i32 6006430, i8 12 }, %struct.NameEntry { i8* getelementptr inbounds ([5 x i8], [5 x i8]* @.str.84, i32 0, i32 0), i32 16438426, i8 4 }, %struct.NameEntry { i8* getelementptr inbounds ([19 x i8], [19 x i8]* @.str.85, i32 0, i32 0), i32 10776580, i8 18 }, %struct.NameEntry { i8* getelementptr inbounds ([10 x i8], [10 x i8]* @.str.86, i32 0, i32 0), i32 3496656, i8 9 }, %struct.NameEntry { i8* getelementptr inbounds ([20 x i8], [20 x i8]* @.str.87, i32 0, i32 0), i32 13390116, i8 19 }, %struct.NameEntry { i8* getelementptr inbounds ([4 x i8], [4 x i8]* @.str.88, i32 0, i32 0), i32 6810636, i8 3 }, %struct.NameEntry { i8* getelementptr inbounds ([14 x i8], [14 x i8]* @.str.89, i32 0, i32 0), i32 1423638, i8 13 }, %struct.NameEntry { i8* getelementptr inbounds ([12 x i8], [12 x i8]* @.str.90, i32 0, i32 0), i32 3404486, i8 11 }, %struct.NameEntry { i8* getelementptr inbounds ([9 x i8], [9 x i8]* @.str.91, i32 0, i32 0), i32 9054393, i8 8 }, %struct.NameEntry { i8* getelementptr inbounds ([20 x i8], [20 x i8]* @.str.92, i32 0, i32 0), i32 1473789, i8 19 }, %struct.NameEntry { i8* getelementptr inbounds ([13 x i8], [13 x i8]* @.str.93, i32 0, i32 0), i32 1508887, i8 12 }, %struct.NameEntry { i8* getelementptr inbounds ([13 x i8], [13 x i8]* @.str.94, i32 0, i32 0), i32 1024162, i8 12 }, %struct.NameEntry { i8* getelementptr inbounds ([18 x i8], [18 x i8]* @.str.95, i32 0, i32 0), i32 12165871, i8 17 }, %struct.NameEntry { i8* getelementptr inbounds ([26 x i8], [26 x i8]* @.str.96, i32 0, i32 0), i32 3802800, i8 25 }, %struct.NameEntry { i8* getelementptr inbounds ([22 x i8], [22 x i8]* @.str.97, i32 0, i32 0), i32 16138730, i8 21 }, %struct.NameEntry { i8* getelementptr inbounds ([11 x i8], [11 x i8]* @.str.98, i32 0, i32 0), i32 13405069, i8 10 }, %struct.NameEntry { i8* getelementptr inbounds ([8 x i8], [8 x i8]* @.str.99, i32 0, i32 0), i32 16245385, i8 7 }, %struct.NameEntry { i8* getelementptr inbounds ([12 x i8], [12 x i8]* @.str.100, i32 0, i32 0), i32 576780, i8 11 }, %struct.NameEntry { i8* getelementptr inbounds ([5 x i8], [5 x i8]* @.str.101, i32 0, i32 0), i32 1532976, i8 4 }, %struct.NameEntry { i8* getelementptr inbounds ([8 x i8], [8 x i8]* @.str.102, i32 0, i32 0), i32 11982793, i8 7 }, %struct.NameEntry { i8* getelementptr inbounds ([10 x i8], [10 x i8]* @.str.103, i32 0, i32 0), i32 10351130, i8 9 }, %struct.NameEntry { i8* getelementptr inbounds ([10 x i8], [10 x i8]* @.str.104, i32 0, i32 0), i32 11297414, i8 9 }, %struct.NameEntry { i8* getelementptr inbounds ([9 x i8], [9 x i8]* @.str.105, i32 0, i32 0), i32 2973271, i8 8 }, %struct.NameEntry { i8* getelementptr inbounds ([10 x i8], [10 x i8]* @.str.106, i32 0, i32 0), i32 15174021, i8 9 }, %struct.NameEntry { i8* getelementptr inbounds ([5 x i8], [5 x i8]* @.str.107, i32 0, i32 0), i32 13413407, i8 4 }, %struct.NameEntry { i8* getelementptr inbounds ([15 x i8], [15 x i8]* @.str.108, i32 0, i32 0), i32 4541505, i8 14 }, %struct.NameEntry { i8* getelementptr inbounds ([24 x i8], [24 x i8]* @.str.109, i32 0, i32 0), i32 9462274, i8 23 }, %struct.NameEntry { i8* getelementptr inbounds ([8 x i8], [8 x i8]* @.str.110, i32 0, i32 0), i32 15126627, i8 7 }, %struct.NameEntry { i8* getelementptr inbounds ([10 x i8], [10 x i8]* @.str.111, i32 0, i32 0), i32 5262076, i8 9 }, %struct.NameEntry { i8* getelementptr inbounds ([4 x i8], [4 x i8]* @.str.112, i32 0, i32 0), i32 1590106, i8 3 }, %struct.NameEntry { i8* getelementptr inbounds ([9 x i8], [9 x i8]* @.str.113, i32 0, i32 0), i32 10314310, i8 8 }, %struct.NameEntry { i8* getelementptr inbounds ([6 x i8], [6 x i8]* @.str.114, i32 0, i32 0), i32 54732, i8 5 }, %struct.NameEntry { i8* getelementptr inbounds ([6 x i8], [6 x i8]* @.str.115, i32 0, i32 0), i32 3509546, i8 5 }, %struct.NameEntry { i8* getelementptr inbounds ([22 x i8], [22 x i8]* @.str.116, i32 0, i32 0), i32 3538880, i8 21 }, %struct.NameEntry { i8* getelementptr inbounds ([6 x i8], [6 x i8]* @.str.117, i32 0, i32 0), i32 6654137, i8 5 }, %struct.NameEntry { i8* getelementptr inbounds ([22 x i8], [22 x i8]* @.str.118, i32 0, i32 0), i32 3307584, i8 21 }, %struct.NameEntry { i8* getelementptr inbounds ([5 x i8], [5 x i8]* @.str.119, i32 0, i32 0), i32 15251726, i8 4 }, %struct.NameEntry { i8* getelementptr inbounds ([6 x i8], [6 x i8]* @.str.120, i32 0, i32 0), i32 10988466, i8 5 }, %struct.NameEntry { i8* getelementptr inbounds ([7 x i8], [7 x i8]* @.str.121, i32 0, i32 0), i32 15149124, i8 6 }, %struct.NameEntry { i8* getelementptr inbounds ([6 x i8], [6 x i8]* @.str.122, i32 0, i32 0), i32 1849182, i8 5 }, %struct.NameEntry { i8* getelementptr inbounds ([8 x i8], [8 x i8]* @.str.123, i32 0, i32 0), i32 13489365, i8 7 }, %struct.NameEntry { i8* getelementptr inbounds ([9 x i8], [9 x i8]* @.str.124, i32 0, i32 0), i32 13124807, i8 8 }, %struct.NameEntry { i8* getelementptr inbounds ([13 x i8], [13 x i8]* @.str.125, i32 0, i32 0), i32 2569877, i8 12 }, %struct.NameEntry { i8* getelementptr inbounds ([9 x i8], [9 x i8]* @.str.126, i32 0, i32 0), i32 2984969, i8 8 }, %struct.NameEntry { i8* getelementptr inbounds ([7 x i8], [7 x i8]* @.str.127, i32 0, i32 0), i32 13909909, i8 6 }, %struct.NameEntry { i8* getelementptr inbounds ([17 x i8], [17 x i8]* @.str.128, i32 0, i32 0), i32 4189571, i8 16 }, %struct.NameEntry { i8* getelementptr inbounds ([16 x i8], [16 x i8]* @.str.129, i32 0, i32 0), i32 16209384, i8 15 }, %struct.NameEntry { i8* getelementptr inbounds ([17 x i8], [17 x i8]* @.str.130, i32 0, i32 0), i32 3715619, i8 16 }, %struct.NameEntry { i8* getelementptr inbounds ([20 x i8], [20 x i8]* @.str.131, i32 0, i32 0), i32 3966662, i8 19 }, %struct.NameEntry { i8* getelementptr inbounds ([21 x i8], [21 x i8]* @.str.132, i32 0, i32 0), i32 6252501, i8 20 }, %struct.NameEntry { i8* getelementptr inbounds ([23 x i8], [23 x i8]* @.str.133, i32 0, i32 0), i32 9138677, i8 22 }, %struct.NameEntry { i8* getelementptr inbounds ([14 x i8], [14 x i8]* @.str.134, i32 0, i32 0), i32 5978322, i8 13 }, %struct.NameEntry { i8* getelementptr inbounds ([14 x i8], [14 x i8]* @.str.135, i32 0, i32 0), i32 9484968, i8 13 }, %struct.NameEntry { i8* getelementptr inbounds ([15 x i8], [15 x i8]* @.str.136, i32 0, i32 0), i32 10049056, i8 14 }, %struct.NameEntry { i8* getelementptr inbounds ([18 x i8], [18 x i8]* @.str.137, i32 0, i32 0), i32 14201329, i8 17 }, %struct.NameEntry { i8* getelementptr inbounds ([17 x i8], [17 x i8]* @.str.138, i32 0, i32 0), i32 3143202, i8 16 }, %struct.NameEntry { i8* getelementptr inbounds ([17 x i8], [17 x i8]* @.str.139, i32 0, i32 0), i32 5471896, i8 16 }, %struct.NameEntry { i8* getelementptr inbounds ([19 x i8], [19 x i8]* @.str.140, i32 0, i32 0), i32 16516609, i8 18 }, %struct.NameEntry { i8* getelementptr inbounds ([20 x i8], [20 x i8]* @.str.141, i32 0, i32 0), i32 11683597, i8 19 }, %struct.NameEntry { i8* getelementptr inbounds ([17 x i8], [17 x i8]* @.str.142, i32 0, i32 0), i32 111807, i8 16 }, %struct.NameEntry { i8* getelementptr inbounds ([11 x i8], [11 x i8]* @.str.143, i32 0, i32 0), i32 1938166, i8 10 }, %struct.NameEntry { i8* getelementptr inbounds ([15 x i8], [15 x i8]* @.str.144, i32 0, i32 0), i32 8907849, i8 14 }, %struct.NameEntry { i8* getelementptr inbounds ([22 x i8], [22 x i8]* @.str.145, i32 0, i32 0), i32 793435, i8 21 }, %struct.NameEntry { i8* getelementptr inbounds ([18 x i8], [18 x i8]* @.str.146, i32 0, i32 0), i32 1398160, i8 17 }, %struct.NameEntry { i8* getelementptr inbounds ([11 x i8], [11 x i8]* @.str.147, i32 0, i32 0), i32 3959696, i8 10 }, %struct.NameEntry { i8* getelementptr inbounds ([5 x i8], [5 x i8]* @.str.148, i32 0, i32 0), i32 16120273, i8 4 }, %struct.NameEntry { i8* getelementptr inbounds ([13 x i8], [13 x i8]* @.str.149, i32 0, i32 0), i32 16268761, i8 12 }, %struct.NameEntry { i8* getelementptr inbounds ([18 x i8], [18 x i8]* @.str.150, i32 0, i32 0), i32 3372692, i8 17 }, %struct.NameEntry { i8* getelementptr inbounds ([25 x i8], [25 x i8]* @.str.151, i32 0, i32 0), i32 9120814, i8 24 }, %struct.NameEntry { i8* getelementptr inbounds ([24 x i8], [24 x i8]* @.str.152, i32 0, i32 0), i32 15031684, i8 23 }, %struct.NameEntry { i8* getelementptr inbounds ([9 x i8], [9 x i8]* @.str.153, i32 0, i32 0), i32 14538941, i8 8 }, %struct.NameEntry { i8* getelementptr inbounds ([6 x i8], [6 x i8]* @.str.154, i32 0, i32 0), i32 10365436, i8 5 }, %struct.NameEntry { i8* getelementptr inbounds ([12 x i8], [12 x i8]* @.str.155, i32 0, i32 0), i32 8646776, i8 11 }, %struct.NameEntry { i8* getelementptr inbounds ([19 x i8], [19 x i8]* @.str.156, i32 0, i32 0), i32 12974375, i8 18 }, %struct.NameEntry { i8* getelementptr inbounds ([8 x i8], [8 x i8]* @.str.157, i32 0, i32 0), i32 7743126, i8 7 }, %struct.NameEntry { i8* getelementptr inbounds ([17 x i8], [17 x i8]* @.str.158, i32 0, i32 0), i32 3365604, i8 16 }, %struct.NameEntry { i8* getelementptr inbounds ([8 x i8], [8 x i8]* @.str.159, i32 0, i32 0), i32 2059736, i8 7 }, %struct.NameEntry { i8* getelementptr inbounds ([8 x i8], [8 x i8]* @.str.160, i32 0, i32 0), i32 5301006, i8 7 }, %struct.NameEntry { i8* getelementptr inbounds ([9 x i8], [9 x i8]* @.str.161, i32 0, i32 0), i32 13845508, i8 8 }, %struct.NameEntry { i8* getelementptr inbounds ([18 x i8], [18 x i8]* @.str.162, i32 0, i32 0), i32 6044643, i8 17 }, %struct.NameEntry { i8* getelementptr inbounds ([6 x i8], [6 x i8]* @.str.163, i32 0, i32 0), i32 1054547, i8 5 }, %struct.NameEntry { i8* getelementptr inbounds ([15 x i8], [15 x i8]* @.str.164, i32 0, i32 0), i32 3401938, i8 14 }, %struct.NameEntry { i8* getelementptr inbounds ([22 x i8], [22 x i8]* @.str.165, i32 0, i32 0), i32 14406269, i8 21 }, %struct.NameEntry { i8* getelementptr inbounds ([12 x i8], [12 x i8]* @.str.166, i32 0, i32 0), i32 4445458, i8 11 }, %struct.NameEntry { i8* getelementptr inbounds ([5 x i8], [5 x i8]* @.str.167, i32 0, i32 0), i32 8207817, i8 4 }, %struct.NameEntry { i8* getelementptr inbounds ([11 x i8], [11 x i8]* @.str.168, i32 0, i32 0), i32 13874190, i8 10 }, %struct.NameEntry { i8* getelementptr inbounds ([15 x i8], [15 x i8]* @.str.169, i32 0, i32 0), i32 9550378, i8 14 }, %struct.NameEntry { i8* getelementptr inbounds ([8 x i8], [8 x i8]* @.str.170, i32 0, i32 0), i32 15911784, i8 7 }, %struct.NameEntry { i8* getelementptr inbounds ([8 x i8], [8 x i8]* @.str.171, i32 0, i32 0), i32 13228638, i8 7 }, %struct.NameEntry { i8* getelementptr inbounds ([12 x i8], [12 x i8]* @.str.172, i32 0, i32 0), i32 6190750, i8 11 }, %struct.NameEntry { i8* getelementptr inbounds ([13 x i8], [13 x i8]* @.str.173, i32 0, i32 0), i32 5585167, i8 12 }, %struct.NameEntry { i8* getelementptr inbounds ([10 x i8], [10 x i8]* @.str.174, i32 0, i32 0), i32 5495169, i8 9 }, %struct.NameEntry { i8* getelementptr inbounds ([19 x i8], [19 x i8]* @.str.175, i32 0, i32 0), i32 16324405, i8 18 }, %struct.NameEntry { i8* getelementptr inbounds ([27 x i8], [27 x i8]* @.str.176, i32 0, i32 0), i32 13952670, i8 26 }, %struct.NameEntry { i8* getelementptr inbounds ([5 x i8], [5 x i8]* @.str.177, i32 0, i32 0), i32 16508213, i8 4 }, %struct.NameEntry { i8* getelementptr inbounds ([8 x i8], [8 x i8]* @.str.178, i32 0, i32 0), i32 11017471, i8 7 }, %struct.NameEntry { i8* getelementptr inbounds ([13 x i8], [13 x i8]* @.str.179, i32 0, i32 0), i32 9382311, i8 12 }, %struct.NameEntry { i8* getelementptr inbounds ([12 x i8], [12 x i8]* @.str.180, i32 0, i32 0), i32 3928734, i8 11 }, %struct.NameEntry { i8* getelementptr inbounds ([10 x i8], [10 x i8]* @.str.181, i32 0, i32 0), i32 5740218, i8 9 }, %struct.NameEntry { i8* getelementptr inbounds ([11 x i8], [11 x i8]* @.str.182, i32 0, i32 0), i32 632853, i8 10 }, %struct.NameEntry { i8* getelementptr inbounds ([11 x i8], [11 x i8]* @.str.183, i32 0, i32 0), i32 1144826, i8 10 }, %struct.NameEntry { i8* getelementptr inbounds ([10 x i8], [10 x i8]* @.str.184, i32 0, i32 0), i32 7356044, i8 9 }, %struct.NameEntry { i8* getelementptr inbounds ([9 x i8], [9 x i8]* @.str.185, i32 0, i32 0), i32 685204, i8 8 }, %struct.NameEntry { i8* getelementptr inbounds ([10 x i8], [10 x i8]* @.str.186, i32 0, i32 0), i32 12064397, i8 9 }, %struct.NameEntry { i8* getelementptr inbounds ([8 x i8], [8 x i8]* @.str.187, i32 0, i32 0), i32 8467273, i8 7 }, %struct.NameEntry { i8* getelementptr inbounds ([11 x i8], [11 x i8]* @.str.188, i32 0, i32 0), i32 15891108, i8 10 }, %struct.NameEntry { i8* getelementptr inbounds ([5 x i8], [5 x i8]* @.str.189, i32 0, i32 0), i32 15335886, i8 4 }, %struct.NameEntry { i8* getelementptr inbounds ([9 x i8], [9 x i8]* @.str.190, i32 0, i32 0), i32 16464468, i8 8 }, %struct.NameEntry { i8* getelementptr inbounds ([14 x i8], [14 x i8]* @.str.191, i32 0, i32 0), i32 2211286, i8 13 }, %struct.NameEntry { i8* getelementptr inbounds ([16 x i8], [16 x i8]* @.str.192, i32 0, i32 0), i32 1947061, i8 15 }, %struct.NameEntry { i8* getelementptr inbounds ([18 x i8], [18 x i8]* @.str.193, i32 0, i32 0), i32 7270370, i8 17 }, %struct.NameEntry { i8* getelementptr inbounds ([8 x i8], [8 x i8]* @.str.194, i32 0, i32 0), i32 8258898, i8 7 }, %struct.NameEntry { i8* getelementptr inbounds ([18 x i8], [18 x i8]* @.str.195, i32 0, i32 0), i32 9870337, i8 17 }, %struct.NameEntry { i8* getelementptr inbounds ([18 x i8], [18 x i8]* @.str.196, i32 0, i32 0), i32 8298704, i8 17 }, %struct.NameEntry { i8* getelementptr inbounds ([18 x i8], [18 x i8]* @.str.197, i32 0, i32 0), i32 12723301, i8 17 }, %struct.NameEntry { i8* getelementptr inbounds ([9 x i8], [9 x i8]* @.str.198, i32 0, i32 0), i32 8885664, i8 8 }, %struct.NameEntry { i8* getelementptr inbounds ([9 x i8], [9 x i8]* @.str.199, i32 0, i32 0), i32 12364910, i8 8 }, %struct.NameEntry { i8* getelementptr inbounds ([8 x i8], [8 x i8]* @.str.200, i32 0, i32 0), i32 8847130, i8 7 }, %struct.NameEntry { i8* getelementptr inbounds ([7 x i8], [7 x i8]* @.str.201, i32 0, i32 0), i32 9492271, i8 6 }, %struct.NameEntry { i8* getelementptr inbounds ([5 x i8], [5 x i8]* @.str.202, i32 0, i32 0), i32 13703631, i8 4 }, %struct.NameEntry { i8* getelementptr inbounds ([18 x i8], [18 x i8]* @.str.203, i32 0, i32 0), i32 14664026, i8 17 }, %struct.NameEntry { i8* getelementptr inbounds ([11 x i8], [11 x i8]* @.str.204, i32 0, i32 0), i32 9381924, i8 10 }, %struct.NameEntry { i8* getelementptr inbounds ([9 x i8], [9 x i8]* @.str.205, i32 0, i32 0), i32 16640617, i8 8 }, %struct.NameEntry { i8* getelementptr inbounds ([9 x i8], [9 x i8]* @.str.206, i32 0, i32 0), i32 12320166, i8 8 }, %struct.NameEntry { i8* getelementptr inbounds ([6 x i8], [6 x i8]* @.str.207, i32 0, i32 0), i32 369957, i8 5 }, %struct.NameEntry { i8* getelementptr inbounds ([6 x i8], [6 x i8]* @.str.208, i32 0, i32 0), i32 5413740, i8 5 }, %struct.NameEntry { i8* getelementptr inbounds ([18 x i8], [18 x i8]* @.str.209, i32 0, i32 0), i32 11967552, i8 17 }, %struct.NameEntry { i8* getelementptr inbounds ([20 x i8], [20 x i8]* @.str.210, i32 0, i32 0), i32 5497715, i8 19 }, %struct.NameEntry { i8* getelementptr inbounds ([15 x i8], [15 x i8]* @.str.211, i32 0, i32 0), i32 5931071, i8 14 }, %struct.NameEntry { i8* getelementptr inbounds ([13 x i8], [13 x i8]* @.str.212, i32 0, i32 0), i32 13404718, i8 12 }, %struct.NameEntry { i8* getelementptr inbounds ([5 x i8], [5 x i8]* @.str.213, i32 0, i32 0), i32 10707022, i8 4 }, %struct.NameEntry { i8* getelementptr inbounds ([8 x i8], [8 x i8]* @.str.214, i32 0, i32 0), i32 12380358, i8 7 }, %struct.NameEntry { i8* getelementptr inbounds ([14 x i8], [14 x i8]* @.str.215, i32 0, i32 0), i32 10214742, i8 13 }, %struct.NameEntry { i8* getelementptr inbounds ([12 x i8], [12 x i8]* @.str.216, i32 0, i32 0), i32 3878957, i8 11 }, %struct.NameEntry { i8* getelementptr inbounds ([13 x i8], [13 x i8]* @.str.217, i32 0, i32 0), i32 11845251, i8 12 }, %struct.NameEntry { i8* getelementptr inbounds ([13 x i8], [13 x i8]* @.str.218, i32 0, i32 0), i32 10895050, i8 12 }, %struct.NameEntry { i8* getelementptr inbounds ([18 x i8], [18 x i8]* @.str.219, i32 0, i32 0), i32 7047632, i8 17 }, %struct.NameEntry { i8* getelementptr inbounds ([17 x i8], [17 x i8]* @.str.220, i32 0, i32 0), i32 16321958, i8 16 }, %struct.NameEntry { i8* getelementptr inbounds ([12 x i8], [12 x i8]* @.str.221, i32 0, i32 0), i32 14409529, i8 11 }, %struct.NameEntry { i8* getelementptr inbounds ([11 x i8], [11 x i8]* @.str.222, i32 0, i32 0), i32 11792654, i8 10 }, %struct.NameEntry { i8* getelementptr inbounds ([12 x i8], [12 x i8]* @.str.223, i32 0, i32 0), i32 10978871, i8 11 }, %struct.NameEntry { i8* getelementptr inbounds ([17 x i8], [17 x i8]* @.str.224, i32 0, i32 0), i32 5266192, i8 16 }, %struct.NameEntry { i8* getelementptr inbounds ([10 x i8], [10 x i8]* @.str.225, i32 0, i32 0), i32 5447091, i8 9 }, %struct.NameEntry { i8* getelementptr inbounds ([9 x i8], [9 x i8]* @.str.226, i32 0, i32 0), i32 12585208, i8 8 }, %struct.NameEntry { i8* getelementptr inbounds ([15 x i8], [15 x i8]* @.str.227, i32 0, i32 0), i32 6702825, i8 14 }, %struct.NameEntry { i8* getelementptr inbounds ([19 x i8], [19 x i8]* @.str.228, i32 0, i32 0), i32 5183426, i8 18 }, %struct.NameEntry { i8* getelementptr inbounds ([15 x i8], [15 x i8]* @.str.229, i32 0, i32 0), i32 10061753, i8 14 }, %struct.NameEntry { i8* getelementptr inbounds ([15 x i8], [15 x i8]* @.str.230, i32 0, i32 0), i32 12526392, i8 14 }, %struct.NameEntry { i8* getelementptr inbounds ([9 x i8], [9 x i8]* @.str.231, i32 0, i32 0), i32 11461517, i8 8 }, %struct.NameEntry { i8* getelementptr inbounds ([5 x i8], [5 x i8]* @.str.232, i32 0, i32 0), i32 4758933, i8 4 }, %struct.NameEntry { i8* getelementptr inbounds ([23 x i8], [23 x i8]* @.str.233, i32 0, i32 0), i32 4659482, i8 22 }, %struct.NameEntry { i8* getelementptr inbounds ([11 x i8], [11 x i8]* @.str.234, i32 0, i32 0), i32 740661, i8 10 }, %struct.NameEntry { i8* getelementptr inbounds ([12 x i8], [12 x i8]* @.str.235, i32 0, i32 0), i32 13748103, i8 11 }, %struct.NameEntry { i8* getelementptr inbounds ([11 x i8], [11 x i8]* @.str.236, i32 0, i32 0), i32 9044681, i8 10 }, %struct.NameEntry { i8* getelementptr inbounds ([8 x i8], [8 x i8]* @.str.237, i32 0, i32 0), i32 1100371, i8 7 }, %struct.NameEntry { i8* getelementptr inbounds ([13 x i8], [13 x i8]* @.str.238, i32 0, i32 0), i32 1072037, i8 12 }, %struct.NameEntry { i8* getelementptr inbounds ([17 x i8], [17 x i8]* @.str.239, i32 0, i32 0), i32 11011948, i8 16 }, %struct.NameEntry { i8* getelementptr inbounds ([17 x i8], [17 x i8]* @.str.240, i32 0, i32 0), i32 1775012, i8 16 }, %struct.NameEntry { i8* getelementptr inbounds ([17 x i8], [17 x i8]* @.str.241, i32 0, i32 0), i32 7761403, i8 16 }, %struct.NameEntry { i8* getelementptr inbounds ([8 x i8], [8 x i8]* @.str.242, i32 0, i32 0), i32 9119928, i8 7 }, %struct.NameEntry { i8* getelementptr inbounds ([7 x i8], [7 x i8]* @.str.243, i32 0, i32 0), i32 16500138, i8 6 }, %struct.NameEntry { i8* getelementptr inbounds ([19 x i8], [19 x i8]* @.str.244, i32 0, i32 0), i32 13594278, i8 18 }, %struct.NameEntry { i8* getelementptr inbounds ([13 x i8], [13 x i8]* @.str.245, i32 0, i32 0), i32 4604809, i8 12 }, %struct.NameEntry { i8* getelementptr inbounds ([12 x i8], [12 x i8]* @.str.246, i32 0, i32 0), i32 6131613, i8 11 }, %struct.NameEntry { i8* getelementptr inbounds ([12 x i8], [12 x i8]* @.str.247, i32 0, i32 0), i32 7182823, i8 11 }, %struct.NameEntry { i8* getelementptr inbounds ([6 x i8], [6 x i8]* @.str.248, i32 0, i32 0), i32 13674204, i8 5 }, %struct.NameEntry { i8* getelementptr inbounds ([10 x i8], [10 x i8]* @.str.249, i32 0, i32 0), i32 1385911, i8 9 }, %struct.NameEntry { i8* getelementptr inbounds ([7 x i8], [7 x i8]* @.str.250, i32 0, i32 0), i32 11716975, i8 6 }, %struct.NameEntry { i8* getelementptr inbounds ([25 x i8], [25 x i8]* @.str.251, i32 0, i32 0), i32 7620714, i8 24 }, %struct.NameEntry { i8* getelementptr inbounds ([7 x i8], [7 x i8]* @.str.252, i32 0, i32 0), i32 15954886, i8 6 }, %struct.NameEntry { i8* getelementptr inbounds ([7 x i8], [7 x i8]* @.str.253, i32 0, i32 0), i32 3214184, i8 6 }, %struct.NameEntry { i8* getelementptr inbounds ([17 x i8], [17 x i8]* @.str.254, i32 0, i32 0), i32 14939375, i8 16 }, %struct.NameEntry { i8* getelementptr inbounds ([14 x i8], [14 x i8]* @.str.255, i32 0, i32 0), i32 1936733, i8 13 }, %struct.NameEntry { i8* getelementptr inbounds ([7 x i8], [7 x i8]* @.str.256, i32 0, i32 0), i32 7626286, i8 6 }, %struct.NameEntry { i8* getelementptr inbounds ([10 x i8], [10 x i8]* @.str.257, i32 0, i32 0), i32 1650724, i8 9 }, %struct.NameEntry { i8* getelementptr inbounds ([7 x i8], [7 x i8]* @.str.258, i32 0, i32 0), i32 6906057, i8 6 }, %struct.NameEntry { i8* getelementptr inbounds ([24 x i8], [24 x i8]* @.str.259, i32 0, i32 0), i32 7930261, i8 23 }, %struct.NameEntry { i8* getelementptr inbounds ([7 x i8], [7 x i8]* @.str.260, i32 0, i32 0), i32 16049377, i8 6 }, %struct.NameEntry { i8* getelementptr inbounds ([8 x i8], [8 x i8]* @.str.261, i32 0, i32 0), i32 10757715, i8 7 }, %struct.NameEntry { i8* getelementptr inbounds ([7 x i8], [7 x i8]* @.str.262, i32 0, i32 0), i32 210571, i8 6 }, %struct.NameEntry { i8* getelementptr inbounds ([28 x i8], [28 x i8]* @.str.263, i32 0, i32 0), i32 13482922, i8 27 }, %struct.NameEntry { i8* getelementptr inbounds ([10 x i8], [10 x i8]* @.str.264, i32 0, i32 0), i32 16318808, i8 9 }, %struct.NameEntry { i8* getelementptr inbounds ([16 x i8], [16 x i8]* @.str.265, i32 0, i32 0), i32 8861459, i8 15 }, %struct.NameEntry { i8* getelementptr inbounds ([12 x i8], [12 x i8]* @.str.266, i32 0, i32 0), i32 5847864, i8 11 }, %struct.NameEntry { i8* getelementptr inbounds ([22 x i8], [22 x i8]* @.str.267, i32 0, i32 0), i32 14329062, i8 21 }, %struct.NameEntry { i8* getelementptr inbounds ([21 x i8], [21 x i8]* @.str.268, i32 0, i32 0), i32 8759120, i8 20 }, %struct.NameEntry { i8* getelementptr inbounds ([5 x i8], [5 x i8]* @.str.269, i32 0, i32 0), i32 3191658, i8 4 }, %struct.NameEntry { i8* getelementptr inbounds ([21 x i8], [21 x i8]* @.str.270, i32 0, i32 0), i32 14107818, i8 20 }, %struct.NameEntry { i8* getelementptr inbounds ([11 x i8], [11 x i8]* @.str.271, i32 0, i32 0), i32 1816250, i8 10 }, %struct.NameEntry { i8* getelementptr inbounds ([9 x i8], [9 x i8]* @.str.272, i32 0, i32 0), i32 5959322, i8 8 }, %struct.NameEntry { i8* getelementptr inbounds ([11 x i8], [11 x i8]* @.str.273, i32 0, i32 0), i32 14237399, i8 10 }, %struct.NameEntry { i8* getelementptr inbounds ([12 x i8], [12 x i8]* @.str.274, i32 0, i32 0), i32 10570717, i8 11 }, %struct.NameEntry { i8* getelementptr inbounds ([12 x i8], [12 x i8]* @.str.275, i32 0, i32 0), i32 16675086, i8 11 }, %struct.NameEntry { i8* getelementptr inbounds ([11 x i8], [11 x i8]* @.str.276, i32 0, i32 0), i32 7526202, i8 10 }, %struct.NameEntry { i8* getelementptr inbounds ([10 x i8], [10 x i8]* @.str.277, i32 0, i32 0), i32 15574659, i8 9 }, %struct.NameEntry { i8* getelementptr inbounds ([12 x i8], [12 x i8]* @.str.278, i32 0, i32 0), i32 10183406, i8 11 }, %struct.NameEntry { i8* getelementptr inbounds ([8 x i8], [8 x i8]* @.str.279, i32 0, i32 0), i32 15573101, i8 7 }, %struct.NameEntry { i8* getelementptr inbounds ([11 x i8], [11 x i8]* @.str.280, i32 0, i32 0), i32 6365646, i8 10 }, %struct.NameEntry { i8* getelementptr inbounds ([13 x i8], [13 x i8]* @.str.281, i32 0, i32 0), i32 10621243, i8 12 }, %struct.NameEntry { i8* getelementptr inbounds ([8 x i8], [8 x i8]* @.str.282, i32 0, i32 0), i32 4001267, i8 7 }, %struct.NameEntry { i8* getelementptr inbounds ([6 x i8], [6 x i8]* @.str.283, i32 0, i32 0), i32 1021290, i8 5 }, %struct.NameEntry { i8* getelementptr inbounds ([12 x i8], [12 x i8]* @.str.284, i32 0, i32 0), i32 9232255, i8 11 }, %struct.NameEntry { i8* getelementptr inbounds ([5 x i8], [5 x i8]* @.str.285, i32 0, i32 0), i32 16220638, i8 4 }, %struct.NameEntry { i8* getelementptr inbounds ([8 x i8], [8 x i8]* @.str.286, i32 0, i32 0), i32 3034291, i8 7 }, %struct.NameEntry { i8* getelementptr inbounds ([7 x i8], [7 x i8]* @.str.287, i32 0, i32 0), i32 12328646, i8 6 }, %struct.NameEntry { i8* getelementptr inbounds ([8 x i8], [8 x i8]* @.str.288, i32 0, i32 0), i32 15544773, i8 7 }, %struct.NameEntry { i8* getelementptr inbounds ([8 x i8], [8 x i8]* @.str.289, i32 0, i32 0), i32 2237992, i8 7 }, %struct.NameEntry { i8* getelementptr inbounds ([5 x i8], [5 x i8]* @.str.290, i32 0, i32 0), i32 14643608, i8 4 }, %struct.NameEntry { i8* getelementptr inbounds ([10 x i8], [10 x i8]* @.str.291, i32 0, i32 0), i32 10804689, i8 9 }, %struct.NameEntry { i8* getelementptr inbounds ([10 x i8], [10 x i8]* @.str.292, i32 0, i32 0), i32 12906447, i8 9 }, %struct.NameEntry { i8* getelementptr inbounds ([17 x i8], [17 x i8]* @.str.293, i32 0, i32 0), i32 9149680, i8 16 }, %struct.NameEntry { i8* getelementptr inbounds ([11 x i8], [11 x i8]* @.str.294, i32 0, i32 0), i32 5947379, i8 10 }, %struct.NameEntry { i8* getelementptr inbounds ([8 x i8], [8 x i8]* @.str.295, i32 0, i32 0), i32 5983938, i8 7 }, %struct.NameEntry { i8* getelementptr inbounds ([11 x i8], [11 x i8]* @.str.296, i32 0, i32 0), i32 10406103, i8 10 }, %struct.NameEntry { i8* getelementptr inbounds ([15 x i8], [15 x i8]* @.str.297, i32 0, i32 0), i32 6272700, i8 14 }, %struct.NameEntry { i8* getelementptr inbounds ([7 x i8], [7 x i8]* @.str.298, i32 0, i32 0), i32 8404466, i8 6 }, %struct.NameEntry { i8* getelementptr inbounds ([11 x i8], [11 x i8]* @.str.299, i32 0, i32 0), i32 3007488, i8 10 }, %struct.NameEntry { i8* getelementptr inbounds ([12 x i8], [12 x i8]* @.str.300, i32 0, i32 0), i32 5916858, i8 11 }, %struct.NameEntry { i8* getelementptr inbounds ([9 x i8], [9 x i8]* @.str.301, i32 0, i32 0), i32 2956176, i8 8 }, %struct.NameEntry { i8* getelementptr inbounds ([10 x i8], [10 x i8]* @.str.302, i32 0, i32 0), i32 9499787, i8 9 }, %struct.NameEntry { i8* getelementptr inbounds ([11 x i8], [11 x i8]* @.str.303, i32 0, i32 0), i32 13231026, i8 10 }, %struct.NameEntry { i8* getelementptr inbounds ([6 x i8], [6 x i8]* @.str.304, i32 0, i32 0), i32 10988706, i8 5 }, %struct.NameEntry { i8* getelementptr inbounds ([17 x i8], [17 x i8]* @.str.305, i32 0, i32 0), i32 4434367, i8 16 }, %struct.NameEntry { i8* getelementptr inbounds ([14 x i8], [14 x i8]* @.str.306, i32 0, i32 0), i32 9031405, i8 13 }, %struct.NameEntry { i8* getelementptr inbounds ([14 x i8], [14 x i8]* @.str.307, i32 0, i32 0), i32 5924987, i8 13 }, %struct.NameEntry { i8* getelementptr inbounds ([16 x i8], [16 x i8]* @.str.308, i32 0, i32 0), i32 8091942, i8 15 }, %struct.NameEntry { i8* getelementptr inbounds ([11 x i8], [11 x i8]* @.str.309, i32 0, i32 0), i32 5883421, i8 10 }, %struct.NameEntry { i8* getelementptr inbounds ([16 x i8], [16 x i8]* @.str.310, i32 0, i32 0), i32 7725128, i8 15 }, %struct.NameEntry { i8* getelementptr inbounds ([19 x i8], [19 x i8]* @.str.311, i32 0, i32 0), i32 3461649, i8 18 }, %struct.NameEntry { i8* getelementptr inbounds ([7 x i8], [7 x i8]* @.str.312, i32 0, i32 0), i32 4411490, i8 6 }, %struct.NameEntry { i8* getelementptr inbounds ([7 x i8], [7 x i8]* @.str.313, i32 0, i32 0), i32 1582770, i8 6 }, %struct.NameEntry { i8* getelementptr inbounds ([7 x i8], [7 x i8]* @.str.314, i32 0, i32 0), i32 5546488, i8 6 }, %struct.NameEntry { i8* getelementptr inbounds ([10 x i8], [10 x i8]* @.str.315, i32 0, i32 0), i32 13034123, i8 9 }, %struct.NameEntry { i8* getelementptr inbounds ([12 x i8], [12 x i8]* @.str.316, i32 0, i32 0), i32 15608898, i8 11 }, %struct.NameEntry { i8* getelementptr inbounds ([12 x i8], [12 x i8]* @.str.317, i32 0, i32 0), i32 3196224, i8 11 }, %struct.NameEntry { i8* getelementptr inbounds ([12 x i8], [12 x i8]* @.str.318, i32 0, i32 0), i32 4286012, i8 11 }, %struct.NameEntry { i8* getelementptr inbounds ([14 x i8], [14 x i8]* @.str.319, i32 0, i32 0), i32 492799, i8 13 }, %struct.NameEntry { i8* getelementptr inbounds ([14 x i8], [14 x i8]* @.str.320, i32 0, i32 0), i32 1334380, i8 13 }, %struct.NameEntry { i8* getelementptr inbounds ([17 x i8], [17 x i8]* @.str.321, i32 0, i32 0), i32 11206348, i8 16 }, %struct.NameEntry { i8* getelementptr inbounds ([14 x i8], [14 x i8]* @.str.322, i32 0, i32 0), i32 3637255, i8 13 }, %struct.NameEntry { i8* getelementptr inbounds ([13 x i8], [13 x i8]* @.str.323, i32 0, i32 0), i32 16288075, i8 12 }, %struct.NameEntry { i8* getelementptr inbounds ([18 x i8], [18 x i8]* @.str.324, i32 0, i32 0), i32 15644546, i8 17 }, %struct.NameEntry { i8* getelementptr inbounds ([14 x i8], [14 x i8]* @.str.325, i32 0, i32 0), i32 352063, i8 13 }, %struct.NameEntry { i8* getelementptr inbounds ([17 x i8], [17 x i8]* @.str.326, i32 0, i32 0), i32 15259222, i8 16 }, %struct.NameEntry { i8* getelementptr inbounds ([20 x i8], [20 x i8]* @.str.327, i32 0, i32 0), i32 15487133, i8 19 }, %struct.NameEntry { i8* getelementptr inbounds ([20 x i8], [20 x i8]* @.str.328, i32 0, i32 0), i32 13994654, i8 19 }, %struct.NameEntry { i8* getelementptr inbounds ([15 x i8], [15 x i8]* @.str.329, i32 0, i32 0), i32 12764310, i8 14 }, %struct.NameEntry { i8* getelementptr inbounds ([23 x i8], [23 x i8]* @.str.330, i32 0, i32 0), i32 9089454, i8 22 }, %struct.NameEntry { i8* getelementptr inbounds ([8 x i8], [8 x i8]* @.str.331, i32 0, i32 0), i32 10489636, i8 7 }, %struct.NameEntry { i8* getelementptr inbounds ([14 x i8], [14 x i8]* @.str.332, i32 0, i32 0), i32 6526383, i8 13 }, %struct.NameEntry { i8* getelementptr inbounds ([26 x i8], [26 x i8]* @.str.333, i32 0, i32 0), i32 2718866, i8 25 }, %struct.NameEntry { i8* getelementptr inbounds ([17 x i8], [17 x i8]* @.str.334, i32 0, i32 0), i32 16605358, i8 16 }, %struct.NameEntry { i8* getelementptr inbounds ([21 x i8], [21 x i8]* @.str.335, i32 0, i32 0), i32 8624464, i8 20 }, %struct.NameEntry { i8* getelementptr inbounds ([19 x i8], [19 x i8]* @.str.336, i32 0, i32 0), i32 11845628, i8 18 }, %struct.NameEntry { i8* getelementptr inbounds ([25 x i8], [25 x i8]* @.str.337, i32 0, i32 0), i32 9040977, i8 24 }, %struct.NameEntry { i8* getelementptr inbounds ([21 x i8], [21 x i8]* @.str.338, i32 0, i32 0), i32 4844440, i8 20 }, %struct.NameEntry { i8* getelementptr inbounds ([25 x i8], [25 x i8]* @.str.339, i32 0, i32 0), i32 5393700, i8 24 }, %struct.NameEntry { i8* getelementptr inbounds ([29 x i8], [29 x i8]* @.str.340, i32 0, i32 0), i32 1212374, i8 28 }, %struct.NameEntry { i8* getelementptr inbounds ([20 x i8], [20 x i8]* @.str.341, i32 0, i32 0), i32 16021356, i8 19 }, %struct.NameEntry { i8* getelementptr inbounds ([23 x i8], [23 x i8]* @.str.342, i32 0, i32 0), i32 5579857, i8 22 }, %struct.NameEntry { i8* getelementptr inbounds ([22 x i8], [22 x i8]* @.str.343, i32 0, i32 0), i32 12520378, i8 21 }, %struct.NameEntry { i8* getelementptr inbounds ([19 x i8], [19 x i8]* @.str.344, i32 0, i32 0), i32 11755315, i8 18 }, %struct.NameEntry { i8* getelementptr inbounds ([23 x i8], [23 x i8]* @.str.345, i32 0, i32 0), i32 440449, i8 22 }, %struct.NameEntry { i8* getelementptr inbounds ([6 x i8], [6 x i8]* @.str.346, i32 0, i32 0), i32 5389519, i8 5 }, %struct.NameEntry { i8* getelementptr inbounds ([6 x i8], [6 x i8]* @.str.347, i32 0, i32 0), i32 10020319, i8 5 }, %struct.NameEntry { i8* getelementptr inbounds ([9 x i8], [9 x i8]* @.str.348, i32 0, i32 0), i32 6300360, i8 8 }, %struct.NameEntry { i8* getelementptr inbounds ([11 x i8], [11 x i8]* @.str.349, i32 0, i32 0), i32 2198394, i8 10 }, %struct.NameEntry { i8* getelementptr inbounds ([5 x i8], [5 x i8]* @.str.350, i32 0, i32 0), i32 6082914, i8 4 }], align 16
@.str = private unnamed_addr constant [12 x i8] c"DOMActivate\00", align 1
@.str.1 = private unnamed_addr constant [25 x i8] c"DOMCharacterDataModified\00", align 1
@.str.2 = private unnamed_addr constant [17 x i8] c"DOMContentLoaded\00", align 1
@.str.3 = private unnamed_addr constant [11 x i8] c"DOMFocusIn\00", align 1
@.str.4 = private unnamed_addr constant [12 x i8] c"DOMFocusOut\00", align 1
@.str.5 = private unnamed_addr constant [16 x i8] c"DOMNodeInserted\00", align 1
@.str.6 = private unnamed_addr constant [28 x i8] c"DOMNodeInsertedIntoDocument\00", align 1
@.str.7 = private unnamed_addr constant [15 x i8] c"DOMNodeRemoved\00", align 1
@.str.8 = private unnamed_addr constant [27 x i8] c"DOMNodeRemovedFromDocument\00", align 1
@.str.9 = private unnamed_addr constant [19 x i8] c"DOMSubtreeModified\00", align 1
@.str.10 = private unnamed_addr constant [6 x i8] c"abort\00", align 1
@.str.11 = private unnamed_addr constant [13 x i8] c"abortpayment\00", align 1
@.str.12 = private unnamed_addr constant [16 x i8] c"accessibleclick\00", align 1
@.str.13 = private unnamed_addr constant [22 x i8] c"accessiblecontextmenu\00", align 1
@.str.14 = private unnamed_addr constant [20 x i8] c"accessibledecrement\00", align 1
@.str.15 = private unnamed_addr constant [16 x i8] c"accessiblefocus\00", align 1
@.str.16 = private unnamed_addr constant [20 x i8] c"accessibleincrement\00", align 1
@.str.17 = private unnamed_addr constant [25 x i8] c"accessiblescrollintoview\00", align 1
@.str.18 = private unnamed_addr constant [9 x i8] c"activate\00", align 1
@.str.19 = private unnamed_addr constant [7 x i8] c"active\00", align 1
@.str.20 = private unnamed_addr constant [16 x i8] c"addsourcebuffer\00", align 1
@.str.21 = private unnamed_addr constant [10 x i8] c"addstream\00", align 1
@.str.22 = private unnamed_addr constant [9 x i8] c"addtrack\00", align 1
@.str.23 = private unnamed_addr constant [22 x i8] c"advertisementreceived\00", align 1
@.str.24 = private unnamed_addr constant [11 x i8] c"afterprint\00", align 1
@.str.25 = private unnamed_addr constant [16 x i8] c"animationcancel\00", align 1
@.str.26 = private unnamed_addr constant [13 x i8] c"animationend\00", align 1
@.str.27 = private unnamed_addr constant [19 x i8] c"animationiteration\00", align 1
@.str.28 = private unnamed_addr constant [15 x i8] c"animationstart\00", align 1
@.str.29 = private unnamed_addr constant [13 x i8] c"appinstalled\00", align 1
@.str.30 = private unnamed_addr constant [9 x i8] c"audioend\00", align 1
@.str.31 = private unnamed_addr constant [13 x i8] c"audioprocess\00", align 1
@.str.32 = private unnamed_addr constant [11 x i8] c"audiostart\00", align 1
@.str.33 = private unnamed_addr constant [9 x i8] c"auxclick\00", align 1
@.str.34 = private unnamed_addr constant [16 x i8] c"availablechange\00", align 1
@.str.35 = private unnamed_addr constant [21 x i8] c"backgroundfetchabort\00", align 1
@.str.36 = private unnamed_addr constant [21 x i8] c"backgroundfetchclick\00", align 1
@.str.37 = private unnamed_addr constant [20 x i8] c"backgroundfetchfail\00", align 1
@.str.38 = private unnamed_addr constant [23 x i8] c"backgroundfetchsuccess\00", align 1
@.str.39 = private unnamed_addr constant [12 x i8] c"beforeclose\00", align 1
@.str.40 = private unnamed_addr constant [11 x i8] c"beforecopy\00", align 1
@.str.41 = private unnamed_addr constant [19 x i8] c"beforecreatepolicy\00", align 1
@.str.42 = private unnamed_addr constant [10 x i8] c"beforecut\00", align 1
@.str.43 = private unnamed_addr constant [12 x i8] c"beforeinput\00", align 1
@.str.44 = private unnamed_addr constant [20 x i8] c"beforeinstallprompt\00", align 1
@.str.45 = private unnamed_addr constant [12 x i8] c"beforematch\00", align 1
@.str.46 = private unnamed_addr constant [12 x i8] c"beforepaste\00", align 1
@.str.47 = private unnamed_addr constant [12 x i8] c"beforeprint\00", align 1
@.str.48 = private unnamed_addr constant [13 x i8] c"beforeunload\00", align 1
@.str.49 = private unnamed_addr constant [15 x i8] c"beforexrselect\00", align 1
@.str.50 = private unnamed_addr constant [11 x i8] c"beginEvent\00", align 1
@.str.51 = private unnamed_addr constant [8 x i8] c"blocked\00", align 1
@.str.52 = private unnamed_addr constant [5 x i8] c"blur\00", align 1
@.str.53 = private unnamed_addr constant [9 x i8] c"boundary\00", align 1
@.str.54 = private unnamed_addr constant [18 x i8] c"bufferedamountlow\00", align 1
@.str.55 = private unnamed_addr constant [7 x i8] c"cached\00", align 1
@.str.56 = private unnamed_addr constant [7 x i8] c"cancel\00", align 1
@.str.57 = private unnamed_addr constant [15 x i8] c"canmakepayment\00", align 1
@.str.58 = private unnamed_addr constant [8 x i8] c"canplay\00", align 1
@.str.59 = private unnamed_addr constant [15 x i8] c"canplaythrough\00", align 1
@.str.60 = private unnamed_addr constant [20 x i8] c"capturehandlechange\00", align 1
@.str.61 = private unnamed_addr constant [7 x i8] c"change\00", align 1
@.str.62 = private unnamed_addr constant [27 x i8] c"characteristicvaluechanged\00", align 1
@.str.63 = private unnamed_addr constant [15 x i8] c"chargingchange\00", align 1
@.str.64 = private unnamed_addr constant [19 x i8] c"chargingtimechange\00", align 1
@.str.65 = private unnamed_addr constant [9 x i8] c"checking\00", align 1
@.str.66 = private unnamed_addr constant [6 x i8] c"click\00", align 1
@.str.67 = private unnamed_addr constant [6 x i8] c"close\00", align 1
@.str.68 = private unnamed_addr constant [8 x i8] c"closing\00", align 1
@.str.69 = private unnamed_addr constant [12 x i8] c"colorselect\00", align 1
@.str.70 = private unnamed_addr constant [9 x i8] c"complete\00", align 1
@.str.71 = private unnamed_addr constant [15 x i8] c"compositionend\00", align 1
@.str.72 = private unnamed_addr constant [17 x i8] c"compositionstart\00", align 1
@.str.73 = private unnamed_addr constant [18 x i8] c"compositionupdate\00", align 1
@.str.74 = private unnamed_addr constant [8 x i8] c"connect\00", align 1
@.str.75 = private unnamed_addr constant [11 x i8] c"connecting\00", align 1
@.str.76 = private unnamed_addr constant [20 x i8] c"connectionavailable\00", align 1
@.str.77 = private unnamed_addr constant [22 x i8] c"connectionstatechange\00", align 1
@.str.78 = private unnamed_addr constant [14 x i8] c"contentdelete\00", align 1
@.str.79 = private unnamed_addr constant [12 x i8] c"contextlost\00", align 1
@.str.80 = private unnamed_addr constant [12 x i8] c"contextmenu\00", align 1
@.str.81 = private unnamed_addr constant [16 x i8] c"contextrestored\00", align 1
@.str.82 = private unnamed_addr constant [17 x i8] c"controllerchange\00", align 1
@.str.83 = private unnamed_addr constant [13 x i8] c"cookiechange\00", align 1
@.str.84 = private unnamed_addr constant [5 x i8] c"copy\00", align 1
@.str.85 = private unnamed_addr constant [19 x i8] c"crossoriginmessage\00", align 1
@.str.86 = private unnamed_addr constant [10 x i8] c"cuechange\00", align 1
@.str.87 = private unnamed_addr constant [20 x i8] c"currentscreenchange\00", align 1
@.str.88 = private unnamed_addr constant [4 x i8] c"cut\00", align 1
@.str.89 = private unnamed_addr constant [14 x i8] c"dataavailable\00", align 1
@.str.90 = private unnamed_addr constant [12 x i8] c"datachannel\00", align 1
@.str.91 = private unnamed_addr constant [9 x i8] c"dblclick\00", align 1
@.str.92 = private unnamed_addr constant [20 x i8] c"defaultsessionstart\00", align 1
@.str.93 = private unnamed_addr constant [13 x i8] c"devicechange\00", align 1
@.str.94 = private unnamed_addr constant [13 x i8] c"devicemotion\00", align 1
@.str.95 = private unnamed_addr constant [18 x i8] c"deviceorientation\00", align 1
@.str.96 = private unnamed_addr constant [26 x i8] c"deviceorientationabsolute\00", align 1
@.str.97 = private unnamed_addr constant [22 x i8] c"dischargingtimechange\00", align 1
@.str.98 = private unnamed_addr constant [11 x i8] c"disconnect\00", align 1
@.str.99 = private unnamed_addr constant [8 x i8] c"display\00", align 1
@.str.100 = private unnamed_addr constant [12 x i8] c"downloading\00", align 1
@.str.101 = private unnamed_addr constant [5 x i8] c"drag\00", align 1
@.str.102 = private unnamed_addr constant [8 x i8] c"dragend\00", align 1
@.str.103 = private unnamed_addr constant [10 x i8] c"dragenter\00", align 1
@.str.104 = private unnamed_addr constant [10 x i8] c"dragleave\00", align 1
@.str.105 = private unnamed_addr constant [9 x i8] c"dragover\00", align 1
@.str.106 = private unnamed_addr constant [10 x i8] c"dragstart\00", align 1
@.str.107 = private unnamed_addr constant [5 x i8] c"drop\00", align 1
@.str.108 = private unnamed_addr constant [15 x i8] c"durationchange\00", align 1
@.str.109 = private unnamed_addr constant [24 x i8] c"elementtimingbufferfull\00", align 1
@.str.110 = private unnamed_addr constant [8 x i8] c"emptied\00", align 1
@.str.111 = private unnamed_addr constant [10 x i8] c"encrypted\00", align 1
@.str.112 = private unnamed_addr constant [4 x i8] c"end\00", align 1
@.str.113 = private unnamed_addr constant [9 x i8] c"endEvent\00", align 1
@.str.114 = private unnamed_addr constant [6 x i8] c"ended\00", align 1
@.str.115 = private unnamed_addr constant [6 x i8] c"enter\00", align 1
@.str.116 = private unnamed_addr constant [22 x i8] c"enterpictureinpicture\00", align 1
@.str.117 = private unnamed_addr constant [6 x i8] c"error\00", align 1
@.str.118 = private unnamed_addr constant [22 x i8] c"eventtimingbufferfull\00", align 1
@.str.119 = private unnamed_addr constant [5 x i8] c"exit\00", align 1
@.str.120 = private unnamed_addr constant [6 x i8] c"fetch\00", align 1
@.str.121 = private unnamed_addr constant [7 x i8] c"finish\00", align 1
@.str.122 = private unnamed_addr constant [6 x i8] c"focus\00", align 1
@.str.123 = private unnamed_addr constant [8 x i8] c"focusin\00", align 1
@.str.124 = private unnamed_addr constant [9 x i8] c"focusout\00", align 1
@.str.125 = private unnamed_addr constant [13 x i8] c"foreignfetch\00", align 1
@.str.126 = private unnamed_addr constant [9 x i8] c"formdata\00", align 1
@.str.127 = private unnamed_addr constant [7 x i8] c"freeze\00", align 1
@.str.128 = private unnamed_addr constant [17 x i8] c"fullscreenchange\00", align 1
@.str.129 = private unnamed_addr constant [16 x i8] c"fullscreenerror\00", align 1
@.str.130 = private unnamed_addr constant [17 x i8] c"gamepadconnected\00", align 1
@.str.131 = private unnamed_addr constant [20 x i8] c"gamepaddisconnected\00", align 1
@.str.132 = private unnamed_addr constant [21 x i8] c"gatheringstatechange\00", align 1
@.str.133 = private unnamed_addr constant [23 x i8] c"gattserverdisconnected\00", align 1
@.str.134 = private unnamed_addr constant [14 x i8] c"geofenceenter\00", align 1
@.str.135 = private unnamed_addr constant [14 x i8] c"geofenceleave\00", align 1
@.str.136 = private unnamed_addr constant [15 x i8] c"geometrychange\00", align 1
@.str.137 = private unnamed_addr constant [18 x i8] c"gestureflingstart\00", align 1
@.str.138 = private unnamed_addr constant [17 x i8] c"gesturelongpress\00", align 1
@.str.139 = private unnamed_addr constant [17 x i8] c"gesturescrollend\00", align 1
@.str.140 = private unnamed_addr constant [19 x i8] c"gesturescrollstart\00", align 1
@.str.141 = private unnamed_addr constant [20 x i8] c"gesturescrollupdate\00", align 1
@.str.142 = private unnamed_addr constant [17 x i8] c"gestureshowpress\00", align 1
@.str.143 = private unnamed_addr constant [11 x i8] c"gesturetap\00", align 1
@.str.144 = private unnamed_addr constant [15 x i8] c"gesturetapdown\00", align 1
@.str.145 = private unnamed_addr constant [22 x i8] c"gesturetapunconfirmed\00", align 1
@.str.146 = private unnamed_addr constant [18 x i8] c"gotpointercapture\00", align 1
@.str.147 = private unnamed_addr constant [11 x i8] c"hashchange\00", align 1
@.str.148 = private unnamed_addr constant [5 x i8] c"hide\00", align 1
@.str.149 = private unnamed_addr constant [13 x i8] c"icecandidate\00", align 1
@.str.150 = private unnamed_addr constant [18 x i8] c"icecandidateerror\00", align 1
@.str.151 = private unnamed_addr constant [25 x i8] c"iceconnectionstatechange\00", align 1
@.str.152 = private unnamed_addr constant [24 x i8] c"icegatheringstatechange\00", align 1
@.str.153 = private unnamed_addr constant [9 x i8] c"inactive\00", align 1
@.str.154 = private unnamed_addr constant [6 x i8] c"input\00", align 1
@.str.155 = private unnamed_addr constant [12 x i8] c"inputreport\00", align 1
@.str.156 = private unnamed_addr constant [19 x i8] c"inputsourceschange\00", align 1
@.str.157 = private unnamed_addr constant [8 x i8] c"install\00", align 1
@.str.158 = private unnamed_addr constant [17 x i8] c"interfacerequest\00", align 1
@.str.159 = private unnamed_addr constant [8 x i8] c"invalid\00", align 1
@.str.160 = private unnamed_addr constant [8 x i8] c"keydown\00", align 1
@.str.161 = private unnamed_addr constant [9 x i8] c"keypress\00", align 1
@.str.162 = private unnamed_addr constant [18 x i8] c"keystatuseschange\00", align 1
@.str.163 = private unnamed_addr constant [6 x i8] c"keyup\00", align 1
@.str.164 = private unnamed_addr constant [15 x i8] c"languagechange\00", align 1
@.str.165 = private unnamed_addr constant [22 x i8] c"leavepictureinpicture\00", align 1
@.str.166 = private unnamed_addr constant [12 x i8] c"levelchange\00", align 1
@.str.167 = private unnamed_addr constant [5 x i8] c"load\00", align 1
@.str.168 = private unnamed_addr constant [11 x i8] c"loadeddata\00", align 1
@.str.169 = private unnamed_addr constant [15 x i8] c"loadedmetadata\00", align 1
@.str.170 = private unnamed_addr constant [8 x i8] c"loadend\00", align 1
@.str.171 = private unnamed_addr constant [8 x i8] c"loading\00", align 1
@.str.172 = private unnamed_addr constant [12 x i8] c"loadingdone\00", align 1
@.str.173 = private unnamed_addr constant [13 x i8] c"loadingerror\00", align 1
@.str.174 = private unnamed_addr constant [10 x i8] c"loadstart\00", align 1
@.str.175 = private unnamed_addr constant [19 x i8] c"lostpointercapture\00", align 1
@.str.176 = private unnamed_addr constant [27 x i8] c"managedconfigurationchange\00", align 1
@.str.177 = private unnamed_addr constant [5 x i8] c"mark\00", align 1
@.str.178 = private unnamed_addr constant [8 x i8] c"message\00", align 1
@.str.179 = private unnamed_addr constant [13 x i8] c"messageerror\00", align 1
@.str.180 = private unnamed_addr constant [12 x i8] c"midimessage\00", align 1
@.str.181 = private unnamed_addr constant [10 x i8] c"mousedown\00", align 1
@.str.182 = private unnamed_addr constant [11 x i8] c"mouseenter\00", align 1
@.str.183 = private unnamed_addr constant [11 x i8] c"mouseleave\00", align 1
@.str.184 = private unnamed_addr constant [10 x i8] c"mousemove\00", align 1
@.str.185 = private unnamed_addr constant [9 x i8] c"mouseout\00", align 1
@.str.186 = private unnamed_addr constant [10 x i8] c"mouseover\00", align 1
@.str.187 = private unnamed_addr constant [8 x i8] c"mouseup\00", align 1
@.str.188 = private unnamed_addr constant [11 x i8] c"mousewheel\00", align 1
@.str.189 = private unnamed_addr constant [5 x i8] c"mute\00", align 1
@.str.190 = private unnamed_addr constant [9 x i8] c"navigate\00", align 1
@.str.191 = private unnamed_addr constant [14 x i8] c"navigateerror\00", align 1
@.str.192 = private unnamed_addr constant [16 x i8] c"navigatesuccess\00", align 1
@.str.193 = private unnamed_addr constant [18 x i8] c"negotiationneeded\00", align 1
@.str.194 = private unnamed_addr constant [8 x i8] c"nomatch\00", align 1
@.str.195 = private unnamed_addr constant [18 x i8] c"notificationclick\00", align 1
@.str.196 = private unnamed_addr constant [18 x i8] c"notificationclose\00", align 1
@.str.197 = private unnamed_addr constant [18 x i8] c"notificationerror\00", align 1
@.str.198 = private unnamed_addr constant [9 x i8] c"noupdate\00", align 1
@.str.199 = private unnamed_addr constant [9 x i8] c"obsolete\00", align 1
@.str.200 = private unnamed_addr constant [8 x i8] c"offline\00", align 1
@.str.201 = private unnamed_addr constant [7 x i8] c"online\00", align 1
@.str.202 = private unnamed_addr constant [5 x i8] c"open\00", align 1
@.str.203 = private unnamed_addr constant [18 x i8] c"orientationchange\00", align 1
@.str.204 = private unnamed_addr constant [11 x i8] c"overscroll\00", align 1
@.str.205 = private unnamed_addr constant [9 x i8] c"pagehide\00", align 1
@.str.206 = private unnamed_addr constant [9 x i8] c"pageshow\00", align 1
@.str.207 = private unnamed_addr constant [6 x i8] c"paste\00", align 1
@.str.208 = private unnamed_addr constant [6 x i8] c"pause\00", align 1
@.str.209 = private unnamed_addr constant [18 x i8] c"payerdetailchange\00", align 1
@.str.210 = private unnamed_addr constant [20 x i8] c"paymentmethodchange\00", align 1
@.str.211 = private unnamed_addr constant [15 x i8] c"paymentrequest\00", align 1
@.str.212 = private unnamed_addr constant [13 x i8] c"periodicsync\00", align 1
@.str.213 = private unnamed_addr constant [5 x i8] c"play\00", align 1
@.str.214 = private unnamed_addr constant [8 x i8] c"playing\00", align 1
@.str.215 = private unnamed_addr constant [14 x i8] c"pointercancel\00", align 1
@.str.216 = private unnamed_addr constant [12 x i8] c"pointerdown\00", align 1
@.str.217 = private unnamed_addr constant [13 x i8] c"pointerenter\00", align 1
@.str.218 = private unnamed_addr constant [13 x i8] c"pointerleave\00", align 1
@.str.219 = private unnamed_addr constant [18 x i8] c"pointerlockchange\00", align 1
@.str.220 = private unnamed_addr constant [17 x i8] c"pointerlockerror\00", align 1
@.str.221 = private unnamed_addr constant [12 x i8] c"pointermove\00", align 1
@.str.222 = private unnamed_addr constant [11 x i8] c"pointerout\00", align 1
@.str.223 = private unnamed_addr constant [12 x i8] c"pointerover\00", align 1
@.str.224 = private unnamed_addr constant [17 x i8] c"pointerrawupdate\00", align 1
@.str.225 = private unnamed_addr constant [10 x i8] c"pointerup\00", align 1
@.str.226 = private unnamed_addr constant [9 x i8] c"popstate\00", align 1
@.str.227 = private unnamed_addr constant [15 x i8] c"portalactivate\00", align 1
@.str.228 = private unnamed_addr constant [19 x i8] c"prerenderingchange\00", align 1
@.str.229 = private unnamed_addr constant [15 x i8] c"prioritychange\00", align 1
@.str.230 = private unnamed_addr constant [15 x i8] c"processorerror\00", align 1
@.str.231 = private unnamed_addr constant [9 x i8] c"progress\00", align 1
@.str.232 = private unnamed_addr constant [5 x i8] c"push\00", align 1
@.str.233 = private unnamed_addr constant [23 x i8] c"pushsubscriptionchange\00", align 1
@.str.234 = private unnamed_addr constant [11 x i8] c"quicstream\00", align 1
@.str.235 = private unnamed_addr constant [12 x i8] c"quotachange\00", align 1
@.str.236 = private unnamed_addr constant [11 x i8] c"ratechange\00", align 1
@.str.237 = private unnamed_addr constant [8 x i8] c"reading\00", align 1
@.str.238 = private unnamed_addr constant [13 x i8] c"readingerror\00", align 1
@.str.239 = private unnamed_addr constant [17 x i8] c"readystatechange\00", align 1
@.str.240 = private unnamed_addr constant [17 x i8] c"reflectionchange\00", align 1
@.str.241 = private unnamed_addr constant [17 x i8] c"rejectionhandled\00", align 1
@.str.242 = private unnamed_addr constant [8 x i8] c"release\00", align 1
@.str.243 = private unnamed_addr constant [7 x i8] c"remove\00", align 1
@.str.244 = private unnamed_addr constant [19 x i8] c"removesourcebuffer\00", align 1
@.str.245 = private unnamed_addr constant [13 x i8] c"removestream\00", align 1
@.str.246 = private unnamed_addr constant [12 x i8] c"removetrack\00", align 1
@.str.247 = private unnamed_addr constant [12 x i8] c"repeatEvent\00", align 1
@.str.248 = private unnamed_addr constant [6 x i8] c"reset\00", align 1
@.str.249 = private unnamed_addr constant [10 x i8] c"resetpose\00", align 1
@.str.250 = private unnamed_addr constant [7 x i8] c"resize\00", align 1
@.str.251 = private unnamed_addr constant [25 x i8] c"resourcetimingbufferfull\00", align 1
@.str.252 = private unnamed_addr constant [7 x i8] c"result\00", align 1
@.str.253 = private unnamed_addr constant [7 x i8] c"resume\00", align 1
@.str.254 = private unnamed_addr constant [17 x i8] c"samplebufferfull\00", align 1
@.str.255 = private unnamed_addr constant [14 x i8] c"screenschange\00", align 1
@.str.256 = private unnamed_addr constant [7 x i8] c"scroll\00", align 1
@.str.257 = private unnamed_addr constant [10 x i8] c"scrollend\00", align 1
@.str.258 = private unnamed_addr constant [7 x i8] c"search\00", align 1
@.str.259 = private unnamed_addr constant [24 x i8] c"securitypolicyviolation\00", align 1
@.str.260 = private unnamed_addr constant [7 x i8] c"seeked\00", align 1
@.str.261 = private unnamed_addr constant [8 x i8] c"seeking\00", align 1
@.str.262 = private unnamed_addr constant [7 x i8] c"select\00", align 1
@.str.263 = private unnamed_addr constant [28 x i8] c"selectedcandidatepairchange\00", align 1
@.str.264 = private unnamed_addr constant [10 x i8] c"selectend\00", align 1
@.str.265 = private unnamed_addr constant [16 x i8] c"selectionchange\00", align 1
@.str.266 = private unnamed_addr constant [12 x i8] c"selectstart\00", align 1
@.str.267 = private unnamed_addr constant [22 x i8] c"shippingaddresschange\00", align 1
@.str.268 = private unnamed_addr constant [21 x i8] c"shippingoptionchange\00", align 1
@.str.269 = private unnamed_addr constant [5 x i8] c"show\00", align 1
@.str.270 = private unnamed_addr constant [21 x i8] c"signalingstatechange\00", align 1
@.str.271 = private unnamed_addr constant [11 x i8] c"slotchange\00", align 1
@.str.272 = private unnamed_addr constant [9 x i8] c"soundend\00", align 1
@.str.273 = private unnamed_addr constant [11 x i8] c"soundstart\00", align 1
@.str.274 = private unnamed_addr constant [12 x i8] c"sourceclose\00", align 1
@.str.275 = private unnamed_addr constant [12 x i8] c"sourceended\00", align 1
@.str.276 = private unnamed_addr constant [11 x i8] c"sourceopen\00", align 1
@.str.277 = private unnamed_addr constant [10 x i8] c"speechend\00", align 1
@.str.278 = private unnamed_addr constant [12 x i8] c"speechstart\00", align 1
@.str.279 = private unnamed_addr constant [8 x i8] c"squeeze\00", align 1
@.str.280 = private unnamed_addr constant [11 x i8] c"squeezeend\00", align 1
@.str.281 = private unnamed_addr constant [13 x i8] c"squeezestart\00", align 1
@.str.282 = private unnamed_addr constant [8 x i8] c"stalled\00", align 1
@.str.283 = private unnamed_addr constant [6 x i8] c"start\00", align 1
@.str.284 = private unnamed_addr constant [12 x i8] c"statechange\00", align 1
@.str.285 = private unnamed_addr constant [5 x i8] c"stop\00", align 1
@.str.286 = private unnamed_addr constant [8 x i8] c"storage\00", align 1
@.str.287 = private unnamed_addr constant [7 x i8] c"submit\00", align 1
@.str.288 = private unnamed_addr constant [8 x i8] c"success\00", align 1
@.str.289 = private unnamed_addr constant [8 x i8] c"suspend\00", align 1
@.str.290 = private unnamed_addr constant [5 x i8] c"sync\00", align 1
@.str.291 = private unnamed_addr constant [10 x i8] c"terminate\00", align 1
@.str.292 = private unnamed_addr constant [10 x i8] c"textInput\00", align 1
@.str.293 = private unnamed_addr constant [17 x i8] c"textformatupdate\00", align 1
@.str.294 = private unnamed_addr constant [11 x i8] c"textupdate\00", align 1
@.str.295 = private unnamed_addr constant [8 x i8] c"timeout\00", align 1
@.str.296 = private unnamed_addr constant [11 x i8] c"timeupdate\00", align 1
@.str.297 = private unnamed_addr constant [15 x i8] c"timezonechange\00", align 1
@.str.298 = private unnamed_addr constant [7 x i8] c"toggle\00", align 1
@.str.299 = private unnamed_addr constant [11 x i8] c"tonechange\00", align 1
@.str.300 = private unnamed_addr constant [12 x i8] c"touchcancel\00", align 1
@.str.301 = private unnamed_addr constant [9 x i8] c"touchend\00", align 1
@.str.302 = private unnamed_addr constant [10 x i8] c"touchmove\00", align 1
@.str.303 = private unnamed_addr constant [11 x i8] c"touchstart\00", align 1
@.str.304 = private unnamed_addr constant [6 x i8] c"track\00", align 1
@.str.305 = private unnamed_addr constant [17 x i8] c"transitioncancel\00", align 1
@.str.306 = private unnamed_addr constant [14 x i8] c"transitionend\00", align 1
@.str.307 = private unnamed_addr constant [14 x i8] c"transitionrun\00", align 1
@.str.308 = private unnamed_addr constant [16 x i8] c"transitionstart\00", align 1
@.str.309 = private unnamed_addr constant [11 x i8] c"typechange\00", align 1
@.str.310 = private unnamed_addr constant [16 x i8] c"uncapturederror\00", align 1
@.str.311 = private unnamed_addr constant [19 x i8] c"unhandledrejection\00", align 1
@.str.312 = private unnamed_addr constant [7 x i8] c"unload\00", align 1
@.str.313 = private unnamed_addr constant [7 x i8] c"unmute\00", align 1
@.str.314 = private unnamed_addr constant [7 x i8] c"update\00", align 1
@.str.315 = private unnamed_addr constant [10 x i8] c"updateend\00", align 1
@.str.316 = private unnamed_addr constant [12 x i8] c"updatefound\00", align 1
@.str.317 = private unnamed_addr constant [12 x i8] c"updateready\00", align 1
@.str.318 = private unnamed_addr constant [12 x i8] c"updatestart\00", align 1
@.str.319 = private unnamed_addr constant [14 x i8] c"upgradeneeded\00", align 1
@.str.320 = private unnamed_addr constant [14 x i8] c"versionchange\00", align 1
@.str.321 = private unnamed_addr constant [17 x i8] c"visibilitychange\00", align 1
@.str.322 = private unnamed_addr constant [14 x i8] c"voiceschanged\00", align 1
@.str.323 = private unnamed_addr constant [13 x i8] c"volumechange\00", align 1
@.str.324 = private unnamed_addr constant [18 x i8] c"vrdisplayactivate\00", align 1
@.str.325 = private unnamed_addr constant [14 x i8] c"vrdisplayblur\00", align 1
@.str.326 = private unnamed_addr constant [17 x i8] c"vrdisplayconnect\00", align 1
@.str.327 = private unnamed_addr constant [20 x i8] c"vrdisplaydeactivate\00", align 1
@.str.328 = private unnamed_addr constant [20 x i8] c"vrdisplaydisconnect\00", align 1
@.str.329 = private unnamed_addr constant [15 x i8] c"vrdisplayfocus\00", align 1
@.str.330 = private unnamed_addr constant [23 x i8] c"vrdisplaypresentchange\00", align 1
@.str.331 = private unnamed_addr constant [8 x i8] c"waiting\00", align 1
@.str.332 = private unnamed_addr constant [14 x i8] c"waitingforkey\00", align 1
@.str.333 = private unnamed_addr constant [26 x i8] c"webglcontextcreationerror\00", align 1
@.str.334 = private unnamed_addr constant [17 x i8] c"webglcontextlost\00", align 1
@.str.335 = private unnamed_addr constant [21 x i8] c"webglcontextrestored\00", align 1
@.str.336 = private unnamed_addr constant [19 x i8] c"webkitAnimationEnd\00", align 1
@.str.337 = private unnamed_addr constant [25 x i8] c"webkitAnimationIteration\00", align 1
@.str.338 = private unnamed_addr constant [21 x i8] c"webkitAnimationStart\00", align 1
@.str.339 = private unnamed_addr constant [25 x i8] c"webkitBeforeTextInserted\00", align 1
@.str.340 = private unnamed_addr constant [29 x i8] c"webkitEditableContentChanged\00", align 1
@.str.341 = private unnamed_addr constant [20 x i8] c"webkitTransitionEnd\00", align 1
@.str.342 = private unnamed_addr constant [23 x i8] c"webkitfullscreenchange\00", align 1
@.str.343 = private unnamed_addr constant [22 x i8] c"webkitfullscreenerror\00", align 1
@.str.344 = private unnamed_addr constant [19 x i8] c"webkitspeechchange\00", align 1
@.str.345 = private unnamed_addr constant [23 x i8] c"webkitvisibilitychange\00", align 1
@.str.346 = private unnamed_addr constant [6 x i8] c"wheel\00", align 1
@.str.347 = private unnamed_addr constant [6 x i8] c"write\00", align 1
@.str.348 = private unnamed_addr constant [9 x i8] c"writeend\00", align 1
@.str.349 = private unnamed_addr constant [11 x i8] c"writestart\00", align 1
@.str.350 = private unnamed_addr constant [5 x i8] c"zoom\00", align 1

; Function Attrs: nounwind ssp uwtable
define hidden void @_ZN5blink16event_type_names4InitEv() local_unnamed_addr #0 {
  %1 = load i1, i1* @_ZZN5blink16event_type_names4InitEvE9is_loaded, align 1
  br i1 %1, label %44, label %2

2:                                                ; preds = %0
  store i1 true, i1* @_ZZN5blink16event_type_names4InitEvE9is_loaded, align 1
  br label %3

3:                                                ; preds = %38, %2
  %4 = phi i64 [ 0, %2 ], [ %42, %38 ]
  %5 = getelementptr inbounds [351 x %struct.NameEntry], [351 x %struct.NameEntry]* @_ZZN5blink16event_type_names4InitEvE6kNames, i64 0, i64 %4, i32 0
  %6 = load i8*, i8** %5, align 16
  %7 = getelementptr inbounds [351 x %struct.NameEntry], [351 x %struct.NameEntry]* @_ZZN5blink16event_type_names4InitEvE6kNames, i64 0, i64 %4, i32 2
  %8 = load i8, i8* %7, align 4
  %9 = zext i8 %8 to i32
  %10 = getelementptr inbounds [351 x %struct.NameEntry], [351 x %struct.NameEntry]* @_ZZN5blink16event_type_names4InitEvE6kNames, i64 0, i64 %4, i32 1
  %11 = load i32, i32* %10, align 8
  %12 = tail call %"class.WTF::StringImpl"* @_ZN3WTF10StringImpl12CreateStaticEPKcjj(i8* %6, i32 %9, i32 %11) #4
  %13 = getelementptr inbounds [351 x i8*], [351 x i8*]* @_ZN5blink16event_type_names13names_storageE, i64 0, i64 %4
  %14 = icmp eq %"class.WTF::StringImpl"* %12, null
  br i1 %14, label %38, label %15

15:                                               ; preds = %3
  %16 = getelementptr inbounds %"class.WTF::StringImpl", %"class.WTF::StringImpl"* %12, i64 0, i32 2, i32 0, i32 0, i32 0, i32 0, i32 0
  %17 = load atomic i32, i32* %16 acquire, align 4
  %18 = and i32 %17, 4
  %19 = icmp eq i32 %18, 0
  br i1 %19, label %36, label %20

20:                                               ; preds = %15
  %21 = load atomic i32, i32* %16 monotonic, align 4
  %22 = and i32 %21, 2
  %23 = icmp eq i32 %22, 0
  br i1 %23, label %24, label %38

24:                                               ; preds = %20
  %25 = getelementptr inbounds %"class.WTF::StringImpl", %"class.WTF::StringImpl"* %12, i64 0, i32 0
  %26 = load i32, i32* %25, align 4
  %27 = zext i32 %26 to i33
  %28 = tail call { i33, i1 } @llvm.sadd.with.overflow.i33(i33 %27, i33 1) #4
  %29 = extractvalue { i33, i1 } %28, 1
  %30 = extractvalue { i33, i1 } %28, 0
  %31 = icmp slt i33 %30, 0
  %32 = or i1 %29, %31
  br i1 %32, label %33, label %34, !prof !2

33:                                               ; preds = %24
  tail call void @llvm.trap() #4
  unreachable

34:                                               ; preds = %24
  %35 = trunc i33 %30 to i32
  store i32 %35, i32* %25, align 4
  br label %38

36:                                               ; preds = %15
  %37 = tail call %"class.WTF::StringImpl"* @_ZN3WTF12AtomicString11AddSlowCaseEPNS_10StringImplE(%"class.WTF::StringImpl"* nonnull %12) #4
  br label %38

38:                                               ; preds = %3, %20, %34, %36
  %39 = phi %"class.WTF::StringImpl"* [ %37, %36 ], [ %12, %20 ], [ %12, %34 ], [ null, %3 ]
  %40 = ptrtoint %"class.WTF::StringImpl"* %39 to i64
  %41 = bitcast i8** %13 to i64*
  store i64 %40, i64* %41, align 8
  %42 = add nuw nsw i64 %4, 1
  %43 = icmp eq i64 %42, 351
  br i1 %43, label %44, label %3

44:                                               ; preds = %38, %0
  ret void
}

declare %"class.WTF::StringImpl"* @_ZN3WTF10StringImpl12CreateStaticEPKcjj(i8*, i32, i32) local_unnamed_addr #1

declare %"class.WTF::StringImpl"* @_ZN3WTF12AtomicString11AddSlowCaseEPNS_10StringImplE(%"class.WTF::StringImpl"*) local_unnamed_addr #1

; Function Attrs: nounwind readnone speculatable
declare { i33, i1 } @llvm.sadd.with.overflow.i33(i33, i33) #2

; Function Attrs: cold noreturn nounwind
declare void @llvm.trap() #3

attributes #0 = { nounwind ssp uwtable "correctly-rounded-divide-sqrt-fp-math"="false" "disable-tail-calls"="false" "less-precise-fpmad"="false" "min-legal-vector-width"="0" "no-frame-pointer-elim"="false" "no-frame-pointer-elim-non-leaf" "no-infs-fp-math"="false" "no-jump-tables"="false" "no-nans-fp-math"="false" "no-signed-zeros-fp-math"="false" "no-trapping-math"="false" "null-pointer-is-valid"="true" "stack-protector-buffer-size"="4" "target-cpu"="x86-64" "target-features"="+cx8,+fxsr,+mmx,+sse,+sse2,+sse3,+x87" "unsafe-fp-math"="false" "use-soft-float"="false" }
attributes #1 = { "correctly-rounded-divide-sqrt-fp-math"="false" "disable-tail-calls"="false" "less-precise-fpmad"="false" "no-frame-pointer-elim"="false" "no-frame-pointer-elim-non-leaf" "no-infs-fp-math"="false" "no-nans-fp-math"="false" "no-signed-zeros-fp-math"="false" "no-trapping-math"="false" "null-pointer-is-valid"="true" "stack-protector-buffer-size"="4" "target-cpu"="x86-64" "target-features"="+cx8,+fxsr,+mmx,+sse,+sse2,+sse3,+x87" "unsafe-fp-math"="false" "use-soft-float"="false" }
attributes #2 = { nounwind readnone speculatable }
attributes #3 = { cold noreturn nounwind }
attributes #4 = { nounwind }

!llvm.module.flags = !{!0, !1}

!0 = !{i32 1, !"wchar_size", i32 4}
!1 = !{i32 7, !"PIC Level", i32 2}
!2 = !{!"branch_weights", i32 1, i32 2000}
