; ModuleID = 'gen/components/assist_ranker/proto/example_preprocessor.pb.cc'
source_filename = "gen/components/assist_ranker/proto/example_preprocessor.pb.cc"
target datalayout = "e-m:e-i64:64-f80:128-n8:16:32:64-S128"
target triple = "x86_64-unknown-linux-gnu"

module asm ".symver exp, exp@GLIBC_2.2.5"
module asm ".symver exp2, exp2@GLIBC_2.2.5"
module asm ".symver exp2f, exp2f@GLIBC_2.2.5"
module asm ".symver expf, expf@GLIBC_2.2.5"
module asm ".symver lgamma, lgamma@GLIBC_2.2.5"
module asm ".symver lgammaf, lgammaf@GLIBC_2.2.5"
module asm ".symver lgammal, lgammal@GLIBC_2.2.5"
module asm ".symver log, log@GLIBC_2.2.5"
module asm ".symver log2, log2@GLIBC_2.2.5"
module asm ".symver log2f, log2f@GLIBC_2.2.5"
module asm ".symver logf, logf@GLIBC_2.2.5"
module asm ".symver pow, pow@GLIBC_2.2.5"
module asm ".symver powf, powf@GLIBC_2.2.5"

%"class.assist_ranker::ExamplePreprocessorConfig_BoundariesDefaultTypeInternal" = type { %"class.google::protobuf::internal::ExplicitlyConstructed" }
%"class.google::protobuf::internal::ExplicitlyConstructed" = type { %"union.google::protobuf::internal::ExplicitlyConstructed<assist_ranker::ExamplePreprocessorConfig_Boundaries>::AlignedUnion" }
%"union.google::protobuf::internal::ExplicitlyConstructed<assist_ranker::ExamplePreprocessorConfig_Boundaries>::AlignedUnion" = type { i64, [32 x i8] }
%"class.assist_ranker::ExamplePreprocessorConfig_BucketizersEntry_DoNotUseDefaultTypeInternal" = type { %"class.google::protobuf::internal::ExplicitlyConstructed.0" }
%"class.google::protobuf::internal::ExplicitlyConstructed.0" = type { %"union.google::protobuf::internal::ExplicitlyConstructed<assist_ranker::ExamplePreprocessorConfig_BucketizersEntry_DoNotUse>::AlignedUnion" }
%"union.google::protobuf::internal::ExplicitlyConstructed<assist_ranker::ExamplePreprocessorConfig_BucketizersEntry_DoNotUse>::AlignedUnion" = type { i64, [32 x i8] }
%"class.assist_ranker::ExamplePreprocessorConfig_FeatureIndicesEntry_DoNotUseDefaultTypeInternal" = type { %"class.google::protobuf::internal::ExplicitlyConstructed.1" }
%"class.google::protobuf::internal::ExplicitlyConstructed.1" = type { %"union.google::protobuf::internal::ExplicitlyConstructed<assist_ranker::ExamplePreprocessorConfig_FeatureIndicesEntry_DoNotUse>::AlignedUnion" }
%"union.google::protobuf::internal::ExplicitlyConstructed<assist_ranker::ExamplePreprocessorConfig_FeatureIndicesEntry_DoNotUse>::AlignedUnion" = type { i64, [24 x i8] }
%"class.assist_ranker::ExamplePreprocessorConfig_NormalizersEntry_DoNotUseDefaultTypeInternal" = type { %"class.google::protobuf::internal::ExplicitlyConstructed.2" }
%"class.google::protobuf::internal::ExplicitlyConstructed.2" = type { %"union.google::protobuf::internal::ExplicitlyConstructed<assist_ranker::ExamplePreprocessorConfig_NormalizersEntry_DoNotUse>::AlignedUnion" }
%"union.google::protobuf::internal::ExplicitlyConstructed<assist_ranker::ExamplePreprocessorConfig_NormalizersEntry_DoNotUse>::AlignedUnion" = type { i64, [24 x i8] }
%"class.assist_ranker::ExamplePreprocessorConfigDefaultTypeInternal" = type { %"class.google::protobuf::internal::ExplicitlyConstructed.3" }
%"class.google::protobuf::internal::ExplicitlyConstructed.3" = type { %"union.google::protobuf::internal::ExplicitlyConstructed<assist_ranker::ExamplePreprocessorConfig>::AlignedUnion" }
%"union.google::protobuf::internal::ExplicitlyConstructed<assist_ranker::ExamplePreprocessorConfig>::AlignedUnion" = type { i64, [208 x i8] }
%"class.google::protobuf::internal::ExplicitlyConstructed.56" = type { %"union.google::protobuf::internal::ExplicitlyConstructed<std::__1::basic_string<char, std::__1::char_traits<char>, std::__1::allocator<char> > >::AlignedUnion" }
%"union.google::protobuf::internal::ExplicitlyConstructed<std::__1::basic_string<char, std::__1::char_traits<char>, std::__1::allocator<char> > >::AlignedUnion" = type { i64, [16 x i8] }
%"class.assist_ranker::ExamplePreprocessorConfig_Boundaries" = type <{ %"class.google::protobuf::MessageLite", %"class.google::protobuf::RepeatedField", %"class.google::protobuf::internal::CachedSize", [4 x i8] }>
%"class.google::protobuf::MessageLite" = type { i32 (...)**, %"class.google::protobuf::internal::InternalMetadata" }
%"class.google::protobuf::internal::InternalMetadata" = type { i8* }
%"class.google::protobuf::RepeatedField" = type { i32, i32, i8* }
%"class.google::protobuf::internal::CachedSize" = type { %"struct.std::__1::atomic" }
%"struct.std::__1::atomic" = type { %"struct.std::__1::__atomic_base" }
%"struct.std::__1::__atomic_base" = type { %"struct.std::__1::__atomic_base.4" }
%"struct.std::__1::__atomic_base.4" = type { %"struct.std::__1::__cxx_atomic_impl" }
%"struct.std::__1::__cxx_atomic_impl" = type { %"struct.std::__1::__cxx_atomic_base_impl" }
%"struct.std::__1::__cxx_atomic_base_impl" = type { i32 }
%"class.google::protobuf::Arena" = type { %"class.google::protobuf::internal::ArenaImpl", void (%"class.std::type_info"*, i64, i8*)*, void (%"class.google::protobuf::Arena"*, i8*, i64)*, void (%"class.google::protobuf::Arena"*, i8*, i64)*, i8* }
%"class.google::protobuf::internal::ArenaImpl" = type { %"struct.std::__1::atomic.7", %"struct.std::__1::atomic.7", %"struct.std::__1::atomic.11", %"class.google::protobuf::internal::ArenaImpl::Block"*, i64, %"struct.google::protobuf::internal::ArenaImpl::Options" }
%"struct.std::__1::atomic.7" = type { %"struct.std::__1::__atomic_base.8" }
%"struct.std::__1::__atomic_base.8" = type { %"struct.std::__1::__cxx_atomic_impl.9" }
%"struct.std::__1::__cxx_atomic_impl.9" = type { %"struct.std::__1::__cxx_atomic_base_impl.10" }
%"struct.std::__1::__cxx_atomic_base_impl.10" = type { %"class.google::protobuf::internal::ArenaImpl::SerialArena"* }
%"class.google::protobuf::internal::ArenaImpl::SerialArena" = type { %"class.google::protobuf::internal::ArenaImpl"*, i8*, %"class.google::protobuf::internal::ArenaImpl::Block"*, %"struct.google::protobuf::internal::ArenaImpl::CleanupChunk"*, %"class.google::protobuf::internal::ArenaImpl::SerialArena"*, i8*, i8*, %"struct.google::protobuf::internal::ArenaImpl::CleanupNode"*, %"struct.google::protobuf::internal::ArenaImpl::CleanupNode"* }
%"struct.google::protobuf::internal::ArenaImpl::CleanupChunk" = type { i64, %"struct.google::protobuf::internal::ArenaImpl::CleanupChunk"*, [1 x %"struct.google::protobuf::internal::ArenaImpl::CleanupNode"] }
%"struct.google::protobuf::internal::ArenaImpl::CleanupNode" = type { i8*, void (i8*)* }
%"struct.std::__1::atomic.11" = type { %"struct.std::__1::__atomic_base.12" }
%"struct.std::__1::__atomic_base.12" = type { %"struct.std::__1::__atomic_base.13" }
%"struct.std::__1::__atomic_base.13" = type { %"struct.std::__1::__cxx_atomic_impl.14" }
%"struct.std::__1::__cxx_atomic_impl.14" = type { %"struct.std::__1::__cxx_atomic_base_impl.15" }
%"struct.std::__1::__cxx_atomic_base_impl.15" = type { i64 }
%"class.google::protobuf::internal::ArenaImpl::Block" = type { %"class.google::protobuf::internal::ArenaImpl::Block"*, i64, i64 }
%"struct.google::protobuf::internal::ArenaImpl::Options" = type { i64, i64, i8*, i64, i8* (i64)*, void (i8*, i64)* }
%"class.std::type_info" = type { i32 (...)**, i8* }
%"class.assist_ranker::ExamplePreprocessorConfig_BucketizersEntry_DoNotUse" = type { %"class.google::protobuf::internal::MapEntryLite.base", [4 x i8] }
%"class.google::protobuf::internal::MapEntryLite.base" = type { %"class.google::protobuf::internal::MapEntryImpl.base" }
%"class.google::protobuf::internal::MapEntryImpl.base" = type <{ %"class.google::protobuf::MessageLite", %"struct.google::protobuf::internal::ArenaStringPtr", %"class.assist_ranker::ExamplePreprocessorConfig_Boundaries"*, [1 x i32] }>
%"struct.google::protobuf::internal::ArenaStringPtr" = type { %"class.std::__1::basic_string"* }
%"class.std::__1::basic_string" = type { %"class.std::__1::__compressed_pair" }
%"class.std::__1::__compressed_pair" = type { %"struct.std::__1::__compressed_pair_elem" }
%"struct.std::__1::__compressed_pair_elem" = type { %"struct.std::__1::basic_string<char, std::__1::char_traits<char>, std::__1::allocator<char> >::__rep" }
%"struct.std::__1::basic_string<char, std::__1::char_traits<char>, std::__1::allocator<char> >::__rep" = type { %union.anon }
%union.anon = type { %"struct.std::__1::basic_string<char, std::__1::char_traits<char>, std::__1::allocator<char> >::__long" }
%"struct.std::__1::basic_string<char, std::__1::char_traits<char>, std::__1::allocator<char> >::__long" = type { i8*, i64, i64 }
%"class.assist_ranker::ExamplePreprocessorConfig_FeatureIndicesEntry_DoNotUse" = type { %"class.google::protobuf::internal::MapEntryLite.17" }
%"class.google::protobuf::internal::MapEntryLite.17" = type { %"class.google::protobuf::internal::MapEntryImpl.18" }
%"class.google::protobuf::internal::MapEntryImpl.18" = type { %"class.google::protobuf::MessageLite", %"struct.google::protobuf::internal::ArenaStringPtr", i32, [1 x i32] }
%"class.assist_ranker::ExamplePreprocessorConfig_NormalizersEntry_DoNotUse" = type { %"class.google::protobuf::internal::MapEntryLite.19" }
%"class.google::protobuf::internal::MapEntryLite.19" = type { %"class.google::protobuf::internal::MapEntryImpl.20" }
%"class.google::protobuf::internal::MapEntryImpl.20" = type { %"class.google::protobuf::MessageLite", %"struct.google::protobuf::internal::ArenaStringPtr", float, [1 x i32] }
%"class.assist_ranker::ExamplePreprocessorConfig" = type <{ %"class.google::protobuf::MessageLite", %"class.google::protobuf::RepeatedPtrField", %"class.google::protobuf::internal::MapFieldLite", %"class.google::protobuf::internal::MapFieldLite.21", %"class.google::protobuf::internal::MapFieldLite.23", %"class.google::protobuf::RepeatedPtrField", %"class.google::protobuf::internal::CachedSize", [4 x i8] }>
%"class.google::protobuf::internal::MapFieldLite" = type { %"class.google::protobuf::Map" }
%"class.google::protobuf::Map" = type { %"class.google::protobuf::Map<std::__1::basic_string<char, std::__1::char_traits<char>, std::__1::allocator<char> >, assist_ranker::ExamplePreprocessorConfig_Boundaries>::InnerMap" }
%"class.google::protobuf::Map<std::__1::basic_string<char, std::__1::char_traits<char>, std::__1::allocator<char> >, assist_ranker::ExamplePreprocessorConfig_Boundaries>::InnerMap" = type { i64, i64, i64, i64, i8**, %"class.google::protobuf::internal::MapAllocator" }
%"class.google::protobuf::internal::MapAllocator" = type { %"class.google::protobuf::Arena"* }
%"class.google::protobuf::internal::MapFieldLite.21" = type { %"class.google::protobuf::Map.22" }
%"class.google::protobuf::Map.22" = type { %"class.google::protobuf::Map<std::__1::basic_string<char, std::__1::char_traits<char>, std::__1::allocator<char> >, int>::InnerMap" }
%"class.google::protobuf::Map<std::__1::basic_string<char, std::__1::char_traits<char>, std::__1::allocator<char> >, int>::InnerMap" = type { i64, i64, i64, i64, i8**, %"class.google::protobuf::internal::MapAllocator" }
%"class.google::protobuf::internal::MapFieldLite.23" = type { %"class.google::protobuf::Map.24" }
%"class.google::protobuf::Map.24" = type { %"class.google::protobuf::Map<std::__1::basic_string<char, std::__1::char_traits<char>, std::__1::allocator<char> >, float>::InnerMap" }
%"class.google::protobuf::Map<std::__1::basic_string<char, std::__1::char_traits<char>, std::__1::allocator<char> >, float>::InnerMap" = type { i64, i64, i64, i64, i8**, %"class.google::protobuf::internal::MapAllocator" }
%"class.google::protobuf::RepeatedPtrField" = type { %"class.google::protobuf::internal::RepeatedPtrFieldBase" }
%"class.google::protobuf::internal::RepeatedPtrFieldBase" = type { %"class.google::protobuf::Arena"*, i32, i32, %"struct.google::protobuf::internal::RepeatedPtrFieldBase::Rep"* }
%"struct.google::protobuf::internal::RepeatedPtrFieldBase::Rep" = type { i32, [268435454 x i8*] }
%"struct.google::protobuf::internal::InternalMetadata::Container" = type { %"struct.google::protobuf::internal::InternalMetadata::ContainerBase", %"class.std::__1::basic_string" }
%"struct.google::protobuf::internal::InternalMetadata::ContainerBase" = type { %"class.google::protobuf::Arena"* }
%"struct.std::__1::basic_string<char, std::__1::char_traits<char>, std::__1::allocator<char> >::__short" = type { [23 x i8], %struct.anon }
%struct.anon = type { i8 }
%"struct.google::protobuf::internal::SCCInfoBase" = type { %"struct.std::__1::atomic", i32, i32, void ()* }
%"class.google::protobuf::internal::ParseContext" = type { %"class.google::protobuf::internal::EpsCopyInputStream", i32, i32, %"struct.google::protobuf::internal::ParseContext::Data" }
%"class.google::protobuf::internal::EpsCopyInputStream" = type { i8*, i8*, i8*, i32, i32, %"class.google::protobuf::io::ZeroCopyInputStream"*, [32 x i8], i64, i32, i32 }
%"class.google::protobuf::io::ZeroCopyInputStream" = type { i32 (...)** }
%"struct.google::protobuf::internal::ParseContext::Data" = type { %"class.google::protobuf::DescriptorPool"*, %"class.google::protobuf::MessageFactory"* }
%"class.google::protobuf::DescriptorPool" = type opaque
%"class.google::protobuf::MessageFactory" = type opaque
%"class.google::protobuf::io::EpsCopyOutputStream" = type <{ i8*, i8*, [32 x i8], %"class.google::protobuf::io::ZeroCopyOutputStream"*, i8, i8, i8, [5 x i8] }>
%"class.google::protobuf::io::ZeroCopyOutputStream" = type { i32 (...)** }
%"class.google::protobuf::internal::MapEntryImpl" = type <{ %"class.google::protobuf::MessageLite", %"struct.google::protobuf::internal::ArenaStringPtr", %"class.assist_ranker::ExamplePreprocessorConfig_Boundaries"*, [1 x i32], [4 x i8] }>
%"struct.std::__1::pair.75" = type <{ %"class.google::protobuf::Map<std::__1::basic_string<char, std::__1::char_traits<char>, std::__1::allocator<char> >, int>::InnerMap::iterator_base.76", i8, [7 x i8] }>
%"class.google::protobuf::Map<std::__1::basic_string<char, std::__1::char_traits<char>, std::__1::allocator<char> >, int>::InnerMap::iterator_base.76" = type { %"struct.google::protobuf::Map<std::__1::basic_string<char, std::__1::char_traits<char>, std::__1::allocator<char> >, int>::InnerMap::Node"*, %"class.google::protobuf::Map<std::__1::basic_string<char, std::__1::char_traits<char>, std::__1::allocator<char> >, int>::InnerMap"*, i64 }
%"struct.google::protobuf::Map<std::__1::basic_string<char, std::__1::char_traits<char>, std::__1::allocator<char> >, int>::InnerMap::Node" = type { %"struct.google::protobuf::MapPair.31", %"struct.google::protobuf::Map<std::__1::basic_string<char, std::__1::char_traits<char>, std::__1::allocator<char> >, int>::InnerMap::Node"* }
%"struct.google::protobuf::MapPair.31" = type <{ %"class.std::__1::basic_string", i32, [4 x i8] }>
%"class.google::protobuf::Map<std::__1::basic_string<char, std::__1::char_traits<char>, std::__1::allocator<char> >, int>::const_iterator" = type { %"class.google::protobuf::Map<std::__1::basic_string<char, std::__1::char_traits<char>, std::__1::allocator<char> >, int>::InnerMap::iterator_base" }
%"class.google::protobuf::Map<std::__1::basic_string<char, std::__1::char_traits<char>, std::__1::allocator<char> >, int>::InnerMap::iterator_base" = type { %"struct.google::protobuf::Map<std::__1::basic_string<char, std::__1::char_traits<char>, std::__1::allocator<char> >, int>::InnerMap::Node"*, %"class.google::protobuf::Map<std::__1::basic_string<char, std::__1::char_traits<char>, std::__1::allocator<char> >, int>::InnerMap"*, i64 }
%"struct.std::__1::pair.80" = type <{ %"class.google::protobuf::Map<std::__1::basic_string<char, std::__1::char_traits<char>, std::__1::allocator<char> >, float>::InnerMap::iterator_base.81", i8, [7 x i8] }>
%"class.google::protobuf::Map<std::__1::basic_string<char, std::__1::char_traits<char>, std::__1::allocator<char> >, float>::InnerMap::iterator_base.81" = type { %"struct.google::protobuf::Map<std::__1::basic_string<char, std::__1::char_traits<char>, std::__1::allocator<char> >, float>::InnerMap::Node"*, %"class.google::protobuf::Map<std::__1::basic_string<char, std::__1::char_traits<char>, std::__1::allocator<char> >, float>::InnerMap"*, i64 }
%"struct.google::protobuf::Map<std::__1::basic_string<char, std::__1::char_traits<char>, std::__1::allocator<char> >, float>::InnerMap::Node" = type { %"struct.google::protobuf::MapPair.39", %"struct.google::protobuf::Map<std::__1::basic_string<char, std::__1::char_traits<char>, std::__1::allocator<char> >, float>::InnerMap::Node"* }
%"struct.google::protobuf::MapPair.39" = type <{ %"class.std::__1::basic_string", float, [4 x i8] }>
%"class.google::protobuf::Map<std::__1::basic_string<char, std::__1::char_traits<char>, std::__1::allocator<char> >, float>::const_iterator" = type { %"class.google::protobuf::Map<std::__1::basic_string<char, std::__1::char_traits<char>, std::__1::allocator<char> >, float>::InnerMap::iterator_base" }
%"class.google::protobuf::Map<std::__1::basic_string<char, std::__1::char_traits<char>, std::__1::allocator<char> >, float>::InnerMap::iterator_base" = type { %"struct.google::protobuf::Map<std::__1::basic_string<char, std::__1::char_traits<char>, std::__1::allocator<char> >, float>::InnerMap::Node"*, %"class.google::protobuf::Map<std::__1::basic_string<char, std::__1::char_traits<char>, std::__1::allocator<char> >, float>::InnerMap"*, i64 }
%"class.std::__1::__tree_end_node" = type { %"class.std::__1::__tree_node_base"* }
%"class.std::__1::__tree_node_base" = type <{ %"class.std::__1::__tree_end_node", %"class.std::__1::__tree_node_base"*, %"class.std::__1::__tree_end_node"*, i8, [7 x i8] }>
%"struct.std::__1::pair.57" = type <{ %"class.google::protobuf::Map<std::__1::basic_string<char, std::__1::char_traits<char>, std::__1::allocator<char> >, assist_ranker::ExamplePreprocessorConfig_Boundaries>::InnerMap::iterator_base.58", i8, [7 x i8] }>
%"class.google::protobuf::Map<std::__1::basic_string<char, std::__1::char_traits<char>, std::__1::allocator<char> >, assist_ranker::ExamplePreprocessorConfig_Boundaries>::InnerMap::iterator_base.58" = type { %"struct.google::protobuf::Map<std::__1::basic_string<char, std::__1::char_traits<char>, std::__1::allocator<char> >, assist_ranker::ExamplePreprocessorConfig_Boundaries>::InnerMap::Node"*, %"class.google::protobuf::Map<std::__1::basic_string<char, std::__1::char_traits<char>, std::__1::allocator<char> >, assist_ranker::ExamplePreprocessorConfig_Boundaries>::InnerMap"*, i64 }
%"struct.google::protobuf::Map<std::__1::basic_string<char, std::__1::char_traits<char>, std::__1::allocator<char> >, assist_ranker::ExamplePreprocessorConfig_Boundaries>::InnerMap::Node" = type { %"struct.google::protobuf::MapPair", %"struct.google::protobuf::Map<std::__1::basic_string<char, std::__1::char_traits<char>, std::__1::allocator<char> >, assist_ranker::ExamplePreprocessorConfig_Boundaries>::InnerMap::Node"* }
%"struct.google::protobuf::MapPair" = type { %"class.std::__1::basic_string", %"class.assist_ranker::ExamplePreprocessorConfig_Boundaries" }
%"class.google::protobuf::Map<std::__1::basic_string<char, std::__1::char_traits<char>, std::__1::allocator<char> >, assist_ranker::ExamplePreprocessorConfig_Boundaries>::const_iterator" = type { %"class.google::protobuf::Map<std::__1::basic_string<char, std::__1::char_traits<char>, std::__1::allocator<char> >, assist_ranker::ExamplePreprocessorConfig_Boundaries>::InnerMap::iterator_base" }
%"class.google::protobuf::Map<std::__1::basic_string<char, std::__1::char_traits<char>, std::__1::allocator<char> >, assist_ranker::ExamplePreprocessorConfig_Boundaries>::InnerMap::iterator_base" = type { %"struct.google::protobuf::Map<std::__1::basic_string<char, std::__1::char_traits<char>, std::__1::allocator<char> >, assist_ranker::ExamplePreprocessorConfig_Boundaries>::InnerMap::Node"*, %"class.google::protobuf::Map<std::__1::basic_string<char, std::__1::char_traits<char>, std::__1::allocator<char> >, assist_ranker::ExamplePreprocessorConfig_Boundaries>::InnerMap"*, i64 }
%"class.google::protobuf::internal::MapEntryImpl<assist_ranker::ExamplePreprocessorConfig_BucketizersEntry_DoNotUse, google::protobuf::MessageLite, std::__1::basic_string<char, std::__1::char_traits<char>, std::__1::allocator<char> >, assist_ranker::ExamplePreprocessorConfig_Boundaries, google::protobuf::internal::WireFormatLite::TYPE_STRING, google::protobuf::internal::WireFormatLite::TYPE_MESSAGE>::Parser" = type { %"class.google::protobuf::internal::MapFieldLite"*, %"class.google::protobuf::Map"*, %"class.std::__1::basic_string", %"class.assist_ranker::ExamplePreprocessorConfig_Boundaries"*, %"class.google::protobuf::internal::MapEntryImpl"* }
%"class.google::protobuf::internal::MapEntryImpl<assist_ranker::ExamplePreprocessorConfig_FeatureIndicesEntry_DoNotUse, google::protobuf::MessageLite, std::__1::basic_string<char, std::__1::char_traits<char>, std::__1::allocator<char> >, int, google::protobuf::internal::WireFormatLite::TYPE_STRING, google::protobuf::internal::WireFormatLite::TYPE_INT32>::Parser" = type { %"class.google::protobuf::internal::MapFieldLite.21"*, %"class.google::protobuf::Map.22"*, %"class.std::__1::basic_string", i32*, %"class.google::protobuf::internal::MapEntryImpl.18"* }
%"class.google::protobuf::internal::MapEntryImpl<assist_ranker::ExamplePreprocessorConfig_NormalizersEntry_DoNotUse, google::protobuf::MessageLite, std::__1::basic_string<char, std::__1::char_traits<char>, std::__1::allocator<char> >, float, google::protobuf::internal::WireFormatLite::TYPE_STRING, google::protobuf::internal::WireFormatLite::TYPE_FLOAT>::Parser" = type { %"class.google::protobuf::internal::MapFieldLite.23"*, %"class.google::protobuf::Map.24"*, %"class.std::__1::basic_string", float*, %"class.google::protobuf::internal::MapEntryImpl.20"* }
%"struct.google::protobuf::internal::CompareByDerefFirst" = type { i8 }
%"struct.google::protobuf::internal::CompareByDerefFirst.35" = type { i8 }
%"struct.google::protobuf::internal::CompareByDerefFirst.44" = type { i8 }
%"class.google::protobuf::internal::MapEntryLite" = type { %"class.google::protobuf::internal::MapEntryImpl.base", [4 x i8] }
%"class.std::__1::__tree" = type { %"class.std::__1::__tree_end_node"*, %"class.std::__1::__compressed_pair.47", %"class.std::__1::__compressed_pair.51" }
%"class.std::__1::__compressed_pair.47" = type { %"struct.std::__1::__compressed_pair_elem.48", %"struct.std::__1::__compressed_pair_elem.49" }
%"struct.std::__1::__compressed_pair_elem.48" = type { %"class.std::__1::__tree_end_node" }
%"struct.std::__1::__compressed_pair_elem.49" = type { %"class.google::protobuf::internal::MapAllocator.50" }
%"class.google::protobuf::internal::MapAllocator.50" = type { %"class.google::protobuf::Arena"* }
%"class.std::__1::__compressed_pair.51" = type { %"struct.std::__1::__compressed_pair_elem.52" }
%"struct.std::__1::__compressed_pair_elem.52" = type { i64 }
%"class.std::__1::__tree_node" = type { %"class.std::__1::__tree_node_base.base", %"struct.std::__1::__value_type" }
%"class.std::__1::__tree_node_base.base" = type <{ %"class.std::__1::__tree_end_node", %"class.std::__1::__tree_node_base"*, %"class.std::__1::__tree_end_node"*, i8 }>
%"struct.std::__1::__value_type" = type { %"struct.std::__1::pair.54" }
%"struct.std::__1::pair.54" = type { %"class.std::__1::reference_wrapper", i8* }
%"class.std::__1::reference_wrapper" = type { %"class.std::__1::basic_string"* }
%"struct.std::__1::pair.60" = type { %"class.google::protobuf::Map<std::__1::basic_string<char, std::__1::char_traits<char>, std::__1::allocator<char> >, assist_ranker::ExamplePreprocessorConfig_Boundaries>::InnerMap::iterator_base", i64 }
%"class.std::__1::__map_iterator" = type { %"class.std::__1::__tree_iterator" }
%"class.std::__1::__tree_iterator" = type { %"class.std::__1::__tree_end_node"* }
%"class.std::__1::map" = type { %"class.std::__1::__tree" }
%"struct.std::__1::__murmur2_or_cityhash" = type { i8 }
%"struct.std::__1::pair.78" = type { %"class.google::protobuf::Map<std::__1::basic_string<char, std::__1::char_traits<char>, std::__1::allocator<char> >, int>::InnerMap::iterator_base", i64 }
%"struct.std::__1::pair.83" = type { %"class.google::protobuf::Map<std::__1::basic_string<char, std::__1::char_traits<char>, std::__1::allocator<char> >, float>::InnerMap::iterator_base", i64 }
%"class.google::protobuf::Map<std::__1::basic_string<char, std::__1::char_traits<char>, std::__1::allocator<char> >, assist_ranker::ExamplePreprocessorConfig_Boundaries>::iterator" = type { %"class.google::protobuf::Map<std::__1::basic_string<char, std::__1::char_traits<char>, std::__1::allocator<char> >, assist_ranker::ExamplePreprocessorConfig_Boundaries>::InnerMap::iterator_base.58" }
%"class.google::protobuf::Map<std::__1::basic_string<char, std::__1::char_traits<char>, std::__1::allocator<char> >, int>::iterator" = type { %"class.google::protobuf::Map<std::__1::basic_string<char, std::__1::char_traits<char>, std::__1::allocator<char> >, int>::InnerMap::iterator_base.76" }
%"class.google::protobuf::Map<std::__1::basic_string<char, std::__1::char_traits<char>, std::__1::allocator<char> >, float>::iterator" = type { %"class.google::protobuf::Map<std::__1::basic_string<char, std::__1::char_traits<char>, std::__1::allocator<char> >, float>::InnerMap::iterator_base.81" }

$_ZN6google8protobuf8internal12MapEntryImplIN13assist_ranker51ExamplePreprocessorConfig_BucketizersEntry_DoNotUseENS0_11MessageLiteENSt3__112basic_stringIcNS6_11char_traitsIcEENS6_9allocatorIcEEEENS3_36ExamplePreprocessorConfig_BoundariesELNS1_14WireFormatLite9FieldTypeE9ELSF_11EE17MergeFromInternalERKSG_ = comdat any

$_ZN6google8protobuf8internal12MapEntryImplIN13assist_ranker54ExamplePreprocessorConfig_FeatureIndicesEntry_DoNotUseENS0_11MessageLiteENSt3__112basic_stringIcNS6_11char_traitsIcEENS6_9allocatorIcEEEEiLNS1_14WireFormatLite9FieldTypeE9ELSE_5EE17MergeFromInternalERKSF_ = comdat any

$_ZN6google8protobuf8internal12MapEntryImplIN13assist_ranker51ExamplePreprocessorConfig_NormalizersEntry_DoNotUseENS0_11MessageLiteENSt3__112basic_stringIcNS6_11char_traitsIcEENS6_9allocatorIcEEEEfLNS1_14WireFormatLite9FieldTypeE9ELSE_2EE17MergeFromInternalERKSF_ = comdat any

$_ZN6google8protobuf8internal12MapFieldLiteIN13assist_ranker51ExamplePreprocessorConfig_BucketizersEntry_DoNotUseENSt3__112basic_stringIcNS5_11char_traitsIcEENS5_9allocatorIcEEEENS3_36ExamplePreprocessorConfig_BoundariesELNS1_14WireFormatLite9FieldTypeE9ELSE_11EE9MergeFromERKSF_ = comdat any

$_ZN6google8protobuf8internal12ParseContext12ParseMessageINS1_12MapFieldLiteIN13assist_ranker51ExamplePreprocessorConfig_BucketizersEntry_DoNotUseENSt3__112basic_stringIcNS7_11char_traitsIcEENS7_9allocatorIcEEEENS5_36ExamplePreprocessorConfig_BoundariesELNS1_14WireFormatLite9FieldTypeE9ELSG_11EEEEEPKcPT_SJ_ = comdat any

$_ZN6google8protobuf8internal12ParseContext12ParseMessageINS1_12MapFieldLiteIN13assist_ranker54ExamplePreprocessorConfig_FeatureIndicesEntry_DoNotUseENSt3__112basic_stringIcNS7_11char_traitsIcEENS7_9allocatorIcEEEEiLNS1_14WireFormatLite9FieldTypeE9ELSF_5EEEEEPKcPT_SI_ = comdat any

$_ZN6google8protobuf8internal12ParseContext12ParseMessageINS1_12MapFieldLiteIN13assist_ranker51ExamplePreprocessorConfig_NormalizersEntry_DoNotUseENSt3__112basic_stringIcNS7_11char_traitsIcEENS7_9allocatorIcEEEEfLNS1_14WireFormatLite9FieldTypeE9ELSF_2EEEEEPKcPT_SI_ = comdat any

$_ZN6google8protobuf8internal13MapEntryFuncsINSt3__112basic_stringIcNS3_11char_traitsIcEENS3_9allocatorIcEEEEN13assist_ranker36ExamplePreprocessorConfig_BoundariesELNS1_14WireFormatLite9FieldTypeE9ELSD_11EE17InternalSerializeEiRKS9_RKSB_PhPNS0_2io19EpsCopyOutputStreamE = comdat any

$_ZN6google8protobuf8internal13MapEntryFuncsINSt3__112basic_stringIcNS3_11char_traitsIcEENS3_9allocatorIcEEEEiLNS1_14WireFormatLite9FieldTypeE9ELSB_5EE17InternalSerializeEiRKS9_RKiPhPNS0_2io19EpsCopyOutputStreamE = comdat any

$_ZN6google8protobuf8internal13MapEntryFuncsINSt3__112basic_stringIcNS3_11char_traitsIcEENS3_9allocatorIcEEEEfLNS1_14WireFormatLite9FieldTypeE9ELSB_2EE17InternalSerializeEiRKS9_RKfPhPNS0_2io19EpsCopyOutputStreamE = comdat any

$_ZNK13assist_ranker36ExamplePreprocessorConfig_Boundaries3NewEv = comdat any

$_ZNK13assist_ranker36ExamplePreprocessorConfig_Boundaries3NewEPN6google8protobuf5ArenaE = comdat any

$_ZNK13assist_ranker36ExamplePreprocessorConfig_Boundaries13GetCachedSizeEv = comdat any

$_ZNK6google8protobuf11MessageLite16InternalGetTableEv = comdat any

$_ZNK13assist_ranker25ExamplePreprocessorConfig3NewEv = comdat any

$_ZNK13assist_ranker25ExamplePreprocessorConfig3NewEPN6google8protobuf5ArenaE = comdat any

$_ZNK13assist_ranker25ExamplePreprocessorConfig13GetCachedSizeEv = comdat any

$_ZN6google8protobuf8internal12MapEntryLiteIN13assist_ranker51ExamplePreprocessorConfig_BucketizersEntry_DoNotUseENSt3__112basic_stringIcNS5_11char_traitsIcEENS5_9allocatorIcEEEENS3_36ExamplePreprocessorConfig_BoundariesELNS1_14WireFormatLite9FieldTypeE9ELSE_11EED2Ev = comdat any

$_ZN13assist_ranker51ExamplePreprocessorConfig_BucketizersEntry_DoNotUseD0Ev = comdat any

$_ZNK6google8protobuf8internal12MapEntryImplIN13assist_ranker51ExamplePreprocessorConfig_BucketizersEntry_DoNotUseENS0_11MessageLiteENSt3__112basic_stringIcNS6_11char_traitsIcEENS6_9allocatorIcEEEENS3_36ExamplePreprocessorConfig_BoundariesELNS1_14WireFormatLite9FieldTypeE9ELSF_11EE11GetTypeNameEv = comdat any

$_ZNK6google8protobuf8internal12MapEntryImplIN13assist_ranker51ExamplePreprocessorConfig_BucketizersEntry_DoNotUseENS0_11MessageLiteENSt3__112basic_stringIcNS6_11char_traitsIcEENS6_9allocatorIcEEEENS3_36ExamplePreprocessorConfig_BoundariesELNS1_14WireFormatLite9FieldTypeE9ELSF_11EE3NewEv = comdat any

$_ZNK6google8protobuf8internal12MapEntryImplIN13assist_ranker51ExamplePreprocessorConfig_BucketizersEntry_DoNotUseENS0_11MessageLiteENSt3__112basic_stringIcNS6_11char_traitsIcEENS6_9allocatorIcEEEENS3_36ExamplePreprocessorConfig_BoundariesELNS1_14WireFormatLite9FieldTypeE9ELSF_11EE3NewEPNS0_5ArenaE = comdat any

$_ZN6google8protobuf8internal12MapEntryImplIN13assist_ranker51ExamplePreprocessorConfig_BucketizersEntry_DoNotUseENS0_11MessageLiteENSt3__112basic_stringIcNS6_11char_traitsIcEENS6_9allocatorIcEEEENS3_36ExamplePreprocessorConfig_BoundariesELNS1_14WireFormatLite9FieldTypeE9ELSF_11EE5ClearEv = comdat any

$_ZNK6google8protobuf8internal12MapEntryImplIN13assist_ranker51ExamplePreprocessorConfig_BucketizersEntry_DoNotUseENS0_11MessageLiteENSt3__112basic_stringIcNS6_11char_traitsIcEENS6_9allocatorIcEEEENS3_36ExamplePreprocessorConfig_BoundariesELNS1_14WireFormatLite9FieldTypeE9ELSF_11EE13IsInitializedEv = comdat any

$_ZN6google8protobuf8internal12MapEntryImplIN13assist_ranker51ExamplePreprocessorConfig_BucketizersEntry_DoNotUseENS0_11MessageLiteENSt3__112basic_stringIcNS6_11char_traitsIcEENS6_9allocatorIcEEEENS3_36ExamplePreprocessorConfig_BoundariesELNS1_14WireFormatLite9FieldTypeE9ELSF_11EE21CheckTypeAndMergeFromERKS5_ = comdat any

$_ZNK6google8protobuf8internal12MapEntryImplIN13assist_ranker51ExamplePreprocessorConfig_BucketizersEntry_DoNotUseENS0_11MessageLiteENSt3__112basic_stringIcNS6_11char_traitsIcEENS6_9allocatorIcEEEENS3_36ExamplePreprocessorConfig_BoundariesELNS1_14WireFormatLite9FieldTypeE9ELSF_11EE12ByteSizeLongEv = comdat any

$_ZNK6google8protobuf8internal12MapEntryImplIN13assist_ranker51ExamplePreprocessorConfig_BucketizersEntry_DoNotUseENS0_11MessageLiteENSt3__112basic_stringIcNS6_11char_traitsIcEENS6_9allocatorIcEEEENS3_36ExamplePreprocessorConfig_BoundariesELNS1_14WireFormatLite9FieldTypeE9ELSF_11EE13GetCachedSizeEv = comdat any

$_ZN6google8protobuf8internal12MapEntryImplIN13assist_ranker51ExamplePreprocessorConfig_BucketizersEntry_DoNotUseENS0_11MessageLiteENSt3__112basic_stringIcNS6_11char_traitsIcEENS6_9allocatorIcEEEENS3_36ExamplePreprocessorConfig_BoundariesELNS1_14WireFormatLite9FieldTypeE9ELSF_11EE14_InternalParseEPKcPNS1_12ParseContextE = comdat any

$_ZNK6google8protobuf8internal12MapEntryImplIN13assist_ranker51ExamplePreprocessorConfig_BucketizersEntry_DoNotUseENS0_11MessageLiteENSt3__112basic_stringIcNS6_11char_traitsIcEENS6_9allocatorIcEEEENS3_36ExamplePreprocessorConfig_BoundariesELNS1_14WireFormatLite9FieldTypeE9ELSF_11EE18_InternalSerializeEPhPNS0_2io19EpsCopyOutputStreamE = comdat any

$_ZNK6google8protobuf8internal12MapEntryImplIN13assist_ranker51ExamplePreprocessorConfig_BucketizersEntry_DoNotUseENS0_11MessageLiteENSt3__112basic_stringIcNS6_11char_traitsIcEENS6_9allocatorIcEEEENS3_36ExamplePreprocessorConfig_BoundariesELNS1_14WireFormatLite9FieldTypeE9ELSF_11EE3keyEv = comdat any

$_ZNK6google8protobuf8internal12MapEntryImplIN13assist_ranker51ExamplePreprocessorConfig_BucketizersEntry_DoNotUseENS0_11MessageLiteENSt3__112basic_stringIcNS6_11char_traitsIcEENS6_9allocatorIcEEEENS3_36ExamplePreprocessorConfig_BoundariesELNS1_14WireFormatLite9FieldTypeE9ELSF_11EE5valueEv = comdat any

$_ZN13assist_ranker54ExamplePreprocessorConfig_FeatureIndicesEntry_DoNotUseD0Ev = comdat any

$_ZNK6google8protobuf8internal12MapEntryImplIN13assist_ranker54ExamplePreprocessorConfig_FeatureIndicesEntry_DoNotUseENS0_11MessageLiteENSt3__112basic_stringIcNS6_11char_traitsIcEENS6_9allocatorIcEEEEiLNS1_14WireFormatLite9FieldTypeE9ELSE_5EE11GetTypeNameEv = comdat any

$_ZNK6google8protobuf8internal12MapEntryImplIN13assist_ranker54ExamplePreprocessorConfig_FeatureIndicesEntry_DoNotUseENS0_11MessageLiteENSt3__112basic_stringIcNS6_11char_traitsIcEENS6_9allocatorIcEEEEiLNS1_14WireFormatLite9FieldTypeE9ELSE_5EE3NewEv = comdat any

$_ZNK6google8protobuf8internal12MapEntryImplIN13assist_ranker54ExamplePreprocessorConfig_FeatureIndicesEntry_DoNotUseENS0_11MessageLiteENSt3__112basic_stringIcNS6_11char_traitsIcEENS6_9allocatorIcEEEEiLNS1_14WireFormatLite9FieldTypeE9ELSE_5EE3NewEPNS0_5ArenaE = comdat any

$_ZN6google8protobuf8internal12MapEntryImplIN13assist_ranker54ExamplePreprocessorConfig_FeatureIndicesEntry_DoNotUseENS0_11MessageLiteENSt3__112basic_stringIcNS6_11char_traitsIcEENS6_9allocatorIcEEEEiLNS1_14WireFormatLite9FieldTypeE9ELSE_5EE5ClearEv = comdat any

$_ZNK6google8protobuf8internal12MapEntryImplIN13assist_ranker54ExamplePreprocessorConfig_FeatureIndicesEntry_DoNotUseENS0_11MessageLiteENSt3__112basic_stringIcNS6_11char_traitsIcEENS6_9allocatorIcEEEEiLNS1_14WireFormatLite9FieldTypeE9ELSE_5EE13IsInitializedEv = comdat any

$_ZN6google8protobuf8internal12MapEntryImplIN13assist_ranker54ExamplePreprocessorConfig_FeatureIndicesEntry_DoNotUseENS0_11MessageLiteENSt3__112basic_stringIcNS6_11char_traitsIcEENS6_9allocatorIcEEEEiLNS1_14WireFormatLite9FieldTypeE9ELSE_5EE21CheckTypeAndMergeFromERKS5_ = comdat any

$_ZNK6google8protobuf8internal12MapEntryImplIN13assist_ranker54ExamplePreprocessorConfig_FeatureIndicesEntry_DoNotUseENS0_11MessageLiteENSt3__112basic_stringIcNS6_11char_traitsIcEENS6_9allocatorIcEEEEiLNS1_14WireFormatLite9FieldTypeE9ELSE_5EE12ByteSizeLongEv = comdat any

$_ZNK6google8protobuf8internal12MapEntryImplIN13assist_ranker54ExamplePreprocessorConfig_FeatureIndicesEntry_DoNotUseENS0_11MessageLiteENSt3__112basic_stringIcNS6_11char_traitsIcEENS6_9allocatorIcEEEEiLNS1_14WireFormatLite9FieldTypeE9ELSE_5EE13GetCachedSizeEv = comdat any

$_ZN6google8protobuf8internal12MapEntryImplIN13assist_ranker54ExamplePreprocessorConfig_FeatureIndicesEntry_DoNotUseENS0_11MessageLiteENSt3__112basic_stringIcNS6_11char_traitsIcEENS6_9allocatorIcEEEEiLNS1_14WireFormatLite9FieldTypeE9ELSE_5EE14_InternalParseEPKcPNS1_12ParseContextE = comdat any

$_ZNK6google8protobuf8internal12MapEntryImplIN13assist_ranker54ExamplePreprocessorConfig_FeatureIndicesEntry_DoNotUseENS0_11MessageLiteENSt3__112basic_stringIcNS6_11char_traitsIcEENS6_9allocatorIcEEEEiLNS1_14WireFormatLite9FieldTypeE9ELSE_5EE18_InternalSerializeEPhPNS0_2io19EpsCopyOutputStreamE = comdat any

$_ZNK6google8protobuf8internal12MapEntryImplIN13assist_ranker54ExamplePreprocessorConfig_FeatureIndicesEntry_DoNotUseENS0_11MessageLiteENSt3__112basic_stringIcNS6_11char_traitsIcEENS6_9allocatorIcEEEEiLNS1_14WireFormatLite9FieldTypeE9ELSE_5EE3keyEv = comdat any

$_ZNK6google8protobuf8internal12MapEntryImplIN13assist_ranker54ExamplePreprocessorConfig_FeatureIndicesEntry_DoNotUseENS0_11MessageLiteENSt3__112basic_stringIcNS6_11char_traitsIcEENS6_9allocatorIcEEEEiLNS1_14WireFormatLite9FieldTypeE9ELSE_5EE5valueEv = comdat any

$_ZN6google8protobuf8internal12MapEntryLiteIN13assist_ranker51ExamplePreprocessorConfig_NormalizersEntry_DoNotUseENSt3__112basic_stringIcNS5_11char_traitsIcEENS5_9allocatorIcEEEEfLNS1_14WireFormatLite9FieldTypeE9ELSD_2EED2Ev = comdat any

$_ZN13assist_ranker51ExamplePreprocessorConfig_NormalizersEntry_DoNotUseD0Ev = comdat any

$_ZNK6google8protobuf8internal12MapEntryImplIN13assist_ranker51ExamplePreprocessorConfig_NormalizersEntry_DoNotUseENS0_11MessageLiteENSt3__112basic_stringIcNS6_11char_traitsIcEENS6_9allocatorIcEEEEfLNS1_14WireFormatLite9FieldTypeE9ELSE_2EE11GetTypeNameEv = comdat any

$_ZNK6google8protobuf8internal12MapEntryImplIN13assist_ranker51ExamplePreprocessorConfig_NormalizersEntry_DoNotUseENS0_11MessageLiteENSt3__112basic_stringIcNS6_11char_traitsIcEENS6_9allocatorIcEEEEfLNS1_14WireFormatLite9FieldTypeE9ELSE_2EE3NewEv = comdat any

$_ZNK6google8protobuf8internal12MapEntryImplIN13assist_ranker51ExamplePreprocessorConfig_NormalizersEntry_DoNotUseENS0_11MessageLiteENSt3__112basic_stringIcNS6_11char_traitsIcEENS6_9allocatorIcEEEEfLNS1_14WireFormatLite9FieldTypeE9ELSE_2EE3NewEPNS0_5ArenaE = comdat any

$_ZN6google8protobuf8internal12MapEntryImplIN13assist_ranker51ExamplePreprocessorConfig_NormalizersEntry_DoNotUseENS0_11MessageLiteENSt3__112basic_stringIcNS6_11char_traitsIcEENS6_9allocatorIcEEEEfLNS1_14WireFormatLite9FieldTypeE9ELSE_2EE5ClearEv = comdat any

$_ZNK6google8protobuf8internal12MapEntryImplIN13assist_ranker51ExamplePreprocessorConfig_NormalizersEntry_DoNotUseENS0_11MessageLiteENSt3__112basic_stringIcNS6_11char_traitsIcEENS6_9allocatorIcEEEEfLNS1_14WireFormatLite9FieldTypeE9ELSE_2EE13IsInitializedEv = comdat any

$_ZN6google8protobuf8internal12MapEntryImplIN13assist_ranker51ExamplePreprocessorConfig_NormalizersEntry_DoNotUseENS0_11MessageLiteENSt3__112basic_stringIcNS6_11char_traitsIcEENS6_9allocatorIcEEEEfLNS1_14WireFormatLite9FieldTypeE9ELSE_2EE21CheckTypeAndMergeFromERKS5_ = comdat any

$_ZNK6google8protobuf8internal12MapEntryImplIN13assist_ranker51ExamplePreprocessorConfig_NormalizersEntry_DoNotUseENS0_11MessageLiteENSt3__112basic_stringIcNS6_11char_traitsIcEENS6_9allocatorIcEEEEfLNS1_14WireFormatLite9FieldTypeE9ELSE_2EE12ByteSizeLongEv = comdat any

$_ZNK6google8protobuf8internal12MapEntryImplIN13assist_ranker51ExamplePreprocessorConfig_NormalizersEntry_DoNotUseENS0_11MessageLiteENSt3__112basic_stringIcNS6_11char_traitsIcEENS6_9allocatorIcEEEEfLNS1_14WireFormatLite9FieldTypeE9ELSE_2EE13GetCachedSizeEv = comdat any

$_ZN6google8protobuf8internal12MapEntryImplIN13assist_ranker51ExamplePreprocessorConfig_NormalizersEntry_DoNotUseENS0_11MessageLiteENSt3__112basic_stringIcNS6_11char_traitsIcEENS6_9allocatorIcEEEEfLNS1_14WireFormatLite9FieldTypeE9ELSE_2EE14_InternalParseEPKcPNS1_12ParseContextE = comdat any

$_ZNK6google8protobuf8internal12MapEntryImplIN13assist_ranker51ExamplePreprocessorConfig_NormalizersEntry_DoNotUseENS0_11MessageLiteENSt3__112basic_stringIcNS6_11char_traitsIcEENS6_9allocatorIcEEEEfLNS1_14WireFormatLite9FieldTypeE9ELSE_2EE18_InternalSerializeEPhPNS0_2io19EpsCopyOutputStreamE = comdat any

$_ZNK6google8protobuf8internal12MapEntryImplIN13assist_ranker51ExamplePreprocessorConfig_NormalizersEntry_DoNotUseENS0_11MessageLiteENSt3__112basic_stringIcNS6_11char_traitsIcEENS6_9allocatorIcEEEEfLNS1_14WireFormatLite9FieldTypeE9ELSE_2EE3keyEv = comdat any

$_ZNK6google8protobuf8internal12MapEntryImplIN13assist_ranker51ExamplePreprocessorConfig_NormalizersEntry_DoNotUseENS0_11MessageLiteENSt3__112basic_stringIcNS6_11char_traitsIcEENS6_9allocatorIcEEEEfLNS1_14WireFormatLite9FieldTypeE9ELSE_2EE5valueEv = comdat any

$_ZN6google8protobuf3MapINSt3__112basic_stringIcNS2_11char_traitsIcEENS2_9allocatorIcEEEEfE8InnerMap5clearEv = comdat any

$_ZNSt3__113__tree_removeIPNS_16__tree_node_baseIPvEEEEvT_S5_ = comdat any

$_ZNSt3__16__treeINS_12__value_typeINS_17reference_wrapperIKNS_12basic_stringIcNS_11char_traitsIcEENS_9allocatorIcEEEEEEPvEENS_19__map_value_compareISA_SC_NS_4lessIS8_EELb1EEEN6google8protobuf8internal12MapAllocatorISC_EEE7destroyEPNS_11__tree_nodeISC_SB_EE = comdat any

$_ZN6google8protobuf3MapINSt3__112basic_stringIcNS2_11char_traitsIcEENS2_9allocatorIcEEEEiE8InnerMap5clearEv = comdat any

$_ZN6google8protobuf3MapINSt3__112basic_stringIcNS2_11char_traitsIcEENS2_9allocatorIcEEEEN13assist_ranker36ExamplePreprocessorConfig_BoundariesEE8InnerMap5clearEv = comdat any

$_ZN6google8protobuf8internal21arena_destruct_objectINSt3__112basic_stringIcNS3_11char_traitsIcEENS3_9allocatorIcEEEEEEvPv = comdat any

$_ZN6google8protobuf8internal16InternalMetadata27mutable_unknown_fields_slowINSt3__112basic_stringIcNS4_11char_traitsIcEENS4_9allocatorIcEEEEEEPT_v = comdat any

$_ZN6google8protobuf8internal21arena_destruct_objectINS1_16InternalMetadata9ContainerINSt3__112basic_stringIcNS5_11char_traitsIcEENS5_9allocatorIcEEEEEEEEvPv = comdat any

$_ZN6google8protobuf8internal12MapEntryLiteIN13assist_ranker51ExamplePreprocessorConfig_BucketizersEntry_DoNotUseENSt3__112basic_stringIcNS5_11char_traitsIcEENS5_9allocatorIcEEEENS3_36ExamplePreprocessorConfig_BoundariesELNS1_14WireFormatLite9FieldTypeE9ELSE_11EED0Ev = comdat any

$_ZN6google8protobuf8internal12MapEntryImplIN13assist_ranker51ExamplePreprocessorConfig_BucketizersEntry_DoNotUseENS0_11MessageLiteENSt3__112basic_stringIcNS6_11char_traitsIcEENS6_9allocatorIcEEEENS3_36ExamplePreprocessorConfig_BoundariesELNS1_14WireFormatLite9FieldTypeE9ELSF_11EED2Ev = comdat any

$_ZN6google8protobuf8internal12MapEntryImplIN13assist_ranker51ExamplePreprocessorConfig_BucketizersEntry_DoNotUseENS0_11MessageLiteENSt3__112basic_stringIcNS6_11char_traitsIcEENS6_9allocatorIcEEEENS3_36ExamplePreprocessorConfig_BoundariesELNS1_14WireFormatLite9FieldTypeE9ELSF_11EED0Ev = comdat any

$_ZN6google8protobuf8internal14ArenaStringPtr14CreateInstanceEPNS0_5ArenaEPKNSt3__112basic_stringIcNS5_11char_traitsIcEENS5_9allocatorIcEEEE = comdat any

$_ZN6google8protobuf8internal12MapEntryLiteIN13assist_ranker54ExamplePreprocessorConfig_FeatureIndicesEntry_DoNotUseENSt3__112basic_stringIcNS5_11char_traitsIcEENS5_9allocatorIcEEEEiLNS1_14WireFormatLite9FieldTypeE9ELSD_5EED2Ev = comdat any

$_ZN6google8protobuf8internal12MapEntryLiteIN13assist_ranker54ExamplePreprocessorConfig_FeatureIndicesEntry_DoNotUseENSt3__112basic_stringIcNS5_11char_traitsIcEENS5_9allocatorIcEEEEiLNS1_14WireFormatLite9FieldTypeE9ELSD_5EED0Ev = comdat any

$_ZN6google8protobuf8internal12MapEntryImplIN13assist_ranker54ExamplePreprocessorConfig_FeatureIndicesEntry_DoNotUseENS0_11MessageLiteENSt3__112basic_stringIcNS6_11char_traitsIcEENS6_9allocatorIcEEEEiLNS1_14WireFormatLite9FieldTypeE9ELSE_5EED2Ev = comdat any

$_ZN6google8protobuf8internal12MapEntryImplIN13assist_ranker54ExamplePreprocessorConfig_FeatureIndicesEntry_DoNotUseENS0_11MessageLiteENSt3__112basic_stringIcNS6_11char_traitsIcEENS6_9allocatorIcEEEEiLNS1_14WireFormatLite9FieldTypeE9ELSE_5EED0Ev = comdat any

$_ZN6google8protobuf8internal12MapEntryLiteIN13assist_ranker51ExamplePreprocessorConfig_NormalizersEntry_DoNotUseENSt3__112basic_stringIcNS5_11char_traitsIcEENS5_9allocatorIcEEEEfLNS1_14WireFormatLite9FieldTypeE9ELSD_2EED0Ev = comdat any

$_ZN6google8protobuf8internal12MapEntryImplIN13assist_ranker51ExamplePreprocessorConfig_NormalizersEntry_DoNotUseENS0_11MessageLiteENSt3__112basic_stringIcNS6_11char_traitsIcEENS6_9allocatorIcEEEEfLNS1_14WireFormatLite9FieldTypeE9ELSE_2EED2Ev = comdat any

$_ZN6google8protobuf8internal12MapEntryImplIN13assist_ranker51ExamplePreprocessorConfig_NormalizersEntry_DoNotUseENS0_11MessageLiteENSt3__112basic_stringIcNS6_11char_traitsIcEENS6_9allocatorIcEEEEfLNS1_14WireFormatLite9FieldTypeE9ELSE_2EED0Ev = comdat any

$_ZN6google8protobuf8internal20RepeatedPtrFieldBase9MergeFromINS0_16RepeatedPtrFieldINSt3__112basic_stringIcNS5_11char_traitsIcEENS5_9allocatorIcEEEEE11TypeHandlerEEEvRKS2_ = comdat any

$_ZN6google8protobuf3MapINSt3__112basic_stringIcNS2_11char_traitsIcEENS2_9allocatorIcEEEEN13assist_ranker36ExamplePreprocessorConfig_BoundariesEE8InnerMap6insertERKS8_ = comdat any

$_ZN6google8protobuf3MapINSt3__112basic_stringIcNS2_11char_traitsIcEENS2_9allocatorIcEEEEN13assist_ranker36ExamplePreprocessorConfig_BoundariesEE8InnerMap12InsertUniqueEmPNSC_4NodeE = comdat any

$_ZNK6google8protobuf3MapINSt3__112basic_stringIcNS2_11char_traitsIcEENS2_9allocatorIcEEEEN13assist_ranker36ExamplePreprocessorConfig_BoundariesEE8InnerMap10FindHelperIS8_EENS2_4pairINSC_13iterator_baseIKNS0_7MapPairIS8_SA_EEEEmEERKT_PNS2_14__map_iteratorINS2_15__tree_iteratorINS2_12__value_typeINS2_17reference_wrapperIKS8_EEPvEEPNS2_11__tree_nodeISV_SU_EElEEEE = comdat any

$_ZNSt3__121__murmur2_or_cityhashImLm64EEclEPKvm = comdat any

$_ZNSt3__121__murmur2_or_cityhashImLm64EE18__hash_len_0_to_16EPKcm = comdat any

$_ZNSt3__16__treeINS_12__value_typeINS_17reference_wrapperIKNS_12basic_stringIcNS_11char_traitsIcEENS_9allocatorIcEEEEEEPvEENS_19__map_value_compareISA_SC_NS_4lessIS8_EELb1EEEN6google8protobuf8internal12MapAllocatorISC_EEE4findISA_EENS_15__tree_iteratorISC_PNS_11__tree_nodeISC_SB_EElEERKT_ = comdat any

$_ZN6google8protobuf3MapINSt3__112basic_stringIcNS2_11char_traitsIcEENS2_9allocatorIcEEEEN13assist_ranker36ExamplePreprocessorConfig_BoundariesEE8InnerMap6ResizeEm = comdat any

$_ZN6google8protobuf3MapINSt3__112basic_stringIcNS2_11char_traitsIcEENS2_9allocatorIcEEEEN13assist_ranker36ExamplePreprocessorConfig_BoundariesEE8InnerMap12TransferTreeEPKPvm = comdat any

$_ZN6google8protobuf5Arena13OwnDestructorINSt3__112basic_stringIcNS3_11char_traitsIcEENS3_9allocatorIcEEEEEEvPT_ = comdat any

$_ZN6google8protobuf3MapINSt3__112basic_stringIcNS2_11char_traitsIcEENS2_9allocatorIcEEEEN13assist_ranker36ExamplePreprocessorConfig_BoundariesEE8InnerMap11TreeConvertEm = comdat any

$_ZN6google8protobuf8internal21arena_destruct_objectINSt3__13mapINS3_17reference_wrapperIKNS3_12basic_stringIcNS3_11char_traitsIcEENS3_9allocatorIcEEEEEEPvNS3_4lessISB_EENS1_12MapAllocatorINS3_4pairIKSD_SE_EEEEEEEEvSE_ = comdat any

$_ZNSt3__16__treeINS_12__value_typeINS_17reference_wrapperIKNS_12basic_stringIcNS_11char_traitsIcEENS_9allocatorIcEEEEEEPvEENS_19__map_value_compareISA_SC_NS_4lessIS8_EELb1EEEN6google8protobuf8internal12MapAllocatorISC_EEE25__emplace_unique_key_argsISA_JNS_4pairIKSA_SB_EEEEENSO_INS_15__tree_iteratorISC_PNS_11__tree_nodeISC_SB_EElEEbEERKT_DpOT0_ = comdat any

$_ZNSt3__16__treeINS_12__value_typeINS_17reference_wrapperIKNS_12basic_stringIcNS_11char_traitsIcEENS_9allocatorIcEEEEEEPvEENS_19__map_value_compareISA_SC_NS_4lessIS8_EELb1EEEN6google8protobuf8internal12MapAllocatorISC_EEE12__find_equalISA_EERPNS_16__tree_node_baseISB_EERPNS_15__tree_end_nodeISQ_EERKT_ = comdat any

$_ZNSt3__127__tree_balance_after_insertIPNS_16__tree_node_baseIPvEEEEvT_S5_ = comdat any

$_ZN6google8protobuf3MapINSt3__112basic_stringIcNS2_11char_traitsIcEENS2_9allocatorIcEEEEiE8InnerMap6insertERKS8_ = comdat any

$_ZN6google8protobuf3MapINSt3__112basic_stringIcNS2_11char_traitsIcEENS2_9allocatorIcEEEEiE8InnerMap12InsertUniqueEmPNSA_4NodeE = comdat any

$_ZNK6google8protobuf3MapINSt3__112basic_stringIcNS2_11char_traitsIcEENS2_9allocatorIcEEEEiE8InnerMap10FindHelperIS8_EENS2_4pairINSA_13iterator_baseIKNS0_7MapPairIS8_iEEEEmEERKT_PNS2_14__map_iteratorINS2_15__tree_iteratorINS2_12__value_typeINS2_17reference_wrapperIKS8_EEPvEEPNS2_11__tree_nodeIST_SS_EElEEEE = comdat any

$_ZN6google8protobuf3MapINSt3__112basic_stringIcNS2_11char_traitsIcEENS2_9allocatorIcEEEEiE8InnerMap6ResizeEm = comdat any

$_ZN6google8protobuf3MapINSt3__112basic_stringIcNS2_11char_traitsIcEENS2_9allocatorIcEEEEiE8InnerMap12TransferTreeEPKPvm = comdat any

$_ZN6google8protobuf3MapINSt3__112basic_stringIcNS2_11char_traitsIcEENS2_9allocatorIcEEEEiE8InnerMap11TreeConvertEm = comdat any

$_ZN6google8protobuf3MapINSt3__112basic_stringIcNS2_11char_traitsIcEENS2_9allocatorIcEEEEfE8InnerMap6insertERKS8_ = comdat any

$_ZN6google8protobuf3MapINSt3__112basic_stringIcNS2_11char_traitsIcEENS2_9allocatorIcEEEEfE8InnerMap12InsertUniqueEmPNSA_4NodeE = comdat any

$_ZNK6google8protobuf3MapINSt3__112basic_stringIcNS2_11char_traitsIcEENS2_9allocatorIcEEEEfE8InnerMap10FindHelperIS8_EENS2_4pairINSA_13iterator_baseIKNS0_7MapPairIS8_fEEEEmEERKT_PNS2_14__map_iteratorINS2_15__tree_iteratorINS2_12__value_typeINS2_17reference_wrapperIKS8_EEPvEEPNS2_11__tree_nodeIST_SS_EElEEEE = comdat any

$_ZN6google8protobuf3MapINSt3__112basic_stringIcNS2_11char_traitsIcEENS2_9allocatorIcEEEEfE8InnerMap6ResizeEm = comdat any

$_ZN6google8protobuf3MapINSt3__112basic_stringIcNS2_11char_traitsIcEENS2_9allocatorIcEEEEfE8InnerMap12TransferTreeEPKPvm = comdat any

$_ZN6google8protobuf3MapINSt3__112basic_stringIcNS2_11char_traitsIcEENS2_9allocatorIcEEEEfE8InnerMap11TreeConvertEm = comdat any

$_ZN6google8protobuf8internal12MapEntryImplIN13assist_ranker51ExamplePreprocessorConfig_BucketizersEntry_DoNotUseENS0_11MessageLiteENSt3__112basic_stringIcNS6_11char_traitsIcEENS6_9allocatorIcEEEENS3_36ExamplePreprocessorConfig_BoundariesELNS1_14WireFormatLite9FieldTypeE9ELSF_11EE6ParserINS1_12MapFieldLiteIS4_SC_SD_LSF_9ELSF_11EEENS0_3MapISC_SD_EEE14_InternalParseEPKcPNS1_12ParseContextE = comdat any

$_ZN6google8protobuf8internal12MapEntryImplIN13assist_ranker51ExamplePreprocessorConfig_BucketizersEntry_DoNotUseENS0_11MessageLiteENSt3__112basic_stringIcNS6_11char_traitsIcEENS6_9allocatorIcEEEENS3_36ExamplePreprocessorConfig_BoundariesELNS1_14WireFormatLite9FieldTypeE9ELSF_11EE6ParserINS1_12MapFieldLiteIS4_SC_SD_LSF_9ELSF_11EEENS0_3MapISC_SD_EEE23UseKeyAndValueFromEntryEv = comdat any

$_ZN6google8protobuf8internal12ParseContext12ParseMessageIN13assist_ranker36ExamplePreprocessorConfig_BoundariesEEEPKcPT_S7_ = comdat any

$_ZN6google8protobuf3MapINSt3__112basic_stringIcNS2_11char_traitsIcEENS2_9allocatorIcEEEEN13assist_ranker36ExamplePreprocessorConfig_BoundariesEE8InnerMap5eraseENSC_13iterator_baseINS0_7MapPairIS8_SA_EEEE = comdat any

$_ZN6google8protobuf3MapINSt3__112basic_stringIcNS2_11char_traitsIcEENS2_9allocatorIcEEEEN13assist_ranker36ExamplePreprocessorConfig_BoundariesEE8InnerMap13iterator_baseINS0_7MapPairIS8_SA_EEEppEv = comdat any

$_ZN6google8protobuf3MapINSt3__112basic_stringIcNS2_11char_traitsIcEENS2_9allocatorIcEEEEN13assist_ranker36ExamplePreprocessorConfig_BoundariesEE8InnerMap19EraseFromLinkedListEPNSC_4NodeESE_ = comdat any

$_ZN13assist_ranker36ExamplePreprocessorConfig_Boundaries4SwapEPS0_ = comdat any

$_ZN6google8protobuf8internal12MapEntryImplIN13assist_ranker54ExamplePreprocessorConfig_FeatureIndicesEntry_DoNotUseENS0_11MessageLiteENSt3__112basic_stringIcNS6_11char_traitsIcEENS6_9allocatorIcEEEEiLNS1_14WireFormatLite9FieldTypeE9ELSE_5EE6ParserINS1_12MapFieldLiteIS4_SC_iLSE_9ELSE_5EEENS0_3MapISC_iEEE14_InternalParseEPKcPNS1_12ParseContextE = comdat any

$_ZN6google8protobuf8internal12MapEntryImplIN13assist_ranker54ExamplePreprocessorConfig_FeatureIndicesEntry_DoNotUseENS0_11MessageLiteENSt3__112basic_stringIcNS6_11char_traitsIcEENS6_9allocatorIcEEEEiLNS1_14WireFormatLite9FieldTypeE9ELSE_5EE6ParserINS1_12MapFieldLiteIS4_SC_iLSE_9ELSE_5EEENS0_3MapISC_iEEE23UseKeyAndValueFromEntryEv = comdat any

$_ZN6google8protobuf3MapINSt3__112basic_stringIcNS2_11char_traitsIcEENS2_9allocatorIcEEEEiE8InnerMap5eraseENSA_13iterator_baseINS0_7MapPairIS8_iEEEE = comdat any

$_ZN6google8protobuf3MapINSt3__112basic_stringIcNS2_11char_traitsIcEENS2_9allocatorIcEEEEiE8InnerMap13iterator_baseINS0_7MapPairIS8_iEEEppEv = comdat any

$_ZN6google8protobuf3MapINSt3__112basic_stringIcNS2_11char_traitsIcEENS2_9allocatorIcEEEEiE8InnerMap19EraseFromLinkedListEPNSA_4NodeESC_ = comdat any

$_ZN6google8protobuf8internal12MapEntryImplIN13assist_ranker51ExamplePreprocessorConfig_NormalizersEntry_DoNotUseENS0_11MessageLiteENSt3__112basic_stringIcNS6_11char_traitsIcEENS6_9allocatorIcEEEEfLNS1_14WireFormatLite9FieldTypeE9ELSE_2EE6ParserINS1_12MapFieldLiteIS4_SC_fLSE_9ELSE_2EEENS0_3MapISC_fEEE14_InternalParseEPKcPNS1_12ParseContextE = comdat any

$_ZN6google8protobuf8internal12MapEntryImplIN13assist_ranker51ExamplePreprocessorConfig_NormalizersEntry_DoNotUseENS0_11MessageLiteENSt3__112basic_stringIcNS6_11char_traitsIcEENS6_9allocatorIcEEEEfLNS1_14WireFormatLite9FieldTypeE9ELSE_2EE6ParserINS1_12MapFieldLiteIS4_SC_fLSE_9ELSE_2EEENS0_3MapISC_fEEE23UseKeyAndValueFromEntryEv = comdat any

$_ZN6google8protobuf3MapINSt3__112basic_stringIcNS2_11char_traitsIcEENS2_9allocatorIcEEEEfE8InnerMap5eraseENSA_13iterator_baseINS0_7MapPairIS8_fEEEE = comdat any

$_ZN6google8protobuf3MapINSt3__112basic_stringIcNS2_11char_traitsIcEENS2_9allocatorIcEEEEfE8InnerMap13iterator_baseINS0_7MapPairIS8_fEEEppEv = comdat any

$_ZN6google8protobuf3MapINSt3__112basic_stringIcNS2_11char_traitsIcEENS2_9allocatorIcEEEEfE8InnerMap19EraseFromLinkedListEPNSA_4NodeESC_ = comdat any

$_ZN6google8protobuf3MapINSt3__112basic_stringIcNS2_11char_traitsIcEENS2_9allocatorIcEEEEN13assist_ranker36ExamplePreprocessorConfig_BoundariesEE8InnerMap13iterator_baseIKNS0_7MapPairIS8_SA_EEEppEv = comdat any

$_ZNSt3__16__sortIRN6google8protobuf8internal19CompareByDerefFirstIPKNS2_7MapPairINS_12basic_stringIcNS_11char_traitsIcEENS_9allocatorIcEEEEN13assist_ranker36ExamplePreprocessorConfig_BoundariesEEEEEPSG_EEvT0_SK_T_ = comdat any

$_ZNSt3__17__sort3IRN6google8protobuf8internal19CompareByDerefFirstIPKNS2_7MapPairINS_12basic_stringIcNS_11char_traitsIcEENS_9allocatorIcEEEEN13assist_ranker36ExamplePreprocessorConfig_BoundariesEEEEEPSG_EEjT0_SK_SK_T_ = comdat any

$_ZNSt3__17__sort4IRN6google8protobuf8internal19CompareByDerefFirstIPKNS2_7MapPairINS_12basic_stringIcNS_11char_traitsIcEENS_9allocatorIcEEEEN13assist_ranker36ExamplePreprocessorConfig_BoundariesEEEEEPSG_EEjT0_SK_SK_SK_T_ = comdat any

$_ZNSt3__17__sort5IRN6google8protobuf8internal19CompareByDerefFirstIPKNS2_7MapPairINS_12basic_stringIcNS_11char_traitsIcEENS_9allocatorIcEEEEN13assist_ranker36ExamplePreprocessorConfig_BoundariesEEEEEPSG_EEjT0_SK_SK_SK_SK_T_ = comdat any

$_ZNSt3__118__insertion_sort_3IRN6google8protobuf8internal19CompareByDerefFirstIPKNS2_7MapPairINS_12basic_stringIcNS_11char_traitsIcEENS_9allocatorIcEEEEN13assist_ranker36ExamplePreprocessorConfig_BoundariesEEEEEPSG_EEvT0_SK_T_ = comdat any

$_ZNSt3__127__insertion_sort_incompleteIRN6google8protobuf8internal19CompareByDerefFirstIPKNS2_7MapPairINS_12basic_stringIcNS_11char_traitsIcEENS_9allocatorIcEEEEN13assist_ranker36ExamplePreprocessorConfig_BoundariesEEEEEPSG_EEbT0_SK_T_ = comdat any

$_ZN6google8protobuf8internal14MapTypeHandlerILNS1_14WireFormatLite9FieldTypeE11EN13assist_ranker36ExamplePreprocessorConfig_BoundariesEE5WriteEiRKS6_PhPNS0_2io19EpsCopyOutputStreamE = comdat any

$_ZN6google8protobuf3MapINSt3__112basic_stringIcNS2_11char_traitsIcEENS2_9allocatorIcEEEEiE8InnerMap13iterator_baseIKNS0_7MapPairIS8_iEEEppEv = comdat any

$_ZNSt3__16__sortIRN6google8protobuf8internal19CompareByDerefFirstIPKNS2_7MapPairINS_12basic_stringIcNS_11char_traitsIcEENS_9allocatorIcEEEEiEEEEPSE_EEvT0_SI_T_ = comdat any

$_ZNSt3__17__sort3IRN6google8protobuf8internal19CompareByDerefFirstIPKNS2_7MapPairINS_12basic_stringIcNS_11char_traitsIcEENS_9allocatorIcEEEEiEEEEPSE_EEjT0_SI_SI_T_ = comdat any

$_ZNSt3__17__sort4IRN6google8protobuf8internal19CompareByDerefFirstIPKNS2_7MapPairINS_12basic_stringIcNS_11char_traitsIcEENS_9allocatorIcEEEEiEEEEPSE_EEjT0_SI_SI_SI_T_ = comdat any

$_ZNSt3__17__sort5IRN6google8protobuf8internal19CompareByDerefFirstIPKNS2_7MapPairINS_12basic_stringIcNS_11char_traitsIcEENS_9allocatorIcEEEEiEEEEPSE_EEjT0_SI_SI_SI_SI_T_ = comdat any

$_ZNSt3__118__insertion_sort_3IRN6google8protobuf8internal19CompareByDerefFirstIPKNS2_7MapPairINS_12basic_stringIcNS_11char_traitsIcEENS_9allocatorIcEEEEiEEEEPSE_EEvT0_SI_T_ = comdat any

$_ZNSt3__127__insertion_sort_incompleteIRN6google8protobuf8internal19CompareByDerefFirstIPKNS2_7MapPairINS_12basic_stringIcNS_11char_traitsIcEENS_9allocatorIcEEEEiEEEEPSE_EEbT0_SI_T_ = comdat any

$_ZN6google8protobuf3MapINSt3__112basic_stringIcNS2_11char_traitsIcEENS2_9allocatorIcEEEEfE8InnerMap13iterator_baseIKNS0_7MapPairIS8_fEEEppEv = comdat any

$_ZNSt3__16__sortIRN6google8protobuf8internal19CompareByDerefFirstIPKNS2_7MapPairINS_12basic_stringIcNS_11char_traitsIcEENS_9allocatorIcEEEEfEEEEPSE_EEvT0_SI_T_ = comdat any

$_ZNSt3__17__sort3IRN6google8protobuf8internal19CompareByDerefFirstIPKNS2_7MapPairINS_12basic_stringIcNS_11char_traitsIcEENS_9allocatorIcEEEEfEEEEPSE_EEjT0_SI_SI_T_ = comdat any

$_ZNSt3__17__sort4IRN6google8protobuf8internal19CompareByDerefFirstIPKNS2_7MapPairINS_12basic_stringIcNS_11char_traitsIcEENS_9allocatorIcEEEEfEEEEPSE_EEjT0_SI_SI_SI_T_ = comdat any

$_ZNSt3__17__sort5IRN6google8protobuf8internal19CompareByDerefFirstIPKNS2_7MapPairINS_12basic_stringIcNS_11char_traitsIcEENS_9allocatorIcEEEEfEEEEPSE_EEjT0_SI_SI_SI_SI_T_ = comdat any

$_ZNSt3__118__insertion_sort_3IRN6google8protobuf8internal19CompareByDerefFirstIPKNS2_7MapPairINS_12basic_stringIcNS_11char_traitsIcEENS_9allocatorIcEEEEfEEEEPSE_EEvT0_SI_T_ = comdat any

$_ZNSt3__127__insertion_sort_incompleteIRN6google8protobuf8internal19CompareByDerefFirstIPKNS2_7MapPairINS_12basic_stringIcNS_11char_traitsIcEENS_9allocatorIcEEEEfEEEEPSE_EEbT0_SI_T_ = comdat any

$_ZN6google8protobuf3MapINSt3__112basic_stringIcNS2_11char_traitsIcEENS2_9allocatorIcEEEEN13assist_ranker36ExamplePreprocessorConfig_BoundariesEE4swapERSB_ = comdat any

$_ZN6google8protobuf3MapINSt3__112basic_stringIcNS2_11char_traitsIcEENS2_9allocatorIcEEEEN13assist_ranker36ExamplePreprocessorConfig_BoundariesEE6insertINSB_14const_iteratorEEEvT_SE_ = comdat any

$_ZN6google8protobuf3MapINSt3__112basic_stringIcNS2_11char_traitsIcEENS2_9allocatorIcEEEEiE4swapERS9_ = comdat any

$_ZN6google8protobuf3MapINSt3__112basic_stringIcNS2_11char_traitsIcEENS2_9allocatorIcEEEEiEC2ERKS9_ = comdat any

$_ZN6google8protobuf3MapINSt3__112basic_stringIcNS2_11char_traitsIcEENS2_9allocatorIcEEEEiEaSERKS9_ = comdat any

$_ZN6google8protobuf3MapINSt3__112basic_stringIcNS2_11char_traitsIcEENS2_9allocatorIcEEEEfE4swapERS9_ = comdat any

$_ZN6google8protobuf3MapINSt3__112basic_stringIcNS2_11char_traitsIcEENS2_9allocatorIcEEEEfEC2ERKS9_ = comdat any

$_ZN6google8protobuf3MapINSt3__112basic_stringIcNS2_11char_traitsIcEENS2_9allocatorIcEEEEfEaSERKS9_ = comdat any

$_ZTVN13assist_ranker51ExamplePreprocessorConfig_BucketizersEntry_DoNotUseE = comdat any

$_ZTVN13assist_ranker54ExamplePreprocessorConfig_FeatureIndicesEntry_DoNotUseE = comdat any

$_ZTVN13assist_ranker51ExamplePreprocessorConfig_NormalizersEntry_DoNotUseE = comdat any

$_ZTVN6google8protobuf8internal12MapEntryLiteIN13assist_ranker51ExamplePreprocessorConfig_BucketizersEntry_DoNotUseENSt3__112basic_stringIcNS5_11char_traitsIcEENS5_9allocatorIcEEEENS3_36ExamplePreprocessorConfig_BoundariesELNS1_14WireFormatLite9FieldTypeE9ELSE_11EEE = comdat any

$_ZTVN6google8protobuf8internal12MapEntryImplIN13assist_ranker51ExamplePreprocessorConfig_BucketizersEntry_DoNotUseENS0_11MessageLiteENSt3__112basic_stringIcNS6_11char_traitsIcEENS6_9allocatorIcEEEENS3_36ExamplePreprocessorConfig_BoundariesELNS1_14WireFormatLite9FieldTypeE9ELSF_11EEE = comdat any

$_ZTVN6google8protobuf8internal12MapEntryLiteIN13assist_ranker54ExamplePreprocessorConfig_FeatureIndicesEntry_DoNotUseENSt3__112basic_stringIcNS5_11char_traitsIcEENS5_9allocatorIcEEEEiLNS1_14WireFormatLite9FieldTypeE9ELSD_5EEE = comdat any

$_ZTVN6google8protobuf8internal12MapEntryImplIN13assist_ranker54ExamplePreprocessorConfig_FeatureIndicesEntry_DoNotUseENS0_11MessageLiteENSt3__112basic_stringIcNS6_11char_traitsIcEENS6_9allocatorIcEEEEiLNS1_14WireFormatLite9FieldTypeE9ELSE_5EEE = comdat any

$_ZTVN6google8protobuf8internal12MapEntryLiteIN13assist_ranker51ExamplePreprocessorConfig_NormalizersEntry_DoNotUseENSt3__112basic_stringIcNS5_11char_traitsIcEENS5_9allocatorIcEEEEfLNS1_14WireFormatLite9FieldTypeE9ELSD_2EEE = comdat any

$_ZTVN6google8protobuf8internal12MapEntryImplIN13assist_ranker51ExamplePreprocessorConfig_NormalizersEntry_DoNotUseENS0_11MessageLiteENSt3__112basic_stringIcNS6_11char_traitsIcEENS6_9allocatorIcEEEEfLNS1_14WireFormatLite9FieldTypeE9ELSE_2EEE = comdat any

@_ZN13assist_ranker55_ExamplePreprocessorConfig_Boundaries_default_instance_E = hidden global %"class.assist_ranker::ExamplePreprocessorConfig_BoundariesDefaultTypeInternal" zeroinitializer, align 8
@_ZN13assist_ranker70_ExamplePreprocessorConfig_BucketizersEntry_DoNotUse_default_instance_E = hidden local_unnamed_addr global %"class.assist_ranker::ExamplePreprocessorConfig_BucketizersEntry_DoNotUseDefaultTypeInternal" zeroinitializer, align 8
@_ZN13assist_ranker73_ExamplePreprocessorConfig_FeatureIndicesEntry_DoNotUse_default_instance_E = hidden local_unnamed_addr global %"class.assist_ranker::ExamplePreprocessorConfig_FeatureIndicesEntry_DoNotUseDefaultTypeInternal" zeroinitializer, align 8
@_ZN13assist_ranker70_ExamplePreprocessorConfig_NormalizersEntry_DoNotUse_default_instance_E = hidden local_unnamed_addr global %"class.assist_ranker::ExamplePreprocessorConfig_NormalizersEntry_DoNotUseDefaultTypeInternal" zeroinitializer, align 8
@_ZN13assist_ranker44_ExamplePreprocessorConfig_default_instance_E = hidden global %"class.assist_ranker::ExamplePreprocessorConfigDefaultTypeInternal" zeroinitializer, align 8
@scc_info_ExamplePreprocessorConfig_example_5fpreprocessor_2eproto = hidden global { { { { i32 } }, i32, i32, void ()* }, [3 x i8*] } { { { { i32 } }, i32, i32, void ()* } { { { i32 } } { { i32 } { i32 -1 } }, i32 3, i32 0, void ()* @_ZL77InitDefaultsscc_info_ExamplePreprocessorConfig_example_5fpreprocessor_2eprotov }, [3 x i8*] [i8* bitcast ({ { { { i32 } }, i32, i32, void ()* }, [1 x i8*] }* @scc_info_ExamplePreprocessorConfig_BucketizersEntry_DoNotUse_example_5fpreprocessor_2eproto to i8*), i8* bitcast ({ { { { i32 } }, i32, i32, void ()* }, [0 x i8*] }* @scc_info_ExamplePreprocessorConfig_FeatureIndicesEntry_DoNotUse_example_5fpreprocessor_2eproto to i8*), i8* bitcast ({ { { { i32 } }, i32, i32, void ()* }, [0 x i8*] }* @scc_info_ExamplePreprocessorConfig_NormalizersEntry_DoNotUse_example_5fpreprocessor_2eproto to i8*)] }, align 8
@scc_info_ExamplePreprocessorConfig_Boundaries_example_5fpreprocessor_2eproto = hidden global { { { { i32 } }, i32, i32, void ()* }, [0 x i8*] } { { { { i32 } }, i32, i32, void ()* } { { { i32 } } { { i32 } { i32 -1 } }, i32 0, i32 0, void ()* @_ZL88InitDefaultsscc_info_ExamplePreprocessorConfig_Boundaries_example_5fpreprocessor_2eprotov }, [0 x i8*] zeroinitializer }, align 8
@scc_info_ExamplePreprocessorConfig_BucketizersEntry_DoNotUse_example_5fpreprocessor_2eproto = hidden global { { { { i32 } }, i32, i32, void ()* }, [1 x i8*] } { { { { i32 } }, i32, i32, void ()* } { { { i32 } } { { i32 } { i32 -1 } }, i32 1, i32 0, void ()* @_ZL103InitDefaultsscc_info_ExamplePreprocessorConfig_BucketizersEntry_DoNotUse_example_5fpreprocessor_2eprotov }, [1 x i8*] [i8* bitcast ({ { { { i32 } }, i32, i32, void ()* }, [0 x i8*] }* @scc_info_ExamplePreprocessorConfig_Boundaries_example_5fpreprocessor_2eproto to i8*)] }, align 8
@scc_info_ExamplePreprocessorConfig_FeatureIndicesEntry_DoNotUse_example_5fpreprocessor_2eproto = hidden global { { { { i32 } }, i32, i32, void ()* }, [0 x i8*] } { { { { i32 } }, i32, i32, void ()* } { { { i32 } } { { i32 } { i32 -1 } }, i32 0, i32 0, void ()* @_ZL106InitDefaultsscc_info_ExamplePreprocessorConfig_FeatureIndicesEntry_DoNotUse_example_5fpreprocessor_2eprotov }, [0 x i8*] zeroinitializer }, align 8
@scc_info_ExamplePreprocessorConfig_NormalizersEntry_DoNotUse_example_5fpreprocessor_2eproto = hidden global { { { { i32 } }, i32, i32, void ()* }, [0 x i8*] } { { { { i32 } }, i32, i32, void ()* } { { { i32 } } { { i32 } { i32 -1 } }, i32 0, i32 0, void ()* @_ZL103InitDefaultsscc_info_ExamplePreprocessorConfig_NormalizersEntry_DoNotUse_example_5fpreprocessor_2eprotov }, [0 x i8*] zeroinitializer }, align 8
@_ZTVN13assist_ranker36ExamplePreprocessorConfig_BoundariesE = hidden unnamed_addr constant { [16 x i8*] } { [16 x i8*] [i8* null, i8* null, i8* bitcast (void (%"class.assist_ranker::ExamplePreprocessorConfig_Boundaries"*)* @_ZN13assist_ranker36ExamplePreprocessorConfig_BoundariesD2Ev to i8*), i8* bitcast (void (%"class.assist_ranker::ExamplePreprocessorConfig_Boundaries"*)* @_ZN13assist_ranker36ExamplePreprocessorConfig_BoundariesD0Ev to i8*), i8* bitcast (void (%"class.std::__1::basic_string"*, %"class.assist_ranker::ExamplePreprocessorConfig_Boundaries"*)* @_ZNK13assist_ranker36ExamplePreprocessorConfig_Boundaries11GetTypeNameEv to i8*), i8* bitcast (%"class.assist_ranker::ExamplePreprocessorConfig_Boundaries"* (%"class.assist_ranker::ExamplePreprocessorConfig_Boundaries"*)* @_ZNK13assist_ranker36ExamplePreprocessorConfig_Boundaries3NewEv to i8*), i8* bitcast (%"class.assist_ranker::ExamplePreprocessorConfig_Boundaries"* (%"class.assist_ranker::ExamplePreprocessorConfig_Boundaries"*, %"class.google::protobuf::Arena"*)* @_ZNK13assist_ranker36ExamplePreprocessorConfig_Boundaries3NewEPN6google8protobuf5ArenaE to i8*), i8* bitcast (void (%"class.assist_ranker::ExamplePreprocessorConfig_Boundaries"*)* @_ZN13assist_ranker36ExamplePreprocessorConfig_Boundaries5ClearEv to i8*), i8* bitcast (i1 (%"class.assist_ranker::ExamplePreprocessorConfig_Boundaries"*)* @_ZNK13assist_ranker36ExamplePreprocessorConfig_Boundaries13IsInitializedEv to i8*), i8* bitcast (void (%"class.std::__1::basic_string"*, %"class.google::protobuf::MessageLite"*)* @_ZNK6google8protobuf11MessageLite25InitializationErrorStringEv to i8*), i8* bitcast (void (%"class.assist_ranker::ExamplePreprocessorConfig_Boundaries"*, %"class.google::protobuf::MessageLite"*)* @_ZN13assist_ranker36ExamplePreprocessorConfig_Boundaries21CheckTypeAndMergeFromERKN6google8protobuf11MessageLiteE to i8*), i8* bitcast (i64 (%"class.assist_ranker::ExamplePreprocessorConfig_Boundaries"*)* @_ZNK13assist_ranker36ExamplePreprocessorConfig_Boundaries12ByteSizeLongEv to i8*), i8* bitcast (i32 (%"class.assist_ranker::ExamplePreprocessorConfig_Boundaries"*)* @_ZNK13assist_ranker36ExamplePreprocessorConfig_Boundaries13GetCachedSizeEv to i8*), i8* bitcast (i8* (%"class.assist_ranker::ExamplePreprocessorConfig_Boundaries"*, i8*, %"class.google::protobuf::internal::ParseContext"*)* @_ZN13assist_ranker36ExamplePreprocessorConfig_Boundaries14_InternalParseEPKcPN6google8protobuf8internal12ParseContextE to i8*), i8* bitcast (i8* (%"class.assist_ranker::ExamplePreprocessorConfig_Boundaries"*, i8*, %"class.google::protobuf::io::EpsCopyOutputStream"*)* @_ZNK13assist_ranker36ExamplePreprocessorConfig_Boundaries18_InternalSerializeEPhPN6google8protobuf2io19EpsCopyOutputStreamE to i8*), i8* bitcast (i8* (%"class.google::protobuf::MessageLite"*)* @_ZNK6google8protobuf11MessageLite16InternalGetTableEv to i8*)] }, align 8
@.str = private unnamed_addr constant [62 x i8] c"gen/components/assist_ranker/proto/example_preprocessor.pb.cc\00", align 1
@.str.5 = private unnamed_addr constant [51 x i8] c"assist_ranker.ExamplePreprocessorConfig.Boundaries\00", align 1
@_ZTVN13assist_ranker51ExamplePreprocessorConfig_BucketizersEntry_DoNotUseE = linkonce_odr hidden unnamed_addr constant { [18 x i8*] } { [18 x i8*] [i8* null, i8* null, i8* bitcast (void (%"class.google::protobuf::internal::MapEntryLite"*)* @_ZN6google8protobuf8internal12MapEntryLiteIN13assist_ranker51ExamplePreprocessorConfig_BucketizersEntry_DoNotUseENSt3__112basic_stringIcNS5_11char_traitsIcEENS5_9allocatorIcEEEENS3_36ExamplePreprocessorConfig_BoundariesELNS1_14WireFormatLite9FieldTypeE9ELSE_11EED2Ev to i8*), i8* bitcast (void (%"class.assist_ranker::ExamplePreprocessorConfig_BucketizersEntry_DoNotUse"*)* @_ZN13assist_ranker51ExamplePreprocessorConfig_BucketizersEntry_DoNotUseD0Ev to i8*), i8* bitcast (void (%"class.std::__1::basic_string"*, %"class.google::protobuf::internal::MapEntryImpl"*)* @_ZNK6google8protobuf8internal12MapEntryImplIN13assist_ranker51ExamplePreprocessorConfig_BucketizersEntry_DoNotUseENS0_11MessageLiteENSt3__112basic_stringIcNS6_11char_traitsIcEENS6_9allocatorIcEEEENS3_36ExamplePreprocessorConfig_BoundariesELNS1_14WireFormatLite9FieldTypeE9ELSF_11EE11GetTypeNameEv to i8*), i8* bitcast (%"class.google::protobuf::MessageLite"* (%"class.google::protobuf::internal::MapEntryImpl"*)* @_ZNK6google8protobuf8internal12MapEntryImplIN13assist_ranker51ExamplePreprocessorConfig_BucketizersEntry_DoNotUseENS0_11MessageLiteENSt3__112basic_stringIcNS6_11char_traitsIcEENS6_9allocatorIcEEEENS3_36ExamplePreprocessorConfig_BoundariesELNS1_14WireFormatLite9FieldTypeE9ELSF_11EE3NewEv to i8*), i8* bitcast (%"class.google::protobuf::MessageLite"* (%"class.google::protobuf::internal::MapEntryImpl"*, %"class.google::protobuf::Arena"*)* @_ZNK6google8protobuf8internal12MapEntryImplIN13assist_ranker51ExamplePreprocessorConfig_BucketizersEntry_DoNotUseENS0_11MessageLiteENSt3__112basic_stringIcNS6_11char_traitsIcEENS6_9allocatorIcEEEENS3_36ExamplePreprocessorConfig_BoundariesELNS1_14WireFormatLite9FieldTypeE9ELSF_11EE3NewEPNS0_5ArenaE to i8*), i8* bitcast (void (%"class.google::protobuf::internal::MapEntryImpl"*)* @_ZN6google8protobuf8internal12MapEntryImplIN13assist_ranker51ExamplePreprocessorConfig_BucketizersEntry_DoNotUseENS0_11MessageLiteENSt3__112basic_stringIcNS6_11char_traitsIcEENS6_9allocatorIcEEEENS3_36ExamplePreprocessorConfig_BoundariesELNS1_14WireFormatLite9FieldTypeE9ELSF_11EE5ClearEv to i8*), i8* bitcast (i1 (%"class.google::protobuf::internal::MapEntryImpl"*)* @_ZNK6google8protobuf8internal12MapEntryImplIN13assist_ranker51ExamplePreprocessorConfig_BucketizersEntry_DoNotUseENS0_11MessageLiteENSt3__112basic_stringIcNS6_11char_traitsIcEENS6_9allocatorIcEEEENS3_36ExamplePreprocessorConfig_BoundariesELNS1_14WireFormatLite9FieldTypeE9ELSF_11EE13IsInitializedEv to i8*), i8* bitcast (void (%"class.std::__1::basic_string"*, %"class.google::protobuf::MessageLite"*)* @_ZNK6google8protobuf11MessageLite25InitializationErrorStringEv to i8*), i8* bitcast (void (%"class.google::protobuf::internal::MapEntryImpl"*, %"class.google::protobuf::MessageLite"*)* @_ZN6google8protobuf8internal12MapEntryImplIN13assist_ranker51ExamplePreprocessorConfig_BucketizersEntry_DoNotUseENS0_11MessageLiteENSt3__112basic_stringIcNS6_11char_traitsIcEENS6_9allocatorIcEEEENS3_36ExamplePreprocessorConfig_BoundariesELNS1_14WireFormatLite9FieldTypeE9ELSF_11EE21CheckTypeAndMergeFromERKS5_ to i8*), i8* bitcast (i64 (%"class.google::protobuf::internal::MapEntryImpl"*)* @_ZNK6google8protobuf8internal12MapEntryImplIN13assist_ranker51ExamplePreprocessorConfig_BucketizersEntry_DoNotUseENS0_11MessageLiteENSt3__112basic_stringIcNS6_11char_traitsIcEENS6_9allocatorIcEEEENS3_36ExamplePreprocessorConfig_BoundariesELNS1_14WireFormatLite9FieldTypeE9ELSF_11EE12ByteSizeLongEv to i8*), i8* bitcast (i32 (%"class.google::protobuf::internal::MapEntryImpl"*)* @_ZNK6google8protobuf8internal12MapEntryImplIN13assist_ranker51ExamplePreprocessorConfig_BucketizersEntry_DoNotUseENS0_11MessageLiteENSt3__112basic_stringIcNS6_11char_traitsIcEENS6_9allocatorIcEEEENS3_36ExamplePreprocessorConfig_BoundariesELNS1_14WireFormatLite9FieldTypeE9ELSF_11EE13GetCachedSizeEv to i8*), i8* bitcast (i8* (%"class.google::protobuf::internal::MapEntryImpl"*, i8*, %"class.google::protobuf::internal::ParseContext"*)* @_ZN6google8protobuf8internal12MapEntryImplIN13assist_ranker51ExamplePreprocessorConfig_BucketizersEntry_DoNotUseENS0_11MessageLiteENSt3__112basic_stringIcNS6_11char_traitsIcEENS6_9allocatorIcEEEENS3_36ExamplePreprocessorConfig_BoundariesELNS1_14WireFormatLite9FieldTypeE9ELSF_11EE14_InternalParseEPKcPNS1_12ParseContextE to i8*), i8* bitcast (i8* (%"class.google::protobuf::internal::MapEntryImpl"*, i8*, %"class.google::protobuf::io::EpsCopyOutputStream"*)* @_ZNK6google8protobuf8internal12MapEntryImplIN13assist_ranker51ExamplePreprocessorConfig_BucketizersEntry_DoNotUseENS0_11MessageLiteENSt3__112basic_stringIcNS6_11char_traitsIcEENS6_9allocatorIcEEEENS3_36ExamplePreprocessorConfig_BoundariesELNS1_14WireFormatLite9FieldTypeE9ELSF_11EE18_InternalSerializeEPhPNS0_2io19EpsCopyOutputStreamE to i8*), i8* bitcast (i8* (%"class.google::protobuf::MessageLite"*)* @_ZNK6google8protobuf11MessageLite16InternalGetTableEv to i8*), i8* bitcast (%"class.std::__1::basic_string"* (%"class.google::protobuf::internal::MapEntryImpl"*)* @_ZNK6google8protobuf8internal12MapEntryImplIN13assist_ranker51ExamplePreprocessorConfig_BucketizersEntry_DoNotUseENS0_11MessageLiteENSt3__112basic_stringIcNS6_11char_traitsIcEENS6_9allocatorIcEEEENS3_36ExamplePreprocessorConfig_BoundariesELNS1_14WireFormatLite9FieldTypeE9ELSF_11EE3keyEv to i8*), i8* bitcast (%"class.assist_ranker::ExamplePreprocessorConfig_Boundaries"* (%"class.google::protobuf::internal::MapEntryImpl"*)* @_ZNK6google8protobuf8internal12MapEntryImplIN13assist_ranker51ExamplePreprocessorConfig_BucketizersEntry_DoNotUseENS0_11MessageLiteENSt3__112basic_stringIcNS6_11char_traitsIcEENS6_9allocatorIcEEEENS3_36ExamplePreprocessorConfig_BoundariesELNS1_14WireFormatLite9FieldTypeE9ELSF_11EE5valueEv to i8*)] }, comdat, align 8
@_ZTVN13assist_ranker54ExamplePreprocessorConfig_FeatureIndicesEntry_DoNotUseE = linkonce_odr hidden unnamed_addr constant { [18 x i8*] } { [18 x i8*] [i8* null, i8* null, i8* bitcast (void (%"class.google::protobuf::internal::MapEntryLite.17"*)* @_ZN6google8protobuf8internal12MapEntryLiteIN13assist_ranker54ExamplePreprocessorConfig_FeatureIndicesEntry_DoNotUseENSt3__112basic_stringIcNS5_11char_traitsIcEENS5_9allocatorIcEEEEiLNS1_14WireFormatLite9FieldTypeE9ELSD_5EED2Ev to i8*), i8* bitcast (void (%"class.assist_ranker::ExamplePreprocessorConfig_FeatureIndicesEntry_DoNotUse"*)* @_ZN13assist_ranker54ExamplePreprocessorConfig_FeatureIndicesEntry_DoNotUseD0Ev to i8*), i8* bitcast (void (%"class.std::__1::basic_string"*, %"class.google::protobuf::internal::MapEntryImpl.18"*)* @_ZNK6google8protobuf8internal12MapEntryImplIN13assist_ranker54ExamplePreprocessorConfig_FeatureIndicesEntry_DoNotUseENS0_11MessageLiteENSt3__112basic_stringIcNS6_11char_traitsIcEENS6_9allocatorIcEEEEiLNS1_14WireFormatLite9FieldTypeE9ELSE_5EE11GetTypeNameEv to i8*), i8* bitcast (%"class.google::protobuf::MessageLite"* (%"class.google::protobuf::internal::MapEntryImpl.18"*)* @_ZNK6google8protobuf8internal12MapEntryImplIN13assist_ranker54ExamplePreprocessorConfig_FeatureIndicesEntry_DoNotUseENS0_11MessageLiteENSt3__112basic_stringIcNS6_11char_traitsIcEENS6_9allocatorIcEEEEiLNS1_14WireFormatLite9FieldTypeE9ELSE_5EE3NewEv to i8*), i8* bitcast (%"class.google::protobuf::MessageLite"* (%"class.google::protobuf::internal::MapEntryImpl.18"*, %"class.google::protobuf::Arena"*)* @_ZNK6google8protobuf8internal12MapEntryImplIN13assist_ranker54ExamplePreprocessorConfig_FeatureIndicesEntry_DoNotUseENS0_11MessageLiteENSt3__112basic_stringIcNS6_11char_traitsIcEENS6_9allocatorIcEEEEiLNS1_14WireFormatLite9FieldTypeE9ELSE_5EE3NewEPNS0_5ArenaE to i8*), i8* bitcast (void (%"class.google::protobuf::internal::MapEntryImpl.18"*)* @_ZN6google8protobuf8internal12MapEntryImplIN13assist_ranker54ExamplePreprocessorConfig_FeatureIndicesEntry_DoNotUseENS0_11MessageLiteENSt3__112basic_stringIcNS6_11char_traitsIcEENS6_9allocatorIcEEEEiLNS1_14WireFormatLite9FieldTypeE9ELSE_5EE5ClearEv to i8*), i8* bitcast (i1 (%"class.google::protobuf::internal::MapEntryImpl.18"*)* @_ZNK6google8protobuf8internal12MapEntryImplIN13assist_ranker54ExamplePreprocessorConfig_FeatureIndicesEntry_DoNotUseENS0_11MessageLiteENSt3__112basic_stringIcNS6_11char_traitsIcEENS6_9allocatorIcEEEEiLNS1_14WireFormatLite9FieldTypeE9ELSE_5EE13IsInitializedEv to i8*), i8* bitcast (void (%"class.std::__1::basic_string"*, %"class.google::protobuf::MessageLite"*)* @_ZNK6google8protobuf11MessageLite25InitializationErrorStringEv to i8*), i8* bitcast (void (%"class.google::protobuf::internal::MapEntryImpl.18"*, %"class.google::protobuf::MessageLite"*)* @_ZN6google8protobuf8internal12MapEntryImplIN13assist_ranker54ExamplePreprocessorConfig_FeatureIndicesEntry_DoNotUseENS0_11MessageLiteENSt3__112basic_stringIcNS6_11char_traitsIcEENS6_9allocatorIcEEEEiLNS1_14WireFormatLite9FieldTypeE9ELSE_5EE21CheckTypeAndMergeFromERKS5_ to i8*), i8* bitcast (i64 (%"class.google::protobuf::internal::MapEntryImpl.18"*)* @_ZNK6google8protobuf8internal12MapEntryImplIN13assist_ranker54ExamplePreprocessorConfig_FeatureIndicesEntry_DoNotUseENS0_11MessageLiteENSt3__112basic_stringIcNS6_11char_traitsIcEENS6_9allocatorIcEEEEiLNS1_14WireFormatLite9FieldTypeE9ELSE_5EE12ByteSizeLongEv to i8*), i8* bitcast (i32 (%"class.google::protobuf::internal::MapEntryImpl.18"*)* @_ZNK6google8protobuf8internal12MapEntryImplIN13assist_ranker54ExamplePreprocessorConfig_FeatureIndicesEntry_DoNotUseENS0_11MessageLiteENSt3__112basic_stringIcNS6_11char_traitsIcEENS6_9allocatorIcEEEEiLNS1_14WireFormatLite9FieldTypeE9ELSE_5EE13GetCachedSizeEv to i8*), i8* bitcast (i8* (%"class.google::protobuf::internal::MapEntryImpl.18"*, i8*, %"class.google::protobuf::internal::ParseContext"*)* @_ZN6google8protobuf8internal12MapEntryImplIN13assist_ranker54ExamplePreprocessorConfig_FeatureIndicesEntry_DoNotUseENS0_11MessageLiteENSt3__112basic_stringIcNS6_11char_traitsIcEENS6_9allocatorIcEEEEiLNS1_14WireFormatLite9FieldTypeE9ELSE_5EE14_InternalParseEPKcPNS1_12ParseContextE to i8*), i8* bitcast (i8* (%"class.google::protobuf::internal::MapEntryImpl.18"*, i8*, %"class.google::protobuf::io::EpsCopyOutputStream"*)* @_ZNK6google8protobuf8internal12MapEntryImplIN13assist_ranker54ExamplePreprocessorConfig_FeatureIndicesEntry_DoNotUseENS0_11MessageLiteENSt3__112basic_stringIcNS6_11char_traitsIcEENS6_9allocatorIcEEEEiLNS1_14WireFormatLite9FieldTypeE9ELSE_5EE18_InternalSerializeEPhPNS0_2io19EpsCopyOutputStreamE to i8*), i8* bitcast (i8* (%"class.google::protobuf::MessageLite"*)* @_ZNK6google8protobuf11MessageLite16InternalGetTableEv to i8*), i8* bitcast (%"class.std::__1::basic_string"* (%"class.google::protobuf::internal::MapEntryImpl.18"*)* @_ZNK6google8protobuf8internal12MapEntryImplIN13assist_ranker54ExamplePreprocessorConfig_FeatureIndicesEntry_DoNotUseENS0_11MessageLiteENSt3__112basic_stringIcNS6_11char_traitsIcEENS6_9allocatorIcEEEEiLNS1_14WireFormatLite9FieldTypeE9ELSE_5EE3keyEv to i8*), i8* bitcast (i32* (%"class.google::protobuf::internal::MapEntryImpl.18"*)* @_ZNK6google8protobuf8internal12MapEntryImplIN13assist_ranker54ExamplePreprocessorConfig_FeatureIndicesEntry_DoNotUseENS0_11MessageLiteENSt3__112basic_stringIcNS6_11char_traitsIcEENS6_9allocatorIcEEEEiLNS1_14WireFormatLite9FieldTypeE9ELSE_5EE5valueEv to i8*)] }, comdat, align 8
@_ZTVN13assist_ranker51ExamplePreprocessorConfig_NormalizersEntry_DoNotUseE = linkonce_odr hidden unnamed_addr constant { [18 x i8*] } { [18 x i8*] [i8* null, i8* null, i8* bitcast (void (%"class.google::protobuf::internal::MapEntryLite.19"*)* @_ZN6google8protobuf8internal12MapEntryLiteIN13assist_ranker51ExamplePreprocessorConfig_NormalizersEntry_DoNotUseENSt3__112basic_stringIcNS5_11char_traitsIcEENS5_9allocatorIcEEEEfLNS1_14WireFormatLite9FieldTypeE9ELSD_2EED2Ev to i8*), i8* bitcast (void (%"class.assist_ranker::ExamplePreprocessorConfig_NormalizersEntry_DoNotUse"*)* @_ZN13assist_ranker51ExamplePreprocessorConfig_NormalizersEntry_DoNotUseD0Ev to i8*), i8* bitcast (void (%"class.std::__1::basic_string"*, %"class.google::protobuf::internal::MapEntryImpl.20"*)* @_ZNK6google8protobuf8internal12MapEntryImplIN13assist_ranker51ExamplePreprocessorConfig_NormalizersEntry_DoNotUseENS0_11MessageLiteENSt3__112basic_stringIcNS6_11char_traitsIcEENS6_9allocatorIcEEEEfLNS1_14WireFormatLite9FieldTypeE9ELSE_2EE11GetTypeNameEv to i8*), i8* bitcast (%"class.google::protobuf::MessageLite"* (%"class.google::protobuf::internal::MapEntryImpl.20"*)* @_ZNK6google8protobuf8internal12MapEntryImplIN13assist_ranker51ExamplePreprocessorConfig_NormalizersEntry_DoNotUseENS0_11MessageLiteENSt3__112basic_stringIcNS6_11char_traitsIcEENS6_9allocatorIcEEEEfLNS1_14WireFormatLite9FieldTypeE9ELSE_2EE3NewEv to i8*), i8* bitcast (%"class.google::protobuf::MessageLite"* (%"class.google::protobuf::internal::MapEntryImpl.20"*, %"class.google::protobuf::Arena"*)* @_ZNK6google8protobuf8internal12MapEntryImplIN13assist_ranker51ExamplePreprocessorConfig_NormalizersEntry_DoNotUseENS0_11MessageLiteENSt3__112basic_stringIcNS6_11char_traitsIcEENS6_9allocatorIcEEEEfLNS1_14WireFormatLite9FieldTypeE9ELSE_2EE3NewEPNS0_5ArenaE to i8*), i8* bitcast (void (%"class.google::protobuf::internal::MapEntryImpl.20"*)* @_ZN6google8protobuf8internal12MapEntryImplIN13assist_ranker51ExamplePreprocessorConfig_NormalizersEntry_DoNotUseENS0_11MessageLiteENSt3__112basic_stringIcNS6_11char_traitsIcEENS6_9allocatorIcEEEEfLNS1_14WireFormatLite9FieldTypeE9ELSE_2EE5ClearEv to i8*), i8* bitcast (i1 (%"class.google::protobuf::internal::MapEntryImpl.20"*)* @_ZNK6google8protobuf8internal12MapEntryImplIN13assist_ranker51ExamplePreprocessorConfig_NormalizersEntry_DoNotUseENS0_11MessageLiteENSt3__112basic_stringIcNS6_11char_traitsIcEENS6_9allocatorIcEEEEfLNS1_14WireFormatLite9FieldTypeE9ELSE_2EE13IsInitializedEv to i8*), i8* bitcast (void (%"class.std::__1::basic_string"*, %"class.google::protobuf::MessageLite"*)* @_ZNK6google8protobuf11MessageLite25InitializationErrorStringEv to i8*), i8* bitcast (void (%"class.google::protobuf::internal::MapEntryImpl.20"*, %"class.google::protobuf::MessageLite"*)* @_ZN6google8protobuf8internal12MapEntryImplIN13assist_ranker51ExamplePreprocessorConfig_NormalizersEntry_DoNotUseENS0_11MessageLiteENSt3__112basic_stringIcNS6_11char_traitsIcEENS6_9allocatorIcEEEEfLNS1_14WireFormatLite9FieldTypeE9ELSE_2EE21CheckTypeAndMergeFromERKS5_ to i8*), i8* bitcast (i64 (%"class.google::protobuf::internal::MapEntryImpl.20"*)* @_ZNK6google8protobuf8internal12MapEntryImplIN13assist_ranker51ExamplePreprocessorConfig_NormalizersEntry_DoNotUseENS0_11MessageLiteENSt3__112basic_stringIcNS6_11char_traitsIcEENS6_9allocatorIcEEEEfLNS1_14WireFormatLite9FieldTypeE9ELSE_2EE12ByteSizeLongEv to i8*), i8* bitcast (i32 (%"class.google::protobuf::internal::MapEntryImpl.20"*)* @_ZNK6google8protobuf8internal12MapEntryImplIN13assist_ranker51ExamplePreprocessorConfig_NormalizersEntry_DoNotUseENS0_11MessageLiteENSt3__112basic_stringIcNS6_11char_traitsIcEENS6_9allocatorIcEEEEfLNS1_14WireFormatLite9FieldTypeE9ELSE_2EE13GetCachedSizeEv to i8*), i8* bitcast (i8* (%"class.google::protobuf::internal::MapEntryImpl.20"*, i8*, %"class.google::protobuf::internal::ParseContext"*)* @_ZN6google8protobuf8internal12MapEntryImplIN13assist_ranker51ExamplePreprocessorConfig_NormalizersEntry_DoNotUseENS0_11MessageLiteENSt3__112basic_stringIcNS6_11char_traitsIcEENS6_9allocatorIcEEEEfLNS1_14WireFormatLite9FieldTypeE9ELSE_2EE14_InternalParseEPKcPNS1_12ParseContextE to i8*), i8* bitcast (i8* (%"class.google::protobuf::internal::MapEntryImpl.20"*, i8*, %"class.google::protobuf::io::EpsCopyOutputStream"*)* @_ZNK6google8protobuf8internal12MapEntryImplIN13assist_ranker51ExamplePreprocessorConfig_NormalizersEntry_DoNotUseENS0_11MessageLiteENSt3__112basic_stringIcNS6_11char_traitsIcEENS6_9allocatorIcEEEEfLNS1_14WireFormatLite9FieldTypeE9ELSE_2EE18_InternalSerializeEPhPNS0_2io19EpsCopyOutputStreamE to i8*), i8* bitcast (i8* (%"class.google::protobuf::MessageLite"*)* @_ZNK6google8protobuf11MessageLite16InternalGetTableEv to i8*), i8* bitcast (%"class.std::__1::basic_string"* (%"class.google::protobuf::internal::MapEntryImpl.20"*)* @_ZNK6google8protobuf8internal12MapEntryImplIN13assist_ranker51ExamplePreprocessorConfig_NormalizersEntry_DoNotUseENS0_11MessageLiteENSt3__112basic_stringIcNS6_11char_traitsIcEENS6_9allocatorIcEEEEfLNS1_14WireFormatLite9FieldTypeE9ELSE_2EE3keyEv to i8*), i8* bitcast (float* (%"class.google::protobuf::internal::MapEntryImpl.20"*)* @_ZNK6google8protobuf8internal12MapEntryImplIN13assist_ranker51ExamplePreprocessorConfig_NormalizersEntry_DoNotUseENS0_11MessageLiteENSt3__112basic_stringIcNS6_11char_traitsIcEENS6_9allocatorIcEEEEfLNS1_14WireFormatLite9FieldTypeE9ELSE_2EE5valueEv to i8*)] }, comdat, align 8
@_ZTVN13assist_ranker25ExamplePreprocessorConfigE = hidden unnamed_addr constant { [16 x i8*] } { [16 x i8*] [i8* null, i8* null, i8* bitcast (void (%"class.assist_ranker::ExamplePreprocessorConfig"*)* @_ZN13assist_ranker25ExamplePreprocessorConfigD2Ev to i8*), i8* bitcast (void (%"class.assist_ranker::ExamplePreprocessorConfig"*)* @_ZN13assist_ranker25ExamplePreprocessorConfigD0Ev to i8*), i8* bitcast (void (%"class.std::__1::basic_string"*, %"class.assist_ranker::ExamplePreprocessorConfig"*)* @_ZNK13assist_ranker25ExamplePreprocessorConfig11GetTypeNameEv to i8*), i8* bitcast (%"class.assist_ranker::ExamplePreprocessorConfig"* (%"class.assist_ranker::ExamplePreprocessorConfig"*)* @_ZNK13assist_ranker25ExamplePreprocessorConfig3NewEv to i8*), i8* bitcast (%"class.assist_ranker::ExamplePreprocessorConfig"* (%"class.assist_ranker::ExamplePreprocessorConfig"*, %"class.google::protobuf::Arena"*)* @_ZNK13assist_ranker25ExamplePreprocessorConfig3NewEPN6google8protobuf5ArenaE to i8*), i8* bitcast (void (%"class.assist_ranker::ExamplePreprocessorConfig"*)* @_ZN13assist_ranker25ExamplePreprocessorConfig5ClearEv to i8*), i8* bitcast (i1 (%"class.assist_ranker::ExamplePreprocessorConfig"*)* @_ZNK13assist_ranker25ExamplePreprocessorConfig13IsInitializedEv to i8*), i8* bitcast (void (%"class.std::__1::basic_string"*, %"class.google::protobuf::MessageLite"*)* @_ZNK6google8protobuf11MessageLite25InitializationErrorStringEv to i8*), i8* bitcast (void (%"class.assist_ranker::ExamplePreprocessorConfig"*, %"class.google::protobuf::MessageLite"*)* @_ZN13assist_ranker25ExamplePreprocessorConfig21CheckTypeAndMergeFromERKN6google8protobuf11MessageLiteE to i8*), i8* bitcast (i64 (%"class.assist_ranker::ExamplePreprocessorConfig"*)* @_ZNK13assist_ranker25ExamplePreprocessorConfig12ByteSizeLongEv to i8*), i8* bitcast (i32 (%"class.assist_ranker::ExamplePreprocessorConfig"*)* @_ZNK13assist_ranker25ExamplePreprocessorConfig13GetCachedSizeEv to i8*), i8* bitcast (i8* (%"class.assist_ranker::ExamplePreprocessorConfig"*, i8*, %"class.google::protobuf::internal::ParseContext"*)* @_ZN13assist_ranker25ExamplePreprocessorConfig14_InternalParseEPKcPN6google8protobuf8internal12ParseContextE to i8*), i8* bitcast (i8* (%"class.assist_ranker::ExamplePreprocessorConfig"*, i8*, %"class.google::protobuf::io::EpsCopyOutputStream"*)* @_ZNK13assist_ranker25ExamplePreprocessorConfig18_InternalSerializeEPhPN6google8protobuf2io19EpsCopyOutputStreamE to i8*), i8* bitcast (i8* (%"class.google::protobuf::MessageLite"*)* @_ZNK6google8protobuf11MessageLite16InternalGetTableEv to i8*)] }, align 8
@.str.6 = private unnamed_addr constant [40 x i8] c"assist_ranker.ExamplePreprocessorConfig\00", align 1
@_ZTVN6google8protobuf8internal12MapEntryLiteIN13assist_ranker51ExamplePreprocessorConfig_BucketizersEntry_DoNotUseENSt3__112basic_stringIcNS5_11char_traitsIcEENS5_9allocatorIcEEEENS3_36ExamplePreprocessorConfig_BoundariesELNS1_14WireFormatLite9FieldTypeE9ELSE_11EEE = linkonce_odr hidden unnamed_addr constant { [18 x i8*] } { [18 x i8*] [i8* null, i8* null, i8* bitcast (void (%"class.google::protobuf::internal::MapEntryLite"*)* @_ZN6google8protobuf8internal12MapEntryLiteIN13assist_ranker51ExamplePreprocessorConfig_BucketizersEntry_DoNotUseENSt3__112basic_stringIcNS5_11char_traitsIcEENS5_9allocatorIcEEEENS3_36ExamplePreprocessorConfig_BoundariesELNS1_14WireFormatLite9FieldTypeE9ELSE_11EED2Ev to i8*), i8* bitcast (void (%"class.google::protobuf::internal::MapEntryLite"*)* @_ZN6google8protobuf8internal12MapEntryLiteIN13assist_ranker51ExamplePreprocessorConfig_BucketizersEntry_DoNotUseENSt3__112basic_stringIcNS5_11char_traitsIcEENS5_9allocatorIcEEEENS3_36ExamplePreprocessorConfig_BoundariesELNS1_14WireFormatLite9FieldTypeE9ELSE_11EED0Ev to i8*), i8* bitcast (void (%"class.std::__1::basic_string"*, %"class.google::protobuf::internal::MapEntryImpl"*)* @_ZNK6google8protobuf8internal12MapEntryImplIN13assist_ranker51ExamplePreprocessorConfig_BucketizersEntry_DoNotUseENS0_11MessageLiteENSt3__112basic_stringIcNS6_11char_traitsIcEENS6_9allocatorIcEEEENS3_36ExamplePreprocessorConfig_BoundariesELNS1_14WireFormatLite9FieldTypeE9ELSF_11EE11GetTypeNameEv to i8*), i8* bitcast (%"class.google::protobuf::MessageLite"* (%"class.google::protobuf::internal::MapEntryImpl"*)* @_ZNK6google8protobuf8internal12MapEntryImplIN13assist_ranker51ExamplePreprocessorConfig_BucketizersEntry_DoNotUseENS0_11MessageLiteENSt3__112basic_stringIcNS6_11char_traitsIcEENS6_9allocatorIcEEEENS3_36ExamplePreprocessorConfig_BoundariesELNS1_14WireFormatLite9FieldTypeE9ELSF_11EE3NewEv to i8*), i8* bitcast (%"class.google::protobuf::MessageLite"* (%"class.google::protobuf::internal::MapEntryImpl"*, %"class.google::protobuf::Arena"*)* @_ZNK6google8protobuf8internal12MapEntryImplIN13assist_ranker51ExamplePreprocessorConfig_BucketizersEntry_DoNotUseENS0_11MessageLiteENSt3__112basic_stringIcNS6_11char_traitsIcEENS6_9allocatorIcEEEENS3_36ExamplePreprocessorConfig_BoundariesELNS1_14WireFormatLite9FieldTypeE9ELSF_11EE3NewEPNS0_5ArenaE to i8*), i8* bitcast (void (%"class.google::protobuf::internal::MapEntryImpl"*)* @_ZN6google8protobuf8internal12MapEntryImplIN13assist_ranker51ExamplePreprocessorConfig_BucketizersEntry_DoNotUseENS0_11MessageLiteENSt3__112basic_stringIcNS6_11char_traitsIcEENS6_9allocatorIcEEEENS3_36ExamplePreprocessorConfig_BoundariesELNS1_14WireFormatLite9FieldTypeE9ELSF_11EE5ClearEv to i8*), i8* bitcast (i1 (%"class.google::protobuf::internal::MapEntryImpl"*)* @_ZNK6google8protobuf8internal12MapEntryImplIN13assist_ranker51ExamplePreprocessorConfig_BucketizersEntry_DoNotUseENS0_11MessageLiteENSt3__112basic_stringIcNS6_11char_traitsIcEENS6_9allocatorIcEEEENS3_36ExamplePreprocessorConfig_BoundariesELNS1_14WireFormatLite9FieldTypeE9ELSF_11EE13IsInitializedEv to i8*), i8* bitcast (void (%"class.std::__1::basic_string"*, %"class.google::protobuf::MessageLite"*)* @_ZNK6google8protobuf11MessageLite25InitializationErrorStringEv to i8*), i8* bitcast (void (%"class.google::protobuf::internal::MapEntryImpl"*, %"class.google::protobuf::MessageLite"*)* @_ZN6google8protobuf8internal12MapEntryImplIN13assist_ranker51ExamplePreprocessorConfig_BucketizersEntry_DoNotUseENS0_11MessageLiteENSt3__112basic_stringIcNS6_11char_traitsIcEENS6_9allocatorIcEEEENS3_36ExamplePreprocessorConfig_BoundariesELNS1_14WireFormatLite9FieldTypeE9ELSF_11EE21CheckTypeAndMergeFromERKS5_ to i8*), i8* bitcast (i64 (%"class.google::protobuf::internal::MapEntryImpl"*)* @_ZNK6google8protobuf8internal12MapEntryImplIN13assist_ranker51ExamplePreprocessorConfig_BucketizersEntry_DoNotUseENS0_11MessageLiteENSt3__112basic_stringIcNS6_11char_traitsIcEENS6_9allocatorIcEEEENS3_36ExamplePreprocessorConfig_BoundariesELNS1_14WireFormatLite9FieldTypeE9ELSF_11EE12ByteSizeLongEv to i8*), i8* bitcast (i32 (%"class.google::protobuf::internal::MapEntryImpl"*)* @_ZNK6google8protobuf8internal12MapEntryImplIN13assist_ranker51ExamplePreprocessorConfig_BucketizersEntry_DoNotUseENS0_11MessageLiteENSt3__112basic_stringIcNS6_11char_traitsIcEENS6_9allocatorIcEEEENS3_36ExamplePreprocessorConfig_BoundariesELNS1_14WireFormatLite9FieldTypeE9ELSF_11EE13GetCachedSizeEv to i8*), i8* bitcast (i8* (%"class.google::protobuf::internal::MapEntryImpl"*, i8*, %"class.google::protobuf::internal::ParseContext"*)* @_ZN6google8protobuf8internal12MapEntryImplIN13assist_ranker51ExamplePreprocessorConfig_BucketizersEntry_DoNotUseENS0_11MessageLiteENSt3__112basic_stringIcNS6_11char_traitsIcEENS6_9allocatorIcEEEENS3_36ExamplePreprocessorConfig_BoundariesELNS1_14WireFormatLite9FieldTypeE9ELSF_11EE14_InternalParseEPKcPNS1_12ParseContextE to i8*), i8* bitcast (i8* (%"class.google::protobuf::internal::MapEntryImpl"*, i8*, %"class.google::protobuf::io::EpsCopyOutputStream"*)* @_ZNK6google8protobuf8internal12MapEntryImplIN13assist_ranker51ExamplePreprocessorConfig_BucketizersEntry_DoNotUseENS0_11MessageLiteENSt3__112basic_stringIcNS6_11char_traitsIcEENS6_9allocatorIcEEEENS3_36ExamplePreprocessorConfig_BoundariesELNS1_14WireFormatLite9FieldTypeE9ELSF_11EE18_InternalSerializeEPhPNS0_2io19EpsCopyOutputStreamE to i8*), i8* bitcast (i8* (%"class.google::protobuf::MessageLite"*)* @_ZNK6google8protobuf11MessageLite16InternalGetTableEv to i8*), i8* bitcast (%"class.std::__1::basic_string"* (%"class.google::protobuf::internal::MapEntryImpl"*)* @_ZNK6google8protobuf8internal12MapEntryImplIN13assist_ranker51ExamplePreprocessorConfig_BucketizersEntry_DoNotUseENS0_11MessageLiteENSt3__112basic_stringIcNS6_11char_traitsIcEENS6_9allocatorIcEEEENS3_36ExamplePreprocessorConfig_BoundariesELNS1_14WireFormatLite9FieldTypeE9ELSF_11EE3keyEv to i8*), i8* bitcast (%"class.assist_ranker::ExamplePreprocessorConfig_Boundaries"* (%"class.google::protobuf::internal::MapEntryImpl"*)* @_ZNK6google8protobuf8internal12MapEntryImplIN13assist_ranker51ExamplePreprocessorConfig_BucketizersEntry_DoNotUseENS0_11MessageLiteENSt3__112basic_stringIcNS6_11char_traitsIcEENS6_9allocatorIcEEEENS3_36ExamplePreprocessorConfig_BoundariesELNS1_14WireFormatLite9FieldTypeE9ELSF_11EE5valueEv to i8*)] }, comdat, align 8
@_ZTVN6google8protobuf8internal12MapEntryImplIN13assist_ranker51ExamplePreprocessorConfig_BucketizersEntry_DoNotUseENS0_11MessageLiteENSt3__112basic_stringIcNS6_11char_traitsIcEENS6_9allocatorIcEEEENS3_36ExamplePreprocessorConfig_BoundariesELNS1_14WireFormatLite9FieldTypeE9ELSF_11EEE = linkonce_odr hidden unnamed_addr constant { [18 x i8*] } { [18 x i8*] [i8* null, i8* null, i8* bitcast (void (%"class.google::protobuf::internal::MapEntryImpl"*)* @_ZN6google8protobuf8internal12MapEntryImplIN13assist_ranker51ExamplePreprocessorConfig_BucketizersEntry_DoNotUseENS0_11MessageLiteENSt3__112basic_stringIcNS6_11char_traitsIcEENS6_9allocatorIcEEEENS3_36ExamplePreprocessorConfig_BoundariesELNS1_14WireFormatLite9FieldTypeE9ELSF_11EED2Ev to i8*), i8* bitcast (void (%"class.google::protobuf::internal::MapEntryImpl"*)* @_ZN6google8protobuf8internal12MapEntryImplIN13assist_ranker51ExamplePreprocessorConfig_BucketizersEntry_DoNotUseENS0_11MessageLiteENSt3__112basic_stringIcNS6_11char_traitsIcEENS6_9allocatorIcEEEENS3_36ExamplePreprocessorConfig_BoundariesELNS1_14WireFormatLite9FieldTypeE9ELSF_11EED0Ev to i8*), i8* bitcast (void (%"class.std::__1::basic_string"*, %"class.google::protobuf::internal::MapEntryImpl"*)* @_ZNK6google8protobuf8internal12MapEntryImplIN13assist_ranker51ExamplePreprocessorConfig_BucketizersEntry_DoNotUseENS0_11MessageLiteENSt3__112basic_stringIcNS6_11char_traitsIcEENS6_9allocatorIcEEEENS3_36ExamplePreprocessorConfig_BoundariesELNS1_14WireFormatLite9FieldTypeE9ELSF_11EE11GetTypeNameEv to i8*), i8* bitcast (%"class.google::protobuf::MessageLite"* (%"class.google::protobuf::internal::MapEntryImpl"*)* @_ZNK6google8protobuf8internal12MapEntryImplIN13assist_ranker51ExamplePreprocessorConfig_BucketizersEntry_DoNotUseENS0_11MessageLiteENSt3__112basic_stringIcNS6_11char_traitsIcEENS6_9allocatorIcEEEENS3_36ExamplePreprocessorConfig_BoundariesELNS1_14WireFormatLite9FieldTypeE9ELSF_11EE3NewEv to i8*), i8* bitcast (%"class.google::protobuf::MessageLite"* (%"class.google::protobuf::internal::MapEntryImpl"*, %"class.google::protobuf::Arena"*)* @_ZNK6google8protobuf8internal12MapEntryImplIN13assist_ranker51ExamplePreprocessorConfig_BucketizersEntry_DoNotUseENS0_11MessageLiteENSt3__112basic_stringIcNS6_11char_traitsIcEENS6_9allocatorIcEEEENS3_36ExamplePreprocessorConfig_BoundariesELNS1_14WireFormatLite9FieldTypeE9ELSF_11EE3NewEPNS0_5ArenaE to i8*), i8* bitcast (void (%"class.google::protobuf::internal::MapEntryImpl"*)* @_ZN6google8protobuf8internal12MapEntryImplIN13assist_ranker51ExamplePreprocessorConfig_BucketizersEntry_DoNotUseENS0_11MessageLiteENSt3__112basic_stringIcNS6_11char_traitsIcEENS6_9allocatorIcEEEENS3_36ExamplePreprocessorConfig_BoundariesELNS1_14WireFormatLite9FieldTypeE9ELSF_11EE5ClearEv to i8*), i8* bitcast (i1 (%"class.google::protobuf::internal::MapEntryImpl"*)* @_ZNK6google8protobuf8internal12MapEntryImplIN13assist_ranker51ExamplePreprocessorConfig_BucketizersEntry_DoNotUseENS0_11MessageLiteENSt3__112basic_stringIcNS6_11char_traitsIcEENS6_9allocatorIcEEEENS3_36ExamplePreprocessorConfig_BoundariesELNS1_14WireFormatLite9FieldTypeE9ELSF_11EE13IsInitializedEv to i8*), i8* bitcast (void (%"class.std::__1::basic_string"*, %"class.google::protobuf::MessageLite"*)* @_ZNK6google8protobuf11MessageLite25InitializationErrorStringEv to i8*), i8* bitcast (void (%"class.google::protobuf::internal::MapEntryImpl"*, %"class.google::protobuf::MessageLite"*)* @_ZN6google8protobuf8internal12MapEntryImplIN13assist_ranker51ExamplePreprocessorConfig_BucketizersEntry_DoNotUseENS0_11MessageLiteENSt3__112basic_stringIcNS6_11char_traitsIcEENS6_9allocatorIcEEEENS3_36ExamplePreprocessorConfig_BoundariesELNS1_14WireFormatLite9FieldTypeE9ELSF_11EE21CheckTypeAndMergeFromERKS5_ to i8*), i8* bitcast (i64 (%"class.google::protobuf::internal::MapEntryImpl"*)* @_ZNK6google8protobuf8internal12MapEntryImplIN13assist_ranker51ExamplePreprocessorConfig_BucketizersEntry_DoNotUseENS0_11MessageLiteENSt3__112basic_stringIcNS6_11char_traitsIcEENS6_9allocatorIcEEEENS3_36ExamplePreprocessorConfig_BoundariesELNS1_14WireFormatLite9FieldTypeE9ELSF_11EE12ByteSizeLongEv to i8*), i8* bitcast (i32 (%"class.google::protobuf::internal::MapEntryImpl"*)* @_ZNK6google8protobuf8internal12MapEntryImplIN13assist_ranker51ExamplePreprocessorConfig_BucketizersEntry_DoNotUseENS0_11MessageLiteENSt3__112basic_stringIcNS6_11char_traitsIcEENS6_9allocatorIcEEEENS3_36ExamplePreprocessorConfig_BoundariesELNS1_14WireFormatLite9FieldTypeE9ELSF_11EE13GetCachedSizeEv to i8*), i8* bitcast (i8* (%"class.google::protobuf::internal::MapEntryImpl"*, i8*, %"class.google::protobuf::internal::ParseContext"*)* @_ZN6google8protobuf8internal12MapEntryImplIN13assist_ranker51ExamplePreprocessorConfig_BucketizersEntry_DoNotUseENS0_11MessageLiteENSt3__112basic_stringIcNS6_11char_traitsIcEENS6_9allocatorIcEEEENS3_36ExamplePreprocessorConfig_BoundariesELNS1_14WireFormatLite9FieldTypeE9ELSF_11EE14_InternalParseEPKcPNS1_12ParseContextE to i8*), i8* bitcast (i8* (%"class.google::protobuf::internal::MapEntryImpl"*, i8*, %"class.google::protobuf::io::EpsCopyOutputStream"*)* @_ZNK6google8protobuf8internal12MapEntryImplIN13assist_ranker51ExamplePreprocessorConfig_BucketizersEntry_DoNotUseENS0_11MessageLiteENSt3__112basic_stringIcNS6_11char_traitsIcEENS6_9allocatorIcEEEENS3_36ExamplePreprocessorConfig_BoundariesELNS1_14WireFormatLite9FieldTypeE9ELSF_11EE18_InternalSerializeEPhPNS0_2io19EpsCopyOutputStreamE to i8*), i8* bitcast (i8* (%"class.google::protobuf::MessageLite"*)* @_ZNK6google8protobuf11MessageLite16InternalGetTableEv to i8*), i8* bitcast (%"class.std::__1::basic_string"* (%"class.google::protobuf::internal::MapEntryImpl"*)* @_ZNK6google8protobuf8internal12MapEntryImplIN13assist_ranker51ExamplePreprocessorConfig_BucketizersEntry_DoNotUseENS0_11MessageLiteENSt3__112basic_stringIcNS6_11char_traitsIcEENS6_9allocatorIcEEEENS3_36ExamplePreprocessorConfig_BoundariesELNS1_14WireFormatLite9FieldTypeE9ELSF_11EE3keyEv to i8*), i8* bitcast (%"class.assist_ranker::ExamplePreprocessorConfig_Boundaries"* (%"class.google::protobuf::internal::MapEntryImpl"*)* @_ZNK6google8protobuf8internal12MapEntryImplIN13assist_ranker51ExamplePreprocessorConfig_BucketizersEntry_DoNotUseENS0_11MessageLiteENSt3__112basic_stringIcNS6_11char_traitsIcEENS6_9allocatorIcEEEENS3_36ExamplePreprocessorConfig_BoundariesELNS1_14WireFormatLite9FieldTypeE9ELSF_11EE5valueEv to i8*)] }, comdat, align 8
@_ZN6google8protobuf8internal26fixed_address_empty_stringE = external global %"class.google::protobuf::internal::ExplicitlyConstructed.56", align 8
@_ZTVN6google8protobuf8internal12MapEntryLiteIN13assist_ranker54ExamplePreprocessorConfig_FeatureIndicesEntry_DoNotUseENSt3__112basic_stringIcNS5_11char_traitsIcEENS5_9allocatorIcEEEEiLNS1_14WireFormatLite9FieldTypeE9ELSD_5EEE = linkonce_odr hidden unnamed_addr constant { [18 x i8*] } { [18 x i8*] [i8* null, i8* null, i8* bitcast (void (%"class.google::protobuf::internal::MapEntryLite.17"*)* @_ZN6google8protobuf8internal12MapEntryLiteIN13assist_ranker54ExamplePreprocessorConfig_FeatureIndicesEntry_DoNotUseENSt3__112basic_stringIcNS5_11char_traitsIcEENS5_9allocatorIcEEEEiLNS1_14WireFormatLite9FieldTypeE9ELSD_5EED2Ev to i8*), i8* bitcast (void (%"class.google::protobuf::internal::MapEntryLite.17"*)* @_ZN6google8protobuf8internal12MapEntryLiteIN13assist_ranker54ExamplePreprocessorConfig_FeatureIndicesEntry_DoNotUseENSt3__112basic_stringIcNS5_11char_traitsIcEENS5_9allocatorIcEEEEiLNS1_14WireFormatLite9FieldTypeE9ELSD_5EED0Ev to i8*), i8* bitcast (void (%"class.std::__1::basic_string"*, %"class.google::protobuf::internal::MapEntryImpl.18"*)* @_ZNK6google8protobuf8internal12MapEntryImplIN13assist_ranker54ExamplePreprocessorConfig_FeatureIndicesEntry_DoNotUseENS0_11MessageLiteENSt3__112basic_stringIcNS6_11char_traitsIcEENS6_9allocatorIcEEEEiLNS1_14WireFormatLite9FieldTypeE9ELSE_5EE11GetTypeNameEv to i8*), i8* bitcast (%"class.google::protobuf::MessageLite"* (%"class.google::protobuf::internal::MapEntryImpl.18"*)* @_ZNK6google8protobuf8internal12MapEntryImplIN13assist_ranker54ExamplePreprocessorConfig_FeatureIndicesEntry_DoNotUseENS0_11MessageLiteENSt3__112basic_stringIcNS6_11char_traitsIcEENS6_9allocatorIcEEEEiLNS1_14WireFormatLite9FieldTypeE9ELSE_5EE3NewEv to i8*), i8* bitcast (%"class.google::protobuf::MessageLite"* (%"class.google::protobuf::internal::MapEntryImpl.18"*, %"class.google::protobuf::Arena"*)* @_ZNK6google8protobuf8internal12MapEntryImplIN13assist_ranker54ExamplePreprocessorConfig_FeatureIndicesEntry_DoNotUseENS0_11MessageLiteENSt3__112basic_stringIcNS6_11char_traitsIcEENS6_9allocatorIcEEEEiLNS1_14WireFormatLite9FieldTypeE9ELSE_5EE3NewEPNS0_5ArenaE to i8*), i8* bitcast (void (%"class.google::protobuf::internal::MapEntryImpl.18"*)* @_ZN6google8protobuf8internal12MapEntryImplIN13assist_ranker54ExamplePreprocessorConfig_FeatureIndicesEntry_DoNotUseENS0_11MessageLiteENSt3__112basic_stringIcNS6_11char_traitsIcEENS6_9allocatorIcEEEEiLNS1_14WireFormatLite9FieldTypeE9ELSE_5EE5ClearEv to i8*), i8* bitcast (i1 (%"class.google::protobuf::internal::MapEntryImpl.18"*)* @_ZNK6google8protobuf8internal12MapEntryImplIN13assist_ranker54ExamplePreprocessorConfig_FeatureIndicesEntry_DoNotUseENS0_11MessageLiteENSt3__112basic_stringIcNS6_11char_traitsIcEENS6_9allocatorIcEEEEiLNS1_14WireFormatLite9FieldTypeE9ELSE_5EE13IsInitializedEv to i8*), i8* bitcast (void (%"class.std::__1::basic_string"*, %"class.google::protobuf::MessageLite"*)* @_ZNK6google8protobuf11MessageLite25InitializationErrorStringEv to i8*), i8* bitcast (void (%"class.google::protobuf::internal::MapEntryImpl.18"*, %"class.google::protobuf::MessageLite"*)* @_ZN6google8protobuf8internal12MapEntryImplIN13assist_ranker54ExamplePreprocessorConfig_FeatureIndicesEntry_DoNotUseENS0_11MessageLiteENSt3__112basic_stringIcNS6_11char_traitsIcEENS6_9allocatorIcEEEEiLNS1_14WireFormatLite9FieldTypeE9ELSE_5EE21CheckTypeAndMergeFromERKS5_ to i8*), i8* bitcast (i64 (%"class.google::protobuf::internal::MapEntryImpl.18"*)* @_ZNK6google8protobuf8internal12MapEntryImplIN13assist_ranker54ExamplePreprocessorConfig_FeatureIndicesEntry_DoNotUseENS0_11MessageLiteENSt3__112basic_stringIcNS6_11char_traitsIcEENS6_9allocatorIcEEEEiLNS1_14WireFormatLite9FieldTypeE9ELSE_5EE12ByteSizeLongEv to i8*), i8* bitcast (i32 (%"class.google::protobuf::internal::MapEntryImpl.18"*)* @_ZNK6google8protobuf8internal12MapEntryImplIN13assist_ranker54ExamplePreprocessorConfig_FeatureIndicesEntry_DoNotUseENS0_11MessageLiteENSt3__112basic_stringIcNS6_11char_traitsIcEENS6_9allocatorIcEEEEiLNS1_14WireFormatLite9FieldTypeE9ELSE_5EE13GetCachedSizeEv to i8*), i8* bitcast (i8* (%"class.google::protobuf::internal::MapEntryImpl.18"*, i8*, %"class.google::protobuf::internal::ParseContext"*)* @_ZN6google8protobuf8internal12MapEntryImplIN13assist_ranker54ExamplePreprocessorConfig_FeatureIndicesEntry_DoNotUseENS0_11MessageLiteENSt3__112basic_stringIcNS6_11char_traitsIcEENS6_9allocatorIcEEEEiLNS1_14WireFormatLite9FieldTypeE9ELSE_5EE14_InternalParseEPKcPNS1_12ParseContextE to i8*), i8* bitcast (i8* (%"class.google::protobuf::internal::MapEntryImpl.18"*, i8*, %"class.google::protobuf::io::EpsCopyOutputStream"*)* @_ZNK6google8protobuf8internal12MapEntryImplIN13assist_ranker54ExamplePreprocessorConfig_FeatureIndicesEntry_DoNotUseENS0_11MessageLiteENSt3__112basic_stringIcNS6_11char_traitsIcEENS6_9allocatorIcEEEEiLNS1_14WireFormatLite9FieldTypeE9ELSE_5EE18_InternalSerializeEPhPNS0_2io19EpsCopyOutputStreamE to i8*), i8* bitcast (i8* (%"class.google::protobuf::MessageLite"*)* @_ZNK6google8protobuf11MessageLite16InternalGetTableEv to i8*), i8* bitcast (%"class.std::__1::basic_string"* (%"class.google::protobuf::internal::MapEntryImpl.18"*)* @_ZNK6google8protobuf8internal12MapEntryImplIN13assist_ranker54ExamplePreprocessorConfig_FeatureIndicesEntry_DoNotUseENS0_11MessageLiteENSt3__112basic_stringIcNS6_11char_traitsIcEENS6_9allocatorIcEEEEiLNS1_14WireFormatLite9FieldTypeE9ELSE_5EE3keyEv to i8*), i8* bitcast (i32* (%"class.google::protobuf::internal::MapEntryImpl.18"*)* @_ZNK6google8protobuf8internal12MapEntryImplIN13assist_ranker54ExamplePreprocessorConfig_FeatureIndicesEntry_DoNotUseENS0_11MessageLiteENSt3__112basic_stringIcNS6_11char_traitsIcEENS6_9allocatorIcEEEEiLNS1_14WireFormatLite9FieldTypeE9ELSE_5EE5valueEv to i8*)] }, comdat, align 8
@_ZTVN6google8protobuf8internal12MapEntryImplIN13assist_ranker54ExamplePreprocessorConfig_FeatureIndicesEntry_DoNotUseENS0_11MessageLiteENSt3__112basic_stringIcNS6_11char_traitsIcEENS6_9allocatorIcEEEEiLNS1_14WireFormatLite9FieldTypeE9ELSE_5EEE = linkonce_odr hidden unnamed_addr constant { [18 x i8*] } { [18 x i8*] [i8* null, i8* null, i8* bitcast (void (%"class.google::protobuf::internal::MapEntryImpl.18"*)* @_ZN6google8protobuf8internal12MapEntryImplIN13assist_ranker54ExamplePreprocessorConfig_FeatureIndicesEntry_DoNotUseENS0_11MessageLiteENSt3__112basic_stringIcNS6_11char_traitsIcEENS6_9allocatorIcEEEEiLNS1_14WireFormatLite9FieldTypeE9ELSE_5EED2Ev to i8*), i8* bitcast (void (%"class.google::protobuf::internal::MapEntryImpl.18"*)* @_ZN6google8protobuf8internal12MapEntryImplIN13assist_ranker54ExamplePreprocessorConfig_FeatureIndicesEntry_DoNotUseENS0_11MessageLiteENSt3__112basic_stringIcNS6_11char_traitsIcEENS6_9allocatorIcEEEEiLNS1_14WireFormatLite9FieldTypeE9ELSE_5EED0Ev to i8*), i8* bitcast (void (%"class.std::__1::basic_string"*, %"class.google::protobuf::internal::MapEntryImpl.18"*)* @_ZNK6google8protobuf8internal12MapEntryImplIN13assist_ranker54ExamplePreprocessorConfig_FeatureIndicesEntry_DoNotUseENS0_11MessageLiteENSt3__112basic_stringIcNS6_11char_traitsIcEENS6_9allocatorIcEEEEiLNS1_14WireFormatLite9FieldTypeE9ELSE_5EE11GetTypeNameEv to i8*), i8* bitcast (%"class.google::protobuf::MessageLite"* (%"class.google::protobuf::internal::MapEntryImpl.18"*)* @_ZNK6google8protobuf8internal12MapEntryImplIN13assist_ranker54ExamplePreprocessorConfig_FeatureIndicesEntry_DoNotUseENS0_11MessageLiteENSt3__112basic_stringIcNS6_11char_traitsIcEENS6_9allocatorIcEEEEiLNS1_14WireFormatLite9FieldTypeE9ELSE_5EE3NewEv to i8*), i8* bitcast (%"class.google::protobuf::MessageLite"* (%"class.google::protobuf::internal::MapEntryImpl.18"*, %"class.google::protobuf::Arena"*)* @_ZNK6google8protobuf8internal12MapEntryImplIN13assist_ranker54ExamplePreprocessorConfig_FeatureIndicesEntry_DoNotUseENS0_11MessageLiteENSt3__112basic_stringIcNS6_11char_traitsIcEENS6_9allocatorIcEEEEiLNS1_14WireFormatLite9FieldTypeE9ELSE_5EE3NewEPNS0_5ArenaE to i8*), i8* bitcast (void (%"class.google::protobuf::internal::MapEntryImpl.18"*)* @_ZN6google8protobuf8internal12MapEntryImplIN13assist_ranker54ExamplePreprocessorConfig_FeatureIndicesEntry_DoNotUseENS0_11MessageLiteENSt3__112basic_stringIcNS6_11char_traitsIcEENS6_9allocatorIcEEEEiLNS1_14WireFormatLite9FieldTypeE9ELSE_5EE5ClearEv to i8*), i8* bitcast (i1 (%"class.google::protobuf::internal::MapEntryImpl.18"*)* @_ZNK6google8protobuf8internal12MapEntryImplIN13assist_ranker54ExamplePreprocessorConfig_FeatureIndicesEntry_DoNotUseENS0_11MessageLiteENSt3__112basic_stringIcNS6_11char_traitsIcEENS6_9allocatorIcEEEEiLNS1_14WireFormatLite9FieldTypeE9ELSE_5EE13IsInitializedEv to i8*), i8* bitcast (void (%"class.std::__1::basic_string"*, %"class.google::protobuf::MessageLite"*)* @_ZNK6google8protobuf11MessageLite25InitializationErrorStringEv to i8*), i8* bitcast (void (%"class.google::protobuf::internal::MapEntryImpl.18"*, %"class.google::protobuf::MessageLite"*)* @_ZN6google8protobuf8internal12MapEntryImplIN13assist_ranker54ExamplePreprocessorConfig_FeatureIndicesEntry_DoNotUseENS0_11MessageLiteENSt3__112basic_stringIcNS6_11char_traitsIcEENS6_9allocatorIcEEEEiLNS1_14WireFormatLite9FieldTypeE9ELSE_5EE21CheckTypeAndMergeFromERKS5_ to i8*), i8* bitcast (i64 (%"class.google::protobuf::internal::MapEntryImpl.18"*)* @_ZNK6google8protobuf8internal12MapEntryImplIN13assist_ranker54ExamplePreprocessorConfig_FeatureIndicesEntry_DoNotUseENS0_11MessageLiteENSt3__112basic_stringIcNS6_11char_traitsIcEENS6_9allocatorIcEEEEiLNS1_14WireFormatLite9FieldTypeE9ELSE_5EE12ByteSizeLongEv to i8*), i8* bitcast (i32 (%"class.google::protobuf::internal::MapEntryImpl.18"*)* @_ZNK6google8protobuf8internal12MapEntryImplIN13assist_ranker54ExamplePreprocessorConfig_FeatureIndicesEntry_DoNotUseENS0_11MessageLiteENSt3__112basic_stringIcNS6_11char_traitsIcEENS6_9allocatorIcEEEEiLNS1_14WireFormatLite9FieldTypeE9ELSE_5EE13GetCachedSizeEv to i8*), i8* bitcast (i8* (%"class.google::protobuf::internal::MapEntryImpl.18"*, i8*, %"class.google::protobuf::internal::ParseContext"*)* @_ZN6google8protobuf8internal12MapEntryImplIN13assist_ranker54ExamplePreprocessorConfig_FeatureIndicesEntry_DoNotUseENS0_11MessageLiteENSt3__112basic_stringIcNS6_11char_traitsIcEENS6_9allocatorIcEEEEiLNS1_14WireFormatLite9FieldTypeE9ELSE_5EE14_InternalParseEPKcPNS1_12ParseContextE to i8*), i8* bitcast (i8* (%"class.google::protobuf::internal::MapEntryImpl.18"*, i8*, %"class.google::protobuf::io::EpsCopyOutputStream"*)* @_ZNK6google8protobuf8internal12MapEntryImplIN13assist_ranker54ExamplePreprocessorConfig_FeatureIndicesEntry_DoNotUseENS0_11MessageLiteENSt3__112basic_stringIcNS6_11char_traitsIcEENS6_9allocatorIcEEEEiLNS1_14WireFormatLite9FieldTypeE9ELSE_5EE18_InternalSerializeEPhPNS0_2io19EpsCopyOutputStreamE to i8*), i8* bitcast (i8* (%"class.google::protobuf::MessageLite"*)* @_ZNK6google8protobuf11MessageLite16InternalGetTableEv to i8*), i8* bitcast (%"class.std::__1::basic_string"* (%"class.google::protobuf::internal::MapEntryImpl.18"*)* @_ZNK6google8protobuf8internal12MapEntryImplIN13assist_ranker54ExamplePreprocessorConfig_FeatureIndicesEntry_DoNotUseENS0_11MessageLiteENSt3__112basic_stringIcNS6_11char_traitsIcEENS6_9allocatorIcEEEEiLNS1_14WireFormatLite9FieldTypeE9ELSE_5EE3keyEv to i8*), i8* bitcast (i32* (%"class.google::protobuf::internal::MapEntryImpl.18"*)* @_ZNK6google8protobuf8internal12MapEntryImplIN13assist_ranker54ExamplePreprocessorConfig_FeatureIndicesEntry_DoNotUseENS0_11MessageLiteENSt3__112basic_stringIcNS6_11char_traitsIcEENS6_9allocatorIcEEEEiLNS1_14WireFormatLite9FieldTypeE9ELSE_5EE5valueEv to i8*)] }, comdat, align 8
@_ZTVN6google8protobuf8internal12MapEntryLiteIN13assist_ranker51ExamplePreprocessorConfig_NormalizersEntry_DoNotUseENSt3__112basic_stringIcNS5_11char_traitsIcEENS5_9allocatorIcEEEEfLNS1_14WireFormatLite9FieldTypeE9ELSD_2EEE = linkonce_odr hidden unnamed_addr constant { [18 x i8*] } { [18 x i8*] [i8* null, i8* null, i8* bitcast (void (%"class.google::protobuf::internal::MapEntryLite.19"*)* @_ZN6google8protobuf8internal12MapEntryLiteIN13assist_ranker51ExamplePreprocessorConfig_NormalizersEntry_DoNotUseENSt3__112basic_stringIcNS5_11char_traitsIcEENS5_9allocatorIcEEEEfLNS1_14WireFormatLite9FieldTypeE9ELSD_2EED2Ev to i8*), i8* bitcast (void (%"class.google::protobuf::internal::MapEntryLite.19"*)* @_ZN6google8protobuf8internal12MapEntryLiteIN13assist_ranker51ExamplePreprocessorConfig_NormalizersEntry_DoNotUseENSt3__112basic_stringIcNS5_11char_traitsIcEENS5_9allocatorIcEEEEfLNS1_14WireFormatLite9FieldTypeE9ELSD_2EED0Ev to i8*), i8* bitcast (void (%"class.std::__1::basic_string"*, %"class.google::protobuf::internal::MapEntryImpl.20"*)* @_ZNK6google8protobuf8internal12MapEntryImplIN13assist_ranker51ExamplePreprocessorConfig_NormalizersEntry_DoNotUseENS0_11MessageLiteENSt3__112basic_stringIcNS6_11char_traitsIcEENS6_9allocatorIcEEEEfLNS1_14WireFormatLite9FieldTypeE9ELSE_2EE11GetTypeNameEv to i8*), i8* bitcast (%"class.google::protobuf::MessageLite"* (%"class.google::protobuf::internal::MapEntryImpl.20"*)* @_ZNK6google8protobuf8internal12MapEntryImplIN13assist_ranker51ExamplePreprocessorConfig_NormalizersEntry_DoNotUseENS0_11MessageLiteENSt3__112basic_stringIcNS6_11char_traitsIcEENS6_9allocatorIcEEEEfLNS1_14WireFormatLite9FieldTypeE9ELSE_2EE3NewEv to i8*), i8* bitcast (%"class.google::protobuf::MessageLite"* (%"class.google::protobuf::internal::MapEntryImpl.20"*, %"class.google::protobuf::Arena"*)* @_ZNK6google8protobuf8internal12MapEntryImplIN13assist_ranker51ExamplePreprocessorConfig_NormalizersEntry_DoNotUseENS0_11MessageLiteENSt3__112basic_stringIcNS6_11char_traitsIcEENS6_9allocatorIcEEEEfLNS1_14WireFormatLite9FieldTypeE9ELSE_2EE3NewEPNS0_5ArenaE to i8*), i8* bitcast (void (%"class.google::protobuf::internal::MapEntryImpl.20"*)* @_ZN6google8protobuf8internal12MapEntryImplIN13assist_ranker51ExamplePreprocessorConfig_NormalizersEntry_DoNotUseENS0_11MessageLiteENSt3__112basic_stringIcNS6_11char_traitsIcEENS6_9allocatorIcEEEEfLNS1_14WireFormatLite9FieldTypeE9ELSE_2EE5ClearEv to i8*), i8* bitcast (i1 (%"class.google::protobuf::internal::MapEntryImpl.20"*)* @_ZNK6google8protobuf8internal12MapEntryImplIN13assist_ranker51ExamplePreprocessorConfig_NormalizersEntry_DoNotUseENS0_11MessageLiteENSt3__112basic_stringIcNS6_11char_traitsIcEENS6_9allocatorIcEEEEfLNS1_14WireFormatLite9FieldTypeE9ELSE_2EE13IsInitializedEv to i8*), i8* bitcast (void (%"class.std::__1::basic_string"*, %"class.google::protobuf::MessageLite"*)* @_ZNK6google8protobuf11MessageLite25InitializationErrorStringEv to i8*), i8* bitcast (void (%"class.google::protobuf::internal::MapEntryImpl.20"*, %"class.google::protobuf::MessageLite"*)* @_ZN6google8protobuf8internal12MapEntryImplIN13assist_ranker51ExamplePreprocessorConfig_NormalizersEntry_DoNotUseENS0_11MessageLiteENSt3__112basic_stringIcNS6_11char_traitsIcEENS6_9allocatorIcEEEEfLNS1_14WireFormatLite9FieldTypeE9ELSE_2EE21CheckTypeAndMergeFromERKS5_ to i8*), i8* bitcast (i64 (%"class.google::protobuf::internal::MapEntryImpl.20"*)* @_ZNK6google8protobuf8internal12MapEntryImplIN13assist_ranker51ExamplePreprocessorConfig_NormalizersEntry_DoNotUseENS0_11MessageLiteENSt3__112basic_stringIcNS6_11char_traitsIcEENS6_9allocatorIcEEEEfLNS1_14WireFormatLite9FieldTypeE9ELSE_2EE12ByteSizeLongEv to i8*), i8* bitcast (i32 (%"class.google::protobuf::internal::MapEntryImpl.20"*)* @_ZNK6google8protobuf8internal12MapEntryImplIN13assist_ranker51ExamplePreprocessorConfig_NormalizersEntry_DoNotUseENS0_11MessageLiteENSt3__112basic_stringIcNS6_11char_traitsIcEENS6_9allocatorIcEEEEfLNS1_14WireFormatLite9FieldTypeE9ELSE_2EE13GetCachedSizeEv to i8*), i8* bitcast (i8* (%"class.google::protobuf::internal::MapEntryImpl.20"*, i8*, %"class.google::protobuf::internal::ParseContext"*)* @_ZN6google8protobuf8internal12MapEntryImplIN13assist_ranker51ExamplePreprocessorConfig_NormalizersEntry_DoNotUseENS0_11MessageLiteENSt3__112basic_stringIcNS6_11char_traitsIcEENS6_9allocatorIcEEEEfLNS1_14WireFormatLite9FieldTypeE9ELSE_2EE14_InternalParseEPKcPNS1_12ParseContextE to i8*), i8* bitcast (i8* (%"class.google::protobuf::internal::MapEntryImpl.20"*, i8*, %"class.google::protobuf::io::EpsCopyOutputStream"*)* @_ZNK6google8protobuf8internal12MapEntryImplIN13assist_ranker51ExamplePreprocessorConfig_NormalizersEntry_DoNotUseENS0_11MessageLiteENSt3__112basic_stringIcNS6_11char_traitsIcEENS6_9allocatorIcEEEEfLNS1_14WireFormatLite9FieldTypeE9ELSE_2EE18_InternalSerializeEPhPNS0_2io19EpsCopyOutputStreamE to i8*), i8* bitcast (i8* (%"class.google::protobuf::MessageLite"*)* @_ZNK6google8protobuf11MessageLite16InternalGetTableEv to i8*), i8* bitcast (%"class.std::__1::basic_string"* (%"class.google::protobuf::internal::MapEntryImpl.20"*)* @_ZNK6google8protobuf8internal12MapEntryImplIN13assist_ranker51ExamplePreprocessorConfig_NormalizersEntry_DoNotUseENS0_11MessageLiteENSt3__112basic_stringIcNS6_11char_traitsIcEENS6_9allocatorIcEEEEfLNS1_14WireFormatLite9FieldTypeE9ELSE_2EE3keyEv to i8*), i8* bitcast (float* (%"class.google::protobuf::internal::MapEntryImpl.20"*)* @_ZNK6google8protobuf8internal12MapEntryImplIN13assist_ranker51ExamplePreprocessorConfig_NormalizersEntry_DoNotUseENS0_11MessageLiteENSt3__112basic_stringIcNS6_11char_traitsIcEENS6_9allocatorIcEEEEfLNS1_14WireFormatLite9FieldTypeE9ELSE_2EE5valueEv to i8*)] }, comdat, align 8
@_ZTVN6google8protobuf8internal12MapEntryImplIN13assist_ranker51ExamplePreprocessorConfig_NormalizersEntry_DoNotUseENS0_11MessageLiteENSt3__112basic_stringIcNS6_11char_traitsIcEENS6_9allocatorIcEEEEfLNS1_14WireFormatLite9FieldTypeE9ELSE_2EEE = linkonce_odr hidden unnamed_addr constant { [18 x i8*] } { [18 x i8*] [i8* null, i8* null, i8* bitcast (void (%"class.google::protobuf::internal::MapEntryImpl.20"*)* @_ZN6google8protobuf8internal12MapEntryImplIN13assist_ranker51ExamplePreprocessorConfig_NormalizersEntry_DoNotUseENS0_11MessageLiteENSt3__112basic_stringIcNS6_11char_traitsIcEENS6_9allocatorIcEEEEfLNS1_14WireFormatLite9FieldTypeE9ELSE_2EED2Ev to i8*), i8* bitcast (void (%"class.google::protobuf::internal::MapEntryImpl.20"*)* @_ZN6google8protobuf8internal12MapEntryImplIN13assist_ranker51ExamplePreprocessorConfig_NormalizersEntry_DoNotUseENS0_11MessageLiteENSt3__112basic_stringIcNS6_11char_traitsIcEENS6_9allocatorIcEEEEfLNS1_14WireFormatLite9FieldTypeE9ELSE_2EED0Ev to i8*), i8* bitcast (void (%"class.std::__1::basic_string"*, %"class.google::protobuf::internal::MapEntryImpl.20"*)* @_ZNK6google8protobuf8internal12MapEntryImplIN13assist_ranker51ExamplePreprocessorConfig_NormalizersEntry_DoNotUseENS0_11MessageLiteENSt3__112basic_stringIcNS6_11char_traitsIcEENS6_9allocatorIcEEEEfLNS1_14WireFormatLite9FieldTypeE9ELSE_2EE11GetTypeNameEv to i8*), i8* bitcast (%"class.google::protobuf::MessageLite"* (%"class.google::protobuf::internal::MapEntryImpl.20"*)* @_ZNK6google8protobuf8internal12MapEntryImplIN13assist_ranker51ExamplePreprocessorConfig_NormalizersEntry_DoNotUseENS0_11MessageLiteENSt3__112basic_stringIcNS6_11char_traitsIcEENS6_9allocatorIcEEEEfLNS1_14WireFormatLite9FieldTypeE9ELSE_2EE3NewEv to i8*), i8* bitcast (%"class.google::protobuf::MessageLite"* (%"class.google::protobuf::internal::MapEntryImpl.20"*, %"class.google::protobuf::Arena"*)* @_ZNK6google8protobuf8internal12MapEntryImplIN13assist_ranker51ExamplePreprocessorConfig_NormalizersEntry_DoNotUseENS0_11MessageLiteENSt3__112basic_stringIcNS6_11char_traitsIcEENS6_9allocatorIcEEEEfLNS1_14WireFormatLite9FieldTypeE9ELSE_2EE3NewEPNS0_5ArenaE to i8*), i8* bitcast (void (%"class.google::protobuf::internal::MapEntryImpl.20"*)* @_ZN6google8protobuf8internal12MapEntryImplIN13assist_ranker51ExamplePreprocessorConfig_NormalizersEntry_DoNotUseENS0_11MessageLiteENSt3__112basic_stringIcNS6_11char_traitsIcEENS6_9allocatorIcEEEEfLNS1_14WireFormatLite9FieldTypeE9ELSE_2EE5ClearEv to i8*), i8* bitcast (i1 (%"class.google::protobuf::internal::MapEntryImpl.20"*)* @_ZNK6google8protobuf8internal12MapEntryImplIN13assist_ranker51ExamplePreprocessorConfig_NormalizersEntry_DoNotUseENS0_11MessageLiteENSt3__112basic_stringIcNS6_11char_traitsIcEENS6_9allocatorIcEEEEfLNS1_14WireFormatLite9FieldTypeE9ELSE_2EE13IsInitializedEv to i8*), i8* bitcast (void (%"class.std::__1::basic_string"*, %"class.google::protobuf::MessageLite"*)* @_ZNK6google8protobuf11MessageLite25InitializationErrorStringEv to i8*), i8* bitcast (void (%"class.google::protobuf::internal::MapEntryImpl.20"*, %"class.google::protobuf::MessageLite"*)* @_ZN6google8protobuf8internal12MapEntryImplIN13assist_ranker51ExamplePreprocessorConfig_NormalizersEntry_DoNotUseENS0_11MessageLiteENSt3__112basic_stringIcNS6_11char_traitsIcEENS6_9allocatorIcEEEEfLNS1_14WireFormatLite9FieldTypeE9ELSE_2EE21CheckTypeAndMergeFromERKS5_ to i8*), i8* bitcast (i64 (%"class.google::protobuf::internal::MapEntryImpl.20"*)* @_ZNK6google8protobuf8internal12MapEntryImplIN13assist_ranker51ExamplePreprocessorConfig_NormalizersEntry_DoNotUseENS0_11MessageLiteENSt3__112basic_stringIcNS6_11char_traitsIcEENS6_9allocatorIcEEEEfLNS1_14WireFormatLite9FieldTypeE9ELSE_2EE12ByteSizeLongEv to i8*), i8* bitcast (i32 (%"class.google::protobuf::internal::MapEntryImpl.20"*)* @_ZNK6google8protobuf8internal12MapEntryImplIN13assist_ranker51ExamplePreprocessorConfig_NormalizersEntry_DoNotUseENS0_11MessageLiteENSt3__112basic_stringIcNS6_11char_traitsIcEENS6_9allocatorIcEEEEfLNS1_14WireFormatLite9FieldTypeE9ELSE_2EE13GetCachedSizeEv to i8*), i8* bitcast (i8* (%"class.google::protobuf::internal::MapEntryImpl.20"*, i8*, %"class.google::protobuf::internal::ParseContext"*)* @_ZN6google8protobuf8internal12MapEntryImplIN13assist_ranker51ExamplePreprocessorConfig_NormalizersEntry_DoNotUseENS0_11MessageLiteENSt3__112basic_stringIcNS6_11char_traitsIcEENS6_9allocatorIcEEEEfLNS1_14WireFormatLite9FieldTypeE9ELSE_2EE14_InternalParseEPKcPNS1_12ParseContextE to i8*), i8* bitcast (i8* (%"class.google::protobuf::internal::MapEntryImpl.20"*, i8*, %"class.google::protobuf::io::EpsCopyOutputStream"*)* @_ZNK6google8protobuf8internal12MapEntryImplIN13assist_ranker51ExamplePreprocessorConfig_NormalizersEntry_DoNotUseENS0_11MessageLiteENSt3__112basic_stringIcNS6_11char_traitsIcEENS6_9allocatorIcEEEEfLNS1_14WireFormatLite9FieldTypeE9ELSE_2EE18_InternalSerializeEPhPNS0_2io19EpsCopyOutputStreamE to i8*), i8* bitcast (i8* (%"class.google::protobuf::MessageLite"*)* @_ZNK6google8protobuf11MessageLite16InternalGetTableEv to i8*), i8* bitcast (%"class.std::__1::basic_string"* (%"class.google::protobuf::internal::MapEntryImpl.20"*)* @_ZNK6google8protobuf8internal12MapEntryImplIN13assist_ranker51ExamplePreprocessorConfig_NormalizersEntry_DoNotUseENS0_11MessageLiteENSt3__112basic_stringIcNS6_11char_traitsIcEENS6_9allocatorIcEEEEfLNS1_14WireFormatLite9FieldTypeE9ELSE_2EE3keyEv to i8*), i8* bitcast (float* (%"class.google::protobuf::internal::MapEntryImpl.20"*)* @_ZNK6google8protobuf8internal12MapEntryImplIN13assist_ranker51ExamplePreprocessorConfig_NormalizersEntry_DoNotUseENS0_11MessageLiteENSt3__112basic_stringIcNS6_11char_traitsIcEENS6_9allocatorIcEEEEfLNS1_14WireFormatLite9FieldTypeE9ELSE_2EE5valueEv to i8*)] }, comdat, align 8
@_ZN6google8protobuf8internal17kGlobalEmptyTableE = external constant [1 x i8*], align 8

@_ZN13assist_ranker36ExamplePreprocessorConfig_BoundariesC1EPN6google8protobuf5ArenaE = hidden unnamed_addr alias void (%"class.assist_ranker::ExamplePreprocessorConfig_Boundaries"*, %"class.google::protobuf::Arena"*), void (%"class.assist_ranker::ExamplePreprocessorConfig_Boundaries"*, %"class.google::protobuf::Arena"*)* @_ZN13assist_ranker36ExamplePreprocessorConfig_BoundariesC2EPN6google8protobuf5ArenaE
@_ZN13assist_ranker36ExamplePreprocessorConfig_BoundariesC1ERKS0_ = hidden unnamed_addr alias void (%"class.assist_ranker::ExamplePreprocessorConfig_Boundaries"*, %"class.assist_ranker::ExamplePreprocessorConfig_Boundaries"*), void (%"class.assist_ranker::ExamplePreprocessorConfig_Boundaries"*, %"class.assist_ranker::ExamplePreprocessorConfig_Boundaries"*)* @_ZN13assist_ranker36ExamplePreprocessorConfig_BoundariesC2ERKS0_
@_ZN13assist_ranker36ExamplePreprocessorConfig_BoundariesD1Ev = hidden unnamed_addr alias void (%"class.assist_ranker::ExamplePreprocessorConfig_Boundaries"*), void (%"class.assist_ranker::ExamplePreprocessorConfig_Boundaries"*)* @_ZN13assist_ranker36ExamplePreprocessorConfig_BoundariesD2Ev
@_ZN13assist_ranker51ExamplePreprocessorConfig_BucketizersEntry_DoNotUseC1Ev = hidden unnamed_addr alias void (%"class.assist_ranker::ExamplePreprocessorConfig_BucketizersEntry_DoNotUse"*), void (%"class.assist_ranker::ExamplePreprocessorConfig_BucketizersEntry_DoNotUse"*)* @_ZN13assist_ranker51ExamplePreprocessorConfig_BucketizersEntry_DoNotUseC2Ev
@_ZN13assist_ranker51ExamplePreprocessorConfig_BucketizersEntry_DoNotUseC1EPN6google8protobuf5ArenaE = hidden unnamed_addr alias void (%"class.assist_ranker::ExamplePreprocessorConfig_BucketizersEntry_DoNotUse"*, %"class.google::protobuf::Arena"*), void (%"class.assist_ranker::ExamplePreprocessorConfig_BucketizersEntry_DoNotUse"*, %"class.google::protobuf::Arena"*)* @_ZN13assist_ranker51ExamplePreprocessorConfig_BucketizersEntry_DoNotUseC2EPN6google8protobuf5ArenaE
@_ZN13assist_ranker54ExamplePreprocessorConfig_FeatureIndicesEntry_DoNotUseC1Ev = hidden unnamed_addr alias void (%"class.assist_ranker::ExamplePreprocessorConfig_FeatureIndicesEntry_DoNotUse"*), void (%"class.assist_ranker::ExamplePreprocessorConfig_FeatureIndicesEntry_DoNotUse"*)* @_ZN13assist_ranker54ExamplePreprocessorConfig_FeatureIndicesEntry_DoNotUseC2Ev
@_ZN13assist_ranker54ExamplePreprocessorConfig_FeatureIndicesEntry_DoNotUseC1EPN6google8protobuf5ArenaE = hidden unnamed_addr alias void (%"class.assist_ranker::ExamplePreprocessorConfig_FeatureIndicesEntry_DoNotUse"*, %"class.google::protobuf::Arena"*), void (%"class.assist_ranker::ExamplePreprocessorConfig_FeatureIndicesEntry_DoNotUse"*, %"class.google::protobuf::Arena"*)* @_ZN13assist_ranker54ExamplePreprocessorConfig_FeatureIndicesEntry_DoNotUseC2EPN6google8protobuf5ArenaE
@_ZN13assist_ranker51ExamplePreprocessorConfig_NormalizersEntry_DoNotUseC1Ev = hidden unnamed_addr alias void (%"class.assist_ranker::ExamplePreprocessorConfig_NormalizersEntry_DoNotUse"*), void (%"class.assist_ranker::ExamplePreprocessorConfig_NormalizersEntry_DoNotUse"*)* @_ZN13assist_ranker51ExamplePreprocessorConfig_NormalizersEntry_DoNotUseC2Ev
@_ZN13assist_ranker51ExamplePreprocessorConfig_NormalizersEntry_DoNotUseC1EPN6google8protobuf5ArenaE = hidden unnamed_addr alias void (%"class.assist_ranker::ExamplePreprocessorConfig_NormalizersEntry_DoNotUse"*, %"class.google::protobuf::Arena"*), void (%"class.assist_ranker::ExamplePreprocessorConfig_NormalizersEntry_DoNotUse"*, %"class.google::protobuf::Arena"*)* @_ZN13assist_ranker51ExamplePreprocessorConfig_NormalizersEntry_DoNotUseC2EPN6google8protobuf5ArenaE
@_ZN13assist_ranker25ExamplePreprocessorConfigC1EPN6google8protobuf5ArenaE = hidden unnamed_addr alias void (%"class.assist_ranker::ExamplePreprocessorConfig"*, %"class.google::protobuf::Arena"*), void (%"class.assist_ranker::ExamplePreprocessorConfig"*, %"class.google::protobuf::Arena"*)* @_ZN13assist_ranker25ExamplePreprocessorConfigC2EPN6google8protobuf5ArenaE
@_ZN13assist_ranker25ExamplePreprocessorConfigC1ERKS0_ = hidden unnamed_addr alias void (%"class.assist_ranker::ExamplePreprocessorConfig"*, %"class.assist_ranker::ExamplePreprocessorConfig"*), void (%"class.assist_ranker::ExamplePreprocessorConfig"*, %"class.assist_ranker::ExamplePreprocessorConfig"*)* @_ZN13assist_ranker25ExamplePreprocessorConfigC2ERKS0_
@_ZN13assist_ranker25ExamplePreprocessorConfigD1Ev = hidden unnamed_addr alias void (%"class.assist_ranker::ExamplePreprocessorConfig"*), void (%"class.assist_ranker::ExamplePreprocessorConfig"*)* @_ZN13assist_ranker25ExamplePreprocessorConfigD2Ev

; Function Attrs: nounwind ssp uwtable
define internal void @_ZL77InitDefaultsscc_info_ExamplePreprocessorConfig_example_5fpreprocessor_2eprotov() #0 {
  tail call void @_ZN6google8protobuf8internal13VerifyVersionEiiPKc(i32 3013000, i32 3013000, i8* getelementptr inbounds ([62 x i8], [62 x i8]* @.str, i64 0, i64 0)) #15
  tail call void @_ZN13assist_ranker25ExamplePreprocessorConfigC2EPN6google8protobuf5ArenaE(%"class.assist_ranker::ExamplePreprocessorConfig"* bitcast (%"class.assist_ranker::ExamplePreprocessorConfigDefaultTypeInternal"* @_ZN13assist_ranker44_ExamplePreprocessorConfig_default_instance_E to %"class.assist_ranker::ExamplePreprocessorConfig"*), %"class.google::protobuf::Arena"* null) #15
  tail call void @_ZN6google8protobuf8internal13OnShutdownRunEPFvPKvES3_(void (i8*)* nonnull @_ZN6google8protobuf8internal14DestroyMessageEPKv, i8* bitcast (%"class.assist_ranker::ExamplePreprocessorConfigDefaultTypeInternal"* @_ZN13assist_ranker44_ExamplePreprocessorConfig_default_instance_E to i8*)) #15
  ret void
}

; Function Attrs: nounwind ssp uwtable
define internal void @_ZL88InitDefaultsscc_info_ExamplePreprocessorConfig_Boundaries_example_5fpreprocessor_2eprotov() #0 {
  tail call void @_ZN6google8protobuf8internal13VerifyVersionEiiPKc(i32 3013000, i32 3013000, i8* getelementptr inbounds ([62 x i8], [62 x i8]* @.str, i64 0, i64 0)) #15
  store %"class.google::protobuf::Arena"* null, %"class.google::protobuf::Arena"** bitcast (i8* getelementptr inbounds (%"class.assist_ranker::ExamplePreprocessorConfig_BoundariesDefaultTypeInternal", %"class.assist_ranker::ExamplePreprocessorConfig_BoundariesDefaultTypeInternal"* @_ZN13assist_ranker55_ExamplePreprocessorConfig_Boundaries_default_instance_E, i64 0, i32 0, i32 0, i32 1, i64 0) to %"class.google::protobuf::Arena"**), align 8
  store i32 (...)** bitcast (i8** getelementptr inbounds ({ [16 x i8*] }, { [16 x i8*] }* @_ZTVN13assist_ranker36ExamplePreprocessorConfig_BoundariesE, i64 0, inrange i32 0, i64 2) to i32 (...)**), i32 (...)*** bitcast (%"class.assist_ranker::ExamplePreprocessorConfig_BoundariesDefaultTypeInternal"* @_ZN13assist_ranker55_ExamplePreprocessorConfig_Boundaries_default_instance_E to i32 (...)***), align 8
  tail call void @llvm.memset.p0i8.i64(i8* align 8 getelementptr inbounds (%"class.assist_ranker::ExamplePreprocessorConfig_BoundariesDefaultTypeInternal", %"class.assist_ranker::ExamplePreprocessorConfig_BoundariesDefaultTypeInternal"* @_ZN13assist_ranker55_ExamplePreprocessorConfig_Boundaries_default_instance_E, i64 0, i32 0, i32 0, i32 1, i64 8), i8 0, i64 20, i1 false) #15
  tail call void @_ZN6google8protobuf8internal13OnShutdownRunEPFvPKvES3_(void (i8*)* nonnull @_ZN6google8protobuf8internal14DestroyMessageEPKv, i8* bitcast (%"class.assist_ranker::ExamplePreprocessorConfig_BoundariesDefaultTypeInternal"* @_ZN13assist_ranker55_ExamplePreprocessorConfig_Boundaries_default_instance_E to i8*)) #15
  ret void
}

; Function Attrs: nounwind ssp uwtable
define internal void @_ZL103InitDefaultsscc_info_ExamplePreprocessorConfig_BucketizersEntry_DoNotUse_example_5fpreprocessor_2eprotov() #0 {
  tail call void @_ZN6google8protobuf8internal13VerifyVersionEiiPKc(i32 3013000, i32 3013000, i8* getelementptr inbounds ([62 x i8], [62 x i8]* @.str, i64 0, i64 0)) #15
  store i8* null, i8** bitcast (i8* getelementptr inbounds (%"class.assist_ranker::ExamplePreprocessorConfig_BucketizersEntry_DoNotUseDefaultTypeInternal", %"class.assist_ranker::ExamplePreprocessorConfig_BucketizersEntry_DoNotUseDefaultTypeInternal"* @_ZN13assist_ranker70_ExamplePreprocessorConfig_BucketizersEntry_DoNotUse_default_instance_E, i64 0, i32 0, i32 0, i32 1, i64 0) to i8**), align 8
  store %"class.std::__1::basic_string"* bitcast (%"class.google::protobuf::internal::ExplicitlyConstructed.56"* @_ZN6google8protobuf8internal26fixed_address_empty_stringE to %"class.std::__1::basic_string"*), %"class.std::__1::basic_string"** bitcast (i8* getelementptr inbounds (%"class.assist_ranker::ExamplePreprocessorConfig_BucketizersEntry_DoNotUseDefaultTypeInternal", %"class.assist_ranker::ExamplePreprocessorConfig_BucketizersEntry_DoNotUseDefaultTypeInternal"* @_ZN13assist_ranker70_ExamplePreprocessorConfig_BucketizersEntry_DoNotUse_default_instance_E, i64 0, i32 0, i32 0, i32 1, i64 8) to %"class.std::__1::basic_string"**), align 8
  store %"class.assist_ranker::ExamplePreprocessorConfig_Boundaries"* null, %"class.assist_ranker::ExamplePreprocessorConfig_Boundaries"** bitcast (i8* getelementptr inbounds (%"class.assist_ranker::ExamplePreprocessorConfig_BucketizersEntry_DoNotUseDefaultTypeInternal", %"class.assist_ranker::ExamplePreprocessorConfig_BucketizersEntry_DoNotUseDefaultTypeInternal"* @_ZN13assist_ranker70_ExamplePreprocessorConfig_BucketizersEntry_DoNotUse_default_instance_E, i64 0, i32 0, i32 0, i32 1, i64 16) to %"class.assist_ranker::ExamplePreprocessorConfig_Boundaries"**), align 8
  store i32 0, i32* bitcast (i8* getelementptr inbounds (%"class.assist_ranker::ExamplePreprocessorConfig_BucketizersEntry_DoNotUseDefaultTypeInternal", %"class.assist_ranker::ExamplePreprocessorConfig_BucketizersEntry_DoNotUseDefaultTypeInternal"* @_ZN13assist_ranker70_ExamplePreprocessorConfig_BucketizersEntry_DoNotUse_default_instance_E, i64 0, i32 0, i32 0, i32 1, i64 24) to i32*), align 8
  store i32 (...)** bitcast (i8** getelementptr inbounds ({ [18 x i8*] }, { [18 x i8*] }* @_ZTVN13assist_ranker51ExamplePreprocessorConfig_BucketizersEntry_DoNotUseE, i64 0, inrange i32 0, i64 2) to i32 (...)**), i32 (...)*** bitcast (%"class.assist_ranker::ExamplePreprocessorConfig_BucketizersEntry_DoNotUseDefaultTypeInternal"* @_ZN13assist_ranker70_ExamplePreprocessorConfig_BucketizersEntry_DoNotUse_default_instance_E to i32 (...)***), align 8
  ret void
}

; Function Attrs: nounwind ssp uwtable
define internal void @_ZL106InitDefaultsscc_info_ExamplePreprocessorConfig_FeatureIndicesEntry_DoNotUse_example_5fpreprocessor_2eprotov() #0 {
  tail call void @_ZN6google8protobuf8internal13VerifyVersionEiiPKc(i32 3013000, i32 3013000, i8* getelementptr inbounds ([62 x i8], [62 x i8]* @.str, i64 0, i64 0)) #15
  store i8* null, i8** bitcast (i8* getelementptr inbounds (%"class.assist_ranker::ExamplePreprocessorConfig_FeatureIndicesEntry_DoNotUseDefaultTypeInternal", %"class.assist_ranker::ExamplePreprocessorConfig_FeatureIndicesEntry_DoNotUseDefaultTypeInternal"* @_ZN13assist_ranker73_ExamplePreprocessorConfig_FeatureIndicesEntry_DoNotUse_default_instance_E, i64 0, i32 0, i32 0, i32 1, i64 0) to i8**), align 8
  store %"class.std::__1::basic_string"* bitcast (%"class.google::protobuf::internal::ExplicitlyConstructed.56"* @_ZN6google8protobuf8internal26fixed_address_empty_stringE to %"class.std::__1::basic_string"*), %"class.std::__1::basic_string"** bitcast (i8* getelementptr inbounds (%"class.assist_ranker::ExamplePreprocessorConfig_FeatureIndicesEntry_DoNotUseDefaultTypeInternal", %"class.assist_ranker::ExamplePreprocessorConfig_FeatureIndicesEntry_DoNotUseDefaultTypeInternal"* @_ZN13assist_ranker73_ExamplePreprocessorConfig_FeatureIndicesEntry_DoNotUse_default_instance_E, i64 0, i32 0, i32 0, i32 1, i64 8) to %"class.std::__1::basic_string"**), align 8
  store i32 0, i32* bitcast (i8* getelementptr inbounds (%"class.assist_ranker::ExamplePreprocessorConfig_FeatureIndicesEntry_DoNotUseDefaultTypeInternal", %"class.assist_ranker::ExamplePreprocessorConfig_FeatureIndicesEntry_DoNotUseDefaultTypeInternal"* @_ZN13assist_ranker73_ExamplePreprocessorConfig_FeatureIndicesEntry_DoNotUse_default_instance_E, i64 0, i32 0, i32 0, i32 1, i64 16) to i32*), align 8
  store i32 0, i32* bitcast (i8* getelementptr inbounds (%"class.assist_ranker::ExamplePreprocessorConfig_FeatureIndicesEntry_DoNotUseDefaultTypeInternal", %"class.assist_ranker::ExamplePreprocessorConfig_FeatureIndicesEntry_DoNotUseDefaultTypeInternal"* @_ZN13assist_ranker73_ExamplePreprocessorConfig_FeatureIndicesEntry_DoNotUse_default_instance_E, i64 0, i32 0, i32 0, i32 1, i64 20) to i32*), align 4
  store i32 (...)** bitcast (i8** getelementptr inbounds ({ [18 x i8*] }, { [18 x i8*] }* @_ZTVN13assist_ranker54ExamplePreprocessorConfig_FeatureIndicesEntry_DoNotUseE, i64 0, inrange i32 0, i64 2) to i32 (...)**), i32 (...)*** bitcast (%"class.assist_ranker::ExamplePreprocessorConfig_FeatureIndicesEntry_DoNotUseDefaultTypeInternal"* @_ZN13assist_ranker73_ExamplePreprocessorConfig_FeatureIndicesEntry_DoNotUse_default_instance_E to i32 (...)***), align 8
  ret void
}

; Function Attrs: nounwind ssp uwtable
define internal void @_ZL103InitDefaultsscc_info_ExamplePreprocessorConfig_NormalizersEntry_DoNotUse_example_5fpreprocessor_2eprotov() #0 {
  tail call void @_ZN6google8protobuf8internal13VerifyVersionEiiPKc(i32 3013000, i32 3013000, i8* getelementptr inbounds ([62 x i8], [62 x i8]* @.str, i64 0, i64 0)) #15
  store i8* null, i8** bitcast (i8* getelementptr inbounds (%"class.assist_ranker::ExamplePreprocessorConfig_NormalizersEntry_DoNotUseDefaultTypeInternal", %"class.assist_ranker::ExamplePreprocessorConfig_NormalizersEntry_DoNotUseDefaultTypeInternal"* @_ZN13assist_ranker70_ExamplePreprocessorConfig_NormalizersEntry_DoNotUse_default_instance_E, i64 0, i32 0, i32 0, i32 1, i64 0) to i8**), align 8
  store %"class.std::__1::basic_string"* bitcast (%"class.google::protobuf::internal::ExplicitlyConstructed.56"* @_ZN6google8protobuf8internal26fixed_address_empty_stringE to %"class.std::__1::basic_string"*), %"class.std::__1::basic_string"** bitcast (i8* getelementptr inbounds (%"class.assist_ranker::ExamplePreprocessorConfig_NormalizersEntry_DoNotUseDefaultTypeInternal", %"class.assist_ranker::ExamplePreprocessorConfig_NormalizersEntry_DoNotUseDefaultTypeInternal"* @_ZN13assist_ranker70_ExamplePreprocessorConfig_NormalizersEntry_DoNotUse_default_instance_E, i64 0, i32 0, i32 0, i32 1, i64 8) to %"class.std::__1::basic_string"**), align 8
  store float 0.000000e+00, float* bitcast (i8* getelementptr inbounds (%"class.assist_ranker::ExamplePreprocessorConfig_NormalizersEntry_DoNotUseDefaultTypeInternal", %"class.assist_ranker::ExamplePreprocessorConfig_NormalizersEntry_DoNotUseDefaultTypeInternal"* @_ZN13assist_ranker70_ExamplePreprocessorConfig_NormalizersEntry_DoNotUse_default_instance_E, i64 0, i32 0, i32 0, i32 1, i64 16) to float*), align 8
  store i32 0, i32* bitcast (i8* getelementptr inbounds (%"class.assist_ranker::ExamplePreprocessorConfig_NormalizersEntry_DoNotUseDefaultTypeInternal", %"class.assist_ranker::ExamplePreprocessorConfig_NormalizersEntry_DoNotUseDefaultTypeInternal"* @_ZN13assist_ranker70_ExamplePreprocessorConfig_NormalizersEntry_DoNotUse_default_instance_E, i64 0, i32 0, i32 0, i32 1, i64 20) to i32*), align 4
  store i32 (...)** bitcast (i8** getelementptr inbounds ({ [18 x i8*] }, { [18 x i8*] }* @_ZTVN13assist_ranker51ExamplePreprocessorConfig_NormalizersEntry_DoNotUseE, i64 0, inrange i32 0, i64 2) to i32 (...)**), i32 (...)*** bitcast (%"class.assist_ranker::ExamplePreprocessorConfig_NormalizersEntry_DoNotUseDefaultTypeInternal"* @_ZN13assist_ranker70_ExamplePreprocessorConfig_NormalizersEntry_DoNotUse_default_instance_E to i32 (...)***), align 8
  ret void
}

; Function Attrs: nofree norecurse nounwind ssp uwtable writeonly
define hidden void @_ZN13assist_ranker36ExamplePreprocessorConfig_BoundariesC2EPN6google8protobuf5ArenaE(%"class.assist_ranker::ExamplePreprocessorConfig_Boundaries"* nocapture, %"class.google::protobuf::Arena"*) unnamed_addr #1 align 2 {
  %3 = getelementptr inbounds %"class.assist_ranker::ExamplePreprocessorConfig_Boundaries", %"class.assist_ranker::ExamplePreprocessorConfig_Boundaries"* %0, i64 0, i32 0, i32 0
  %4 = getelementptr inbounds %"class.assist_ranker::ExamplePreprocessorConfig_Boundaries", %"class.assist_ranker::ExamplePreprocessorConfig_Boundaries"* %0, i64 0, i32 0, i32 1
  %5 = bitcast %"class.google::protobuf::internal::InternalMetadata"* %4 to %"class.google::protobuf::Arena"**
  store %"class.google::protobuf::Arena"* %1, %"class.google::protobuf::Arena"** %5, align 8
  store i32 (...)** bitcast (i8** getelementptr inbounds ({ [16 x i8*] }, { [16 x i8*] }* @_ZTVN13assist_ranker36ExamplePreprocessorConfig_BoundariesE, i64 0, inrange i32 0, i64 2) to i32 (...)**), i32 (...)*** %3, align 8
  %6 = getelementptr inbounds %"class.assist_ranker::ExamplePreprocessorConfig_Boundaries", %"class.assist_ranker::ExamplePreprocessorConfig_Boundaries"* %0, i64 0, i32 1, i32 0
  store i32 0, i32* %6, align 8
  %7 = getelementptr inbounds %"class.assist_ranker::ExamplePreprocessorConfig_Boundaries", %"class.assist_ranker::ExamplePreprocessorConfig_Boundaries"* %0, i64 0, i32 1, i32 1
  store i32 0, i32* %7, align 4
  %8 = getelementptr inbounds %"class.assist_ranker::ExamplePreprocessorConfig_Boundaries", %"class.assist_ranker::ExamplePreprocessorConfig_Boundaries"* %0, i64 0, i32 1, i32 2
  %9 = bitcast i8** %8 to %"class.google::protobuf::Arena"**
  store %"class.google::protobuf::Arena"* %1, %"class.google::protobuf::Arena"** %9, align 8
  %10 = getelementptr inbounds %"class.assist_ranker::ExamplePreprocessorConfig_Boundaries", %"class.assist_ranker::ExamplePreprocessorConfig_Boundaries"* %0, i64 0, i32 2, i32 0, i32 0, i32 0, i32 0, i32 0, i32 0
  store i32 0, i32* %10, align 4
  ret void
}

; Function Attrs: nounwind ssp uwtable
define hidden void @_ZN13assist_ranker36ExamplePreprocessorConfig_BoundariesC2ERKS0_(%"class.assist_ranker::ExamplePreprocessorConfig_Boundaries"*, %"class.assist_ranker::ExamplePreprocessorConfig_Boundaries"* nocapture readonly dereferenceable(40)) unnamed_addr #0 align 2 {
  %3 = getelementptr inbounds %"class.assist_ranker::ExamplePreprocessorConfig_Boundaries", %"class.assist_ranker::ExamplePreprocessorConfig_Boundaries"* %0, i64 0, i32 0, i32 0
  %4 = getelementptr inbounds %"class.assist_ranker::ExamplePreprocessorConfig_Boundaries", %"class.assist_ranker::ExamplePreprocessorConfig_Boundaries"* %0, i64 0, i32 0, i32 1, i32 0
  store i8* null, i8** %4, align 8
  store i32 (...)** bitcast (i8** getelementptr inbounds ({ [16 x i8*] }, { [16 x i8*] }* @_ZTVN13assist_ranker36ExamplePreprocessorConfig_BoundariesE, i64 0, inrange i32 0, i64 2) to i32 (...)**), i32 (...)*** %3, align 8
  %5 = getelementptr inbounds %"class.assist_ranker::ExamplePreprocessorConfig_Boundaries", %"class.assist_ranker::ExamplePreprocessorConfig_Boundaries"* %0, i64 0, i32 1
  %6 = getelementptr inbounds %"class.google::protobuf::RepeatedField", %"class.google::protobuf::RepeatedField"* %5, i64 0, i32 0
  %7 = getelementptr inbounds %"class.assist_ranker::ExamplePreprocessorConfig_Boundaries", %"class.assist_ranker::ExamplePreprocessorConfig_Boundaries"* %1, i64 0, i32 1, i32 0
  %8 = bitcast %"class.google::protobuf::RepeatedField"* %5 to i8*
  tail call void @llvm.memset.p0i8.i64(i8* align 8 %8, i8 0, i64 16, i1 false) #15
  %9 = load i32, i32* %7, align 8
  %10 = icmp eq i32 %9, 0
  br i1 %10, label %22, label %11

11:                                               ; preds = %2
  %12 = getelementptr inbounds %"class.assist_ranker::ExamplePreprocessorConfig_Boundaries", %"class.assist_ranker::ExamplePreprocessorConfig_Boundaries"* %0, i64 0, i32 1, i32 2
  tail call void @_ZN6google8protobuf13RepeatedFieldIfE7ReserveEi(%"class.google::protobuf::RepeatedField"* %5, i32 %9) #15
  %13 = load i32, i32* %7, align 8
  %14 = load i8*, i8** %12, align 8
  %15 = load i32, i32* %6, align 8
  %16 = add nsw i32 %15, %13
  store i32 %16, i32* %6, align 8
  %17 = getelementptr inbounds %"class.assist_ranker::ExamplePreprocessorConfig_Boundaries", %"class.assist_ranker::ExamplePreprocessorConfig_Boundaries"* %1, i64 0, i32 1, i32 2
  %18 = load i8*, i8** %17, align 8
  %19 = load i32, i32* %7, align 8
  %20 = sext i32 %19 to i64
  %21 = shl nsw i64 %20, 2
  tail call void @llvm.memcpy.p0i8.p0i8.i64(i8* align 4 %14, i8* align 4 %18, i64 %21, i1 false) #15
  br label %22

22:                                               ; preds = %2, %11
  %23 = getelementptr inbounds %"class.assist_ranker::ExamplePreprocessorConfig_Boundaries", %"class.assist_ranker::ExamplePreprocessorConfig_Boundaries"* %0, i64 0, i32 2, i32 0, i32 0, i32 0, i32 0, i32 0, i32 0
  store i32 0, i32* %23, align 4
  %24 = getelementptr inbounds %"class.assist_ranker::ExamplePreprocessorConfig_Boundaries", %"class.assist_ranker::ExamplePreprocessorConfig_Boundaries"* %0, i64 0, i32 0, i32 1
  %25 = getelementptr inbounds %"class.assist_ranker::ExamplePreprocessorConfig_Boundaries", %"class.assist_ranker::ExamplePreprocessorConfig_Boundaries"* %1, i64 0, i32 0, i32 1
  %26 = bitcast %"class.google::protobuf::internal::InternalMetadata"* %25 to i64*
  %27 = load i64, i64* %26, align 8
  %28 = and i64 %27, 1
  %29 = icmp eq i64 %28, 0
  br i1 %29, label %59, label %30

30:                                               ; preds = %22
  %31 = and i64 %27, -2
  %32 = inttoptr i64 %31 to %"struct.google::protobuf::internal::InternalMetadata::Container"*
  %33 = getelementptr inbounds %"struct.google::protobuf::internal::InternalMetadata::Container", %"struct.google::protobuf::internal::InternalMetadata::Container"* %32, i64 0, i32 1
  %34 = bitcast %"class.google::protobuf::internal::InternalMetadata"* %24 to i64*
  %35 = load i64, i64* %34, align 8
  %36 = and i64 %35, 1
  %37 = icmp eq i64 %36, 0
  br i1 %37, label %42, label %38, !prof !2

38:                                               ; preds = %30
  %39 = and i64 %35, -2
  %40 = inttoptr i64 %39 to %"struct.google::protobuf::internal::InternalMetadata::Container"*
  %41 = getelementptr inbounds %"struct.google::protobuf::internal::InternalMetadata::Container", %"struct.google::protobuf::internal::InternalMetadata::Container"* %40, i64 0, i32 1
  br label %44

42:                                               ; preds = %30
  %43 = tail call %"class.std::__1::basic_string"* @_ZN6google8protobuf8internal16InternalMetadata27mutable_unknown_fields_slowINSt3__112basic_stringIcNS4_11char_traitsIcEENS4_9allocatorIcEEEEEEPT_v(%"class.google::protobuf::internal::InternalMetadata"* %24) #15
  br label %44

44:                                               ; preds = %42, %38
  %45 = phi %"class.std::__1::basic_string"* [ %41, %38 ], [ %43, %42 ]
  %46 = bitcast %"class.std::__1::basic_string"* %33 to %"struct.std::__1::basic_string<char, std::__1::char_traits<char>, std::__1::allocator<char> >::__short"*
  %47 = getelementptr inbounds %"struct.std::__1::basic_string<char, std::__1::char_traits<char>, std::__1::allocator<char> >::__short", %"struct.std::__1::basic_string<char, std::__1::char_traits<char>, std::__1::allocator<char> >::__short"* %46, i64 0, i32 1, i32 0
  %48 = load i8, i8* %47, align 1
  %49 = icmp slt i8 %48, 0
  %50 = getelementptr inbounds %"class.std::__1::basic_string", %"class.std::__1::basic_string"* %33, i64 0, i32 0, i32 0, i32 0, i32 0, i32 0, i32 0
  %51 = load i8*, i8** %50, align 8
  %52 = getelementptr inbounds %"struct.google::protobuf::internal::InternalMetadata::Container", %"struct.google::protobuf::internal::InternalMetadata::Container"* %32, i64 0, i32 1, i32 0, i32 0, i32 0, i32 0, i32 0, i32 1
  %53 = load i64, i64* %52, align 8
  %54 = bitcast %"class.std::__1::basic_string"* %33 to i8*
  %55 = zext i8 %48 to i64
  %56 = select i1 %49, i8* %51, i8* %54
  %57 = select i1 %49, i64 %53, i64 %55
  %58 = tail call dereferenceable(24) %"class.std::__1::basic_string"* @_ZNSt3__112basic_stringIcNS_11char_traitsIcEENS_9allocatorIcEEE6appendEPKcm(%"class.std::__1::basic_string"* %45, i8* %56, i64 %57) #15
  br label %59

59:                                               ; preds = %22, %44
  ret void
}

; Function Attrs: nounwind ssp uwtable
define hidden void @_ZN13assist_ranker36ExamplePreprocessorConfig_BoundariesD2Ev(%"class.assist_ranker::ExamplePreprocessorConfig_Boundaries"*) unnamed_addr #0 align 2 {
  %2 = getelementptr inbounds %"class.assist_ranker::ExamplePreprocessorConfig_Boundaries", %"class.assist_ranker::ExamplePreprocessorConfig_Boundaries"* %0, i64 0, i32 0, i32 0
  store i32 (...)** bitcast (i8** getelementptr inbounds ({ [16 x i8*] }, { [16 x i8*] }* @_ZTVN13assist_ranker36ExamplePreprocessorConfig_BoundariesE, i64 0, inrange i32 0, i64 2) to i32 (...)**), i32 (...)*** %2, align 8
  %3 = getelementptr inbounds %"class.assist_ranker::ExamplePreprocessorConfig_Boundaries", %"class.assist_ranker::ExamplePreprocessorConfig_Boundaries"* %0, i64 0, i32 0, i32 1
  %4 = bitcast %"class.google::protobuf::internal::InternalMetadata"* %3 to i64*
  %5 = load i64, i64* %4, align 8
  %6 = and i64 %5, 1
  %7 = icmp eq i64 %6, 0
  br i1 %7, label %28, label %8

8:                                                ; preds = %1
  %9 = and i64 %5, -2
  %10 = inttoptr i64 %9 to %"struct.google::protobuf::internal::InternalMetadata::ContainerBase"*
  %11 = getelementptr inbounds %"struct.google::protobuf::internal::InternalMetadata::ContainerBase", %"struct.google::protobuf::internal::InternalMetadata::ContainerBase"* %10, i64 0, i32 0
  %12 = load %"class.google::protobuf::Arena"*, %"class.google::protobuf::Arena"** %11, align 8
  %13 = icmp ne %"class.google::protobuf::Arena"* %12, null
  %14 = icmp eq i64 %9, 0
  %15 = or i1 %14, %13
  br i1 %15, label %28, label %16

16:                                               ; preds = %8
  %17 = inttoptr i64 %9 to %"struct.google::protobuf::internal::InternalMetadata::Container"*
  %18 = getelementptr inbounds %"struct.google::protobuf::internal::InternalMetadata::Container", %"struct.google::protobuf::internal::InternalMetadata::Container"* %17, i64 0, i32 1
  %19 = bitcast %"class.std::__1::basic_string"* %18 to %"struct.std::__1::basic_string<char, std::__1::char_traits<char>, std::__1::allocator<char> >::__short"*
  %20 = getelementptr inbounds %"struct.std::__1::basic_string<char, std::__1::char_traits<char>, std::__1::allocator<char> >::__short", %"struct.std::__1::basic_string<char, std::__1::char_traits<char>, std::__1::allocator<char> >::__short"* %19, i64 0, i32 1, i32 0
  %21 = load i8, i8* %20, align 1
  %22 = icmp slt i8 %21, 0
  br i1 %22, label %23, label %26

23:                                               ; preds = %16
  %24 = getelementptr inbounds %"class.std::__1::basic_string", %"class.std::__1::basic_string"* %18, i64 0, i32 0, i32 0, i32 0, i32 0, i32 0, i32 0
  %25 = load i8*, i8** %24, align 8
  tail call void @_ZdlPv(i8* %25) #16
  br label %26

26:                                               ; preds = %23, %16
  %27 = inttoptr i64 %9 to i8*
  tail call void @_ZdlPv(i8* %27) #16
  br label %28

28:                                               ; preds = %1, %8, %26
  %29 = getelementptr inbounds %"class.assist_ranker::ExamplePreprocessorConfig_Boundaries", %"class.assist_ranker::ExamplePreprocessorConfig_Boundaries"* %0, i64 0, i32 1
  tail call void @_ZN6google8protobuf13RepeatedFieldIfED1Ev(%"class.google::protobuf::RepeatedField"* %29) #15
  ret void
}

; Function Attrs: nounwind
declare void @_ZN6google8protobuf13RepeatedFieldIfED1Ev(%"class.google::protobuf::RepeatedField"*) unnamed_addr #2

; Function Attrs: nounwind ssp uwtable
define hidden void @_ZN13assist_ranker36ExamplePreprocessorConfig_BoundariesD0Ev(%"class.assist_ranker::ExamplePreprocessorConfig_Boundaries"*) unnamed_addr #0 align 2 {
  %2 = getelementptr inbounds %"class.assist_ranker::ExamplePreprocessorConfig_Boundaries", %"class.assist_ranker::ExamplePreprocessorConfig_Boundaries"* %0, i64 0, i32 0, i32 0
  store i32 (...)** bitcast (i8** getelementptr inbounds ({ [16 x i8*] }, { [16 x i8*] }* @_ZTVN13assist_ranker36ExamplePreprocessorConfig_BoundariesE, i64 0, inrange i32 0, i64 2) to i32 (...)**), i32 (...)*** %2, align 8
  %3 = getelementptr inbounds %"class.assist_ranker::ExamplePreprocessorConfig_Boundaries", %"class.assist_ranker::ExamplePreprocessorConfig_Boundaries"* %0, i64 0, i32 0, i32 1
  %4 = bitcast %"class.google::protobuf::internal::InternalMetadata"* %3 to i64*
  %5 = load i64, i64* %4, align 8
  %6 = and i64 %5, 1
  %7 = icmp eq i64 %6, 0
  br i1 %7, label %28, label %8

8:                                                ; preds = %1
  %9 = and i64 %5, -2
  %10 = inttoptr i64 %9 to %"struct.google::protobuf::internal::InternalMetadata::ContainerBase"*
  %11 = getelementptr inbounds %"struct.google::protobuf::internal::InternalMetadata::ContainerBase", %"struct.google::protobuf::internal::InternalMetadata::ContainerBase"* %10, i64 0, i32 0
  %12 = load %"class.google::protobuf::Arena"*, %"class.google::protobuf::Arena"** %11, align 8
  %13 = icmp ne %"class.google::protobuf::Arena"* %12, null
  %14 = icmp eq i64 %9, 0
  %15 = or i1 %14, %13
  br i1 %15, label %28, label %16

16:                                               ; preds = %8
  %17 = inttoptr i64 %9 to %"struct.google::protobuf::internal::InternalMetadata::Container"*
  %18 = getelementptr inbounds %"struct.google::protobuf::internal::InternalMetadata::Container", %"struct.google::protobuf::internal::InternalMetadata::Container"* %17, i64 0, i32 1
  %19 = bitcast %"class.std::__1::basic_string"* %18 to %"struct.std::__1::basic_string<char, std::__1::char_traits<char>, std::__1::allocator<char> >::__short"*
  %20 = getelementptr inbounds %"struct.std::__1::basic_string<char, std::__1::char_traits<char>, std::__1::allocator<char> >::__short", %"struct.std::__1::basic_string<char, std::__1::char_traits<char>, std::__1::allocator<char> >::__short"* %19, i64 0, i32 1, i32 0
  %21 = load i8, i8* %20, align 1
  %22 = icmp slt i8 %21, 0
  br i1 %22, label %23, label %26

23:                                               ; preds = %16
  %24 = getelementptr inbounds %"class.std::__1::basic_string", %"class.std::__1::basic_string"* %18, i64 0, i32 0, i32 0, i32 0, i32 0, i32 0, i32 0
  %25 = load i8*, i8** %24, align 8
  tail call void @_ZdlPv(i8* %25) #16
  br label %26

26:                                               ; preds = %23, %16
  %27 = inttoptr i64 %9 to i8*
  tail call void @_ZdlPv(i8* %27) #16
  br label %28

28:                                               ; preds = %1, %8, %26
  %29 = getelementptr inbounds %"class.assist_ranker::ExamplePreprocessorConfig_Boundaries", %"class.assist_ranker::ExamplePreprocessorConfig_Boundaries"* %0, i64 0, i32 1
  tail call void @_ZN6google8protobuf13RepeatedFieldIfED1Ev(%"class.google::protobuf::RepeatedField"* %29) #15
  %30 = bitcast %"class.assist_ranker::ExamplePreprocessorConfig_Boundaries"* %0 to i8*
  tail call void @_ZdlPv(i8* %30) #16
  ret void
}

; Function Attrs: nobuiltin nounwind
declare void @_ZdlPv(i8*) local_unnamed_addr #3

; Function Attrs: norecurse nounwind readnone ssp uwtable
define hidden void @_ZN13assist_ranker36ExamplePreprocessorConfig_Boundaries9ArenaDtorEPv(i8* nocapture) local_unnamed_addr #4 align 2 {
  ret void
}

; Function Attrs: argmemonly nounwind
declare void @llvm.lifetime.start.p0i8(i64 immarg, i8* nocapture) #5

; Function Attrs: argmemonly nounwind
declare void @llvm.lifetime.end.p0i8(i64 immarg, i8* nocapture) #5

; Function Attrs: nofree norecurse nounwind ssp uwtable
define hidden void @_ZNK13assist_ranker36ExamplePreprocessorConfig_Boundaries13SetCachedSizeEi(%"class.assist_ranker::ExamplePreprocessorConfig_Boundaries"* nocapture, i32) local_unnamed_addr #6 align 2 {
  %3 = getelementptr inbounds %"class.assist_ranker::ExamplePreprocessorConfig_Boundaries", %"class.assist_ranker::ExamplePreprocessorConfig_Boundaries"* %0, i64 0, i32 2, i32 0, i32 0, i32 0, i32 0, i32 0, i32 0
  store atomic i32 %1, i32* %3 monotonic, align 4
  ret void
}

; Function Attrs: nounwind ssp uwtable
define hidden dereferenceable(40) %"class.assist_ranker::ExamplePreprocessorConfig_Boundaries"* @_ZN13assist_ranker36ExamplePreprocessorConfig_Boundaries16default_instanceEv() local_unnamed_addr #0 align 2 {
  %1 = load atomic i32, i32* getelementptr inbounds ({ { { { i32 } }, i32, i32, void ()* }, [0 x i8*] }, { { { { i32 } }, i32, i32, void ()* }, [0 x i8*] }* @scc_info_ExamplePreprocessorConfig_Boundaries_example_5fpreprocessor_2eproto, i64 0, i32 0, i32 0, i32 0, i32 0) acquire, align 8
  %2 = icmp eq i32 %1, 0
  br i1 %2, label %4, label %3, !prof !3

3:                                                ; preds = %0
  tail call void @_ZN6google8protobuf8internal11InitSCCImplEPNS1_11SCCInfoBaseE(%"struct.google::protobuf::internal::SCCInfoBase"* bitcast ({ { { { i32 } }, i32, i32, void ()* }, [0 x i8*] }* @scc_info_ExamplePreprocessorConfig_Boundaries_example_5fpreprocessor_2eproto to %"struct.google::protobuf::internal::SCCInfoBase"*)) #15
  br label %4

4:                                                ; preds = %0, %3
  ret %"class.assist_ranker::ExamplePreprocessorConfig_Boundaries"* bitcast (%"class.assist_ranker::ExamplePreprocessorConfig_BoundariesDefaultTypeInternal"* @_ZN13assist_ranker55_ExamplePreprocessorConfig_Boundaries_default_instance_E to %"class.assist_ranker::ExamplePreprocessorConfig_Boundaries"*)
}

; Function Attrs: nofree norecurse nounwind ssp uwtable
define hidden void @_ZN13assist_ranker36ExamplePreprocessorConfig_Boundaries5ClearEv(%"class.assist_ranker::ExamplePreprocessorConfig_Boundaries"* nocapture) unnamed_addr #6 align 2 {
  %2 = getelementptr inbounds %"class.assist_ranker::ExamplePreprocessorConfig_Boundaries", %"class.assist_ranker::ExamplePreprocessorConfig_Boundaries"* %0, i64 0, i32 1, i32 0
  store i32 0, i32* %2, align 8
  %3 = getelementptr inbounds %"class.assist_ranker::ExamplePreprocessorConfig_Boundaries", %"class.assist_ranker::ExamplePreprocessorConfig_Boundaries"* %0, i64 0, i32 0, i32 1
  %4 = bitcast %"class.google::protobuf::internal::InternalMetadata"* %3 to i64*
  %5 = load i64, i64* %4, align 8
  %6 = and i64 %5, 1
  %7 = icmp eq i64 %6, 0
  br i1 %7, label %22, label %8

8:                                                ; preds = %1
  %9 = and i64 %5, -2
  %10 = inttoptr i64 %9 to %"struct.google::protobuf::internal::InternalMetadata::Container"*
  %11 = getelementptr inbounds %"struct.google::protobuf::internal::InternalMetadata::Container", %"struct.google::protobuf::internal::InternalMetadata::Container"* %10, i64 0, i32 1
  %12 = bitcast %"class.std::__1::basic_string"* %11 to %"struct.std::__1::basic_string<char, std::__1::char_traits<char>, std::__1::allocator<char> >::__short"*
  %13 = getelementptr inbounds %"struct.std::__1::basic_string<char, std::__1::char_traits<char>, std::__1::allocator<char> >::__short", %"struct.std::__1::basic_string<char, std::__1::char_traits<char>, std::__1::allocator<char> >::__short"* %12, i64 0, i32 1, i32 0
  %14 = load i8, i8* %13, align 1
  %15 = icmp slt i8 %14, 0
  br i1 %15, label %16, label %20

16:                                               ; preds = %8
  %17 = getelementptr inbounds %"class.std::__1::basic_string", %"class.std::__1::basic_string"* %11, i64 0, i32 0, i32 0, i32 0, i32 0, i32 0, i32 0
  %18 = load i8*, i8** %17, align 8
  store i8 0, i8* %18, align 1
  %19 = getelementptr inbounds %"struct.google::protobuf::internal::InternalMetadata::Container", %"struct.google::protobuf::internal::InternalMetadata::Container"* %10, i64 0, i32 1, i32 0, i32 0, i32 0, i32 0, i32 0, i32 1
  store i64 0, i64* %19, align 8
  br label %22

20:                                               ; preds = %8
  %21 = bitcast %"class.std::__1::basic_string"* %11 to i8*
  store i8 0, i8* %21, align 2
  store i8 0, i8* %13, align 1
  br label %22

22:                                               ; preds = %1, %16, %20
  ret void
}

; Function Attrs: nounwind ssp uwtable
define hidden i8* @_ZN13assist_ranker36ExamplePreprocessorConfig_Boundaries14_InternalParseEPKcPN6google8protobuf8internal12ParseContextE(%"class.assist_ranker::ExamplePreprocessorConfig_Boundaries"*, i8*, %"class.google::protobuf::internal::ParseContext"*) unnamed_addr #0 align 2 {
  %4 = getelementptr inbounds %"class.google::protobuf::internal::ParseContext", %"class.google::protobuf::internal::ParseContext"* %2, i64 0, i32 0
  %5 = getelementptr inbounds %"class.google::protobuf::internal::ParseContext", %"class.google::protobuf::internal::ParseContext"* %2, i64 0, i32 2
  %6 = getelementptr inbounds %"class.google::protobuf::internal::ParseContext", %"class.google::protobuf::internal::ParseContext"* %2, i64 0, i32 0, i32 0
  %7 = getelementptr inbounds %"class.google::protobuf::internal::ParseContext", %"class.google::protobuf::internal::ParseContext"* %2, i64 0, i32 0, i32 1
  %8 = bitcast i8** %7 to i64*
  %9 = getelementptr inbounds %"class.google::protobuf::internal::ParseContext", %"class.google::protobuf::internal::ParseContext"* %2, i64 0, i32 0, i32 4
  %10 = getelementptr inbounds %"class.assist_ranker::ExamplePreprocessorConfig_Boundaries", %"class.assist_ranker::ExamplePreprocessorConfig_Boundaries"* %0, i64 0, i32 1
  %11 = bitcast %"class.google::protobuf::RepeatedField"* %10 to i8*
  %12 = getelementptr inbounds %"class.google::protobuf::RepeatedField", %"class.google::protobuf::RepeatedField"* %10, i64 0, i32 0
  %13 = getelementptr inbounds %"class.assist_ranker::ExamplePreprocessorConfig_Boundaries", %"class.assist_ranker::ExamplePreprocessorConfig_Boundaries"* %0, i64 0, i32 1, i32 1
  %14 = getelementptr inbounds %"class.assist_ranker::ExamplePreprocessorConfig_Boundaries", %"class.assist_ranker::ExamplePreprocessorConfig_Boundaries"* %0, i64 0, i32 1, i32 2
  %15 = bitcast i8** %14 to float**
  %16 = getelementptr inbounds %"class.assist_ranker::ExamplePreprocessorConfig_Boundaries", %"class.assist_ranker::ExamplePreprocessorConfig_Boundaries"* %0, i64 0, i32 0, i32 1
  %17 = bitcast %"class.google::protobuf::internal::InternalMetadata"* %16 to i64*
  br label %18

18:                                               ; preds = %98, %3
  %19 = phi i8* [ %1, %3 ], [ %99, %98 ]
  %20 = load i32, i32* %5, align 4
  %21 = load i8*, i8** %6, align 8
  %22 = icmp ult i8* %19, %21
  br i1 %22, label %36, label %23, !prof !3

23:                                               ; preds = %18
  %24 = load i64, i64* %8, align 8
  %25 = ptrtoint i8* %19 to i64
  %26 = sub i64 %25, %24
  %27 = load i32, i32* %9, align 4
  %28 = sext i32 %27 to i64
  %29 = icmp eq i64 %26, %28
  br i1 %29, label %122, label %30

30:                                               ; preds = %23
  %31 = tail call { i8*, i8 } @_ZN6google8protobuf8internal18EpsCopyInputStream12DoneFallbackEPKci(%"class.google::protobuf::internal::EpsCopyInputStream"* %4, i8* %19, i32 %20) #15
  %32 = extractvalue { i8*, i8 } %31, 0
  %33 = extractvalue { i8*, i8 } %31, 1
  %34 = and i8 %33, 1
  %35 = icmp eq i8 %34, 0
  br i1 %35, label %36, label %122

36:                                               ; preds = %30, %18
  %37 = phi i8* [ %32, %30 ], [ %19, %18 ]
  %38 = load i8, i8* %37, align 1
  %39 = zext i8 %38 to i32
  %40 = icmp sgt i8 %38, -1
  %41 = getelementptr inbounds i8, i8* %37, i64 1
  br i1 %40, label %55, label %42

42:                                               ; preds = %36
  %43 = load i8, i8* %41, align 1
  %44 = zext i8 %43 to i32
  %45 = shl nuw nsw i32 %44, 7
  %46 = add nsw i32 %39, -128
  %47 = add nsw i32 %46, %45
  %48 = icmp sgt i8 %43, -1
  br i1 %48, label %49, label %51

49:                                               ; preds = %42
  %50 = getelementptr inbounds i8, i8* %37, i64 2
  br label %55

51:                                               ; preds = %42
  %52 = tail call { i8*, i32 } @_ZN6google8protobuf8internal15ReadTagFallbackEPKcj(i8* %37, i32 %47) #15
  %53 = extractvalue { i8*, i32 } %52, 0
  %54 = extractvalue { i8*, i32 } %52, 1
  br label %55

55:                                               ; preds = %36, %49, %51
  %56 = phi i32 [ %47, %49 ], [ %54, %51 ], [ %39, %36 ]
  %57 = phi i8* [ %50, %49 ], [ %53, %51 ], [ %41, %36 ]
  %58 = icmp eq i8* %57, null
  br i1 %58, label %122, label %59, !prof !2

59:                                               ; preds = %55
  %60 = and i32 %56, -8
  %61 = icmp eq i32 %60, 8
  br i1 %61, label %62, label %100

62:                                               ; preds = %59
  %63 = trunc i32 %56 to i8
  switch i8 %63, label %100 [
    i8 13, label %64
    i8 10, label %95
  ], !prof !4

64:                                               ; preds = %62
  %65 = getelementptr inbounds i8, i8* %57, i64 -1
  %66 = load i32, i32* %12, align 8
  br label %67

67:                                               ; preds = %92, %64
  %68 = phi i32 [ %66, %64 ], [ %88, %92 ]
  %69 = phi i8* [ %65, %64 ], [ %89, %92 ]
  %70 = getelementptr inbounds i8, i8* %69, i64 1
  %71 = bitcast i8* %70 to i32*
  %72 = load i32, i32* %71, align 1
  %73 = load i32, i32* %13, align 4
  %74 = icmp eq i32 %68, %73
  br i1 %74, label %75, label %81

75:                                               ; preds = %67
  %76 = add i32 %68, 1
  tail call void @_ZN6google8protobuf13RepeatedFieldIfE7ReserveEi(%"class.google::protobuf::RepeatedField"* %10, i32 %76) #15
  %77 = load float*, float** %15, align 8
  %78 = zext i32 %68 to i64
  %79 = getelementptr inbounds float, float* %77, i64 %78
  %80 = bitcast float* %79 to i32*
  store i32 %72, i32* %80, align 4
  br label %87

81:                                               ; preds = %67
  %82 = load float*, float** %15, align 8
  %83 = zext i32 %68 to i64
  %84 = getelementptr inbounds float, float* %82, i64 %83
  %85 = bitcast float* %84 to i32*
  store i32 %72, i32* %85, align 4
  %86 = add i32 %68, 1
  br label %87

87:                                               ; preds = %75, %81
  %88 = phi i32 [ %86, %81 ], [ %76, %75 ]
  store i32 %88, i32* %12, align 8
  %89 = getelementptr inbounds i8, i8* %69, i64 5
  %90 = load i8*, i8** %6, align 8
  %91 = icmp ugt i8* %90, %89
  br i1 %91, label %92, label %98

92:                                               ; preds = %87
  %93 = load i8, i8* %89, align 1
  %94 = icmp eq i8 %93, 13
  br i1 %94, label %67, label %98

95:                                               ; preds = %62
  %96 = tail call i8* @_ZN6google8protobuf8internal17PackedFloatParserEPvPKcPNS1_12ParseContextE(i8* %11, i8* nonnull %57, %"class.google::protobuf::internal::ParseContext"* %2) #15
  %97 = icmp eq i8* %96, null
  br i1 %97, label %122, label %98, !prof !2

98:                                               ; preds = %92, %87, %95, %118
  %99 = phi i8* [ %120, %118 ], [ %96, %95 ], [ %89, %87 ], [ %89, %92 ]
  br label %18

100:                                              ; preds = %62, %59
  %101 = and i32 %56, 7
  %102 = icmp eq i32 %101, 4
  %103 = icmp eq i32 %56, 0
  %104 = or i1 %103, %102
  br i1 %104, label %105, label %108

105:                                              ; preds = %100
  %106 = add i32 %56, -1
  %107 = getelementptr inbounds %"class.google::protobuf::internal::ParseContext", %"class.google::protobuf::internal::ParseContext"* %2, i64 0, i32 0, i32 8
  store i32 %106, i32* %107, align 8
  br label %122

108:                                              ; preds = %100
  %109 = load i64, i64* %17, align 8
  %110 = and i64 %109, 1
  %111 = icmp eq i64 %110, 0
  br i1 %111, label %116, label %112, !prof !2

112:                                              ; preds = %108
  %113 = and i64 %109, -2
  %114 = inttoptr i64 %113 to %"struct.google::protobuf::internal::InternalMetadata::Container"*
  %115 = getelementptr inbounds %"struct.google::protobuf::internal::InternalMetadata::Container", %"struct.google::protobuf::internal::InternalMetadata::Container"* %114, i64 0, i32 1
  br label %118

116:                                              ; preds = %108
  %117 = tail call %"class.std::__1::basic_string"* @_ZN6google8protobuf8internal16InternalMetadata27mutable_unknown_fields_slowINSt3__112basic_stringIcNS4_11char_traitsIcEENS4_9allocatorIcEEEEEEPT_v(%"class.google::protobuf::internal::InternalMetadata"* %16) #15
  br label %118

118:                                              ; preds = %112, %116
  %119 = phi %"class.std::__1::basic_string"* [ %115, %112 ], [ %117, %116 ]
  %120 = tail call i8* @_ZN6google8protobuf8internal17UnknownFieldParseEjPNSt3__112basic_stringIcNS2_11char_traitsIcEENS2_9allocatorIcEEEEPKcPNS1_12ParseContextE(i32 %56, %"class.std::__1::basic_string"* %119, i8* nonnull %57, %"class.google::protobuf::internal::ParseContext"* %2) #15
  %121 = icmp eq i8* %120, null
  br i1 %121, label %122, label %98

122:                                              ; preds = %30, %118, %23, %95, %55, %105
  %123 = phi i8* [ %57, %105 ], [ null, %118 ], [ %19, %23 ], [ null, %95 ], [ null, %55 ], [ %32, %30 ]
  ret i8* %123
}

declare i8* @_ZN6google8protobuf8internal17PackedFloatParserEPvPKcPNS1_12ParseContextE(i8*, i8*, %"class.google::protobuf::internal::ParseContext"*) local_unnamed_addr #7

declare i8* @_ZN6google8protobuf8internal17UnknownFieldParseEjPNSt3__112basic_stringIcNS2_11char_traitsIcEENS2_9allocatorIcEEEEPKcPNS1_12ParseContextE(i32, %"class.std::__1::basic_string"*, i8*, %"class.google::protobuf::internal::ParseContext"*) local_unnamed_addr #7

; Function Attrs: nounwind ssp uwtable
define hidden i8* @_ZNK13assist_ranker36ExamplePreprocessorConfig_Boundaries18_InternalSerializeEPhPN6google8protobuf2io19EpsCopyOutputStreamE(%"class.assist_ranker::ExamplePreprocessorConfig_Boundaries"* nocapture readonly, i8*, %"class.google::protobuf::io::EpsCopyOutputStream"*) unnamed_addr #0 align 2 {
  %4 = getelementptr inbounds %"class.assist_ranker::ExamplePreprocessorConfig_Boundaries", %"class.assist_ranker::ExamplePreprocessorConfig_Boundaries"* %0, i64 0, i32 1, i32 0
  %5 = load i32, i32* %4, align 8
  %6 = icmp sgt i32 %5, 0
  br i1 %6, label %7, label %12

7:                                                ; preds = %3
  %8 = getelementptr inbounds %"class.google::protobuf::io::EpsCopyOutputStream", %"class.google::protobuf::io::EpsCopyOutputStream"* %2, i64 0, i32 0
  %9 = getelementptr inbounds %"class.assist_ranker::ExamplePreprocessorConfig_Boundaries", %"class.assist_ranker::ExamplePreprocessorConfig_Boundaries"* %0, i64 0, i32 1, i32 2
  %10 = bitcast i8** %9 to float**
  %11 = zext i32 %5 to i64
  br label %19

12:                                               ; preds = %26, %3
  %13 = phi i8* [ %1, %3 ], [ %34, %26 ]
  %14 = getelementptr inbounds %"class.assist_ranker::ExamplePreprocessorConfig_Boundaries", %"class.assist_ranker::ExamplePreprocessorConfig_Boundaries"* %0, i64 0, i32 0, i32 1
  %15 = bitcast %"class.google::protobuf::internal::InternalMetadata"* %14 to i64*
  %16 = load i64, i64* %15, align 8
  %17 = and i64 %16, 1
  %18 = icmp eq i64 %17, 0
  br i1 %18, label %68, label %37, !prof !3

19:                                               ; preds = %26, %7
  %20 = phi i64 [ 0, %7 ], [ %35, %26 ]
  %21 = phi i8* [ %1, %7 ], [ %34, %26 ]
  %22 = load i8*, i8** %8, align 8
  %23 = icmp ugt i8* %22, %21
  br i1 %23, label %26, label %24, !prof !3

24:                                               ; preds = %19
  %25 = tail call i8* @_ZN6google8protobuf2io19EpsCopyOutputStream19EnsureSpaceFallbackEPh(%"class.google::protobuf::io::EpsCopyOutputStream"* %2, i8* %21) #15
  br label %26

26:                                               ; preds = %19, %24
  %27 = phi i8* [ %25, %24 ], [ %21, %19 ]
  %28 = load float*, float** %10, align 8
  %29 = getelementptr inbounds float, float* %28, i64 %20
  %30 = bitcast float* %29 to i32*
  %31 = load i32, i32* %30, align 4
  store i8 13, i8* %27, align 1
  %32 = getelementptr inbounds i8, i8* %27, i64 1
  %33 = bitcast i8* %32 to i32*
  store i32 %31, i32* %33, align 1
  %34 = getelementptr inbounds i8, i8* %27, i64 5
  %35 = add nuw nsw i64 %20, 1
  %36 = icmp eq i64 %35, %11
  br i1 %36, label %12, label %19

37:                                               ; preds = %12
  %38 = and i64 %16, -2
  %39 = inttoptr i64 %38 to %"struct.google::protobuf::internal::InternalMetadata::Container"*
  %40 = getelementptr inbounds %"struct.google::protobuf::internal::InternalMetadata::Container", %"struct.google::protobuf::internal::InternalMetadata::Container"* %39, i64 0, i32 1
  %41 = bitcast %"class.std::__1::basic_string"* %40 to %"struct.std::__1::basic_string<char, std::__1::char_traits<char>, std::__1::allocator<char> >::__short"*
  %42 = getelementptr inbounds %"struct.std::__1::basic_string<char, std::__1::char_traits<char>, std::__1::allocator<char> >::__short", %"struct.std::__1::basic_string<char, std::__1::char_traits<char>, std::__1::allocator<char> >::__short"* %41, i64 0, i32 1, i32 0
  %43 = load i8, i8* %42, align 1
  %44 = icmp slt i8 %43, 0
  br i1 %44, label %45, label %50

45:                                               ; preds = %37
  %46 = getelementptr inbounds %"class.std::__1::basic_string", %"class.std::__1::basic_string"* %40, i64 0, i32 0, i32 0, i32 0, i32 0, i32 0, i32 0
  %47 = load i8*, i8** %46, align 8
  %48 = getelementptr inbounds %"struct.google::protobuf::internal::InternalMetadata::Container", %"struct.google::protobuf::internal::InternalMetadata::Container"* %39, i64 0, i32 1, i32 0, i32 0, i32 0, i32 0, i32 0, i32 1
  %49 = load i64, i64* %48, align 8
  br label %53

50:                                               ; preds = %37
  %51 = bitcast %"class.std::__1::basic_string"* %40 to i8*
  %52 = zext i8 %43 to i64
  br label %53

53:                                               ; preds = %45, %50
  %54 = phi i8* [ %47, %45 ], [ %51, %50 ]
  %55 = phi i64 [ %49, %45 ], [ %52, %50 ]
  %56 = bitcast %"class.google::protobuf::io::EpsCopyOutputStream"* %2 to i64*
  %57 = load i64, i64* %56, align 8
  %58 = ptrtoint i8* %13 to i64
  %59 = sub i64 %57, %58
  %60 = shl i64 %55, 32
  %61 = ashr exact i64 %60, 32
  %62 = icmp slt i64 %59, %61
  br i1 %62, label %63, label %66, !prof !2

63:                                               ; preds = %53
  %64 = trunc i64 %55 to i32
  %65 = tail call i8* @_ZN6google8protobuf2io19EpsCopyOutputStream16WriteRawFallbackEPKviPh(%"class.google::protobuf::io::EpsCopyOutputStream"* %2, i8* %54, i32 %64, i8* %13) #15
  br label %68

66:                                               ; preds = %53
  tail call void @llvm.memcpy.p0i8.p0i8.i64(i8* align 1 %13, i8* align 1 %54, i64 %61, i1 false) #15
  %67 = getelementptr inbounds i8, i8* %13, i64 %61
  br label %68

68:                                               ; preds = %12, %66, %63
  %69 = phi i8* [ %13, %12 ], [ %65, %63 ], [ %67, %66 ]
  ret i8* %69
}

; Function Attrs: nounwind ssp uwtable
define hidden i64 @_ZNK13assist_ranker36ExamplePreprocessorConfig_Boundaries12ByteSizeLongEv(%"class.assist_ranker::ExamplePreprocessorConfig_Boundaries"* nocapture) unnamed_addr #0 align 2 {
  %2 = getelementptr inbounds %"class.assist_ranker::ExamplePreprocessorConfig_Boundaries", %"class.assist_ranker::ExamplePreprocessorConfig_Boundaries"* %0, i64 0, i32 1, i32 0
  %3 = load i32, i32* %2, align 8
  %4 = zext i32 %3 to i64
  %5 = mul nuw nsw i64 %4, 5
  %6 = getelementptr inbounds %"class.assist_ranker::ExamplePreprocessorConfig_Boundaries", %"class.assist_ranker::ExamplePreprocessorConfig_Boundaries"* %0, i64 0, i32 0, i32 1
  %7 = bitcast %"class.google::protobuf::internal::InternalMetadata"* %6 to i64*
  %8 = load i64, i64* %7, align 8
  %9 = and i64 %8, 1
  %10 = icmp eq i64 %9, 0
  br i1 %10, label %27, label %11, !prof !3

11:                                               ; preds = %1
  %12 = and i64 %8, -2
  %13 = inttoptr i64 %12 to %"struct.google::protobuf::internal::InternalMetadata::Container"*
  %14 = getelementptr inbounds %"struct.google::protobuf::internal::InternalMetadata::Container", %"struct.google::protobuf::internal::InternalMetadata::Container"* %13, i64 0, i32 1
  %15 = bitcast %"class.std::__1::basic_string"* %14 to %"struct.std::__1::basic_string<char, std::__1::char_traits<char>, std::__1::allocator<char> >::__short"*
  %16 = getelementptr inbounds %"struct.std::__1::basic_string<char, std::__1::char_traits<char>, std::__1::allocator<char> >::__short", %"struct.std::__1::basic_string<char, std::__1::char_traits<char>, std::__1::allocator<char> >::__short"* %15, i64 0, i32 1, i32 0
  %17 = load i8, i8* %16, align 1
  %18 = icmp slt i8 %17, 0
  br i1 %18, label %19, label %22

19:                                               ; preds = %11
  %20 = getelementptr inbounds %"struct.google::protobuf::internal::InternalMetadata::Container", %"struct.google::protobuf::internal::InternalMetadata::Container"* %13, i64 0, i32 1, i32 0, i32 0, i32 0, i32 0, i32 0, i32 1
  %21 = load i64, i64* %20, align 8
  br label %24

22:                                               ; preds = %11
  %23 = zext i8 %17 to i64
  br label %24

24:                                               ; preds = %19, %22
  %25 = phi i64 [ %21, %19 ], [ %23, %22 ]
  %26 = add i64 %25, %5
  br label %27

27:                                               ; preds = %1, %24
  %28 = phi i64 [ %26, %24 ], [ %5, %1 ]
  %29 = trunc i64 %28 to i32
  %30 = getelementptr inbounds %"class.assist_ranker::ExamplePreprocessorConfig_Boundaries", %"class.assist_ranker::ExamplePreprocessorConfig_Boundaries"* %0, i64 0, i32 2, i32 0, i32 0, i32 0, i32 0, i32 0, i32 0
  store atomic i32 %29, i32* %30 monotonic, align 4
  ret i64 %28
}

; Function Attrs: nounwind ssp uwtable
define hidden void @_ZN13assist_ranker36ExamplePreprocessorConfig_Boundaries21CheckTypeAndMergeFromERKN6google8protobuf11MessageLiteE(%"class.assist_ranker::ExamplePreprocessorConfig_Boundaries"*, %"class.google::protobuf::MessageLite"* nocapture readonly dereferenceable(16)) unnamed_addr #0 align 2 {
  %3 = bitcast %"class.google::protobuf::MessageLite"* %1 to %"class.assist_ranker::ExamplePreprocessorConfig_Boundaries"*
  tail call void @_ZN13assist_ranker36ExamplePreprocessorConfig_Boundaries9MergeFromERKS0_(%"class.assist_ranker::ExamplePreprocessorConfig_Boundaries"* %0, %"class.assist_ranker::ExamplePreprocessorConfig_Boundaries"* dereferenceable(40) %3)
  ret void
}

; Function Attrs: nounwind ssp uwtable
define hidden void @_ZN13assist_ranker36ExamplePreprocessorConfig_Boundaries9MergeFromERKS0_(%"class.assist_ranker::ExamplePreprocessorConfig_Boundaries"*, %"class.assist_ranker::ExamplePreprocessorConfig_Boundaries"* nocapture readonly dereferenceable(40)) local_unnamed_addr #0 align 2 {
  %3 = getelementptr inbounds %"class.assist_ranker::ExamplePreprocessorConfig_Boundaries", %"class.assist_ranker::ExamplePreprocessorConfig_Boundaries"* %0, i64 0, i32 0, i32 1
  %4 = getelementptr inbounds %"class.assist_ranker::ExamplePreprocessorConfig_Boundaries", %"class.assist_ranker::ExamplePreprocessorConfig_Boundaries"* %1, i64 0, i32 0, i32 1
  %5 = bitcast %"class.google::protobuf::internal::InternalMetadata"* %4 to i64*
  %6 = load i64, i64* %5, align 8
  %7 = and i64 %6, 1
  %8 = icmp eq i64 %7, 0
  br i1 %8, label %38, label %9

9:                                                ; preds = %2
  %10 = and i64 %6, -2
  %11 = inttoptr i64 %10 to %"struct.google::protobuf::internal::InternalMetadata::Container"*
  %12 = getelementptr inbounds %"struct.google::protobuf::internal::InternalMetadata::Container", %"struct.google::protobuf::internal::InternalMetadata::Container"* %11, i64 0, i32 1
  %13 = bitcast %"class.google::protobuf::internal::InternalMetadata"* %3 to i64*
  %14 = load i64, i64* %13, align 8
  %15 = and i64 %14, 1
  %16 = icmp eq i64 %15, 0
  br i1 %16, label %21, label %17, !prof !2

17:                                               ; preds = %9
  %18 = and i64 %14, -2
  %19 = inttoptr i64 %18 to %"struct.google::protobuf::internal::InternalMetadata::Container"*
  %20 = getelementptr inbounds %"struct.google::protobuf::internal::InternalMetadata::Container", %"struct.google::protobuf::internal::InternalMetadata::Container"* %19, i64 0, i32 1
  br label %23

21:                                               ; preds = %9
  %22 = tail call %"class.std::__1::basic_string"* @_ZN6google8protobuf8internal16InternalMetadata27mutable_unknown_fields_slowINSt3__112basic_stringIcNS4_11char_traitsIcEENS4_9allocatorIcEEEEEEPT_v(%"class.google::protobuf::internal::InternalMetadata"* %3) #15
  br label %23

23:                                               ; preds = %21, %17
  %24 = phi %"class.std::__1::basic_string"* [ %20, %17 ], [ %22, %21 ]
  %25 = bitcast %"class.std::__1::basic_string"* %12 to %"struct.std::__1::basic_string<char, std::__1::char_traits<char>, std::__1::allocator<char> >::__short"*
  %26 = getelementptr inbounds %"struct.std::__1::basic_string<char, std::__1::char_traits<char>, std::__1::allocator<char> >::__short", %"struct.std::__1::basic_string<char, std::__1::char_traits<char>, std::__1::allocator<char> >::__short"* %25, i64 0, i32 1, i32 0
  %27 = load i8, i8* %26, align 1
  %28 = icmp slt i8 %27, 0
  %29 = getelementptr inbounds %"class.std::__1::basic_string", %"class.std::__1::basic_string"* %12, i64 0, i32 0, i32 0, i32 0, i32 0, i32 0, i32 0
  %30 = load i8*, i8** %29, align 8
  %31 = getelementptr inbounds %"struct.google::protobuf::internal::InternalMetadata::Container", %"struct.google::protobuf::internal::InternalMetadata::Container"* %11, i64 0, i32 1, i32 0, i32 0, i32 0, i32 0, i32 0, i32 1
  %32 = load i64, i64* %31, align 8
  %33 = bitcast %"class.std::__1::basic_string"* %12 to i8*
  %34 = zext i8 %27 to i64
  %35 = select i1 %28, i8* %30, i8* %33
  %36 = select i1 %28, i64 %32, i64 %34
  %37 = tail call dereferenceable(24) %"class.std::__1::basic_string"* @_ZNSt3__112basic_stringIcNS_11char_traitsIcEENS_9allocatorIcEEE6appendEPKcm(%"class.std::__1::basic_string"* %24, i8* %35, i64 %36) #15
  br label %38

38:                                               ; preds = %2, %23
  %39 = getelementptr inbounds %"class.assist_ranker::ExamplePreprocessorConfig_Boundaries", %"class.assist_ranker::ExamplePreprocessorConfig_Boundaries"* %0, i64 0, i32 1
  %40 = getelementptr inbounds %"class.assist_ranker::ExamplePreprocessorConfig_Boundaries", %"class.assist_ranker::ExamplePreprocessorConfig_Boundaries"* %1, i64 0, i32 1, i32 0
  %41 = load i32, i32* %40, align 8
  %42 = icmp eq i32 %41, 0
  br i1 %42, label %61, label %43

43:                                               ; preds = %38
  %44 = getelementptr inbounds %"class.google::protobuf::RepeatedField", %"class.google::protobuf::RepeatedField"* %39, i64 0, i32 0
  %45 = load i32, i32* %44, align 8
  %46 = add nsw i32 %45, %41
  tail call void @_ZN6google8protobuf13RepeatedFieldIfE7ReserveEi(%"class.google::protobuf::RepeatedField"* %39, i32 %46) #15
  %47 = load i32, i32* %40, align 8
  %48 = getelementptr inbounds %"class.assist_ranker::ExamplePreprocessorConfig_Boundaries", %"class.assist_ranker::ExamplePreprocessorConfig_Boundaries"* %0, i64 0, i32 1, i32 2
  %49 = bitcast i8** %48 to float**
  %50 = load float*, float** %49, align 8
  %51 = load i32, i32* %44, align 8
  %52 = add nsw i32 %51, %47
  store i32 %52, i32* %44, align 8
  %53 = sext i32 %45 to i64
  %54 = getelementptr inbounds float, float* %50, i64 %53
  %55 = getelementptr inbounds %"class.assist_ranker::ExamplePreprocessorConfig_Boundaries", %"class.assist_ranker::ExamplePreprocessorConfig_Boundaries"* %1, i64 0, i32 1, i32 2
  %56 = load i8*, i8** %55, align 8
  %57 = load i32, i32* %40, align 8
  %58 = bitcast float* %54 to i8*
  %59 = sext i32 %57 to i64
  %60 = shl nsw i64 %59, 2
  tail call void @llvm.memcpy.p0i8.p0i8.i64(i8* align 4 %58, i8* align 4 %56, i64 %60, i1 false) #15
  br label %61

61:                                               ; preds = %38, %43
  ret void
}

; Function Attrs: nounwind ssp uwtable
define hidden void @_ZN13assist_ranker36ExamplePreprocessorConfig_Boundaries8CopyFromERKS0_(%"class.assist_ranker::ExamplePreprocessorConfig_Boundaries"*, %"class.assist_ranker::ExamplePreprocessorConfig_Boundaries"* readonly dereferenceable(40)) local_unnamed_addr #0 align 2 {
  %3 = icmp eq %"class.assist_ranker::ExamplePreprocessorConfig_Boundaries"* %1, %0
  br i1 %3, label %26, label %4

4:                                                ; preds = %2
  %5 = getelementptr inbounds %"class.assist_ranker::ExamplePreprocessorConfig_Boundaries", %"class.assist_ranker::ExamplePreprocessorConfig_Boundaries"* %0, i64 0, i32 1, i32 0
  store i32 0, i32* %5, align 8
  %6 = getelementptr inbounds %"class.assist_ranker::ExamplePreprocessorConfig_Boundaries", %"class.assist_ranker::ExamplePreprocessorConfig_Boundaries"* %0, i64 0, i32 0, i32 1
  %7 = bitcast %"class.google::protobuf::internal::InternalMetadata"* %6 to i64*
  %8 = load i64, i64* %7, align 8
  %9 = and i64 %8, 1
  %10 = icmp eq i64 %9, 0
  br i1 %10, label %25, label %11

11:                                               ; preds = %4
  %12 = and i64 %8, -2
  %13 = inttoptr i64 %12 to %"struct.google::protobuf::internal::InternalMetadata::Container"*
  %14 = getelementptr inbounds %"struct.google::protobuf::internal::InternalMetadata::Container", %"struct.google::protobuf::internal::InternalMetadata::Container"* %13, i64 0, i32 1
  %15 = bitcast %"class.std::__1::basic_string"* %14 to %"struct.std::__1::basic_string<char, std::__1::char_traits<char>, std::__1::allocator<char> >::__short"*
  %16 = getelementptr inbounds %"struct.std::__1::basic_string<char, std::__1::char_traits<char>, std::__1::allocator<char> >::__short", %"struct.std::__1::basic_string<char, std::__1::char_traits<char>, std::__1::allocator<char> >::__short"* %15, i64 0, i32 1, i32 0
  %17 = load i8, i8* %16, align 1
  %18 = icmp slt i8 %17, 0
  br i1 %18, label %19, label %23

19:                                               ; preds = %11
  %20 = getelementptr inbounds %"class.std::__1::basic_string", %"class.std::__1::basic_string"* %14, i64 0, i32 0, i32 0, i32 0, i32 0, i32 0, i32 0
  %21 = load i8*, i8** %20, align 8
  store i8 0, i8* %21, align 1
  %22 = getelementptr inbounds %"struct.google::protobuf::internal::InternalMetadata::Container", %"struct.google::protobuf::internal::InternalMetadata::Container"* %13, i64 0, i32 1, i32 0, i32 0, i32 0, i32 0, i32 0, i32 1
  store i64 0, i64* %22, align 8
  br label %25

23:                                               ; preds = %11
  %24 = bitcast %"class.std::__1::basic_string"* %14 to i8*
  store i8 0, i8* %24, align 2
  store i8 0, i8* %16, align 1
  br label %25

25:                                               ; preds = %4, %19, %23
  tail call void @_ZN13assist_ranker36ExamplePreprocessorConfig_Boundaries9MergeFromERKS0_(%"class.assist_ranker::ExamplePreprocessorConfig_Boundaries"* %0, %"class.assist_ranker::ExamplePreprocessorConfig_Boundaries"* dereferenceable(40) %1)
  br label %26

26:                                               ; preds = %2, %25
  ret void
}

; Function Attrs: norecurse nounwind readnone ssp uwtable
define hidden zeroext i1 @_ZNK13assist_ranker36ExamplePreprocessorConfig_Boundaries13IsInitializedEv(%"class.assist_ranker::ExamplePreprocessorConfig_Boundaries"* nocapture readnone) unnamed_addr #4 align 2 {
  ret i1 true
}

; Function Attrs: nounwind ssp uwtable
define hidden void @_ZN13assist_ranker36ExamplePreprocessorConfig_Boundaries12InternalSwapEPS0_(%"class.assist_ranker::ExamplePreprocessorConfig_Boundaries"*, %"class.assist_ranker::ExamplePreprocessorConfig_Boundaries"*) local_unnamed_addr #0 align 2 {
  %3 = getelementptr inbounds %"class.assist_ranker::ExamplePreprocessorConfig_Boundaries", %"class.assist_ranker::ExamplePreprocessorConfig_Boundaries"* %0, i64 0, i32 0, i32 1
  %4 = getelementptr inbounds %"class.assist_ranker::ExamplePreprocessorConfig_Boundaries", %"class.assist_ranker::ExamplePreprocessorConfig_Boundaries"* %1, i64 0, i32 0, i32 1
  %5 = bitcast %"class.google::protobuf::internal::InternalMetadata"* %3 to i64*
  %6 = load i64, i64* %5, align 8
  %7 = bitcast %"class.google::protobuf::internal::InternalMetadata"* %4 to i64*
  %8 = load i64, i64* %7, align 8
  %9 = or i64 %8, %6
  %10 = and i64 %9, 1
  %11 = icmp eq i64 %10, 0
  br i1 %11, label %43, label %12

12:                                               ; preds = %2
  %13 = and i64 %8, 1
  %14 = icmp eq i64 %13, 0
  br i1 %14, label %19, label %15, !prof !2

15:                                               ; preds = %12
  %16 = and i64 %8, -2
  %17 = inttoptr i64 %16 to %"struct.google::protobuf::internal::InternalMetadata::Container"*
  %18 = getelementptr inbounds %"struct.google::protobuf::internal::InternalMetadata::Container", %"struct.google::protobuf::internal::InternalMetadata::Container"* %17, i64 0, i32 1
  br label %22

19:                                               ; preds = %12
  %20 = tail call %"class.std::__1::basic_string"* @_ZN6google8protobuf8internal16InternalMetadata27mutable_unknown_fields_slowINSt3__112basic_stringIcNS4_11char_traitsIcEENS4_9allocatorIcEEEEEEPT_v(%"class.google::protobuf::internal::InternalMetadata"* %4) #15
  %21 = load i64, i64* %5, align 8
  br label %22

22:                                               ; preds = %19, %15
  %23 = phi i64 [ %6, %15 ], [ %21, %19 ]
  %24 = phi %"class.std::__1::basic_string"* [ %18, %15 ], [ %20, %19 ]
  %25 = and i64 %23, 1
  %26 = icmp eq i64 %25, 0
  br i1 %26, label %31, label %27, !prof !2

27:                                               ; preds = %22
  %28 = and i64 %23, -2
  %29 = inttoptr i64 %28 to %"struct.google::protobuf::internal::InternalMetadata::Container"*
  %30 = getelementptr inbounds %"struct.google::protobuf::internal::InternalMetadata::Container", %"struct.google::protobuf::internal::InternalMetadata::Container"* %29, i64 0, i32 1
  br label %33

31:                                               ; preds = %22
  %32 = tail call %"class.std::__1::basic_string"* @_ZN6google8protobuf8internal16InternalMetadata27mutable_unknown_fields_slowINSt3__112basic_stringIcNS4_11char_traitsIcEENS4_9allocatorIcEEEEEEPT_v(%"class.google::protobuf::internal::InternalMetadata"* %3) #15
  br label %33

33:                                               ; preds = %31, %27
  %34 = phi %"class.std::__1::basic_string"* [ %30, %27 ], [ %32, %31 ]
  %35 = bitcast %"class.std::__1::basic_string"* %34 to <2 x i64>*
  %36 = load <2 x i64>, <2 x i64>* %35, align 8
  %37 = getelementptr inbounds %"class.std::__1::basic_string", %"class.std::__1::basic_string"* %34, i64 0, i32 0, i32 0, i32 0, i32 0, i32 0, i32 2
  %38 = load i64, i64* %37, align 8
  %39 = bitcast %"class.std::__1::basic_string"* %34 to i8*
  %40 = bitcast %"class.std::__1::basic_string"* %24 to i8*
  tail call void @llvm.memcpy.p0i8.p0i8.i64(i8* align 8 %39, i8* align 8 %40, i64 24, i1 false) #15
  %41 = bitcast %"class.std::__1::basic_string"* %24 to <2 x i64>*
  store <2 x i64> %36, <2 x i64>* %41, align 8
  %42 = getelementptr inbounds %"class.std::__1::basic_string", %"class.std::__1::basic_string"* %24, i64 0, i32 0, i32 0, i32 0, i32 0, i32 0, i32 2
  store i64 %38, i64* %42, align 8
  br label %43

43:                                               ; preds = %2, %33
  %44 = getelementptr inbounds %"class.assist_ranker::ExamplePreprocessorConfig_Boundaries", %"class.assist_ranker::ExamplePreprocessorConfig_Boundaries"* %0, i64 0, i32 1
  %45 = getelementptr inbounds %"class.assist_ranker::ExamplePreprocessorConfig_Boundaries", %"class.assist_ranker::ExamplePreprocessorConfig_Boundaries"* %1, i64 0, i32 1
  %46 = bitcast %"class.google::protobuf::RepeatedField"* %44 to i8*
  %47 = bitcast %"class.google::protobuf::RepeatedField"* %45 to i8*
  %48 = bitcast %"class.google::protobuf::RepeatedField"* %44 to i128*
  %49 = load i128, i128* %48, align 1
  tail call void @llvm.memcpy.p0i8.p0i8.i64(i8* align 1 %46, i8* align 1 %47, i64 16, i1 false) #15
  %50 = bitcast %"class.google::protobuf::RepeatedField"* %45 to i128*
  store i128 %49, i128* %50, align 1
  ret void
}

; Function Attrs: nounwind ssp uwtable
define hidden void @_ZNK13assist_ranker36ExamplePreprocessorConfig_Boundaries11GetTypeNameEv(%"class.std::__1::basic_string"* noalias sret, %"class.assist_ranker::ExamplePreprocessorConfig_Boundaries"* nocapture readnone) unnamed_addr #0 align 2 {
  %3 = tail call i8* @_Znwm(i64 64) #16
  %4 = getelementptr inbounds %"class.std::__1::basic_string", %"class.std::__1::basic_string"* %0, i64 0, i32 0, i32 0, i32 0, i32 0, i32 0, i32 0
  store i8* %3, i8** %4, align 8
  %5 = getelementptr inbounds %"class.std::__1::basic_string", %"class.std::__1::basic_string"* %0, i64 0, i32 0, i32 0, i32 0, i32 0, i32 0, i32 1
  %6 = bitcast i64* %5 to <2 x i64>*
  store <2 x i64> <i64 50, i64 -9223372036854775744>, <2 x i64>* %6, align 8
  tail call void @llvm.memcpy.p0i8.p0i8.i64(i8* nonnull align 1 %3, i8* align 1 getelementptr inbounds ([51 x i8], [51 x i8]* @.str.5, i64 0, i64 0), i64 50, i1 false) #15
  %7 = getelementptr inbounds i8, i8* %3, i64 50
  store i8 0, i8* %7, align 1
  ret void
}

; Function Attrs: nofree norecurse nounwind ssp uwtable writeonly
define hidden void @_ZN13assist_ranker51ExamplePreprocessorConfig_BucketizersEntry_DoNotUseC2Ev(%"class.assist_ranker::ExamplePreprocessorConfig_BucketizersEntry_DoNotUse"* nocapture) unnamed_addr #1 align 2 {
  %2 = getelementptr inbounds %"class.assist_ranker::ExamplePreprocessorConfig_BucketizersEntry_DoNotUse", %"class.assist_ranker::ExamplePreprocessorConfig_BucketizersEntry_DoNotUse"* %0, i64 0, i32 0, i32 0, i32 0, i32 1, i32 0
  store i8* null, i8** %2, align 8
  %3 = getelementptr inbounds %"class.assist_ranker::ExamplePreprocessorConfig_BucketizersEntry_DoNotUse", %"class.assist_ranker::ExamplePreprocessorConfig_BucketizersEntry_DoNotUse"* %0, i64 0, i32 0, i32 0, i32 1, i32 0
  store %"class.std::__1::basic_string"* bitcast (%"class.google::protobuf::internal::ExplicitlyConstructed.56"* @_ZN6google8protobuf8internal26fixed_address_empty_stringE to %"class.std::__1::basic_string"*), %"class.std::__1::basic_string"** %3, align 8
  %4 = getelementptr inbounds %"class.assist_ranker::ExamplePreprocessorConfig_BucketizersEntry_DoNotUse", %"class.assist_ranker::ExamplePreprocessorConfig_BucketizersEntry_DoNotUse"* %0, i64 0, i32 0, i32 0, i32 2
  store %"class.assist_ranker::ExamplePreprocessorConfig_Boundaries"* null, %"class.assist_ranker::ExamplePreprocessorConfig_Boundaries"** %4, align 8
  %5 = getelementptr inbounds %"class.assist_ranker::ExamplePreprocessorConfig_BucketizersEntry_DoNotUse", %"class.assist_ranker::ExamplePreprocessorConfig_BucketizersEntry_DoNotUse"* %0, i64 0, i32 0, i32 0, i32 3, i64 0
  store i32 0, i32* %5, align 8
  %6 = getelementptr inbounds %"class.assist_ranker::ExamplePreprocessorConfig_BucketizersEntry_DoNotUse", %"class.assist_ranker::ExamplePreprocessorConfig_BucketizersEntry_DoNotUse"* %0, i64 0, i32 0, i32 0, i32 0, i32 0
  store i32 (...)** bitcast (i8** getelementptr inbounds ({ [18 x i8*] }, { [18 x i8*] }* @_ZTVN13assist_ranker51ExamplePreprocessorConfig_BucketizersEntry_DoNotUseE, i64 0, inrange i32 0, i64 2) to i32 (...)**), i32 (...)*** %6, align 8
  ret void
}

; Function Attrs: nofree norecurse nounwind ssp uwtable writeonly
define hidden void @_ZN13assist_ranker51ExamplePreprocessorConfig_BucketizersEntry_DoNotUseC2EPN6google8protobuf5ArenaE(%"class.assist_ranker::ExamplePreprocessorConfig_BucketizersEntry_DoNotUse"* nocapture, %"class.google::protobuf::Arena"*) unnamed_addr #1 align 2 {
  %3 = getelementptr inbounds %"class.assist_ranker::ExamplePreprocessorConfig_BucketizersEntry_DoNotUse", %"class.assist_ranker::ExamplePreprocessorConfig_BucketizersEntry_DoNotUse"* %0, i64 0, i32 0, i32 0, i32 0, i32 1
  %4 = bitcast %"class.google::protobuf::internal::InternalMetadata"* %3 to %"class.google::protobuf::Arena"**
  store %"class.google::protobuf::Arena"* %1, %"class.google::protobuf::Arena"** %4, align 8
  %5 = getelementptr inbounds %"class.assist_ranker::ExamplePreprocessorConfig_BucketizersEntry_DoNotUse", %"class.assist_ranker::ExamplePreprocessorConfig_BucketizersEntry_DoNotUse"* %0, i64 0, i32 0, i32 0, i32 1, i32 0
  store %"class.std::__1::basic_string"* bitcast (%"class.google::protobuf::internal::ExplicitlyConstructed.56"* @_ZN6google8protobuf8internal26fixed_address_empty_stringE to %"class.std::__1::basic_string"*), %"class.std::__1::basic_string"** %5, align 8
  %6 = getelementptr inbounds %"class.assist_ranker::ExamplePreprocessorConfig_BucketizersEntry_DoNotUse", %"class.assist_ranker::ExamplePreprocessorConfig_BucketizersEntry_DoNotUse"* %0, i64 0, i32 0, i32 0, i32 2
  store %"class.assist_ranker::ExamplePreprocessorConfig_Boundaries"* null, %"class.assist_ranker::ExamplePreprocessorConfig_Boundaries"** %6, align 8
  %7 = getelementptr inbounds %"class.assist_ranker::ExamplePreprocessorConfig_BucketizersEntry_DoNotUse", %"class.assist_ranker::ExamplePreprocessorConfig_BucketizersEntry_DoNotUse"* %0, i64 0, i32 0, i32 0, i32 3, i64 0
  store i32 0, i32* %7, align 8
  %8 = getelementptr inbounds %"class.assist_ranker::ExamplePreprocessorConfig_BucketizersEntry_DoNotUse", %"class.assist_ranker::ExamplePreprocessorConfig_BucketizersEntry_DoNotUse"* %0, i64 0, i32 0, i32 0, i32 0, i32 0
  store i32 (...)** bitcast (i8** getelementptr inbounds ({ [18 x i8*] }, { [18 x i8*] }* @_ZTVN13assist_ranker51ExamplePreprocessorConfig_BucketizersEntry_DoNotUseE, i64 0, inrange i32 0, i64 2) to i32 (...)**), i32 (...)*** %8, align 8
  ret void
}

; Function Attrs: nounwind ssp uwtable
define hidden void @_ZN13assist_ranker51ExamplePreprocessorConfig_BucketizersEntry_DoNotUse9MergeFromERKS0_(%"class.assist_ranker::ExamplePreprocessorConfig_BucketizersEntry_DoNotUse"*, %"class.assist_ranker::ExamplePreprocessorConfig_BucketizersEntry_DoNotUse"* dereferenceable(40)) local_unnamed_addr #0 align 2 {
  %3 = bitcast %"class.assist_ranker::ExamplePreprocessorConfig_BucketizersEntry_DoNotUse"* %0 to %"class.google::protobuf::internal::MapEntryImpl"*
  %4 = bitcast %"class.assist_ranker::ExamplePreprocessorConfig_BucketizersEntry_DoNotUse"* %1 to %"class.google::protobuf::internal::MapEntryImpl"*
  tail call void @_ZN6google8protobuf8internal12MapEntryImplIN13assist_ranker51ExamplePreprocessorConfig_BucketizersEntry_DoNotUseENS0_11MessageLiteENSt3__112basic_stringIcNS6_11char_traitsIcEENS6_9allocatorIcEEEENS3_36ExamplePreprocessorConfig_BoundariesELNS1_14WireFormatLite9FieldTypeE9ELSF_11EE17MergeFromInternalERKSG_(%"class.google::protobuf::internal::MapEntryImpl"* %3, %"class.google::protobuf::internal::MapEntryImpl"* dereferenceable(40) %4)
  ret void
}

; Function Attrs: nounwind ssp uwtable
define linkonce_odr hidden void @_ZN6google8protobuf8internal12MapEntryImplIN13assist_ranker51ExamplePreprocessorConfig_BucketizersEntry_DoNotUseENS0_11MessageLiteENSt3__112basic_stringIcNS6_11char_traitsIcEENS6_9allocatorIcEEEENS3_36ExamplePreprocessorConfig_BoundariesELNS1_14WireFormatLite9FieldTypeE9ELSF_11EE17MergeFromInternalERKSG_(%"class.google::protobuf::internal::MapEntryImpl"*, %"class.google::protobuf::internal::MapEntryImpl"* dereferenceable(40)) local_unnamed_addr #0 comdat align 2 {
  %3 = getelementptr inbounds %"class.google::protobuf::internal::MapEntryImpl", %"class.google::protobuf::internal::MapEntryImpl"* %1, i64 0, i32 3, i64 0
  %4 = load i32, i32* %3, align 8
  %5 = icmp eq i32 %4, 0
  br i1 %5, label %120, label %6

6:                                                ; preds = %2
  %7 = and i32 %4, 1
  %8 = icmp eq i32 %7, 0
  br i1 %8, label %86, label %9

9:                                                ; preds = %6
  %10 = getelementptr inbounds %"class.google::protobuf::internal::MapEntryImpl", %"class.google::protobuf::internal::MapEntryImpl"* %0, i64 0, i32 1
  %11 = getelementptr inbounds %"class.google::protobuf::internal::MapEntryImpl", %"class.google::protobuf::internal::MapEntryImpl"* %0, i64 0, i32 0, i32 1
  %12 = bitcast %"class.google::protobuf::internal::InternalMetadata"* %11 to i64*
  %13 = load i64, i64* %12, align 8
  %14 = and i64 %13, 1
  %15 = icmp eq i64 %14, 0
  %16 = and i64 %13, -2
  br i1 %15, label %21, label %17, !prof !3

17:                                               ; preds = %9
  %18 = inttoptr i64 %16 to %"struct.google::protobuf::internal::InternalMetadata::ContainerBase"*
  %19 = getelementptr inbounds %"struct.google::protobuf::internal::InternalMetadata::ContainerBase", %"struct.google::protobuf::internal::InternalMetadata::ContainerBase"* %18, i64 0, i32 0
  %20 = load %"class.google::protobuf::Arena"*, %"class.google::protobuf::Arena"** %19, align 8
  br label %23

21:                                               ; preds = %9
  %22 = inttoptr i64 %16 to %"class.google::protobuf::Arena"*
  br label %23

23:                                               ; preds = %17, %21
  %24 = phi %"class.google::protobuf::Arena"* [ %20, %17 ], [ %22, %21 ]
  %25 = getelementptr inbounds %"struct.google::protobuf::internal::ArenaStringPtr", %"struct.google::protobuf::internal::ArenaStringPtr"* %10, i64 0, i32 0
  %26 = load %"class.std::__1::basic_string"*, %"class.std::__1::basic_string"** %25, align 8
  %27 = icmp eq %"class.std::__1::basic_string"* %26, bitcast (%"class.google::protobuf::internal::ExplicitlyConstructed.56"* @_ZN6google8protobuf8internal26fixed_address_empty_stringE to %"class.std::__1::basic_string"*)
  br i1 %27, label %28, label %29

28:                                               ; preds = %23
  tail call void @_ZN6google8protobuf8internal14ArenaStringPtr14CreateInstanceEPNS0_5ArenaEPKNSt3__112basic_stringIcNS5_11char_traitsIcEENS5_9allocatorIcEEEE(%"struct.google::protobuf::internal::ArenaStringPtr"* %10, %"class.google::protobuf::Arena"* %24, %"class.std::__1::basic_string"* bitcast (%"class.google::protobuf::internal::ExplicitlyConstructed.56"* @_ZN6google8protobuf8internal26fixed_address_empty_stringE to %"class.std::__1::basic_string"*)) #15
  br label %29

29:                                               ; preds = %23, %28
  %30 = bitcast %"class.google::protobuf::internal::MapEntryImpl"* %1 to %"class.std::__1::basic_string"* (%"class.google::protobuf::internal::MapEntryImpl"*)***
  %31 = load %"class.std::__1::basic_string"* (%"class.google::protobuf::internal::MapEntryImpl"*)**, %"class.std::__1::basic_string"* (%"class.google::protobuf::internal::MapEntryImpl"*)*** %30, align 8
  %32 = getelementptr inbounds %"class.std::__1::basic_string"* (%"class.google::protobuf::internal::MapEntryImpl"*)*, %"class.std::__1::basic_string"* (%"class.google::protobuf::internal::MapEntryImpl"*)** %31, i64 14
  %33 = load %"class.std::__1::basic_string"* (%"class.google::protobuf::internal::MapEntryImpl"*)*, %"class.std::__1::basic_string"* (%"class.google::protobuf::internal::MapEntryImpl"*)** %32, align 8
  %34 = tail call dereferenceable(24) %"class.std::__1::basic_string"* %33(%"class.google::protobuf::internal::MapEntryImpl"* %1) #15
  %35 = load i64, i64* %12, align 8
  %36 = and i64 %35, 1
  %37 = icmp eq i64 %36, 0
  %38 = and i64 %35, -2
  br i1 %37, label %43, label %39, !prof !3

39:                                               ; preds = %29
  %40 = inttoptr i64 %38 to %"struct.google::protobuf::internal::InternalMetadata::ContainerBase"*
  %41 = getelementptr inbounds %"struct.google::protobuf::internal::InternalMetadata::ContainerBase", %"struct.google::protobuf::internal::InternalMetadata::ContainerBase"* %40, i64 0, i32 0
  %42 = load %"class.google::protobuf::Arena"*, %"class.google::protobuf::Arena"** %41, align 8
  br label %45

43:                                               ; preds = %29
  %44 = inttoptr i64 %38 to %"class.google::protobuf::Arena"*
  br label %45

45:                                               ; preds = %39, %43
  %46 = phi %"class.google::protobuf::Arena"* [ %42, %39 ], [ %44, %43 ]
  %47 = load %"class.std::__1::basic_string"*, %"class.std::__1::basic_string"** %25, align 8
  %48 = icmp eq %"class.std::__1::basic_string"* %47, bitcast (%"class.google::protobuf::internal::ExplicitlyConstructed.56"* @_ZN6google8protobuf8internal26fixed_address_empty_stringE to %"class.std::__1::basic_string"*)
  br i1 %48, label %49, label %50

49:                                               ; preds = %45
  tail call void @_ZN6google8protobuf8internal14ArenaStringPtr14CreateInstanceEPNS0_5ArenaEPKNSt3__112basic_stringIcNS5_11char_traitsIcEENS5_9allocatorIcEEEE(%"struct.google::protobuf::internal::ArenaStringPtr"* %10, %"class.google::protobuf::Arena"* %46, %"class.std::__1::basic_string"* %34) #15
  br label %81

50:                                               ; preds = %45
  %51 = icmp eq %"class.std::__1::basic_string"* %47, %34
  br i1 %51, label %81, label %52

52:                                               ; preds = %50
  %53 = bitcast %"class.std::__1::basic_string"* %47 to %"struct.std::__1::basic_string<char, std::__1::char_traits<char>, std::__1::allocator<char> >::__short"*
  %54 = getelementptr inbounds %"struct.std::__1::basic_string<char, std::__1::char_traits<char>, std::__1::allocator<char> >::__short", %"struct.std::__1::basic_string<char, std::__1::char_traits<char>, std::__1::allocator<char> >::__short"* %53, i64 0, i32 1, i32 0
  %55 = load i8, i8* %54, align 1
  %56 = icmp slt i8 %55, 0
  %57 = bitcast %"class.std::__1::basic_string"* %34 to %"struct.std::__1::basic_string<char, std::__1::char_traits<char>, std::__1::allocator<char> >::__short"*
  %58 = getelementptr inbounds %"struct.std::__1::basic_string<char, std::__1::char_traits<char>, std::__1::allocator<char> >::__short", %"struct.std::__1::basic_string<char, std::__1::char_traits<char>, std::__1::allocator<char> >::__short"* %57, i64 0, i32 1, i32 0
  %59 = load i8, i8* %58, align 1
  %60 = icmp slt i8 %59, 0
  br i1 %56, label %71, label %61

61:                                               ; preds = %52
  br i1 %60, label %65, label %62

62:                                               ; preds = %61
  %63 = bitcast %"class.std::__1::basic_string"* %47 to i8*
  %64 = bitcast %"class.std::__1::basic_string"* %34 to i8*
  tail call void @llvm.memcpy.p0i8.p0i8.i64(i8* align 8 %63, i8* align 8 %64, i64 24, i1 false) #15
  br label %81

65:                                               ; preds = %61
  %66 = getelementptr inbounds %"class.std::__1::basic_string", %"class.std::__1::basic_string"* %34, i64 0, i32 0, i32 0, i32 0, i32 0, i32 0, i32 0
  %67 = load i8*, i8** %66, align 8
  %68 = getelementptr inbounds %"class.std::__1::basic_string", %"class.std::__1::basic_string"* %34, i64 0, i32 0, i32 0, i32 0, i32 0, i32 0, i32 1
  %69 = load i64, i64* %68, align 8
  %70 = tail call dereferenceable(24) %"class.std::__1::basic_string"* @_ZNSt3__112basic_stringIcNS_11char_traitsIcEENS_9allocatorIcEEE17__assign_no_aliasILb1EEERS5_PKcm(%"class.std::__1::basic_string"* %47, i8* %67, i64 %69) #15
  br label %81

71:                                               ; preds = %52
  %72 = getelementptr inbounds %"class.std::__1::basic_string", %"class.std::__1::basic_string"* %34, i64 0, i32 0, i32 0, i32 0, i32 0, i32 0, i32 0
  %73 = load i8*, i8** %72, align 8
  %74 = getelementptr inbounds %"class.std::__1::basic_string", %"class.std::__1::basic_string"* %34, i64 0, i32 0, i32 0, i32 0, i32 0, i32 0, i32 1
  %75 = load i64, i64* %74, align 8
  %76 = bitcast %"class.std::__1::basic_string"* %34 to i8*
  %77 = zext i8 %59 to i64
  %78 = select i1 %60, i8* %73, i8* %76
  %79 = select i1 %60, i64 %75, i64 %77
  %80 = tail call dereferenceable(24) %"class.std::__1::basic_string"* @_ZNSt3__112basic_stringIcNS_11char_traitsIcEENS_9allocatorIcEEE17__assign_no_aliasILb0EEERS5_PKcm(%"class.std::__1::basic_string"* %47, i8* %78, i64 %79) #15
  br label %81

81:                                               ; preds = %49, %50, %62, %65, %71
  %82 = getelementptr inbounds %"class.google::protobuf::internal::MapEntryImpl", %"class.google::protobuf::internal::MapEntryImpl"* %0, i64 0, i32 3, i64 0
  %83 = load i32, i32* %82, align 8
  %84 = or i32 %83, 1
  store i32 %84, i32* %82, align 8
  %85 = load i32, i32* %3, align 8
  br label %86

86:                                               ; preds = %6, %81
  %87 = phi i32 [ %4, %6 ], [ %85, %81 ]
  %88 = and i32 %87, 2
  %89 = icmp eq i32 %88, 0
  br i1 %89, label %120, label %90

90:                                               ; preds = %86
  %91 = getelementptr inbounds %"class.google::protobuf::internal::MapEntryImpl", %"class.google::protobuf::internal::MapEntryImpl"* %0, i64 0, i32 2
  %92 = getelementptr inbounds %"class.google::protobuf::internal::MapEntryImpl", %"class.google::protobuf::internal::MapEntryImpl"* %0, i64 0, i32 0, i32 1
  %93 = bitcast %"class.google::protobuf::internal::InternalMetadata"* %92 to i64*
  %94 = load i64, i64* %93, align 8
  %95 = and i64 %94, 1
  %96 = icmp eq i64 %95, 0
  %97 = and i64 %94, -2
  br i1 %96, label %102, label %98, !prof !3

98:                                               ; preds = %90
  %99 = inttoptr i64 %97 to %"struct.google::protobuf::internal::InternalMetadata::ContainerBase"*
  %100 = getelementptr inbounds %"struct.google::protobuf::internal::InternalMetadata::ContainerBase", %"struct.google::protobuf::internal::InternalMetadata::ContainerBase"* %99, i64 0, i32 0
  %101 = load %"class.google::protobuf::Arena"*, %"class.google::protobuf::Arena"** %100, align 8
  br label %104

102:                                              ; preds = %90
  %103 = inttoptr i64 %97 to %"class.google::protobuf::Arena"*
  br label %104

104:                                              ; preds = %98, %102
  %105 = phi %"class.google::protobuf::Arena"* [ %101, %98 ], [ %103, %102 ]
  %106 = load %"class.assist_ranker::ExamplePreprocessorConfig_Boundaries"*, %"class.assist_ranker::ExamplePreprocessorConfig_Boundaries"** %91, align 8
  %107 = icmp eq %"class.assist_ranker::ExamplePreprocessorConfig_Boundaries"* %106, null
  br i1 %107, label %108, label %110

108:                                              ; preds = %104
  %109 = tail call %"class.assist_ranker::ExamplePreprocessorConfig_Boundaries"* @_ZN6google8protobuf5Arena18CreateMaybeMessageIN13assist_ranker36ExamplePreprocessorConfig_BoundariesEJEEEPT_PS1_DpOT0_(%"class.google::protobuf::Arena"* %105) #15
  store %"class.assist_ranker::ExamplePreprocessorConfig_Boundaries"* %109, %"class.assist_ranker::ExamplePreprocessorConfig_Boundaries"** %91, align 8
  br label %110

110:                                              ; preds = %104, %108
  %111 = bitcast %"class.google::protobuf::internal::MapEntryImpl"* %1 to %"class.assist_ranker::ExamplePreprocessorConfig_Boundaries"* (%"class.google::protobuf::internal::MapEntryImpl"*)***
  %112 = load %"class.assist_ranker::ExamplePreprocessorConfig_Boundaries"* (%"class.google::protobuf::internal::MapEntryImpl"*)**, %"class.assist_ranker::ExamplePreprocessorConfig_Boundaries"* (%"class.google::protobuf::internal::MapEntryImpl"*)*** %111, align 8
  %113 = getelementptr inbounds %"class.assist_ranker::ExamplePreprocessorConfig_Boundaries"* (%"class.google::protobuf::internal::MapEntryImpl"*)*, %"class.assist_ranker::ExamplePreprocessorConfig_Boundaries"* (%"class.google::protobuf::internal::MapEntryImpl"*)** %112, i64 15
  %114 = load %"class.assist_ranker::ExamplePreprocessorConfig_Boundaries"* (%"class.google::protobuf::internal::MapEntryImpl"*)*, %"class.assist_ranker::ExamplePreprocessorConfig_Boundaries"* (%"class.google::protobuf::internal::MapEntryImpl"*)** %113, align 8
  %115 = tail call dereferenceable(40) %"class.assist_ranker::ExamplePreprocessorConfig_Boundaries"* %114(%"class.google::protobuf::internal::MapEntryImpl"* %1) #15
  %116 = load %"class.assist_ranker::ExamplePreprocessorConfig_Boundaries"*, %"class.assist_ranker::ExamplePreprocessorConfig_Boundaries"** %91, align 8
  tail call void @_ZN13assist_ranker36ExamplePreprocessorConfig_Boundaries9MergeFromERKS0_(%"class.assist_ranker::ExamplePreprocessorConfig_Boundaries"* %116, %"class.assist_ranker::ExamplePreprocessorConfig_Boundaries"* dereferenceable(40) %115) #15
  %117 = getelementptr inbounds %"class.google::protobuf::internal::MapEntryImpl", %"class.google::protobuf::internal::MapEntryImpl"* %0, i64 0, i32 3, i64 0
  %118 = load i32, i32* %117, align 8
  %119 = or i32 %118, 2
  store i32 %119, i32* %117, align 8
  br label %120

120:                                              ; preds = %86, %2, %110
  ret void
}

; Function Attrs: nofree norecurse nounwind ssp uwtable writeonly
define hidden void @_ZN13assist_ranker54ExamplePreprocessorConfig_FeatureIndicesEntry_DoNotUseC2Ev(%"class.assist_ranker::ExamplePreprocessorConfig_FeatureIndicesEntry_DoNotUse"* nocapture) unnamed_addr #1 align 2 {
  %2 = getelementptr inbounds %"class.assist_ranker::ExamplePreprocessorConfig_FeatureIndicesEntry_DoNotUse", %"class.assist_ranker::ExamplePreprocessorConfig_FeatureIndicesEntry_DoNotUse"* %0, i64 0, i32 0, i32 0, i32 0, i32 1, i32 0
  store i8* null, i8** %2, align 8
  %3 = getelementptr inbounds %"class.assist_ranker::ExamplePreprocessorConfig_FeatureIndicesEntry_DoNotUse", %"class.assist_ranker::ExamplePreprocessorConfig_FeatureIndicesEntry_DoNotUse"* %0, i64 0, i32 0, i32 0, i32 1, i32 0
  store %"class.std::__1::basic_string"* bitcast (%"class.google::protobuf::internal::ExplicitlyConstructed.56"* @_ZN6google8protobuf8internal26fixed_address_empty_stringE to %"class.std::__1::basic_string"*), %"class.std::__1::basic_string"** %3, align 8
  %4 = getelementptr inbounds %"class.assist_ranker::ExamplePreprocessorConfig_FeatureIndicesEntry_DoNotUse", %"class.assist_ranker::ExamplePreprocessorConfig_FeatureIndicesEntry_DoNotUse"* %0, i64 0, i32 0, i32 0, i32 2
  store i32 0, i32* %4, align 4
  %5 = getelementptr inbounds %"class.assist_ranker::ExamplePreprocessorConfig_FeatureIndicesEntry_DoNotUse", %"class.assist_ranker::ExamplePreprocessorConfig_FeatureIndicesEntry_DoNotUse"* %0, i64 0, i32 0, i32 0, i32 3, i64 0
  store i32 0, i32* %5, align 4
  %6 = getelementptr inbounds %"class.assist_ranker::ExamplePreprocessorConfig_FeatureIndicesEntry_DoNotUse", %"class.assist_ranker::ExamplePreprocessorConfig_FeatureIndicesEntry_DoNotUse"* %0, i64 0, i32 0, i32 0, i32 0, i32 0
  store i32 (...)** bitcast (i8** getelementptr inbounds ({ [18 x i8*] }, { [18 x i8*] }* @_ZTVN13assist_ranker54ExamplePreprocessorConfig_FeatureIndicesEntry_DoNotUseE, i64 0, inrange i32 0, i64 2) to i32 (...)**), i32 (...)*** %6, align 8
  ret void
}

; Function Attrs: nofree norecurse nounwind ssp uwtable writeonly
define hidden void @_ZN13assist_ranker54ExamplePreprocessorConfig_FeatureIndicesEntry_DoNotUseC2EPN6google8protobuf5ArenaE(%"class.assist_ranker::ExamplePreprocessorConfig_FeatureIndicesEntry_DoNotUse"* nocapture, %"class.google::protobuf::Arena"*) unnamed_addr #1 align 2 {
  %3 = getelementptr inbounds %"class.assist_ranker::ExamplePreprocessorConfig_FeatureIndicesEntry_DoNotUse", %"class.assist_ranker::ExamplePreprocessorConfig_FeatureIndicesEntry_DoNotUse"* %0, i64 0, i32 0, i32 0, i32 0, i32 1
  %4 = bitcast %"class.google::protobuf::internal::InternalMetadata"* %3 to %"class.google::protobuf::Arena"**
  store %"class.google::protobuf::Arena"* %1, %"class.google::protobuf::Arena"** %4, align 8
  %5 = getelementptr inbounds %"class.assist_ranker::ExamplePreprocessorConfig_FeatureIndicesEntry_DoNotUse", %"class.assist_ranker::ExamplePreprocessorConfig_FeatureIndicesEntry_DoNotUse"* %0, i64 0, i32 0, i32 0, i32 1, i32 0
  store %"class.std::__1::basic_string"* bitcast (%"class.google::protobuf::internal::ExplicitlyConstructed.56"* @_ZN6google8protobuf8internal26fixed_address_empty_stringE to %"class.std::__1::basic_string"*), %"class.std::__1::basic_string"** %5, align 8
  %6 = getelementptr inbounds %"class.assist_ranker::ExamplePreprocessorConfig_FeatureIndicesEntry_DoNotUse", %"class.assist_ranker::ExamplePreprocessorConfig_FeatureIndicesEntry_DoNotUse"* %0, i64 0, i32 0, i32 0, i32 2
  store i32 0, i32* %6, align 4
  %7 = getelementptr inbounds %"class.assist_ranker::ExamplePreprocessorConfig_FeatureIndicesEntry_DoNotUse", %"class.assist_ranker::ExamplePreprocessorConfig_FeatureIndicesEntry_DoNotUse"* %0, i64 0, i32 0, i32 0, i32 3, i64 0
  store i32 0, i32* %7, align 4
  %8 = getelementptr inbounds %"class.assist_ranker::ExamplePreprocessorConfig_FeatureIndicesEntry_DoNotUse", %"class.assist_ranker::ExamplePreprocessorConfig_FeatureIndicesEntry_DoNotUse"* %0, i64 0, i32 0, i32 0, i32 0, i32 0
  store i32 (...)** bitcast (i8** getelementptr inbounds ({ [18 x i8*] }, { [18 x i8*] }* @_ZTVN13assist_ranker54ExamplePreprocessorConfig_FeatureIndicesEntry_DoNotUseE, i64 0, inrange i32 0, i64 2) to i32 (...)**), i32 (...)*** %8, align 8
  ret void
}

; Function Attrs: nounwind ssp uwtable
define hidden void @_ZN13assist_ranker54ExamplePreprocessorConfig_FeatureIndicesEntry_DoNotUse9MergeFromERKS0_(%"class.assist_ranker::ExamplePreprocessorConfig_FeatureIndicesEntry_DoNotUse"*, %"class.assist_ranker::ExamplePreprocessorConfig_FeatureIndicesEntry_DoNotUse"* dereferenceable(32)) local_unnamed_addr #0 align 2 {
  %3 = getelementptr inbounds %"class.assist_ranker::ExamplePreprocessorConfig_FeatureIndicesEntry_DoNotUse", %"class.assist_ranker::ExamplePreprocessorConfig_FeatureIndicesEntry_DoNotUse"* %0, i64 0, i32 0, i32 0
  %4 = getelementptr inbounds %"class.assist_ranker::ExamplePreprocessorConfig_FeatureIndicesEntry_DoNotUse", %"class.assist_ranker::ExamplePreprocessorConfig_FeatureIndicesEntry_DoNotUse"* %1, i64 0, i32 0, i32 0
  tail call void @_ZN6google8protobuf8internal12MapEntryImplIN13assist_ranker54ExamplePreprocessorConfig_FeatureIndicesEntry_DoNotUseENS0_11MessageLiteENSt3__112basic_stringIcNS6_11char_traitsIcEENS6_9allocatorIcEEEEiLNS1_14WireFormatLite9FieldTypeE9ELSE_5EE17MergeFromInternalERKSF_(%"class.google::protobuf::internal::MapEntryImpl.18"* %3, %"class.google::protobuf::internal::MapEntryImpl.18"* dereferenceable(32) %4)
  ret void
}

; Function Attrs: nounwind ssp uwtable
define linkonce_odr hidden void @_ZN6google8protobuf8internal12MapEntryImplIN13assist_ranker54ExamplePreprocessorConfig_FeatureIndicesEntry_DoNotUseENS0_11MessageLiteENSt3__112basic_stringIcNS6_11char_traitsIcEENS6_9allocatorIcEEEEiLNS1_14WireFormatLite9FieldTypeE9ELSE_5EE17MergeFromInternalERKSF_(%"class.google::protobuf::internal::MapEntryImpl.18"*, %"class.google::protobuf::internal::MapEntryImpl.18"* dereferenceable(32)) local_unnamed_addr #0 comdat align 2 {
  %3 = getelementptr inbounds %"class.google::protobuf::internal::MapEntryImpl.18", %"class.google::protobuf::internal::MapEntryImpl.18"* %1, i64 0, i32 3, i64 0
  %4 = load i32, i32* %3, align 4
  %5 = icmp eq i32 %4, 0
  br i1 %5, label %101, label %6

6:                                                ; preds = %2
  %7 = and i32 %4, 1
  %8 = icmp eq i32 %7, 0
  br i1 %8, label %86, label %9

9:                                                ; preds = %6
  %10 = getelementptr inbounds %"class.google::protobuf::internal::MapEntryImpl.18", %"class.google::protobuf::internal::MapEntryImpl.18"* %0, i64 0, i32 1
  %11 = getelementptr inbounds %"class.google::protobuf::internal::MapEntryImpl.18", %"class.google::protobuf::internal::MapEntryImpl.18"* %0, i64 0, i32 0, i32 1
  %12 = bitcast %"class.google::protobuf::internal::InternalMetadata"* %11 to i64*
  %13 = load i64, i64* %12, align 8
  %14 = and i64 %13, 1
  %15 = icmp eq i64 %14, 0
  %16 = and i64 %13, -2
  br i1 %15, label %21, label %17, !prof !3

17:                                               ; preds = %9
  %18 = inttoptr i64 %16 to %"struct.google::protobuf::internal::InternalMetadata::ContainerBase"*
  %19 = getelementptr inbounds %"struct.google::protobuf::internal::InternalMetadata::ContainerBase", %"struct.google::protobuf::internal::InternalMetadata::ContainerBase"* %18, i64 0, i32 0
  %20 = load %"class.google::protobuf::Arena"*, %"class.google::protobuf::Arena"** %19, align 8
  br label %23

21:                                               ; preds = %9
  %22 = inttoptr i64 %16 to %"class.google::protobuf::Arena"*
  br label %23

23:                                               ; preds = %17, %21
  %24 = phi %"class.google::protobuf::Arena"* [ %20, %17 ], [ %22, %21 ]
  %25 = getelementptr inbounds %"struct.google::protobuf::internal::ArenaStringPtr", %"struct.google::protobuf::internal::ArenaStringPtr"* %10, i64 0, i32 0
  %26 = load %"class.std::__1::basic_string"*, %"class.std::__1::basic_string"** %25, align 8
  %27 = icmp eq %"class.std::__1::basic_string"* %26, bitcast (%"class.google::protobuf::internal::ExplicitlyConstructed.56"* @_ZN6google8protobuf8internal26fixed_address_empty_stringE to %"class.std::__1::basic_string"*)
  br i1 %27, label %28, label %29

28:                                               ; preds = %23
  tail call void @_ZN6google8protobuf8internal14ArenaStringPtr14CreateInstanceEPNS0_5ArenaEPKNSt3__112basic_stringIcNS5_11char_traitsIcEENS5_9allocatorIcEEEE(%"struct.google::protobuf::internal::ArenaStringPtr"* %10, %"class.google::protobuf::Arena"* %24, %"class.std::__1::basic_string"* bitcast (%"class.google::protobuf::internal::ExplicitlyConstructed.56"* @_ZN6google8protobuf8internal26fixed_address_empty_stringE to %"class.std::__1::basic_string"*)) #15
  br label %29

29:                                               ; preds = %23, %28
  %30 = bitcast %"class.google::protobuf::internal::MapEntryImpl.18"* %1 to %"class.std::__1::basic_string"* (%"class.google::protobuf::internal::MapEntryImpl.18"*)***
  %31 = load %"class.std::__1::basic_string"* (%"class.google::protobuf::internal::MapEntryImpl.18"*)**, %"class.std::__1::basic_string"* (%"class.google::protobuf::internal::MapEntryImpl.18"*)*** %30, align 8
  %32 = getelementptr inbounds %"class.std::__1::basic_string"* (%"class.google::protobuf::internal::MapEntryImpl.18"*)*, %"class.std::__1::basic_string"* (%"class.google::protobuf::internal::MapEntryImpl.18"*)** %31, i64 14
  %33 = load %"class.std::__1::basic_string"* (%"class.google::protobuf::internal::MapEntryImpl.18"*)*, %"class.std::__1::basic_string"* (%"class.google::protobuf::internal::MapEntryImpl.18"*)** %32, align 8
  %34 = tail call dereferenceable(24) %"class.std::__1::basic_string"* %33(%"class.google::protobuf::internal::MapEntryImpl.18"* %1) #15
  %35 = load i64, i64* %12, align 8
  %36 = and i64 %35, 1
  %37 = icmp eq i64 %36, 0
  %38 = and i64 %35, -2
  br i1 %37, label %43, label %39, !prof !3

39:                                               ; preds = %29
  %40 = inttoptr i64 %38 to %"struct.google::protobuf::internal::InternalMetadata::ContainerBase"*
  %41 = getelementptr inbounds %"struct.google::protobuf::internal::InternalMetadata::ContainerBase", %"struct.google::protobuf::internal::InternalMetadata::ContainerBase"* %40, i64 0, i32 0
  %42 = load %"class.google::protobuf::Arena"*, %"class.google::protobuf::Arena"** %41, align 8
  br label %45

43:                                               ; preds = %29
  %44 = inttoptr i64 %38 to %"class.google::protobuf::Arena"*
  br label %45

45:                                               ; preds = %39, %43
  %46 = phi %"class.google::protobuf::Arena"* [ %42, %39 ], [ %44, %43 ]
  %47 = load %"class.std::__1::basic_string"*, %"class.std::__1::basic_string"** %25, align 8
  %48 = icmp eq %"class.std::__1::basic_string"* %47, bitcast (%"class.google::protobuf::internal::ExplicitlyConstructed.56"* @_ZN6google8protobuf8internal26fixed_address_empty_stringE to %"class.std::__1::basic_string"*)
  br i1 %48, label %49, label %50

49:                                               ; preds = %45
  tail call void @_ZN6google8protobuf8internal14ArenaStringPtr14CreateInstanceEPNS0_5ArenaEPKNSt3__112basic_stringIcNS5_11char_traitsIcEENS5_9allocatorIcEEEE(%"struct.google::protobuf::internal::ArenaStringPtr"* %10, %"class.google::protobuf::Arena"* %46, %"class.std::__1::basic_string"* %34) #15
  br label %81

50:                                               ; preds = %45
  %51 = icmp eq %"class.std::__1::basic_string"* %47, %34
  br i1 %51, label %81, label %52

52:                                               ; preds = %50
  %53 = bitcast %"class.std::__1::basic_string"* %47 to %"struct.std::__1::basic_string<char, std::__1::char_traits<char>, std::__1::allocator<char> >::__short"*
  %54 = getelementptr inbounds %"struct.std::__1::basic_string<char, std::__1::char_traits<char>, std::__1::allocator<char> >::__short", %"struct.std::__1::basic_string<char, std::__1::char_traits<char>, std::__1::allocator<char> >::__short"* %53, i64 0, i32 1, i32 0
  %55 = load i8, i8* %54, align 1
  %56 = icmp slt i8 %55, 0
  %57 = bitcast %"class.std::__1::basic_string"* %34 to %"struct.std::__1::basic_string<char, std::__1::char_traits<char>, std::__1::allocator<char> >::__short"*
  %58 = getelementptr inbounds %"struct.std::__1::basic_string<char, std::__1::char_traits<char>, std::__1::allocator<char> >::__short", %"struct.std::__1::basic_string<char, std::__1::char_traits<char>, std::__1::allocator<char> >::__short"* %57, i64 0, i32 1, i32 0
  %59 = load i8, i8* %58, align 1
  %60 = icmp slt i8 %59, 0
  br i1 %56, label %71, label %61

61:                                               ; preds = %52
  br i1 %60, label %65, label %62

62:                                               ; preds = %61
  %63 = bitcast %"class.std::__1::basic_string"* %47 to i8*
  %64 = bitcast %"class.std::__1::basic_string"* %34 to i8*
  tail call void @llvm.memcpy.p0i8.p0i8.i64(i8* align 8 %63, i8* align 8 %64, i64 24, i1 false) #15
  br label %81

65:                                               ; preds = %61
  %66 = getelementptr inbounds %"class.std::__1::basic_string", %"class.std::__1::basic_string"* %34, i64 0, i32 0, i32 0, i32 0, i32 0, i32 0, i32 0
  %67 = load i8*, i8** %66, align 8
  %68 = getelementptr inbounds %"class.std::__1::basic_string", %"class.std::__1::basic_string"* %34, i64 0, i32 0, i32 0, i32 0, i32 0, i32 0, i32 1
  %69 = load i64, i64* %68, align 8
  %70 = tail call dereferenceable(24) %"class.std::__1::basic_string"* @_ZNSt3__112basic_stringIcNS_11char_traitsIcEENS_9allocatorIcEEE17__assign_no_aliasILb1EEERS5_PKcm(%"class.std::__1::basic_string"* %47, i8* %67, i64 %69) #15
  br label %81

71:                                               ; preds = %52
  %72 = getelementptr inbounds %"class.std::__1::basic_string", %"class.std::__1::basic_string"* %34, i64 0, i32 0, i32 0, i32 0, i32 0, i32 0, i32 0
  %73 = load i8*, i8** %72, align 8
  %74 = getelementptr inbounds %"class.std::__1::basic_string", %"class.std::__1::basic_string"* %34, i64 0, i32 0, i32 0, i32 0, i32 0, i32 0, i32 1
  %75 = load i64, i64* %74, align 8
  %76 = bitcast %"class.std::__1::basic_string"* %34 to i8*
  %77 = zext i8 %59 to i64
  %78 = select i1 %60, i8* %73, i8* %76
  %79 = select i1 %60, i64 %75, i64 %77
  %80 = tail call dereferenceable(24) %"class.std::__1::basic_string"* @_ZNSt3__112basic_stringIcNS_11char_traitsIcEENS_9allocatorIcEEE17__assign_no_aliasILb0EEERS5_PKcm(%"class.std::__1::basic_string"* %47, i8* %78, i64 %79) #15
  br label %81

81:                                               ; preds = %49, %50, %62, %65, %71
  %82 = getelementptr inbounds %"class.google::protobuf::internal::MapEntryImpl.18", %"class.google::protobuf::internal::MapEntryImpl.18"* %0, i64 0, i32 3, i64 0
  %83 = load i32, i32* %82, align 4
  %84 = or i32 %83, 1
  store i32 %84, i32* %82, align 4
  %85 = load i32, i32* %3, align 4
  br label %86

86:                                               ; preds = %6, %81
  %87 = phi i32 [ %4, %6 ], [ %85, %81 ]
  %88 = and i32 %87, 2
  %89 = icmp eq i32 %88, 0
  br i1 %89, label %101, label %90

90:                                               ; preds = %86
  %91 = getelementptr inbounds %"class.google::protobuf::internal::MapEntryImpl.18", %"class.google::protobuf::internal::MapEntryImpl.18"* %0, i64 0, i32 2
  %92 = bitcast %"class.google::protobuf::internal::MapEntryImpl.18"* %1 to i32* (%"class.google::protobuf::internal::MapEntryImpl.18"*)***
  %93 = load i32* (%"class.google::protobuf::internal::MapEntryImpl.18"*)**, i32* (%"class.google::protobuf::internal::MapEntryImpl.18"*)*** %92, align 8
  %94 = getelementptr inbounds i32* (%"class.google::protobuf::internal::MapEntryImpl.18"*)*, i32* (%"class.google::protobuf::internal::MapEntryImpl.18"*)** %93, i64 15
  %95 = load i32* (%"class.google::protobuf::internal::MapEntryImpl.18"*)*, i32* (%"class.google::protobuf::internal::MapEntryImpl.18"*)** %94, align 8
  %96 = tail call dereferenceable(4) i32* %95(%"class.google::protobuf::internal::MapEntryImpl.18"* %1) #15
  %97 = load i32, i32* %96, align 4
  store i32 %97, i32* %91, align 4
  %98 = getelementptr inbounds %"class.google::protobuf::internal::MapEntryImpl.18", %"class.google::protobuf::internal::MapEntryImpl.18"* %0, i64 0, i32 3, i64 0
  %99 = load i32, i32* %98, align 4
  %100 = or i32 %99, 2
  store i32 %100, i32* %98, align 4
  br label %101

101:                                              ; preds = %86, %2, %90
  ret void
}

; Function Attrs: nofree norecurse nounwind ssp uwtable writeonly
define hidden void @_ZN13assist_ranker51ExamplePreprocessorConfig_NormalizersEntry_DoNotUseC2Ev(%"class.assist_ranker::ExamplePreprocessorConfig_NormalizersEntry_DoNotUse"* nocapture) unnamed_addr #1 align 2 {
  %2 = getelementptr inbounds %"class.assist_ranker::ExamplePreprocessorConfig_NormalizersEntry_DoNotUse", %"class.assist_ranker::ExamplePreprocessorConfig_NormalizersEntry_DoNotUse"* %0, i64 0, i32 0, i32 0, i32 0, i32 1, i32 0
  store i8* null, i8** %2, align 8
  %3 = getelementptr inbounds %"class.assist_ranker::ExamplePreprocessorConfig_NormalizersEntry_DoNotUse", %"class.assist_ranker::ExamplePreprocessorConfig_NormalizersEntry_DoNotUse"* %0, i64 0, i32 0, i32 0, i32 1, i32 0
  store %"class.std::__1::basic_string"* bitcast (%"class.google::protobuf::internal::ExplicitlyConstructed.56"* @_ZN6google8protobuf8internal26fixed_address_empty_stringE to %"class.std::__1::basic_string"*), %"class.std::__1::basic_string"** %3, align 8
  %4 = getelementptr inbounds %"class.assist_ranker::ExamplePreprocessorConfig_NormalizersEntry_DoNotUse", %"class.assist_ranker::ExamplePreprocessorConfig_NormalizersEntry_DoNotUse"* %0, i64 0, i32 0, i32 0, i32 2
  store float 0.000000e+00, float* %4, align 4
  %5 = getelementptr inbounds %"class.assist_ranker::ExamplePreprocessorConfig_NormalizersEntry_DoNotUse", %"class.assist_ranker::ExamplePreprocessorConfig_NormalizersEntry_DoNotUse"* %0, i64 0, i32 0, i32 0, i32 3, i64 0
  store i32 0, i32* %5, align 4
  %6 = getelementptr inbounds %"class.assist_ranker::ExamplePreprocessorConfig_NormalizersEntry_DoNotUse", %"class.assist_ranker::ExamplePreprocessorConfig_NormalizersEntry_DoNotUse"* %0, i64 0, i32 0, i32 0, i32 0, i32 0
  store i32 (...)** bitcast (i8** getelementptr inbounds ({ [18 x i8*] }, { [18 x i8*] }* @_ZTVN13assist_ranker51ExamplePreprocessorConfig_NormalizersEntry_DoNotUseE, i64 0, inrange i32 0, i64 2) to i32 (...)**), i32 (...)*** %6, align 8
  ret void
}

; Function Attrs: nofree norecurse nounwind ssp uwtable writeonly
define hidden void @_ZN13assist_ranker51ExamplePreprocessorConfig_NormalizersEntry_DoNotUseC2EPN6google8protobuf5ArenaE(%"class.assist_ranker::ExamplePreprocessorConfig_NormalizersEntry_DoNotUse"* nocapture, %"class.google::protobuf::Arena"*) unnamed_addr #1 align 2 {
  %3 = getelementptr inbounds %"class.assist_ranker::ExamplePreprocessorConfig_NormalizersEntry_DoNotUse", %"class.assist_ranker::ExamplePreprocessorConfig_NormalizersEntry_DoNotUse"* %0, i64 0, i32 0, i32 0, i32 0, i32 1
  %4 = bitcast %"class.google::protobuf::internal::InternalMetadata"* %3 to %"class.google::protobuf::Arena"**
  store %"class.google::protobuf::Arena"* %1, %"class.google::protobuf::Arena"** %4, align 8
  %5 = getelementptr inbounds %"class.assist_ranker::ExamplePreprocessorConfig_NormalizersEntry_DoNotUse", %"class.assist_ranker::ExamplePreprocessorConfig_NormalizersEntry_DoNotUse"* %0, i64 0, i32 0, i32 0, i32 1, i32 0
  store %"class.std::__1::basic_string"* bitcast (%"class.google::protobuf::internal::ExplicitlyConstructed.56"* @_ZN6google8protobuf8internal26fixed_address_empty_stringE to %"class.std::__1::basic_string"*), %"class.std::__1::basic_string"** %5, align 8
  %6 = getelementptr inbounds %"class.assist_ranker::ExamplePreprocessorConfig_NormalizersEntry_DoNotUse", %"class.assist_ranker::ExamplePreprocessorConfig_NormalizersEntry_DoNotUse"* %0, i64 0, i32 0, i32 0, i32 2
  store float 0.000000e+00, float* %6, align 4
  %7 = getelementptr inbounds %"class.assist_ranker::ExamplePreprocessorConfig_NormalizersEntry_DoNotUse", %"class.assist_ranker::ExamplePreprocessorConfig_NormalizersEntry_DoNotUse"* %0, i64 0, i32 0, i32 0, i32 3, i64 0
  store i32 0, i32* %7, align 4
  %8 = getelementptr inbounds %"class.assist_ranker::ExamplePreprocessorConfig_NormalizersEntry_DoNotUse", %"class.assist_ranker::ExamplePreprocessorConfig_NormalizersEntry_DoNotUse"* %0, i64 0, i32 0, i32 0, i32 0, i32 0
  store i32 (...)** bitcast (i8** getelementptr inbounds ({ [18 x i8*] }, { [18 x i8*] }* @_ZTVN13assist_ranker51ExamplePreprocessorConfig_NormalizersEntry_DoNotUseE, i64 0, inrange i32 0, i64 2) to i32 (...)**), i32 (...)*** %8, align 8
  ret void
}

; Function Attrs: nounwind ssp uwtable
define hidden void @_ZN13assist_ranker51ExamplePreprocessorConfig_NormalizersEntry_DoNotUse9MergeFromERKS0_(%"class.assist_ranker::ExamplePreprocessorConfig_NormalizersEntry_DoNotUse"*, %"class.assist_ranker::ExamplePreprocessorConfig_NormalizersEntry_DoNotUse"* dereferenceable(32)) local_unnamed_addr #0 align 2 {
  %3 = getelementptr inbounds %"class.assist_ranker::ExamplePreprocessorConfig_NormalizersEntry_DoNotUse", %"class.assist_ranker::ExamplePreprocessorConfig_NormalizersEntry_DoNotUse"* %0, i64 0, i32 0, i32 0
  %4 = getelementptr inbounds %"class.assist_ranker::ExamplePreprocessorConfig_NormalizersEntry_DoNotUse", %"class.assist_ranker::ExamplePreprocessorConfig_NormalizersEntry_DoNotUse"* %1, i64 0, i32 0, i32 0
  tail call void @_ZN6google8protobuf8internal12MapEntryImplIN13assist_ranker51ExamplePreprocessorConfig_NormalizersEntry_DoNotUseENS0_11MessageLiteENSt3__112basic_stringIcNS6_11char_traitsIcEENS6_9allocatorIcEEEEfLNS1_14WireFormatLite9FieldTypeE9ELSE_2EE17MergeFromInternalERKSF_(%"class.google::protobuf::internal::MapEntryImpl.20"* %3, %"class.google::protobuf::internal::MapEntryImpl.20"* dereferenceable(32) %4)
  ret void
}

; Function Attrs: nounwind ssp uwtable
define linkonce_odr hidden void @_ZN6google8protobuf8internal12MapEntryImplIN13assist_ranker51ExamplePreprocessorConfig_NormalizersEntry_DoNotUseENS0_11MessageLiteENSt3__112basic_stringIcNS6_11char_traitsIcEENS6_9allocatorIcEEEEfLNS1_14WireFormatLite9FieldTypeE9ELSE_2EE17MergeFromInternalERKSF_(%"class.google::protobuf::internal::MapEntryImpl.20"*, %"class.google::protobuf::internal::MapEntryImpl.20"* dereferenceable(32)) local_unnamed_addr #0 comdat align 2 {
  %3 = getelementptr inbounds %"class.google::protobuf::internal::MapEntryImpl.20", %"class.google::protobuf::internal::MapEntryImpl.20"* %1, i64 0, i32 3, i64 0
  %4 = load i32, i32* %3, align 4
  %5 = icmp eq i32 %4, 0
  br i1 %5, label %103, label %6

6:                                                ; preds = %2
  %7 = and i32 %4, 1
  %8 = icmp eq i32 %7, 0
  br i1 %8, label %86, label %9

9:                                                ; preds = %6
  %10 = getelementptr inbounds %"class.google::protobuf::internal::MapEntryImpl.20", %"class.google::protobuf::internal::MapEntryImpl.20"* %0, i64 0, i32 1
  %11 = getelementptr inbounds %"class.google::protobuf::internal::MapEntryImpl.20", %"class.google::protobuf::internal::MapEntryImpl.20"* %0, i64 0, i32 0, i32 1
  %12 = bitcast %"class.google::protobuf::internal::InternalMetadata"* %11 to i64*
  %13 = load i64, i64* %12, align 8
  %14 = and i64 %13, 1
  %15 = icmp eq i64 %14, 0
  %16 = and i64 %13, -2
  br i1 %15, label %21, label %17, !prof !3

17:                                               ; preds = %9
  %18 = inttoptr i64 %16 to %"struct.google::protobuf::internal::InternalMetadata::ContainerBase"*
  %19 = getelementptr inbounds %"struct.google::protobuf::internal::InternalMetadata::ContainerBase", %"struct.google::protobuf::internal::InternalMetadata::ContainerBase"* %18, i64 0, i32 0
  %20 = load %"class.google::protobuf::Arena"*, %"class.google::protobuf::Arena"** %19, align 8
  br label %23

21:                                               ; preds = %9
  %22 = inttoptr i64 %16 to %"class.google::protobuf::Arena"*
  br label %23

23:                                               ; preds = %17, %21
  %24 = phi %"class.google::protobuf::Arena"* [ %20, %17 ], [ %22, %21 ]
  %25 = getelementptr inbounds %"struct.google::protobuf::internal::ArenaStringPtr", %"struct.google::protobuf::internal::ArenaStringPtr"* %10, i64 0, i32 0
  %26 = load %"class.std::__1::basic_string"*, %"class.std::__1::basic_string"** %25, align 8
  %27 = icmp eq %"class.std::__1::basic_string"* %26, bitcast (%"class.google::protobuf::internal::ExplicitlyConstructed.56"* @_ZN6google8protobuf8internal26fixed_address_empty_stringE to %"class.std::__1::basic_string"*)
  br i1 %27, label %28, label %29

28:                                               ; preds = %23
  tail call void @_ZN6google8protobuf8internal14ArenaStringPtr14CreateInstanceEPNS0_5ArenaEPKNSt3__112basic_stringIcNS5_11char_traitsIcEENS5_9allocatorIcEEEE(%"struct.google::protobuf::internal::ArenaStringPtr"* %10, %"class.google::protobuf::Arena"* %24, %"class.std::__1::basic_string"* bitcast (%"class.google::protobuf::internal::ExplicitlyConstructed.56"* @_ZN6google8protobuf8internal26fixed_address_empty_stringE to %"class.std::__1::basic_string"*)) #15
  br label %29

29:                                               ; preds = %23, %28
  %30 = bitcast %"class.google::protobuf::internal::MapEntryImpl.20"* %1 to %"class.std::__1::basic_string"* (%"class.google::protobuf::internal::MapEntryImpl.20"*)***
  %31 = load %"class.std::__1::basic_string"* (%"class.google::protobuf::internal::MapEntryImpl.20"*)**, %"class.std::__1::basic_string"* (%"class.google::protobuf::internal::MapEntryImpl.20"*)*** %30, align 8
  %32 = getelementptr inbounds %"class.std::__1::basic_string"* (%"class.google::protobuf::internal::MapEntryImpl.20"*)*, %"class.std::__1::basic_string"* (%"class.google::protobuf::internal::MapEntryImpl.20"*)** %31, i64 14
  %33 = load %"class.std::__1::basic_string"* (%"class.google::protobuf::internal::MapEntryImpl.20"*)*, %"class.std::__1::basic_string"* (%"class.google::protobuf::internal::MapEntryImpl.20"*)** %32, align 8
  %34 = tail call dereferenceable(24) %"class.std::__1::basic_string"* %33(%"class.google::protobuf::internal::MapEntryImpl.20"* %1) #15
  %35 = load i64, i64* %12, align 8
  %36 = and i64 %35, 1
  %37 = icmp eq i64 %36, 0
  %38 = and i64 %35, -2
  br i1 %37, label %43, label %39, !prof !3

39:                                               ; preds = %29
  %40 = inttoptr i64 %38 to %"struct.google::protobuf::internal::InternalMetadata::ContainerBase"*
  %41 = getelementptr inbounds %"struct.google::protobuf::internal::InternalMetadata::ContainerBase", %"struct.google::protobuf::internal::InternalMetadata::ContainerBase"* %40, i64 0, i32 0
  %42 = load %"class.google::protobuf::Arena"*, %"class.google::protobuf::Arena"** %41, align 8
  br label %45

43:                                               ; preds = %29
  %44 = inttoptr i64 %38 to %"class.google::protobuf::Arena"*
  br label %45

45:                                               ; preds = %39, %43
  %46 = phi %"class.google::protobuf::Arena"* [ %42, %39 ], [ %44, %43 ]
  %47 = load %"class.std::__1::basic_string"*, %"class.std::__1::basic_string"** %25, align 8
  %48 = icmp eq %"class.std::__1::basic_string"* %47, bitcast (%"class.google::protobuf::internal::ExplicitlyConstructed.56"* @_ZN6google8protobuf8internal26fixed_address_empty_stringE to %"class.std::__1::basic_string"*)
  br i1 %48, label %49, label %50

49:                                               ; preds = %45
  tail call void @_ZN6google8protobuf8internal14ArenaStringPtr14CreateInstanceEPNS0_5ArenaEPKNSt3__112basic_stringIcNS5_11char_traitsIcEENS5_9allocatorIcEEEE(%"struct.google::protobuf::internal::ArenaStringPtr"* %10, %"class.google::protobuf::Arena"* %46, %"class.std::__1::basic_string"* %34) #15
  br label %81

50:                                               ; preds = %45
  %51 = icmp eq %"class.std::__1::basic_string"* %47, %34
  br i1 %51, label %81, label %52

52:                                               ; preds = %50
  %53 = bitcast %"class.std::__1::basic_string"* %47 to %"struct.std::__1::basic_string<char, std::__1::char_traits<char>, std::__1::allocator<char> >::__short"*
  %54 = getelementptr inbounds %"struct.std::__1::basic_string<char, std::__1::char_traits<char>, std::__1::allocator<char> >::__short", %"struct.std::__1::basic_string<char, std::__1::char_traits<char>, std::__1::allocator<char> >::__short"* %53, i64 0, i32 1, i32 0
  %55 = load i8, i8* %54, align 1
  %56 = icmp slt i8 %55, 0
  %57 = bitcast %"class.std::__1::basic_string"* %34 to %"struct.std::__1::basic_string<char, std::__1::char_traits<char>, std::__1::allocator<char> >::__short"*
  %58 = getelementptr inbounds %"struct.std::__1::basic_string<char, std::__1::char_traits<char>, std::__1::allocator<char> >::__short", %"struct.std::__1::basic_string<char, std::__1::char_traits<char>, std::__1::allocator<char> >::__short"* %57, i64 0, i32 1, i32 0
  %59 = load i8, i8* %58, align 1
  %60 = icmp slt i8 %59, 0
  br i1 %56, label %71, label %61

61:                                               ; preds = %52
  br i1 %60, label %65, label %62

62:                                               ; preds = %61
  %63 = bitcast %"class.std::__1::basic_string"* %47 to i8*
  %64 = bitcast %"class.std::__1::basic_string"* %34 to i8*
  tail call void @llvm.memcpy.p0i8.p0i8.i64(i8* align 8 %63, i8* align 8 %64, i64 24, i1 false) #15
  br label %81

65:                                               ; preds = %61
  %66 = getelementptr inbounds %"class.std::__1::basic_string", %"class.std::__1::basic_string"* %34, i64 0, i32 0, i32 0, i32 0, i32 0, i32 0, i32 0
  %67 = load i8*, i8** %66, align 8
  %68 = getelementptr inbounds %"class.std::__1::basic_string", %"class.std::__1::basic_string"* %34, i64 0, i32 0, i32 0, i32 0, i32 0, i32 0, i32 1
  %69 = load i64, i64* %68, align 8
  %70 = tail call dereferenceable(24) %"class.std::__1::basic_string"* @_ZNSt3__112basic_stringIcNS_11char_traitsIcEENS_9allocatorIcEEE17__assign_no_aliasILb1EEERS5_PKcm(%"class.std::__1::basic_string"* %47, i8* %67, i64 %69) #15
  br label %81

71:                                               ; preds = %52
  %72 = getelementptr inbounds %"class.std::__1::basic_string", %"class.std::__1::basic_string"* %34, i64 0, i32 0, i32 0, i32 0, i32 0, i32 0, i32 0
  %73 = load i8*, i8** %72, align 8
  %74 = getelementptr inbounds %"class.std::__1::basic_string", %"class.std::__1::basic_string"* %34, i64 0, i32 0, i32 0, i32 0, i32 0, i32 0, i32 1
  %75 = load i64, i64* %74, align 8
  %76 = bitcast %"class.std::__1::basic_string"* %34 to i8*
  %77 = zext i8 %59 to i64
  %78 = select i1 %60, i8* %73, i8* %76
  %79 = select i1 %60, i64 %75, i64 %77
  %80 = tail call dereferenceable(24) %"class.std::__1::basic_string"* @_ZNSt3__112basic_stringIcNS_11char_traitsIcEENS_9allocatorIcEEE17__assign_no_aliasILb0EEERS5_PKcm(%"class.std::__1::basic_string"* %47, i8* %78, i64 %79) #15
  br label %81

81:                                               ; preds = %49, %50, %62, %65, %71
  %82 = getelementptr inbounds %"class.google::protobuf::internal::MapEntryImpl.20", %"class.google::protobuf::internal::MapEntryImpl.20"* %0, i64 0, i32 3, i64 0
  %83 = load i32, i32* %82, align 4
  %84 = or i32 %83, 1
  store i32 %84, i32* %82, align 4
  %85 = load i32, i32* %3, align 4
  br label %86

86:                                               ; preds = %6, %81
  %87 = phi i32 [ %4, %6 ], [ %85, %81 ]
  %88 = and i32 %87, 2
  %89 = icmp eq i32 %88, 0
  br i1 %89, label %103, label %90

90:                                               ; preds = %86
  %91 = getelementptr inbounds %"class.google::protobuf::internal::MapEntryImpl.20", %"class.google::protobuf::internal::MapEntryImpl.20"* %0, i64 0, i32 2
  %92 = bitcast %"class.google::protobuf::internal::MapEntryImpl.20"* %1 to float* (%"class.google::protobuf::internal::MapEntryImpl.20"*)***
  %93 = load float* (%"class.google::protobuf::internal::MapEntryImpl.20"*)**, float* (%"class.google::protobuf::internal::MapEntryImpl.20"*)*** %92, align 8
  %94 = getelementptr inbounds float* (%"class.google::protobuf::internal::MapEntryImpl.20"*)*, float* (%"class.google::protobuf::internal::MapEntryImpl.20"*)** %93, i64 15
  %95 = load float* (%"class.google::protobuf::internal::MapEntryImpl.20"*)*, float* (%"class.google::protobuf::internal::MapEntryImpl.20"*)** %94, align 8
  %96 = tail call dereferenceable(4) float* %95(%"class.google::protobuf::internal::MapEntryImpl.20"* %1) #15
  %97 = bitcast float* %96 to i32*
  %98 = load i32, i32* %97, align 4
  %99 = bitcast float* %91 to i32*
  store i32 %98, i32* %99, align 4
  %100 = getelementptr inbounds %"class.google::protobuf::internal::MapEntryImpl.20", %"class.google::protobuf::internal::MapEntryImpl.20"* %0, i64 0, i32 3, i64 0
  %101 = load i32, i32* %100, align 4
  %102 = or i32 %101, 2
  store i32 %102, i32* %100, align 4
  br label %103

103:                                              ; preds = %86, %2, %90
  ret void
}

; Function Attrs: nounwind ssp uwtable
define hidden void @_ZN13assist_ranker25ExamplePreprocessorConfigC2EPN6google8protobuf5ArenaE(%"class.assist_ranker::ExamplePreprocessorConfig"*, %"class.google::protobuf::Arena"*) unnamed_addr #0 align 2 {
  %3 = getelementptr inbounds %"class.assist_ranker::ExamplePreprocessorConfig", %"class.assist_ranker::ExamplePreprocessorConfig"* %0, i64 0, i32 0, i32 0
  %4 = getelementptr inbounds %"class.assist_ranker::ExamplePreprocessorConfig", %"class.assist_ranker::ExamplePreprocessorConfig"* %0, i64 0, i32 0, i32 1
  %5 = bitcast %"class.google::protobuf::internal::InternalMetadata"* %4 to %"class.google::protobuf::Arena"**
  store %"class.google::protobuf::Arena"* %1, %"class.google::protobuf::Arena"** %5, align 8
  store i32 (...)** bitcast (i8** getelementptr inbounds ({ [16 x i8*] }, { [16 x i8*] }* @_ZTVN13assist_ranker25ExamplePreprocessorConfigE, i64 0, inrange i32 0, i64 2) to i32 (...)**), i32 (...)*** %3, align 8
  %6 = getelementptr inbounds %"class.assist_ranker::ExamplePreprocessorConfig", %"class.assist_ranker::ExamplePreprocessorConfig"* %0, i64 0, i32 1, i32 0, i32 0
  store %"class.google::protobuf::Arena"* %1, %"class.google::protobuf::Arena"** %6, align 8
  %7 = getelementptr inbounds %"class.assist_ranker::ExamplePreprocessorConfig", %"class.assist_ranker::ExamplePreprocessorConfig"* %0, i64 0, i32 1, i32 0, i32 1
  %8 = getelementptr inbounds %"class.assist_ranker::ExamplePreprocessorConfig", %"class.assist_ranker::ExamplePreprocessorConfig"* %0, i64 0, i32 2
  %9 = getelementptr inbounds %"class.assist_ranker::ExamplePreprocessorConfig", %"class.assist_ranker::ExamplePreprocessorConfig"* %0, i64 0, i32 2, i32 0, i32 0, i32 1
  %10 = bitcast i32* %7 to i8*
  call void @llvm.memset.p0i8.i64(i8* align 8 %10, i8 0, i64 24, i1 false)
  store i64 1, i64* %9, align 8
  %11 = getelementptr inbounds %"class.assist_ranker::ExamplePreprocessorConfig", %"class.assist_ranker::ExamplePreprocessorConfig"* %0, i64 0, i32 2, i32 0, i32 0, i32 2
  %12 = ptrtoint %"class.google::protobuf::internal::MapFieldLite"* %8 to i64
  %13 = lshr i64 %12, 12
  %14 = tail call { i32, i32 } asm sideeffect "rdtsc", "={ax},={dx},~{dirflag},~{fpsr},~{flags}"() #15, !srcloc !5
  %15 = extractvalue { i32, i32 } %14, 0
  %16 = extractvalue { i32, i32 } %14, 1
  %17 = zext i32 %16 to i64
  %18 = shl nuw i64 %17, 32
  %19 = zext i32 %15 to i64
  %20 = or i64 %18, %19
  %21 = add i64 %20, %13
  store i64 %21, i64* %11, align 8
  %22 = getelementptr inbounds %"class.assist_ranker::ExamplePreprocessorConfig", %"class.assist_ranker::ExamplePreprocessorConfig"* %0, i64 0, i32 2, i32 0, i32 0, i32 3
  %23 = load i64, i64* %9, align 8
  store i64 %23, i64* %22, align 8
  %24 = getelementptr inbounds %"class.assist_ranker::ExamplePreprocessorConfig", %"class.assist_ranker::ExamplePreprocessorConfig"* %0, i64 0, i32 2, i32 0, i32 0, i32 4
  store i8** getelementptr inbounds ([1 x i8*], [1 x i8*]* @_ZN6google8protobuf8internal17kGlobalEmptyTableE, i64 0, i64 0), i8*** %24, align 8
  %25 = getelementptr inbounds %"class.assist_ranker::ExamplePreprocessorConfig", %"class.assist_ranker::ExamplePreprocessorConfig"* %0, i64 0, i32 2, i32 0, i32 0, i32 5, i32 0
  store %"class.google::protobuf::Arena"* %1, %"class.google::protobuf::Arena"** %25, align 8
  %26 = getelementptr inbounds %"class.assist_ranker::ExamplePreprocessorConfig", %"class.assist_ranker::ExamplePreprocessorConfig"* %0, i64 0, i32 3
  %27 = getelementptr inbounds %"class.assist_ranker::ExamplePreprocessorConfig", %"class.assist_ranker::ExamplePreprocessorConfig"* %0, i64 0, i32 3, i32 0, i32 0, i32 1
  %28 = bitcast %"class.google::protobuf::internal::MapFieldLite.21"* %26 to <2 x i64>*
  store <2 x i64> <i64 0, i64 1>, <2 x i64>* %28, align 8
  %29 = getelementptr inbounds %"class.assist_ranker::ExamplePreprocessorConfig", %"class.assist_ranker::ExamplePreprocessorConfig"* %0, i64 0, i32 3, i32 0, i32 0, i32 2
  %30 = ptrtoint %"class.google::protobuf::internal::MapFieldLite.21"* %26 to i64
  %31 = lshr i64 %30, 12
  %32 = tail call { i32, i32 } asm sideeffect "rdtsc", "={ax},={dx},~{dirflag},~{fpsr},~{flags}"() #15, !srcloc !5
  %33 = extractvalue { i32, i32 } %32, 0
  %34 = extractvalue { i32, i32 } %32, 1
  %35 = zext i32 %34 to i64
  %36 = shl nuw i64 %35, 32
  %37 = zext i32 %33 to i64
  %38 = or i64 %36, %37
  %39 = add i64 %38, %31
  store i64 %39, i64* %29, align 8
  %40 = getelementptr inbounds %"class.assist_ranker::ExamplePreprocessorConfig", %"class.assist_ranker::ExamplePreprocessorConfig"* %0, i64 0, i32 3, i32 0, i32 0, i32 3
  %41 = load i64, i64* %27, align 8
  store i64 %41, i64* %40, align 8
  %42 = getelementptr inbounds %"class.assist_ranker::ExamplePreprocessorConfig", %"class.assist_ranker::ExamplePreprocessorConfig"* %0, i64 0, i32 3, i32 0, i32 0, i32 4
  store i8** getelementptr inbounds ([1 x i8*], [1 x i8*]* @_ZN6google8protobuf8internal17kGlobalEmptyTableE, i64 0, i64 0), i8*** %42, align 8
  %43 = getelementptr inbounds %"class.assist_ranker::ExamplePreprocessorConfig", %"class.assist_ranker::ExamplePreprocessorConfig"* %0, i64 0, i32 3, i32 0, i32 0, i32 5, i32 0
  store %"class.google::protobuf::Arena"* %1, %"class.google::protobuf::Arena"** %43, align 8
  %44 = getelementptr inbounds %"class.assist_ranker::ExamplePreprocessorConfig", %"class.assist_ranker::ExamplePreprocessorConfig"* %0, i64 0, i32 4
  %45 = getelementptr inbounds %"class.assist_ranker::ExamplePreprocessorConfig", %"class.assist_ranker::ExamplePreprocessorConfig"* %0, i64 0, i32 4, i32 0, i32 0, i32 1
  %46 = bitcast %"class.google::protobuf::internal::MapFieldLite.23"* %44 to <2 x i64>*
  store <2 x i64> <i64 0, i64 1>, <2 x i64>* %46, align 8
  %47 = getelementptr inbounds %"class.assist_ranker::ExamplePreprocessorConfig", %"class.assist_ranker::ExamplePreprocessorConfig"* %0, i64 0, i32 4, i32 0, i32 0, i32 2
  %48 = ptrtoint %"class.google::protobuf::internal::MapFieldLite.23"* %44 to i64
  %49 = lshr i64 %48, 12
  %50 = tail call { i32, i32 } asm sideeffect "rdtsc", "={ax},={dx},~{dirflag},~{fpsr},~{flags}"() #15, !srcloc !5
  %51 = extractvalue { i32, i32 } %50, 0
  %52 = extractvalue { i32, i32 } %50, 1
  %53 = zext i32 %52 to i64
  %54 = shl nuw i64 %53, 32
  %55 = zext i32 %51 to i64
  %56 = or i64 %54, %55
  %57 = add i64 %56, %49
  store i64 %57, i64* %47, align 8
  %58 = getelementptr inbounds %"class.assist_ranker::ExamplePreprocessorConfig", %"class.assist_ranker::ExamplePreprocessorConfig"* %0, i64 0, i32 4, i32 0, i32 0, i32 3
  %59 = load i64, i64* %45, align 8
  store i64 %59, i64* %58, align 8
  %60 = getelementptr inbounds %"class.assist_ranker::ExamplePreprocessorConfig", %"class.assist_ranker::ExamplePreprocessorConfig"* %0, i64 0, i32 4, i32 0, i32 0, i32 4
  store i8** getelementptr inbounds ([1 x i8*], [1 x i8*]* @_ZN6google8protobuf8internal17kGlobalEmptyTableE, i64 0, i64 0), i8*** %60, align 8
  %61 = getelementptr inbounds %"class.assist_ranker::ExamplePreprocessorConfig", %"class.assist_ranker::ExamplePreprocessorConfig"* %0, i64 0, i32 4, i32 0, i32 0, i32 5, i32 0
  store %"class.google::protobuf::Arena"* %1, %"class.google::protobuf::Arena"** %61, align 8
  %62 = getelementptr inbounds %"class.assist_ranker::ExamplePreprocessorConfig", %"class.assist_ranker::ExamplePreprocessorConfig"* %0, i64 0, i32 5, i32 0, i32 0
  store %"class.google::protobuf::Arena"* %1, %"class.google::protobuf::Arena"** %62, align 8
  %63 = getelementptr inbounds %"class.assist_ranker::ExamplePreprocessorConfig", %"class.assist_ranker::ExamplePreprocessorConfig"* %0, i64 0, i32 5, i32 0, i32 1
  %64 = bitcast i32* %63 to i8*
  call void @llvm.memset.p0i8.i64(i8* align 8 %64, i8 0, i64 20, i1 false)
  %65 = load atomic i32, i32* getelementptr inbounds ({ { { { i32 } }, i32, i32, void ()* }, [3 x i8*] }, { { { { i32 } }, i32, i32, void ()* }, [3 x i8*] }* @scc_info_ExamplePreprocessorConfig_example_5fpreprocessor_2eproto, i64 0, i32 0, i32 0, i32 0, i32 0) acquire, align 8
  %66 = icmp eq i32 %65, 0
  br i1 %66, label %68, label %67, !prof !3

67:                                               ; preds = %2
  tail call void @_ZN6google8protobuf8internal11InitSCCImplEPNS1_11SCCInfoBaseE(%"struct.google::protobuf::internal::SCCInfoBase"* bitcast ({ { { { i32 } }, i32, i32, void ()* }, [3 x i8*] }* @scc_info_ExamplePreprocessorConfig_example_5fpreprocessor_2eproto to %"struct.google::protobuf::internal::SCCInfoBase"*)) #15
  br label %68

68:                                               ; preds = %2, %67
  ret void
}

; Function Attrs: nounwind ssp uwtable
define hidden void @_ZN13assist_ranker25ExamplePreprocessorConfigC2ERKS0_(%"class.assist_ranker::ExamplePreprocessorConfig"*, %"class.assist_ranker::ExamplePreprocessorConfig"* dereferenceable(216)) unnamed_addr #0 align 2 {
  %3 = alloca %"struct.std::__1::pair.75", align 8
  %4 = alloca %"class.google::protobuf::Map<std::__1::basic_string<char, std::__1::char_traits<char>, std::__1::allocator<char> >, int>::const_iterator", align 8
  %5 = alloca %"struct.std::__1::pair.80", align 8
  %6 = alloca %"class.google::protobuf::Map<std::__1::basic_string<char, std::__1::char_traits<char>, std::__1::allocator<char> >, float>::const_iterator", align 8
  %7 = getelementptr inbounds %"class.assist_ranker::ExamplePreprocessorConfig", %"class.assist_ranker::ExamplePreprocessorConfig"* %0, i64 0, i32 0, i32 0
  %8 = getelementptr inbounds %"class.assist_ranker::ExamplePreprocessorConfig", %"class.assist_ranker::ExamplePreprocessorConfig"* %0, i64 0, i32 0, i32 1, i32 0
  store i8* null, i8** %8, align 8
  store i32 (...)** bitcast (i8** getelementptr inbounds ({ [16 x i8*] }, { [16 x i8*] }* @_ZTVN13assist_ranker25ExamplePreprocessorConfigE, i64 0, inrange i32 0, i64 2) to i32 (...)**), i32 (...)*** %7, align 8
  %9 = getelementptr inbounds %"class.assist_ranker::ExamplePreprocessorConfig", %"class.assist_ranker::ExamplePreprocessorConfig"* %0, i64 0, i32 1
  %10 = getelementptr inbounds %"class.google::protobuf::RepeatedPtrField", %"class.google::protobuf::RepeatedPtrField"* %9, i64 0, i32 0
  %11 = bitcast %"class.google::protobuf::RepeatedPtrField"* %9 to i8*
  tail call void @llvm.memset.p0i8.i64(i8* align 8 %11, i8 0, i64 24, i1 false) #15
  %12 = getelementptr inbounds %"class.assist_ranker::ExamplePreprocessorConfig", %"class.assist_ranker::ExamplePreprocessorConfig"* %1, i64 0, i32 1, i32 0
  tail call void @_ZN6google8protobuf8internal20RepeatedPtrFieldBase9MergeFromINS0_16RepeatedPtrFieldINSt3__112basic_stringIcNS5_11char_traitsIcEENS5_9allocatorIcEEEEE11TypeHandlerEEEvRKS2_(%"class.google::protobuf::internal::RepeatedPtrFieldBase"* %10, %"class.google::protobuf::internal::RepeatedPtrFieldBase"* dereferenceable(24) %12) #15
  %13 = getelementptr inbounds %"class.assist_ranker::ExamplePreprocessorConfig", %"class.assist_ranker::ExamplePreprocessorConfig"* %0, i64 0, i32 2
  %14 = getelementptr inbounds %"class.assist_ranker::ExamplePreprocessorConfig", %"class.assist_ranker::ExamplePreprocessorConfig"* %0, i64 0, i32 2, i32 0, i32 0, i32 1
  %15 = bitcast %"class.google::protobuf::internal::MapFieldLite"* %13 to <2 x i64>*
  store <2 x i64> <i64 0, i64 1>, <2 x i64>* %15, align 8
  %16 = getelementptr inbounds %"class.assist_ranker::ExamplePreprocessorConfig", %"class.assist_ranker::ExamplePreprocessorConfig"* %0, i64 0, i32 2, i32 0, i32 0, i32 2
  %17 = ptrtoint %"class.google::protobuf::internal::MapFieldLite"* %13 to i64
  %18 = lshr i64 %17, 12
  %19 = tail call { i32, i32 } asm sideeffect "rdtsc", "={ax},={dx},~{dirflag},~{fpsr},~{flags}"() #15, !srcloc !5
  %20 = extractvalue { i32, i32 } %19, 0
  %21 = extractvalue { i32, i32 } %19, 1
  %22 = zext i32 %21 to i64
  %23 = shl nuw i64 %22, 32
  %24 = zext i32 %20 to i64
  %25 = or i64 %23, %24
  %26 = add i64 %25, %18
  store i64 %26, i64* %16, align 8
  %27 = getelementptr inbounds %"class.assist_ranker::ExamplePreprocessorConfig", %"class.assist_ranker::ExamplePreprocessorConfig"* %0, i64 0, i32 2, i32 0, i32 0, i32 3
  %28 = load i64, i64* %14, align 8
  store i64 %28, i64* %27, align 8
  %29 = getelementptr inbounds %"class.assist_ranker::ExamplePreprocessorConfig", %"class.assist_ranker::ExamplePreprocessorConfig"* %0, i64 0, i32 2, i32 0, i32 0, i32 4
  store i8** getelementptr inbounds ([1 x i8*], [1 x i8*]* @_ZN6google8protobuf8internal17kGlobalEmptyTableE, i64 0, i64 0), i8*** %29, align 8
  %30 = getelementptr inbounds %"class.assist_ranker::ExamplePreprocessorConfig", %"class.assist_ranker::ExamplePreprocessorConfig"* %0, i64 0, i32 2, i32 0, i32 0, i32 5, i32 0
  %31 = getelementptr inbounds %"class.assist_ranker::ExamplePreprocessorConfig", %"class.assist_ranker::ExamplePreprocessorConfig"* %0, i64 0, i32 3
  %32 = getelementptr inbounds %"class.assist_ranker::ExamplePreprocessorConfig", %"class.assist_ranker::ExamplePreprocessorConfig"* %0, i64 0, i32 3, i32 0, i32 0, i32 1
  %33 = bitcast %"class.google::protobuf::Arena"** %30 to i8*
  call void @llvm.memset.p0i8.i64(i8* align 8 %33, i8 0, i64 16, i1 false)
  store i64 1, i64* %32, align 8
  %34 = getelementptr inbounds %"class.assist_ranker::ExamplePreprocessorConfig", %"class.assist_ranker::ExamplePreprocessorConfig"* %0, i64 0, i32 3, i32 0, i32 0, i32 2
  %35 = ptrtoint %"class.google::protobuf::internal::MapFieldLite.21"* %31 to i64
  %36 = lshr i64 %35, 12
  %37 = tail call { i32, i32 } asm sideeffect "rdtsc", "={ax},={dx},~{dirflag},~{fpsr},~{flags}"() #15, !srcloc !5
  %38 = extractvalue { i32, i32 } %37, 0
  %39 = extractvalue { i32, i32 } %37, 1
  %40 = zext i32 %39 to i64
  %41 = shl nuw i64 %40, 32
  %42 = zext i32 %38 to i64
  %43 = or i64 %41, %42
  %44 = add i64 %43, %36
  store i64 %44, i64* %34, align 8
  %45 = getelementptr inbounds %"class.assist_ranker::ExamplePreprocessorConfig", %"class.assist_ranker::ExamplePreprocessorConfig"* %0, i64 0, i32 3, i32 0, i32 0, i32 3
  %46 = load i64, i64* %32, align 8
  store i64 %46, i64* %45, align 8
  %47 = getelementptr inbounds %"class.assist_ranker::ExamplePreprocessorConfig", %"class.assist_ranker::ExamplePreprocessorConfig"* %0, i64 0, i32 3, i32 0, i32 0, i32 4
  store i8** getelementptr inbounds ([1 x i8*], [1 x i8*]* @_ZN6google8protobuf8internal17kGlobalEmptyTableE, i64 0, i64 0), i8*** %47, align 8
  %48 = getelementptr inbounds %"class.assist_ranker::ExamplePreprocessorConfig", %"class.assist_ranker::ExamplePreprocessorConfig"* %0, i64 0, i32 3, i32 0, i32 0, i32 5, i32 0
  %49 = getelementptr inbounds %"class.assist_ranker::ExamplePreprocessorConfig", %"class.assist_ranker::ExamplePreprocessorConfig"* %0, i64 0, i32 4
  %50 = getelementptr inbounds %"class.assist_ranker::ExamplePreprocessorConfig", %"class.assist_ranker::ExamplePreprocessorConfig"* %0, i64 0, i32 4, i32 0, i32 0, i32 1
  %51 = bitcast %"class.google::protobuf::Arena"** %48 to i8*
  call void @llvm.memset.p0i8.i64(i8* align 8 %51, i8 0, i64 16, i1 false)
  store i64 1, i64* %50, align 8
  %52 = getelementptr inbounds %"class.assist_ranker::ExamplePreprocessorConfig", %"class.assist_ranker::ExamplePreprocessorConfig"* %0, i64 0, i32 4, i32 0, i32 0, i32 2
  %53 = ptrtoint %"class.google::protobuf::internal::MapFieldLite.23"* %49 to i64
  %54 = lshr i64 %53, 12
  %55 = tail call { i32, i32 } asm sideeffect "rdtsc", "={ax},={dx},~{dirflag},~{fpsr},~{flags}"() #15, !srcloc !5
  %56 = extractvalue { i32, i32 } %55, 0
  %57 = extractvalue { i32, i32 } %55, 1
  %58 = zext i32 %57 to i64
  %59 = shl nuw i64 %58, 32
  %60 = zext i32 %56 to i64
  %61 = or i64 %59, %60
  %62 = add i64 %61, %54
  store i64 %62, i64* %52, align 8
  %63 = getelementptr inbounds %"class.assist_ranker::ExamplePreprocessorConfig", %"class.assist_ranker::ExamplePreprocessorConfig"* %0, i64 0, i32 4, i32 0, i32 0, i32 3
  %64 = load i64, i64* %50, align 8
  store i64 %64, i64* %63, align 8
  %65 = getelementptr inbounds %"class.assist_ranker::ExamplePreprocessorConfig", %"class.assist_ranker::ExamplePreprocessorConfig"* %0, i64 0, i32 4, i32 0, i32 0, i32 4
  store i8** getelementptr inbounds ([1 x i8*], [1 x i8*]* @_ZN6google8protobuf8internal17kGlobalEmptyTableE, i64 0, i64 0), i8*** %65, align 8
  %66 = getelementptr inbounds %"class.assist_ranker::ExamplePreprocessorConfig", %"class.assist_ranker::ExamplePreprocessorConfig"* %0, i64 0, i32 4, i32 0, i32 0, i32 5, i32 0
  %67 = getelementptr inbounds %"class.assist_ranker::ExamplePreprocessorConfig", %"class.assist_ranker::ExamplePreprocessorConfig"* %0, i64 0, i32 5, i32 0
  %68 = getelementptr inbounds %"class.assist_ranker::ExamplePreprocessorConfig", %"class.assist_ranker::ExamplePreprocessorConfig"* %1, i64 0, i32 5, i32 0
  %69 = bitcast %"class.google::protobuf::Arena"** %66 to i8*
  call void @llvm.memset.p0i8.i64(i8* align 8 %69, i8 0, i64 32, i1 false)
  tail call void @_ZN6google8protobuf8internal20RepeatedPtrFieldBase9MergeFromINS0_16RepeatedPtrFieldINSt3__112basic_stringIcNS5_11char_traitsIcEENS5_9allocatorIcEEEEE11TypeHandlerEEEvRKS2_(%"class.google::protobuf::internal::RepeatedPtrFieldBase"* %67, %"class.google::protobuf::internal::RepeatedPtrFieldBase"* dereferenceable(24) %68) #15
  %70 = getelementptr inbounds %"class.assist_ranker::ExamplePreprocessorConfig", %"class.assist_ranker::ExamplePreprocessorConfig"* %0, i64 0, i32 6, i32 0, i32 0, i32 0, i32 0, i32 0, i32 0
  store i32 0, i32* %70, align 4
  %71 = getelementptr inbounds %"class.assist_ranker::ExamplePreprocessorConfig", %"class.assist_ranker::ExamplePreprocessorConfig"* %0, i64 0, i32 0, i32 1
  %72 = getelementptr inbounds %"class.assist_ranker::ExamplePreprocessorConfig", %"class.assist_ranker::ExamplePreprocessorConfig"* %1, i64 0, i32 0, i32 1
  %73 = bitcast %"class.google::protobuf::internal::InternalMetadata"* %72 to i64*
  %74 = load i64, i64* %73, align 8
  %75 = and i64 %74, 1
  %76 = icmp eq i64 %75, 0
  br i1 %76, label %106, label %77

77:                                               ; preds = %2
  %78 = and i64 %74, -2
  %79 = inttoptr i64 %78 to %"struct.google::protobuf::internal::InternalMetadata::Container"*
  %80 = getelementptr inbounds %"struct.google::protobuf::internal::InternalMetadata::Container", %"struct.google::protobuf::internal::InternalMetadata::Container"* %79, i64 0, i32 1
  %81 = bitcast %"class.google::protobuf::internal::InternalMetadata"* %71 to i64*
  %82 = load i64, i64* %81, align 8
  %83 = and i64 %82, 1
  %84 = icmp eq i64 %83, 0
  br i1 %84, label %89, label %85, !prof !2

85:                                               ; preds = %77
  %86 = and i64 %82, -2
  %87 = inttoptr i64 %86 to %"struct.google::protobuf::internal::InternalMetadata::Container"*
  %88 = getelementptr inbounds %"struct.google::protobuf::internal::InternalMetadata::Container", %"struct.google::protobuf::internal::InternalMetadata::Container"* %87, i64 0, i32 1
  br label %91

89:                                               ; preds = %77
  %90 = tail call %"class.std::__1::basic_string"* @_ZN6google8protobuf8internal16InternalMetadata27mutable_unknown_fields_slowINSt3__112basic_stringIcNS4_11char_traitsIcEENS4_9allocatorIcEEEEEEPT_v(%"class.google::protobuf::internal::InternalMetadata"* %71) #15
  br label %91

91:                                               ; preds = %89, %85
  %92 = phi %"class.std::__1::basic_string"* [ %88, %85 ], [ %90, %89 ]
  %93 = bitcast %"class.std::__1::basic_string"* %80 to %"struct.std::__1::basic_string<char, std::__1::char_traits<char>, std::__1::allocator<char> >::__short"*
  %94 = getelementptr inbounds %"struct.std::__1::basic_string<char, std::__1::char_traits<char>, std::__1::allocator<char> >::__short", %"struct.std::__1::basic_string<char, std::__1::char_traits<char>, std::__1::allocator<char> >::__short"* %93, i64 0, i32 1, i32 0
  %95 = load i8, i8* %94, align 1
  %96 = icmp slt i8 %95, 0
  %97 = getelementptr inbounds %"class.std::__1::basic_string", %"class.std::__1::basic_string"* %80, i64 0, i32 0, i32 0, i32 0, i32 0, i32 0, i32 0
  %98 = load i8*, i8** %97, align 8
  %99 = getelementptr inbounds %"struct.google::protobuf::internal::InternalMetadata::Container", %"struct.google::protobuf::internal::InternalMetadata::Container"* %79, i64 0, i32 1, i32 0, i32 0, i32 0, i32 0, i32 0, i32 1
  %100 = load i64, i64* %99, align 8
  %101 = bitcast %"class.std::__1::basic_string"* %80 to i8*
  %102 = zext i8 %95 to i64
  %103 = select i1 %96, i8* %98, i8* %101
  %104 = select i1 %96, i64 %100, i64 %102
  %105 = tail call dereferenceable(24) %"class.std::__1::basic_string"* @_ZNSt3__112basic_stringIcNS_11char_traitsIcEENS_9allocatorIcEEE6appendEPKcm(%"class.std::__1::basic_string"* %92, i8* %103, i64 %104) #15
  br label %106

106:                                              ; preds = %2, %91
  %107 = getelementptr inbounds %"class.assist_ranker::ExamplePreprocessorConfig", %"class.assist_ranker::ExamplePreprocessorConfig"* %1, i64 0, i32 2
  tail call void @_ZN6google8protobuf8internal12MapFieldLiteIN13assist_ranker51ExamplePreprocessorConfig_BucketizersEntry_DoNotUseENSt3__112basic_stringIcNS5_11char_traitsIcEENS5_9allocatorIcEEEENS3_36ExamplePreprocessorConfig_BoundariesELNS1_14WireFormatLite9FieldTypeE9ELSE_11EE9MergeFromERKSF_(%"class.google::protobuf::internal::MapFieldLite"* %13, %"class.google::protobuf::internal::MapFieldLite"* dereferenceable(48) %107)
  %108 = bitcast %"class.google::protobuf::Map<std::__1::basic_string<char, std::__1::char_traits<char>, std::__1::allocator<char> >, int>::const_iterator"* %4 to i8*
  call void @llvm.lifetime.start.p0i8(i64 24, i8* nonnull %108) #15
  %109 = getelementptr inbounds %"class.google::protobuf::Map<std::__1::basic_string<char, std::__1::char_traits<char>, std::__1::allocator<char> >, int>::const_iterator", %"class.google::protobuf::Map<std::__1::basic_string<char, std::__1::char_traits<char>, std::__1::allocator<char> >, int>::const_iterator"* %4, i64 0, i32 0, i32 0
  %110 = getelementptr inbounds %"class.google::protobuf::Map<std::__1::basic_string<char, std::__1::char_traits<char>, std::__1::allocator<char> >, int>::const_iterator", %"class.google::protobuf::Map<std::__1::basic_string<char, std::__1::char_traits<char>, std::__1::allocator<char> >, int>::const_iterator"* %4, i64 0, i32 0, i32 1
  %111 = getelementptr inbounds %"class.google::protobuf::Map<std::__1::basic_string<char, std::__1::char_traits<char>, std::__1::allocator<char> >, int>::const_iterator", %"class.google::protobuf::Map<std::__1::basic_string<char, std::__1::char_traits<char>, std::__1::allocator<char> >, int>::const_iterator"* %4, i64 0, i32 0, i32 2
  %112 = getelementptr inbounds %"class.assist_ranker::ExamplePreprocessorConfig", %"class.assist_ranker::ExamplePreprocessorConfig"* %1, i64 0, i32 3, i32 0, i32 0
  %113 = getelementptr inbounds %"class.assist_ranker::ExamplePreprocessorConfig", %"class.assist_ranker::ExamplePreprocessorConfig"* %1, i64 0, i32 3, i32 0, i32 0, i32 3
  call void @llvm.memset.p0i8.i64(i8* nonnull align 8 %108, i8 -86, i64 24, i1 false) #15
  %114 = load i64, i64* %113, align 8, !noalias !6
  %115 = getelementptr inbounds %"class.assist_ranker::ExamplePreprocessorConfig", %"class.assist_ranker::ExamplePreprocessorConfig"* %1, i64 0, i32 3, i32 0, i32 0, i32 1
  %116 = load i64, i64* %115, align 8, !noalias !6
  %117 = icmp ugt i64 %116, %114
  br i1 %117, label %118, label %142

118:                                              ; preds = %106
  %119 = getelementptr inbounds %"class.assist_ranker::ExamplePreprocessorConfig", %"class.assist_ranker::ExamplePreprocessorConfig"* %1, i64 0, i32 3, i32 0, i32 0, i32 4
  %120 = load i8**, i8*** %119, align 8, !noalias !6
  br label %121

121:                                              ; preds = %139, %118
  %122 = phi i64 [ %114, %118 ], [ %140, %139 ]
  %123 = getelementptr inbounds i8*, i8** %120, i64 %122
  %124 = load i8*, i8** %123, align 8, !noalias !6
  %125 = icmp eq i8* %124, null
  br i1 %125, label %139, label %126

126:                                              ; preds = %121
  %127 = xor i64 %122, 1
  %128 = getelementptr inbounds i8*, i8** %120, i64 %127
  %129 = load i8*, i8** %128, align 8, !noalias !6
  %130 = icmp eq i8* %124, %129
  br i1 %130, label %133, label %131

131:                                              ; preds = %126
  %132 = ptrtoint i8* %124 to i64
  br label %145

133:                                              ; preds = %126
  %134 = bitcast i8* %124 to %"class.std::__1::__tree_end_node"**
  %135 = load %"class.std::__1::__tree_end_node"*, %"class.std::__1::__tree_end_node"** %134, align 8, !noalias !6
  %136 = getelementptr inbounds %"class.std::__1::__tree_end_node", %"class.std::__1::__tree_end_node"* %135, i64 5
  %137 = bitcast %"class.std::__1::__tree_end_node"* %136 to i64*
  %138 = load i64, i64* %137, align 8, !noalias !6
  br label %145

139:                                              ; preds = %121
  %140 = add i64 %122, 1
  %141 = icmp eq i64 %140, %116
  br i1 %141, label %142, label %121

142:                                              ; preds = %139, %106
  %143 = phi i64 [ %114, %106 ], [ %116, %139 ]
  %144 = bitcast %"class.google::protobuf::Map<std::__1::basic_string<char, std::__1::char_traits<char>, std::__1::allocator<char> >, int>::const_iterator"* %4 to i64*
  store i64 0, i64* %144, align 8, !alias.scope !11
  store %"class.google::protobuf::Map<std::__1::basic_string<char, std::__1::char_traits<char>, std::__1::allocator<char> >, int>::InnerMap"* %112, %"class.google::protobuf::Map<std::__1::basic_string<char, std::__1::char_traits<char>, std::__1::allocator<char> >, int>::InnerMap"** %110, align 8, !alias.scope !11
  store i64 %143, i64* %111, align 8, !alias.scope !11
  br label %165

145:                                              ; preds = %133, %131
  %146 = phi i64 [ %138, %133 ], [ %132, %131 ]
  %147 = bitcast %"class.google::protobuf::Map<std::__1::basic_string<char, std::__1::char_traits<char>, std::__1::allocator<char> >, int>::const_iterator"* %4 to i64*
  store i64 %146, i64* %147, align 8, !alias.scope !11
  store %"class.google::protobuf::Map<std::__1::basic_string<char, std::__1::char_traits<char>, std::__1::allocator<char> >, int>::InnerMap"* %112, %"class.google::protobuf::Map<std::__1::basic_string<char, std::__1::char_traits<char>, std::__1::allocator<char> >, int>::InnerMap"** %110, align 8, !alias.scope !11
  store i64 %122, i64* %111, align 8, !alias.scope !11
  %148 = icmp eq i64 %146, 0
  br i1 %148, label %165, label %149

149:                                              ; preds = %145
  %150 = inttoptr i64 %146 to %"struct.google::protobuf::Map<std::__1::basic_string<char, std::__1::char_traits<char>, std::__1::allocator<char> >, int>::InnerMap::Node"*
  %151 = getelementptr inbounds %"class.google::protobuf::internal::MapFieldLite.21", %"class.google::protobuf::internal::MapFieldLite.21"* %31, i64 0, i32 0, i32 0
  %152 = bitcast %"struct.std::__1::pair.75"* %3 to i8*
  %153 = getelementptr inbounds %"struct.std::__1::pair.75", %"struct.std::__1::pair.75"* %3, i64 0, i32 0, i32 0
  %154 = getelementptr inbounds %"class.google::protobuf::Map<std::__1::basic_string<char, std::__1::char_traits<char>, std::__1::allocator<char> >, int>::const_iterator", %"class.google::protobuf::Map<std::__1::basic_string<char, std::__1::char_traits<char>, std::__1::allocator<char> >, int>::const_iterator"* %4, i64 0, i32 0
  br label %155

155:                                              ; preds = %155, %149
  %156 = phi %"struct.google::protobuf::Map<std::__1::basic_string<char, std::__1::char_traits<char>, std::__1::allocator<char> >, int>::InnerMap::Node"* [ %150, %149 ], [ %163, %155 ]
  %157 = getelementptr inbounds %"struct.google::protobuf::Map<std::__1::basic_string<char, std::__1::char_traits<char>, std::__1::allocator<char> >, int>::InnerMap::Node", %"struct.google::protobuf::Map<std::__1::basic_string<char, std::__1::char_traits<char>, std::__1::allocator<char> >, int>::InnerMap::Node"* %156, i64 0, i32 0, i32 1
  %158 = load i32, i32* %157, align 8
  %159 = getelementptr inbounds %"struct.google::protobuf::Map<std::__1::basic_string<char, std::__1::char_traits<char>, std::__1::allocator<char> >, int>::InnerMap::Node", %"struct.google::protobuf::Map<std::__1::basic_string<char, std::__1::char_traits<char>, std::__1::allocator<char> >, int>::InnerMap::Node"* %156, i64 0, i32 0, i32 0
  call void @llvm.lifetime.start.p0i8(i64 32, i8* nonnull %152) #15
  call void @_ZN6google8protobuf3MapINSt3__112basic_stringIcNS2_11char_traitsIcEENS2_9allocatorIcEEEEiE8InnerMap6insertERKS8_(%"struct.std::__1::pair.75"* nonnull sret %3, %"class.google::protobuf::Map<std::__1::basic_string<char, std::__1::char_traits<char>, std::__1::allocator<char> >, int>::InnerMap"* %151, %"class.std::__1::basic_string"* dereferenceable(24) %159) #15
  %160 = load %"struct.google::protobuf::Map<std::__1::basic_string<char, std::__1::char_traits<char>, std::__1::allocator<char> >, int>::InnerMap::Node"*, %"struct.google::protobuf::Map<std::__1::basic_string<char, std::__1::char_traits<char>, std::__1::allocator<char> >, int>::InnerMap::Node"** %153, align 8
  call void @llvm.lifetime.end.p0i8(i64 32, i8* nonnull %152) #15
  %161 = getelementptr inbounds %"struct.google::protobuf::Map<std::__1::basic_string<char, std::__1::char_traits<char>, std::__1::allocator<char> >, int>::InnerMap::Node", %"struct.google::protobuf::Map<std::__1::basic_string<char, std::__1::char_traits<char>, std::__1::allocator<char> >, int>::InnerMap::Node"* %160, i64 0, i32 0, i32 1
  store i32 %158, i32* %161, align 4
  %162 = call dereferenceable(24) %"class.google::protobuf::Map<std::__1::basic_string<char, std::__1::char_traits<char>, std::__1::allocator<char> >, int>::InnerMap::iterator_base"* @_ZN6google8protobuf3MapINSt3__112basic_stringIcNS2_11char_traitsIcEENS2_9allocatorIcEEEEiE8InnerMap13iterator_baseIKNS0_7MapPairIS8_iEEEppEv(%"class.google::protobuf::Map<std::__1::basic_string<char, std::__1::char_traits<char>, std::__1::allocator<char> >, int>::InnerMap::iterator_base"* nonnull %154) #15
  %163 = load %"struct.google::protobuf::Map<std::__1::basic_string<char, std::__1::char_traits<char>, std::__1::allocator<char> >, int>::InnerMap::Node"*, %"struct.google::protobuf::Map<std::__1::basic_string<char, std::__1::char_traits<char>, std::__1::allocator<char> >, int>::InnerMap::Node"** %109, align 8
  %164 = icmp eq %"struct.google::protobuf::Map<std::__1::basic_string<char, std::__1::char_traits<char>, std::__1::allocator<char> >, int>::InnerMap::Node"* %163, null
  br i1 %164, label %165, label %155

165:                                              ; preds = %155, %142, %145
  call void @llvm.lifetime.end.p0i8(i64 24, i8* nonnull %108) #15
  %166 = bitcast %"class.google::protobuf::Map<std::__1::basic_string<char, std::__1::char_traits<char>, std::__1::allocator<char> >, float>::const_iterator"* %6 to i8*
  call void @llvm.lifetime.start.p0i8(i64 24, i8* nonnull %166) #15
  %167 = getelementptr inbounds %"class.google::protobuf::Map<std::__1::basic_string<char, std::__1::char_traits<char>, std::__1::allocator<char> >, float>::const_iterator", %"class.google::protobuf::Map<std::__1::basic_string<char, std::__1::char_traits<char>, std::__1::allocator<char> >, float>::const_iterator"* %6, i64 0, i32 0, i32 0
  %168 = getelementptr inbounds %"class.google::protobuf::Map<std::__1::basic_string<char, std::__1::char_traits<char>, std::__1::allocator<char> >, float>::const_iterator", %"class.google::protobuf::Map<std::__1::basic_string<char, std::__1::char_traits<char>, std::__1::allocator<char> >, float>::const_iterator"* %6, i64 0, i32 0, i32 1
  %169 = getelementptr inbounds %"class.google::protobuf::Map<std::__1::basic_string<char, std::__1::char_traits<char>, std::__1::allocator<char> >, float>::const_iterator", %"class.google::protobuf::Map<std::__1::basic_string<char, std::__1::char_traits<char>, std::__1::allocator<char> >, float>::const_iterator"* %6, i64 0, i32 0, i32 2
  %170 = getelementptr inbounds %"class.assist_ranker::ExamplePreprocessorConfig", %"class.assist_ranker::ExamplePreprocessorConfig"* %1, i64 0, i32 4, i32 0, i32 0
  %171 = getelementptr inbounds %"class.assist_ranker::ExamplePreprocessorConfig", %"class.assist_ranker::ExamplePreprocessorConfig"* %1, i64 0, i32 4, i32 0, i32 0, i32 3
  call void @llvm.memset.p0i8.i64(i8* nonnull align 8 %166, i8 -86, i64 24, i1 false) #15
  %172 = load i64, i64* %171, align 8, !noalias !12
  %173 = getelementptr inbounds %"class.assist_ranker::ExamplePreprocessorConfig", %"class.assist_ranker::ExamplePreprocessorConfig"* %1, i64 0, i32 4, i32 0, i32 0, i32 1
  %174 = load i64, i64* %173, align 8, !noalias !12
  %175 = icmp ugt i64 %174, %172
  br i1 %175, label %176, label %200

176:                                              ; preds = %165
  %177 = getelementptr inbounds %"class.assist_ranker::ExamplePreprocessorConfig", %"class.assist_ranker::ExamplePreprocessorConfig"* %1, i64 0, i32 4, i32 0, i32 0, i32 4
  %178 = load i8**, i8*** %177, align 8, !noalias !12
  br label %179

179:                                              ; preds = %197, %176
  %180 = phi i64 [ %172, %176 ], [ %198, %197 ]
  %181 = getelementptr inbounds i8*, i8** %178, i64 %180
  %182 = load i8*, i8** %181, align 8, !noalias !12
  %183 = icmp eq i8* %182, null
  br i1 %183, label %197, label %184

184:                                              ; preds = %179
  %185 = xor i64 %180, 1
  %186 = getelementptr inbounds i8*, i8** %178, i64 %185
  %187 = load i8*, i8** %186, align 8, !noalias !12
  %188 = icmp eq i8* %182, %187
  br i1 %188, label %191, label %189

189:                                              ; preds = %184
  %190 = ptrtoint i8* %182 to i64
  br label %203

191:                                              ; preds = %184
  %192 = bitcast i8* %182 to %"class.std::__1::__tree_end_node"**
  %193 = load %"class.std::__1::__tree_end_node"*, %"class.std::__1::__tree_end_node"** %192, align 8, !noalias !12
  %194 = getelementptr inbounds %"class.std::__1::__tree_end_node", %"class.std::__1::__tree_end_node"* %193, i64 5
  %195 = bitcast %"class.std::__1::__tree_end_node"* %194 to i64*
  %196 = load i64, i64* %195, align 8, !noalias !12
  br label %203

197:                                              ; preds = %179
  %198 = add i64 %180, 1
  %199 = icmp eq i64 %198, %174
  br i1 %199, label %200, label %179

200:                                              ; preds = %197, %165
  %201 = phi i64 [ %172, %165 ], [ %174, %197 ]
  %202 = bitcast %"class.google::protobuf::Map<std::__1::basic_string<char, std::__1::char_traits<char>, std::__1::allocator<char> >, float>::const_iterator"* %6 to i64*
  store i64 0, i64* %202, align 8, !alias.scope !17
  store %"class.google::protobuf::Map<std::__1::basic_string<char, std::__1::char_traits<char>, std::__1::allocator<char> >, float>::InnerMap"* %170, %"class.google::protobuf::Map<std::__1::basic_string<char, std::__1::char_traits<char>, std::__1::allocator<char> >, float>::InnerMap"** %168, align 8, !alias.scope !17
  store i64 %201, i64* %169, align 8, !alias.scope !17
  br label %225

203:                                              ; preds = %191, %189
  %204 = phi i64 [ %196, %191 ], [ %190, %189 ]
  %205 = bitcast %"class.google::protobuf::Map<std::__1::basic_string<char, std::__1::char_traits<char>, std::__1::allocator<char> >, float>::const_iterator"* %6 to i64*
  store i64 %204, i64* %205, align 8, !alias.scope !17
  store %"class.google::protobuf::Map<std::__1::basic_string<char, std::__1::char_traits<char>, std::__1::allocator<char> >, float>::InnerMap"* %170, %"class.google::protobuf::Map<std::__1::basic_string<char, std::__1::char_traits<char>, std::__1::allocator<char> >, float>::InnerMap"** %168, align 8, !alias.scope !17
  store i64 %180, i64* %169, align 8, !alias.scope !17
  %206 = icmp eq i64 %204, 0
  br i1 %206, label %225, label %207

207:                                              ; preds = %203
  %208 = inttoptr i64 %204 to %"struct.google::protobuf::Map<std::__1::basic_string<char, std::__1::char_traits<char>, std::__1::allocator<char> >, float>::InnerMap::Node"*
  %209 = getelementptr inbounds %"class.google::protobuf::internal::MapFieldLite.23", %"class.google::protobuf::internal::MapFieldLite.23"* %49, i64 0, i32 0, i32 0
  %210 = bitcast %"struct.std::__1::pair.80"* %5 to i8*
  %211 = getelementptr inbounds %"struct.std::__1::pair.80", %"struct.std::__1::pair.80"* %5, i64 0, i32 0, i32 0
  %212 = getelementptr inbounds %"class.google::protobuf::Map<std::__1::basic_string<char, std::__1::char_traits<char>, std::__1::allocator<char> >, float>::const_iterator", %"class.google::protobuf::Map<std::__1::basic_string<char, std::__1::char_traits<char>, std::__1::allocator<char> >, float>::const_iterator"* %6, i64 0, i32 0
  br label %213

213:                                              ; preds = %213, %207
  %214 = phi %"struct.google::protobuf::Map<std::__1::basic_string<char, std::__1::char_traits<char>, std::__1::allocator<char> >, float>::InnerMap::Node"* [ %208, %207 ], [ %223, %213 ]
  %215 = getelementptr inbounds %"struct.google::protobuf::Map<std::__1::basic_string<char, std::__1::char_traits<char>, std::__1::allocator<char> >, float>::InnerMap::Node", %"struct.google::protobuf::Map<std::__1::basic_string<char, std::__1::char_traits<char>, std::__1::allocator<char> >, float>::InnerMap::Node"* %214, i64 0, i32 0, i32 1
  %216 = bitcast float* %215 to i32*
  %217 = load i32, i32* %216, align 8
  %218 = getelementptr inbounds %"struct.google::protobuf::Map<std::__1::basic_string<char, std::__1::char_traits<char>, std::__1::allocator<char> >, float>::InnerMap::Node", %"struct.google::protobuf::Map<std::__1::basic_string<char, std::__1::char_traits<char>, std::__1::allocator<char> >, float>::InnerMap::Node"* %214, i64 0, i32 0, i32 0
  call void @llvm.lifetime.start.p0i8(i64 32, i8* nonnull %210) #15
  call void @_ZN6google8protobuf3MapINSt3__112basic_stringIcNS2_11char_traitsIcEENS2_9allocatorIcEEEEfE8InnerMap6insertERKS8_(%"struct.std::__1::pair.80"* nonnull sret %5, %"class.google::protobuf::Map<std::__1::basic_string<char, std::__1::char_traits<char>, std::__1::allocator<char> >, float>::InnerMap"* %209, %"class.std::__1::basic_string"* dereferenceable(24) %218) #15
  %219 = load %"struct.google::protobuf::Map<std::__1::basic_string<char, std::__1::char_traits<char>, std::__1::allocator<char> >, float>::InnerMap::Node"*, %"struct.google::protobuf::Map<std::__1::basic_string<char, std::__1::char_traits<char>, std::__1::allocator<char> >, float>::InnerMap::Node"** %211, align 8
  call void @llvm.lifetime.end.p0i8(i64 32, i8* nonnull %210) #15
  %220 = getelementptr inbounds %"struct.google::protobuf::Map<std::__1::basic_string<char, std::__1::char_traits<char>, std::__1::allocator<char> >, float>::InnerMap::Node", %"struct.google::protobuf::Map<std::__1::basic_string<char, std::__1::char_traits<char>, std::__1::allocator<char> >, float>::InnerMap::Node"* %219, i64 0, i32 0, i32 1
  %221 = bitcast float* %220 to i32*
  store i32 %217, i32* %221, align 4
  %222 = call dereferenceable(24) %"class.google::protobuf::Map<std::__1::basic_string<char, std::__1::char_traits<char>, std::__1::allocator<char> >, float>::InnerMap::iterator_base"* @_ZN6google8protobuf3MapINSt3__112basic_stringIcNS2_11char_traitsIcEENS2_9allocatorIcEEEEfE8InnerMap13iterator_baseIKNS0_7MapPairIS8_fEEEppEv(%"class.google::protobuf::Map<std::__1::basic_string<char, std::__1::char_traits<char>, std::__1::allocator<char> >, float>::InnerMap::iterator_base"* nonnull %212) #15
  %223 = load %"struct.google::protobuf::Map<std::__1::basic_string<char, std::__1::char_traits<char>, std::__1::allocator<char> >, float>::InnerMap::Node"*, %"struct.google::protobuf::Map<std::__1::basic_string<char, std::__1::char_traits<char>, std::__1::allocator<char> >, float>::InnerMap::Node"** %167, align 8
  %224 = icmp eq %"struct.google::protobuf::Map<std::__1::basic_string<char, std::__1::char_traits<char>, std::__1::allocator<char> >, float>::InnerMap::Node"* %223, null
  br i1 %224, label %225, label %213

225:                                              ; preds = %213, %200, %203
  call void @llvm.lifetime.end.p0i8(i64 24, i8* nonnull %166) #15
  ret void
}

; Function Attrs: nounwind ssp uwtable
define linkonce_odr hidden void @_ZN6google8protobuf8internal12MapFieldLiteIN13assist_ranker51ExamplePreprocessorConfig_BucketizersEntry_DoNotUseENSt3__112basic_stringIcNS5_11char_traitsIcEENS5_9allocatorIcEEEENS3_36ExamplePreprocessorConfig_BoundariesELNS1_14WireFormatLite9FieldTypeE9ELSE_11EE9MergeFromERKSF_(%"class.google::protobuf::internal::MapFieldLite"*, %"class.google::protobuf::internal::MapFieldLite"* dereferenceable(48)) local_unnamed_addr #0 comdat align 2 {
  %3 = alloca %"struct.std::__1::pair.57", align 8
  %4 = alloca %"class.google::protobuf::Map<std::__1::basic_string<char, std::__1::char_traits<char>, std::__1::allocator<char> >, assist_ranker::ExamplePreprocessorConfig_Boundaries>::const_iterator", align 8
  %5 = bitcast %"class.google::protobuf::Map<std::__1::basic_string<char, std::__1::char_traits<char>, std::__1::allocator<char> >, assist_ranker::ExamplePreprocessorConfig_Boundaries>::const_iterator"* %4 to i8*
  call void @llvm.lifetime.start.p0i8(i64 24, i8* nonnull %5) #15
  %6 = getelementptr inbounds %"class.google::protobuf::Map<std::__1::basic_string<char, std::__1::char_traits<char>, std::__1::allocator<char> >, assist_ranker::ExamplePreprocessorConfig_Boundaries>::const_iterator", %"class.google::protobuf::Map<std::__1::basic_string<char, std::__1::char_traits<char>, std::__1::allocator<char> >, assist_ranker::ExamplePreprocessorConfig_Boundaries>::const_iterator"* %4, i64 0, i32 0, i32 0
  %7 = getelementptr inbounds %"class.google::protobuf::Map<std::__1::basic_string<char, std::__1::char_traits<char>, std::__1::allocator<char> >, assist_ranker::ExamplePreprocessorConfig_Boundaries>::const_iterator", %"class.google::protobuf::Map<std::__1::basic_string<char, std::__1::char_traits<char>, std::__1::allocator<char> >, assist_ranker::ExamplePreprocessorConfig_Boundaries>::const_iterator"* %4, i64 0, i32 0, i32 1
  %8 = getelementptr inbounds %"class.google::protobuf::Map<std::__1::basic_string<char, std::__1::char_traits<char>, std::__1::allocator<char> >, assist_ranker::ExamplePreprocessorConfig_Boundaries>::const_iterator", %"class.google::protobuf::Map<std::__1::basic_string<char, std::__1::char_traits<char>, std::__1::allocator<char> >, assist_ranker::ExamplePreprocessorConfig_Boundaries>::const_iterator"* %4, i64 0, i32 0, i32 2
  %9 = getelementptr inbounds %"class.google::protobuf::internal::MapFieldLite", %"class.google::protobuf::internal::MapFieldLite"* %1, i64 0, i32 0, i32 0
  %10 = getelementptr inbounds %"class.google::protobuf::internal::MapFieldLite", %"class.google::protobuf::internal::MapFieldLite"* %1, i64 0, i32 0, i32 0, i32 3
  %11 = bitcast %"class.google::protobuf::Map<std::__1::basic_string<char, std::__1::char_traits<char>, std::__1::allocator<char> >, assist_ranker::ExamplePreprocessorConfig_Boundaries>::const_iterator"* %4 to i8*
  call void @llvm.memset.p0i8.i64(i8* nonnull align 8 %11, i8 -86, i64 24, i1 false)
  %12 = load i64, i64* %10, align 8, !noalias !18
  %13 = getelementptr inbounds %"class.google::protobuf::internal::MapFieldLite", %"class.google::protobuf::internal::MapFieldLite"* %1, i64 0, i32 0, i32 0, i32 1
  %14 = load i64, i64* %13, align 8, !noalias !18
  %15 = icmp ugt i64 %14, %12
  br i1 %15, label %16, label %40

16:                                               ; preds = %2
  %17 = getelementptr inbounds %"class.google::protobuf::internal::MapFieldLite", %"class.google::protobuf::internal::MapFieldLite"* %1, i64 0, i32 0, i32 0, i32 4
  %18 = load i8**, i8*** %17, align 8, !noalias !18
  br label %19

19:                                               ; preds = %37, %16
  %20 = phi i64 [ %12, %16 ], [ %38, %37 ]
  %21 = getelementptr inbounds i8*, i8** %18, i64 %20
  %22 = load i8*, i8** %21, align 8, !noalias !18
  %23 = icmp eq i8* %22, null
  br i1 %23, label %37, label %24

24:                                               ; preds = %19
  %25 = xor i64 %20, 1
  %26 = getelementptr inbounds i8*, i8** %18, i64 %25
  %27 = load i8*, i8** %26, align 8, !noalias !18
  %28 = icmp eq i8* %22, %27
  br i1 %28, label %31, label %29

29:                                               ; preds = %24
  %30 = ptrtoint i8* %22 to i64
  br label %43

31:                                               ; preds = %24
  %32 = bitcast i8* %22 to %"class.std::__1::__tree_end_node"**
  %33 = load %"class.std::__1::__tree_end_node"*, %"class.std::__1::__tree_end_node"** %32, align 8, !noalias !18
  %34 = getelementptr inbounds %"class.std::__1::__tree_end_node", %"class.std::__1::__tree_end_node"* %33, i64 5
  %35 = bitcast %"class.std::__1::__tree_end_node"* %34 to i64*
  %36 = load i64, i64* %35, align 8, !noalias !18
  br label %43

37:                                               ; preds = %19
  %38 = add i64 %20, 1
  %39 = icmp eq i64 %38, %14
  br i1 %39, label %40, label %19

40:                                               ; preds = %37, %2
  %41 = phi i64 [ %12, %2 ], [ %14, %37 ]
  %42 = bitcast %"class.google::protobuf::Map<std::__1::basic_string<char, std::__1::char_traits<char>, std::__1::allocator<char> >, assist_ranker::ExamplePreprocessorConfig_Boundaries>::const_iterator"* %4 to i64*
  store i64 0, i64* %42, align 8, !alias.scope !23
  store %"class.google::protobuf::Map<std::__1::basic_string<char, std::__1::char_traits<char>, std::__1::allocator<char> >, assist_ranker::ExamplePreprocessorConfig_Boundaries>::InnerMap"* %9, %"class.google::protobuf::Map<std::__1::basic_string<char, std::__1::char_traits<char>, std::__1::allocator<char> >, assist_ranker::ExamplePreprocessorConfig_Boundaries>::InnerMap"** %7, align 8, !alias.scope !23
  store i64 %41, i64* %8, align 8, !alias.scope !23
  br label %53

43:                                               ; preds = %29, %31
  %44 = phi i64 [ %36, %31 ], [ %30, %29 ]
  %45 = bitcast %"class.google::protobuf::Map<std::__1::basic_string<char, std::__1::char_traits<char>, std::__1::allocator<char> >, assist_ranker::ExamplePreprocessorConfig_Boundaries>::const_iterator"* %4 to i64*
  store i64 %44, i64* %45, align 8, !alias.scope !23
  store %"class.google::protobuf::Map<std::__1::basic_string<char, std::__1::char_traits<char>, std::__1::allocator<char> >, assist_ranker::ExamplePreprocessorConfig_Boundaries>::InnerMap"* %9, %"class.google::protobuf::Map<std::__1::basic_string<char, std::__1::char_traits<char>, std::__1::allocator<char> >, assist_ranker::ExamplePreprocessorConfig_Boundaries>::InnerMap"** %7, align 8, !alias.scope !23
  store i64 %20, i64* %8, align 8, !alias.scope !23
  %46 = icmp eq i64 %44, 0
  br i1 %46, label %53, label %47

47:                                               ; preds = %43
  %48 = inttoptr i64 %44 to %"struct.google::protobuf::Map<std::__1::basic_string<char, std::__1::char_traits<char>, std::__1::allocator<char> >, assist_ranker::ExamplePreprocessorConfig_Boundaries>::InnerMap::Node"*
  %49 = getelementptr inbounds %"class.google::protobuf::internal::MapFieldLite", %"class.google::protobuf::internal::MapFieldLite"* %0, i64 0, i32 0, i32 0
  %50 = bitcast %"struct.std::__1::pair.57"* %3 to i8*
  %51 = getelementptr inbounds %"struct.std::__1::pair.57", %"struct.std::__1::pair.57"* %3, i64 0, i32 0, i32 0
  %52 = getelementptr inbounds %"class.google::protobuf::Map<std::__1::basic_string<char, std::__1::char_traits<char>, std::__1::allocator<char> >, assist_ranker::ExamplePreprocessorConfig_Boundaries>::const_iterator", %"class.google::protobuf::Map<std::__1::basic_string<char, std::__1::char_traits<char>, std::__1::allocator<char> >, assist_ranker::ExamplePreprocessorConfig_Boundaries>::const_iterator"* %4, i64 0, i32 0
  br label %54

53:                                               ; preds = %83, %40, %43
  call void @llvm.lifetime.end.p0i8(i64 24, i8* nonnull %5) #15
  ret void

54:                                               ; preds = %47, %83
  %55 = phi %"struct.google::protobuf::Map<std::__1::basic_string<char, std::__1::char_traits<char>, std::__1::allocator<char> >, assist_ranker::ExamplePreprocessorConfig_Boundaries>::InnerMap::Node"* [ %48, %47 ], [ %85, %83 ]
  %56 = getelementptr inbounds %"struct.google::protobuf::Map<std::__1::basic_string<char, std::__1::char_traits<char>, std::__1::allocator<char> >, assist_ranker::ExamplePreprocessorConfig_Boundaries>::InnerMap::Node", %"struct.google::protobuf::Map<std::__1::basic_string<char, std::__1::char_traits<char>, std::__1::allocator<char> >, assist_ranker::ExamplePreprocessorConfig_Boundaries>::InnerMap::Node"* %55, i64 0, i32 0, i32 1
  %57 = getelementptr inbounds %"struct.google::protobuf::Map<std::__1::basic_string<char, std::__1::char_traits<char>, std::__1::allocator<char> >, assist_ranker::ExamplePreprocessorConfig_Boundaries>::InnerMap::Node", %"struct.google::protobuf::Map<std::__1::basic_string<char, std::__1::char_traits<char>, std::__1::allocator<char> >, assist_ranker::ExamplePreprocessorConfig_Boundaries>::InnerMap::Node"* %55, i64 0, i32 0, i32 0
  call void @llvm.lifetime.start.p0i8(i64 32, i8* nonnull %50) #15
  call void @_ZN6google8protobuf3MapINSt3__112basic_stringIcNS2_11char_traitsIcEENS2_9allocatorIcEEEEN13assist_ranker36ExamplePreprocessorConfig_BoundariesEE8InnerMap6insertERKS8_(%"struct.std::__1::pair.57"* nonnull sret %3, %"class.google::protobuf::Map<std::__1::basic_string<char, std::__1::char_traits<char>, std::__1::allocator<char> >, assist_ranker::ExamplePreprocessorConfig_Boundaries>::InnerMap"* %49, %"class.std::__1::basic_string"* dereferenceable(24) %57) #15
  %58 = load %"struct.google::protobuf::Map<std::__1::basic_string<char, std::__1::char_traits<char>, std::__1::allocator<char> >, assist_ranker::ExamplePreprocessorConfig_Boundaries>::InnerMap::Node"*, %"struct.google::protobuf::Map<std::__1::basic_string<char, std::__1::char_traits<char>, std::__1::allocator<char> >, assist_ranker::ExamplePreprocessorConfig_Boundaries>::InnerMap::Node"** %51, align 8
  call void @llvm.lifetime.end.p0i8(i64 32, i8* nonnull %50) #15
  %59 = getelementptr inbounds %"struct.google::protobuf::Map<std::__1::basic_string<char, std::__1::char_traits<char>, std::__1::allocator<char> >, assist_ranker::ExamplePreprocessorConfig_Boundaries>::InnerMap::Node", %"struct.google::protobuf::Map<std::__1::basic_string<char, std::__1::char_traits<char>, std::__1::allocator<char> >, assist_ranker::ExamplePreprocessorConfig_Boundaries>::InnerMap::Node"* %58, i64 0, i32 0, i32 1
  %60 = icmp eq %"struct.google::protobuf::Map<std::__1::basic_string<char, std::__1::char_traits<char>, std::__1::allocator<char> >, assist_ranker::ExamplePreprocessorConfig_Boundaries>::InnerMap::Node"* %55, %58
  br i1 %60, label %83, label %61

61:                                               ; preds = %54
  %62 = getelementptr inbounds %"struct.google::protobuf::Map<std::__1::basic_string<char, std::__1::char_traits<char>, std::__1::allocator<char> >, assist_ranker::ExamplePreprocessorConfig_Boundaries>::InnerMap::Node", %"struct.google::protobuf::Map<std::__1::basic_string<char, std::__1::char_traits<char>, std::__1::allocator<char> >, assist_ranker::ExamplePreprocessorConfig_Boundaries>::InnerMap::Node"* %58, i64 0, i32 0, i32 1, i32 1, i32 0
  store i32 0, i32* %62, align 8
  %63 = getelementptr inbounds %"struct.google::protobuf::Map<std::__1::basic_string<char, std::__1::char_traits<char>, std::__1::allocator<char> >, assist_ranker::ExamplePreprocessorConfig_Boundaries>::InnerMap::Node", %"struct.google::protobuf::Map<std::__1::basic_string<char, std::__1::char_traits<char>, std::__1::allocator<char> >, assist_ranker::ExamplePreprocessorConfig_Boundaries>::InnerMap::Node"* %58, i64 0, i32 0, i32 1, i32 0, i32 1
  %64 = bitcast %"class.google::protobuf::internal::InternalMetadata"* %63 to i64*
  %65 = load i64, i64* %64, align 8
  %66 = and i64 %65, 1
  %67 = icmp eq i64 %66, 0
  br i1 %67, label %82, label %68

68:                                               ; preds = %61
  %69 = and i64 %65, -2
  %70 = inttoptr i64 %69 to %"struct.google::protobuf::internal::InternalMetadata::Container"*
  %71 = getelementptr inbounds %"struct.google::protobuf::internal::InternalMetadata::Container", %"struct.google::protobuf::internal::InternalMetadata::Container"* %70, i64 0, i32 1
  %72 = bitcast %"class.std::__1::basic_string"* %71 to %"struct.std::__1::basic_string<char, std::__1::char_traits<char>, std::__1::allocator<char> >::__short"*
  %73 = getelementptr inbounds %"struct.std::__1::basic_string<char, std::__1::char_traits<char>, std::__1::allocator<char> >::__short", %"struct.std::__1::basic_string<char, std::__1::char_traits<char>, std::__1::allocator<char> >::__short"* %72, i64 0, i32 1, i32 0
  %74 = load i8, i8* %73, align 1
  %75 = icmp slt i8 %74, 0
  br i1 %75, label %76, label %80

76:                                               ; preds = %68
  %77 = getelementptr inbounds %"class.std::__1::basic_string", %"class.std::__1::basic_string"* %71, i64 0, i32 0, i32 0, i32 0, i32 0, i32 0, i32 0
  %78 = load i8*, i8** %77, align 8
  store i8 0, i8* %78, align 1
  %79 = getelementptr inbounds %"struct.google::protobuf::internal::InternalMetadata::Container", %"struct.google::protobuf::internal::InternalMetadata::Container"* %70, i64 0, i32 1, i32 0, i32 0, i32 0, i32 0, i32 0, i32 1
  store i64 0, i64* %79, align 8
  br label %82

80:                                               ; preds = %68
  %81 = bitcast %"class.std::__1::basic_string"* %71 to i8*
  store i8 0, i8* %81, align 2
  store i8 0, i8* %73, align 1
  br label %82

82:                                               ; preds = %80, %76, %61
  call void @_ZN13assist_ranker36ExamplePreprocessorConfig_Boundaries9MergeFromERKS0_(%"class.assist_ranker::ExamplePreprocessorConfig_Boundaries"* %59, %"class.assist_ranker::ExamplePreprocessorConfig_Boundaries"* dereferenceable(40) %56) #15
  br label %83

83:                                               ; preds = %54, %82
  %84 = call dereferenceable(24) %"class.google::protobuf::Map<std::__1::basic_string<char, std::__1::char_traits<char>, std::__1::allocator<char> >, assist_ranker::ExamplePreprocessorConfig_Boundaries>::InnerMap::iterator_base"* @_ZN6google8protobuf3MapINSt3__112basic_stringIcNS2_11char_traitsIcEENS2_9allocatorIcEEEEN13assist_ranker36ExamplePreprocessorConfig_BoundariesEE8InnerMap13iterator_baseIKNS0_7MapPairIS8_SA_EEEppEv(%"class.google::protobuf::Map<std::__1::basic_string<char, std::__1::char_traits<char>, std::__1::allocator<char> >, assist_ranker::ExamplePreprocessorConfig_Boundaries>::InnerMap::iterator_base"* nonnull %52) #15
  %85 = load %"struct.google::protobuf::Map<std::__1::basic_string<char, std::__1::char_traits<char>, std::__1::allocator<char> >, assist_ranker::ExamplePreprocessorConfig_Boundaries>::InnerMap::Node"*, %"struct.google::protobuf::Map<std::__1::basic_string<char, std::__1::char_traits<char>, std::__1::allocator<char> >, assist_ranker::ExamplePreprocessorConfig_Boundaries>::InnerMap::Node"** %6, align 8
  %86 = icmp eq %"struct.google::protobuf::Map<std::__1::basic_string<char, std::__1::char_traits<char>, std::__1::allocator<char> >, assist_ranker::ExamplePreprocessorConfig_Boundaries>::InnerMap::Node"* %85, null
  br i1 %86, label %53, label %54
}

; Function Attrs: nounwind ssp uwtable
define hidden void @_ZN13assist_ranker25ExamplePreprocessorConfigD2Ev(%"class.assist_ranker::ExamplePreprocessorConfig"*) unnamed_addr #0 align 2 {
  %2 = getelementptr inbounds %"class.assist_ranker::ExamplePreprocessorConfig", %"class.assist_ranker::ExamplePreprocessorConfig"* %0, i64 0, i32 0, i32 0
  store i32 (...)** bitcast (i8** getelementptr inbounds ({ [16 x i8*] }, { [16 x i8*] }* @_ZTVN13assist_ranker25ExamplePreprocessorConfigE, i64 0, inrange i32 0, i64 2) to i32 (...)**), i32 (...)*** %2, align 8
  %3 = getelementptr inbounds %"class.assist_ranker::ExamplePreprocessorConfig", %"class.assist_ranker::ExamplePreprocessorConfig"* %0, i64 0, i32 0, i32 1
  %4 = bitcast %"class.google::protobuf::internal::InternalMetadata"* %3 to i64*
  %5 = load i64, i64* %4, align 8
  %6 = and i64 %5, 1
  %7 = icmp eq i64 %6, 0
  br i1 %7, label %28, label %8

8:                                                ; preds = %1
  %9 = and i64 %5, -2
  %10 = inttoptr i64 %9 to %"struct.google::protobuf::internal::InternalMetadata::ContainerBase"*
  %11 = getelementptr inbounds %"struct.google::protobuf::internal::InternalMetadata::ContainerBase", %"struct.google::protobuf::internal::InternalMetadata::ContainerBase"* %10, i64 0, i32 0
  %12 = load %"class.google::protobuf::Arena"*, %"class.google::protobuf::Arena"** %11, align 8
  %13 = icmp ne %"class.google::protobuf::Arena"* %12, null
  %14 = icmp eq i64 %9, 0
  %15 = or i1 %14, %13
  br i1 %15, label %28, label %16

16:                                               ; preds = %8
  %17 = inttoptr i64 %9 to %"struct.google::protobuf::internal::InternalMetadata::Container"*
  %18 = getelementptr inbounds %"struct.google::protobuf::internal::InternalMetadata::Container", %"struct.google::protobuf::internal::InternalMetadata::Container"* %17, i64 0, i32 1
  %19 = bitcast %"class.std::__1::basic_string"* %18 to %"struct.std::__1::basic_string<char, std::__1::char_traits<char>, std::__1::allocator<char> >::__short"*
  %20 = getelementptr inbounds %"struct.std::__1::basic_string<char, std::__1::char_traits<char>, std::__1::allocator<char> >::__short", %"struct.std::__1::basic_string<char, std::__1::char_traits<char>, std::__1::allocator<char> >::__short"* %19, i64 0, i32 1, i32 0
  %21 = load i8, i8* %20, align 1
  %22 = icmp slt i8 %21, 0
  br i1 %22, label %23, label %26

23:                                               ; preds = %16
  %24 = getelementptr inbounds %"class.std::__1::basic_string", %"class.std::__1::basic_string"* %18, i64 0, i32 0, i32 0, i32 0, i32 0, i32 0, i32 0
  %25 = load i8*, i8** %24, align 8
  tail call void @_ZdlPv(i8* %25) #16
  br label %26

26:                                               ; preds = %23, %16
  %27 = inttoptr i64 %9 to i8*
  tail call void @_ZdlPv(i8* %27) #16
  br label %28

28:                                               ; preds = %1, %8, %26
  %29 = getelementptr inbounds %"class.assist_ranker::ExamplePreprocessorConfig", %"class.assist_ranker::ExamplePreprocessorConfig"* %0, i64 0, i32 5
  tail call void @_ZN6google8protobuf16RepeatedPtrFieldINSt3__112basic_stringIcNS2_11char_traitsIcEENS2_9allocatorIcEEEEED1Ev(%"class.google::protobuf::RepeatedPtrField"* %29) #15
  %30 = getelementptr inbounds %"class.assist_ranker::ExamplePreprocessorConfig", %"class.assist_ranker::ExamplePreprocessorConfig"* %0, i64 0, i32 4, i32 0, i32 0
  %31 = getelementptr inbounds %"class.assist_ranker::ExamplePreprocessorConfig", %"class.assist_ranker::ExamplePreprocessorConfig"* %0, i64 0, i32 4, i32 0, i32 0, i32 5, i32 0
  %32 = load %"class.google::protobuf::Arena"*, %"class.google::protobuf::Arena"** %31, align 8
  %33 = icmp eq %"class.google::protobuf::Arena"* %32, null
  br i1 %33, label %34, label %45

34:                                               ; preds = %28
  %35 = getelementptr inbounds %"class.assist_ranker::ExamplePreprocessorConfig", %"class.assist_ranker::ExamplePreprocessorConfig"* %0, i64 0, i32 4, i32 0, i32 0, i32 1
  %36 = load i64, i64* %35, align 8
  %37 = icmp eq i64 %36, 1
  br i1 %37, label %45, label %38

38:                                               ; preds = %34
  tail call void @_ZN6google8protobuf3MapINSt3__112basic_stringIcNS2_11char_traitsIcEENS2_9allocatorIcEEEEfE8InnerMap5clearEv(%"class.google::protobuf::Map<std::__1::basic_string<char, std::__1::char_traits<char>, std::__1::allocator<char> >, float>::InnerMap"* %30) #15
  %39 = load %"class.google::protobuf::Arena"*, %"class.google::protobuf::Arena"** %31, align 8
  %40 = icmp eq %"class.google::protobuf::Arena"* %39, null
  br i1 %40, label %41, label %45

41:                                               ; preds = %38
  %42 = getelementptr inbounds %"class.assist_ranker::ExamplePreprocessorConfig", %"class.assist_ranker::ExamplePreprocessorConfig"* %0, i64 0, i32 4, i32 0, i32 0, i32 4
  %43 = bitcast i8*** %42 to i8**
  %44 = load i8*, i8** %43, align 8
  tail call void @_ZdlPv(i8* %44) #15
  br label %45

45:                                               ; preds = %28, %34, %38, %41
  %46 = getelementptr inbounds %"class.assist_ranker::ExamplePreprocessorConfig", %"class.assist_ranker::ExamplePreprocessorConfig"* %0, i64 0, i32 3, i32 0, i32 0
  %47 = getelementptr inbounds %"class.assist_ranker::ExamplePreprocessorConfig", %"class.assist_ranker::ExamplePreprocessorConfig"* %0, i64 0, i32 3, i32 0, i32 0, i32 5, i32 0
  %48 = load %"class.google::protobuf::Arena"*, %"class.google::protobuf::Arena"** %47, align 8
  %49 = icmp eq %"class.google::protobuf::Arena"* %48, null
  br i1 %49, label %50, label %61

50:                                               ; preds = %45
  %51 = getelementptr inbounds %"class.assist_ranker::ExamplePreprocessorConfig", %"class.assist_ranker::ExamplePreprocessorConfig"* %0, i64 0, i32 3, i32 0, i32 0, i32 1
  %52 = load i64, i64* %51, align 8
  %53 = icmp eq i64 %52, 1
  br i1 %53, label %61, label %54

54:                                               ; preds = %50
  tail call void @_ZN6google8protobuf3MapINSt3__112basic_stringIcNS2_11char_traitsIcEENS2_9allocatorIcEEEEiE8InnerMap5clearEv(%"class.google::protobuf::Map<std::__1::basic_string<char, std::__1::char_traits<char>, std::__1::allocator<char> >, int>::InnerMap"* %46) #15
  %55 = load %"class.google::protobuf::Arena"*, %"class.google::protobuf::Arena"** %47, align 8
  %56 = icmp eq %"class.google::protobuf::Arena"* %55, null
  br i1 %56, label %57, label %61

57:                                               ; preds = %54
  %58 = getelementptr inbounds %"class.assist_ranker::ExamplePreprocessorConfig", %"class.assist_ranker::ExamplePreprocessorConfig"* %0, i64 0, i32 3, i32 0, i32 0, i32 4
  %59 = bitcast i8*** %58 to i8**
  %60 = load i8*, i8** %59, align 8
  tail call void @_ZdlPv(i8* %60) #15
  br label %61

61:                                               ; preds = %45, %50, %54, %57
  %62 = getelementptr inbounds %"class.assist_ranker::ExamplePreprocessorConfig", %"class.assist_ranker::ExamplePreprocessorConfig"* %0, i64 0, i32 2, i32 0, i32 0
  %63 = getelementptr inbounds %"class.assist_ranker::ExamplePreprocessorConfig", %"class.assist_ranker::ExamplePreprocessorConfig"* %0, i64 0, i32 2, i32 0, i32 0, i32 5, i32 0
  %64 = load %"class.google::protobuf::Arena"*, %"class.google::protobuf::Arena"** %63, align 8
  %65 = icmp eq %"class.google::protobuf::Arena"* %64, null
  br i1 %65, label %66, label %77

66:                                               ; preds = %61
  %67 = getelementptr inbounds %"class.assist_ranker::ExamplePreprocessorConfig", %"class.assist_ranker::ExamplePreprocessorConfig"* %0, i64 0, i32 2, i32 0, i32 0, i32 1
  %68 = load i64, i64* %67, align 8
  %69 = icmp eq i64 %68, 1
  br i1 %69, label %77, label %70

70:                                               ; preds = %66
  tail call void @_ZN6google8protobuf3MapINSt3__112basic_stringIcNS2_11char_traitsIcEENS2_9allocatorIcEEEEN13assist_ranker36ExamplePreprocessorConfig_BoundariesEE8InnerMap5clearEv(%"class.google::protobuf::Map<std::__1::basic_string<char, std::__1::char_traits<char>, std::__1::allocator<char> >, assist_ranker::ExamplePreprocessorConfig_Boundaries>::InnerMap"* %62) #15
  %71 = load %"class.google::protobuf::Arena"*, %"class.google::protobuf::Arena"** %63, align 8
  %72 = icmp eq %"class.google::protobuf::Arena"* %71, null
  br i1 %72, label %73, label %77

73:                                               ; preds = %70
  %74 = getelementptr inbounds %"class.assist_ranker::ExamplePreprocessorConfig", %"class.assist_ranker::ExamplePreprocessorConfig"* %0, i64 0, i32 2, i32 0, i32 0, i32 4
  %75 = bitcast i8*** %74 to i8**
  %76 = load i8*, i8** %75, align 8
  tail call void @_ZdlPv(i8* %76) #15
  br label %77

77:                                               ; preds = %61, %66, %70, %73
  %78 = getelementptr inbounds %"class.assist_ranker::ExamplePreprocessorConfig", %"class.assist_ranker::ExamplePreprocessorConfig"* %0, i64 0, i32 1
  tail call void @_ZN6google8protobuf16RepeatedPtrFieldINSt3__112basic_stringIcNS2_11char_traitsIcEENS2_9allocatorIcEEEEED1Ev(%"class.google::protobuf::RepeatedPtrField"* %78) #15
  ret void
}

; Function Attrs: nounwind
declare void @_ZN6google8protobuf16RepeatedPtrFieldINSt3__112basic_stringIcNS2_11char_traitsIcEENS2_9allocatorIcEEEEED1Ev(%"class.google::protobuf::RepeatedPtrField"*) unnamed_addr #2

; Function Attrs: nounwind ssp uwtable
define hidden void @_ZN13assist_ranker25ExamplePreprocessorConfigD0Ev(%"class.assist_ranker::ExamplePreprocessorConfig"*) unnamed_addr #0 align 2 {
  tail call void @_ZN13assist_ranker25ExamplePreprocessorConfigD2Ev(%"class.assist_ranker::ExamplePreprocessorConfig"* %0) #15
  %2 = bitcast %"class.assist_ranker::ExamplePreprocessorConfig"* %0 to i8*
  tail call void @_ZdlPv(i8* %2) #16
  ret void
}

; Function Attrs: norecurse nounwind readnone ssp uwtable
define hidden void @_ZN13assist_ranker25ExamplePreprocessorConfig9ArenaDtorEPv(i8* nocapture) local_unnamed_addr #4 align 2 {
  ret void
}

; Function Attrs: nofree norecurse nounwind ssp uwtable
define hidden void @_ZNK13assist_ranker25ExamplePreprocessorConfig13SetCachedSizeEi(%"class.assist_ranker::ExamplePreprocessorConfig"* nocapture, i32) local_unnamed_addr #6 align 2 {
  %3 = getelementptr inbounds %"class.assist_ranker::ExamplePreprocessorConfig", %"class.assist_ranker::ExamplePreprocessorConfig"* %0, i64 0, i32 6, i32 0, i32 0, i32 0, i32 0, i32 0, i32 0
  store atomic i32 %1, i32* %3 monotonic, align 4
  ret void
}

; Function Attrs: nounwind ssp uwtable
define hidden dereferenceable(216) %"class.assist_ranker::ExamplePreprocessorConfig"* @_ZN13assist_ranker25ExamplePreprocessorConfig16default_instanceEv() local_unnamed_addr #0 align 2 {
  %1 = load atomic i32, i32* getelementptr inbounds ({ { { { i32 } }, i32, i32, void ()* }, [3 x i8*] }, { { { { i32 } }, i32, i32, void ()* }, [3 x i8*] }* @scc_info_ExamplePreprocessorConfig_example_5fpreprocessor_2eproto, i64 0, i32 0, i32 0, i32 0, i32 0) acquire, align 8
  %2 = icmp eq i32 %1, 0
  br i1 %2, label %4, label %3, !prof !3

3:                                                ; preds = %0
  tail call void @_ZN6google8protobuf8internal11InitSCCImplEPNS1_11SCCInfoBaseE(%"struct.google::protobuf::internal::SCCInfoBase"* bitcast ({ { { { i32 } }, i32, i32, void ()* }, [3 x i8*] }* @scc_info_ExamplePreprocessorConfig_example_5fpreprocessor_2eproto to %"struct.google::protobuf::internal::SCCInfoBase"*)) #15
  br label %4

4:                                                ; preds = %0, %3
  ret %"class.assist_ranker::ExamplePreprocessorConfig"* bitcast (%"class.assist_ranker::ExamplePreprocessorConfigDefaultTypeInternal"* @_ZN13assist_ranker44_ExamplePreprocessorConfig_default_instance_E to %"class.assist_ranker::ExamplePreprocessorConfig"*)
}

; Function Attrs: nounwind ssp uwtable
define hidden void @_ZN13assist_ranker25ExamplePreprocessorConfig5ClearEv(%"class.assist_ranker::ExamplePreprocessorConfig"*) unnamed_addr #0 align 2 {
  %2 = getelementptr inbounds %"class.assist_ranker::ExamplePreprocessorConfig", %"class.assist_ranker::ExamplePreprocessorConfig"* %0, i64 0, i32 1, i32 0, i32 1
  %3 = load i32, i32* %2, align 8
  %4 = icmp sgt i32 %3, 0
  br i1 %4, label %5, label %51

5:                                                ; preds = %1
  %6 = getelementptr inbounds %"class.assist_ranker::ExamplePreprocessorConfig", %"class.assist_ranker::ExamplePreprocessorConfig"* %0, i64 0, i32 1, i32 0, i32 3
  %7 = load %"struct.google::protobuf::internal::RepeatedPtrFieldBase::Rep"*, %"struct.google::protobuf::internal::RepeatedPtrFieldBase::Rep"** %6, align 8
  %8 = zext i32 %3 to i64
  %9 = and i64 %8, 1
  %10 = icmp eq i32 %3, 1
  br i1 %10, label %35, label %11

11:                                               ; preds = %5
  %12 = sub nsw i64 %8, %9
  br label %13

13:                                               ; preds = %140, %11
  %14 = phi i64 [ 0, %11 ], [ %29, %140 ]
  %15 = phi i64 [ %12, %11 ], [ %141, %140 ]
  %16 = or i64 %14, 1
  %17 = getelementptr inbounds %"struct.google::protobuf::internal::RepeatedPtrFieldBase::Rep", %"struct.google::protobuf::internal::RepeatedPtrFieldBase::Rep"* %7, i64 0, i32 1, i64 %14
  %18 = load i8*, i8** %17, align 8
  %19 = getelementptr inbounds i8, i8* %18, i64 23
  %20 = load i8, i8* %19, align 1
  %21 = icmp slt i8 %20, 0
  br i1 %21, label %22, label %27

22:                                               ; preds = %13
  %23 = bitcast i8* %18 to i8**
  %24 = load i8*, i8** %23, align 8
  store i8 0, i8* %24, align 1
  %25 = getelementptr inbounds i8, i8* %18, i64 8
  %26 = bitcast i8* %25 to i64*
  store i64 0, i64* %26, align 8
  br label %28

27:                                               ; preds = %13
  store i8 0, i8* %18, align 1
  store i8 0, i8* %19, align 1
  br label %28

28:                                               ; preds = %27, %22
  %29 = add nuw nsw i64 %14, 2
  %30 = getelementptr inbounds %"struct.google::protobuf::internal::RepeatedPtrFieldBase::Rep", %"struct.google::protobuf::internal::RepeatedPtrFieldBase::Rep"* %7, i64 0, i32 1, i64 %16
  %31 = load i8*, i8** %30, align 8
  %32 = getelementptr inbounds i8, i8* %31, i64 23
  %33 = load i8, i8* %32, align 1
  %34 = icmp slt i8 %33, 0
  br i1 %34, label %135, label %134

35:                                               ; preds = %140, %5
  %36 = phi i64 [ 0, %5 ], [ %29, %140 ]
  %37 = icmp eq i64 %9, 0
  br i1 %37, label %50, label %38

38:                                               ; preds = %35
  %39 = getelementptr inbounds %"struct.google::protobuf::internal::RepeatedPtrFieldBase::Rep", %"struct.google::protobuf::internal::RepeatedPtrFieldBase::Rep"* %7, i64 0, i32 1, i64 %36
  %40 = load i8*, i8** %39, align 8
  %41 = getelementptr inbounds i8, i8* %40, i64 23
  %42 = load i8, i8* %41, align 1
  %43 = icmp slt i8 %42, 0
  br i1 %43, label %45, label %44

44:                                               ; preds = %38
  store i8 0, i8* %40, align 1
  store i8 0, i8* %41, align 1
  br label %50

45:                                               ; preds = %38
  %46 = bitcast i8* %40 to i8**
  %47 = load i8*, i8** %46, align 8
  store i8 0, i8* %47, align 1
  %48 = getelementptr inbounds i8, i8* %40, i64 8
  %49 = bitcast i8* %48 to i64*
  store i64 0, i64* %49, align 8
  br label %50

50:                                               ; preds = %45, %44, %35
  store i32 0, i32* %2, align 8
  br label %51

51:                                               ; preds = %1, %50
  %52 = getelementptr inbounds %"class.assist_ranker::ExamplePreprocessorConfig", %"class.assist_ranker::ExamplePreprocessorConfig"* %0, i64 0, i32 2, i32 0, i32 0
  tail call void @_ZN6google8protobuf3MapINSt3__112basic_stringIcNS2_11char_traitsIcEENS2_9allocatorIcEEEEN13assist_ranker36ExamplePreprocessorConfig_BoundariesEE8InnerMap5clearEv(%"class.google::protobuf::Map<std::__1::basic_string<char, std::__1::char_traits<char>, std::__1::allocator<char> >, assist_ranker::ExamplePreprocessorConfig_Boundaries>::InnerMap"* %52) #15
  %53 = getelementptr inbounds %"class.assist_ranker::ExamplePreprocessorConfig", %"class.assist_ranker::ExamplePreprocessorConfig"* %0, i64 0, i32 3, i32 0, i32 0
  tail call void @_ZN6google8protobuf3MapINSt3__112basic_stringIcNS2_11char_traitsIcEENS2_9allocatorIcEEEEiE8InnerMap5clearEv(%"class.google::protobuf::Map<std::__1::basic_string<char, std::__1::char_traits<char>, std::__1::allocator<char> >, int>::InnerMap"* %53) #15
  %54 = getelementptr inbounds %"class.assist_ranker::ExamplePreprocessorConfig", %"class.assist_ranker::ExamplePreprocessorConfig"* %0, i64 0, i32 4, i32 0, i32 0
  tail call void @_ZN6google8protobuf3MapINSt3__112basic_stringIcNS2_11char_traitsIcEENS2_9allocatorIcEEEEfE8InnerMap5clearEv(%"class.google::protobuf::Map<std::__1::basic_string<char, std::__1::char_traits<char>, std::__1::allocator<char> >, float>::InnerMap"* %54) #15
  %55 = getelementptr inbounds %"class.assist_ranker::ExamplePreprocessorConfig", %"class.assist_ranker::ExamplePreprocessorConfig"* %0, i64 0, i32 5, i32 0, i32 1
  %56 = load i32, i32* %55, align 8
  %57 = icmp sgt i32 %56, 0
  br i1 %57, label %58, label %104

58:                                               ; preds = %51
  %59 = getelementptr inbounds %"class.assist_ranker::ExamplePreprocessorConfig", %"class.assist_ranker::ExamplePreprocessorConfig"* %0, i64 0, i32 5, i32 0, i32 3
  %60 = load %"struct.google::protobuf::internal::RepeatedPtrFieldBase::Rep"*, %"struct.google::protobuf::internal::RepeatedPtrFieldBase::Rep"** %59, align 8
  %61 = zext i32 %56 to i64
  %62 = and i64 %61, 1
  %63 = icmp eq i32 %56, 1
  br i1 %63, label %88, label %64

64:                                               ; preds = %58
  %65 = sub nsw i64 %61, %62
  br label %66

66:                                               ; preds = %131, %64
  %67 = phi i64 [ 0, %64 ], [ %82, %131 ]
  %68 = phi i64 [ %65, %64 ], [ %132, %131 ]
  %69 = or i64 %67, 1
  %70 = getelementptr inbounds %"struct.google::protobuf::internal::RepeatedPtrFieldBase::Rep", %"struct.google::protobuf::internal::RepeatedPtrFieldBase::Rep"* %60, i64 0, i32 1, i64 %67
  %71 = load i8*, i8** %70, align 8
  %72 = getelementptr inbounds i8, i8* %71, i64 23
  %73 = load i8, i8* %72, align 1
  %74 = icmp slt i8 %73, 0
  br i1 %74, label %75, label %80

75:                                               ; preds = %66
  %76 = bitcast i8* %71 to i8**
  %77 = load i8*, i8** %76, align 8
  store i8 0, i8* %77, align 1
  %78 = getelementptr inbounds i8, i8* %71, i64 8
  %79 = bitcast i8* %78 to i64*
  store i64 0, i64* %79, align 8
  br label %81

80:                                               ; preds = %66
  store i8 0, i8* %71, align 1
  store i8 0, i8* %72, align 1
  br label %81

81:                                               ; preds = %80, %75
  %82 = add nuw nsw i64 %67, 2
  %83 = getelementptr inbounds %"struct.google::protobuf::internal::RepeatedPtrFieldBase::Rep", %"struct.google::protobuf::internal::RepeatedPtrFieldBase::Rep"* %60, i64 0, i32 1, i64 %69
  %84 = load i8*, i8** %83, align 8
  %85 = getelementptr inbounds i8, i8* %84, i64 23
  %86 = load i8, i8* %85, align 1
  %87 = icmp slt i8 %86, 0
  br i1 %87, label %126, label %125

88:                                               ; preds = %131, %58
  %89 = phi i64 [ 0, %58 ], [ %82, %131 ]
  %90 = icmp eq i64 %62, 0
  br i1 %90, label %103, label %91

91:                                               ; preds = %88
  %92 = getelementptr inbounds %"struct.google::protobuf::internal::RepeatedPtrFieldBase::Rep", %"struct.google::protobuf::internal::RepeatedPtrFieldBase::Rep"* %60, i64 0, i32 1, i64 %89
  %93 = load i8*, i8** %92, align 8
  %94 = getelementptr inbounds i8, i8* %93, i64 23
  %95 = load i8, i8* %94, align 1
  %96 = icmp slt i8 %95, 0
  br i1 %96, label %98, label %97

97:                                               ; preds = %91
  store i8 0, i8* %93, align 1
  store i8 0, i8* %94, align 1
  br label %103

98:                                               ; preds = %91
  %99 = bitcast i8* %93 to i8**
  %100 = load i8*, i8** %99, align 8
  store i8 0, i8* %100, align 1
  %101 = getelementptr inbounds i8, i8* %93, i64 8
  %102 = bitcast i8* %101 to i64*
  store i64 0, i64* %102, align 8
  br label %103

103:                                              ; preds = %98, %97, %88
  store i32 0, i32* %55, align 8
  br label %104

104:                                              ; preds = %51, %103
  %105 = getelementptr inbounds %"class.assist_ranker::ExamplePreprocessorConfig", %"class.assist_ranker::ExamplePreprocessorConfig"* %0, i64 0, i32 0, i32 1
  %106 = bitcast %"class.google::protobuf::internal::InternalMetadata"* %105 to i64*
  %107 = load i64, i64* %106, align 8
  %108 = and i64 %107, 1
  %109 = icmp eq i64 %108, 0
  br i1 %109, label %124, label %110

110:                                              ; preds = %104
  %111 = and i64 %107, -2
  %112 = inttoptr i64 %111 to %"struct.google::protobuf::internal::InternalMetadata::Container"*
  %113 = getelementptr inbounds %"struct.google::protobuf::internal::InternalMetadata::Container", %"struct.google::protobuf::internal::InternalMetadata::Container"* %112, i64 0, i32 1
  %114 = bitcast %"class.std::__1::basic_string"* %113 to %"struct.std::__1::basic_string<char, std::__1::char_traits<char>, std::__1::allocator<char> >::__short"*
  %115 = getelementptr inbounds %"struct.std::__1::basic_string<char, std::__1::char_traits<char>, std::__1::allocator<char> >::__short", %"struct.std::__1::basic_string<char, std::__1::char_traits<char>, std::__1::allocator<char> >::__short"* %114, i64 0, i32 1, i32 0
  %116 = load i8, i8* %115, align 1
  %117 = icmp slt i8 %116, 0
  br i1 %117, label %118, label %122

118:                                              ; preds = %110
  %119 = getelementptr inbounds %"class.std::__1::basic_string", %"class.std::__1::basic_string"* %113, i64 0, i32 0, i32 0, i32 0, i32 0, i32 0, i32 0
  %120 = load i8*, i8** %119, align 8
  store i8 0, i8* %120, align 1
  %121 = getelementptr inbounds %"struct.google::protobuf::internal::InternalMetadata::Container", %"struct.google::protobuf::internal::InternalMetadata::Container"* %112, i64 0, i32 1, i32 0, i32 0, i32 0, i32 0, i32 0, i32 1
  store i64 0, i64* %121, align 8
  br label %124

122:                                              ; preds = %110
  %123 = bitcast %"class.std::__1::basic_string"* %113 to i8*
  store i8 0, i8* %123, align 2
  store i8 0, i8* %115, align 1
  br label %124

124:                                              ; preds = %104, %118, %122
  ret void

125:                                              ; preds = %81
  store i8 0, i8* %84, align 1
  store i8 0, i8* %85, align 1
  br label %131

126:                                              ; preds = %81
  %127 = bitcast i8* %84 to i8**
  %128 = load i8*, i8** %127, align 8
  store i8 0, i8* %128, align 1
  %129 = getelementptr inbounds i8, i8* %84, i64 8
  %130 = bitcast i8* %129 to i64*
  store i64 0, i64* %130, align 8
  br label %131

131:                                              ; preds = %126, %125
  %132 = add i64 %68, -2
  %133 = icmp eq i64 %132, 0
  br i1 %133, label %88, label %66

134:                                              ; preds = %28
  store i8 0, i8* %31, align 1
  store i8 0, i8* %32, align 1
  br label %140

135:                                              ; preds = %28
  %136 = bitcast i8* %31 to i8**
  %137 = load i8*, i8** %136, align 8
  store i8 0, i8* %137, align 1
  %138 = getelementptr inbounds i8, i8* %31, i64 8
  %139 = bitcast i8* %138 to i64*
  store i64 0, i64* %139, align 8
  br label %140

140:                                              ; preds = %135, %134
  %141 = add i64 %15, -2
  %142 = icmp eq i64 %141, 0
  br i1 %142, label %35, label %13
}

; Function Attrs: nounwind ssp uwtable
define hidden i8* @_ZN13assist_ranker25ExamplePreprocessorConfig14_InternalParseEPKcPN6google8protobuf8internal12ParseContextE(%"class.assist_ranker::ExamplePreprocessorConfig"*, i8*, %"class.google::protobuf::internal::ParseContext"*) unnamed_addr #0 align 2 {
  %4 = getelementptr inbounds %"class.google::protobuf::internal::ParseContext", %"class.google::protobuf::internal::ParseContext"* %2, i64 0, i32 0
  %5 = getelementptr inbounds %"class.google::protobuf::internal::ParseContext", %"class.google::protobuf::internal::ParseContext"* %2, i64 0, i32 2
  %6 = getelementptr inbounds %"class.google::protobuf::internal::ParseContext", %"class.google::protobuf::internal::ParseContext"* %2, i64 0, i32 0, i32 0
  %7 = getelementptr inbounds %"class.google::protobuf::internal::ParseContext", %"class.google::protobuf::internal::ParseContext"* %2, i64 0, i32 0, i32 1
  %8 = bitcast i8** %7 to i64*
  %9 = getelementptr inbounds %"class.google::protobuf::internal::ParseContext", %"class.google::protobuf::internal::ParseContext"* %2, i64 0, i32 0, i32 4
  %10 = getelementptr inbounds %"class.assist_ranker::ExamplePreprocessorConfig", %"class.assist_ranker::ExamplePreprocessorConfig"* %0, i64 0, i32 5
  %11 = getelementptr inbounds %"class.google::protobuf::RepeatedPtrField", %"class.google::protobuf::RepeatedPtrField"* %10, i64 0, i32 0
  %12 = getelementptr inbounds %"class.assist_ranker::ExamplePreprocessorConfig", %"class.assist_ranker::ExamplePreprocessorConfig"* %0, i64 0, i32 5, i32 0, i32 3
  %13 = getelementptr inbounds %"class.assist_ranker::ExamplePreprocessorConfig", %"class.assist_ranker::ExamplePreprocessorConfig"* %0, i64 0, i32 5, i32 0, i32 1
  %14 = getelementptr inbounds %"class.assist_ranker::ExamplePreprocessorConfig", %"class.assist_ranker::ExamplePreprocessorConfig"* %0, i64 0, i32 5, i32 0, i32 2
  %15 = getelementptr inbounds %"class.google::protobuf::RepeatedPtrField", %"class.google::protobuf::RepeatedPtrField"* %10, i64 0, i32 0, i32 0
  %16 = getelementptr inbounds %"class.assist_ranker::ExamplePreprocessorConfig", %"class.assist_ranker::ExamplePreprocessorConfig"* %0, i64 0, i32 4
  %17 = getelementptr inbounds %"class.assist_ranker::ExamplePreprocessorConfig", %"class.assist_ranker::ExamplePreprocessorConfig"* %0, i64 0, i32 3
  %18 = getelementptr inbounds %"class.assist_ranker::ExamplePreprocessorConfig", %"class.assist_ranker::ExamplePreprocessorConfig"* %0, i64 0, i32 2
  %19 = getelementptr inbounds %"class.assist_ranker::ExamplePreprocessorConfig", %"class.assist_ranker::ExamplePreprocessorConfig"* %0, i64 0, i32 1
  %20 = getelementptr inbounds %"class.google::protobuf::RepeatedPtrField", %"class.google::protobuf::RepeatedPtrField"* %19, i64 0, i32 0
  %21 = getelementptr inbounds %"class.assist_ranker::ExamplePreprocessorConfig", %"class.assist_ranker::ExamplePreprocessorConfig"* %0, i64 0, i32 1, i32 0, i32 3
  %22 = getelementptr inbounds %"class.assist_ranker::ExamplePreprocessorConfig", %"class.assist_ranker::ExamplePreprocessorConfig"* %0, i64 0, i32 1, i32 0, i32 1
  %23 = getelementptr inbounds %"class.assist_ranker::ExamplePreprocessorConfig", %"class.assist_ranker::ExamplePreprocessorConfig"* %0, i64 0, i32 1, i32 0, i32 2
  %24 = getelementptr inbounds %"class.google::protobuf::RepeatedPtrField", %"class.google::protobuf::RepeatedPtrField"* %19, i64 0, i32 0, i32 0
  %25 = getelementptr inbounds %"class.assist_ranker::ExamplePreprocessorConfig", %"class.assist_ranker::ExamplePreprocessorConfig"* %0, i64 0, i32 0, i32 1
  %26 = bitcast %"class.google::protobuf::internal::InternalMetadata"* %25 to i64*
  br label %27

27:                                               ; preds = %272, %3
  %28 = phi i8* [ %1, %3 ], [ %273, %272 ]
  %29 = load i32, i32* %5, align 4
  %30 = load i8*, i8** %6, align 8
  %31 = icmp ult i8* %28, %30
  br i1 %31, label %45, label %32, !prof !3

32:                                               ; preds = %27
  %33 = load i64, i64* %8, align 8
  %34 = ptrtoint i8* %28 to i64
  %35 = sub i64 %34, %33
  %36 = load i32, i32* %9, align 4
  %37 = sext i32 %36 to i64
  %38 = icmp eq i64 %35, %37
  br i1 %38, label %274, label %39

39:                                               ; preds = %32
  %40 = tail call { i8*, i8 } @_ZN6google8protobuf8internal18EpsCopyInputStream12DoneFallbackEPKci(%"class.google::protobuf::internal::EpsCopyInputStream"* %4, i8* %28, i32 %29) #15
  %41 = extractvalue { i8*, i8 } %40, 0
  %42 = extractvalue { i8*, i8 } %40, 1
  %43 = and i8 %42, 1
  %44 = icmp eq i8 %43, 0
  br i1 %44, label %45, label %274

45:                                               ; preds = %39, %27
  %46 = phi i8* [ %41, %39 ], [ %28, %27 ]
  %47 = load i8, i8* %46, align 1
  %48 = zext i8 %47 to i32
  %49 = icmp sgt i8 %47, -1
  %50 = getelementptr inbounds i8, i8* %46, i64 1
  br i1 %49, label %64, label %51

51:                                               ; preds = %45
  %52 = load i8, i8* %50, align 1
  %53 = zext i8 %52 to i32
  %54 = shl nuw nsw i32 %53, 7
  %55 = add nsw i32 %48, -128
  %56 = add nsw i32 %55, %54
  %57 = icmp sgt i8 %52, -1
  br i1 %57, label %58, label %60

58:                                               ; preds = %51
  %59 = getelementptr inbounds i8, i8* %46, i64 2
  br label %64

60:                                               ; preds = %51
  %61 = tail call { i8*, i32 } @_ZN6google8protobuf8internal15ReadTagFallbackEPKcj(i8* %46, i32 %56) #15
  %62 = extractvalue { i8*, i32 } %61, 0
  %63 = extractvalue { i8*, i32 } %61, 1
  br label %64

64:                                               ; preds = %45, %58, %60
  %65 = phi i32 [ %56, %58 ], [ %63, %60 ], [ %48, %45 ]
  %66 = phi i8* [ %59, %58 ], [ %62, %60 ], [ %50, %45 ]
  %67 = icmp eq i8* %66, null
  br i1 %67, label %274, label %68, !prof !2

68:                                               ; preds = %64
  %69 = lshr i32 %65, 3
  switch i32 %69, label %250 [
    i32 1, label %70
    i32 2, label %136
    i32 3, label %152
    i32 4, label %168
    i32 5, label %184
  ]

70:                                               ; preds = %68
  %71 = and i32 %65, 255
  %72 = icmp eq i32 %71, 10
  br i1 %72, label %73, label %250, !prof !3

73:                                               ; preds = %70
  %74 = getelementptr inbounds i8, i8* %66, i64 -1
  br label %75

75:                                               ; preds = %133, %73
  %76 = phi i8* [ %74, %73 ], [ %128, %133 ]
  %77 = getelementptr inbounds i8, i8* %76, i64 1
  %78 = load %"struct.google::protobuf::internal::RepeatedPtrFieldBase::Rep"*, %"struct.google::protobuf::internal::RepeatedPtrFieldBase::Rep"** %21, align 8
  %79 = icmp eq %"struct.google::protobuf::internal::RepeatedPtrFieldBase::Rep"* %78, null
  br i1 %79, label %80, label %82

80:                                               ; preds = %75
  %81 = load i32, i32* %23, align 4
  br label %95

82:                                               ; preds = %75
  %83 = load i32, i32* %22, align 8
  %84 = getelementptr inbounds %"struct.google::protobuf::internal::RepeatedPtrFieldBase::Rep", %"struct.google::protobuf::internal::RepeatedPtrFieldBase::Rep"* %78, i64 0, i32 0
  %85 = load i32, i32* %84, align 8
  %86 = icmp slt i32 %83, %85
  br i1 %86, label %87, label %92

87:                                               ; preds = %82
  %88 = add nsw i32 %83, 1
  store i32 %88, i32* %22, align 8
  %89 = sext i32 %83 to i64
  %90 = getelementptr inbounds %"struct.google::protobuf::internal::RepeatedPtrFieldBase::Rep", %"struct.google::protobuf::internal::RepeatedPtrFieldBase::Rep"* %78, i64 0, i32 1, i64 %89
  %91 = load i8*, i8** %90, align 8
  br label %125

92:                                               ; preds = %82
  %93 = load i32, i32* %23, align 4
  %94 = icmp eq i32 %85, %93
  br i1 %94, label %95, label %101

95:                                               ; preds = %92, %80
  %96 = phi i32 [ %81, %80 ], [ %85, %92 ]
  %97 = add nsw i32 %96, 1
  tail call void @_ZN6google8protobuf8internal20RepeatedPtrFieldBase7ReserveEi(%"class.google::protobuf::internal::RepeatedPtrFieldBase"* %20, i32 %97) #15
  %98 = load %"struct.google::protobuf::internal::RepeatedPtrFieldBase::Rep"*, %"struct.google::protobuf::internal::RepeatedPtrFieldBase::Rep"** %21, align 8
  %99 = getelementptr inbounds %"struct.google::protobuf::internal::RepeatedPtrFieldBase::Rep", %"struct.google::protobuf::internal::RepeatedPtrFieldBase::Rep"* %98, i64 0, i32 0
  %100 = load i32, i32* %99, align 8
  br label %101

101:                                              ; preds = %95, %92
  %102 = phi i32 [ %100, %95 ], [ %85, %92 ]
  %103 = phi %"struct.google::protobuf::internal::RepeatedPtrFieldBase::Rep"* [ %98, %95 ], [ %78, %92 ]
  %104 = getelementptr inbounds %"struct.google::protobuf::internal::RepeatedPtrFieldBase::Rep", %"struct.google::protobuf::internal::RepeatedPtrFieldBase::Rep"* %103, i64 0, i32 0
  %105 = add nsw i32 %102, 1
  store i32 %105, i32* %104, align 8
  %106 = load %"class.google::protobuf::Arena"*, %"class.google::protobuf::Arena"** %24, align 8
  %107 = icmp eq %"class.google::protobuf::Arena"* %106, null
  br i1 %107, label %108, label %110

108:                                              ; preds = %101
  %109 = tail call i8* @_Znwm(i64 24) #16
  tail call void @llvm.memset.p0i8.i64(i8* nonnull align 8 %109, i8 0, i64 24, i1 false) #15
  br label %118

110:                                              ; preds = %101
  %111 = getelementptr inbounds %"class.google::protobuf::Arena", %"class.google::protobuf::Arena"* %106, i64 0, i32 4
  %112 = load i8*, i8** %111, align 8
  %113 = icmp eq i8* %112, null
  br i1 %113, label %115, label %114, !prof !3

114:                                              ; preds = %110
  tail call void @_ZNK6google8protobuf5Arena17OnArenaAllocationEPKSt9type_infom(%"class.google::protobuf::Arena"* nonnull %106, %"class.std::type_info"* null, i64 24) #15
  br label %115

115:                                              ; preds = %114, %110
  %116 = getelementptr inbounds %"class.google::protobuf::Arena", %"class.google::protobuf::Arena"* %106, i64 0, i32 0
  %117 = tail call i8* @_ZN6google8protobuf8internal9ArenaImpl28AllocateAlignedAndAddCleanupEmPFvPvE(%"class.google::protobuf::internal::ArenaImpl"* %116, i64 24, void (i8*)* nonnull @_ZN6google8protobuf8internal21arena_destruct_objectINSt3__112basic_stringIcNS3_11char_traitsIcEENS3_9allocatorIcEEEEEEvPv) #15
  tail call void @llvm.memset.p0i8.i64(i8* align 8 %117, i8 0, i64 24, i1 false) #15
  br label %118

118:                                              ; preds = %115, %108
  %119 = phi i8* [ %109, %108 ], [ %117, %115 ]
  %120 = load %"struct.google::protobuf::internal::RepeatedPtrFieldBase::Rep"*, %"struct.google::protobuf::internal::RepeatedPtrFieldBase::Rep"** %21, align 8
  %121 = load i32, i32* %22, align 8
  %122 = add nsw i32 %121, 1
  store i32 %122, i32* %22, align 8
  %123 = sext i32 %121 to i64
  %124 = getelementptr inbounds %"struct.google::protobuf::internal::RepeatedPtrFieldBase::Rep", %"struct.google::protobuf::internal::RepeatedPtrFieldBase::Rep"* %120, i64 0, i32 1, i64 %123
  store i8* %119, i8** %124, align 8
  br label %125

125:                                              ; preds = %87, %118
  %126 = phi i8* [ %91, %87 ], [ %119, %118 ]
  %127 = bitcast i8* %126 to %"class.std::__1::basic_string"*
  %128 = tail call i8* @_ZN6google8protobuf8internal24InlineGreedyStringParserEPNSt3__112basic_stringIcNS2_11char_traitsIcEENS2_9allocatorIcEEEEPKcPNS1_12ParseContextE(%"class.std::__1::basic_string"* %127, i8* %77, %"class.google::protobuf::internal::ParseContext"* %2) #15
  %129 = icmp eq i8* %128, null
  br i1 %129, label %274, label %130, !prof !2

130:                                              ; preds = %125
  %131 = load i8*, i8** %6, align 8
  %132 = icmp ugt i8* %131, %128
  br i1 %132, label %133, label %272

133:                                              ; preds = %130
  %134 = load i8, i8* %128, align 1
  %135 = icmp eq i8 %134, 10
  br i1 %135, label %75, label %272

136:                                              ; preds = %68
  %137 = and i32 %65, 255
  %138 = icmp eq i32 %137, 18
  br i1 %138, label %139, label %250, !prof !3

139:                                              ; preds = %136
  %140 = getelementptr inbounds i8, i8* %66, i64 -1
  br label %141

141:                                              ; preds = %149, %139
  %142 = phi i8* [ %140, %139 ], [ %144, %149 ]
  %143 = getelementptr inbounds i8, i8* %142, i64 1
  %144 = tail call i8* @_ZN6google8protobuf8internal12ParseContext12ParseMessageINS1_12MapFieldLiteIN13assist_ranker51ExamplePreprocessorConfig_BucketizersEntry_DoNotUseENSt3__112basic_stringIcNS7_11char_traitsIcEENS7_9allocatorIcEEEENS5_36ExamplePreprocessorConfig_BoundariesELNS1_14WireFormatLite9FieldTypeE9ELSG_11EEEEEPKcPT_SJ_(%"class.google::protobuf::internal::ParseContext"* %2, %"class.google::protobuf::internal::MapFieldLite"* %18, i8* %143)
  %145 = icmp eq i8* %144, null
  br i1 %145, label %274, label %146, !prof !2

146:                                              ; preds = %141
  %147 = load i8*, i8** %6, align 8
  %148 = icmp ugt i8* %147, %144
  br i1 %148, label %149, label %272

149:                                              ; preds = %146
  %150 = load i8, i8* %144, align 1
  %151 = icmp eq i8 %150, 18
  br i1 %151, label %141, label %272

152:                                              ; preds = %68
  %153 = and i32 %65, 255
  %154 = icmp eq i32 %153, 26
  br i1 %154, label %155, label %250, !prof !3

155:                                              ; preds = %152
  %156 = getelementptr inbounds i8, i8* %66, i64 -1
  br label %157

157:                                              ; preds = %165, %155
  %158 = phi i8* [ %156, %155 ], [ %160, %165 ]
  %159 = getelementptr inbounds i8, i8* %158, i64 1
  %160 = tail call i8* @_ZN6google8protobuf8internal12ParseContext12ParseMessageINS1_12MapFieldLiteIN13assist_ranker54ExamplePreprocessorConfig_FeatureIndicesEntry_DoNotUseENSt3__112basic_stringIcNS7_11char_traitsIcEENS7_9allocatorIcEEEEiLNS1_14WireFormatLite9FieldTypeE9ELSF_5EEEEEPKcPT_SI_(%"class.google::protobuf::internal::ParseContext"* %2, %"class.google::protobuf::internal::MapFieldLite.21"* %17, i8* %159)
  %161 = icmp eq i8* %160, null
  br i1 %161, label %274, label %162, !prof !2

162:                                              ; preds = %157
  %163 = load i8*, i8** %6, align 8
  %164 = icmp ugt i8* %163, %160
  br i1 %164, label %165, label %272

165:                                              ; preds = %162
  %166 = load i8, i8* %160, align 1
  %167 = icmp eq i8 %166, 26
  br i1 %167, label %157, label %272

168:                                              ; preds = %68
  %169 = and i32 %65, 255
  %170 = icmp eq i32 %169, 34
  br i1 %170, label %171, label %250, !prof !3

171:                                              ; preds = %168
  %172 = getelementptr inbounds i8, i8* %66, i64 -1
  br label %173

173:                                              ; preds = %181, %171
  %174 = phi i8* [ %172, %171 ], [ %176, %181 ]
  %175 = getelementptr inbounds i8, i8* %174, i64 1
  %176 = tail call i8* @_ZN6google8protobuf8internal12ParseContext12ParseMessageINS1_12MapFieldLiteIN13assist_ranker51ExamplePreprocessorConfig_NormalizersEntry_DoNotUseENSt3__112basic_stringIcNS7_11char_traitsIcEENS7_9allocatorIcEEEEfLNS1_14WireFormatLite9FieldTypeE9ELSF_2EEEEEPKcPT_SI_(%"class.google::protobuf::internal::ParseContext"* %2, %"class.google::protobuf::internal::MapFieldLite.23"* %16, i8* %175)
  %177 = icmp eq i8* %176, null
  br i1 %177, label %274, label %178, !prof !2

178:                                              ; preds = %173
  %179 = load i8*, i8** %6, align 8
  %180 = icmp ugt i8* %179, %176
  br i1 %180, label %181, label %272

181:                                              ; preds = %178
  %182 = load i8, i8* %176, align 1
  %183 = icmp eq i8 %182, 34
  br i1 %183, label %173, label %272

184:                                              ; preds = %68
  %185 = and i32 %65, 255
  %186 = icmp eq i32 %185, 42
  br i1 %186, label %187, label %250, !prof !3

187:                                              ; preds = %184
  %188 = getelementptr inbounds i8, i8* %66, i64 -1
  br label %189

189:                                              ; preds = %247, %187
  %190 = phi i8* [ %188, %187 ], [ %242, %247 ]
  %191 = getelementptr inbounds i8, i8* %190, i64 1
  %192 = load %"struct.google::protobuf::internal::RepeatedPtrFieldBase::Rep"*, %"struct.google::protobuf::internal::RepeatedPtrFieldBase::Rep"** %12, align 8
  %193 = icmp eq %"struct.google::protobuf::internal::RepeatedPtrFieldBase::Rep"* %192, null
  br i1 %193, label %194, label %196

194:                                              ; preds = %189
  %195 = load i32, i32* %14, align 4
  br label %209

196:                                              ; preds = %189
  %197 = load i32, i32* %13, align 8
  %198 = getelementptr inbounds %"struct.google::protobuf::internal::RepeatedPtrFieldBase::Rep", %"struct.google::protobuf::internal::RepeatedPtrFieldBase::Rep"* %192, i64 0, i32 0
  %199 = load i32, i32* %198, align 8
  %200 = icmp slt i32 %197, %199
  br i1 %200, label %201, label %206

201:                                              ; preds = %196
  %202 = add nsw i32 %197, 1
  store i32 %202, i32* %13, align 8
  %203 = sext i32 %197 to i64
  %204 = getelementptr inbounds %"struct.google::protobuf::internal::RepeatedPtrFieldBase::Rep", %"struct.google::protobuf::internal::RepeatedPtrFieldBase::Rep"* %192, i64 0, i32 1, i64 %203
  %205 = load i8*, i8** %204, align 8
  br label %239

206:                                              ; preds = %196
  %207 = load i32, i32* %14, align 4
  %208 = icmp eq i32 %199, %207
  br i1 %208, label %209, label %215

209:                                              ; preds = %206, %194
  %210 = phi i32 [ %195, %194 ], [ %199, %206 ]
  %211 = add nsw i32 %210, 1
  tail call void @_ZN6google8protobuf8internal20RepeatedPtrFieldBase7ReserveEi(%"class.google::protobuf::internal::RepeatedPtrFieldBase"* %11, i32 %211) #15
  %212 = load %"struct.google::protobuf::internal::RepeatedPtrFieldBase::Rep"*, %"struct.google::protobuf::internal::RepeatedPtrFieldBase::Rep"** %12, align 8
  %213 = getelementptr inbounds %"struct.google::protobuf::internal::RepeatedPtrFieldBase::Rep", %"struct.google::protobuf::internal::RepeatedPtrFieldBase::Rep"* %212, i64 0, i32 0
  %214 = load i32, i32* %213, align 8
  br label %215

215:                                              ; preds = %209, %206
  %216 = phi i32 [ %214, %209 ], [ %199, %206 ]
  %217 = phi %"struct.google::protobuf::internal::RepeatedPtrFieldBase::Rep"* [ %212, %209 ], [ %192, %206 ]
  %218 = getelementptr inbounds %"struct.google::protobuf::internal::RepeatedPtrFieldBase::Rep", %"struct.google::protobuf::internal::RepeatedPtrFieldBase::Rep"* %217, i64 0, i32 0
  %219 = add nsw i32 %216, 1
  store i32 %219, i32* %218, align 8
  %220 = load %"class.google::protobuf::Arena"*, %"class.google::protobuf::Arena"** %15, align 8
  %221 = icmp eq %"class.google::protobuf::Arena"* %220, null
  br i1 %221, label %222, label %224

222:                                              ; preds = %215
  %223 = tail call i8* @_Znwm(i64 24) #16
  tail call void @llvm.memset.p0i8.i64(i8* nonnull align 8 %223, i8 0, i64 24, i1 false) #15
  br label %232

224:                                              ; preds = %215
  %225 = getelementptr inbounds %"class.google::protobuf::Arena", %"class.google::protobuf::Arena"* %220, i64 0, i32 4
  %226 = load i8*, i8** %225, align 8
  %227 = icmp eq i8* %226, null
  br i1 %227, label %229, label %228, !prof !3

228:                                              ; preds = %224
  tail call void @_ZNK6google8protobuf5Arena17OnArenaAllocationEPKSt9type_infom(%"class.google::protobuf::Arena"* nonnull %220, %"class.std::type_info"* null, i64 24) #15
  br label %229

229:                                              ; preds = %228, %224
  %230 = getelementptr inbounds %"class.google::protobuf::Arena", %"class.google::protobuf::Arena"* %220, i64 0, i32 0
  %231 = tail call i8* @_ZN6google8protobuf8internal9ArenaImpl28AllocateAlignedAndAddCleanupEmPFvPvE(%"class.google::protobuf::internal::ArenaImpl"* %230, i64 24, void (i8*)* nonnull @_ZN6google8protobuf8internal21arena_destruct_objectINSt3__112basic_stringIcNS3_11char_traitsIcEENS3_9allocatorIcEEEEEEvPv) #15
  tail call void @llvm.memset.p0i8.i64(i8* align 8 %231, i8 0, i64 24, i1 false) #15
  br label %232

232:                                              ; preds = %229, %222
  %233 = phi i8* [ %223, %222 ], [ %231, %229 ]
  %234 = load %"struct.google::protobuf::internal::RepeatedPtrFieldBase::Rep"*, %"struct.google::protobuf::internal::RepeatedPtrFieldBase::Rep"** %12, align 8
  %235 = load i32, i32* %13, align 8
  %236 = add nsw i32 %235, 1
  store i32 %236, i32* %13, align 8
  %237 = sext i32 %235 to i64
  %238 = getelementptr inbounds %"struct.google::protobuf::internal::RepeatedPtrFieldBase::Rep", %"struct.google::protobuf::internal::RepeatedPtrFieldBase::Rep"* %234, i64 0, i32 1, i64 %237
  store i8* %233, i8** %238, align 8
  br label %239

239:                                              ; preds = %201, %232
  %240 = phi i8* [ %205, %201 ], [ %233, %232 ]
  %241 = bitcast i8* %240 to %"class.std::__1::basic_string"*
  %242 = tail call i8* @_ZN6google8protobuf8internal24InlineGreedyStringParserEPNSt3__112basic_stringIcNS2_11char_traitsIcEENS2_9allocatorIcEEEEPKcPNS1_12ParseContextE(%"class.std::__1::basic_string"* %241, i8* %191, %"class.google::protobuf::internal::ParseContext"* %2) #15
  %243 = icmp eq i8* %242, null
  br i1 %243, label %274, label %244, !prof !2

244:                                              ; preds = %239
  %245 = load i8*, i8** %6, align 8
  %246 = icmp ugt i8* %245, %242
  br i1 %246, label %247, label %272

247:                                              ; preds = %244
  %248 = load i8, i8* %242, align 1
  %249 = icmp eq i8 %248, 42
  br i1 %249, label %189, label %272

250:                                              ; preds = %68, %184, %168, %152, %136, %70
  %251 = and i32 %65, 7
  %252 = icmp eq i32 %251, 4
  %253 = icmp eq i32 %65, 0
  %254 = or i1 %253, %252
  br i1 %254, label %255, label %258

255:                                              ; preds = %250
  %256 = add i32 %65, -1
  %257 = getelementptr inbounds %"class.google::protobuf::internal::ParseContext", %"class.google::protobuf::internal::ParseContext"* %2, i64 0, i32 0, i32 8
  store i32 %256, i32* %257, align 8
  br label %274

258:                                              ; preds = %250
  %259 = load i64, i64* %26, align 8
  %260 = and i64 %259, 1
  %261 = icmp eq i64 %260, 0
  br i1 %261, label %266, label %262, !prof !2

262:                                              ; preds = %258
  %263 = and i64 %259, -2
  %264 = inttoptr i64 %263 to %"struct.google::protobuf::internal::InternalMetadata::Container"*
  %265 = getelementptr inbounds %"struct.google::protobuf::internal::InternalMetadata::Container", %"struct.google::protobuf::internal::InternalMetadata::Container"* %264, i64 0, i32 1
  br label %268

266:                                              ; preds = %258
  %267 = tail call %"class.std::__1::basic_string"* @_ZN6google8protobuf8internal16InternalMetadata27mutable_unknown_fields_slowINSt3__112basic_stringIcNS4_11char_traitsIcEENS4_9allocatorIcEEEEEEPT_v(%"class.google::protobuf::internal::InternalMetadata"* %25) #15
  br label %268

268:                                              ; preds = %262, %266
  %269 = phi %"class.std::__1::basic_string"* [ %265, %262 ], [ %267, %266 ]
  %270 = tail call i8* @_ZN6google8protobuf8internal17UnknownFieldParseEjPNSt3__112basic_stringIcNS2_11char_traitsIcEENS2_9allocatorIcEEEEPKcPNS1_12ParseContextE(i32 %65, %"class.std::__1::basic_string"* %269, i8* nonnull %66, %"class.google::protobuf::internal::ParseContext"* %2) #15
  %271 = icmp eq i8* %270, null
  br i1 %271, label %274, label %272

272:                                              ; preds = %244, %247, %181, %178, %165, %162, %149, %146, %130, %133, %268
  %273 = phi i8* [ %270, %268 ], [ %128, %133 ], [ %128, %130 ], [ %144, %146 ], [ %144, %149 ], [ %160, %162 ], [ %160, %165 ], [ %176, %178 ], [ %176, %181 ], [ %242, %247 ], [ %242, %244 ]
  br label %27

274:                                              ; preds = %39, %268, %32, %64, %239, %173, %157, %141, %125, %255
  %275 = phi i8* [ %66, %255 ], [ null, %125 ], [ null, %141 ], [ null, %157 ], [ null, %173 ], [ null, %239 ], [ null, %268 ], [ %28, %32 ], [ null, %64 ], [ %41, %39 ]
  ret i8* %275
}

declare i8* @_ZN6google8protobuf8internal24InlineGreedyStringParserEPNSt3__112basic_stringIcNS2_11char_traitsIcEENS2_9allocatorIcEEEEPKcPNS1_12ParseContextE(%"class.std::__1::basic_string"*, i8*, %"class.google::protobuf::internal::ParseContext"*) local_unnamed_addr #7

; Function Attrs: nounwind ssp uwtable
define linkonce_odr hidden i8* @_ZN6google8protobuf8internal12ParseContext12ParseMessageINS1_12MapFieldLiteIN13assist_ranker51ExamplePreprocessorConfig_BucketizersEntry_DoNotUseENSt3__112basic_stringIcNS7_11char_traitsIcEENS7_9allocatorIcEEEENS5_36ExamplePreprocessorConfig_BoundariesELNS1_14WireFormatLite9FieldTypeE9ELSG_11EEEEEPKcPT_SJ_(%"class.google::protobuf::internal::ParseContext"*, %"class.google::protobuf::internal::MapFieldLite"*, i8*) local_unnamed_addr #0 comdat align 2 {
  %4 = alloca %"class.google::protobuf::internal::MapEntryImpl<assist_ranker::ExamplePreprocessorConfig_BucketizersEntry_DoNotUse, google::protobuf::MessageLite, std::__1::basic_string<char, std::__1::char_traits<char>, std::__1::allocator<char> >, assist_ranker::ExamplePreprocessorConfig_Boundaries, google::protobuf::internal::WireFormatLite::TYPE_STRING, google::protobuf::internal::WireFormatLite::TYPE_MESSAGE>::Parser", align 8
  %5 = load i8, i8* %2, align 1
  %6 = zext i8 %5 to i32
  %7 = icmp sgt i8 %5, -1
  br i1 %7, label %8, label %10

8:                                                ; preds = %3
  %9 = getelementptr inbounds i8, i8* %2, i64 1
  br label %14

10:                                               ; preds = %3
  %11 = tail call { i8*, i32 } @_ZN6google8protobuf8internal16ReadSizeFallbackEPKcj(i8* %2, i32 %6) #15
  %12 = extractvalue { i8*, i32 } %11, 0
  %13 = extractvalue { i8*, i32 } %11, 1
  br label %14

14:                                               ; preds = %8, %10
  %15 = phi i8* [ %12, %10 ], [ %9, %8 ]
  %16 = phi i32 [ %13, %10 ], [ %6, %8 ]
  %17 = icmp eq i8* %15, null
  br i1 %17, label %97, label %18

18:                                               ; preds = %14
  %19 = getelementptr inbounds %"class.google::protobuf::internal::ParseContext", %"class.google::protobuf::internal::ParseContext"* %0, i64 0, i32 0, i32 1
  %20 = bitcast i8** %19 to i64*
  %21 = load i64, i64* %20, align 8
  %22 = ptrtoint i8* %15 to i64
  %23 = sub i64 %22, %21
  %24 = trunc i64 %23 to i32
  %25 = add nsw i32 %16, %24
  %26 = inttoptr i64 %21 to i8*
  %27 = icmp slt i32 %25, 0
  %28 = select i1 %27, i32 %25, i32 0
  %29 = sext i32 %28 to i64
  %30 = getelementptr inbounds i8, i8* %26, i64 %29
  %31 = getelementptr inbounds %"class.google::protobuf::internal::ParseContext", %"class.google::protobuf::internal::ParseContext"* %0, i64 0, i32 0, i32 0
  store i8* %30, i8** %31, align 8
  %32 = getelementptr inbounds %"class.google::protobuf::internal::ParseContext", %"class.google::protobuf::internal::ParseContext"* %0, i64 0, i32 0, i32 4
  %33 = load i32, i32* %32, align 4
  store i32 %25, i32* %32, align 4
  %34 = sub nsw i32 %33, %25
  %35 = getelementptr inbounds %"class.google::protobuf::internal::ParseContext", %"class.google::protobuf::internal::ParseContext"* %0, i64 0, i32 1
  %36 = load i32, i32* %35, align 8
  %37 = add nsw i32 %36, -1
  store i32 %37, i32* %35, align 8
  %38 = icmp slt i32 %36, 1
  br i1 %38, label %97, label %39

39:                                               ; preds = %18
  %40 = bitcast %"class.google::protobuf::internal::MapEntryImpl<assist_ranker::ExamplePreprocessorConfig_BucketizersEntry_DoNotUse, google::protobuf::MessageLite, std::__1::basic_string<char, std::__1::char_traits<char>, std::__1::allocator<char> >, assist_ranker::ExamplePreprocessorConfig_Boundaries, google::protobuf::internal::WireFormatLite::TYPE_STRING, google::protobuf::internal::WireFormatLite::TYPE_MESSAGE>::Parser"* %4 to i8*
  call void @llvm.lifetime.start.p0i8(i64 56, i8* nonnull %40) #15
  %41 = getelementptr inbounds %"class.google::protobuf::internal::MapEntryImpl<assist_ranker::ExamplePreprocessorConfig_BucketizersEntry_DoNotUse, google::protobuf::MessageLite, std::__1::basic_string<char, std::__1::char_traits<char>, std::__1::allocator<char> >, assist_ranker::ExamplePreprocessorConfig_Boundaries, google::protobuf::internal::WireFormatLite::TYPE_STRING, google::protobuf::internal::WireFormatLite::TYPE_MESSAGE>::Parser", %"class.google::protobuf::internal::MapEntryImpl<assist_ranker::ExamplePreprocessorConfig_BucketizersEntry_DoNotUse, google::protobuf::MessageLite, std::__1::basic_string<char, std::__1::char_traits<char>, std::__1::allocator<char> >, assist_ranker::ExamplePreprocessorConfig_Boundaries, google::protobuf::internal::WireFormatLite::TYPE_STRING, google::protobuf::internal::WireFormatLite::TYPE_MESSAGE>::Parser"* %4, i64 0, i32 3
  %42 = bitcast %"class.assist_ranker::ExamplePreprocessorConfig_Boundaries"** %41 to i64*
  store i64 -6148914691236517206, i64* %42, align 8
  %43 = getelementptr inbounds %"class.google::protobuf::internal::MapEntryImpl<assist_ranker::ExamplePreprocessorConfig_BucketizersEntry_DoNotUse, google::protobuf::MessageLite, std::__1::basic_string<char, std::__1::char_traits<char>, std::__1::allocator<char> >, assist_ranker::ExamplePreprocessorConfig_Boundaries, google::protobuf::internal::WireFormatLite::TYPE_STRING, google::protobuf::internal::WireFormatLite::TYPE_MESSAGE>::Parser", %"class.google::protobuf::internal::MapEntryImpl<assist_ranker::ExamplePreprocessorConfig_BucketizersEntry_DoNotUse, google::protobuf::MessageLite, std::__1::basic_string<char, std::__1::char_traits<char>, std::__1::allocator<char> >, assist_ranker::ExamplePreprocessorConfig_Boundaries, google::protobuf::internal::WireFormatLite::TYPE_STRING, google::protobuf::internal::WireFormatLite::TYPE_MESSAGE>::Parser"* %4, i64 0, i32 0
  store %"class.google::protobuf::internal::MapFieldLite"* %1, %"class.google::protobuf::internal::MapFieldLite"** %43, align 8
  %44 = getelementptr inbounds %"class.google::protobuf::internal::MapEntryImpl<assist_ranker::ExamplePreprocessorConfig_BucketizersEntry_DoNotUse, google::protobuf::MessageLite, std::__1::basic_string<char, std::__1::char_traits<char>, std::__1::allocator<char> >, assist_ranker::ExamplePreprocessorConfig_Boundaries, google::protobuf::internal::WireFormatLite::TYPE_STRING, google::protobuf::internal::WireFormatLite::TYPE_MESSAGE>::Parser", %"class.google::protobuf::internal::MapEntryImpl<assist_ranker::ExamplePreprocessorConfig_BucketizersEntry_DoNotUse, google::protobuf::MessageLite, std::__1::basic_string<char, std::__1::char_traits<char>, std::__1::allocator<char> >, assist_ranker::ExamplePreprocessorConfig_Boundaries, google::protobuf::internal::WireFormatLite::TYPE_STRING, google::protobuf::internal::WireFormatLite::TYPE_MESSAGE>::Parser"* %4, i64 0, i32 1
  %45 = getelementptr inbounds %"class.google::protobuf::internal::MapFieldLite", %"class.google::protobuf::internal::MapFieldLite"* %1, i64 0, i32 0
  store %"class.google::protobuf::Map"* %45, %"class.google::protobuf::Map"** %44, align 8
  %46 = getelementptr inbounds %"class.google::protobuf::internal::MapEntryImpl<assist_ranker::ExamplePreprocessorConfig_BucketizersEntry_DoNotUse, google::protobuf::MessageLite, std::__1::basic_string<char, std::__1::char_traits<char>, std::__1::allocator<char> >, assist_ranker::ExamplePreprocessorConfig_Boundaries, google::protobuf::internal::WireFormatLite::TYPE_STRING, google::protobuf::internal::WireFormatLite::TYPE_MESSAGE>::Parser", %"class.google::protobuf::internal::MapEntryImpl<assist_ranker::ExamplePreprocessorConfig_BucketizersEntry_DoNotUse, google::protobuf::MessageLite, std::__1::basic_string<char, std::__1::char_traits<char>, std::__1::allocator<char> >, assist_ranker::ExamplePreprocessorConfig_Boundaries, google::protobuf::internal::WireFormatLite::TYPE_STRING, google::protobuf::internal::WireFormatLite::TYPE_MESSAGE>::Parser"* %4, i64 0, i32 2
  %47 = bitcast %"class.std::__1::basic_string"* %46 to i8*
  call void @llvm.memset.p0i8.i64(i8* align 8 %47, i8 0, i64 24, i1 false) #15
  %48 = getelementptr inbounds %"class.google::protobuf::internal::MapEntryImpl<assist_ranker::ExamplePreprocessorConfig_BucketizersEntry_DoNotUse, google::protobuf::MessageLite, std::__1::basic_string<char, std::__1::char_traits<char>, std::__1::allocator<char> >, assist_ranker::ExamplePreprocessorConfig_Boundaries, google::protobuf::internal::WireFormatLite::TYPE_STRING, google::protobuf::internal::WireFormatLite::TYPE_MESSAGE>::Parser", %"class.google::protobuf::internal::MapEntryImpl<assist_ranker::ExamplePreprocessorConfig_BucketizersEntry_DoNotUse, google::protobuf::MessageLite, std::__1::basic_string<char, std::__1::char_traits<char>, std::__1::allocator<char> >, assist_ranker::ExamplePreprocessorConfig_Boundaries, google::protobuf::internal::WireFormatLite::TYPE_STRING, google::protobuf::internal::WireFormatLite::TYPE_MESSAGE>::Parser"* %4, i64 0, i32 4
  store %"class.google::protobuf::internal::MapEntryImpl"* null, %"class.google::protobuf::internal::MapEntryImpl"** %48, align 8
  %49 = call i8* @_ZN6google8protobuf8internal12MapEntryImplIN13assist_ranker51ExamplePreprocessorConfig_BucketizersEntry_DoNotUseENS0_11MessageLiteENSt3__112basic_stringIcNS6_11char_traitsIcEENS6_9allocatorIcEEEENS3_36ExamplePreprocessorConfig_BoundariesELNS1_14WireFormatLite9FieldTypeE9ELSF_11EE6ParserINS1_12MapFieldLiteIS4_SC_SD_LSF_9ELSF_11EEENS0_3MapISC_SD_EEE14_InternalParseEPKcPNS1_12ParseContextE(%"class.google::protobuf::internal::MapEntryImpl<assist_ranker::ExamplePreprocessorConfig_BucketizersEntry_DoNotUse, google::protobuf::MessageLite, std::__1::basic_string<char, std::__1::char_traits<char>, std::__1::allocator<char> >, assist_ranker::ExamplePreprocessorConfig_Boundaries, google::protobuf::internal::WireFormatLite::TYPE_STRING, google::protobuf::internal::WireFormatLite::TYPE_MESSAGE>::Parser"* nonnull %4, i8* nonnull %15, %"class.google::protobuf::internal::ParseContext"* %0) #15
  %50 = load %"class.google::protobuf::internal::MapEntryImpl"*, %"class.google::protobuf::internal::MapEntryImpl"** %48, align 8
  %51 = icmp eq %"class.google::protobuf::internal::MapEntryImpl"* %50, null
  br i1 %51, label %73, label %52

52:                                               ; preds = %39
  %53 = getelementptr inbounds %"class.google::protobuf::internal::MapEntryImpl", %"class.google::protobuf::internal::MapEntryImpl"* %50, i64 0, i32 0, i32 1
  %54 = bitcast %"class.google::protobuf::internal::InternalMetadata"* %53 to i64*
  %55 = load i64, i64* %54, align 8
  %56 = and i64 %55, 1
  %57 = icmp eq i64 %56, 0
  %58 = and i64 %55, -2
  br i1 %57, label %63, label %59, !prof !3

59:                                               ; preds = %52
  %60 = inttoptr i64 %58 to %"struct.google::protobuf::internal::InternalMetadata::ContainerBase"*
  %61 = getelementptr inbounds %"struct.google::protobuf::internal::InternalMetadata::ContainerBase", %"struct.google::protobuf::internal::InternalMetadata::ContainerBase"* %60, i64 0, i32 0
  %62 = load %"class.google::protobuf::Arena"*, %"class.google::protobuf::Arena"** %61, align 8
  br label %65

63:                                               ; preds = %52
  %64 = inttoptr i64 %58 to %"class.google::protobuf::Arena"*
  br label %65

65:                                               ; preds = %63, %59
  %66 = phi %"class.google::protobuf::Arena"* [ %62, %59 ], [ %64, %63 ]
  %67 = icmp eq %"class.google::protobuf::Arena"* %66, null
  br i1 %67, label %68, label %73

68:                                               ; preds = %65
  %69 = bitcast %"class.google::protobuf::internal::MapEntryImpl"* %50 to void (%"class.google::protobuf::internal::MapEntryImpl"*)***
  %70 = load void (%"class.google::protobuf::internal::MapEntryImpl"*)**, void (%"class.google::protobuf::internal::MapEntryImpl"*)*** %69, align 8
  %71 = getelementptr inbounds void (%"class.google::protobuf::internal::MapEntryImpl"*)*, void (%"class.google::protobuf::internal::MapEntryImpl"*)** %70, i64 1
  %72 = load void (%"class.google::protobuf::internal::MapEntryImpl"*)*, void (%"class.google::protobuf::internal::MapEntryImpl"*)** %71, align 8
  call void %72(%"class.google::protobuf::internal::MapEntryImpl"* nonnull %50) #15
  br label %73

73:                                               ; preds = %68, %65, %39
  %74 = bitcast %"class.std::__1::basic_string"* %46 to %"struct.std::__1::basic_string<char, std::__1::char_traits<char>, std::__1::allocator<char> >::__short"*
  %75 = getelementptr inbounds %"struct.std::__1::basic_string<char, std::__1::char_traits<char>, std::__1::allocator<char> >::__short", %"struct.std::__1::basic_string<char, std::__1::char_traits<char>, std::__1::allocator<char> >::__short"* %74, i64 0, i32 1, i32 0
  %76 = load i8, i8* %75, align 1
  %77 = icmp slt i8 %76, 0
  br i1 %77, label %78, label %81

78:                                               ; preds = %73
  %79 = getelementptr inbounds %"class.std::__1::basic_string", %"class.std::__1::basic_string"* %46, i64 0, i32 0, i32 0, i32 0, i32 0, i32 0, i32 0
  %80 = load i8*, i8** %79, align 8
  call void @_ZdlPv(i8* %80) #16
  br label %81

81:                                               ; preds = %73, %78
  call void @llvm.lifetime.end.p0i8(i64 56, i8* nonnull %40) #15
  %82 = icmp eq i8* %49, null
  br i1 %82, label %97, label %83, !prof !2

83:                                               ; preds = %81
  %84 = load i32, i32* %35, align 8
  %85 = add nsw i32 %84, 1
  store i32 %85, i32* %35, align 8
  %86 = getelementptr inbounds %"class.google::protobuf::internal::ParseContext", %"class.google::protobuf::internal::ParseContext"* %0, i64 0, i32 0, i32 8
  %87 = load i32, i32* %86, align 8
  %88 = icmp eq i32 %87, 0
  br i1 %88, label %89, label %97, !prof !3

89:                                               ; preds = %83
  %90 = load i32, i32* %32, align 4
  %91 = add nsw i32 %90, %34
  store i32 %91, i32* %32, align 4
  %92 = load i8*, i8** %19, align 8
  %93 = icmp slt i32 %91, 0
  %94 = select i1 %93, i32 %91, i32 0
  %95 = sext i32 %94 to i64
  %96 = getelementptr inbounds i8, i8* %92, i64 %95
  store i8* %96, i8** %31, align 8
  br label %97

97:                                               ; preds = %14, %81, %18, %83, %89
  %98 = phi i8* [ %49, %89 ], [ null, %83 ], [ null, %18 ], [ null, %81 ], [ null, %14 ]
  ret i8* %98
}

; Function Attrs: nounwind ssp uwtable
define linkonce_odr hidden i8* @_ZN6google8protobuf8internal12ParseContext12ParseMessageINS1_12MapFieldLiteIN13assist_ranker54ExamplePreprocessorConfig_FeatureIndicesEntry_DoNotUseENSt3__112basic_stringIcNS7_11char_traitsIcEENS7_9allocatorIcEEEEiLNS1_14WireFormatLite9FieldTypeE9ELSF_5EEEEEPKcPT_SI_(%"class.google::protobuf::internal::ParseContext"*, %"class.google::protobuf::internal::MapFieldLite.21"*, i8*) local_unnamed_addr #0 comdat align 2 {
  %4 = alloca %"class.google::protobuf::internal::MapEntryImpl<assist_ranker::ExamplePreprocessorConfig_FeatureIndicesEntry_DoNotUse, google::protobuf::MessageLite, std::__1::basic_string<char, std::__1::char_traits<char>, std::__1::allocator<char> >, int, google::protobuf::internal::WireFormatLite::TYPE_STRING, google::protobuf::internal::WireFormatLite::TYPE_INT32>::Parser", align 8
  %5 = load i8, i8* %2, align 1
  %6 = zext i8 %5 to i32
  %7 = icmp sgt i8 %5, -1
  br i1 %7, label %8, label %10

8:                                                ; preds = %3
  %9 = getelementptr inbounds i8, i8* %2, i64 1
  br label %14

10:                                               ; preds = %3
  %11 = tail call { i8*, i32 } @_ZN6google8protobuf8internal16ReadSizeFallbackEPKcj(i8* %2, i32 %6) #15
  %12 = extractvalue { i8*, i32 } %11, 0
  %13 = extractvalue { i8*, i32 } %11, 1
  br label %14

14:                                               ; preds = %8, %10
  %15 = phi i8* [ %12, %10 ], [ %9, %8 ]
  %16 = phi i32 [ %13, %10 ], [ %6, %8 ]
  %17 = icmp eq i8* %15, null
  br i1 %17, label %97, label %18

18:                                               ; preds = %14
  %19 = getelementptr inbounds %"class.google::protobuf::internal::ParseContext", %"class.google::protobuf::internal::ParseContext"* %0, i64 0, i32 0, i32 1
  %20 = bitcast i8** %19 to i64*
  %21 = load i64, i64* %20, align 8
  %22 = ptrtoint i8* %15 to i64
  %23 = sub i64 %22, %21
  %24 = trunc i64 %23 to i32
  %25 = add nsw i32 %16, %24
  %26 = inttoptr i64 %21 to i8*
  %27 = icmp slt i32 %25, 0
  %28 = select i1 %27, i32 %25, i32 0
  %29 = sext i32 %28 to i64
  %30 = getelementptr inbounds i8, i8* %26, i64 %29
  %31 = getelementptr inbounds %"class.google::protobuf::internal::ParseContext", %"class.google::protobuf::internal::ParseContext"* %0, i64 0, i32 0, i32 0
  store i8* %30, i8** %31, align 8
  %32 = getelementptr inbounds %"class.google::protobuf::internal::ParseContext", %"class.google::protobuf::internal::ParseContext"* %0, i64 0, i32 0, i32 4
  %33 = load i32, i32* %32, align 4
  store i32 %25, i32* %32, align 4
  %34 = sub nsw i32 %33, %25
  %35 = getelementptr inbounds %"class.google::protobuf::internal::ParseContext", %"class.google::protobuf::internal::ParseContext"* %0, i64 0, i32 1
  %36 = load i32, i32* %35, align 8
  %37 = add nsw i32 %36, -1
  store i32 %37, i32* %35, align 8
  %38 = icmp slt i32 %36, 1
  br i1 %38, label %97, label %39

39:                                               ; preds = %18
  %40 = bitcast %"class.google::protobuf::internal::MapEntryImpl<assist_ranker::ExamplePreprocessorConfig_FeatureIndicesEntry_DoNotUse, google::protobuf::MessageLite, std::__1::basic_string<char, std::__1::char_traits<char>, std::__1::allocator<char> >, int, google::protobuf::internal::WireFormatLite::TYPE_STRING, google::protobuf::internal::WireFormatLite::TYPE_INT32>::Parser"* %4 to i8*
  call void @llvm.lifetime.start.p0i8(i64 56, i8* nonnull %40) #15
  %41 = getelementptr inbounds %"class.google::protobuf::internal::MapEntryImpl<assist_ranker::ExamplePreprocessorConfig_FeatureIndicesEntry_DoNotUse, google::protobuf::MessageLite, std::__1::basic_string<char, std::__1::char_traits<char>, std::__1::allocator<char> >, int, google::protobuf::internal::WireFormatLite::TYPE_STRING, google::protobuf::internal::WireFormatLite::TYPE_INT32>::Parser", %"class.google::protobuf::internal::MapEntryImpl<assist_ranker::ExamplePreprocessorConfig_FeatureIndicesEntry_DoNotUse, google::protobuf::MessageLite, std::__1::basic_string<char, std::__1::char_traits<char>, std::__1::allocator<char> >, int, google::protobuf::internal::WireFormatLite::TYPE_STRING, google::protobuf::internal::WireFormatLite::TYPE_INT32>::Parser"* %4, i64 0, i32 3
  %42 = bitcast i32** %41 to i64*
  store i64 -6148914691236517206, i64* %42, align 8
  %43 = getelementptr inbounds %"class.google::protobuf::internal::MapEntryImpl<assist_ranker::ExamplePreprocessorConfig_FeatureIndicesEntry_DoNotUse, google::protobuf::MessageLite, std::__1::basic_string<char, std::__1::char_traits<char>, std::__1::allocator<char> >, int, google::protobuf::internal::WireFormatLite::TYPE_STRING, google::protobuf::internal::WireFormatLite::TYPE_INT32>::Parser", %"class.google::protobuf::internal::MapEntryImpl<assist_ranker::ExamplePreprocessorConfig_FeatureIndicesEntry_DoNotUse, google::protobuf::MessageLite, std::__1::basic_string<char, std::__1::char_traits<char>, std::__1::allocator<char> >, int, google::protobuf::internal::WireFormatLite::TYPE_STRING, google::protobuf::internal::WireFormatLite::TYPE_INT32>::Parser"* %4, i64 0, i32 0
  store %"class.google::protobuf::internal::MapFieldLite.21"* %1, %"class.google::protobuf::internal::MapFieldLite.21"** %43, align 8
  %44 = getelementptr inbounds %"class.google::protobuf::internal::MapEntryImpl<assist_ranker::ExamplePreprocessorConfig_FeatureIndicesEntry_DoNotUse, google::protobuf::MessageLite, std::__1::basic_string<char, std::__1::char_traits<char>, std::__1::allocator<char> >, int, google::protobuf::internal::WireFormatLite::TYPE_STRING, google::protobuf::internal::WireFormatLite::TYPE_INT32>::Parser", %"class.google::protobuf::internal::MapEntryImpl<assist_ranker::ExamplePreprocessorConfig_FeatureIndicesEntry_DoNotUse, google::protobuf::MessageLite, std::__1::basic_string<char, std::__1::char_traits<char>, std::__1::allocator<char> >, int, google::protobuf::internal::WireFormatLite::TYPE_STRING, google::protobuf::internal::WireFormatLite::TYPE_INT32>::Parser"* %4, i64 0, i32 1
  %45 = getelementptr inbounds %"class.google::protobuf::internal::MapFieldLite.21", %"class.google::protobuf::internal::MapFieldLite.21"* %1, i64 0, i32 0
  store %"class.google::protobuf::Map.22"* %45, %"class.google::protobuf::Map.22"** %44, align 8
  %46 = getelementptr inbounds %"class.google::protobuf::internal::MapEntryImpl<assist_ranker::ExamplePreprocessorConfig_FeatureIndicesEntry_DoNotUse, google::protobuf::MessageLite, std::__1::basic_string<char, std::__1::char_traits<char>, std::__1::allocator<char> >, int, google::protobuf::internal::WireFormatLite::TYPE_STRING, google::protobuf::internal::WireFormatLite::TYPE_INT32>::Parser", %"class.google::protobuf::internal::MapEntryImpl<assist_ranker::ExamplePreprocessorConfig_FeatureIndicesEntry_DoNotUse, google::protobuf::MessageLite, std::__1::basic_string<char, std::__1::char_traits<char>, std::__1::allocator<char> >, int, google::protobuf::internal::WireFormatLite::TYPE_STRING, google::protobuf::internal::WireFormatLite::TYPE_INT32>::Parser"* %4, i64 0, i32 2
  %47 = bitcast %"class.std::__1::basic_string"* %46 to i8*
  call void @llvm.memset.p0i8.i64(i8* align 8 %47, i8 0, i64 24, i1 false) #15
  %48 = getelementptr inbounds %"class.google::protobuf::internal::MapEntryImpl<assist_ranker::ExamplePreprocessorConfig_FeatureIndicesEntry_DoNotUse, google::protobuf::MessageLite, std::__1::basic_string<char, std::__1::char_traits<char>, std::__1::allocator<char> >, int, google::protobuf::internal::WireFormatLite::TYPE_STRING, google::protobuf::internal::WireFormatLite::TYPE_INT32>::Parser", %"class.google::protobuf::internal::MapEntryImpl<assist_ranker::ExamplePreprocessorConfig_FeatureIndicesEntry_DoNotUse, google::protobuf::MessageLite, std::__1::basic_string<char, std::__1::char_traits<char>, std::__1::allocator<char> >, int, google::protobuf::internal::WireFormatLite::TYPE_STRING, google::protobuf::internal::WireFormatLite::TYPE_INT32>::Parser"* %4, i64 0, i32 4
  store %"class.google::protobuf::internal::MapEntryImpl.18"* null, %"class.google::protobuf::internal::MapEntryImpl.18"** %48, align 8
  %49 = call i8* @_ZN6google8protobuf8internal12MapEntryImplIN13assist_ranker54ExamplePreprocessorConfig_FeatureIndicesEntry_DoNotUseENS0_11MessageLiteENSt3__112basic_stringIcNS6_11char_traitsIcEENS6_9allocatorIcEEEEiLNS1_14WireFormatLite9FieldTypeE9ELSE_5EE6ParserINS1_12MapFieldLiteIS4_SC_iLSE_9ELSE_5EEENS0_3MapISC_iEEE14_InternalParseEPKcPNS1_12ParseContextE(%"class.google::protobuf::internal::MapEntryImpl<assist_ranker::ExamplePreprocessorConfig_FeatureIndicesEntry_DoNotUse, google::protobuf::MessageLite, std::__1::basic_string<char, std::__1::char_traits<char>, std::__1::allocator<char> >, int, google::protobuf::internal::WireFormatLite::TYPE_STRING, google::protobuf::internal::WireFormatLite::TYPE_INT32>::Parser"* nonnull %4, i8* nonnull %15, %"class.google::protobuf::internal::ParseContext"* %0) #15
  %50 = load %"class.google::protobuf::internal::MapEntryImpl.18"*, %"class.google::protobuf::internal::MapEntryImpl.18"** %48, align 8
  %51 = icmp eq %"class.google::protobuf::internal::MapEntryImpl.18"* %50, null
  br i1 %51, label %73, label %52

52:                                               ; preds = %39
  %53 = getelementptr inbounds %"class.google::protobuf::internal::MapEntryImpl.18", %"class.google::protobuf::internal::MapEntryImpl.18"* %50, i64 0, i32 0, i32 1
  %54 = bitcast %"class.google::protobuf::internal::InternalMetadata"* %53 to i64*
  %55 = load i64, i64* %54, align 8
  %56 = and i64 %55, 1
  %57 = icmp eq i64 %56, 0
  %58 = and i64 %55, -2
  br i1 %57, label %63, label %59, !prof !3

59:                                               ; preds = %52
  %60 = inttoptr i64 %58 to %"struct.google::protobuf::internal::InternalMetadata::ContainerBase"*
  %61 = getelementptr inbounds %"struct.google::protobuf::internal::InternalMetadata::ContainerBase", %"struct.google::protobuf::internal::InternalMetadata::ContainerBase"* %60, i64 0, i32 0
  %62 = load %"class.google::protobuf::Arena"*, %"class.google::protobuf::Arena"** %61, align 8
  br label %65

63:                                               ; preds = %52
  %64 = inttoptr i64 %58 to %"class.google::protobuf::Arena"*
  br label %65

65:                                               ; preds = %63, %59
  %66 = phi %"class.google::protobuf::Arena"* [ %62, %59 ], [ %64, %63 ]
  %67 = icmp eq %"class.google::protobuf::Arena"* %66, null
  br i1 %67, label %68, label %73

68:                                               ; preds = %65
  %69 = bitcast %"class.google::protobuf::internal::MapEntryImpl.18"* %50 to void (%"class.google::protobuf::internal::MapEntryImpl.18"*)***
  %70 = load void (%"class.google::protobuf::internal::MapEntryImpl.18"*)**, void (%"class.google::protobuf::internal::MapEntryImpl.18"*)*** %69, align 8
  %71 = getelementptr inbounds void (%"class.google::protobuf::internal::MapEntryImpl.18"*)*, void (%"class.google::protobuf::internal::MapEntryImpl.18"*)** %70, i64 1
  %72 = load void (%"class.google::protobuf::internal::MapEntryImpl.18"*)*, void (%"class.google::protobuf::internal::MapEntryImpl.18"*)** %71, align 8
  call void %72(%"class.google::protobuf::internal::MapEntryImpl.18"* nonnull %50) #15
  br label %73

73:                                               ; preds = %68, %65, %39
  %74 = bitcast %"class.std::__1::basic_string"* %46 to %"struct.std::__1::basic_string<char, std::__1::char_traits<char>, std::__1::allocator<char> >::__short"*
  %75 = getelementptr inbounds %"struct.std::__1::basic_string<char, std::__1::char_traits<char>, std::__1::allocator<char> >::__short", %"struct.std::__1::basic_string<char, std::__1::char_traits<char>, std::__1::allocator<char> >::__short"* %74, i64 0, i32 1, i32 0
  %76 = load i8, i8* %75, align 1
  %77 = icmp slt i8 %76, 0
  br i1 %77, label %78, label %81

78:                                               ; preds = %73
  %79 = getelementptr inbounds %"class.std::__1::basic_string", %"class.std::__1::basic_string"* %46, i64 0, i32 0, i32 0, i32 0, i32 0, i32 0, i32 0
  %80 = load i8*, i8** %79, align 8
  call void @_ZdlPv(i8* %80) #16
  br label %81

81:                                               ; preds = %73, %78
  call void @llvm.lifetime.end.p0i8(i64 56, i8* nonnull %40) #15
  %82 = icmp eq i8* %49, null
  br i1 %82, label %97, label %83, !prof !2

83:                                               ; preds = %81
  %84 = load i32, i32* %35, align 8
  %85 = add nsw i32 %84, 1
  store i32 %85, i32* %35, align 8
  %86 = getelementptr inbounds %"class.google::protobuf::internal::ParseContext", %"class.google::protobuf::internal::ParseContext"* %0, i64 0, i32 0, i32 8
  %87 = load i32, i32* %86, align 8
  %88 = icmp eq i32 %87, 0
  br i1 %88, label %89, label %97, !prof !3

89:                                               ; preds = %83
  %90 = load i32, i32* %32, align 4
  %91 = add nsw i32 %90, %34
  store i32 %91, i32* %32, align 4
  %92 = load i8*, i8** %19, align 8
  %93 = icmp slt i32 %91, 0
  %94 = select i1 %93, i32 %91, i32 0
  %95 = sext i32 %94 to i64
  %96 = getelementptr inbounds i8, i8* %92, i64 %95
  store i8* %96, i8** %31, align 8
  br label %97

97:                                               ; preds = %14, %81, %18, %83, %89
  %98 = phi i8* [ %49, %89 ], [ null, %83 ], [ null, %18 ], [ null, %81 ], [ null, %14 ]
  ret i8* %98
}

; Function Attrs: nounwind ssp uwtable
define linkonce_odr hidden i8* @_ZN6google8protobuf8internal12ParseContext12ParseMessageINS1_12MapFieldLiteIN13assist_ranker51ExamplePreprocessorConfig_NormalizersEntry_DoNotUseENSt3__112basic_stringIcNS7_11char_traitsIcEENS7_9allocatorIcEEEEfLNS1_14WireFormatLite9FieldTypeE9ELSF_2EEEEEPKcPT_SI_(%"class.google::protobuf::internal::ParseContext"*, %"class.google::protobuf::internal::MapFieldLite.23"*, i8*) local_unnamed_addr #0 comdat align 2 {
  %4 = alloca %"class.google::protobuf::internal::MapEntryImpl<assist_ranker::ExamplePreprocessorConfig_NormalizersEntry_DoNotUse, google::protobuf::MessageLite, std::__1::basic_string<char, std::__1::char_traits<char>, std::__1::allocator<char> >, float, google::protobuf::internal::WireFormatLite::TYPE_STRING, google::protobuf::internal::WireFormatLite::TYPE_FLOAT>::Parser", align 8
  %5 = load i8, i8* %2, align 1
  %6 = zext i8 %5 to i32
  %7 = icmp sgt i8 %5, -1
  br i1 %7, label %8, label %10

8:                                                ; preds = %3
  %9 = getelementptr inbounds i8, i8* %2, i64 1
  br label %14

10:                                               ; preds = %3
  %11 = tail call { i8*, i32 } @_ZN6google8protobuf8internal16ReadSizeFallbackEPKcj(i8* %2, i32 %6) #15
  %12 = extractvalue { i8*, i32 } %11, 0
  %13 = extractvalue { i8*, i32 } %11, 1
  br label %14

14:                                               ; preds = %8, %10
  %15 = phi i8* [ %12, %10 ], [ %9, %8 ]
  %16 = phi i32 [ %13, %10 ], [ %6, %8 ]
  %17 = icmp eq i8* %15, null
  br i1 %17, label %97, label %18

18:                                               ; preds = %14
  %19 = getelementptr inbounds %"class.google::protobuf::internal::ParseContext", %"class.google::protobuf::internal::ParseContext"* %0, i64 0, i32 0, i32 1
  %20 = bitcast i8** %19 to i64*
  %21 = load i64, i64* %20, align 8
  %22 = ptrtoint i8* %15 to i64
  %23 = sub i64 %22, %21
  %24 = trunc i64 %23 to i32
  %25 = add nsw i32 %16, %24
  %26 = inttoptr i64 %21 to i8*
  %27 = icmp slt i32 %25, 0
  %28 = select i1 %27, i32 %25, i32 0
  %29 = sext i32 %28 to i64
  %30 = getelementptr inbounds i8, i8* %26, i64 %29
  %31 = getelementptr inbounds %"class.google::protobuf::internal::ParseContext", %"class.google::protobuf::internal::ParseContext"* %0, i64 0, i32 0, i32 0
  store i8* %30, i8** %31, align 8
  %32 = getelementptr inbounds %"class.google::protobuf::internal::ParseContext", %"class.google::protobuf::internal::ParseContext"* %0, i64 0, i32 0, i32 4
  %33 = load i32, i32* %32, align 4
  store i32 %25, i32* %32, align 4
  %34 = sub nsw i32 %33, %25
  %35 = getelementptr inbounds %"class.google::protobuf::internal::ParseContext", %"class.google::protobuf::internal::ParseContext"* %0, i64 0, i32 1
  %36 = load i32, i32* %35, align 8
  %37 = add nsw i32 %36, -1
  store i32 %37, i32* %35, align 8
  %38 = icmp slt i32 %36, 1
  br i1 %38, label %97, label %39

39:                                               ; preds = %18
  %40 = bitcast %"class.google::protobuf::internal::MapEntryImpl<assist_ranker::ExamplePreprocessorConfig_NormalizersEntry_DoNotUse, google::protobuf::MessageLite, std::__1::basic_string<char, std::__1::char_traits<char>, std::__1::allocator<char> >, float, google::protobuf::internal::WireFormatLite::TYPE_STRING, google::protobuf::internal::WireFormatLite::TYPE_FLOAT>::Parser"* %4 to i8*
  call void @llvm.lifetime.start.p0i8(i64 56, i8* nonnull %40) #15
  %41 = getelementptr inbounds %"class.google::protobuf::internal::MapEntryImpl<assist_ranker::ExamplePreprocessorConfig_NormalizersEntry_DoNotUse, google::protobuf::MessageLite, std::__1::basic_string<char, std::__1::char_traits<char>, std::__1::allocator<char> >, float, google::protobuf::internal::WireFormatLite::TYPE_STRING, google::protobuf::internal::WireFormatLite::TYPE_FLOAT>::Parser", %"class.google::protobuf::internal::MapEntryImpl<assist_ranker::ExamplePreprocessorConfig_NormalizersEntry_DoNotUse, google::protobuf::MessageLite, std::__1::basic_string<char, std::__1::char_traits<char>, std::__1::allocator<char> >, float, google::protobuf::internal::WireFormatLite::TYPE_STRING, google::protobuf::internal::WireFormatLite::TYPE_FLOAT>::Parser"* %4, i64 0, i32 3
  %42 = bitcast float** %41 to i64*
  store i64 -6148914691236517206, i64* %42, align 8
  %43 = getelementptr inbounds %"class.google::protobuf::internal::MapEntryImpl<assist_ranker::ExamplePreprocessorConfig_NormalizersEntry_DoNotUse, google::protobuf::MessageLite, std::__1::basic_string<char, std::__1::char_traits<char>, std::__1::allocator<char> >, float, google::protobuf::internal::WireFormatLite::TYPE_STRING, google::protobuf::internal::WireFormatLite::TYPE_FLOAT>::Parser", %"class.google::protobuf::internal::MapEntryImpl<assist_ranker::ExamplePreprocessorConfig_NormalizersEntry_DoNotUse, google::protobuf::MessageLite, std::__1::basic_string<char, std::__1::char_traits<char>, std::__1::allocator<char> >, float, google::protobuf::internal::WireFormatLite::TYPE_STRING, google::protobuf::internal::WireFormatLite::TYPE_FLOAT>::Parser"* %4, i64 0, i32 0
  store %"class.google::protobuf::internal::MapFieldLite.23"* %1, %"class.google::protobuf::internal::MapFieldLite.23"** %43, align 8
  %44 = getelementptr inbounds %"class.google::protobuf::internal::MapEntryImpl<assist_ranker::ExamplePreprocessorConfig_NormalizersEntry_DoNotUse, google::protobuf::MessageLite, std::__1::basic_string<char, std::__1::char_traits<char>, std::__1::allocator<char> >, float, google::protobuf::internal::WireFormatLite::TYPE_STRING, google::protobuf::internal::WireFormatLite::TYPE_FLOAT>::Parser", %"class.google::protobuf::internal::MapEntryImpl<assist_ranker::ExamplePreprocessorConfig_NormalizersEntry_DoNotUse, google::protobuf::MessageLite, std::__1::basic_string<char, std::__1::char_traits<char>, std::__1::allocator<char> >, float, google::protobuf::internal::WireFormatLite::TYPE_STRING, google::protobuf::internal::WireFormatLite::TYPE_FLOAT>::Parser"* %4, i64 0, i32 1
  %45 = getelementptr inbounds %"class.google::protobuf::internal::MapFieldLite.23", %"class.google::protobuf::internal::MapFieldLite.23"* %1, i64 0, i32 0
  store %"class.google::protobuf::Map.24"* %45, %"class.google::protobuf::Map.24"** %44, align 8
  %46 = getelementptr inbounds %"class.google::protobuf::internal::MapEntryImpl<assist_ranker::ExamplePreprocessorConfig_NormalizersEntry_DoNotUse, google::protobuf::MessageLite, std::__1::basic_string<char, std::__1::char_traits<char>, std::__1::allocator<char> >, float, google::protobuf::internal::WireFormatLite::TYPE_STRING, google::protobuf::internal::WireFormatLite::TYPE_FLOAT>::Parser", %"class.google::protobuf::internal::MapEntryImpl<assist_ranker::ExamplePreprocessorConfig_NormalizersEntry_DoNotUse, google::protobuf::MessageLite, std::__1::basic_string<char, std::__1::char_traits<char>, std::__1::allocator<char> >, float, google::protobuf::internal::WireFormatLite::TYPE_STRING, google::protobuf::internal::WireFormatLite::TYPE_FLOAT>::Parser"* %4, i64 0, i32 2
  %47 = bitcast %"class.std::__1::basic_string"* %46 to i8*
  call void @llvm.memset.p0i8.i64(i8* align 8 %47, i8 0, i64 24, i1 false) #15
  %48 = getelementptr inbounds %"class.google::protobuf::internal::MapEntryImpl<assist_ranker::ExamplePreprocessorConfig_NormalizersEntry_DoNotUse, google::protobuf::MessageLite, std::__1::basic_string<char, std::__1::char_traits<char>, std::__1::allocator<char> >, float, google::protobuf::internal::WireFormatLite::TYPE_STRING, google::protobuf::internal::WireFormatLite::TYPE_FLOAT>::Parser", %"class.google::protobuf::internal::MapEntryImpl<assist_ranker::ExamplePreprocessorConfig_NormalizersEntry_DoNotUse, google::protobuf::MessageLite, std::__1::basic_string<char, std::__1::char_traits<char>, std::__1::allocator<char> >, float, google::protobuf::internal::WireFormatLite::TYPE_STRING, google::protobuf::internal::WireFormatLite::TYPE_FLOAT>::Parser"* %4, i64 0, i32 4
  store %"class.google::protobuf::internal::MapEntryImpl.20"* null, %"class.google::protobuf::internal::MapEntryImpl.20"** %48, align 8
  %49 = call i8* @_ZN6google8protobuf8internal12MapEntryImplIN13assist_ranker51ExamplePreprocessorConfig_NormalizersEntry_DoNotUseENS0_11MessageLiteENSt3__112basic_stringIcNS6_11char_traitsIcEENS6_9allocatorIcEEEEfLNS1_14WireFormatLite9FieldTypeE9ELSE_2EE6ParserINS1_12MapFieldLiteIS4_SC_fLSE_9ELSE_2EEENS0_3MapISC_fEEE14_InternalParseEPKcPNS1_12ParseContextE(%"class.google::protobuf::internal::MapEntryImpl<assist_ranker::ExamplePreprocessorConfig_NormalizersEntry_DoNotUse, google::protobuf::MessageLite, std::__1::basic_string<char, std::__1::char_traits<char>, std::__1::allocator<char> >, float, google::protobuf::internal::WireFormatLite::TYPE_STRING, google::protobuf::internal::WireFormatLite::TYPE_FLOAT>::Parser"* nonnull %4, i8* nonnull %15, %"class.google::protobuf::internal::ParseContext"* %0) #15
  %50 = load %"class.google::protobuf::internal::MapEntryImpl.20"*, %"class.google::protobuf::internal::MapEntryImpl.20"** %48, align 8
  %51 = icmp eq %"class.google::protobuf::internal::MapEntryImpl.20"* %50, null
  br i1 %51, label %73, label %52

52:                                               ; preds = %39
  %53 = getelementptr inbounds %"class.google::protobuf::internal::MapEntryImpl.20", %"class.google::protobuf::internal::MapEntryImpl.20"* %50, i64 0, i32 0, i32 1
  %54 = bitcast %"class.google::protobuf::internal::InternalMetadata"* %53 to i64*
  %55 = load i64, i64* %54, align 8
  %56 = and i64 %55, 1
  %57 = icmp eq i64 %56, 0
  %58 = and i64 %55, -2
  br i1 %57, label %63, label %59, !prof !3

59:                                               ; preds = %52
  %60 = inttoptr i64 %58 to %"struct.google::protobuf::internal::InternalMetadata::ContainerBase"*
  %61 = getelementptr inbounds %"struct.google::protobuf::internal::InternalMetadata::ContainerBase", %"struct.google::protobuf::internal::InternalMetadata::ContainerBase"* %60, i64 0, i32 0
  %62 = load %"class.google::protobuf::Arena"*, %"class.google::protobuf::Arena"** %61, align 8
  br label %65

63:                                               ; preds = %52
  %64 = inttoptr i64 %58 to %"class.google::protobuf::Arena"*
  br label %65

65:                                               ; preds = %63, %59
  %66 = phi %"class.google::protobuf::Arena"* [ %62, %59 ], [ %64, %63 ]
  %67 = icmp eq %"class.google::protobuf::Arena"* %66, null
  br i1 %67, label %68, label %73

68:                                               ; preds = %65
  %69 = bitcast %"class.google::protobuf::internal::MapEntryImpl.20"* %50 to void (%"class.google::protobuf::internal::MapEntryImpl.20"*)***
  %70 = load void (%"class.google::protobuf::internal::MapEntryImpl.20"*)**, void (%"class.google::protobuf::internal::MapEntryImpl.20"*)*** %69, align 8
  %71 = getelementptr inbounds void (%"class.google::protobuf::internal::MapEntryImpl.20"*)*, void (%"class.google::protobuf::internal::MapEntryImpl.20"*)** %70, i64 1
  %72 = load void (%"class.google::protobuf::internal::MapEntryImpl.20"*)*, void (%"class.google::protobuf::internal::MapEntryImpl.20"*)** %71, align 8
  call void %72(%"class.google::protobuf::internal::MapEntryImpl.20"* nonnull %50) #15
  br label %73

73:                                               ; preds = %68, %65, %39
  %74 = bitcast %"class.std::__1::basic_string"* %46 to %"struct.std::__1::basic_string<char, std::__1::char_traits<char>, std::__1::allocator<char> >::__short"*
  %75 = getelementptr inbounds %"struct.std::__1::basic_string<char, std::__1::char_traits<char>, std::__1::allocator<char> >::__short", %"struct.std::__1::basic_string<char, std::__1::char_traits<char>, std::__1::allocator<char> >::__short"* %74, i64 0, i32 1, i32 0
  %76 = load i8, i8* %75, align 1
  %77 = icmp slt i8 %76, 0
  br i1 %77, label %78, label %81

78:                                               ; preds = %73
  %79 = getelementptr inbounds %"class.std::__1::basic_string", %"class.std::__1::basic_string"* %46, i64 0, i32 0, i32 0, i32 0, i32 0, i32 0, i32 0
  %80 = load i8*, i8** %79, align 8
  call void @_ZdlPv(i8* %80) #16
  br label %81

81:                                               ; preds = %73, %78
  call void @llvm.lifetime.end.p0i8(i64 56, i8* nonnull %40) #15
  %82 = icmp eq i8* %49, null
  br i1 %82, label %97, label %83, !prof !2

83:                                               ; preds = %81
  %84 = load i32, i32* %35, align 8
  %85 = add nsw i32 %84, 1
  store i32 %85, i32* %35, align 8
  %86 = getelementptr inbounds %"class.google::protobuf::internal::ParseContext", %"class.google::protobuf::internal::ParseContext"* %0, i64 0, i32 0, i32 8
  %87 = load i32, i32* %86, align 8
  %88 = icmp eq i32 %87, 0
  br i1 %88, label %89, label %97, !prof !3

89:                                               ; preds = %83
  %90 = load i32, i32* %32, align 4
  %91 = add nsw i32 %90, %34
  store i32 %91, i32* %32, align 4
  %92 = load i8*, i8** %19, align 8
  %93 = icmp slt i32 %91, 0
  %94 = select i1 %93, i32 %91, i32 0
  %95 = sext i32 %94 to i64
  %96 = getelementptr inbounds i8, i8* %92, i64 %95
  store i8* %96, i8** %31, align 8
  br label %97

97:                                               ; preds = %14, %81, %18, %83, %89
  %98 = phi i8* [ %49, %89 ], [ null, %83 ], [ null, %18 ], [ null, %81 ], [ null, %14 ]
  ret i8* %98
}

; Function Attrs: nounwind ssp uwtable
define hidden i8* @_ZNK13assist_ranker25ExamplePreprocessorConfig18_InternalSerializeEPhPN6google8protobuf2io19EpsCopyOutputStreamE(%"class.assist_ranker::ExamplePreprocessorConfig"*, i8*, %"class.google::protobuf::io::EpsCopyOutputStream"*) unnamed_addr #0 align 2 {
  %4 = alloca %"struct.google::protobuf::internal::CompareByDerefFirst", align 1
  %5 = alloca %"struct.google::protobuf::internal::CompareByDerefFirst.35", align 1
  %6 = alloca %"struct.google::protobuf::internal::CompareByDerefFirst.44", align 1
  %7 = alloca %"class.google::protobuf::Map<std::__1::basic_string<char, std::__1::char_traits<char>, std::__1::allocator<char> >, assist_ranker::ExamplePreprocessorConfig_Boundaries>::const_iterator", align 8
  %8 = alloca %"class.google::protobuf::Map<std::__1::basic_string<char, std::__1::char_traits<char>, std::__1::allocator<char> >, assist_ranker::ExamplePreprocessorConfig_Boundaries>::const_iterator", align 8
  %9 = alloca %"class.google::protobuf::Map<std::__1::basic_string<char, std::__1::char_traits<char>, std::__1::allocator<char> >, int>::const_iterator", align 8
  %10 = alloca %"class.google::protobuf::Map<std::__1::basic_string<char, std::__1::char_traits<char>, std::__1::allocator<char> >, int>::const_iterator", align 8
  %11 = alloca %"class.google::protobuf::Map<std::__1::basic_string<char, std::__1::char_traits<char>, std::__1::allocator<char> >, float>::const_iterator", align 8
  %12 = alloca %"class.google::protobuf::Map<std::__1::basic_string<char, std::__1::char_traits<char>, std::__1::allocator<char> >, float>::const_iterator", align 8
  %13 = getelementptr inbounds %"class.assist_ranker::ExamplePreprocessorConfig", %"class.assist_ranker::ExamplePreprocessorConfig"* %0, i64 0, i32 1, i32 0, i32 1
  %14 = load i32, i32* %13, align 8
  %15 = icmp sgt i32 %14, 0
  br i1 %15, label %16, label %20

16:                                               ; preds = %3
  %17 = getelementptr inbounds %"class.assist_ranker::ExamplePreprocessorConfig", %"class.assist_ranker::ExamplePreprocessorConfig"* %0, i64 0, i32 1, i32 0, i32 3
  %18 = bitcast %"class.google::protobuf::io::EpsCopyOutputStream"* %2 to i64*
  %19 = zext i32 %14 to i64
  br label %26

20:                                               ; preds = %63, %3
  %21 = phi i8* [ %1, %3 ], [ %64, %63 ]
  %22 = getelementptr inbounds %"class.assist_ranker::ExamplePreprocessorConfig", %"class.assist_ranker::ExamplePreprocessorConfig"* %0, i64 0, i32 2, i32 0
  %23 = getelementptr inbounds %"class.google::protobuf::Map", %"class.google::protobuf::Map"* %22, i64 0, i32 0, i32 0
  %24 = load i64, i64* %23, align 8
  %25 = icmp eq i64 %24, 0
  br i1 %25, label %208, label %67

26:                                               ; preds = %63, %16
  %27 = phi i64 [ 0, %16 ], [ %65, %63 ]
  %28 = phi i8* [ %1, %16 ], [ %64, %63 ]
  %29 = load %"struct.google::protobuf::internal::RepeatedPtrFieldBase::Rep"*, %"struct.google::protobuf::internal::RepeatedPtrFieldBase::Rep"** %17, align 8
  %30 = getelementptr inbounds %"struct.google::protobuf::internal::RepeatedPtrFieldBase::Rep", %"struct.google::protobuf::internal::RepeatedPtrFieldBase::Rep"* %29, i64 0, i32 1, i64 %27
  %31 = bitcast i8** %30 to %"class.std::__1::basic_string"**
  %32 = load %"class.std::__1::basic_string"*, %"class.std::__1::basic_string"** %31, align 8
  %33 = bitcast %"class.std::__1::basic_string"* %32 to %"struct.std::__1::basic_string<char, std::__1::char_traits<char>, std::__1::allocator<char> >::__short"*
  %34 = getelementptr inbounds %"struct.std::__1::basic_string<char, std::__1::char_traits<char>, std::__1::allocator<char> >::__short", %"struct.std::__1::basic_string<char, std::__1::char_traits<char>, std::__1::allocator<char> >::__short"* %33, i64 0, i32 1, i32 0
  %35 = load i8, i8* %34, align 1
  %36 = icmp slt i8 %35, 0
  br i1 %36, label %39, label %37

37:                                               ; preds = %26
  %38 = zext i8 %35 to i64
  br label %43

39:                                               ; preds = %26
  %40 = getelementptr inbounds %"class.std::__1::basic_string", %"class.std::__1::basic_string"* %32, i64 0, i32 0, i32 0, i32 0, i32 0, i32 0, i32 1
  %41 = load i64, i64* %40, align 8
  %42 = icmp sgt i64 %41, 127
  br i1 %42, label %50, label %43, !prof !2

43:                                               ; preds = %39, %37
  %44 = phi i64 [ %38, %37 ], [ %41, %39 ]
  %45 = load i64, i64* %18, align 8
  %46 = ptrtoint i8* %28 to i64
  %47 = sub i64 14, %46
  %48 = add i64 %47, %45
  %49 = icmp slt i64 %48, %44
  br i1 %49, label %50, label %52, !prof !2

50:                                               ; preds = %43, %39
  %51 = tail call i8* @_ZN6google8protobuf2io19EpsCopyOutputStream18WriteStringOutlineEjRKNSt3__112basic_stringIcNS3_11char_traitsIcEENS3_9allocatorIcEEEEPh(%"class.google::protobuf::io::EpsCopyOutputStream"* %2, i32 1, %"class.std::__1::basic_string"* dereferenceable(24) %32, i8* %28) #15
  br label %63

52:                                               ; preds = %43
  store i8 10, i8* %28, align 1
  %53 = getelementptr inbounds i8, i8* %28, i64 1
  %54 = trunc i64 %44 to i8
  %55 = getelementptr inbounds i8, i8* %28, i64 2
  store i8 %54, i8* %53, align 1
  %56 = load i8, i8* %34, align 1
  %57 = icmp slt i8 %56, 0
  %58 = getelementptr inbounds %"class.std::__1::basic_string", %"class.std::__1::basic_string"* %32, i64 0, i32 0, i32 0, i32 0, i32 0, i32 0, i32 0
  %59 = load i8*, i8** %58, align 8
  %60 = bitcast %"class.std::__1::basic_string"* %32 to i8*
  %61 = select i1 %57, i8* %59, i8* %60
  tail call void @llvm.memcpy.p0i8.p0i8.i64(i8* align 1 %55, i8* align 1 %61, i64 %44, i1 false) #15
  %62 = getelementptr inbounds i8, i8* %55, i64 %44
  br label %63

63:                                               ; preds = %50, %52
  %64 = phi i8* [ %51, %50 ], [ %62, %52 ]
  %65 = add nuw nsw i64 %27, 1
  %66 = icmp eq i64 %65, %19
  br i1 %66, label %20, label %26

67:                                               ; preds = %20
  %68 = getelementptr inbounds %"class.google::protobuf::io::EpsCopyOutputStream", %"class.google::protobuf::io::EpsCopyOutputStream"* %2, i64 0, i32 6
  %69 = load i8, i8* %68, align 2, !range !24
  %70 = icmp ne i8 %69, 0
  %71 = icmp ne i64 %24, 1
  %72 = and i1 %71, %70
  br i1 %72, label %73, label %151

73:                                               ; preds = %67
  %74 = tail call { i64, i1 } @llvm.umul.with.overflow.i64(i64 %24, i64 8)
  %75 = extractvalue { i64, i1 } %74, 1
  %76 = extractvalue { i64, i1 } %74, 0
  %77 = select i1 %75, i64 -1, i64 %76
  %78 = tail call i8* @_Znam(i64 %77) #16
  %79 = bitcast i8* %78 to %"struct.google::protobuf::MapPair"**
  %80 = bitcast %"class.google::protobuf::Map<std::__1::basic_string<char, std::__1::char_traits<char>, std::__1::allocator<char> >, assist_ranker::ExamplePreprocessorConfig_Boundaries>::const_iterator"* %7 to i8*
  call void @llvm.lifetime.start.p0i8(i64 24, i8* nonnull %80) #15
  %81 = getelementptr inbounds %"class.google::protobuf::Map<std::__1::basic_string<char, std::__1::char_traits<char>, std::__1::allocator<char> >, assist_ranker::ExamplePreprocessorConfig_Boundaries>::const_iterator", %"class.google::protobuf::Map<std::__1::basic_string<char, std::__1::char_traits<char>, std::__1::allocator<char> >, assist_ranker::ExamplePreprocessorConfig_Boundaries>::const_iterator"* %7, i64 0, i32 0, i32 0
  %82 = getelementptr inbounds %"class.google::protobuf::Map<std::__1::basic_string<char, std::__1::char_traits<char>, std::__1::allocator<char> >, assist_ranker::ExamplePreprocessorConfig_Boundaries>::const_iterator", %"class.google::protobuf::Map<std::__1::basic_string<char, std::__1::char_traits<char>, std::__1::allocator<char> >, assist_ranker::ExamplePreprocessorConfig_Boundaries>::const_iterator"* %7, i64 0, i32 0, i32 1
  %83 = getelementptr inbounds %"class.google::protobuf::Map<std::__1::basic_string<char, std::__1::char_traits<char>, std::__1::allocator<char> >, assist_ranker::ExamplePreprocessorConfig_Boundaries>::const_iterator", %"class.google::protobuf::Map<std::__1::basic_string<char, std::__1::char_traits<char>, std::__1::allocator<char> >, assist_ranker::ExamplePreprocessorConfig_Boundaries>::const_iterator"* %7, i64 0, i32 0, i32 2
  %84 = getelementptr inbounds %"class.google::protobuf::Map", %"class.google::protobuf::Map"* %22, i64 0, i32 0
  %85 = getelementptr inbounds %"class.assist_ranker::ExamplePreprocessorConfig", %"class.assist_ranker::ExamplePreprocessorConfig"* %0, i64 0, i32 2, i32 0, i32 0, i32 3
  %86 = bitcast %"class.google::protobuf::Map<std::__1::basic_string<char, std::__1::char_traits<char>, std::__1::allocator<char> >, assist_ranker::ExamplePreprocessorConfig_Boundaries>::const_iterator"* %7 to i8*
  call void @llvm.memset.p0i8.i64(i8* nonnull align 8 %86, i8 -86, i64 24, i1 false)
  %87 = load i64, i64* %85, align 8, !noalias !25
  %88 = getelementptr inbounds %"class.assist_ranker::ExamplePreprocessorConfig", %"class.assist_ranker::ExamplePreprocessorConfig"* %0, i64 0, i32 2, i32 0, i32 0, i32 1
  %89 = load i64, i64* %88, align 8, !noalias !25
  %90 = icmp ugt i64 %89, %87
  br i1 %90, label %91, label %115

91:                                               ; preds = %73
  %92 = getelementptr inbounds %"class.assist_ranker::ExamplePreprocessorConfig", %"class.assist_ranker::ExamplePreprocessorConfig"* %0, i64 0, i32 2, i32 0, i32 0, i32 4
  %93 = load i8**, i8*** %92, align 8, !noalias !25
  br label %94

94:                                               ; preds = %112, %91
  %95 = phi i64 [ %87, %91 ], [ %113, %112 ]
  %96 = getelementptr inbounds i8*, i8** %93, i64 %95
  %97 = load i8*, i8** %96, align 8, !noalias !25
  %98 = icmp eq i8* %97, null
  br i1 %98, label %112, label %99

99:                                               ; preds = %94
  %100 = xor i64 %95, 1
  %101 = getelementptr inbounds i8*, i8** %93, i64 %100
  %102 = load i8*, i8** %101, align 8, !noalias !25
  %103 = icmp eq i8* %97, %102
  br i1 %103, label %106, label %104

104:                                              ; preds = %99
  %105 = ptrtoint i8* %97 to i64
  br label %118

106:                                              ; preds = %99
  %107 = bitcast i8* %97 to %"class.std::__1::__tree_end_node"**
  %108 = load %"class.std::__1::__tree_end_node"*, %"class.std::__1::__tree_end_node"** %107, align 8, !noalias !25
  %109 = getelementptr inbounds %"class.std::__1::__tree_end_node", %"class.std::__1::__tree_end_node"* %108, i64 5
  %110 = bitcast %"class.std::__1::__tree_end_node"* %109 to i64*
  %111 = load i64, i64* %110, align 8, !noalias !25
  br label %118

112:                                              ; preds = %94
  %113 = add i64 %95, 1
  %114 = icmp eq i64 %113, %89
  br i1 %114, label %115, label %94

115:                                              ; preds = %112, %73
  %116 = phi i64 [ %87, %73 ], [ %89, %112 ]
  %117 = bitcast %"class.google::protobuf::Map<std::__1::basic_string<char, std::__1::char_traits<char>, std::__1::allocator<char> >, assist_ranker::ExamplePreprocessorConfig_Boundaries>::const_iterator"* %7 to i64*
  store i64 0, i64* %117, align 8, !alias.scope !30
  store %"class.google::protobuf::Map<std::__1::basic_string<char, std::__1::char_traits<char>, std::__1::allocator<char> >, assist_ranker::ExamplePreprocessorConfig_Boundaries>::InnerMap"* %84, %"class.google::protobuf::Map<std::__1::basic_string<char, std::__1::char_traits<char>, std::__1::allocator<char> >, assist_ranker::ExamplePreprocessorConfig_Boundaries>::InnerMap"** %82, align 8, !alias.scope !30
  store i64 %116, i64* %83, align 8, !alias.scope !30
  br label %125

118:                                              ; preds = %104, %106
  %119 = phi i64 [ %111, %106 ], [ %105, %104 ]
  %120 = bitcast %"class.google::protobuf::Map<std::__1::basic_string<char, std::__1::char_traits<char>, std::__1::allocator<char> >, assist_ranker::ExamplePreprocessorConfig_Boundaries>::const_iterator"* %7 to i64*
  store i64 %119, i64* %120, align 8, !alias.scope !30
  store %"class.google::protobuf::Map<std::__1::basic_string<char, std::__1::char_traits<char>, std::__1::allocator<char> >, assist_ranker::ExamplePreprocessorConfig_Boundaries>::InnerMap"* %84, %"class.google::protobuf::Map<std::__1::basic_string<char, std::__1::char_traits<char>, std::__1::allocator<char> >, assist_ranker::ExamplePreprocessorConfig_Boundaries>::InnerMap"** %82, align 8, !alias.scope !30
  store i64 %95, i64* %83, align 8, !alias.scope !30
  %121 = icmp eq i64 %119, 0
  br i1 %121, label %125, label %122

122:                                              ; preds = %118
  %123 = inttoptr i64 %119 to %"struct.google::protobuf::Map<std::__1::basic_string<char, std::__1::char_traits<char>, std::__1::allocator<char> >, assist_ranker::ExamplePreprocessorConfig_Boundaries>::InnerMap::Node"*
  %124 = getelementptr inbounds %"class.google::protobuf::Map<std::__1::basic_string<char, std::__1::char_traits<char>, std::__1::allocator<char> >, assist_ranker::ExamplePreprocessorConfig_Boundaries>::const_iterator", %"class.google::protobuf::Map<std::__1::basic_string<char, std::__1::char_traits<char>, std::__1::allocator<char> >, assist_ranker::ExamplePreprocessorConfig_Boundaries>::const_iterator"* %7, i64 0, i32 0
  br label %130

125:                                              ; preds = %130, %115, %118
  %126 = phi i64 [ 0, %118 ], [ 0, %115 ], [ %136, %130 ]
  call void @llvm.lifetime.end.p0i8(i64 24, i8* nonnull %80) #15
  %127 = getelementptr inbounds %"struct.google::protobuf::MapPair"*, %"struct.google::protobuf::MapPair"** %79, i64 %126
  %128 = getelementptr inbounds %"struct.google::protobuf::internal::CompareByDerefFirst", %"struct.google::protobuf::internal::CompareByDerefFirst"* %4, i64 0, i32 0
  call void @llvm.lifetime.start.p0i8(i64 1, i8* nonnull %128)
  call void @_ZNSt3__16__sortIRN6google8protobuf8internal19CompareByDerefFirstIPKNS2_7MapPairINS_12basic_stringIcNS_11char_traitsIcEENS_9allocatorIcEEEEN13assist_ranker36ExamplePreprocessorConfig_BoundariesEEEEEPSG_EEvT0_SK_T_(%"struct.google::protobuf::MapPair"** nonnull %79, %"struct.google::protobuf::MapPair"** %127, %"struct.google::protobuf::internal::CompareByDerefFirst"* nonnull dereferenceable(1) %4) #15
  call void @llvm.lifetime.end.p0i8(i64 1, i8* nonnull %128)
  %129 = icmp eq i64 %126, 0
  br i1 %129, label %139, label %141

130:                                              ; preds = %122, %130
  %131 = phi i64 [ 0, %122 ], [ %136, %130 ]
  %132 = phi %"struct.google::protobuf::Map<std::__1::basic_string<char, std::__1::char_traits<char>, std::__1::allocator<char> >, assist_ranker::ExamplePreprocessorConfig_Boundaries>::InnerMap::Node"* [ %123, %122 ], [ %137, %130 ]
  %133 = getelementptr inbounds %"struct.google::protobuf::Map<std::__1::basic_string<char, std::__1::char_traits<char>, std::__1::allocator<char> >, assist_ranker::ExamplePreprocessorConfig_Boundaries>::InnerMap::Node", %"struct.google::protobuf::Map<std::__1::basic_string<char, std::__1::char_traits<char>, std::__1::allocator<char> >, assist_ranker::ExamplePreprocessorConfig_Boundaries>::InnerMap::Node"* %132, i64 0, i32 0
  %134 = getelementptr inbounds %"struct.google::protobuf::MapPair"*, %"struct.google::protobuf::MapPair"** %79, i64 %131
  store %"struct.google::protobuf::MapPair"* %133, %"struct.google::protobuf::MapPair"** %134, align 8
  %135 = call dereferenceable(24) %"class.google::protobuf::Map<std::__1::basic_string<char, std::__1::char_traits<char>, std::__1::allocator<char> >, assist_ranker::ExamplePreprocessorConfig_Boundaries>::InnerMap::iterator_base"* @_ZN6google8protobuf3MapINSt3__112basic_stringIcNS2_11char_traitsIcEENS2_9allocatorIcEEEEN13assist_ranker36ExamplePreprocessorConfig_BoundariesEE8InnerMap13iterator_baseIKNS0_7MapPairIS8_SA_EEEppEv(%"class.google::protobuf::Map<std::__1::basic_string<char, std::__1::char_traits<char>, std::__1::allocator<char> >, assist_ranker::ExamplePreprocessorConfig_Boundaries>::InnerMap::iterator_base"* nonnull %124) #15
  %136 = add i64 %131, 1
  %137 = load %"struct.google::protobuf::Map<std::__1::basic_string<char, std::__1::char_traits<char>, std::__1::allocator<char> >, assist_ranker::ExamplePreprocessorConfig_Boundaries>::InnerMap::Node"*, %"struct.google::protobuf::Map<std::__1::basic_string<char, std::__1::char_traits<char>, std::__1::allocator<char> >, assist_ranker::ExamplePreprocessorConfig_Boundaries>::InnerMap::Node"** %81, align 8
  %138 = icmp eq %"struct.google::protobuf::Map<std::__1::basic_string<char, std::__1::char_traits<char>, std::__1::allocator<char> >, assist_ranker::ExamplePreprocessorConfig_Boundaries>::InnerMap::Node"* %137, null
  br i1 %138, label %125, label %130

139:                                              ; preds = %141, %125
  %140 = phi i8* [ %21, %125 ], [ %148, %141 ]
  call void @_ZdaPv(i8* nonnull %78) #16
  br label %208

141:                                              ; preds = %125, %141
  %142 = phi i8* [ %148, %141 ], [ %21, %125 ]
  %143 = phi i64 [ %149, %141 ], [ 0, %125 ]
  %144 = getelementptr inbounds %"struct.google::protobuf::MapPair"*, %"struct.google::protobuf::MapPair"** %79, i64 %143
  %145 = load %"struct.google::protobuf::MapPair"*, %"struct.google::protobuf::MapPair"** %144, align 8
  %146 = getelementptr inbounds %"struct.google::protobuf::MapPair", %"struct.google::protobuf::MapPair"* %145, i64 0, i32 0
  %147 = getelementptr inbounds %"struct.google::protobuf::MapPair", %"struct.google::protobuf::MapPair"* %145, i64 0, i32 1
  %148 = call i8* @_ZN6google8protobuf8internal13MapEntryFuncsINSt3__112basic_stringIcNS3_11char_traitsIcEENS3_9allocatorIcEEEEN13assist_ranker36ExamplePreprocessorConfig_BoundariesELNS1_14WireFormatLite9FieldTypeE9ELSD_11EE17InternalSerializeEiRKS9_RKSB_PhPNS0_2io19EpsCopyOutputStreamE(i32 2, %"class.std::__1::basic_string"* dereferenceable(24) %146, %"class.assist_ranker::ExamplePreprocessorConfig_Boundaries"* dereferenceable(40) %147, i8* %142, %"class.google::protobuf::io::EpsCopyOutputStream"* %2)
  %149 = add nuw i64 %143, 1
  %150 = icmp eq i64 %149, %126
  br i1 %150, label %139, label %141

151:                                              ; preds = %67
  %152 = bitcast %"class.google::protobuf::Map<std::__1::basic_string<char, std::__1::char_traits<char>, std::__1::allocator<char> >, assist_ranker::ExamplePreprocessorConfig_Boundaries>::const_iterator"* %8 to i8*
  call void @llvm.lifetime.start.p0i8(i64 24, i8* nonnull %152) #15
  %153 = getelementptr inbounds %"class.google::protobuf::Map<std::__1::basic_string<char, std::__1::char_traits<char>, std::__1::allocator<char> >, assist_ranker::ExamplePreprocessorConfig_Boundaries>::const_iterator", %"class.google::protobuf::Map<std::__1::basic_string<char, std::__1::char_traits<char>, std::__1::allocator<char> >, assist_ranker::ExamplePreprocessorConfig_Boundaries>::const_iterator"* %8, i64 0, i32 0, i32 0
  %154 = getelementptr inbounds %"class.google::protobuf::Map<std::__1::basic_string<char, std::__1::char_traits<char>, std::__1::allocator<char> >, assist_ranker::ExamplePreprocessorConfig_Boundaries>::const_iterator", %"class.google::protobuf::Map<std::__1::basic_string<char, std::__1::char_traits<char>, std::__1::allocator<char> >, assist_ranker::ExamplePreprocessorConfig_Boundaries>::const_iterator"* %8, i64 0, i32 0, i32 1
  %155 = getelementptr inbounds %"class.google::protobuf::Map<std::__1::basic_string<char, std::__1::char_traits<char>, std::__1::allocator<char> >, assist_ranker::ExamplePreprocessorConfig_Boundaries>::const_iterator", %"class.google::protobuf::Map<std::__1::basic_string<char, std::__1::char_traits<char>, std::__1::allocator<char> >, assist_ranker::ExamplePreprocessorConfig_Boundaries>::const_iterator"* %8, i64 0, i32 0, i32 2
  %156 = getelementptr inbounds %"class.google::protobuf::Map", %"class.google::protobuf::Map"* %22, i64 0, i32 0
  %157 = getelementptr inbounds %"class.assist_ranker::ExamplePreprocessorConfig", %"class.assist_ranker::ExamplePreprocessorConfig"* %0, i64 0, i32 2, i32 0, i32 0, i32 3
  %158 = bitcast %"class.google::protobuf::Map<std::__1::basic_string<char, std::__1::char_traits<char>, std::__1::allocator<char> >, assist_ranker::ExamplePreprocessorConfig_Boundaries>::const_iterator"* %8 to i8*
  call void @llvm.memset.p0i8.i64(i8* nonnull align 8 %158, i8 -86, i64 24, i1 false)
  %159 = load i64, i64* %157, align 8, !noalias !31
  %160 = getelementptr inbounds %"class.assist_ranker::ExamplePreprocessorConfig", %"class.assist_ranker::ExamplePreprocessorConfig"* %0, i64 0, i32 2, i32 0, i32 0, i32 1
  %161 = load i64, i64* %160, align 8, !noalias !31
  %162 = icmp ugt i64 %161, %159
  br i1 %162, label %163, label %187

163:                                              ; preds = %151
  %164 = getelementptr inbounds %"class.assist_ranker::ExamplePreprocessorConfig", %"class.assist_ranker::ExamplePreprocessorConfig"* %0, i64 0, i32 2, i32 0, i32 0, i32 4
  %165 = load i8**, i8*** %164, align 8, !noalias !31
  br label %166

166:                                              ; preds = %184, %163
  %167 = phi i64 [ %159, %163 ], [ %185, %184 ]
  %168 = getelementptr inbounds i8*, i8** %165, i64 %167
  %169 = load i8*, i8** %168, align 8, !noalias !31
  %170 = icmp eq i8* %169, null
  br i1 %170, label %184, label %171

171:                                              ; preds = %166
  %172 = xor i64 %167, 1
  %173 = getelementptr inbounds i8*, i8** %165, i64 %172
  %174 = load i8*, i8** %173, align 8, !noalias !31
  %175 = icmp eq i8* %169, %174
  br i1 %175, label %178, label %176

176:                                              ; preds = %171
  %177 = ptrtoint i8* %169 to i64
  br label %190

178:                                              ; preds = %171
  %179 = bitcast i8* %169 to %"class.std::__1::__tree_end_node"**
  %180 = load %"class.std::__1::__tree_end_node"*, %"class.std::__1::__tree_end_node"** %179, align 8, !noalias !31
  %181 = getelementptr inbounds %"class.std::__1::__tree_end_node", %"class.std::__1::__tree_end_node"* %180, i64 5
  %182 = bitcast %"class.std::__1::__tree_end_node"* %181 to i64*
  %183 = load i64, i64* %182, align 8, !noalias !31
  br label %190

184:                                              ; preds = %166
  %185 = add i64 %167, 1
  %186 = icmp eq i64 %185, %161
  br i1 %186, label %187, label %166

187:                                              ; preds = %184, %151
  %188 = phi i64 [ %159, %151 ], [ %161, %184 ]
  %189 = bitcast %"class.google::protobuf::Map<std::__1::basic_string<char, std::__1::char_traits<char>, std::__1::allocator<char> >, assist_ranker::ExamplePreprocessorConfig_Boundaries>::const_iterator"* %8 to i64*
  store i64 0, i64* %189, align 8, !alias.scope !36
  store %"class.google::protobuf::Map<std::__1::basic_string<char, std::__1::char_traits<char>, std::__1::allocator<char> >, assist_ranker::ExamplePreprocessorConfig_Boundaries>::InnerMap"* %156, %"class.google::protobuf::Map<std::__1::basic_string<char, std::__1::char_traits<char>, std::__1::allocator<char> >, assist_ranker::ExamplePreprocessorConfig_Boundaries>::InnerMap"** %154, align 8, !alias.scope !36
  store i64 %188, i64* %155, align 8, !alias.scope !36
  br label %197

190:                                              ; preds = %176, %178
  %191 = phi i64 [ %183, %178 ], [ %177, %176 ]
  %192 = bitcast %"class.google::protobuf::Map<std::__1::basic_string<char, std::__1::char_traits<char>, std::__1::allocator<char> >, assist_ranker::ExamplePreprocessorConfig_Boundaries>::const_iterator"* %8 to i64*
  store i64 %191, i64* %192, align 8, !alias.scope !36
  store %"class.google::protobuf::Map<std::__1::basic_string<char, std::__1::char_traits<char>, std::__1::allocator<char> >, assist_ranker::ExamplePreprocessorConfig_Boundaries>::InnerMap"* %156, %"class.google::protobuf::Map<std::__1::basic_string<char, std::__1::char_traits<char>, std::__1::allocator<char> >, assist_ranker::ExamplePreprocessorConfig_Boundaries>::InnerMap"** %154, align 8, !alias.scope !36
  store i64 %167, i64* %155, align 8, !alias.scope !36
  %193 = icmp eq i64 %191, 0
  br i1 %193, label %197, label %194

194:                                              ; preds = %190
  %195 = inttoptr i64 %191 to %"struct.google::protobuf::Map<std::__1::basic_string<char, std::__1::char_traits<char>, std::__1::allocator<char> >, assist_ranker::ExamplePreprocessorConfig_Boundaries>::InnerMap::Node"*
  %196 = getelementptr inbounds %"class.google::protobuf::Map<std::__1::basic_string<char, std::__1::char_traits<char>, std::__1::allocator<char> >, assist_ranker::ExamplePreprocessorConfig_Boundaries>::const_iterator", %"class.google::protobuf::Map<std::__1::basic_string<char, std::__1::char_traits<char>, std::__1::allocator<char> >, assist_ranker::ExamplePreprocessorConfig_Boundaries>::const_iterator"* %8, i64 0, i32 0
  br label %199

197:                                              ; preds = %199, %187, %190
  %198 = phi i8* [ %21, %190 ], [ %21, %187 ], [ %204, %199 ]
  call void @llvm.lifetime.end.p0i8(i64 24, i8* nonnull %152) #15
  br label %208

199:                                              ; preds = %194, %199
  %200 = phi i8* [ %21, %194 ], [ %204, %199 ]
  %201 = phi %"struct.google::protobuf::Map<std::__1::basic_string<char, std::__1::char_traits<char>, std::__1::allocator<char> >, assist_ranker::ExamplePreprocessorConfig_Boundaries>::InnerMap::Node"* [ %195, %194 ], [ %206, %199 ]
  %202 = getelementptr inbounds %"struct.google::protobuf::Map<std::__1::basic_string<char, std::__1::char_traits<char>, std::__1::allocator<char> >, assist_ranker::ExamplePreprocessorConfig_Boundaries>::InnerMap::Node", %"struct.google::protobuf::Map<std::__1::basic_string<char, std::__1::char_traits<char>, std::__1::allocator<char> >, assist_ranker::ExamplePreprocessorConfig_Boundaries>::InnerMap::Node"* %201, i64 0, i32 0, i32 0
  %203 = getelementptr inbounds %"struct.google::protobuf::Map<std::__1::basic_string<char, std::__1::char_traits<char>, std::__1::allocator<char> >, assist_ranker::ExamplePreprocessorConfig_Boundaries>::InnerMap::Node", %"struct.google::protobuf::Map<std::__1::basic_string<char, std::__1::char_traits<char>, std::__1::allocator<char> >, assist_ranker::ExamplePreprocessorConfig_Boundaries>::InnerMap::Node"* %201, i64 0, i32 0, i32 1
  %204 = call i8* @_ZN6google8protobuf8internal13MapEntryFuncsINSt3__112basic_stringIcNS3_11char_traitsIcEENS3_9allocatorIcEEEEN13assist_ranker36ExamplePreprocessorConfig_BoundariesELNS1_14WireFormatLite9FieldTypeE9ELSD_11EE17InternalSerializeEiRKS9_RKSB_PhPNS0_2io19EpsCopyOutputStreamE(i32 2, %"class.std::__1::basic_string"* dereferenceable(24) %202, %"class.assist_ranker::ExamplePreprocessorConfig_Boundaries"* dereferenceable(40) %203, i8* %200, %"class.google::protobuf::io::EpsCopyOutputStream"* %2)
  %205 = call dereferenceable(24) %"class.google::protobuf::Map<std::__1::basic_string<char, std::__1::char_traits<char>, std::__1::allocator<char> >, assist_ranker::ExamplePreprocessorConfig_Boundaries>::InnerMap::iterator_base"* @_ZN6google8protobuf3MapINSt3__112basic_stringIcNS2_11char_traitsIcEENS2_9allocatorIcEEEEN13assist_ranker36ExamplePreprocessorConfig_BoundariesEE8InnerMap13iterator_baseIKNS0_7MapPairIS8_SA_EEEppEv(%"class.google::protobuf::Map<std::__1::basic_string<char, std::__1::char_traits<char>, std::__1::allocator<char> >, assist_ranker::ExamplePreprocessorConfig_Boundaries>::InnerMap::iterator_base"* nonnull %196) #15
  %206 = load %"struct.google::protobuf::Map<std::__1::basic_string<char, std::__1::char_traits<char>, std::__1::allocator<char> >, assist_ranker::ExamplePreprocessorConfig_Boundaries>::InnerMap::Node"*, %"struct.google::protobuf::Map<std::__1::basic_string<char, std::__1::char_traits<char>, std::__1::allocator<char> >, assist_ranker::ExamplePreprocessorConfig_Boundaries>::InnerMap::Node"** %153, align 8
  %207 = icmp eq %"struct.google::protobuf::Map<std::__1::basic_string<char, std::__1::char_traits<char>, std::__1::allocator<char> >, assist_ranker::ExamplePreprocessorConfig_Boundaries>::InnerMap::Node"* %206, null
  br i1 %207, label %197, label %199

208:                                              ; preds = %139, %197, %20
  %209 = phi i8* [ %21, %20 ], [ %140, %139 ], [ %198, %197 ]
  %210 = getelementptr inbounds %"class.assist_ranker::ExamplePreprocessorConfig", %"class.assist_ranker::ExamplePreprocessorConfig"* %0, i64 0, i32 3, i32 0
  %211 = getelementptr inbounds %"class.google::protobuf::Map.22", %"class.google::protobuf::Map.22"* %210, i64 0, i32 0, i32 0
  %212 = load i64, i64* %211, align 8
  %213 = icmp eq i64 %212, 0
  br i1 %213, label %355, label %214

214:                                              ; preds = %208
  %215 = getelementptr inbounds %"class.google::protobuf::io::EpsCopyOutputStream", %"class.google::protobuf::io::EpsCopyOutputStream"* %2, i64 0, i32 6
  %216 = load i8, i8* %215, align 2, !range !24
  %217 = icmp ne i8 %216, 0
  %218 = icmp ne i64 %212, 1
  %219 = and i1 %218, %217
  br i1 %219, label %220, label %298

220:                                              ; preds = %214
  %221 = call { i64, i1 } @llvm.umul.with.overflow.i64(i64 %212, i64 8)
  %222 = extractvalue { i64, i1 } %221, 1
  %223 = extractvalue { i64, i1 } %221, 0
  %224 = select i1 %222, i64 -1, i64 %223
  %225 = call i8* @_Znam(i64 %224) #16
  %226 = bitcast i8* %225 to %"struct.google::protobuf::MapPair.31"**
  %227 = bitcast %"class.google::protobuf::Map<std::__1::basic_string<char, std::__1::char_traits<char>, std::__1::allocator<char> >, int>::const_iterator"* %9 to i8*
  call void @llvm.lifetime.start.p0i8(i64 24, i8* nonnull %227) #15
  %228 = getelementptr inbounds %"class.google::protobuf::Map<std::__1::basic_string<char, std::__1::char_traits<char>, std::__1::allocator<char> >, int>::const_iterator", %"class.google::protobuf::Map<std::__1::basic_string<char, std::__1::char_traits<char>, std::__1::allocator<char> >, int>::const_iterator"* %9, i64 0, i32 0, i32 0
  %229 = getelementptr inbounds %"class.google::protobuf::Map<std::__1::basic_string<char, std::__1::char_traits<char>, std::__1::allocator<char> >, int>::const_iterator", %"class.google::protobuf::Map<std::__1::basic_string<char, std::__1::char_traits<char>, std::__1::allocator<char> >, int>::const_iterator"* %9, i64 0, i32 0, i32 1
  %230 = getelementptr inbounds %"class.google::protobuf::Map<std::__1::basic_string<char, std::__1::char_traits<char>, std::__1::allocator<char> >, int>::const_iterator", %"class.google::protobuf::Map<std::__1::basic_string<char, std::__1::char_traits<char>, std::__1::allocator<char> >, int>::const_iterator"* %9, i64 0, i32 0, i32 2
  %231 = getelementptr inbounds %"class.google::protobuf::Map.22", %"class.google::protobuf::Map.22"* %210, i64 0, i32 0
  %232 = getelementptr inbounds %"class.assist_ranker::ExamplePreprocessorConfig", %"class.assist_ranker::ExamplePreprocessorConfig"* %0, i64 0, i32 3, i32 0, i32 0, i32 3
  %233 = bitcast %"class.google::protobuf::Map<std::__1::basic_string<char, std::__1::char_traits<char>, std::__1::allocator<char> >, int>::const_iterator"* %9 to i8*
  call void @llvm.memset.p0i8.i64(i8* nonnull align 8 %233, i8 -86, i64 24, i1 false)
  %234 = load i64, i64* %232, align 8, !noalias !37
  %235 = getelementptr inbounds %"class.assist_ranker::ExamplePreprocessorConfig", %"class.assist_ranker::ExamplePreprocessorConfig"* %0, i64 0, i32 3, i32 0, i32 0, i32 1
  %236 = load i64, i64* %235, align 8, !noalias !37
  %237 = icmp ugt i64 %236, %234
  br i1 %237, label %238, label %262

238:                                              ; preds = %220
  %239 = getelementptr inbounds %"class.assist_ranker::ExamplePreprocessorConfig", %"class.assist_ranker::ExamplePreprocessorConfig"* %0, i64 0, i32 3, i32 0, i32 0, i32 4
  %240 = load i8**, i8*** %239, align 8, !noalias !37
  br label %241

241:                                              ; preds = %259, %238
  %242 = phi i64 [ %234, %238 ], [ %260, %259 ]
  %243 = getelementptr inbounds i8*, i8** %240, i64 %242
  %244 = load i8*, i8** %243, align 8, !noalias !37
  %245 = icmp eq i8* %244, null
  br i1 %245, label %259, label %246

246:                                              ; preds = %241
  %247 = xor i64 %242, 1
  %248 = getelementptr inbounds i8*, i8** %240, i64 %247
  %249 = load i8*, i8** %248, align 8, !noalias !37
  %250 = icmp eq i8* %244, %249
  br i1 %250, label %253, label %251

251:                                              ; preds = %246
  %252 = ptrtoint i8* %244 to i64
  br label %265

253:                                              ; preds = %246
  %254 = bitcast i8* %244 to %"class.std::__1::__tree_end_node"**
  %255 = load %"class.std::__1::__tree_end_node"*, %"class.std::__1::__tree_end_node"** %254, align 8, !noalias !37
  %256 = getelementptr inbounds %"class.std::__1::__tree_end_node", %"class.std::__1::__tree_end_node"* %255, i64 5
  %257 = bitcast %"class.std::__1::__tree_end_node"* %256 to i64*
  %258 = load i64, i64* %257, align 8, !noalias !37
  br label %265

259:                                              ; preds = %241
  %260 = add i64 %242, 1
  %261 = icmp eq i64 %260, %236
  br i1 %261, label %262, label %241

262:                                              ; preds = %259, %220
  %263 = phi i64 [ %234, %220 ], [ %236, %259 ]
  %264 = bitcast %"class.google::protobuf::Map<std::__1::basic_string<char, std::__1::char_traits<char>, std::__1::allocator<char> >, int>::const_iterator"* %9 to i64*
  store i64 0, i64* %264, align 8, !alias.scope !42
  store %"class.google::protobuf::Map<std::__1::basic_string<char, std::__1::char_traits<char>, std::__1::allocator<char> >, int>::InnerMap"* %231, %"class.google::protobuf::Map<std::__1::basic_string<char, std::__1::char_traits<char>, std::__1::allocator<char> >, int>::InnerMap"** %229, align 8, !alias.scope !42
  store i64 %263, i64* %230, align 8, !alias.scope !42
  br label %272

265:                                              ; preds = %251, %253
  %266 = phi i64 [ %258, %253 ], [ %252, %251 ]
  %267 = bitcast %"class.google::protobuf::Map<std::__1::basic_string<char, std::__1::char_traits<char>, std::__1::allocator<char> >, int>::const_iterator"* %9 to i64*
  store i64 %266, i64* %267, align 8, !alias.scope !42
  store %"class.google::protobuf::Map<std::__1::basic_string<char, std::__1::char_traits<char>, std::__1::allocator<char> >, int>::InnerMap"* %231, %"class.google::protobuf::Map<std::__1::basic_string<char, std::__1::char_traits<char>, std::__1::allocator<char> >, int>::InnerMap"** %229, align 8, !alias.scope !42
  store i64 %242, i64* %230, align 8, !alias.scope !42
  %268 = icmp eq i64 %266, 0
  br i1 %268, label %272, label %269

269:                                              ; preds = %265
  %270 = inttoptr i64 %266 to %"struct.google::protobuf::Map<std::__1::basic_string<char, std::__1::char_traits<char>, std::__1::allocator<char> >, int>::InnerMap::Node"*
  %271 = getelementptr inbounds %"class.google::protobuf::Map<std::__1::basic_string<char, std::__1::char_traits<char>, std::__1::allocator<char> >, int>::const_iterator", %"class.google::protobuf::Map<std::__1::basic_string<char, std::__1::char_traits<char>, std::__1::allocator<char> >, int>::const_iterator"* %9, i64 0, i32 0
  br label %277

272:                                              ; preds = %277, %262, %265
  %273 = phi i64 [ 0, %265 ], [ 0, %262 ], [ %283, %277 ]
  call void @llvm.lifetime.end.p0i8(i64 24, i8* nonnull %227) #15
  %274 = getelementptr inbounds %"struct.google::protobuf::MapPair.31"*, %"struct.google::protobuf::MapPair.31"** %226, i64 %273
  %275 = getelementptr inbounds %"struct.google::protobuf::internal::CompareByDerefFirst.35", %"struct.google::protobuf::internal::CompareByDerefFirst.35"* %5, i64 0, i32 0
  call void @llvm.lifetime.start.p0i8(i64 1, i8* nonnull %275)
  call void @_ZNSt3__16__sortIRN6google8protobuf8internal19CompareByDerefFirstIPKNS2_7MapPairINS_12basic_stringIcNS_11char_traitsIcEENS_9allocatorIcEEEEiEEEEPSE_EEvT0_SI_T_(%"struct.google::protobuf::MapPair.31"** nonnull %226, %"struct.google::protobuf::MapPair.31"** %274, %"struct.google::protobuf::internal::CompareByDerefFirst.35"* nonnull dereferenceable(1) %5) #15
  call void @llvm.lifetime.end.p0i8(i64 1, i8* nonnull %275)
  %276 = icmp eq i64 %273, 0
  br i1 %276, label %286, label %288

277:                                              ; preds = %269, %277
  %278 = phi i64 [ 0, %269 ], [ %283, %277 ]
  %279 = phi %"struct.google::protobuf::Map<std::__1::basic_string<char, std::__1::char_traits<char>, std::__1::allocator<char> >, int>::InnerMap::Node"* [ %270, %269 ], [ %284, %277 ]
  %280 = getelementptr inbounds %"struct.google::protobuf::Map<std::__1::basic_string<char, std::__1::char_traits<char>, std::__1::allocator<char> >, int>::InnerMap::Node", %"struct.google::protobuf::Map<std::__1::basic_string<char, std::__1::char_traits<char>, std::__1::allocator<char> >, int>::InnerMap::Node"* %279, i64 0, i32 0
  %281 = getelementptr inbounds %"struct.google::protobuf::MapPair.31"*, %"struct.google::protobuf::MapPair.31"** %226, i64 %278
  store %"struct.google::protobuf::MapPair.31"* %280, %"struct.google::protobuf::MapPair.31"** %281, align 8
  %282 = call dereferenceable(24) %"class.google::protobuf::Map<std::__1::basic_string<char, std::__1::char_traits<char>, std::__1::allocator<char> >, int>::InnerMap::iterator_base"* @_ZN6google8protobuf3MapINSt3__112basic_stringIcNS2_11char_traitsIcEENS2_9allocatorIcEEEEiE8InnerMap13iterator_baseIKNS0_7MapPairIS8_iEEEppEv(%"class.google::protobuf::Map<std::__1::basic_string<char, std::__1::char_traits<char>, std::__1::allocator<char> >, int>::InnerMap::iterator_base"* nonnull %271) #15
  %283 = add i64 %278, 1
  %284 = load %"struct.google::protobuf::Map<std::__1::basic_string<char, std::__1::char_traits<char>, std::__1::allocator<char> >, int>::InnerMap::Node"*, %"struct.google::protobuf::Map<std::__1::basic_string<char, std::__1::char_traits<char>, std::__1::allocator<char> >, int>::InnerMap::Node"** %228, align 8
  %285 = icmp eq %"struct.google::protobuf::Map<std::__1::basic_string<char, std::__1::char_traits<char>, std::__1::allocator<char> >, int>::InnerMap::Node"* %284, null
  br i1 %285, label %272, label %277

286:                                              ; preds = %288, %272
  %287 = phi i8* [ %209, %272 ], [ %295, %288 ]
  call void @_ZdaPv(i8* nonnull %225) #16
  br label %355

288:                                              ; preds = %272, %288
  %289 = phi i8* [ %295, %288 ], [ %209, %272 ]
  %290 = phi i64 [ %296, %288 ], [ 0, %272 ]
  %291 = getelementptr inbounds %"struct.google::protobuf::MapPair.31"*, %"struct.google::protobuf::MapPair.31"** %226, i64 %290
  %292 = load %"struct.google::protobuf::MapPair.31"*, %"struct.google::protobuf::MapPair.31"** %291, align 8
  %293 = getelementptr inbounds %"struct.google::protobuf::MapPair.31", %"struct.google::protobuf::MapPair.31"* %292, i64 0, i32 0
  %294 = getelementptr inbounds %"struct.google::protobuf::MapPair.31", %"struct.google::protobuf::MapPair.31"* %292, i64 0, i32 1
  %295 = call i8* @_ZN6google8protobuf8internal13MapEntryFuncsINSt3__112basic_stringIcNS3_11char_traitsIcEENS3_9allocatorIcEEEEiLNS1_14WireFormatLite9FieldTypeE9ELSB_5EE17InternalSerializeEiRKS9_RKiPhPNS0_2io19EpsCopyOutputStreamE(i32 3, %"class.std::__1::basic_string"* dereferenceable(24) %293, i32* dereferenceable(4) %294, i8* %289, %"class.google::protobuf::io::EpsCopyOutputStream"* %2)
  %296 = add nuw i64 %290, 1
  %297 = icmp eq i64 %296, %273
  br i1 %297, label %286, label %288

298:                                              ; preds = %214
  %299 = bitcast %"class.google::protobuf::Map<std::__1::basic_string<char, std::__1::char_traits<char>, std::__1::allocator<char> >, int>::const_iterator"* %10 to i8*
  call void @llvm.lifetime.start.p0i8(i64 24, i8* nonnull %299) #15
  %300 = getelementptr inbounds %"class.google::protobuf::Map<std::__1::basic_string<char, std::__1::char_traits<char>, std::__1::allocator<char> >, int>::const_iterator", %"class.google::protobuf::Map<std::__1::basic_string<char, std::__1::char_traits<char>, std::__1::allocator<char> >, int>::const_iterator"* %10, i64 0, i32 0, i32 0
  %301 = getelementptr inbounds %"class.google::protobuf::Map<std::__1::basic_string<char, std::__1::char_traits<char>, std::__1::allocator<char> >, int>::const_iterator", %"class.google::protobuf::Map<std::__1::basic_string<char, std::__1::char_traits<char>, std::__1::allocator<char> >, int>::const_iterator"* %10, i64 0, i32 0, i32 1
  %302 = getelementptr inbounds %"class.google::protobuf::Map<std::__1::basic_string<char, std::__1::char_traits<char>, std::__1::allocator<char> >, int>::const_iterator", %"class.google::protobuf::Map<std::__1::basic_string<char, std::__1::char_traits<char>, std::__1::allocator<char> >, int>::const_iterator"* %10, i64 0, i32 0, i32 2
  %303 = getelementptr inbounds %"class.google::protobuf::Map.22", %"class.google::protobuf::Map.22"* %210, i64 0, i32 0
  %304 = getelementptr inbounds %"class.assist_ranker::ExamplePreprocessorConfig", %"class.assist_ranker::ExamplePreprocessorConfig"* %0, i64 0, i32 3, i32 0, i32 0, i32 3
  %305 = bitcast %"class.google::protobuf::Map<std::__1::basic_string<char, std::__1::char_traits<char>, std::__1::allocator<char> >, int>::const_iterator"* %10 to i8*
  call void @llvm.memset.p0i8.i64(i8* nonnull align 8 %305, i8 -86, i64 24, i1 false)
  %306 = load i64, i64* %304, align 8, !noalias !43
  %307 = getelementptr inbounds %"class.assist_ranker::ExamplePreprocessorConfig", %"class.assist_ranker::ExamplePreprocessorConfig"* %0, i64 0, i32 3, i32 0, i32 0, i32 1
  %308 = load i64, i64* %307, align 8, !noalias !43
  %309 = icmp ugt i64 %308, %306
  br i1 %309, label %310, label %334

310:                                              ; preds = %298
  %311 = getelementptr inbounds %"class.assist_ranker::ExamplePreprocessorConfig", %"class.assist_ranker::ExamplePreprocessorConfig"* %0, i64 0, i32 3, i32 0, i32 0, i32 4
  %312 = load i8**, i8*** %311, align 8, !noalias !43
  br label %313

313:                                              ; preds = %331, %310
  %314 = phi i64 [ %306, %310 ], [ %332, %331 ]
  %315 = getelementptr inbounds i8*, i8** %312, i64 %314
  %316 = load i8*, i8** %315, align 8, !noalias !43
  %317 = icmp eq i8* %316, null
  br i1 %317, label %331, label %318

318:                                              ; preds = %313
  %319 = xor i64 %314, 1
  %320 = getelementptr inbounds i8*, i8** %312, i64 %319
  %321 = load i8*, i8** %320, align 8, !noalias !43
  %322 = icmp eq i8* %316, %321
  br i1 %322, label %325, label %323

323:                                              ; preds = %318
  %324 = ptrtoint i8* %316 to i64
  br label %337

325:                                              ; preds = %318
  %326 = bitcast i8* %316 to %"class.std::__1::__tree_end_node"**
  %327 = load %"class.std::__1::__tree_end_node"*, %"class.std::__1::__tree_end_node"** %326, align 8, !noalias !43
  %328 = getelementptr inbounds %"class.std::__1::__tree_end_node", %"class.std::__1::__tree_end_node"* %327, i64 5
  %329 = bitcast %"class.std::__1::__tree_end_node"* %328 to i64*
  %330 = load i64, i64* %329, align 8, !noalias !43
  br label %337

331:                                              ; preds = %313
  %332 = add i64 %314, 1
  %333 = icmp eq i64 %332, %308
  br i1 %333, label %334, label %313

334:                                              ; preds = %331, %298
  %335 = phi i64 [ %306, %298 ], [ %308, %331 ]
  %336 = bitcast %"class.google::protobuf::Map<std::__1::basic_string<char, std::__1::char_traits<char>, std::__1::allocator<char> >, int>::const_iterator"* %10 to i64*
  store i64 0, i64* %336, align 8, !alias.scope !48
  store %"class.google::protobuf::Map<std::__1::basic_string<char, std::__1::char_traits<char>, std::__1::allocator<char> >, int>::InnerMap"* %303, %"class.google::protobuf::Map<std::__1::basic_string<char, std::__1::char_traits<char>, std::__1::allocator<char> >, int>::InnerMap"** %301, align 8, !alias.scope !48
  store i64 %335, i64* %302, align 8, !alias.scope !48
  br label %344

337:                                              ; preds = %323, %325
  %338 = phi i64 [ %330, %325 ], [ %324, %323 ]
  %339 = bitcast %"class.google::protobuf::Map<std::__1::basic_string<char, std::__1::char_traits<char>, std::__1::allocator<char> >, int>::const_iterator"* %10 to i64*
  store i64 %338, i64* %339, align 8, !alias.scope !48
  store %"class.google::protobuf::Map<std::__1::basic_string<char, std::__1::char_traits<char>, std::__1::allocator<char> >, int>::InnerMap"* %303, %"class.google::protobuf::Map<std::__1::basic_string<char, std::__1::char_traits<char>, std::__1::allocator<char> >, int>::InnerMap"** %301, align 8, !alias.scope !48
  store i64 %314, i64* %302, align 8, !alias.scope !48
  %340 = icmp eq i64 %338, 0
  br i1 %340, label %344, label %341

341:                                              ; preds = %337
  %342 = inttoptr i64 %338 to %"struct.google::protobuf::Map<std::__1::basic_string<char, std::__1::char_traits<char>, std::__1::allocator<char> >, int>::InnerMap::Node"*
  %343 = getelementptr inbounds %"class.google::protobuf::Map<std::__1::basic_string<char, std::__1::char_traits<char>, std::__1::allocator<char> >, int>::const_iterator", %"class.google::protobuf::Map<std::__1::basic_string<char, std::__1::char_traits<char>, std::__1::allocator<char> >, int>::const_iterator"* %10, i64 0, i32 0
  br label %346

344:                                              ; preds = %346, %334, %337
  %345 = phi i8* [ %209, %337 ], [ %209, %334 ], [ %351, %346 ]
  call void @llvm.lifetime.end.p0i8(i64 24, i8* nonnull %299) #15
  br label %355

346:                                              ; preds = %341, %346
  %347 = phi i8* [ %209, %341 ], [ %351, %346 ]
  %348 = phi %"struct.google::protobuf::Map<std::__1::basic_string<char, std::__1::char_traits<char>, std::__1::allocator<char> >, int>::InnerMap::Node"* [ %342, %341 ], [ %353, %346 ]
  %349 = getelementptr inbounds %"struct.google::protobuf::Map<std::__1::basic_string<char, std::__1::char_traits<char>, std::__1::allocator<char> >, int>::InnerMap::Node", %"struct.google::protobuf::Map<std::__1::basic_string<char, std::__1::char_traits<char>, std::__1::allocator<char> >, int>::InnerMap::Node"* %348, i64 0, i32 0, i32 0
  %350 = getelementptr inbounds %"struct.google::protobuf::Map<std::__1::basic_string<char, std::__1::char_traits<char>, std::__1::allocator<char> >, int>::InnerMap::Node", %"struct.google::protobuf::Map<std::__1::basic_string<char, std::__1::char_traits<char>, std::__1::allocator<char> >, int>::InnerMap::Node"* %348, i64 0, i32 0, i32 1
  %351 = call i8* @_ZN6google8protobuf8internal13MapEntryFuncsINSt3__112basic_stringIcNS3_11char_traitsIcEENS3_9allocatorIcEEEEiLNS1_14WireFormatLite9FieldTypeE9ELSB_5EE17InternalSerializeEiRKS9_RKiPhPNS0_2io19EpsCopyOutputStreamE(i32 3, %"class.std::__1::basic_string"* dereferenceable(24) %349, i32* dereferenceable(4) %350, i8* %347, %"class.google::protobuf::io::EpsCopyOutputStream"* %2)
  %352 = call dereferenceable(24) %"class.google::protobuf::Map<std::__1::basic_string<char, std::__1::char_traits<char>, std::__1::allocator<char> >, int>::InnerMap::iterator_base"* @_ZN6google8protobuf3MapINSt3__112basic_stringIcNS2_11char_traitsIcEENS2_9allocatorIcEEEEiE8InnerMap13iterator_baseIKNS0_7MapPairIS8_iEEEppEv(%"class.google::protobuf::Map<std::__1::basic_string<char, std::__1::char_traits<char>, std::__1::allocator<char> >, int>::InnerMap::iterator_base"* nonnull %343) #15
  %353 = load %"struct.google::protobuf::Map<std::__1::basic_string<char, std::__1::char_traits<char>, std::__1::allocator<char> >, int>::InnerMap::Node"*, %"struct.google::protobuf::Map<std::__1::basic_string<char, std::__1::char_traits<char>, std::__1::allocator<char> >, int>::InnerMap::Node"** %300, align 8
  %354 = icmp eq %"struct.google::protobuf::Map<std::__1::basic_string<char, std::__1::char_traits<char>, std::__1::allocator<char> >, int>::InnerMap::Node"* %353, null
  br i1 %354, label %344, label %346

355:                                              ; preds = %286, %344, %208
  %356 = phi i8* [ %209, %208 ], [ %287, %286 ], [ %345, %344 ]
  %357 = getelementptr inbounds %"class.assist_ranker::ExamplePreprocessorConfig", %"class.assist_ranker::ExamplePreprocessorConfig"* %0, i64 0, i32 4, i32 0
  %358 = getelementptr inbounds %"class.google::protobuf::Map.24", %"class.google::protobuf::Map.24"* %357, i64 0, i32 0, i32 0
  %359 = load i64, i64* %358, align 8
  %360 = icmp eq i64 %359, 0
  br i1 %360, label %502, label %361

361:                                              ; preds = %355
  %362 = getelementptr inbounds %"class.google::protobuf::io::EpsCopyOutputStream", %"class.google::protobuf::io::EpsCopyOutputStream"* %2, i64 0, i32 6
  %363 = load i8, i8* %362, align 2, !range !24
  %364 = icmp ne i8 %363, 0
  %365 = icmp ne i64 %359, 1
  %366 = and i1 %365, %364
  br i1 %366, label %367, label %445

367:                                              ; preds = %361
  %368 = call { i64, i1 } @llvm.umul.with.overflow.i64(i64 %359, i64 8)
  %369 = extractvalue { i64, i1 } %368, 1
  %370 = extractvalue { i64, i1 } %368, 0
  %371 = select i1 %369, i64 -1, i64 %370
  %372 = call i8* @_Znam(i64 %371) #16
  %373 = bitcast i8* %372 to %"struct.google::protobuf::MapPair.39"**
  %374 = bitcast %"class.google::protobuf::Map<std::__1::basic_string<char, std::__1::char_traits<char>, std::__1::allocator<char> >, float>::const_iterator"* %11 to i8*
  call void @llvm.lifetime.start.p0i8(i64 24, i8* nonnull %374) #15
  %375 = getelementptr inbounds %"class.google::protobuf::Map<std::__1::basic_string<char, std::__1::char_traits<char>, std::__1::allocator<char> >, float>::const_iterator", %"class.google::protobuf::Map<std::__1::basic_string<char, std::__1::char_traits<char>, std::__1::allocator<char> >, float>::const_iterator"* %11, i64 0, i32 0, i32 0
  %376 = getelementptr inbounds %"class.google::protobuf::Map<std::__1::basic_string<char, std::__1::char_traits<char>, std::__1::allocator<char> >, float>::const_iterator", %"class.google::protobuf::Map<std::__1::basic_string<char, std::__1::char_traits<char>, std::__1::allocator<char> >, float>::const_iterator"* %11, i64 0, i32 0, i32 1
  %377 = getelementptr inbounds %"class.google::protobuf::Map<std::__1::basic_string<char, std::__1::char_traits<char>, std::__1::allocator<char> >, float>::const_iterator", %"class.google::protobuf::Map<std::__1::basic_string<char, std::__1::char_traits<char>, std::__1::allocator<char> >, float>::const_iterator"* %11, i64 0, i32 0, i32 2
  %378 = getelementptr inbounds %"class.google::protobuf::Map.24", %"class.google::protobuf::Map.24"* %357, i64 0, i32 0
  %379 = getelementptr inbounds %"class.assist_ranker::ExamplePreprocessorConfig", %"class.assist_ranker::ExamplePreprocessorConfig"* %0, i64 0, i32 4, i32 0, i32 0, i32 3
  %380 = bitcast %"class.google::protobuf::Map<std::__1::basic_string<char, std::__1::char_traits<char>, std::__1::allocator<char> >, float>::const_iterator"* %11 to i8*
  call void @llvm.memset.p0i8.i64(i8* nonnull align 8 %380, i8 -86, i64 24, i1 false)
  %381 = load i64, i64* %379, align 8, !noalias !49
  %382 = getelementptr inbounds %"class.assist_ranker::ExamplePreprocessorConfig", %"class.assist_ranker::ExamplePreprocessorConfig"* %0, i64 0, i32 4, i32 0, i32 0, i32 1
  %383 = load i64, i64* %382, align 8, !noalias !49
  %384 = icmp ugt i64 %383, %381
  br i1 %384, label %385, label %409

385:                                              ; preds = %367
  %386 = getelementptr inbounds %"class.assist_ranker::ExamplePreprocessorConfig", %"class.assist_ranker::ExamplePreprocessorConfig"* %0, i64 0, i32 4, i32 0, i32 0, i32 4
  %387 = load i8**, i8*** %386, align 8, !noalias !49
  br label %388

388:                                              ; preds = %406, %385
  %389 = phi i64 [ %381, %385 ], [ %407, %406 ]
  %390 = getelementptr inbounds i8*, i8** %387, i64 %389
  %391 = load i8*, i8** %390, align 8, !noalias !49
  %392 = icmp eq i8* %391, null
  br i1 %392, label %406, label %393

393:                                              ; preds = %388
  %394 = xor i64 %389, 1
  %395 = getelementptr inbounds i8*, i8** %387, i64 %394
  %396 = load i8*, i8** %395, align 8, !noalias !49
  %397 = icmp eq i8* %391, %396
  br i1 %397, label %400, label %398

398:                                              ; preds = %393
  %399 = ptrtoint i8* %391 to i64
  br label %412

400:                                              ; preds = %393
  %401 = bitcast i8* %391 to %"class.std::__1::__tree_end_node"**
  %402 = load %"class.std::__1::__tree_end_node"*, %"class.std::__1::__tree_end_node"** %401, align 8, !noalias !49
  %403 = getelementptr inbounds %"class.std::__1::__tree_end_node", %"class.std::__1::__tree_end_node"* %402, i64 5
  %404 = bitcast %"class.std::__1::__tree_end_node"* %403 to i64*
  %405 = load i64, i64* %404, align 8, !noalias !49
  br label %412

406:                                              ; preds = %388
  %407 = add i64 %389, 1
  %408 = icmp eq i64 %407, %383
  br i1 %408, label %409, label %388

409:                                              ; preds = %406, %367
  %410 = phi i64 [ %381, %367 ], [ %383, %406 ]
  %411 = bitcast %"class.google::protobuf::Map<std::__1::basic_string<char, std::__1::char_traits<char>, std::__1::allocator<char> >, float>::const_iterator"* %11 to i64*
  store i64 0, i64* %411, align 8, !alias.scope !54
  store %"class.google::protobuf::Map<std::__1::basic_string<char, std::__1::char_traits<char>, std::__1::allocator<char> >, float>::InnerMap"* %378, %"class.google::protobuf::Map<std::__1::basic_string<char, std::__1::char_traits<char>, std::__1::allocator<char> >, float>::InnerMap"** %376, align 8, !alias.scope !54
  store i64 %410, i64* %377, align 8, !alias.scope !54
  br label %419

412:                                              ; preds = %398, %400
  %413 = phi i64 [ %405, %400 ], [ %399, %398 ]
  %414 = bitcast %"class.google::protobuf::Map<std::__1::basic_string<char, std::__1::char_traits<char>, std::__1::allocator<char> >, float>::const_iterator"* %11 to i64*
  store i64 %413, i64* %414, align 8, !alias.scope !54
  store %"class.google::protobuf::Map<std::__1::basic_string<char, std::__1::char_traits<char>, std::__1::allocator<char> >, float>::InnerMap"* %378, %"class.google::protobuf::Map<std::__1::basic_string<char, std::__1::char_traits<char>, std::__1::allocator<char> >, float>::InnerMap"** %376, align 8, !alias.scope !54
  store i64 %389, i64* %377, align 8, !alias.scope !54
  %415 = icmp eq i64 %413, 0
  br i1 %415, label %419, label %416

416:                                              ; preds = %412
  %417 = inttoptr i64 %413 to %"struct.google::protobuf::Map<std::__1::basic_string<char, std::__1::char_traits<char>, std::__1::allocator<char> >, float>::InnerMap::Node"*
  %418 = getelementptr inbounds %"class.google::protobuf::Map<std::__1::basic_string<char, std::__1::char_traits<char>, std::__1::allocator<char> >, float>::const_iterator", %"class.google::protobuf::Map<std::__1::basic_string<char, std::__1::char_traits<char>, std::__1::allocator<char> >, float>::const_iterator"* %11, i64 0, i32 0
  br label %424

419:                                              ; preds = %424, %409, %412
  %420 = phi i64 [ 0, %412 ], [ 0, %409 ], [ %430, %424 ]
  call void @llvm.lifetime.end.p0i8(i64 24, i8* nonnull %374) #15
  %421 = getelementptr inbounds %"struct.google::protobuf::MapPair.39"*, %"struct.google::protobuf::MapPair.39"** %373, i64 %420
  %422 = getelementptr inbounds %"struct.google::protobuf::internal::CompareByDerefFirst.44", %"struct.google::protobuf::internal::CompareByDerefFirst.44"* %6, i64 0, i32 0
  call void @llvm.lifetime.start.p0i8(i64 1, i8* nonnull %422)
  call void @_ZNSt3__16__sortIRN6google8protobuf8internal19CompareByDerefFirstIPKNS2_7MapPairINS_12basic_stringIcNS_11char_traitsIcEENS_9allocatorIcEEEEfEEEEPSE_EEvT0_SI_T_(%"struct.google::protobuf::MapPair.39"** nonnull %373, %"struct.google::protobuf::MapPair.39"** %421, %"struct.google::protobuf::internal::CompareByDerefFirst.44"* nonnull dereferenceable(1) %6) #15
  call void @llvm.lifetime.end.p0i8(i64 1, i8* nonnull %422)
  %423 = icmp eq i64 %420, 0
  br i1 %423, label %433, label %435

424:                                              ; preds = %416, %424
  %425 = phi i64 [ 0, %416 ], [ %430, %424 ]
  %426 = phi %"struct.google::protobuf::Map<std::__1::basic_string<char, std::__1::char_traits<char>, std::__1::allocator<char> >, float>::InnerMap::Node"* [ %417, %416 ], [ %431, %424 ]
  %427 = getelementptr inbounds %"struct.google::protobuf::Map<std::__1::basic_string<char, std::__1::char_traits<char>, std::__1::allocator<char> >, float>::InnerMap::Node", %"struct.google::protobuf::Map<std::__1::basic_string<char, std::__1::char_traits<char>, std::__1::allocator<char> >, float>::InnerMap::Node"* %426, i64 0, i32 0
  %428 = getelementptr inbounds %"struct.google::protobuf::MapPair.39"*, %"struct.google::protobuf::MapPair.39"** %373, i64 %425
  store %"struct.google::protobuf::MapPair.39"* %427, %"struct.google::protobuf::MapPair.39"** %428, align 8
  %429 = call dereferenceable(24) %"class.google::protobuf::Map<std::__1::basic_string<char, std::__1::char_traits<char>, std::__1::allocator<char> >, float>::InnerMap::iterator_base"* @_ZN6google8protobuf3MapINSt3__112basic_stringIcNS2_11char_traitsIcEENS2_9allocatorIcEEEEfE8InnerMap13iterator_baseIKNS0_7MapPairIS8_fEEEppEv(%"class.google::protobuf::Map<std::__1::basic_string<char, std::__1::char_traits<char>, std::__1::allocator<char> >, float>::InnerMap::iterator_base"* nonnull %418) #15
  %430 = add i64 %425, 1
  %431 = load %"struct.google::protobuf::Map<std::__1::basic_string<char, std::__1::char_traits<char>, std::__1::allocator<char> >, float>::InnerMap::Node"*, %"struct.google::protobuf::Map<std::__1::basic_string<char, std::__1::char_traits<char>, std::__1::allocator<char> >, float>::InnerMap::Node"** %375, align 8
  %432 = icmp eq %"struct.google::protobuf::Map<std::__1::basic_string<char, std::__1::char_traits<char>, std::__1::allocator<char> >, float>::InnerMap::Node"* %431, null
  br i1 %432, label %419, label %424

433:                                              ; preds = %435, %419
  %434 = phi i8* [ %356, %419 ], [ %442, %435 ]
  call void @_ZdaPv(i8* nonnull %372) #16
  br label %502

435:                                              ; preds = %419, %435
  %436 = phi i8* [ %442, %435 ], [ %356, %419 ]
  %437 = phi i64 [ %443, %435 ], [ 0, %419 ]
  %438 = getelementptr inbounds %"struct.google::protobuf::MapPair.39"*, %"struct.google::protobuf::MapPair.39"** %373, i64 %437
  %439 = load %"struct.google::protobuf::MapPair.39"*, %"struct.google::protobuf::MapPair.39"** %438, align 8
  %440 = getelementptr inbounds %"struct.google::protobuf::MapPair.39", %"struct.google::protobuf::MapPair.39"* %439, i64 0, i32 0
  %441 = getelementptr inbounds %"struct.google::protobuf::MapPair.39", %"struct.google::protobuf::MapPair.39"* %439, i64 0, i32 1
  %442 = call i8* @_ZN6google8protobuf8internal13MapEntryFuncsINSt3__112basic_stringIcNS3_11char_traitsIcEENS3_9allocatorIcEEEEfLNS1_14WireFormatLite9FieldTypeE9ELSB_2EE17InternalSerializeEiRKS9_RKfPhPNS0_2io19EpsCopyOutputStreamE(i32 4, %"class.std::__1::basic_string"* dereferenceable(24) %440, float* dereferenceable(4) %441, i8* %436, %"class.google::protobuf::io::EpsCopyOutputStream"* %2)
  %443 = add nuw i64 %437, 1
  %444 = icmp eq i64 %443, %420
  br i1 %444, label %433, label %435

445:                                              ; preds = %361
  %446 = bitcast %"class.google::protobuf::Map<std::__1::basic_string<char, std::__1::char_traits<char>, std::__1::allocator<char> >, float>::const_iterator"* %12 to i8*
  call void @llvm.lifetime.start.p0i8(i64 24, i8* nonnull %446) #15
  %447 = getelementptr inbounds %"class.google::protobuf::Map<std::__1::basic_string<char, std::__1::char_traits<char>, std::__1::allocator<char> >, float>::const_iterator", %"class.google::protobuf::Map<std::__1::basic_string<char, std::__1::char_traits<char>, std::__1::allocator<char> >, float>::const_iterator"* %12, i64 0, i32 0, i32 0
  %448 = getelementptr inbounds %"class.google::protobuf::Map<std::__1::basic_string<char, std::__1::char_traits<char>, std::__1::allocator<char> >, float>::const_iterator", %"class.google::protobuf::Map<std::__1::basic_string<char, std::__1::char_traits<char>, std::__1::allocator<char> >, float>::const_iterator"* %12, i64 0, i32 0, i32 1
  %449 = getelementptr inbounds %"class.google::protobuf::Map<std::__1::basic_string<char, std::__1::char_traits<char>, std::__1::allocator<char> >, float>::const_iterator", %"class.google::protobuf::Map<std::__1::basic_string<char, std::__1::char_traits<char>, std::__1::allocator<char> >, float>::const_iterator"* %12, i64 0, i32 0, i32 2
  %450 = getelementptr inbounds %"class.google::protobuf::Map.24", %"class.google::protobuf::Map.24"* %357, i64 0, i32 0
  %451 = getelementptr inbounds %"class.assist_ranker::ExamplePreprocessorConfig", %"class.assist_ranker::ExamplePreprocessorConfig"* %0, i64 0, i32 4, i32 0, i32 0, i32 3
  %452 = bitcast %"class.google::protobuf::Map<std::__1::basic_string<char, std::__1::char_traits<char>, std::__1::allocator<char> >, float>::const_iterator"* %12 to i8*
  call void @llvm.memset.p0i8.i64(i8* nonnull align 8 %452, i8 -86, i64 24, i1 false)
  %453 = load i64, i64* %451, align 8, !noalias !55
  %454 = getelementptr inbounds %"class.assist_ranker::ExamplePreprocessorConfig", %"class.assist_ranker::ExamplePreprocessorConfig"* %0, i64 0, i32 4, i32 0, i32 0, i32 1
  %455 = load i64, i64* %454, align 8, !noalias !55
  %456 = icmp ugt i64 %455, %453
  br i1 %456, label %457, label %481

457:                                              ; preds = %445
  %458 = getelementptr inbounds %"class.assist_ranker::ExamplePreprocessorConfig", %"class.assist_ranker::ExamplePreprocessorConfig"* %0, i64 0, i32 4, i32 0, i32 0, i32 4
  %459 = load i8**, i8*** %458, align 8, !noalias !55
  br label %460

460:                                              ; preds = %478, %457
  %461 = phi i64 [ %453, %457 ], [ %479, %478 ]
  %462 = getelementptr inbounds i8*, i8** %459, i64 %461
  %463 = load i8*, i8** %462, align 8, !noalias !55
  %464 = icmp eq i8* %463, null
  br i1 %464, label %478, label %465

465:                                              ; preds = %460
  %466 = xor i64 %461, 1
  %467 = getelementptr inbounds i8*, i8** %459, i64 %466
  %468 = load i8*, i8** %467, align 8, !noalias !55
  %469 = icmp eq i8* %463, %468
  br i1 %469, label %472, label %470

470:                                              ; preds = %465
  %471 = ptrtoint i8* %463 to i64
  br label %484

472:                                              ; preds = %465
  %473 = bitcast i8* %463 to %"class.std::__1::__tree_end_node"**
  %474 = load %"class.std::__1::__tree_end_node"*, %"class.std::__1::__tree_end_node"** %473, align 8, !noalias !55
  %475 = getelementptr inbounds %"class.std::__1::__tree_end_node", %"class.std::__1::__tree_end_node"* %474, i64 5
  %476 = bitcast %"class.std::__1::__tree_end_node"* %475 to i64*
  %477 = load i64, i64* %476, align 8, !noalias !55
  br label %484

478:                                              ; preds = %460
  %479 = add i64 %461, 1
  %480 = icmp eq i64 %479, %455
  br i1 %480, label %481, label %460

481:                                              ; preds = %478, %445
  %482 = phi i64 [ %453, %445 ], [ %455, %478 ]
  %483 = bitcast %"class.google::protobuf::Map<std::__1::basic_string<char, std::__1::char_traits<char>, std::__1::allocator<char> >, float>::const_iterator"* %12 to i64*
  store i64 0, i64* %483, align 8, !alias.scope !60
  store %"class.google::protobuf::Map<std::__1::basic_string<char, std::__1::char_traits<char>, std::__1::allocator<char> >, float>::InnerMap"* %450, %"class.google::protobuf::Map<std::__1::basic_string<char, std::__1::char_traits<char>, std::__1::allocator<char> >, float>::InnerMap"** %448, align 8, !alias.scope !60
  store i64 %482, i64* %449, align 8, !alias.scope !60
  br label %491

484:                                              ; preds = %470, %472
  %485 = phi i64 [ %477, %472 ], [ %471, %470 ]
  %486 = bitcast %"class.google::protobuf::Map<std::__1::basic_string<char, std::__1::char_traits<char>, std::__1::allocator<char> >, float>::const_iterator"* %12 to i64*
  store i64 %485, i64* %486, align 8, !alias.scope !60
  store %"class.google::protobuf::Map<std::__1::basic_string<char, std::__1::char_traits<char>, std::__1::allocator<char> >, float>::InnerMap"* %450, %"class.google::protobuf::Map<std::__1::basic_string<char, std::__1::char_traits<char>, std::__1::allocator<char> >, float>::InnerMap"** %448, align 8, !alias.scope !60
  store i64 %461, i64* %449, align 8, !alias.scope !60
  %487 = icmp eq i64 %485, 0
  br i1 %487, label %491, label %488

488:                                              ; preds = %484
  %489 = inttoptr i64 %485 to %"struct.google::protobuf::Map<std::__1::basic_string<char, std::__1::char_traits<char>, std::__1::allocator<char> >, float>::InnerMap::Node"*
  %490 = getelementptr inbounds %"class.google::protobuf::Map<std::__1::basic_string<char, std::__1::char_traits<char>, std::__1::allocator<char> >, float>::const_iterator", %"class.google::protobuf::Map<std::__1::basic_string<char, std::__1::char_traits<char>, std::__1::allocator<char> >, float>::const_iterator"* %12, i64 0, i32 0
  br label %493

491:                                              ; preds = %493, %481, %484
  %492 = phi i8* [ %356, %484 ], [ %356, %481 ], [ %498, %493 ]
  call void @llvm.lifetime.end.p0i8(i64 24, i8* nonnull %446) #15
  br label %502

493:                                              ; preds = %488, %493
  %494 = phi i8* [ %356, %488 ], [ %498, %493 ]
  %495 = phi %"struct.google::protobuf::Map<std::__1::basic_string<char, std::__1::char_traits<char>, std::__1::allocator<char> >, float>::InnerMap::Node"* [ %489, %488 ], [ %500, %493 ]
  %496 = getelementptr inbounds %"struct.google::protobuf::Map<std::__1::basic_string<char, std::__1::char_traits<char>, std::__1::allocator<char> >, float>::InnerMap::Node", %"struct.google::protobuf::Map<std::__1::basic_string<char, std::__1::char_traits<char>, std::__1::allocator<char> >, float>::InnerMap::Node"* %495, i64 0, i32 0, i32 0
  %497 = getelementptr inbounds %"struct.google::protobuf::Map<std::__1::basic_string<char, std::__1::char_traits<char>, std::__1::allocator<char> >, float>::InnerMap::Node", %"struct.google::protobuf::Map<std::__1::basic_string<char, std::__1::char_traits<char>, std::__1::allocator<char> >, float>::InnerMap::Node"* %495, i64 0, i32 0, i32 1
  %498 = call i8* @_ZN6google8protobuf8internal13MapEntryFuncsINSt3__112basic_stringIcNS3_11char_traitsIcEENS3_9allocatorIcEEEEfLNS1_14WireFormatLite9FieldTypeE9ELSB_2EE17InternalSerializeEiRKS9_RKfPhPNS0_2io19EpsCopyOutputStreamE(i32 4, %"class.std::__1::basic_string"* dereferenceable(24) %496, float* dereferenceable(4) %497, i8* %494, %"class.google::protobuf::io::EpsCopyOutputStream"* %2)
  %499 = call dereferenceable(24) %"class.google::protobuf::Map<std::__1::basic_string<char, std::__1::char_traits<char>, std::__1::allocator<char> >, float>::InnerMap::iterator_base"* @_ZN6google8protobuf3MapINSt3__112basic_stringIcNS2_11char_traitsIcEENS2_9allocatorIcEEEEfE8InnerMap13iterator_baseIKNS0_7MapPairIS8_fEEEppEv(%"class.google::protobuf::Map<std::__1::basic_string<char, std::__1::char_traits<char>, std::__1::allocator<char> >, float>::InnerMap::iterator_base"* nonnull %490) #15
  %500 = load %"struct.google::protobuf::Map<std::__1::basic_string<char, std::__1::char_traits<char>, std::__1::allocator<char> >, float>::InnerMap::Node"*, %"struct.google::protobuf::Map<std::__1::basic_string<char, std::__1::char_traits<char>, std::__1::allocator<char> >, float>::InnerMap::Node"** %447, align 8
  %501 = icmp eq %"struct.google::protobuf::Map<std::__1::basic_string<char, std::__1::char_traits<char>, std::__1::allocator<char> >, float>::InnerMap::Node"* %500, null
  br i1 %501, label %491, label %493

502:                                              ; preds = %433, %491, %355
  %503 = phi i8* [ %356, %355 ], [ %434, %433 ], [ %492, %491 ]
  %504 = getelementptr inbounds %"class.assist_ranker::ExamplePreprocessorConfig", %"class.assist_ranker::ExamplePreprocessorConfig"* %0, i64 0, i32 5, i32 0, i32 1
  %505 = load i32, i32* %504, align 8
  %506 = icmp sgt i32 %505, 0
  br i1 %506, label %507, label %511

507:                                              ; preds = %502
  %508 = getelementptr inbounds %"class.assist_ranker::ExamplePreprocessorConfig", %"class.assist_ranker::ExamplePreprocessorConfig"* %0, i64 0, i32 5, i32 0, i32 3
  %509 = bitcast %"class.google::protobuf::io::EpsCopyOutputStream"* %2 to i64*
  %510 = zext i32 %505 to i64
  br label %518

511:                                              ; preds = %555, %502
  %512 = phi i8* [ %503, %502 ], [ %556, %555 ]
  %513 = getelementptr inbounds %"class.assist_ranker::ExamplePreprocessorConfig", %"class.assist_ranker::ExamplePreprocessorConfig"* %0, i64 0, i32 0, i32 1
  %514 = bitcast %"class.google::protobuf::internal::InternalMetadata"* %513 to i64*
  %515 = load i64, i64* %514, align 8
  %516 = and i64 %515, 1
  %517 = icmp eq i64 %516, 0
  br i1 %517, label %590, label %559, !prof !3

518:                                              ; preds = %555, %507
  %519 = phi i64 [ 0, %507 ], [ %557, %555 ]
  %520 = phi i8* [ %503, %507 ], [ %556, %555 ]
  %521 = load %"struct.google::protobuf::internal::RepeatedPtrFieldBase::Rep"*, %"struct.google::protobuf::internal::RepeatedPtrFieldBase::Rep"** %508, align 8
  %522 = getelementptr inbounds %"struct.google::protobuf::internal::RepeatedPtrFieldBase::Rep", %"struct.google::protobuf::internal::RepeatedPtrFieldBase::Rep"* %521, i64 0, i32 1, i64 %519
  %523 = bitcast i8** %522 to %"class.std::__1::basic_string"**
  %524 = load %"class.std::__1::basic_string"*, %"class.std::__1::basic_string"** %523, align 8
  %525 = bitcast %"class.std::__1::basic_string"* %524 to %"struct.std::__1::basic_string<char, std::__1::char_traits<char>, std::__1::allocator<char> >::__short"*
  %526 = getelementptr inbounds %"struct.std::__1::basic_string<char, std::__1::char_traits<char>, std::__1::allocator<char> >::__short", %"struct.std::__1::basic_string<char, std::__1::char_traits<char>, std::__1::allocator<char> >::__short"* %525, i64 0, i32 1, i32 0
  %527 = load i8, i8* %526, align 1
  %528 = icmp slt i8 %527, 0
  br i1 %528, label %531, label %529

529:                                              ; preds = %518
  %530 = zext i8 %527 to i64
  br label %535

531:                                              ; preds = %518
  %532 = getelementptr inbounds %"class.std::__1::basic_string", %"class.std::__1::basic_string"* %524, i64 0, i32 0, i32 0, i32 0, i32 0, i32 0, i32 1
  %533 = load i64, i64* %532, align 8
  %534 = icmp sgt i64 %533, 127
  br i1 %534, label %542, label %535, !prof !2

535:                                              ; preds = %531, %529
  %536 = phi i64 [ %530, %529 ], [ %533, %531 ]
  %537 = load i64, i64* %509, align 8
  %538 = ptrtoint i8* %520 to i64
  %539 = sub i64 14, %538
  %540 = add i64 %539, %537
  %541 = icmp slt i64 %540, %536
  br i1 %541, label %542, label %544, !prof !2

542:                                              ; preds = %535, %531
  %543 = call i8* @_ZN6google8protobuf2io19EpsCopyOutputStream18WriteStringOutlineEjRKNSt3__112basic_stringIcNS3_11char_traitsIcEENS3_9allocatorIcEEEEPh(%"class.google::protobuf::io::EpsCopyOutputStream"* %2, i32 5, %"class.std::__1::basic_string"* dereferenceable(24) %524, i8* %520) #15
  br label %555

544:                                              ; preds = %535
  store i8 42, i8* %520, align 1
  %545 = getelementptr inbounds i8, i8* %520, i64 1
  %546 = trunc i64 %536 to i8
  %547 = getelementptr inbounds i8, i8* %520, i64 2
  store i8 %546, i8* %545, align 1
  %548 = load i8, i8* %526, align 1
  %549 = icmp slt i8 %548, 0
  %550 = getelementptr inbounds %"class.std::__1::basic_string", %"class.std::__1::basic_string"* %524, i64 0, i32 0, i32 0, i32 0, i32 0, i32 0, i32 0
  %551 = load i8*, i8** %550, align 8
  %552 = bitcast %"class.std::__1::basic_string"* %524 to i8*
  %553 = select i1 %549, i8* %551, i8* %552
  call void @llvm.memcpy.p0i8.p0i8.i64(i8* align 1 %547, i8* align 1 %553, i64 %536, i1 false) #15
  %554 = getelementptr inbounds i8, i8* %547, i64 %536
  br label %555

555:                                              ; preds = %542, %544
  %556 = phi i8* [ %543, %542 ], [ %554, %544 ]
  %557 = add nuw nsw i64 %519, 1
  %558 = icmp eq i64 %557, %510
  br i1 %558, label %511, label %518

559:                                              ; preds = %511
  %560 = and i64 %515, -2
  %561 = inttoptr i64 %560 to %"struct.google::protobuf::internal::InternalMetadata::Container"*
  %562 = getelementptr inbounds %"struct.google::protobuf::internal::InternalMetadata::Container", %"struct.google::protobuf::internal::InternalMetadata::Container"* %561, i64 0, i32 1
  %563 = bitcast %"class.std::__1::basic_string"* %562 to %"struct.std::__1::basic_string<char, std::__1::char_traits<char>, std::__1::allocator<char> >::__short"*
  %564 = getelementptr inbounds %"struct.std::__1::basic_string<char, std::__1::char_traits<char>, std::__1::allocator<char> >::__short", %"struct.std::__1::basic_string<char, std::__1::char_traits<char>, std::__1::allocator<char> >::__short"* %563, i64 0, i32 1, i32 0
  %565 = load i8, i8* %564, align 1
  %566 = icmp slt i8 %565, 0
  br i1 %566, label %567, label %572

567:                                              ; preds = %559
  %568 = getelementptr inbounds %"class.std::__1::basic_string", %"class.std::__1::basic_string"* %562, i64 0, i32 0, i32 0, i32 0, i32 0, i32 0, i32 0
  %569 = load i8*, i8** %568, align 8
  %570 = getelementptr inbounds %"struct.google::protobuf::internal::InternalMetadata::Container", %"struct.google::protobuf::internal::InternalMetadata::Container"* %561, i64 0, i32 1, i32 0, i32 0, i32 0, i32 0, i32 0, i32 1
  %571 = load i64, i64* %570, align 8
  br label %575

572:                                              ; preds = %559
  %573 = bitcast %"class.std::__1::basic_string"* %562 to i8*
  %574 = zext i8 %565 to i64
  br label %575

575:                                              ; preds = %567, %572
  %576 = phi i8* [ %569, %567 ], [ %573, %572 ]
  %577 = phi i64 [ %571, %567 ], [ %574, %572 ]
  %578 = bitcast %"class.google::protobuf::io::EpsCopyOutputStream"* %2 to i64*
  %579 = load i64, i64* %578, align 8
  %580 = ptrtoint i8* %512 to i64
  %581 = sub i64 %579, %580
  %582 = shl i64 %577, 32
  %583 = ashr exact i64 %582, 32
  %584 = icmp slt i64 %581, %583
  br i1 %584, label %585, label %588, !prof !2

585:                                              ; preds = %575
  %586 = trunc i64 %577 to i32
  %587 = call i8* @_ZN6google8protobuf2io19EpsCopyOutputStream16WriteRawFallbackEPKviPh(%"class.google::protobuf::io::EpsCopyOutputStream"* %2, i8* %576, i32 %586, i8* %512) #15
  br label %590

588:                                              ; preds = %575
  call void @llvm.memcpy.p0i8.p0i8.i64(i8* align 1 %512, i8* align 1 %576, i64 %583, i1 false) #15
  %589 = getelementptr inbounds i8, i8* %512, i64 %583
  br label %590

590:                                              ; preds = %511, %588, %585
  %591 = phi i8* [ %512, %511 ], [ %587, %585 ], [ %589, %588 ]
  ret i8* %591
}

; Function Attrs: nounwind readnone speculatable
declare { i64, i1 } @llvm.umul.with.overflow.i64(i64, i64) #8

; Function Attrs: nobuiltin nofree
declare noalias nonnull i8* @_Znam(i64) local_unnamed_addr #9

; Function Attrs: nounwind ssp uwtable
define linkonce_odr hidden i8* @_ZN6google8protobuf8internal13MapEntryFuncsINSt3__112basic_stringIcNS3_11char_traitsIcEENS3_9allocatorIcEEEEN13assist_ranker36ExamplePreprocessorConfig_BoundariesELNS1_14WireFormatLite9FieldTypeE9ELSD_11EE17InternalSerializeEiRKS9_RKSB_PhPNS0_2io19EpsCopyOutputStreamE(i32, %"class.std::__1::basic_string"* dereferenceable(24), %"class.assist_ranker::ExamplePreprocessorConfig_Boundaries"* dereferenceable(40), i8*, %"class.google::protobuf::io::EpsCopyOutputStream"*) local_unnamed_addr #0 comdat align 2 {
  %6 = getelementptr inbounds %"class.google::protobuf::io::EpsCopyOutputStream", %"class.google::protobuf::io::EpsCopyOutputStream"* %4, i64 0, i32 0
  %7 = load i8*, i8** %6, align 8
  %8 = icmp ugt i8* %7, %3
  br i1 %8, label %11, label %9, !prof !3

9:                                                ; preds = %5
  %10 = tail call i8* @_ZN6google8protobuf2io19EpsCopyOutputStream19EnsureSpaceFallbackEPh(%"class.google::protobuf::io::EpsCopyOutputStream"* %4, i8* %3) #15
  br label %11

11:                                               ; preds = %5, %9
  %12 = phi i8* [ %10, %9 ], [ %3, %5 ]
  %13 = shl i32 %0, 3
  %14 = or i32 %13, 2
  %15 = icmp ult i32 %14, 128
  %16 = trunc i32 %14 to i8
  br i1 %15, label %17, label %19

17:                                               ; preds = %11
  store i8 %16, i8* %12, align 1
  %18 = getelementptr inbounds i8, i8* %12, i64 1
  br label %41

19:                                               ; preds = %11
  %20 = or i8 %16, -128
  store i8 %20, i8* %12, align 1
  %21 = lshr i32 %0, 4
  %22 = icmp ult i32 %14, 16384
  br i1 %22, label %23, label %27

23:                                               ; preds = %19
  %24 = trunc i32 %21 to i8
  %25 = getelementptr inbounds i8, i8* %12, i64 1
  store i8 %24, i8* %25, align 1
  %26 = getelementptr inbounds i8, i8* %12, i64 2
  br label %41

27:                                               ; preds = %19
  %28 = and i32 %21, 33554431
  %29 = getelementptr inbounds i8, i8* %12, i64 1
  br label %30

30:                                               ; preds = %30, %27
  %31 = phi i32 [ %28, %27 ], [ %35, %30 ]
  %32 = phi i8* [ %29, %27 ], [ %36, %30 ]
  %33 = trunc i32 %31 to i8
  %34 = or i8 %33, -128
  store i8 %34, i8* %32, align 1
  %35 = lshr i32 %31, 7
  %36 = getelementptr inbounds i8, i8* %32, i64 1
  %37 = icmp ugt i32 %31, 16383
  br i1 %37, label %30, label %38, !prof !2

38:                                               ; preds = %30
  %39 = trunc i32 %35 to i8
  %40 = getelementptr inbounds i8, i8* %32, i64 2
  store i8 %39, i8* %36, align 1
  br label %41

41:                                               ; preds = %17, %23, %38
  %42 = phi i8* [ %18, %17 ], [ %26, %23 ], [ %40, %38 ]
  %43 = bitcast %"class.std::__1::basic_string"* %1 to %"struct.std::__1::basic_string<char, std::__1::char_traits<char>, std::__1::allocator<char> >::__short"*
  %44 = getelementptr inbounds %"struct.std::__1::basic_string<char, std::__1::char_traits<char>, std::__1::allocator<char> >::__short", %"struct.std::__1::basic_string<char, std::__1::char_traits<char>, std::__1::allocator<char> >::__short"* %43, i64 0, i32 1, i32 0
  %45 = load i8, i8* %44, align 1
  %46 = icmp slt i8 %45, 0
  %47 = getelementptr inbounds %"class.std::__1::basic_string", %"class.std::__1::basic_string"* %1, i64 0, i32 0, i32 0, i32 0, i32 0, i32 0, i32 1
  %48 = load i64, i64* %47, align 8
  %49 = zext i8 %45 to i64
  %50 = select i1 %46, i64 %48, i64 %49
  %51 = trunc i64 %50 to i32
  %52 = or i32 %51, 1
  %53 = tail call i32 @llvm.ctlz.i32(i32 %52, i1 true) #15, !range !61
  %54 = xor i32 %53, 31
  %55 = mul nuw nsw i32 %54, 9
  %56 = add nuw nsw i32 %55, 73
  %57 = lshr i32 %56, 6
  %58 = getelementptr inbounds %"class.assist_ranker::ExamplePreprocessorConfig_Boundaries", %"class.assist_ranker::ExamplePreprocessorConfig_Boundaries"* %2, i64 0, i32 2, i32 0, i32 0, i32 0, i32 0, i32 0, i32 0
  %59 = load atomic i32, i32* %58 monotonic, align 4
  %60 = or i32 %59, 1
  %61 = tail call i32 @llvm.ctlz.i32(i32 %60, i1 true) #15, !range !61
  %62 = xor i32 %61, 31
  %63 = mul nuw nsw i32 %62, 9
  %64 = add nuw nsw i32 %63, 73
  %65 = lshr i32 %64, 6
  %66 = add i32 %59, 2
  %67 = add i32 %66, %51
  %68 = add i32 %67, %65
  %69 = add i32 %68, %57
  %70 = icmp ult i32 %69, 128
  %71 = trunc i32 %69 to i8
  br i1 %70, label %72, label %74

72:                                               ; preds = %41
  store i8 %71, i8* %42, align 1
  %73 = getelementptr inbounds i8, i8* %42, i64 1
  br label %95

74:                                               ; preds = %41
  %75 = or i8 %71, -128
  store i8 %75, i8* %42, align 1
  %76 = lshr i32 %69, 7
  %77 = icmp ult i32 %69, 16384
  br i1 %77, label %78, label %82

78:                                               ; preds = %74
  %79 = trunc i32 %76 to i8
  %80 = getelementptr inbounds i8, i8* %42, i64 1
  store i8 %79, i8* %80, align 1
  %81 = getelementptr inbounds i8, i8* %42, i64 2
  br label %95

82:                                               ; preds = %74
  %83 = getelementptr inbounds i8, i8* %42, i64 1
  br label %84

84:                                               ; preds = %84, %82
  %85 = phi i32 [ %76, %82 ], [ %89, %84 ]
  %86 = phi i8* [ %83, %82 ], [ %90, %84 ]
  %87 = trunc i32 %85 to i8
  %88 = or i8 %87, -128
  store i8 %88, i8* %86, align 1
  %89 = lshr i32 %85, 7
  %90 = getelementptr inbounds i8, i8* %86, i64 1
  %91 = icmp ugt i32 %85, 16383
  br i1 %91, label %84, label %92, !prof !2

92:                                               ; preds = %84
  %93 = trunc i32 %89 to i8
  %94 = getelementptr inbounds i8, i8* %86, i64 2
  store i8 %93, i8* %90, align 1
  br label %95

95:                                               ; preds = %72, %78, %92
  %96 = phi i8* [ %73, %72 ], [ %81, %78 ], [ %94, %92 ]
  %97 = load i8*, i8** %6, align 8
  %98 = icmp ugt i8* %97, %96
  br i1 %98, label %101, label %99, !prof !3

99:                                               ; preds = %95
  %100 = tail call i8* @_ZN6google8protobuf2io19EpsCopyOutputStream19EnsureSpaceFallbackEPh(%"class.google::protobuf::io::EpsCopyOutputStream"* %4, i8* %96) #15
  br label %101

101:                                              ; preds = %99, %95
  %102 = phi i8* [ %100, %99 ], [ %96, %95 ]
  %103 = load i8, i8* %44, align 1
  %104 = icmp slt i8 %103, 0
  br i1 %104, label %107, label %105

105:                                              ; preds = %101
  %106 = zext i8 %103 to i64
  br label %110

107:                                              ; preds = %101
  %108 = load i64, i64* %47, align 8
  %109 = icmp sgt i64 %108, 127
  br i1 %109, label %118, label %110, !prof !2

110:                                              ; preds = %107, %105
  %111 = phi i64 [ %106, %105 ], [ %108, %107 ]
  %112 = bitcast %"class.google::protobuf::io::EpsCopyOutputStream"* %4 to i64*
  %113 = load i64, i64* %112, align 8
  %114 = ptrtoint i8* %102 to i64
  %115 = sub i64 14, %114
  %116 = add i64 %115, %113
  %117 = icmp slt i64 %116, %111
  br i1 %117, label %118, label %120, !prof !2

118:                                              ; preds = %110, %107
  %119 = tail call i8* @_ZN6google8protobuf2io19EpsCopyOutputStream18WriteStringOutlineEjRKNSt3__112basic_stringIcNS3_11char_traitsIcEENS3_9allocatorIcEEEEPh(%"class.google::protobuf::io::EpsCopyOutputStream"* %4, i32 1, %"class.std::__1::basic_string"* dereferenceable(24) %1, i8* %102) #15
  br label %131

120:                                              ; preds = %110
  store i8 10, i8* %102, align 1
  %121 = getelementptr inbounds i8, i8* %102, i64 1
  %122 = trunc i64 %111 to i8
  %123 = getelementptr inbounds i8, i8* %102, i64 2
  store i8 %122, i8* %121, align 1
  %124 = load i8, i8* %44, align 1
  %125 = icmp slt i8 %124, 0
  %126 = getelementptr inbounds %"class.std::__1::basic_string", %"class.std::__1::basic_string"* %1, i64 0, i32 0, i32 0, i32 0, i32 0, i32 0, i32 0
  %127 = load i8*, i8** %126, align 8
  %128 = bitcast %"class.std::__1::basic_string"* %1 to i8*
  %129 = select i1 %125, i8* %127, i8* %128
  tail call void @llvm.memcpy.p0i8.p0i8.i64(i8* align 1 %123, i8* align 1 %129, i64 %111, i1 false) #15
  %130 = getelementptr inbounds i8, i8* %123, i64 %111
  br label %131

131:                                              ; preds = %118, %120
  %132 = phi i8* [ %119, %118 ], [ %130, %120 ]
  %133 = tail call i8* @_ZN6google8protobuf8internal14MapTypeHandlerILNS1_14WireFormatLite9FieldTypeE11EN13assist_ranker36ExamplePreprocessorConfig_BoundariesEE5WriteEiRKS6_PhPNS0_2io19EpsCopyOutputStreamE(i32 2, %"class.assist_ranker::ExamplePreprocessorConfig_Boundaries"* dereferenceable(40) %2, i8* %132, %"class.google::protobuf::io::EpsCopyOutputStream"* %4)
  ret i8* %133
}

; Function Attrs: nounwind ssp uwtable
define linkonce_odr hidden i8* @_ZN6google8protobuf8internal13MapEntryFuncsINSt3__112basic_stringIcNS3_11char_traitsIcEENS3_9allocatorIcEEEEiLNS1_14WireFormatLite9FieldTypeE9ELSB_5EE17InternalSerializeEiRKS9_RKiPhPNS0_2io19EpsCopyOutputStreamE(i32, %"class.std::__1::basic_string"* dereferenceable(24), i32* dereferenceable(4), i8*, %"class.google::protobuf::io::EpsCopyOutputStream"*) local_unnamed_addr #0 comdat align 2 {
  %6 = getelementptr inbounds %"class.google::protobuf::io::EpsCopyOutputStream", %"class.google::protobuf::io::EpsCopyOutputStream"* %4, i64 0, i32 0
  %7 = load i8*, i8** %6, align 8
  %8 = icmp ugt i8* %7, %3
  br i1 %8, label %11, label %9, !prof !3

9:                                                ; preds = %5
  %10 = tail call i8* @_ZN6google8protobuf2io19EpsCopyOutputStream19EnsureSpaceFallbackEPh(%"class.google::protobuf::io::EpsCopyOutputStream"* %4, i8* %3) #15
  br label %11

11:                                               ; preds = %5, %9
  %12 = phi i8* [ %10, %9 ], [ %3, %5 ]
  %13 = shl i32 %0, 3
  %14 = or i32 %13, 2
  %15 = icmp ult i32 %14, 128
  %16 = trunc i32 %14 to i8
  br i1 %15, label %17, label %19

17:                                               ; preds = %11
  store i8 %16, i8* %12, align 1
  %18 = getelementptr inbounds i8, i8* %12, i64 1
  br label %41

19:                                               ; preds = %11
  %20 = or i8 %16, -128
  store i8 %20, i8* %12, align 1
  %21 = lshr i32 %0, 4
  %22 = icmp ult i32 %14, 16384
  br i1 %22, label %23, label %27

23:                                               ; preds = %19
  %24 = trunc i32 %21 to i8
  %25 = getelementptr inbounds i8, i8* %12, i64 1
  store i8 %24, i8* %25, align 1
  %26 = getelementptr inbounds i8, i8* %12, i64 2
  br label %41

27:                                               ; preds = %19
  %28 = and i32 %21, 33554431
  %29 = getelementptr inbounds i8, i8* %12, i64 1
  br label %30

30:                                               ; preds = %30, %27
  %31 = phi i32 [ %28, %27 ], [ %35, %30 ]
  %32 = phi i8* [ %29, %27 ], [ %36, %30 ]
  %33 = trunc i32 %31 to i8
  %34 = or i8 %33, -128
  store i8 %34, i8* %32, align 1
  %35 = lshr i32 %31, 7
  %36 = getelementptr inbounds i8, i8* %32, i64 1
  %37 = icmp ugt i32 %31, 16383
  br i1 %37, label %30, label %38, !prof !2

38:                                               ; preds = %30
  %39 = trunc i32 %35 to i8
  %40 = getelementptr inbounds i8, i8* %32, i64 2
  store i8 %39, i8* %36, align 1
  br label %41

41:                                               ; preds = %17, %23, %38
  %42 = phi i8* [ %18, %17 ], [ %26, %23 ], [ %40, %38 ]
  %43 = bitcast %"class.std::__1::basic_string"* %1 to %"struct.std::__1::basic_string<char, std::__1::char_traits<char>, std::__1::allocator<char> >::__short"*
  %44 = getelementptr inbounds %"struct.std::__1::basic_string<char, std::__1::char_traits<char>, std::__1::allocator<char> >::__short", %"struct.std::__1::basic_string<char, std::__1::char_traits<char>, std::__1::allocator<char> >::__short"* %43, i64 0, i32 1, i32 0
  %45 = load i8, i8* %44, align 1
  %46 = icmp slt i8 %45, 0
  %47 = getelementptr inbounds %"class.std::__1::basic_string", %"class.std::__1::basic_string"* %1, i64 0, i32 0, i32 0, i32 0, i32 0, i32 0, i32 1
  %48 = load i64, i64* %47, align 8
  %49 = zext i8 %45 to i64
  %50 = select i1 %46, i64 %48, i64 %49
  %51 = trunc i64 %50 to i32
  %52 = or i32 %51, 1
  %53 = tail call i32 @llvm.ctlz.i32(i32 %52, i1 true) #15, !range !61
  %54 = xor i32 %53, 31
  %55 = mul nuw nsw i32 %54, 9
  %56 = add nuw nsw i32 %55, 73
  %57 = lshr i32 %56, 6
  %58 = load i32, i32* %2, align 4
  %59 = icmp slt i32 %58, 0
  br i1 %59, label %67, label %60

60:                                               ; preds = %41
  %61 = or i32 %58, 1
  %62 = tail call i32 @llvm.ctlz.i32(i32 %61, i1 true) #15, !range !61
  %63 = xor i32 %62, 31
  %64 = mul nuw nsw i32 %63, 9
  %65 = add nuw nsw i32 %64, 73
  %66 = lshr i32 %65, 6
  br label %67

67:                                               ; preds = %41, %60
  %68 = phi i32 [ %66, %60 ], [ 10, %41 ]
  %69 = add i32 %51, 2
  %70 = add i32 %69, %57
  %71 = add i32 %70, %68
  %72 = icmp ult i32 %71, 128
  %73 = trunc i32 %71 to i8
  br i1 %72, label %74, label %76

74:                                               ; preds = %67
  store i8 %73, i8* %42, align 1
  %75 = getelementptr inbounds i8, i8* %42, i64 1
  br label %97

76:                                               ; preds = %67
  %77 = or i8 %73, -128
  store i8 %77, i8* %42, align 1
  %78 = lshr i32 %71, 7
  %79 = icmp ult i32 %71, 16384
  br i1 %79, label %80, label %84

80:                                               ; preds = %76
  %81 = trunc i32 %78 to i8
  %82 = getelementptr inbounds i8, i8* %42, i64 1
  store i8 %81, i8* %82, align 1
  %83 = getelementptr inbounds i8, i8* %42, i64 2
  br label %97

84:                                               ; preds = %76
  %85 = getelementptr inbounds i8, i8* %42, i64 1
  br label %86

86:                                               ; preds = %86, %84
  %87 = phi i32 [ %78, %84 ], [ %91, %86 ]
  %88 = phi i8* [ %85, %84 ], [ %92, %86 ]
  %89 = trunc i32 %87 to i8
  %90 = or i8 %89, -128
  store i8 %90, i8* %88, align 1
  %91 = lshr i32 %87, 7
  %92 = getelementptr inbounds i8, i8* %88, i64 1
  %93 = icmp ugt i32 %87, 16383
  br i1 %93, label %86, label %94, !prof !2

94:                                               ; preds = %86
  %95 = trunc i32 %91 to i8
  %96 = getelementptr inbounds i8, i8* %88, i64 2
  store i8 %95, i8* %92, align 1
  br label %97

97:                                               ; preds = %74, %80, %94
  %98 = phi i8* [ %75, %74 ], [ %83, %80 ], [ %96, %94 ]
  %99 = load i8*, i8** %6, align 8
  %100 = icmp ugt i8* %99, %98
  br i1 %100, label %103, label %101, !prof !3

101:                                              ; preds = %97
  %102 = tail call i8* @_ZN6google8protobuf2io19EpsCopyOutputStream19EnsureSpaceFallbackEPh(%"class.google::protobuf::io::EpsCopyOutputStream"* %4, i8* %98) #15
  br label %103

103:                                              ; preds = %101, %97
  %104 = phi i8* [ %102, %101 ], [ %98, %97 ]
  %105 = load i8, i8* %44, align 1
  %106 = icmp slt i8 %105, 0
  br i1 %106, label %109, label %107

107:                                              ; preds = %103
  %108 = zext i8 %105 to i64
  br label %112

109:                                              ; preds = %103
  %110 = load i64, i64* %47, align 8
  %111 = icmp sgt i64 %110, 127
  br i1 %111, label %120, label %112, !prof !2

112:                                              ; preds = %109, %107
  %113 = phi i64 [ %108, %107 ], [ %110, %109 ]
  %114 = bitcast %"class.google::protobuf::io::EpsCopyOutputStream"* %4 to i64*
  %115 = load i64, i64* %114, align 8
  %116 = ptrtoint i8* %104 to i64
  %117 = sub i64 14, %116
  %118 = add i64 %117, %115
  %119 = icmp slt i64 %118, %113
  br i1 %119, label %120, label %122, !prof !2

120:                                              ; preds = %112, %109
  %121 = tail call i8* @_ZN6google8protobuf2io19EpsCopyOutputStream18WriteStringOutlineEjRKNSt3__112basic_stringIcNS3_11char_traitsIcEENS3_9allocatorIcEEEEPh(%"class.google::protobuf::io::EpsCopyOutputStream"* %4, i32 1, %"class.std::__1::basic_string"* dereferenceable(24) %1, i8* %104) #15
  br label %133

122:                                              ; preds = %112
  store i8 10, i8* %104, align 1
  %123 = getelementptr inbounds i8, i8* %104, i64 1
  %124 = trunc i64 %113 to i8
  %125 = getelementptr inbounds i8, i8* %104, i64 2
  store i8 %124, i8* %123, align 1
  %126 = load i8, i8* %44, align 1
  %127 = icmp slt i8 %126, 0
  %128 = getelementptr inbounds %"class.std::__1::basic_string", %"class.std::__1::basic_string"* %1, i64 0, i32 0, i32 0, i32 0, i32 0, i32 0, i32 0
  %129 = load i8*, i8** %128, align 8
  %130 = bitcast %"class.std::__1::basic_string"* %1 to i8*
  %131 = select i1 %127, i8* %129, i8* %130
  tail call void @llvm.memcpy.p0i8.p0i8.i64(i8* align 1 %125, i8* align 1 %131, i64 %113, i1 false) #15
  %132 = getelementptr inbounds i8, i8* %125, i64 %113
  br label %133

133:                                              ; preds = %120, %122
  %134 = phi i8* [ %121, %120 ], [ %132, %122 ]
  %135 = load i8*, i8** %6, align 8
  %136 = icmp ugt i8* %135, %134
  br i1 %136, label %139, label %137, !prof !3

137:                                              ; preds = %133
  %138 = tail call i8* @_ZN6google8protobuf2io19EpsCopyOutputStream19EnsureSpaceFallbackEPh(%"class.google::protobuf::io::EpsCopyOutputStream"* %4, i8* %134) #15
  br label %139

139:                                              ; preds = %137, %133
  %140 = phi i8* [ %138, %137 ], [ %134, %133 ]
  %141 = load i32, i32* %2, align 4
  store i8 16, i8* %140, align 1
  %142 = getelementptr inbounds i8, i8* %140, i64 1
  %143 = icmp ult i32 %141, 128
  %144 = trunc i32 %141 to i8
  br i1 %143, label %145, label %147

145:                                              ; preds = %139
  store i8 %144, i8* %142, align 1
  %146 = getelementptr inbounds i8, i8* %140, i64 2
  br label %169

147:                                              ; preds = %139
  %148 = sext i32 %141 to i64
  %149 = or i8 %144, -128
  store i8 %149, i8* %142, align 1
  %150 = lshr i64 %148, 7
  %151 = icmp ult i32 %141, 16384
  br i1 %151, label %152, label %156

152:                                              ; preds = %147
  %153 = trunc i64 %150 to i8
  %154 = getelementptr inbounds i8, i8* %140, i64 2
  store i8 %153, i8* %154, align 1
  %155 = getelementptr inbounds i8, i8* %140, i64 3
  br label %169

156:                                              ; preds = %147
  %157 = getelementptr inbounds i8, i8* %140, i64 2
  br label %158

158:                                              ; preds = %158, %156
  %159 = phi i64 [ %150, %156 ], [ %163, %158 ]
  %160 = phi i8* [ %157, %156 ], [ %164, %158 ]
  %161 = trunc i64 %159 to i8
  %162 = or i8 %161, -128
  store i8 %162, i8* %160, align 1
  %163 = lshr i64 %159, 7
  %164 = getelementptr inbounds i8, i8* %160, i64 1
  %165 = icmp ugt i64 %159, 16383
  br i1 %165, label %158, label %166, !prof !2

166:                                              ; preds = %158
  %167 = trunc i64 %163 to i8
  %168 = getelementptr inbounds i8, i8* %160, i64 2
  store i8 %167, i8* %164, align 1
  br label %169

169:                                              ; preds = %145, %152, %166
  %170 = phi i8* [ %146, %145 ], [ %155, %152 ], [ %168, %166 ]
  ret i8* %170
}

; Function Attrs: nounwind ssp uwtable
define linkonce_odr hidden i8* @_ZN6google8protobuf8internal13MapEntryFuncsINSt3__112basic_stringIcNS3_11char_traitsIcEENS3_9allocatorIcEEEEfLNS1_14WireFormatLite9FieldTypeE9ELSB_2EE17InternalSerializeEiRKS9_RKfPhPNS0_2io19EpsCopyOutputStreamE(i32, %"class.std::__1::basic_string"* dereferenceable(24), float* dereferenceable(4), i8*, %"class.google::protobuf::io::EpsCopyOutputStream"*) local_unnamed_addr #0 comdat align 2 {
  %6 = getelementptr inbounds %"class.google::protobuf::io::EpsCopyOutputStream", %"class.google::protobuf::io::EpsCopyOutputStream"* %4, i64 0, i32 0
  %7 = load i8*, i8** %6, align 8
  %8 = icmp ugt i8* %7, %3
  br i1 %8, label %11, label %9, !prof !3

9:                                                ; preds = %5
  %10 = tail call i8* @_ZN6google8protobuf2io19EpsCopyOutputStream19EnsureSpaceFallbackEPh(%"class.google::protobuf::io::EpsCopyOutputStream"* %4, i8* %3) #15
  br label %11

11:                                               ; preds = %5, %9
  %12 = phi i8* [ %10, %9 ], [ %3, %5 ]
  %13 = shl i32 %0, 3
  %14 = or i32 %13, 2
  %15 = icmp ult i32 %14, 128
  %16 = trunc i32 %14 to i8
  br i1 %15, label %17, label %19

17:                                               ; preds = %11
  store i8 %16, i8* %12, align 1
  %18 = getelementptr inbounds i8, i8* %12, i64 1
  br label %41

19:                                               ; preds = %11
  %20 = or i8 %16, -128
  store i8 %20, i8* %12, align 1
  %21 = lshr i32 %0, 4
  %22 = icmp ult i32 %14, 16384
  br i1 %22, label %23, label %27

23:                                               ; preds = %19
  %24 = trunc i32 %21 to i8
  %25 = getelementptr inbounds i8, i8* %12, i64 1
  store i8 %24, i8* %25, align 1
  %26 = getelementptr inbounds i8, i8* %12, i64 2
  br label %41

27:                                               ; preds = %19
  %28 = and i32 %21, 33554431
  %29 = getelementptr inbounds i8, i8* %12, i64 1
  br label %30

30:                                               ; preds = %30, %27
  %31 = phi i32 [ %28, %27 ], [ %35, %30 ]
  %32 = phi i8* [ %29, %27 ], [ %36, %30 ]
  %33 = trunc i32 %31 to i8
  %34 = or i8 %33, -128
  store i8 %34, i8* %32, align 1
  %35 = lshr i32 %31, 7
  %36 = getelementptr inbounds i8, i8* %32, i64 1
  %37 = icmp ugt i32 %31, 16383
  br i1 %37, label %30, label %38, !prof !2

38:                                               ; preds = %30
  %39 = trunc i32 %35 to i8
  %40 = getelementptr inbounds i8, i8* %32, i64 2
  store i8 %39, i8* %36, align 1
  br label %41

41:                                               ; preds = %17, %23, %38
  %42 = phi i8* [ %18, %17 ], [ %26, %23 ], [ %40, %38 ]
  %43 = bitcast %"class.std::__1::basic_string"* %1 to %"struct.std::__1::basic_string<char, std::__1::char_traits<char>, std::__1::allocator<char> >::__short"*
  %44 = getelementptr inbounds %"struct.std::__1::basic_string<char, std::__1::char_traits<char>, std::__1::allocator<char> >::__short", %"struct.std::__1::basic_string<char, std::__1::char_traits<char>, std::__1::allocator<char> >::__short"* %43, i64 0, i32 1, i32 0
  %45 = load i8, i8* %44, align 1
  %46 = icmp slt i8 %45, 0
  %47 = getelementptr inbounds %"class.std::__1::basic_string", %"class.std::__1::basic_string"* %1, i64 0, i32 0, i32 0, i32 0, i32 0, i32 0, i32 1
  %48 = load i64, i64* %47, align 8
  %49 = zext i8 %45 to i64
  %50 = select i1 %46, i64 %48, i64 %49
  %51 = trunc i64 %50 to i32
  %52 = or i32 %51, 1
  %53 = tail call i32 @llvm.ctlz.i32(i32 %52, i1 true) #15, !range !61
  %54 = xor i32 %53, 31
  %55 = mul nuw nsw i32 %54, 9
  %56 = add nuw nsw i32 %55, 73
  %57 = lshr i32 %56, 6
  %58 = add i32 %51, 6
  %59 = add i32 %58, %57
  %60 = icmp ult i32 %59, 128
  %61 = trunc i32 %59 to i8
  br i1 %60, label %62, label %64

62:                                               ; preds = %41
  store i8 %61, i8* %42, align 1
  %63 = getelementptr inbounds i8, i8* %42, i64 1
  br label %85

64:                                               ; preds = %41
  %65 = or i8 %61, -128
  store i8 %65, i8* %42, align 1
  %66 = lshr i32 %59, 7
  %67 = icmp ult i32 %59, 16384
  br i1 %67, label %68, label %72

68:                                               ; preds = %64
  %69 = trunc i32 %66 to i8
  %70 = getelementptr inbounds i8, i8* %42, i64 1
  store i8 %69, i8* %70, align 1
  %71 = getelementptr inbounds i8, i8* %42, i64 2
  br label %85

72:                                               ; preds = %64
  %73 = getelementptr inbounds i8, i8* %42, i64 1
  br label %74

74:                                               ; preds = %74, %72
  %75 = phi i32 [ %66, %72 ], [ %79, %74 ]
  %76 = phi i8* [ %73, %72 ], [ %80, %74 ]
  %77 = trunc i32 %75 to i8
  %78 = or i8 %77, -128
  store i8 %78, i8* %76, align 1
  %79 = lshr i32 %75, 7
  %80 = getelementptr inbounds i8, i8* %76, i64 1
  %81 = icmp ugt i32 %75, 16383
  br i1 %81, label %74, label %82, !prof !2

82:                                               ; preds = %74
  %83 = trunc i32 %79 to i8
  %84 = getelementptr inbounds i8, i8* %76, i64 2
  store i8 %83, i8* %80, align 1
  br label %85

85:                                               ; preds = %62, %68, %82
  %86 = phi i8* [ %63, %62 ], [ %71, %68 ], [ %84, %82 ]
  %87 = load i8*, i8** %6, align 8
  %88 = icmp ugt i8* %87, %86
  br i1 %88, label %91, label %89, !prof !3

89:                                               ; preds = %85
  %90 = tail call i8* @_ZN6google8protobuf2io19EpsCopyOutputStream19EnsureSpaceFallbackEPh(%"class.google::protobuf::io::EpsCopyOutputStream"* %4, i8* %86) #15
  br label %91

91:                                               ; preds = %89, %85
  %92 = phi i8* [ %90, %89 ], [ %86, %85 ]
  %93 = load i8, i8* %44, align 1
  %94 = icmp slt i8 %93, 0
  br i1 %94, label %97, label %95

95:                                               ; preds = %91
  %96 = zext i8 %93 to i64
  br label %100

97:                                               ; preds = %91
  %98 = load i64, i64* %47, align 8
  %99 = icmp sgt i64 %98, 127
  br i1 %99, label %108, label %100, !prof !2

100:                                              ; preds = %97, %95
  %101 = phi i64 [ %96, %95 ], [ %98, %97 ]
  %102 = bitcast %"class.google::protobuf::io::EpsCopyOutputStream"* %4 to i64*
  %103 = load i64, i64* %102, align 8
  %104 = ptrtoint i8* %92 to i64
  %105 = sub i64 14, %104
  %106 = add i64 %105, %103
  %107 = icmp slt i64 %106, %101
  br i1 %107, label %108, label %110, !prof !2

108:                                              ; preds = %100, %97
  %109 = tail call i8* @_ZN6google8protobuf2io19EpsCopyOutputStream18WriteStringOutlineEjRKNSt3__112basic_stringIcNS3_11char_traitsIcEENS3_9allocatorIcEEEEPh(%"class.google::protobuf::io::EpsCopyOutputStream"* %4, i32 1, %"class.std::__1::basic_string"* dereferenceable(24) %1, i8* %92) #15
  br label %121

110:                                              ; preds = %100
  store i8 10, i8* %92, align 1
  %111 = getelementptr inbounds i8, i8* %92, i64 1
  %112 = trunc i64 %101 to i8
  %113 = getelementptr inbounds i8, i8* %92, i64 2
  store i8 %112, i8* %111, align 1
  %114 = load i8, i8* %44, align 1
  %115 = icmp slt i8 %114, 0
  %116 = getelementptr inbounds %"class.std::__1::basic_string", %"class.std::__1::basic_string"* %1, i64 0, i32 0, i32 0, i32 0, i32 0, i32 0, i32 0
  %117 = load i8*, i8** %116, align 8
  %118 = bitcast %"class.std::__1::basic_string"* %1 to i8*
  %119 = select i1 %115, i8* %117, i8* %118
  tail call void @llvm.memcpy.p0i8.p0i8.i64(i8* align 1 %113, i8* align 1 %119, i64 %101, i1 false) #15
  %120 = getelementptr inbounds i8, i8* %113, i64 %101
  br label %121

121:                                              ; preds = %108, %110
  %122 = phi i8* [ %109, %108 ], [ %120, %110 ]
  %123 = load i8*, i8** %6, align 8
  %124 = icmp ugt i8* %123, %122
  br i1 %124, label %127, label %125, !prof !3

125:                                              ; preds = %121
  %126 = tail call i8* @_ZN6google8protobuf2io19EpsCopyOutputStream19EnsureSpaceFallbackEPh(%"class.google::protobuf::io::EpsCopyOutputStream"* %4, i8* %122) #15
  br label %127

127:                                              ; preds = %121, %125
  %128 = phi i8* [ %126, %125 ], [ %122, %121 ]
  %129 = bitcast float* %2 to i32*
  %130 = load i32, i32* %129, align 4
  store i8 21, i8* %128, align 1
  %131 = getelementptr inbounds i8, i8* %128, i64 1
  %132 = bitcast i8* %131 to i32*
  store i32 %130, i32* %132, align 1
  %133 = getelementptr inbounds i8, i8* %128, i64 5
  ret i8* %133
}

; Function Attrs: nounwind ssp uwtable
define hidden i64 @_ZNK13assist_ranker25ExamplePreprocessorConfig12ByteSizeLongEv(%"class.assist_ranker::ExamplePreprocessorConfig"*) unnamed_addr #0 align 2 {
  %2 = alloca %"class.google::protobuf::Map<std::__1::basic_string<char, std::__1::char_traits<char>, std::__1::allocator<char> >, assist_ranker::ExamplePreprocessorConfig_Boundaries>::const_iterator", align 8
  %3 = alloca %"class.google::protobuf::Map<std::__1::basic_string<char, std::__1::char_traits<char>, std::__1::allocator<char> >, int>::const_iterator", align 8
  %4 = alloca %"class.google::protobuf::Map<std::__1::basic_string<char, std::__1::char_traits<char>, std::__1::allocator<char> >, float>::const_iterator", align 8
  %5 = getelementptr inbounds %"class.assist_ranker::ExamplePreprocessorConfig", %"class.assist_ranker::ExamplePreprocessorConfig"* %0, i64 0, i32 1, i32 0, i32 1
  %6 = load i32, i32* %5, align 8
  %7 = zext i32 %6 to i64
  %8 = icmp sgt i32 %6, 0
  br i1 %8, label %9, label %12

9:                                                ; preds = %1
  %10 = getelementptr inbounds %"class.assist_ranker::ExamplePreprocessorConfig", %"class.assist_ranker::ExamplePreprocessorConfig"* %0, i64 0, i32 1, i32 0, i32 3
  %11 = load %"struct.google::protobuf::internal::RepeatedPtrFieldBase::Rep"*, %"struct.google::protobuf::internal::RepeatedPtrFieldBase::Rep"** %10, align 8
  br label %63

12:                                               ; preds = %63, %1
  %13 = phi i64 [ %7, %1 ], [ %86, %63 ]
  %14 = getelementptr inbounds %"class.assist_ranker::ExamplePreprocessorConfig", %"class.assist_ranker::ExamplePreprocessorConfig"* %0, i64 0, i32 2, i32 0, i32 0, i32 0
  %15 = load i64, i64* %14, align 8
  %16 = and i64 %15, 4294967295
  %17 = add i64 %16, %13
  %18 = bitcast %"class.google::protobuf::Map<std::__1::basic_string<char, std::__1::char_traits<char>, std::__1::allocator<char> >, assist_ranker::ExamplePreprocessorConfig_Boundaries>::const_iterator"* %2 to i8*
  call void @llvm.lifetime.start.p0i8(i64 24, i8* nonnull %18) #15
  %19 = getelementptr inbounds %"class.google::protobuf::Map<std::__1::basic_string<char, std::__1::char_traits<char>, std::__1::allocator<char> >, assist_ranker::ExamplePreprocessorConfig_Boundaries>::const_iterator", %"class.google::protobuf::Map<std::__1::basic_string<char, std::__1::char_traits<char>, std::__1::allocator<char> >, assist_ranker::ExamplePreprocessorConfig_Boundaries>::const_iterator"* %2, i64 0, i32 0, i32 0
  %20 = getelementptr inbounds %"class.google::protobuf::Map<std::__1::basic_string<char, std::__1::char_traits<char>, std::__1::allocator<char> >, assist_ranker::ExamplePreprocessorConfig_Boundaries>::const_iterator", %"class.google::protobuf::Map<std::__1::basic_string<char, std::__1::char_traits<char>, std::__1::allocator<char> >, assist_ranker::ExamplePreprocessorConfig_Boundaries>::const_iterator"* %2, i64 0, i32 0, i32 1
  %21 = getelementptr inbounds %"class.google::protobuf::Map<std::__1::basic_string<char, std::__1::char_traits<char>, std::__1::allocator<char> >, assist_ranker::ExamplePreprocessorConfig_Boundaries>::const_iterator", %"class.google::protobuf::Map<std::__1::basic_string<char, std::__1::char_traits<char>, std::__1::allocator<char> >, assist_ranker::ExamplePreprocessorConfig_Boundaries>::const_iterator"* %2, i64 0, i32 0, i32 2
  %22 = getelementptr inbounds %"class.assist_ranker::ExamplePreprocessorConfig", %"class.assist_ranker::ExamplePreprocessorConfig"* %0, i64 0, i32 2, i32 0, i32 0
  %23 = getelementptr inbounds %"class.assist_ranker::ExamplePreprocessorConfig", %"class.assist_ranker::ExamplePreprocessorConfig"* %0, i64 0, i32 2, i32 0, i32 0, i32 3
  %24 = bitcast %"class.google::protobuf::Map<std::__1::basic_string<char, std::__1::char_traits<char>, std::__1::allocator<char> >, assist_ranker::ExamplePreprocessorConfig_Boundaries>::const_iterator"* %2 to i8*
  call void @llvm.memset.p0i8.i64(i8* nonnull align 8 %24, i8 -86, i64 24, i1 false)
  %25 = load i64, i64* %23, align 8, !noalias !62
  %26 = getelementptr inbounds %"class.assist_ranker::ExamplePreprocessorConfig", %"class.assist_ranker::ExamplePreprocessorConfig"* %0, i64 0, i32 2, i32 0, i32 0, i32 1
  %27 = load i64, i64* %26, align 8, !noalias !62
  %28 = icmp ugt i64 %27, %25
  br i1 %28, label %29, label %53

29:                                               ; preds = %12
  %30 = getelementptr inbounds %"class.assist_ranker::ExamplePreprocessorConfig", %"class.assist_ranker::ExamplePreprocessorConfig"* %0, i64 0, i32 2, i32 0, i32 0, i32 4
  %31 = load i8**, i8*** %30, align 8, !noalias !62
  br label %32

32:                                               ; preds = %50, %29
  %33 = phi i64 [ %25, %29 ], [ %51, %50 ]
  %34 = getelementptr inbounds i8*, i8** %31, i64 %33
  %35 = load i8*, i8** %34, align 8, !noalias !62
  %36 = icmp eq i8* %35, null
  br i1 %36, label %50, label %37

37:                                               ; preds = %32
  %38 = xor i64 %33, 1
  %39 = getelementptr inbounds i8*, i8** %31, i64 %38
  %40 = load i8*, i8** %39, align 8, !noalias !62
  %41 = icmp eq i8* %35, %40
  br i1 %41, label %44, label %42

42:                                               ; preds = %37
  %43 = ptrtoint i8* %35 to i64
  br label %56

44:                                               ; preds = %37
  %45 = bitcast i8* %35 to %"class.std::__1::__tree_end_node"**
  %46 = load %"class.std::__1::__tree_end_node"*, %"class.std::__1::__tree_end_node"** %45, align 8, !noalias !62
  %47 = getelementptr inbounds %"class.std::__1::__tree_end_node", %"class.std::__1::__tree_end_node"* %46, i64 5
  %48 = bitcast %"class.std::__1::__tree_end_node"* %47 to i64*
  %49 = load i64, i64* %48, align 8, !noalias !62
  br label %56

50:                                               ; preds = %32
  %51 = add i64 %33, 1
  %52 = icmp eq i64 %51, %27
  br i1 %52, label %53, label %32

53:                                               ; preds = %50, %12
  %54 = phi i64 [ %25, %12 ], [ %27, %50 ]
  %55 = bitcast %"class.google::protobuf::Map<std::__1::basic_string<char, std::__1::char_traits<char>, std::__1::allocator<char> >, assist_ranker::ExamplePreprocessorConfig_Boundaries>::const_iterator"* %2 to i64*
  store i64 0, i64* %55, align 8, !alias.scope !67
