; ModuleID = '../../extensions/browser/guest_view/extension_options/extension_options_guest.cc'
source_filename = "../../extensions/browser/guest_view/extension_options/extension_options_guest.cc"
target datalayout = "e-m:e-i64:64-f80:128-n8:16:32:64-S128"
target triple = "x86_64-unknown-linux-gnu"

module asm ".symver exp, exp@GLIBC_2.2.5"
module asm ".symver exp2, exp2@GLIBC_2.2.5"
module asm ".symver exp2f, exp2f@GLIBC_2.2.5"
module asm ".symver expf, expf@GLIBC_2.2.5"
module asm ".symver lgamma, lgamma@GLIBC_2.2.5"
module asm ".symver lgammaf, lgammaf@GLIBC_2.2.5"
module asm ".symver lgammal, lgammal@GLIBC_2.2.5"
module asm ".symver log, log@GLIBC_2.2.5"
module asm ".symver log2, log2@GLIBC_2.2.5"
module asm ".symver log2f, log2f@GLIBC_2.2.5"
module asm ".symver logf, logf@GLIBC_2.2.5"
module asm ".symver pow, pow@GLIBC_2.2.5"
module asm ".symver powf, powf@GLIBC_2.2.5"

%"class.extensions::ExtensionOptionsGuest" = type { %"class.guest_view::GuestView", %"class.std::__1::unique_ptr.73", %class.GURL }
%"class.guest_view::GuestView" = type { %"class.guest_view::GuestViewBase" }
%"class.guest_view::GuestViewBase" = type { %"class.content::BrowserPluginGuestDelegate", %"class.content::WebContentsDelegate", %"class.content::WebContentsObserver", %"class.zoom::ZoomObserver", %"class.content::WebContents"*, %"class.std::__1::basic_string", %"class.content::BrowserContext"*, i32, i32, i32, i8, i8, i8, %"class.base::circular_deque", %"class.base::WeakPtr", %"class.std::__1::unique_ptr.20", %"class.std::__1::unique_ptr.60", %"class.std::__1::unique_ptr.66", %"class.gfx::Size", %"class.content::GuestHost"*, i8, %"class.gfx::Size", %"class.gfx::Size", %"class.gfx::Size", i8, %"class.base::WeakPtrFactory" }
%"class.content::BrowserPluginGuestDelegate" = type { i32 (...)** }
%"class.content::WebContentsDelegate" = type { i32 (...)**, %"class.std::__1::set" }
%"class.std::__1::set" = type { %"class.std::__1::__tree" }
%"class.std::__1::__tree" = type { %"class.std::__1::__tree_end_node"*, %"class.std::__1::__compressed_pair", %"class.std::__1::__compressed_pair.1" }
%"class.std::__1::__tree_end_node" = type { %"class.std::__1::__tree_node_base"* }
%"class.std::__1::__tree_node_base" = type <{ %"class.std::__1::__tree_end_node", %"class.std::__1::__tree_node_base"*, %"class.std::__1::__tree_end_node"*, i8, [7 x i8] }>
%"class.std::__1::__compressed_pair" = type { %"struct.std::__1::__compressed_pair_elem" }
%"struct.std::__1::__compressed_pair_elem" = type { %"class.std::__1::__tree_end_node" }
%"class.std::__1::__compressed_pair.1" = type { %"struct.std::__1::__compressed_pair_elem.2" }
%"struct.std::__1::__compressed_pair_elem.2" = type { i64 }
%"class.content::WebContentsObserver" = type { %"class.IPC::Listener", %"class.content::WebContents"* }
%"class.IPC::Listener" = type { i32 (...)** }
%"class.zoom::ZoomObserver" = type { i32 (...)** }
%"class.std::__1::basic_string" = type { %"class.std::__1::__compressed_pair.13" }
%"class.std::__1::__compressed_pair.13" = type { %"struct.std::__1::__compressed_pair_elem.14" }
%"struct.std::__1::__compressed_pair_elem.14" = type { %"struct.std::__1::basic_string<char, std::__1::char_traits<char>, std::__1::allocator<char> >::__rep" }
%"struct.std::__1::basic_string<char, std::__1::char_traits<char>, std::__1::allocator<char> >::__rep" = type { %union.anon }
%union.anon = type { %"struct.std::__1::basic_string<char, std::__1::char_traits<char>, std::__1::allocator<char> >::__long" }
%"struct.std::__1::basic_string<char, std::__1::char_traits<char>, std::__1::allocator<char> >::__long" = type { i8*, i64, i64 }
%"class.content::BrowserContext" = type opaque
%"class.base::circular_deque" = type { %"class.base::internal::VectorBuffer", i64, i64 }
%"class.base::internal::VectorBuffer" = type { %"class.std::__1::unique_ptr"*, i64 }
%"class.std::__1::unique_ptr" = type { %"class.std::__1::__compressed_pair.18" }
%"class.std::__1::__compressed_pair.18" = type { %"struct.std::__1::__compressed_pair_elem.19" }
%"struct.std::__1::__compressed_pair_elem.19" = type { %"class.guest_view::GuestViewEvent"* }
%"class.guest_view::GuestViewEvent" = type { %"class.std::__1::basic_string", %"class.std::__1::unique_ptr.20" }
%"class.base::WeakPtr" = type { %"class.base::internal::WeakPtrBase" }
%"class.base::internal::WeakPtrBase" = type { %"class.base::internal::WeakReference", i64 }
%"class.base::internal::WeakReference" = type { %class.scoped_refptr }
%class.scoped_refptr = type { %"class.base::internal::WeakReference::Flag"* }
%"class.base::internal::WeakReference::Flag" = type <{ %"class.base::RefCountedThreadSafe", %"class.base::AtomicFlag", [3 x i8] }>
%"class.base::RefCountedThreadSafe" = type { %"class.base::subtle::RefCountedThreadSafeBase" }
%"class.base::subtle::RefCountedThreadSafeBase" = type { %"class.base::AtomicRefCount" }
%"class.base::AtomicRefCount" = type { %"struct.std::__1::atomic" }
%"struct.std::__1::atomic" = type { %"struct.std::__1::__atomic_base" }
%"struct.std::__1::__atomic_base" = type { %"struct.std::__1::__atomic_base.54" }
%"struct.std::__1::__atomic_base.54" = type { %"struct.std::__1::__cxx_atomic_impl" }
%"struct.std::__1::__cxx_atomic_impl" = type { %"struct.std::__1::__cxx_atomic_base_impl" }
%"struct.std::__1::__cxx_atomic_base_impl" = type { i32 }
%"class.base::AtomicFlag" = type { %"struct.std::__1::atomic.55" }
%"struct.std::__1::atomic.55" = type { %"struct.std::__1::__atomic_base.56" }
%"struct.std::__1::__atomic_base.56" = type { %"struct.std::__1::__atomic_base.57" }
%"struct.std::__1::__atomic_base.57" = type { %"struct.std::__1::__cxx_atomic_impl.58" }
%"struct.std::__1::__cxx_atomic_impl.58" = type { %"struct.std::__1::__cxx_atomic_base_impl.59" }
%"struct.std::__1::__cxx_atomic_base_impl.59" = type { i8 }
%"class.std::__1::unique_ptr.20" = type { %"class.std::__1::__compressed_pair.21" }
%"class.std::__1::__compressed_pair.21" = type { %"struct.std::__1::__compressed_pair_elem.22" }
%"struct.std::__1::__compressed_pair_elem.22" = type { %"class.base::DictionaryValue"* }
%"class.base::DictionaryValue" = type { %"class.base::Value" }
%"class.base::Value" = type { %"class.absl::variant" }
%"class.absl::variant" = type { %"class.absl::variant_internal::VariantCopyAssignBaseNontrivial" }
%"class.absl::variant_internal::VariantCopyAssignBaseNontrivial" = type { %"class.absl::variant_internal::VariantMoveAssignBaseNontrivial" }
%"class.absl::variant_internal::VariantMoveAssignBaseNontrivial" = type { %"class.absl::variant_internal::VariantCopyBaseNontrivial" }
%"class.absl::variant_internal::VariantCopyBaseNontrivial" = type { %"class.absl::variant_internal::VariantMoveBaseNontrivial" }
%"class.absl::variant_internal::VariantMoveBaseNontrivial" = type { %"class.absl::variant_internal::VariantStateBaseDestructorNontrivial" }
%"class.absl::variant_internal::VariantStateBaseDestructorNontrivial" = type { %"class.absl::variant_internal::VariantStateBase" }
%"class.absl::variant_internal::VariantStateBase" = type { %"union.absl::variant_internal::DestructibleUnionImpl", i64 }
%"union.absl::variant_internal::DestructibleUnionImpl" = type { %"union.absl::variant_internal::DestructibleUnionImpl.23" }
%"union.absl::variant_internal::DestructibleUnionImpl.23" = type { %"union.absl::variant_internal::DestructibleUnionImpl.24" }
%"union.absl::variant_internal::DestructibleUnionImpl.24" = type { %"union.absl::variant_internal::DestructibleUnionImpl.25" }
%"union.absl::variant_internal::DestructibleUnionImpl.25" = type { %"union.absl::variant_internal::DestructibleUnionImpl.26" }
%"union.absl::variant_internal::DestructibleUnionImpl.26" = type { %"class.std::__1::basic_string" }
%"class.std::__1::unique_ptr.60" = type { %"class.std::__1::__compressed_pair.61" }
%"class.std::__1::__compressed_pair.61" = type { %"struct.std::__1::__compressed_pair_elem.62" }
%"struct.std::__1::__compressed_pair_elem.62" = type { %"class.guest_view::GuestViewBase::OwnerContentsObserver"* }
%"class.guest_view::GuestViewBase::OwnerContentsObserver" = type opaque
%"class.std::__1::unique_ptr.66" = type { %"class.std::__1::__compressed_pair.67" }
%"class.std::__1::__compressed_pair.67" = type { %"struct.std::__1::__compressed_pair_elem.68" }
%"struct.std::__1::__compressed_pair_elem.68" = type { %"class.guest_view::GuestViewBase::OpenerLifetimeObserver"* }
%"class.guest_view::GuestViewBase::OpenerLifetimeObserver" = type opaque
%"class.content::GuestHost" = type { i32 (...)** }
%"class.gfx::Size" = type { i32, i32 }
%"class.base::WeakPtrFactory" = type { %"class.base::internal::WeakPtrFactoryBase" }
%"class.base::internal::WeakPtrFactoryBase" = type { %"class.base::internal::WeakReferenceOwner", i64 }
%"class.base::internal::WeakReferenceOwner" = type { %class.scoped_refptr.72 }
%class.scoped_refptr.72 = type { %"class.base::internal::WeakReference::Flag"* }
%"class.std::__1::unique_ptr.73" = type { %"class.std::__1::__compressed_pair.74" }
%"class.std::__1::__compressed_pair.74" = type { %"struct.std::__1::__compressed_pair_elem.75" }
%"struct.std::__1::__compressed_pair_elem.75" = type { %"class.extensions::ExtensionOptionsGuestDelegate"* }
%"class.extensions::ExtensionOptionsGuestDelegate" = type { i32 (...)**, %"class.extensions::ExtensionOptionsGuest"* }
%class.GURL = type { %"class.std::__1::basic_string", i8, %"struct.url::Parsed", %"class.std::__1::unique_ptr.79" }
%"struct.url::Parsed" = type { %"struct.url::Component", %"struct.url::Component", %"struct.url::Component", %"struct.url::Component", %"struct.url::Component", %"struct.url::Component", %"struct.url::Component", %"struct.url::Component", i8, %"struct.url::Parsed"* }
%"struct.url::Component" = type { i32, i32 }
%"class.std::__1::unique_ptr.79" = type { %"class.std::__1::__compressed_pair.80" }
%"class.std::__1::__compressed_pair.80" = type { %"struct.std::__1::__compressed_pair_elem.81" }
%"struct.std::__1::__compressed_pair_elem.81" = type { %class.GURL* }
%"class.content::WebContents" = type <{ %"class.content::PageNavigator", %"class.base::SupportsUserData.base", [7 x i8] }>
%"class.content::PageNavigator" = type { i32 (...)** }
%"class.base::SupportsUserData.base" = type <{ i32 (...)**, %"class.std::__1::map", %"class.base::SequenceCheckerDoNothing" }>
%"class.std::__1::map" = type { %"class.std::__1::__tree.4" }
%"class.std::__1::__tree.4" = type { %"class.std::__1::__tree_end_node"*, %"class.std::__1::__compressed_pair.5", %"class.std::__1::__compressed_pair.9" }
%"class.std::__1::__compressed_pair.5" = type { %"struct.std::__1::__compressed_pair_elem" }
%"class.std::__1::__compressed_pair.9" = type { %"struct.std::__1::__compressed_pair_elem.2" }
%"class.base::SequenceCheckerDoNothing" = type { i8 }
%"class.extensions::ExtensionsAPIClient" = type { i32 (...)** }
%"class.base::OnceCallback" = type { %"class.base::internal::CallbackBase" }
%"class.base::internal::CallbackBase" = type { %class.scoped_refptr.85 }
%class.scoped_refptr.85 = type { %"class.base::internal::BindStateBase"* }
%"class.base::internal::BindStateBase" = type { %"class.base::RefCountedThreadSafe.86", void ()*, void (%"class.base::internal::BindStateBase"*)*, i1 (%"class.base::internal::BindStateBase"*, i32)* }
%"class.base::RefCountedThreadSafe.86" = type { %"class.base::subtle::RefCountedThreadSafeBase" }
%"class.std::__1::allocator.16" = type { i8 }
%"struct.content::WebContents::CreateParams" = type <{ %"class.content::BrowserContext"*, %class.scoped_refptr.208, i32, i32, i8, i8, [6 x i8], %"class.std::__1::basic_string", %class.GURL, i8, [7 x i8], %"class.content::BrowserPluginGuestDelegate"*, %"class.aura::Window"*, i8, [3 x i8], i32, i32, [4 x i8], %"class.base::TimeTicks", i8, [7 x i8] }>
%class.scoped_refptr.208 = type { %"class.content::SiteInstance"* }
%"class.content::SiteInstance" = type <{ i32 (...)**, %"class.base::RefCounted", [4 x i8] }>
%"class.base::RefCounted" = type { %"class.base::subtle::RefCountedBase" }
%"class.base::subtle::RefCountedBase" = type { i32 }
%"class.aura::Window" = type opaque
%"class.base::TimeTicks" = type { %"class.base::time_internal::TimeBase" }
%"class.base::time_internal::TimeBase" = type { i64 }
%"struct.std::__1::basic_string<char, std::__1::char_traits<char>, std::__1::allocator<char> >::__short" = type { [23 x i8], %struct.anon }
%struct.anon = type { i8 }
%"class.extensions::ExtensionRegistry" = type { %class.KeyedService, %"class.extensions::ExtensionSet", %"class.extensions::ExtensionSet", %"class.extensions::ExtensionSet", %"class.extensions::ExtensionSet", %"class.extensions::ExtensionSet", %"class.extensions::ExtensionSet", %"class.base::ObserverList", %"class.content::BrowserContext"* }
%class.KeyedService = type { i32 (...)** }
%"class.extensions::ExtensionSet" = type { %"class.std::__1::map.87" }
%"class.std::__1::map.87" = type { %"class.std::__1::__tree.88" }
%"class.std::__1::__tree.88" = type { %"class.std::__1::__tree_end_node"*, %"class.std::__1::__compressed_pair.89", %"class.std::__1::__compressed_pair.93" }
%"class.std::__1::__compressed_pair.89" = type { %"struct.std::__1::__compressed_pair_elem" }
%"class.std::__1::__compressed_pair.93" = type { %"struct.std::__1::__compressed_pair_elem.2" }
%"class.base::ObserverList" = type <{ %"class.std::__1::vector.98", %"class.base::LinkedList", i64, i32, [4 x i8] }>
%"class.std::__1::vector.98" = type { %"class.std::__1::__vector_base.99" }
%"class.std::__1::__vector_base.99" = type { %"class.base::internal::UncheckedObserverAdapter"*, %"class.base::internal::UncheckedObserverAdapter"*, %"class.std::__1::__compressed_pair.100" }
%"class.base::internal::UncheckedObserverAdapter" = type { i8* }
%"class.std::__1::__compressed_pair.100" = type { %"struct.std::__1::__compressed_pair_elem.101" }
%"struct.std::__1::__compressed_pair_elem.101" = type { %"class.base::internal::UncheckedObserverAdapter"* }
%"class.base::LinkedList" = type { %"class.base::LinkNode" }
%"class.base::LinkNode" = type { %"class.base::internal::LinkNodeBase" }
%"class.base::internal::LinkNodeBase" = type { %"class.base::internal::LinkNodeBase"*, %"class.base::internal::LinkNodeBase"* }
%"class.extensions::Extension" = type { %"class.base::RefCountedThreadSafe.105", %"class.std::__1::basic_string", %"class.std::__1::basic_string", %"class.std::__1::basic_string", i32, %"class.base::FilePath", %"class.extensions::URLPatternSet", %"class.std::__1::unique_ptr.116", %"class.std::__1::unique_ptr.122", %"class.std::__1::vector.173", %class.GURL, %"class.base::Version", %"class.std::__1::basic_string", %"class.std::__1::basic_string", i8, %"class.std::__1::basic_string", %"class.std::__1::unique_ptr.187", %"class.std::__1::map.199", i8, %"class.base::ThreadChecker", i8, i8, i8, i32, %"class.base::GUID" }
%"class.base::RefCountedThreadSafe.105" = type { %"class.base::subtle::RefCountedThreadSafeBase" }
%"class.base::FilePath" = type { %"class.std::__1::basic_string" }
%"class.extensions::URLPatternSet" = type { %"class.std::__1::set.106" }
%"class.std::__1::set.106" = type { %"class.std::__1::__tree.107" }
%"class.std::__1::__tree.107" = type { %"class.std::__1::__tree_end_node"*, %"class.std::__1::__compressed_pair.108", %"class.std::__1::__compressed_pair.112" }
%"class.std::__1::__compressed_pair.108" = type { %"struct.std::__1::__compressed_pair_elem" }
%"class.std::__1::__compressed_pair.112" = type { %"struct.std::__1::__compressed_pair_elem.2" }
%"class.std::__1::unique_ptr.116" = type { %"class.std::__1::__compressed_pair.117" }
%"class.std::__1::__compressed_pair.117" = type { %"struct.std::__1::__compressed_pair_elem.118" }
%"struct.std::__1::__compressed_pair_elem.118" = type { %"class.extensions::PermissionsParser"* }
%"class.extensions::PermissionsParser" = type opaque
%"class.std::__1::unique_ptr.122" = type { %"class.std::__1::__compressed_pair.123" }
%"class.std::__1::__compressed_pair.123" = type { %"struct.std::__1::__compressed_pair_elem.124" }
%"struct.std::__1::__compressed_pair_elem.124" = type { %"class.extensions::PermissionsData"* }
%"class.extensions::PermissionsData" = type { i32 (...)**, %"class.std::__1::basic_string", i32, i32, %"class.base::Lock", %"class.std::__1::unique_ptr.125", %"class.std::__1::unique_ptr.125", %"class.extensions::URLPatternSet", %"class.extensions::URLPatternSet", %"class.absl::optional", %"class.std::__1::map.153", %"class.std::__1::unique_ptr.164" }
%"class.base::Lock" = type { %"class.base::internal::LockImpl" }
%"class.base::internal::LockImpl" = type { %union.pthread_mutex_t }
%union.pthread_mutex_t = type { %struct.__pthread_mutex_s }
%struct.__pthread_mutex_s = type { i32, i32, i32, i32, i32, i16, i16, %struct.__pthread_internal_list }
%struct.__pthread_internal_list = type { %struct.__pthread_internal_list*, %struct.__pthread_internal_list* }
%"class.std::__1::unique_ptr.125" = type { %"class.std::__1::__compressed_pair.126" }
%"class.std::__1::__compressed_pair.126" = type { %"struct.std::__1::__compressed_pair_elem.127" }
%"struct.std::__1::__compressed_pair_elem.127" = type { %"class.extensions::PermissionSet"* }
%"class.extensions::PermissionSet" = type { %"class.extensions::APIPermissionSet", %"class.extensions::ManifestPermissionSet", %"class.extensions::URLPatternSet", %"class.extensions::URLPatternSet", %"class.extensions::URLPatternSet", i32, i32 }
%"class.extensions::APIPermissionSet" = type { %"class.extensions::BaseSetOperators" }
%"class.extensions::BaseSetOperators" = type { %"class.std::__1::map.128" }
%"class.std::__1::map.128" = type { %"class.std::__1::__tree.129" }
%"class.std::__1::__tree.129" = type { %"class.std::__1::__tree_end_node"*, %"class.std::__1::__compressed_pair.130", %"class.std::__1::__compressed_pair.134" }
%"class.std::__1::__compressed_pair.130" = type { %"struct.std::__1::__compressed_pair_elem" }
%"class.std::__1::__compressed_pair.134" = type { %"struct.std::__1::__compressed_pair_elem.2" }
%"class.extensions::ManifestPermissionSet" = type { %"class.extensions::BaseSetOperators.139" }
%"class.extensions::BaseSetOperators.139" = type { %"class.std::__1::map.140" }
%"class.std::__1::map.140" = type { %"class.std::__1::__tree.141" }
%"class.std::__1::__tree.141" = type { %"class.std::__1::__tree_end_node"*, %"class.std::__1::__compressed_pair.142", %"class.std::__1::__compressed_pair.146" }
%"class.std::__1::__compressed_pair.142" = type { %"struct.std::__1::__compressed_pair_elem" }
%"class.std::__1::__compressed_pair.146" = type { %"struct.std::__1::__compressed_pair_elem.2" }
%"class.absl::optional" = type { %"class.absl::optional_internal::optional_data" }
%"class.absl::optional_internal::optional_data" = type { %"class.absl::optional_internal::optional_data_base" }
%"class.absl::optional_internal::optional_data_base" = type { %"class.absl::optional_internal::optional_data_dtor_base" }
%"class.absl::optional_internal::optional_data_dtor_base" = type { i8, %union.anon.152 }
%union.anon.152 = type { i32 }
%"class.std::__1::map.153" = type { %"class.std::__1::__tree.154" }
%"class.std::__1::__tree.154" = type { %"class.std::__1::__tree_end_node"*, %"class.std::__1::__compressed_pair.155", %"class.std::__1::__compressed_pair.159" }
%"class.std::__1::__compressed_pair.155" = type { %"struct.std::__1::__compressed_pair_elem" }
%"class.std::__1::__compressed_pair.159" = type { %"struct.std::__1::__compressed_pair_elem.2" }
%"class.std::__1::unique_ptr.164" = type { %"class.std::__1::__compressed_pair.165" }
%"class.std::__1::__compressed_pair.165" = type { %"struct.std::__1::__compressed_pair_elem.166" }
%"struct.std::__1::__compressed_pair_elem.166" = type { %"class.base::ThreadChecker"* }
%"class.std::__1::vector.173" = type { %"class.std::__1::__vector_base.174" }
%"class.std::__1::__vector_base.174" = type { %"struct.extensions::InstallWarning"*, %"struct.extensions::InstallWarning"*, %"class.std::__1::__compressed_pair.175" }
%"struct.extensions::InstallWarning" = type { %"class.std::__1::basic_string", %"class.std::__1::basic_string", %"class.std::__1::basic_string" }
%"class.std::__1::__compressed_pair.175" = type { %"struct.std::__1::__compressed_pair_elem.176" }
%"struct.std::__1::__compressed_pair_elem.176" = type { %"struct.extensions::InstallWarning"* }
%"class.base::Version" = type { %"class.std::__1::vector.180" }
%"class.std::__1::vector.180" = type { %"class.std::__1::__vector_base.181" }
%"class.std::__1::__vector_base.181" = type { i32*, i32*, %"class.std::__1::__compressed_pair.182" }
%"class.std::__1::__compressed_pair.182" = type { %"struct.std::__1::__compressed_pair_elem.183" }
%"struct.std::__1::__compressed_pair_elem.183" = type { i32* }
%"class.std::__1::unique_ptr.187" = type { %"class.std::__1::__compressed_pair.188" }
%"class.std::__1::__compressed_pair.188" = type { %"struct.std::__1::__compressed_pair_elem.189" }
%"struct.std::__1::__compressed_pair_elem.189" = type { %"class.extensions::Manifest"* }
%"class.extensions::Manifest" = type { %"class.std::__1::basic_string", %"class.extensions::HashedExtensionId", i32, %"class.std::__1::unique_ptr.190", %"class.std::__1::unique_ptr.190", i32, i32 }
%"class.extensions::HashedExtensionId" = type { %"class.std::__1::basic_string" }
%"class.std::__1::unique_ptr.190" = type { %"class.std::__1::__compressed_pair.191" }
%"class.std::__1::__compressed_pair.191" = type { %"struct.std::__1::__compressed_pair_elem.192" }
%"struct.std::__1::__compressed_pair_elem.192" = type { %"class.base::DictionaryValue"* }
%"class.std::__1::map.199" = type { %"class.std::__1::__tree.200" }
%"class.std::__1::__tree.200" = type { %"class.std::__1::__tree_end_node"*, %"class.std::__1::__compressed_pair.201", %"class.std::__1::__compressed_pair.205" }
%"class.std::__1::__compressed_pair.201" = type { %"struct.std::__1::__compressed_pair_elem" }
%"class.std::__1::__compressed_pair.205" = type { %"struct.std::__1::__compressed_pair_elem.2" }
%"class.base::ThreadChecker" = type { i8 }
%"class.base::GUID" = type { %"class.std::__1::basic_string" }
%"class.base::WeakPtr.215" = type { %"class.base::internal::WeakPtrBase" }
%"struct.content::Referrer" = type <{ %class.GURL, i32, [4 x i8] }>
%"class.content::NavigationController" = type { i32 (...)** }
%"class.std::__1::__basic_string_common" = type { i8 }
%"struct.extensions::api::extension_options_internal::PreferredSizeChangedOptions" = type { double, double }
%"class.gfx::Rect" = type { %"class.gfx::Point", %"class.gfx::Size" }
%"class.gfx::Point" = type { i32, i32 }
%"struct.content::OpenURLParams" = type { %class.GURL, %"struct.content::Referrer", %"class.absl::optional.216", i32, %"class.absl::optional.221", %class.scoped_refptr.208, %"class.std::__1::vector.231", %class.scoped_refptr.237, %"class.std::__1::basic_string", i32, i32, i32, i32, i32, i8, i8, i8, i32, i8, %class.scoped_refptr.259, i8, %"class.std::__1::basic_string", i32, %"class.absl::optional.261" }
%"class.absl::optional.216" = type { %"class.absl::optional_internal::optional_data.217" }
%"class.absl::optional_internal::optional_data.217" = type { %"class.absl::optional_internal::optional_data_base.218" }
%"class.absl::optional_internal::optional_data_base.218" = type { %"class.absl::optional_internal::optional_data_dtor_base.219" }
%"class.absl::optional_internal::optional_data_dtor_base.219" = type { i8, %union.anon.220 }
%union.anon.220 = type { %"class.util::TokenType" }
%"class.util::TokenType" = type { %"class.base::StrongAlias" }
%"class.base::StrongAlias" = type { %"class.base::UnguessableToken" }
%"class.base::UnguessableToken" = type { %"class.base::Token" }
%"class.base::Token" = type { i64, i64 }
%"class.absl::optional.221" = type { %"class.absl::optional_internal::optional_data.222" }
%"class.absl::optional_internal::optional_data.222" = type { %"class.absl::optional_internal::optional_data_base.223" }
%"class.absl::optional_internal::optional_data_base.223" = type { %"class.absl::optional_internal::optional_data_dtor_base.224" }
%"class.absl::optional_internal::optional_data_dtor_base.224" = type { i8, %union.anon.225 }
%union.anon.225 = type { %"class.url::Origin" }
%"class.url::Origin" = type { %"class.url::SchemeHostPort", %"class.absl::optional.226" }
%"class.url::SchemeHostPort" = type <{ %"class.std::__1::basic_string", %"class.std::__1::basic_string", i16, [6 x i8] }>
%"class.absl::optional.226" = type { %"class.absl::optional_internal::optional_data.227" }
%"class.absl::optional_internal::optional_data.227" = type { %"class.absl::optional_internal::optional_data_base.228" }
%"class.absl::optional_internal::optional_data_base.228" = type { %"class.absl::optional_internal::optional_data_dtor_base.229" }
%"class.absl::optional_internal::optional_data_dtor_base.229" = type { i8, %union.anon.230 }
%union.anon.230 = type { %"class.url::Origin::Nonce" }
%"class.url::Origin::Nonce" = type { %"class.base::UnguessableToken" }
%"class.std::__1::vector.231" = type { %"class.std::__1::__vector_base.232" }
%"class.std::__1::__vector_base.232" = type { %class.GURL*, %class.GURL*, %"class.std::__1::__compressed_pair.233" }
%"class.std::__1::__compressed_pair.233" = type { %"struct.std::__1::__compressed_pair_elem.81" }
%class.scoped_refptr.237 = type { %"class.network::ResourceRequestBody"* }
%"class.network::ResourceRequestBody" = type <{ %"class.base::RefCountedThreadSafe.238", [4 x i8], %"class.std::__1::vector.239", i64, i8, i8, [6 x i8] }>
%"class.base::RefCountedThreadSafe.238" = type { %"class.base::subtle::RefCountedThreadSafeBase" }
%"class.std::__1::vector.239" = type { %"class.std::__1::__vector_base.240" }
%"class.std::__1::__vector_base.240" = type { %"class.network::DataElement"*, %"class.network::DataElement"*, %"class.std::__1::__compressed_pair.254" }
%"class.network::DataElement" = type { %"class.absl::variant.241" }
%"class.absl::variant.241" = type { %"class.absl::variant_internal::VariantMoveAssignBaseNontrivial.242" }
%"class.absl::variant_internal::VariantMoveAssignBaseNontrivial.242" = type { %"class.absl::variant_internal::VariantMoveBaseNontrivial.243" }
%"class.absl::variant_internal::VariantMoveBaseNontrivial.243" = type { %"class.absl::variant_internal::VariantStateBaseDestructorNontrivial.244" }
%"class.absl::variant_internal::VariantStateBaseDestructorNontrivial.244" = type { %"class.absl::variant_internal::VariantStateBase.245" }
%"class.absl::variant_internal::VariantStateBase.245" = type { %"union.absl::variant_internal::DestructibleUnionImpl.246", i64 }
%"union.absl::variant_internal::DestructibleUnionImpl.246" = type { %"union.absl::variant_internal::DestructibleUnionImpl.247" }
%"union.absl::variant_internal::DestructibleUnionImpl.247" = type { %"union.absl::variant_internal::DestructibleUnionImpl.248" }
%"union.absl::variant_internal::DestructibleUnionImpl.248" = type { %"union.absl::variant_internal::DestructibleUnionImpl.249" }
%"union.absl::variant_internal::DestructibleUnionImpl.249" = type { %"union.absl::variant_internal::DestructibleUnionImpl.252" }
%"union.absl::variant_internal::DestructibleUnionImpl.252" = type { %"class.network::DataElementFile" }
%"class.network::DataElementFile" = type { %"class.base::FilePath", i64, i64, %"class.base::Time" }
%"class.base::Time" = type { %"class.base::time_internal::TimeBase.253" }
%"class.base::time_internal::TimeBase.253" = type { i64 }
%"class.std::__1::__compressed_pair.254" = type { %"struct.std::__1::__compressed_pair_elem.255" }
%"struct.std::__1::__compressed_pair_elem.255" = type { %"class.network::DataElement"* }
%class.scoped_refptr.259 = type { %"class.network::SharedURLLoaderFactory"* }
%"class.network::SharedURLLoaderFactory" = type <{ %"class.network::mojom::URLLoaderFactory", %"class.base::RefCounted.260", [4 x i8] }>
%"class.network::mojom::URLLoaderFactory" = type { i32 (...)** }
%"class.base::RefCounted.260" = type { %"class.base::subtle::RefCountedBase" }
%"class.absl::optional.261" = type { %"class.absl::optional_internal::optional_data.262" }
%"class.absl::optional_internal::optional_data.262" = type { %"class.absl::optional_internal::optional_data_base.263" }
%"class.absl::optional_internal::optional_data_base.263" = type { %"class.absl::optional_internal::optional_data_dtor_base.264" }
%"class.absl::optional_internal::optional_data_dtor_base.264" = type { i8, %union.anon.265 }
%union.anon.265 = type { %"struct.blink::Impression" }
%"struct.blink::Impression" = type { %"class.url::Origin", %"class.absl::optional.221", i64, %"class.absl::optional.266", i64 }
%"class.absl::optional.266" = type { %"class.absl::optional_internal::optional_data.267" }
%"class.absl::optional_internal::optional_data.267" = type { %"class.absl::optional_internal::optional_data_base.268" }
%"class.absl::optional_internal::optional_data_base.268" = type { %"class.absl::optional_internal::optional_data_dtor_base.269" }
%"class.absl::optional_internal::optional_data_dtor_base.269" = type { i8, %union.anon.270 }
%union.anon.270 = type { %"class.base::TimeDelta" }
%"class.base::TimeDelta" = type { i64 }
%"class.content::RenderFrameHost" = type { %"class.IPC::Listener", %"class.IPC::Sender" }
%"class.IPC::Sender" = type { i32 (...)** }
%"struct.content::ContextMenuParams" = type opaque
%"class.content::StoragePartitionId" = type { %"class.std::__1::basic_string", %"class.content::StoragePartitionConfig" }
%"class.content::StoragePartitionConfig" = type { %"class.std::__1::basic_string", %"class.std::__1::basic_string", i8, i32 }
%"class.content::SessionStorageNamespace" = type <{ i32 (...)**, %"class.base::RefCountedThreadSafe.271", [4 x i8] }>
%"class.base::RefCountedThreadSafe.271" = type { %"class.base::subtle::RefCountedThreadSafeBase" }
%"class.content::NavigationHandle" = type { %"class.base::SupportsUserData.base", [7 x i8] }
%"class.base::SupportsUserData" = type <{ i32 (...)**, %"class.std::__1::map", %"class.base::SequenceCheckerDoNothing", [7 x i8] }>
%"class.base::SupportsUserData::Data" = type { i32 (...)** }
%"class.zoom::ZoomController" = type { %"class.content::WebContentsObserver", %"class.content::WebContentsUserData", i8, i32, double, %"class.std::__1::unique_ptr.272", %class.scoped_refptr.278, %"class.base::ObserverList.280", %"class.content::BrowserContext"*, %"class.content::HostZoomMap"*, %"class.base::CallbackListSubscription" }
%"class.content::WebContentsUserData" = type { %"class.base::SupportsUserData::Data" }
%"class.std::__1::unique_ptr.272" = type { %"class.std::__1::__compressed_pair.273" }
%"class.std::__1::__compressed_pair.273" = type { %"struct.std::__1::__compressed_pair_elem.274" }
%"struct.std::__1::__compressed_pair_elem.274" = type { %"struct.zoom::ZoomController::ZoomChangedEventData"* }
%"struct.zoom::ZoomController::ZoomChangedEventData" = type <{ %"class.content::WebContents"*, double, double, i32, i8, [3 x i8] }>
%class.scoped_refptr.278 = type { %"class.zoom::ZoomRequestClient"* }
%"class.zoom::ZoomRequestClient" = type <{ i32 (...)**, %"class.base::RefCounted.279", [4 x i8] }>
%"class.base::RefCounted.279" = type { %"class.base::subtle::RefCountedBase" }
%"class.base::ObserverList.280" = type <{ %"class.std::__1::vector.98", %"class.base::LinkedList.281", i64, i32, [4 x i8] }>
%"class.base::LinkedList.281" = type { %"class.base::LinkNode.282" }
%"class.base::LinkNode.282" = type { %"class.base::internal::LinkNodeBase" }
%"class.content::HostZoomMap" = type { i32 (...)** }
%"class.base::CallbackListSubscription" = type { %"class.base::OnceCallback.284" }
%"class.base::OnceCallback.284" = type { %"class.base::internal::CallbackBase" }
%"class.content::RenderProcessHost" = type <{ %"class.IPC::Sender", %"class.IPC::Listener", %"class.base::SupportsUserData.base", [7 x i8] }>
%"class.content::RenderWidgetHost" = type opaque
%"struct.content::NativeWebKeyboardEvent" = type opaque
%"class.blink::WebGestureEvent" = type opaque
%"class.content::ColorChooser" = type opaque
%"class.std::__1::vector.285" = type opaque
%"class.std::__1::basic_string.286" = type { %"class.std::__1::__compressed_pair.287" }
%"class.std::__1::__compressed_pair.287" = type { %"struct.std::__1::__compressed_pair_elem.288" }
%"struct.std::__1::__compressed_pair_elem.288" = type { %"struct.std::__1::basic_string<char16_t, std::__1::char_traits<char16_t>, std::__1::allocator<char16_t> >::__rep" }
%"struct.std::__1::basic_string<char16_t, std::__1::char_traits<char16_t>, std::__1::allocator<char16_t> >::__rep" = type { %union.anon.289 }
%union.anon.289 = type { %"struct.std::__1::basic_string<char16_t, std::__1::char_traits<char16_t>, std::__1::allocator<char16_t> >::__long" }
%"struct.std::__1::basic_string<char16_t, std::__1::char_traits<char16_t>, std::__1::allocator<char16_t> >::__long" = type { i16*, i64, i64 }
%"struct.content::DropData" = type { i32, i8, %class.GURL, %"class.std::__1::basic_string.286", %"class.std::__1::basic_string.286", i32, %"class.std::__1::vector.295", %"class.std::__1::vector.302", %"class.std::__1::basic_string.286", %"class.std::__1::vector.309", %"class.absl::optional.316", %"class.absl::optional.316", %class.GURL, %"class.std::__1::basic_string", %class.GURL, %"class.std::__1::basic_string", %"class.std::__1::basic_string", %"class.std::__1::unordered_map" }
%"class.std::__1::vector.295" = type { %"class.std::__1::__vector_base.296" }
%"class.std::__1::__vector_base.296" = type { %"struct.ui::FileInfo"*, %"struct.ui::FileInfo"*, %"class.std::__1::__compressed_pair.297" }
%"struct.ui::FileInfo" = type { %"class.base::FilePath", %"class.base::FilePath" }
%"class.std::__1::__compressed_pair.297" = type { %"struct.std::__1::__compressed_pair_elem.298" }
%"struct.std::__1::__compressed_pair_elem.298" = type { %"struct.ui::FileInfo"* }
%"class.std::__1::vector.302" = type { %"class.std::__1::__vector_base.303" }
%"class.std::__1::__vector_base.303" = type { %"class.std::__1::basic_string.286"*, %"class.std::__1::basic_string.286"*, %"class.std::__1::__compressed_pair.304" }
%"class.std::__1::__compressed_pair.304" = type { %"struct.std::__1::__compressed_pair_elem.305" }
%"struct.std::__1::__compressed_pair_elem.305" = type { %"class.std::__1::basic_string.286"* }
%"class.std::__1::vector.309" = type { %"class.std::__1::__vector_base.310" }
%"class.std::__1::__vector_base.310" = type { %"struct.content::DropData::FileSystemFileInfo"*, %"struct.content::DropData::FileSystemFileInfo"*, %"class.std::__1::__compressed_pair.311" }
%"struct.content::DropData::FileSystemFileInfo" = type { %class.GURL, i64, %"class.std::__1::basic_string" }
%"class.std::__1::__compressed_pair.311" = type { %"struct.std::__1::__compressed_pair_elem.312" }
%"struct.std::__1::__compressed_pair_elem.312" = type { %"struct.content::DropData::FileSystemFileInfo"* }
%"class.absl::optional.316" = type { %"class.absl::optional_internal::optional_data.317" }
%"class.absl::optional_internal::optional_data.317" = type { %"class.absl::optional_internal::optional_data_base.318" }
%"class.absl::optional_internal::optional_data_base.318" = type { %"class.absl::optional_internal::optional_data_dtor_base.319" }
%"class.absl::optional_internal::optional_data_dtor_base.319" = type { i8, %union.anon.320 }
%union.anon.320 = type { %"class.std::__1::basic_string.286" }
%"class.std::__1::unordered_map" = type { %"class.std::__1::__hash_table" }
%"class.std::__1::__hash_table" = type <{ %"class.std::__1::unique_ptr.321", %"class.std::__1::__compressed_pair.329", %"class.std::__1::__compressed_pair.334", %"class.std::__1::__compressed_pair.336", [4 x i8] }>
%"class.std::__1::unique_ptr.321" = type { %"class.std::__1::__compressed_pair.322" }
%"class.std::__1::__compressed_pair.322" = type { %"struct.std::__1::__compressed_pair_elem.323", %"struct.std::__1::__compressed_pair_elem.324" }
%"struct.std::__1::__compressed_pair_elem.323" = type { %"struct.std::__1::__hash_node_base"** }
%"struct.std::__1::__hash_node_base" = type { %"struct.std::__1::__hash_node_base"* }
%"struct.std::__1::__compressed_pair_elem.324" = type { %"class.std::__1::__bucket_list_deallocator" }
%"class.std::__1::__bucket_list_deallocator" = type { %"class.std::__1::__compressed_pair.325" }
%"class.std::__1::__compressed_pair.325" = type { %"struct.std::__1::__compressed_pair_elem.2" }
%"class.std::__1::__compressed_pair.329" = type { %"struct.std::__1::__compressed_pair_elem.330" }
%"struct.std::__1::__compressed_pair_elem.330" = type { %"struct.std::__1::__hash_node_base" }
%"class.std::__1::__compressed_pair.334" = type { %"struct.std::__1::__compressed_pair_elem.2" }
%"class.std::__1::__compressed_pair.336" = type { %"struct.std::__1::__compressed_pair_elem.337" }
%"struct.std::__1::__compressed_pair_elem.337" = type { float }
%"class.base::RepeatingCallback" = type { %"class.base::internal::CallbackBaseCopyable" }
%"class.base::internal::CallbackBaseCopyable" = type { %"class.base::internal::CallbackBase" }
%"class.content::JavaScriptDialogManager" = type opaque
%"class.std::__1::vector.340" = type { %"class.std::__1::__vector_base.341" }
%"class.std::__1::__vector_base.341" = type { %"class.url::Origin"*, %"class.url::Origin"*, %"class.std::__1::__compressed_pair.342" }
%"class.std::__1::__compressed_pair.342" = type { %"struct.std::__1::__compressed_pair_elem.343" }
%"struct.std::__1::__compressed_pair_elem.343" = type { %"class.url::Origin"* }
%"class.blink::mojom::FullscreenOptions" = type opaque
%"struct.content::SecurityStyleExplanations" = type opaque
%"class.viz::SurfaceId" = type opaque
%"struct.content::MediaPlayerWatchTime" = type opaque
%"class.device::mojom::GeolocationContext" = type opaque
%"class.IPC::Message" = type { %"class.base::Pickle", i8, %class.scoped_refptr.347 }
%"class.base::Pickle" = type { i32 (...)**, %"struct.base::Pickle::Header"*, i64, i64, i64 }
%"struct.base::Pickle::Header" = type { i32 }
%class.scoped_refptr.347 = type { %"class.IPC::MessageAttachmentSet"* }
%"class.IPC::MessageAttachmentSet" = type opaque
%"class.mojo::ScopedInterfaceEndpointHandle" = type { %class.scoped_refptr.348 }
%class.scoped_refptr.348 = type { %"class.mojo::ScopedInterfaceEndpointHandle::State"* }
%"class.mojo::ScopedInterfaceEndpointHandle::State" = type opaque
%"class.blink::mojom::CaptureHandleConfig" = type opaque
%"class.content::RenderViewHost" = type opaque
%"struct.content::GlobalRequestID" = type { i32, i32 }
%"class.blink::mojom::ResourceLoadInfo" = type opaque
%"struct.content::CookieAccessDetails" = type <{ i32, [4 x i8], %class.GURL, %class.GURL, %"class.std::__1::vector.349", i8, [7 x i8] }>
%"class.std::__1::vector.349" = type { %"class.std::__1::__vector_base.350" }
%"class.std::__1::__vector_base.350" = type { %"class.net::CanonicalCookie"*, %"class.net::CanonicalCookie"*, %"class.std::__1::__compressed_pair.351" }
%"class.net::CanonicalCookie" = type { %"class.std::__1::basic_string", %"class.std::__1::basic_string", %"class.std::__1::basic_string", %"class.std::__1::basic_string", %"class.base::Time", %"class.base::Time", %"class.base::Time", i8, i8, i32, i32, i8, i32, i32 }
%"class.std::__1::__compressed_pair.351" = type { %"struct.std::__1::__compressed_pair_elem.352" }
%"struct.std::__1::__compressed_pair_elem.352" = type { %"class.net::CanonicalCookie"* }
%"struct.content::LoadCommittedDetails" = type opaque
%"struct.content::PrunedDetails" = type opaque
%"struct.content::EntryChangedDetails" = type opaque
%"class.blink::WebInputEvent" = type { i32 (...)**, float, %"class.gfx::Vector2dF", %"class.base::TimeTicks", i32, i32 }
%"class.gfx::Vector2dF" = type { float, float }
%"class.content::NavigationEntry" = type opaque
%"struct.blink::UserAgentOverride" = type { %"class.std::__1::basic_string", %"class.absl::optional.356" }
%"class.absl::optional.356" = type { %"class.absl::optional_internal::optional_data.357" }
%"class.absl::optional_internal::optional_data.357" = type { %"class.absl::optional_internal::optional_data_base.358" }
%"class.absl::optional_internal::optional_data_base.358" = type { %"class.absl::optional_internal::optional_data_dtor_base.359" }
%"class.absl::optional_internal::optional_data_dtor_base.359" = type { i8, [7 x i8], %union.anon.360 }
%union.anon.360 = type { %"struct.blink::UserAgentMetadata" }
%"struct.blink::UserAgentMetadata" = type <{ %"class.std::__1::vector.361", %"class.std::__1::basic_string", %"class.std::__1::basic_string", %"class.std::__1::basic_string", %"class.std::__1::basic_string", %"class.std::__1::basic_string", i8, [7 x i8] }>
%"class.std::__1::vector.361" = type { %"class.std::__1::__vector_base.362" }
%"class.std::__1::__vector_base.362" = type { %"struct.blink::UserAgentBrandVersion"*, %"struct.blink::UserAgentBrandVersion"*, %"class.std::__1::__compressed_pair.363" }
%"struct.blink::UserAgentBrandVersion" = type { %"class.std::__1::basic_string", %"class.std::__1::basic_string" }
%"class.std::__1::__compressed_pair.363" = type { %"struct.std::__1::__compressed_pair_elem.364" }
%"struct.std::__1::__compressed_pair_elem.364" = type { %"struct.blink::UserAgentBrandVersion"* }
%"class.std::__1::vector.368" = type opaque
%"struct.content::AXEventNotificationDetails" = type opaque
%"class.std::__1::vector.369" = type opaque
%"struct.content::WebContentsObserver::MediaPlayerInfo" = type { i8, i8 }
%"struct.content::MediaPlayerId" = type opaque
%"struct.content::FocusedNodeDetails" = type opaque
%"class.absl::optional.370" = type { %"class.absl::optional_internal::optional_data.371" }
%"class.absl::optional_internal::optional_data.371" = type { %"class.absl::optional_internal::optional_data_base.372" }
%"class.absl::optional_internal::optional_data_base.372" = type { %"class.absl::optional_internal::optional_data_dtor_base.373" }
%"class.absl::optional_internal::optional_data_dtor_base.373" = type { i8, %union.anon.374 }
%union.anon.374 = type { %class.GURL }
%"class.mojo::ScopedHandleBase" = type { %"class.mojo::MessagePipeHandle" }
%"class.mojo::MessagePipeHandle" = type { %"class.mojo::Handle" }
%"class.mojo::Handle" = type { i32 }
%"struct.std::__1::pair.375" = type opaque

$_ZNK10guest_view9GuestViewIN10extensions21ExtensionOptionsGuestEE11GetViewTypeEv = comdat any

$_ZN10guest_view13GuestViewBase19DidAttachToEmbedderEv = comdat any

$_ZN10guest_view13GuestViewBase25EmbedderFullscreenToggledEb = comdat any

$_ZN10guest_view13GuestViewBase14GuestDestroyedEv = comdat any

$_ZN10guest_view13GuestViewBase10GuestReadyEv = comdat any

$_ZN10guest_view13GuestViewBase16GuestZoomChangedEdd = comdat any

$_ZN10guest_view13GuestViewBase29GuestSizeChangedDueToAutoSizeERKN3gfx4SizeES4_ = comdat any

$_ZN10guest_view13GuestViewBase20WillAttachToEmbedderEv = comdat any

$_ZN10guest_view13GuestViewBase11WillDestroyEv = comdat any

$_ZN7content19WebContentsDelegate22NavigationStateChangedEPNS_11WebContentsENS_15InvalidateTypesE = comdat any

$_ZN7content19WebContentsDelegate27VisibleSecurityStateChangedEPNS_11WebContentsE = comdat any

$_ZN7content19WebContentsDelegate17SetContentsBoundsEPNS_11WebContentsERKN3gfx4RectE = comdat any

$_ZN7content19WebContentsDelegate26WillRunBeforeUnloadConfirmEv = comdat any

$_ZN7content19WebContentsDelegate21SetFocusToLocationBarEv = comdat any

$_ZN7content19WebContentsDelegate11LostCaptureEv = comdat any

$_ZN7content19WebContentsDelegate27ShowRepostFormWarningDialogEPNS_11WebContentsE = comdat any

$_ZN7content19WebContentsDelegate18WebContentsCreatedEPNS_11WebContentsEiiRKNSt3__112basic_stringIcNS3_11char_traitsIcEENS3_9allocatorIcEEEERK4GURLS2_ = comdat any

$_ZN7content19WebContentsDelegate24PortalWebContentsCreatedEPNS_11WebContentsE = comdat any

$_ZN7content19WebContentsDelegate23WebContentsBecamePortalEPNS_11WebContentsE = comdat any

$_ZN7content19WebContentsDelegate20RendererUnresponsiveEPNS_11WebContentsEPNS_16RenderWidgetHostEN4base17RepeatingCallbackIFvvEEE = comdat any

$_ZN7content19WebContentsDelegate18RendererResponsiveEPNS_11WebContentsEPNS_16RenderWidgetHostE = comdat any

$_ZN7content19WebContentsDelegate30DidNavigateMainFramePostCommitEPNS_11WebContentsE = comdat any

$_ZN7content19WebContentsDelegate25EnterFullscreenModeForTabEPNS_15RenderFrameHostERKN5blink5mojom17FullscreenOptionsE = comdat any

$_ZN7content19WebContentsDelegate28FullscreenStateChangedForTabEPNS_15RenderFrameHostERKN5blink5mojom17FullscreenOptionsE = comdat any

$_ZN7content19WebContentsDelegate24ExitFullscreenModeForTabEPNS_11WebContentsE = comdat any

$_ZN7content19WebContentsDelegate23RegisterProtocolHandlerEPNS_15RenderFrameHostERKNSt3__112basic_stringIcNS3_11char_traitsIcEENS3_9allocatorIcEEEERK4GURLb = comdat any

$_ZN7content19WebContentsDelegate25UnregisterProtocolHandlerEPNS_15RenderFrameHostERKNSt3__112basic_stringIcNS3_11char_traitsIcEENS3_9allocatorIcEEEERK4GURLb = comdat any

$_ZN7content19WebContentsDelegate9FindReplyEPNS_11WebContentsEiiRKN3gfx4RectEib = comdat any

$_ZN7content19WebContentsDelegate13LostMouseLockEv = comdat any

$_ZN7content19WebContentsDelegate25CancelKeyboardLockRequestEPNS_11WebContentsE = comdat any

$_ZN7content19WebContentsDelegate20OnDidBlockNavigationEPNS_11WebContentsERK4GURLS5_N5blink5mojom23NavigationBlockedReasonE = comdat any

$_ZN7content19WebContentsDelegate27PassiveInsecureContentFoundERK4GURL = comdat any

$_ZN7content19WebContentsDelegate24SetTopControlsShownRatioEPNS_11WebContentsEf = comdat any

$_ZN7content19WebContentsDelegate37SetTopControlsGestureScrollInProgressEb = comdat any

$_ZN7content19WebContentsDelegate32AdjustPreviewsStateForNavigationEPNS_11WebContentsEPi = comdat any

$_ZNK7content19WebContentsDelegate25PrintCrossProcessSubframeEPNS_11WebContentsERKN3gfx4RectEiPNS_15RenderFrameHostE = comdat any

$_ZN7content19WebContentsDelegate29CapturePaintPreviewOfSubframeEPNS_11WebContentsERKN3gfx4RectERKN4base16UnguessableTokenEPNS_15RenderFrameHostE = comdat any

$_ZN7content19WebContentsDelegate20ExitPictureInPictureEv = comdat any

$_ZN7content19WebContentsDelegate21MediaWatchTimeChangedERKNS_20MediaPlayerWatchTimeE = comdat any

$_ZN3IPC8Listener18OnChannelConnectedEi = comdat any

$_ZN3IPC8Listener14OnChannelErrorEv = comdat any

$_ZN3IPC8Listener20OnBadMessageReceivedERKNS_7MessageE = comdat any

$_ZN3IPC8Listener28OnAssociatedInterfaceRequestERKNSt3__112basic_stringIcNS1_11char_traitsIcEENS1_9allocatorIcEEEEN4mojo29ScopedInterfaceEndpointHandleE = comdat any

$_ZN3IPC8Listener15OnChannelDeniedEv = comdat any

$_ZN3IPC8Listener20OnChannelListenErrorEv = comdat any

$_ZN7content19WebContentsObserver18RenderFrameCreatedEPNS_15RenderFrameHostE = comdat any

$_ZN7content19WebContentsObserver18RenderFrameDeletedEPNS_15RenderFrameHostE = comdat any

$_ZN7content19WebContentsObserver22RenderFrameHostChangedEPNS_15RenderFrameHostES2_ = comdat any

$_ZN7content19WebContentsObserver12FrameDeletedEi = comdat any

$_ZN7content19WebContentsObserver27RenderFrameHostStateChangedEPNS_15RenderFrameHostENS1_14LifecycleStateES3_ = comdat any

$_ZN7content19WebContentsObserver20CaptureTargetChangedEv = comdat any

$_ZN7content19WebContentsObserver27OnCaptureHandleConfigUpdateERKN5blink5mojom19CaptureHandleConfigE = comdat any

$_ZN7content19WebContentsObserver17RenderViewDeletedEPNS_14RenderViewHostE = comdat any

$_ZN7content19WebContentsObserver17RenderProcessGoneEN4base17TerminationStatusE = comdat any

$_ZN7content19WebContentsObserver21RenderViewHostChangedEPNS_14RenderViewHostES2_ = comdat any

$_ZN7content19WebContentsObserver22OnRendererUnresponsiveEPNS_17RenderProcessHostE = comdat any

$_ZN7content19WebContentsObserver20OnRendererResponsiveEPNS_17RenderProcessHostE = comdat any

$_ZN7content19WebContentsObserver18DidStartNavigationEPNS_16NavigationHandleE = comdat any

$_ZN7content19WebContentsObserver21DidRedirectNavigationEPNS_16NavigationHandleE = comdat any

$_ZN7content19WebContentsObserver23ReadyToCommitNavigationEPNS_16NavigationHandleE = comdat any

$_ZN7content19WebContentsObserver17DidActivatePortalEPNS_11WebContentsEN4base9TimeTicksE = comdat any

$_ZN7content19WebContentsObserver15DidStartLoadingEv = comdat any

$_ZN7content19WebContentsObserver18DidReceiveResponseEv = comdat any

$_ZN7content19WebContentsObserver19LoadProgressChangedEd = comdat any

$_ZN7content19WebContentsObserver28DocumentAvailableInMainFrameEPNS_15RenderFrameHostE = comdat any

$_ZN7content19WebContentsObserver34DocumentOnLoadCompletedInMainFrameEPNS_15RenderFrameHostE = comdat any

$_ZN7content19WebContentsObserver16DOMContentLoadedEPNS_15RenderFrameHostE = comdat any

$_ZN7content19WebContentsObserver13DidFinishLoadEPNS_15RenderFrameHostERK4GURL = comdat any

$_ZN7content19WebContentsObserver11DidFailLoadEPNS_15RenderFrameHostERK4GURLi = comdat any

$_ZN7content19WebContentsObserver29DidChangeVisibleSecurityStateEv = comdat any

$_ZN7content19WebContentsObserver30DidLoadResourceFromMemoryCacheEPNS_15RenderFrameHostERK4GURLRKNSt3__112basic_stringIcNS6_11char_traitsIcEENS6_9allocatorIcEEEEN7network5mojom18RequestDestinationE = comdat any

$_ZN7content19WebContentsObserver20ResourceLoadCompleteEPNS_15RenderFrameHostERKNS_15GlobalRequestIDERKN5blink5mojom16ResourceLoadInfoE = comdat any

$_ZN7content19WebContentsObserver17OnCookiesAccessedEPNS_15RenderFrameHostERKNS_19CookieAccessDetailsE = comdat any

$_ZN7content19WebContentsObserver17OnCookiesAccessedEPNS_16NavigationHandleERKNS_19CookieAccessDetailsE = comdat any

$_ZN7content19WebContentsObserver24NavigationEntryCommittedERKNS_20LoadCommittedDetailsE = comdat any

$_ZN7content19WebContentsObserver20NavigationListPrunedERKNS_13PrunedDetailsE = comdat any

$_ZN7content19WebContentsObserver24NavigationEntriesDeletedEv = comdat any

$_ZN7content19WebContentsObserver22NavigationEntryChangedERKNS_19EntryChangedDetailsE = comdat any

$_ZN7content19WebContentsObserver19DidOpenRequestedURLEPNS_11WebContentsEPNS_15RenderFrameHostERK4GURLRKNS_8ReferrerE21WindowOpenDispositionN2ui14PageTransitionEbb = comdat any

$_ZN7content19WebContentsObserver29DidFirstVisuallyNonEmptyPaintEv = comdat any

$_ZN7content19WebContentsObserver17NavigationStoppedEv = comdat any

$_ZN7content19WebContentsObserver21DidGetUserInteractionERKN5blink13WebInputEventE = comdat any

$_ZN7content19WebContentsObserver20DidGetIgnoredUIEventEv = comdat any

$_ZN7content19WebContentsObserver19OnVisibilityChangedENS_10VisibilityE = comdat any

$_ZN7content19WebContentsObserver19MainFrameWasResizedEb = comdat any

$_ZN7content19WebContentsObserver16FrameNameChangedEPNS_15RenderFrameHostERKNSt3__112basic_stringIcNS3_11char_traitsIcEENS3_9allocatorIcEEEE = comdat any

$_ZN7content19WebContentsObserver27FrameReceivedUserActivationEPNS_15RenderFrameHostE = comdat any

$_ZN7content19WebContentsObserver24FrameDisplayStateChangedEPNS_15RenderFrameHostEb = comdat any

$_ZN7content19WebContentsObserver16FrameSizeChangedEPNS_15RenderFrameHostERKN3gfx4SizeE = comdat any

$_ZN7content19WebContentsObserver11TitleWasSetEPNS_15NavigationEntryE = comdat any

$_ZN7content19WebContentsObserver16AppCacheAccessedERK4GURLb = comdat any

$_ZN7content19WebContentsObserver21PepperInstanceCreatedEv = comdat any

$_ZN7content19WebContentsObserver21PepperInstanceDeletedEv = comdat any

$_ZN7content19WebContentsObserver18ViewportFitChangedEN5blink5mojom11ViewportFitE = comdat any

$_ZN7content19WebContentsObserver13PluginCrashedERKN4base8FilePathEi = comdat any

$_ZN7content19WebContentsObserver23PluginHungStatusChangedEiRKN4base8FilePathEb = comdat any

$_ZN7content19WebContentsObserver23InnerWebContentsCreatedEPNS_11WebContentsE = comdat any

$_ZN7content19WebContentsObserver24InnerWebContentsAttachedEPNS_11WebContentsEPNS_15RenderFrameHostEb = comdat any

$_ZN7content19WebContentsObserver24InnerWebContentsDetachedEPNS_11WebContentsE = comdat any

$_ZN7content19WebContentsObserver24DidCloneToNewWebContentsEPNS_11WebContentsES2_ = comdat any

$_ZN7content19WebContentsObserver20UserAgentOverrideSetERKN5blink17UserAgentOverrideE = comdat any

$_ZN7content19WebContentsObserver19DidUpdateFaviconURLEPNS_15RenderFrameHostERKNSt3__16vectorIN4mojo9StructPtrIN5blink5mojom10FaviconURLEEENS3_9allocatorISA_EEEE = comdat any

$_ZN7content19WebContentsObserver19OnAudioStateChangedEb = comdat any

$_ZN7content19WebContentsObserver24OnFrameAudioStateChangedEPNS_15RenderFrameHostEb = comdat any

$_ZN7content19WebContentsObserver37OnIsConnectedToBluetoothDeviceChangedEb = comdat any

$_ZN7content19WebContentsObserver25DidUpdateAudioMutingStateEb = comdat any

$_ZN7content19WebContentsObserver29DidToggleFullscreenModeForTabEbb = comdat any

$_ZN7content19WebContentsObserver20DidAcquireFullscreenEPNS_15RenderFrameHostE = comdat any

$_ZN7content19WebContentsObserver32DidChangeVerticalScrollDirectionEN3viz23VerticalScrollDirectionE = comdat any

$_ZN7content19WebContentsObserver27BeforeFormRepostWarningShowEv = comdat any

$_ZN7content19WebContentsObserver17BeforeUnloadFiredEbRKN4base9TimeTicksE = comdat any

$_ZN7content19WebContentsObserver27BeforeUnloadDialogCancelledEv = comdat any

$_ZN7content19WebContentsObserver30AXTreeIDForMainFrameHasChangedEv = comdat any

$_ZN7content19WebContentsObserver26AccessibilityEventReceivedERKNS_26AXEventNotificationDetailsE = comdat any

$_ZN7content19WebContentsObserver36AccessibilityLocationChangesReceivedERKNSt3__16vectorINS_35AXLocationChangeNotificationDetailsENS1_9allocatorIS3_EEEE = comdat any

$_ZN7content19WebContentsObserver19DidChangeThemeColorEv = comdat any

$_ZN7content19WebContentsObserver24OnBackgroundColorChangedEv = comdat any

$_ZN7content19WebContentsObserver24OnDidAddMessageToConsoleEPNS_15RenderFrameHostEN5blink5mojom19ConsoleMessageLevelERKNSt3__112basic_stringIDsNS6_11char_traitsIDsEENS6_9allocatorIDsEEEEiSE_RKN4absl8optionalISC_EE = comdat any

$_ZN7content19WebContentsObserver19MediaStartedPlayingERKNS0_15MediaPlayerInfoERKNS_13MediaPlayerIdE = comdat any

$_ZN7content19WebContentsObserver19MediaStoppedPlayingERKNS0_15MediaPlayerInfoERKNS_13MediaPlayerIdENS0_18MediaStoppedReasonE = comdat any

$_ZN7content19WebContentsObserver12MediaResizedERKN3gfx4SizeERKNS_13MediaPlayerIdE = comdat any

$_ZN7content19WebContentsObserver33MediaEffectivelyFullscreenChangedEb = comdat any

$_ZN7content19WebContentsObserver28MediaPictureInPictureChangedEb = comdat any

$_ZN7content19WebContentsObserver23MediaMutedStatusChangedERKNS_13MediaPlayerIdEb = comdat any

$_ZN7content19WebContentsObserver20MediaBufferUnderflowERKNS_13MediaPlayerIdE = comdat any

$_ZN7content19WebContentsObserver15MediaPlayerSeekERKNS_13MediaPlayerIdE = comdat any

$_ZN7content19WebContentsObserver14MediaDestroyedERKNS_13MediaPlayerIdE = comdat any

$_ZN7content19WebContentsObserver24OnPageScaleFactorChangedEf = comdat any

$_ZN7content19WebContentsObserver7OnPasteEv = comdat any

$_ZN7content19WebContentsObserver20OnWebContentsFocusedEPNS_16RenderWidgetHostE = comdat any

$_ZN7content19WebContentsObserver22OnWebContentsLostFocusEPNS_16RenderWidgetHostE = comdat any

$_ZN7content19WebContentsObserver20OnFocusChangedInPageEPNS_18FocusedNodeDetailsE = comdat any

$_ZN7content19WebContentsObserver23DidUpdateWebManifestURLEPNS_15RenderFrameHostERKN4absl8optionalI4GURLEE = comdat any

$_ZN7content19WebContentsObserver27OnInterfaceRequestFromFrameEPNS_15RenderFrameHostERKNSt3__112basic_stringIcNS3_11char_traitsIcEENS3_9allocatorIcEEEEPN4mojo16ScopedHandleBaseINSC_17MessagePipeHandleEEE = comdat any

$_ZN7content19WebContentsObserver27AudioContextPlaybackStartedERKNSt3__14pairIPNS_15RenderFrameHostEiEE = comdat any

$_ZN7content19WebContentsObserver27AudioContextPlaybackStoppedERKNSt3__14pairIPNS_15RenderFrameHostEiEE = comdat any

$_ZN7content19WebContentsObserver23OnServiceWorkerAccessedEPNS_15RenderFrameHostERK4GURLNS_24AllowServiceWorkerResultE = comdat any

$_ZN7content19WebContentsObserver23OnServiceWorkerAccessedEPNS_16NavigationHandleERK4GURLNS_24AllowServiceWorkerResultE = comdat any

@_ZN10extensions21ExtensionOptionsGuest4TypeE = hidden constant [17 x i8] c"extensionoptions\00", align 16
@_ZTVN10extensions21ExtensionOptionsGuestE = hidden unnamed_addr constant { [56 x i8*], [99 x i8*], [109 x i8*], [5 x i8*] } { [56 x i8*] [i8* null, i8* null, i8* bitcast (void (%"class.extensions::ExtensionOptionsGuest"*)* @_ZN10extensions21ExtensionOptionsGuestD2Ev to i8*), i8* bitcast (void (%"class.extensions::ExtensionOptionsGuest"*)* @_ZN10extensions21ExtensionOptionsGuestD0Ev to i8*), i8* bitcast (%"class.content::WebContents"* (%"class.guest_view::GuestViewBase"*, %"struct.content::WebContents::CreateParams"*)* @_ZN10guest_view13GuestViewBase20CreateNewGuestWindowERKN7content11WebContents12CreateParamsE to i8*), i8* bitcast (%"class.content::WebContents"* (%"class.guest_view::GuestViewBase"*)* @_ZN10guest_view13GuestViewBase19GetOwnerWebContentsEv to i8*), i8* bitcast (void (%"class.guest_view::GuestViewBase"*, %"class.content::GuestHost"*)* @_ZN10guest_view13GuestViewBase12SetGuestHostEPN7content9GuestHostE to i8*), i8* bitcast (i8* (%"class.guest_view::GuestView"*)* @_ZNK10guest_view9GuestViewIN10extensions21ExtensionOptionsGuestEE11GetViewTypeEv to i8*), i8* bitcast (i1 (%"class.guest_view::GuestViewBase"*)* @_ZNK10guest_view13GuestViewBase19IsAutoSizeSupportedEv to i8*), i8* bitcast (i1 (%"class.extensions::ExtensionOptionsGuest"*)* @_ZNK10extensions21ExtensionOptionsGuest26IsPreferredSizeModeEnabledEv to i8*), i8* bitcast (i1 (%"class.guest_view::GuestViewBase"*)* @_ZNK10guest_view13GuestViewBase33ZoomPropagatesFromEmbedderToGuestEv to i8*), i8* bitcast (i8* (%"class.extensions::ExtensionOptionsGuest"*)* @_ZNK10extensions21ExtensionOptionsGuest15GetAPINamespaceEv to i8*), i8* bitcast (i32 (%"class.extensions::ExtensionOptionsGuest"*)* @_ZNK10extensions21ExtensionOptionsGuest13GetTaskPrefixEv to i8*), i8* bitcast (i1 (%"class.guest_view::GuestViewBase"*)* @_ZNK10guest_view13GuestViewBase21ShouldDestroyOnDetachEv to i8*), i8* bitcast (%"class.content::RenderWidgetHost"* (%"class.guest_view::GuestViewBase"*)* @_ZN10guest_view13GuestViewBase24GetOwnerRenderWidgetHostEv to i8*), i8* bitcast (%"class.content::SiteInstance"* (%"class.guest_view::GuestViewBase"*)* @_ZN10guest_view13GuestViewBase20GetOwnerSiteInstanceEv to i8*), i8* bitcast (i1 (%"class.guest_view::GuestViewBase"*)* @_ZN10guest_view13GuestViewBase37CanBeEmbeddedInsideCrossProcessFramesEv to i8*), i8* bitcast (void (%"class.guest_view::GuestViewBase"*, i32, i32)* @_ZN10guest_view13GuestViewBase24OnRenderFrameHostDeletedEii to i8*), i8* bitcast (i1 (%"class.guest_view::GuestViewBase"*, %"class.content::WebContents"*, %"struct.content::NativeWebKeyboardEvent"*)* @_ZN10guest_view13GuestViewBase19HandleKeyboardEventEPN7content11WebContentsERKNS1_22NativeWebKeyboardEventE to i8*), i8* bitcast (i1 (%"class.guest_view::GuestViewBase"*, %"class.content::WebContents"*, %"class.blink::WebGestureEvent"*)* @_ZN10guest_view13GuestViewBase21PreHandleGestureEventEPN7content11WebContentsERKN5blink15WebGestureEventE to i8*), i8* bitcast (%"class.content::WebContents"* (%"class.guest_view::GuestViewBase"*, %"class.content::WebContents"*)* @_ZN10guest_view13GuestViewBase25GetResponsibleWebContentsEPN7content11WebContentsE to i8*), i8* bitcast (void (%"class.extensions::ExtensionOptionsGuest"*, %"class.content::NavigationHandle"*)* @_ZN10extensions21ExtensionOptionsGuest19DidFinishNavigationEPN7content16NavigationHandleE to i8*), i8* bitcast (void (%"class.extensions::ExtensionOptionsGuest"*, %"class.base::DictionaryValue"*, %"class.base::OnceCallback"*)* @_ZN10extensions21ExtensionOptionsGuest17CreateWebContentsERKN4base15DictionaryValueENS1_12OnceCallbackIFvPN7content11WebContentsEEEE to i8*), i8* bitcast (void (%"class.guest_view::GuestViewBase"*)* @_ZN10guest_view13GuestViewBase19DidAttachToEmbedderEv to i8*), i8* bitcast (void (%"class.extensions::ExtensionOptionsGuest"*, %"class.base::DictionaryValue"*)* @_ZN10extensions21ExtensionOptionsGuest13DidInitializeERKN4base15DictionaryValueE to i8*), i8* bitcast (void (%"class.guest_view::GuestViewBase"*, i1)* @_ZN10guest_view13GuestViewBase25EmbedderFullscreenToggledEb to i8*), i8* bitcast (void (%"class.extensions::ExtensionOptionsGuest"*)* @_ZN10extensions21ExtensionOptionsGuest23GuestViewDidStopLoadingEv to i8*), i8* bitcast (void (%"class.guest_view::GuestViewBase"*)* @_ZN10guest_view13GuestViewBase14GuestDestroyedEv to i8*), i8* bitcast (void (%"class.guest_view::GuestViewBase"*)* @_ZN10guest_view13GuestViewBase10GuestReadyEv to i8*), i8* bitcast (void (%"class.guest_view::GuestViewBase"*, double, double)* @_ZN10guest_view13GuestViewBase16GuestZoomChangedEdd to i8*), i8* bitcast (void (%"class.guest_view::GuestViewBase"*, %"class.gfx::Size"*, %"class.gfx::Size"*)* @_ZN10guest_view13GuestViewBase29GuestSizeChangedDueToAutoSizeERKN3gfx4SizeES4_ to i8*), i8* bitcast (void (%"class.extensions::ExtensionOptionsGuest"*, %"class.gfx::Size"*)* @_ZN10extensions21ExtensionOptionsGuest22OnPreferredSizeChangedERKN3gfx4SizeE to i8*), i8* bitcast (void (%"class.guest_view::GuestViewBase"*, %"class.base::OnceCallback.284"*)* @_ZN10guest_view13GuestViewBase15SignalWhenReadyEN4base12OnceCallbackIFvvEEE to i8*), i8* bitcast (void (%"class.guest_view::GuestViewBase"*)* @_ZN10guest_view13GuestViewBase20WillAttachToEmbedderEv to i8*), i8* bitcast (void (%"class.guest_view::GuestViewBase"*)* @_ZN10guest_view13GuestViewBase11WillDestroyEv to i8*), i8* bitcast (void (%"class.guest_view::GuestViewBase"*, %"class.content::WebContents"*)* @_ZN10guest_view13GuestViewBase16ActivateContentsEPN7content11WebContentsE to i8*), i8* bitcast (void (%"class.guest_view::GuestViewBase"*, %"class.content::WebContents"*, i1, i1)* @_ZN10guest_view13GuestViewBase18ContentsMouseEventEPN7content11WebContentsEbb to i8*), i8* bitcast (void (%"class.guest_view::GuestViewBase"*, i1)* @_ZN10guest_view13GuestViewBase18ContentsZoomChangeEb to i8*), i8* bitcast (void (%"class.guest_view::GuestViewBase"*, %"class.content::WebContents"*, i1)* @_ZN10guest_view13GuestViewBase19LoadingStateChangedEPN7content11WebContentsEb to i8*), i8* bitcast (%"class.content::ColorChooser"* (%"class.guest_view::GuestViewBase"*, %"class.content::WebContents"*, i32, %"class.std::__1::vector.285"*)* @_ZN10guest_view13GuestViewBase16OpenColorChooserEPN7content11WebContentsEjRKNSt3__16vectorIN4mojo16InlinedStructPtrIN5blink5mojom15ColorSuggestionEEENS4_9allocatorISB_EEEE to i8*), i8* bitcast (void (%"class.guest_view::GuestViewBase"*, %"class.content::WebContents"*, %"class.gfx::Size"*)* @_ZN10guest_view13GuestViewBase21ResizeDueToAutoResizeEPN7content11WebContentsERKN3gfx4SizeE to i8*), i8* bitcast (void ()* @_ZN10guest_view13GuestViewBase14RunFileChooserEPN7content15RenderFrameHostE13scoped_refptrINS1_18FileSelectListenerEERKN5blink5mojom17FileChooserParamsE to i8*), i8* bitcast (i1 (%"class.guest_view::GuestViewBase"*)* @_ZN10guest_view13GuestViewBase25ShouldFocusPageAfterCrashEv to i8*), i8* bitcast (void (%"class.guest_view::GuestViewBase"*, %"class.content::WebContents"*, %"class.gfx::Size"*)* @_ZN10guest_view13GuestViewBase19UpdatePreferredSizeEPN7content11WebContentsERKN3gfx4SizeE to i8*), i8* bitcast (void (%"class.guest_view::GuestViewBase"*, %"class.content::WebContents"*, %class.GURL*)* @_ZN10guest_view13GuestViewBase15UpdateTargetURLEPN7content11WebContentsERK4GURL to i8*), i8* bitcast (i1 (%"class.guest_view::GuestViewBase"*)* @_ZN10guest_view13GuestViewBase36ShouldResumeRequestsForCreatedWindowEv to i8*), i8* bitcast (void (%"class.guest_view::GuestViewBase"*)* @_ZN10guest_view13GuestViewBase14DidStopLoadingEv to i8*), i8* bitcast (void (%"class.guest_view::GuestViewBase"*)* @_ZN10guest_view13GuestViewBase15RenderViewReadyEv to i8*), i8* bitcast (void (%"class.guest_view::GuestViewBase"*)* @_ZN10guest_view13GuestViewBase20WebContentsDestroyedEv to i8*), i8* bitcast (void (%"class.guest_view::GuestViewBase"*, %"struct.zoom::ZoomController::ZoomChangedEventData"*)* @_ZN10guest_view13GuestViewBase13OnZoomChangedERKN4zoom14ZoomController20ZoomChangedEventDataE to i8*), i8* bitcast (void (%"class.extensions::ExtensionOptionsGuest"*, %"class.content::WebContents"*, %"class.content::WebContents"*, %class.GURL*, i32, %"class.gfx::Rect"*, i1, i8*)* @_ZN10extensions21ExtensionOptionsGuest14AddNewContentsEPN7content11WebContentsENSt3__110unique_ptrIS2_NS4_14default_deleteIS2_EEEERK4GURL21WindowOpenDispositionRKN3gfx4RectEbPb to i8*), i8* bitcast (%"class.content::WebContents"* (%"class.extensions::ExtensionOptionsGuest"*, %"class.content::WebContents"*, %"struct.content::OpenURLParams"*)* @_ZN10extensions21ExtensionOptionsGuest14OpenURLFromTabEPN7content11WebContentsERKNS1_13OpenURLParamsE to i8*), i8* bitcast (void (%"class.extensions::ExtensionOptionsGuest"*, %"class.content::WebContents"*)* @_ZN10extensions21ExtensionOptionsGuest13CloseContentsEPN7content11WebContentsE to i8*), i8* bitcast (i1 (%"class.extensions::ExtensionOptionsGuest"*, %"class.content::RenderFrameHost"*, %"struct.content::ContextMenuParams"*)* @_ZN10extensions21ExtensionOptionsGuest17HandleContextMenuEPN7content15RenderFrameHostERKNS1_17ContextMenuParamsE to i8*), i8* bitcast (i1 (%"class.extensions::ExtensionOptionsGuest"*, %"class.content::SiteInstance"*, i32, %class.GURL*, %"class.std::__1::basic_string"*, %class.GURL*)* @_ZN10extensions21ExtensionOptionsGuest31IsWebContentsCreationOverriddenEPN7content12SiteInstanceENS1_5mojom19WindowContainerTypeERK4GURLRKNSt3__112basic_stringIcNS9_11char_traitsIcEENS9_9allocatorIcEEEES8_ to i8*), i8* bitcast (%"class.content::WebContents"* (%"class.extensions::ExtensionOptionsGuest"*, %"class.content::RenderFrameHost"*, %"class.content::SiteInstance"*, i1, %class.GURL*, %"class.std::__1::basic_string"*, %class.GURL*, %"class.content::StoragePartitionId"*, %"class.content::SessionStorageNamespace"*)* @_ZN10extensions21ExtensionOptionsGuest23CreateCustomWebContentsEPN7content15RenderFrameHostEPNS1_12SiteInstanceEbRK4GURLRKNSt3__112basic_stringIcNS9_11char_traitsIcEENS9_9allocatorIcEEEES8_RKNS1_18StoragePartitionIdEPNS1_23SessionStorageNamespaceE to i8*)], [99 x i8*] [i8* inttoptr (i64 -8 to i8*), i8* null, i8* bitcast (%"class.content::WebContents"* (%"class.extensions::ExtensionOptionsGuest"*, %"class.content::WebContents"*, %"struct.content::OpenURLParams"*)* @_ZThn8_N10extensions21ExtensionOptionsGuest14OpenURLFromTabEPN7content11WebContentsERKNS1_13OpenURLParamsE to i8*), i8* bitcast (i1 (%"class.content::WebContentsDelegate"*, i1)* @_ZN7content19WebContentsDelegate24ShouldTransferNavigationEb to i8*), i8* bitcast (void (%"class.content::WebContentsDelegate"*, %"class.content::WebContents"*, i32)* @_ZN7content19WebContentsDelegate22NavigationStateChangedEPNS_11WebContentsENS_15InvalidateTypesE to i8*), i8* bitcast (void (%"class.content::WebContentsDelegate"*, %"class.content::WebContents"*)* @_ZN7content19WebContentsDelegate27VisibleSecurityStateChangedEPNS_11WebContentsE to i8*), i8* bitcast (void (%"class.extensions::ExtensionOptionsGuest"*, %"class.content::WebContents"*, %"class.content::WebContents"*, %class.GURL*, i32, %"class.gfx::Rect"*, i1, i8*)* @_ZThn8_N10extensions21ExtensionOptionsGuest14AddNewContentsEPN7content11WebContentsENSt3__110unique_ptrIS2_NS4_14default_deleteIS2_EEEERK4GURL21WindowOpenDispositionRKN3gfx4RectEbPb to i8*), i8* bitcast (void (%"class.guest_view::GuestViewBase"*, %"class.content::WebContents"*)* @_ZThn8_N10guest_view13GuestViewBase16ActivateContentsEPN7content11WebContentsE to i8*), i8* bitcast (void (%"class.guest_view::GuestViewBase"*, %"class.content::WebContents"*, i1)* @_ZThn8_N10guest_view13GuestViewBase19LoadingStateChangedEPN7content11WebContentsEb to i8*), i8* bitcast (void (%"class.extensions::ExtensionOptionsGuest"*, %"class.content::WebContents"*)* @_ZThn8_N10extensions21ExtensionOptionsGuest13CloseContentsEPN7content11WebContentsE to i8*), i8* bitcast (void (%"class.content::WebContentsDelegate"*, %"class.content::WebContents"*, %"class.gfx::Rect"*)* @_ZN7content19WebContentsDelegate17SetContentsBoundsEPNS_11WebContentsERKN3gfx4RectE to i8*), i8* bitcast (void (%"class.guest_view::GuestViewBase"*, %"class.content::WebContents"*, %class.GURL*)* @_ZThn8_N10guest_view13GuestViewBase15UpdateTargetURLEPN7content11WebContentsERK4GURL to i8*), i8* bitcast (void (%"class.guest_view::GuestViewBase"*, %"class.content::WebContents"*, i1, i1)* @_ZThn8_N10guest_view13GuestViewBase18ContentsMouseEventEPN7content11WebContentsEbb to i8*), i8* bitcast (void (%"class.guest_view::GuestViewBase"*, i1)* @_ZThn8_N10guest_view13GuestViewBase18ContentsZoomChangeEb to i8*), i8* bitcast (i1 (%"class.content::WebContentsDelegate"*)* @_ZN7content19WebContentsDelegate20CanOverscrollContentEv to i8*), i8* bitcast (void (%"class.content::WebContentsDelegate"*)* @_ZN7content19WebContentsDelegate26WillRunBeforeUnloadConfirmEv to i8*), i8* bitcast (i1 (%"class.content::WebContentsDelegate"*, %"class.content::WebContents"*)* @_ZN7content19WebContentsDelegate21ShouldSuppressDialogsEPNS_11WebContentsE to i8*), i8* bitcast (i1 (%"class.content::WebContentsDelegate"*, %"class.content::WebContents"*)* @_ZN7content19WebContentsDelegate25ShouldPreserveAbortedURLsEPNS_11WebContentsE to i8*), i8* bitcast (i1 (%"class.content::WebContentsDelegate"*, %"class.content::WebContents"*, i32, %"class.std::__1::basic_string.286"*, i32, %"class.std::__1::basic_string.286"*)* @_ZN7content19WebContentsDelegate22DidAddMessageToConsoleEPNS_11WebContentsEN5blink5mojom19ConsoleMessageLevelERKNSt3__112basic_stringIDsNS6_11char_traitsIDsEENS6_9allocatorIDsEEEEiSE_ to i8*), i8* bitcast (void (%"class.content::WebContentsDelegate"*, %"class.content::WebContents"*, i1, i8*)* @_ZN7content19WebContentsDelegate17BeforeUnloadFiredEPNS_11WebContentsEbPb to i8*), i8* bitcast (i1 (%"class.content::WebContentsDelegate"*, %"class.content::WebContents"*)* @_ZN7content19WebContentsDelegate31ShouldFocusLocationBarByDefaultEPNS_11WebContentsE to i8*), i8* bitcast (void (%"class.content::WebContentsDelegate"*)* @_ZN7content19WebContentsDelegate21SetFocusToLocationBarEv to i8*), i8* bitcast (i1 (%"class.guest_view::GuestViewBase"*)* @_ZThn8_N10guest_view13GuestViewBase25ShouldFocusPageAfterCrashEv to i8*), i8* bitcast (i1 (%"class.guest_view::GuestViewBase"*)* @_ZThn8_N10guest_view13GuestViewBase36ShouldResumeRequestsForCreatedWindowEv to i8*), i8* bitcast (i1 (%"class.content::WebContentsDelegate"*, %"class.content::WebContents"*, i1)* @_ZN7content19WebContentsDelegate9TakeFocusEPNS_11WebContentsEb to i8*), i8* bitcast (void (%"class.content::WebContentsDelegate"*)* @_ZN7content19WebContentsDelegate11LostCaptureEv to i8*), i8* bitcast (void ()* @_ZN7content19WebContentsDelegate11CanDownloadERK4GURLRKNSt3__112basic_stringIcNS4_11char_traitsIcEENS4_9allocatorIcEEEEN4base12OnceCallbackIFvbEEE to i8*), i8* bitcast (i1 (%"class.extensions::ExtensionOptionsGuest"*, %"class.content::RenderFrameHost"*, %"struct.content::ContextMenuParams"*)* @_ZThn8_N10extensions21ExtensionOptionsGuest17HandleContextMenuEPN7content15RenderFrameHostERKNS1_17ContextMenuParamsE to i8*), i8* bitcast (i32 (%"class.content::WebContentsDelegate"*, %"class.content::WebContents"*, %"struct.content::NativeWebKeyboardEvent"*)* @_ZN7content19WebContentsDelegate22PreHandleKeyboardEventEPNS_11WebContentsERKNS_22NativeWebKeyboardEventE to i8*), i8* bitcast (i1 (%"class.guest_view::GuestViewBase"*, %"class.content::WebContents"*, %"struct.content::NativeWebKeyboardEvent"*)* @_ZThn8_N10guest_view13GuestViewBase19HandleKeyboardEventEPN7content11WebContentsERKNS1_22NativeWebKeyboardEventE to i8*), i8* bitcast (i1 (%"class.guest_view::GuestViewBase"*, %"class.content::WebContents"*, %"class.blink::WebGestureEvent"*)* @_ZThn8_N10guest_view13GuestViewBase21PreHandleGestureEventEPN7content11WebContentsERKN5blink15WebGestureEventE to i8*), i8* bitcast (i1 (%"class.content::WebContentsDelegate"*, %"class.content::WebContents"*, %"struct.content::DropData"*, i32)* @_ZN7content19WebContentsDelegate12CanDragEnterEPNS_11WebContentsERKNS_8DropDataEN5blink18DragOperationsMaskE to i8*), i8* bitcast (void (%"class.content::WebContentsDelegate"*, %"class.content::WebContents"*)* @_ZN7content19WebContentsDelegate27ShowRepostFormWarningDialogEPNS_11WebContentsE to i8*), i8* bitcast (i1 (%"class.content::WebContentsDelegate"*, i32)* @_ZN7content19WebContentsDelegate17OnGoToEntryOffsetEi to i8*), i8* bitcast (i1 (%"class.extensions::ExtensionOptionsGuest"*, %"class.content::SiteInstance"*, i32, %class.GURL*, %"class.std::__1::basic_string"*, %class.GURL*)* @_ZThn8_N10extensions21ExtensionOptionsGuest31IsWebContentsCreationOverriddenEPN7content12SiteInstanceENS1_5mojom19WindowContainerTypeERK4GURLRKNSt3__112basic_stringIcNS9_11char_traitsIcEENS9_9allocatorIcEEEES8_ to i8*), i8* bitcast (%"class.content::WebContents"* (%"class.extensions::ExtensionOptionsGuest"*, %"class.content::RenderFrameHost"*, %"class.content::SiteInstance"*, i1, %class.GURL*, %"class.std::__1::basic_string"*, %class.GURL*, %"class.content::StoragePartitionId"*, %"class.content::SessionStorageNamespace"*)* @_ZThn8_N10extensions21ExtensionOptionsGuest23CreateCustomWebContentsEPN7content15RenderFrameHostEPNS1_12SiteInstanceEbRK4GURLRKNSt3__112basic_stringIcNS9_11char_traitsIcEENS9_9allocatorIcEEEES8_RKNS1_18StoragePartitionIdEPNS1_23SessionStorageNamespaceE to i8*), i8* bitcast (void (%"class.content::WebContentsDelegate"*, %"class.content::WebContents"*, i32, i32, %"class.std::__1::basic_string"*, %class.GURL*, %"class.content::WebContents"*)* @_ZN7content19WebContentsDelegate18WebContentsCreatedEPNS_11WebContentsEiiRKNSt3__112basic_stringIcNS3_11char_traitsIcEENS3_9allocatorIcEEEERK4GURLS2_ to i8*), i8* bitcast (void (%"class.content::WebContentsDelegate"*, %"class.content::WebContents"*)* @_ZN7content19WebContentsDelegate24PortalWebContentsCreatedEPNS_11WebContentsE to i8*), i8* bitcast (void (%"class.content::WebContentsDelegate"*, %"class.content::WebContents"*)* @_ZN7content19WebContentsDelegate23WebContentsBecamePortalEPNS_11WebContentsE to i8*), i8* bitcast (void (%"class.content::WebContentsDelegate"*, %"class.content::WebContents"*, %"class.content::RenderWidgetHost"*, %"class.base::RepeatingCallback"*)* @_ZN7content19WebContentsDelegate20RendererUnresponsiveEPNS_11WebContentsEPNS_16RenderWidgetHostEN4base17RepeatingCallbackIFvvEEE to i8*), i8* bitcast (void (%"class.content::WebContentsDelegate"*, %"class.content::WebContents"*, %"class.content::RenderWidgetHost"*)* @_ZN7content19WebContentsDelegate18RendererResponsiveEPNS_11WebContentsEPNS_16RenderWidgetHostE to i8*), i8* bitcast (void (%"class.content::WebContentsDelegate"*, %"class.content::WebContents"*)* @_ZN7content19WebContentsDelegate30DidNavigateMainFramePostCommitEPNS_11WebContentsE to i8*), i8* bitcast (%"class.content::JavaScriptDialogManager"* (%"class.content::WebContentsDelegate"*, %"class.content::WebContents"*)* @_ZN7content19WebContentsDelegate26GetJavaScriptDialogManagerEPNS_11WebContentsE to i8*), i8* bitcast (%"class.content::ColorChooser"* (%"class.guest_view::GuestViewBase"*, %"class.content::WebContents"*, i32, %"class.std::__1::vector.285"*)* @_ZThn8_N10guest_view13GuestViewBase16OpenColorChooserEPN7content11WebContentsEjRKNSt3__16vectorIN4mojo16InlinedStructPtrIN5blink5mojom15ColorSuggestionEEENS4_9allocatorISB_EEEE to i8*), i8* bitcast (void ()* @_ZN7content19WebContentsDelegate14OpenEyeDropperEPNS_15RenderFrameHostEPNS_18EyeDropperListenerE to i8*), i8* bitcast (void ()* @_ZThn8_N10guest_view13GuestViewBase14RunFileChooserEPN7content15RenderFrameHostE13scoped_refptrINS1_18FileSelectListenerEERKN5blink5mojom17FileChooserParamsE to i8*), i8* bitcast (void ()* @_ZN7content19WebContentsDelegate18EnumerateDirectoryEPNS_11WebContentsE13scoped_refptrINS_18FileSelectListenerEERKN4base8FilePathE to i8*), i8* bitcast (void (%"class.content::WebContentsDelegate"*, %"class.content::RenderFrameHost"*, %"class.std::__1::vector.340"*, %"class.std::__1::basic_string"*, %"class.base::OnceCallback.284"*, %"class.base::OnceCallback.284"*)* @_ZN7content19WebContentsDelegate15CreateSmsPromptEPNS_15RenderFrameHostERKNSt3__16vectorIN3url6OriginENS3_9allocatorIS6_EEEERKNS3_12basic_stringIcNS3_11char_traitsIcEENS7_IcEEEEN4base12OnceCallbackIFvvEEESM_ to i8*), i8* bitcast (void (%"class.content::WebContentsDelegate"*, %"class.content::RenderFrameHost"*, %"class.blink::mojom::FullscreenOptions"*)* @_ZN7content19WebContentsDelegate25EnterFullscreenModeForTabEPNS_15RenderFrameHostERKN5blink5mojom17FullscreenOptionsE to i8*), i8* bitcast (void (%"class.content::WebContentsDelegate"*, %"class.content::RenderFrameHost"*, %"class.blink::mojom::FullscreenOptions"*)* @_ZN7content19WebContentsDelegate28FullscreenStateChangedForTabEPNS_15RenderFrameHostERKN5blink5mojom17FullscreenOptionsE to i8*), i8* bitcast (void (%"class.content::WebContentsDelegate"*, %"class.content::WebContents"*)* @_ZN7content19WebContentsDelegate24ExitFullscreenModeForTabEPNS_11WebContentsE to i8*), i8* bitcast (i1 (%"class.content::WebContentsDelegate"*, %"class.content::WebContents"*)* @_ZN7content19WebContentsDelegate27IsFullscreenForTabOrPendingEPKNS_11WebContentsE to i8*), i8* bitcast (i32 (%"class.content::WebContentsDelegate"*, %"class.content::WebContents"*)* @_ZN7content19WebContentsDelegate14GetDisplayModeEPKNS_11WebContentsE to i8*), i8* bitcast (i32 (%"class.content::WebContentsDelegate"*, %"class.content::RenderFrameHost"*)* @_ZN7content19WebContentsDelegate31GetProtocolHandlerSecurityLevelEPNS_15RenderFrameHostE to i8*), i8* bitcast (void (%"class.content::WebContentsDelegate"*, %"class.content::RenderFrameHost"*, %"class.std::__1::basic_string"*, %class.GURL*, i1)* @_ZN7content19WebContentsDelegate23RegisterProtocolHandlerEPNS_15RenderFrameHostERKNSt3__112basic_stringIcNS3_11char_traitsIcEENS3_9allocatorIcEEEERK4GURLb to i8*), i8* bitcast (void (%"class.content::WebContentsDelegate"*, %"class.content::RenderFrameHost"*, %"class.std::__1::basic_string"*, %class.GURL*, i1)* @_ZN7content19WebContentsDelegate25UnregisterProtocolHandlerEPNS_15RenderFrameHostERKNSt3__112basic_stringIcNS3_11char_traitsIcEENS3_9allocatorIcEEEERK4GURLb to i8*), i8* bitcast (void (%"class.content::WebContentsDelegate"*, %"class.content::WebContents"*, i32, i32, %"class.gfx::Rect"*, i32, i1)* @_ZN7content19WebContentsDelegate9FindReplyEPNS_11WebContentsEiiRKN3gfx4RectEib to i8*), i8* bitcast (void (%"class.guest_view::GuestViewBase"*, %"class.content::WebContents"*, %"class.gfx::Size"*)* @_ZThn8_N10guest_view13GuestViewBase19UpdatePreferredSizeEPN7content11WebContentsERKN3gfx4SizeE to i8*), i8* bitcast (void (%"class.guest_view::GuestViewBase"*, %"class.content::WebContents"*, %"class.gfx::Size"*)* @_ZThn8_N10guest_view13GuestViewBase21ResizeDueToAutoResizeEPN7content11WebContentsERKN3gfx4SizeE to i8*), i8* bitcast (void (%"class.content::WebContentsDelegate"*, %"class.content::WebContents"*, i1, i1)* @_ZN7content19WebContentsDelegate18RequestToLockMouseEPNS_11WebContentsEbb to i8*), i8* bitcast (void (%"class.content::WebContentsDelegate"*)* @_ZN7content19WebContentsDelegate13LostMouseLockEv to i8*), i8* bitcast (void (%"class.content::WebContentsDelegate"*, %"class.content::WebContents"*, i1)* @_ZN7content19WebContentsDelegate19RequestKeyboardLockEPNS_11WebContentsEb to i8*), i8* bitcast (void (%"class.content::WebContentsDelegate"*, %"class.content::WebContents"*)* @_ZN7content19WebContentsDelegate25CancelKeyboardLockRequestEPNS_11WebContentsE to i8*), i8* bitcast (void ()* @_ZN7content19WebContentsDelegate28RequestMediaAccessPermissionEPNS_11WebContentsERKNS_18MediaStreamRequestEN4base12OnceCallbackIFvRKNSt3__16vectorIN5blink17MediaStreamDeviceENS8_9allocatorISB_EEEENSA_5mojom24MediaStreamRequestResultENS8_10unique_ptrINS_13MediaStreamUIENS8_14default_deleteISK_EEEEEEE to i8*), i8* bitcast (i1 (%"class.content::WebContentsDelegate"*, %"class.content::RenderFrameHost"*, %class.GURL*, i32)* @_ZN7content19WebContentsDelegate26CheckMediaAccessPermissionEPNS_15RenderFrameHostERK4GURLN5blink5mojom15MediaStreamTypeE to i8*), i8* bitcast (void (%"class.std::__1::basic_string"*, %"class.content::WebContentsDelegate"*, %"class.content::WebContents"*, i32)* @_ZN7content19WebContentsDelegate23GetDefaultMediaDeviceIDEPNS_11WebContentsEN5blink5mojom15MediaStreamTypeE to i8*), i8* bitcast (i64 (%"class.content::WebContentsDelegate"*, %"class.content::WebContents"*)* @_ZN7content19WebContentsDelegate23GetSizeForNewRenderViewEPNS_11WebContentsE to i8*), i8* bitcast (i1 (%"class.content::WebContentsDelegate"*, %"class.content::WebContents"*)* @_ZN7content19WebContentsDelegate17IsNeverCompositedEPNS_11WebContentsE to i8*), i8* bitcast (i1 (%"class.content::WebContentsDelegate"*, %"class.content::WebContents"*)* @_ZN7content19WebContentsDelegate14GuestSaveFrameEPNS_11WebContentsE to i8*), i8* bitcast (i1 (%"class.content::WebContentsDelegate"*, %class.GURL*, %"struct.content::Referrer"*, %"class.content::RenderFrameHost"*)* @_ZN7content19WebContentsDelegate9SaveFrameERK4GURLRKNS_8ReferrerEPNS_15RenderFrameHostE to i8*), i8* bitcast (i32 (%"class.content::WebContentsDelegate"*, %"class.content::WebContents"*, %"struct.content::SecurityStyleExplanations"*)* @_ZN7content19WebContentsDelegate16GetSecurityStyleEPNS_11WebContentsEPNS_25SecurityStyleExplanationsE to i8*), i8* bitcast (void (%"class.content::WebContentsDelegate"*, %"class.content::WebContents"*, %class.GURL*, %class.GURL*, i32)* @_ZN7content19WebContentsDelegate20OnDidBlockNavigationEPNS_11WebContentsERK4GURLS5_N5blink5mojom23NavigationBlockedReasonE to i8*), i8* bitcast (void (%"class.content::WebContentsDelegate"*, %class.GURL*)* @_ZN7content19WebContentsDelegate27PassiveInsecureContentFoundERK4GURL to i8*), i8* bitcast (i1 (%"class.content::WebContentsDelegate"*, %"class.content::WebContents"*, i1, %"class.url::Origin"*, %class.GURL*)* @_ZN7content19WebContentsDelegate33ShouldAllowRunningInsecureContentEPNS_11WebContentsEbRKN3url6OriginERK4GURL to i8*), i8* bitcast (void (%"class.content::WebContentsDelegate"*, %"class.content::WebContents"*, float)* @_ZN7content19WebContentsDelegate24SetTopControlsShownRatioEPNS_11WebContentsEf to i8*), i8* bitcast (i32 (%"class.content::WebContentsDelegate"*)* @_ZN7content19WebContentsDelegate20GetTopControlsHeightEv to i8*), i8* bitcast (i32 (%"class.content::WebContentsDelegate"*)* @_ZN7content19WebContentsDelegate23GetTopControlsMinHeightEv to i8*), i8* bitcast (i32 (%"class.content::WebContentsDelegate"*)* @_ZN7content19WebContentsDelegate23GetBottomControlsHeightEv to i8*), i8* bitcast (i32 (%"class.content::WebContentsDelegate"*)* @_ZN7content19WebContentsDelegate26GetBottomControlsMinHeightEv to i8*), i8* bitcast (i1 (%"class.content::WebContentsDelegate"*)* @_ZN7content19WebContentsDelegate41ShouldAnimateBrowserControlsHeightChangesEv to i8*), i8* bitcast (i1 (%"class.content::WebContentsDelegate"*, %"class.content::WebContents"*)* @_ZN7content19WebContentsDelegate35DoBrowserControlsShrinkRendererSizeEPNS_11WebContentsE to i8*), i8* bitcast (i1 (%"class.content::WebContentsDelegate"*)* @_ZN7content19WebContentsDelegate30OnlyExpandTopControlsAtPageTopEv to i8*), i8* bitcast (void (%"class.content::WebContentsDelegate"*, i1)* @_ZN7content19WebContentsDelegate37SetTopControlsGestureScrollInProgressEb to i8*), i8* bitcast (void (%"class.content::WebContentsDelegate"*, %"class.content::WebContents"*, i32*)* @_ZN7content19WebContentsDelegate32AdjustPreviewsStateForNavigationEPNS_11WebContentsEPi to i8*), i8* bitcast (void (%"class.content::WebContentsDelegate"*, %"class.content::WebContents"*, %"class.gfx::Rect"*, i32, %"class.content::RenderFrameHost"*)* @_ZNK7content19WebContentsDelegate25PrintCrossProcessSubframeEPNS_11WebContentsERKN3gfx4RectEiPNS_15RenderFrameHostE to i8*), i8* bitcast (void (%"class.content::WebContentsDelegate"*, %"class.content::WebContents"*, %"class.gfx::Rect"*, %"class.base::UnguessableToken"*, %"class.content::RenderFrameHost"*)* @_ZN7content19WebContentsDelegate29CapturePaintPreviewOfSubframeEPNS_11WebContentsERKN3gfx4RectERKN4base16UnguessableTokenEPNS_15RenderFrameHostE to i8*), i8* bitcast (i32 (%"class.content::WebContentsDelegate"*, %"class.content::WebContents"*, %"class.viz::SurfaceId"*, %"class.gfx::Size"*)* @_ZN7content19WebContentsDelegate21EnterPictureInPictureEPNS_11WebContentsERKN3viz9SurfaceIdERKN3gfx4SizeE to i8*), i8* bitcast (void (%"class.content::WebContentsDelegate"*)* @_ZN7content19WebContentsDelegate20ExitPictureInPictureEv to i8*), i8* bitcast (i1 (%"class.content::WebContentsDelegate"*)* @_ZN7content19WebContentsDelegate19ShouldAllowLazyLoadEv to i8*), i8* bitcast (i1 (%"class.content::WebContentsDelegate"*)* @_ZN7content19WebContentsDelegate27IsBackForwardCacheSupportedEv to i8*), i8* bitcast (%"class.content::WebContents"* (%"class.content::WebContentsDelegate"*, %"class.content::WebContents"*, %"class.content::WebContents"*)* @_ZN7content19WebContentsDelegate25ActivatePortalWebContentsEPNS_11WebContentsENSt3__110unique_ptrIS1_NS3_14default_deleteIS1_EEEE to i8*), i8* bitcast (void (%"class.content::WebContentsDelegate"*, %"class.content::WebContents"*, %"class.content::WebContents"*, %"class.base::OnceCallback.284"*)* @_ZN7content19WebContentsDelegate37UpdateInspectedWebContentsIfNecessaryEPNS_11WebContentsES2_N4base12OnceCallbackIFvvEEE to i8*), i8* bitcast (i1 (%"class.content::WebContentsDelegate"*, %"class.content::WebContents"*)* @_ZN7content19WebContentsDelegate32ShouldShowStaleContentOnEvictionEPNS_11WebContentsE to i8*), i8* bitcast (%"class.content::WebContents"* (%"class.guest_view::GuestViewBase"*, %"class.content::WebContents"*)* @_ZThn8_N10guest_view13GuestViewBase25GetResponsibleWebContentsEPN7content11WebContentsE to i8*), i8* bitcast (void (%"class.content::WebContentsDelegate"*, %"struct.content::MediaPlayerWatchTime"*)* @_ZN7content19WebContentsDelegate21MediaWatchTimeChangedERKNS_20MediaPlayerWatchTimeE to i8*), i8* bitcast (%"class.device::mojom::GeolocationContext"* (%"class.content::WebContentsDelegate"*)* @_ZN7content19WebContentsDelegate36GetInstalledWebappGeolocationContextEv to i8*), i8* bitcast (void ()* @_ZN7content19WebContentsDelegate18GetDelegateWeakPtrEv to i8*), i8* bitcast (void (%"class.extensions::ExtensionOptionsGuest"*)* @_ZThn8_N10extensions21ExtensionOptionsGuestD1Ev to i8*), i8* bitcast (void (%"class.extensions::ExtensionOptionsGuest"*)* @_ZThn8_N10extensions21ExtensionOptionsGuestD0Ev to i8*)], [109 x i8*] [i8* inttoptr (i64 -40 to i8*), i8* null, i8* bitcast (i1 (%"class.content::WebContentsObserver"*, %"class.IPC::Message"*)* @_ZN7content19WebContentsObserver17OnMessageReceivedERKN3IPC7MessageE to i8*), i8* bitcast (void (%"class.IPC::Listener"*, i32)* @_ZN3IPC8Listener18OnChannelConnectedEi to i8*), i8* bitcast (void (%"class.IPC::Listener"*)* @_ZN3IPC8Listener14OnChannelErrorEv to i8*), i8* bitcast (void (%"class.IPC::Listener"*, %"class.IPC::Message"*)* @_ZN3IPC8Listener20OnBadMessageReceivedERKNS_7MessageE to i8*), i8* bitcast (void (%"class.IPC::Listener"*, %"class.std::__1::basic_string"*, %"class.mojo::ScopedInterfaceEndpointHandle"*)* @_ZN3IPC8Listener28OnAssociatedInterfaceRequestERKNSt3__112basic_stringIcNS1_11char_traitsIcEENS1_9allocatorIcEEEEN4mojo29ScopedInterfaceEndpointHandleE to i8*), i8* bitcast (void (%"class.IPC::Listener"*)* @_ZN3IPC8Listener15OnChannelDeniedEv to i8*), i8* bitcast (void (%"class.IPC::Listener"*)* @_ZN3IPC8Listener20OnChannelListenErrorEv to i8*), i8* bitcast (void (%"class.extensions::ExtensionOptionsGuest"*)* @_ZThn40_N10extensions21ExtensionOptionsGuestD1Ev to i8*), i8* bitcast (void (%"class.extensions::ExtensionOptionsGuest"*)* @_ZThn40_N10extensions21ExtensionOptionsGuestD0Ev to i8*), i8* bitcast (void (%"class.content::WebContentsObserver"*, %"class.content::RenderFrameHost"*)* @_ZN7content19WebContentsObserver18RenderFrameCreatedEPNS_15RenderFrameHostE to i8*), i8* bitcast (void (%"class.content::WebContentsObserver"*, %"class.content::RenderFrameHost"*)* @_ZN7content19WebContentsObserver18RenderFrameDeletedEPNS_15RenderFrameHostE to i8*), i8* bitcast (void (%"class.content::WebContentsObserver"*, %"class.content::RenderFrameHost"*, %"class.content::RenderFrameHost"*)* @_ZN7content19WebContentsObserver22RenderFrameHostChangedEPNS_15RenderFrameHostES2_ to i8*), i8* bitcast (void (%"class.content::WebContentsObserver"*, i32)* @_ZN7content19WebContentsObserver12FrameDeletedEi to i8*), i8* bitcast (void (%"class.content::WebContentsObserver"*, %"class.content::RenderFrameHost"*, i32, i32)* @_ZN7content19WebContentsObserver27RenderFrameHostStateChangedEPNS_15RenderFrameHostENS1_14LifecycleStateES3_ to i8*), i8* bitcast (void (%"class.content::WebContentsObserver"*)* @_ZN7content19WebContentsObserver20CaptureTargetChangedEv to i8*), i8* bitcast (void (%"class.content::WebContentsObserver"*, %"class.blink::mojom::CaptureHandleConfig"*)* @_ZN7content19WebContentsObserver27OnCaptureHandleConfigUpdateERKN5blink5mojom19CaptureHandleConfigE to i8*), i8* bitcast (void (%"class.guest_view::GuestViewBase"*)* @_ZThn40_N10guest_view13GuestViewBase15RenderViewReadyEv to i8*), i8* bitcast (void (%"class.content::WebContentsObserver"*, %"class.content::RenderViewHost"*)* @_ZN7content19WebContentsObserver17RenderViewDeletedEPNS_14RenderViewHostE to i8*), i8* bitcast (void (%"class.content::WebContentsObserver"*, i32)* @_ZN7content19WebContentsObserver17RenderProcessGoneEN4base17TerminationStatusE to i8*), i8* bitcast (void (%"class.content::WebContentsObserver"*, %"class.content::RenderViewHost"*, %"class.content::RenderViewHost"*)* @_ZN7content19WebContentsObserver21RenderViewHostChangedEPNS_14RenderViewHostES2_ to i8*), i8* bitcast (void (%"class.content::WebContentsObserver"*, %"class.content::RenderProcessHost"*)* @_ZN7content19WebContentsObserver22OnRendererUnresponsiveEPNS_17RenderProcessHostE to i8*), i8* bitcast (void (%"class.content::WebContentsObserver"*, %"class.content::RenderProcessHost"*)* @_ZN7content19WebContentsObserver20OnRendererResponsiveEPNS_17RenderProcessHostE to i8*), i8* bitcast (void (%"class.content::WebContentsObserver"*, %"class.content::NavigationHandle"*)* @_ZN7content19WebContentsObserver18DidStartNavigationEPNS_16NavigationHandleE to i8*), i8* bitcast (void (%"class.content::WebContentsObserver"*, %"class.content::NavigationHandle"*)* @_ZN7content19WebContentsObserver21DidRedirectNavigationEPNS_16NavigationHandleE to i8*), i8* bitcast (void (%"class.content::WebContentsObserver"*, %"class.content::NavigationHandle"*)* @_ZN7content19WebContentsObserver23ReadyToCommitNavigationEPNS_16NavigationHandleE to i8*), i8* bitcast (void (%"class.extensions::ExtensionOptionsGuest"*, %"class.content::NavigationHandle"*)* @_ZThn40_N10extensions21ExtensionOptionsGuest19DidFinishNavigationEPN7content16NavigationHandleE to i8*), i8* bitcast (void (%"class.content::WebContentsObserver"*, %"class.content::WebContents"*, i64)* @_ZN7content19WebContentsObserver17DidActivatePortalEPNS_11WebContentsEN4base9TimeTicksE to i8*), i8* bitcast (void (%"class.content::WebContentsObserver"*)* @_ZN7content19WebContentsObserver15DidStartLoadingEv to i8*), i8* bitcast (void (%"class.content::WebContentsObserver"*)* @_ZN7content19WebContentsObserver18DidReceiveResponseEv to i8*), i8* bitcast (void (%"class.guest_view::GuestViewBase"*)* @_ZThn40_N10guest_view13GuestViewBase14DidStopLoadingEv to i8*), i8* bitcast (void (%"class.content::WebContentsObserver"*, double)* @_ZN7content19WebContentsObserver19LoadProgressChangedEd to i8*), i8* bitcast (void (%"class.content::WebContentsObserver"*, %"class.content::RenderFrameHost"*)* @_ZN7content19WebContentsObserver28DocumentAvailableInMainFrameEPNS_15RenderFrameHostE to i8*), i8* bitcast (void (%"class.content::WebContentsObserver"*, %"class.content::RenderFrameHost"*)* @_ZN7content19WebContentsObserver34DocumentOnLoadCompletedInMainFrameEPNS_15RenderFrameHostE to i8*), i8* bitcast (void (%"class.content::WebContentsObserver"*, %"class.content::RenderFrameHost"*)* @_ZN7content19WebContentsObserver16DOMContentLoadedEPNS_15RenderFrameHostE to i8*), i8* bitcast (void (%"class.content::WebContentsObserver"*, %"class.content::RenderFrameHost"*, %class.GURL*)* @_ZN7content19WebContentsObserver13DidFinishLoadEPNS_15RenderFrameHostERK4GURL to i8*), i8* bitcast (void (%"class.content::WebContentsObserver"*, %"class.content::RenderFrameHost"*, %class.GURL*, i32)* @_ZN7content19WebContentsObserver11DidFailLoadEPNS_15RenderFrameHostERK4GURLi to i8*), i8* bitcast (void (%"class.content::WebContentsObserver"*)* @_ZN7content19WebContentsObserver29DidChangeVisibleSecurityStateEv to i8*), i8* bitcast (void (%"class.content::WebContentsObserver"*, %"class.content::RenderFrameHost"*, %class.GURL*, %"class.std::__1::basic_string"*, i32)* @_ZN7content19WebContentsObserver30DidLoadResourceFromMemoryCacheEPNS_15RenderFrameHostERK4GURLRKNSt3__112basic_stringIcNS6_11char_traitsIcEENS6_9allocatorIcEEEEN7network5mojom18RequestDestinationE to i8*), i8* bitcast (void (%"class.content::WebContentsObserver"*, %"class.content::RenderFrameHost"*, %"struct.content::GlobalRequestID"*, %"class.blink::mojom::ResourceLoadInfo"*)* @_ZN7content19WebContentsObserver20ResourceLoadCompleteEPNS_15RenderFrameHostERKNS_15GlobalRequestIDERKN5blink5mojom16ResourceLoadInfoE to i8*), i8* bitcast (void (%"class.content::WebContentsObserver"*, %"class.content::RenderFrameHost"*, %"struct.content::CookieAccessDetails"*)* @_ZN7content19WebContentsObserver17OnCookiesAccessedEPNS_15RenderFrameHostERKNS_19CookieAccessDetailsE to i8*), i8* bitcast (void (%"class.content::WebContentsObserver"*, %"class.content::NavigationHandle"*, %"struct.content::CookieAccessDetails"*)* @_ZN7content19WebContentsObserver17OnCookiesAccessedEPNS_16NavigationHandleERKNS_19CookieAccessDetailsE to i8*), i8* bitcast (void (%"class.content::WebContentsObserver"*, %"struct.content::LoadCommittedDetails"*)* @_ZN7content19WebContentsObserver24NavigationEntryCommittedERKNS_20LoadCommittedDetailsE to i8*), i8* bitcast (void (%"class.content::WebContentsObserver"*, %"struct.content::PrunedDetails"*)* @_ZN7content19WebContentsObserver20NavigationListPrunedERKNS_13PrunedDetailsE to i8*), i8* bitcast (void (%"class.content::WebContentsObserver"*)* @_ZN7content19WebContentsObserver24NavigationEntriesDeletedEv to i8*), i8* bitcast (void (%"class.content::WebContentsObserver"*, %"struct.content::EntryChangedDetails"*)* @_ZN7content19WebContentsObserver22NavigationEntryChangedERKNS_19EntryChangedDetailsE to i8*), i8* bitcast (void (%"class.content::WebContentsObserver"*, %"class.content::WebContents"*, %"class.content::RenderFrameHost"*, %class.GURL*, %"struct.content::Referrer"*, i32, i32, i1, i1)* @_ZN7content19WebContentsObserver19DidOpenRequestedURLEPNS_11WebContentsEPNS_15RenderFrameHostERK4GURLRKNS_8ReferrerE21WindowOpenDispositionN2ui14PageTransitionEbb to i8*), i8* bitcast (void (%"class.content::WebContentsObserver"*)* @_ZN7content19WebContentsObserver29DidFirstVisuallyNonEmptyPaintEv to i8*), i8* bitcast (void (%"class.content::WebContentsObserver"*)* @_ZN7content19WebContentsObserver17NavigationStoppedEv to i8*), i8* bitcast (void (%"class.content::WebContentsObserver"*, %"class.blink::WebInputEvent"*)* @_ZN7content19WebContentsObserver21DidGetUserInteractionERKN5blink13WebInputEventE to i8*), i8* bitcast (void (%"class.content::WebContentsObserver"*)* @_ZN7content19WebContentsObserver20DidGetIgnoredUIEventEv to i8*), i8* bitcast (void (%"class.content::WebContentsObserver"*, i32)* @_ZN7content19WebContentsObserver19OnVisibilityChangedENS_10VisibilityE to i8*), i8* bitcast (void (%"class.content::WebContentsObserver"*, i1)* @_ZN7content19WebContentsObserver19MainFrameWasResizedEb to i8*), i8* bitcast (void (%"class.content::WebContentsObserver"*, %"class.content::RenderFrameHost"*, %"class.std::__1::basic_string"*)* @_ZN7content19WebContentsObserver16FrameNameChangedEPNS_15RenderFrameHostERKNSt3__112basic_stringIcNS3_11char_traitsIcEENS3_9allocatorIcEEEE to i8*), i8* bitcast (void (%"class.content::WebContentsObserver"*, %"class.content::RenderFrameHost"*)* @_ZN7content19WebContentsObserver27FrameReceivedUserActivationEPNS_15RenderFrameHostE to i8*), i8* bitcast (void (%"class.content::WebContentsObserver"*, %"class.content::RenderFrameHost"*, i1)* @_ZN7content19WebContentsObserver24FrameDisplayStateChangedEPNS_15RenderFrameHostEb to i8*), i8* bitcast (void (%"class.content::WebContentsObserver"*, %"class.content::RenderFrameHost"*, %"class.gfx::Size"*)* @_ZN7content19WebContentsObserver16FrameSizeChangedEPNS_15RenderFrameHostERKN3gfx4SizeE to i8*), i8* bitcast (void (%"class.content::WebContentsObserver"*, %"class.content::NavigationEntry"*)* @_ZN7content19WebContentsObserver11TitleWasSetEPNS_15NavigationEntryE to i8*), i8* bitcast (void (%"class.content::WebContentsObserver"*, %class.GURL*, i1)* @_ZN7content19WebContentsObserver16AppCacheAccessedERK4GURLb to i8*), i8* bitcast (void (%"class.content::WebContentsObserver"*)* @_ZN7content19WebContentsObserver21PepperInstanceCreatedEv to i8*), i8* bitcast (void (%"class.content::WebContentsObserver"*)* @_ZN7content19WebContentsObserver21PepperInstanceDeletedEv to i8*), i8* bitcast (void (%"class.content::WebContentsObserver"*, i32)* @_ZN7content19WebContentsObserver18ViewportFitChangedEN5blink5mojom11ViewportFitE to i8*), i8* bitcast (void (%"class.content::WebContentsObserver"*, %"class.base::FilePath"*, i32)* @_ZN7content19WebContentsObserver13PluginCrashedERKN4base8FilePathEi to i8*), i8* bitcast (void (%"class.content::WebContentsObserver"*, i32, %"class.base::FilePath"*, i1)* @_ZN7content19WebContentsObserver23PluginHungStatusChangedEiRKN4base8FilePathEb to i8*), i8* bitcast (void (%"class.content::WebContentsObserver"*, %"class.content::WebContents"*)* @_ZN7content19WebContentsObserver23InnerWebContentsCreatedEPNS_11WebContentsE to i8*), i8* bitcast (void (%"class.content::WebContentsObserver"*, %"class.content::WebContents"*, %"class.content::RenderFrameHost"*, i1)* @_ZN7content19WebContentsObserver24InnerWebContentsAttachedEPNS_11WebContentsEPNS_15RenderFrameHostEb to i8*), i8* bitcast (void (%"class.content::WebContentsObserver"*, %"class.content::WebContents"*)* @_ZN7content19WebContentsObserver24InnerWebContentsDetachedEPNS_11WebContentsE to i8*), i8* bitcast (void (%"class.content::WebContentsObserver"*, %"class.content::WebContents"*, %"class.content::WebContents"*)* @_ZN7content19WebContentsObserver24DidCloneToNewWebContentsEPNS_11WebContentsES2_ to i8*), i8* bitcast (void (%"class.guest_view::GuestViewBase"*)* @_ZThn40_N10guest_view13GuestViewBase20WebContentsDestroyedEv to i8*), i8* bitcast (void (%"class.content::WebContentsObserver"*, %"struct.blink::UserAgentOverride"*)* @_ZN7content19WebContentsObserver20UserAgentOverrideSetERKN5blink17UserAgentOverrideE to i8*), i8* bitcast (void (%"class.content::WebContentsObserver"*, %"class.content::RenderFrameHost"*, %"class.std::__1::vector.368"*)* @_ZN7content19WebContentsObserver19DidUpdateFaviconURLEPNS_15RenderFrameHostERKNSt3__16vectorIN4mojo9StructPtrIN5blink5mojom10FaviconURLEEENS3_9allocatorISA_EEEE to i8*), i8* bitcast (void (%"class.content::WebContentsObserver"*, i1)* @_ZN7content19WebContentsObserver19OnAudioStateChangedEb to i8*), i8* bitcast (void (%"class.content::WebContentsObserver"*, %"class.content::RenderFrameHost"*, i1)* @_ZN7content19WebContentsObserver24OnFrameAudioStateChangedEPNS_15RenderFrameHostEb to i8*), i8* bitcast (void (%"class.content::WebContentsObserver"*, i1)* @_ZN7content19WebContentsObserver37OnIsConnectedToBluetoothDeviceChangedEb to i8*), i8* bitcast (void (%"class.content::WebContentsObserver"*, i1)* @_ZN7content19WebContentsObserver25DidUpdateAudioMutingStateEb to i8*), i8* bitcast (void (%"class.content::WebContentsObserver"*, i1, i1)* @_ZN7content19WebContentsObserver29DidToggleFullscreenModeForTabEbb to i8*), i8* bitcast (void (%"class.content::WebContentsObserver"*, %"class.content::RenderFrameHost"*)* @_ZN7content19WebContentsObserver20DidAcquireFullscreenEPNS_15RenderFrameHostE to i8*), i8* bitcast (void (%"class.content::WebContentsObserver"*, i32)* @_ZN7content19WebContentsObserver32DidChangeVerticalScrollDirectionEN3viz23VerticalScrollDirectionE to i8*), i8* bitcast (void (%"class.content::WebContentsObserver"*)* @_ZN7content19WebContentsObserver27BeforeFormRepostWarningShowEv to i8*), i8* bitcast (void (%"class.content::WebContentsObserver"*, i1, %"class.base::TimeTicks"*)* @_ZN7content19WebContentsObserver17BeforeUnloadFiredEbRKN4base9TimeTicksE to i8*), i8* bitcast (void (%"class.content::WebContentsObserver"*)* @_ZN7content19WebContentsObserver27BeforeUnloadDialogCancelledEv to i8*), i8* bitcast (void (%"class.content::WebContentsObserver"*)* @_ZN7content19WebContentsObserver30AXTreeIDForMainFrameHasChangedEv to i8*), i8* bitcast (void (%"class.content::WebContentsObserver"*, %"struct.content::AXEventNotificationDetails"*)* @_ZN7content19WebContentsObserver26AccessibilityEventReceivedERKNS_26AXEventNotificationDetailsE to i8*), i8* bitcast (void (%"class.content::WebContentsObserver"*, %"class.std::__1::vector.369"*)* @_ZN7content19WebContentsObserver36AccessibilityLocationChangesReceivedERKNSt3__16vectorINS_35AXLocationChangeNotificationDetailsENS1_9allocatorIS3_EEEE to i8*), i8* bitcast (void (%"class.content::WebContentsObserver"*)* @_ZN7content19WebContentsObserver19DidChangeThemeColorEv to i8*), i8* bitcast (void (%"class.content::WebContentsObserver"*)* @_ZN7content19WebContentsObserver24OnBackgroundColorChangedEv to i8*), i8* bitcast (void (%"class.content::WebContentsObserver"*, %"class.content::RenderFrameHost"*, i32, %"class.std::__1::basic_string.286"*, i32, %"class.std::__1::basic_string.286"*, %"class.absl::optional.316"*)* @_ZN7content19WebContentsObserver24OnDidAddMessageToConsoleEPNS_15RenderFrameHostEN5blink5mojom19ConsoleMessageLevelERKNSt3__112basic_stringIDsNS6_11char_traitsIDsEENS6_9allocatorIDsEEEEiSE_RKN4absl8optionalISC_EE to i8*), i8* bitcast (void (%"class.content::WebContentsObserver"*, %"struct.content::WebContentsObserver::MediaPlayerInfo"*, %"struct.content::MediaPlayerId"*)* @_ZN7content19WebContentsObserver19MediaStartedPlayingERKNS0_15MediaPlayerInfoERKNS_13MediaPlayerIdE to i8*), i8* bitcast (void (%"class.content::WebContentsObserver"*, %"struct.content::WebContentsObserver::MediaPlayerInfo"*, %"struct.content::MediaPlayerId"*, i32)* @_ZN7content19WebContentsObserver19MediaStoppedPlayingERKNS0_15MediaPlayerInfoERKNS_13MediaPlayerIdENS0_18MediaStoppedReasonE to i8*), i8* bitcast (void (%"class.content::WebContentsObserver"*, %"class.gfx::Size"*, %"struct.content::MediaPlayerId"*)* @_ZN7content19WebContentsObserver12MediaResizedERKN3gfx4SizeERKNS_13MediaPlayerIdE to i8*), i8* bitcast (void (%"class.content::WebContentsObserver"*, i1)* @_ZN7content19WebContentsObserver33MediaEffectivelyFullscreenChangedEb to i8*), i8* bitcast (void (%"class.content::WebContentsObserver"*, i1)* @_ZN7content19WebContentsObserver28MediaPictureInPictureChangedEb to i8*), i8* bitcast (void (%"class.content::WebContentsObserver"*, %"struct.content::MediaPlayerId"*, i1)* @_ZN7content19WebContentsObserver23MediaMutedStatusChangedERKNS_13MediaPlayerIdEb to i8*), i8* bitcast (void (%"class.content::WebContentsObserver"*, %"struct.content::MediaPlayerId"*)* @_ZN7content19WebContentsObserver20MediaBufferUnderflowERKNS_13MediaPlayerIdE to i8*), i8* bitcast (void (%"class.content::WebContentsObserver"*, %"struct.content::MediaPlayerId"*)* @_ZN7content19WebContentsObserver15MediaPlayerSeekERKNS_13MediaPlayerIdE to i8*), i8* bitcast (void (%"class.content::WebContentsObserver"*, %"struct.content::MediaPlayerId"*)* @_ZN7content19WebContentsObserver14MediaDestroyedERKNS_13MediaPlayerIdE to i8*), i8* bitcast (void (%"class.content::WebContentsObserver"*, float)* @_ZN7content19WebContentsObserver24OnPageScaleFactorChangedEf to i8*), i8* bitcast (void (%"class.content::WebContentsObserver"*)* @_ZN7content19WebContentsObserver7OnPasteEv to i8*), i8* bitcast (i1 (%"class.content::WebContentsObserver"*, %"class.IPC::Message"*, %"class.content::RenderFrameHost"*)* @_ZN7content19WebContentsObserver17OnMessageReceivedERKN3IPC7MessageEPNS_15RenderFrameHostE to i8*), i8* bitcast (void (%"class.content::WebContentsObserver"*, %"class.content::RenderWidgetHost"*)* @_ZN7content19WebContentsObserver20OnWebContentsFocusedEPNS_16RenderWidgetHostE to i8*), i8* bitcast (void (%"class.content::WebContentsObserver"*, %"class.content::RenderWidgetHost"*)* @_ZN7content19WebContentsObserver22OnWebContentsLostFocusEPNS_16RenderWidgetHostE to i8*), i8* bitcast (void (%"class.content::WebContentsObserver"*, %"struct.content::FocusedNodeDetails"*)* @_ZN7content19WebContentsObserver20OnFocusChangedInPageEPNS_18FocusedNodeDetailsE to i8*), i8* bitcast (void (%"class.content::WebContentsObserver"*, %"class.content::RenderFrameHost"*, %"class.absl::optional.370"*)* @_ZN7content19WebContentsObserver23DidUpdateWebManifestURLEPNS_15RenderFrameHostERKN4absl8optionalI4GURLEE to i8*), i8* bitcast (void (%"class.content::WebContentsObserver"*, %"class.content::RenderFrameHost"*, %"class.std::__1::basic_string"*, %"class.mojo::ScopedHandleBase"*)* @_ZN7content19WebContentsObserver27OnInterfaceRequestFromFrameEPNS_15RenderFrameHostERKNSt3__112basic_stringIcNS3_11char_traitsIcEENS3_9allocatorIcEEEEPN4mojo16ScopedHandleBaseINSC_17MessagePipeHandleEEE to i8*), i8* bitcast (void (%"class.content::WebContentsObserver"*, %"struct.std::__1::pair.375"*)* @_ZN7content19WebContentsObserver27AudioContextPlaybackStartedERKNSt3__14pairIPNS_15RenderFrameHostEiEE to i8*), i8* bitcast (void (%"class.content::WebContentsObserver"*, %"struct.std::__1::pair.375"*)* @_ZN7content19WebContentsObserver27AudioContextPlaybackStoppedERKNSt3__14pairIPNS_15RenderFrameHostEiEE to i8*), i8* bitcast (void (%"class.content::WebContentsObserver"*, %"class.content::RenderFrameHost"*, %class.GURL*, i24)* @_ZN7content19WebContentsObserver23OnServiceWorkerAccessedEPNS_15RenderFrameHostERK4GURLNS_24AllowServiceWorkerResultE to i8*), i8* bitcast (void (%"class.content::WebContentsObserver"*, %"class.content::NavigationHandle"*, %class.GURL*, i24)* @_ZN7content19WebContentsObserver23OnServiceWorkerAccessedEPNS_16NavigationHandleERK4GURLNS_24AllowServiceWorkerResultE to i8*)], [5 x i8*] [i8* inttoptr (i64 -56 to i8*), i8* null, i8* bitcast (void (%"class.guest_view::GuestViewBase"*, %"struct.zoom::ZoomController::ZoomChangedEventData"*)* @_ZThn56_N10guest_view13GuestViewBase13OnZoomChangedERKN4zoom14ZoomController20ZoomChangedEventDataE to i8*), i8* bitcast (void (%"class.extensions::ExtensionOptionsGuest"*)* @_ZThn56_N10extensions21ExtensionOptionsGuestD1Ev to i8*), i8* bitcast (void (%"class.extensions::ExtensionOptionsGuest"*)* @_ZThn56_N10extensions21ExtensionOptionsGuestD0Ev to i8*)] }, align 8
@_ZN16extensionoptions12kExtensionIdE = external constant [0 x i8], align 1
@_ZN10extensions3api26extension_options_internal6OnLoad10kEventNameE = external constant [0 x i8], align 1
@_ZN16extensionoptions13kAPINamespaceE = external constant [0 x i8], align 1
@_ZN10extensions3api26extension_options_internal22OnPreferredSizeChanged10kEventNameE = external constant [0 x i8], align 1
@_ZN10extensions16kExtensionSchemeE = external constant [0 x i8], align 1
@_ZN10extensions3api26extension_options_internal7OnClose10kEventNameE = external constant [0 x i8], align 1
@_ZN10guest_view15kInstanceIDNoneE = external local_unnamed_addr constant i32, align 4
@_ZN4zoom14ZoomController12kUserDataKeyE = external constant i32, align 4

@_ZN10extensions21ExtensionOptionsGuestC1EPN7content11WebContentsE = hidden unnamed_addr alias void (%"class.extensions::ExtensionOptionsGuest"*, %"class.content::WebContents"*), void (%"class.extensions::ExtensionOptionsGuest"*, %"class.content::WebContents"*)* @_ZN10extensions21ExtensionOptionsGuestC2EPN7content11WebContentsE
@_ZN10extensions21ExtensionOptionsGuestD1Ev = hidden unnamed_addr alias void (%"class.extensions::ExtensionOptionsGuest"*), void (%"class.extensions::ExtensionOptionsGuest"*)* @_ZN10extensions21ExtensionOptionsGuestD2Ev

; Function Attrs: nounwind ssp uwtable
define hidden void @_ZN10extensions21ExtensionOptionsGuestC2EPN7content11WebContentsE(%"class.extensions::ExtensionOptionsGuest"*, %"class.content::WebContents"*) unnamed_addr #0 align 2 {
  %3 = getelementptr inbounds %"class.extensions::ExtensionOptionsGuest", %"class.extensions::ExtensionOptionsGuest"* %0, i64 0, i32 0, i32 0
  tail call void @_ZN10guest_view13GuestViewBaseC2EPN7content11WebContentsE(%"class.guest_view::GuestViewBase"* %3, %"class.content::WebContents"* %1) #10
  %4 = getelementptr inbounds %"class.extensions::ExtensionOptionsGuest", %"class.extensions::ExtensionOptionsGuest"* %0, i64 0, i32 0, i32 0, i32 2, i32 0, i32 0
  %5 = getelementptr inbounds %"class.extensions::ExtensionOptionsGuest", %"class.extensions::ExtensionOptionsGuest"* %0, i64 0, i32 0, i32 0, i32 3, i32 0
  %6 = bitcast %"class.extensions::ExtensionOptionsGuest"* %0 to <2 x i32 (...)**>*
  store <2 x i32 (...)**> <i32 (...)** bitcast (i8** getelementptr inbounds ({ [56 x i8*], [99 x i8*], [109 x i8*], [5 x i8*] }, { [56 x i8*], [99 x i8*], [109 x i8*], [5 x i8*] }* @_ZTVN10extensions21ExtensionOptionsGuestE, i64 0, inrange i32 0, i64 2) to i32 (...)**), i32 (...)** bitcast (i8** getelementptr inbounds ({ [56 x i8*], [99 x i8*], [109 x i8*], [5 x i8*] }, { [56 x i8*], [99 x i8*], [109 x i8*], [5 x i8*] }* @_ZTVN10extensions21ExtensionOptionsGuestE, i64 0, inrange i32 1, i64 2) to i32 (...)**)>, <2 x i32 (...)**>* %6, align 8
  store i32 (...)** bitcast (i8** getelementptr inbounds ({ [56 x i8*], [99 x i8*], [109 x i8*], [5 x i8*] }, { [56 x i8*], [99 x i8*], [109 x i8*], [5 x i8*] }* @_ZTVN10extensions21ExtensionOptionsGuestE, i64 0, inrange i32 2, i64 2) to i32 (...)**), i32 (...)*** %4, align 8
  store i32 (...)** bitcast (i8** getelementptr inbounds ({ [56 x i8*], [99 x i8*], [109 x i8*], [5 x i8*] }, { [56 x i8*], [99 x i8*], [109 x i8*], [5 x i8*] }* @_ZTVN10extensions21ExtensionOptionsGuestE, i64 0, inrange i32 3, i64 2) to i32 (...)**), i32 (...)*** %5, align 8
  %7 = getelementptr inbounds %"class.extensions::ExtensionOptionsGuest", %"class.extensions::ExtensionOptionsGuest"* %0, i64 0, i32 1
  %8 = tail call %"class.extensions::ExtensionsAPIClient"* @_ZN10extensions19ExtensionsAPIClient3GetEv() #10
  %9 = bitcast %"class.extensions::ExtensionsAPIClient"* %8 to %"class.extensions::ExtensionOptionsGuestDelegate"* (%"class.extensions::ExtensionsAPIClient"*, %"class.extensions::ExtensionOptionsGuest"*)***
  %10 = load %"class.extensions::ExtensionOptionsGuestDelegate"* (%"class.extensions::ExtensionsAPIClient"*, %"class.extensions::ExtensionOptionsGuest"*)**, %"class.extensions::ExtensionOptionsGuestDelegate"* (%"class.extensions::ExtensionsAPIClient"*, %"class.extensions::ExtensionOptionsGuest"*)*** %9, align 8
  %11 = getelementptr inbounds %"class.extensions::ExtensionOptionsGuestDelegate"* (%"class.extensions::ExtensionsAPIClient"*, %"class.extensions::ExtensionOptionsGuest"*)*, %"class.extensions::ExtensionOptionsGuestDelegate"* (%"class.extensions::ExtensionsAPIClient"*, %"class.extensions::ExtensionOptionsGuest"*)** %10, i64 10
  %12 = load %"class.extensions::ExtensionOptionsGuestDelegate"* (%"class.extensions::ExtensionsAPIClient"*, %"class.extensions::ExtensionOptionsGuest"*)*, %"class.extensions::ExtensionOptionsGuestDelegate"* (%"class.extensions::ExtensionsAPIClient"*, %"class.extensions::ExtensionOptionsGuest"*)** %11, align 8
  %13 = tail call %"class.extensions::ExtensionOptionsGuestDelegate"* %12(%"class.extensions::ExtensionsAPIClient"* %8, %"class.extensions::ExtensionOptionsGuest"* %0) #10
  %14 = ptrtoint %"class.extensions::ExtensionOptionsGuestDelegate"* %13 to i64
  %15 = bitcast %"class.std::__1::unique_ptr.73"* %7 to i64*
  store i64 %14, i64* %15, align 8
  %16 = getelementptr inbounds %"class.extensions::ExtensionOptionsGuest", %"class.extensions::ExtensionOptionsGuest"* %0, i64 0, i32 2
  tail call void @_ZN4GURLC1Ev(%class.GURL* %16) #10
  ret void
}

declare %"class.extensions::ExtensionsAPIClient"* @_ZN10extensions19ExtensionsAPIClient3GetEv() local_unnamed_addr #1

declare void @_ZN4GURLC1Ev(%class.GURL*) unnamed_addr #1

; Function Attrs: nounwind ssp uwtable
define hidden void @_ZN10extensions21ExtensionOptionsGuestD2Ev(%"class.extensions::ExtensionOptionsGuest"*) unnamed_addr #0 align 2 {
  %2 = bitcast %"class.extensions::ExtensionOptionsGuest"* %0 to <2 x i32 (...)**>*
  store <2 x i32 (...)**> <i32 (...)** bitcast (i8** getelementptr inbounds ({ [56 x i8*], [99 x i8*], [109 x i8*], [5 x i8*] }, { [56 x i8*], [99 x i8*], [109 x i8*], [5 x i8*] }* @_ZTVN10extensions21ExtensionOptionsGuestE, i64 0, inrange i32 0, i64 2) to i32 (...)**), i32 (...)** bitcast (i8** getelementptr inbounds ({ [56 x i8*], [99 x i8*], [109 x i8*], [5 x i8*] }, { [56 x i8*], [99 x i8*], [109 x i8*], [5 x i8*] }* @_ZTVN10extensions21ExtensionOptionsGuestE, i64 0, inrange i32 1, i64 2) to i32 (...)**)>, <2 x i32 (...)**>* %2, align 8
  %3 = getelementptr inbounds %"class.extensions::ExtensionOptionsGuest", %"class.extensions::ExtensionOptionsGuest"* %0, i64 0, i32 0, i32 0, i32 2, i32 0, i32 0
  store i32 (...)** bitcast (i8** getelementptr inbounds ({ [56 x i8*], [99 x i8*], [109 x i8*], [5 x i8*] }, { [56 x i8*], [99 x i8*], [109 x i8*], [5 x i8*] }* @_ZTVN10extensions21ExtensionOptionsGuestE, i64 0, inrange i32 2, i64 2) to i32 (...)**), i32 (...)*** %3, align 8
  %4 = getelementptr inbounds %"class.extensions::ExtensionOptionsGuest", %"class.extensions::ExtensionOptionsGuest"* %0, i64 0, i32 0, i32 0, i32 3, i32 0
  store i32 (...)** bitcast (i8** getelementptr inbounds ({ [56 x i8*], [99 x i8*], [109 x i8*], [5 x i8*] }, { [56 x i8*], [99 x i8*], [109 x i8*], [5 x i8*] }* @_ZTVN10extensions21ExtensionOptionsGuestE, i64 0, inrange i32 3, i64 2) to i32 (...)**), i32 (...)*** %4, align 8
  %5 = getelementptr inbounds %"class.extensions::ExtensionOptionsGuest", %"class.extensions::ExtensionOptionsGuest"* %0, i64 0, i32 2
  tail call void @_ZN4GURLD1Ev(%class.GURL* %5) #10
  %6 = getelementptr inbounds %"class.extensions::ExtensionOptionsGuest", %"class.extensions::ExtensionOptionsGuest"* %0, i64 0, i32 1, i32 0, i32 0, i32 0
  %7 = load %"class.extensions::ExtensionOptionsGuestDelegate"*, %"class.extensions::ExtensionOptionsGuestDelegate"** %6, align 8
  store %"class.extensions::ExtensionOptionsGuestDelegate"* null, %"class.extensions::ExtensionOptionsGuestDelegate"** %6, align 8
  %8 = icmp eq %"class.extensions::ExtensionOptionsGuestDelegate"* %7, null
  br i1 %8, label %14, label %9

9:                                                ; preds = %1
  %10 = bitcast %"class.extensions::ExtensionOptionsGuestDelegate"* %7 to void (%"class.extensions::ExtensionOptionsGuestDelegate"*)***
  %11 = load void (%"class.extensions::ExtensionOptionsGuestDelegate"*)**, void (%"class.extensions::ExtensionOptionsGuestDelegate"*)*** %10, align 8
  %12 = getelementptr inbounds void (%"class.extensions::ExtensionOptionsGuestDelegate"*)*, void (%"class.extensions::ExtensionOptionsGuestDelegate"*)** %11, i64 1
  %13 = load void (%"class.extensions::ExtensionOptionsGuestDelegate"*)*, void (%"class.extensions::ExtensionOptionsGuestDelegate"*)** %12, align 8
  tail call void %13(%"class.extensions::ExtensionOptionsGuestDelegate"* nonnull %7) #10
  br label %14

14:                                               ; preds = %1, %9
  %15 = getelementptr inbounds %"class.extensions::ExtensionOptionsGuest", %"class.extensions::ExtensionOptionsGuest"* %0, i64 0, i32 0, i32 0
  tail call void @_ZN10guest_view13GuestViewBaseD2Ev(%"class.guest_view::GuestViewBase"* %15) #10
  ret void
}

; Function Attrs: nounwind
declare void @_ZN4GURLD1Ev(%class.GURL*) unnamed_addr #2

; Function Attrs: nounwind ssp uwtable
define hidden void @_ZThn8_N10extensions21ExtensionOptionsGuestD1Ev(%"class.extensions::ExtensionOptionsGuest"*) unnamed_addr #0 align 2 {
  %2 = getelementptr inbounds %"class.extensions::ExtensionOptionsGuest", %"class.extensions::ExtensionOptionsGuest"* %0, i64 -1, i32 2, i32 3
  %3 = bitcast %"class.std::__1::unique_ptr.79"* %2 to <2 x i32 (...)**>*
  store <2 x i32 (...)**> <i32 (...)** bitcast (i8** getelementptr inbounds ({ [56 x i8*], [99 x i8*], [109 x i8*], [5 x i8*] }, { [56 x i8*], [99 x i8*], [109 x i8*], [5 x i8*] }* @_ZTVN10extensions21ExtensionOptionsGuestE, i64 0, inrange i32 0, i64 2) to i32 (...)**), i32 (...)** bitcast (i8** getelementptr inbounds ({ [56 x i8*], [99 x i8*], [109 x i8*], [5 x i8*] }, { [56 x i8*], [99 x i8*], [109 x i8*], [5 x i8*] }* @_ZTVN10extensions21ExtensionOptionsGuestE, i64 0, inrange i32 1, i64 2) to i32 (...)**)>, <2 x i32 (...)**>* %3, align 8
  %4 = getelementptr inbounds %"class.std::__1::unique_ptr.79", %"class.std::__1::unique_ptr.79"* %2, i64 5
  %5 = bitcast %"class.std::__1::unique_ptr.79"* %4 to i32 (...)***
  store i32 (...)** bitcast (i8** getelementptr inbounds ({ [56 x i8*], [99 x i8*], [109 x i8*], [5 x i8*] }, { [56 x i8*], [99 x i8*], [109 x i8*], [5 x i8*] }* @_ZTVN10extensions21ExtensionOptionsGuestE, i64 0, inrange i32 2, i64 2) to i32 (...)**), i32 (...)*** %5, align 8
  %6 = getelementptr inbounds %"class.std::__1::unique_ptr.79", %"class.std::__1::unique_ptr.79"* %2, i64 7
  %7 = bitcast %"class.std::__1::unique_ptr.79"* %6 to i32 (...)***
  store i32 (...)** bitcast (i8** getelementptr inbounds ({ [56 x i8*], [99 x i8*], [109 x i8*], [5 x i8*] }, { [56 x i8*], [99 x i8*], [109 x i8*], [5 x i8*] }* @_ZTVN10extensions21ExtensionOptionsGuestE, i64 0, inrange i32 3, i64 2) to i32 (...)**), i32 (...)*** %7, align 8
  %8 = getelementptr inbounds %"class.std::__1::unique_ptr.79", %"class.std::__1::unique_ptr.79"* %2, i64 33
  %9 = bitcast %"class.std::__1::unique_ptr.79"* %8 to %class.GURL*
  tail call void @_ZN4GURLD1Ev(%class.GURL* %9) #10
  %10 = getelementptr inbounds %"class.std::__1::unique_ptr.79", %"class.std::__1::unique_ptr.79"* %2, i64 32
  %11 = bitcast %"class.std::__1::unique_ptr.79"* %10 to %"class.extensions::ExtensionOptionsGuestDelegate"**
  %12 = load %"class.extensions::ExtensionOptionsGuestDelegate"*, %"class.extensions::ExtensionOptionsGuestDelegate"** %11, align 8
  store %"class.extensions::ExtensionOptionsGuestDelegate"* null, %"class.extensions::ExtensionOptionsGuestDelegate"** %11, align 8
  %13 = icmp eq %"class.extensions::ExtensionOptionsGuestDelegate"* %12, null
  br i1 %13, label %19, label %14

14:                                               ; preds = %1
  %15 = bitcast %"class.extensions::ExtensionOptionsGuestDelegate"* %12 to void (%"class.extensions::ExtensionOptionsGuestDelegate"*)***
  %16 = load void (%"class.extensions::ExtensionOptionsGuestDelegate"*)**, void (%"class.extensions::ExtensionOptionsGuestDelegate"*)*** %15, align 8
  %17 = getelementptr inbounds void (%"class.extensions::ExtensionOptionsGuestDelegate"*)*, void (%"class.extensions::ExtensionOptionsGuestDelegate"*)** %16, i64 1
  %18 = load void (%"class.extensions::ExtensionOptionsGuestDelegate"*)*, void (%"class.extensions::ExtensionOptionsGuestDelegate"*)** %17, align 8
  tail call void %18(%"class.extensions::ExtensionOptionsGuestDelegate"* nonnull %12) #10
  br label %19

19:                                               ; preds = %1, %14
  %20 = bitcast %"class.std::__1::unique_ptr.79"* %2 to %"class.guest_view::GuestViewBase"*
  tail call void @_ZN10guest_view13GuestViewBaseD2Ev(%"class.guest_view::GuestViewBase"* %20) #10
  ret void
}

; Function Attrs: nounwind ssp uwtable
define hidden void @_ZThn40_N10extensions21ExtensionOptionsGuestD1Ev(%"class.extensions::ExtensionOptionsGuest"*) unnamed_addr #0 align 2 {
  %2 = getelementptr inbounds %"class.extensions::ExtensionOptionsGuest", %"class.extensions::ExtensionOptionsGuest"* %0, i64 -1, i32 2, i32 2, i32 6
  %3 = bitcast %"struct.url::Component"* %2 to <2 x i32 (...)**>*
  store <2 x i32 (...)**> <i32 (...)** bitcast (i8** getelementptr inbounds ({ [56 x i8*], [99 x i8*], [109 x i8*], [5 x i8*] }, { [56 x i8*], [99 x i8*], [109 x i8*], [5 x i8*] }* @_ZTVN10extensions21ExtensionOptionsGuestE, i64 0, inrange i32 0, i64 2) to i32 (...)**), i32 (...)** bitcast (i8** getelementptr inbounds ({ [56 x i8*], [99 x i8*], [109 x i8*], [5 x i8*] }, { [56 x i8*], [99 x i8*], [109 x i8*], [5 x i8*] }* @_ZTVN10extensions21ExtensionOptionsGuestE, i64 0, inrange i32 1, i64 2) to i32 (...)**)>, <2 x i32 (...)**>* %3, align 8
  %4 = getelementptr inbounds %"struct.url::Component", %"struct.url::Component"* %2, i64 5
  %5 = bitcast %"struct.url::Component"* %4 to i32 (...)***
  store i32 (...)** bitcast (i8** getelementptr inbounds ({ [56 x i8*], [99 x i8*], [109 x i8*], [5 x i8*] }, { [56 x i8*], [99 x i8*], [109 x i8*], [5 x i8*] }* @_ZTVN10extensions21ExtensionOptionsGuestE, i64 0, inrange i32 2, i64 2) to i32 (...)**), i32 (...)*** %5, align 8
  %6 = getelementptr inbounds %"struct.url::Component", %"struct.url::Component"* %2, i64 7
  %7 = bitcast %"struct.url::Component"* %6 to i32 (...)***
  store i32 (...)** bitcast (i8** getelementptr inbounds ({ [56 x i8*], [99 x i8*], [109 x i8*], [5 x i8*] }, { [56 x i8*], [99 x i8*], [109 x i8*], [5 x i8*] }* @_ZTVN10extensions21ExtensionOptionsGuestE, i64 0, inrange i32 3, i64 2) to i32 (...)**), i32 (...)*** %7, align 8
  %8 = getelementptr inbounds %"struct.url::Component", %"struct.url::Component"* %2, i64 33
  %9 = bitcast %"struct.url::Component"* %8 to %class.GURL*
  tail call void @_ZN4GURLD1Ev(%class.GURL* %9) #10
  %10 = getelementptr inbounds %"struct.url::Component", %"struct.url::Component"* %2, i64 32
  %11 = bitcast %"struct.url::Component"* %10 to %"class.extensions::ExtensionOptionsGuestDelegate"**
  %12 = load %"class.extensions::ExtensionOptionsGuestDelegate"*, %"class.extensions::ExtensionOptionsGuestDelegate"** %11, align 8
  store %"class.extensions::ExtensionOptionsGuestDelegate"* null, %"class.extensions::ExtensionOptionsGuestDelegate"** %11, align 8
  %13 = icmp eq %"class.extensions::ExtensionOptionsGuestDelegate"* %12, null
  br i1 %13, label %19, label %14

14:                                               ; preds = %1
  %15 = bitcast %"class.extensions::ExtensionOptionsGuestDelegate"* %12 to void (%"class.extensions::ExtensionOptionsGuestDelegate"*)***
  %16 = load void (%"class.extensions::ExtensionOptionsGuestDelegate"*)**, void (%"class.extensions::ExtensionOptionsGuestDelegate"*)*** %15, align 8
  %17 = getelementptr inbounds void (%"class.extensions::ExtensionOptionsGuestDelegate"*)*, void (%"class.extensions::ExtensionOptionsGuestDelegate"*)** %16, i64 1
  %18 = load void (%"class.extensions::ExtensionOptionsGuestDelegate"*)*, void (%"class.extensions::ExtensionOptionsGuestDelegate"*)** %17, align 8
  tail call void %18(%"class.extensions::ExtensionOptionsGuestDelegate"* nonnull %12) #10
  br label %19

19:                                               ; preds = %1, %14
  %20 = bitcast %"struct.url::Component"* %2 to %"class.guest_view::GuestViewBase"*
  tail call void @_ZN10guest_view13GuestViewBaseD2Ev(%"class.guest_view::GuestViewBase"* %20) #10
  ret void
}

; Function Attrs: nounwind ssp uwtable
define hidden void @_ZThn56_N10extensions21ExtensionOptionsGuestD1Ev(%"class.extensions::ExtensionOptionsGuest"*) unnamed_addr #0 align 2 {
  %2 = getelementptr inbounds %"class.extensions::ExtensionOptionsGuest", %"class.extensions::ExtensionOptionsGuest"* %0, i64 -1, i32 2, i32 2, i32 4
  %3 = bitcast %"struct.url::Component"* %2 to <2 x i32 (...)**>*
  store <2 x i32 (...)**> <i32 (...)** bitcast (i8** getelementptr inbounds ({ [56 x i8*], [99 x i8*], [109 x i8*], [5 x i8*] }, { [56 x i8*], [99 x i8*], [109 x i8*], [5 x i8*] }* @_ZTVN10extensions21ExtensionOptionsGuestE, i64 0, inrange i32 0, i64 2) to i32 (...)**), i32 (...)** bitcast (i8** getelementptr inbounds ({ [56 x i8*], [99 x i8*], [109 x i8*], [5 x i8*] }, { [56 x i8*], [99 x i8*], [109 x i8*], [5 x i8*] }* @_ZTVN10extensions21ExtensionOptionsGuestE, i64 0, inrange i32 1, i64 2) to i32 (...)**)>, <2 x i32 (...)**>* %3, align 8
  %4 = getelementptr inbounds %"struct.url::Component", %"struct.url::Component"* %2, i64 5
  %5 = bitcast %"struct.url::Component"* %4 to i32 (...)***
  store i32 (...)** bitcast (i8** getelementptr inbounds ({ [56 x i8*], [99 x i8*], [109 x i8*], [5 x i8*] }, { [56 x i8*], [99 x i8*], [109 x i8*], [5 x i8*] }* @_ZTVN10extensions21ExtensionOptionsGuestE, i64 0, inrange i32 2, i64 2) to i32 (...)**), i32 (...)*** %5, align 8
  %6 = getelementptr inbounds %"struct.url::Component", %"struct.url::Component"* %2, i64 7
  %7 = bitcast %"struct.url::Component"* %6 to i32 (...)***
  store i32 (...)** bitcast (i8** getelementptr inbounds ({ [56 x i8*], [99 x i8*], [109 x i8*], [5 x i8*] }, { [56 x i8*], [99 x i8*], [109 x i8*], [5 x i8*] }* @_ZTVN10extensions21ExtensionOptionsGuestE, i64 0, inrange i32 3, i64 2) to i32 (...)**), i32 (...)*** %7, align 8
  %8 = getelementptr inbounds %"struct.url::Component", %"struct.url::Component"* %2, i64 33
  %9 = bitcast %"struct.url::Component"* %8 to %class.GURL*
  tail call void @_ZN4GURLD1Ev(%class.GURL* %9) #10
  %10 = getelementptr inbounds %"struct.url::Component", %"struct.url::Component"* %2, i64 32
  %11 = bitcast %"struct.url::Component"* %10 to %"class.extensions::ExtensionOptionsGuestDelegate"**
  %12 = load %"class.extensions::ExtensionOptionsGuestDelegate"*, %"class.extensions::ExtensionOptionsGuestDelegate"** %11, align 8
  store %"class.extensions::ExtensionOptionsGuestDelegate"* null, %"class.extensions::ExtensionOptionsGuestDelegate"** %11, align 8
  %13 = icmp eq %"class.extensions::ExtensionOptionsGuestDelegate"* %12, null
  br i1 %13, label %19, label %14

14:                                               ; preds = %1
  %15 = bitcast %"class.extensions::ExtensionOptionsGuestDelegate"* %12 to void (%"class.extensions::ExtensionOptionsGuestDelegate"*)***
  %16 = load void (%"class.extensions::ExtensionOptionsGuestDelegate"*)**, void (%"class.extensions::ExtensionOptionsGuestDelegate"*)*** %15, align 8
  %17 = getelementptr inbounds void (%"class.extensions::ExtensionOptionsGuestDelegate"*)*, void (%"class.extensions::ExtensionOptionsGuestDelegate"*)** %16, i64 1
  %18 = load void (%"class.extensions::ExtensionOptionsGuestDelegate"*)*, void (%"class.extensions::ExtensionOptionsGuestDelegate"*)** %17, align 8
  tail call void %18(%"class.extensions::ExtensionOptionsGuestDelegate"* nonnull %12) #10
  br label %19

19:                                               ; preds = %1, %14
  %20 = bitcast %"struct.url::Component"* %2 to %"class.guest_view::GuestViewBase"*
  tail call void @_ZN10guest_view13GuestViewBaseD2Ev(%"class.guest_view::GuestViewBase"* %20) #10
  ret void
}

; Function Attrs: nounwind ssp uwtable
define hidden void @_ZN10extensions21ExtensionOptionsGuestD0Ev(%"class.extensions::ExtensionOptionsGuest"*) unnamed_addr #0 align 2 {
  %2 = bitcast %"class.extensions::ExtensionOptionsGuest"* %0 to <2 x i32 (...)**>*
  store <2 x i32 (...)**> <i32 (...)** bitcast (i8** getelementptr inbounds ({ [56 x i8*], [99 x i8*], [109 x i8*], [5 x i8*] }, { [56 x i8*], [99 x i8*], [109 x i8*], [5 x i8*] }* @_ZTVN10extensions21ExtensionOptionsGuestE, i64 0, inrange i32 0, i64 2) to i32 (...)**), i32 (...)** bitcast (i8** getelementptr inbounds ({ [56 x i8*], [99 x i8*], [109 x i8*], [5 x i8*] }, { [56 x i8*], [99 x i8*], [109 x i8*], [5 x i8*] }* @_ZTVN10extensions21ExtensionOptionsGuestE, i64 0, inrange i32 1, i64 2) to i32 (...)**)>, <2 x i32 (...)**>* %2, align 8
  %3 = getelementptr inbounds %"class.extensions::ExtensionOptionsGuest", %"class.extensions::ExtensionOptionsGuest"* %0, i64 0, i32 0, i32 0, i32 2, i32 0, i32 0
  store i32 (...)** bitcast (i8** getelementptr inbounds ({ [56 x i8*], [99 x i8*], [109 x i8*], [5 x i8*] }, { [56 x i8*], [99 x i8*], [109 x i8*], [5 x i8*] }* @_ZTVN10extensions21ExtensionOptionsGuestE, i64 0, inrange i32 2, i64 2) to i32 (...)**), i32 (...)*** %3, align 8
  %4 = getelementptr inbounds %"class.extensions::ExtensionOptionsGuest", %"class.extensions::ExtensionOptionsGuest"* %0, i64 0, i32 0, i32 0, i32 3, i32 0
  store i32 (...)** bitcast (i8** getelementptr inbounds ({ [56 x i8*], [99 x i8*], [109 x i8*], [5 x i8*] }, { [56 x i8*], [99 x i8*], [109 x i8*], [5 x i8*] }* @_ZTVN10extensions21ExtensionOptionsGuestE, i64 0, inrange i32 3, i64 2) to i32 (...)**), i32 (...)*** %4, align 8
  %5 = getelementptr inbounds %"class.extensions::ExtensionOptionsGuest", %"class.extensions::ExtensionOptionsGuest"* %0, i64 0, i32 2
  tail call void @_ZN4GURLD1Ev(%class.GURL* %5) #10
  %6 = getelementptr inbounds %"class.extensions::ExtensionOptionsGuest", %"class.extensions::ExtensionOptionsGuest"* %0, i64 0, i32 1, i32 0, i32 0, i32 0
  %7 = load %"class.extensions::ExtensionOptionsGuestDelegate"*, %"class.extensions::ExtensionOptionsGuestDelegate"** %6, align 8
  store %"class.extensions::ExtensionOptionsGuestDelegate"* null, %"class.extensions::ExtensionOptionsGuestDelegate"** %6, align 8
  %8 = icmp eq %"class.extensions::ExtensionOptionsGuestDelegate"* %7, null
  br i1 %8, label %14, label %9

9:                                                ; preds = %1
  %10 = bitcast %"class.extensions::ExtensionOptionsGuestDelegate"* %7 to void (%"class.extensions::ExtensionOptionsGuestDelegate"*)***
  %11 = load void (%"class.extensions::ExtensionOptionsGuestDelegate"*)**, void (%"class.extensions::ExtensionOptionsGuestDelegate"*)*** %10, align 8
  %12 = getelementptr inbounds void (%"class.extensions::ExtensionOptionsGuestDelegate"*)*, void (%"class.extensions::ExtensionOptionsGuestDelegate"*)** %11, i64 1
  %13 = load void (%"class.extensions::ExtensionOptionsGuestDelegate"*)*, void (%"class.extensions::ExtensionOptionsGuestDelegate"*)** %12, align 8
  tail call void %13(%"class.extensions::ExtensionOptionsGuestDelegate"* nonnull %7) #10
  br label %14

14:                                               ; preds = %1, %9
  %15 = getelementptr inbounds %"class.extensions::ExtensionOptionsGuest", %"class.extensions::ExtensionOptionsGuest"* %0, i64 0, i32 0, i32 0
  tail call void @_ZN10guest_view13GuestViewBaseD2Ev(%"class.guest_view::GuestViewBase"* %15) #10
  %16 = bitcast %"class.extensions::ExtensionOptionsGuest"* %0 to i8*
  tail call void @_ZdlPv(i8* %16) #11
  ret void
}

; Function Attrs: nobuiltin nounwind
declare void @_ZdlPv(i8*) local_unnamed_addr #3

; Function Attrs: nounwind ssp uwtable
define hidden void @_ZThn8_N10extensions21ExtensionOptionsGuestD0Ev(%"class.extensions::ExtensionOptionsGuest"*) unnamed_addr #0 align 2 {
  %2 = getelementptr inbounds %"class.extensions::ExtensionOptionsGuest", %"class.extensions::ExtensionOptionsGuest"* %0, i64 -1, i32 2, i32 3
  %3 = bitcast %"class.std::__1::unique_ptr.79"* %2 to <2 x i32 (...)**>*
  store <2 x i32 (...)**> <i32 (...)** bitcast (i8** getelementptr inbounds ({ [56 x i8*], [99 x i8*], [109 x i8*], [5 x i8*] }, { [56 x i8*], [99 x i8*], [109 x i8*], [5 x i8*] }* @_ZTVN10extensions21ExtensionOptionsGuestE, i64 0, inrange i32 0, i64 2) to i32 (...)**), i32 (...)** bitcast (i8** getelementptr inbounds ({ [56 x i8*], [99 x i8*], [109 x i8*], [5 x i8*] }, { [56 x i8*], [99 x i8*], [109 x i8*], [5 x i8*] }* @_ZTVN10extensions21ExtensionOptionsGuestE, i64 0, inrange i32 1, i64 2) to i32 (...)**)>, <2 x i32 (...)**>* %3, align 8
  %4 = getelementptr inbounds %"class.std::__1::unique_ptr.79", %"class.std::__1::unique_ptr.79"* %2, i64 5
  %5 = bitcast %"class.std::__1::unique_ptr.79"* %4 to i32 (...)***
  store i32 (...)** bitcast (i8** getelementptr inbounds ({ [56 x i8*], [99 x i8*], [109 x i8*], [5 x i8*] }, { [56 x i8*], [99 x i8*], [109 x i8*], [5 x i8*] }* @_ZTVN10extensions21ExtensionOptionsGuestE, i64 0, inrange i32 2, i64 2) to i32 (...)**), i32 (...)*** %5, align 8
  %6 = getelementptr inbounds %"class.std::__1::unique_ptr.79", %"class.std::__1::unique_ptr.79"* %2, i64 7
  %7 = bitcast %"class.std::__1::unique_ptr.79"* %6 to i32 (...)***
  store i32 (...)** bitcast (i8** getelementptr inbounds ({ [56 x i8*], [99 x i8*], [109 x i8*], [5 x i8*] }, { [56 x i8*], [99 x i8*], [109 x i8*], [5 x i8*] }* @_ZTVN10extensions21ExtensionOptionsGuestE, i64 0, inrange i32 3, i64 2) to i32 (...)**), i32 (...)*** %7, align 8
  %8 = getelementptr inbounds %"class.std::__1::unique_ptr.79", %"class.std::__1::unique_ptr.79"* %2, i64 33
  %9 = bitcast %"class.std::__1::unique_ptr.79"* %8 to %class.GURL*
  tail call void @_ZN4GURLD1Ev(%class.GURL* %9) #10
  %10 = getelementptr inbounds %"class.std::__1::unique_ptr.79", %"class.std::__1::unique_ptr.79"* %2, i64 32
  %11 = bitcast %"class.std::__1::unique_ptr.79"* %10 to %"class.extensions::ExtensionOptionsGuestDelegate"**
  %12 = load %"class.extensions::ExtensionOptionsGuestDelegate"*, %"class.extensions::ExtensionOptionsGuestDelegate"** %11, align 8
  store %"class.extensions::ExtensionOptionsGuestDelegate"* null, %"class.extensions::ExtensionOptionsGuestDelegate"** %11, align 8
  %13 = icmp eq %"class.extensions::ExtensionOptionsGuestDelegate"* %12, null
  br i1 %13, label %19, label %14

14:                                               ; preds = %1
  %15 = bitcast %"class.extensions::ExtensionOptionsGuestDelegate"* %12 to void (%"class.extensions::ExtensionOptionsGuestDelegate"*)***
  %16 = load void (%"class.extensions::ExtensionOptionsGuestDelegate"*)**, void (%"class.extensions::ExtensionOptionsGuestDelegate"*)*** %15, align 8
  %17 = getelementptr inbounds void (%"class.extensions::ExtensionOptionsGuestDelegate"*)*, void (%"class.extensions::ExtensionOptionsGuestDelegate"*)** %16, i64 1
  %18 = load void (%"class.extensions::ExtensionOptionsGuestDelegate"*)*, void (%"class.extensions::ExtensionOptionsGuestDelegate"*)** %17, align 8
  tail call void %18(%"class.extensions::ExtensionOptionsGuestDelegate"* nonnull %12) #10
  br label %19

19:                                               ; preds = %1, %14
  %20 = bitcast %"class.std::__1::unique_ptr.79"* %2 to %"class.guest_view::GuestViewBase"*
  tail call void @_ZN10guest_view13GuestViewBaseD2Ev(%"class.guest_view::GuestViewBase"* %20) #10
  %21 = bitcast %"class.std::__1::unique_ptr.79"* %2 to i8*
  tail call void @_ZdlPv(i8* %21) #11
  ret void
}

; Function Attrs: nounwind ssp uwtable
define hidden void @_ZThn40_N10extensions21ExtensionOptionsGuestD0Ev(%"class.extensions::ExtensionOptionsGuest"*) unnamed_addr #0 align 2 {
  %2 = getelementptr inbounds %"class.extensions::ExtensionOptionsGuest", %"class.extensions::ExtensionOptionsGuest"* %0, i64 -1, i32 2, i32 2, i32 6
  %3 = bitcast %"struct.url::Component"* %2 to <2 x i32 (...)**>*
  store <2 x i32 (...)**> <i32 (...)** bitcast (i8** getelementptr inbounds ({ [56 x i8*], [99 x i8*], [109 x i8*], [5 x i8*] }, { [56 x i8*], [99 x i8*], [109 x i8*], [5 x i8*] }* @_ZTVN10extensions21ExtensionOptionsGuestE, i64 0, inrange i32 0, i64 2) to i32 (...)**), i32 (...)** bitcast (i8** getelementptr inbounds ({ [56 x i8*], [99 x i8*], [109 x i8*], [5 x i8*] }, { [56 x i8*], [99 x i8*], [109 x i8*], [5 x i8*] }* @_ZTVN10extensions21ExtensionOptionsGuestE, i64 0, inrange i32 1, i64 2) to i32 (...)**)>, <2 x i32 (...)**>* %3, align 8
  %4 = getelementptr inbounds %"struct.url::Component", %"struct.url::Component"* %2, i64 5
  %5 = bitcast %"struct.url::Component"* %4 to i32 (...)***
  store i32 (...)** bitcast (i8** getelementptr inbounds ({ [56 x i8*], [99 x i8*], [109 x i8*], [5 x i8*] }, { [56 x i8*], [99 x i8*], [109 x i8*], [5 x i8*] }* @_ZTVN10extensions21ExtensionOptionsGuestE, i64 0, inrange i32 2, i64 2) to i32 (...)**), i32 (...)*** %5, align 8
  %6 = getelementptr inbounds %"struct.url::Component", %"struct.url::Component"* %2, i64 7
  %7 = bitcast %"struct.url::Component"* %6 to i32 (...)***
  store i32 (...)** bitcast (i8** getelementptr inbounds ({ [56 x i8*], [99 x i8*], [109 x i8*], [5 x i8*] }, { [56 x i8*], [99 x i8*], [109 x i8*], [5 x i8*] }* @_ZTVN10extensions21ExtensionOptionsGuestE, i64 0, inrange i32 3, i64 2) to i32 (...)**), i32 (...)*** %7, align 8
  %8 = getelementptr inbounds %"struct.url::Component", %"struct.url::Component"* %2, i64 33
  %9 = bitcast %"struct.url::Component"* %8 to %class.GURL*
  tail call void @_ZN4GURLD1Ev(%class.GURL* %9) #10
  %10 = getelementptr inbounds %"struct.url::Component", %"struct.url::Component"* %2, i64 32
  %11 = bitcast %"struct.url::Component"* %10 to %"class.extensions::ExtensionOptionsGuestDelegate"**
  %12 = load %"class.extensions::ExtensionOptionsGuestDelegate"*, %"class.extensions::ExtensionOptionsGuestDelegate"** %11, align 8
  store %"class.extensions::ExtensionOptionsGuestDelegate"* null, %"class.extensions::ExtensionOptionsGuestDelegate"** %11, align 8
  %13 = icmp eq %"class.extensions::ExtensionOptionsGuestDelegate"* %12, null
  br i1 %13, label %19, label %14

14:                                               ; preds = %1
  %15 = bitcast %"class.extensions::ExtensionOptionsGuestDelegate"* %12 to void (%"class.extensions::ExtensionOptionsGuestDelegate"*)***
  %16 = load void (%"class.extensions::ExtensionOptionsGuestDelegate"*)**, void (%"class.extensions::ExtensionOptionsGuestDelegate"*)*** %15, align 8
  %17 = getelementptr inbounds void (%"class.extensions::ExtensionOptionsGuestDelegate"*)*, void (%"class.extensions::ExtensionOptionsGuestDelegate"*)** %16, i64 1
  %18 = load void (%"class.extensions::ExtensionOptionsGuestDelegate"*)*, void (%"class.extensions::ExtensionOptionsGuestDelegate"*)** %17, align 8
  tail call void %18(%"class.extensions::ExtensionOptionsGuestDelegate"* nonnull %12) #10
  br label %19

19:                                               ; preds = %1, %14
  %20 = bitcast %"struct.url::Component"* %2 to %"class.guest_view::GuestViewBase"*
  tail call void @_ZN10guest_view13GuestViewBaseD2Ev(%"class.guest_view::GuestViewBase"* %20) #10
  %21 = bitcast %"struct.url::Component"* %2 to i8*
  tail call void @_ZdlPv(i8* %21) #11
  ret void
}

; Function Attrs: nounwind ssp uwtable
define hidden void @_ZThn56_N10extensions21ExtensionOptionsGuestD0Ev(%"class.extensions::ExtensionOptionsGuest"*) unnamed_addr #0 align 2 {
  %2 = getelementptr inbounds %"class.extensions::ExtensionOptionsGuest", %"class.extensions::ExtensionOptionsGuest"* %0, i64 -1, i32 2, i32 2, i32 4
  %3 = bitcast %"struct.url::Component"* %2 to <2 x i32 (...)**>*
  store <2 x i32 (...)**> <i32 (...)** bitcast (i8** getelementptr inbounds ({ [56 x i8*], [99 x i8*], [109 x i8*], [5 x i8*] }, { [56 x i8*], [99 x i8*], [109 x i8*], [5 x i8*] }* @_ZTVN10extensions21ExtensionOptionsGuestE, i64 0, inrange i32 0, i64 2) to i32 (...)**), i32 (...)** bitcast (i8** getelementptr inbounds ({ [56 x i8*], [99 x i8*], [109 x i8*], [5 x i8*] }, { [56 x i8*], [99 x i8*], [109 x i8*], [5 x i8*] }* @_ZTVN10extensions21ExtensionOptionsGuestE, i64 0, inrange i32 1, i64 2) to i32 (...)**)>, <2 x i32 (...)**>* %3, align 8
  %4 = getelementptr inbounds %"struct.url::Component", %"struct.url::Component"* %2, i64 5
  %5 = bitcast %"struct.url::Component"* %4 to i32 (...)***
  store i32 (...)** bitcast (i8** getelementptr inbounds ({ [56 x i8*], [99 x i8*], [109 x i8*], [5 x i8*] }, { [56 x i8*], [99 x i8*], [109 x i8*], [5 x i8*] }* @_ZTVN10extensions21ExtensionOptionsGuestE, i64 0, inrange i32 2, i64 2) to i32 (...)**), i32 (...)*** %5, align 8
  %6 = getelementptr inbounds %"struct.url::Component", %"struct.url::Component"* %2, i64 7
  %7 = bitcast %"struct.url::Component"* %6 to i32 (...)***
  store i32 (...)** bitcast (i8** getelementptr inbounds ({ [56 x i8*], [99 x i8*], [109 x i8*], [5 x i8*] }, { [56 x i8*], [99 x i8*], [109 x i8*], [5 x i8*] }* @_ZTVN10extensions21ExtensionOptionsGuestE, i64 0, inrange i32 3, i64 2) to i32 (...)**), i32 (...)*** %7, align 8
  %8 = getelementptr inbounds %"struct.url::Component", %"struct.url::Component"* %2, i64 33
  %9 = bitcast %"struct.url::Component"* %8 to %class.GURL*
  tail call void @_ZN4GURLD1Ev(%class.GURL* %9) #10
  %10 = getelementptr inbounds %"struct.url::Component", %"struct.url::Component"* %2, i64 32
  %11 = bitcast %"struct.url::Component"* %10 to %"class.extensions::ExtensionOptionsGuestDelegate"**
  %12 = load %"class.extensions::ExtensionOptionsGuestDelegate"*, %"class.extensions::ExtensionOptionsGuestDelegate"** %11, align 8
  store %"class.extensions::ExtensionOptionsGuestDelegate"* null, %"class.extensions::ExtensionOptionsGuestDelegate"** %11, align 8
  %13 = icmp eq %"class.extensions::ExtensionOptionsGuestDelegate"* %12, null
  br i1 %13, label %19, label %14

14:                                               ; preds = %1
  %15 = bitcast %"class.extensions::ExtensionOptionsGuestDelegate"* %12 to void (%"class.extensions::ExtensionOptionsGuestDelegate"*)***
  %16 = load void (%"class.extensions::ExtensionOptionsGuestDelegate"*)**, void (%"class.extensions::ExtensionOptionsGuestDelegate"*)*** %15, align 8
  %17 = getelementptr inbounds void (%"class.extensions::ExtensionOptionsGuestDelegate"*)*, void (%"class.extensions::ExtensionOptionsGuestDelegate"*)** %16, i64 1
  %18 = load void (%"class.extensions::ExtensionOptionsGuestDelegate"*)*, void (%"class.extensions::ExtensionOptionsGuestDelegate"*)** %17, align 8
  tail call void %18(%"class.extensions::ExtensionOptionsGuestDelegate"* nonnull %12) #10
  br label %19

19:                                               ; preds = %1, %14
  %20 = bitcast %"struct.url::Component"* %2 to %"class.guest_view::GuestViewBase"*
  tail call void @_ZN10guest_view13GuestViewBaseD2Ev(%"class.guest_view::GuestViewBase"* %20) #10
  %21 = bitcast %"struct.url::Component"* %2 to i8*
  tail call void @_ZdlPv(i8* %21) #11
  ret void
}

; Function Attrs: nounwind ssp uwtable
define hidden nonnull %"class.guest_view::GuestViewBase"* @_ZN10extensions21ExtensionOptionsGuest6CreateEPN7content11WebContentsE(%"class.content::WebContents"*) local_unnamed_addr #0 align 2 {
  %2 = tail call i8* @_Znwm(i64 384) #11
  %3 = bitcast i8* %2 to %"class.extensions::ExtensionOptionsGuest"*
  %4 = bitcast i8* %2 to %"class.guest_view::GuestViewBase"*
  tail call void @_ZN10guest_view13GuestViewBaseC2EPN7content11WebContentsE(%"class.guest_view::GuestViewBase"* nonnull %4, %"class.content::WebContents"* %0) #10
  %5 = getelementptr inbounds i8, i8* %2, i64 40
  %6 = bitcast i8* %5 to i32 (...)***
  %7 = getelementptr inbounds i8, i8* %2, i64 56
  %8 = bitcast i8* %7 to i32 (...)***
  %9 = bitcast i8* %2 to <2 x i32 (...)**>*
  store <2 x i32 (...)**> <i32 (...)** bitcast (i8** getelementptr inbounds ({ [56 x i8*], [99 x i8*], [109 x i8*], [5 x i8*] }, { [56 x i8*], [99 x i8*], [109 x i8*], [5 x i8*] }* @_ZTVN10extensions21ExtensionOptionsGuestE, i64 0, inrange i32 0, i64 2) to i32 (...)**), i32 (...)** bitcast (i8** getelementptr inbounds ({ [56 x i8*], [99 x i8*], [109 x i8*], [5 x i8*] }, { [56 x i8*], [99 x i8*], [109 x i8*], [5 x i8*] }* @_ZTVN10extensions21ExtensionOptionsGuestE, i64 0, inrange i32 1, i64 2) to i32 (...)**)>, <2 x i32 (...)**>* %9, align 8
  store i32 (...)** bitcast (i8** getelementptr inbounds ({ [56 x i8*], [99 x i8*], [109 x i8*], [5 x i8*] }, { [56 x i8*], [99 x i8*], [109 x i8*], [5 x i8*] }* @_ZTVN10extensions21ExtensionOptionsGuestE, i64 0, inrange i32 2, i64 2) to i32 (...)**), i32 (...)*** %6, align 8
  store i32 (...)** bitcast (i8** getelementptr inbounds ({ [56 x i8*], [99 x i8*], [109 x i8*], [5 x i8*] }, { [56 x i8*], [99 x i8*], [109 x i8*], [5 x i8*] }* @_ZTVN10extensions21ExtensionOptionsGuestE, i64 0, inrange i32 3, i64 2) to i32 (...)**), i32 (...)*** %8, align 8
  %10 = getelementptr inbounds i8, i8* %2, i64 256
  %11 = tail call %"class.extensions::ExtensionsAPIClient"* @_ZN10extensions19ExtensionsAPIClient3GetEv() #10
  %12 = bitcast %"class.extensions::ExtensionsAPIClient"* %11 to %"class.extensions::ExtensionOptionsGuestDelegate"* (%"class.extensions::ExtensionsAPIClient"*, %"class.extensions::ExtensionOptionsGuest"*)***
  %13 = load %"class.extensions::ExtensionOptionsGuestDelegate"* (%"class.extensions::ExtensionsAPIClient"*, %"class.extensions::ExtensionOptionsGuest"*)**, %"class.extensions::ExtensionOptionsGuestDelegate"* (%"class.extensions::ExtensionsAPIClient"*, %"class.extensions::ExtensionOptionsGuest"*)*** %12, align 8
  %14 = getelementptr inbounds %"class.extensions::ExtensionOptionsGuestDelegate"* (%"class.extensions::ExtensionsAPIClient"*, %"class.extensions::ExtensionOptionsGuest"*)*, %"class.extensions::ExtensionOptionsGuestDelegate"* (%"class.extensions::ExtensionsAPIClient"*, %"class.extensions::ExtensionOptionsGuest"*)** %13, i64 10
  %15 = load %"class.extensions::ExtensionOptionsGuestDelegate"* (%"class.extensions::ExtensionsAPIClient"*, %"class.extensions::ExtensionOptionsGuest"*)*, %"class.extensions::ExtensionOptionsGuestDelegate"* (%"class.extensions::ExtensionsAPIClient"*, %"class.extensions::ExtensionOptionsGuest"*)** %14, align 8
  %16 = tail call %"class.extensions::ExtensionOptionsGuestDelegate"* %15(%"class.extensions::ExtensionsAPIClient"* %11, %"class.extensions::ExtensionOptionsGuest"* nonnull %3) #10
  %17 = ptrtoint %"class.extensions::ExtensionOptionsGuestDelegate"* %16 to i64
  %18 = bitcast i8* %10 to i64*
  store i64 %17, i64* %18, align 8
  %19 = getelementptr inbounds i8, i8* %2, i64 264
  %20 = bitcast i8* %19 to %class.GURL*
  tail call void @_ZN4GURLC1Ev(%class.GURL* %20) #10
  ret %"class.guest_view::GuestViewBase"* %4
}

; Function Attrs: nobuiltin nofree
declare noalias nonnull i8* @_Znwm(i64) local_unnamed_addr #4

; Function Attrs: nounwind ssp uwtable
define hidden void @_ZN10extensions21ExtensionOptionsGuest17CreateWebContentsERKN4base15DictionaryValueENS1_12OnceCallbackIFvPN7content11WebContentsEEEE(%"class.extensions::ExtensionOptionsGuest"*, %"class.base::DictionaryValue"* dereferenceable(32), %"class.base::OnceCallback"* nocapture) unnamed_addr #0 align 2 {
  %4 = alloca %"class.base::OnceCallback", align 8
  %5 = alloca %"class.base::OnceCallback", align 8
  %6 = alloca %"class.base::OnceCallback", align 8
  %7 = alloca %"class.base::OnceCallback", align 8
  %8 = alloca %"class.base::OnceCallback", align 8
  %9 = alloca %"class.std::__1::allocator.16", align 1
  %10 = alloca %"class.base::OnceCallback", align 8
  %11 = alloca %"class.std::__1::basic_string", align 8
  %12 = alloca %"class.std::__1::basic_string", align 8
  %13 = alloca %class.GURL, align 8
  %14 = alloca %"struct.content::WebContents::CreateParams", align 8
  %15 = bitcast %"class.std::__1::basic_string"* %11 to i8*
  call void @llvm.lifetime.start.p0i8(i64 24, i8* nonnull %15) #10
  %16 = getelementptr inbounds %"class.std::__1::basic_string", %"class.std::__1::basic_string"* %11, i64 0, i32 0, i32 0, i32 0, i32 0, i32 0, i32 0
  %17 = getelementptr inbounds %"class.std::__1::basic_string", %"class.std::__1::basic_string"* %11, i64 0, i32 0, i32 0, i32 0, i32 0, i32 0, i32 1
  call void @llvm.memset.p0i8.i64(i8* nonnull align 8 %15, i8 0, i64 24, i1 false) #10
  %18 = tail call i64 @strlen(i8* nonnull getelementptr inbounds ([0 x i8], [0 x i8]* @_ZN16extensionoptions12kExtensionIdE, i64 0, i64 0)) #10
  %19 = call zeroext i1 @_ZNK4base15DictionaryValue9GetStringENS_16BasicStringPieceIcNSt3__111char_traitsIcEEEEPNS2_12basic_stringIcS4_NS2_9allocatorIcEEEE(%"class.base::DictionaryValue"* %1, i8* getelementptr inbounds ([0 x i8], [0 x i8]* @_ZN16extensionoptions12kExtensionIdE, i64 0, i64 0), i64 %18, %"class.std::__1::basic_string"* nonnull %11) #10
  %20 = call zeroext i1 @_ZN8crx_file7id_util9IdIsValidERKNSt3__112basic_stringIcNS1_11char_traitsIcEENS1_9allocatorIcEEEE(%"class.std::__1::basic_string"* nonnull dereferenceable(24) %11) #10
  br i1 %20, label %32, label %21

21:                                               ; preds = %3
  %22 = bitcast %"class.base::OnceCallback"* %10 to i8*
  call void @llvm.lifetime.start.p0i8(i64 8, i8* nonnull %22) #10
  %23 = getelementptr inbounds %"class.base::OnceCallback", %"class.base::OnceCallback"* %2, i64 0, i32 0, i32 0, i32 0
  %24 = bitcast %"class.base::OnceCallback"* %2 to i64*
  %25 = load i64, i64* %24, align 8
  %26 = bitcast %"class.base::OnceCallback"* %10 to i64*
  store i64 %25, i64* %26, align 8
  store %"class.base::internal::BindStateBase"* null, %"class.base::internal::BindStateBase"** %23, align 8
  %27 = getelementptr inbounds %"class.base::OnceCallback", %"class.base::OnceCallback"* %10, i64 0, i32 0
  %28 = inttoptr i64 %25 to %"class.base::internal::BindStateBase"*
  %29 = getelementptr inbounds %"class.base::internal::BindStateBase", %"class.base::internal::BindStateBase"* %28, i64 0, i32 1
  %30 = bitcast void ()** %29 to void (%"class.base::internal::BindStateBase"*, %"class.content::WebContents"*)**
  %31 = load void (%"class.base::internal::BindStateBase"*, %"class.content::WebContents"*)*, void (%"class.base::internal::BindStateBase"*, %"class.content::WebContents"*)** %30, align 8
  call void %31(%"class.base::internal::BindStateBase"* %28, %"class.content::WebContents"* null) #10
  call void @_ZN4base8internal12CallbackBaseD2Ev(%"class.base::internal::CallbackBase"* nonnull %27) #10
  call void @llvm.lifetime.end.p0i8(i64 8, i8* nonnull %22) #10
  br label %186

32:                                               ; preds = %3
  %33 = bitcast %"class.std::__1::basic_string"* %12 to i8*
  call void @llvm.lifetime.start.p0i8(i64 24, i8* nonnull %33) #10
  %34 = getelementptr inbounds %"class.std::__1::basic_string", %"class.std::__1::basic_string"* %12, i64 0, i32 0, i32 0, i32 0, i32 0, i32 0, i32 0
  %35 = getelementptr inbounds %"class.std::__1::basic_string", %"class.std::__1::basic_string"* %12, i64 0, i32 0, i32 0, i32 0, i32 0, i32 0, i32 1
  %36 = getelementptr inbounds %"class.extensions::ExtensionOptionsGuest", %"class.extensions::ExtensionOptionsGuest"* %0, i64 0, i32 0, i32 0
  %37 = bitcast %"class.std::__1::basic_string"* %12 to i8*
  call void @llvm.memset.p0i8.i64(i8* nonnull align 8 %37, i8 -86, i64 24, i1 false)
  %38 = call dereferenceable(120) %class.GURL* @_ZNK10guest_view13GuestViewBase15GetOwnerSiteURLEv(%"class.guest_view::GuestViewBase"* %36) #10
  %39 = getelementptr inbounds %class.GURL, %class.GURL* %38, i64 0, i32 2, i32 3, i32 1
  %40 = load i32, i32* %39, align 4, !noalias !2
  %41 = icmp slt i32 %40, 1
  br i1 %41, label %42, label %43

42:                                               ; preds = %32
  call void @llvm.memset.p0i8.i64(i8* nonnull align 8 %33, i8 0, i64 24, i1 false) #10, !alias.scope !2
  br label %50

43:                                               ; preds = %32
  %44 = getelementptr inbounds %class.GURL, %class.GURL* %38, i64 0, i32 0
  %45 = getelementptr inbounds %class.GURL, %class.GURL* %38, i64 0, i32 2, i32 3, i32 0
  %46 = load i32, i32* %45, align 4, !noalias !2
  %47 = sext i32 %46 to i64
  %48 = sext i32 %40 to i64
  %49 = getelementptr inbounds %"class.std::__1::allocator.16", %"class.std::__1::allocator.16"* %9, i64 0, i32 0
  call void @llvm.lifetime.start.p0i8(i64 1, i8* nonnull %49) #10, !noalias !2
  call void @_ZNSt3__112basic_stringIcNS_11char_traitsIcEENS_9allocatorIcEEEC1ERKS5_mmRKS4_(%"class.std::__1::basic_string"* nonnull %12, %"class.std::__1::basic_string"* dereferenceable(24) %44, i64 %47, i64 %48, %"class.std::__1::allocator.16"* nonnull dereferenceable(1) %9) #10
  call void @llvm.lifetime.end.p0i8(i64 1, i8* nonnull %49) #10, !noalias !2
  br label %50

50:                                               ; preds = %42, %43
  %51 = call zeroext i1 @_ZN8crx_file7id_util9IdIsValidERKNSt3__112basic_stringIcNS1_11char_traitsIcEENS1_9allocatorIcEEEE(%"class.std::__1::basic_string"* nonnull dereferenceable(24) %12) #10
  br i1 %51, label %52, label %107

52:                                               ; preds = %50
  %53 = bitcast %"class.std::__1::basic_string"* %11 to %"struct.std::__1::basic_string<char, std::__1::char_traits<char>, std::__1::allocator<char> >::__short"*
  %54 = getelementptr inbounds %"struct.std::__1::basic_string<char, std::__1::char_traits<char>, std::__1::allocator<char> >::__short", %"struct.std::__1::basic_string<char, std::__1::char_traits<char>, std::__1::allocator<char> >::__short"* %53, i64 0, i32 1, i32 0
  %55 = load i8, i8* %54, align 1
  %56 = icmp slt i8 %55, 0
  %57 = load i64, i64* %17, align 8
  %58 = zext i8 %55 to i64
  %59 = select i1 %56, i64 %57, i64 %58
  %60 = bitcast %"class.std::__1::basic_string"* %12 to %"struct.std::__1::basic_string<char, std::__1::char_traits<char>, std::__1::allocator<char> >::__short"*
  %61 = getelementptr inbounds %"struct.std::__1::basic_string<char, std::__1::char_traits<char>, std::__1::allocator<char> >::__short", %"struct.std::__1::basic_string<char, std::__1::char_traits<char>, std::__1::allocator<char> >::__short"* %60, i64 0, i32 1, i32 0
  %62 = load i8, i8* %61, align 1
  %63 = icmp slt i8 %62, 0
  %64 = load i64, i64* %35, align 8
  %65 = zext i8 %62 to i64
  %66 = select i1 %63, i64 %64, i64 %65
  %67 = icmp eq i64 %59, %66
  br i1 %67, label %68, label %96

68:                                               ; preds = %52
  %69 = load i8*, i8** %16, align 8
  %70 = select i1 %56, i8* %69, i8* %15
  %71 = load i8*, i8** %34, align 8
  %72 = select i1 %63, i8* %71, i8* %33
  %73 = icmp eq i64 %59, 0
  br i1 %56, label %80, label %74

74:                                               ; preds = %68
  br i1 %73, label %107, label %75

75:                                               ; preds = %74
  %76 = ptrtoint i8* %69 to i64
  %77 = trunc i64 %76 to i8
  %78 = load i8, i8* %72, align 1
  %79 = icmp eq i8 %78, %77
  br i1 %79, label %81, label %96

80:                                               ; preds = %68
  br i1 %73, label %107, label %93

81:                                               ; preds = %75, %88
  %82 = phi i64 [ %85, %88 ], [ %58, %75 ]
  %83 = phi i8* [ %86, %88 ], [ %15, %75 ]
  %84 = phi i8* [ %89, %88 ], [ %72, %75 ]
  %85 = add i64 %82, -1
  %86 = getelementptr inbounds i8, i8* %83, i64 1
  %87 = icmp eq i64 %85, 0
  br i1 %87, label %107, label %88

88:                                               ; preds = %81
  %89 = getelementptr inbounds i8, i8* %84, i64 1
  %90 = load i8, i8* %86, align 1
  %91 = load i8, i8* %89, align 1
  %92 = icmp eq i8 %90, %91
  br i1 %92, label %81, label %96

93:                                               ; preds = %80
  %94 = call i32 @bcmp(i8* %70, i8* %72, i64 %59) #10
  %95 = icmp eq i32 %94, 0
  br i1 %95, label %107, label %96

96:                                               ; preds = %88, %75, %93, %52
  %97 = bitcast %"class.base::OnceCallback"* %8 to i8*
  call void @llvm.lifetime.start.p0i8(i64 8, i8* nonnull %97) #10
  %98 = getelementptr inbounds %"class.base::OnceCallback", %"class.base::OnceCallback"* %2, i64 0, i32 0, i32 0, i32 0
  %99 = bitcast %"class.base::OnceCallback"* %2 to i64*
  %100 = load i64, i64* %99, align 8
  %101 = bitcast %"class.base::OnceCallback"* %8 to i64*
  store i64 %100, i64* %101, align 8
  store %"class.base::internal::BindStateBase"* null, %"class.base::internal::BindStateBase"** %98, align 8
  %102 = getelementptr inbounds %"class.base::OnceCallback", %"class.base::OnceCallback"* %8, i64 0, i32 0
  %103 = inttoptr i64 %100 to %"class.base::internal::BindStateBase"*
  %104 = getelementptr inbounds %"class.base::internal::BindStateBase", %"class.base::internal::BindStateBase"* %103, i64 0, i32 1
  %105 = bitcast void ()** %104 to void (%"class.base::internal::BindStateBase"*, %"class.content::WebContents"*)**
  %106 = load void (%"class.base::internal::BindStateBase"*, %"class.content::WebContents"*)*, void (%"class.base::internal::BindStateBase"*, %"class.content::WebContents"*)** %105, align 8
  call void %106(%"class.base::internal::BindStateBase"* %103, %"class.content::WebContents"* null) #10
  call void @_ZN4base8internal12CallbackBaseD2Ev(%"class.base::internal::CallbackBase"* nonnull %102) #10
  call void @llvm.lifetime.end.p0i8(i64 8, i8* nonnull %97) #10
  br label %178

107:                                              ; preds = %81, %93, %74, %80, %50
  %108 = bitcast %class.GURL* %13 to i8*
  call void @llvm.lifetime.start.p0i8(i64 120, i8* nonnull %108) #10
  call void @llvm.memset.p0i8.i64(i8* nonnull align 8 %108, i8 -86, i64 120, i1 false)
  call void @_ZN10extensions9Extension25GetBaseURLFromExtensionIdERKNSt3__112basic_stringIcNS1_11char_traitsIcEENS1_9allocatorIcEEEE(%class.GURL* nonnull sret %13, %"class.std::__1::basic_string"* nonnull dereferenceable(24) %11) #10
  %109 = getelementptr inbounds %class.GURL, %class.GURL* %13, i64 0, i32 1
  %110 = load i8, i8* %109, align 8, !range !7
  %111 = icmp eq i8 %110, 0
  br i1 %111, label %112, label %123

112:                                              ; preds = %107
  %113 = bitcast %"class.base::OnceCallback"* %7 to i8*
  call void @llvm.lifetime.start.p0i8(i64 8, i8* nonnull %113) #10
  %114 = getelementptr inbounds %"class.base::OnceCallback", %"class.base::OnceCallback"* %2, i64 0, i32 0, i32 0, i32 0
  %115 = bitcast %"class.base::OnceCallback"* %2 to i64*
  %116 = load i64, i64* %115, align 8
  %117 = bitcast %"class.base::OnceCallback"* %7 to i64*
  store i64 %116, i64* %117, align 8
  store %"class.base::internal::BindStateBase"* null, %"class.base::internal::BindStateBase"** %114, align 8
  %118 = getelementptr inbounds %"class.base::OnceCallback", %"class.base::OnceCallback"* %7, i64 0, i32 0
  %119 = inttoptr i64 %116 to %"class.base::internal::BindStateBase"*
  %120 = getelementptr inbounds %"class.base::internal::BindStateBase", %"class.base::internal::BindStateBase"* %119, i64 0, i32 1
  %121 = bitcast void ()** %120 to void (%"class.base::internal::BindStateBase"*, %"class.content::WebContents"*)**
  %122 = load void (%"class.base::internal::BindStateBase"*, %"class.content::WebContents"*)*, void (%"class.base::internal::BindStateBase"*, %"class.content::WebContents"*)** %121, align 8
  call void %122(%"class.base::internal::BindStateBase"* %119, %"class.content::WebContents"* null) #10
  call void @_ZN4base8internal12CallbackBaseD2Ev(%"class.base::internal::CallbackBase"* nonnull %118) #10
  call void @llvm.lifetime.end.p0i8(i64 8, i8* nonnull %113) #10
  br label %176

123:                                              ; preds = %107
  %124 = getelementptr inbounds %"class.extensions::ExtensionOptionsGuest", %"class.extensions::ExtensionOptionsGuest"* %0, i64 0, i32 0, i32 0, i32 6
  %125 = load %"class.content::BrowserContext"*, %"class.content::BrowserContext"** %124, align 8
  %126 = call %"class.extensions::ExtensionRegistry"* @_ZN10extensions17ExtensionRegistry3GetEPN7content14BrowserContextE(%"class.content::BrowserContext"* %125) #10
  %127 = getelementptr inbounds %"class.extensions::ExtensionRegistry", %"class.extensions::ExtensionRegistry"* %126, i64 0, i32 1
  %128 = call %"class.extensions::Extension"* @_ZNK10extensions12ExtensionSet7GetByIDERKNSt3__112basic_stringIcNS1_11char_traitsIcEENS1_9allocatorIcEEEE(%"class.extensions::ExtensionSet"* %127, %"class.std::__1::basic_string"* nonnull dereferenceable(24) %11) #10
  %129 = icmp eq %"class.extensions::Extension"* %128, null
  br i1 %129, label %130, label %141

130:                                              ; preds = %123
  %131 = bitcast %"class.base::OnceCallback"* %5 to i8*
  call void @llvm.lifetime.start.p0i8(i64 8, i8* nonnull %131) #10
  %132 = getelementptr inbounds %"class.base::OnceCallback", %"class.base::OnceCallback"* %2, i64 0, i32 0, i32 0, i32 0
  %133 = bitcast %"class.base::OnceCallback"* %2 to i64*
  %134 = load i64, i64* %133, align 8
  %135 = bitcast %"class.base::OnceCallback"* %5 to i64*
  store i64 %134, i64* %135, align 8
  store %"class.base::internal::BindStateBase"* null, %"class.base::internal::BindStateBase"** %132, align 8
  %136 = getelementptr inbounds %"class.base::OnceCallback", %"class.base::OnceCallback"* %5, i64 0, i32 0
  %137 = inttoptr i64 %134 to %"class.base::internal::BindStateBase"*
  %138 = getelementptr inbounds %"class.base::internal::BindStateBase", %"class.base::internal::BindStateBase"* %137, i64 0, i32 1
  %139 = bitcast void ()** %138 to void (%"class.base::internal::BindStateBase"*, %"class.content::WebContents"*)**
  %140 = load void (%"class.base::internal::BindStateBase"*, %"class.content::WebContents"*)*, void (%"class.base::internal::BindStateBase"*, %"class.content::WebContents"*)** %139, align 8
  call void %140(%"class.base::internal::BindStateBase"* %137, %"class.content::WebContents"* null) #10
  call void @_ZN4base8internal12CallbackBaseD2Ev(%"class.base::internal::CallbackBase"* nonnull %136) #10
  call void @llvm.lifetime.end.p0i8(i64 8, i8* nonnull %131) #10
  br label %176

141:                                              ; preds = %123
  %142 = call dereferenceable(120) %class.GURL* @_ZN10extensions15OptionsPageInfo14GetOptionsPageEPKNS_9ExtensionE(%"class.extensions::Extension"* nonnull %128) #10
  %143 = getelementptr inbounds %"class.extensions::ExtensionOptionsGuest", %"class.extensions::ExtensionOptionsGuest"* %0, i64 0, i32 2
  %144 = call dereferenceable(120) %class.GURL* @_ZN4GURLaSERKS_(%class.GURL* %143, %class.GURL* dereferenceable(120) %142) #10
  %145 = getelementptr inbounds %"class.extensions::ExtensionOptionsGuest", %"class.extensions::ExtensionOptionsGuest"* %0, i64 0, i32 2, i32 1
  %146 = load i8, i8* %145, align 8, !range !7
  %147 = icmp eq i8 %146, 0
  br i1 %147, label %148, label %159

148:                                              ; preds = %141
  %149 = bitcast %"class.base::OnceCallback"* %4 to i8*
  call void @llvm.lifetime.start.p0i8(i64 8, i8* nonnull %149) #10
  %150 = getelementptr inbounds %"class.base::OnceCallback", %"class.base::OnceCallback"* %2, i64 0, i32 0, i32 0, i32 0
  %151 = bitcast %"class.base::OnceCallback"* %2 to i64*
  %152 = load i64, i64* %151, align 8
  %153 = bitcast %"class.base::OnceCallback"* %4 to i64*
  store i64 %152, i64* %153, align 8
  store %"class.base::internal::BindStateBase"* null, %"class.base::internal::BindStateBase"** %150, align 8
  %154 = getelementptr inbounds %"class.base::OnceCallback", %"class.base::OnceCallback"* %4, i64 0, i32 0
  %155 = inttoptr i64 %152 to %"class.base::internal::BindStateBase"*
  %156 = getelementptr inbounds %"class.base::internal::BindStateBase", %"class.base::internal::BindStateBase"* %155, i64 0, i32 1
  %157 = bitcast void ()** %156 to void (%"class.base::internal::BindStateBase"*, %"class.content::WebContents"*)**
  %158 = load void (%"class.base::internal::BindStateBase"*, %"class.content::WebContents"*)*, void (%"class.base::internal::BindStateBase"*, %"class.content::WebContents"*)** %157, align 8
  call void %158(%"class.base::internal::BindStateBase"* %155, %"class.content::WebContents"* null) #10
  call void @_ZN4base8internal12CallbackBaseD2Ev(%"class.base::internal::CallbackBase"* nonnull %154) #10
  call void @llvm.lifetime.end.p0i8(i64 8, i8* nonnull %149) #10
  br label %176

159:                                              ; preds = %141
  %160 = bitcast %"struct.content::WebContents::CreateParams"* %14 to i8*
  call void @llvm.lifetime.start.p0i8(i64 232, i8* nonnull %160) #10
  call void @llvm.memset.p0i8.i64(i8* nonnull align 8 %160, i8 -86, i64 232, i1 false)
  %161 = load %"class.content::BrowserContext"*, %"class.content::BrowserContext"** %124, align 8
  %162 = call %"class.content::SiteInstance"* @_ZN7content12SiteInstance12CreateForURLEPNS_14BrowserContextERK4GURL(%"class.content::BrowserContext"* %161, %class.GURL* nonnull dereferenceable(120) %13) #10
  call void @_ZN7content11WebContents12CreateParamsC1EPNS_14BrowserContextE13scoped_refptrINS_12SiteInstanceEE(%"struct.content::WebContents::CreateParams"* nonnull %14, %"class.content::BrowserContext"* %161, %"class.content::SiteInstance"* %162) #10
  %163 = getelementptr inbounds %"class.extensions::ExtensionOptionsGuest", %"class.extensions::ExtensionOptionsGuest"* %0, i64 0, i32 0, i32 0, i32 0
  %164 = getelementptr inbounds %"struct.content::WebContents::CreateParams", %"struct.content::WebContents::CreateParams"* %14, i64 0, i32 11
  store %"class.content::BrowserPluginGuestDelegate"* %163, %"class.content::BrowserPluginGuestDelegate"** %164, align 8
  %165 = call %"class.content::WebContents"* @_ZN7content11WebContents6CreateERKNS0_12CreateParamsE(%"struct.content::WebContents::CreateParams"* nonnull dereferenceable(232) %14) #10
  %166 = bitcast %"class.base::OnceCallback"* %6 to i8*
  call void @llvm.lifetime.start.p0i8(i64 8, i8* nonnull %166) #10
  %167 = getelementptr inbounds %"class.base::OnceCallback", %"class.base::OnceCallback"* %2, i64 0, i32 0, i32 0, i32 0
  %168 = bitcast %"class.base::OnceCallback"* %2 to i64*
  %169 = load i64, i64* %168, align 8
  %170 = bitcast %"class.base::OnceCallback"* %6 to i64*
  store i64 %169, i64* %170, align 8
  store %"class.base::internal::BindStateBase"* null, %"class.base::internal::BindStateBase"** %167, align 8
  %171 = getelementptr inbounds %"class.base::OnceCallback", %"class.base::OnceCallback"* %6, i64 0, i32 0
  %172 = inttoptr i64 %169 to %"class.base::internal::BindStateBase"*
  %173 = getelementptr inbounds %"class.base::internal::BindStateBase", %"class.base::internal::BindStateBase"* %172, i64 0, i32 1
  %174 = bitcast void ()** %173 to void (%"class.base::internal::BindStateBase"*, %"class.content::WebContents"*)**
  %175 = load void (%"class.base::internal::BindStateBase"*, %"class.content::WebContents"*)*, void (%"class.base::internal::BindStateBase"*, %"class.content::WebContents"*)** %174, align 8
  call void %175(%"class.base::internal::BindStateBase"* %172, %"class.content::WebContents"* %165) #10
  call void @_ZN4base8internal12CallbackBaseD2Ev(%"class.base::internal::CallbackBase"* nonnull %171) #10
  call void @llvm.lifetime.end.p0i8(i64 8, i8* nonnull %166) #10
  call void @_ZN7content11WebContents12CreateParamsD1Ev(%"struct.content::WebContents::CreateParams"* nonnull %14) #10
  call void @llvm.lifetime.end.p0i8(i64 232, i8* nonnull %160) #10
  br label %176

176:                                              ; preds = %130, %148, %159, %112
  call void @_ZN4GURLD1Ev(%class.GURL* nonnull %13) #10
  call void @llvm.lifetime.end.p0i8(i64 120, i8* nonnull %108) #10
  %177 = bitcast %"class.std::__1::basic_string"* %12 to %"struct.std::__1::basic_string<char, std::__1::char_traits<char>, std::__1::allocator<char> >::__short"*
  br label %178

178:                                              ; preds = %176, %96
  %179 = phi %"struct.std::__1::basic_string<char, std::__1::char_traits<char>, std::__1::allocator<char> >::__short"* [ %177, %176 ], [ %60, %96 ]
  %180 = getelementptr inbounds %"struct.std::__1::basic_string<char, std::__1::char_traits<char>, std::__1::allocator<char> >::__short", %"struct.std::__1::basic_string<char, std::__1::char_traits<char>, std::__1::allocator<char> >::__short"* %179, i64 0, i32 1, i32 0
  %181 = load i8, i8* %180, align 1
  %182 = icmp slt i8 %181, 0
  br i1 %182, label %183, label %185

183:                                              ; preds = %178
  %184 = load i8*, i8** %34, align 8
  call void @_ZdlPv(i8* %184) #11
  br label %185

185:                                              ; preds = %178, %183
  call void @llvm.lifetime.end.p0i8(i64 24, i8* nonnull %33) #10
  br label %186

186:                                              ; preds = %185, %21
  %187 = bitcast %"class.std::__1::basic_string"* %11 to %"struct.std::__1::basic_string<char, std::__1::char_traits<char>, std::__1::allocator<char> >::__short"*
  %188 = getelementptr inbounds %"struct.std::__1::basic_string<char, std::__1::char_traits<char>, std::__1::allocator<char> >::__short", %"struct.std::__1::basic_string<char, std::__1::char_traits<char>, std::__1::allocator<char> >::__short"* %187, i64 0, i32 1, i32 0
  %189 = load i8, i8* %188, align 1
  %190 = icmp slt i8 %189, 0
  br i1 %190, label %191, label %193

191:                                              ; preds = %186
  %192 = load i8*, i8** %16, align 8
  call void @_ZdlPv(i8* %192) #11
  br label %193

193:                                              ; preds = %186, %191
  call void @llvm.lifetime.end.p0i8(i64 24, i8* nonnull %15) #10
  ret void
}

; Function Attrs: argmemonly nounwind
declare void @llvm.lifetime.start.p0i8(i64 immarg, i8* nocapture) #5

declare zeroext i1 @_ZNK4base15DictionaryValue9GetStringENS_16BasicStringPieceIcNSt3__111char_traitsIcEEEEPNS2_12basic_stringIcS4_NS2_9allocatorIcEEEE(%"class.base::DictionaryValue"*, i8*, i64, %"class.std::__1::basic_string"*) local_unnamed_addr #1

declare zeroext i1 @_ZN8crx_file7id_util9IdIsValidERKNSt3__112basic_stringIcNS1_11char_traitsIcEENS1_9allocatorIcEEEE(%"class.std::__1::basic_string"* dereferenceable(24)) local_unnamed_addr #1

declare dereferenceable(120) %class.GURL* @_ZNK10guest_view13GuestViewBase15GetOwnerSiteURLEv(%"class.guest_view::GuestViewBase"*) local_unnamed_addr #1

; Function Attrs: argmemonly nounwind
declare void @llvm.memset.p0i8.i64(i8* nocapture writeonly, i8, i64, i1 immarg) #5

declare void @_ZN10extensions9Extension25GetBaseURLFromExtensionIdERKNSt3__112basic_stringIcNS1_11char_traitsIcEENS1_9allocatorIcEEEE(%class.GURL* sret, %"class.std::__1::basic_string"* dereferenceable(24)) local_unnamed_addr #1

declare %"class.extensions::ExtensionRegistry"* @_ZN10extensions17ExtensionRegistry3GetEPN7content14BrowserContextE(%"class.content::BrowserContext"*) local_unnamed_addr #1

declare %"class.extensions::Extension"* @_ZNK10extensions12ExtensionSet7GetByIDERKNSt3__112basic_stringIcNS1_11char_traitsIcEENS1_9allocatorIcEEEE(%"class.extensions::ExtensionSet"*, %"class.std::__1::basic_string"* dereferenceable(24)) local_unnamed_addr #1

declare dereferenceable(120) %class.GURL* @_ZN10extensions15OptionsPageInfo14GetOptionsPageEPKNS_9ExtensionE(%"class.extensions::Extension"*) local_unnamed_addr #1

declare dereferenceable(120) %class.GURL* @_ZN4GURLaSERKS_(%class.GURL*, %class.GURL* dereferenceable(120)) local_unnamed_addr #1

declare %"class.content::SiteInstance"* @_ZN7content12SiteInstance12CreateForURLEPNS_14BrowserContextERK4GURL(%"class.content::BrowserContext"*, %class.GURL* dereferenceable(120)) local_unnamed_addr #1

declare void @_ZN7content11WebContents12CreateParamsC1EPNS_14BrowserContextE13scoped_refptrINS_12SiteInstanceEE(%"struct.content::WebContents::CreateParams"*, %"class.content::BrowserContext"*, %"class.content::SiteInstance"*) unnamed_addr #1

declare %"class.content::WebContents"* @_ZN7content11WebContents6CreateERKNS0_12CreateParamsE(%"struct.content::WebContents::CreateParams"* dereferenceable(232)) local_unnamed_addr #1

; Function Attrs: argmemonly nounwind
declare void @llvm.lifetime.end.p0i8(i64 immarg, i8* nocapture) #5

; Function Attrs: nounwind
declare void @_ZN7content11WebContents12CreateParamsD1Ev(%"struct.content::WebContents::CreateParams"*) unnamed_addr #2

; Function Attrs: nounwind ssp uwtable
define hidden void @_ZN10extensions21ExtensionOptionsGuest13DidInitializeERKN4base15DictionaryValueE(%"class.extensions::ExtensionOptionsGuest"*, %"class.base::DictionaryValue"* nocapture readnone dereferenceable(32)) unnamed_addr #0 align 2 {
  %3 = alloca %"class.base::WeakPtr.215", align 8
  %4 = alloca %"struct.content::Referrer", align 8
  %5 = alloca %"class.std::__1::basic_string", align 8
  %6 = tail call %"class.extensions::ExtensionsAPIClient"* @_ZN10extensions19ExtensionsAPIClient3GetEv() #10
  %7 = getelementptr inbounds %"class.extensions::ExtensionOptionsGuest", %"class.extensions::ExtensionOptionsGuest"* %0, i64 0, i32 0, i32 0, i32 2
  %8 = tail call %"class.content::WebContents"* @_ZNK7content19WebContentsObserver12web_contentsEv(%"class.content::WebContentsObserver"* %7) #10
  %9 = bitcast %"class.extensions::ExtensionsAPIClient"* %6 to void (%"class.extensions::ExtensionsAPIClient"*, %"class.content::WebContents"*)***
  %10 = load void (%"class.extensions::ExtensionsAPIClient"*, %"class.content::WebContents"*)**, void (%"class.extensions::ExtensionsAPIClient"*, %"class.content::WebContents"*)*** %9, align 8
  %11 = getelementptr inbounds void (%"class.extensions::ExtensionsAPIClient"*, %"class.content::WebContents"*)*, void (%"class.extensions::ExtensionsAPIClient"*, %"class.content::WebContents"*)** %10, i64 3
  %12 = load void (%"class.extensions::ExtensionsAPIClient"*, %"class.content::WebContents"*)*, void (%"class.extensions::ExtensionsAPIClient"*, %"class.content::WebContents"*)** %11, align 8
  tail call void %12(%"class.extensions::ExtensionsAPIClient"* %6, %"class.content::WebContents"* %8) #10
  %13 = tail call %"class.content::WebContents"* @_ZNK7content19WebContentsObserver12web_contentsEv(%"class.content::WebContentsObserver"* %7) #10
  %14 = bitcast %"class.content::WebContents"* %13 to %"class.content::NavigationController"* (%"class.content::WebContents"*)***
  %15 = load %"class.content::NavigationController"* (%"class.content::WebContents"*)**, %"class.content::NavigationController"* (%"class.content::WebContents"*)*** %14, align 8
  %16 = getelementptr inbounds %"class.content::NavigationController"* (%"class.content::WebContents"*)*, %"class.content::NavigationController"* (%"class.content::WebContents"*)** %15, i64 5
  %17 = load %"class.content::NavigationController"* (%"class.content::WebContents"*)*, %"class.content::NavigationController"* (%"class.content::WebContents"*)** %16, align 8
  %18 = tail call dereferenceable(8) %"class.content::NavigationController"* %17(%"class.content::WebContents"* %13) #10
  %19 = getelementptr inbounds %"class.extensions::ExtensionOptionsGuest", %"class.extensions::ExtensionOptionsGuest"* %0, i64 0, i32 2
  %20 = bitcast %"struct.content::Referrer"* %4 to i8*
  call void @llvm.lifetime.start.p0i8(i64 128, i8* nonnull %20) #10
  %21 = getelementptr inbounds %"struct.content::Referrer", %"struct.content::Referrer"* %4, i64 0, i32 0
  call void @_ZN4GURLC1Ev(%class.GURL* nonnull %21) #10
  %22 = getelementptr inbounds %"struct.content::Referrer", %"struct.content::Referrer"* %4, i64 0, i32 1
  store i32 1, i32* %22, align 8
  %23 = bitcast %"class.std::__1::basic_string"* %5 to i8*
  call void @llvm.lifetime.start.p0i8(i64 24, i8* nonnull %23) #10
  call void @llvm.memset.p0i8.i64(i8* nonnull align 8 %23, i8 0, i64 24, i1 false) #10
  %24 = bitcast %"class.content::NavigationController"* %18 to void (%"class.base::WeakPtr.215"*, %"class.content::NavigationController"*, %class.GURL*, %"struct.content::Referrer"*, i32, %"class.std::__1::basic_string"*)***
  %25 = load void (%"class.base::WeakPtr.215"*, %"class.content::NavigationController"*, %class.GURL*, %"struct.content::Referrer"*, i32, %"class.std::__1::basic_string"*)**, void (%"class.base::WeakPtr.215"*, %"class.content::NavigationController"*, %class.GURL*, %"struct.content::Referrer"*, i32, %"class.std::__1::basic_string"*)*** %24, align 8
  %26 = getelementptr inbounds void (%"class.base::WeakPtr.215"*, %"class.content::NavigationController"*, %class.GURL*, %"struct.content::Referrer"*, i32, %"class.std::__1::basic_string"*)*, void (%"class.base::WeakPtr.215"*, %"class.content::NavigationController"*, %class.GURL*, %"struct.content::Referrer"*, i32, %"class.std::__1::basic_string"*)** %25, i64 17
  %27 = load void (%"class.base::WeakPtr.215"*, %"class.content::NavigationController"*, %class.GURL*, %"struct.content::Referrer"*, i32, %"class.std::__1::basic_string"*)*, void (%"class.base::WeakPtr.215"*, %"class.content::NavigationController"*, %class.GURL*, %"struct.content::Referrer"*, i32, %"class.std::__1::basic_string"*)** %26, align 8
  call void %27(%"class.base::WeakPtr.215"* nonnull sret %3, %"class.content::NavigationController"* %18, %class.GURL* dereferenceable(120) %19, %"struct.content::Referrer"* nonnull dereferenceable(128) %4, i32 0, %"class.std::__1::basic_string"* nonnull dereferenceable(24) %5) #10
  %28 = getelementptr inbounds %"class.base::WeakPtr.215", %"class.base::WeakPtr.215"* %3, i64 0, i32 0
  call void @_ZN4base8internal11WeakPtrBaseD2Ev(%"class.base::internal::WeakPtrBase"* nonnull %28) #10
  %29 = bitcast %"class.std::__1::basic_string"* %5 to %"struct.std::__1::basic_string<char, std::__1::char_traits<char>, std::__1::allocator<char> >::__short"*
  %30 = getelementptr inbounds %"struct.std::__1::basic_string<char, std::__1::char_traits<char>, std::__1::allocator<char> >::__short", %"struct.std::__1::basic_string<char, std::__1::char_traits<char>, std::__1::allocator<char> >::__short"* %29, i64 0, i32 1, i32 0
  %31 = load i8, i8* %30, align 1
  %32 = icmp slt i8 %31, 0
  br i1 %32, label %33, label %36

33:                                               ; preds = %2
  %34 = getelementptr inbounds %"class.std::__1::basic_string", %"class.std::__1::basic_string"* %5, i64 0, i32 0, i32 0, i32 0, i32 0, i32 0, i32 0
  %35 = load i8*, i8** %34, align 8
  call void @_ZdlPv(i8* %35) #11
  br label %36

36:                                               ; preds = %2, %33
  call void @llvm.lifetime.end.p0i8(i64 24, i8* nonnull %23) #10
  call void @_ZN4GURLD1Ev(%class.GURL* nonnull %21) #10
  call void @llvm.lifetime.end.p0i8(i64 128, i8* nonnull %20) #10
  ret void
}

declare %"class.content::WebContents"* @_ZNK7content19WebContentsObserver12web_contentsEv(%"class.content::WebContentsObserver"*) local_unnamed_addr #1

; Function Attrs: nounwind
declare void @_ZN4base8internal11WeakPtrBaseD2Ev(%"class.base::internal::WeakPtrBase"*) unnamed_addr #2

; Function Attrs: nounwind ssp uwtable
define hidden void @_ZN10extensions21ExtensionOptionsGuest23GuestViewDidStopLoadingEv(%"class.extensions::ExtensionOptionsGuest"*) unnamed_addr #0 align 2 {
  %2 = alloca %"class.std::__1::basic_string", align 8
  %3 = tail call i8* @_Znwm(i64 32) #11
  %4 = bitcast i8* %3 to %"class.base::DictionaryValue"*
  tail call void @_ZN4base15DictionaryValueC1Ev(%"class.base::DictionaryValue"* nonnull %4) #10
  %5 = getelementptr inbounds %"class.extensions::ExtensionOptionsGuest", %"class.extensions::ExtensionOptionsGuest"* %0, i64 0, i32 0, i32 0
  %6 = tail call i8* @_Znwm(i64 32) #11
  %7 = bitcast i8* %6 to %"class.guest_view::GuestViewEvent"*
  %8 = bitcast %"class.std::__1::basic_string"* %2 to i8*
  call void @llvm.lifetime.start.p0i8(i64 24, i8* nonnull %8) #10
  %9 = tail call i64 @strlen(i8* getelementptr inbounds ([0 x i8], [0 x i8]* @_ZN10extensions3api26extension_options_internal6OnLoad10kEventNameE, i64 0, i64 0)) #10
  %10 = icmp ugt i64 %9, -17
  br i1 %10, label %11, label %13

11:                                               ; preds = %1
  %12 = bitcast %"class.std::__1::basic_string"* %2 to %"class.std::__1::__basic_string_common"*
  call void @_ZNKSt3__121__basic_string_commonILb1EE20__throw_length_errorEv(%"class.std::__1::__basic_string_common"* nonnull %12) #12
  unreachable

13:                                               ; preds = %1
  %14 = icmp ult i64 %9, 23
  br i1 %14, label %24, label %15

15:                                               ; preds = %13
  %16 = add nuw i64 %9, 16
  %17 = and i64 %16, -16
  %18 = tail call i8* @_Znwm(i64 %17) #11
  %19 = getelementptr inbounds %"class.std::__1::basic_string", %"class.std::__1::basic_string"* %2, i64 0, i32 0, i32 0, i32 0, i32 0, i32 0, i32 0
  store i8* %18, i8** %19, align 8
  %20 = or i64 %17, -9223372036854775808
  %21 = getelementptr inbounds %"class.std::__1::basic_string", %"class.std::__1::basic_string"* %2, i64 0, i32 0, i32 0, i32 0, i32 0, i32 0, i32 2
  store i64 %20, i64* %21, align 8
  %22 = getelementptr inbounds %"class.std::__1::basic_string", %"class.std::__1::basic_string"* %2, i64 0, i32 0, i32 0, i32 0, i32 0, i32 0, i32 1
  store i64 %9, i64* %22, align 8
  %23 = bitcast %"class.std::__1::basic_string"* %2 to %"struct.std::__1::basic_string<char, std::__1::char_traits<char>, std::__1::allocator<char> >::__short"*
  br label %29

24:                                               ; preds = %13
  %25 = trunc i64 %9 to i8
  %26 = bitcast %"class.std::__1::basic_string"* %2 to %"struct.std::__1::basic_string<char, std::__1::char_traits<char>, std::__1::allocator<char> >::__short"*
  %27 = getelementptr inbounds %"struct.std::__1::basic_string<char, std::__1::char_traits<char>, std::__1::allocator<char> >::__short", %"struct.std::__1::basic_string<char, std::__1::char_traits<char>, std::__1::allocator<char> >::__short"* %26, i64 0, i32 1, i32 0
  store i8 %25, i8* %27, align 1
  %28 = icmp eq i64 %9, 0
  br i1 %28, label %32, label %29

29:                                               ; preds = %24, %15
  %30 = phi %"struct.std::__1::basic_string<char, std::__1::char_traits<char>, std::__1::allocator<char> >::__short"* [ %26, %24 ], [ %23, %15 ]
  %31 = phi i8* [ %8, %24 ], [ %18, %15 ]
  call void @llvm.memcpy.p0i8.p0i8.i64(i8* nonnull align 1 %31, i8* align 1 getelementptr inbounds ([0 x i8], [0 x i8]* @_ZN10extensions3api26extension_options_internal6OnLoad10kEventNameE, i64 0, i64 0), i64 %9, i1 false) #10
  br label %32

32:                                               ; preds = %29, %24
  %33 = phi %"struct.std::__1::basic_string<char, std::__1::char_traits<char>, std::__1::allocator<char> >::__short"* [ %26, %24 ], [ %30, %29 ]
  %34 = phi i8* [ %8, %24 ], [ %31, %29 ]
  %35 = getelementptr inbounds i8, i8* %34, i64 %9
  store i8 0, i8* %35, align 1
  call void @_ZN10guest_view14GuestViewEventC1ERKNSt3__112basic_stringIcNS1_11char_traitsIcEENS1_9allocatorIcEEEENS1_10unique_ptrIN4base15DictionaryValueENS1_14default_deleteISC_EEEE(%"class.guest_view::GuestViewEvent"* nonnull %7, %"class.std::__1::basic_string"* nonnull dereferenceable(24) %2, %"class.base::DictionaryValue"* nonnull %4) #10
  %36 = getelementptr inbounds %"struct.std::__1::basic_string<char, std::__1::char_traits<char>, std::__1::allocator<char> >::__short", %"struct.std::__1::basic_string<char, std::__1::char_traits<char>, std::__1::allocator<char> >::__short"* %33, i64 0, i32 1, i32 0
  %37 = load i8, i8* %36, align 1
  %38 = icmp slt i8 %37, 0
  br i1 %38, label %39, label %42

39:                                               ; preds = %32
  %40 = getelementptr inbounds %"class.std::__1::basic_string", %"class.std::__1::basic_string"* %2, i64 0, i32 0, i32 0, i32 0, i32 0, i32 0, i32 0
  %41 = load i8*, i8** %40, align 8
  call void @_ZdlPv(i8* %41) #11
  br label %42

42:                                               ; preds = %39, %32
  call void @llvm.lifetime.end.p0i8(i64 24, i8* nonnull %8) #10
  call void @_ZN10guest_view13GuestViewBase19DispatchEventToViewENSt3__110unique_ptrINS_14GuestViewEventENS1_14default_deleteIS3_EEEE(%"class.guest_view::GuestViewBase"* %5, %"class.guest_view::GuestViewEvent"* nonnull %7) #10
  ret void
}

declare void @_ZN4base15DictionaryValueC1Ev(%"class.base::DictionaryValue"*) unnamed_addr #1

declare void @_ZN10guest_view13GuestViewBase19DispatchEventToViewENSt3__110unique_ptrINS_14GuestViewEventENS1_14default_deleteIS3_EEEE(%"class.guest_view::GuestViewBase"*, %"class.guest_view::GuestViewEvent"*) local_unnamed_addr #1

; Function Attrs: norecurse nounwind readnone ssp uwtable
define hidden i8* @_ZNK10extensions21ExtensionOptionsGuest15GetAPINamespaceEv(%"class.extensions::ExtensionOptionsGuest"* nocapture readnone) unnamed_addr #6 align 2 {
  ret i8* getelementptr inbounds ([0 x i8], [0 x i8]* @_ZN16extensionoptions13kAPINamespaceE, i64 0, i64 0)
}

; Function Attrs: norecurse nounwind readnone ssp uwtable
define hidden i32 @_ZNK10extensions21ExtensionOptionsGuest13GetTaskPrefixEv(%"class.extensions::ExtensionOptionsGuest"* nocapture readnone) unnamed_addr #6 align 2 {
  ret i32 24368
}

; Function Attrs: norecurse nounwind readnone ssp uwtable
define hidden zeroext i1 @_ZNK10extensions21ExtensionOptionsGuest26IsPreferredSizeModeEnabledEv(%"class.extensions::ExtensionOptionsGuest"* nocapture readnone) unnamed_addr #6 align 2 {
  ret i1 true
}

; Function Attrs: nounwind ssp uwtable
define hidden void @_ZN10extensions21ExtensionOptionsGuest22OnPreferredSizeChangedERKN3gfx4SizeE(%"class.extensions::ExtensionOptionsGuest"*, %"class.gfx::Size"* nocapture readonly dereferenceable(8)) unnamed_addr #0 align 2 {
  %3 = alloca %"class.std::__1::basic_string", align 8
  %4 = alloca %"struct.extensions::api::extension_options_internal::PreferredSizeChangedOptions", align 8
  %5 = bitcast %"struct.extensions::api::extension_options_internal::PreferredSizeChangedOptions"* %4 to i8*
  call void @llvm.lifetime.start.p0i8(i64 16, i8* nonnull %5) #10
  %6 = getelementptr inbounds %"struct.extensions::api::extension_options_internal::PreferredSizeChangedOptions", %"struct.extensions::api::extension_options_internal::PreferredSizeChangedOptions"* %4, i64 0, i32 0
  %7 = getelementptr inbounds %"struct.extensions::api::extension_options_internal::PreferredSizeChangedOptions", %"struct.extensions::api::extension_options_internal::PreferredSizeChangedOptions"* %4, i64 0, i32 1
  %8 = bitcast %"struct.extensions::api::extension_options_internal::PreferredSizeChangedOptions"* %4 to i8*
  call void @llvm.memset.p0i8.i64(i8* nonnull align 8 %8, i8 -1, i64 16, i1 false)
  call void @_ZN10extensions3api26extension_options_internal27PreferredSizeChangedOptionsC1Ev(%"struct.extensions::api::extension_options_internal::PreferredSizeChangedOptions"* nonnull %4) #10
  %9 = getelementptr inbounds %"class.extensions::ExtensionOptionsGuest", %"class.extensions::ExtensionOptionsGuest"* %0, i64 0, i32 0, i32 0
  %10 = getelementptr inbounds %"class.gfx::Size", %"class.gfx::Size"* %1, i64 0, i32 0
  %11 = load i32, i32* %10, align 4
  %12 = call double @_ZNK10guest_view13GuestViewBase29PhysicalPixelsToLogicalPixelsEi(%"class.guest_view::GuestViewBase"* %9, i32 %11) #10
  store double %12, double* %6, align 8
  %13 = getelementptr inbounds %"class.gfx::Size", %"class.gfx::Size"* %1, i64 0, i32 1
  %14 = load i32, i32* %13, align 4
  %15 = call double @_ZNK10guest_view13GuestViewBase29PhysicalPixelsToLogicalPixelsEi(%"class.guest_view::GuestViewBase"* %9, i32 %14) #10
  store double %15, double* %7, align 8
  %16 = call %"class.base::DictionaryValue"* @_ZNK10extensions3api26extension_options_internal27PreferredSizeChangedOptions7ToValueEv(%"struct.extensions::api::extension_options_internal::PreferredSizeChangedOptions"* nonnull %4) #10
  %17 = call i8* @_Znwm(i64 32) #11
  %18 = bitcast i8* %17 to %"class.guest_view::GuestViewEvent"*
  %19 = bitcast %"class.std::__1::basic_string"* %3 to i8*
  call void @llvm.lifetime.start.p0i8(i64 24, i8* nonnull %19) #10
  %20 = call i64 @strlen(i8* getelementptr inbounds ([0 x i8], [0 x i8]* @_ZN10extensions3api26extension_options_internal22OnPreferredSizeChanged10kEventNameE, i64 0, i64 0)) #10
  %21 = icmp ugt i64 %20, -17
  br i1 %21, label %22, label %24

22:                                               ; preds = %2
  %23 = bitcast %"class.std::__1::basic_string"* %3 to %"class.std::__1::__basic_string_common"*
  call void @_ZNKSt3__121__basic_string_commonILb1EE20__throw_length_errorEv(%"class.std::__1::__basic_string_common"* nonnull %23) #12
  unreachable

24:                                               ; preds = %2
  %25 = icmp ult i64 %20, 23
  br i1 %25, label %35, label %26

26:                                               ; preds = %24
  %27 = add nuw i64 %20, 16
  %28 = and i64 %27, -16
  %29 = call i8* @_Znwm(i64 %28) #11
  %30 = getelementptr inbounds %"class.std::__1::basic_string", %"class.std::__1::basic_string"* %3, i64 0, i32 0, i32 0, i32 0, i32 0, i32 0, i32 0
  store i8* %29, i8** %30, align 8
  %31 = or i64 %28, -9223372036854775808
  %32 = getelementptr inbounds %"class.std::__1::basic_string", %"class.std::__1::basic_string"* %3, i64 0, i32 0, i32 0, i32 0, i32 0, i32 0, i32 2
  store i64 %31, i64* %32, align 8
  %33 = getelementptr inbounds %"class.std::__1::basic_string", %"class.std::__1::basic_string"* %3, i64 0, i32 0, i32 0, i32 0, i32 0, i32 0, i32 1
  store i64 %20, i64* %33, align 8
  %34 = bitcast %"class.std::__1::basic_string"* %3 to %"struct.std::__1::basic_string<char, std::__1::char_traits<char>, std::__1::allocator<char> >::__short"*
  br label %40

35:                                               ; preds = %24
  %36 = trunc i64 %20 to i8
  %37 = bitcast %"class.std::__1::basic_string"* %3 to %"struct.std::__1::basic_string<char, std::__1::char_traits<char>, std::__1::allocator<char> >::__short"*
  %38 = getelementptr inbounds %"struct.std::__1::basic_string<char, std::__1::char_traits<char>, std::__1::allocator<char> >::__short", %"struct.std::__1::basic_string<char, std::__1::char_traits<char>, std::__1::allocator<char> >::__short"* %37, i64 0, i32 1, i32 0
  store i8 %36, i8* %38, align 1
  %39 = icmp eq i64 %20, 0
  br i1 %39, label %43, label %40

40:                                               ; preds = %35, %26
  %41 = phi %"struct.std::__1::basic_string<char, std::__1::char_traits<char>, std::__1::allocator<char> >::__short"* [ %37, %35 ], [ %34, %26 ]
  %42 = phi i8* [ %19, %35 ], [ %29, %26 ]
  call void @llvm.memcpy.p0i8.p0i8.i64(i8* nonnull align 1 %42, i8* align 1 getelementptr inbounds ([0 x i8], [0 x i8]* @_ZN10extensions3api26extension_options_internal22OnPreferredSizeChanged10kEventNameE, i64 0, i64 0), i64 %20, i1 false) #10
  br label %43

43:                                               ; preds = %40, %35
  %44 = phi %"struct.std::__1::basic_string<char, std::__1::char_traits<char>, std::__1::allocator<char> >::__short"* [ %37, %35 ], [ %41, %40 ]
  %45 = phi i8* [ %19, %35 ], [ %42, %40 ]
  %46 = getelementptr inbounds i8, i8* %45, i64 %20
  store i8 0, i8* %46, align 1
  call void @_ZN10guest_view14GuestViewEventC1ERKNSt3__112basic_stringIcNS1_11char_traitsIcEENS1_9allocatorIcEEEENS1_10unique_ptrIN4base15DictionaryValueENS1_14default_deleteISC_EEEE(%"class.guest_view::GuestViewEvent"* nonnull %18, %"class.std::__1::basic_string"* nonnull dereferenceable(24) %3, %"class.base::DictionaryValue"* %16) #10
  %47 = getelementptr inbounds %"struct.std::__1::basic_string<char, std::__1::char_traits<char>, std::__1::allocator<char> >::__short", %"struct.std::__1::basic_string<char, std::__1::char_traits<char>, std::__1::allocator<char> >::__short"* %44, i64 0, i32 1, i32 0
  %48 = load i8, i8* %47, align 1
  %49 = icmp slt i8 %48, 0
  br i1 %49, label %50, label %53

50:                                               ; preds = %43
  %51 = getelementptr inbounds %"class.std::__1::basic_string", %"class.std::__1::basic_string"* %3, i64 0, i32 0, i32 0, i32 0, i32 0, i32 0, i32 0
  %52 = load i8*, i8** %51, align 8
  call void @_ZdlPv(i8* %52) #11
  br label %53

53:                                               ; preds = %50, %43
  call void @llvm.lifetime.end.p0i8(i64 24, i8* nonnull %19) #10
  call void @_ZN10guest_view13GuestViewBase19DispatchEventToViewENSt3__110unique_ptrINS_14GuestViewEventENS1_14default_deleteIS3_EEEE(%"class.guest_view::GuestViewBase"* %9, %"class.guest_view::GuestViewEvent"* nonnull %18) #10
  call void @_ZN10extensions3api26extension_options_internal27PreferredSizeChangedOptionsD1Ev(%"struct.extensions::api::extension_options_internal::PreferredSizeChangedOptions"* nonnull %4) #10
  call void @llvm.lifetime.end.p0i8(i64 16, i8* nonnull %5) #10
  ret void
}

declare void @_ZN10extensions3api26extension_options_internal27PreferredSizeChangedOptionsC1Ev(%"struct.extensions::api::extension_options_internal::PreferredSizeChangedOptions"*) unnamed_addr #1

declare double @_ZNK10guest_view13GuestViewBase29PhysicalPixelsToLogicalPixelsEi(%"class.guest_view::GuestViewBase"*, i32) local_unnamed_addr #1

declare %"class.base::DictionaryValue"* @_ZNK10extensions3api26extension_options_internal27PreferredSizeChangedOptions7ToValueEv(%"struct.extensions::api::extension_options_internal::PreferredSizeChangedOptions"*) local_unnamed_addr #1

; Function Attrs: nounwind
declare void @_ZN10extensions3api26extension_options_internal27PreferredSizeChangedOptionsD1Ev(%"struct.extensions::api::extension_options_internal::PreferredSizeChangedOptions"*) unnamed_addr #2

; Function Attrs: nounwind ssp uwtable
define hidden void @_ZN10extensions21ExtensionOptionsGuest14AddNewContentsEPN7content11WebContentsENSt3__110unique_ptrIS2_NS4_14default_deleteIS2_EEEERK4GURL21WindowOpenDispositionRKN3gfx4RectEbPb(%"class.extensions::ExtensionOptionsGuest"* nocapture readonly, %"class.content::WebContents"*, %"class.content::WebContents"*, %class.GURL* dereferenceable(120), i32, %"class.gfx::Rect"* dereferenceable(16), i1 zeroext, i8*) unnamed_addr #0 align 2 {
  %9 = getelementptr inbounds %"class.extensions::ExtensionOptionsGuest", %"class.extensions::ExtensionOptionsGuest"* %0, i64 0, i32 0, i32 0, i32 9
  %10 = load i32, i32* %9, align 8
  %11 = load i32, i32* @_ZN10guest_view15kInstanceIDNoneE, align 4
  %12 = icmp eq i32 %10, %11
  br i1 %12, label %54, label %13

13:                                               ; preds = %8
  %14 = getelementptr inbounds %"class.extensions::ExtensionOptionsGuest", %"class.extensions::ExtensionOptionsGuest"* %0, i64 0, i32 0, i32 0, i32 10
  %15 = load i8, i8* %14, align 4, !range !7
  %16 = icmp eq i8 %15, 0
  br i1 %16, label %17, label %54

17:                                               ; preds = %13
  %18 = getelementptr inbounds %"class.extensions::ExtensionOptionsGuest", %"class.extensions::ExtensionOptionsGuest"* %0, i64 0, i32 0, i32 0, i32 12
  %19 = load i8, i8* %18, align 2, !range !7
  %20 = icmp eq i8 %19, 0
  br i1 %20, label %21, label %54

21:                                               ; preds = %17
  %22 = getelementptr inbounds %"class.extensions::ExtensionOptionsGuest", %"class.extensions::ExtensionOptionsGuest"* %0, i64 0, i32 0, i32 0, i32 4
  %23 = load %"class.content::WebContents"*, %"class.content::WebContents"** %22, align 8
  %24 = bitcast %"class.content::WebContents"* %23 to %"class.content::WebContentsDelegate"* (%"class.content::WebContents"*)***
  %25 = load %"class.content::WebContentsDelegate"* (%"class.content::WebContents"*)**, %"class.content::WebContentsDelegate"* (%"class.content::WebContents"*)*** %24, align 8
  %26 = getelementptr inbounds %"class.content::WebContentsDelegate"* (%"class.content::WebContents"*)*, %"class.content::WebContentsDelegate"* (%"class.content::WebContents"*)** %25, i64 3
  %27 = load %"class.content::WebContentsDelegate"* (%"class.content::WebContents"*)*, %"class.content::WebContentsDelegate"* (%"class.content::WebContents"*)** %26, align 8
  %28 = tail call %"class.content::WebContentsDelegate"* %27(%"class.content::WebContents"* %23) #10
  %29 = icmp eq %"class.content::WebContentsDelegate"* %28, null
  br i1 %29, label %54, label %30

30:                                               ; preds = %21
  %31 = load i32, i32* %9, align 8
  %32 = icmp eq i32 %31, %11
  br i1 %32, label %43, label %33

33:                                               ; preds = %30
  %34 = load i8, i8* %14, align 4, !range !7
  %35 = icmp eq i8 %34, 0
  br i1 %35, label %36, label %43

36:                                               ; preds = %33
  %37 = load i8, i8* %18, align 2, !range !7
  %38 = icmp eq i8 %37, 0
  br i1 %38, label %39, label %43

39:                                               ; preds = %36
  %40 = getelementptr inbounds %"class.extensions::ExtensionOptionsGuest", %"class.extensions::ExtensionOptionsGuest"* %0, i64 0, i32 0, i32 0, i32 4
  %41 = load %"class.content::WebContents"*, %"class.content::WebContents"** %40, align 8
  %42 = bitcast %"class.content::WebContents"* %41 to %"class.content::WebContentsDelegate"* (%"class.content::WebContents"*)***
  br label %43

43:                                               ; preds = %39, %36, %33, %30
  %44 = phi %"class.content::WebContentsDelegate"* (%"class.content::WebContents"*)*** [ %42, %39 ], [ null, %36 ], [ null, %33 ], [ null, %30 ]
  %45 = phi %"class.content::WebContents"* [ %41, %39 ], [ null, %36 ], [ null, %33 ], [ null, %30 ]
  %46 = load %"class.content::WebContentsDelegate"* (%"class.content::WebContents"*)**, %"class.content::WebContentsDelegate"* (%"class.content::WebContents"*)*** %44, align 8
  %47 = getelementptr inbounds %"class.content::WebContentsDelegate"* (%"class.content::WebContents"*)*, %"class.content::WebContentsDelegate"* (%"class.content::WebContents"*)** %46, i64 3
  %48 = load %"class.content::WebContentsDelegate"* (%"class.content::WebContents"*)*, %"class.content::WebContentsDelegate"* (%"class.content::WebContents"*)** %47, align 8
  %49 = tail call %"class.content::WebContentsDelegate"* %48(%"class.content::WebContents"* %45) #10
  %50 = bitcast %"class.content::WebContentsDelegate"* %49 to void (%"class.content::WebContentsDelegate"*, %"class.content::WebContents"*, %"class.content::WebContents"*, %class.GURL*, i32, %"class.gfx::Rect"*, i1, i8*)***
  %51 = load void (%"class.content::WebContentsDelegate"*, %"class.content::WebContents"*, %"class.content::WebContents"*, %class.GURL*, i32, %"class.gfx::Rect"*, i1, i8*)**, void (%"class.content::WebContentsDelegate"*, %"class.content::WebContents"*, %"class.content::WebContents"*, %class.GURL*, i32, %"class.gfx::Rect"*, i1, i8*)*** %50, align 8
  %52 = getelementptr inbounds void (%"class.content::WebContentsDelegate"*, %"class.content::WebContents"*, %"class.content::WebContents"*, %class.GURL*, i32, %"class.gfx::Rect"*, i1, i8*)*, void (%"class.content::WebContentsDelegate"*, %"class.content::WebContents"*, %"class.content::WebContents"*, %class.GURL*, i32, %"class.gfx::Rect"*, i1, i8*)** %51, i64 4
  %53 = load void (%"class.content::WebContentsDelegate"*, %"class.content::WebContents"*, %"class.content::WebContents"*, %class.GURL*, i32, %"class.gfx::Rect"*, i1, i8*)*, void (%"class.content::WebContentsDelegate"*, %"class.content::WebContents"*, %"class.content::WebContents"*, %class.GURL*, i32, %"class.gfx::Rect"*, i1, i8*)** %52, align 8
  tail call void %53(%"class.content::WebContentsDelegate"* %49, %"class.content::WebContents"* %1, %"class.content::WebContents"* %2, %class.GURL* dereferenceable(120) %3, i32 %4, %"class.gfx::Rect"* dereferenceable(16) %5, i1 zeroext %6, i8* %7) #10
  br label %61

54:                                               ; preds = %8, %13, %17, %21
  %55 = icmp eq %"class.content::WebContents"* %2, null
  br i1 %55, label %61, label %56

56:                                               ; preds = %54
  %57 = bitcast %"class.content::WebContents"* %2 to void (%"class.content::WebContents"*)***
  %58 = load void (%"class.content::WebContents"*)**, void (%"class.content::WebContents"*)*** %57, align 8
  %59 = getelementptr inbounds void (%"class.content::WebContents"*)*, void (%"class.content::WebContents"*)** %58, i64 1
  %60 = load void (%"class.content::WebContents"*)*, void (%"class.content::WebContents"*)** %59, align 8
  tail call void %60(%"class.content::WebContents"* nonnull %2) #10
  br label %61

61:                                               ; preds = %43, %54, %56
  ret void
}

; Function Attrs: nounwind ssp uwtable
define hidden void @_ZThn8_N10extensions21ExtensionOptionsGuest14AddNewContentsEPN7content11WebContentsENSt3__110unique_ptrIS2_NS4_14default_deleteIS2_EEEERK4GURL21WindowOpenDispositionRKN3gfx4RectEbPb(%"class.extensions::ExtensionOptionsGuest"* nocapture readonly, %"class.content::WebContents"*, %"class.content::WebContents"*, %class.GURL* dereferenceable(120), i32, %"class.gfx::Rect"* dereferenceable(16), i1 zeroext, i8*) unnamed_addr #0 align 2 {
  %9 = getelementptr inbounds %"class.extensions::ExtensionOptionsGuest", %"class.extensions::ExtensionOptionsGuest"* %0, i64 -1, i32 2, i32 3
  %10 = bitcast %"class.std::__1::unique_ptr.79"* %9 to %"class.extensions::ExtensionOptionsGuest"*
  %11 = getelementptr inbounds %"class.std::__1::unique_ptr.79", %"class.std::__1::unique_ptr.79"* %9, i64 14
  %12 = bitcast %"class.std::__1::unique_ptr.79"* %11 to i32*
  %13 = load i32, i32* %12, align 8
  %14 = load i32, i32* @_ZN10guest_view15kInstanceIDNoneE, align 4
  %15 = icmp eq i32 %13, %14
  br i1 %15, label %57, label %16

16:                                               ; preds = %8
  %17 = getelementptr inbounds %"class.extensions::ExtensionOptionsGuest", %"class.extensions::ExtensionOptionsGuest"* %10, i64 0, i32 0, i32 0, i32 10
  %18 = load i8, i8* %17, align 4, !range !7
  %19 = icmp eq i8 %18, 0
  br i1 %19, label %20, label %57

20:                                               ; preds = %16
  %21 = getelementptr inbounds %"class.extensions::ExtensionOptionsGuest", %"class.extensions::ExtensionOptionsGuest"* %10, i64 0, i32 0, i32 0, i32 12
  %22 = load i8, i8* %21, align 2, !range !7
  %23 = icmp eq i8 %22, 0
  br i1 %23, label %24, label %57

24:                                               ; preds = %20
  %25 = getelementptr inbounds %"class.std::__1::unique_ptr.79", %"class.std::__1::unique_ptr.79"* %9, i64 8
  %26 = bitcast %"class.std::__1::unique_ptr.79"* %25 to %"class.content::WebContents"**
  %27 = load %"class.content::WebContents"*, %"class.content::WebContents"** %26, align 8
  %28 = bitcast %"class.content::WebContents"* %27 to %"class.content::WebContentsDelegate"* (%"class.content::WebContents"*)***
  %29 = load %"class.content::WebContentsDelegate"* (%"class.content::WebContents"*)**, %"class.content::WebContentsDelegate"* (%"class.content::WebContents"*)*** %28, align 8
  %30 = getelementptr inbounds %"class.content::WebContentsDelegate"* (%"class.content::WebContents"*)*, %"class.content::WebContentsDelegate"* (%"class.content::WebContents"*)** %29, i64 3
  %31 = load %"class.content::WebContentsDelegate"* (%"class.content::WebContents"*)*, %"class.content::WebContentsDelegate"* (%"class.content::WebContents"*)** %30, align 8
  %32 = tail call %"class.content::WebContentsDelegate"* %31(%"class.content::WebContents"* %27) #10
  %33 = icmp eq %"class.content::WebContentsDelegate"* %32, null
  br i1 %33, label %57, label %34

34:                                               ; preds = %24
  %35 = load i32, i32* %12, align 8
  %36 = icmp eq i32 %35, %14
  br i1 %36, label %46, label %37

37:                                               ; preds = %34
  %38 = load i8, i8* %17, align 4, !range !7
  %39 = icmp eq i8 %38, 0
  br i1 %39, label %40, label %46

40:                                               ; preds = %37
  %41 = load i8, i8* %21, align 2, !range !7
  %42 = icmp eq i8 %41, 0
  br i1 %42, label %43, label %46

43:                                               ; preds = %40
  %44 = load %"class.content::WebContents"*, %"class.content::WebContents"** %26, align 8
  %45 = bitcast %"class.content::WebContents"* %44 to %"class.content::WebContentsDelegate"* (%"class.content::WebContents"*)***
  br label %46

46:                                               ; preds = %43, %40, %37, %34
  %47 = phi %"class.content::WebContentsDelegate"* (%"class.content::WebContents"*)*** [ %45, %43 ], [ null, %40 ], [ null, %37 ], [ null, %34 ]
  %48 = phi %"class.content::WebContents"* [ %44, %43 ], [ null, %40 ], [ null, %37 ], [ null, %34 ]
  %49 = load %"class.content::WebContentsDelegate"* (%"class.content::WebContents"*)**, %"class.content::WebContentsDelegate"* (%"class.content::WebContents"*)*** %47, align 8
  %50 = getelementptr inbounds %"class.content::WebContentsDelegate"* (%"class.content::WebContents"*)*, %"class.content::WebContentsDelegate"* (%"class.content::WebContents"*)** %49, i64 3
  %51 = load %"class.content::WebContentsDelegate"* (%"class.content::WebContents"*)*, %"class.content::WebContentsDelegate"* (%"class.content::WebContents"*)** %50, align 8
  %52 = tail call %"class.content::WebContentsDelegate"* %51(%"class.content::WebContents"* %48) #10
  %53 = bitcast %"class.content::WebContentsDelegate"* %52 to void (%"class.content::WebContentsDelegate"*, %"class.content::WebContents"*, %"class.content::WebContents"*, %class.GURL*, i32, %"class.gfx::Rect"*, i1, i8*)***
  %54 = load void (%"class.content::WebContentsDelegate"*, %"class.content::WebContents"*, %"class.content::WebContents"*, %class.GURL*, i32, %"class.gfx::Rect"*, i1, i8*)**, void (%"class.content::WebContentsDelegate"*, %"class.content::WebContents"*, %"class.content::WebContents"*, %class.GURL*, i32, %"class.gfx::Rect"*, i1, i8*)*** %53, align 8
  %55 = getelementptr inbounds void (%"class.content::WebContentsDelegate"*, %"class.content::WebContents"*, %"class.content::WebContents"*, %class.GURL*, i32, %"class.gfx::Rect"*, i1, i8*)*, void (%"class.content::WebContentsDelegate"*, %"class.content::WebContents"*, %"class.content::WebContents"*, %class.GURL*, i32, %"class.gfx::Rect"*, i1, i8*)** %54, i64 4
  %56 = load void (%"class.content::WebContentsDelegate"*, %"class.content::WebContents"*, %"class.content::WebContents"*, %class.GURL*, i32, %"class.gfx::Rect"*, i1, i8*)*, void (%"class.content::WebContentsDelegate"*, %"class.content::WebContents"*, %"class.content::WebContents"*, %class.GURL*, i32, %"class.gfx::Rect"*, i1, i8*)** %55, align 8
  tail call void %56(%"class.content::WebContentsDelegate"* %52, %"class.content::WebContents"* %1, %"class.content::WebContents"* %2, %class.GURL* dereferenceable(120) %3, i32 %4, %"class.gfx::Rect"* dereferenceable(16) %5, i1 zeroext %6, i8* %7) #10
  br label %64

57:                                               ; preds = %24, %20, %16, %8
  %58 = icmp eq %"class.content::WebContents"* %2, null
  br i1 %58, label %64, label %59

59:                                               ; preds = %57
  %60 = bitcast %"class.content::WebContents"* %2 to void (%"class.content::WebContents"*)***
  %61 = load void (%"class.content::WebContents"*)**, void (%"class.content::WebContents"*)*** %60, align 8
  %62 = getelementptr inbounds void (%"class.content::WebContents"*)*, void (%"class.content::WebContents"*)** %61, i64 1
  %63 = load void (%"class.content::WebContents"*)*, void (%"class.content::WebContents"*)** %62, align 8
  tail call void %63(%"class.content::WebContents"* nonnull %2) #10
  br label %64

64:                                               ; preds = %46, %57, %59
  ret void
}

; Function Attrs: nounwind ssp uwtable
define hidden %"class.content::WebContents"* @_ZN10extensions21ExtensionOptionsGuest14OpenURLFromTabEPN7content11WebContentsERKNS1_13OpenURLParamsE(%"class.extensions::ExtensionOptionsGuest"*, %"class.content::WebContents"* nocapture readnone, %"struct.content::OpenURLParams"* dereferenceable(720)) unnamed_addr #0 align 2 {
  %4 = alloca %"class.std::__1::allocator.16", align 1
  %5 = alloca %"class.std::__1::allocator.16", align 1
  %6 = alloca %"class.std::__1::basic_string", align 8
  %7 = alloca %"class.std::__1::basic_string", align 8
  %8 = alloca %"struct.content::OpenURLParams", align 8
  %9 = getelementptr inbounds %"class.extensions::ExtensionOptionsGuest", %"class.extensions::ExtensionOptionsGuest"* %0, i64 0, i32 1, i32 0, i32 0, i32 0
  %10 = load %"class.extensions::ExtensionOptionsGuestDelegate"*, %"class.extensions::ExtensionOptionsGuestDelegate"** %9, align 8
  %11 = icmp eq %"class.extensions::ExtensionOptionsGuestDelegate"* %10, null
  br i1 %11, label %138, label %12

12:                                               ; preds = %3
  %13 = getelementptr inbounds %"struct.content::OpenURLParams", %"struct.content::OpenURLParams"* %2, i64 0, i32 0
  %14 = tail call i64 @strlen(i8* nonnull getelementptr inbounds ([0 x i8], [0 x i8]* @_ZN10extensions16kExtensionSchemeE, i64 0, i64 0)) #10
  %15 = tail call zeroext i1 @_ZNK4GURL8SchemeIsEN4base16BasicStringPieceIcNSt3__111char_traitsIcEEEE(%class.GURL* %13, i8* getelementptr inbounds ([0 x i8], [0 x i8]* @_ZN10extensions16kExtensionSchemeE, i64 0, i64 0), i64 %14) #10
  br i1 %15, label %16, label %96

16:                                               ; preds = %12
  %17 = bitcast %"class.std::__1::basic_string"* %6 to i8*
  call void @llvm.lifetime.start.p0i8(i64 24, i8* nonnull %17) #10
  %18 = getelementptr inbounds %"struct.content::OpenURLParams", %"struct.content::OpenURLParams"* %2, i64 0, i32 0, i32 2, i32 3, i32 1
  %19 = load i32, i32* %18, align 4, !noalias !8
  %20 = icmp slt i32 %19, 1
  br i1 %20, label %21, label %22

21:                                               ; preds = %16
  call void @llvm.memset.p0i8.i64(i8* nonnull align 8 %17, i8 0, i64 24, i1 false) #10, !alias.scope !8
  br label %29

22:                                               ; preds = %16
  %23 = getelementptr inbounds %"struct.content::OpenURLParams", %"struct.content::OpenURLParams"* %2, i64 0, i32 0, i32 0
  %24 = getelementptr inbounds %"struct.content::OpenURLParams", %"struct.content::OpenURLParams"* %2, i64 0, i32 0, i32 2, i32 3, i32 0
  %25 = load i32, i32* %24, align 4, !noalias !8
  %26 = sext i32 %25 to i64
  %27 = sext i32 %19 to i64
  %28 = getelementptr inbounds %"class.std::__1::allocator.16", %"class.std::__1::allocator.16"* %5, i64 0, i32 0
  call void @llvm.lifetime.start.p0i8(i64 1, i8* nonnull %28) #10, !noalias !8
  call void @_ZNSt3__112basic_stringIcNS_11char_traitsIcEENS_9allocatorIcEEEC1ERKS5_mmRKS4_(%"class.std::__1::basic_string"* nonnull %6, %"class.std::__1::basic_string"* dereferenceable(24) %23, i64 %26, i64 %27, %"class.std::__1::allocator.16"* nonnull dereferenceable(1) %5) #10
  call void @llvm.lifetime.end.p0i8(i64 1, i8* nonnull %28) #10, !noalias !8
  br label %29

29:                                               ; preds = %21, %22
  %30 = bitcast %"class.std::__1::basic_string"* %7 to i8*
  call void @llvm.lifetime.start.p0i8(i64 24, i8* nonnull %30) #10
  %31 = getelementptr inbounds %"class.extensions::ExtensionOptionsGuest", %"class.extensions::ExtensionOptionsGuest"* %0, i64 0, i32 2, i32 2, i32 3, i32 1
  %32 = load i32, i32* %31, align 4, !noalias !13
  %33 = icmp slt i32 %32, 1
  br i1 %33, label %34, label %35

34:                                               ; preds = %29
  call void @llvm.memset.p0i8.i64(i8* nonnull align 8 %30, i8 0, i64 24, i1 false) #10, !alias.scope !13
  br label %47

35:                                               ; preds = %29
  %36 = getelementptr inbounds %"class.extensions::ExtensionOptionsGuest", %"class.extensions::ExtensionOptionsGuest"* %0, i64 0, i32 2, i32 0
  %37 = getelementptr inbounds %"class.extensions::ExtensionOptionsGuest", %"class.extensions::ExtensionOptionsGuest"* %0, i64 0, i32 2, i32 2, i32 3, i32 0
  %38 = load i32, i32* %37, align 4, !noalias !13
  %39 = sext i32 %38 to i64
  %40 = sext i32 %32 to i64
  %41 = getelementptr inbounds %"class.std::__1::allocator.16", %"class.std::__1::allocator.16"* %4, i64 0, i32 0
  call void @llvm.lifetime.start.p0i8(i64 1, i8* nonnull %41) #10, !noalias !13
  call void @_ZNSt3__112basic_stringIcNS_11char_traitsIcEENS_9allocatorIcEEEC1ERKS5_mmRKS4_(%"class.std::__1::basic_string"* nonnull %7, %"class.std::__1::basic_string"* dereferenceable(24) %36, i64 %39, i64 %40, %"class.std::__1::allocator.16"* nonnull dereferenceable(1) %4) #10
  call void @llvm.lifetime.end.p0i8(i64 1, i8* nonnull %41) #10, !noalias !13
  %42 = bitcast %"class.std::__1::basic_string"* %7 to %"struct.std::__1::basic_string<char, std::__1::char_traits<char>, std::__1::allocator<char> >::__short"*
  %43 = getelementptr inbounds %"struct.std::__1::basic_string<char, std::__1::char_traits<char>, std::__1::allocator<char> >::__short", %"struct.std::__1::basic_string<char, std::__1::char_traits<char>, std::__1::allocator<char> >::__short"* %42, i64 0, i32 1, i32 0
  %44 = load i8, i8* %43, align 1
  %45 = getelementptr inbounds %"class.std::__1::basic_string", %"class.std::__1::basic_string"* %7, i64 0, i32 0, i32 0, i32 0, i32 0, i32 0, i32 1
  %46 = load i64, i64* %45, align 8
  br label %47

47:                                               ; preds = %34, %35
  %48 = phi i64 [ 0, %34 ], [ %46, %35 ]
  %49 = phi i8 [ 0, %34 ], [ %44, %35 ]
  %50 = bitcast %"class.std::__1::basic_string"* %6 to %"struct.std::__1::basic_string<char, std::__1::char_traits<char>, std::__1::allocator<char> >::__short"*
  %51 = getelementptr inbounds %"struct.std::__1::basic_string<char, std::__1::char_traits<char>, std::__1::allocator<char> >::__short", %"struct.std::__1::basic_string<char, std::__1::char_traits<char>, std::__1::allocator<char> >::__short"* %50, i64 0, i32 1, i32 0
  %52 = load i8, i8* %51, align 1
  %53 = icmp slt i8 %52, 0
  %54 = getelementptr inbounds %"class.std::__1::basic_string", %"class.std::__1::basic_string"* %6, i64 0, i32 0, i32 0, i32 0, i32 0, i32 0, i32 1
  %55 = load i64, i64* %54, align 8
  %56 = zext i8 %52 to i64
  %57 = select i1 %53, i64 %55, i64 %56
  %58 = icmp slt i8 %49, 0
  %59 = zext i8 %49 to i64
  %60 = select i1 %58, i64 %48, i64 %59
  %61 = icmp eq i64 %57, %60
  br i1 %61, label %62, label %92

62:                                               ; preds = %47
  %63 = getelementptr inbounds %"class.std::__1::basic_string", %"class.std::__1::basic_string"* %6, i64 0, i32 0, i32 0, i32 0, i32 0, i32 0, i32 0
  %64 = load i8*, i8** %63, align 8
  %65 = select i1 %53, i8* %64, i8* %17
  %66 = getelementptr inbounds %"class.std::__1::basic_string", %"class.std::__1::basic_string"* %7, i64 0, i32 0, i32 0, i32 0, i32 0, i32 0, i32 0
  %67 = load i8*, i8** %66, align 8
  %68 = select i1 %58, i8* %67, i8* %30
  %69 = icmp eq i64 %57, 0
  br i1 %53, label %76, label %70

70:                                               ; preds = %62
  br i1 %69, label %101, label %71

71:                                               ; preds = %70
  %72 = ptrtoint i8* %64 to i64
  %73 = trunc i64 %72 to i8
  %74 = load i8, i8* %68, align 1
  %75 = icmp eq i8 %74, %73
  br i1 %75, label %77, label %92

76:                                               ; preds = %62
  br i1 %69, label %101, label %89

77:                                               ; preds = %71, %84
  %78 = phi i64 [ %81, %84 ], [ %56, %71 ]
  %79 = phi i8* [ %82, %84 ], [ %17, %71 ]
  %80 = phi i8* [ %85, %84 ], [ %68, %71 ]
  %81 = add i64 %78, -1
  %82 = getelementptr inbounds i8, i8* %79, i64 1
  %83 = icmp eq i64 %81, 0
  br i1 %83, label %101, label %84

84:                                               ; preds = %77
  %85 = getelementptr inbounds i8, i8* %80, i64 1
  %86 = load i8, i8* %82, align 1
  %87 = load i8, i8* %85, align 1
  %88 = icmp eq i8 %86, %87
  br i1 %88, label %77, label %92

89:                                               ; preds = %76
  %90 = call i32 @bcmp(i8* %65, i8* %68, i64 %57) #10
  %91 = icmp eq i32 %90, 0
  br i1 %91, label %101, label %92

92:                                               ; preds = %84, %71, %89, %47
  %93 = getelementptr inbounds %"struct.content::OpenURLParams", %"struct.content::OpenURLParams"* %2, i64 0, i32 12
  %94 = load i32, i32* %93, align 4
  %95 = icmp eq i32 %94, 1
  br label %101

96:                                               ; preds = %12
  %97 = getelementptr inbounds %"struct.content::OpenURLParams", %"struct.content::OpenURLParams"* %2, i64 0, i32 12
  %98 = load i32, i32* %97, align 4
  %99 = icmp eq i32 %98, 1
  %100 = load %"class.extensions::ExtensionOptionsGuestDelegate"*, %"class.extensions::ExtensionOptionsGuestDelegate"** %9, align 8
  br i1 %99, label %115, label %131

101:                                              ; preds = %77, %89, %70, %76, %92
  %102 = phi i1 [ %95, %92 ], [ false, %89 ], [ false, %76 ], [ false, %70 ], [ false, %77 ]
  br i1 %58, label %103, label %107

103:                                              ; preds = %101
  %104 = getelementptr inbounds %"class.std::__1::basic_string", %"class.std::__1::basic_string"* %7, i64 0, i32 0, i32 0, i32 0, i32 0, i32 0, i32 0
  %105 = load i8*, i8** %104, align 8
  call void @_ZdlPv(i8* %105) #11
  %106 = load i8, i8* %51, align 1
  br label %107

107:                                              ; preds = %101, %103
  %108 = phi i8 [ %52, %101 ], [ %106, %103 ]
  call void @llvm.lifetime.end.p0i8(i64 24, i8* nonnull %30) #10
  %109 = icmp slt i8 %108, 0
  br i1 %109, label %110, label %113

110:                                              ; preds = %107
  %111 = getelementptr inbounds %"class.std::__1::basic_string", %"class.std::__1::basic_string"* %6, i64 0, i32 0, i32 0, i32 0, i32 0, i32 0, i32 0
  %112 = load i8*, i8** %111, align 8
  call void @_ZdlPv(i8* %112) #11
  br label %113

113:                                              ; preds = %110, %107
  call void @llvm.lifetime.end.p0i8(i64 24, i8* nonnull %17) #10
  %114 = load %"class.extensions::ExtensionOptionsGuestDelegate"*, %"class.extensions::ExtensionOptionsGuestDelegate"** %9, align 8
  br i1 %102, label %115, label %131

115:                                              ; preds = %96, %113
  %116 = phi %"class.extensions::ExtensionOptionsGuestDelegate"* [ %100, %96 ], [ %114, %113 ]
  %117 = bitcast %"struct.content::OpenURLParams"* %8 to i8*
  call void @llvm.lifetime.start.p0i8(i64 720, i8* nonnull %117) #10
  %118 = getelementptr inbounds %"struct.content::OpenURLParams", %"struct.content::OpenURLParams"* %2, i64 0, i32 1
  %119 = getelementptr inbounds %"struct.content::OpenURLParams", %"struct.content::OpenURLParams"* %2, i64 0, i32 9
  %120 = load i32, i32* %119, align 8
  %121 = getelementptr inbounds %"struct.content::OpenURLParams", %"struct.content::OpenURLParams"* %2, i64 0, i32 13
  %122 = load i32, i32* %121, align 8
  %123 = getelementptr inbounds %"struct.content::OpenURLParams", %"struct.content::OpenURLParams"* %2, i64 0, i32 14
  %124 = load i8, i8* %123, align 4, !range !7
  %125 = icmp ne i8 %124, 0
  call void @_ZN7content13OpenURLParamsC1ERK4GURLRKNS_8ReferrerEi21WindowOpenDispositionN2ui14PageTransitionEb(%"struct.content::OpenURLParams"* nonnull %8, %class.GURL* dereferenceable(120) %13, %"struct.content::Referrer"* dereferenceable(128) %118, i32 %120, i32 3, i32 %122, i1 zeroext %125) #10
  %126 = bitcast %"class.extensions::ExtensionOptionsGuestDelegate"* %116 to %"class.content::WebContents"* (%"class.extensions::ExtensionOptionsGuestDelegate"*, %"struct.content::OpenURLParams"*)***
  %127 = load %"class.content::WebContents"* (%"class.extensions::ExtensionOptionsGuestDelegate"*, %"struct.content::OpenURLParams"*)**, %"class.content::WebContents"* (%"class.extensions::ExtensionOptionsGuestDelegate"*, %"struct.content::OpenURLParams"*)*** %126, align 8
  %128 = getelementptr inbounds %"class.content::WebContents"* (%"class.extensions::ExtensionOptionsGuestDelegate"*, %"struct.content::OpenURLParams"*)*, %"class.content::WebContents"* (%"class.extensions::ExtensionOptionsGuestDelegate"*, %"struct.content::OpenURLParams"*)** %127, i64 3
  %129 = load %"class.content::WebContents"* (%"class.extensions::ExtensionOptionsGuestDelegate"*, %"struct.content::OpenURLParams"*)*, %"class.content::WebContents"* (%"class.extensions::ExtensionOptionsGuestDelegate"*, %"struct.content::OpenURLParams"*)** %128, align 8
  %130 = call %"class.content::WebContents"* %129(%"class.extensions::ExtensionOptionsGuestDelegate"* %116, %"struct.content::OpenURLParams"* nonnull dereferenceable(720) %8) #10
  call void @_ZN7content13OpenURLParamsD1Ev(%"struct.content::OpenURLParams"* nonnull %8) #10
  call void @llvm.lifetime.end.p0i8(i64 720, i8* nonnull %117) #10
  br label %138

131:                                              ; preds = %96, %113
  %132 = phi %"class.extensions::ExtensionOptionsGuestDelegate"* [ %100, %96 ], [ %114, %113 ]
  %133 = bitcast %"class.extensions::ExtensionOptionsGuestDelegate"* %132 to %"class.content::WebContents"* (%"class.extensions::ExtensionOptionsGuestDelegate"*, %"struct.content::OpenURLParams"*)***
  %134 = load %"class.content::WebContents"* (%"class.extensions::ExtensionOptionsGuestDelegate"*, %"struct.content::OpenURLParams"*)**, %"class.content::WebContents"* (%"class.extensions::ExtensionOptionsGuestDelegate"*, %"struct.content::OpenURLParams"*)*** %133, align 8
  %135 = getelementptr inbounds %"class.content::WebContents"* (%"class.extensions::ExtensionOptionsGuestDelegate"*, %"struct.content::OpenURLParams"*)*, %"class.content::WebContents"* (%"class.extensions::ExtensionOptionsGuestDelegate"*, %"struct.content::OpenURLParams"*)** %134, i64 3
  %136 = load %"class.content::WebContents"* (%"class.extensions::ExtensionOptionsGuestDelegate"*, %"struct.content::OpenURLParams"*)*, %"class.content::WebContents"* (%"class.extensions::ExtensionOptionsGuestDelegate"*, %"struct.content::OpenURLParams"*)** %135, align 8
  %137 = call %"class.content::WebContents"* %136(%"class.extensions::ExtensionOptionsGuestDelegate"* %132, %"struct.content::OpenURLParams"* dereferenceable(720) %2) #10
  br label %138

138:                                              ; preds = %3, %131, %115
  %139 = phi %"class.content::WebContents"* [ %130, %115 ], [ %137, %131 ], [ null, %3 ]
  ret %"class.content::WebContents"* %139
}

declare zeroext i1 @_ZNK4GURL8SchemeIsEN4base16BasicStringPieceIcNSt3__111char_traitsIcEEEE(%class.GURL*, i8*, i64) local_unnamed_addr #1

declare void @_ZN7content13OpenURLParamsC1ERK4GURLRKNS_8ReferrerEi21WindowOpenDispositionN2ui14PageTransitionEb(%"struct.content::OpenURLParams"*, %class.GURL* dereferenceable(120), %"struct.content::Referrer"* dereferenceable(128), i32, i32, i32, i1 zeroext) unnamed_addr #1

; Function Attrs: nounwind
declare void @_ZN7content13OpenURLParamsD1Ev(%"struct.content::OpenURLParams"*) unnamed_addr #2

; Function Attrs: nounwind ssp uwtable
define hidden %"class.content::WebContents"* @_ZThn8_N10extensions21ExtensionOptionsGuest14OpenURLFromTabEPN7content11WebContentsERKNS1_13OpenURLParamsE(%"class.extensions::ExtensionOptionsGuest"*, %"class.content::WebContents"* nocapture readnone, %"struct.content::OpenURLParams"* dereferenceable(720)) unnamed_addr #0 align 2 {
  %4 = getelementptr inbounds %"class.extensions::ExtensionOptionsGuest", %"class.extensions::ExtensionOptionsGuest"* %0, i64 -1, i32 2, i32 3
  %5 = bitcast %"class.std::__1::unique_ptr.79"* %4 to %"class.extensions::ExtensionOptionsGuest"*
  %6 = tail call %"class.content::WebContents"* @_ZN10extensions21ExtensionOptionsGuest14OpenURLFromTabEPN7content11WebContentsERKNS1_13OpenURLParamsE(%"class.extensions::ExtensionOptionsGuest"* %5, %"class.content::WebContents"* undef, %"struct.content::OpenURLParams"* dereferenceable(720) %2)
  ret %"class.content::WebContents"* %6
}

; Function Attrs: nounwind ssp uwtable
define hidden void @_ZN10extensions21ExtensionOptionsGuest13CloseContentsEPN7content11WebContentsE(%"class.extensions::ExtensionOptionsGuest"*, %"class.content::WebContents"* nocapture readnone) unnamed_addr #0 align 2 {
  %3 = alloca %"class.std::__1::basic_string", align 8
  %4 = getelementptr inbounds %"class.extensions::ExtensionOptionsGuest", %"class.extensions::ExtensionOptionsGuest"* %0, i64 0, i32 0, i32 0
  %5 = tail call i8* @_Znwm(i64 32) #11
  %6 = bitcast i8* %5 to %"class.base::DictionaryValue"*
  tail call void @_ZN4base15DictionaryValueC1Ev(%"class.base::DictionaryValue"* nonnull %6) #10
  %7 = tail call i8* @_Znwm(i64 32) #11
  %8 = bitcast i8* %7 to %"class.guest_view::GuestViewEvent"*
  %9 = bitcast %"class.std::__1::basic_string"* %3 to i8*
  call void @llvm.lifetime.start.p0i8(i64 24, i8* nonnull %9) #10
  %10 = tail call i64 @strlen(i8* getelementptr inbounds ([0 x i8], [0 x i8]* @_ZN10extensions3api26extension_options_internal7OnClose10kEventNameE, i64 0, i64 0)) #10
  %11 = icmp ugt i64 %10, -17
  br i1 %11, label %12, label %14

12:                                               ; preds = %2
  %13 = bitcast %"class.std::__1::basic_string"* %3 to %"class.std::__1::__basic_string_common"*
  call void @_ZNKSt3__121__basic_string_commonILb1EE20__throw_length_errorEv(%"class.std::__1::__basic_string_common"* nonnull %13) #12
  unreachable

14:                                               ; preds = %2
  %15 = icmp ult i64 %10, 23
  br i1 %15, label %25, label %16

16:                                               ; preds = %14
  %17 = add nuw i64 %10, 16
  %18 = and i64 %17, -16
  %19 = tail call i8* @_Znwm(i64 %18) #11
  %20 = getelementptr inbounds %"class.std::__1::basic_string", %"class.std::__1::basic_string"* %3, i64 0, i32 0, i32 0, i32 0, i32 0, i32 0, i32 0
  store i8* %19, i8** %20, align 8
  %21 = or i64 %18, -9223372036854775808
  %22 = getelementptr inbounds %"class.std::__1::basic_string", %"class.std::__1::basic_string"* %3, i64 0, i32 0, i32 0, i32 0, i32 0, i32 0, i32 2
  store i64 %21, i64* %22, align 8
  %23 = getelementptr inbounds %"class.std::__1::basic_string", %"class.std::__1::basic_string"* %3, i64 0, i32 0, i32 0, i32 0, i32 0, i32 0, i32 1
  store i64 %10, i64* %23, align 8
  %24 = bitcast %"class.std::__1::basic_string"* %3 to %"struct.std::__1::basic_string<char, std::__1::char_traits<char>, std::__1::allocator<char> >::__short"*
  br label %30

25:                                               ; preds = %14
  %26 = trunc i64 %10 to i8
  %27 = bitcast %"class.std::__1::basic_string"* %3 to %"struct.std::__1::basic_string<char, std::__1::char_traits<char>, std::__1::allocator<char> >::__short"*
  %28 = getelementptr inbounds %"struct.std::__1::basic_string<char, std::__1::char_traits<char>, std::__1::allocator<char> >::__short", %"struct.std::__1::basic_string<char, std::__1::char_traits<char>, std::__1::allocator<char> >::__short"* %27, i64 0, i32 1, i32 0
  store i8 %26, i8* %28, align 1
  %29 = icmp eq i64 %10, 0
  br i1 %29, label %33, label %30

30:                                               ; preds = %25, %16
  %31 = phi %"struct.std::__1::basic_string<char, std::__1::char_traits<char>, std::__1::allocator<char> >::__short"* [ %27, %25 ], [ %24, %16 ]
  %32 = phi i8* [ %9, %25 ], [ %19, %16 ]
  call void @llvm.memcpy.p0i8.p0i8.i64(i8* nonnull align 1 %32, i8* align 1 getelementptr inbounds ([0 x i8], [0 x i8]* @_ZN10extensions3api26extension_options_internal7OnClose10kEventNameE, i64 0, i64 0), i64 %10, i1 false) #10
  br label %33

33:                                               ; preds = %30, %25
  %34 = phi %"struct.std::__1::basic_string<char, std::__1::char_traits<char>, std::__1::allocator<char> >::__short"* [ %27, %25 ], [ %31, %30 ]
  %35 = phi i8* [ %9, %25 ], [ %32, %30 ]
  %36 = getelementptr inbounds i8, i8* %35, i64 %10
  store i8 0, i8* %36, align 1
  call void @_ZN10guest_view14GuestViewEventC1ERKNSt3__112basic_stringIcNS1_11char_traitsIcEENS1_9allocatorIcEEEENS1_10unique_ptrIN4base15DictionaryValueENS1_14default_deleteISC_EEEE(%"class.guest_view::GuestViewEvent"* nonnull %8, %"class.std::__1::basic_string"* nonnull dereferenceable(24) %3, %"class.base::DictionaryValue"* nonnull %6) #10
  %37 = getelementptr inbounds %"struct.std::__1::basic_string<char, std::__1::char_traits<char>, std::__1::allocator<char> >::__short", %"struct.std::__1::basic_string<char, std::__1::char_traits<char>, std::__1::allocator<char> >::__short"* %34, i64 0, i32 1, i32 0
  %38 = load i8, i8* %37, align 1
  %39 = icmp slt i8 %38, 0
  br i1 %39, label %40, label %43

40:                                               ; preds = %33
  %41 = getelementptr inbounds %"class.std::__1::basic_string", %"class.std::__1::basic_string"* %3, i64 0, i32 0, i32 0, i32 0, i32 0, i32 0, i32 0
  %42 = load i8*, i8** %41, align 8
  call void @_ZdlPv(i8* %42) #11
  br label %43

43:                                               ; preds = %40, %33
  call void @llvm.lifetime.end.p0i8(i64 24, i8* nonnull %9) #10
  call void @_ZN10guest_view13GuestViewBase19DispatchEventToViewENSt3__110unique_ptrINS_14GuestViewEventENS1_14default_deleteIS3_EEEE(%"class.guest_view::GuestViewBase"* %4, %"class.guest_view::GuestViewEvent"* nonnull %8) #10
  ret void
}

; Function Attrs: nounwind ssp uwtable
define hidden void @_ZThn8_N10extensions21ExtensionOptionsGuest13CloseContentsEPN7content11WebContentsE(%"class.extensions::ExtensionOptionsGuest"*, %"class.content::WebContents"* nocapture readnone) unnamed_addr #0 align 2 {
  %3 = getelementptr inbounds %"class.extensions::ExtensionOptionsGuest", %"class.extensions::ExtensionOptionsGuest"* %0, i64 -1, i32 2, i32 3
  %4 = bitcast %"class.std::__1::unique_ptr.79"* %3 to %"class.extensions::ExtensionOptionsGuest"*
  tail call void @_ZN10extensions21ExtensionOptionsGuest13CloseContentsEPN7content11WebContentsE(%"class.extensions::ExtensionOptionsGuest"* %4, %"class.content::WebContents"* undef)
  ret void
}

; Function Attrs: nounwind ssp uwtable
define hidden zeroext i1 @_ZN10extensions21ExtensionOptionsGuest17HandleContextMenuEPN7content15RenderFrameHostERKNS1_17ContextMenuParamsE(%"class.extensions::ExtensionOptionsGuest"* nocapture readonly, %"class.content::RenderFrameHost"* nocapture readnone, %"struct.content::ContextMenuParams"*) unnamed_addr #0 align 2 {
  %4 = getelementptr inbounds %"class.extensions::ExtensionOptionsGuest", %"class.extensions::ExtensionOptionsGuest"* %0, i64 0, i32 1, i32 0, i32 0, i32 0
  %5 = load %"class.extensions::ExtensionOptionsGuestDelegate"*, %"class.extensions::ExtensionOptionsGuestDelegate"** %4, align 8
  %6 = icmp eq %"class.extensions::ExtensionOptionsGuestDelegate"* %5, null
  br i1 %6, label %13, label %7

7:                                                ; preds = %3
  %8 = bitcast %"class.extensions::ExtensionOptionsGuestDelegate"* %5 to i1 (%"class.extensions::ExtensionOptionsGuestDelegate"*, %"struct.content::ContextMenuParams"*)***
  %9 = load i1 (%"class.extensions::ExtensionOptionsGuestDelegate"*, %"struct.content::ContextMenuParams"*)**, i1 (%"class.extensions::ExtensionOptionsGuestDelegate"*, %"struct.content::ContextMenuParams"*)*** %8, align 8
  %10 = getelementptr inbounds i1 (%"class.extensions::ExtensionOptionsGuestDelegate"*, %"struct.content::ContextMenuParams"*)*, i1 (%"class.extensions::ExtensionOptionsGuestDelegate"*, %"struct.content::ContextMenuParams"*)** %9, i64 2
  %11 = load i1 (%"class.extensions::ExtensionOptionsGuestDelegate"*, %"struct.content::ContextMenuParams"*)*, i1 (%"class.extensions::ExtensionOptionsGuestDelegate"*, %"struct.content::ContextMenuParams"*)** %10, align 8
  %12 = tail call zeroext i1 %11(%"class.extensions::ExtensionOptionsGuestDelegate"* nonnull %5, %"struct.content::ContextMenuParams"* %2) #10
  br label %13

13:                                               ; preds = %3, %7
  %14 = phi i1 [ %12, %7 ], [ false, %3 ]
  ret i1 %14
}

; Function Attrs: nounwind ssp uwtable
define hidden zeroext i1 @_ZThn8_N10extensions21ExtensionOptionsGuest17HandleContextMenuEPN7content15RenderFrameHostERKNS1_17ContextMenuParamsE(%"class.extensions::ExtensionOptionsGuest"* nocapture readonly, %"class.content::RenderFrameHost"* nocapture readnone, %"struct.content::ContextMenuParams"*) unnamed_addr #0 align 2 {
  %4 = getelementptr inbounds %"class.extensions::ExtensionOptionsGuest", %"class.extensions::ExtensionOptionsGuest"* %0, i64 -1, i32 2, i32 3
  %5 = getelementptr inbounds %"class.std::__1::unique_ptr.79", %"class.std::__1::unique_ptr.79"* %4, i64 32
  %6 = bitcast %"class.std::__1::unique_ptr.79"* %5 to %"class.extensions::ExtensionOptionsGuestDelegate"**
  %7 = load %"class.extensions::ExtensionOptionsGuestDelegate"*, %"class.extensions::ExtensionOptionsGuestDelegate"** %6, align 8
  %8 = icmp eq %"class.extensions::ExtensionOptionsGuestDelegate"* %7, null
  br i1 %8, label %15, label %9

9:                                                ; preds = %3
  %10 = bitcast %"class.extensions::ExtensionOptionsGuestDelegate"* %7 to i1 (%"class.extensions::ExtensionOptionsGuestDelegate"*, %"struct.content::ContextMenuParams"*)***
  %11 = load i1 (%"class.extensions::ExtensionOptionsGuestDelegate"*, %"struct.content::ContextMenuParams"*)**, i1 (%"class.extensions::ExtensionOptionsGuestDelegate"*, %"struct.content::ContextMenuParams"*)*** %10, align 8
  %12 = getelementptr inbounds i1 (%"class.extensions::ExtensionOptionsGuestDelegate"*, %"struct.content::ContextMenuParams"*)*, i1 (%"class.extensions::ExtensionOptionsGuestDelegate"*, %"struct.content::ContextMenuParams"*)** %11, i64 2
  %13 = load i1 (%"class.extensions::ExtensionOptionsGuestDelegate"*, %"struct.content::ContextMenuParams"*)*, i1 (%"class.extensions::ExtensionOptionsGuestDelegate"*, %"struct.content::ContextMenuParams"*)** %12, align 8
  %14 = tail call zeroext i1 %13(%"class.extensions::ExtensionOptionsGuestDelegate"* nonnull %7, %"struct.content::ContextMenuParams"* %2) #10
  br label %15

15:                                               ; preds = %3, %9
  %16 = phi i1 [ %14, %9 ], [ false, %3 ]
  ret i1 %16
}

; Function Attrs: norecurse nounwind readnone ssp uwtable
define hidden zeroext i1 @_ZN10extensions21ExtensionOptionsGuest31IsWebContentsCreationOverriddenEPN7content12SiteInstanceENS1_5mojom19WindowContainerTypeERK4GURLRKNSt3__112basic_stringIcNS9_11char_traitsIcEENS9_9allocatorIcEEEES8_(%"class.extensions::ExtensionOptionsGuest"* nocapture readnone, %"class.content::SiteInstance"* nocapture readnone, i32, %class.GURL* nocapture readnone dereferenceable(120), %"class.std::__1::basic_string"* nocapture readnone dereferenceable(24), %class.GURL* nocapture readnone dereferenceable(120)) unnamed_addr #6 align 2 {
  ret i1 true
}

; Function Attrs: norecurse nounwind readnone ssp uwtable
define hidden zeroext i1 @_ZThn8_N10extensions21ExtensionOptionsGuest31IsWebContentsCreationOverriddenEPN7content12SiteInstanceENS1_5mojom19WindowContainerTypeERK4GURLRKNSt3__112basic_stringIcNS9_11char_traitsIcEENS9_9allocatorIcEEEES8_(%"class.extensions::ExtensionOptionsGuest"* nocapture readnone, %"class.content::SiteInstance"* nocapture readnone, i32, %class.GURL* nocapture readnone dereferenceable(120), %"class.std::__1::basic_string"* nocapture readnone dereferenceable(24), %class.GURL* nocapture readnone dereferenceable(120)) unnamed_addr #6 align 2 {
  ret i1 true
}

; Function Attrs: nounwind ssp uwtable
define hidden noalias %"class.content::WebContents"* @_ZN10extensions21ExtensionOptionsGuest23CreateCustomWebContentsEPN7content15RenderFrameHostEPNS1_12SiteInstanceEbRK4GURLRKNSt3__112basic_stringIcNS9_11char_traitsIcEENS9_9allocatorIcEEEES8_RKNS1_18StoragePartitionIdEPNS1_23SessionStorageNamespaceE(%"class.extensions::ExtensionOptionsGuest"* nocapture readonly, %"class.content::RenderFrameHost"* nocapture readnone, %"class.content::SiteInstance"* nocapture readnone, i1 zeroext, %class.GURL* nocapture readnone dereferenceable(120), %"class.std::__1::basic_string"* nocapture readnone dereferenceable(24), %class.GURL* dereferenceable(120), %"class.content::StoragePartitionId"* nocapture readnone dereferenceable(80), %"class.content::SessionStorageNamespace"* nocapture readnone) unnamed_addr #0 align 2 {
  %10 = alloca %"struct.content::OpenURLParams", align 8
  %11 = alloca %"struct.content::Referrer", align 8
  %12 = getelementptr inbounds %"class.extensions::ExtensionOptionsGuest", %"class.extensions::ExtensionOptionsGuest"* %0, i64 0, i32 1, i32 0, i32 0, i32 0
  %13 = load %"class.extensions::ExtensionOptionsGuestDelegate"*, %"class.extensions::ExtensionOptionsGuestDelegate"** %12, align 8
  %14 = icmp eq %"class.extensions::ExtensionOptionsGuestDelegate"* %13, null
  br i1 %14, label %25, label %15

15:                                               ; preds = %9
  %16 = bitcast %"struct.content::OpenURLParams"* %10 to i8*
  call void @llvm.lifetime.start.p0i8(i64 720, i8* nonnull %16) #10
  %17 = bitcast %"struct.content::Referrer"* %11 to i8*
  call void @llvm.lifetime.start.p0i8(i64 128, i8* nonnull %17) #10
  %18 = getelementptr inbounds %"struct.content::Referrer", %"struct.content::Referrer"* %11, i64 0, i32 0
  call void @_ZN4GURLC1Ev(%class.GURL* nonnull %18) #10
  %19 = getelementptr inbounds %"struct.content::Referrer", %"struct.content::Referrer"* %11, i64 0, i32 1
  store i32 1, i32* %19, align 8
  call void @_ZN7content13OpenURLParamsC1ERK4GURLRKNS_8ReferrerE21WindowOpenDispositionN2ui14PageTransitionEb(%"struct.content::OpenURLParams"* nonnull %10, %class.GURL* dereferenceable(120) %6, %"struct.content::Referrer"* nonnull dereferenceable(128) %11, i32 3, i32 0, i1 zeroext false) #10
  %20 = bitcast %"class.extensions::ExtensionOptionsGuestDelegate"* %13 to %"class.content::WebContents"* (%"class.extensions::ExtensionOptionsGuestDelegate"*, %"struct.content::OpenURLParams"*)***
  %21 = load %"class.content::WebContents"* (%"class.extensions::ExtensionOptionsGuestDelegate"*, %"struct.content::OpenURLParams"*)**, %"class.content::WebContents"* (%"class.extensions::ExtensionOptionsGuestDelegate"*, %"struct.content::OpenURLParams"*)*** %20, align 8
  %22 = getelementptr inbounds %"class.content::WebContents"* (%"class.extensions::ExtensionOptionsGuestDelegate"*, %"struct.content::OpenURLParams"*)*, %"class.content::WebContents"* (%"class.extensions::ExtensionOptionsGuestDelegate"*, %"struct.content::OpenURLParams"*)** %21, i64 3
  %23 = load %"class.content::WebContents"* (%"class.extensions::ExtensionOptionsGuestDelegate"*, %"struct.content::OpenURLParams"*)*, %"class.content::WebContents"* (%"class.extensions::ExtensionOptionsGuestDelegate"*, %"struct.content::OpenURLParams"*)** %22, align 8
  %24 = call %"class.content::WebContents"* %23(%"class.extensions::ExtensionOptionsGuestDelegate"* nonnull %13, %"struct.content::OpenURLParams"* nonnull dereferenceable(720) %10) #10
  call void @_ZN7content13OpenURLParamsD1Ev(%"struct.content::OpenURLParams"* nonnull %10) #10
  call void @_ZN4GURLD1Ev(%class.GURL* nonnull %18) #10
  call void @llvm.lifetime.end.p0i8(i64 128, i8* nonnull %17) #10
  call void @llvm.lifetime.end.p0i8(i64 720, i8* nonnull %16) #10
  br label %25

25:                                               ; preds = %9, %15
  ret %"class.content::WebContents"* null
}

declare void @_ZN7content13OpenURLParamsC1ERK4GURLRKNS_8ReferrerE21WindowOpenDispositionN2ui14PageTransitionEb(%"struct.content::OpenURLParams"*, %class.GURL* dereferenceable(120), %"struct.content::Referrer"* dereferenceable(128), i32, i32, i1 zeroext) unnamed_addr #1

; Function Attrs: nounwind ssp uwtable
define hidden noalias %"class.content::WebContents"* @_ZThn8_N10extensions21ExtensionOptionsGuest23CreateCustomWebContentsEPN7content15RenderFrameHostEPNS1_12SiteInstanceEbRK4GURLRKNSt3__112basic_stringIcNS9_11char_traitsIcEENS9_9allocatorIcEEEES8_RKNS1_18StoragePartitionIdEPNS1_23SessionStorageNamespaceE(%"class.extensions::ExtensionOptionsGuest"* nocapture readonly, %"class.content::RenderFrameHost"* nocapture readnone, %"class.content::SiteInstance"* nocapture readnone, i1 zeroext, %class.GURL* nocapture readnone dereferenceable(120), %"class.std::__1::basic_string"* nocapture readnone dereferenceable(24), %class.GURL* dereferenceable(120), %"class.content::StoragePartitionId"* nocapture readnone dereferenceable(80), %"class.content::SessionStorageNamespace"* nocapture readnone) unnamed_addr #0 align 2 {
  %10 = alloca %"struct.content::OpenURLParams", align 8
  %11 = alloca %"struct.content::Referrer", align 8
  %12 = getelementptr inbounds %"class.extensions::ExtensionOptionsGuest", %"class.extensions::ExtensionOptionsGuest"* %0, i64 -1, i32 2, i32 3
  %13 = getelementptr inbounds %"class.std::__1::unique_ptr.79", %"class.std::__1::unique_ptr.79"* %12, i64 32
  %14 = bitcast %"class.std::__1::unique_ptr.79"* %13 to %"class.extensions::ExtensionOptionsGuestDelegate"**
  %15 = load %"class.extensions::ExtensionOptionsGuestDelegate"*, %"class.extensions::ExtensionOptionsGuestDelegate"** %14, align 8
  %16 = icmp eq %"class.extensions::ExtensionOptionsGuestDelegate"* %15, null
  br i1 %16, label %27, label %17

17:                                               ; preds = %9
  %18 = bitcast %"struct.content::OpenURLParams"* %10 to i8*
  call void @llvm.lifetime.start.p0i8(i64 720, i8* nonnull %18) #10
  %19 = bitcast %"struct.content::Referrer"* %11 to i8*
  call void @llvm.lifetime.start.p0i8(i64 128, i8* nonnull %19) #10
  %20 = getelementptr inbounds %"struct.content::Referrer", %"struct.content::Referrer"* %11, i64 0, i32 0
  call void @_ZN4GURLC1Ev(%class.GURL* nonnull %20) #10
  %21 = getelementptr inbounds %"struct.content::Referrer", %"struct.content::Referrer"* %11, i64 0, i32 1
  store i32 1, i32* %21, align 8
  call void @_ZN7content13OpenURLParamsC1ERK4GURLRKNS_8ReferrerE21WindowOpenDispositionN2ui14PageTransitionEb(%"struct.content::OpenURLParams"* nonnull %10, %class.GURL* dereferenceable(120) %6, %"struct.content::Referrer"* nonnull dereferenceable(128) %11, i32 3, i32 0, i1 zeroext false) #10
  %22 = bitcast %"class.extensions::ExtensionOptionsGuestDelegate"* %15 to %"class.content::WebContents"* (%"class.extensions::ExtensionOptionsGuestDelegate"*, %"struct.content::OpenURLParams"*)***
  %23 = load %"class.content::WebContents"* (%"class.extensions::ExtensionOptionsGuestDelegate"*, %"struct.content::OpenURLParams"*)**, %"class.content::WebContents"* (%"class.extensions::ExtensionOptionsGuestDelegate"*, %"struct.content::OpenURLParams"*)*** %22, align 8
  %24 = getelementptr inbounds %"class.content::WebContents"* (%"class.extensions::ExtensionOptionsGuestDelegate"*, %"struct.content::OpenURLParams"*)*, %"class.content::WebContents"* (%"class.extensions::ExtensionOptionsGuestDelegate"*, %"struct.content::OpenURLParams"*)** %23, i64 3
  %25 = load %"class.content::WebContents"* (%"class.extensions::ExtensionOptionsGuestDelegate"*, %"struct.content::OpenURLParams"*)*, %"class.content::WebContents"* (%"class.extensions::ExtensionOptionsGuestDelegate"*, %"struct.content::OpenURLParams"*)** %24, align 8
  %26 = call %"class.content::WebContents"* %25(%"class.extensions::ExtensionOptionsGuestDelegate"* nonnull %15, %"struct.content::OpenURLParams"* nonnull dereferenceable(720) %10) #10
  call void @_ZN7content13OpenURLParamsD1Ev(%"struct.content::OpenURLParams"* nonnull %10) #10
  call void @_ZN4GURLD1Ev(%class.GURL* nonnull %20) #10
  call void @llvm.lifetime.end.p0i8(i64 128, i8* nonnull %19) #10
  call void @llvm.lifetime.end.p0i8(i64 720, i8* nonnull %18) #10
  br label %27

27:                                               ; preds = %9, %17
  ret %"class.content::WebContents"* null
}

; Function Attrs: nounwind ssp uwtable
define hidden void @_ZN10extensions21ExtensionOptionsGuest19DidFinishNavigationEPN7content16NavigationHandleE(%"class.extensions::ExtensionOptionsGuest"*, %"class.content::NavigationHandle"*) unnamed_addr #0 align 2 {
  %3 = bitcast %"class.content::NavigationHandle"* %1 to i1 (%"class.content::NavigationHandle"*)***
  %4 = load i1 (%"class.content::NavigationHandle"*)**, i1 (%"class.content::NavigationHandle"*)*** %3, align 8
  %5 = getelementptr inbounds i1 (%"class.content::NavigationHandle"*)*, i1 (%"class.content::NavigationHandle"*)** %4, i64 7
  %6 = load i1 (%"class.content::NavigationHandle"*)*, i1 (%"class.content::NavigationHandle"*)** %5, align 8
  %7 = tail call zeroext i1 %6(%"class.content::NavigationHandle"* %1) #10
  br i1 %7, label %8, label %56

8:                                                ; preds = %2
  %9 = load i1 (%"class.content::NavigationHandle"*)**, i1 (%"class.content::NavigationHandle"*)*** %3, align 8
  %10 = getelementptr inbounds i1 (%"class.content::NavigationHandle"*)*, i1 (%"class.content::NavigationHandle"*)** %9, i64 38
  %11 = load i1 (%"class.content::NavigationHandle"*)*, i1 (%"class.content::NavigationHandle"*)** %10, align 8
  %12 = tail call zeroext i1 %11(%"class.content::NavigationHandle"* %1) #10
  br i1 %12, label %13, label %56

13:                                               ; preds = %8
  %14 = getelementptr inbounds %"class.extensions::ExtensionOptionsGuest", %"class.extensions::ExtensionOptionsGuest"* %0, i64 0, i32 0, i32 0
  %15 = getelementptr inbounds %"class.extensions::ExtensionOptionsGuest", %"class.extensions::ExtensionOptionsGuest"* %0, i64 0, i32 0, i32 0, i32 9
  %16 = load i32, i32* %15, align 8
  %17 = load i32, i32* @_ZN10guest_view15kInstanceIDNoneE, align 4
  %18 = icmp eq i32 %16, %17
  br i1 %18, label %56, label %19

19:                                               ; preds = %13
  %20 = getelementptr inbounds %"class.extensions::ExtensionOptionsGuest", %"class.extensions::ExtensionOptionsGuest"* %0, i64 0, i32 0, i32 0, i32 10
  %21 = load i8, i8* %20, align 4, !range !7
  %22 = icmp eq i8 %21, 0
  br i1 %22, label %23, label %56

23:                                               ; preds = %19
  %24 = getelementptr inbounds %"class.extensions::ExtensionOptionsGuest", %"class.extensions::ExtensionOptionsGuest"* %0, i64 0, i32 0, i32 0, i32 12
  %25 = load i8, i8* %24, align 2, !range !7
  %26 = icmp eq i8 %25, 0
  br i1 %26, label %27, label %56

27:                                               ; preds = %23
  %28 = getelementptr inbounds %"class.extensions::ExtensionOptionsGuest", %"class.extensions::ExtensionOptionsGuest"* %0, i64 0, i32 0, i32 0, i32 2
  %29 = tail call %"class.content::WebContents"* @_ZNK7content19WebContentsObserver12web_contentsEv(%"class.content::WebContentsObserver"* %28) #10
  %30 = getelementptr inbounds %"class.content::WebContents", %"class.content::WebContents"* %29, i64 0, i32 1
  %31 = bitcast %"class.base::SupportsUserData.base"* %30 to %"class.base::SupportsUserData"*
  %32 = tail call %"class.base::SupportsUserData::Data"* @_ZNK4base16SupportsUserData11GetUserDataEPKv(%"class.base::SupportsUserData"* %31, i8* bitcast (i32* @_ZN4zoom14ZoomController12kUserDataKeyE to i8*)) #10
  %33 = icmp eq %"class.base::SupportsUserData::Data"* %32, null
  %34 = getelementptr inbounds %"class.base::SupportsUserData::Data", %"class.base::SupportsUserData::Data"* %32, i64 -2
  %35 = bitcast %"class.base::SupportsUserData::Data"* %34 to %"class.zoom::ZoomController"*
  %36 = select i1 %33, %"class.zoom::ZoomController"* null, %"class.zoom::ZoomController"* %35
  tail call void @_ZN4zoom14ZoomController11SetZoomModeENS0_8ZoomModeE(%"class.zoom::ZoomController"* %36, i32 1) #10
  tail call void @_ZN10guest_view13GuestViewBase32SetGuestZoomLevelToMatchEmbedderEv(%"class.guest_view::GuestViewBase"* %14) #10
  %37 = bitcast %"class.content::NavigationHandle"* %1 to %class.GURL* (%"class.content::NavigationHandle"*)***
  %38 = load %class.GURL* (%"class.content::NavigationHandle"*)**, %class.GURL* (%"class.content::NavigationHandle"*)*** %37, align 8
  %39 = getelementptr inbounds %class.GURL* (%"class.content::NavigationHandle"*)*, %class.GURL* (%"class.content::NavigationHandle"*)** %38, i64 4
  %40 = load %class.GURL* (%"class.content::NavigationHandle"*)*, %class.GURL* (%"class.content::NavigationHandle"*)** %39, align 8
  %41 = tail call dereferenceable(120) %class.GURL* %40(%"class.content::NavigationHandle"* %1) #10
  %42 = getelementptr inbounds %"class.extensions::ExtensionOptionsGuest", %"class.extensions::ExtensionOptionsGuest"* %0, i64 0, i32 2
  %43 = tail call zeroext i1 @_ZN3url16IsSameOriginWithERK4GURLS2_(%class.GURL* dereferenceable(120) %41, %class.GURL* dereferenceable(120) %42) #10
  br i1 %43, label %56, label %44

44:                                               ; preds = %27
  %45 = tail call %"class.content::WebContents"* @_ZNK7content19WebContentsObserver12web_contentsEv(%"class.content::WebContentsObserver"* %28) #10
  %46 = bitcast %"class.content::WebContents"* %45 to %"class.content::RenderFrameHost"* (%"class.content::WebContents"*)***
  %47 = load %"class.content::RenderFrameHost"* (%"class.content::WebContents"*)**, %"class.content::RenderFrameHost"* (%"class.content::WebContents"*)*** %46, align 8
  %48 = getelementptr inbounds %"class.content::RenderFrameHost"* (%"class.content::WebContents"*)*, %"class.content::RenderFrameHost"* (%"class.content::WebContents"*)** %47, i64 10
  %49 = load %"class.content::RenderFrameHost"* (%"class.content::WebContents"*)*, %"class.content::RenderFrameHost"* (%"class.content::WebContents"*)** %48, align 8
  %50 = tail call %"class.content::RenderFrameHost"* %49(%"class.content::WebContents"* %45) #10
  %51 = bitcast %"class.content::RenderFrameHost"* %50 to %"class.content::RenderProcessHost"* (%"class.content::RenderFrameHost"*)***
  %52 = load %"class.content::RenderProcessHost"* (%"class.content::RenderFrameHost"*)**, %"class.content::RenderProcessHost"* (%"class.content::RenderFrameHost"*)*** %51, align 8
  %53 = getelementptr inbounds %"class.content::RenderProcessHost"* (%"class.content::RenderFrameHost"*)*, %"class.content::RenderProcessHost"* (%"class.content::RenderFrameHost"*)** %52, i64 14
  %54 = load %"class.content::RenderProcessHost"* (%"class.content::RenderFrameHost"*)*, %"class.content::RenderProcessHost"* (%"class.content::RenderFrameHost"*)** %53, align 8
  %55 = tail call %"class.content::RenderProcessHost"* %54(%"class.content::RenderFrameHost"* %50) #10
  tail call void @_ZN10extensions11bad_message18ReceivedBadMessageEPN7content17RenderProcessHostENS0_16BadMessageReasonE(%"class.content::RenderProcessHost"* %55, i32 0) #10
  br label %56

56:                                               ; preds = %13, %19, %27, %44, %2, %8, %23
  ret void
}

declare void @_ZN4zoom14ZoomController11SetZoomModeENS0_8ZoomModeE(%"class.zoom::ZoomController"*, i32) local_unnamed_addr #1

declare void @_ZN10guest_view13GuestViewBase32SetGuestZoomLevelToMatchEmbedderEv(%"class.guest_view::GuestViewBase"*) local_unnamed_addr #1

declare zeroext i1 @_ZN3url16IsSameOriginWithERK4GURLS2_(%class.GURL* dereferenceable(120), %class.GURL* dereferenceable(120)) local_unnamed_addr #1

declare void @_ZN10extensions11bad_message18ReceivedBadMessageEPN7content17RenderProcessHostENS0_16BadMessageReasonE(%"class.content::RenderProcessHost"*, i32) local_unnamed_addr #1

; Function Attrs: nounwind ssp uwtable
define hidden void @_ZThn40_N10extensions21ExtensionOptionsGuest19DidFinishNavigationEPN7content16NavigationHandleE(%"class.extensions::ExtensionOptionsGuest"*, %"class.content::NavigationHandle"*) unnamed_addr #0 align 2 {
  %3 = getelementptr inbounds %"class.extensions::ExtensionOptionsGuest", %"class.extensions::ExtensionOptionsGuest"* %0, i64 -1, i32 2, i32 2, i32 6
  %4 = bitcast %"struct.url::Component"* %3 to %"class.extensions::ExtensionOptionsGuest"*
  tail call void @_ZN10extensions21ExtensionOptionsGuest19DidFinishNavigationEPN7content16NavigationHandleE(%"class.extensions::ExtensionOptionsGuest"* %4, %"class.content::NavigationHandle"* %1)
  ret void
}

declare %"class.content::WebContents"* @_ZN10guest_view13GuestViewBase20CreateNewGuestWindowERKN7content11WebContents12CreateParamsE(%"class.guest_view::GuestViewBase"*, %"struct.content::WebContents::CreateParams"* dereferenceable(232)) unnamed_addr #1

declare %"class.content::WebContents"* @_ZN10guest_view13GuestViewBase19GetOwnerWebContentsEv(%"class.guest_view::GuestViewBase"*) unnamed_addr #1

declare void @_ZN10guest_view13GuestViewBase12SetGuestHostEPN7content9GuestHostE(%"class.guest_view::GuestViewBase"*, %"class.content::GuestHost"*) unnamed_addr #1

; Function Attrs: nounwind ssp uwtable
define linkonce_odr hidden i8* @_ZNK10guest_view9GuestViewIN10extensions21ExtensionOptionsGuestEE11GetViewTypeEv(%"class.guest_view::GuestView"*) unnamed_addr #0 comdat align 2 {
  ret i8* getelementptr inbounds ([17 x i8], [17 x i8]* @_ZN10extensions21ExtensionOptionsGuest4TypeE, i64 0, i64 0)
}

declare zeroext i1 @_ZNK10guest_view13GuestViewBase19IsAutoSizeSupportedEv(%"class.guest_view::GuestViewBase"*) unnamed_addr #1

declare zeroext i1 @_ZNK10guest_view13GuestViewBase33ZoomPropagatesFromEmbedderToGuestEv(%"class.guest_view::GuestViewBase"*) unnamed_addr #1

declare zeroext i1 @_ZNK10guest_view13GuestViewBase21ShouldDestroyOnDetachEv(%"class.guest_view::GuestViewBase"*) unnamed_addr #1

declare %"class.content::RenderWidgetHost"* @_ZN10guest_view13GuestViewBase24GetOwnerRenderWidgetHostEv(%"class.guest_view::GuestViewBase"*) unnamed_addr #1

declare %"class.content::SiteInstance"* @_ZN10guest_view13GuestViewBase20GetOwnerSiteInstanceEv(%"class.guest_view::GuestViewBase"*) unnamed_addr #1

declare zeroext i1 @_ZN10guest_view13GuestViewBase37CanBeEmbeddedInsideCrossProcessFramesEv(%"class.guest_view::GuestViewBase"*) unnamed_addr #1

declare void @_ZN10guest_view13GuestViewBase24OnRenderFrameHostDeletedEii(%"class.guest_view::GuestViewBase"*, i32, i32) unnamed_addr #1

declare zeroext i1 @_ZN10guest_view13GuestViewBase19HandleKeyboardEventEPN7content11WebContentsERKNS1_22NativeWebKeyboardEventE(%"class.guest_view::GuestViewBase"*, %"class.content::WebContents"*, %"struct.content::NativeWebKeyboardEvent"*) unnamed_addr #1

declare zeroext i1 @_ZN10guest_view13GuestViewBase21PreHandleGestureEventEPN7content11WebContentsERKN5blink15WebGestureEventE(%"class.guest_view::GuestViewBase"*, %"class.content::WebContents"*, %"class.blink::WebGestureEvent"*) unnamed_addr #1

declare %"class.content::WebContents"* @_ZN10guest_view13GuestViewBase25GetResponsibleWebContentsEPN7content11WebContentsE(%"class.guest_view::GuestViewBase"*, %"class.content::WebContents"*) unnamed_addr #1

; Function Attrs: nounwind ssp uwtable
define linkonce_odr hidden void @_ZN10guest_view13GuestViewBase19DidAttachToEmbedderEv(%"class.guest_view::GuestViewBase"*) unnamed_addr #0 comdat align 2 {
  ret void
}

; Function Attrs: nounwind ssp uwtable
define linkonce_odr hidden void @_ZN10guest_view13GuestViewBase25EmbedderFullscreenToggledEb(%"class.guest_view::GuestViewBase"*, i1 zeroext) unnamed_addr #0 comdat align 2 {
  ret void
}

; Function Attrs: nounwind ssp uwtable
define linkonce_odr hidden void @_ZN10guest_view13GuestViewBase14GuestDestroyedEv(%"class.guest_view::GuestViewBase"*) unnamed_addr #0 comdat align 2 {
  ret void
}

; Function Attrs: nounwind ssp uwtable
define linkonce_odr hidden void @_ZN10guest_view13GuestViewBase10GuestReadyEv(%"class.guest_view::GuestViewBase"*) unnamed_addr #0 comdat align 2 {
  ret void
}

; Function Attrs: nounwind ssp uwtable
define linkonce_odr hidden void @_ZN10guest_view13GuestViewBase16GuestZoomChangedEdd(%"class.guest_view::GuestViewBase"*, double, double) unnamed_addr #0 comdat align 2 {
  ret void
}

; Function Attrs: nounwind ssp uwtable
define linkonce_odr hidden void @_ZN10guest_view13GuestViewBase29GuestSizeChangedDueToAutoSizeERKN3gfx4SizeES4_(%"class.guest_view::GuestViewBase"*, %"class.gfx::Size"* dereferenceable(8), %"class.gfx::Size"* dereferenceable(8)) unnamed_addr #0 comdat align 2 {
  ret void
}

declare void @_ZN10guest_view13GuestViewBase15SignalWhenReadyEN4base12OnceCallbackIFvvEEE(%"class.guest_view::GuestViewBase"*, %"class.base::OnceCallback.284"*) unnamed_addr #1

; Function Attrs: nounwind ssp uwtable
define linkonce_odr hidden void @_ZN10guest_view13GuestViewBase20WillAttachToEmbedderEv(%"class.guest_view::GuestViewBase"*) unnamed_addr #0 comdat align 2 {
  ret void
}

; Function Attrs: nounwind ssp uwtable
define linkonce_odr hidden void @_ZN10guest_view13GuestViewBase11WillDestroyEv(%"class.guest_view::GuestViewBase"*) unnamed_addr #0 comdat align 2 {
  ret void
}

declare void @_ZN10guest_view13GuestViewBase16ActivateContentsEPN7content11WebContentsE(%"class.guest_view::GuestViewBase"*, %"class.content::WebContents"*) unnamed_addr #1

declare void @_ZN10guest_view13GuestViewBase18ContentsMouseEventEPN7content11WebContentsEbb(%"class.guest_view::GuestViewBase"*, %"class.content::WebContents"*, i1 zeroext, i1 zeroext) unnamed_addr #1

declare void @_ZN10guest_view13GuestViewBase18ContentsZoomChangeEb(%"class.guest_view::GuestViewBase"*, i1 zeroext) unnamed_addr #1

declare void @_ZN10guest_view13GuestViewBase19LoadingStateChangedEPN7content11WebContentsEb(%"class.guest_view::GuestViewBase"*, %"class.content::WebContents"*, i1 zeroext) unnamed_addr #1

declare %"class.content::ColorChooser"* @_ZN10guest_view13GuestViewBase16OpenColorChooserEPN7content11WebContentsEjRKNSt3__16vectorIN4mojo16InlinedStructPtrIN5blink5mojom15ColorSuggestionEEENS4_9allocatorISB_EEEE(%"class.guest_view::GuestViewBase"*, %"class.content::WebContents"*, i32, %"class.std::__1::vector.285"*) unnamed_addr #1

declare void @_ZN10guest_view13GuestViewBase21ResizeDueToAutoResizeEPN7content11WebContentsERKN3gfx4SizeE(%"class.guest_view::GuestViewBase"*, %"class.content::WebContents"*, %"class.gfx::Size"* dereferenceable(8)) unnamed_addr #1

declare void @_ZN10guest_view13GuestViewBase14RunFileChooserEPN7content15RenderFrameHostE13scoped_refptrINS1_18FileSelectListenerEERKN5blink5mojom17FileChooserParamsE() unnamed_addr

declare zeroext i1 @_ZN10guest_view13GuestViewBase25ShouldFocusPageAfterCrashEv(%"class.guest_view::GuestViewBase"*) unnamed_addr #1

declare void @_ZN10guest_view13GuestViewBase19UpdatePreferredSizeEPN7content11WebContentsERKN3gfx4SizeE(%"class.guest_view::GuestViewBase"*, %"class.content::WebContents"*, %"class.gfx::Size"* dereferenceable(8)) unnamed_addr #1

declare void @_ZN10guest_view13GuestViewBase15UpdateTargetURLEPN7content11WebContentsERK4GURL(%"class.guest_view::GuestViewBase"*, %"class.content::WebContents"*, %class.GURL* dereferenceable(120)) unnamed_addr #1

declare zeroext i1 @_ZN10guest_view13GuestViewBase36ShouldResumeRequestsForCreatedWindowEv(%"class.guest_view::GuestViewBase"*) unnamed_addr #1

declare void @_ZN10guest_view13GuestViewBase14DidStopLoadingEv(%"class.guest_view::GuestViewBase"*) unnamed_addr #1

declare void @_ZN10guest_view13GuestViewBase15RenderViewReadyEv(%"class.guest_view::GuestViewBase"*) unnamed_addr #1

declare void @_ZN10guest_view13GuestViewBase20WebContentsDestroyedEv(%"class.guest_view::GuestViewBase"*) unnamed_addr #1

declare void @_ZN10guest_view13GuestViewBase13OnZoomChangedERKN4zoom14ZoomController20ZoomChangedEventDataE(%"class.guest_view::GuestViewBase"*, %"struct.zoom::ZoomController::ZoomChangedEventData"* dereferenceable(32)) unnamed_addr #1

declare zeroext i1 @_ZN7content19WebContentsDelegate24ShouldTransferNavigationEb(%"class.content::WebContentsDelegate"*, i1 zeroext) unnamed_addr #1

; Function Attrs: nounwind ssp uwtable
define linkonce_odr hidden void @_ZN7content19WebContentsDelegate22NavigationStateChangedEPNS_11WebContentsENS_15InvalidateTypesE(%"class.content::WebContentsDelegate"*, %"class.content::WebContents"*, i32) unnamed_addr #0 comdat align 2 {
  ret void
}

; Function Attrs: nounwind ssp uwtable
define linkonce_odr hidden void @_ZN7content19WebContentsDelegate27VisibleSecurityStateChangedEPNS_11WebContentsE(%"class.content::WebContentsDelegate"*, %"class.content::WebContents"*) unnamed_addr #0 comdat align 2 {
  ret void
}

; Function Attrs: nounwind ssp uwtable
declare void @_ZThn8_N10guest_view13GuestViewBase16ActivateContentsEPN7content11WebContentsE(%"class.guest_view::GuestViewBase"*, %"class.content::WebContents"*) unnamed_addr #0 align 2

; Function Attrs: nounwind ssp uwtable
declare void @_ZThn8_N10guest_view13GuestViewBase19LoadingStateChangedEPN7content11WebContentsEb(%"class.guest_view::GuestViewBase"*, %"class.content::WebContents"*, i1 zeroext) unnamed_addr #0 align 2

; Function Attrs: nounwind ssp uwtable
define linkonce_odr hidden void @_ZN7content19WebContentsDelegate17SetContentsBoundsEPNS_11WebContentsERKN3gfx4RectE(%"class.content::WebContentsDelegate"*, %"class.content::WebContents"*, %"class.gfx::Rect"* dereferenceable(16)) unnamed_addr #0 comdat align 2 {
  ret void
}

; Function Attrs: nounwind ssp uwtable
declare void @_ZThn8_N10guest_view13GuestViewBase15UpdateTargetURLEPN7content11WebContentsERK4GURL(%"class.guest_view::GuestViewBase"*, %"class.content::WebContents"*, %class.GURL* dereferenceable(120)) unnamed_addr #0 align 2

; Function Attrs: nounwind ssp uwtable
declare void @_ZThn8_N10guest_view13GuestViewBase18ContentsMouseEventEPN7content11WebContentsEbb(%"class.guest_view::GuestViewBase"*, %"class.content::WebContents"*, i1 zeroext, i1 zeroext) unnamed_addr #0 align 2

; Function Attrs: nounwind ssp uwtable
declare void @_ZThn8_N10guest_view13GuestViewBase18ContentsZoomChangeEb(%"class.guest_view::GuestViewBase"*, i1 zeroext) unnamed_addr #0 align 2

declare zeroext i1 @_ZN7content19WebContentsDelegate20CanOverscrollContentEv(%"class.content::WebContentsDelegate"*) unnamed_addr #1

; Function Attrs: nounwind ssp uwtable
define linkonce_odr hidden void @_ZN7content19WebContentsDelegate26WillRunBeforeUnloadConfirmEv(%"class.content::WebContentsDelegate"*) unnamed_addr #0 comdat align 2 {
  ret void
}

declare zeroext i1 @_ZN7content19WebContentsDelegate21ShouldSuppressDialogsEPNS_11WebContentsE(%"class.content::WebContentsDelegate"*, %"class.content::WebContents"*) unnamed_addr #1

declare zeroext i1 @_ZN7content19WebContentsDelegate25ShouldPreserveAbortedURLsEPNS_11WebContentsE(%"class.content::WebContentsDelegate"*, %"class.content::WebContents"*) unnamed_addr #1

declare zeroext i1 @_ZN7content19WebContentsDelegate22DidAddMessageToConsoleEPNS_11WebContentsEN5blink5mojom19ConsoleMessageLevelERKNSt3__112basic_stringIDsNS6_11char_traitsIDsEENS6_9allocatorIDsEEEEiSE_(%"class.content::WebContentsDelegate"*, %"class.content::WebContents"*, i32, %"class.std::__1::basic_string.286"* dereferenceable(24), i32, %"class.std::__1::basic_string.286"* dereferenceable(24)) unnamed_addr #1

declare void @_ZN7content19WebContentsDelegate17BeforeUnloadFiredEPNS_11WebContentsEbPb(%"class.content::WebContentsDelegate"*, %"class.content::WebContents"*, i1 zeroext, i8*) unnamed_addr #1

declare zeroext i1 @_ZN7content19WebContentsDelegate31ShouldFocusLocationBarByDefaultEPNS_11WebContentsE(%"class.content::WebContentsDelegate"*, %"class.content::WebContents"*) unnamed_addr #1

; Function Attrs: nounwind ssp uwtable
define linkonce_odr hidden void @_ZN7content19WebContentsDelegate21SetFocusToLocationBarEv(%"class.content::WebContentsDelegate"*) unnamed_addr #0 comdat align 2 {
  ret void
}

; Function Attrs: nounwind ssp uwtable
declare zeroext i1 @_ZThn8_N10guest_view13GuestViewBase25ShouldFocusPageAfterCrashEv(%"class.guest_view::GuestViewBase"*) unnamed_addr #0 align 2

; Function Attrs: nounwind ssp uwtable
declare zeroext i1 @_ZThn8_N10guest_view13GuestViewBase36ShouldResumeRequestsForCreatedWindowEv(%"class.guest_view::GuestViewBase"*) unnamed_addr #0 align 2

declare zeroext i1 @_ZN7content19WebContentsDelegate9TakeFocusEPNS_11WebContentsEb(%"class.content::WebContentsDelegate"*, %"class.content::WebContents"*, i1 zeroext) unnamed_addr #1

; Function Attrs: nounwind ssp uwtable
define linkonce_odr hidden void @_ZN7content19WebContentsDelegate11LostCaptureEv(%"class.content::WebContentsDelegate"*) unnamed_addr #0 comdat align 2 {
  ret void
}

declare void @_ZN7content19WebContentsDelegate11CanDownloadERK4GURLRKNSt3__112basic_stringIcNS4_11char_traitsIcEENS4_9allocatorIcEEEEN4base12OnceCallbackIFvbEEE() unnamed_addr

declare i32 @_ZN7content19WebContentsDelegate22PreHandleKeyboardEventEPNS_11WebContentsERKNS_22NativeWebKeyboardEventE(%"class.content::WebContentsDelegate"*, %"class.content::WebContents"*, %"struct.content::NativeWebKeyboardEvent"*) unnamed_addr #1

; Function Attrs: nounwind ssp uwtable
declare zeroext i1 @_ZThn8_N10guest_view13GuestViewBase19HandleKeyboardEventEPN7content11WebContentsERKNS1_22NativeWebKeyboardEventE(%"class.guest_view::GuestViewBase"*, %"class.content::WebContents"*, %"struct.content::NativeWebKeyboardEvent"*) unnamed_addr #0 align 2

; Function Attrs: nounwind ssp uwtable
declare zeroext i1 @_ZThn8_N10guest_view13GuestViewBase21PreHandleGestureEventEPN7content11WebContentsERKN5blink15WebGestureEventE(%"class.guest_view::GuestViewBase"*, %"class.content::WebContents"*, %"class.blink::WebGestureEvent"*) unnamed_addr #0 align 2

declare zeroext i1 @_ZN7content19WebContentsDelegate12CanDragEnterEPNS_11WebContentsERKNS_8DropDataEN5blink18DragOperationsMaskE(%"class.content::WebContentsDelegate"*, %"class.content::WebContents"*, %"struct.content::DropData"* dereferenceable(696), i32) unnamed_addr #1

; Function Attrs: nounwind ssp uwtable
define linkonce_odr hidden void @_ZN7content19WebContentsDelegate27ShowRepostFormWarningDialogEPNS_11WebContentsE(%"class.content::WebContentsDelegate"*, %"class.content::WebContents"*) unnamed_addr #0 comdat align 2 {
  ret void
}

declare zeroext i1 @_ZN7content19WebContentsDelegate17OnGoToEntryOffsetEi(%"class.content::WebContentsDelegate"*, i32) unnamed_addr #1

; Function Attrs: nounwind ssp uwtable
define linkonce_odr hidden void @_ZN7content19WebContentsDelegate18WebContentsCreatedEPNS_11WebContentsEiiRKNSt3__112basic_stringIcNS3_11char_traitsIcEENS3_9allocatorIcEEEERK4GURLS2_(%"class.content::WebContentsDelegate"*, %"class.content::WebContents"*, i32, i32, %"class.std::__1::basic_string"* dereferenceable(24), %class.GURL* dereferenceable(120), %"class.content::WebContents"*) unnamed_addr #0 comdat align 2 {
  ret void
}

; Function Attrs: nounwind ssp uwtable
define linkonce_odr hidden void @_ZN7content19WebContentsDelegate24PortalWebContentsCreatedEPNS_11WebContentsE(%"class.content::WebContentsDelegate"*, %"class.content::WebContents"*) unnamed_addr #0 comdat align 2 {
  ret void
}

; Function Attrs: nounwind ssp uwtable
define linkonce_odr hidden void @_ZN7content19WebContentsDelegate23WebContentsBecamePortalEPNS_11WebContentsE(%"class.content::WebContentsDelegate"*, %"class.content::WebContents"*) unnamed_addr #0 comdat align 2 {
  ret void
}

; Function Attrs: nounwind ssp uwtable
define linkonce_odr hidden void @_ZN7content19WebContentsDelegate20RendererUnresponsiveEPNS_11WebContentsEPNS_16RenderWidgetHostEN4base17RepeatingCallbackIFvvEEE(%"class.content::WebContentsDelegate"*, %"class.content::WebContents"*, %"class.content::RenderWidgetHost"*, %"class.base::RepeatingCallback"*) unnamed_addr #0 comdat align 2 {
  ret void
}

; Function Attrs: nounwind ssp uwtable
define linkonce_odr hidden void @_ZN7content19WebContentsDelegate18RendererResponsiveEPNS_11WebContentsEPNS_16RenderWidgetHostE(%"class.content::WebContentsDelegate"*, %"class.content::WebContents"*, %"class.content::RenderWidgetHost"*) unnamed_addr #0 comdat align 2 {
  ret void
}

; Function Attrs: nounwind ssp uwtable
define linkonce_odr hidden void @_ZN7content19WebContentsDelegate30DidNavigateMainFramePostCommitEPNS_11WebContentsE(%"class.content::WebContentsDelegate"*, %"class.content::WebContents"*) unnamed_addr #0 comdat align 2 {
  ret void
}

declare %"class.content::JavaScriptDialogManager"* @_ZN7content19WebContentsDelegate26GetJavaScriptDialogManagerEPNS_11WebContentsE(%"class.content::WebContentsDelegate"*, %"class.content::WebContents"*) unnamed_addr #1

; Function Attrs: nounwind ssp uwtable
declare %"class.content::ColorChooser"* @_ZThn8_N10guest_view13GuestViewBase16OpenColorChooserEPN7content11WebContentsEjRKNSt3__16vectorIN4mojo16InlinedStructPtrIN5blink5mojom15ColorSuggestionEEENS4_9allocatorISB_EEEE(%"class.guest_view::GuestViewBase"*, %"class.content::WebContents"*, i32, %"class.std::__1::vector.285"*) unnamed_addr #0 align 2

declare void @_ZN7content19WebContentsDelegate14OpenEyeDropperEPNS_15RenderFrameHostEPNS_18EyeDropperListenerE() unnamed_addr

declare void @_ZThn8_N10guest_view13GuestViewBase14RunFileChooserEPN7content15RenderFrameHostE13scoped_refptrINS1_18FileSelectListenerEERKN5blink5mojom17FileChooserParamsE() unnamed_addr

declare void @_ZN7content19WebContentsDelegate18EnumerateDirectoryEPNS_11WebContentsE13scoped_refptrINS_18FileSelectListenerEERKN4base8FilePathE() unnamed_addr

declare void @_ZN7content19WebContentsDelegate15CreateSmsPromptEPNS_15RenderFrameHostERKNSt3__16vectorIN3url6OriginENS3_9allocatorIS6_EEEERKNS3_12basic_stringIcNS3_11char_traitsIcEENS7_IcEEEEN4base12OnceCallbackIFvvEEESM_(%"class.content::WebContentsDelegate"*, %"class.content::RenderFrameHost"*, %"class.std::__1::vector.340"* dereferenceable(24), %"class.std::__1::basic_string"* dereferenceable(24), %"class.base::OnceCallback.284"*, %"class.base::OnceCallback.284"*) unnamed_addr #1

; Function Attrs: nounwind ssp uwtable
define linkonce_odr hidden void @_ZN7content19WebContentsDelegate25EnterFullscreenModeForTabEPNS_15RenderFrameHostERKN5blink5mojom17FullscreenOptionsE(%"class.content::WebContentsDelegate"*, %"class.content::RenderFrameHost"*, %"class.blink::mojom::FullscreenOptions"*) unnamed_addr #0 comdat align 2 {
  ret void
}

; Function Attrs: nounwind ssp uwtable
define linkonce_odr hidden void @_ZN7content19WebContentsDelegate28FullscreenStateChangedForTabEPNS_15RenderFrameHostERKN5blink5mojom17FullscreenOptionsE(%"class.content::WebContentsDelegate"*, %"class.content::RenderFrameHost"*, %"class.blink::mojom::FullscreenOptions"*) unnamed_addr #0 comdat align 2 {
  ret void
}

; Function Attrs: nounwind ssp uwtable
define linkonce_odr hidden void @_ZN7content19WebContentsDelegate24ExitFullscreenModeForTabEPNS_11WebContentsE(%"class.content::WebContentsDelegate"*, %"class.content::WebContents"*) unnamed_addr #0 comdat align 2 {
  ret void
}

declare zeroext i1 @_ZN7content19WebContentsDelegate27IsFullscreenForTabOrPendingEPKNS_11WebContentsE(%"class.content::WebContentsDelegate"*, %"class.content::WebContents"*) unnamed_addr #1

declare i32 @_ZN7content19WebContentsDelegate14GetDisplayModeEPKNS_11WebContentsE(%"class.content::WebContentsDelegate"*, %"class.content::WebContents"*) unnamed_addr #1

declare i32 @_ZN7content19WebContentsDelegate31GetProtocolHandlerSecurityLevelEPNS_15RenderFrameHostE(%"class.content::WebContentsDelegate"*, %"class.content::RenderFrameHost"*) unnamed_addr #1

; Function Attrs: nounwind ssp uwtable
define linkonce_odr hidden void @_ZN7content19WebContentsDelegate23RegisterProtocolHandlerEPNS_15RenderFrameHostERKNSt3__112basic_stringIcNS3_11char_traitsIcEENS3_9allocatorIcEEEERK4GURLb(%"class.content::WebContentsDelegate"*, %"class.content::RenderFrameHost"*, %"class.std::__1::basic_string"* dereferenceable(24), %class.GURL* dereferenceable(120), i1 zeroext) unnamed_addr #0 comdat align 2 {
  ret void
}

; Function Attrs: nounwind ssp uwtable
define linkonce_odr hidden void @_ZN7content19WebContentsDelegate25UnregisterProtocolHandlerEPNS_15RenderFrameHostERKNSt3__112basic_stringIcNS3_11char_traitsIcEENS3_9allocatorIcEEEERK4GURLb(%"class.content::WebContentsDelegate"*, %"class.content::RenderFrameHost"*, %"class.std::__1::basic_string"* dereferenceable(24), %class.GURL* dereferenceable(120), i1 zeroext) unnamed_addr #0 comdat align 2 {
  ret void
}

; Function Attrs: nounwind ssp uwtable
define linkonce_odr hidden void @_ZN7content19WebContentsDelegate9FindReplyEPNS_11WebContentsEiiRKN3gfx4RectEib(%"class.content::WebContentsDelegate"*, %"class.content::WebContents"*, i32, i32, %"class.gfx::Rect"* dereferenceable(16), i32, i1 zeroext) unnamed_addr #0 comdat align 2 {
  ret void
}

; Function Attrs: nounwind ssp uwtable
declare void @_ZThn8_N10guest_view13GuestViewBase19UpdatePreferredSizeEPN7content11WebContentsERKN3gfx4SizeE(%"class.guest_view::GuestViewBase"*, %"class.content::WebContents"*, %"class.gfx::Size"* dereferenceable(8)) unnamed_addr #0 align 2

; Function Attrs: nounwind ssp uwtable
declare void @_ZThn8_N10guest_view13GuestViewBase21ResizeDueToAutoResizeEPN7content11WebContentsERKN3gfx4SizeE(%"class.guest_view::GuestViewBase"*, %"class.content::WebContents"*, %"class.gfx::Size"* dereferenceable(8)) unnamed_addr #0 align 2

declare void @_ZN7content19WebContentsDelegate18RequestToLockMouseEPNS_11WebContentsEbb(%"class.content::WebContentsDelegate"*, %"class.content::WebContents"*, i1 zeroext, i1 zeroext) unnamed_addr #1

; Function Attrs: nounwind ssp uwtable
define linkonce_odr hidden void @_ZN7content19WebContentsDelegate13LostMouseLockEv(%"class.content::WebContentsDelegate"*) unnamed_addr #0 comdat align 2 {
  ret void
}

declare void @_ZN7content19WebContentsDelegate19RequestKeyboardLockEPNS_11WebContentsEb(%"class.content::WebContentsDelegate"*, %"class.content::WebContents"*, i1 zeroext) unnamed_addr #1

; Function Attrs: nounwind ssp uwtable
define linkonce_odr hidden void @_ZN7content19WebContentsDelegate25CancelKeyboardLockRequestEPNS_11WebContentsE(%"class.content::WebContentsDelegate"*, %"class.content::WebContents"*) unnamed_addr #0 comdat align 2 {
  ret void
}

declare void @_ZN7content19WebContentsDelegate28RequestMediaAccessPermissionEPNS_11WebContentsERKNS_18MediaStreamRequestEN4base12OnceCallbackIFvRKNSt3__16vectorIN5blink17MediaStreamDeviceENS8_9allocatorISB_EEEENSA_5mojom24MediaStreamRequestResultENS8_10unique_ptrINS_13MediaStreamUIENS8_14default_deleteISK_EEEEEEE() unnamed_addr

declare zeroext i1 @_ZN7content19WebContentsDelegate26CheckMediaAccessPermissionEPNS_15RenderFrameHostERK4GURLN5blink5mojom15MediaStreamTypeE(%"class.content::WebContentsDelegate"*, %"class.content::RenderFrameHost"*, %class.GURL* dereferenceable(120), i32) unnamed_addr #1

declare void @_ZN7content19WebContentsDelegate23GetDefaultMediaDeviceIDEPNS_11WebContentsEN5blink5mojom15MediaStreamTypeE(%"class.std::__1::basic_string"* sret, %"class.content::WebContentsDelegate"*, %"class.content::WebContents"*, i32) unnamed_addr #1

declare i64 @_ZN7content19WebContentsDelegate23GetSizeForNewRenderViewEPNS_11WebContentsE(%"class.content::WebContentsDelegate"*, %"class.content::WebContents"*) unnamed_addr #1

declare zeroext i1 @_ZN7content19WebContentsDelegate17IsNeverCompositedEPNS_11WebContentsE(%"class.content::WebContentsDelegate"*, %"class.content::WebContents"*) unnamed_addr #1

declare zeroext i1 @_ZN7content19WebContentsDelegate14GuestSaveFrameEPNS_11WebContentsE(%"class.content::WebContentsDelegate"*, %"class.content::WebContents"*) unnamed_addr #1

declare zeroext i1 @_ZN7content19WebContentsDelegate9SaveFrameERK4GURLRKNS_8ReferrerEPNS_15RenderFrameHostE(%"class.content::WebContentsDelegate"*, %class.GURL* dereferenceable(120), %"struct.content::Referrer"* dereferenceable(128), %"class.content::RenderFrameHost"*) unnamed_addr #1

declare i32 @_ZN7content19WebContentsDelegate16GetSecurityStyleEPNS_11WebContentsEPNS_25SecurityStyleExplanationsE(%"class.content::WebContentsDelegate"*, %"class.content::WebContents"*, %"struct.content::SecurityStyleExplanations"*) unnamed_addr #1

; Function Attrs: nounwind ssp uwtable
define linkonce_odr hidden void @_ZN7content19WebContentsDelegate20OnDidBlockNavigationEPNS_11WebContentsERK4GURLS5_N5blink5mojom23NavigationBlockedReasonE(%"class.content::WebContentsDelegate"*, %"class.content::WebContents"*, %class.GURL* dereferenceable(120), %class.GURL* dereferenceable(120), i32) unnamed_addr #0 comdat align 2 {
  ret void
}

; Function Attrs: nounwind ssp uwtable
define linkonce_odr hidden void @_ZN7content19WebContentsDelegate27PassiveInsecureContentFoundERK4GURL(%"class.content::WebContentsDelegate"*, %class.GURL* dereferenceable(120)) unnamed_addr #0 comdat align 2 {
  ret void
}

declare zeroext i1 @_ZN7content19WebContentsDelegate33ShouldAllowRunningInsecureContentEPNS_11WebContentsEbRKN3url6OriginERK4GURL(%"class.content::WebContentsDelegate"*, %"class.content::WebContents"*, i1 zeroext, %"class.url::Origin"* dereferenceable(80), %class.GURL* dereferenceable(120)) unnamed_addr #1

; Function Attrs: nounwind ssp uwtable
define linkonce_odr hidden void @_ZN7content19WebContentsDelegate24SetTopControlsShownRatioEPNS_11WebContentsEf(%"class.content::WebContentsDelegate"*, %"class.content::WebContents"*, float) unnamed_addr #0 comdat align 2 {
  ret void
}

declare i32 @_ZN7content19WebContentsDelegate20GetTopControlsHeightEv(%"class.content::WebContentsDelegate"*) unnamed_addr #1

declare i32 @_ZN7content19WebContentsDelegate23GetTopControlsMinHeightEv(%"class.content::WebContentsDelegate"*) unnamed_addr #1

declare i32 @_ZN7content19WebContentsDelegate23GetBottomControlsHeightEv(%"class.content::WebContentsDelegate"*) unnamed_addr #1

declare i32 @_ZN7content19WebContentsDelegate26GetBottomControlsMinHeightEv(%"class.content::WebContentsDelegate"*) unnamed_addr #1

declare zeroext i1 @_ZN7content19WebContentsDelegate41ShouldAnimateBrowserControlsHeightChangesEv(%"class.content::WebContentsDelegate"*) unnamed_addr #1

declare zeroext i1 @_ZN7content19WebContentsDelegate35DoBrowserControlsShrinkRendererSizeEPNS_11WebContentsE(%"class.content::WebContentsDelegate"*, %"class.content::WebContents"*) unnamed_addr #1

declare zeroext i1 @_ZN7content19WebContentsDelegate30OnlyExpandTopControlsAtPageTopEv(%"class.content::WebContentsDelegate"*) unnamed_addr #1

; Function Attrs: nounwind ssp uwtable
define linkonce_odr hidden void @_ZN7content19WebContentsDelegate37SetTopControlsGestureScrollInProgressEb(%"class.content::WebContentsDelegate"*, i1 zeroext) unnamed_addr #0 comdat align 2 {
  ret void
}

; Function Attrs: nounwind ssp uwtable
define linkonce_odr hidden void @_ZN7content19WebContentsDelegate32AdjustPreviewsStateForNavigationEPNS_11WebContentsEPi(%"class.content::WebContentsDelegate"*, %"class.content::WebContents"*, i32*) unnamed_addr #0 comdat align 2 {
  ret void
}

; Function Attrs: nounwind ssp uwtable
define linkonce_odr hidden void @_ZNK7content19WebContentsDelegate25PrintCrossProcessSubframeEPNS_11WebContentsERKN3gfx4RectEiPNS_15RenderFrameHostE(%"class.content::WebContentsDelegate"*, %"class.content::WebContents"*, %"class.gfx::Rect"* dereferenceable(16), i32, %"class.content::RenderFrameHost"*) unnamed_addr #0 comdat align 2 {
  ret void
}

; Function Attrs: nounwind ssp uwtable
define linkonce_odr hidden void @_ZN7content19WebContentsDelegate29CapturePaintPreviewOfSubframeEPNS_11WebContentsERKN3gfx4RectERKN4base16UnguessableTokenEPNS_15RenderFrameHostE(%"class.content::WebContentsDelegate"*, %"class.content::WebContents"*, %"class.gfx::Rect"* dereferenceable(16), %"class.base::UnguessableToken"* dereferenceable(16), %"class.content::RenderFrameHost"*) unnamed_addr #0 comdat align 2 {
  ret void
}

declare i32 @_ZN7content19WebContentsDelegate21EnterPictureInPictureEPNS_11WebContentsERKN3viz9SurfaceIdERKN3gfx4SizeE(%"class.content::WebContentsDelegate"*, %"class.content::WebContents"*, %"class.viz::SurfaceId"*, %"class.gfx::Size"* dereferenceable(8)) unnamed_addr #1

; Function Attrs: nounwind ssp uwtable
define linkonce_odr hidden void @_ZN7content19WebContentsDelegate20ExitPictureInPictureEv(%"class.content::WebContentsDelegate"*) unnamed_addr #0 comdat align 2 {
  ret void
}

declare zeroext i1 @_ZN7content19WebContentsDelegate19ShouldAllowLazyLoadEv(%"class.content::WebContentsDelegate"*) unnamed_addr #1

declare zeroext i1 @_ZN7content19WebContentsDelegate27IsBackForwardCacheSupportedEv(%"class.content::WebContentsDelegate"*) unnamed_addr #1

declare %"class.content::WebContents"* @_ZN7content19WebContentsDelegate25ActivatePortalWebContentsEPNS_11WebContentsENSt3__110unique_ptrIS1_NS3_14default_deleteIS1_EEEE(%"class.content::WebContentsDelegate"*, %"class.content::WebContents"*, %"class.content::WebContents"*) unnamed_addr #1

declare void @_ZN7content19WebContentsDelegate37UpdateInspectedWebContentsIfNecessaryEPNS_11WebContentsES2_N4base12OnceCallbackIFvvEEE(%"class.content::WebContentsDelegate"*, %"class.content::WebContents"*, %"class.content::WebContents"*, %"class.base::OnceCallback.284"*) unnamed_addr #1

declare zeroext i1 @_ZN7content19WebContentsDelegate32ShouldShowStaleContentOnEvictionEPNS_11WebContentsE(%"class.content::WebContentsDelegate"*, %"class.content::WebContents"*) unnamed_addr #1

; Function Attrs: nounwind ssp uwtable
declare %"class.content::WebContents"* @_ZThn8_N10guest_view13GuestViewBase25GetResponsibleWebContentsEPN7content11WebContentsE(%"class.guest_view::GuestViewBase"*, %"class.content::WebContents"*) unnamed_addr #0 align 2

; Function Attrs: nounwind ssp uwtable
define linkonce_odr hidden void @_ZN7content19WebContentsDelegate21MediaWatchTimeChangedERKNS_20MediaPlayerWatchTimeE(%"class.content::WebContentsDelegate"*, %"struct.content::MediaPlayerWatchTime"*) unnamed_addr #0 comdat align 2 {
  ret void
}

declare %"class.device::mojom::GeolocationContext"* @_ZN7content19WebContentsDelegate36GetInstalledWebappGeolocationContextEv(%"class.content::WebContentsDelegate"*) unnamed_addr #1

declare void @_ZN7content19WebContentsDelegate18GetDelegateWeakPtrEv() unnamed_addr

declare zeroext i1 @_ZN7content19WebContentsObserver17OnMessageReceivedERKN3IPC7MessageE(%"class.content::WebContentsObserver"*, %"class.IPC::Message"* dereferenceable(56)) unnamed_addr #1

; Function Attrs: nounwind ssp uwtable
define linkonce_odr hidden void @_ZN3IPC8Listener18OnChannelConnectedEi(%"class.IPC::Listener"*, i32) unnamed_addr #0 comdat align 2 {
  ret void
}

; Function Attrs: nounwind ssp uwtable
define linkonce_odr hidden void @_ZN3IPC8Listener14OnChannelErrorEv(%"class.IPC::Listener"*) unnamed_addr #0 comdat align 2 {
  ret void
}

; Function Attrs: nounwind ssp uwtable
define linkonce_odr hidden void @_ZN3IPC8Listener20OnBadMessageReceivedERKNS_7MessageE(%"class.IPC::Listener"*, %"class.IPC::Message"* dereferenceable(56)) unnamed_addr #0 comdat align 2 {
  ret void
}

; Function Attrs: nounwind ssp uwtable
define linkonce_odr hidden void @_ZN3IPC8Listener28OnAssociatedInterfaceRequestERKNSt3__112basic_stringIcNS1_11char_traitsIcEENS1_9allocatorIcEEEEN4mojo29ScopedInterfaceEndpointHandleE(%"class.IPC::Listener"*, %"class.std::__1::basic_string"* dereferenceable(24), %"class.mojo::ScopedInterfaceEndpointHandle"*) unnamed_addr #0 comdat align 2 {
  ret void
}

; Function Attrs: nounwind ssp uwtable
define linkonce_odr hidden void @_ZN3IPC8Listener15OnChannelDeniedEv(%"class.IPC::Listener"*) unnamed_addr #0 comdat align 2 {
  ret void
}

; Function Attrs: nounwind ssp uwtable
define linkonce_odr hidden void @_ZN3IPC8Listener20OnChannelListenErrorEv(%"class.IPC::Listener"*) unnamed_addr #0 comdat align 2 {
  ret void
}

; Function Attrs: nounwind ssp uwtable
define linkonce_odr hidden void @_ZN7content19WebContentsObserver18RenderFrameCreatedEPNS_15RenderFrameHostE(%"class.content::WebContentsObserver"*, %"class.content::RenderFrameHost"*) unnamed_addr #0 comdat align 2 {
  ret void
}

; Function Attrs: nounwind ssp uwtable
define linkonce_odr hidden void @_ZN7content19WebContentsObserver18RenderFrameDeletedEPNS_15RenderFrameHostE(%"class.content::WebContentsObserver"*, %"class.content::RenderFrameHost"*) unnamed_addr #0 comdat align 2 {
  ret void
}

; Function Attrs: nounwind ssp uwtable
define linkonce_odr hidden void @_ZN7content19WebContentsObserver22RenderFrameHostChangedEPNS_15RenderFrameHostES2_(%"class.content::WebContentsObserver"*, %"class.content::RenderFrameHost"*, %"class.content::RenderFrameHost"*) unnamed_addr #0 comdat align 2 {
  ret void
}

; Function Attrs: nounwind ssp uwtable
define linkonce_odr hidden void @_ZN7content19WebContentsObserver12FrameDeletedEi(%"class.content::WebContentsObserver"*, i32) unnamed_addr #0 comdat align 2 {
  ret void
}

; Function Attrs: nounwind ssp uwtable
define linkonce_odr hidden void @_ZN7content19WebContentsObserver27RenderFrameHostStateChangedEPNS_15RenderFrameHostENS1_14LifecycleStateES3_(%"class.content::WebContentsObserver"*, %"class.content::RenderFrameHost"*, i32, i32) unnamed_addr #0 comdat align 2 {
  ret void
}

; Function Attrs: nounwind ssp uwtable
define linkonce_odr hidden void @_ZN7content19WebContentsObserver20CaptureTargetChangedEv(%"class.content::WebContentsObserver"*) unnamed_addr #0 comdat align 2 {
  ret void
}

; Function Attrs: nounwind ssp uwtable
define linkonce_odr hidden void @_ZN7content19WebContentsObserver27OnCaptureHandleConfigUpdateERKN5blink5mojom19CaptureHandleConfigE(%"class.content::WebContentsObserver"*, %"class.blink::mojom::CaptureHandleConfig"*) unnamed_addr #0 comdat align 2 {
  ret void
}

; Function Attrs: nounwind ssp uwtable
declare void @_ZThn40_N10guest_view13GuestViewBase15RenderViewReadyEv(%"class.guest_view::GuestViewBase"*) unnamed_addr #0 align 2

; Function Attrs: nounwind ssp uwtable
define linkonce_odr hidden void @_ZN7content19WebContentsObserver17RenderViewDeletedEPNS_14RenderViewHostE(%"class.content::WebContentsObserver"*, %"class.content::RenderViewHost"*) unnamed_addr #0 comdat align 2 {
  ret void
}

; Function Attrs: nounwind ssp uwtable
define linkonce_odr hidden void @_ZN7content19WebContentsObserver17RenderProcessGoneEN4base17TerminationStatusE(%"class.content::WebContentsObserver"*, i32) unnamed_addr #0 comdat align 2 {
  ret void
}

; Function Attrs: nounwind ssp uwtable
define linkonce_odr hidden void @_ZN7content19WebContentsObserver21RenderViewHostChangedEPNS_14RenderViewHostES2_(%"class.content::WebContentsObserver"*, %"class.content::RenderViewHost"*, %"class.content::RenderViewHost"*) unnamed_addr #0 comdat align 2 {
  ret void
}

; Function Attrs: nounwind ssp uwtable
define linkonce_odr hidden void @_ZN7content19WebContentsObserver22OnRendererUnresponsiveEPNS_17RenderProcessHostE(%"class.content::WebContentsObserver"*, %"class.content::RenderProcessHost"*) unnamed_addr #0 comdat align 2 {
  ret void
}

; Function Attrs: nounwind ssp uwtable
define linkonce_odr hidden void @_ZN7content19WebContentsObserver20OnRendererResponsiveEPNS_17RenderProcessHostE(%"class.content::WebContentsObserver"*, %"class.content::RenderProcessHost"*) unnamed_addr #0 comdat align 2 {
  ret void
}

; Function Attrs: nounwind ssp uwtable
define linkonce_odr hidden void @_ZN7content19WebContentsObserver18DidStartNavigationEPNS_16NavigationHandleE(%"class.content::WebContentsObserver"*, %"class.content::NavigationHandle"*) unnamed_addr #0 comdat align 2 {
  ret void
}

; Function Attrs: nounwind ssp uwtable
define linkonce_odr hidden void @_ZN7content19WebContentsObserver21DidRedirectNavigationEPNS_16NavigationHandleE(%"class.content::WebContentsObserver"*, %"class.content::NavigationHandle"*) unnamed_addr #0 comdat align 2 {
  ret void
}

; Function Attrs: nounwind ssp uwtable
define linkonce_odr hidden void @_ZN7content19WebContentsObserver23ReadyToCommitNavigationEPNS_16NavigationHandleE(%"class.content::WebContentsObserver"*, %"class.content::NavigationHandle"*) unnamed_addr #0 comdat align 2 {
  ret void
}

; Function Attrs: nounwind ssp uwtable
define linkonce_odr hidden void @_ZN7content19WebContentsObserver17DidActivatePortalEPNS_11WebContentsEN4base9TimeTicksE(%"class.content::WebContentsObserver"*, %"class.content::WebContents"*, i64) unnamed_addr #0 comdat align 2 {
  ret void
}

; Function Attrs: nounwind ssp uwtable
define linkonce_odr hidden void @_ZN7content19WebContentsObserver15DidStartLoadingEv(%"class.content::WebContentsObserver"*) unnamed_addr #0 comdat align 2 {
  ret void
}

; Function Attrs: nounwind ssp uwtable
define linkonce_odr hidden void @_ZN7content19WebContentsObserver18DidReceiveResponseEv(%"class.content::WebContentsObserver"*) unnamed_addr #0 comdat align 2 {
  ret void
}

; Function Attrs: nounwind ssp uwtable
declare void @_ZThn40_N10guest_view13GuestViewBase14DidStopLoadingEv(%"class.guest_view::GuestViewBase"*) unnamed_addr #0 align 2

; Function Attrs: nounwind ssp uwtable
define linkonce_odr hidden void @_ZN7content19WebContentsObserver19LoadProgressChangedEd(%"class.content::WebContentsObserver"*, double) unnamed_addr #0 comdat align 2 {
  ret void
}

; Function Attrs: nounwind ssp uwtable
define linkonce_odr hidden void @_ZN7content19WebContentsObserver28DocumentAvailableInMainFrameEPNS_15RenderFrameHostE(%"class.content::WebContentsObserver"*, %"class.content::RenderFrameHost"*) unnamed_addr #0 comdat align 2 {
  ret void
}

; Function Attrs: nounwind ssp uwtable
define linkonce_odr hidden void @_ZN7content19WebContentsObserver34DocumentOnLoadCompletedInMainFrameEPNS_15RenderFrameHostE(%"class.content::WebContentsObserver"*, %"class.content::RenderFrameHost"*) unnamed_addr #0 comdat align 2 {
  ret void
}

; Function Attrs: nounwind ssp uwtable
define linkonce_odr hidden void @_ZN7content19WebContentsObserver16DOMContentLoadedEPNS_15RenderFrameHostE(%"class.content::WebContentsObserver"*, %"class.content::RenderFrameHost"*) unnamed_addr #0 comdat align 2 {
  ret void
}

; Function Attrs: nounwind ssp uwtable
define linkonce_odr hidden void @_ZN7content19WebContentsObserver13DidFinishLoadEPNS_15RenderFrameHostERK4GURL(%"class.content::WebContentsObserver"*, %"class.content::RenderFrameHost"*, %class.GURL* dereferenceable(120)) unnamed_addr #0 comdat align 2 {
  ret void
}

; Function Attrs: nounwind ssp uwtable
define linkonce_odr hidden void @_ZN7content19WebContentsObserver11DidFailLoadEPNS_15RenderFrameHostERK4GURLi(%"class.content::WebContentsObserver"*, %"class.content::RenderFrameHost"*, %class.GURL* dereferenceable(120), i32) unnamed_addr #0 comdat align 2 {
  ret void
}

; Function Attrs: nounwind ssp uwtable
define linkonce_odr hidden void @_ZN7content19WebContentsObserver29DidChangeVisibleSecurityStateEv(%"class.content::WebContentsObserver"*) unnamed_addr #0 comdat align 2 {
  ret void
}

; Function Attrs: nounwind ssp uwtable
define linkonce_odr hidden void @_ZN7content19WebContentsObserver30DidLoadResourceFromMemoryCacheEPNS_15RenderFrameHostERK4GURLRKNSt3__112basic_stringIcNS6_11char_traitsIcEENS6_9allocatorIcEEEEN7network5mojom18RequestDestinationE(%"class.content::WebContentsObserver"*, %"class.content::RenderFrameHost"*, %class.GURL* dereferenceable(120), %"class.std::__1::basic_string"* dereferenceable(24), i32) unnamed_addr #0 comdat align 2 {
  ret void
}

; Function Attrs: nounwind ssp uwtable
define linkonce_odr hidden void @_ZN7content19WebContentsObserver20ResourceLoadCompleteEPNS_15RenderFrameHostERKNS_15GlobalRequestIDERKN5blink5mojom16ResourceLoadInfoE(%"class.content::WebContentsObserver"*, %"class.content::RenderFrameHost"*, %"struct.content::GlobalRequestID"* dereferenceable(8), %"class.blink::mojom::ResourceLoadInfo"*) unnamed_addr #0 comdat align 2 {
  ret void
}

; Function Attrs: nounwind ssp uwtable
define linkonce_odr hidden void @_ZN7content19WebContentsObserver17OnCookiesAccessedEPNS_15RenderFrameHostERKNS_19CookieAccessDetailsE(%"class.content::WebContentsObserver"*, %"class.content::RenderFrameHost"*, %"struct.content::CookieAccessDetails"* dereferenceable(280)) unnamed_addr #0 comdat align 2 {
  ret void
}

; Function Attrs: nounwind ssp uwtable
define linkonce_odr hidden void @_ZN7content19WebContentsObserver17OnCookiesAccessedEPNS_16NavigationHandleERKNS_19CookieAccessDetailsE(%"class.content::WebContentsObserver"*, %"class.content::NavigationHandle"*, %"struct.content::CookieAccessDetails"* dereferenceable(280)) unnamed_addr #0 comdat align 2 {
  ret void
}

; Function Attrs: nounwind ssp uwtable
define linkonce_odr hidden void @_ZN7content19WebContentsObserver24NavigationEntryCommittedERKNS_20LoadCommittedDetailsE(%"class.content::WebContentsObserver"*, %"struct.content::LoadCommittedDetails"*) unnamed_addr #0 comdat align 2 {
  ret void
}

; Function Attrs: nounwind ssp uwtable
define linkonce_odr hidden void @_ZN7content19WebContentsObserver20NavigationListPrunedERKNS_13PrunedDetailsE(%"class.content::WebContentsObserver"*, %"struct.content::PrunedDetails"*) unnamed_addr #0 comdat align 2 {
  ret void
}

; Function Attrs: nounwind ssp uwtable
define linkonce_odr hidden void @_ZN7content19WebContentsObserver24NavigationEntriesDeletedEv(%"class.content::WebContentsObserver"*) unnamed_addr #0 comdat align 2 {
  ret void
}

; Function Attrs: nounwind ssp uwtable
define linkonce_odr hidden void @_ZN7content19WebContentsObserver22NavigationEntryChangedERKNS_19EntryChangedDetailsE(%"class.content::WebContentsObserver"*, %"struct.content::EntryChangedDetails"*) unnamed_addr #0 comdat align 2 {
  ret void
}

; Function Attrs: nounwind ssp uwtable
define linkonce_odr hidden void @_ZN7content19WebContentsObserver19DidOpenRequestedURLEPNS_11WebContentsEPNS_15RenderFrameHostERK4GURLRKNS_8ReferrerE21WindowOpenDispositionN2ui14PageTransitionEbb(%"class.content::WebContentsObserver"*, %"class.content::WebContents"*, %"class.content::RenderFrameHost"*, %class.GURL* dereferenceable(120), %"struct.content::Referrer"* dereferenceable(128), i32, i32, i1 zeroext, i1 zeroext) unnamed_addr #0 comdat align 2 {
  ret void
}

; Function Attrs: nounwind ssp uwtable
define linkonce_odr hidden void @_ZN7content19WebContentsObserver29DidFirstVisuallyNonEmptyPaintEv(%"class.content::WebContentsObserver"*) unnamed_addr #0 comdat align 2 {
  ret void
}

; Function Attrs: nounwind ssp uwtable
define linkonce_odr hidden void @_ZN7content19WebContentsObserver17NavigationStoppedEv(%"class.content::WebContentsObserver"*) unnamed_addr #0 comdat align 2 {
  ret void
}

; Function Attrs: nounwind ssp uwtable
define linkonce_odr hidden void @_ZN7content19WebContentsObserver21DidGetUserInteractionERKN5blink13WebInputEventE(%"class.content::WebContentsObserver"*, %"class.blink::WebInputEvent"* dereferenceable(40)) unnamed_addr #0 comdat align 2 {
  ret void
}

; Function Attrs: nounwind ssp uwtable
define linkonce_odr hidden void @_ZN7content19WebContentsObserver20DidGetIgnoredUIEventEv(%"class.content::WebContentsObserver"*) unnamed_addr #0 comdat align 2 {
  ret void
}

; Function Attrs: nounwind ssp uwtable
define linkonce_odr hidden void @_ZN7content19WebContentsObserver19OnVisibilityChangedENS_10VisibilityE(%"class.content::WebContentsObserver"*, i32) unnamed_addr #0 comdat align 2 {
  ret void
}

; Function Attrs: nounwind ssp uwtable
define linkonce_odr hidden void @_ZN7content19WebContentsObserver19MainFrameWasResizedEb(%"class.content::WebContentsObserver"*, i1 zeroext) unnamed_addr #0 comdat align 2 {
  ret void
}

; Function Attrs: nounwind ssp uwtable
define linkonce_odr hidden void @_ZN7content19WebContentsObserver16FrameNameChangedEPNS_15RenderFrameHostERKNSt3__112basic_stringIcNS3_11char_traitsIcEENS3_9allocatorIcEEEE(%"class.content::WebContentsObserver"*, %"class.content::RenderFrameHost"*, %"class.std::__1::basic_string"* dereferenceable(24)) unnamed_addr #0 comdat align 2 {
  ret void
}

; Function Attrs: nounwind ssp uwtable
define linkonce_odr hidden void @_ZN7content19WebContentsObserver27FrameReceivedUserActivationEPNS_15RenderFrameHostE(%"class.content::WebContentsObserver"*, %"class.content::RenderFrameHost"*) unnamed_addr #0 comdat align 2 {
  ret void
}

; Function Attrs: nounwind ssp uwtable
define linkonce_odr hidden void @_ZN7content19WebContentsObserver24FrameDisplayStateChangedEPNS_15RenderFrameHostEb(%"class.content::WebContentsObserver"*, %"class.content::RenderFrameHost"*, i1 zeroext) unnamed_addr #0 comdat align 2 {
  ret void
}

; Function Attrs: nounwind ssp uwtable
define linkonce_odr hidden void @_ZN7content19WebContentsObserver16FrameSizeChangedEPNS_15RenderFrameHostERKN3gfx4SizeE(%"class.content::WebContentsObserver"*, %"class.content::RenderFrameHost"*, %"class.gfx::Size"* dereferenceable(8)) unnamed_addr #0 comdat align 2 {
  ret void
}

; Function Attrs: nounwind ssp uwtable
define linkonce_odr hidden void @_ZN7content19WebContentsObserver11TitleWasSetEPNS_15NavigationEntryE(%"class.content::WebContentsObserver"*, %"class.content::NavigationEntry"*) unnamed_addr #0 comdat align 2 {
  ret void
}

; Function Attrs: nounwind ssp uwtable
define linkonce_odr hidden void @_ZN7content19WebContentsObserver16AppCacheAccessedERK4GURLb(%"class.content::WebContentsObserver"*, %class.GURL* dereferenceable(120), i1 zeroext) unnamed_addr #0 comdat align 2 {
  ret void
}

; Function Attrs: nounwind ssp uwtable
define linkonce_odr hidden void @_ZN7content19WebContentsObserver21PepperInstanceCreatedEv(%"class.content::WebContentsObserver"*) unnamed_addr #0 comdat align 2 {
  ret void
}

; Function Attrs: nounwind ssp uwtable
define linkonce_odr hidden void @_ZN7content19WebContentsObserver21PepperInstanceDeletedEv(%"class.content::WebContentsObserver"*) unnamed_addr #0 comdat align 2 {
  ret void
}

; Function Attrs: nounwind ssp uwtable
define linkonce_odr hidden void @_ZN7content19WebContentsObserver18ViewportFitChangedEN5blink5mojom11ViewportFitE(%"class.content::WebContentsObserver"*, i32) unnamed_addr #0 comdat align 2 {
  ret void
}

; Function Attrs: nounwind ssp uwtable
define linkonce_odr hidden void @_ZN7content19WebContentsObserver13PluginCrashedERKN4base8FilePathEi(%"class.content::WebContentsObserver"*, %"class.base::FilePath"* dereferenceable(24), i32) unnamed_addr #0 comdat align 2 {
  ret void
}

; Function Attrs: nounwind ssp uwtable
define linkonce_odr hidden void @_ZN7content19WebContentsObserver23PluginHungStatusChangedEiRKN4base8FilePathEb(%"class.content::WebContentsObserver"*, i32, %"class.base::FilePath"* dereferenceable(24), i1 zeroext) unnamed_addr #0 comdat align 2 {
  ret void
}

; Function Attrs: nounwind ssp uwtable
define linkonce_odr hidden void @_ZN7content19WebContentsObserver23InnerWebContentsCreatedEPNS_11WebContentsE(%"class.content::WebContentsObserver"*, %"class.content::WebContents"*) unnamed_addr #0 comdat align 2 {
  ret void
}

; Function Attrs: nounwind ssp uwtable
define linkonce_odr hidden void @_ZN7content19WebContentsObserver24InnerWebContentsAttachedEPNS_11WebContentsEPNS_15RenderFrameHostEb(%"class.content::WebContentsObserver"*, %"class.content::WebContents"*, %"class.content::RenderFrameHost"*, i1 zeroext) unnamed_addr #0 comdat align 2 {
  ret void
}

; Function Attrs: nounwind ssp uwtable
define linkonce_odr hidden void @_ZN7content19WebContentsObserver24InnerWebContentsDetachedEPNS_11WebContentsE(%"class.content::WebContentsObserver"*, %"class.content::WebContents"*) unnamed_addr #0 comdat align 2 {
  ret void
}

; Function Attrs: nounwind ssp uwtable
define linkonce_odr hidden void @_ZN7content19WebContentsObserver24DidCloneToNewWebContentsEPNS_11WebContentsES2_(%"class.content::WebContentsObserver"*, %"class.content::WebContents"*, %"class.content::WebContents"*) unnamed_addr #0 comdat align 2 {
  ret void
}

; Function Attrs: nounwind ssp uwtable
declare void @_ZThn40_N10guest_view13GuestViewBase20WebContentsDestroyedEv(%"class.guest_view::GuestViewBase"*) unnamed_addr #0 align 2

; Function Attrs: nounwind ssp uwtable
define linkonce_odr hidden void @_ZN7content19WebContentsObserver20UserAgentOverrideSetERKN5blink17UserAgentOverrideE(%"class.content::WebContentsObserver"*, %"struct.blink::UserAgentOverride"* dereferenceable(184)) unnamed_addr #0 comdat align 2 {
  ret void
}

; Function Attrs: nounwind ssp uwtable
define linkonce_odr hidden void @_ZN7content19WebContentsObserver19DidUpdateFaviconURLEPNS_15RenderFrameHostERKNSt3__16vectorIN4mojo9StructPtrIN5blink5mojom10FaviconURLEEENS3_9allocatorISA_EEEE(%"class.content::WebContentsObserver"*, %"class.content::RenderFrameHost"*, %"class.std::__1::vector.368"*) unnamed_addr #0 comdat align 2 {
  ret void
}

; Function Attrs: nounwind ssp uwtable
define linkonce_odr hidden void @_ZN7content19WebContentsObserver19OnAudioStateChangedEb(%"class.content::WebContentsObserver"*, i1 zeroext) unnamed_addr #0 comdat align 2 {
  ret void
}

; Function Attrs: nounwind ssp uwtable
define linkonce_odr hidden void @_ZN7content19WebContentsObserver24OnFrameAudioStateChangedEPNS_15RenderFrameHostEb(%"class.content::WebContentsObserver"*, %"class.content::RenderFrameHost"*, i1 zeroext) unnamed_addr #0 comdat align 2 {
  ret void
}

; Function Attrs: nounwind ssp uwtable
define linkonce_odr hidden void @_ZN7content19WebContentsObserver37OnIsConnectedToBluetoothDeviceChangedEb(%"class.content::WebContentsObserver"*, i1 zeroext) unnamed_addr #0 comdat align 2 {
  ret void
}

; Function Attrs: nounwind ssp uwtable
define linkonce_odr hidden void @_ZN7content19WebContentsObserver25DidUpdateAudioMutingStateEb(%"class.content::WebContentsObserver"*, i1 zeroext) unnamed_addr #0 comdat align 2 {
  ret void
}

; Function Attrs: nounwind ssp uwtable
define linkonce_odr hidden void @_ZN7content19WebContentsObserver29DidToggleFullscreenModeForTabEbb(%"class.content::WebContentsObserver"*, i1 zeroext, i1 zeroext) unnamed_addr #0 comdat align 2 {
  ret void
}

; Function Attrs: nounwind ssp uwtable
define linkonce_odr hidden void @_ZN7content19WebContentsObserver20DidAcquireFullscreenEPNS_15RenderFrameHostE(%"class.content::WebContentsObserver"*, %"class.content::RenderFrameHost"*) unnamed_addr #0 comdat align 2 {
  ret void
}

; Function Attrs: nounwind ssp uwtable
define linkonce_odr hidden void @_ZN7content19WebContentsObserver32DidChangeVerticalScrollDirectionEN3viz23VerticalScrollDirectionE(%"class.content::WebContentsObserver"*, i32) unnamed_addr #0 comdat align 2 {
  ret void
}

; Function Attrs: nounwind ssp uwtable
define linkonce_odr hidden void @_ZN7content19WebContentsObserver27BeforeFormRepostWarningShowEv(%"class.content::WebContentsObserver"*) unnamed_addr #0 comdat align 2 {
  ret void
}

; Function Attrs: nounwind ssp uwtable
define linkonce_odr hidden void @_ZN7content19WebContentsObserver17BeforeUnloadFiredEbRKN4base9TimeTicksE(%"class.content::WebContentsObserver"*, i1 zeroext, %"class.base::TimeTicks"* dereferenceable(8)) unnamed_addr #0 comdat align 2 {
  ret void
}

; Function Attrs: nounwind ssp uwtable
define linkonce_odr hidden void @_ZN7content19WebContentsObserver27BeforeUnloadDialogCancelledEv(%"class.content::WebContentsObserver"*) unnamed_addr #0 comdat align 2 {
  ret void
}

; Function Attrs: nounwind ssp uwtable
define linkonce_odr hidden void @_ZN7content19WebContentsObserver30AXTreeIDForMainFrameHasChangedEv(%"class.content::WebContentsObserver"*) unnamed_addr #0 comdat align 2 {
  ret void
}

; Function Attrs: nounwind ssp uwtable
define linkonce_odr hidden void @_ZN7content19WebContentsObserver26AccessibilityEventReceivedERKNS_26AXEventNotificationDetailsE(%"class.content::WebContentsObserver"*, %"struct.content::AXEventNotificationDetails"*) unnamed_addr #0 comdat align 2 {
  ret void
}

; Function Attrs: nounwind ssp uwtable
define linkonce_odr hidden void @_ZN7content19WebContentsObserver36AccessibilityLocationChangesReceivedERKNSt3__16vectorINS_35AXLocationChangeNotificationDetailsENS1_9allocatorIS3_EEEE(%"class.content::WebContentsObserver"*, %"class.std::__1::vector.369"*) unnamed_addr #0 comdat align 2 {
  ret void
}

; Function Attrs: nounwind ssp uwtable
define linkonce_odr hidden void @_ZN7content19WebContentsObserver19DidChangeThemeColorEv(%"class.content::WebContentsObserver"*) unnamed_addr #0 comdat align 2 {
  ret void
}

; Function Attrs: nounwind ssp uwtable
define linkonce_odr hidden void @_ZN7content19WebContentsObserver24OnBackgroundColorChangedEv(%"class.content::WebContentsObserver"*) unnamed_addr #0 comdat align 2 {
  ret void
}

; Function Attrs: nounwind ssp uwtable
define linkonce_odr hidden void @_ZN7content19WebContentsObserver24OnDidAddMessageToConsoleEPNS_15RenderFrameHostEN5blink5mojom19ConsoleMessageLevelERKNSt3__112basic_stringIDsNS6_11char_traitsIDsEENS6_9allocatorIDsEEEEiSE_RKN4absl8optionalISC_EE(%"class.content::WebContentsObserver"*, %"class.content::RenderFrameHost"*, i32, %"class.std::__1::basic_string.286"* dereferenceable(24), i32, %"class.std::__1::basic_string.286"* dereferenceable(24), %"class.absl::optional.316"* dereferenceable(32)) unnamed_addr #0 comdat align 2 {
  ret void
}

; Function Attrs: nounwind ssp uwtable
define linkonce_odr hidden void @_ZN7content19WebContentsObserver19MediaStartedPlayingERKNS0_15MediaPlayerInfoERKNS_13MediaPlayerIdE(%"class.content::WebContentsObserver"*, %"struct.content::WebContentsObserver::MediaPlayerInfo"* dereferenceable(2), %"struct.content::MediaPlayerId"*) unnamed_addr #0 comdat align 2 {
  ret void
}

; Function Attrs: nounwind ssp uwtable
define linkonce_odr hidden void @_ZN7content19WebContentsObserver19MediaStoppedPlayingERKNS0_15MediaPlayerInfoERKNS_13MediaPlayerIdENS0_18MediaStoppedReasonE(%"class.content::WebContentsObserver"*, %"struct.content::WebContentsObserver::MediaPlayerInfo"* dereferenceable(2), %"struct.content::MediaPlayerId"*, i32) unnamed_addr #0 comdat align 2 {
  ret void
}

; Function Attrs: nounwind ssp uwtable
define linkonce_odr hidden void @_ZN7content19WebContentsObserver12MediaResizedERKN3gfx4SizeERKNS_13MediaPlayerIdE(%"class.content::WebContentsObserver"*, %"class.gfx::Size"* dereferenceable(8), %"struct.content::MediaPlayerId"*) unnamed_addr #0 comdat align 2 {
  ret void
}

; Function Attrs: nounwind ssp uwtable
define linkonce_odr hidden void @_ZN7content19WebContentsObserver33MediaEffectivelyFullscreenChangedEb(%"class.content::WebContentsObserver"*, i1 zeroext) unnamed_addr #0 comdat align 2 {
  ret void
}

; Function Attrs: nounwind ssp uwtable
define linkonce_odr hidden void @_ZN7content19WebContentsObserver28MediaPictureInPictureChangedEb(%"class.content::WebContentsObserver"*, i1 zeroext) unnamed_addr #0 comdat align 2 {
  ret void
}

; Function Attrs: nounwind ssp uwtable
define linkonce_odr hidden void @_ZN7content19WebContentsObserver23MediaMutedStatusChangedERKNS_13MediaPlayerIdEb(%"class.content::WebContentsObserver"*, %"struct.content::MediaPlayerId"*, i1 zeroext) unnamed_addr #0 comdat align 2 {
  ret void
}

; Function Attrs: nounwind ssp uwtable
define linkonce_odr hidden void @_ZN7content19WebContentsObserver20MediaBufferUnderflowERKNS_13MediaPlayerIdE(%"class.content::WebContentsObserver"*, %"struct.content::MediaPlayerId"*) unnamed_addr #0 comdat align 2 {
  ret void
}

; Function Attrs: nounwind ssp uwtable
define linkonce_odr hidden void @_ZN7content19WebContentsObserver15MediaPlayerSeekERKNS_13MediaPlayerIdE(%"class.content::WebContentsObserver"*, %"struct.content::MediaPlayerId"*) unnamed_addr #0 comdat align 2 {
  ret void
}

; Function Attrs: nounwind ssp uwtable
define linkonce_odr hidden void @_ZN7content19WebContentsObserver14MediaDestroyedERKNS_13MediaPlayerIdE(%"class.content::WebContentsObserver"*, %"struct.content::MediaPlayerId"*) unnamed_addr #0 comdat align 2 {
  ret void
}

; Function Attrs: nounwind ssp uwtable
define linkonce_odr hidden void @_ZN7content19WebContentsObserver24OnPageScaleFactorChangedEf(%"class.content::WebContentsObserver"*, float) unnamed_addr #0 comdat align 2 {
  ret void
}

; Function Attrs: nounwind ssp uwtable
define linkonce_odr hidden void @_ZN7content19WebContentsObserver7OnPasteEv(%"class.content::WebContentsObserver"*) unnamed_addr #0 comdat align 2 {
  ret void
}

declare zeroext i1 @_ZN7content19WebContentsObserver17OnMessageReceivedERKN3IPC7MessageEPNS_15RenderFrameHostE(%"class.content::WebContentsObserver"*, %"class.IPC::Message"* dereferenceable(56), %"class.content::RenderFrameHost"*) unnamed_addr #1

; Function Attrs: nounwind ssp uwtable
define linkonce_odr hidden void @_ZN7content19WebContentsObserver20OnWebContentsFocusedEPNS_16RenderWidgetHostE(%"class.content::WebContentsObserver"*, %"class.content::RenderWidgetHost"*) unnamed_addr #0 comdat align 2 {
  ret void
}

; Function Attrs: nounwind ssp uwtable
define linkonce_odr hidden void @_ZN7content19WebContentsObserver22OnWebContentsLostFocusEPNS_16RenderWidgetHostE(%"class.content::WebContentsObserver"*, %"class.content::RenderWidgetHost"*) unnamed_addr #0 comdat align 2 {
  ret void
}

; Function Attrs: nounwind ssp uwtable
define linkonce_odr hidden void @_ZN7content19WebContentsObserver20OnFocusChangedInPageEPNS_18FocusedNodeDetailsE(%"class.content::WebContentsObserver"*, %"struct.content::FocusedNodeDetails"*) unnamed_addr #0 comdat align 2 {
  ret void
}

; Function Attrs: nounwind ssp uwtable
define linkonce_odr hidden void @_ZN7content19WebContentsObserver23DidUpdateWebManifestURLEPNS_15RenderFrameHostERKN4absl8optionalI4GURLEE(%"class.content::WebContentsObserver"*, %"class.content::RenderFrameHost"*, %"class.absl::optional.370"* dereferenceable(128)) unnamed_addr #0 comdat align 2 {
  ret void
}

; Function Attrs: nounwind ssp uwtable
define linkonce_odr hidden void @_ZN7content19WebContentsObserver27OnInterfaceRequestFromFrameEPNS_15RenderFrameHostERKNSt3__112basic_stringIcNS3_11char_traitsIcEENS3_9allocatorIcEEEEPN4mojo16ScopedHandleBaseINSC_17MessagePipeHandleEEE(%"class.content::WebContentsObserver"*, %"class.content::RenderFrameHost"*, %"class.std::__1::basic_string"* dereferenceable(24), %"class.mojo::ScopedHandleBase"*) unnamed_addr #0 comdat align 2 {
  ret void
}

; Function Attrs: nounwind ssp uwtable
define linkonce_odr hidden void @_ZN7content19WebContentsObserver27AudioContextPlaybackStartedERKNSt3__14pairIPNS_15RenderFrameHostEiEE(%"class.content::WebContentsObserver"*, %"struct.std::__1::pair.375"*) unnamed_addr #0 comdat align 2 {
  ret void
}

; Function Attrs: nounwind ssp uwtable
define linkonce_odr hidden void @_ZN7content19WebContentsObserver27AudioContextPlaybackStoppedERKNSt3__14pairIPNS_15RenderFrameHostEiEE(%"class.content::WebContentsObserver"*, %"struct.std::__1::pair.375"*) unnamed_addr #0 comdat align 2 {
  ret void
}

; Function Attrs: nounwind ssp uwtable
define linkonce_odr hidden void @_ZN7content19WebContentsObserver23OnServiceWorkerAccessedEPNS_15RenderFrameHostERK4GURLNS_24AllowServiceWorkerResultE(%"class.content::WebContentsObserver"*, %"class.content::RenderFrameHost"*, %class.GURL* dereferenceable(120), i24) unnamed_addr #0 comdat align 2 {
  ret void
}

; Function Attrs: nounwind ssp uwtable
define linkonce_odr hidden void @_ZN7content19WebContentsObserver23OnServiceWorkerAccessedEPNS_16NavigationHandleERK4GURLNS_24AllowServiceWorkerResultE(%"class.content::WebContentsObserver"*, %"class.content::NavigationHandle"*, %class.GURL* dereferenceable(120), i24) unnamed_addr #0 comdat align 2 {
  ret void
}

; Function Attrs: nounwind ssp uwtable
declare void @_ZThn56_N10guest_view13GuestViewBase13OnZoomChangedERKN4zoom14ZoomController20ZoomChangedEventDataE(%"class.guest_view::GuestViewBase"*, %"struct.zoom::ZoomController::ZoomChangedEventData"* dereferenceable(32)) unnamed_addr #0 align 2

; Function Attrs: argmemonly nofree nounwind readonly
declare i64 @strlen(i8* nocapture) local_unnamed_addr #7

declare void @_ZNSt3__112basic_stringIcNS_11char_traitsIcEENS_9allocatorIcEEEC1ERKS5_mmRKS4_(%"class.std::__1::basic_string"*, %"class.std::__1::basic_string"* dereferenceable(24), i64, i64, %"class.std::__1::allocator.16"* dereferenceable(1)) unnamed_addr #1

; Function Attrs: argmemonly nounwind
declare void @llvm.memcpy.p0i8.p0i8.i64(i8* nocapture writeonly, i8* nocapture readonly, i64, i1 immarg) #5

declare void @_ZN10guest_view13GuestViewBaseC2EPN7content11WebContentsE(%"class.guest_view::GuestViewBase"*, %"class.content::WebContents"*) unnamed_addr #1

; Function Attrs: nounwind
declare void @_ZN10guest_view13GuestViewBaseD2Ev(%"class.guest_view::GuestViewBase"*) unnamed_addr #2

; Function Attrs: nounwind
declare void @_ZN4base8internal12CallbackBaseD2Ev(%"class.base::internal::CallbackBase"*) unnamed_addr #2

declare void @_ZN10guest_view14GuestViewEventC1ERKNSt3__112basic_stringIcNS1_11char_traitsIcEENS1_9allocatorIcEEEENS1_10unique_ptrIN4base15DictionaryValueENS1_14default_deleteISC_EEEE(%"class.guest_view::GuestViewEvent"*, %"class.std::__1::basic_string"* dereferenceable(24), %"class.base::DictionaryValue"*) unnamed_addr #1

; Function Attrs: noreturn
declare void @_ZNKSt3__121__basic_string_commonILb1EE20__throw_length_errorEv(%"class.std::__1::__basic_string_common"*) local_unnamed_addr #8

declare %"class.base::SupportsUserData::Data"* @_ZNK4base16SupportsUserData11GetUserDataEPKv(%"class.base::SupportsUserData"*, i8*) local_unnamed_addr #1

; Function Attrs: nofree nounwind readonly
declare i32 @bcmp(i8* nocapture, i8* nocapture, i64) local_unnamed_addr #9

attributes #0 = { nounwind ssp uwtable "correctly-rounded-divide-sqrt-fp-math"="false" "disable-tail-calls"="false" "less-precise-fpmad"="false" "min-legal-vector-width"="0" "no-frame-pointer-elim"="false" "no-frame-pointer-elim-non-leaf" "no-infs-fp-math"="false" "no-jump-tables"="false" "no-nans-fp-math"="false" "no-signed-zeros-fp-math"="false" "no-trapping-math"="false" "null-pointer-is-valid"="true" "stack-protector-buffer-size"="4" "target-cpu"="x86-64" "target-features"="+cx8,+fxsr,+mmx,+sse,+sse2,+sse3,+x87" "unsafe-fp-math"="false" "use-soft-float"="false" }
attributes #1 = { "correctly-rounded-divide-sqrt-fp-math"="false" "disable-tail-calls"="false" "less-precise-fpmad"="false" "no-frame-pointer-elim"="false" "no-frame-pointer-elim-non-leaf" "no-infs-fp-math"="false" "no-nans-fp-math"="false" "no-signed-zeros-fp-math"="false" "no-trapping-math"="false" "null-pointer-is-valid"="true" "stack-protector-buffer-size"="4" "target-cpu"="x86-64" "target-features"="+cx8,+fxsr,+mmx,+sse,+sse2,+sse3,+x87" "unsafe-fp-math"="false" "use-soft-float"="false" }
attributes #2 = { nounwind "correctly-rounded-divide-sqrt-fp-math"="false" "disable-tail-calls"="false" "less-precise-fpmad"="false" "no-frame-pointer-elim"="false" "no-frame-pointer-elim-non-leaf" "no-infs-fp-math"="false" "no-nans-fp-math"="false" "no-signed-zeros-fp-math"="false" "no-trapping-math"="false" "null-pointer-is-valid"="true" "stack-protector-buffer-size"="4" "target-cpu"="x86-64" "target-features"="+cx8,+fxsr,+mmx,+sse,+sse2,+sse3,+x87" "unsafe-fp-math"="false" "use-soft-float"="false" }
attributes #3 = { nobuiltin nounwind "correctly-rounded-divide-sqrt-fp-math"="false" "disable-tail-calls"="false" "less-precise-fpmad"="false" "no-frame-pointer-elim"="false" "no-frame-pointer-elim-non-leaf" "no-infs-fp-math"="false" "no-nans-fp-math"="false" "no-signed-zeros-fp-math"="false" "no-trapping-math"="false" "null-pointer-is-valid"="true" "stack-protector-buffer-size"="4" "target-cpu"="x86-64" "target-features"="+cx8,+fxsr,+mmx,+sse,+sse2,+sse3,+x87" "unsafe-fp-math"="false" "use-soft-float"="false" }
attributes #4 = { nobuiltin nofree "correctly-rounded-divide-sqrt-fp-math"="false" "disable-tail-calls"="false" "less-precise-fpmad"="false" "no-frame-pointer-elim"="false" "no-frame-pointer-elim-non-leaf" "no-infs-fp-math"="false" "no-nans-fp-math"="false" "no-signed-zeros-fp-math"="false" "no-trapping-math"="false" "null-pointer-is-valid"="true" "stack-protector-buffer-size"="4" "target-cpu"="x86-64" "target-features"="+cx8,+fxsr,+mmx,+sse,+sse2,+sse3,+x87" "unsafe-fp-math"="false" "use-soft-float"="false" }
attributes #5 = { argmemonly nounwind }
attributes #6 = { norecurse nounwind readnone ssp uwtable "correctly-rounded-divide-sqrt-fp-math"="false" "disable-tail-calls"="false" "less-precise-fpmad"="false" "min-legal-vector-width"="0" "no-frame-pointer-elim"="false" "no-frame-pointer-elim-non-leaf" "no-infs-fp-math"="false" "no-jump-tables"="false" "no-nans-fp-math"="false" "no-signed-zeros-fp-math"="false" "no-trapping-math"="false" "null-pointer-is-valid"="true" "stack-protector-buffer-size"="4" "target-cpu"="x86-64" "target-features"="+cx8,+fxsr,+mmx,+sse,+sse2,+sse3,+x87" "unsafe-fp-math"="false" "use-soft-float"="false" }
attributes #7 = { argmemonly nofree nounwind readonly "correctly-rounded-divide-sqrt-fp-math"="false" "disable-tail-calls"="false" "less-precise-fpmad"="false" "no-frame-pointer-elim"="false" "no-frame-pointer-elim-non-leaf" "no-infs-fp-math"="false" "no-nans-fp-math"="false" "no-signed-zeros-fp-math"="false" "no-trapping-math"="false" "null-pointer-is-valid"="true" "stack-protector-buffer-size"="4" "target-cpu"="x86-64" "target-features"="+cx8,+fxsr,+mmx,+sse,+sse2,+sse3,+x87" "unsafe-fp-math"="false" "use-soft-float"="false" }
attributes #8 = { noreturn "correctly-rounded-divide-sqrt-fp-math"="false" "disable-tail-calls"="false" "less-precise-fpmad"="false" "no-frame-pointer-elim"="false" "no-frame-pointer-elim-non-leaf" "no-infs-fp-math"="false" "no-nans-fp-math"="false" "no-signed-zeros-fp-math"="false" "no-trapping-math"="false" "null-pointer-is-valid"="true" "stack-protector-buffer-size"="4" "target-cpu"="x86-64" "target-features"="+cx8,+fxsr,+mmx,+sse,+sse2,+sse3,+x87" "unsafe-fp-math"="false" "use-soft-float"="false" }
attributes #9 = { nofree nounwind readonly }
attributes #10 = { nounwind }
attributes #11 = { builtin nounwind }
attributes #12 = { noreturn nounwind }

!llvm.module.flags = !{!0, !1}

!0 = !{i32 1, !"wchar_size", i32 4}
!1 = !{i32 7, !"PIC Level", i32 2}
!2 = !{!3, !5}
!3 = distinct !{!3, !4, !"_ZNK4GURL15ComponentStringERKN3url9ComponentE: argument 0"}
!4 = distinct !{!4, !"_ZNK4GURL15ComponentStringERKN3url9ComponentE"}
!5 = distinct !{!5, !6, !"_ZNK4GURL4hostEv: argument 0"}
!6 = distinct !{!6, !"_ZNK4GURL4hostEv"}
!7 = !{i8 0, i8 2}
!8 = !{!9, !11}
!9 = distinct !{!9, !10, !"_ZNK4GURL15ComponentStringERKN3url9ComponentE: argument 0"}
!10 = distinct !{!10, !"_ZNK4GURL15ComponentStringERKN3url9ComponentE"}
!11 = distinct !{!11, !12, !"_ZNK4GURL4hostEv: argument 0"}
!12 = distinct !{!12, !"_ZNK4GURL4hostEv"}
!13 = !{!14, !16}
!14 = distinct !{!14, !15, !"_ZNK4GURL15ComponentStringERKN3url9ComponentE: argument 0"}
!15 = distinct !{!15, !"_ZNK4GURL15ComponentStringERKN3url9ComponentE"}
!16 = distinct !{!16, !17, !"_ZNK4GURL4hostEv: argument 0"}
!17 = distinct !{!17, !"_ZNK4GURL4hostEv"}
