; ModuleID = '../../extensions/browser/extension_prefs.cc'
source_filename = "../../extensions/browser/extension_prefs.cc"
target datalayout = "e-m:e-i64:64-f80:128-n8:16:32:64-S128"
target triple = "x86_64-unknown-linux-gnu"

module asm ".symver exp, exp@GLIBC_2.2.5"
module asm ".symver exp2, exp2@GLIBC_2.2.5"
module asm ".symver exp2f, exp2f@GLIBC_2.2.5"
module asm ".symver expf, expf@GLIBC_2.2.5"
module asm ".symver lgamma, lgamma@GLIBC_2.2.5"
module asm ".symver lgammaf, lgammaf@GLIBC_2.2.5"
module asm ".symver lgammal, lgammal@GLIBC_2.2.5"
module asm ".symver log, log@GLIBC_2.2.5"
module asm ".symver log2, log2@GLIBC_2.2.5"
module asm ".symver log2f, log2f@GLIBC_2.2.5"
module asm ".symver logf, logf@GLIBC_2.2.5"
module asm ".symver pow, pow@GLIBC_2.2.5"
module asm ".symver powf, powf@GLIBC_2.2.5"

%"class.base::BasicStringPiece" = type { i8*, i64 }
%"struct.extensions::PrefMap" = type { i8*, i32, i32 }
%"class.std::__1::locale::id" = type <{ %"struct.std::__1::once_flag", i32, [4 x i8] }>
%"struct.std::__1::once_flag" = type { i64 }
%"class.extensions::ExtensionPrefs::ScopedDictionaryUpdate" = type { %"class.std::__1::unique_ptr", %"class.std::__1::basic_string" }
%"class.std::__1::unique_ptr" = type { %"class.std::__1::__compressed_pair" }
%"class.std::__1::__compressed_pair" = type { %"struct.std::__1::__compressed_pair_elem" }
%"struct.std::__1::__compressed_pair_elem" = type { %"class.prefs::ScopedDictionaryPrefUpdate"* }
%"class.prefs::ScopedDictionaryPrefUpdate" = type { i32 (...)**, %class.PrefService*, %"class.std::__1::basic_string", %"class.std::__1::set.83" }
%class.PrefService = type { i32 (...)**, %"class.std::__1::unique_ptr.0", %"class.std::__1::unique_ptr.4", %class.scoped_refptr.24, %"class.base::RepeatingCallback.25", %class.scoped_refptr.26, %"class.std::__1::unordered_map.54" }
%"class.std::__1::unique_ptr.0" = type { %"class.std::__1::__compressed_pair.1" }
%"class.std::__1::__compressed_pair.1" = type { %"struct.std::__1::__compressed_pair_elem.2" }
%"struct.std::__1::__compressed_pair_elem.2" = type { %class.PrefNotifierImpl* }
%class.PrefNotifierImpl = type opaque
%"class.std::__1::unique_ptr.4" = type { %"class.std::__1::__compressed_pair.5" }
%"class.std::__1::__compressed_pair.5" = type { %"struct.std::__1::__compressed_pair_elem.6" }
%"struct.std::__1::__compressed_pair_elem.6" = type { %class.PrefValueStore* }
%class.PrefValueStore = type { i32 (...)**, [7 x %"class.PrefValueStore::PrefStoreKeeper"], %"class.base::RepeatingCallback", %class.PrefNotifier*, %"class.std::__1::map", i8, %"class.std::__1::unique_ptr.15" }
%"class.PrefValueStore::PrefStoreKeeper" = type <{ %"class.PrefStore::Observer", %class.PrefValueStore*, %class.scoped_refptr, i32, [4 x i8] }>
%"class.PrefStore::Observer" = type { i32 (...)** }
%class.scoped_refptr = type { %class.PrefStore* }
%class.PrefStore = type <{ i32 (...)**, %"class.base::RefCounted", [4 x i8] }>
%"class.base::RefCounted" = type { %"class.base::subtle::RefCountedBase" }
%"class.base::subtle::RefCountedBase" = type { i32 }
%"class.base::RepeatingCallback" = type { %"class.base::internal::CallbackBaseCopyable" }
%"class.base::internal::CallbackBaseCopyable" = type { %"class.base::internal::CallbackBase" }
%"class.base::internal::CallbackBase" = type { %class.scoped_refptr.7 }
%class.scoped_refptr.7 = type { %"class.base::internal::BindStateBase"* }
%"class.base::internal::BindStateBase" = type { %"class.base::RefCountedThreadSafe", void ()*, void (%"class.base::internal::BindStateBase"*)*, i1 (%"class.base::internal::BindStateBase"*, i32)* }
%"class.base::RefCountedThreadSafe" = type { %"class.base::subtle::RefCountedThreadSafeBase" }
%"class.base::subtle::RefCountedThreadSafeBase" = type { %"class.base::AtomicRefCount" }
%"class.base::AtomicRefCount" = type { %"struct.std::__1::atomic" }
%"struct.std::__1::atomic" = type { %"struct.std::__1::__atomic_base" }
%"struct.std::__1::__atomic_base" = type { %"struct.std::__1::__atomic_base.8" }
%"struct.std::__1::__atomic_base.8" = type { %"struct.std::__1::__cxx_atomic_impl" }
%"struct.std::__1::__cxx_atomic_impl" = type { %"struct.std::__1::__cxx_atomic_base_impl" }
%"struct.std::__1::__cxx_atomic_base_impl" = type { i32 }
%class.PrefNotifier = type opaque
%"class.std::__1::map" = type { %"class.std::__1::__tree" }
%"class.std::__1::__tree" = type { %"class.std::__1::__tree_end_node"*, %"class.std::__1::__compressed_pair.9", %"class.std::__1::__compressed_pair.12" }
%"class.std::__1::__tree_end_node" = type { %"class.std::__1::__tree_node_base"* }
%"class.std::__1::__tree_node_base" = type <{ %"class.std::__1::__tree_end_node", %"class.std::__1::__tree_node_base"*, %"class.std::__1::__tree_end_node"*, i8, [7 x i8] }>
%"class.std::__1::__compressed_pair.9" = type { %"struct.std::__1::__compressed_pair_elem.10" }
%"struct.std::__1::__compressed_pair_elem.10" = type { %"class.std::__1::__tree_end_node" }
%"class.std::__1::__compressed_pair.12" = type { %"struct.std::__1::__compressed_pair_elem.13" }
%"struct.std::__1::__compressed_pair_elem.13" = type { i64 }
%"class.std::__1::unique_ptr.15" = type { %"class.std::__1::__compressed_pair.16" }
%"class.std::__1::__compressed_pair.16" = type { %"struct.std::__1::__compressed_pair_elem.17" }
%"struct.std::__1::__compressed_pair_elem.17" = type { %"class.PrefValueStore::Delegate"* }
%"class.PrefValueStore::Delegate" = type { i32 (...)** }
%class.scoped_refptr.24 = type { %class.PersistentPrefStore* }
%class.PersistentPrefStore = type { %class.WriteablePrefStore.base, [4 x i8] }
%class.WriteablePrefStore.base = type { %class.PrefStore.base }
%class.PrefStore.base = type <{ i32 (...)**, %"class.base::RefCounted" }>
%"class.base::RepeatingCallback.25" = type { %"class.base::internal::CallbackBaseCopyable" }
%class.scoped_refptr.26 = type { %class.PrefRegistry* }
%class.PrefRegistry = type { i32 (...)**, %"class.base::RefCounted.27", %class.scoped_refptr.28, %"class.std::__1::unordered_map", %"class.std::__1::set" }
%"class.base::RefCounted.27" = type { %"class.base::subtle::RefCountedBase" }
%class.scoped_refptr.28 = type { %class.DefaultPrefStore* }
%class.DefaultPrefStore = type opaque
%"class.std::__1::unordered_map" = type { %"class.std::__1::__hash_table" }
%"class.std::__1::__hash_table" = type <{ %"class.std::__1::unique_ptr.29", %"class.std::__1::__compressed_pair.37", %"class.std::__1::__compressed_pair.42", %"class.std::__1::__compressed_pair.44", [4 x i8] }>
%"class.std::__1::unique_ptr.29" = type { %"class.std::__1::__compressed_pair.30" }
%"class.std::__1::__compressed_pair.30" = type { %"struct.std::__1::__compressed_pair_elem.31", %"struct.std::__1::__compressed_pair_elem.32" }
%"struct.std::__1::__compressed_pair_elem.31" = type { %"struct.std::__1::__hash_node_base"** }
%"struct.std::__1::__hash_node_base" = type { %"struct.std::__1::__hash_node_base"* }
%"struct.std::__1::__compressed_pair_elem.32" = type { %"class.std::__1::__bucket_list_deallocator" }
%"class.std::__1::__bucket_list_deallocator" = type { %"class.std::__1::__compressed_pair.33" }
%"class.std::__1::__compressed_pair.33" = type { %"struct.std::__1::__compressed_pair_elem.13" }
%"class.std::__1::__compressed_pair.37" = type { %"struct.std::__1::__compressed_pair_elem.38" }
%"struct.std::__1::__compressed_pair_elem.38" = type { %"struct.std::__1::__hash_node_base" }
%"class.std::__1::__compressed_pair.42" = type { %"struct.std::__1::__compressed_pair_elem.13" }
%"class.std::__1::__compressed_pair.44" = type { %"struct.std::__1::__compressed_pair_elem.45" }
%"struct.std::__1::__compressed_pair_elem.45" = type { float }
%"class.std::__1::set" = type { %"class.std::__1::__tree.47" }
%"class.std::__1::__tree.47" = type { %"class.std::__1::__tree_end_node"*, %"class.std::__1::__compressed_pair.48", %"class.std::__1::__compressed_pair.52" }
%"class.std::__1::__compressed_pair.48" = type { %"struct.std::__1::__compressed_pair_elem.10" }
%"class.std::__1::__compressed_pair.52" = type { %"struct.std::__1::__compressed_pair_elem.13" }
%"class.std::__1::unordered_map.54" = type { %"class.std::__1::__hash_table.55" }
%"class.std::__1::__hash_table.55" = type <{ %"class.std::__1::unique_ptr.56", %"class.std::__1::__compressed_pair.66", %"class.std::__1::__compressed_pair.71", %"class.std::__1::__compressed_pair.74", [4 x i8] }>
%"class.std::__1::unique_ptr.56" = type { %"class.std::__1::__compressed_pair.57" }
%"class.std::__1::__compressed_pair.57" = type { %"struct.std::__1::__compressed_pair_elem.58", %"struct.std::__1::__compressed_pair_elem.60" }
%"struct.std::__1::__compressed_pair_elem.58" = type { %"struct.std::__1::__hash_node_base.59"** }
%"struct.std::__1::__hash_node_base.59" = type { %"struct.std::__1::__hash_node_base.59"* }
%"struct.std::__1::__compressed_pair_elem.60" = type { %"class.std::__1::__bucket_list_deallocator.61" }
%"class.std::__1::__bucket_list_deallocator.61" = type { %"class.std::__1::__compressed_pair.62" }
%"class.std::__1::__compressed_pair.62" = type { %"struct.std::__1::__compressed_pair_elem.13" }
%"class.std::__1::__compressed_pair.66" = type { %"struct.std::__1::__compressed_pair_elem.67" }
%"struct.std::__1::__compressed_pair_elem.67" = type { %"struct.std::__1::__hash_node_base.59" }
%"class.std::__1::__compressed_pair.71" = type { %"struct.std::__1::__compressed_pair_elem.13" }
%"class.std::__1::__compressed_pair.74" = type { %"struct.std::__1::__compressed_pair_elem.45" }
%"class.std::__1::set.83" = type { %"class.std::__1::__tree.84" }
%"class.std::__1::__tree.84" = type { %"class.std::__1::__tree_end_node"*, %"class.std::__1::__compressed_pair.85", %"class.std::__1::__compressed_pair.89" }
%"class.std::__1::__compressed_pair.85" = type { %"struct.std::__1::__compressed_pair_elem.10" }
%"class.std::__1::__compressed_pair.89" = type { %"struct.std::__1::__compressed_pair_elem.13" }
%"class.std::__1::basic_string" = type { %"class.std::__1::__compressed_pair.78" }
%"class.std::__1::__compressed_pair.78" = type { %"struct.std::__1::__compressed_pair_elem.79" }
%"struct.std::__1::__compressed_pair_elem.79" = type { %"struct.std::__1::basic_string<char, std::__1::char_traits<char>, std::__1::allocator<char> >::__rep" }
%"struct.std::__1::basic_string<char, std::__1::char_traits<char>, std::__1::allocator<char> >::__rep" = type { %union.anon }
%union.anon = type { %"struct.std::__1::basic_string<char, std::__1::char_traits<char>, std::__1::allocator<char> >::__long" }
%"struct.std::__1::basic_string<char, std::__1::char_traits<char>, std::__1::allocator<char> >::__long" = type { i8*, i64, i64 }
%"class.extensions::ExtensionPrefs" = type { %class.KeyedService, %"class.content::BrowserContext"*, %class.PrefService*, %"class.base::FilePath", %class.ExtensionPrefValueMap*, %"class.base::Clock"*, i8, [7 x i8], %"class.base::ObserverList.110" }
%class.KeyedService = type { i32 (...)** }
%"class.content::BrowserContext" = type opaque
%"class.base::FilePath" = type { %"class.std::__1::basic_string" }
%class.ExtensionPrefValueMap = type { %class.KeyedService, %"class.std::__1::map.96", i8, [7 x i8], %"class.base::ObserverList" }
%"class.std::__1::map.96" = type { %"class.std::__1::__tree.97" }
%"class.std::__1::__tree.97" = type { %"class.std::__1::__tree_end_node"*, %"class.std::__1::__compressed_pair.98", %"class.std::__1::__compressed_pair.102" }
%"class.std::__1::__compressed_pair.98" = type { %"struct.std::__1::__compressed_pair_elem.10" }
%"class.std::__1::__compressed_pair.102" = type { %"struct.std::__1::__compressed_pair_elem.13" }
%"class.base::ObserverList" = type <{ %"class.std::__1::vector", %"class.base::LinkedList", i64, i32, [4 x i8] }>
%"class.std::__1::vector" = type { %"class.std::__1::__vector_base" }
%"class.std::__1::__vector_base" = type { %"class.base::internal::UncheckedObserverAdapter"*, %"class.base::internal::UncheckedObserverAdapter"*, %"class.std::__1::__compressed_pair.105" }
%"class.base::internal::UncheckedObserverAdapter" = type { i8* }
%"class.std::__1::__compressed_pair.105" = type { %"struct.std::__1::__compressed_pair_elem.106" }
%"struct.std::__1::__compressed_pair_elem.106" = type { %"class.base::internal::UncheckedObserverAdapter"* }
%"class.base::LinkedList" = type { %"class.base::LinkNode" }
%"class.base::LinkNode" = type { %"class.base::internal::LinkNodeBase" }
%"class.base::internal::LinkNodeBase" = type { %"class.base::internal::LinkNodeBase"*, %"class.base::internal::LinkNodeBase"* }
%"class.base::Clock" = type { i32 (...)** }
%"class.base::ObserverList.110" = type <{ %"class.std::__1::vector", %"class.base::LinkedList.111", i64, i32, [4 x i8] }>
%"class.base::LinkedList.111" = type { %"class.base::LinkNode.112" }
%"class.base::LinkNode.112" = type { %"class.base::internal::LinkNodeBase" }
%"class.extensions::ExtensionPrefs::ScopedListUpdate" = type { %"class.std::__1::unique_ptr", %"class.std::__1::basic_string" }
%"class.std::__1::vector.180" = type { %"class.std::__1::__vector_base.181" }
%"class.std::__1::__vector_base.181" = type { %"class.extensions::EarlyExtensionPrefsObserver"**, %"class.extensions::EarlyExtensionPrefsObserver"**, %"class.std::__1::__compressed_pair.182" }
%"class.extensions::EarlyExtensionPrefsObserver" = type { i32 (...)** }
%"class.std::__1::__compressed_pair.182" = type { %"struct.std::__1::__compressed_pair_elem.183" }
%"struct.std::__1::__compressed_pair_elem.183" = type { %"class.extensions::EarlyExtensionPrefsObserver"** }
%"struct.std::__1::basic_string<char, std::__1::char_traits<char>, std::__1::allocator<char> >::__short" = type { [23 x i8], %struct.anon }
%struct.anon = type { i8 }
%"class.prefs::DictionaryValueUpdate" = type { %"class.base::RepeatingCallback.123", %"class.base::DictionaryValue"*, %"class.std::__1::vector.153" }
%"class.base::RepeatingCallback.123" = type { %"class.base::internal::CallbackBaseCopyable" }
%"class.base::DictionaryValue" = type { %"class.base::Value" }
%"class.base::Value" = type { %"class.absl::variant" }
%"class.absl::variant" = type { %"class.absl::variant_internal::VariantCopyAssignBaseNontrivial" }
%"class.absl::variant_internal::VariantCopyAssignBaseNontrivial" = type { %"class.absl::variant_internal::VariantMoveAssignBaseNontrivial" }
%"class.absl::variant_internal::VariantMoveAssignBaseNontrivial" = type { %"class.absl::variant_internal::VariantCopyBaseNontrivial" }
%"class.absl::variant_internal::VariantCopyBaseNontrivial" = type { %"class.absl::variant_internal::VariantMoveBaseNontrivial" }
%"class.absl::variant_internal::VariantMoveBaseNontrivial" = type { %"class.absl::variant_internal::VariantStateBaseDestructorNontrivial" }
%"class.absl::variant_internal::VariantStateBaseDestructorNontrivial" = type { %"class.absl::variant_internal::VariantStateBase" }
%"class.absl::variant_internal::VariantStateBase" = type { %"union.absl::variant_internal::DestructibleUnionImpl", i64 }
%"union.absl::variant_internal::DestructibleUnionImpl" = type { %"union.absl::variant_internal::DestructibleUnionImpl.124" }
%"union.absl::variant_internal::DestructibleUnionImpl.124" = type { %"union.absl::variant_internal::DestructibleUnionImpl.125" }
%"union.absl::variant_internal::DestructibleUnionImpl.125" = type { %"union.absl::variant_internal::DestructibleUnionImpl.126" }
%"union.absl::variant_internal::DestructibleUnionImpl.126" = type { %"union.absl::variant_internal::DestructibleUnionImpl.127" }
%"union.absl::variant_internal::DestructibleUnionImpl.127" = type { %"class.std::__1::basic_string" }
%"class.std::__1::vector.153" = type { %"class.std::__1::__vector_base.154" }
%"class.std::__1::__vector_base.154" = type { %"class.std::__1::basic_string"*, %"class.std::__1::basic_string"*, %"class.std::__1::__compressed_pair.155" }
%"class.std::__1::__compressed_pair.155" = type { %"struct.std::__1::__compressed_pair_elem.156" }
%"struct.std::__1::__compressed_pair_elem.156" = type { %"class.std::__1::basic_string"* }
%"class.std::__1::unique_ptr.120" = type { %"class.std::__1::__compressed_pair.121" }
%"class.std::__1::__compressed_pair.121" = type { %"struct.std::__1::__compressed_pair_elem.122" }
%"struct.std::__1::__compressed_pair_elem.122" = type { %"class.prefs::DictionaryValueUpdate"* }
%"class.base::ListValue" = type { %"class.base::Value" }
%"class.base::DefaultClock" = type { %"class.base::Clock" }
%"class.base::ObserverList<extensions::ExtensionPrefsObserver, false, true, base::internal::UncheckedObserverAdapter>::Iter" = type { %"class.base::internal::WeakLinkNode", i64, i64 }
%"class.base::internal::WeakLinkNode" = type { %"class.base::LinkNode.112", %"class.base::ObserverList.110"* }
%"class.extensions::ExtensionPrefsObserver" = type { i32 (...)** }
%"class.extensions::ExtensionPrefsFactory" = type { %class.BrowserContextKeyedServiceFactory }
%class.BrowserContextKeyedServiceFactory = type { %class.KeyedServiceFactory }
%class.KeyedServiceFactory = type { %class.KeyedServiceBaseFactory.base, %"class.std::__1::map.187", %"class.std::__1::map.198" }
%class.KeyedServiceBaseFactory.base = type <{ i32 (...)**, %class.DependencyManager*, i8*, i32 }>
%class.DependencyManager = type opaque
%"class.std::__1::map.187" = type { %"class.std::__1::__tree.188" }
%"class.std::__1::__tree.188" = type { %"class.std::__1::__tree_end_node"*, %"class.std::__1::__compressed_pair.189", %"class.std::__1::__compressed_pair.193" }
%"class.std::__1::__compressed_pair.189" = type { %"struct.std::__1::__compressed_pair_elem.10" }
%"class.std::__1::__compressed_pair.193" = type { %"struct.std::__1::__compressed_pair_elem.13" }
%"class.std::__1::map.198" = type { %"class.std::__1::__tree.199" }
%"class.std::__1::__tree.199" = type { %"class.std::__1::__tree_end_node"*, %"class.std::__1::__compressed_pair.200", %"class.std::__1::__compressed_pair.204" }
%"class.std::__1::__compressed_pair.200" = type { %"struct.std::__1::__compressed_pair_elem.10" }
%"class.std::__1::__compressed_pair.204" = type { %"struct.std::__1::__compressed_pair_elem.13" }
%"class.base::detail::const_dict_iterator::pointer" = type { %"struct.std::__1::pair.376" }
%"struct.std::__1::pair.376" = type { %"class.std::__1::basic_string"*, %"class.base::Value"* }
%"class.base::detail::const_dict_iterator" = type { %"class.std::__1::__wrap_iter" }
%"class.std::__1::__wrap_iter" = type { %"struct.std::__1::pair"* }
%"struct.std::__1::pair" = type opaque
%"class.base::detail::const_dict_iterator_proxy" = type { %"class.base::flat_map"* }
%"class.base::flat_map" = type { %"class.base::internal::flat_tree" }
%"class.base::internal::flat_tree" = type { %"class.std::__1::vector.137" }
%"class.std::__1::vector.137" = type { %"class.std::__1::__vector_base.138" }
%"class.std::__1::__vector_base.138" = type { %"struct.std::__1::pair"*, %"struct.std::__1::pair"*, %"class.std::__1::__compressed_pair.139" }
%"class.std::__1::__compressed_pair.139" = type { %"struct.std::__1::__compressed_pair_elem.140" }
%"struct.std::__1::__compressed_pair_elem.140" = type { %"struct.std::__1::pair"* }
%"class.base::DictionaryValue::Iterator" = type { %"class.base::DictionaryValue"*, %"class.base::detail::const_dict_iterator" }
%"class.std::__1::__basic_string_common" = type { i8 }
%"class.std::__1::__tree_node.450" = type { %"class.std::__1::__tree_node_base.base", %"class.std::__1::basic_string" }
%"class.std::__1::__tree_node_base.base" = type <{ %"class.std::__1::__tree_end_node", %"class.std::__1::__tree_node_base"*, %"class.std::__1::__tree_end_node"*, i8 }>
%"class.std::__1::allocator.81" = type { i8 }
%"class.logging::CheckError" = type { %"class.logging::LogMessage"* }
%"class.logging::LogMessage" = type { i32 (...)**, i32, %"class.std::__1::basic_ostringstream", i64, i8*, i32, %"class.base::ScopedClearLastErrorBase" }
%"class.std::__1::basic_ostringstream" = type { %"class.std::__1::basic_ostream.base", %"class.std::__1::basic_stringbuf", %"class.std::__1::basic_ios.base" }
%"class.std::__1::basic_ostream.base" = type { i32 (...)** }
%"class.std::__1::basic_stringbuf" = type <{ %"class.std::__1::basic_streambuf", %"class.std::__1::basic_string", i8*, i32, [4 x i8] }>
%"class.std::__1::basic_streambuf" = type { i32 (...)**, %"class.std::__1::locale", i8*, i8*, i8*, i8*, i8*, i8* }
%"class.std::__1::locale" = type { %"class.std::__1::locale::__imp"* }
%"class.std::__1::locale::__imp" = type opaque
%"class.std::__1::basic_ios.base" = type <{ %"class.std::__1::ios_base", %"class.std::__1::basic_ostream"*, i32 }>
%"class.std::__1::ios_base" = type { i32 (...)**, i32, i64, i64, i32, i32, i8*, i8*, void (i32, %"class.std::__1::ios_base"*, i32)**, i32*, i64, i64, i64*, i64, i64, i8**, i64, i64 }
%"class.std::__1::basic_ostream" = type { i32 (...)**, %"class.std::__1::basic_ios.base" }
%"class.base::ScopedClearLastErrorBase" = type { i32 }
%"class.extensions::(anonymous namespace)::ScopedExtensionPrefUpdate" = type { %"class.prefs::ScopedDictionaryPrefUpdate", %"class.std::__1::basic_string" }
%"class.std::__1::unique_ptr.175" = type { %"class.std::__1::__compressed_pair.176" }
%"class.std::__1::__compressed_pair.176" = type { %"struct.std::__1::__compressed_pair_elem.148" }
%"struct.std::__1::__compressed_pair_elem.148" = type { %"class.base::Value"* }
%"class.extensions::URLPatternSet" = type { %"class.std::__1::set.209" }
%"class.std::__1::set.209" = type { %"class.std::__1::__tree.210" }
%"class.std::__1::__tree.210" = type { %"class.std::__1::__tree_end_node"*, %"class.std::__1::__compressed_pair.211", %"class.std::__1::__compressed_pair.215" }
%"class.std::__1::__compressed_pair.211" = type { %"struct.std::__1::__compressed_pair_elem.10" }
%"class.std::__1::__compressed_pair.215" = type { %"struct.std::__1::__compressed_pair_elem.13" }
%"class.extensions::PermissionSet" = type { %"class.extensions::APIPermissionSet", %"class.extensions::ManifestPermissionSet", %"class.extensions::URLPatternSet", %"class.extensions::URLPatternSet", %"class.extensions::URLPatternSet", i32, i32 }
%"class.extensions::APIPermissionSet" = type { %"class.extensions::BaseSetOperators" }
%"class.extensions::BaseSetOperators" = type { %"class.std::__1::map.222" }
%"class.std::__1::map.222" = type { %"class.std::__1::__tree.223" }
%"class.std::__1::__tree.223" = type { %"class.std::__1::__tree_end_node"*, %"class.std::__1::__compressed_pair.224", %"class.std::__1::__compressed_pair.228" }
%"class.std::__1::__compressed_pair.224" = type { %"struct.std::__1::__compressed_pair_elem.10" }
%"class.std::__1::__compressed_pair.228" = type { %"struct.std::__1::__compressed_pair_elem.13" }
%"class.extensions::ManifestPermissionSet" = type { %"class.extensions::BaseSetOperators.233" }
%"class.extensions::BaseSetOperators.233" = type { %"class.std::__1::map.234" }
%"class.std::__1::map.234" = type { %"class.std::__1::__tree.235" }
%"class.std::__1::__tree.235" = type { %"class.std::__1::__tree_end_node"*, %"class.std::__1::__compressed_pair.236", %"class.std::__1::__compressed_pair.240" }
%"class.std::__1::__compressed_pair.236" = type { %"struct.std::__1::__compressed_pair_elem.10" }
%"class.std::__1::__compressed_pair.240" = type { %"struct.std::__1::__compressed_pair_elem.13" }
%"class.std::__1::basic_string.253" = type { %"class.std::__1::__compressed_pair.254" }
%"class.std::__1::__compressed_pair.254" = type { %"struct.std::__1::__compressed_pair_elem.255" }
%"struct.std::__1::__compressed_pair_elem.255" = type { %"struct.std::__1::basic_string<char16_t, std::__1::char_traits<char16_t>, std::__1::allocator<char16_t> >::__rep" }
%"struct.std::__1::basic_string<char16_t, std::__1::char_traits<char16_t>, std::__1::allocator<char16_t> >::__rep" = type { %union.anon.256 }
%union.anon.256 = type { %"struct.std::__1::basic_string<char16_t, std::__1::char_traits<char16_t>, std::__1::allocator<char16_t> >::__long" }
%"struct.std::__1::basic_string<char16_t, std::__1::char_traits<char16_t>, std::__1::allocator<char16_t> >::__long" = type { i16*, i64, i64 }
%"class.std::__1::__tree_node" = type { %"class.std::__1::__tree_node_base.base", %"struct.std::__1::__value_type" }
%"struct.std::__1::__value_type" = type { %"struct.std::__1::pair.387" }
%"struct.std::__1::pair.387" = type { %"class.std::__1::basic_string", %"class.std::__1::unique_ptr.388" }
%"class.std::__1::unique_ptr.388" = type { %"class.std::__1::__compressed_pair.389" }
%"class.std::__1::__compressed_pair.389" = type { %"struct.std::__1::__compressed_pair_elem.390" }
%"struct.std::__1::__compressed_pair_elem.390" = type { %"class.extensions::ManifestPermission"* }
%"class.extensions::ManifestPermission" = type { i32 (...)** }
%"class.std::__1::__tree_node.394" = type { %"class.std::__1::__tree_node_base.base", %"struct.std::__1::__value_type.395" }
%"struct.std::__1::__value_type.395" = type { %"struct.std::__1::pair.396" }
%"struct.std::__1::pair.396" = type { i32, %"class.std::__1::unique_ptr.397" }
%"class.std::__1::unique_ptr.397" = type { %"class.std::__1::__compressed_pair.398" }
%"class.std::__1::__compressed_pair.398" = type { %"struct.std::__1::__compressed_pair_elem.399" }
%"struct.std::__1::__compressed_pair_elem.399" = type { %"class.extensions::APIPermission"* }
%"class.extensions::APIPermission" = type { i32 (...)**, %"class.extensions::APIPermissionInfo"* }
%"class.extensions::APIPermissionInfo" = type { i8*, i32, i32, {}* }
%"class.base::Time" = type { %"class.base::time_internal::TimeBase" }
%"class.base::time_internal::TimeBase" = type { i64 }
%"class.base::CheckedContiguousIterator" = type { %"class.base::Value"*, %"class.base::Value"*, %"class.base::Value"* }
%"class.std::__1::vector.145" = type { %"class.std::__1::__vector_base.146" }
%"class.std::__1::__vector_base.146" = type { %"class.base::Value"*, %"class.base::Value"*, %"class.std::__1::__compressed_pair.147" }
%"class.std::__1::__compressed_pair.147" = type { %"struct.std::__1::__compressed_pair_elem.148" }
%class.ScopedUserPrefUpdate = type { i32 (...)**, %"class.subtle::ScopedUserPrefUpdateBase" }
%"class.subtle::ScopedUserPrefUpdateBase" = type { %class.PrefService*, %"class.std::__1::basic_string", %"class.base::Value"* }
%"class.extensions::Extension" = type { %"class.base::RefCountedThreadSafe.268", %"class.std::__1::basic_string", %"class.std::__1::basic_string", %"class.std::__1::basic_string", i32, %"class.base::FilePath", %"class.extensions::URLPatternSet", %"class.std::__1::unique_ptr.269", %"class.std::__1::unique_ptr.275", %"class.std::__1::vector.281", %class.GURL, %"class.base::Version", %"class.std::__1::basic_string", %"class.std::__1::basic_string", i8, %"class.std::__1::basic_string", %"class.std::__1::unique_ptr.301", %"class.std::__1::map.313", i8, %"class.base::ThreadChecker", i8, i8, i8, i32, %"class.base::GUID" }
%"class.base::RefCountedThreadSafe.268" = type { %"class.base::subtle::RefCountedThreadSafeBase" }
%"class.std::__1::unique_ptr.269" = type { %"class.std::__1::__compressed_pair.270" }
%"class.std::__1::__compressed_pair.270" = type { %"struct.std::__1::__compressed_pair_elem.271" }
%"struct.std::__1::__compressed_pair_elem.271" = type { %"class.extensions::PermissionsParser"* }
%"class.extensions::PermissionsParser" = type opaque
%"class.std::__1::unique_ptr.275" = type { %"class.std::__1::__compressed_pair.276" }
%"class.std::__1::__compressed_pair.276" = type { %"struct.std::__1::__compressed_pair_elem.277" }
%"struct.std::__1::__compressed_pair_elem.277" = type { %"class.extensions::PermissionsData"* }
%"class.extensions::PermissionsData" = type opaque
%"class.std::__1::vector.281" = type { %"class.std::__1::__vector_base.282" }
%"class.std::__1::__vector_base.282" = type { %"struct.extensions::InstallWarning"*, %"struct.extensions::InstallWarning"*, %"class.std::__1::__compressed_pair.283" }
%"struct.extensions::InstallWarning" = type { %"class.std::__1::basic_string", %"class.std::__1::basic_string", %"class.std::__1::basic_string" }
%"class.std::__1::__compressed_pair.283" = type { %"struct.std::__1::__compressed_pair_elem.284" }
%"struct.std::__1::__compressed_pair_elem.284" = type { %"struct.extensions::InstallWarning"* }
%class.GURL = type { %"class.std::__1::basic_string", i8, %"struct.url::Parsed", %"class.std::__1::unique_ptr.288" }
%"struct.url::Parsed" = type { %"struct.url::Component", %"struct.url::Component", %"struct.url::Component", %"struct.url::Component", %"struct.url::Component", %"struct.url::Component", %"struct.url::Component", %"struct.url::Component", i8, %"struct.url::Parsed"* }
%"struct.url::Component" = type { i32, i32 }
%"class.std::__1::unique_ptr.288" = type { %"class.std::__1::__compressed_pair.289" }
%"class.std::__1::__compressed_pair.289" = type { %"struct.std::__1::__compressed_pair_elem.290" }
%"struct.std::__1::__compressed_pair_elem.290" = type { %class.GURL* }
%"class.base::Version" = type { %"class.std::__1::vector.294" }
%"class.std::__1::vector.294" = type { %"class.std::__1::__vector_base.295" }
%"class.std::__1::__vector_base.295" = type { i32*, i32*, %"class.std::__1::__compressed_pair.296" }
%"class.std::__1::__compressed_pair.296" = type { %"struct.std::__1::__compressed_pair_elem.297" }
%"struct.std::__1::__compressed_pair_elem.297" = type { i32* }
%"class.std::__1::unique_ptr.301" = type { %"class.std::__1::__compressed_pair.302" }
%"class.std::__1::__compressed_pair.302" = type { %"struct.std::__1::__compressed_pair_elem.303" }
%"struct.std::__1::__compressed_pair_elem.303" = type { %"class.extensions::Manifest"* }
%"class.extensions::Manifest" = type { %"class.std::__1::basic_string", %"class.extensions::HashedExtensionId", i32, %"class.std::__1::unique_ptr.304", %"class.std::__1::unique_ptr.304", i32, i32 }
%"class.extensions::HashedExtensionId" = type { %"class.std::__1::basic_string" }
%"class.std::__1::unique_ptr.304" = type { %"class.std::__1::__compressed_pair.305" }
%"class.std::__1::__compressed_pair.305" = type { %"struct.std::__1::__compressed_pair_elem.306" }
%"struct.std::__1::__compressed_pair_elem.306" = type { %"class.base::DictionaryValue"* }
%"class.std::__1::map.313" = type { %"class.std::__1::__tree.314" }
%"class.std::__1::__tree.314" = type { %"class.std::__1::__tree_end_node"*, %"class.std::__1::__compressed_pair.315", %"class.std::__1::__compressed_pair.319" }
%"class.std::__1::__compressed_pair.315" = type { %"struct.std::__1::__compressed_pair_elem.10" }
%"class.std::__1::__compressed_pair.319" = type { %"struct.std::__1::__compressed_pair_elem.13" }
%"class.base::ThreadChecker" = type { i8 }
%"class.base::GUID" = type { %"class.std::__1::basic_string" }
%"class.syncer::Ordinal" = type <{ %"class.std::__1::basic_string", i8, [7 x i8] }>
%"class.std::__1::vector.322" = type { %"class.std::__1::__vector_base.323" }
%"class.std::__1::__vector_base.323" = type { %"struct.extensions::declarative_net_request::RulesetInstallPref"*, %"struct.extensions::declarative_net_request::RulesetInstallPref"*, %"class.std::__1::__compressed_pair.329" }
%"struct.extensions::declarative_net_request::RulesetInstallPref" = type <{ %"class.util::IdType", %"class.absl::optional.324", i8, [3 x i8] }>
%"class.util::IdType" = type { %"class.base::StrongAlias" }
%"class.base::StrongAlias" = type { i32 }
%"class.absl::optional.324" = type { %"class.absl::optional_internal::optional_data.325" }
%"class.absl::optional_internal::optional_data.325" = type { %"class.absl::optional_internal::optional_data_base.326" }
%"class.absl::optional_internal::optional_data_base.326" = type { %"class.absl::optional_internal::optional_data_dtor_base.327" }
%"class.absl::optional_internal::optional_data_dtor_base.327" = type { i8, %union.anon.328 }
%union.anon.328 = type { i32 }
%"class.std::__1::__compressed_pair.329" = type { %"struct.std::__1::__compressed_pair_elem.330" }
%"struct.std::__1::__compressed_pair_elem.330" = type { %"struct.extensions::declarative_net_request::RulesetInstallPref"* }
%"class.extensions::ExtensionSystem" = type { %class.KeyedService }
%"class.extensions::AppSorting" = type { i32 (...)** }
%"struct.extensions::ExtensionInfo" = type <{ %"class.std::__1::unique_ptr.163", %"class.std::__1::basic_string", %"class.base::FilePath", i32, [4 x i8] }>
%"class.std::__1::unique_ptr.163" = type { %"class.std::__1::__compressed_pair.164" }
%"class.std::__1::__compressed_pair.164" = type { %"struct.std::__1::__compressed_pair_elem.165" }
%"struct.std::__1::__compressed_pair_elem.165" = type { %"class.base::DictionaryValue"* }
%"class.std::__1::vector.343" = type { %"class.std::__1::__vector_base.344" }
%"class.std::__1::__vector_base.344" = type { %"class.std::__1::unique_ptr.334"*, %"class.std::__1::unique_ptr.334"*, %"class.std::__1::__compressed_pair.345" }
%"class.std::__1::unique_ptr.334" = type { %"class.std::__1::__compressed_pair.335" }
%"class.std::__1::__compressed_pair.335" = type { %"struct.std::__1::__compressed_pair_elem.336" }
%"struct.std::__1::__compressed_pair_elem.336" = type { %"struct.extensions::ExtensionInfo"* }
%"class.std::__1::__compressed_pair.345" = type { %"struct.std::__1::__compressed_pair_elem.346" }
%"struct.std::__1::__compressed_pair_elem.346" = type { %"class.std::__1::unique_ptr.334"* }
%"class.std::__1::__vector_base_common" = type { i8 }
%"class.base::TimeDelta" = type { i64 }
%"class.base::TimeTicks" = type { %"class.base::time_internal::TimeBase.353" }
%"class.base::time_internal::TimeBase.353" = type { i64 }
%"class.base::trace_event::TraceArguments" = type { i8, [2 x i8], [2 x i8*], [2 x %"union.base::trace_event::TraceValue"] }
%"union.base::trace_event::TraceValue" = type { i64 }
%"class.base::HistogramBase" = type <{ i32 (...)**, i8*, %"struct.std::__1::atomic.432", [4 x i8] }>
%"struct.std::__1::atomic.432" = type { %"struct.std::__1::__atomic_base.433" }
%"struct.std::__1::__atomic_base.433" = type { %"struct.std::__1::__atomic_base.434" }
%"struct.std::__1::__atomic_base.434" = type { %"struct.std::__1::__cxx_atomic_impl.435" }
%"struct.std::__1::__cxx_atomic_impl.435" = type { %"struct.std::__1::__cxx_atomic_base_impl.436" }
%"struct.std::__1::__cxx_atomic_base_impl.436" = type { i32 }
%"class.absl::optional.354" = type { %"class.absl::optional_internal::optional_data.355" }
%"class.absl::optional_internal::optional_data.355" = type { %"class.absl::optional_internal::optional_data_base.356" }
%"class.absl::optional_internal::optional_data_base.356" = type { %"class.absl::optional_internal::optional_data_dtor_base.357" }
%"class.absl::optional_internal::optional_data_dtor_base.357" = type { i8, %union.anon.358 }
%union.anon.358 = type { %"class.std::__1::set.359" }
%"class.std::__1::set.359" = type { %"class.std::__1::__tree.360" }
%"class.std::__1::__tree.360" = type { %"class.std::__1::__tree_end_node"*, %"class.std::__1::__compressed_pair.361", %"class.std::__1::__compressed_pair.365" }
%"class.std::__1::__compressed_pair.361" = type { %"struct.std::__1::__compressed_pair_elem.10" }
%"class.std::__1::__compressed_pair.365" = type { %"struct.std::__1::__compressed_pair_elem.13" }
%"class.std::__1::__tree_node.472" = type { %"class.std::__1::__tree_node_base.base", %"class.util::IdType" }
%"class.logging::CheckOpResult" = type { i8* }
%"class.base::CheckedContiguousIterator.380" = type { %"class.base::Value"*, %"class.base::Value"*, %"class.base::Value"* }
%"class.user_prefs::PrefRegistrySyncable" = type { %class.PrefRegistrySimple, %"class.base::RepeatingCallback.373" }
%class.PrefRegistrySimple = type { %class.PrefRegistry }
%"class.base::RepeatingCallback.373" = type { %"class.base::internal::CallbackBaseCopyable" }
%"class.std::__1::basic_ostream<char, std::__1::char_traits<char> >::sentry" = type { i8, %"class.std::__1::basic_ostream"* }
%"class.std::__1::locale::facet" = type { %"class.std::__1::__shared_count" }
%"class.std::__1::__shared_count" = type { i32 (...)**, i64 }
%"class.std::__1::ctype" = type <{ %"class.std::__1::locale::facet", i16*, i8, [7 x i8] }>
%"struct.std::__1::__split_buffer" = type { %"class.std::__1::basic_string"*, %"class.std::__1::basic_string"*, %"class.std::__1::basic_string"*, %"class.std::__1::__compressed_pair.443" }
%"class.std::__1::__compressed_pair.443" = type { %"struct.std::__1::__compressed_pair_elem.156", %"struct.std::__1::__compressed_pair_elem.444" }
%"struct.std::__1::__compressed_pair_elem.444" = type { %"class.std::__1::allocator.158"* }
%"class.std::__1::allocator.158" = type { i8 }

$_ZNSt3__111make_uniqueIN10extensions13PermissionSetEJNS1_16APIPermissionSetENS1_21ManifestPermissionSetENS1_13URLPatternSetES5_EEENS_11__unique_ifIT_E15__unique_singleEDpOT0_ = comdat any

$_ZNK10extensions14ExtensionPrefs33GetUserExtensionPrefIntoContainerINSt3__16vectorINS2_12basic_stringIcNS2_11char_traitsIcEENS2_9allocatorIcEEEENS7_IS9_EEEEEEbPKcPT_ = comdat any

$_ZN10extensions14ExtensionPrefs29SetExtensionPrefFromContainerINSt3__16vectorINS2_12basic_stringIcNS2_11char_traitsIcEENS2_9allocatorIcEEEENS7_IS9_EEEEEEvPKcRKT_ = comdat any

$_ZN20ScopedUserPrefUpdateIN4base9ListValueELNS0_5Value4TypeE7EED2Ev = comdat any

$_ZNK4base25CheckedContiguousIteratorIKNS_5ValueEEdeEv = comdat any

$_ZN4base25CheckedContiguousIteratorIKNS_5ValueEEppEv = comdat any

$_ZN20ScopedUserPrefUpdateIN4base9ListValueELNS0_5Value4TypeE7EE3GetEv = comdat any

$_ZNSt3__16__treeINS_12__value_typeINS_12basic_stringIcNS_11char_traitsIcEENS_9allocatorIcEEEENS_10unique_ptrIN10extensions18ManifestPermissionENS_14default_deleteISA_EEEEEENS_19__map_value_compareIS7_SE_NS_4lessIS7_EELb1EEENS5_ISE_EEE7destroyEPNS_11__tree_nodeISE_PvEE = comdat any

$_ZNSt3__16__treeINS_12__value_typeIN10extensions5mojom15APIPermissionIDENS_10unique_ptrINS2_13APIPermissionENS_14default_deleteIS6_EEEEEENS_19__map_value_compareIS4_SA_NS_4lessIS4_EELb1EEENS_9allocatorISA_EEE7destroyEPNS_11__tree_nodeISA_PvEE = comdat any

$_ZN4base25CheckedContiguousIteratorIKNS_5ValueEEC2EPS2_S4_S4_ = comdat any

$_ZZN7logging15CheckOpValueStrIPKN4base5ValueEEENSt3__19enable_ifIXaasr4base8internal23SupportsOstreamOperatorIRKT_EE5valuentsr3std11is_functionINS5_14remove_pointerIS7_E4typeEEE5valueEPcE4typeES9_ENUlRNS5_13basic_ostreamIcNS5_11char_traitsIcEEEEPKvE_8__invokeESK_SM_ = comdat any

$_ZNK4base25CheckedContiguousIteratorIKNS_5ValueEE15CheckComparableERKS3_ = comdat any

$_ZN4base25CheckedContiguousIteratorINS_5ValueEEC2EPKS1_PS1_S4_ = comdat any

$_ZZN7logging15CheckOpValueStrIPN4base5ValueEEENSt3__19enable_ifIXaasr4base8internal23SupportsOstreamOperatorIRKT_EE5valuentsr3std11is_functionINS4_14remove_pointerIS6_E4typeEEE5valueEPcE4typeES8_ENUlRNS4_13basic_ostreamIcNS4_11char_traitsIcEEEEPKvE_8__invokeESJ_SL_ = comdat any

$_ZNK4base25CheckedContiguousIteratorINS_5ValueEE15CheckComparableERKS2_ = comdat any

$_ZNSt3__124__put_character_sequenceIcNS_11char_traitsIcEEEERNS_13basic_ostreamIT_T0_EES7_PKS4_m = comdat any

$_ZNSt3__116__pad_and_outputIcNS_11char_traitsIcEEEENS_19ostreambuf_iteratorIT_T0_EES6_PKS4_S8_S8_RNS_8ios_baseES4_ = comdat any

$_ZNSt3__16vectorINS_12basic_stringIcNS_11char_traitsIcEENS_9allocatorIcEEEENS4_IS6_EEE21__push_back_slow_pathIRKS6_EEvOT_ = comdat any

$_ZNSt3__16__treeINS_12basic_stringIcNS_11char_traitsIcEENS_9allocatorIcEEEENS_4lessIS6_EENS4_IS6_EEE7destroyEPNS_11__tree_nodeIS6_PvEE = comdat any

$_ZNSt3__16__treeINS_12basic_stringIcNS_11char_traitsIcEENS_9allocatorIcEEEENS_4lessIS6_EENS4_IS6_EEE25__emplace_unique_key_argsIS6_JRKS6_EEENS_4pairINS_15__tree_iteratorIS6_PNS_11__tree_nodeIS6_PvEElEEbEERKT_DpOT0_ = comdat any

$_ZNSt3__16__treeINS_12basic_stringIcNS_11char_traitsIcEENS_9allocatorIcEEEENS_4lessIS6_EENS4_IS6_EEE12__find_equalIS6_EERPNS_16__tree_node_baseIPvEERPNS_15__tree_end_nodeISF_EERKT_ = comdat any

$_ZNSt3__127__tree_balance_after_insertIPNS_16__tree_node_baseIPvEEEEvT_S5_ = comdat any

$_ZNSt3__16vectorINS_12basic_stringIcNS_11char_traitsIcEENS_9allocatorIcEEEENS4_IS6_EEE6insertENS_11__wrap_iterIPKS6_EERSA_ = comdat any

$_ZNSt3__114__split_bufferINS_12basic_stringIcNS_11char_traitsIcEENS_9allocatorIcEEEERNS4_IS6_EEE9push_backERKS6_ = comdat any

$_ZN20ScopedUserPrefUpdateIN4base9ListValueELNS0_5Value4TypeE7EED0Ev = comdat any

$_ZNSt3__16vectorINS_10unique_ptrIN10extensions13ExtensionInfoENS_14default_deleteIS3_EEEENS_9allocatorIS6_EEE21__push_back_slow_pathIS6_EEvOT_ = comdat any

$_ZNSt3__16__treeIN4util6IdTypeIN10extensions23declarative_net_request12RulesetIDTagEiLin2ELin1EEENS_4lessIS6_EENS_9allocatorIS6_EEE7destroyEPNS_11__tree_nodeIS6_PvEE = comdat any

$_ZNSt3__16vectorIN4base5ValueENS_9allocatorIS2_EEE21__push_back_slow_pathIS2_EEvOT_ = comdat any

$_ZNK4base25CheckedContiguousIteratorINS_5ValueEEdeEv = comdat any

$_ZN4base25CheckedContiguousIteratorINS_5ValueEEppEv = comdat any

$_ZN4absl16variant_internal26TypedThrowBadVariantAccessIRNSt3__16vectorIN4base5ValueENS2_9allocatorIS5_EEEEEET_v = comdat any

$_ZTV20ScopedUserPrefUpdateIN4base9ListValueELNS0_5Value4TypeE7EE = comdat any

@.str = private unnamed_addr constant [19 x i8] c"FlatBuffers 1.12.0\00", align 1
@_ZN11flatbuffers25flatbuffer_version_stringE = weak hidden local_unnamed_addr global i8* getelementptr inbounds ([19 x i8], [19 x i8]* @.str, i64 0, i64 0), align 8
@_ZTVN10extensions14ExtensionPrefsE = hidden unnamed_addr constant { [5 x i8*] } { [5 x i8*] [i8* null, i8* null, i8* bitcast (void (%"class.extensions::ExtensionPrefs"*)* @_ZN10extensions14ExtensionPrefsD2Ev to i8*), i8* bitcast (void (%"class.extensions::ExtensionPrefs"*)* @_ZN10extensions14ExtensionPrefsD0Ev to i8*), i8* bitcast (void (%class.KeyedService*)* @_ZN12KeyedService8ShutdownEv to i8*)] }, align 8
@_ZN10extensions10pref_names11kExtensionsE = external constant [0 x i8], align 1
@_ZN10extensions12_GLOBAL__N_113kPrefLocationE = internal constant [9 x i8] c"location\00", align 1
@_ZN10extensions12_GLOBAL__N_19kPrefPathE = internal constant [5 x i8] c"path\00", align 1
@_ZN10extensions12_GLOBAL__N_19kPrefAPIsE = internal constant [4 x i8] c"api\00", align 1
@_ZN10extensions12_GLOBAL__N_124kPrefManifestPermissionsE = internal constant [21 x i8] c"manifest_permissions\00", align 16
@_ZN10extensions12_GLOBAL__N_118kPrefExplicitHostsE = internal constant [14 x i8] c"explicit_host\00", align 1
@_ZN10extensions9Extension27kValidHostPermissionSchemesE = external local_unnamed_addr constant i32, align 4
@_ZN10extensions12_GLOBAL__N_120kPrefScriptableHostsE = internal constant [16 x i8] c"scriptable_host\00", align 16
@.str.1 = private unnamed_addr constant [44 x i8] c"../../extensions/browser/extension_prefs.cc\00", align 1
@.str.2 = private unnamed_addr constant [43 x i8] c"crx_file::id_util::IdIsValid(extension_id)\00", align 1
@_ZN10extensions12_GLOBAL__N_127kPrefAcknowledgePromptCountE = internal constant [17 x i8] c"ack_prompt_count\00", align 16
@_ZN10extensions12_GLOBAL__N_125kPrefExternalAcknowledgedE = internal constant [13 x i8] c"ack_external\00", align 1
@_ZN10extensions12_GLOBAL__N_126kPrefBlocklistAcknowledgedE = internal constant [14 x i8] c"ack_blacklist\00", align 1
@_ZN10extensions12_GLOBAL__N_128kPrefExternalInstallFirstRunE = internal constant [19 x i8] c"external_first_run\00", align 16
@_ZN10extensions10pref_names18kAlertsInitializedE = external constant [0 x i8], align 1
@_ZN10extensions12_GLOBAL__N_137g_run_alerts_in_first_run_for_testingE = internal unnamed_addr global i1 false, align 1
@_ZN10extensions12_GLOBAL__N_119kPrefDisableReasonsE = internal constant [16 x i8] c"disable_reasons\00", align 16
@_ZN14extension_misc12kCameraAppIdE = external constant [0 x i8], align 1
@_ZN10extensions12_GLOBAL__N_112kLastPingDayE = internal constant [12 x i8] c"lastpingday\00", align 1
@_ZN10extensions12_GLOBAL__N_126kExtensionsBlocklistUpdateE = internal constant [27 x i8] c"extensions.blacklistupdate\00", align 16
@_ZN10extensions12_GLOBAL__N_118kLastActivePingDayE = internal constant [20 x i8] c"last_active_pingday\00", align 16
@_ZN10extensions12_GLOBAL__N_110kActiveBitE = internal constant [11 x i8] c"active_bit\00", align 1
@_ZN10extensions12_GLOBAL__N_123kPrefGrantedPermissionsE = internal constant [20 x i8] c"granted_permissions\00", align 16
@_ZN10extensions12_GLOBAL__N_122kPrefActivePermissionsE = internal constant [19 x i8] c"active_permissions\00", align 16
@_ZN10extensions12_GLOBAL__N_127kPrefWithholdingPermissionsE = internal constant [24 x i8] c"withholding_permissions\00", align 16
@_ZN10extensions12_GLOBAL__N_130kPrefRuntimeGrantedPermissionsE = internal constant [28 x i8] c"runtime_granted_permissions\00", align 16
@_ZN10extensions12_GLOBAL__N_112kPrefRunningE = internal constant [8 x i8] c"running\00", align 1
@_ZN10extensions12_GLOBAL__N_19kIsActiveE = internal constant [10 x i8] c"is_active\00", align 1
@_ZN10extensions12_GLOBAL__N_121kPrefIncognitoEnabledE = internal constant [10 x i8] c"incognito\00", align 1
@_ZN10extensions12_GLOBAL__N_120kPrefAllowFileAccessE = internal constant [19 x i8] c"newAllowFileAccess\00", align 16
@_ZN10extensions12_GLOBAL__N_110kPrefStateE = internal constant [6 x i8] c"state\00", align 1
@.str.3 = private unnamed_addr constant [33 x i8] c"Bad pref 'state' for extension '\00", align 1
@.str.4 = private unnamed_addr constant [2 x i8] c"'\00", align 1
@_ZN10extensions12_GLOBAL__N_119kExternalUninstallsE = internal constant [31 x i8] c"extensions.external_uninstalls\00", align 16
@_ZN10extensions10pref_names8kToolbarE = external constant [0 x i8], align 1
@_ZN10extensions10pref_names17kPinnedExtensionsE = external constant [0 x i8], align 1
@_ZN10extensions12_GLOBAL__N_114kPrefBlocklistE = internal constant [10 x i8] c"blacklist\00", align 1
@_ZN10extensions12_GLOBAL__N_119kPrefBlocklistStateE = internal constant [16 x i8] c"blacklist_state\00", align 16
@_ZN10extensions12_GLOBAL__N_120kPrefManifestVersionE = internal constant [17 x i8] c"manifest.version\00", align 16
@_ZN10extensions12_GLOBAL__N_113kPrefManifestE = internal constant [9 x i8] c"manifest\00", align 1
@.str.5 = private unnamed_addr constant [32 x i8] c"Missing manifest for extension \00", align 1
@_ZN10extensions12_GLOBAL__N_119kDelayedInstallInfoE = internal constant [18 x i8] c"idle_install_info\00", align 16
@_ZN10extensions12_GLOBAL__N_125kPrefSuggestedPageOrdinalE = internal constant [23 x i8] c"suggested_page_ordinal\00", align 16
@_ZN10extensions12_GLOBAL__N_121kDelayedInstallReasonE = internal constant [21 x i8] c"delay_install_reason\00", align 16
@_ZN10extensions12_GLOBAL__N_116kPrefInstallTimeE = internal constant [13 x i8] c"install_time\00", align 1
@_ZN10extensions12_GLOBAL__N_117kPrefFromWebStoreE = internal constant [14 x i8] c"from_webstore\00", align 1
@_ZN10extensions12_GLOBAL__N_117kPrefFromBookmarkE = internal constant [14 x i8] c"from_bookmark\00", align 1
@_ZN10extensions12_GLOBAL__N_118kPrefCreationFlagsE = internal constant [15 x i8] c"creation_flags\00", align 1
@_ZN10extensions12_GLOBAL__N_126kPrefWasInstalledByDefaultE = internal constant [25 x i8] c"was_installed_by_default\00", align 16
@_ZN10extensions12_GLOBAL__N_122kPrefWasInstalledByOemE = internal constant [21 x i8] c"was_installed_by_oem\00", align 16
@_ZN10extensions12_GLOBAL__N_114kPrefDoNotSyncE = internal constant [12 x i8] c"do_not_sync\00", align 1
@_ZN10extensions12_GLOBAL__N_119kPrefLastLaunchTimeE = internal constant [17 x i8] c"last_launch_time\00", align 16
@.str.6 = private unnamed_addr constant [4 x i8] c"out\00", align 1
@_ZZN10extensions14ExtensionPrefs13InitPrefStoreEvE29trace_event_unique_atomic2001 = internal global i64 0, align 8
@.str.7 = private unnamed_addr constant [16 x i8] c"browser,startup\00", align 1
@.str.8 = private unnamed_addr constant [30 x i8] c"ExtensionPrefs::InitPrefStore\00", align 1
@_ZN10extensions12_GLOBAL__N_118kPrefGeometryCacheE = internal constant [15 x i8] c"geometry_cache\00", align 1
@_ZN10extensions12_GLOBAL__N_117kInstallSignatureE = internal unnamed_addr constant [29 x i8] c"extensions.install_signature\00", align 16
@_ZN10extensions12_GLOBAL__N_117kPrefInstallParamE = internal constant [18 x i8] c"install_parameter\00", align 16
@_ZN10extensions12_GLOBAL__N_114kPrefNeedsSyncE = internal constant [11 x i8] c"needs_sync\00", align 1
@_ZN10extensions12_GLOBAL__N_121kDNRStaticRulesetPrefE = internal constant [19 x i8] c"dnr_static_ruleset\00", align 16
@_ZN10extensions12_GLOBAL__N_115kDNRChecksumKeyE = internal constant [9 x i8] c"checksum\00", align 1
@_ZN10extensions12_GLOBAL__N_122kDNRDynamicRulesetPrefE = internal constant [20 x i8] c"dnr_dynamic_ruleset\00", align 16
@.ref.tmp.9 = private unnamed_addr constant [2 x %"class.base::BasicStringPiece"] [%"class.base::BasicStringPiece" { i8* getelementptr inbounds ([20 x i8], [20 x i8]* @_ZN10extensions12_GLOBAL__N_122kDNRDynamicRulesetPrefE, i32 0, i32 0), i64 19 }, %"class.base::BasicStringPiece" { i8* getelementptr inbounds ([9 x i8], [9 x i8]* @_ZN10extensions12_GLOBAL__N_115kDNRChecksumKeyE, i32 0, i32 0), i64 8 }], align 8
@_ZN10extensions12_GLOBAL__N_127kDNREnabledStaticRulesetIDsE = internal constant [24 x i8] c"dnr_enabled_ruleset_ids\00", align 16
@_ZN10extensions12_GLOBAL__N_133kPrefDNRUseActionCountAsBadgeTextE = internal constant [35 x i8] c"dnr_use_action_count_as_badge_text\00", align 16
@_ZN10extensions12_GLOBAL__N_120kDNRIgnoreRulesetKeyE = internal constant [15 x i8] c"ignore_ruleset\00", align 1
@_ZN10extensions12_GLOBAL__N_127kDNRExtensionRulesAllocatedE = internal constant [30 x i8] c"dnr_extension_rules_allocated\00", align 16
@_ZN10extensions12_GLOBAL__N_128kPrefDNRKeepExcessAllocationE = internal constant [27 x i8] c"dnr_keep_excess_allocation\00", align 16
@_ZN10extensions10pref_names26kExtensionCheckupOnStartupE = external constant [0 x i8], align 1
@_ZN10extensions14ExtensionPrefs27kFakeObsoletePrefForTestingE = hidden constant [33 x i8] c"__fake_obsolete_pref_for_testing\00", align 16
@_ZN10extensions10pref_names22kStorageGarbageCollectE = external constant [0 x i8], align 1
@_ZN10extensions10pref_names27kDeletedComponentExtensionsE = external constant [0 x i8], align 1
@_ZN10extensions10pref_names17kInstallAllowListE = external constant [0 x i8], align 1
@_ZN10extensions10pref_names16kInstallDenyListE = external constant [0 x i8], align 1
@_ZN10extensions10pref_names17kInstallForceListE = external constant [0 x i8], align 1
@_ZN10extensions10pref_names13kAllowedTypesE = external constant [0 x i8], align 1
@_ZN10extensions10pref_names20kAllowedInstallSitesE = external constant [0 x i8], align 1
@_ZN10extensions10pref_names18kLastChromeVersionE = external constant [0 x i8], align 1
@_ZN10extensions10pref_names25kNativeMessagingBlocklistE = external constant [0 x i8], align 1
@_ZN10extensions10pref_names25kNativeMessagingAllowlistE = external constant [0 x i8], align 1
@_ZN10extensions10pref_names30kNativeMessagingUserLevelHostsE = external constant [0 x i8], align 1
@_ZN10extensions22kCorruptedDisableCountE = external local_unnamed_addr global %"struct.extensions::PrefMap", align 8
@_ZN10extensions10pref_names21kAppFullscreenAllowedE = external constant [0 x i8], align 1
@_ZN10extensions10pref_names24kBlockExternalExtensionsE = external constant [0 x i8], align 1
@_ZZN10extensions14ExtensionPrefs28InitExtensionControlledPrefsERKNSt3__16vectorINS1_10unique_ptrINS_13ExtensionInfoENS1_14default_deleteIS4_EEEENS1_9allocatorIS7_EEEEE29trace_event_unique_atomic2480 = internal global i64 0, align 8
@.str.10 = private unnamed_addr constant [45 x i8] c"ExtensionPrefs::InitExtensionControlledPrefs\00", align 1
@.str.11 = private unnamed_addr constant [2 x i8] c".\00", align 1
@_ZN10extensions10pref_names16kPrefPreferencesE = external constant [0 x i8], align 1
@_ZN10extensions10pref_names25kPrefIncognitoPreferencesE = external constant [0 x i8], align 1
@_ZN10extensions10pref_names27kPrefRegularOnlyPreferencesE = external constant [0 x i8], align 1
@_ZN10extensions10pref_names20kPrefContentSettingsE = external constant [0 x i8], align 1
@_ZN10extensions10pref_names29kPrefIncognitoContentSettingsE = external constant [0 x i8], align 1
@_ZN10extensions11EventRouter21kRegisteredLazyEventsE = external constant [0 x i8], align 1
@_ZN10extensions11EventRouter30kRegisteredServiceWorkerEventsE = external constant [0 x i8], align 1
@_ZN14extension_misc13kYoutubeAppIdE = external constant [0 x i8], align 1
@.str.12 = private unnamed_addr constant [29 x i8] c"settings.privacy.drm_enabled\00", align 1
@.str.13 = private unnamed_addr constant [66 x i8] c"profile.default_content_setting_values.protected_media_identifier\00", align 1
@_ZN10extensions12_GLOBAL__N_133kGrantExtensionAllHostPermissionsE = internal constant [30 x i8] c"extension_can_script_all_urls\00", align 16
@.str.14 = private unnamed_addr constant [34 x i8] c"../../base/strings/string_piece.h\00", align 1
@.str.15 = private unnamed_addr constant [2 x i8] c"s\00", align 1
@_ZTVN10extensions12_GLOBAL__N_125ScopedExtensionPrefUpdateE = internal unnamed_addr constant { [5 x i8*] } { [5 x i8*] [i8* null, i8* null, i8* bitcast (void (%"class.extensions::(anonymous namespace)::ScopedExtensionPrefUpdate"*)* @_ZN10extensions12_GLOBAL__N_125ScopedExtensionPrefUpdateD2Ev to i8*), i8* bitcast (void (%"class.extensions::(anonymous namespace)::ScopedExtensionPrefUpdate"*)* @_ZN10extensions12_GLOBAL__N_125ScopedExtensionPrefUpdateD0Ev to i8*), i8* bitcast (%"class.prefs::DictionaryValueUpdate"* (%"class.extensions::(anonymous namespace)::ScopedExtensionPrefUpdate"*)* @_ZN10extensions12_GLOBAL__N_125ScopedExtensionPrefUpdate3GetEv to i8*)] }, align 8
@.str.16 = private unnamed_addr constant [37 x i8] c"Extensions.InitPrefGetExtensionsTime\00", align 1
@.str.17 = private unnamed_addr constant [17 x i8] c"start <= current\00", align 1
@.str.18 = private unnamed_addr constant [42 x i8] c"../../base/containers/checked_iterators.h\00", align 1
@.str.19 = private unnamed_addr constant [15 x i8] c"current <= end\00", align 1
@.str.20 = private unnamed_addr constant [23 x i8] c"start_ == other.start_\00", align 1
@.str.21 = private unnamed_addr constant [19 x i8] c"end_ == other.end_\00", align 1
@.str.22 = private unnamed_addr constant [17 x i8] c"current_ != end_\00", align 1
@_ZNSt3__15ctypeIcE2idE = external global %"class.std::__1::locale::id", align 8
@_ZTV20ScopedUserPrefUpdateIN4base9ListValueELNS0_5Value4TypeE7EE = linkonce_odr hidden unnamed_addr constant { [5 x i8*] } { [5 x i8*] [i8* null, i8* null, i8* bitcast (void (%class.ScopedUserPrefUpdate*)* @_ZN20ScopedUserPrefUpdateIN4base9ListValueELNS0_5Value4TypeE7EED2Ev to i8*), i8* bitcast (void (%class.ScopedUserPrefUpdate*)* @_ZN20ScopedUserPrefUpdateIN4base9ListValueELNS0_5Value4TypeE7EED0Ev to i8*), i8* bitcast (%"class.base::ListValue"* (%class.ScopedUserPrefUpdate*)* @_ZN20ScopedUserPrefUpdateIN4base9ListValueELNS0_5Value4TypeE7EE3GetEv to i8*)] }, comdat, align 8
@_ZZZN10extensions14ExtensionPrefs13InitPrefStoreEvEN21ScopedHistogramTimer0D1EvE24atomic_histogram_pointer.0.0.0.0.0 = internal unnamed_addr global i64 0, align 8

@_ZN10extensions14ExtensionPrefs22ScopedDictionaryUpdateC1EPS0_RKNSt3__112basic_stringIcNS3_11char_traitsIcEENS3_9allocatorIcEEEESB_ = hidden unnamed_addr alias void (%"class.extensions::ExtensionPrefs::ScopedDictionaryUpdate"*, %"class.extensions::ExtensionPrefs"*, %"class.std::__1::basic_string"*, %"class.std::__1::basic_string"*), void (%"class.extensions::ExtensionPrefs::ScopedDictionaryUpdate"*, %"class.extensions::ExtensionPrefs"*, %"class.std::__1::basic_string"*, %"class.std::__1::basic_string"*)* @_ZN10extensions14ExtensionPrefs22ScopedDictionaryUpdateC2EPS0_RKNSt3__112basic_stringIcNS3_11char_traitsIcEENS3_9allocatorIcEEEESB_
@_ZN10extensions14ExtensionPrefs22ScopedDictionaryUpdateD1Ev = hidden unnamed_addr alias void (%"class.extensions::ExtensionPrefs::ScopedDictionaryUpdate"*), void (%"class.extensions::ExtensionPrefs::ScopedDictionaryUpdate"*)* @_ZN10extensions14ExtensionPrefs22ScopedDictionaryUpdateD2Ev
@_ZN10extensions14ExtensionPrefs16ScopedListUpdateC1EPS0_RKNSt3__112basic_stringIcNS3_11char_traitsIcEENS3_9allocatorIcEEEESB_ = hidden unnamed_addr alias void (%"class.extensions::ExtensionPrefs::ScopedListUpdate"*, %"class.extensions::ExtensionPrefs"*, %"class.std::__1::basic_string"*, %"class.std::__1::basic_string"*), void (%"class.extensions::ExtensionPrefs::ScopedListUpdate"*, %"class.extensions::ExtensionPrefs"*, %"class.std::__1::basic_string"*, %"class.std::__1::basic_string"*)* @_ZN10extensions14ExtensionPrefs16ScopedListUpdateC2EPS0_RKNSt3__112basic_stringIcNS3_11char_traitsIcEENS3_9allocatorIcEEEESB_
@_ZN10extensions14ExtensionPrefs16ScopedListUpdateD1Ev = hidden unnamed_addr alias void (%"class.extensions::ExtensionPrefs::ScopedListUpdate"*), void (%"class.extensions::ExtensionPrefs::ScopedListUpdate"*)* @_ZN10extensions14ExtensionPrefs16ScopedListUpdateD2Ev
@_ZN10extensions14ExtensionPrefsD1Ev = hidden unnamed_addr alias void (%"class.extensions::ExtensionPrefs"*), void (%"class.extensions::ExtensionPrefs"*)* @_ZN10extensions14ExtensionPrefsD2Ev
@_ZN10extensions14ExtensionPrefsC1EPN7content14BrowserContextEP11PrefServiceRKN4base8FilePathEP21ExtensionPrefValueMapPNS6_5ClockEbRKNSt3__16vectorIPNS_27EarlyExtensionPrefsObserverENSE_9allocatorISH_EEEE = hidden unnamed_addr alias void (%"class.extensions::ExtensionPrefs"*, %"class.content::BrowserContext"*, %class.PrefService*, %"class.base::FilePath"*, %class.ExtensionPrefValueMap*, %"class.base::Clock"*, i1, %"class.std::__1::vector.180"*), void (%"class.extensions::ExtensionPrefs"*, %"class.content::BrowserContext"*, %class.PrefService*, %"class.base::FilePath"*, %class.ExtensionPrefValueMap*, %"class.base::Clock"*, i1, %"class.std::__1::vector.180"*)* @_ZN10extensions14ExtensionPrefsC2EPN7content14BrowserContextEP11PrefServiceRKN4base8FilePathEP21ExtensionPrefValueMapPNS6_5ClockEbRKNSt3__16vectorIPNS_27EarlyExtensionPrefsObserverENSE_9allocatorISH_EEEE

; Function Attrs: nounwind ssp uwtable
define hidden void @_ZN10extensions14ExtensionPrefs22ScopedDictionaryUpdateC2EPS0_RKNSt3__112basic_stringIcNS3_11char_traitsIcEENS3_9allocatorIcEEEESB_(%"class.extensions::ExtensionPrefs::ScopedDictionaryUpdate"*, %"class.extensions::ExtensionPrefs"* nocapture readonly, %"class.std::__1::basic_string"* nocapture readonly dereferenceable(24), %"class.std::__1::basic_string"* nocapture readonly dereferenceable(24)) unnamed_addr #0 align 2 {
  %5 = getelementptr inbounds %"class.extensions::ExtensionPrefs", %"class.extensions::ExtensionPrefs"* %1, i64 0, i32 2
  %6 = load %class.PrefService*, %class.PrefService** %5, align 8
  %7 = tail call i8* @_Znwm(i64 88) #14
  %8 = bitcast i8* %7 to %"class.prefs::ScopedDictionaryPrefUpdate"*
  %9 = tail call i64 @strlen(i8* nonnull getelementptr inbounds ([0 x i8], [0 x i8]* @_ZN10extensions10pref_names11kExtensionsE, i64 0, i64 0)) #15
  tail call void @_ZN5prefs26ScopedDictionaryPrefUpdateC2EP11PrefServiceN4base16BasicStringPieceIcNSt3__111char_traitsIcEEEE(%"class.prefs::ScopedDictionaryPrefUpdate"* nonnull %8, %class.PrefService* %6, i8* getelementptr inbounds ([0 x i8], [0 x i8]* @_ZN10extensions10pref_names11kExtensionsE, i64 0, i64 0), i64 %9) #15
  %10 = bitcast i8* %7 to i32 (...)***
  store i32 (...)** bitcast (i8** getelementptr inbounds ({ [5 x i8*] }, { [5 x i8*] }* @_ZTVN10extensions12_GLOBAL__N_125ScopedExtensionPrefUpdateE, i64 0, inrange i32 0, i64 2) to i32 (...)**), i32 (...)*** %10, align 8
  %11 = getelementptr inbounds i8, i8* %7, i64 64
  %12 = bitcast %"class.std::__1::basic_string"* %2 to %"struct.std::__1::basic_string<char, std::__1::char_traits<char>, std::__1::allocator<char> >::__short"*
  %13 = getelementptr inbounds %"struct.std::__1::basic_string<char, std::__1::char_traits<char>, std::__1::allocator<char> >::__short", %"struct.std::__1::basic_string<char, std::__1::char_traits<char>, std::__1::allocator<char> >::__short"* %12, i64 0, i32 1, i32 0
  %14 = load i8, i8* %13, align 1
  %15 = icmp slt i8 %14, 0
  br i1 %15, label %18, label %16

16:                                               ; preds = %4
  %17 = bitcast %"class.std::__1::basic_string"* %2 to i8*
  tail call void @llvm.memcpy.p0i8.p0i8.i64(i8* align 8 %11, i8* align 8 %17, i64 24, i1 false) #15
  br label %24

18:                                               ; preds = %4
  %19 = bitcast i8* %11 to %"class.std::__1::basic_string"*
  %20 = getelementptr inbounds %"class.std::__1::basic_string", %"class.std::__1::basic_string"* %2, i64 0, i32 0, i32 0, i32 0, i32 0, i32 0, i32 0
  %21 = load i8*, i8** %20, align 8
  %22 = getelementptr inbounds %"class.std::__1::basic_string", %"class.std::__1::basic_string"* %2, i64 0, i32 0, i32 0, i32 0, i32 0, i32 0, i32 1
  %23 = load i64, i64* %22, align 8
  tail call void @_ZNSt3__112basic_stringIcNS_11char_traitsIcEENS_9allocatorIcEEE25__init_copy_ctor_externalEPKcm(%"class.std::__1::basic_string"* %19, i8* %21, i64 %23) #15
  br label %24

24:                                               ; preds = %18, %16
  %25 = ptrtoint i8* %7 to i64
  %26 = bitcast %"class.extensions::ExtensionPrefs::ScopedDictionaryUpdate"* %0 to i64*
  store i64 %25, i64* %26, align 8
  %27 = getelementptr inbounds %"class.extensions::ExtensionPrefs::ScopedDictionaryUpdate", %"class.extensions::ExtensionPrefs::ScopedDictionaryUpdate"* %0, i64 0, i32 1
  %28 = bitcast %"class.std::__1::basic_string"* %3 to %"struct.std::__1::basic_string<char, std::__1::char_traits<char>, std::__1::allocator<char> >::__short"*
  %29 = getelementptr inbounds %"struct.std::__1::basic_string<char, std::__1::char_traits<char>, std::__1::allocator<char> >::__short", %"struct.std::__1::basic_string<char, std::__1::char_traits<char>, std::__1::allocator<char> >::__short"* %28, i64 0, i32 1, i32 0
  %30 = load i8, i8* %29, align 1
  %31 = icmp slt i8 %30, 0
  br i1 %31, label %35, label %32

32:                                               ; preds = %24
  %33 = bitcast %"class.std::__1::basic_string"* %27 to i8*
  %34 = bitcast %"class.std::__1::basic_string"* %3 to i8*
  tail call void @llvm.memcpy.p0i8.p0i8.i64(i8* align 8 %33, i8* align 8 %34, i64 24, i1 false) #15
  br label %40

35:                                               ; preds = %24
  %36 = getelementptr inbounds %"class.std::__1::basic_string", %"class.std::__1::basic_string"* %3, i64 0, i32 0, i32 0, i32 0, i32 0, i32 0, i32 0
  %37 = load i8*, i8** %36, align 8
  %38 = getelementptr inbounds %"class.std::__1::basic_string", %"class.std::__1::basic_string"* %3, i64 0, i32 0, i32 0, i32 0, i32 0, i32 0, i32 1
  %39 = load i64, i64* %38, align 8
  tail call void @_ZNSt3__112basic_stringIcNS_11char_traitsIcEENS_9allocatorIcEEE25__init_copy_ctor_externalEPKcm(%"class.std::__1::basic_string"* %27, i8* %37, i64 %39) #15
  br label %40

40:                                               ; preds = %32, %35
  ret void
}

; Function Attrs: argmemonly nounwind
declare void @llvm.lifetime.start.p0i8(i64 immarg, i8* nocapture) #1

; Function Attrs: argmemonly nounwind
declare void @llvm.lifetime.end.p0i8(i64 immarg, i8* nocapture) #1

; Function Attrs: nounwind ssp uwtable
define hidden void @_ZN10extensions14ExtensionPrefs22ScopedDictionaryUpdateD2Ev(%"class.extensions::ExtensionPrefs::ScopedDictionaryUpdate"* nocapture) unnamed_addr #0 align 2 {
  %2 = getelementptr inbounds %"class.extensions::ExtensionPrefs::ScopedDictionaryUpdate", %"class.extensions::ExtensionPrefs::ScopedDictionaryUpdate"* %0, i64 0, i32 1
  %3 = bitcast %"class.std::__1::basic_string"* %2 to %"struct.std::__1::basic_string<char, std::__1::char_traits<char>, std::__1::allocator<char> >::__short"*
  %4 = getelementptr inbounds %"struct.std::__1::basic_string<char, std::__1::char_traits<char>, std::__1::allocator<char> >::__short", %"struct.std::__1::basic_string<char, std::__1::char_traits<char>, std::__1::allocator<char> >::__short"* %3, i64 0, i32 1, i32 0
  %5 = load i8, i8* %4, align 1
  %6 = icmp slt i8 %5, 0
  br i1 %6, label %7, label %10

7:                                                ; preds = %1
  %8 = getelementptr inbounds %"class.std::__1::basic_string", %"class.std::__1::basic_string"* %2, i64 0, i32 0, i32 0, i32 0, i32 0, i32 0, i32 0
  %9 = load i8*, i8** %8, align 8
  tail call void @_ZdlPv(i8* %9) #14
  br label %10

10:                                               ; preds = %1, %7
  %11 = getelementptr inbounds %"class.extensions::ExtensionPrefs::ScopedDictionaryUpdate", %"class.extensions::ExtensionPrefs::ScopedDictionaryUpdate"* %0, i64 0, i32 0, i32 0, i32 0, i32 0
  %12 = load %"class.prefs::ScopedDictionaryPrefUpdate"*, %"class.prefs::ScopedDictionaryPrefUpdate"** %11, align 8
  store %"class.prefs::ScopedDictionaryPrefUpdate"* null, %"class.prefs::ScopedDictionaryPrefUpdate"** %11, align 8
  %13 = icmp eq %"class.prefs::ScopedDictionaryPrefUpdate"* %12, null
  br i1 %13, label %19, label %14

14:                                               ; preds = %10
  %15 = bitcast %"class.prefs::ScopedDictionaryPrefUpdate"* %12 to void (%"class.prefs::ScopedDictionaryPrefUpdate"*)***
  %16 = load void (%"class.prefs::ScopedDictionaryPrefUpdate"*)**, void (%"class.prefs::ScopedDictionaryPrefUpdate"*)*** %15, align 8
  %17 = getelementptr inbounds void (%"class.prefs::ScopedDictionaryPrefUpdate"*)*, void (%"class.prefs::ScopedDictionaryPrefUpdate"*)** %16, i64 1
  %18 = load void (%"class.prefs::ScopedDictionaryPrefUpdate"*)*, void (%"class.prefs::ScopedDictionaryPrefUpdate"*)** %17, align 8
  tail call void %18(%"class.prefs::ScopedDictionaryPrefUpdate"* nonnull %12) #15
  br label %19

19:                                               ; preds = %10, %14
  ret void
}

; Function Attrs: nounwind ssp uwtable
define hidden %"class.prefs::DictionaryValueUpdate"* @_ZN10extensions14ExtensionPrefs22ScopedDictionaryUpdate3GetEv(%"class.extensions::ExtensionPrefs::ScopedDictionaryUpdate"*) local_unnamed_addr #0 align 2 {
  %2 = alloca %"class.std::__1::unique_ptr.120", align 8
  %3 = getelementptr inbounds %"class.extensions::ExtensionPrefs::ScopedDictionaryUpdate", %"class.extensions::ExtensionPrefs::ScopedDictionaryUpdate"* %0, i64 0, i32 0, i32 0, i32 0, i32 0
  %4 = load %"class.prefs::ScopedDictionaryPrefUpdate"*, %"class.prefs::ScopedDictionaryPrefUpdate"** %3, align 8
  %5 = bitcast %"class.prefs::ScopedDictionaryPrefUpdate"* %4 to %"class.prefs::DictionaryValueUpdate"* (%"class.prefs::ScopedDictionaryPrefUpdate"*)***
  %6 = load %"class.prefs::DictionaryValueUpdate"* (%"class.prefs::ScopedDictionaryPrefUpdate"*)**, %"class.prefs::DictionaryValueUpdate"* (%"class.prefs::ScopedDictionaryPrefUpdate"*)*** %5, align 8
  %7 = getelementptr inbounds %"class.prefs::DictionaryValueUpdate"* (%"class.prefs::ScopedDictionaryPrefUpdate"*)*, %"class.prefs::DictionaryValueUpdate"* (%"class.prefs::ScopedDictionaryPrefUpdate"*)** %6, i64 2
  %8 = load %"class.prefs::DictionaryValueUpdate"* (%"class.prefs::ScopedDictionaryPrefUpdate"*)*, %"class.prefs::DictionaryValueUpdate"* (%"class.prefs::ScopedDictionaryPrefUpdate"*)** %7, align 8
  %9 = tail call %"class.prefs::DictionaryValueUpdate"* %8(%"class.prefs::ScopedDictionaryPrefUpdate"* %4) #15
  %10 = getelementptr inbounds %"class.std::__1::unique_ptr.120", %"class.std::__1::unique_ptr.120"* %2, i64 0, i32 0, i32 0, i32 0
  %11 = bitcast %"class.std::__1::unique_ptr.120"* %2 to i64*
  store i64 0, i64* %11, align 8
  %12 = getelementptr inbounds %"class.extensions::ExtensionPrefs::ScopedDictionaryUpdate", %"class.extensions::ExtensionPrefs::ScopedDictionaryUpdate"* %0, i64 0, i32 1
  %13 = bitcast %"class.std::__1::basic_string"* %12 to %"struct.std::__1::basic_string<char, std::__1::char_traits<char>, std::__1::allocator<char> >::__short"*
  %14 = getelementptr inbounds %"struct.std::__1::basic_string<char, std::__1::char_traits<char>, std::__1::allocator<char> >::__short", %"struct.std::__1::basic_string<char, std::__1::char_traits<char>, std::__1::allocator<char> >::__short"* %13, i64 0, i32 1, i32 0
  %15 = load i8, i8* %14, align 1
  %16 = icmp slt i8 %15, 0
  %17 = getelementptr inbounds %"class.std::__1::basic_string", %"class.std::__1::basic_string"* %12, i64 0, i32 0, i32 0, i32 0, i32 0, i32 0, i32 0
  %18 = load i8*, i8** %17, align 8
  %19 = bitcast %"class.std::__1::basic_string"* %12 to i8*
  %20 = select i1 %16, i8* %18, i8* %19
  %21 = getelementptr inbounds %"class.extensions::ExtensionPrefs::ScopedDictionaryUpdate", %"class.extensions::ExtensionPrefs::ScopedDictionaryUpdate"* %0, i64 0, i32 1, i32 0, i32 0, i32 0, i32 0, i32 0, i32 1
  %22 = load i64, i64* %21, align 8
  %23 = zext i8 %15 to i64
  %24 = select i1 %16, i64 %22, i64 %23
  %25 = call zeroext i1 @_ZN5prefs21DictionaryValueUpdate13GetDictionaryEN4base16BasicStringPieceIcNSt3__111char_traitsIcEEEEPNS3_10unique_ptrIS0_NS3_14default_deleteIS0_EEEE(%"class.prefs::DictionaryValueUpdate"* %9, i8* %20, i64 %24, %"class.std::__1::unique_ptr.120"* nonnull %2) #15
  %26 = icmp eq %"class.prefs::DictionaryValueUpdate"* %9, null
  br i1 %26, label %29, label %27

27:                                               ; preds = %1
  call void @_ZN5prefs21DictionaryValueUpdateD1Ev(%"class.prefs::DictionaryValueUpdate"* nonnull %9) #15
  %28 = bitcast %"class.prefs::DictionaryValueUpdate"* %9 to i8*
  call void @_ZdlPv(i8* %28) #14
  br label %29

29:                                               ; preds = %1, %27
  %30 = load %"class.prefs::DictionaryValueUpdate"*, %"class.prefs::DictionaryValueUpdate"** %10, align 8
  ret %"class.prefs::DictionaryValueUpdate"* %30
}

declare zeroext i1 @_ZN5prefs21DictionaryValueUpdate13GetDictionaryEN4base16BasicStringPieceIcNSt3__111char_traitsIcEEEEPNS3_10unique_ptrIS0_NS3_14default_deleteIS0_EEEE(%"class.prefs::DictionaryValueUpdate"*, i8*, i64, %"class.std::__1::unique_ptr.120"*) local_unnamed_addr #2

; Function Attrs: nounwind ssp uwtable
define hidden %"class.prefs::DictionaryValueUpdate"* @_ZN10extensions14ExtensionPrefs22ScopedDictionaryUpdate6CreateEv(%"class.extensions::ExtensionPrefs::ScopedDictionaryUpdate"*) local_unnamed_addr #0 align 2 {
  %2 = alloca %"class.std::__1::unique_ptr.120", align 8
  %3 = getelementptr inbounds %"class.extensions::ExtensionPrefs::ScopedDictionaryUpdate", %"class.extensions::ExtensionPrefs::ScopedDictionaryUpdate"* %0, i64 0, i32 0, i32 0, i32 0, i32 0
  %4 = load %"class.prefs::ScopedDictionaryPrefUpdate"*, %"class.prefs::ScopedDictionaryPrefUpdate"** %3, align 8
  %5 = bitcast %"class.prefs::ScopedDictionaryPrefUpdate"* %4 to %"class.prefs::DictionaryValueUpdate"* (%"class.prefs::ScopedDictionaryPrefUpdate"*)***
  %6 = load %"class.prefs::DictionaryValueUpdate"* (%"class.prefs::ScopedDictionaryPrefUpdate"*)**, %"class.prefs::DictionaryValueUpdate"* (%"class.prefs::ScopedDictionaryPrefUpdate"*)*** %5, align 8
  %7 = getelementptr inbounds %"class.prefs::DictionaryValueUpdate"* (%"class.prefs::ScopedDictionaryPrefUpdate"*)*, %"class.prefs::DictionaryValueUpdate"* (%"class.prefs::ScopedDictionaryPrefUpdate"*)** %6, i64 2
  %8 = load %"class.prefs::DictionaryValueUpdate"* (%"class.prefs::ScopedDictionaryPrefUpdate"*)*, %"class.prefs::DictionaryValueUpdate"* (%"class.prefs::ScopedDictionaryPrefUpdate"*)** %7, align 8
  %9 = tail call %"class.prefs::DictionaryValueUpdate"* %8(%"class.prefs::ScopedDictionaryPrefUpdate"* %4) #15
  %10 = bitcast %"class.std::__1::unique_ptr.120"* %2 to i8*
  call void @llvm.lifetime.start.p0i8(i64 8, i8* nonnull %10) #15
  %11 = getelementptr inbounds %"class.std::__1::unique_ptr.120", %"class.std::__1::unique_ptr.120"* %2, i64 0, i32 0, i32 0, i32 0
  %12 = bitcast %"class.std::__1::unique_ptr.120"* %2 to i64*
  store i64 0, i64* %12, align 8
  %13 = getelementptr inbounds %"class.extensions::ExtensionPrefs::ScopedDictionaryUpdate", %"class.extensions::ExtensionPrefs::ScopedDictionaryUpdate"* %0, i64 0, i32 1
  %14 = bitcast %"class.std::__1::basic_string"* %13 to %"struct.std::__1::basic_string<char, std::__1::char_traits<char>, std::__1::allocator<char> >::__short"*
  %15 = getelementptr inbounds %"struct.std::__1::basic_string<char, std::__1::char_traits<char>, std::__1::allocator<char> >::__short", %"struct.std::__1::basic_string<char, std::__1::char_traits<char>, std::__1::allocator<char> >::__short"* %14, i64 0, i32 1, i32 0
  %16 = load i8, i8* %15, align 1
  %17 = icmp slt i8 %16, 0
  %18 = getelementptr inbounds %"class.std::__1::basic_string", %"class.std::__1::basic_string"* %13, i64 0, i32 0, i32 0, i32 0, i32 0, i32 0, i32 0
  %19 = load i8*, i8** %18, align 8
  %20 = bitcast %"class.std::__1::basic_string"* %13 to i8*
  %21 = select i1 %17, i8* %19, i8* %20
  %22 = getelementptr inbounds %"class.extensions::ExtensionPrefs::ScopedDictionaryUpdate", %"class.extensions::ExtensionPrefs::ScopedDictionaryUpdate"* %0, i64 0, i32 1, i32 0, i32 0, i32 0, i32 0, i32 0, i32 1
  %23 = load i64, i64* %22, align 8
  %24 = zext i8 %16 to i64
  %25 = select i1 %17, i64 %23, i64 %24
  %26 = call zeroext i1 @_ZN5prefs21DictionaryValueUpdate13GetDictionaryEN4base16BasicStringPieceIcNSt3__111char_traitsIcEEEEPNS3_10unique_ptrIS0_NS3_14default_deleteIS0_EEEE(%"class.prefs::DictionaryValueUpdate"* %9, i8* %21, i64 %25, %"class.std::__1::unique_ptr.120"* nonnull %2) #15
  br i1 %26, label %27, label %29

27:                                               ; preds = %1
  %28 = load i64, i64* %12, align 8
  store %"class.prefs::DictionaryValueUpdate"* null, %"class.prefs::DictionaryValueUpdate"** %11, align 8
  br label %45

29:                                               ; preds = %1
  %30 = load i8, i8* %15, align 1
  %31 = icmp slt i8 %30, 0
  %32 = load i8*, i8** %18, align 8
  %33 = select i1 %31, i8* %32, i8* %20
  %34 = load i64, i64* %22, align 8
  %35 = zext i8 %30 to i64
  %36 = select i1 %31, i64 %34, i64 %35
  %37 = call i8* @_Znwm(i64 32) #14
  %38 = bitcast i8* %37 to %"class.base::DictionaryValue"*
  call void @_ZN4base15DictionaryValueC1Ev(%"class.base::DictionaryValue"* nonnull %38) #15
  %39 = call %"class.prefs::DictionaryValueUpdate"* @_ZN5prefs21DictionaryValueUpdate13SetDictionaryEN4base16BasicStringPieceIcNSt3__111char_traitsIcEEEENS3_10unique_ptrINS1_15DictionaryValueENS3_14default_deleteIS8_EEEE(%"class.prefs::DictionaryValueUpdate"* %9, i8* %33, i64 %36, %"class.base::DictionaryValue"* nonnull %38) #15
  %40 = ptrtoint %"class.prefs::DictionaryValueUpdate"* %39 to i64
  %41 = load %"class.prefs::DictionaryValueUpdate"*, %"class.prefs::DictionaryValueUpdate"** %11, align 8
  store %"class.prefs::DictionaryValueUpdate"* null, %"class.prefs::DictionaryValueUpdate"** %11, align 8
  %42 = icmp eq %"class.prefs::DictionaryValueUpdate"* %41, null
  br i1 %42, label %45, label %43

43:                                               ; preds = %29
  call void @_ZN5prefs21DictionaryValueUpdateD1Ev(%"class.prefs::DictionaryValueUpdate"* nonnull %41) #15
  %44 = bitcast %"class.prefs::DictionaryValueUpdate"* %41 to i8*
  call void @_ZdlPv(i8* %44) #14
  br label %45

45:                                               ; preds = %27, %29, %43
  %46 = phi i64 [ %28, %27 ], [ %40, %29 ], [ %40, %43 ]
  call void @llvm.lifetime.end.p0i8(i64 8, i8* nonnull %10) #15
  %47 = icmp eq %"class.prefs::DictionaryValueUpdate"* %9, null
  br i1 %47, label %50, label %48

48:                                               ; preds = %45
  call void @_ZN5prefs21DictionaryValueUpdateD1Ev(%"class.prefs::DictionaryValueUpdate"* nonnull %9) #15
  %49 = bitcast %"class.prefs::DictionaryValueUpdate"* %9 to i8*
  call void @_ZdlPv(i8* %49) #14
  br label %50

50:                                               ; preds = %45, %48
  %51 = inttoptr i64 %46 to %"class.prefs::DictionaryValueUpdate"*
  ret %"class.prefs::DictionaryValueUpdate"* %51
}

declare %"class.prefs::DictionaryValueUpdate"* @_ZN5prefs21DictionaryValueUpdate13SetDictionaryEN4base16BasicStringPieceIcNSt3__111char_traitsIcEEEENS3_10unique_ptrINS1_15DictionaryValueENS3_14default_deleteIS8_EEEE(%"class.prefs::DictionaryValueUpdate"*, i8*, i64, %"class.base::DictionaryValue"*) local_unnamed_addr #2

; Function Attrs: nounwind ssp uwtable
define hidden void @_ZN10extensions14ExtensionPrefs16ScopedListUpdateC2EPS0_RKNSt3__112basic_stringIcNS3_11char_traitsIcEENS3_9allocatorIcEEEESB_(%"class.extensions::ExtensionPrefs::ScopedListUpdate"*, %"class.extensions::ExtensionPrefs"* nocapture readonly, %"class.std::__1::basic_string"* nocapture readonly dereferenceable(24), %"class.std::__1::basic_string"* nocapture readonly dereferenceable(24)) unnamed_addr #0 align 2 {
  %5 = getelementptr inbounds %"class.extensions::ExtensionPrefs", %"class.extensions::ExtensionPrefs"* %1, i64 0, i32 2
  %6 = load %class.PrefService*, %class.PrefService** %5, align 8
  %7 = tail call i8* @_Znwm(i64 88) #14
  %8 = bitcast i8* %7 to %"class.prefs::ScopedDictionaryPrefUpdate"*
  %9 = tail call i64 @strlen(i8* nonnull getelementptr inbounds ([0 x i8], [0 x i8]* @_ZN10extensions10pref_names11kExtensionsE, i64 0, i64 0)) #15
  tail call void @_ZN5prefs26ScopedDictionaryPrefUpdateC2EP11PrefServiceN4base16BasicStringPieceIcNSt3__111char_traitsIcEEEE(%"class.prefs::ScopedDictionaryPrefUpdate"* nonnull %8, %class.PrefService* %6, i8* getelementptr inbounds ([0 x i8], [0 x i8]* @_ZN10extensions10pref_names11kExtensionsE, i64 0, i64 0), i64 %9) #15
  %10 = bitcast i8* %7 to i32 (...)***
  store i32 (...)** bitcast (i8** getelementptr inbounds ({ [5 x i8*] }, { [5 x i8*] }* @_ZTVN10extensions12_GLOBAL__N_125ScopedExtensionPrefUpdateE, i64 0, inrange i32 0, i64 2) to i32 (...)**), i32 (...)*** %10, align 8
  %11 = getelementptr inbounds i8, i8* %7, i64 64
  %12 = bitcast %"class.std::__1::basic_string"* %2 to %"struct.std::__1::basic_string<char, std::__1::char_traits<char>, std::__1::allocator<char> >::__short"*
  %13 = getelementptr inbounds %"struct.std::__1::basic_string<char, std::__1::char_traits<char>, std::__1::allocator<char> >::__short", %"struct.std::__1::basic_string<char, std::__1::char_traits<char>, std::__1::allocator<char> >::__short"* %12, i64 0, i32 1, i32 0
  %14 = load i8, i8* %13, align 1
  %15 = icmp slt i8 %14, 0
  br i1 %15, label %18, label %16

16:                                               ; preds = %4
  %17 = bitcast %"class.std::__1::basic_string"* %2 to i8*
  tail call void @llvm.memcpy.p0i8.p0i8.i64(i8* align 8 %11, i8* align 8 %17, i64 24, i1 false) #15
  br label %24

18:                                               ; preds = %4
  %19 = bitcast i8* %11 to %"class.std::__1::basic_string"*
  %20 = getelementptr inbounds %"class.std::__1::basic_string", %"class.std::__1::basic_string"* %2, i64 0, i32 0, i32 0, i32 0, i32 0, i32 0, i32 0
  %21 = load i8*, i8** %20, align 8
  %22 = getelementptr inbounds %"class.std::__1::basic_string", %"class.std::__1::basic_string"* %2, i64 0, i32 0, i32 0, i32 0, i32 0, i32 0, i32 1
  %23 = load i64, i64* %22, align 8
  tail call void @_ZNSt3__112basic_stringIcNS_11char_traitsIcEENS_9allocatorIcEEE25__init_copy_ctor_externalEPKcm(%"class.std::__1::basic_string"* %19, i8* %21, i64 %23) #15
  br label %24

24:                                               ; preds = %18, %16
  %25 = ptrtoint i8* %7 to i64
  %26 = bitcast %"class.extensions::ExtensionPrefs::ScopedListUpdate"* %0 to i64*
  store i64 %25, i64* %26, align 8
  %27 = getelementptr inbounds %"class.extensions::ExtensionPrefs::ScopedListUpdate", %"class.extensions::ExtensionPrefs::ScopedListUpdate"* %0, i64 0, i32 1
  %28 = bitcast %"class.std::__1::basic_string"* %3 to %"struct.std::__1::basic_string<char, std::__1::char_traits<char>, std::__1::allocator<char> >::__short"*
  %29 = getelementptr inbounds %"struct.std::__1::basic_string<char, std::__1::char_traits<char>, std::__1::allocator<char> >::__short", %"struct.std::__1::basic_string<char, std::__1::char_traits<char>, std::__1::allocator<char> >::__short"* %28, i64 0, i32 1, i32 0
  %30 = load i8, i8* %29, align 1
  %31 = icmp slt i8 %30, 0
  br i1 %31, label %35, label %32

32:                                               ; preds = %24
  %33 = bitcast %"class.std::__1::basic_string"* %27 to i8*
  %34 = bitcast %"class.std::__1::basic_string"* %3 to i8*
  tail call void @llvm.memcpy.p0i8.p0i8.i64(i8* align 8 %33, i8* align 8 %34, i64 24, i1 false) #15
  br label %40

35:                                               ; preds = %24
  %36 = getelementptr inbounds %"class.std::__1::basic_string", %"class.std::__1::basic_string"* %3, i64 0, i32 0, i32 0, i32 0, i32 0, i32 0, i32 0
  %37 = load i8*, i8** %36, align 8
  %38 = getelementptr inbounds %"class.std::__1::basic_string", %"class.std::__1::basic_string"* %3, i64 0, i32 0, i32 0, i32 0, i32 0, i32 0, i32 1
  %39 = load i64, i64* %38, align 8
  tail call void @_ZNSt3__112basic_stringIcNS_11char_traitsIcEENS_9allocatorIcEEE25__init_copy_ctor_externalEPKcm(%"class.std::__1::basic_string"* %27, i8* %37, i64 %39) #15
  br label %40

40:                                               ; preds = %32, %35
  ret void
}

; Function Attrs: nounwind ssp uwtable
define hidden void @_ZN10extensions14ExtensionPrefs16ScopedListUpdateD2Ev(%"class.extensions::ExtensionPrefs::ScopedListUpdate"* nocapture) unnamed_addr #0 align 2 {
  %2 = getelementptr inbounds %"class.extensions::ExtensionPrefs::ScopedListUpdate", %"class.extensions::ExtensionPrefs::ScopedListUpdate"* %0, i64 0, i32 1
  %3 = bitcast %"class.std::__1::basic_string"* %2 to %"struct.std::__1::basic_string<char, std::__1::char_traits<char>, std::__1::allocator<char> >::__short"*
  %4 = getelementptr inbounds %"struct.std::__1::basic_string<char, std::__1::char_traits<char>, std::__1::allocator<char> >::__short", %"struct.std::__1::basic_string<char, std::__1::char_traits<char>, std::__1::allocator<char> >::__short"* %3, i64 0, i32 1, i32 0
  %5 = load i8, i8* %4, align 1
  %6 = icmp slt i8 %5, 0
  br i1 %6, label %7, label %10

7:                                                ; preds = %1
  %8 = getelementptr inbounds %"class.std::__1::basic_string", %"class.std::__1::basic_string"* %2, i64 0, i32 0, i32 0, i32 0, i32 0, i32 0, i32 0
  %9 = load i8*, i8** %8, align 8
  tail call void @_ZdlPv(i8* %9) #14
  br label %10

10:                                               ; preds = %1, %7
  %11 = getelementptr inbounds %"class.extensions::ExtensionPrefs::ScopedListUpdate", %"class.extensions::ExtensionPrefs::ScopedListUpdate"* %0, i64 0, i32 0, i32 0, i32 0, i32 0
  %12 = load %"class.prefs::ScopedDictionaryPrefUpdate"*, %"class.prefs::ScopedDictionaryPrefUpdate"** %11, align 8
  store %"class.prefs::ScopedDictionaryPrefUpdate"* null, %"class.prefs::ScopedDictionaryPrefUpdate"** %11, align 8
  %13 = icmp eq %"class.prefs::ScopedDictionaryPrefUpdate"* %12, null
  br i1 %13, label %19, label %14

14:                                               ; preds = %10
  %15 = bitcast %"class.prefs::ScopedDictionaryPrefUpdate"* %12 to void (%"class.prefs::ScopedDictionaryPrefUpdate"*)***
  %16 = load void (%"class.prefs::ScopedDictionaryPrefUpdate"*)**, void (%"class.prefs::ScopedDictionaryPrefUpdate"*)*** %15, align 8
  %17 = getelementptr inbounds void (%"class.prefs::ScopedDictionaryPrefUpdate"*)*, void (%"class.prefs::ScopedDictionaryPrefUpdate"*)** %16, i64 1
  %18 = load void (%"class.prefs::ScopedDictionaryPrefUpdate"*)*, void (%"class.prefs::ScopedDictionaryPrefUpdate"*)** %17, align 8
  tail call void %18(%"class.prefs::ScopedDictionaryPrefUpdate"* nonnull %12) #15
  br label %19

19:                                               ; preds = %10, %14
  ret void
}

; Function Attrs: nounwind ssp uwtable
define hidden %"class.base::ListValue"* @_ZN10extensions14ExtensionPrefs16ScopedListUpdate3GetEv(%"class.extensions::ExtensionPrefs::ScopedListUpdate"*) local_unnamed_addr #0 align 2 {
  %2 = alloca %"class.base::ListValue"*, align 8
  %3 = bitcast %"class.base::ListValue"** %2 to i8*
  call void @llvm.lifetime.start.p0i8(i64 8, i8* nonnull %3) #15
  store %"class.base::ListValue"* null, %"class.base::ListValue"** %2, align 8
  %4 = getelementptr inbounds %"class.extensions::ExtensionPrefs::ScopedListUpdate", %"class.extensions::ExtensionPrefs::ScopedListUpdate"* %0, i64 0, i32 0, i32 0, i32 0, i32 0
  %5 = load %"class.prefs::ScopedDictionaryPrefUpdate"*, %"class.prefs::ScopedDictionaryPrefUpdate"** %4, align 8
  %6 = tail call %"class.prefs::DictionaryValueUpdate"* @_ZN5prefs26ScopedDictionaryPrefUpdateptEv(%"class.prefs::ScopedDictionaryPrefUpdate"* %5) #15
  %7 = getelementptr inbounds %"class.extensions::ExtensionPrefs::ScopedListUpdate", %"class.extensions::ExtensionPrefs::ScopedListUpdate"* %0, i64 0, i32 1
  %8 = bitcast %"class.std::__1::basic_string"* %7 to %"struct.std::__1::basic_string<char, std::__1::char_traits<char>, std::__1::allocator<char> >::__short"*
  %9 = getelementptr inbounds %"struct.std::__1::basic_string<char, std::__1::char_traits<char>, std::__1::allocator<char> >::__short", %"struct.std::__1::basic_string<char, std::__1::char_traits<char>, std::__1::allocator<char> >::__short"* %8, i64 0, i32 1, i32 0
  %10 = load i8, i8* %9, align 1
  %11 = icmp slt i8 %10, 0
  %12 = getelementptr inbounds %"class.std::__1::basic_string", %"class.std::__1::basic_string"* %7, i64 0, i32 0, i32 0, i32 0, i32 0, i32 0, i32 0
  %13 = load i8*, i8** %12, align 8
  %14 = bitcast %"class.std::__1::basic_string"* %7 to i8*
  %15 = select i1 %11, i8* %13, i8* %14
  %16 = getelementptr inbounds %"class.extensions::ExtensionPrefs::ScopedListUpdate", %"class.extensions::ExtensionPrefs::ScopedListUpdate"* %0, i64 0, i32 1, i32 0, i32 0, i32 0, i32 0, i32 0, i32 1
  %17 = load i64, i64* %16, align 8
  %18 = zext i8 %10 to i64
  %19 = select i1 %11, i64 %17, i64 %18
  %20 = call zeroext i1 @_ZN5prefs21DictionaryValueUpdate7GetListEN4base16BasicStringPieceIcNSt3__111char_traitsIcEEEEPPNS1_9ListValueE(%"class.prefs::DictionaryValueUpdate"* %6, i8* %15, i64 %19, %"class.base::ListValue"** nonnull %2) #15
  %21 = icmp eq %"class.prefs::DictionaryValueUpdate"* %6, null
  br i1 %21, label %24, label %22

22:                                               ; preds = %1
  call void @_ZN5prefs21DictionaryValueUpdateD1Ev(%"class.prefs::DictionaryValueUpdate"* nonnull %6) #15
  %23 = bitcast %"class.prefs::DictionaryValueUpdate"* %6 to i8*
  call void @_ZdlPv(i8* %23) #14
  br label %24

24:                                               ; preds = %1, %22
  %25 = load %"class.base::ListValue"*, %"class.base::ListValue"** %2, align 8
  call void @llvm.lifetime.end.p0i8(i64 8, i8* nonnull %3) #15
  ret %"class.base::ListValue"* %25
}

declare %"class.prefs::DictionaryValueUpdate"* @_ZN5prefs26ScopedDictionaryPrefUpdateptEv(%"class.prefs::ScopedDictionaryPrefUpdate"*) local_unnamed_addr #2

declare zeroext i1 @_ZN5prefs21DictionaryValueUpdate7GetListEN4base16BasicStringPieceIcNSt3__111char_traitsIcEEEEPPNS1_9ListValueE(%"class.prefs::DictionaryValueUpdate"*, i8*, i64, %"class.base::ListValue"**) local_unnamed_addr #2

; Function Attrs: nounwind ssp uwtable
define hidden %"class.base::ListValue"* @_ZN10extensions14ExtensionPrefs16ScopedListUpdate6CreateEv(%"class.extensions::ExtensionPrefs::ScopedListUpdate"*) local_unnamed_addr #0 align 2 {
  %2 = alloca %"class.base::ListValue"*, align 8
  %3 = bitcast %"class.base::ListValue"** %2 to i8*
  call void @llvm.lifetime.start.p0i8(i64 8, i8* nonnull %3) #15
  store %"class.base::ListValue"* null, %"class.base::ListValue"** %2, align 8
  %4 = getelementptr inbounds %"class.extensions::ExtensionPrefs::ScopedListUpdate", %"class.extensions::ExtensionPrefs::ScopedListUpdate"* %0, i64 0, i32 0, i32 0, i32 0, i32 0
  %5 = load %"class.prefs::ScopedDictionaryPrefUpdate"*, %"class.prefs::ScopedDictionaryPrefUpdate"** %4, align 8
  %6 = tail call %"class.prefs::DictionaryValueUpdate"* @_ZN5prefs26ScopedDictionaryPrefUpdateptEv(%"class.prefs::ScopedDictionaryPrefUpdate"* %5) #15
  %7 = getelementptr inbounds %"class.extensions::ExtensionPrefs::ScopedListUpdate", %"class.extensions::ExtensionPrefs::ScopedListUpdate"* %0, i64 0, i32 1
  %8 = bitcast %"class.std::__1::basic_string"* %7 to %"struct.std::__1::basic_string<char, std::__1::char_traits<char>, std::__1::allocator<char> >::__short"*
  %9 = getelementptr inbounds %"struct.std::__1::basic_string<char, std::__1::char_traits<char>, std::__1::allocator<char> >::__short", %"struct.std::__1::basic_string<char, std::__1::char_traits<char>, std::__1::allocator<char> >::__short"* %8, i64 0, i32 1, i32 0
  %10 = load i8, i8* %9, align 1
  %11 = icmp slt i8 %10, 0
  %12 = getelementptr inbounds %"class.std::__1::basic_string", %"class.std::__1::basic_string"* %7, i64 0, i32 0, i32 0, i32 0, i32 0, i32 0, i32 0
  %13 = load i8*, i8** %12, align 8
  %14 = bitcast %"class.std::__1::basic_string"* %7 to i8*
  %15 = select i1 %11, i8* %13, i8* %14
  %16 = getelementptr inbounds %"class.extensions::ExtensionPrefs::ScopedListUpdate", %"class.extensions::ExtensionPrefs::ScopedListUpdate"* %0, i64 0, i32 1, i32 0, i32 0, i32 0, i32 0, i32 0, i32 1
  %17 = load i64, i64* %16, align 8
  %18 = zext i8 %10 to i64
  %19 = select i1 %11, i64 %17, i64 %18
  %20 = call zeroext i1 @_ZN5prefs21DictionaryValueUpdate7GetListEN4base16BasicStringPieceIcNSt3__111char_traitsIcEEEEPPNS1_9ListValueE(%"class.prefs::DictionaryValueUpdate"* %6, i8* %15, i64 %19, %"class.base::ListValue"** nonnull %2) #15
  %21 = icmp eq %"class.prefs::DictionaryValueUpdate"* %6, null
  br i1 %21, label %24, label %22

22:                                               ; preds = %1
  call void @_ZN5prefs21DictionaryValueUpdateD1Ev(%"class.prefs::DictionaryValueUpdate"* nonnull %6) #15
  %23 = bitcast %"class.prefs::DictionaryValueUpdate"* %6 to i8*
  call void @_ZdlPv(i8* %23) #14
  br label %24

24:                                               ; preds = %1, %22
  br i1 %20, label %42, label %25

25:                                               ; preds = %24
  %26 = call i8* @_Znwm(i64 32) #14
  %27 = bitcast i8* %26 to %"class.base::ListValue"*
  call void @_ZN4base9ListValueC1Ev(%"class.base::ListValue"* nonnull %27) #15
  %28 = bitcast %"class.base::ListValue"** %2 to i8**
  store i8* %26, i8** %28, align 8
  %29 = load %"class.prefs::ScopedDictionaryPrefUpdate"*, %"class.prefs::ScopedDictionaryPrefUpdate"** %4, align 8
  %30 = call %"class.prefs::DictionaryValueUpdate"* @_ZN5prefs26ScopedDictionaryPrefUpdateptEv(%"class.prefs::ScopedDictionaryPrefUpdate"* %29) #15
  %31 = load i8, i8* %9, align 1
  %32 = icmp slt i8 %31, 0
  %33 = load i8*, i8** %12, align 8
  %34 = select i1 %32, i8* %33, i8* %14
  %35 = load i64, i64* %16, align 8
  %36 = zext i8 %31 to i64
  %37 = select i1 %32, i64 %35, i64 %36
  %38 = bitcast i8* %26 to %"class.base::Value"*
  call void @_ZN5prefs21DictionaryValueUpdate3SetEN4base16BasicStringPieceIcNSt3__111char_traitsIcEEEENS3_10unique_ptrINS1_5ValueENS3_14default_deleteIS8_EEEE(%"class.prefs::DictionaryValueUpdate"* %30, i8* %34, i64 %37, %"class.base::Value"* nonnull %38) #15
  %39 = icmp eq %"class.prefs::DictionaryValueUpdate"* %30, null
  br i1 %39, label %42, label %40

40:                                               ; preds = %25
  call void @_ZN5prefs21DictionaryValueUpdateD1Ev(%"class.prefs::DictionaryValueUpdate"* nonnull %30) #15
  %41 = bitcast %"class.prefs::DictionaryValueUpdate"* %30 to i8*
  call void @_ZdlPv(i8* %41) #14
  br label %42

42:                                               ; preds = %25, %40, %24
  %43 = load %"class.base::ListValue"*, %"class.base::ListValue"** %2, align 8
  call void @llvm.lifetime.end.p0i8(i64 8, i8* nonnull %3) #15
  ret %"class.base::ListValue"* %43
}

declare void @_ZN5prefs21DictionaryValueUpdate3SetEN4base16BasicStringPieceIcNSt3__111char_traitsIcEEEENS3_10unique_ptrINS1_5ValueENS3_14default_deleteIS8_EEEE(%"class.prefs::DictionaryValueUpdate"*, i8*, i64, %"class.base::Value"*) local_unnamed_addr #2

; Function Attrs: nounwind ssp uwtable
define hidden nonnull %"class.extensions::ExtensionPrefs"* @_ZN10extensions14ExtensionPrefs6CreateEPN7content14BrowserContextEP11PrefServiceRKN4base8FilePathEP21ExtensionPrefValueMapbRKNSt3__16vectorIPNS_27EarlyExtensionPrefsObserverENSC_9allocatorISF_EEEE(%"class.content::BrowserContext"*, %class.PrefService*, %"class.base::FilePath"* dereferenceable(24), %class.ExtensionPrefValueMap*, i1 zeroext, %"class.std::__1::vector.180"* nocapture readonly dereferenceable(24)) local_unnamed_addr #0 align 2 {
  %7 = tail call %"class.base::DefaultClock"* @_ZN4base12DefaultClock11GetInstanceEv() #15
  %8 = getelementptr inbounds %"class.base::DefaultClock", %"class.base::DefaultClock"* %7, i64 0, i32 0
  %9 = tail call i8* @_Znwm(i64 128) #14
  %10 = bitcast i8* %9 to %"class.extensions::ExtensionPrefs"*
  tail call void @_ZN10extensions14ExtensionPrefsC2EPN7content14BrowserContextEP11PrefServiceRKN4base8FilePathEP21ExtensionPrefValueMapPNS6_5ClockEbRKNSt3__16vectorIPNS_27EarlyExtensionPrefsObserverENSE_9allocatorISH_EEEE(%"class.extensions::ExtensionPrefs"* nonnull %10, %"class.content::BrowserContext"* %0, %class.PrefService* %1, %"class.base::FilePath"* dereferenceable(24) %2, %class.ExtensionPrefValueMap* %3, %"class.base::Clock"* %8, i1 zeroext %4, %"class.std::__1::vector.180"* dereferenceable(24) %5) #15
  ret %"class.extensions::ExtensionPrefs"* %10
}

; Function Attrs: nounwind ssp uwtable
define hidden nonnull %"class.extensions::ExtensionPrefs"* @_ZN10extensions14ExtensionPrefs6CreateEPN7content14BrowserContextEP11PrefServiceRKN4base8FilePathEP21ExtensionPrefValueMapbRKNSt3__16vectorIPNS_27EarlyExtensionPrefsObserverENSC_9allocatorISF_EEEEPNS6_5ClockE(%"class.content::BrowserContext"*, %class.PrefService*, %"class.base::FilePath"* dereferenceable(24), %class.ExtensionPrefValueMap*, i1 zeroext, %"class.std::__1::vector.180"* nocapture readonly dereferenceable(24), %"class.base::Clock"*) local_unnamed_addr #0 align 2 {
  %8 = tail call i8* @_Znwm(i64 128) #14
  %9 = bitcast i8* %8 to %"class.extensions::ExtensionPrefs"*
  tail call void @_ZN10extensions14ExtensionPrefsC2EPN7content14BrowserContextEP11PrefServiceRKN4base8FilePathEP21ExtensionPrefValueMapPNS6_5ClockEbRKNSt3__16vectorIPNS_27EarlyExtensionPrefsObserverENSE_9allocatorISH_EEEE(%"class.extensions::ExtensionPrefs"* nonnull %9, %"class.content::BrowserContext"* %0, %class.PrefService* %1, %"class.base::FilePath"* dereferenceable(24) %2, %class.ExtensionPrefValueMap* %3, %"class.base::Clock"* %6, i1 zeroext %4, %"class.std::__1::vector.180"* dereferenceable(24) %5)
  ret %"class.extensions::ExtensionPrefs"* %9
}

declare %"class.base::DefaultClock"* @_ZN4base12DefaultClock11GetInstanceEv() local_unnamed_addr #2

; Function Attrs: nobuiltin nofree
declare noalias nonnull i8* @_Znwm(i64) local_unnamed_addr #3

; Function Attrs: nounwind ssp uwtable
define hidden void @_ZN10extensions14ExtensionPrefsD2Ev(%"class.extensions::ExtensionPrefs"*) unnamed_addr #0 align 2 {
  %2 = alloca %"class.base::ObserverList<extensions::ExtensionPrefsObserver, false, true, base::internal::UncheckedObserverAdapter>::Iter", align 8
  %3 = alloca %"class.base::ObserverList<extensions::ExtensionPrefsObserver, false, true, base::internal::UncheckedObserverAdapter>::Iter", align 8
  %4 = getelementptr inbounds %"class.extensions::ExtensionPrefs", %"class.extensions::ExtensionPrefs"* %0, i64 0, i32 0, i32 0
  store i32 (...)** bitcast (i8** getelementptr inbounds ({ [5 x i8*] }, { [5 x i8*] }* @_ZTVN10extensions14ExtensionPrefsE, i64 0, inrange i32 0, i64 2) to i32 (...)**), i32 (...)*** %4, align 8
  %5 = getelementptr inbounds %"class.extensions::ExtensionPrefs", %"class.extensions::ExtensionPrefs"* %0, i64 0, i32 8
  %6 = bitcast %"class.base::ObserverList<extensions::ExtensionPrefsObserver, false, true, base::internal::UncheckedObserverAdapter>::Iter"* %2 to i8*
  call void @llvm.lifetime.start.p0i8(i64 40, i8* nonnull %6) #15
  %7 = getelementptr inbounds %"class.base::ObserverList<extensions::ExtensionPrefsObserver, false, true, base::internal::UncheckedObserverAdapter>::Iter", %"class.base::ObserverList<extensions::ExtensionPrefsObserver, false, true, base::internal::UncheckedObserverAdapter>::Iter"* %2, i64 0, i32 0, i32 1
  %8 = getelementptr inbounds %"class.base::ObserverList<extensions::ExtensionPrefsObserver, false, true, base::internal::UncheckedObserverAdapter>::Iter", %"class.base::ObserverList<extensions::ExtensionPrefsObserver, false, true, base::internal::UncheckedObserverAdapter>::Iter"* %2, i64 0, i32 1
  %9 = getelementptr inbounds %"class.base::ObserverList<extensions::ExtensionPrefsObserver, false, true, base::internal::UncheckedObserverAdapter>::Iter", %"class.base::ObserverList<extensions::ExtensionPrefsObserver, false, true, base::internal::UncheckedObserverAdapter>::Iter"* %2, i64 0, i32 2
  %10 = getelementptr inbounds %"class.base::ObserverList.110", %"class.base::ObserverList.110"* %5, i64 0, i32 0, i32 0, i32 0
  %11 = bitcast %"class.base::ObserverList<extensions::ExtensionPrefsObserver, false, true, base::internal::UncheckedObserverAdapter>::Iter"* %2 to i8*
  call void @llvm.memset.p0i8.i64(i8* nonnull align 8 %11, i8 -86, i64 40, i1 false)
  %12 = load %"class.base::internal::UncheckedObserverAdapter"*, %"class.base::internal::UncheckedObserverAdapter"** %10, align 8, !noalias !2
  %13 = getelementptr inbounds %"class.extensions::ExtensionPrefs", %"class.extensions::ExtensionPrefs"* %0, i64 0, i32 8, i32 0, i32 0, i32 1
  %14 = load %"class.base::internal::UncheckedObserverAdapter"*, %"class.base::internal::UncheckedObserverAdapter"** %13, align 8, !noalias !2
  %15 = icmp eq %"class.base::internal::UncheckedObserverAdapter"* %12, %14
  %16 = getelementptr inbounds %"class.base::ObserverList<extensions::ExtensionPrefsObserver, false, true, base::internal::UncheckedObserverAdapter>::Iter", %"class.base::ObserverList<extensions::ExtensionPrefsObserver, false, true, base::internal::UncheckedObserverAdapter>::Iter"* %2, i64 0, i32 0, i32 0, i32 0
  call void @_ZN4base8internal12LinkNodeBaseC2Ev(%"class.base::internal::LinkNodeBase"* nonnull %16) #15
  br i1 %15, label %17, label %19

17:                                               ; preds = %1
  %18 = bitcast %"class.base::ObserverList.110"** %7 to i8*
  call void @llvm.memset.p0i8.i64(i8* align 8 %18, i8 0, i64 24, i1 false) #15, !alias.scope !2
  br label %59

19:                                               ; preds = %1
  store %"class.base::ObserverList.110"* %5, %"class.base::ObserverList.110"** %7, align 8, !alias.scope !2
  %20 = getelementptr inbounds %"class.extensions::ExtensionPrefs", %"class.extensions::ExtensionPrefs"* %0, i64 0, i32 8, i32 1, i32 0, i32 0
  call void @_ZN4base8internal12LinkNodeBase16InsertBeforeBaseEPS1_(%"class.base::internal::LinkNodeBase"* nonnull %16, %"class.base::internal::LinkNodeBase"* %20) #15
  store i64 0, i64* %8, align 8, !alias.scope !2
  %21 = getelementptr inbounds %"class.extensions::ExtensionPrefs", %"class.extensions::ExtensionPrefs"* %0, i64 0, i32 8, i32 3
  %22 = load i32, i32* %21, align 8, !noalias !2
  %23 = icmp eq i32 %22, 0
  br i1 %23, label %31, label %24

24:                                               ; preds = %19
  %25 = bitcast %"class.base::internal::UncheckedObserverAdapter"** %13 to i64*
  %26 = load i64, i64* %25, align 8, !noalias !2
  %27 = bitcast %"class.base::ObserverList.110"* %5 to i64*
  %28 = load i64, i64* %27, align 8, !noalias !2
  %29 = sub i64 %26, %28
  %30 = ashr exact i64 %29, 3
  br label %31

31:                                               ; preds = %24, %19
  %32 = phi i64 [ %30, %24 ], [ -1, %19 ]
  store i64 %32, i64* %9, align 8, !alias.scope !2
  %33 = load %"class.base::ObserverList.110"*, %"class.base::ObserverList.110"** %7, align 8, !alias.scope !2
  %34 = getelementptr inbounds %"class.base::ObserverList.110", %"class.base::ObserverList.110"* %33, i64 0, i32 0, i32 0, i32 1
  %35 = bitcast %"class.base::internal::UncheckedObserverAdapter"** %34 to i64*
  %36 = load i64, i64* %35, align 8
  %37 = bitcast %"class.base::ObserverList.110"* %33 to i64*
  %38 = load i64, i64* %37, align 8
  %39 = sub i64 %36, %38
  %40 = ashr exact i64 %39, 3
  %41 = icmp ult i64 %40, %32
  %42 = select i1 %41, i64 %40, i64 %32
  %43 = icmp eq i64 %42, 0
  br i1 %43, label %59, label %44

44:                                               ; preds = %31
  %45 = inttoptr i64 %38 to %"class.base::internal::UncheckedObserverAdapter"*
  %46 = getelementptr inbounds %"class.base::ObserverList.110", %"class.base::ObserverList.110"* %33, i64 0, i32 0, i32 0, i32 0
  %47 = getelementptr inbounds %"class.base::internal::UncheckedObserverAdapter", %"class.base::internal::UncheckedObserverAdapter"* %45, i64 0, i32 0
  %48 = load i8*, i8** %47, align 8
  %49 = icmp eq i8* %48, null
  br i1 %49, label %50, label %59

50:                                               ; preds = %44, %54
  %51 = phi i64 [ %52, %54 ], [ 0, %44 ]
  %52 = add nuw i64 %51, 1
  store i64 %52, i64* %8, align 8, !alias.scope !2
  %53 = icmp ult i64 %52, %42
  br i1 %53, label %54, label %59

54:                                               ; preds = %50
  %55 = load %"class.base::internal::UncheckedObserverAdapter"*, %"class.base::internal::UncheckedObserverAdapter"** %46, align 8
  %56 = getelementptr inbounds %"class.base::internal::UncheckedObserverAdapter", %"class.base::internal::UncheckedObserverAdapter"* %55, i64 %52, i32 0
  %57 = load i8*, i8** %56, align 8
  %58 = icmp eq i8* %57, null
  br i1 %58, label %50, label %59

59:                                               ; preds = %50, %54, %17, %31, %44
  %60 = bitcast %"class.base::ObserverList<extensions::ExtensionPrefsObserver, false, true, base::internal::UncheckedObserverAdapter>::Iter"* %3 to i8*
  call void @llvm.lifetime.start.p0i8(i64 40, i8* nonnull %60) #15
  %61 = getelementptr inbounds %"class.base::ObserverList<extensions::ExtensionPrefsObserver, false, true, base::internal::UncheckedObserverAdapter>::Iter", %"class.base::ObserverList<extensions::ExtensionPrefsObserver, false, true, base::internal::UncheckedObserverAdapter>::Iter"* %3, i64 0, i32 0, i32 1
  %62 = getelementptr inbounds %"class.base::ObserverList<extensions::ExtensionPrefsObserver, false, true, base::internal::UncheckedObserverAdapter>::Iter", %"class.base::ObserverList<extensions::ExtensionPrefsObserver, false, true, base::internal::UncheckedObserverAdapter>::Iter"* %3, i64 0, i32 1
  %63 = getelementptr inbounds %"class.base::ObserverList<extensions::ExtensionPrefsObserver, false, true, base::internal::UncheckedObserverAdapter>::Iter", %"class.base::ObserverList<extensions::ExtensionPrefsObserver, false, true, base::internal::UncheckedObserverAdapter>::Iter"* %3, i64 0, i32 2
  %64 = getelementptr inbounds %"class.base::ObserverList<extensions::ExtensionPrefsObserver, false, true, base::internal::UncheckedObserverAdapter>::Iter", %"class.base::ObserverList<extensions::ExtensionPrefsObserver, false, true, base::internal::UncheckedObserverAdapter>::Iter"* %3, i64 0, i32 0, i32 0, i32 0
  %65 = bitcast %"class.base::ObserverList<extensions::ExtensionPrefsObserver, false, true, base::internal::UncheckedObserverAdapter>::Iter"* %3 to i8*
  call void @llvm.memset.p0i8.i64(i8* nonnull align 8 %65, i8 -86, i64 40, i1 false)
  call void @_ZN4base8internal12LinkNodeBaseC2Ev(%"class.base::internal::LinkNodeBase"* nonnull %64) #15
  %66 = bitcast %"class.base::ObserverList.110"** %61 to i8*
  call void @llvm.memset.p0i8.i64(i8* align 8 %66, i8 0, i64 24, i1 false) #15, !alias.scope !5
  %67 = load %"class.base::ObserverList.110"*, %"class.base::ObserverList.110"** %7, align 8
  br label %68

68:                                               ; preds = %335, %59
  %69 = phi %"class.base::ObserverList.110"* [ %67, %59 ], [ %333, %335 ]
  %70 = icmp eq %"class.base::ObserverList.110"* %69, null
  br i1 %70, label %86, label %71

71:                                               ; preds = %68
  %72 = load i64, i64* %8, align 8
  %73 = getelementptr inbounds %"class.base::ObserverList.110", %"class.base::ObserverList.110"* %69, i64 0, i32 0, i32 0, i32 1
  %74 = bitcast %"class.base::internal::UncheckedObserverAdapter"** %73 to i64*
  %75 = load i64, i64* %74, align 8
  %76 = bitcast %"class.base::ObserverList.110"* %69 to i64*
  %77 = load i64, i64* %76, align 8
  %78 = sub i64 %75, %77
  %79 = ashr exact i64 %78, 3
  %80 = load i64, i64* %9, align 8
  %81 = icmp ult i64 %79, %80
  %82 = select i1 %81, i64 %79, i64 %80
  %83 = icmp eq i64 %72, %82
  br i1 %83, label %86, label %84

84:                                               ; preds = %71
  %85 = load %"class.base::ObserverList.110"*, %"class.base::ObserverList.110"** %61, align 8
  br label %102

86:                                               ; preds = %71, %68
  %87 = load %"class.base::ObserverList.110"*, %"class.base::ObserverList.110"** %61, align 8
  %88 = icmp eq %"class.base::ObserverList.110"* %87, null
  br i1 %88, label %202, label %89

89:                                               ; preds = %86
  %90 = load i64, i64* %62, align 8
  %91 = getelementptr inbounds %"class.base::ObserverList.110", %"class.base::ObserverList.110"* %87, i64 0, i32 0, i32 0, i32 1
  %92 = bitcast %"class.base::internal::UncheckedObserverAdapter"** %91 to i64*
  %93 = load i64, i64* %92, align 8
  %94 = bitcast %"class.base::ObserverList.110"* %87 to i64*
  %95 = load i64, i64* %94, align 8
  %96 = sub i64 %93, %95
  %97 = ashr exact i64 %96, 3
  %98 = load i64, i64* %63, align 8
  %99 = icmp ult i64 %97, %98
  %100 = select i1 %99, i64 %97, i64 %98
  %101 = icmp eq i64 %90, %100
  br i1 %101, label %111, label %102

102:                                              ; preds = %89, %84
  %103 = phi %"class.base::ObserverList.110"* [ %85, %84 ], [ %87, %89 ]
  %104 = icmp eq %"class.base::ObserverList.110"* %69, %103
  %105 = load i64, i64* %8, align 8
  %106 = load i64, i64* %62, align 8
  %107 = icmp eq i64 %105, %106
  %108 = and i1 %104, %107
  br i1 %108, label %109, label %323

109:                                              ; preds = %102
  %110 = icmp eq %"class.base::ObserverList.110"* %69, null
  br i1 %110, label %202, label %111

111:                                              ; preds = %89, %109
  %112 = phi %"class.base::ObserverList.110"* [ %69, %109 ], [ %87, %89 ]
  %113 = getelementptr inbounds %"class.base::ObserverList.110", %"class.base::ObserverList.110"* %112, i64 0, i32 1
  %114 = getelementptr inbounds %"class.base::ObserverList.110", %"class.base::ObserverList.110"* %112, i64 0, i32 1, i32 0, i32 0, i32 1
  %115 = bitcast %"class.base::internal::LinkNodeBase"** %114 to %"class.base::LinkNode.112"**
  %116 = load %"class.base::LinkNode.112"*, %"class.base::LinkNode.112"** %115, align 8
  %117 = bitcast %"class.base::LinkedList.111"* %113 to %"class.base::LinkNode.112"**
  %118 = load %"class.base::LinkNode.112"*, %"class.base::LinkNode.112"** %117, align 8
  %119 = icmp eq %"class.base::LinkNode.112"* %116, %118
  br i1 %119, label %120, label %198

120:                                              ; preds = %111
  %121 = getelementptr inbounds %"class.base::ObserverList.110", %"class.base::ObserverList.110"* %112, i64 0, i32 0, i32 0, i32 0
  %122 = load %"class.base::internal::UncheckedObserverAdapter"*, %"class.base::internal::UncheckedObserverAdapter"** %121, align 8
  %123 = getelementptr inbounds %"class.base::ObserverList.110", %"class.base::ObserverList.110"* %112, i64 0, i32 0, i32 0, i32 1
  %124 = load %"class.base::internal::UncheckedObserverAdapter"*, %"class.base::internal::UncheckedObserverAdapter"** %123, align 8
  %125 = icmp eq %"class.base::internal::UncheckedObserverAdapter"* %122, %124
  br i1 %125, label %134, label %126

126:                                              ; preds = %120, %131
  %127 = phi %"class.base::internal::UncheckedObserverAdapter"* [ %132, %131 ], [ %122, %120 ]
  %128 = getelementptr inbounds %"class.base::internal::UncheckedObserverAdapter", %"class.base::internal::UncheckedObserverAdapter"* %127, i64 0, i32 0
  %129 = load i8*, i8** %128, align 8
  %130 = icmp eq i8* %129, null
  br i1 %130, label %134, label %131

131:                                              ; preds = %126
  %132 = getelementptr inbounds %"class.base::internal::UncheckedObserverAdapter", %"class.base::internal::UncheckedObserverAdapter"* %127, i64 1
  %133 = icmp eq %"class.base::internal::UncheckedObserverAdapter"* %132, %124
  br i1 %133, label %198, label %126

134:                                              ; preds = %126, %120
  %135 = phi %"class.base::internal::UncheckedObserverAdapter"* [ %122, %120 ], [ %127, %126 ]
  %136 = ptrtoint %"class.base::internal::UncheckedObserverAdapter"* %135 to i64
  %137 = icmp eq %"class.base::internal::UncheckedObserverAdapter"* %135, %124
  br i1 %137, label %198, label %138

138:                                              ; preds = %134
  %139 = getelementptr inbounds %"class.base::internal::UncheckedObserverAdapter", %"class.base::internal::UncheckedObserverAdapter"* %135, i64 1
  %140 = icmp eq %"class.base::internal::UncheckedObserverAdapter"* %139, %124
  br i1 %140, label %193, label %141

141:                                              ; preds = %138
  %142 = getelementptr %"class.base::internal::UncheckedObserverAdapter", %"class.base::internal::UncheckedObserverAdapter"* %124, i64 -2, i32 0
  %143 = ptrtoint i8** %142 to i64
  %144 = sub i64 %143, %136
  %145 = lshr i64 %144, 3
  %146 = add nuw nsw i64 %145, 1
  %147 = and i64 %146, 3
  %148 = icmp eq i64 %147, 0
  br i1 %148, label %167, label %149

149:                                              ; preds = %141, %162
  %150 = phi %"class.base::internal::UncheckedObserverAdapter"* [ %164, %162 ], [ %139, %141 ]
  %151 = phi i64 [ %163, %162 ], [ %136, %141 ]
  %152 = phi i64 [ %165, %162 ], [ %147, %141 ]
  %153 = getelementptr inbounds %"class.base::internal::UncheckedObserverAdapter", %"class.base::internal::UncheckedObserverAdapter"* %150, i64 0, i32 0
  %154 = load i8*, i8** %153, align 8
  %155 = icmp eq i8* %154, null
  br i1 %155, label %162, label %156

156:                                              ; preds = %149
  %157 = ptrtoint i8* %154 to i64
  %158 = inttoptr i64 %151 to %"class.base::internal::UncheckedObserverAdapter"*
  %159 = inttoptr i64 %151 to i64*
  store i64 %157, i64* %159, align 8
  %160 = getelementptr inbounds %"class.base::internal::UncheckedObserverAdapter", %"class.base::internal::UncheckedObserverAdapter"* %158, i64 1
  %161 = ptrtoint %"class.base::internal::UncheckedObserverAdapter"* %160 to i64
  br label %162

162:                                              ; preds = %156, %149
  %163 = phi i64 [ %151, %149 ], [ %161, %156 ]
  %164 = getelementptr inbounds %"class.base::internal::UncheckedObserverAdapter", %"class.base::internal::UncheckedObserverAdapter"* %150, i64 1
  %165 = add i64 %152, -1
  %166 = icmp eq i64 %165, 0
  br i1 %166, label %167, label %149, !llvm.loop !8

167:                                              ; preds = %162, %141
  %168 = phi i64 [ undef, %141 ], [ %163, %162 ]
  %169 = phi %"class.base::internal::UncheckedObserverAdapter"* [ %139, %141 ], [ %164, %162 ]
  %170 = phi i64 [ %136, %141 ], [ %163, %162 ]
  %171 = icmp ult i64 %144, 24
  br i1 %171, label %189, label %172

172:                                              ; preds = %167, %425
  %173 = phi %"class.base::internal::UncheckedObserverAdapter"* [ %427, %425 ], [ %169, %167 ]
  %174 = phi i64 [ %426, %425 ], [ %170, %167 ]
  %175 = getelementptr inbounds %"class.base::internal::UncheckedObserverAdapter", %"class.base::internal::UncheckedObserverAdapter"* %173, i64 0, i32 0
  %176 = load i8*, i8** %175, align 8
  %177 = icmp eq i8* %176, null
  br i1 %177, label %184, label %178

178:                                              ; preds = %172
  %179 = ptrtoint i8* %176 to i64
  %180 = inttoptr i64 %174 to %"class.base::internal::UncheckedObserverAdapter"*
  %181 = inttoptr i64 %174 to i64*
  store i64 %179, i64* %181, align 8
  %182 = getelementptr inbounds %"class.base::internal::UncheckedObserverAdapter", %"class.base::internal::UncheckedObserverAdapter"* %180, i64 1
  %183 = ptrtoint %"class.base::internal::UncheckedObserverAdapter"* %182 to i64
  br label %184

184:                                              ; preds = %178, %172
  %185 = phi i64 [ %174, %172 ], [ %183, %178 ]
  %186 = getelementptr inbounds %"class.base::internal::UncheckedObserverAdapter", %"class.base::internal::UncheckedObserverAdapter"* %173, i64 1, i32 0
  %187 = load i8*, i8** %186, align 8
  %188 = icmp eq i8* %187, null
  br i1 %188, label %403, label %397

189:                                              ; preds = %425, %167
  %190 = phi i64 [ %168, %167 ], [ %426, %425 ]
  %191 = inttoptr i64 %190 to %"class.base::internal::UncheckedObserverAdapter"*
  %192 = load %"class.base::internal::UncheckedObserverAdapter"*, %"class.base::internal::UncheckedObserverAdapter"** %123, align 8
  br label %193

193:                                              ; preds = %189, %138
  %194 = phi %"class.base::internal::UncheckedObserverAdapter"* [ %124, %138 ], [ %192, %189 ]
  %195 = phi %"class.base::internal::UncheckedObserverAdapter"* [ %135, %138 ], [ %191, %189 ]
  %196 = icmp eq %"class.base::internal::UncheckedObserverAdapter"* %195, %194
  br i1 %196, label %198, label %197

197:                                              ; preds = %193
  store %"class.base::internal::UncheckedObserverAdapter"* %195, %"class.base::internal::UncheckedObserverAdapter"** %123, align 8
  br label %198

198:                                              ; preds = %131, %197, %193, %134, %111
  %199 = load %"class.base::ObserverList.110"*, %"class.base::ObserverList.110"** %61, align 8
  %200 = icmp eq %"class.base::ObserverList.110"* %199, null
  br i1 %200, label %202, label %201

201:                                              ; preds = %198
  store %"class.base::ObserverList.110"* null, %"class.base::ObserverList.110"** %61, align 8
  call void @_ZN4base8internal12LinkNodeBase14RemoveFromListEv(%"class.base::internal::LinkNodeBase"* nonnull %64) #15
  br label %202

202:                                              ; preds = %86, %109, %198, %201
  call void @llvm.lifetime.end.p0i8(i64 40, i8* nonnull %60) #15
  %203 = load %"class.base::ObserverList.110"*, %"class.base::ObserverList.110"** %7, align 8
  %204 = icmp eq %"class.base::ObserverList.110"* %203, null
  br i1 %204, label %295, label %205

205:                                              ; preds = %202
  %206 = getelementptr inbounds %"class.base::ObserverList.110", %"class.base::ObserverList.110"* %203, i64 0, i32 1
  %207 = getelementptr inbounds %"class.base::ObserverList.110", %"class.base::ObserverList.110"* %203, i64 0, i32 1, i32 0, i32 0, i32 1
  %208 = bitcast %"class.base::internal::LinkNodeBase"** %207 to %"class.base::LinkNode.112"**
  %209 = load %"class.base::LinkNode.112"*, %"class.base::LinkNode.112"** %208, align 8
  %210 = bitcast %"class.base::LinkedList.111"* %206 to %"class.base::LinkNode.112"**
  %211 = load %"class.base::LinkNode.112"*, %"class.base::LinkNode.112"** %210, align 8
  %212 = icmp eq %"class.base::LinkNode.112"* %209, %211
  br i1 %212, label %213, label %291

213:                                              ; preds = %205
  %214 = getelementptr inbounds %"class.base::ObserverList.110", %"class.base::ObserverList.110"* %203, i64 0, i32 0, i32 0, i32 0
  %215 = load %"class.base::internal::UncheckedObserverAdapter"*, %"class.base::internal::UncheckedObserverAdapter"** %214, align 8
  %216 = getelementptr inbounds %"class.base::ObserverList.110", %"class.base::ObserverList.110"* %203, i64 0, i32 0, i32 0, i32 1
  %217 = load %"class.base::internal::UncheckedObserverAdapter"*, %"class.base::internal::UncheckedObserverAdapter"** %216, align 8
  %218 = icmp eq %"class.base::internal::UncheckedObserverAdapter"* %215, %217
  br i1 %218, label %227, label %219

219:                                              ; preds = %213, %224
  %220 = phi %"class.base::internal::UncheckedObserverAdapter"* [ %225, %224 ], [ %215, %213 ]
  %221 = getelementptr inbounds %"class.base::internal::UncheckedObserverAdapter", %"class.base::internal::UncheckedObserverAdapter"* %220, i64 0, i32 0
  %222 = load i8*, i8** %221, align 8
  %223 = icmp eq i8* %222, null
  br i1 %223, label %227, label %224

224:                                              ; preds = %219
  %225 = getelementptr inbounds %"class.base::internal::UncheckedObserverAdapter", %"class.base::internal::UncheckedObserverAdapter"* %220, i64 1
  %226 = icmp eq %"class.base::internal::UncheckedObserverAdapter"* %225, %217
  br i1 %226, label %291, label %219

227:                                              ; preds = %219, %213
  %228 = phi %"class.base::internal::UncheckedObserverAdapter"* [ %215, %213 ], [ %220, %219 ]
  %229 = ptrtoint %"class.base::internal::UncheckedObserverAdapter"* %228 to i64
  %230 = icmp eq %"class.base::internal::UncheckedObserverAdapter"* %228, %217
  br i1 %230, label %291, label %231

231:                                              ; preds = %227
  %232 = getelementptr inbounds %"class.base::internal::UncheckedObserverAdapter", %"class.base::internal::UncheckedObserverAdapter"* %228, i64 1
  %233 = icmp eq %"class.base::internal::UncheckedObserverAdapter"* %232, %217
  br i1 %233, label %286, label %234

234:                                              ; preds = %231
  %235 = getelementptr %"class.base::internal::UncheckedObserverAdapter", %"class.base::internal::UncheckedObserverAdapter"* %217, i64 -2, i32 0
  %236 = ptrtoint i8** %235 to i64
  %237 = sub i64 %236, %229
  %238 = lshr i64 %237, 3
  %239 = add nuw nsw i64 %238, 1
  %240 = and i64 %239, 3
  %241 = icmp eq i64 %240, 0
  br i1 %241, label %260, label %242

242:                                              ; preds = %234, %255
  %243 = phi %"class.base::internal::UncheckedObserverAdapter"* [ %257, %255 ], [ %232, %234 ]
  %244 = phi i64 [ %256, %255 ], [ %229, %234 ]
  %245 = phi i64 [ %258, %255 ], [ %240, %234 ]
  %246 = getelementptr inbounds %"class.base::internal::UncheckedObserverAdapter", %"class.base::internal::UncheckedObserverAdapter"* %243, i64 0, i32 0
  %247 = load i8*, i8** %246, align 8
  %248 = icmp eq i8* %247, null
  br i1 %248, label %255, label %249

249:                                              ; preds = %242
  %250 = ptrtoint i8* %247 to i64
  %251 = inttoptr i64 %244 to %"class.base::internal::UncheckedObserverAdapter"*
  %252 = inttoptr i64 %244 to i64*
  store i64 %250, i64* %252, align 8
  %253 = getelementptr inbounds %"class.base::internal::UncheckedObserverAdapter", %"class.base::internal::UncheckedObserverAdapter"* %251, i64 1
  %254 = ptrtoint %"class.base::internal::UncheckedObserverAdapter"* %253 to i64
  br label %255

255:                                              ; preds = %249, %242
  %256 = phi i64 [ %244, %242 ], [ %254, %249 ]
  %257 = getelementptr inbounds %"class.base::internal::UncheckedObserverAdapter", %"class.base::internal::UncheckedObserverAdapter"* %243, i64 1
  %258 = add i64 %245, -1
  %259 = icmp eq i64 %258, 0
  br i1 %259, label %260, label %242, !llvm.loop !10

260:                                              ; preds = %255, %234
  %261 = phi i64 [ undef, %234 ], [ %256, %255 ]
  %262 = phi %"class.base::internal::UncheckedObserverAdapter"* [ %232, %234 ], [ %257, %255 ]
  %263 = phi i64 [ %229, %234 ], [ %256, %255 ]
  %264 = icmp ult i64 %237, 24
  br i1 %264, label %282, label %265

265:                                              ; preds = %260, %393
  %266 = phi %"class.base::internal::UncheckedObserverAdapter"* [ %395, %393 ], [ %262, %260 ]
  %267 = phi i64 [ %394, %393 ], [ %263, %260 ]
  %268 = getelementptr inbounds %"class.base::internal::UncheckedObserverAdapter", %"class.base::internal::UncheckedObserverAdapter"* %266, i64 0, i32 0
  %269 = load i8*, i8** %268, align 8
  %270 = icmp eq i8* %269, null
  br i1 %270, label %277, label %271

271:                                              ; preds = %265
  %272 = ptrtoint i8* %269 to i64
  %273 = inttoptr i64 %267 to %"class.base::internal::UncheckedObserverAdapter"*
  %274 = inttoptr i64 %267 to i64*
  store i64 %272, i64* %274, align 8
  %275 = getelementptr inbounds %"class.base::internal::UncheckedObserverAdapter", %"class.base::internal::UncheckedObserverAdapter"* %273, i64 1
  %276 = ptrtoint %"class.base::internal::UncheckedObserverAdapter"* %275 to i64
  br label %277

277:                                              ; preds = %271, %265
  %278 = phi i64 [ %267, %265 ], [ %276, %271 ]
  %279 = getelementptr inbounds %"class.base::internal::UncheckedObserverAdapter", %"class.base::internal::UncheckedObserverAdapter"* %266, i64 1, i32 0
  %280 = load i8*, i8** %279, align 8
  %281 = icmp eq i8* %280, null
  br i1 %281, label %371, label %365

282:                                              ; preds = %393, %260
  %283 = phi i64 [ %261, %260 ], [ %394, %393 ]
  %284 = inttoptr i64 %283 to %"class.base::internal::UncheckedObserverAdapter"*
  %285 = load %"class.base::internal::UncheckedObserverAdapter"*, %"class.base::internal::UncheckedObserverAdapter"** %216, align 8
  br label %286

286:                                              ; preds = %282, %231
  %287 = phi %"class.base::internal::UncheckedObserverAdapter"* [ %217, %231 ], [ %285, %282 ]
  %288 = phi %"class.base::internal::UncheckedObserverAdapter"* [ %228, %231 ], [ %284, %282 ]
  %289 = icmp eq %"class.base::internal::UncheckedObserverAdapter"* %288, %287
  br i1 %289, label %291, label %290

290:                                              ; preds = %286
  store %"class.base::internal::UncheckedObserverAdapter"* %288, %"class.base::internal::UncheckedObserverAdapter"** %216, align 8
  br label %291

291:                                              ; preds = %224, %290, %286, %227, %205
  %292 = load %"class.base::ObserverList.110"*, %"class.base::ObserverList.110"** %7, align 8
  %293 = icmp eq %"class.base::ObserverList.110"* %292, null
  br i1 %293, label %295, label %294

294:                                              ; preds = %291
  store %"class.base::ObserverList.110"* null, %"class.base::ObserverList.110"** %7, align 8
  call void @_ZN4base8internal12LinkNodeBase14RemoveFromListEv(%"class.base::internal::LinkNodeBase"* nonnull %16) #15
  br label %295

295:                                              ; preds = %202, %291, %294
  call void @llvm.lifetime.end.p0i8(i64 40, i8* nonnull %6) #15
  %296 = getelementptr inbounds %"class.extensions::ExtensionPrefs", %"class.extensions::ExtensionPrefs"* %0, i64 0, i32 8, i32 1, i32 0, i32 0, i32 1
  %297 = bitcast %"class.base::internal::LinkNodeBase"** %296 to %"class.base::LinkNode.112"**
  %298 = getelementptr inbounds %"class.extensions::ExtensionPrefs", %"class.extensions::ExtensionPrefs"* %0, i64 0, i32 8, i32 1, i32 0
  %299 = load %"class.base::LinkNode.112"*, %"class.base::LinkNode.112"** %297, align 8
  %300 = icmp eq %"class.base::LinkNode.112"* %299, %298
  br i1 %300, label %313, label %301

301:                                              ; preds = %295, %310
  %302 = phi %"class.base::LinkNode.112"* [ %311, %310 ], [ %299, %295 ]
  %303 = getelementptr inbounds %"class.base::LinkNode.112", %"class.base::LinkNode.112"* %302, i64 1
  %304 = bitcast %"class.base::LinkNode.112"* %303 to %"class.base::ObserverList.110"**
  %305 = load %"class.base::ObserverList.110"*, %"class.base::ObserverList.110"** %304, align 8
  %306 = icmp eq %"class.base::ObserverList.110"* %305, null
  br i1 %306, label %310, label %307

307:                                              ; preds = %301
  store %"class.base::ObserverList.110"* null, %"class.base::ObserverList.110"** %304, align 8
  %308 = getelementptr inbounds %"class.base::LinkNode.112", %"class.base::LinkNode.112"* %302, i64 0, i32 0
  call void @_ZN4base8internal12LinkNodeBase14RemoveFromListEv(%"class.base::internal::LinkNodeBase"* %308) #15
  %309 = load %"class.base::LinkNode.112"*, %"class.base::LinkNode.112"** %297, align 8
  br label %310

310:                                              ; preds = %307, %301
  %311 = phi %"class.base::LinkNode.112"* [ %302, %301 ], [ %309, %307 ]
  %312 = icmp eq %"class.base::LinkNode.112"* %311, %298
  br i1 %312, label %313, label %301

313:                                              ; preds = %310, %295
  %314 = load %"class.base::internal::UncheckedObserverAdapter"*, %"class.base::internal::UncheckedObserverAdapter"** %10, align 8
  %315 = icmp eq %"class.base::internal::UncheckedObserverAdapter"* %314, null
  br i1 %315, label %320, label %316

316:                                              ; preds = %313
  %317 = ptrtoint %"class.base::internal::UncheckedObserverAdapter"* %314 to i64
  %318 = bitcast %"class.base::internal::UncheckedObserverAdapter"** %13 to i64*
  store i64 %317, i64* %318, align 8
  %319 = bitcast %"class.base::internal::UncheckedObserverAdapter"* %314 to i8*
  call void @_ZdlPv(i8* %319) #14
  br label %320

320:                                              ; preds = %313, %316
  %321 = getelementptr inbounds %"class.extensions::ExtensionPrefs", %"class.extensions::ExtensionPrefs"* %0, i64 0, i32 3
  call void @_ZN4base8FilePathD1Ev(%"class.base::FilePath"* %321) #15
  %322 = getelementptr inbounds %"class.extensions::ExtensionPrefs", %"class.extensions::ExtensionPrefs"* %0, i64 0, i32 0
  call void @_ZN12KeyedServiceD2Ev(%class.KeyedService* %322) #15
  ret void

323:                                              ; preds = %102
  %324 = getelementptr inbounds %"class.base::ObserverList.110", %"class.base::ObserverList.110"* %69, i64 0, i32 0, i32 0, i32 0
  %325 = load %"class.base::internal::UncheckedObserverAdapter"*, %"class.base::internal::UncheckedObserverAdapter"** %324, align 8
  %326 = getelementptr inbounds %"class.base::internal::UncheckedObserverAdapter", %"class.base::internal::UncheckedObserverAdapter"* %325, i64 %105
  %327 = bitcast %"class.base::internal::UncheckedObserverAdapter"* %326 to %"class.extensions::ExtensionPrefsObserver"**
  %328 = load %"class.extensions::ExtensionPrefsObserver"*, %"class.extensions::ExtensionPrefsObserver"** %327, align 8
  %329 = bitcast %"class.extensions::ExtensionPrefsObserver"* %328 to void (%"class.extensions::ExtensionPrefsObserver"*, %"class.extensions::ExtensionPrefs"*)***
  %330 = load void (%"class.extensions::ExtensionPrefsObserver"*, %"class.extensions::ExtensionPrefs"*)**, void (%"class.extensions::ExtensionPrefsObserver"*, %"class.extensions::ExtensionPrefs"*)*** %329, align 8
  %331 = getelementptr inbounds void (%"class.extensions::ExtensionPrefsObserver"*, %"class.extensions::ExtensionPrefs"*)*, void (%"class.extensions::ExtensionPrefsObserver"*, %"class.extensions::ExtensionPrefs"*)** %330, i64 7
  %332 = load void (%"class.extensions::ExtensionPrefsObserver"*, %"class.extensions::ExtensionPrefs"*)*, void (%"class.extensions::ExtensionPrefsObserver"*, %"class.extensions::ExtensionPrefs"*)** %331, align 8
  call void %332(%"class.extensions::ExtensionPrefsObserver"* %328, %"class.extensions::ExtensionPrefs"* %0) #15
  %333 = load %"class.base::ObserverList.110"*, %"class.base::ObserverList.110"** %7, align 8
  %334 = icmp eq %"class.base::ObserverList.110"* %333, null
  br i1 %334, label %335, label %336

335:                                              ; preds = %360, %356, %323, %336, %350
  br label %68

336:                                              ; preds = %323
  %337 = load i64, i64* %8, align 8
  %338 = add i64 %337, 1
  store i64 %338, i64* %8, align 8
  %339 = getelementptr inbounds %"class.base::ObserverList.110", %"class.base::ObserverList.110"* %333, i64 0, i32 0, i32 0, i32 1
  %340 = bitcast %"class.base::internal::UncheckedObserverAdapter"** %339 to i64*
  %341 = load i64, i64* %340, align 8
  %342 = bitcast %"class.base::ObserverList.110"* %333 to i64*
  %343 = load i64, i64* %342, align 8
  %344 = sub i64 %341, %343
  %345 = ashr exact i64 %344, 3
  %346 = load i64, i64* %9, align 8
  %347 = icmp ult i64 %345, %346
  %348 = select i1 %347, i64 %345, i64 %346
  %349 = icmp ult i64 %338, %348
  br i1 %349, label %350, label %335

350:                                              ; preds = %336
  %351 = inttoptr i64 %343 to %"class.base::internal::UncheckedObserverAdapter"*
  %352 = getelementptr inbounds %"class.base::ObserverList.110", %"class.base::ObserverList.110"* %333, i64 0, i32 0, i32 0, i32 0
  %353 = getelementptr inbounds %"class.base::internal::UncheckedObserverAdapter", %"class.base::internal::UncheckedObserverAdapter"* %351, i64 %338, i32 0
  %354 = load i8*, i8** %353, align 8
  %355 = icmp eq i8* %354, null
  br i1 %355, label %356, label %335

356:                                              ; preds = %350, %360
  %357 = phi i64 [ %358, %360 ], [ %338, %350 ]
  %358 = add nuw i64 %357, 1
  store i64 %358, i64* %8, align 8
  %359 = icmp ult i64 %358, %348
  br i1 %359, label %360, label %335

360:                                              ; preds = %356
  %361 = load %"class.base::internal::UncheckedObserverAdapter"*, %"class.base::internal::UncheckedObserverAdapter"** %352, align 8
  %362 = getelementptr inbounds %"class.base::internal::UncheckedObserverAdapter", %"class.base::internal::UncheckedObserverAdapter"* %361, i64 %358, i32 0
  %363 = load i8*, i8** %362, align 8
  %364 = icmp eq i8* %363, null
  br i1 %364, label %356, label %335

365:                                              ; preds = %277
  %366 = ptrtoint i8* %280 to i64
  %367 = inttoptr i64 %278 to %"class.base::internal::UncheckedObserverAdapter"*
  %368 = inttoptr i64 %278 to i64*
  store i64 %366, i64* %368, align 8
  %369 = getelementptr inbounds %"class.base::internal::UncheckedObserverAdapter", %"class.base::internal::UncheckedObserverAdapter"* %367, i64 1
  %370 = ptrtoint %"class.base::internal::UncheckedObserverAdapter"* %369 to i64
  br label %371

371:                                              ; preds = %365, %277
  %372 = phi i64 [ %278, %277 ], [ %370, %365 ]
  %373 = getelementptr inbounds %"class.base::internal::UncheckedObserverAdapter", %"class.base::internal::UncheckedObserverAdapter"* %266, i64 2, i32 0
  %374 = load i8*, i8** %373, align 8
  %375 = icmp eq i8* %374, null
  br i1 %375, label %382, label %376

376:                                              ; preds = %371
  %377 = ptrtoint i8* %374 to i64
  %378 = inttoptr i64 %372 to %"class.base::internal::UncheckedObserverAdapter"*
  %379 = inttoptr i64 %372 to i64*
  store i64 %377, i64* %379, align 8
  %380 = getelementptr inbounds %"class.base::internal::UncheckedObserverAdapter", %"class.base::internal::UncheckedObserverAdapter"* %378, i64 1
  %381 = ptrtoint %"class.base::internal::UncheckedObserverAdapter"* %380 to i64
  br label %382

382:                                              ; preds = %376, %371
  %383 = phi i64 [ %372, %371 ], [ %381, %376 ]
  %384 = getelementptr inbounds %"class.base::internal::UncheckedObserverAdapter", %"class.base::internal::UncheckedObserverAdapter"* %266, i64 3, i32 0
  %385 = load i8*, i8** %384, align 8
  %386 = icmp eq i8* %385, null
  br i1 %386, label %393, label %387

387:                                              ; preds = %382
  %388 = ptrtoint i8* %385 to i64
  %389 = inttoptr i64 %383 to %"class.base::internal::UncheckedObserverAdapter"*
  %390 = inttoptr i64 %383 to i64*
  store i64 %388, i64* %390, align 8
  %391 = getelementptr inbounds %"class.base::internal::UncheckedObserverAdapter", %"class.base::internal::UncheckedObserverAdapter"* %389, i64 1
  %392 = ptrtoint %"class.base::internal::UncheckedObserverAdapter"* %391 to i64
  br label %393

393:                                              ; preds = %387, %382
  %394 = phi i64 [ %383, %382 ], [ %392, %387 ]
  %395 = getelementptr inbounds %"class.base::internal::UncheckedObserverAdapter", %"class.base::internal::UncheckedObserverAdapter"* %266, i64 4
  %396 = icmp eq %"class.base::internal::UncheckedObserverAdapter"* %395, %217
  br i1 %396, label %282, label %265

397:                                              ; preds = %184
  %398 = ptrtoint i8* %187 to i64
  %399 = inttoptr i64 %185 to %"class.base::internal::UncheckedObserverAdapter"*
  %400 = inttoptr i64 %185 to i64*
  store i64 %398, i64* %400, align 8
  %401 = getelementptr inbounds %"class.base::internal::UncheckedObserverAdapter", %"class.base::internal::UncheckedObserverAdapter"* %399, i64 1
  %402 = ptrtoint %"class.base::internal::UncheckedObserverAdapter"* %401 to i64
  br label %403

403:                                              ; preds = %397, %184
  %404 = phi i64 [ %185, %184 ], [ %402, %397 ]
  %405 = getelementptr inbounds %"class.base::internal::UncheckedObserverAdapter", %"class.base::internal::UncheckedObserverAdapter"* %173, i64 2, i32 0
  %406 = load i8*, i8** %405, align 8
  %407 = icmp eq i8* %406, null
  br i1 %407, label %414, label %408

408:                                              ; preds = %403
  %409 = ptrtoint i8* %406 to i64
  %410 = inttoptr i64 %404 to %"class.base::internal::UncheckedObserverAdapter"*
  %411 = inttoptr i64 %404 to i64*
  store i64 %409, i64* %411, align 8
  %412 = getelementptr inbounds %"class.base::internal::UncheckedObserverAdapter", %"class.base::internal::UncheckedObserverAdapter"* %410, i64 1
  %413 = ptrtoint %"class.base::internal::UncheckedObserverAdapter"* %412 to i64
  br label %414

414:                                              ; preds = %408, %403
  %415 = phi i64 [ %404, %403 ], [ %413, %408 ]
  %416 = getelementptr inbounds %"class.base::internal::UncheckedObserverAdapter", %"class.base::internal::UncheckedObserverAdapter"* %173, i64 3, i32 0
  %417 = load i8*, i8** %416, align 8
  %418 = icmp eq i8* %417, null
  br i1 %418, label %425, label %419

419:                                              ; preds = %414
  %420 = ptrtoint i8* %417 to i64
  %421 = inttoptr i64 %415 to %"class.base::internal::UncheckedObserverAdapter"*
  %422 = inttoptr i64 %415 to i64*
  store i64 %420, i64* %422, align 8
  %423 = getelementptr inbounds %"class.base::internal::UncheckedObserverAdapter", %"class.base::internal::UncheckedObserverAdapter"* %421, i64 1
  %424 = ptrtoint %"class.base::internal::UncheckedObserverAdapter"* %423 to i64
  br label %425

425:                                              ; preds = %419, %414
  %426 = phi i64 [ %415, %414 ], [ %424, %419 ]
  %427 = getelementptr inbounds %"class.base::internal::UncheckedObserverAdapter", %"class.base::internal::UncheckedObserverAdapter"* %173, i64 4
  %428 = icmp eq %"class.base::internal::UncheckedObserverAdapter"* %427, %124
  br i1 %428, label %189, label %172
}

; Function Attrs: argmemonly nounwind
declare void @llvm.memset.p0i8.i64(i8* nocapture writeonly, i8, i64, i1 immarg) #1

; Function Attrs: nounwind
declare void @_ZN4base8FilePathD1Ev(%"class.base::FilePath"*) unnamed_addr #4

; Function Attrs: nounwind
declare void @_ZN12KeyedServiceD2Ev(%class.KeyedService*) unnamed_addr #4

; Function Attrs: nounwind ssp uwtable
define hidden void @_ZN10extensions14ExtensionPrefsD0Ev(%"class.extensions::ExtensionPrefs"*) unnamed_addr #0 align 2 {
  tail call void @_ZN10extensions14ExtensionPrefsD2Ev(%"class.extensions::ExtensionPrefs"* %0) #15
  %2 = bitcast %"class.extensions::ExtensionPrefs"* %0 to i8*
  tail call void @_ZdlPv(i8* %2) #14
  ret void
}

; Function Attrs: nobuiltin nounwind
declare void @_ZdlPv(i8*) local_unnamed_addr #5

; Function Attrs: nounwind ssp uwtable
define hidden %"class.extensions::ExtensionPrefs"* @_ZN10extensions14ExtensionPrefs3GetEPN7content14BrowserContextE(%"class.content::BrowserContext"*) local_unnamed_addr #0 align 2 {
  %2 = tail call %"class.extensions::ExtensionPrefsFactory"* @_ZN10extensions21ExtensionPrefsFactory11GetInstanceEv() #15
  %3 = tail call %"class.extensions::ExtensionPrefs"* @_ZN10extensions21ExtensionPrefsFactory20GetForBrowserContextEPN7content14BrowserContextE(%"class.content::BrowserContext"* %0) #15
  ret %"class.extensions::ExtensionPrefs"* %3
}

declare %"class.extensions::ExtensionPrefsFactory"* @_ZN10extensions21ExtensionPrefsFactory11GetInstanceEv() local_unnamed_addr #2

declare %"class.extensions::ExtensionPrefs"* @_ZN10extensions21ExtensionPrefsFactory20GetForBrowserContextEPN7content14BrowserContextE(%"class.content::BrowserContext"*) local_unnamed_addr #2

; Function Attrs: nounwind ssp uwtable
define hidden void @_ZN10extensions14ExtensionPrefs17MakePathsRelativeEv(%"class.extensions::ExtensionPrefs"*) local_unnamed_addr #0 align 2 {
  %2 = alloca %"class.base::detail::const_dict_iterator::pointer", align 8
  %3 = alloca %"class.base::detail::const_dict_iterator::pointer", align 8
  %4 = alloca %"class.base::detail::const_dict_iterator", align 8
  %5 = alloca %"class.base::detail::const_dict_iterator_proxy", align 8
  %6 = alloca %"class.std::__1::basic_string", align 8
  %7 = alloca %"class.std::__1::set", align 8
  %8 = alloca %"class.base::DictionaryValue::Iterator", align 8
  %9 = alloca %"class.base::DictionaryValue"*, align 8
  %10 = alloca i32, align 4
  %11 = alloca %"class.std::__1::basic_string", align 8
  %12 = alloca %"class.base::FilePath", align 8
  %13 = alloca %"class.prefs::ScopedDictionaryPrefUpdate", align 8
  %14 = alloca %"class.std::__1::unique_ptr.120", align 8
  %15 = alloca %"class.std::__1::basic_string", align 8
  %16 = alloca %"class.base::FilePath", align 8
  %17 = alloca %"class.std::__1::basic_string", align 8
  %18 = getelementptr inbounds %"class.extensions::ExtensionPrefs", %"class.extensions::ExtensionPrefs"* %0, i64 0, i32 2
  %19 = load %class.PrefService*, %class.PrefService** %18, align 8
  %20 = bitcast %"class.std::__1::basic_string"* %6 to i8*
  call void @llvm.lifetime.start.p0i8(i64 24, i8* nonnull %20) #15
  %21 = tail call i64 @strlen(i8* getelementptr inbounds ([0 x i8], [0 x i8]* @_ZN10extensions10pref_names11kExtensionsE, i64 0, i64 0)) #15
  %22 = icmp ugt i64 %21, -17
  br i1 %22, label %23, label %25

23:                                               ; preds = %1
  %24 = bitcast %"class.std::__1::basic_string"* %6 to %"class.std::__1::__basic_string_common"*
  call void @_ZNKSt3__121__basic_string_commonILb1EE20__throw_length_errorEv(%"class.std::__1::__basic_string_common"* nonnull %24) #16
  unreachable

25:                                               ; preds = %1
  %26 = icmp ult i64 %21, 23
  br i1 %26, label %36, label %27

27:                                               ; preds = %25
  %28 = add nuw i64 %21, 16
  %29 = and i64 %28, -16
  %30 = tail call i8* @_Znwm(i64 %29) #14
  %31 = getelementptr inbounds %"class.std::__1::basic_string", %"class.std::__1::basic_string"* %6, i64 0, i32 0, i32 0, i32 0, i32 0, i32 0, i32 0
  store i8* %30, i8** %31, align 8
  %32 = or i64 %29, -9223372036854775808
  %33 = getelementptr inbounds %"class.std::__1::basic_string", %"class.std::__1::basic_string"* %6, i64 0, i32 0, i32 0, i32 0, i32 0, i32 0, i32 2
  store i64 %32, i64* %33, align 8
  %34 = getelementptr inbounds %"class.std::__1::basic_string", %"class.std::__1::basic_string"* %6, i64 0, i32 0, i32 0, i32 0, i32 0, i32 0, i32 1
  store i64 %21, i64* %34, align 8
  %35 = bitcast %"class.std::__1::basic_string"* %6 to %"struct.std::__1::basic_string<char, std::__1::char_traits<char>, std::__1::allocator<char> >::__short"*
  br label %41

36:                                               ; preds = %25
  %37 = trunc i64 %21 to i8
  %38 = bitcast %"class.std::__1::basic_string"* %6 to %"struct.std::__1::basic_string<char, std::__1::char_traits<char>, std::__1::allocator<char> >::__short"*
  %39 = getelementptr inbounds %"struct.std::__1::basic_string<char, std::__1::char_traits<char>, std::__1::allocator<char> >::__short", %"struct.std::__1::basic_string<char, std::__1::char_traits<char>, std::__1::allocator<char> >::__short"* %38, i64 0, i32 1, i32 0
  store i8 %37, i8* %39, align 1
  %40 = icmp eq i64 %21, 0
  br i1 %40, label %44, label %41

41:                                               ; preds = %36, %27
  %42 = phi %"struct.std::__1::basic_string<char, std::__1::char_traits<char>, std::__1::allocator<char> >::__short"* [ %38, %36 ], [ %35, %27 ]
  %43 = phi i8* [ %20, %36 ], [ %30, %27 ]
  call void @llvm.memcpy.p0i8.p0i8.i64(i8* nonnull align 1 %43, i8* align 1 getelementptr inbounds ([0 x i8], [0 x i8]* @_ZN10extensions10pref_names11kExtensionsE, i64 0, i64 0), i64 %21, i1 false) #15
  br label %44

44:                                               ; preds = %36, %41
  %45 = phi %"struct.std::__1::basic_string<char, std::__1::char_traits<char>, std::__1::allocator<char> >::__short"* [ %38, %36 ], [ %42, %41 ]
  %46 = phi i8* [ %20, %36 ], [ %43, %41 ]
  %47 = getelementptr inbounds i8, i8* %46, i64 %21
  store i8 0, i8* %47, align 1
  %48 = call %"class.base::DictionaryValue"* @_ZNK11PrefService13GetDictionaryERKNSt3__112basic_stringIcNS0_11char_traitsIcEENS0_9allocatorIcEEEE(%class.PrefService* %19, %"class.std::__1::basic_string"* nonnull dereferenceable(24) %6) #15
  %49 = getelementptr inbounds %"struct.std::__1::basic_string<char, std::__1::char_traits<char>, std::__1::allocator<char> >::__short", %"struct.std::__1::basic_string<char, std::__1::char_traits<char>, std::__1::allocator<char> >::__short"* %45, i64 0, i32 1, i32 0
  %50 = load i8, i8* %49, align 1
  %51 = icmp slt i8 %50, 0
  br i1 %51, label %52, label %55

52:                                               ; preds = %44
  %53 = getelementptr inbounds %"class.std::__1::basic_string", %"class.std::__1::basic_string"* %6, i64 0, i32 0, i32 0, i32 0, i32 0, i32 0, i32 0
  %54 = load i8*, i8** %53, align 8
  call void @_ZdlPv(i8* %54) #14
  br label %55

55:                                               ; preds = %44, %52
  call void @llvm.lifetime.end.p0i8(i64 24, i8* nonnull %20) #15
  %56 = icmp eq %"class.base::DictionaryValue"* %48, null
  br i1 %56, label %245, label %57

57:                                               ; preds = %55
  %58 = getelementptr inbounds %"class.base::DictionaryValue", %"class.base::DictionaryValue"* %48, i64 0, i32 0
  %59 = call zeroext i1 @_ZNK4base5Value9DictEmptyEv(%"class.base::Value"* %58) #15
  br i1 %59, label %245, label %60

60:                                               ; preds = %57
  %61 = bitcast %"class.std::__1::set"* %7 to i8*
  call void @llvm.lifetime.start.p0i8(i64 24, i8* nonnull %61) #15
  %62 = getelementptr inbounds %"class.std::__1::set", %"class.std::__1::set"* %7, i64 0, i32 0, i32 0
  %63 = getelementptr inbounds %"class.std::__1::set", %"class.std::__1::set"* %7, i64 0, i32 0, i32 1, i32 0, i32 0, i32 0
  %64 = getelementptr inbounds %"class.std::__1::set", %"class.std::__1::set"* %7, i64 0, i32 0, i32 2, i32 0, i32 0
  %65 = getelementptr inbounds %"class.std::__1::set", %"class.std::__1::set"* %7, i64 0, i32 0, i32 1, i32 0, i32 0
  %66 = bitcast %"class.std::__1::__tree_node_base"** %63 to i8*
  call void @llvm.memset.p0i8.i64(i8* align 8 %66, i8 0, i64 16, i1 false) #15
  store %"class.std::__1::__tree_end_node"* %65, %"class.std::__1::__tree_end_node"** %62, align 8
  %67 = bitcast %"class.base::DictionaryValue::Iterator"* %8 to i8*
  call void @llvm.lifetime.start.p0i8(i64 16, i8* nonnull %67) #15
  %68 = bitcast %"class.base::DictionaryValue::Iterator"* %8 to i8*
  call void @llvm.memset.p0i8.i64(i8* nonnull align 8 %68, i8 -86, i64 16, i1 false)
  call void @_ZN4base15DictionaryValue8IteratorC1ERKS0_(%"class.base::DictionaryValue::Iterator"* nonnull %8, %"class.base::DictionaryValue"* nonnull dereferenceable(32) %48) #15
  %69 = getelementptr inbounds %"class.base::DictionaryValue::Iterator", %"class.base::DictionaryValue::Iterator"* %8, i64 0, i32 1
  %70 = bitcast %"class.base::detail::const_dict_iterator"* %4 to i8*
  call void @llvm.lifetime.start.p0i8(i64 8, i8* nonnull %70) #15
  %71 = bitcast %"class.base::detail::const_dict_iterator_proxy"* %5 to i8*
  call void @llvm.lifetime.start.p0i8(i64 8, i8* nonnull %71) #15
  %72 = bitcast %"class.base::DictionaryValue::Iterator"* %8 to %"class.base::Value"**
  %73 = load %"class.base::Value"*, %"class.base::Value"** %72, align 8
  %74 = call %"class.base::flat_map"* @_ZNK4base5Value9DictItemsEv(%"class.base::Value"* %73) #15
  %75 = getelementptr inbounds %"class.base::detail::const_dict_iterator_proxy", %"class.base::detail::const_dict_iterator_proxy"* %5, i64 0, i32 0
  store %"class.base::flat_map"* %74, %"class.base::flat_map"** %75, align 8
  call void @_ZNK4base6detail25const_dict_iterator_proxy3endEv(%"class.base::detail::const_dict_iterator"* nonnull sret %4, %"class.base::detail::const_dict_iterator_proxy"* nonnull %5) #15
  %76 = call zeroext i1 @_ZN4base6detaileqERKNS0_19const_dict_iteratorES3_(%"class.base::detail::const_dict_iterator"* dereferenceable(8) %69, %"class.base::detail::const_dict_iterator"* nonnull dereferenceable(8) %4) #15
  call void @_ZN4base6detail19const_dict_iteratorD1Ev(%"class.base::detail::const_dict_iterator"* nonnull %4) #15
  call void @llvm.lifetime.end.p0i8(i64 8, i8* nonnull %71) #15
  call void @llvm.lifetime.end.p0i8(i64 8, i8* nonnull %70) #15
  br i1 %76, label %92, label %77

77:                                               ; preds = %60
  %78 = bitcast %"class.base::DictionaryValue"** %9 to i8*
  %79 = bitcast %"class.base::detail::const_dict_iterator::pointer"* %3 to i8*
  %80 = getelementptr inbounds %"class.base::detail::const_dict_iterator::pointer", %"class.base::detail::const_dict_iterator::pointer"* %3, i64 0, i32 0, i32 1
  %81 = bitcast i32* %10 to i8*
  %82 = bitcast %"class.std::__1::basic_string"* %11 to i8*
  %83 = getelementptr inbounds %"class.std::__1::basic_string", %"class.std::__1::basic_string"* %11, i64 0, i32 0, i32 0, i32 0, i32 0, i32 0, i32 0
  %84 = getelementptr inbounds %"class.std::__1::basic_string", %"class.std::__1::basic_string"* %11, i64 0, i32 0, i32 0, i32 0, i32 0, i32 0, i32 1
  %85 = bitcast %"class.base::FilePath"* %12 to i8*
  %86 = bitcast %"class.std::__1::basic_string"* %11 to %"struct.std::__1::basic_string<char, std::__1::char_traits<char>, std::__1::allocator<char> >::__short"*
  %87 = getelementptr inbounds %"struct.std::__1::basic_string<char, std::__1::char_traits<char>, std::__1::allocator<char> >::__short", %"struct.std::__1::basic_string<char, std::__1::char_traits<char>, std::__1::allocator<char> >::__short"* %86, i64 0, i32 1, i32 0
  %88 = bitcast %"class.base::detail::const_dict_iterator::pointer"* %2 to i8*
  %89 = getelementptr inbounds %"class.base::detail::const_dict_iterator::pointer", %"class.base::detail::const_dict_iterator::pointer"* %2, i64 0, i32 0, i32 0
  %90 = getelementptr inbounds %"class.std::__1::set", %"class.std::__1::set"* %7, i64 0, i32 0
  %91 = bitcast %"class.base::FilePath"* %12 to i8*
  br label %95

92:                                               ; preds = %126, %60
  call void @_ZN4base15DictionaryValue8IteratorD1Ev(%"class.base::DictionaryValue::Iterator"* nonnull %8) #15
  call void @llvm.lifetime.end.p0i8(i64 16, i8* nonnull %67) #15
  %93 = load i64, i64* %64, align 8
  %94 = icmp eq i64 %93, 0
  br i1 %94, label %241, label %131

95:                                               ; preds = %77, %126
  call void @llvm.lifetime.start.p0i8(i64 8, i8* nonnull %78) #15
  store %"class.base::DictionaryValue"* null, %"class.base::DictionaryValue"** %9, align 8
  call void @llvm.lifetime.start.p0i8(i64 16, i8* nonnull %79) #15
  call void @_ZNK4base6detail19const_dict_iteratorptEv(%"class.base::detail::const_dict_iterator::pointer"* nonnull sret %3, %"class.base::detail::const_dict_iterator"* %69) #15
  %96 = load %"class.base::Value"*, %"class.base::Value"** %80, align 8
  call void @llvm.lifetime.end.p0i8(i64 16, i8* nonnull %79) #15
  %97 = call zeroext i1 @_ZNK4base5Value15GetAsDictionaryEPPKNS_15DictionaryValueE(%"class.base::Value"* %96, %"class.base::DictionaryValue"** nonnull %9) #15
  br i1 %97, label %98, label %126

98:                                               ; preds = %95
  call void @llvm.lifetime.start.p0i8(i64 4, i8* nonnull %81) #15
  store i32 -1431655766, i32* %10, align 4
  %99 = load %"class.base::DictionaryValue"*, %"class.base::DictionaryValue"** %9, align 8
  %100 = call zeroext i1 @_ZNK4base15DictionaryValue10GetIntegerENS_16BasicStringPieceIcNSt3__111char_traitsIcEEEEPi(%"class.base::DictionaryValue"* %99, i8* getelementptr inbounds ([9 x i8], [9 x i8]* @_ZN10extensions12_GLOBAL__N_113kPrefLocationE, i64 0, i64 0), i64 8, i32* nonnull %10) #15
  br i1 %100, label %101, label %103

101:                                              ; preds = %98
  %102 = load i32, i32* %10, align 4
  switch i32 %102, label %103 [
    i32 8, label %125
    i32 4, label %125
  ]

103:                                              ; preds = %101, %98
  call void @llvm.lifetime.start.p0i8(i64 24, i8* nonnull %82) #15
  call void @llvm.memset.p0i8.i64(i8* nonnull align 8 %82, i8 0, i64 24, i1 false) #15
  %104 = load %"class.base::DictionaryValue"*, %"class.base::DictionaryValue"** %9, align 8
  %105 = call zeroext i1 @_ZNK4base15DictionaryValue9GetStringENS_16BasicStringPieceIcNSt3__111char_traitsIcEEEEPNS2_12basic_stringIcS4_NS2_9allocatorIcEEEE(%"class.base::DictionaryValue"* %104, i8* getelementptr inbounds ([5 x i8], [5 x i8]* @_ZN10extensions12_GLOBAL__N_19kPrefPathE, i64 0, i64 0), i64 4, %"class.std::__1::basic_string"* nonnull %11) #15
  br i1 %105, label %106, label %119

106:                                              ; preds = %103
  call void @llvm.lifetime.start.p0i8(i64 24, i8* nonnull %85) #15
  call void @llvm.memset.p0i8.i64(i8* nonnull align 8 %91, i8 -86, i64 24, i1 false)
  %107 = load i8, i8* %87, align 1
  %108 = icmp slt i8 %107, 0
  %109 = load i8*, i8** %83, align 8
  %110 = select i1 %108, i8* %109, i8* %82
  %111 = load i64, i64* %84, align 8
  %112 = zext i8 %107 to i64
  %113 = select i1 %108, i64 %111, i64 %112
  call void @_ZN4base8FilePath14FromUTF8UnsafeENS_16BasicStringPieceIcNSt3__111char_traitsIcEEEE(%"class.base::FilePath"* nonnull sret %12, i8* %110, i64 %113) #15
  %114 = call zeroext i1 @_ZNK4base8FilePath10IsAbsoluteEv(%"class.base::FilePath"* nonnull %12) #15
  br i1 %114, label %115, label %118

115:                                              ; preds = %106
  call void @llvm.lifetime.start.p0i8(i64 16, i8* nonnull %88) #15
  call void @_ZNK4base6detail19const_dict_iteratorptEv(%"class.base::detail::const_dict_iterator::pointer"* nonnull sret %2, %"class.base::detail::const_dict_iterator"* %69) #15
  %116 = load %"class.std::__1::basic_string"*, %"class.std::__1::basic_string"** %89, align 8
  call void @llvm.lifetime.end.p0i8(i64 16, i8* nonnull %88) #15
  %117 = call { %"class.std::__1::__tree_end_node"*, i8 } @_ZNSt3__16__treeINS_12basic_stringIcNS_11char_traitsIcEENS_9allocatorIcEEEENS_4lessIS6_EENS4_IS6_EEE25__emplace_unique_key_argsIS6_JRKS6_EEENS_4pairINS_15__tree_iteratorIS6_PNS_11__tree_nodeIS6_PvEElEEbEERKT_DpOT0_(%"class.std::__1::__tree.47"* nonnull %90, %"class.std::__1::basic_string"* dereferenceable(24) %116, %"class.std::__1::basic_string"* dereferenceable(24) %116) #15
  br label %118

118:                                              ; preds = %115, %106
  call void @_ZN4base8FilePathD1Ev(%"class.base::FilePath"* nonnull %12) #15
  call void @llvm.lifetime.end.p0i8(i64 24, i8* nonnull %85) #15
  br label %119

119:                                              ; preds = %103, %118
  %120 = load i8, i8* %87, align 1
  %121 = icmp slt i8 %120, 0
  br i1 %121, label %122, label %124

122:                                              ; preds = %119
  %123 = load i8*, i8** %83, align 8
  call void @_ZdlPv(i8* %123) #14
  br label %124

124:                                              ; preds = %119, %122
  call void @llvm.lifetime.end.p0i8(i64 24, i8* nonnull %82) #15
  br label %125

125:                                              ; preds = %101, %101, %124
  call void @llvm.lifetime.end.p0i8(i64 4, i8* nonnull %81) #15
  br label %126

126:                                              ; preds = %95, %125
  call void @llvm.lifetime.end.p0i8(i64 8, i8* nonnull %78) #15
  %127 = call dereferenceable(8) %"class.base::detail::const_dict_iterator"* @_ZN4base6detail19const_dict_iteratorppEv(%"class.base::detail::const_dict_iterator"* %69) #15
  call void @llvm.lifetime.start.p0i8(i64 8, i8* nonnull %70) #15
  call void @llvm.lifetime.start.p0i8(i64 8, i8* nonnull %71) #15
  %128 = load %"class.base::Value"*, %"class.base::Value"** %72, align 8
  %129 = call %"class.base::flat_map"* @_ZNK4base5Value9DictItemsEv(%"class.base::Value"* %128) #15
  store %"class.base::flat_map"* %129, %"class.base::flat_map"** %75, align 8
  call void @_ZNK4base6detail25const_dict_iterator_proxy3endEv(%"class.base::detail::const_dict_iterator"* nonnull sret %4, %"class.base::detail::const_dict_iterator_proxy"* nonnull %5) #15
  %130 = call zeroext i1 @_ZN4base6detaileqERKNS0_19const_dict_iteratorES3_(%"class.base::detail::const_dict_iterator"* dereferenceable(8) %69, %"class.base::detail::const_dict_iterator"* nonnull dereferenceable(8) %4) #15
  call void @_ZN4base6detail19const_dict_iteratorD1Ev(%"class.base::detail::const_dict_iterator"* nonnull %4) #15
  call void @llvm.lifetime.end.p0i8(i64 8, i8* nonnull %71) #15
  call void @llvm.lifetime.end.p0i8(i64 8, i8* nonnull %70) #15
  br i1 %130, label %92, label %95

131:                                              ; preds = %92
  %132 = bitcast %"class.prefs::ScopedDictionaryPrefUpdate"* %13 to i8*
  call void @llvm.lifetime.start.p0i8(i64 64, i8* nonnull %132) #15
  call void @llvm.memset.p0i8.i64(i8* nonnull align 8 %132, i8 -86, i64 64, i1 false)
  %133 = load %class.PrefService*, %class.PrefService** %18, align 8
  %134 = call i64 @strlen(i8* nonnull getelementptr inbounds ([0 x i8], [0 x i8]* @_ZN10extensions10pref_names11kExtensionsE, i64 0, i64 0)) #15
  call void @_ZN5prefs26ScopedDictionaryPrefUpdateC1EP11PrefServiceN4base16BasicStringPieceIcNSt3__111char_traitsIcEEEE(%"class.prefs::ScopedDictionaryPrefUpdate"* nonnull %13, %class.PrefService* %133, i8* getelementptr inbounds ([0 x i8], [0 x i8]* @_ZN10extensions10pref_names11kExtensionsE, i64 0, i64 0), i64 %134) #15
  %135 = call %"class.prefs::DictionaryValueUpdate"* @_ZN5prefs26ScopedDictionaryPrefUpdate3GetEv(%"class.prefs::ScopedDictionaryPrefUpdate"* nonnull %13) #15
  %136 = load %"class.std::__1::__tree_end_node"*, %"class.std::__1::__tree_end_node"** %62, align 8
  %137 = icmp eq %"class.std::__1::__tree_end_node"* %136, %65
  br i1 %137, label %155, label %138

138:                                              ; preds = %131
  %139 = bitcast %"class.std::__1::unique_ptr.120"* %14 to i8*
  %140 = getelementptr inbounds %"class.std::__1::unique_ptr.120", %"class.std::__1::unique_ptr.120"* %14, i64 0, i32 0, i32 0, i32 0
  %141 = bitcast %"class.std::__1::unique_ptr.120"* %14 to i64*
  %142 = bitcast %"class.std::__1::basic_string"* %15 to i8*
  %143 = getelementptr inbounds %"class.std::__1::basic_string", %"class.std::__1::basic_string"* %15, i64 0, i32 0, i32 0, i32 0, i32 0, i32 0, i32 0
  %144 = getelementptr inbounds %"class.std::__1::basic_string", %"class.std::__1::basic_string"* %15, i64 0, i32 0, i32 0, i32 0, i32 0, i32 0, i32 1
  %145 = bitcast %"class.base::FilePath"* %16 to i8*
  %146 = bitcast %"class.std::__1::basic_string"* %15 to %"struct.std::__1::basic_string<char, std::__1::char_traits<char>, std::__1::allocator<char> >::__short"*
  %147 = getelementptr inbounds %"struct.std::__1::basic_string<char, std::__1::char_traits<char>, std::__1::allocator<char> >::__short", %"struct.std::__1::basic_string<char, std::__1::char_traits<char>, std::__1::allocator<char> >::__short"* %146, i64 0, i32 1, i32 0
  %148 = bitcast %"class.std::__1::basic_string"* %17 to i8*
  %149 = getelementptr inbounds %"class.extensions::ExtensionPrefs", %"class.extensions::ExtensionPrefs"* %0, i64 0, i32 3
  %150 = bitcast %"class.std::__1::basic_string"* %17 to %"struct.std::__1::basic_string<char, std::__1::char_traits<char>, std::__1::allocator<char> >::__short"*
  %151 = getelementptr inbounds %"struct.std::__1::basic_string<char, std::__1::char_traits<char>, std::__1::allocator<char> >::__short", %"struct.std::__1::basic_string<char, std::__1::char_traits<char>, std::__1::allocator<char> >::__short"* %150, i64 0, i32 1, i32 0
  %152 = getelementptr inbounds %"class.std::__1::basic_string", %"class.std::__1::basic_string"* %17, i64 0, i32 0, i32 0, i32 0, i32 0, i32 0, i32 0
  %153 = getelementptr inbounds %"class.std::__1::basic_string", %"class.std::__1::basic_string"* %17, i64 0, i32 0, i32 0, i32 0, i32 0, i32 0, i32 1
  %154 = bitcast %"class.base::FilePath"* %16 to i8*
  br label %160

155:                                              ; preds = %238, %131
  %156 = icmp eq %"class.prefs::DictionaryValueUpdate"* %135, null
  br i1 %156, label %159, label %157

157:                                              ; preds = %155
  call void @_ZN5prefs21DictionaryValueUpdateD1Ev(%"class.prefs::DictionaryValueUpdate"* nonnull %135) #15
  %158 = bitcast %"class.prefs::DictionaryValueUpdate"* %135 to i8*
  call void @_ZdlPv(i8* %158) #14
  br label %159

159:                                              ; preds = %155, %157
  call void @_ZN5prefs26ScopedDictionaryPrefUpdateD1Ev(%"class.prefs::ScopedDictionaryPrefUpdate"* nonnull %13) #15
  call void @llvm.lifetime.end.p0i8(i64 64, i8* nonnull %132) #15
  br label %241

160:                                              ; preds = %138, %238
  %161 = phi %"class.std::__1::__tree_end_node"* [ %136, %138 ], [ %239, %238 ]
  call void @llvm.lifetime.start.p0i8(i64 8, i8* nonnull %139) #15
  store i64 0, i64* %141, align 8
  %162 = getelementptr inbounds %"class.std::__1::__tree_end_node", %"class.std::__1::__tree_end_node"* %161, i64 4
  %163 = bitcast %"class.std::__1::__tree_end_node"* %162 to %"struct.std::__1::basic_string<char, std::__1::char_traits<char>, std::__1::allocator<char> >::__short"*
  %164 = getelementptr inbounds %"struct.std::__1::basic_string<char, std::__1::char_traits<char>, std::__1::allocator<char> >::__short", %"struct.std::__1::basic_string<char, std::__1::char_traits<char>, std::__1::allocator<char> >::__short"* %163, i64 0, i32 1, i32 0
  %165 = load i8, i8* %164, align 1
  %166 = icmp slt i8 %165, 0
  %167 = bitcast %"class.std::__1::__tree_end_node"* %162 to i8**
  %168 = load i8*, i8** %167, align 8
  %169 = bitcast %"class.std::__1::__tree_end_node"* %162 to i8*
  %170 = select i1 %166, i8* %168, i8* %169
  %171 = getelementptr inbounds %"class.std::__1::__tree_end_node", %"class.std::__1::__tree_end_node"* %161, i64 5
  %172 = bitcast %"class.std::__1::__tree_end_node"* %171 to i64*
  %173 = load i64, i64* %172, align 8
  %174 = zext i8 %165 to i64
  %175 = select i1 %166, i64 %173, i64 %174
  %176 = call zeroext i1 @_ZN5prefs21DictionaryValueUpdate33GetDictionaryWithoutPathExpansionEN4base16BasicStringPieceIcNSt3__111char_traitsIcEEEEPNS3_10unique_ptrIS0_NS3_14default_deleteIS0_EEEE(%"class.prefs::DictionaryValueUpdate"* %135, i8* %170, i64 %175, %"class.std::__1::unique_ptr.120"* nonnull %14) #15
  br i1 %176, label %177, label %205

177:                                              ; preds = %160
  call void @llvm.lifetime.start.p0i8(i64 24, i8* nonnull %142) #15
  call void @llvm.memset.p0i8.i64(i8* nonnull align 8 %142, i8 0, i64 24, i1 false) #15
  %178 = load %"class.prefs::DictionaryValueUpdate"*, %"class.prefs::DictionaryValueUpdate"** %140, align 8
  %179 = call zeroext i1 @_ZNK5prefs21DictionaryValueUpdate9GetStringEN4base16BasicStringPieceIcNSt3__111char_traitsIcEEEEPNS3_12basic_stringIcS5_NS3_9allocatorIcEEEE(%"class.prefs::DictionaryValueUpdate"* %178, i8* getelementptr inbounds ([5 x i8], [5 x i8]* @_ZN10extensions12_GLOBAL__N_19kPrefPathE, i64 0, i64 0), i64 4, %"class.std::__1::basic_string"* nonnull %15) #15
  call void @llvm.lifetime.start.p0i8(i64 24, i8* nonnull %145) #15
  call void @llvm.memset.p0i8.i64(i8* nonnull align 8 %154, i8 -86, i64 24, i1 false)
  %180 = load i8, i8* %147, align 1
  %181 = icmp slt i8 %180, 0
  %182 = load i8*, i8** %143, align 8
  %183 = select i1 %181, i8* %182, i8* %142
  %184 = load i64, i64* %144, align 8
  %185 = zext i8 %180 to i64
  %186 = select i1 %181, i64 %184, i64 %185
  call void @_ZN4base8FilePath14FromUTF8UnsafeENS_16BasicStringPieceIcNSt3__111char_traitsIcEEEE(%"class.base::FilePath"* nonnull sret %16, i8* %183, i64 %186) #15
  %187 = load %"class.prefs::DictionaryValueUpdate"*, %"class.prefs::DictionaryValueUpdate"** %140, align 8
  call void @llvm.lifetime.start.p0i8(i64 24, i8* nonnull %148) #15
  call fastcc void @_ZN10extensionsL16MakePathRelativeERKN4base8FilePathES3_(%"class.std::__1::basic_string"* nonnull sret %17, %"class.base::FilePath"* dereferenceable(24) %149, %"class.base::FilePath"* nonnull dereferenceable(24) %16)
  %188 = load i8, i8* %151, align 1
  %189 = icmp slt i8 %188, 0
  %190 = load i8*, i8** %152, align 8
  %191 = select i1 %189, i8* %190, i8* %148
  %192 = load i64, i64* %153, align 8
  %193 = zext i8 %188 to i64
  %194 = select i1 %189, i64 %192, i64 %193
  call void @_ZN5prefs21DictionaryValueUpdate9SetStringEN4base16BasicStringPieceIcNSt3__111char_traitsIcEEEES6_(%"class.prefs::DictionaryValueUpdate"* %187, i8* getelementptr inbounds ([5 x i8], [5 x i8]* @_ZN10extensions12_GLOBAL__N_19kPrefPathE, i64 0, i64 0), i64 4, i8* %191, i64 %194) #15
  %195 = load i8, i8* %151, align 1
  %196 = icmp slt i8 %195, 0
  br i1 %196, label %197, label %199

197:                                              ; preds = %177
  %198 = load i8*, i8** %152, align 8
  call void @_ZdlPv(i8* %198) #14
  br label %199

199:                                              ; preds = %177, %197
  call void @llvm.lifetime.end.p0i8(i64 24, i8* nonnull %148) #15
  call void @_ZN4base8FilePathD1Ev(%"class.base::FilePath"* nonnull %16) #15
  call void @llvm.lifetime.end.p0i8(i64 24, i8* nonnull %145) #15
  %200 = load i8, i8* %147, align 1
  %201 = icmp slt i8 %200, 0
  br i1 %201, label %202, label %204

202:                                              ; preds = %199
  %203 = load i8*, i8** %143, align 8
  call void @_ZdlPv(i8* %203) #14
  br label %204

204:                                              ; preds = %199, %202
  call void @llvm.lifetime.end.p0i8(i64 24, i8* nonnull %142) #15
  br label %205

205:                                              ; preds = %160, %204
  %206 = load %"class.prefs::DictionaryValueUpdate"*, %"class.prefs::DictionaryValueUpdate"** %140, align 8
  store %"class.prefs::DictionaryValueUpdate"* null, %"class.prefs::DictionaryValueUpdate"** %140, align 8
  %207 = icmp eq %"class.prefs::DictionaryValueUpdate"* %206, null
  br i1 %207, label %210, label %208

208:                                              ; preds = %205
  call void @_ZN5prefs21DictionaryValueUpdateD1Ev(%"class.prefs::DictionaryValueUpdate"* nonnull %206) #15
  %209 = bitcast %"class.prefs::DictionaryValueUpdate"* %206 to i8*
  call void @_ZdlPv(i8* %209) #14
  br label %210

210:                                              ; preds = %205, %208
  call void @llvm.lifetime.end.p0i8(i64 8, i8* nonnull %139) #15
  %211 = getelementptr inbounds %"class.std::__1::__tree_end_node", %"class.std::__1::__tree_end_node"* %161, i64 1, i32 0
  %212 = load %"class.std::__1::__tree_node_base"*, %"class.std::__1::__tree_node_base"** %211, align 8
  %213 = icmp eq %"class.std::__1::__tree_node_base"* %212, null
  br i1 %213, label %214, label %222

214:                                              ; preds = %210
  %215 = bitcast %"class.std::__1::__tree_end_node"* %161 to %"class.std::__1::__tree_node_base"*
  %216 = getelementptr inbounds %"class.std::__1::__tree_end_node", %"class.std::__1::__tree_end_node"* %161, i64 2
  %217 = bitcast %"class.std::__1::__tree_end_node"* %216 to %"class.std::__1::__tree_end_node"**
  %218 = load %"class.std::__1::__tree_end_node"*, %"class.std::__1::__tree_end_node"** %217, align 8
  %219 = getelementptr inbounds %"class.std::__1::__tree_end_node", %"class.std::__1::__tree_end_node"* %218, i64 0, i32 0
  %220 = load %"class.std::__1::__tree_node_base"*, %"class.std::__1::__tree_node_base"** %219, align 8
  %221 = icmp eq %"class.std::__1::__tree_node_base"* %220, %215
  br i1 %221, label %238, label %229

222:                                              ; preds = %210, %222
  %223 = phi %"class.std::__1::__tree_node_base"* [ %225, %222 ], [ %212, %210 ]
  %224 = getelementptr inbounds %"class.std::__1::__tree_node_base", %"class.std::__1::__tree_node_base"* %223, i64 0, i32 0, i32 0
  %225 = load %"class.std::__1::__tree_node_base"*, %"class.std::__1::__tree_node_base"** %224, align 8
  %226 = icmp eq %"class.std::__1::__tree_node_base"* %225, null
  br i1 %226, label %227, label %222

227:                                              ; preds = %222
  %228 = getelementptr inbounds %"class.std::__1::__tree_node_base", %"class.std::__1::__tree_node_base"* %223, i64 0, i32 0
  br label %238

229:                                              ; preds = %214, %229
  %230 = phi %"class.std::__1::__tree_end_node"** [ %233, %229 ], [ %217, %214 ]
  %231 = bitcast %"class.std::__1::__tree_end_node"** %230 to %"class.std::__1::__tree_node_base"**
  %232 = load %"class.std::__1::__tree_node_base"*, %"class.std::__1::__tree_node_base"** %231, align 8
  %233 = getelementptr inbounds %"class.std::__1::__tree_node_base", %"class.std::__1::__tree_node_base"* %232, i64 0, i32 2
  %234 = load %"class.std::__1::__tree_end_node"*, %"class.std::__1::__tree_end_node"** %233, align 8
  %235 = getelementptr inbounds %"class.std::__1::__tree_end_node", %"class.std::__1::__tree_end_node"* %234, i64 0, i32 0
  %236 = load %"class.std::__1::__tree_node_base"*, %"class.std::__1::__tree_node_base"** %235, align 8
  %237 = icmp eq %"class.std::__1::__tree_node_base"* %236, %232
  br i1 %237, label %238, label %229

238:                                              ; preds = %229, %214, %227
  %239 = phi %"class.std::__1::__tree_end_node"* [ %228, %227 ], [ %218, %214 ], [ %234, %229 ]
  %240 = icmp eq %"class.std::__1::__tree_end_node"* %239, %65
  br i1 %240, label %155, label %160

241:                                              ; preds = %92, %159
  %242 = getelementptr inbounds %"class.std::__1::set", %"class.std::__1::set"* %7, i64 0, i32 0
  %243 = bitcast %"class.std::__1::__tree_end_node"* %65 to %"class.std::__1::__tree_node.450"**
  %244 = load %"class.std::__1::__tree_node.450"*, %"class.std::__1::__tree_node.450"** %243, align 8
  call void @_ZNSt3__16__treeINS_12basic_stringIcNS_11char_traitsIcEENS_9allocatorIcEEEENS_4lessIS6_EENS4_IS6_EEE7destroyEPNS_11__tree_nodeIS6_PvEE(%"class.std::__1::__tree.47"* nonnull %242, %"class.std::__1::__tree_node.450"* %244) #15
  call void @llvm.lifetime.end.p0i8(i64 24, i8* nonnull %61) #15
  br label %245

245:                                              ; preds = %57, %55, %241
  ret void
}

declare %"class.base::DictionaryValue"* @_ZNK11PrefService13GetDictionaryERKNSt3__112basic_stringIcNS0_11char_traitsIcEENS0_9allocatorIcEEEE(%class.PrefService*, %"class.std::__1::basic_string"* dereferenceable(24)) local_unnamed_addr #2

declare zeroext i1 @_ZNK4base5Value9DictEmptyEv(%"class.base::Value"*) local_unnamed_addr #2

declare void @_ZN4base15DictionaryValue8IteratorC1ERKS0_(%"class.base::DictionaryValue::Iterator"*, %"class.base::DictionaryValue"* dereferenceable(32)) unnamed_addr #2

declare zeroext i1 @_ZNK4base5Value15GetAsDictionaryEPPKNS_15DictionaryValueE(%"class.base::Value"*, %"class.base::DictionaryValue"**) local_unnamed_addr #2

declare zeroext i1 @_ZNK4base15DictionaryValue10GetIntegerENS_16BasicStringPieceIcNSt3__111char_traitsIcEEEEPi(%"class.base::DictionaryValue"*, i8*, i64, i32*) local_unnamed_addr #2

declare zeroext i1 @_ZNK4base15DictionaryValue9GetStringENS_16BasicStringPieceIcNSt3__111char_traitsIcEEEEPNS2_12basic_stringIcS4_NS2_9allocatorIcEEEE(%"class.base::DictionaryValue"*, i8*, i64, %"class.std::__1::basic_string"*) local_unnamed_addr #2

declare void @_ZN4base8FilePath14FromUTF8UnsafeENS_16BasicStringPieceIcNSt3__111char_traitsIcEEEE(%"class.base::FilePath"* sret, i8*, i64) local_unnamed_addr #2

declare zeroext i1 @_ZNK4base8FilePath10IsAbsoluteEv(%"class.base::FilePath"*) local_unnamed_addr #2

; Function Attrs: nounwind
declare void @_ZN4base15DictionaryValue8IteratorD1Ev(%"class.base::DictionaryValue::Iterator"*) unnamed_addr #4

declare void @_ZN5prefs26ScopedDictionaryPrefUpdateC1EP11PrefServiceN4base16BasicStringPieceIcNSt3__111char_traitsIcEEEE(%"class.prefs::ScopedDictionaryPrefUpdate"*, %class.PrefService*, i8*, i64) unnamed_addr #2

declare %"class.prefs::DictionaryValueUpdate"* @_ZN5prefs26ScopedDictionaryPrefUpdate3GetEv(%"class.prefs::ScopedDictionaryPrefUpdate"*) unnamed_addr #2

declare zeroext i1 @_ZN5prefs21DictionaryValueUpdate33GetDictionaryWithoutPathExpansionEN4base16BasicStringPieceIcNSt3__111char_traitsIcEEEEPNS3_10unique_ptrIS0_NS3_14default_deleteIS0_EEEE(%"class.prefs::DictionaryValueUpdate"*, i8*, i64, %"class.std::__1::unique_ptr.120"*) local_unnamed_addr #2

declare zeroext i1 @_ZNK5prefs21DictionaryValueUpdate9GetStringEN4base16BasicStringPieceIcNSt3__111char_traitsIcEEEEPNS3_12basic_stringIcS5_NS3_9allocatorIcEEEE(%"class.prefs::DictionaryValueUpdate"*, i8*, i64, %"class.std::__1::basic_string"*) local_unnamed_addr #2

declare void @_ZN5prefs21DictionaryValueUpdate9SetStringEN4base16BasicStringPieceIcNSt3__111char_traitsIcEEEES6_(%"class.prefs::DictionaryValueUpdate"*, i8*, i64, i8*, i64) local_unnamed_addr #2

; Function Attrs: nounwind ssp uwtable
define internal fastcc void @_ZN10extensionsL16MakePathRelativeERKN4base8FilePathES3_(%"class.std::__1::basic_string"* noalias sret, %"class.base::FilePath"* dereferenceable(24), %"class.base::FilePath"* dereferenceable(24)) unnamed_addr #0 {
  %4 = alloca %"class.std::__1::basic_string", align 8
  %5 = alloca %"class.std::__1::basic_string", align 8
  %6 = tail call zeroext i1 @_ZNK4base8FilePath8IsParentERKS0_(%"class.base::FilePath"* %1, %"class.base::FilePath"* dereferenceable(24) %2) #15
  br i1 %6, label %8, label %7

7:                                                ; preds = %3
  tail call void @_ZNK4base8FilePath12AsUTF8UnsafeEv(%"class.std::__1::basic_string"* sret %0, %"class.base::FilePath"* %2) #15
  br label %40

8:                                                ; preds = %3
  %9 = bitcast %"class.std::__1::basic_string"* %4 to i8*
  call void @llvm.lifetime.start.p0i8(i64 24, i8* nonnull %9) #15
  %10 = getelementptr inbounds %"class.std::__1::basic_string", %"class.std::__1::basic_string"* %4, i64 0, i32 0, i32 0, i32 0, i32 0, i32 0, i32 0
  %11 = getelementptr inbounds %"class.base::FilePath", %"class.base::FilePath"* %2, i64 0, i32 0
  %12 = bitcast %"class.base::FilePath"* %1 to %"struct.std::__1::basic_string<char, std::__1::char_traits<char>, std::__1::allocator<char> >::__short"*
  %13 = getelementptr inbounds %"struct.std::__1::basic_string<char, std::__1::char_traits<char>, std::__1::allocator<char> >::__short", %"struct.std::__1::basic_string<char, std::__1::char_traits<char>, std::__1::allocator<char> >::__short"* %12, i64 0, i32 1, i32 0
  %14 = bitcast %"class.std::__1::basic_string"* %4 to i8*
  call void @llvm.memset.p0i8.i64(i8* nonnull align 8 %14, i8 -86, i64 24, i1 false)
  %15 = load i8, i8* %13, align 1
  %16 = icmp slt i8 %15, 0
  %17 = getelementptr inbounds %"class.base::FilePath", %"class.base::FilePath"* %1, i64 0, i32 0, i32 0, i32 0, i32 0, i32 0, i32 0, i32 1
  %18 = load i64, i64* %17, align 8
  %19 = zext i8 %15 to i64
  %20 = select i1 %16, i64 %18, i64 %19
  %21 = bitcast %"class.base::FilePath"* %2 to %"class.std::__1::allocator.81"*
  call void @_ZNSt3__112basic_stringIcNS_11char_traitsIcEENS_9allocatorIcEEEC1ERKS5_mmRKS4_(%"class.std::__1::basic_string"* nonnull %4, %"class.std::__1::basic_string"* dereferenceable(24) %11, i64 %20, i64 -1, %"class.std::__1::allocator.81"* dereferenceable(1) %21) #15
  %22 = bitcast %"class.std::__1::basic_string"* %4 to %"struct.std::__1::basic_string<char, std::__1::char_traits<char>, std::__1::allocator<char> >::__short"*
  %23 = getelementptr inbounds %"struct.std::__1::basic_string<char, std::__1::char_traits<char>, std::__1::allocator<char> >::__short", %"struct.std::__1::basic_string<char, std::__1::char_traits<char>, std::__1::allocator<char> >::__short"* %22, i64 0, i32 1, i32 0
  %24 = load i8, i8* %23, align 1
  %25 = icmp slt i8 %24, 0
  %26 = load i8*, i8** %10, align 8
  %27 = select i1 %25, i8* %26, i8* %9
  %28 = load i8, i8* %27, align 1
  %29 = call zeroext i1 @_ZN4base8FilePath11IsSeparatorEc(i8 signext %28) #15
  br i1 %29, label %30, label %38

30:                                               ; preds = %8
  %31 = bitcast %"class.std::__1::basic_string"* %5 to i8*
  call void @llvm.lifetime.start.p0i8(i64 24, i8* nonnull %31) #15
  %32 = bitcast %"class.std::__1::basic_string"* %4 to %"class.std::__1::allocator.81"*
  call void @_ZNSt3__112basic_stringIcNS_11char_traitsIcEENS_9allocatorIcEEEC1ERKS5_mmRKS4_(%"class.std::__1::basic_string"* nonnull %5, %"class.std::__1::basic_string"* nonnull dereferenceable(24) %4, i64 1, i64 -1, %"class.std::__1::allocator.81"* nonnull dereferenceable(1) %32) #15
  %33 = load i8, i8* %23, align 1
  %34 = icmp slt i8 %33, 0
  br i1 %34, label %35, label %37

35:                                               ; preds = %30
  %36 = load i8*, i8** %10, align 8
  call void @_ZdlPv(i8* %36) #14
  br label %37

37:                                               ; preds = %35, %30
  call void @llvm.memcpy.p0i8.p0i8.i64(i8* nonnull align 8 %9, i8* nonnull align 8 %31, i64 24, i1 false) #15
  call void @llvm.lifetime.end.p0i8(i64 24, i8* nonnull %31) #15
  br label %38

38:                                               ; preds = %8, %37
  %39 = bitcast %"class.std::__1::basic_string"* %0 to i8*
  call void @llvm.memcpy.p0i8.p0i8.i64(i8* align 8 %39, i8* nonnull align 8 %9, i64 24, i1 false) #15
  call void @llvm.lifetime.end.p0i8(i64 24, i8* nonnull %9) #15
  br label %40

40:                                               ; preds = %38, %7
  ret void
}

; Function Attrs: nounwind
declare void @_ZN5prefs26ScopedDictionaryPrefUpdateD1Ev(%"class.prefs::ScopedDictionaryPrefUpdate"*) unnamed_addr #4

; Function Attrs: nounwind ssp uwtable
define hidden %"class.base::DictionaryValue"* @_ZNK10extensions14ExtensionPrefs16GetExtensionPrefERKNSt3__112basic_stringIcNS1_11char_traitsIcEENS1_9allocatorIcEEEE(%"class.extensions::ExtensionPrefs"* nocapture readonly, %"class.std::__1::basic_string"* dereferenceable(24)) local_unnamed_addr #0 align 2 {
  %3 = alloca %"class.std::__1::basic_string", align 8
  %4 = alloca %"class.base::DictionaryValue"*, align 8
  %5 = getelementptr inbounds %"class.extensions::ExtensionPrefs", %"class.extensions::ExtensionPrefs"* %0, i64 0, i32 2
  %6 = load %class.PrefService*, %class.PrefService** %5, align 8
  %7 = bitcast %"class.std::__1::basic_string"* %3 to i8*
  call void @llvm.lifetime.start.p0i8(i64 24, i8* nonnull %7) #15
  %8 = tail call i64 @strlen(i8* getelementptr inbounds ([0 x i8], [0 x i8]* @_ZN10extensions10pref_names11kExtensionsE, i64 0, i64 0)) #15
  %9 = icmp ugt i64 %8, -17
  br i1 %9, label %10, label %12

10:                                               ; preds = %2
  %11 = bitcast %"class.std::__1::basic_string"* %3 to %"class.std::__1::__basic_string_common"*
  call void @_ZNKSt3__121__basic_string_commonILb1EE20__throw_length_errorEv(%"class.std::__1::__basic_string_common"* nonnull %11) #16
  unreachable

12:                                               ; preds = %2
  %13 = icmp ult i64 %8, 23
  br i1 %13, label %23, label %14

14:                                               ; preds = %12
  %15 = add nuw i64 %8, 16
  %16 = and i64 %15, -16
  %17 = tail call i8* @_Znwm(i64 %16) #14
  %18 = getelementptr inbounds %"class.std::__1::basic_string", %"class.std::__1::basic_string"* %3, i64 0, i32 0, i32 0, i32 0, i32 0, i32 0, i32 0
  store i8* %17, i8** %18, align 8
  %19 = or i64 %16, -9223372036854775808
  %20 = getelementptr inbounds %"class.std::__1::basic_string", %"class.std::__1::basic_string"* %3, i64 0, i32 0, i32 0, i32 0, i32 0, i32 0, i32 2
  store i64 %19, i64* %20, align 8
  %21 = getelementptr inbounds %"class.std::__1::basic_string", %"class.std::__1::basic_string"* %3, i64 0, i32 0, i32 0, i32 0, i32 0, i32 0, i32 1
  store i64 %8, i64* %21, align 8
  %22 = bitcast %"class.std::__1::basic_string"* %3 to %"struct.std::__1::basic_string<char, std::__1::char_traits<char>, std::__1::allocator<char> >::__short"*
  br label %28

23:                                               ; preds = %12
  %24 = trunc i64 %8 to i8
  %25 = bitcast %"class.std::__1::basic_string"* %3 to %"struct.std::__1::basic_string<char, std::__1::char_traits<char>, std::__1::allocator<char> >::__short"*
  %26 = getelementptr inbounds %"struct.std::__1::basic_string<char, std::__1::char_traits<char>, std::__1::allocator<char> >::__short", %"struct.std::__1::basic_string<char, std::__1::char_traits<char>, std::__1::allocator<char> >::__short"* %25, i64 0, i32 1, i32 0
  store i8 %24, i8* %26, align 1
  %27 = icmp eq i64 %8, 0
  br i1 %27, label %31, label %28

28:                                               ; preds = %23, %14
  %29 = phi %"struct.std::__1::basic_string<char, std::__1::char_traits<char>, std::__1::allocator<char> >::__short"* [ %25, %23 ], [ %22, %14 ]
  %30 = phi i8* [ %7, %23 ], [ %17, %14 ]
  call void @llvm.memcpy.p0i8.p0i8.i64(i8* nonnull align 1 %30, i8* align 1 getelementptr inbounds ([0 x i8], [0 x i8]* @_ZN10extensions10pref_names11kExtensionsE, i64 0, i64 0), i64 %8, i1 false) #15
  br label %31

31:                                               ; preds = %23, %28
  %32 = phi %"struct.std::__1::basic_string<char, std::__1::char_traits<char>, std::__1::allocator<char> >::__short"* [ %25, %23 ], [ %29, %28 ]
  %33 = phi i8* [ %7, %23 ], [ %30, %28 ]
  %34 = getelementptr inbounds i8, i8* %33, i64 %8
  store i8 0, i8* %34, align 1
  %35 = call %"class.base::DictionaryValue"* @_ZNK11PrefService13GetDictionaryERKNSt3__112basic_stringIcNS0_11char_traitsIcEENS0_9allocatorIcEEEE(%class.PrefService* %6, %"class.std::__1::basic_string"* nonnull dereferenceable(24) %3) #15
  %36 = getelementptr inbounds %"struct.std::__1::basic_string<char, std::__1::char_traits<char>, std::__1::allocator<char> >::__short", %"struct.std::__1::basic_string<char, std::__1::char_traits<char>, std::__1::allocator<char> >::__short"* %32, i64 0, i32 1, i32 0
  %37 = load i8, i8* %36, align 1
  %38 = icmp slt i8 %37, 0
  br i1 %38, label %39, label %42

39:                                               ; preds = %31
  %40 = getelementptr inbounds %"class.std::__1::basic_string", %"class.std::__1::basic_string"* %3, i64 0, i32 0, i32 0, i32 0, i32 0, i32 0, i32 0
  %41 = load i8*, i8** %40, align 8
  call void @_ZdlPv(i8* %41) #14
  br label %42

42:                                               ; preds = %31, %39
  call void @llvm.lifetime.end.p0i8(i64 24, i8* nonnull %7) #15
  %43 = bitcast %"class.base::DictionaryValue"** %4 to i8*
  call void @llvm.lifetime.start.p0i8(i64 8, i8* nonnull %43) #15
  store %"class.base::DictionaryValue"* null, %"class.base::DictionaryValue"** %4, align 8
  %44 = icmp eq %"class.base::DictionaryValue"* %35, null
  br i1 %44, label %61, label %45

45:                                               ; preds = %42
  %46 = bitcast %"class.std::__1::basic_string"* %1 to %"struct.std::__1::basic_string<char, std::__1::char_traits<char>, std::__1::allocator<char> >::__short"*
  %47 = getelementptr inbounds %"struct.std::__1::basic_string<char, std::__1::char_traits<char>, std::__1::allocator<char> >::__short", %"struct.std::__1::basic_string<char, std::__1::char_traits<char>, std::__1::allocator<char> >::__short"* %46, i64 0, i32 1, i32 0
  %48 = load i8, i8* %47, align 1
  %49 = icmp slt i8 %48, 0
  %50 = getelementptr inbounds %"class.std::__1::basic_string", %"class.std::__1::basic_string"* %1, i64 0, i32 0, i32 0, i32 0, i32 0, i32 0, i32 0
  %51 = load i8*, i8** %50, align 8
  %52 = bitcast %"class.std::__1::basic_string"* %1 to i8*
  %53 = select i1 %49, i8* %51, i8* %52
  %54 = getelementptr inbounds %"class.std::__1::basic_string", %"class.std::__1::basic_string"* %1, i64 0, i32 0, i32 0, i32 0, i32 0, i32 0, i32 1
  %55 = load i64, i64* %54, align 8
  %56 = zext i8 %48 to i64
  %57 = select i1 %49, i64 %55, i64 %56
  %58 = call zeroext i1 @_ZNK4base15DictionaryValue13GetDictionaryENS_16BasicStringPieceIcNSt3__111char_traitsIcEEEEPPKS0_(%"class.base::DictionaryValue"* nonnull %35, i8* %53, i64 %57, %"class.base::DictionaryValue"** nonnull %4) #15
  %59 = load %"class.base::DictionaryValue"*, %"class.base::DictionaryValue"** %4, align 8
  %60 = select i1 %58, %"class.base::DictionaryValue"* %59, %"class.base::DictionaryValue"* null
  br label %61

61:                                               ; preds = %45, %42
  %62 = phi %"class.base::DictionaryValue"* [ null, %42 ], [ %60, %45 ]
  call void @llvm.lifetime.end.p0i8(i64 8, i8* nonnull %43) #15
  ret %"class.base::DictionaryValue"* %62
}

declare zeroext i1 @_ZNK4base15DictionaryValue13GetDictionaryENS_16BasicStringPieceIcNSt3__111char_traitsIcEEEEPPKS0_(%"class.base::DictionaryValue"*, i8*, i64, %"class.base::DictionaryValue"**) local_unnamed_addr #2

; Function Attrs: nounwind ssp uwtable
define hidden void @_ZN10extensions14ExtensionPrefs14SetIntegerPrefERKNSt3__112basic_stringIcNS1_11char_traitsIcEENS1_9allocatorIcEEEERKNS_7PrefMapEi(%"class.extensions::ExtensionPrefs"* nocapture readonly, %"class.std::__1::basic_string"* nocapture readonly dereferenceable(24), %"struct.extensions::PrefMap"* nocapture readonly dereferenceable(16), i32) local_unnamed_addr #0 align 2 {
  %5 = tail call i8* @_Znwm(i64 32) #14
  %6 = bitcast i8* %5 to %"class.base::Value"*
  tail call void @_ZN4base5ValueC1Ei(%"class.base::Value"* nonnull %6, i32 %3) #15
  tail call void @_ZN10extensions14ExtensionPrefs19UpdateExtensionPrefERKNSt3__112basic_stringIcNS1_11char_traitsIcEENS1_9allocatorIcEEEERKNS_7PrefMapENS1_10unique_ptrIN4base5ValueENS1_14default_deleteISF_EEEE(%"class.extensions::ExtensionPrefs"* %0, %"class.std::__1::basic_string"* dereferenceable(24) %1, %"struct.extensions::PrefMap"* dereferenceable(16) %2, %"class.base::Value"* nonnull %6)
  ret void
}

; Function Attrs: nounwind ssp uwtable
define hidden void @_ZN10extensions14ExtensionPrefs19UpdateExtensionPrefERKNSt3__112basic_stringIcNS1_11char_traitsIcEENS1_9allocatorIcEEEERKNS_7PrefMapENS1_10unique_ptrIN4base5ValueENS1_14default_deleteISF_EEEE(%"class.extensions::ExtensionPrefs"* nocapture readonly, %"class.std::__1::basic_string"* nocapture readonly dereferenceable(24), %"struct.extensions::PrefMap"* nocapture readonly dereferenceable(16), %"class.base::Value"*) local_unnamed_addr #0 align 2 {
  %5 = alloca %"class.logging::CheckError", align 8
  %6 = alloca %"class.extensions::(anonymous namespace)::ScopedExtensionPrefUpdate", align 8
  %7 = bitcast %"class.extensions::(anonymous namespace)::ScopedExtensionPrefUpdate"* %6 to i8*
  call void @llvm.lifetime.start.p0i8(i64 88, i8* nonnull %7) #15
  call void @llvm.memset.p0i8.i64(i8* nonnull align 8 %7, i8 -86, i64 88, i1 false)
  %8 = getelementptr inbounds %"class.extensions::ExtensionPrefs", %"class.extensions::ExtensionPrefs"* %0, i64 0, i32 2
  %9 = load %class.PrefService*, %class.PrefService** %8, align 8
  %10 = getelementptr inbounds %"class.extensions::(anonymous namespace)::ScopedExtensionPrefUpdate", %"class.extensions::(anonymous namespace)::ScopedExtensionPrefUpdate"* %6, i64 0, i32 0
  %11 = tail call i64 @strlen(i8* nonnull getelementptr inbounds ([0 x i8], [0 x i8]* @_ZN10extensions10pref_names11kExtensionsE, i64 0, i64 0)) #15
  call void @_ZN5prefs26ScopedDictionaryPrefUpdateC2EP11PrefServiceN4base16BasicStringPieceIcNSt3__111char_traitsIcEEEE(%"class.prefs::ScopedDictionaryPrefUpdate"* nonnull %10, %class.PrefService* %9, i8* getelementptr inbounds ([0 x i8], [0 x i8]* @_ZN10extensions10pref_names11kExtensionsE, i64 0, i64 0), i64 %11) #15
  %12 = getelementptr inbounds %"class.extensions::(anonymous namespace)::ScopedExtensionPrefUpdate", %"class.extensions::(anonymous namespace)::ScopedExtensionPrefUpdate"* %6, i64 0, i32 0, i32 0
  store i32 (...)** bitcast (i8** getelementptr inbounds ({ [5 x i8*] }, { [5 x i8*] }* @_ZTVN10extensions12_GLOBAL__N_125ScopedExtensionPrefUpdateE, i64 0, inrange i32 0, i64 2) to i32 (...)**), i32 (...)*** %12, align 8
  %13 = getelementptr inbounds %"class.extensions::(anonymous namespace)::ScopedExtensionPrefUpdate", %"class.extensions::(anonymous namespace)::ScopedExtensionPrefUpdate"* %6, i64 0, i32 1
  %14 = bitcast %"class.std::__1::basic_string"* %1 to %"struct.std::__1::basic_string<char, std::__1::char_traits<char>, std::__1::allocator<char> >::__short"*
  %15 = getelementptr inbounds %"struct.std::__1::basic_string<char, std::__1::char_traits<char>, std::__1::allocator<char> >::__short", %"struct.std::__1::basic_string<char, std::__1::char_traits<char>, std::__1::allocator<char> >::__short"* %14, i64 0, i32 1, i32 0
  %16 = load i8, i8* %15, align 1
  %17 = icmp slt i8 %16, 0
  br i1 %17, label %21, label %18

18:                                               ; preds = %4
  %19 = bitcast %"class.std::__1::basic_string"* %13 to i8*
  %20 = bitcast %"class.std::__1::basic_string"* %1 to i8*
  call void @llvm.memcpy.p0i8.p0i8.i64(i8* align 8 %19, i8* align 8 %20, i64 24, i1 false) #15
  br label %26

21:                                               ; preds = %4
  %22 = getelementptr inbounds %"class.std::__1::basic_string", %"class.std::__1::basic_string"* %1, i64 0, i32 0, i32 0, i32 0, i32 0, i32 0, i32 0
  %23 = load i8*, i8** %22, align 8
  %24 = getelementptr inbounds %"class.std::__1::basic_string", %"class.std::__1::basic_string"* %1, i64 0, i32 0, i32 0, i32 0, i32 0, i32 0, i32 1
  %25 = load i64, i64* %24, align 8
  call void @_ZNSt3__112basic_stringIcNS_11char_traitsIcEENS_9allocatorIcEEE25__init_copy_ctor_externalEPKcm(%"class.std::__1::basic_string"* %13, i8* %23, i64 %25) #15
  br label %26

26:                                               ; preds = %18, %21
  %27 = call %"class.prefs::DictionaryValueUpdate"* @_ZN5prefs26ScopedDictionaryPrefUpdateptEv(%"class.prefs::ScopedDictionaryPrefUpdate"* nonnull %10) #15
  %28 = getelementptr inbounds %"struct.extensions::PrefMap", %"struct.extensions::PrefMap"* %2, i64 0, i32 0
  %29 = load i8*, i8** %28, align 8
  %30 = icmp eq i8* %29, null
  br i1 %30, label %33, label %31

31:                                               ; preds = %26
  %32 = call i64 @strlen(i8* nonnull %29) #15
  br label %36

33:                                               ; preds = %26
  %34 = bitcast %"class.logging::CheckError"* %5 to i8*
  call void @llvm.lifetime.start.p0i8(i64 8, i8* nonnull %34) #15
  call void @_ZN7logging10CheckError5CheckEPKciS2_(%"class.logging::CheckError"* nonnull sret %5, i8* getelementptr inbounds ([34 x i8], [34 x i8]* @.str.14, i64 0, i64 0), i32 125, i8* getelementptr inbounds ([2 x i8], [2 x i8]* @.str.15, i64 0, i64 0)) #15
  %35 = call dereferenceable(160) %"class.std::__1::basic_ostream"* @_ZN7logging10CheckError6streamEv(%"class.logging::CheckError"* nonnull %5) #15
  call void @_ZN7logging10CheckErrorD1Ev(%"class.logging::CheckError"* nonnull %5) #15
  call void @llvm.lifetime.end.p0i8(i64 8, i8* nonnull %34) #15
  br label %36

36:                                               ; preds = %31, %33
  %37 = phi i64 [ 0, %33 ], [ %32, %31 ]
  call void @_ZN5prefs21DictionaryValueUpdate3SetEN4base16BasicStringPieceIcNSt3__111char_traitsIcEEEENS3_10unique_ptrINS1_5ValueENS3_14default_deleteIS8_EEEE(%"class.prefs::DictionaryValueUpdate"* %27, i8* %29, i64 %37, %"class.base::Value"* %3) #15
  %38 = icmp eq %"class.prefs::DictionaryValueUpdate"* %27, null
  br i1 %38, label %41, label %39

39:                                               ; preds = %36
  call void @_ZN5prefs21DictionaryValueUpdateD1Ev(%"class.prefs::DictionaryValueUpdate"* nonnull %27) #15
  %40 = bitcast %"class.prefs::DictionaryValueUpdate"* %27 to i8*
  call void @_ZdlPv(i8* %40) #14
  br label %41

41:                                               ; preds = %36, %39
  store i32 (...)** bitcast (i8** getelementptr inbounds ({ [5 x i8*] }, { [5 x i8*] }* @_ZTVN10extensions12_GLOBAL__N_125ScopedExtensionPrefUpdateE, i64 0, inrange i32 0, i64 2) to i32 (...)**), i32 (...)*** %12, align 8
  %42 = bitcast %"class.std::__1::basic_string"* %13 to %"struct.std::__1::basic_string<char, std::__1::char_traits<char>, std::__1::allocator<char> >::__short"*
  %43 = getelementptr inbounds %"struct.std::__1::basic_string<char, std::__1::char_traits<char>, std::__1::allocator<char> >::__short", %"struct.std::__1::basic_string<char, std::__1::char_traits<char>, std::__1::allocator<char> >::__short"* %42, i64 0, i32 1, i32 0
  %44 = load i8, i8* %43, align 1
  %45 = icmp slt i8 %44, 0
  br i1 %45, label %46, label %49

46:                                               ; preds = %41
  %47 = getelementptr inbounds %"class.std::__1::basic_string", %"class.std::__1::basic_string"* %13, i64 0, i32 0, i32 0, i32 0, i32 0, i32 0, i32 0
  %48 = load i8*, i8** %47, align 8
  call void @_ZdlPv(i8* %48) #14
  br label %49

49:                                               ; preds = %46, %41
  call void @_ZN5prefs26ScopedDictionaryPrefUpdateD2Ev(%"class.prefs::ScopedDictionaryPrefUpdate"* nonnull %10) #15
  call void @llvm.lifetime.end.p0i8(i64 88, i8* nonnull %7) #15
  ret void
}

; Function Attrs: nounwind ssp uwtable
define hidden void @_ZN10extensions14ExtensionPrefs14SetBooleanPrefERKNSt3__112basic_stringIcNS1_11char_traitsIcEENS1_9allocatorIcEEEERKNS_7PrefMapEb(%"class.extensions::ExtensionPrefs"* nocapture readonly, %"class.std::__1::basic_string"* nocapture readonly dereferenceable(24), %"struct.extensions::PrefMap"* nocapture readonly dereferenceable(16), i1 zeroext) local_unnamed_addr #0 align 2 {
  %5 = tail call i8* @_Znwm(i64 32) #14
  %6 = bitcast i8* %5 to %"class.base::Value"*
  tail call void @_ZN4base5ValueC1Eb(%"class.base::Value"* nonnull %6, i1 zeroext %3) #15
  tail call void @_ZN10extensions14ExtensionPrefs19UpdateExtensionPrefERKNSt3__112basic_stringIcNS1_11char_traitsIcEENS1_9allocatorIcEEEERKNS_7PrefMapENS1_10unique_ptrIN4base5ValueENS1_14default_deleteISF_EEEE(%"class.extensions::ExtensionPrefs"* %0, %"class.std::__1::basic_string"* dereferenceable(24) %1, %"struct.extensions::PrefMap"* dereferenceable(16) %2, %"class.base::Value"* nonnull %6)
  ret void
}

; Function Attrs: nounwind ssp uwtable
define hidden void @_ZN10extensions14ExtensionPrefs13SetStringPrefERKNSt3__112basic_stringIcNS1_11char_traitsIcEENS1_9allocatorIcEEEERKNS_7PrefMapES7_(%"class.extensions::ExtensionPrefs"* nocapture readonly, %"class.std::__1::basic_string"* nocapture readonly dereferenceable(24), %"struct.extensions::PrefMap"* nocapture readonly dereferenceable(16), %"class.std::__1::basic_string"*) local_unnamed_addr #0 align 2 {
  %5 = tail call i8* @_Znwm(i64 32) #14
  %6 = bitcast i8* %5 to %"class.base::Value"*
  %7 = bitcast %"class.std::__1::basic_string"* %3 to %"struct.std::__1::basic_string<char, std::__1::char_traits<char>, std::__1::allocator<char> >::__short"*
  %8 = getelementptr inbounds %"struct.std::__1::basic_string<char, std::__1::char_traits<char>, std::__1::allocator<char> >::__short", %"struct.std::__1::basic_string<char, std::__1::char_traits<char>, std::__1::allocator<char> >::__short"* %7, i64 0, i32 1, i32 0
  %9 = load i8, i8* %8, align 1
  %10 = icmp slt i8 %9, 0
  %11 = getelementptr inbounds %"class.std::__1::basic_string", %"class.std::__1::basic_string"* %3, i64 0, i32 0, i32 0, i32 0, i32 0, i32 0, i32 0
  %12 = load i8*, i8** %11, align 8
  %13 = bitcast %"class.std::__1::basic_string"* %3 to i8*
  %14 = select i1 %10, i8* %12, i8* %13
  %15 = getelementptr inbounds %"class.std::__1::basic_string", %"class.std::__1::basic_string"* %3, i64 0, i32 0, i32 0, i32 0, i32 0, i32 0, i32 1
  %16 = load i64, i64* %15, align 8
  %17 = zext i8 %9 to i64
  %18 = select i1 %10, i64 %16, i64 %17
  tail call void @_ZN4base5ValueC1ENS_16BasicStringPieceIcNSt3__111char_traitsIcEEEE(%"class.base::Value"* nonnull %6, i8* %14, i64 %18) #15
  tail call void @_ZN10extensions14ExtensionPrefs19UpdateExtensionPrefERKNSt3__112basic_stringIcNS1_11char_traitsIcEENS1_9allocatorIcEEEERKNS_7PrefMapENS1_10unique_ptrIN4base5ValueENS1_14default_deleteISF_EEEE(%"class.extensions::ExtensionPrefs"* %0, %"class.std::__1::basic_string"* dereferenceable(24) %1, %"struct.extensions::PrefMap"* dereferenceable(16) %2, %"class.base::Value"* nonnull %6)
  ret void
}

; Function Attrs: nounwind ssp uwtable
define hidden void @_ZN10extensions14ExtensionPrefs11SetListPrefERKNSt3__112basic_stringIcNS1_11char_traitsIcEENS1_9allocatorIcEEEERKNS_7PrefMapEN4base5ValueE(%"class.extensions::ExtensionPrefs"* nocapture readonly, %"class.std::__1::basic_string"* nocapture readonly dereferenceable(24), %"struct.extensions::PrefMap"* nocapture readonly dereferenceable(16), %"class.base::Value"*) local_unnamed_addr #0 align 2 {
  %5 = tail call i8* @_Znwm(i64 32) #14
  %6 = bitcast i8* %5 to %"class.base::Value"*
  tail call void @_ZN4base5ValueC1EOS0_(%"class.base::Value"* nonnull %6, %"class.base::Value"* dereferenceable(32) %3) #15
  tail call void @_ZN10extensions14ExtensionPrefs19UpdateExtensionPrefERKNSt3__112basic_stringIcNS1_11char_traitsIcEENS1_9allocatorIcEEEERKNS_7PrefMapENS1_10unique_ptrIN4base5ValueENS1_14default_deleteISF_EEEE(%"class.extensions::ExtensionPrefs"* %0, %"class.std::__1::basic_string"* dereferenceable(24) %1, %"struct.extensions::PrefMap"* dereferenceable(16) %2, %"class.base::Value"* nonnull %6)
  ret void
}

; Function Attrs: nounwind ssp uwtable
define hidden void @_ZN10extensions14ExtensionPrefs17SetDictionaryPrefERKNSt3__112basic_stringIcNS1_11char_traitsIcEENS1_9allocatorIcEEEERKNS_7PrefMapENS1_10unique_ptrIN4base15DictionaryValueENS1_14default_deleteISF_EEEE(%"class.extensions::ExtensionPrefs"* nocapture readonly, %"class.std::__1::basic_string"* nocapture readonly dereferenceable(24), %"struct.extensions::PrefMap"* nocapture readonly dereferenceable(16), %"class.base::DictionaryValue"*) local_unnamed_addr #0 align 2 {
  %5 = getelementptr inbounds %"class.base::DictionaryValue", %"class.base::DictionaryValue"* %3, i64 0, i32 0
  tail call void @_ZN10extensions14ExtensionPrefs19UpdateExtensionPrefERKNSt3__112basic_stringIcNS1_11char_traitsIcEENS1_9allocatorIcEEEERKNS_7PrefMapENS1_10unique_ptrIN4base5ValueENS1_14default_deleteISF_EEEE(%"class.extensions::ExtensionPrefs"* %0, %"class.std::__1::basic_string"* dereferenceable(24) %1, %"struct.extensions::PrefMap"* dereferenceable(16) %2, %"class.base::Value"* %5)
  ret void
}

; Function Attrs: nounwind ssp uwtable
define hidden void @_ZN10extensions14ExtensionPrefs11SetTimePrefERKNSt3__112basic_stringIcNS1_11char_traitsIcEENS1_9allocatorIcEEEERKNS_7PrefMapEN4base4TimeE(%"class.extensions::ExtensionPrefs"* nocapture readonly, %"class.std::__1::basic_string"* nocapture readonly dereferenceable(24), %"struct.extensions::PrefMap"* nocapture readonly dereferenceable(16), i64) local_unnamed_addr #0 align 2 {
  %5 = alloca %"class.base::Value", align 8
  %6 = bitcast %"class.base::Value"* %5 to i8*
  call void @llvm.lifetime.start.p0i8(i64 32, i8* nonnull %6) #15
  call void @_ZN4util11TimeToValueEN4base4TimeE(%"class.base::Value"* nonnull sret %5, i64 %3) #15
  %7 = call i8* @_Znwm(i64 32) #14
  %8 = bitcast i8* %7 to %"class.base::Value"*
  call void @_ZN4base5ValueC1EOS0_(%"class.base::Value"* nonnull %8, %"class.base::Value"* nonnull dereferenceable(32) %5) #15
  call void @_ZN10extensions14ExtensionPrefs19UpdateExtensionPrefERKNSt3__112basic_stringIcNS1_11char_traitsIcEENS1_9allocatorIcEEEERKNS_7PrefMapENS1_10unique_ptrIN4base5ValueENS1_14default_deleteISF_EEEE(%"class.extensions::ExtensionPrefs"* %0, %"class.std::__1::basic_string"* dereferenceable(24) %1, %"struct.extensions::PrefMap"* dereferenceable(16) %2, %"class.base::Value"* nonnull %8)
  call void @_ZN4base5ValueD1Ev(%"class.base::Value"* nonnull %5) #15
  call void @llvm.lifetime.end.p0i8(i64 32, i8* nonnull %6) #15
  ret void
}

declare void @_ZN4util11TimeToValueEN4base4TimeE(%"class.base::Value"* sret, i64) local_unnamed_addr #2

; Function Attrs: argmemonly nounwind
declare void @llvm.memcpy.p0i8.p0i8.i64(i8* nocapture writeonly, i8* nocapture readonly, i64, i1 immarg) #1

; Function Attrs: nounwind
declare void @_ZN4base5ValueD1Ev(%"class.base::Value"*) unnamed_addr #4

; Function Attrs: nounwind ssp uwtable
define internal void @_ZN10extensions12_GLOBAL__N_125ScopedExtensionPrefUpdateD2Ev(%"class.extensions::(anonymous namespace)::ScopedExtensionPrefUpdate"*) unnamed_addr #0 align 2 {
  %2 = getelementptr inbounds %"class.extensions::(anonymous namespace)::ScopedExtensionPrefUpdate", %"class.extensions::(anonymous namespace)::ScopedExtensionPrefUpdate"* %0, i64 0, i32 0, i32 0
  store i32 (...)** bitcast (i8** getelementptr inbounds ({ [5 x i8*] }, { [5 x i8*] }* @_ZTVN10extensions12_GLOBAL__N_125ScopedExtensionPrefUpdateE, i64 0, inrange i32 0, i64 2) to i32 (...)**), i32 (...)*** %2, align 8
  %3 = getelementptr inbounds %"class.extensions::(anonymous namespace)::ScopedExtensionPrefUpdate", %"class.extensions::(anonymous namespace)::ScopedExtensionPrefUpdate"* %0, i64 0, i32 1
  %4 = bitcast %"class.std::__1::basic_string"* %3 to %"struct.std::__1::basic_string<char, std::__1::char_traits<char>, std::__1::allocator<char> >::__short"*
  %5 = getelementptr inbounds %"struct.std::__1::basic_string<char, std::__1::char_traits<char>, std::__1::allocator<char> >::__short", %"struct.std::__1::basic_string<char, std::__1::char_traits<char>, std::__1::allocator<char> >::__short"* %4, i64 0, i32 1, i32 0
  %6 = load i8, i8* %5, align 1
  %7 = icmp slt i8 %6, 0
  br i1 %7, label %8, label %11

8:                                                ; preds = %1
  %9 = getelementptr inbounds %"class.std::__1::basic_string", %"class.std::__1::basic_string"* %3, i64 0, i32 0, i32 0, i32 0, i32 0, i32 0, i32 0
  %10 = load i8*, i8** %9, align 8
  tail call void @_ZdlPv(i8* %10) #14
  br label %11

11:                                               ; preds = %1, %8
  %12 = getelementptr inbounds %"class.extensions::(anonymous namespace)::ScopedExtensionPrefUpdate", %"class.extensions::(anonymous namespace)::ScopedExtensionPrefUpdate"* %0, i64 0, i32 0
  tail call void @_ZN5prefs26ScopedDictionaryPrefUpdateD2Ev(%"class.prefs::ScopedDictionaryPrefUpdate"* %12) #15
  ret void
}

; Function Attrs: nounwind ssp uwtable
define hidden void @_ZN10extensions14ExtensionPrefs19UpdateExtensionPrefERKNSt3__112basic_stringIcNS1_11char_traitsIcEENS1_9allocatorIcEEEEN4base16BasicStringPieceIcS4_EENS1_10unique_ptrINSA_5ValueENS1_14default_deleteISE_EEEE(%"class.extensions::ExtensionPrefs"* nocapture readonly, %"class.std::__1::basic_string"* dereferenceable(24), i8*, i64, %"class.base::Value"*) local_unnamed_addr #0 align 2 {
  %6 = alloca %"class.extensions::(anonymous namespace)::ScopedExtensionPrefUpdate", align 8
  %7 = ptrtoint %"class.base::Value"* %4 to i64
  %8 = tail call zeroext i1 @_ZN8crx_file7id_util9IdIsValidERKNSt3__112basic_stringIcNS1_11char_traitsIcEENS1_9allocatorIcEEEE(%"class.std::__1::basic_string"* dereferenceable(24) %1) #15
  br i1 %8, label %9, label %51

9:                                                ; preds = %5
  %10 = bitcast %"class.extensions::(anonymous namespace)::ScopedExtensionPrefUpdate"* %6 to i8*
  call void @llvm.lifetime.start.p0i8(i64 88, i8* nonnull %10) #15
  call void @llvm.memset.p0i8.i64(i8* nonnull align 8 %10, i8 -86, i64 88, i1 false)
  %11 = getelementptr inbounds %"class.extensions::ExtensionPrefs", %"class.extensions::ExtensionPrefs"* %0, i64 0, i32 2
  %12 = load %class.PrefService*, %class.PrefService** %11, align 8
  %13 = getelementptr inbounds %"class.extensions::(anonymous namespace)::ScopedExtensionPrefUpdate", %"class.extensions::(anonymous namespace)::ScopedExtensionPrefUpdate"* %6, i64 0, i32 0
  %14 = tail call i64 @strlen(i8* nonnull getelementptr inbounds ([0 x i8], [0 x i8]* @_ZN10extensions10pref_names11kExtensionsE, i64 0, i64 0)) #15
  call void @_ZN5prefs26ScopedDictionaryPrefUpdateC2EP11PrefServiceN4base16BasicStringPieceIcNSt3__111char_traitsIcEEEE(%"class.prefs::ScopedDictionaryPrefUpdate"* nonnull %13, %class.PrefService* %12, i8* getelementptr inbounds ([0 x i8], [0 x i8]* @_ZN10extensions10pref_names11kExtensionsE, i64 0, i64 0), i64 %14) #15
  %15 = getelementptr inbounds %"class.extensions::(anonymous namespace)::ScopedExtensionPrefUpdate", %"class.extensions::(anonymous namespace)::ScopedExtensionPrefUpdate"* %6, i64 0, i32 0, i32 0
  store i32 (...)** bitcast (i8** getelementptr inbounds ({ [5 x i8*] }, { [5 x i8*] }* @_ZTVN10extensions12_GLOBAL__N_125ScopedExtensionPrefUpdateE, i64 0, inrange i32 0, i64 2) to i32 (...)**), i32 (...)*** %15, align 8
  %16 = getelementptr inbounds %"class.extensions::(anonymous namespace)::ScopedExtensionPrefUpdate", %"class.extensions::(anonymous namespace)::ScopedExtensionPrefUpdate"* %6, i64 0, i32 1
  %17 = bitcast %"class.std::__1::basic_string"* %1 to %"struct.std::__1::basic_string<char, std::__1::char_traits<char>, std::__1::allocator<char> >::__short"*
  %18 = getelementptr inbounds %"struct.std::__1::basic_string<char, std::__1::char_traits<char>, std::__1::allocator<char> >::__short", %"struct.std::__1::basic_string<char, std::__1::char_traits<char>, std::__1::allocator<char> >::__short"* %17, i64 0, i32 1, i32 0
  %19 = load i8, i8* %18, align 1
  %20 = icmp slt i8 %19, 0
  br i1 %20, label %24, label %21

21:                                               ; preds = %9
  %22 = bitcast %"class.std::__1::basic_string"* %16 to i8*
  %23 = bitcast %"class.std::__1::basic_string"* %1 to i8*
  call void @llvm.memcpy.p0i8.p0i8.i64(i8* align 8 %22, i8* align 8 %23, i64 24, i1 false) #15
  br label %29

24:                                               ; preds = %9
  %25 = getelementptr inbounds %"class.std::__1::basic_string", %"class.std::__1::basic_string"* %1, i64 0, i32 0, i32 0, i32 0, i32 0, i32 0, i32 0
  %26 = load i8*, i8** %25, align 8
  %27 = getelementptr inbounds %"class.std::__1::basic_string", %"class.std::__1::basic_string"* %1, i64 0, i32 0, i32 0, i32 0, i32 0, i32 0, i32 1
  %28 = load i64, i64* %27, align 8
  call void @_ZNSt3__112basic_stringIcNS_11char_traitsIcEENS_9allocatorIcEEE25__init_copy_ctor_externalEPKcm(%"class.std::__1::basic_string"* %16, i8* %26, i64 %28) #15
  br label %29

29:                                               ; preds = %21, %24
  %30 = icmp eq %"class.base::Value"* %4, null
  %31 = call %"class.prefs::DictionaryValueUpdate"* @_ZN5prefs26ScopedDictionaryPrefUpdateptEv(%"class.prefs::ScopedDictionaryPrefUpdate"* nonnull %13) #15
  br i1 %30, label %36, label %32

32:                                               ; preds = %29
  call void @_ZN5prefs21DictionaryValueUpdate3SetEN4base16BasicStringPieceIcNSt3__111char_traitsIcEEEENS3_10unique_ptrINS1_5ValueENS3_14default_deleteIS8_EEEE(%"class.prefs::DictionaryValueUpdate"* %31, i8* %2, i64 %3, %"class.base::Value"* nonnull %4) #15
  %33 = icmp eq %"class.prefs::DictionaryValueUpdate"* %31, null
  br i1 %33, label %41, label %34

34:                                               ; preds = %32
  call void @_ZN5prefs21DictionaryValueUpdateD1Ev(%"class.prefs::DictionaryValueUpdate"* nonnull %31) #15
  %35 = bitcast %"class.prefs::DictionaryValueUpdate"* %31 to i8*
  call void @_ZdlPv(i8* %35) #14
  br label %41

36:                                               ; preds = %29
  %37 = call zeroext i1 @_ZN5prefs21DictionaryValueUpdate6RemoveEN4base16BasicStringPieceIcNSt3__111char_traitsIcEEEEPNS3_10unique_ptrINS1_5ValueENS3_14default_deleteIS8_EEEE(%"class.prefs::DictionaryValueUpdate"* %31, i8* %2, i64 %3, %"class.std::__1::unique_ptr.175"* null) #15
  %38 = icmp eq %"class.prefs::DictionaryValueUpdate"* %31, null
  br i1 %38, label %41, label %39

39:                                               ; preds = %36
  call void @_ZN5prefs21DictionaryValueUpdateD1Ev(%"class.prefs::DictionaryValueUpdate"* nonnull %31) #15
  %40 = bitcast %"class.prefs::DictionaryValueUpdate"* %31 to i8*
  call void @_ZdlPv(i8* %40) #14
  br label %41

41:                                               ; preds = %39, %36, %34, %32
  %42 = phi i64 [ 0, %32 ], [ 0, %34 ], [ %7, %36 ], [ %7, %39 ]
  store i32 (...)** bitcast (i8** getelementptr inbounds ({ [5 x i8*] }, { [5 x i8*] }* @_ZTVN10extensions12_GLOBAL__N_125ScopedExtensionPrefUpdateE, i64 0, inrange i32 0, i64 2) to i32 (...)**), i32 (...)*** %15, align 8
  %43 = bitcast %"class.std::__1::basic_string"* %16 to %"struct.std::__1::basic_string<char, std::__1::char_traits<char>, std::__1::allocator<char> >::__short"*
  %44 = getelementptr inbounds %"struct.std::__1::basic_string<char, std::__1::char_traits<char>, std::__1::allocator<char> >::__short", %"struct.std::__1::basic_string<char, std::__1::char_traits<char>, std::__1::allocator<char> >::__short"* %43, i64 0, i32 1, i32 0
  %45 = load i8, i8* %44, align 1
  %46 = icmp slt i8 %45, 0
  br i1 %46, label %47, label %50

47:                                               ; preds = %41
  %48 = getelementptr inbounds %"class.std::__1::basic_string", %"class.std::__1::basic_string"* %16, i64 0, i32 0, i32 0, i32 0, i32 0, i32 0, i32 0
  %49 = load i8*, i8** %48, align 8
  call void @_ZdlPv(i8* %49) #14
  br label %50

50:                                               ; preds = %41, %47
  call void @_ZN5prefs26ScopedDictionaryPrefUpdateD2Ev(%"class.prefs::ScopedDictionaryPrefUpdate"* nonnull %13) #15
  call void @llvm.lifetime.end.p0i8(i64 88, i8* nonnull %10) #15
  br label %51

51:                                               ; preds = %5, %50
  %52 = phi i64 [ %42, %50 ], [ %7, %5 ]
  %53 = icmp eq i64 %52, 0
  br i1 %53, label %57, label %54

54:                                               ; preds = %51
  %55 = inttoptr i64 %52 to %"class.base::Value"*
  call void @_ZN4base5ValueD1Ev(%"class.base::Value"* nonnull %55) #15
  %56 = inttoptr i64 %52 to i8*
  call void @_ZdlPv(i8* %56) #14
  br label %57

57:                                               ; preds = %51, %54
  ret void
}

declare zeroext i1 @_ZN8crx_file7id_util9IdIsValidERKNSt3__112basic_stringIcNS1_11char_traitsIcEENS1_9allocatorIcEEEE(%"class.std::__1::basic_string"* dereferenceable(24)) local_unnamed_addr #2

declare zeroext i1 @_ZN5prefs21DictionaryValueUpdate6RemoveEN4base16BasicStringPieceIcNSt3__111char_traitsIcEEEEPNS3_10unique_ptrINS1_5ValueENS3_14default_deleteIS8_EEEE(%"class.prefs::DictionaryValueUpdate"*, i8*, i64, %"class.std::__1::unique_ptr.175"*) local_unnamed_addr #2

; Function Attrs: nounwind ssp uwtable
define hidden void @_ZN10extensions14ExtensionPrefs20DeleteExtensionPrefsERKNSt3__112basic_stringIcNS1_11char_traitsIcEENS1_9allocatorIcEEEE(%"class.extensions::ExtensionPrefs"*, %"class.std::__1::basic_string"* dereferenceable(24)) local_unnamed_addr #0 align 2 {
  %3 = alloca %"class.base::ObserverList<extensions::ExtensionPrefsObserver, false, true, base::internal::UncheckedObserverAdapter>::Iter", align 8
  %4 = alloca %"class.base::ObserverList<extensions::ExtensionPrefsObserver, false, true, base::internal::UncheckedObserverAdapter>::Iter", align 8
  %5 = alloca %"class.prefs::ScopedDictionaryPrefUpdate", align 8
  %6 = getelementptr inbounds %"class.extensions::ExtensionPrefs", %"class.extensions::ExtensionPrefs"* %0, i64 0, i32 4
  %7 = load %class.ExtensionPrefValueMap*, %class.ExtensionPrefValueMap** %6, align 8
  tail call void @_ZN21ExtensionPrefValueMap19UnregisterExtensionERKNSt3__112basic_stringIcNS0_11char_traitsIcEENS0_9allocatorIcEEEE(%class.ExtensionPrefValueMap* %7, %"class.std::__1::basic_string"* dereferenceable(24) %1) #15
  %8 = getelementptr inbounds %"class.extensions::ExtensionPrefs", %"class.extensions::ExtensionPrefs"* %0, i64 0, i32 8
  %9 = bitcast %"class.base::ObserverList<extensions::ExtensionPrefsObserver, false, true, base::internal::UncheckedObserverAdapter>::Iter"* %3 to i8*
  call void @llvm.lifetime.start.p0i8(i64 40, i8* nonnull %9) #15
  %10 = getelementptr inbounds %"class.base::ObserverList<extensions::ExtensionPrefsObserver, false, true, base::internal::UncheckedObserverAdapter>::Iter", %"class.base::ObserverList<extensions::ExtensionPrefsObserver, false, true, base::internal::UncheckedObserverAdapter>::Iter"* %3, i64 0, i32 0, i32 1
  %11 = getelementptr inbounds %"class.base::ObserverList<extensions::ExtensionPrefsObserver, false, true, base::internal::UncheckedObserverAdapter>::Iter", %"class.base::ObserverList<extensions::ExtensionPrefsObserver, false, true, base::internal::UncheckedObserverAdapter>::Iter"* %3, i64 0, i32 1
  %12 = getelementptr inbounds %"class.base::ObserverList<extensions::ExtensionPrefsObserver, false, true, base::internal::UncheckedObserverAdapter>::Iter", %"class.base::ObserverList<extensions::ExtensionPrefsObserver, false, true, base::internal::UncheckedObserverAdapter>::Iter"* %3, i64 0, i32 2
  %13 = getelementptr inbounds %"class.base::ObserverList.110", %"class.base::ObserverList.110"* %8, i64 0, i32 0, i32 0, i32 0
  %14 = bitcast %"class.base::ObserverList<extensions::ExtensionPrefsObserver, false, true, base::internal::UncheckedObserverAdapter>::Iter"* %3 to i8*
  call void @llvm.memset.p0i8.i64(i8* nonnull align 8 %14, i8 -86, i64 40, i1 false)
  %15 = load %"class.base::internal::UncheckedObserverAdapter"*, %"class.base::internal::UncheckedObserverAdapter"** %13, align 8, !noalias !11
  %16 = getelementptr inbounds %"class.extensions::ExtensionPrefs", %"class.extensions::ExtensionPrefs"* %0, i64 0, i32 8, i32 0, i32 0, i32 1
  %17 = load %"class.base::internal::UncheckedObserverAdapter"*, %"class.base::internal::UncheckedObserverAdapter"** %16, align 8, !noalias !11
  %18 = icmp eq %"class.base::internal::UncheckedObserverAdapter"* %15, %17
  %19 = getelementptr inbounds %"class.base::ObserverList<extensions::ExtensionPrefsObserver, false, true, base::internal::UncheckedObserverAdapter>::Iter", %"class.base::ObserverList<extensions::ExtensionPrefsObserver, false, true, base::internal::UncheckedObserverAdapter>::Iter"* %3, i64 0, i32 0, i32 0, i32 0
  call void @_ZN4base8internal12LinkNodeBaseC2Ev(%"class.base::internal::LinkNodeBase"* nonnull %19) #15
  br i1 %18, label %20, label %22

20:                                               ; preds = %2
  %21 = bitcast %"class.base::ObserverList.110"** %10 to i8*
  call void @llvm.memset.p0i8.i64(i8* align 8 %21, i8 0, i64 24, i1 false) #15, !alias.scope !11
  br label %62

22:                                               ; preds = %2
  store %"class.base::ObserverList.110"* %8, %"class.base::ObserverList.110"** %10, align 8, !alias.scope !11
  %23 = getelementptr inbounds %"class.extensions::ExtensionPrefs", %"class.extensions::ExtensionPrefs"* %0, i64 0, i32 8, i32 1, i32 0, i32 0
  call void @_ZN4base8internal12LinkNodeBase16InsertBeforeBaseEPS1_(%"class.base::internal::LinkNodeBase"* nonnull %19, %"class.base::internal::LinkNodeBase"* %23) #15
  store i64 0, i64* %11, align 8, !alias.scope !11
  %24 = getelementptr inbounds %"class.extensions::ExtensionPrefs", %"class.extensions::ExtensionPrefs"* %0, i64 0, i32 8, i32 3
  %25 = load i32, i32* %24, align 8, !noalias !11
  %26 = icmp eq i32 %25, 0
  br i1 %26, label %34, label %27

27:                                               ; preds = %22
  %28 = bitcast %"class.base::internal::UncheckedObserverAdapter"** %16 to i64*
  %29 = load i64, i64* %28, align 8, !noalias !11
  %30 = bitcast %"class.base::ObserverList.110"* %8 to i64*
  %31 = load i64, i64* %30, align 8, !noalias !11
  %32 = sub i64 %29, %31
  %33 = ashr exact i64 %32, 3
  br label %34

34:                                               ; preds = %27, %22
  %35 = phi i64 [ %33, %27 ], [ -1, %22 ]
  store i64 %35, i64* %12, align 8, !alias.scope !11
  %36 = load %"class.base::ObserverList.110"*, %"class.base::ObserverList.110"** %10, align 8, !alias.scope !11
  %37 = getelementptr inbounds %"class.base::ObserverList.110", %"class.base::ObserverList.110"* %36, i64 0, i32 0, i32 0, i32 1
  %38 = bitcast %"class.base::internal::UncheckedObserverAdapter"** %37 to i64*
  %39 = load i64, i64* %38, align 8
  %40 = bitcast %"class.base::ObserverList.110"* %36 to i64*
  %41 = load i64, i64* %40, align 8
  %42 = sub i64 %39, %41
  %43 = ashr exact i64 %42, 3
  %44 = icmp ult i64 %43, %35
  %45 = select i1 %44, i64 %43, i64 %35
  %46 = icmp eq i64 %45, 0
  br i1 %46, label %62, label %47

47:                                               ; preds = %34
  %48 = inttoptr i64 %41 to %"class.base::internal::UncheckedObserverAdapter"*
  %49 = getelementptr inbounds %"class.base::ObserverList.110", %"class.base::ObserverList.110"* %36, i64 0, i32 0, i32 0, i32 0
  %50 = getelementptr inbounds %"class.base::internal::UncheckedObserverAdapter", %"class.base::internal::UncheckedObserverAdapter"* %48, i64 0, i32 0
  %51 = load i8*, i8** %50, align 8
  %52 = icmp eq i8* %51, null
  br i1 %52, label %53, label %62

53:                                               ; preds = %47, %57
  %54 = phi i64 [ %55, %57 ], [ 0, %47 ]
  %55 = add nuw i64 %54, 1
  store i64 %55, i64* %11, align 8, !alias.scope !11
  %56 = icmp ult i64 %55, %45
  br i1 %56, label %57, label %62

57:                                               ; preds = %53
  %58 = load %"class.base::internal::UncheckedObserverAdapter"*, %"class.base::internal::UncheckedObserverAdapter"** %49, align 8
  %59 = getelementptr inbounds %"class.base::internal::UncheckedObserverAdapter", %"class.base::internal::UncheckedObserverAdapter"* %58, i64 %55, i32 0
  %60 = load i8*, i8** %59, align 8
  %61 = icmp eq i8* %60, null
  br i1 %61, label %53, label %62

62:                                               ; preds = %53, %57, %20, %34, %47
  %63 = bitcast %"class.base::ObserverList<extensions::ExtensionPrefsObserver, false, true, base::internal::UncheckedObserverAdapter>::Iter"* %4 to i8*
  call void @llvm.lifetime.start.p0i8(i64 40, i8* nonnull %63) #15
  %64 = getelementptr inbounds %"class.base::ObserverList<extensions::ExtensionPrefsObserver, false, true, base::internal::UncheckedObserverAdapter>::Iter", %"class.base::ObserverList<extensions::ExtensionPrefsObserver, false, true, base::internal::UncheckedObserverAdapter>::Iter"* %4, i64 0, i32 0, i32 1
  %65 = getelementptr inbounds %"class.base::ObserverList<extensions::ExtensionPrefsObserver, false, true, base::internal::UncheckedObserverAdapter>::Iter", %"class.base::ObserverList<extensions::ExtensionPrefsObserver, false, true, base::internal::UncheckedObserverAdapter>::Iter"* %4, i64 0, i32 1
  %66 = getelementptr inbounds %"class.base::ObserverList<extensions::ExtensionPrefsObserver, false, true, base::internal::UncheckedObserverAdapter>::Iter", %"class.base::ObserverList<extensions::ExtensionPrefsObserver, false, true, base::internal::UncheckedObserverAdapter>::Iter"* %4, i64 0, i32 2
  %67 = getelementptr inbounds %"class.base::ObserverList<extensions::ExtensionPrefsObserver, false, true, base::internal::UncheckedObserverAdapter>::Iter", %"class.base::ObserverList<extensions::ExtensionPrefsObserver, false, true, base::internal::UncheckedObserverAdapter>::Iter"* %4, i64 0, i32 0, i32 0, i32 0
  %68 = bitcast %"class.base::ObserverList<extensions::ExtensionPrefsObserver, false, true, base::internal::UncheckedObserverAdapter>::Iter"* %4 to i8*
  call void @llvm.memset.p0i8.i64(i8* nonnull align 8 %68, i8 -86, i64 40, i1 false)
  call void @_ZN4base8internal12LinkNodeBaseC2Ev(%"class.base::internal::LinkNodeBase"* nonnull %67) #15
  %69 = bitcast %"class.base::ObserverList.110"** %64 to i8*
  call void @llvm.memset.p0i8.i64(i8* align 8 %69, i8 0, i64 24, i1 false) #15, !alias.scope !14
  %70 = load %"class.base::ObserverList.110"*, %"class.base::ObserverList.110"** %10, align 8
  br label %71

71:                                               ; preds = %333, %62
  %72 = phi %"class.base::ObserverList.110"* [ %70, %62 ], [ %331, %333 ]
  %73 = icmp eq %"class.base::ObserverList.110"* %72, null
  br i1 %73, label %89, label %74

74:                                               ; preds = %71
  %75 = load i64, i64* %11, align 8
  %76 = getelementptr inbounds %"class.base::ObserverList.110", %"class.base::ObserverList.110"* %72, i64 0, i32 0, i32 0, i32 1
  %77 = bitcast %"class.base::internal::UncheckedObserverAdapter"** %76 to i64*
  %78 = load i64, i64* %77, align 8
  %79 = bitcast %"class.base::ObserverList.110"* %72 to i64*
  %80 = load i64, i64* %79, align 8
  %81 = sub i64 %78, %80
  %82 = ashr exact i64 %81, 3
  %83 = load i64, i64* %12, align 8
  %84 = icmp ult i64 %82, %83
  %85 = select i1 %84, i64 %82, i64 %83
  %86 = icmp eq i64 %75, %85
  br i1 %86, label %89, label %87

87:                                               ; preds = %74
  %88 = load %"class.base::ObserverList.110"*, %"class.base::ObserverList.110"** %64, align 8
  br label %105

89:                                               ; preds = %74, %71
  %90 = load %"class.base::ObserverList.110"*, %"class.base::ObserverList.110"** %64, align 8
  %91 = icmp eq %"class.base::ObserverList.110"* %90, null
  br i1 %91, label %205, label %92

92:                                               ; preds = %89
  %93 = load i64, i64* %65, align 8
  %94 = getelementptr inbounds %"class.base::ObserverList.110", %"class.base::ObserverList.110"* %90, i64 0, i32 0, i32 0, i32 1
  %95 = bitcast %"class.base::internal::UncheckedObserverAdapter"** %94 to i64*
  %96 = load i64, i64* %95, align 8
  %97 = bitcast %"class.base::ObserverList.110"* %90 to i64*
  %98 = load i64, i64* %97, align 8
  %99 = sub i64 %96, %98
  %100 = ashr exact i64 %99, 3
  %101 = load i64, i64* %66, align 8
  %102 = icmp ult i64 %100, %101
  %103 = select i1 %102, i64 %100, i64 %101
  %104 = icmp eq i64 %93, %103
  br i1 %104, label %114, label %105

105:                                              ; preds = %92, %87
  %106 = phi %"class.base::ObserverList.110"* [ %88, %87 ], [ %90, %92 ]
  %107 = icmp eq %"class.base::ObserverList.110"* %72, %106
  %108 = load i64, i64* %11, align 8
  %109 = load i64, i64* %65, align 8
  %110 = icmp eq i64 %108, %109
  %111 = and i1 %107, %110
  br i1 %111, label %112, label %321

112:                                              ; preds = %105
  %113 = icmp eq %"class.base::ObserverList.110"* %72, null
  br i1 %113, label %205, label %114

114:                                              ; preds = %92, %112
  %115 = phi %"class.base::ObserverList.110"* [ %72, %112 ], [ %90, %92 ]
  %116 = getelementptr inbounds %"class.base::ObserverList.110", %"class.base::ObserverList.110"* %115, i64 0, i32 1
  %117 = getelementptr inbounds %"class.base::ObserverList.110", %"class.base::ObserverList.110"* %115, i64 0, i32 1, i32 0, i32 0, i32 1
  %118 = bitcast %"class.base::internal::LinkNodeBase"** %117 to %"class.base::LinkNode.112"**
  %119 = load %"class.base::LinkNode.112"*, %"class.base::LinkNode.112"** %118, align 8
  %120 = bitcast %"class.base::LinkedList.111"* %116 to %"class.base::LinkNode.112"**
  %121 = load %"class.base::LinkNode.112"*, %"class.base::LinkNode.112"** %120, align 8
  %122 = icmp eq %"class.base::LinkNode.112"* %119, %121
  br i1 %122, label %123, label %201

123:                                              ; preds = %114
  %124 = getelementptr inbounds %"class.base::ObserverList.110", %"class.base::ObserverList.110"* %115, i64 0, i32 0, i32 0, i32 0
  %125 = load %"class.base::internal::UncheckedObserverAdapter"*, %"class.base::internal::UncheckedObserverAdapter"** %124, align 8
  %126 = getelementptr inbounds %"class.base::ObserverList.110", %"class.base::ObserverList.110"* %115, i64 0, i32 0, i32 0, i32 1
  %127 = load %"class.base::internal::UncheckedObserverAdapter"*, %"class.base::internal::UncheckedObserverAdapter"** %126, align 8
  %128 = icmp eq %"class.base::internal::UncheckedObserverAdapter"* %125, %127
  br i1 %128, label %137, label %129

129:                                              ; preds = %123, %134
  %130 = phi %"class.base::internal::UncheckedObserverAdapter"* [ %135, %134 ], [ %125, %123 ]
  %131 = getelementptr inbounds %"class.base::internal::UncheckedObserverAdapter", %"class.base::internal::UncheckedObserverAdapter"* %130, i64 0, i32 0
  %132 = load i8*, i8** %131, align 8
  %133 = icmp eq i8* %132, null
  br i1 %133, label %137, label %134

134:                                              ; preds = %129
  %135 = getelementptr inbounds %"class.base::internal::UncheckedObserverAdapter", %"class.base::internal::UncheckedObserverAdapter"* %130, i64 1
  %136 = icmp eq %"class.base::internal::UncheckedObserverAdapter"* %135, %127
  br i1 %136, label %201, label %129

137:                                              ; preds = %129, %123
  %138 = phi %"class.base::internal::UncheckedObserverAdapter"* [ %125, %123 ], [ %130, %129 ]
  %139 = ptrtoint %"class.base::internal::UncheckedObserverAdapter"* %138 to i64
  %140 = icmp eq %"class.base::internal::UncheckedObserverAdapter"* %138, %127
  br i1 %140, label %201, label %141

141:                                              ; preds = %137
  %142 = getelementptr inbounds %"class.base::internal::UncheckedObserverAdapter", %"class.base::internal::UncheckedObserverAdapter"* %138, i64 1
  %143 = icmp eq %"class.base::internal::UncheckedObserverAdapter"* %142, %127
  br i1 %143, label %196, label %144

144:                                              ; preds = %141
  %145 = getelementptr %"class.base::internal::UncheckedObserverAdapter", %"class.base::internal::UncheckedObserverAdapter"* %127, i64 -2, i32 0
  %146 = ptrtoint i8** %145 to i64
  %147 = sub i64 %146, %139
  %148 = lshr i64 %147, 3
  %149 = add nuw nsw i64 %148, 1
  %150 = and i64 %149, 3
  %151 = icmp eq i64 %150, 0
  br i1 %151, label %170, label %152

152:                                              ; preds = %144, %165
  %153 = phi %"class.base::internal::UncheckedObserverAdapter"* [ %167, %165 ], [ %142, %144 ]
  %154 = phi i64 [ %166, %165 ], [ %139, %144 ]
  %155 = phi i64 [ %168, %165 ], [ %150, %144 ]
  %156 = getelementptr inbounds %"class.base::internal::UncheckedObserverAdapter", %"class.base::internal::UncheckedObserverAdapter"* %153, i64 0, i32 0
  %157 = load i8*, i8** %156, align 8
  %158 = icmp eq i8* %157, null
  br i1 %158, label %165, label %159

159:                                              ; preds = %152
  %160 = ptrtoint i8* %157 to i64
  %161 = inttoptr i64 %154 to %"class.base::internal::UncheckedObserverAdapter"*
  %162 = inttoptr i64 %154 to i64*
  store i64 %160, i64* %162, align 8
  %163 = getelementptr inbounds %"class.base::internal::UncheckedObserverAdapter", %"class.base::internal::UncheckedObserverAdapter"* %161, i64 1
  %164 = ptrtoint %"class.base::internal::UncheckedObserverAdapter"* %163 to i64
  br label %165

165:                                              ; preds = %159, %152
  %166 = phi i64 [ %154, %152 ], [ %164, %159 ]
  %167 = getelementptr inbounds %"class.base::internal::UncheckedObserverAdapter", %"class.base::internal::UncheckedObserverAdapter"* %153, i64 1
  %168 = add i64 %155, -1
  %169 = icmp eq i64 %168, 0
  br i1 %169, label %170, label %152, !llvm.loop !17

170:                                              ; preds = %165, %144
  %171 = phi i64 [ undef, %144 ], [ %166, %165 ]
  %172 = phi %"class.base::internal::UncheckedObserverAdapter"* [ %142, %144 ], [ %167, %165 ]
  %173 = phi i64 [ %139, %144 ], [ %166, %165 ]
  %174 = icmp ult i64 %147, 24
  br i1 %174, label %192, label %175

175:                                              ; preds = %170, %423
  %176 = phi %"class.base::internal::UncheckedObserverAdapter"* [ %425, %423 ], [ %172, %170 ]
  %177 = phi i64 [ %424, %423 ], [ %173, %170 ]
  %178 = getelementptr inbounds %"class.base::internal::UncheckedObserverAdapter", %"class.base::internal::UncheckedObserverAdapter"* %176, i64 0, i32 0
  %179 = load i8*, i8** %178, align 8
  %180 = icmp eq i8* %179, null
  br i1 %180, label %187, label %181

181:                                              ; preds = %175
  %182 = ptrtoint i8* %179 to i64
  %183 = inttoptr i64 %177 to %"class.base::internal::UncheckedObserverAdapter"*
  %184 = inttoptr i64 %177 to i64*
  store i64 %182, i64* %184, align 8
  %185 = getelementptr inbounds %"class.base::internal::UncheckedObserverAdapter", %"class.base::internal::UncheckedObserverAdapter"* %183, i64 1
  %186 = ptrtoint %"class.base::internal::UncheckedObserverAdapter"* %185 to i64
  br label %187

187:                                              ; preds = %181, %175
  %188 = phi i64 [ %177, %175 ], [ %186, %181 ]
  %189 = getelementptr inbounds %"class.base::internal::UncheckedObserverAdapter", %"class.base::internal::UncheckedObserverAdapter"* %176, i64 1, i32 0
  %190 = load i8*, i8** %189, align 8
  %191 = icmp eq i8* %190, null
  br i1 %191, label %401, label %395

192:                                              ; preds = %423, %170
  %193 = phi i64 [ %171, %170 ], [ %424, %423 ]
  %194 = inttoptr i64 %193 to %"class.base::internal::UncheckedObserverAdapter"*
  %195 = load %"class.base::internal::UncheckedObserverAdapter"*, %"class.base::internal::UncheckedObserverAdapter"** %126, align 8
  br label %196

196:                                              ; preds = %192, %141
  %197 = phi %"class.base::internal::UncheckedObserverAdapter"* [ %127, %141 ], [ %195, %192 ]
  %198 = phi %"class.base::internal::UncheckedObserverAdapter"* [ %138, %141 ], [ %194, %192 ]
  %199 = icmp eq %"class.base::internal::UncheckedObserverAdapter"* %198, %197
  br i1 %199, label %201, label %200

200:                                              ; preds = %196
  store %"class.base::internal::UncheckedObserverAdapter"* %198, %"class.base::internal::UncheckedObserverAdapter"** %126, align 8
  br label %201

201:                                              ; preds = %134, %200, %196, %137, %114
  %202 = load %"class.base::ObserverList.110"*, %"class.base::ObserverList.110"** %64, align 8
  %203 = icmp eq %"class.base::ObserverList.110"* %202, null
  br i1 %203, label %205, label %204

204:                                              ; preds = %201
  store %"class.base::ObserverList.110"* null, %"class.base::ObserverList.110"** %64, align 8
  call void @_ZN4base8internal12LinkNodeBase14RemoveFromListEv(%"class.base::internal::LinkNodeBase"* nonnull %67) #15
  br label %205

205:                                              ; preds = %89, %112, %201, %204
  call void @llvm.lifetime.end.p0i8(i64 40, i8* nonnull %63) #15
  %206 = load %"class.base::ObserverList.110"*, %"class.base::ObserverList.110"** %10, align 8
  %207 = icmp eq %"class.base::ObserverList.110"* %206, null
  br i1 %207, label %298, label %208

208:                                              ; preds = %205
  %209 = getelementptr inbounds %"class.base::ObserverList.110", %"class.base::ObserverList.110"* %206, i64 0, i32 1
  %210 = getelementptr inbounds %"class.base::ObserverList.110", %"class.base::ObserverList.110"* %206, i64 0, i32 1, i32 0, i32 0, i32 1
  %211 = bitcast %"class.base::internal::LinkNodeBase"** %210 to %"class.base::LinkNode.112"**
  %212 = load %"class.base::LinkNode.112"*, %"class.base::LinkNode.112"** %211, align 8
  %213 = bitcast %"class.base::LinkedList.111"* %209 to %"class.base::LinkNode.112"**
  %214 = load %"class.base::LinkNode.112"*, %"class.base::LinkNode.112"** %213, align 8
  %215 = icmp eq %"class.base::LinkNode.112"* %212, %214
  br i1 %215, label %216, label %294

216:                                              ; preds = %208
  %217 = getelementptr inbounds %"class.base::ObserverList.110", %"class.base::ObserverList.110"* %206, i64 0, i32 0, i32 0, i32 0
  %218 = load %"class.base::internal::UncheckedObserverAdapter"*, %"class.base::internal::UncheckedObserverAdapter"** %217, align 8
  %219 = getelementptr inbounds %"class.base::ObserverList.110", %"class.base::ObserverList.110"* %206, i64 0, i32 0, i32 0, i32 1
  %220 = load %"class.base::internal::UncheckedObserverAdapter"*, %"class.base::internal::UncheckedObserverAdapter"** %219, align 8
  %221 = icmp eq %"class.base::internal::UncheckedObserverAdapter"* %218, %220
  br i1 %221, label %230, label %222

222:                                              ; preds = %216, %227
  %223 = phi %"class.base::internal::UncheckedObserverAdapter"* [ %228, %227 ], [ %218, %216 ]
  %224 = getelementptr inbounds %"class.base::internal::UncheckedObserverAdapter", %"class.base::internal::UncheckedObserverAdapter"* %223, i64 0, i32 0
  %225 = load i8*, i8** %224, align 8
  %226 = icmp eq i8* %225, null
  br i1 %226, label %230, label %227

227:                                              ; preds = %222
  %228 = getelementptr inbounds %"class.base::internal::UncheckedObserverAdapter", %"class.base::internal::UncheckedObserverAdapter"* %223, i64 1
  %229 = icmp eq %"class.base::internal::UncheckedObserverAdapter"* %228, %220
  br i1 %229, label %294, label %222

230:                                              ; preds = %222, %216
  %231 = phi %"class.base::internal::UncheckedObserverAdapter"* [ %218, %216 ], [ %223, %222 ]
  %232 = ptrtoint %"class.base::internal::UncheckedObserverAdapter"* %231 to i64
  %233 = icmp eq %"class.base::internal::UncheckedObserverAdapter"* %231, %220
  br i1 %233, label %294, label %234

234:                                              ; preds = %230
  %235 = getelementptr inbounds %"class.base::internal::UncheckedObserverAdapter", %"class.base::internal::UncheckedObserverAdapter"* %231, i64 1
  %236 = icmp eq %"class.base::internal::UncheckedObserverAdapter"* %235, %220
  br i1 %236, label %289, label %237

237:                                              ; preds = %234
  %238 = getelementptr %"class.base::internal::UncheckedObserverAdapter", %"class.base::internal::UncheckedObserverAdapter"* %220, i64 -2, i32 0
  %239 = ptrtoint i8** %238 to i64
  %240 = sub i64 %239, %232
  %241 = lshr i64 %240, 3
  %242 = add nuw nsw i64 %241, 1
  %243 = and i64 %242, 3
  %244 = icmp eq i64 %243, 0
  br i1 %244, label %263, label %245

245:                                              ; preds = %237, %258
  %246 = phi %"class.base::internal::UncheckedObserverAdapter"* [ %260, %258 ], [ %235, %237 ]
  %247 = phi i64 [ %259, %258 ], [ %232, %237 ]
  %248 = phi i64 [ %261, %258 ], [ %243, %237 ]
  %249 = getelementptr inbounds %"class.base::internal::UncheckedObserverAdapter", %"class.base::internal::UncheckedObserverAdapter"* %246, i64 0, i32 0
  %250 = load i8*, i8** %249, align 8
  %251 = icmp eq i8* %250, null
  br i1 %251, label %258, label %252

252:                                              ; preds = %245
  %253 = ptrtoint i8* %250 to i64
  %254 = inttoptr i64 %247 to %"class.base::internal::UncheckedObserverAdapter"*
  %255 = inttoptr i64 %247 to i64*
  store i64 %253, i64* %255, align 8
  %256 = getelementptr inbounds %"class.base::internal::UncheckedObserverAdapter", %"class.base::internal::UncheckedObserverAdapter"* %254, i64 1
  %257 = ptrtoint %"class.base::internal::UncheckedObserverAdapter"* %256 to i64
  br label %258

258:                                              ; preds = %252, %245
  %259 = phi i64 [ %247, %245 ], [ %257, %252 ]
  %260 = getelementptr inbounds %"class.base::internal::UncheckedObserverAdapter", %"class.base::internal::UncheckedObserverAdapter"* %246, i64 1
  %261 = add i64 %248, -1
  %262 = icmp eq i64 %261, 0
  br i1 %262, label %263, label %245, !llvm.loop !18

263:                                              ; preds = %258, %237
  %264 = phi i64 [ undef, %237 ], [ %259, %258 ]
  %265 = phi %"class.base::internal::UncheckedObserverAdapter"* [ %235, %237 ], [ %260, %258 ]
  %266 = phi i64 [ %232, %237 ], [ %259, %258 ]
  %267 = icmp ult i64 %240, 24
  br i1 %267, label %285, label %268

268:                                              ; preds = %263, %391
  %269 = phi %"class.base::internal::UncheckedObserverAdapter"* [ %393, %391 ], [ %265, %263 ]
  %270 = phi i64 [ %392, %391 ], [ %266, %263 ]
  %271 = getelementptr inbounds %"class.base::internal::UncheckedObserverAdapter", %"class.base::internal::UncheckedObserverAdapter"* %269, i64 0, i32 0
  %272 = load i8*, i8** %271, align 8
  %273 = icmp eq i8* %272, null
  br i1 %273, label %280, label %274

274:                                              ; preds = %268
  %275 = ptrtoint i8* %272 to i64
  %276 = inttoptr i64 %270 to %"class.base::internal::UncheckedObserverAdapter"*
  %277 = inttoptr i64 %270 to i64*
  store i64 %275, i64* %277, align 8
  %278 = getelementptr inbounds %"class.base::internal::UncheckedObserverAdapter", %"class.base::internal::UncheckedObserverAdapter"* %276, i64 1
  %279 = ptrtoint %"class.base::internal::UncheckedObserverAdapter"* %278 to i64
  br label %280

280:                                              ; preds = %274, %268
  %281 = phi i64 [ %270, %268 ], [ %279, %274 ]
  %282 = getelementptr inbounds %"class.base::internal::UncheckedObserverAdapter", %"class.base::internal::UncheckedObserverAdapter"* %269, i64 1, i32 0
  %283 = load i8*, i8** %282, align 8
  %284 = icmp eq i8* %283, null
  br i1 %284, label %369, label %363

285:                                              ; preds = %391, %263
  %286 = phi i64 [ %264, %263 ], [ %392, %391 ]
  %287 = inttoptr i64 %286 to %"class.base::internal::UncheckedObserverAdapter"*
  %288 = load %"class.base::internal::UncheckedObserverAdapter"*, %"class.base::internal::UncheckedObserverAdapter"** %219, align 8
  br label %289

289:                                              ; preds = %285, %234
  %290 = phi %"class.base::internal::UncheckedObserverAdapter"* [ %220, %234 ], [ %288, %285 ]
  %291 = phi %"class.base::internal::UncheckedObserverAdapter"* [ %231, %234 ], [ %287, %285 ]
  %292 = icmp eq %"class.base::internal::UncheckedObserverAdapter"* %291, %290
  br i1 %292, label %294, label %293

293:                                              ; preds = %289
  store %"class.base::internal::UncheckedObserverAdapter"* %291, %"class.base::internal::UncheckedObserverAdapter"** %219, align 8
  br label %294

294:                                              ; preds = %227, %293, %289, %230, %208
  %295 = load %"class.base::ObserverList.110"*, %"class.base::ObserverList.110"** %10, align 8
  %296 = icmp eq %"class.base::ObserverList.110"* %295, null
  br i1 %296, label %298, label %297

297:                                              ; preds = %294
  store %"class.base::ObserverList.110"* null, %"class.base::ObserverList.110"** %10, align 8
  call void @_ZN4base8internal12LinkNodeBase14RemoveFromListEv(%"class.base::internal::LinkNodeBase"* nonnull %19) #15
  br label %298

298:                                              ; preds = %205, %294, %297
  call void @llvm.lifetime.end.p0i8(i64 40, i8* nonnull %9) #15
  %299 = bitcast %"class.prefs::ScopedDictionaryPrefUpdate"* %5 to i8*
  call void @llvm.lifetime.start.p0i8(i64 64, i8* nonnull %299) #15
  call void @llvm.memset.p0i8.i64(i8* nonnull align 8 %299, i8 -86, i64 64, i1 false)
  %300 = getelementptr inbounds %"class.extensions::ExtensionPrefs", %"class.extensions::ExtensionPrefs"* %0, i64 0, i32 2
  %301 = load %class.PrefService*, %class.PrefService** %300, align 8
  %302 = call i64 @strlen(i8* nonnull getelementptr inbounds ([0 x i8], [0 x i8]* @_ZN10extensions10pref_names11kExtensionsE, i64 0, i64 0)) #15
  call void @_ZN5prefs26ScopedDictionaryPrefUpdateC1EP11PrefServiceN4base16BasicStringPieceIcNSt3__111char_traitsIcEEEE(%"class.prefs::ScopedDictionaryPrefUpdate"* nonnull %5, %class.PrefService* %301, i8* getelementptr inbounds ([0 x i8], [0 x i8]* @_ZN10extensions10pref_names11kExtensionsE, i64 0, i64 0), i64 %302) #15
  %303 = call %"class.prefs::DictionaryValueUpdate"* @_ZN5prefs26ScopedDictionaryPrefUpdateptEv(%"class.prefs::ScopedDictionaryPrefUpdate"* nonnull %5) #15
  %304 = bitcast %"class.std::__1::basic_string"* %1 to %"struct.std::__1::basic_string<char, std::__1::char_traits<char>, std::__1::allocator<char> >::__short"*
  %305 = getelementptr inbounds %"struct.std::__1::basic_string<char, std::__1::char_traits<char>, std::__1::allocator<char> >::__short", %"struct.std::__1::basic_string<char, std::__1::char_traits<char>, std::__1::allocator<char> >::__short"* %304, i64 0, i32 1, i32 0
  %306 = load i8, i8* %305, align 1
  %307 = icmp slt i8 %306, 0
  %308 = getelementptr inbounds %"class.std::__1::basic_string", %"class.std::__1::basic_string"* %1, i64 0, i32 0, i32 0, i32 0, i32 0, i32 0, i32 0
  %309 = load i8*, i8** %308, align 8
  %310 = bitcast %"class.std::__1::basic_string"* %1 to i8*
  %311 = select i1 %307, i8* %309, i8* %310
  %312 = getelementptr inbounds %"class.std::__1::basic_string", %"class.std::__1::basic_string"* %1, i64 0, i32 0, i32 0, i32 0, i32 0, i32 0, i32 1
  %313 = load i64, i64* %312, align 8
  %314 = zext i8 %306 to i64
  %315 = select i1 %307, i64 %313, i64 %314
  %316 = call zeroext i1 @_ZN5prefs21DictionaryValueUpdate6RemoveEN4base16BasicStringPieceIcNSt3__111char_traitsIcEEEEPNS3_10unique_ptrINS1_5ValueENS3_14default_deleteIS8_EEEE(%"class.prefs::DictionaryValueUpdate"* %303, i8* %311, i64 %315, %"class.std::__1::unique_ptr.175"* null) #15
  %317 = icmp eq %"class.prefs::DictionaryValueUpdate"* %303, null
  br i1 %317, label %320, label %318

318:                                              ; preds = %298
  call void @_ZN5prefs21DictionaryValueUpdateD1Ev(%"class.prefs::DictionaryValueUpdate"* nonnull %303) #15
  %319 = bitcast %"class.prefs::DictionaryValueUpdate"* %303 to i8*
  call void @_ZdlPv(i8* %319) #14
  br label %320

320:                                              ; preds = %298, %318
  call void @_ZN5prefs26ScopedDictionaryPrefUpdateD1Ev(%"class.prefs::ScopedDictionaryPrefUpdate"* nonnull %5) #15
  call void @llvm.lifetime.end.p0i8(i64 64, i8* nonnull %299) #15
  ret void

321:                                              ; preds = %105
  %322 = getelementptr inbounds %"class.base::ObserverList.110", %"class.base::ObserverList.110"* %72, i64 0, i32 0, i32 0, i32 0
  %323 = load %"class.base::internal::UncheckedObserverAdapter"*, %"class.base::internal::UncheckedObserverAdapter"** %322, align 8
  %324 = getelementptr inbounds %"class.base::internal::UncheckedObserverAdapter", %"class.base::internal::UncheckedObserverAdapter"* %323, i64 %108
  %325 = bitcast %"class.base::internal::UncheckedObserverAdapter"* %324 to %"class.extensions::ExtensionPrefsObserver"**
  %326 = load %"class.extensions::ExtensionPrefsObserver"*, %"class.extensions::ExtensionPrefsObserver"** %325, align 8
  %327 = bitcast %"class.extensions::ExtensionPrefsObserver"* %326 to void (%"class.extensions::ExtensionPrefsObserver"*, %"class.std::__1::basic_string"*)***
  %328 = load void (%"class.extensions::ExtensionPrefsObserver"*, %"class.std::__1::basic_string"*)**, void (%"class.extensions::ExtensionPrefsObserver"*, %"class.std::__1::basic_string"*)*** %327, align 8
  %329 = getelementptr inbounds void (%"class.extensions::ExtensionPrefsObserver"*, %"class.std::__1::basic_string"*)*, void (%"class.extensions::ExtensionPrefsObserver"*, %"class.std::__1::basic_string"*)** %328, i64 3
  %330 = load void (%"class.extensions::ExtensionPrefsObserver"*, %"class.std::__1::basic_string"*)*, void (%"class.extensions::ExtensionPrefsObserver"*, %"class.std::__1::basic_string"*)** %329, align 8
  call void %330(%"class.extensions::ExtensionPrefsObserver"* %326, %"class.std::__1::basic_string"* dereferenceable(24) %1) #15
  %331 = load %"class.base::ObserverList.110"*, %"class.base::ObserverList.110"** %10, align 8
  %332 = icmp eq %"class.base::ObserverList.110"* %331, null
  br i1 %332, label %333, label %334

333:                                              ; preds = %358, %354, %321, %334, %348
  br label %71

334:                                              ; preds = %321
  %335 = load i64, i64* %11, align 8
  %336 = add i64 %335, 1
  store i64 %336, i64* %11, align 8
  %337 = getelementptr inbounds %"class.base::ObserverList.110", %"class.base::ObserverList.110"* %331, i64 0, i32 0, i32 0, i32 1
  %338 = bitcast %"class.base::internal::UncheckedObserverAdapter"** %337 to i64*
  %339 = load i64, i64* %338, align 8
  %340 = bitcast %"class.base::ObserverList.110"* %331 to i64*
  %341 = load i64, i64* %340, align 8
  %342 = sub i64 %339, %341
  %343 = ashr exact i64 %342, 3
  %344 = load i64, i64* %12, align 8
  %345 = icmp ult i64 %343, %344
  %346 = select i1 %345, i64 %343, i64 %344
  %347 = icmp ult i64 %336, %346
  br i1 %347, label %348, label %333

348:                                              ; preds = %334
  %349 = inttoptr i64 %341 to %"class.base::internal::UncheckedObserverAdapter"*
  %350 = getelementptr inbounds %"class.base::ObserverList.110", %"class.base::ObserverList.110"* %331, i64 0, i32 0, i32 0, i32 0
  %351 = getelementptr inbounds %"class.base::internal::UncheckedObserverAdapter", %"class.base::internal::UncheckedObserverAdapter"* %349, i64 %336, i32 0
  %352 = load i8*, i8** %351, align 8
  %353 = icmp eq i8* %352, null
  br i1 %353, label %354, label %333

354:                                              ; preds = %348, %358
  %355 = phi i64 [ %356, %358 ], [ %336, %348 ]
  %356 = add nuw i64 %355, 1
  store i64 %356, i64* %11, align 8
  %357 = icmp ult i64 %356, %346
  br i1 %357, label %358, label %333

358:                                              ; preds = %354
  %359 = load %"class.base::internal::UncheckedObserverAdapter"*, %"class.base::internal::UncheckedObserverAdapter"** %350, align 8
  %360 = getelementptr inbounds %"class.base::internal::UncheckedObserverAdapter", %"class.base::internal::UncheckedObserverAdapter"* %359, i64 %356, i32 0
  %361 = load i8*, i8** %360, align 8
  %362 = icmp eq i8* %361, null
  br i1 %362, label %354, label %333

363:                                              ; preds = %280
  %364 = ptrtoint i8* %283 to i64
  %365 = inttoptr i64 %281 to %"class.base::internal::UncheckedObserverAdapter"*
  %366 = inttoptr i64 %281 to i64*
  store i64 %364, i64* %366, align 8
  %367 = getelementptr inbounds %"class.base::internal::UncheckedObserverAdapter", %"class.base::internal::UncheckedObserverAdapter"* %365, i64 1
  %368 = ptrtoint %"class.base::internal::UncheckedObserverAdapter"* %367 to i64
  br label %369

369:                                              ; preds = %363, %280
  %370 = phi i64 [ %281, %280 ], [ %368, %363 ]
  %371 = getelementptr inbounds %"class.base::internal::UncheckedObserverAdapter", %"class.base::internal::UncheckedObserverAdapter"* %269, i64 2, i32 0
  %372 = load i8*, i8** %371, align 8
  %373 = icmp eq i8* %372, null
  br i1 %373, label %380, label %374

374:                                              ; preds = %369
  %375 = ptrtoint i8* %372 to i64
  %376 = inttoptr i64 %370 to %"class.base::internal::UncheckedObserverAdapter"*
  %377 = inttoptr i64 %370 to i64*
  store i64 %375, i64* %377, align 8
  %378 = getelementptr inbounds %"class.base::internal::UncheckedObserverAdapter", %"class.base::internal::UncheckedObserverAdapter"* %376, i64 1
  %379 = ptrtoint %"class.base::internal::UncheckedObserverAdapter"* %378 to i64
  br label %380

380:                                              ; preds = %374, %369
  %381 = phi i64 [ %370, %369 ], [ %379, %374 ]
  %382 = getelementptr inbounds %"class.base::internal::UncheckedObserverAdapter", %"class.base::internal::UncheckedObserverAdapter"* %269, i64 3, i32 0
  %383 = load i8*, i8** %382, align 8
  %384 = icmp eq i8* %383, null
  br i1 %384, label %391, label %385

385:                                              ; preds = %380
  %386 = ptrtoint i8* %383 to i64
  %387 = inttoptr i64 %381 to %"class.base::internal::UncheckedObserverAdapter"*
  %388 = inttoptr i64 %381 to i64*
  store i64 %386, i64* %388, align 8
  %389 = getelementptr inbounds %"class.base::internal::UncheckedObserverAdapter", %"class.base::internal::UncheckedObserverAdapter"* %387, i64 1
  %390 = ptrtoint %"class.base::internal::UncheckedObserverAdapter"* %389 to i64
  br label %391

391:                                              ; preds = %385, %380
  %392 = phi i64 [ %381, %380 ], [ %390, %385 ]
  %393 = getelementptr inbounds %"class.base::internal::UncheckedObserverAdapter", %"class.base::internal::UncheckedObserverAdapter"* %269, i64 4
  %394 = icmp eq %"class.base::internal::UncheckedObserverAdapter"* %393, %220
  br i1 %394, label %285, label %268

395:                                              ; preds = %187
  %396 = ptrtoint i8* %190 to i64
  %397 = inttoptr i64 %188 to %"class.base::internal::UncheckedObserverAdapter"*
  %398 = inttoptr i64 %188 to i64*
  store i64 %396, i64* %398, align 8
  %399 = getelementptr inbounds %"class.base::internal::UncheckedObserverAdapter", %"class.base::internal::UncheckedObserverAdapter"* %397, i64 1
  %400 = ptrtoint %"class.base::internal::UncheckedObserverAdapter"* %399 to i64
  br label %401

401:                                              ; preds = %395, %187
  %402 = phi i64 [ %188, %187 ], [ %400, %395 ]
  %403 = getelementptr inbounds %"class.base::internal::UncheckedObserverAdapter", %"class.base::internal::UncheckedObserverAdapter"* %176, i64 2, i32 0
  %404 = load i8*, i8** %403, align 8
  %405 = icmp eq i8* %404, null
  br i1 %405, label %412, label %406

406:                                              ; preds = %401
  %407 = ptrtoint i8* %404 to i64
  %408 = inttoptr i64 %402 to %"class.base::internal::UncheckedObserverAdapter"*
  %409 = inttoptr i64 %402 to i64*
  store i64 %407, i64* %409, align 8
  %410 = getelementptr inbounds %"class.base::internal::UncheckedObserverAdapter", %"class.base::internal::UncheckedObserverAdapter"* %408, i64 1
  %411 = ptrtoint %"class.base::internal::UncheckedObserverAdapter"* %410 to i64
  br label %412

412:                                              ; preds = %406, %401
  %413 = phi i64 [ %402, %401 ], [ %411, %406 ]
  %414 = getelementptr inbounds %"class.base::internal::UncheckedObserverAdapter", %"class.base::internal::UncheckedObserverAdapter"* %176, i64 3, i32 0
  %415 = load i8*, i8** %414, align 8
  %416 = icmp eq i8* %415, null
  br i1 %416, label %423, label %417

417:                                              ; preds = %412
  %418 = ptrtoint i8* %415 to i64
  %419 = inttoptr i64 %413 to %"class.base::internal::UncheckedObserverAdapter"*
  %420 = inttoptr i64 %413 to i64*
  store i64 %418, i64* %420, align 8
  %421 = getelementptr inbounds %"class.base::internal::UncheckedObserverAdapter", %"class.base::internal::UncheckedObserverAdapter"* %419, i64 1
  %422 = ptrtoint %"class.base::internal::UncheckedObserverAdapter"* %421 to i64
  br label %423

423:                                              ; preds = %417, %412
  %424 = phi i64 [ %413, %412 ], [ %422, %417 ]
  %425 = getelementptr inbounds %"class.base::internal::UncheckedObserverAdapter", %"class.base::internal::UncheckedObserverAdapter"* %176, i64 4
  %426 = icmp eq %"class.base::internal::UncheckedObserverAdapter"* %425, %127
  br i1 %426, label %192, label %175
}

declare void @_ZN21ExtensionPrefValueMap19UnregisterExtensionERKNSt3__112basic_stringIcNS0_11char_traitsIcEENS0_9allocatorIcEEEE(%class.ExtensionPrefValueMap*, %"class.std::__1::basic_string"* dereferenceable(24)) local_unnamed_addr #2

; Function Attrs: nounwind ssp uwtable
define hidden zeroext i1 @_ZNK10extensions14ExtensionPrefs17ReadPrefAsBooleanERKNSt3__112basic_stringIcNS1_11char_traitsIcEENS1_9allocatorIcEEEERKNS_7PrefMapEPb(%"class.extensions::ExtensionPrefs"* nocapture readonly, %"class.std::__1::basic_string"* dereferenceable(24), %"struct.extensions::PrefMap"* nocapture readonly dereferenceable(16), i8*) local_unnamed_addr #0 align 2 {
  %5 = alloca %"class.logging::CheckError", align 8
  %6 = tail call %"class.base::DictionaryValue"* @_ZNK10extensions14ExtensionPrefs16GetExtensionPrefERKNSt3__112basic_stringIcNS1_11char_traitsIcEENS1_9allocatorIcEEEE(%"class.extensions::ExtensionPrefs"* %0, %"class.std::__1::basic_string"* dereferenceable(24) %1)
  %7 = icmp eq %"class.base::DictionaryValue"* %6, null
  br i1 %7, label %20, label %8

8:                                                ; preds = %4
  %9 = getelementptr inbounds %"struct.extensions::PrefMap", %"struct.extensions::PrefMap"* %2, i64 0, i32 0
  %10 = load i8*, i8** %9, align 8
  %11 = icmp eq i8* %10, null
  br i1 %11, label %14, label %12

12:                                               ; preds = %8
  %13 = tail call i64 @strlen(i8* nonnull %10) #15
  br label %17

14:                                               ; preds = %8
  %15 = bitcast %"class.logging::CheckError"* %5 to i8*
  call void @llvm.lifetime.start.p0i8(i64 8, i8* nonnull %15) #15
  call void @_ZN7logging10CheckError5CheckEPKciS2_(%"class.logging::CheckError"* nonnull sret %5, i8* getelementptr inbounds ([34 x i8], [34 x i8]* @.str.14, i64 0, i64 0), i32 125, i8* getelementptr inbounds ([2 x i8], [2 x i8]* @.str.15, i64 0, i64 0)) #15
  %16 = call dereferenceable(160) %"class.std::__1::basic_ostream"* @_ZN7logging10CheckError6streamEv(%"class.logging::CheckError"* nonnull %5) #15
  call void @_ZN7logging10CheckErrorD1Ev(%"class.logging::CheckError"* nonnull %5) #15
  call void @llvm.lifetime.end.p0i8(i64 8, i8* nonnull %15) #15
  br label %17

17:                                               ; preds = %12, %14
  %18 = phi i64 [ 0, %14 ], [ %13, %12 ]
  %19 = call zeroext i1 @_ZNK4base15DictionaryValue10GetBooleanENS_16BasicStringPieceIcNSt3__111char_traitsIcEEEEPb(%"class.base::DictionaryValue"* nonnull %6, i8* %10, i64 %18, i8* %3) #15
  ret i1 %19

20:                                               ; preds = %4
  ret i1 false
}

declare zeroext i1 @_ZNK4base15DictionaryValue10GetBooleanENS_16BasicStringPieceIcNSt3__111char_traitsIcEEEEPb(%"class.base::DictionaryValue"*, i8*, i64, i8*) local_unnamed_addr #2

; Function Attrs: nounwind ssp uwtable
