; ModuleID = '../../chrome/browser/extensions/extension_action_storage_manager.cc'
source_filename = "../../chrome/browser/extensions/extension_action_storage_manager.cc"
target datalayout = "e-m:e-i64:64-f80:128-n8:16:32:64-S128"
target triple = "x86_64-unknown-linux-gnu"

module asm ".symver exp, exp@GLIBC_2.2.5"
module asm ".symver exp2, exp2@GLIBC_2.2.5"
module asm ".symver exp2f, exp2f@GLIBC_2.2.5"
module asm ".symver expf, expf@GLIBC_2.2.5"
module asm ".symver lgamma, lgamma@GLIBC_2.2.5"
module asm ".symver lgammaf, lgammaf@GLIBC_2.2.5"
module asm ".symver lgammal, lgammal@GLIBC_2.2.5"
module asm ".symver log, log@GLIBC_2.2.5"
module asm ".symver log2, log2@GLIBC_2.2.5"
module asm ".symver log2f, log2f@GLIBC_2.2.5"
module asm ".symver logf, logf@GLIBC_2.2.5"
module asm ".symver pow, pow@GLIBC_2.2.5"
module asm ".symver powf, powf@GLIBC_2.2.5"

%"class.extensions::ExtensionActionStorageManager" = type { %"class.extensions::ExtensionActionAPI::Observer", %"class.extensions::ExtensionRegistryObserver", %"class.content::BrowserContext"*, %"class.base::ScopedObservation", %"class.base::ScopedObservation.1", %"class.base::WeakPtrFactory" }
%"class.extensions::ExtensionActionAPI::Observer" = type { i32 (...)** }
%"class.extensions::ExtensionRegistryObserver" = type { i32 (...)** }
%"class.base::ScopedObservation" = type { %"class.extensions::ExtensionActionAPI::Observer"*, %"class.extensions::ExtensionActionAPI"* }
%"class.extensions::ExtensionActionAPI" = type { %"class.extensions::BrowserContextKeyedAPI", %"class.base::ObserverList", %"class.content::BrowserContext"*, %"class.extensions::ExtensionPrefs"* }
%"class.extensions::BrowserContextKeyedAPI" = type { %class.KeyedService }
%class.KeyedService = type { i32 (...)** }
%"class.base::ObserverList" = type <{ %"class.std::__1::vector", %"class.base::LinkedList", i64, i32, [4 x i8] }>
%"class.std::__1::vector" = type { %"class.std::__1::__vector_base" }
%"class.std::__1::__vector_base" = type { %"class.base::internal::UncheckedObserverAdapter"*, %"class.base::internal::UncheckedObserverAdapter"*, %"class.std::__1::__compressed_pair" }
%"class.base::internal::UncheckedObserverAdapter" = type { i8* }
%"class.std::__1::__compressed_pair" = type { %"struct.std::__1::__compressed_pair_elem" }
%"struct.std::__1::__compressed_pair_elem" = type { %"class.base::internal::UncheckedObserverAdapter"* }
%"class.base::LinkedList" = type { %"class.base::LinkNode" }
%"class.base::LinkNode" = type { %"class.base::internal::LinkNodeBase" }
%"class.base::internal::LinkNodeBase" = type { %"class.base::internal::LinkNodeBase"*, %"class.base::internal::LinkNodeBase"* }
%"class.extensions::ExtensionPrefs" = type opaque
%"class.base::ScopedObservation.1" = type { %"class.extensions::ExtensionRegistryObserver"*, %"class.extensions::ExtensionRegistry"* }
%"class.extensions::ExtensionRegistry" = type { %class.KeyedService, %"class.extensions::ExtensionSet", %"class.extensions::ExtensionSet", %"class.extensions::ExtensionSet", %"class.extensions::ExtensionSet", %"class.extensions::ExtensionSet", %"class.extensions::ExtensionSet", %"class.base::ObserverList.10", %"class.content::BrowserContext"* }
%"class.extensions::ExtensionSet" = type { %"class.std::__1::map" }
%"class.std::__1::map" = type { %"class.std::__1::__tree" }
%"class.std::__1::__tree" = type { %"class.std::__1::__tree_end_node"*, %"class.std::__1::__compressed_pair.2", %"class.std::__1::__compressed_pair.7" }
%"class.std::__1::__tree_end_node" = type { %"class.std::__1::__tree_node_base"* }
%"class.std::__1::__tree_node_base" = type <{ %"class.std::__1::__tree_end_node", %"class.std::__1::__tree_node_base"*, %"class.std::__1::__tree_end_node"*, i8, [7 x i8] }>
%"class.std::__1::__compressed_pair.2" = type { %"struct.std::__1::__compressed_pair_elem.3" }
%"struct.std::__1::__compressed_pair_elem.3" = type { %"class.std::__1::__tree_end_node" }
%"class.std::__1::__compressed_pair.7" = type { %"struct.std::__1::__compressed_pair_elem.8" }
%"struct.std::__1::__compressed_pair_elem.8" = type { i64 }
%"class.base::ObserverList.10" = type <{ %"class.std::__1::vector", %"class.base::LinkedList.11", i64, i32, [4 x i8] }>
%"class.base::LinkedList.11" = type { %"class.base::LinkNode.12" }
%"class.base::LinkNode.12" = type { %"class.base::internal::LinkNodeBase" }
%"class.base::WeakPtrFactory" = type { %"class.base::internal::WeakPtrFactoryBase" }
%"class.base::internal::WeakPtrFactoryBase" = type { %"class.base::internal::WeakReferenceOwner", i64 }
%"class.base::internal::WeakReferenceOwner" = type { %class.scoped_refptr }
%class.scoped_refptr = type { %"class.base::internal::WeakReference::Flag"* }
%"class.base::internal::WeakReference::Flag" = type <{ %"class.base::RefCountedThreadSafe", %"class.base::AtomicFlag", [3 x i8] }>
%"class.base::RefCountedThreadSafe" = type { %"class.base::subtle::RefCountedThreadSafeBase" }
%"class.base::subtle::RefCountedThreadSafeBase" = type { %"class.base::AtomicRefCount" }
%"class.base::AtomicRefCount" = type { %"struct.std::__1::atomic" }
%"struct.std::__1::atomic" = type { %"struct.std::__1::__atomic_base" }
%"struct.std::__1::__atomic_base" = type { %"struct.std::__1::__atomic_base.14" }
%"struct.std::__1::__atomic_base.14" = type { %"struct.std::__1::__cxx_atomic_impl" }
%"struct.std::__1::__cxx_atomic_impl" = type { %"struct.std::__1::__cxx_atomic_base_impl" }
%"struct.std::__1::__cxx_atomic_base_impl" = type { i32 }
%"class.base::AtomicFlag" = type { %"struct.std::__1::atomic.15" }
%"struct.std::__1::atomic.15" = type { %"struct.std::__1::__atomic_base.16" }
%"struct.std::__1::__atomic_base.16" = type { %"struct.std::__1::__atomic_base.17" }
%"struct.std::__1::__atomic_base.17" = type { %"struct.std::__1::__cxx_atomic_impl.18" }
%"struct.std::__1::__cxx_atomic_impl.18" = type { %"struct.std::__1::__cxx_atomic_base_impl.19" }
%"struct.std::__1::__cxx_atomic_base_impl.19" = type { i8 }
%"class.content::BrowserContext" = type opaque
%"class.std::__1::basic_string" = type { %"class.std::__1::__compressed_pair.43" }
%"class.std::__1::__compressed_pair.43" = type { %"struct.std::__1::__compressed_pair_elem.44" }
%"struct.std::__1::__compressed_pair_elem.44" = type { %"struct.std::__1::basic_string<char, std::__1::char_traits<char>, std::__1::allocator<char> >::__rep" }
%"struct.std::__1::basic_string<char, std::__1::char_traits<char>, std::__1::allocator<char> >::__rep" = type { %union.anon }
%union.anon = type { %"struct.std::__1::basic_string<char, std::__1::char_traits<char>, std::__1::allocator<char> >::__long" }
%"struct.std::__1::basic_string<char, std::__1::char_traits<char>, std::__1::allocator<char> >::__long" = type { i8*, i64, i64 }
%"class.extensions::ExtensionSystem" = type { %class.KeyedService }
%"class.extensions::StateStore" = type { %"class.extensions::ExtensionRegistryObserver", %"class.base::SupportsWeakPtr", %"class.std::__1::unique_ptr", %"class.std::__1::set", %"class.std::__1::unique_ptr.33", %"class.base::ObserverList.39", %"class.base::ScopedObservation.1" }
%"class.base::SupportsWeakPtr" = type { %"class.base::internal::WeakReferenceOwner" }
%"class.std::__1::unique_ptr" = type { %"class.std::__1::__compressed_pair.20" }
%"class.std::__1::__compressed_pair.20" = type { %"struct.std::__1::__compressed_pair_elem.21" }
%"struct.std::__1::__compressed_pair_elem.21" = type { %"class.extensions::ValueStoreFrontend"* }
%"class.extensions::ValueStoreFrontend" = type { %class.scoped_refptr.22, %class.scoped_refptr.23 }
%class.scoped_refptr.22 = type { %"class.extensions::ValueStoreFrontend::Backend"* }
%"class.extensions::ValueStoreFrontend::Backend" = type opaque
%class.scoped_refptr.23 = type { %"class.base::SequencedTaskRunner"* }
%"class.base::SequencedTaskRunner" = type { %"class.base::TaskRunner.base", [4 x i8] }
%"class.base::TaskRunner.base" = type <{ i32 (...)**, %"class.base::RefCountedThreadSafe.24" }>
%"class.base::RefCountedThreadSafe.24" = type { %"class.base::subtle::RefCountedThreadSafeBase" }
%"class.std::__1::set" = type { %"class.std::__1::__tree.26" }
%"class.std::__1::__tree.26" = type { %"class.std::__1::__tree_end_node"*, %"class.std::__1::__compressed_pair.27", %"class.std::__1::__compressed_pair.31" }
%"class.std::__1::__compressed_pair.27" = type { %"struct.std::__1::__compressed_pair_elem.3" }
%"class.std::__1::__compressed_pair.31" = type { %"struct.std::__1::__compressed_pair_elem.8" }
%"class.std::__1::unique_ptr.33" = type { %"class.std::__1::__compressed_pair.34" }
%"class.std::__1::__compressed_pair.34" = type { %"struct.std::__1::__compressed_pair_elem.35" }
%"struct.std::__1::__compressed_pair_elem.35" = type { %"class.extensions::StateStore::DelayedTaskQueue"* }
%"class.extensions::StateStore::DelayedTaskQueue" = type opaque
%"class.base::ObserverList.39" = type <{ %"class.std::__1::vector", %"class.base::LinkedList.40", i64, i32, [4 x i8] }>
%"class.base::LinkedList.40" = type { %"class.base::LinkNode.41" }
%"class.base::LinkNode.41" = type { %"class.base::internal::LinkNodeBase" }
%"struct.std::__1::basic_string<char, std::__1::char_traits<char>, std::__1::allocator<char> >::__short" = type { [23 x i8], %struct.anon }
%struct.anon = type { i8 }
%"class.logging::CheckOpResult" = type { i8* }
%"class.logging::CheckError" = type { %"class.logging::LogMessage"* }
%"class.logging::LogMessage" = type { i32 (...)**, i32, %"class.std::__1::basic_ostringstream", i64, i8*, i32, %"class.base::ScopedClearLastErrorBase" }
%"class.std::__1::basic_ostringstream" = type { %"class.std::__1::basic_ostream.base", %"class.std::__1::basic_stringbuf", %"class.std::__1::basic_ios.base" }
%"class.std::__1::basic_ostream.base" = type { i32 (...)** }
%"class.std::__1::basic_stringbuf" = type <{ %"class.std::__1::basic_streambuf", %"class.std::__1::basic_string", i8*, i32, [4 x i8] }>
%"class.std::__1::basic_streambuf" = type { i32 (...)**, %"class.std::__1::locale", i8*, i8*, i8*, i8*, i8*, i8* }
%"class.std::__1::locale" = type { %"class.std::__1::locale::__imp"* }
%"class.std::__1::locale::__imp" = type opaque
%"class.std::__1::basic_ios.base" = type <{ %"class.std::__1::ios_base", %"class.std::__1::basic_ostream"*, i32 }>
%"class.std::__1::ios_base" = type { i32 (...)**, i32, i64, i64, i32, i32, i8*, i8*, void (i32, %"class.std::__1::ios_base"*, i32)**, i32*, i64, i64, i64*, i64, i64, i8**, i64, i64 }
%"class.std::__1::basic_ostream" = type { i32 (...)**, %"class.std::__1::basic_ios.base" }
%"class.base::ScopedClearLastErrorBase" = type { i32 }
%"class.extensions::Extension" = type { %"class.base::RefCountedThreadSafe.48", %"class.std::__1::basic_string", %"class.std::__1::basic_string", %"class.std::__1::basic_string", i32, %"class.base::FilePath", %"class.extensions::URLPatternSet", %"class.std::__1::unique_ptr.59", %"class.std::__1::unique_ptr.65", %"class.std::__1::vector.71", %class.GURL, %"class.base::Version", %"class.std::__1::basic_string", %"class.std::__1::basic_string", i8, %"class.std::__1::basic_string", %"class.std::__1::unique_ptr.91", %"class.std::__1::map.132", i8, %"class.base::ThreadChecker", i8, i8, i8, i32, %"class.base::GUID" }
%"class.base::RefCountedThreadSafe.48" = type { %"class.base::subtle::RefCountedThreadSafeBase" }
%"class.base::FilePath" = type { %"class.std::__1::basic_string" }
%"class.extensions::URLPatternSet" = type { %"class.std::__1::set.49" }
%"class.std::__1::set.49" = type { %"class.std::__1::__tree.50" }
%"class.std::__1::__tree.50" = type { %"class.std::__1::__tree_end_node"*, %"class.std::__1::__compressed_pair.51", %"class.std::__1::__compressed_pair.55" }
%"class.std::__1::__compressed_pair.51" = type { %"struct.std::__1::__compressed_pair_elem.3" }
%"class.std::__1::__compressed_pair.55" = type { %"struct.std::__1::__compressed_pair_elem.8" }
%"class.std::__1::unique_ptr.59" = type { %"class.std::__1::__compressed_pair.60" }
%"class.std::__1::__compressed_pair.60" = type { %"struct.std::__1::__compressed_pair_elem.61" }
%"struct.std::__1::__compressed_pair_elem.61" = type { %"class.extensions::PermissionsParser"* }
%"class.extensions::PermissionsParser" = type opaque
%"class.std::__1::unique_ptr.65" = type { %"class.std::__1::__compressed_pair.66" }
%"class.std::__1::__compressed_pair.66" = type { %"struct.std::__1::__compressed_pair_elem.67" }
%"struct.std::__1::__compressed_pair_elem.67" = type { %"class.extensions::PermissionsData"* }
%"class.extensions::PermissionsData" = type opaque
%"class.std::__1::vector.71" = type { %"class.std::__1::__vector_base.72" }
%"class.std::__1::__vector_base.72" = type { %"struct.extensions::InstallWarning"*, %"struct.extensions::InstallWarning"*, %"class.std::__1::__compressed_pair.73" }
%"struct.extensions::InstallWarning" = type { %"class.std::__1::basic_string", %"class.std::__1::basic_string", %"class.std::__1::basic_string" }
%"class.std::__1::__compressed_pair.73" = type { %"struct.std::__1::__compressed_pair_elem.74" }
%"struct.std::__1::__compressed_pair_elem.74" = type { %"struct.extensions::InstallWarning"* }
%class.GURL = type { %"class.std::__1::basic_string", i8, %"struct.url::Parsed", %"class.std::__1::unique_ptr.78" }
%"struct.url::Parsed" = type { %"struct.url::Component", %"struct.url::Component", %"struct.url::Component", %"struct.url::Component", %"struct.url::Component", %"struct.url::Component", %"struct.url::Component", %"struct.url::Component", i8, %"struct.url::Parsed"* }
%"struct.url::Component" = type { i32, i32 }
%"class.std::__1::unique_ptr.78" = type { %"class.std::__1::__compressed_pair.79" }
%"class.std::__1::__compressed_pair.79" = type { %"struct.std::__1::__compressed_pair_elem.80" }
%"struct.std::__1::__compressed_pair_elem.80" = type { %class.GURL* }
%"class.base::Version" = type { %"class.std::__1::vector.84" }
%"class.std::__1::vector.84" = type { %"class.std::__1::__vector_base.85" }
%"class.std::__1::__vector_base.85" = type { i32*, i32*, %"class.std::__1::__compressed_pair.86" }
%"class.std::__1::__compressed_pair.86" = type { %"struct.std::__1::__compressed_pair_elem.87" }
%"struct.std::__1::__compressed_pair_elem.87" = type { i32* }
%"class.std::__1::unique_ptr.91" = type { %"class.std::__1::__compressed_pair.92" }
%"class.std::__1::__compressed_pair.92" = type { %"struct.std::__1::__compressed_pair_elem.93" }
%"struct.std::__1::__compressed_pair_elem.93" = type { %"class.extensions::Manifest"* }
%"class.extensions::Manifest" = type { %"class.std::__1::basic_string", %"class.extensions::HashedExtensionId", i32, %"class.std::__1::unique_ptr.94", %"class.std::__1::unique_ptr.94", i32, i32 }
%"class.extensions::HashedExtensionId" = type { %"class.std::__1::basic_string" }
%"class.std::__1::unique_ptr.94" = type { %"class.std::__1::__compressed_pair.95" }
%"class.std::__1::__compressed_pair.95" = type { %"struct.std::__1::__compressed_pair_elem.96" }
%"struct.std::__1::__compressed_pair_elem.96" = type { %"class.base::DictionaryValue"* }
%"class.base::DictionaryValue" = type { %"class.base::Value" }
%"class.base::Value" = type { %"class.absl::variant" }
%"class.absl::variant" = type { %"class.absl::variant_internal::VariantCopyAssignBaseNontrivial" }
%"class.absl::variant_internal::VariantCopyAssignBaseNontrivial" = type { %"class.absl::variant_internal::VariantMoveAssignBaseNontrivial" }
%"class.absl::variant_internal::VariantMoveAssignBaseNontrivial" = type { %"class.absl::variant_internal::VariantCopyBaseNontrivial" }
%"class.absl::variant_internal::VariantCopyBaseNontrivial" = type { %"class.absl::variant_internal::VariantMoveBaseNontrivial" }
%"class.absl::variant_internal::VariantMoveBaseNontrivial" = type { %"class.absl::variant_internal::VariantStateBaseDestructorNontrivial" }
%"class.absl::variant_internal::VariantStateBaseDestructorNontrivial" = type { %"class.absl::variant_internal::VariantStateBase" }
%"class.absl::variant_internal::VariantStateBase" = type { %"union.absl::variant_internal::DestructibleUnionImpl", i64 }
%"union.absl::variant_internal::DestructibleUnionImpl" = type { %"union.absl::variant_internal::DestructibleUnionImpl.97" }
%"union.absl::variant_internal::DestructibleUnionImpl.97" = type { %"union.absl::variant_internal::DestructibleUnionImpl.98" }
%"union.absl::variant_internal::DestructibleUnionImpl.98" = type { %"union.absl::variant_internal::DestructibleUnionImpl.99" }
%"union.absl::variant_internal::DestructibleUnionImpl.99" = type { %"union.absl::variant_internal::DestructibleUnionImpl.100" }
%"union.absl::variant_internal::DestructibleUnionImpl.100" = type { %"class.std::__1::basic_string" }
%"class.std::__1::map.132" = type { %"class.std::__1::__tree.133" }
%"class.std::__1::__tree.133" = type { %"class.std::__1::__tree_end_node"*, %"class.std::__1::__compressed_pair.134", %"class.std::__1::__compressed_pair.138" }
%"class.std::__1::__compressed_pair.134" = type { %"struct.std::__1::__compressed_pair_elem.3" }
%"class.std::__1::__compressed_pair.138" = type { %"struct.std::__1::__compressed_pair_elem.8" }
%"class.base::ThreadChecker" = type { i8 }
%"class.base::GUID" = type { %"class.std::__1::basic_string" }
%"class.base::internal::WeakReference" = type { %class.scoped_refptr.230 }
%class.scoped_refptr.230 = type { %"class.base::internal::WeakReference::Flag"* }
%"class.base::OnceCallback" = type { %"class.base::internal::CallbackBase" }
%"class.base::internal::CallbackBase" = type { %class.scoped_refptr.228 }
%class.scoped_refptr.228 = type { %"class.base::internal::BindStateBase"* }
%"class.base::internal::BindStateBase" = type { %"class.base::RefCountedThreadSafe.229", void ()*, void (%"class.base::internal::BindStateBase"*)*, i1 (%"class.base::internal::BindStateBase"*, i32)* }
%"class.base::RefCountedThreadSafe.229" = type { %"class.base::subtle::RefCountedThreadSafeBase" }
%"class.base::WeakPtr" = type { %"class.base::internal::WeakPtrBase" }
%"class.base::internal::WeakPtrBase" = type { %"class.base::internal::WeakReference", i64 }
%"class.extensions::ExtensionActionManager" = type { %class.KeyedService, %"class.extensions::ExtensionRegistryObserver", %"class.content::BrowserContext"*, %"class.base::ScopedObservation.1", %"class.std::__1::map.219" }
%"class.std::__1::map.219" = type { %"class.std::__1::__tree.220" }
%"class.std::__1::__tree.220" = type { %"class.std::__1::__tree_end_node"*, %"class.std::__1::__compressed_pair.221", %"class.std::__1::__compressed_pair.225" }
%"class.std::__1::__compressed_pair.221" = type { %"struct.std::__1::__compressed_pair_elem.3" }
%"class.std::__1::__compressed_pair.225" = type { %"struct.std::__1::__compressed_pair_elem.8" }
%"class.extensions::ExtensionAction" = type { %"class.std::__1::basic_string", %"class.std::__1::basic_string", i32, i32, %"class.std::__1::map.141", %"class.std::__1::map.152", %"class.std::__1::map.161", %"class.std::__1::map.152", %"class.std::__1::map.170", %"class.std::__1::map.170", %"class.std::__1::map.179", %"class.std::__1::map.188", %"class.std::__1::map.197", %"class.std::__1::map.188", %"class.std::__1::unique_ptr.206", %"class.std::__1::unique_ptr.212", %"class.gfx::Image", %"class.std::__1::basic_string" }
%"class.std::__1::map.141" = type { %"class.std::__1::__tree.142" }
%"class.std::__1::__tree.142" = type { %"class.std::__1::__tree_end_node"*, %"class.std::__1::__compressed_pair.143", %"class.std::__1::__compressed_pair.147" }
%"class.std::__1::__compressed_pair.143" = type { %"struct.std::__1::__compressed_pair_elem.3" }
%"class.std::__1::__compressed_pair.147" = type { %"struct.std::__1::__compressed_pair_elem.8" }
%"class.std::__1::map.161" = type { %"class.std::__1::__tree.162" }
%"class.std::__1::__tree.162" = type { %"class.std::__1::__tree_end_node"*, %"class.std::__1::__compressed_pair.163", %"class.std::__1::__compressed_pair.167" }
%"class.std::__1::__compressed_pair.163" = type { %"struct.std::__1::__compressed_pair_elem.3" }
%"class.std::__1::__compressed_pair.167" = type { %"struct.std::__1::__compressed_pair_elem.8" }
%"class.std::__1::map.152" = type { %"class.std::__1::__tree.153" }
%"class.std::__1::__tree.153" = type { %"class.std::__1::__tree_end_node"*, %"class.std::__1::__compressed_pair.154", %"class.std::__1::__compressed_pair.158" }
%"class.std::__1::__compressed_pair.154" = type { %"struct.std::__1::__compressed_pair_elem.3" }
%"class.std::__1::__compressed_pair.158" = type { %"struct.std::__1::__compressed_pair_elem.8" }
%"class.std::__1::map.170" = type { %"class.std::__1::__tree.171" }
%"class.std::__1::__tree.171" = type { %"class.std::__1::__tree_end_node"*, %"class.std::__1::__compressed_pair.172", %"class.std::__1::__compressed_pair.176" }
%"class.std::__1::__compressed_pair.172" = type { %"struct.std::__1::__compressed_pair_elem.3" }
%"class.std::__1::__compressed_pair.176" = type { %"struct.std::__1::__compressed_pair_elem.8" }
%"class.std::__1::map.179" = type { %"class.std::__1::__tree.180" }
%"class.std::__1::__tree.180" = type { %"class.std::__1::__tree_end_node"*, %"class.std::__1::__compressed_pair.181", %"class.std::__1::__compressed_pair.185" }
%"class.std::__1::__compressed_pair.181" = type { %"struct.std::__1::__compressed_pair_elem.3" }
%"class.std::__1::__compressed_pair.185" = type { %"struct.std::__1::__compressed_pair_elem.8" }
%"class.std::__1::map.197" = type { %"class.std::__1::__tree.198" }
%"class.std::__1::__tree.198" = type { %"class.std::__1::__tree_end_node"*, %"class.std::__1::__compressed_pair.199", %"class.std::__1::__compressed_pair.203" }
%"class.std::__1::__compressed_pair.199" = type { %"struct.std::__1::__compressed_pair_elem.3" }
%"class.std::__1::__compressed_pair.203" = type { %"struct.std::__1::__compressed_pair_elem.8" }
%"class.std::__1::map.188" = type { %"class.std::__1::__tree.189" }
%"class.std::__1::__tree.189" = type { %"class.std::__1::__tree_end_node"*, %"class.std::__1::__compressed_pair.190", %"class.std::__1::__compressed_pair.194" }
%"class.std::__1::__compressed_pair.190" = type { %"struct.std::__1::__compressed_pair_elem.3" }
%"class.std::__1::__compressed_pair.194" = type { %"struct.std::__1::__compressed_pair_elem.8" }
%"class.std::__1::unique_ptr.206" = type { %"class.std::__1::__compressed_pair.207" }
%"class.std::__1::__compressed_pair.207" = type { %"struct.std::__1::__compressed_pair_elem.208" }
%"struct.std::__1::__compressed_pair_elem.208" = type { %class.ExtensionIconSet* }
%class.ExtensionIconSet = type { %"class.std::__1::map.152" }
%"class.std::__1::unique_ptr.212" = type { %"class.std::__1::__compressed_pair.213" }
%"class.std::__1::__compressed_pair.213" = type { %"struct.std::__1::__compressed_pair_elem.214" }
%"struct.std::__1::__compressed_pair_elem.214" = type { %"class.extensions::IconImage"* }
%"class.extensions::IconImage" = type opaque
%"class.gfx::Image" = type { %class.scoped_refptr.218 }
%class.scoped_refptr.218 = type { %"class.gfx::internal::ImageStorage"* }
%"class.gfx::internal::ImageStorage" = type opaque
%"class.base::BasicStringPiece" = type { i8*, i64 }
%"class.base::detail::const_dict_iterator::pointer" = type { %"struct.std::__1::pair.300" }
%"struct.std::__1::pair.300" = type { %"class.std::__1::basic_string"*, %"class.base::Value"* }
%"class.base::detail::const_dict_iterator" = type { %"class.std::__1::__wrap_iter.281" }
%"class.std::__1::__wrap_iter.281" = type { %"struct.std::__1::pair"* }
%"struct.std::__1::pair" = type opaque
%"class.base::detail::const_dict_iterator_proxy" = type { %"class.base::flat_map"* }
%"class.base::flat_map" = type { %"class.base::internal::flat_tree" }
%"class.base::internal::flat_tree" = type { %"class.std::__1::vector.110" }
%"class.std::__1::vector.110" = type { %"class.std::__1::__vector_base.111" }
%"class.std::__1::__vector_base.111" = type { %"struct.std::__1::pair"*, %"struct.std::__1::pair"*, %"class.std::__1::__compressed_pair.112" }
%"class.std::__1::__compressed_pair.112" = type { %"struct.std::__1::__compressed_pair_elem.113" }
%"struct.std::__1::__compressed_pair_elem.113" = type { %"struct.std::__1::pair"* }
%"class.gfx::ImageSkia" = type { %class.scoped_refptr.242 }
%class.scoped_refptr.242 = type { %"class.gfx::internal::ImageSkiaStorage"* }
%"class.gfx::internal::ImageSkiaStorage" = type opaque
%class.SkBitmap = type { %class.sk_sp.254, %class.SkPixmap, %class.sk_sp.255 }
%class.sk_sp.254 = type { %class.SkPixelRef* }
%class.SkPixelRef = type opaque
%class.SkPixmap = type { i8*, i64, %struct.SkImageInfo }
%struct.SkImageInfo = type { %class.SkColorInfo, %struct.SkISize }
%class.SkColorInfo = type { %class.sk_sp.245, i32, i32 }
%class.sk_sp.245 = type { %class.SkColorSpace* }
%class.SkColorSpace = type <{ %class.SkNVRefCnt, i32, i32, %struct.skcms_TransferFunction, %struct.skcms_Matrix3x3, %struct.skcms_TransferFunction, %struct.skcms_Matrix3x3, %class.SkOnce, [3 x i8] }>
%class.SkNVRefCnt = type { %"struct.std::__1::atomic" }
%struct.skcms_TransferFunction = type { float, float, float, float, float, float, float }
%struct.skcms_Matrix3x3 = type { [3 x [3 x float]] }
%class.SkOnce = type { %"struct.std::__1::atomic.15" }
%struct.SkISize = type { i32, i32 }
%class.sk_sp.255 = type { %class.SkMipmap* }
%class.SkMipmap = type opaque
%"class.base::DictionaryValue::Iterator" = type { %"class.base::DictionaryValue"*, %"class.base::detail::const_dict_iterator" }
%"class.gfx::ImageSkiaRep" = type <{ %"class.cc::PaintImage", %class.sk_sp.246, i32, %"class.gfx::Size", [4 x i8], %class.SkBitmap, float, [4 x i8] }>
%"class.cc::PaintImage" = type { %class.sk_sp, %class.sk_sp.246, %"class.gfx::Rect", i32, %class.sk_sp.251, %class.sk_sp.252, i32, i32, i32, i32, i8, i8, i32, i32, %class.sk_sp, %class.scoped_refptr.253 }
%"class.gfx::Rect" = type { %"class.gfx::Point", %"class.gfx::Size" }
%"class.gfx::Point" = type { i32, i32 }
%class.sk_sp.251 = type { %"class.cc::PaintImageGenerator"* }
%"class.cc::PaintImageGenerator" = type opaque
%class.sk_sp.252 = type { %"class.cc::TextureBacking"* }
%"class.cc::TextureBacking" = type opaque
%class.sk_sp = type { %class.SkImage* }
%class.SkImage = type <{ %class.SkRefCnt.base, [4 x i8], %struct.SkImageInfo, i32, [4 x i8] }>
%class.SkRefCnt.base = type { %class.SkRefCntBase.base }
%class.SkRefCntBase.base = type <{ i32 (...)**, %"struct.std::__1::atomic" }>
%class.scoped_refptr.253 = type { %"class.cc::PaintWorkletInput"* }
%"class.cc::PaintWorkletInput" = type opaque
%class.sk_sp.246 = type { %"class.cc::PaintOpBuffer"* }
%"class.cc::PaintOpBuffer" = type <{ %class.SkRefCnt.base, [4 x i8], %"class.std::__1::unique_ptr.247", i64, i64, i64, i64, i64, i32, i8, [3 x i8] }>
%"class.std::__1::unique_ptr.247" = type { %"class.std::__1::__compressed_pair.248" }
%"class.std::__1::__compressed_pair.248" = type { %"struct.std::__1::__compressed_pair_elem.249" }
%"struct.std::__1::__compressed_pair_elem.249" = type { i8* }
%"class.gfx::Size" = type { i32, i32 }
%"class.std::__1::__tree_node.265" = type { %"class.std::__1::__tree_node_base.base", %"struct.std::__1::__value_type.266", [4 x i8] }
%"class.std::__1::__tree_node_base.base" = type <{ %"class.std::__1::__tree_end_node", %"class.std::__1::__tree_node_base"*, %"class.std::__1::__tree_end_node"*, i8 }>
%"struct.std::__1::__value_type.266" = type { %"struct.std::__1::pair.264" }
%"struct.std::__1::pair.264" = type { i32, i32 }
%"class.content::WebContents" = type opaque
%"class.std::__1::vector.102" = type { %"class.std::__1::__vector_base.103" }
%"class.std::__1::__vector_base.103" = type { i8*, i8*, %"class.std::__1::__compressed_pair.104" }
%"class.std::__1::__compressed_pair.104" = type { %"struct.std::__1::__compressed_pair_elem.105" }
%"struct.std::__1::__compressed_pair_elem.105" = type { i8* }
%"class.std::__1::vector.243" = type { %"class.std::__1::__vector_base.244" }
%"class.std::__1::__vector_base.244" = type { %"class.gfx::ImageSkiaRep"*, %"class.gfx::ImageSkiaRep"*, %"class.std::__1::__compressed_pair.256" }
%"class.std::__1::__compressed_pair.256" = type { %"struct.std::__1::__compressed_pair_elem.257" }
%"struct.std::__1::__compressed_pair_elem.257" = type { %"class.gfx::ImageSkiaRep"* }
%"class.std::__1::__tree_node.270" = type { %"class.std::__1::__tree_node_base.base", [3 x i8], %"struct.std::__1::__value_type.271", [4 x i8] }
%"struct.std::__1::__value_type.271" = type { %"struct.std::__1::pair.269" }
%"struct.std::__1::pair.269" = type <{ i32, i8, [3 x i8] }>
%"class.std::__1::__tree_node.277" = type { %"class.std::__1::__tree_node_base.base", %"struct.std::__1::__value_type.278", [4 x i8] }
%"struct.std::__1::__value_type.278" = type { %"struct.std::__1::pair.279" }
%"struct.std::__1::pair.279" = type { i32, i32 }
%"class.std::__1::__tree_node" = type { %"class.std::__1::__tree_node_base.base", %"struct.std::__1::__value_type" }
%"struct.std::__1::__value_type" = type { %"struct.std::__1::pair.261" }
%"struct.std::__1::pair.261" = type { i32, %"class.std::__1::basic_string" }
%"class.std::__1::unique_ptr.231" = type { %"class.std::__1::__compressed_pair.232" }
%"class.std::__1::__compressed_pair.232" = type { %"struct.std::__1::__compressed_pair_elem.121" }
%"struct.std::__1::__compressed_pair_elem.121" = type { %"class.base::Value"* }

$_ZN4base17ScopedObservationIN10extensions18ExtensionActionAPIENS2_8ObserverEXadL_ZNS2_11AddObserverEPS3_EEXadL_ZNS2_14RemoveObserverES4_EEE7ObserveEPS2_ = comdat any

$_ZN4base17ScopedObservationIN10extensions17ExtensionRegistryENS1_25ExtensionRegistryObserverEXadL_ZNS2_11AddObserverEPS3_EEXadL_ZNS2_14RemoveObserverES4_EEE7ObserveEPS2_ = comdat any

$_ZN10extensions25ExtensionRegistryObserver16OnExtensionReadyEPN7content14BrowserContextEPKNS_9ExtensionE = comdat any

$_ZN10extensions25ExtensionRegistryObserver19OnExtensionUnloadedEPN7content14BrowserContextEPKNS_9ExtensionENS_23UnloadedExtensionReasonE = comdat any

$_ZN10extensions25ExtensionRegistryObserver26OnExtensionWillBeInstalledEPN7content14BrowserContextEPKNS_9ExtensionEbRKNSt3__112basic_stringIcNS7_11char_traitsIcEENS7_9allocatorIcEEEE = comdat any

$_ZN10extensions25ExtensionRegistryObserver20OnExtensionInstalledEPN7content14BrowserContextEPKNS_9ExtensionEb = comdat any

$_ZN10extensions25ExtensionRegistryObserver22OnExtensionUninstalledEPN7content14BrowserContextEPKNS_9ExtensionENS_15UninstallReasonE = comdat any

$_ZN10extensions25ExtensionRegistryObserver31OnExtensionUninstallationDeniedEPN7content14BrowserContextEPKNS_9ExtensionE = comdat any

$_ZN10extensions25ExtensionRegistryObserver10OnShutdownEPNS_17ExtensionRegistryE = comdat any

$_ZNK10extensions15ExtensionAction12GetIsVisibleEi = comdat any

$_ZNK10extensions15ExtensionAction8GetValueINSt3__112basic_stringIcNS2_11char_traitsIcEENS2_9allocatorIcEEEEEET_PKNS2_3mapIiS9_NS2_4lessIiEENS6_INS2_4pairIKiS9_EEEEEEi = comdat any

$_ZN10extensions15ExtensionAction8SetValueINSt3__112basic_stringIcNS2_11char_traitsIcEENS2_9allocatorIcEEEEEEvPNS2_3mapIiT_NS2_4lessIiEENS6_INS2_4pairIKiSA_EEEEEEiRKSA_ = comdat any

$_ZNSt3__127__tree_balance_after_insertIPNS_16__tree_node_baseIPvEEEEvT_S5_ = comdat any

$_ZZN7logging15CheckOpValueStrIPN10extensions18ExtensionActionAPIEEENSt3__19enable_ifIXaasr4base8internal23SupportsOstreamOperatorIRKT_EE5valuentsr3std11is_functionINS4_14remove_pointerIS6_E4typeEEE5valueEPcE4typeES8_ENUlRNS4_13basic_ostreamIcNS4_11char_traitsIcEEEEPKvE_8__invokeESJ_SL_ = comdat any

$_ZZN7logging15CheckOpValueStrIPN10extensions17ExtensionRegistryEEENSt3__19enable_ifIXaasr4base8internal23SupportsOstreamOperatorIRKT_EE5valuentsr3std11is_functionINS4_14remove_pointerIS6_E4typeEEE5valueEPcE4typeES8_ENUlRNS4_13basic_ostreamIcNS4_11char_traitsIcEEEEPKvE_8__invokeESJ_SL_ = comdat any

$_ZN4base8internal7InvokerINS0_9BindStateIMN10extensions29ExtensionActionStorageManagerEFvRKNSt3__112basic_stringIcNS5_11char_traitsIcEENS5_9allocatorIcEEEENS5_10unique_ptrINS_5ValueENS5_14default_deleteISF_EEEEEJNS_7WeakPtrIS4_EESB_EEEFvSI_EE7RunOnceEPNS0_13BindStateBaseEOSI_ = comdat any

$_ZN4base8internal9BindStateIMN10extensions29ExtensionActionStorageManagerEFvRKNSt3__112basic_stringIcNS4_11char_traitsIcEENS4_9allocatorIcEEEENS4_10unique_ptrINS_5ValueENS4_14default_deleteISE_EEEEEJNS_7WeakPtrIS3_EESA_EE7DestroyEPKNS0_13BindStateBaseE = comdat any

$_ZN4base8internal23QueryCancellationTraitsINS0_9BindStateIMN10extensions29ExtensionActionStorageManagerEFvRKNSt3__112basic_stringIcNS5_11char_traitsIcEENS5_9allocatorIcEEEENS5_10unique_ptrINS_5ValueENS5_14default_deleteISF_EEEEEJNS_7WeakPtrIS4_EESB_EEEEEbPKNS0_13BindStateBaseENSO_21CancellationQueryModeE = comdat any

@_ZTVN10extensions29ExtensionActionStorageManagerE = hidden unnamed_addr constant { [7 x i8*], [12 x i8*] } { [7 x i8*] [i8* null, i8* null, i8* bitcast (void (%"class.extensions::ExtensionActionStorageManager"*, %"class.extensions::ExtensionAction"*, %"class.content::WebContents"*, %"class.content::BrowserContext"*)* @_ZN10extensions29ExtensionActionStorageManager24OnExtensionActionUpdatedEPNS_15ExtensionActionEPN7content11WebContentsEPNS3_14BrowserContextE to i8*), i8* bitcast (void (%"class.extensions::ExtensionActionStorageManager"*)* @_ZN10extensions29ExtensionActionStorageManager32OnExtensionActionAPIShuttingDownEv to i8*), i8* bitcast (void (%"class.extensions::ExtensionActionStorageManager"*)* @_ZN10extensions29ExtensionActionStorageManagerD2Ev to i8*), i8* bitcast (void (%"class.extensions::ExtensionActionStorageManager"*)* @_ZN10extensions29ExtensionActionStorageManagerD0Ev to i8*), i8* bitcast (void (%"class.extensions::ExtensionActionStorageManager"*, %"class.content::BrowserContext"*, %"class.extensions::Extension"*)* @_ZN10extensions29ExtensionActionStorageManager17OnExtensionLoadedEPN7content14BrowserContextEPKNS_9ExtensionE to i8*)], [12 x i8*] [i8* inttoptr (i64 -8 to i8*), i8* null, i8* bitcast (void (%"class.extensions::ExtensionActionStorageManager"*)* @_ZThn8_N10extensions29ExtensionActionStorageManagerD1Ev to i8*), i8* bitcast (void (%"class.extensions::ExtensionActionStorageManager"*)* @_ZThn8_N10extensions29ExtensionActionStorageManagerD0Ev to i8*), i8* bitcast (void (%"class.extensions::ExtensionActionStorageManager"*, %"class.content::BrowserContext"*, %"class.extensions::Extension"*)* @_ZThn8_N10extensions29ExtensionActionStorageManager17OnExtensionLoadedEPN7content14BrowserContextEPKNS_9ExtensionE to i8*), i8* bitcast (void (%"class.extensions::ExtensionRegistryObserver"*, %"class.content::BrowserContext"*, %"class.extensions::Extension"*)* @_ZN10extensions25ExtensionRegistryObserver16OnExtensionReadyEPN7content14BrowserContextEPKNS_9ExtensionE to i8*), i8* bitcast (void (%"class.extensions::ExtensionRegistryObserver"*, %"class.content::BrowserContext"*, %"class.extensions::Extension"*, i32)* @_ZN10extensions25ExtensionRegistryObserver19OnExtensionUnloadedEPN7content14BrowserContextEPKNS_9ExtensionENS_23UnloadedExtensionReasonE to i8*), i8* bitcast (void (%"class.extensions::ExtensionRegistryObserver"*, %"class.content::BrowserContext"*, %"class.extensions::Extension"*, i1, %"class.std::__1::basic_string"*)* @_ZN10extensions25ExtensionRegistryObserver26OnExtensionWillBeInstalledEPN7content14BrowserContextEPKNS_9ExtensionEbRKNSt3__112basic_stringIcNS7_11char_traitsIcEENS7_9allocatorIcEEEE to i8*), i8* bitcast (void (%"class.extensions::ExtensionRegistryObserver"*, %"class.content::BrowserContext"*, %"class.extensions::Extension"*, i1)* @_ZN10extensions25ExtensionRegistryObserver20OnExtensionInstalledEPN7content14BrowserContextEPKNS_9ExtensionEb to i8*), i8* bitcast (void (%"class.extensions::ExtensionRegistryObserver"*, %"class.content::BrowserContext"*, %"class.extensions::Extension"*, i32)* @_ZN10extensions25ExtensionRegistryObserver22OnExtensionUninstalledEPN7content14BrowserContextEPKNS_9ExtensionENS_15UninstallReasonE to i8*), i8* bitcast (void (%"class.extensions::ExtensionRegistryObserver"*, %"class.content::BrowserContext"*, %"class.extensions::Extension"*)* @_ZN10extensions25ExtensionRegistryObserver31OnExtensionUninstallationDeniedEPN7content14BrowserContextEPKNS_9ExtensionE to i8*), i8* bitcast (void (%"class.extensions::ExtensionRegistryObserver"*, %"class.extensions::ExtensionRegistry"*)* @_ZN10extensions25ExtensionRegistryObserver10OnShutdownEPNS_17ExtensionRegistryE to i8*)] }, align 8
@_ZN10extensions12_GLOBAL__N_124kBrowserActionStorageKeyE = internal unnamed_addr constant [15 x i8] c"browser_action\00", align 1
@_ZN10extensions15ExtensionAction13kDefaultTabIdE = external local_unnamed_addr constant i32, align 4
@_ZN10extensions12_GLOBAL__N_119kPopupUrlStorageKeyE = internal constant [11 x i8] c"poupup_url\00", align 1
@_ZN10extensions12_GLOBAL__N_116kTitleStorageKeyE = internal constant [6 x i8] c"title\00", align 1
@_ZN10extensions12_GLOBAL__N_120kBadgeTextStorageKeyE = internal constant [11 x i8] c"badge_text\00", align 1
@_ZN10extensions12_GLOBAL__N_131kBadgeBackgroundColorStorageKeyE = internal constant [23 x i8] c"badge_background_color\00", align 16
@_ZN10extensions12_GLOBAL__N_125kBadgeTextColorStorageKeyE = internal constant [17 x i8] c"badge_text_color\00", align 16
@_ZN10extensions12_GLOBAL__N_121kAppearanceStorageKeyE = internal constant [11 x i8] c"appearance\00", align 1
@_ZN10extensions12_GLOBAL__N_115kIconStorageKeyE = internal constant [5 x i8] c"icon\00", align 1
@.str.2 = private unnamed_addr constant [68 x i8] c"../../chrome/browser/extensions/extension_action_storage_manager.cc\00", align 1
@.str.3 = private unnamed_addr constant [17 x i8] c"!bitmap.isNull()\00", align 1
@.str.5 = private unnamed_addr constant [19 x i8] c"source_ == nullptr\00", align 1
@.str.6 = private unnamed_addr constant [32 x i8] c"../../base/scoped_observation.h\00", align 1
@.str.7 = private unnamed_addr constant [29 x i8] c"../../base/memory/weak_ptr.h\00", align 1
@.str.8 = private unnamed_addr constant [15 x i8] c"ref_.IsValid()\00", align 1

@_ZN10extensions29ExtensionActionStorageManagerC1EPN7content14BrowserContextE = hidden unnamed_addr alias void (%"class.extensions::ExtensionActionStorageManager"*, %"class.content::BrowserContext"*), void (%"class.extensions::ExtensionActionStorageManager"*, %"class.content::BrowserContext"*)* @_ZN10extensions29ExtensionActionStorageManagerC2EPN7content14BrowserContextE
@_ZN10extensions29ExtensionActionStorageManagerD1Ev = hidden unnamed_addr alias void (%"class.extensions::ExtensionActionStorageManager"*), void (%"class.extensions::ExtensionActionStorageManager"*)* @_ZN10extensions29ExtensionActionStorageManagerD2Ev

; Function Attrs: nounwind ssp uwtable
define hidden void @_ZN10extensions29ExtensionActionStorageManagerC2EPN7content14BrowserContextE(%"class.extensions::ExtensionActionStorageManager"*, %"class.content::BrowserContext"*) unnamed_addr #0 align 2 {
  %3 = alloca %"class.std::__1::basic_string", align 8
  %4 = getelementptr inbounds %"class.extensions::ExtensionActionStorageManager", %"class.extensions::ExtensionActionStorageManager"* %0, i64 0, i32 0
  %5 = getelementptr inbounds %"class.extensions::ExtensionActionStorageManager", %"class.extensions::ExtensionActionStorageManager"* %0, i64 0, i32 1
  %6 = bitcast %"class.extensions::ExtensionActionStorageManager"* %0 to <2 x i32 (...)**>*
  store <2 x i32 (...)**> <i32 (...)** bitcast (i8** getelementptr inbounds ({ [7 x i8*], [12 x i8*] }, { [7 x i8*], [12 x i8*] }* @_ZTVN10extensions29ExtensionActionStorageManagerE, i64 0, inrange i32 0, i64 2) to i32 (...)**), i32 (...)** bitcast (i8** getelementptr inbounds ({ [7 x i8*], [12 x i8*] }, { [7 x i8*], [12 x i8*] }* @_ZTVN10extensions29ExtensionActionStorageManagerE, i64 0, inrange i32 1, i64 2) to i32 (...)**)>, <2 x i32 (...)**>* %6, align 8
  %7 = getelementptr inbounds %"class.extensions::ExtensionActionStorageManager", %"class.extensions::ExtensionActionStorageManager"* %0, i64 0, i32 2
  store %"class.content::BrowserContext"* %1, %"class.content::BrowserContext"** %7, align 8
  %8 = getelementptr inbounds %"class.extensions::ExtensionActionStorageManager", %"class.extensions::ExtensionActionStorageManager"* %0, i64 0, i32 3
  %9 = getelementptr inbounds %"class.base::ScopedObservation", %"class.base::ScopedObservation"* %8, i64 0, i32 0
  store %"class.extensions::ExtensionActionAPI::Observer"* %4, %"class.extensions::ExtensionActionAPI::Observer"** %9, align 8
  %10 = getelementptr inbounds %"class.extensions::ExtensionActionStorageManager", %"class.extensions::ExtensionActionStorageManager"* %0, i64 0, i32 3, i32 1
  store %"class.extensions::ExtensionActionAPI"* null, %"class.extensions::ExtensionActionAPI"** %10, align 8
  %11 = getelementptr inbounds %"class.extensions::ExtensionActionStorageManager", %"class.extensions::ExtensionActionStorageManager"* %0, i64 0, i32 4
  %12 = getelementptr inbounds %"class.base::ScopedObservation.1", %"class.base::ScopedObservation.1"* %11, i64 0, i32 0
  store %"class.extensions::ExtensionRegistryObserver"* %5, %"class.extensions::ExtensionRegistryObserver"** %12, align 8
  %13 = getelementptr inbounds %"class.extensions::ExtensionActionStorageManager", %"class.extensions::ExtensionActionStorageManager"* %0, i64 0, i32 4, i32 1
  store %"class.extensions::ExtensionRegistry"* null, %"class.extensions::ExtensionRegistry"** %13, align 8
  %14 = getelementptr inbounds %"class.extensions::ExtensionActionStorageManager", %"class.extensions::ExtensionActionStorageManager"* %0, i64 0, i32 5, i32 0
  %15 = ptrtoint %"class.extensions::ExtensionActionStorageManager"* %0 to i64
  tail call void @_ZN4base8internal18WeakPtrFactoryBaseC2Em(%"class.base::internal::WeakPtrFactoryBase"* %14, i64 %15) #7
  %16 = load %"class.content::BrowserContext"*, %"class.content::BrowserContext"** %7, align 8
  %17 = tail call %"class.extensions::ExtensionActionAPI"* @_ZN10extensions18ExtensionActionAPI3GetEPN7content14BrowserContextE(%"class.content::BrowserContext"* %16) #7
  tail call void @_ZN4base17ScopedObservationIN10extensions18ExtensionActionAPIENS2_8ObserverEXadL_ZNS2_11AddObserverEPS3_EEXadL_ZNS2_14RemoveObserverES4_EEE7ObserveEPS2_(%"class.base::ScopedObservation"* %8, %"class.extensions::ExtensionActionAPI"* %17)
  %18 = load %"class.content::BrowserContext"*, %"class.content::BrowserContext"** %7, align 8
  %19 = tail call %"class.extensions::ExtensionRegistry"* @_ZN10extensions17ExtensionRegistry3GetEPN7content14BrowserContextE(%"class.content::BrowserContext"* %18) #7
  tail call void @_ZN4base17ScopedObservationIN10extensions17ExtensionRegistryENS1_25ExtensionRegistryObserverEXadL_ZNS2_11AddObserverEPS3_EEXadL_ZNS2_14RemoveObserverES4_EEE7ObserveEPS2_(%"class.base::ScopedObservation.1"* %11, %"class.extensions::ExtensionRegistry"* %19)
  %20 = load %"class.content::BrowserContext"*, %"class.content::BrowserContext"** %7, align 8
  %21 = tail call %"class.extensions::ExtensionSystem"* @_ZN10extensions15ExtensionSystem3GetEPN7content14BrowserContextE(%"class.content::BrowserContext"* %20) #7
  %22 = bitcast %"class.extensions::ExtensionSystem"* %21 to %"class.extensions::StateStore"* (%"class.extensions::ExtensionSystem"*)***
  %23 = load %"class.extensions::StateStore"* (%"class.extensions::ExtensionSystem"*)**, %"class.extensions::StateStore"* (%"class.extensions::ExtensionSystem"*)*** %22, align 8
  %24 = getelementptr inbounds %"class.extensions::StateStore"* (%"class.extensions::ExtensionSystem"*)*, %"class.extensions::StateStore"* (%"class.extensions::ExtensionSystem"*)** %23, i64 9
  %25 = load %"class.extensions::StateStore"* (%"class.extensions::ExtensionSystem"*)*, %"class.extensions::StateStore"* (%"class.extensions::ExtensionSystem"*)** %24, align 8
  %26 = tail call %"class.extensions::StateStore"* %25(%"class.extensions::ExtensionSystem"* %21) #7
  %27 = icmp eq %"class.extensions::StateStore"* %26, null
  br i1 %27, label %39, label %28

28:                                               ; preds = %2
  %29 = bitcast %"class.std::__1::basic_string"* %3 to i8*
  call void @llvm.lifetime.start.p0i8(i64 24, i8* nonnull %29) #7
  %30 = bitcast %"class.std::__1::basic_string"* %3 to %"struct.std::__1::basic_string<char, std::__1::char_traits<char>, std::__1::allocator<char> >::__short"*
  %31 = getelementptr inbounds %"struct.std::__1::basic_string<char, std::__1::char_traits<char>, std::__1::allocator<char> >::__short", %"struct.std::__1::basic_string<char, std::__1::char_traits<char>, std::__1::allocator<char> >::__short"* %30, i64 0, i32 1, i32 0
  store i8 14, i8* %31, align 1
  call void @llvm.memcpy.p0i8.p0i8.i64(i8* nonnull align 8 %29, i8* align 1 getelementptr inbounds ([15 x i8], [15 x i8]* @_ZN10extensions12_GLOBAL__N_124kBrowserActionStorageKeyE, i64 0, i64 0), i64 14, i1 false) #7
  %32 = getelementptr inbounds i8, i8* %29, i64 14
  store i8 0, i8* %32, align 2
  call void @_ZN10extensions10StateStore11RegisterKeyERKNSt3__112basic_stringIcNS1_11char_traitsIcEENS1_9allocatorIcEEEE(%"class.extensions::StateStore"* nonnull %26, %"class.std::__1::basic_string"* nonnull dereferenceable(24) %3) #7
  %33 = load i8, i8* %31, align 1
  %34 = icmp slt i8 %33, 0
  br i1 %34, label %35, label %38

35:                                               ; preds = %28
  %36 = getelementptr inbounds %"class.std::__1::basic_string", %"class.std::__1::basic_string"* %3, i64 0, i32 0, i32 0, i32 0, i32 0, i32 0, i32 0
  %37 = load i8*, i8** %36, align 8
  call void @_ZdlPv(i8* %37) #8
  br label %38

38:                                               ; preds = %28, %35
  call void @llvm.lifetime.end.p0i8(i64 24, i8* nonnull %29) #7
  br label %39

39:                                               ; preds = %2, %38
  ret void
}

; Function Attrs: nounwind ssp uwtable
define linkonce_odr hidden void @_ZN4base17ScopedObservationIN10extensions18ExtensionActionAPIENS2_8ObserverEXadL_ZNS2_11AddObserverEPS3_EEXadL_ZNS2_14RemoveObserverES4_EEE7ObserveEPS2_(%"class.base::ScopedObservation"*, %"class.extensions::ExtensionActionAPI"*) local_unnamed_addr #0 comdat align 2 {
  %3 = alloca %"class.logging::CheckOpResult", align 8
  %4 = alloca %"class.logging::CheckOpResult", align 8
  %5 = alloca %"class.logging::CheckError", align 8
  %6 = bitcast %"class.logging::CheckOpResult"* %4 to i8*
  call void @llvm.lifetime.start.p0i8(i64 8, i8* nonnull %6) #7
  %7 = getelementptr inbounds %"class.logging::CheckOpResult", %"class.logging::CheckOpResult"* %4, i64 0, i32 0
  store i8* inttoptr (i64 -6148914691236517206 to i8*), i8** %7, align 8
  %8 = getelementptr inbounds %"class.base::ScopedObservation", %"class.base::ScopedObservation"* %0, i64 0, i32 1
  %9 = bitcast %"class.logging::CheckOpResult"* %3 to i8*
  call void @llvm.lifetime.start.p0i8(i64 8, i8* nonnull %9)
  %10 = load %"class.extensions::ExtensionActionAPI"*, %"class.extensions::ExtensionActionAPI"** %8, align 8
  %11 = icmp eq %"class.extensions::ExtensionActionAPI"* %10, null
  br i1 %11, label %12, label %13

12:                                               ; preds = %2
  call void @llvm.lifetime.end.p0i8(i64 8, i8* nonnull %9)
  store i8* null, i8** %7, align 8
  br label %23

13:                                               ; preds = %2
  %14 = bitcast %"class.extensions::ExtensionActionAPI"** %8 to i8*
  %15 = tail call i8* @_ZN7logging14StreamValToStrEPKvPFvRNSt3__113basic_ostreamIcNS2_11char_traitsIcEEEES1_E(i8* %14, void (%"class.std::__1::basic_ostream"*, i8*)* nonnull @_ZZN7logging15CheckOpValueStrIPN10extensions18ExtensionActionAPIEEENSt3__19enable_ifIXaasr4base8internal23SupportsOstreamOperatorIRKT_EE5valuentsr3std11is_functionINS4_14remove_pointerIS6_E4typeEEE5valueEPcE4typeES8_ENUlRNS4_13basic_ostreamIcNS4_11char_traitsIcEEEEPKvE_8__invokeESJ_SL_) #7
  %16 = tail call i8* @_ZN7logging15CheckOpValueStrEDn(i8* null) #7
  call void @_ZN7logging13CheckOpResultC1EPKcPcS3_(%"class.logging::CheckOpResult"* nonnull %3, i8* getelementptr inbounds ([19 x i8], [19 x i8]* @.str.5, i64 0, i64 0), i8* %15, i8* %16) #7
  %17 = getelementptr inbounds %"class.logging::CheckOpResult", %"class.logging::CheckOpResult"* %3, i64 0, i32 0
  %18 = load i8*, i8** %17, align 8
  call void @llvm.lifetime.end.p0i8(i64 8, i8* nonnull %9)
  store i8* %18, i8** %7, align 8
  %19 = icmp eq i8* %18, null
  br i1 %19, label %23, label %20

20:                                               ; preds = %13
  %21 = bitcast %"class.logging::CheckError"* %5 to i8*
  call void @llvm.lifetime.start.p0i8(i64 8, i8* nonnull %21) #7
  call void @_ZN7logging10CheckError7CheckOpEPKciPNS_13CheckOpResultE(%"class.logging::CheckError"* nonnull sret %5, i8* getelementptr inbounds ([32 x i8], [32 x i8]* @.str.6, i64 0, i64 0), i32 61, %"class.logging::CheckOpResult"* nonnull %4) #7
  %22 = call dereferenceable(160) %"class.std::__1::basic_ostream"* @_ZN7logging10CheckError6streamEv(%"class.logging::CheckError"* nonnull %5) #7
  call void @_ZN7logging10CheckErrorD1Ev(%"class.logging::CheckError"* nonnull %5) #7
  call void @llvm.lifetime.end.p0i8(i64 8, i8* nonnull %21) #7
  br label %23

23:                                               ; preds = %12, %13, %20
  call void @llvm.lifetime.end.p0i8(i64 8, i8* nonnull %6) #7
  store %"class.extensions::ExtensionActionAPI"* %1, %"class.extensions::ExtensionActionAPI"** %8, align 8
  %24 = getelementptr inbounds %"class.base::ScopedObservation", %"class.base::ScopedObservation"* %0, i64 0, i32 0
  %25 = load %"class.extensions::ExtensionActionAPI::Observer"*, %"class.extensions::ExtensionActionAPI::Observer"** %24, align 8
  call void @_ZN10extensions18ExtensionActionAPI11AddObserverEPNS0_8ObserverE(%"class.extensions::ExtensionActionAPI"* %1, %"class.extensions::ExtensionActionAPI::Observer"* %25) #7
  ret void
}

declare %"class.extensions::ExtensionActionAPI"* @_ZN10extensions18ExtensionActionAPI3GetEPN7content14BrowserContextE(%"class.content::BrowserContext"*) local_unnamed_addr #1

; Function Attrs: nounwind ssp uwtable
define linkonce_odr hidden void @_ZN4base17ScopedObservationIN10extensions17ExtensionRegistryENS1_25ExtensionRegistryObserverEXadL_ZNS2_11AddObserverEPS3_EEXadL_ZNS2_14RemoveObserverES4_EEE7ObserveEPS2_(%"class.base::ScopedObservation.1"*, %"class.extensions::ExtensionRegistry"*) local_unnamed_addr #0 comdat align 2 {
  %3 = alloca %"class.logging::CheckOpResult", align 8
  %4 = alloca %"class.logging::CheckOpResult", align 8
  %5 = alloca %"class.logging::CheckError", align 8
  %6 = bitcast %"class.logging::CheckOpResult"* %4 to i8*
  call void @llvm.lifetime.start.p0i8(i64 8, i8* nonnull %6) #7
  %7 = getelementptr inbounds %"class.logging::CheckOpResult", %"class.logging::CheckOpResult"* %4, i64 0, i32 0
  store i8* inttoptr (i64 -6148914691236517206 to i8*), i8** %7, align 8
  %8 = getelementptr inbounds %"class.base::ScopedObservation.1", %"class.base::ScopedObservation.1"* %0, i64 0, i32 1
  %9 = bitcast %"class.logging::CheckOpResult"* %3 to i8*
  call void @llvm.lifetime.start.p0i8(i64 8, i8* nonnull %9)
  %10 = load %"class.extensions::ExtensionRegistry"*, %"class.extensions::ExtensionRegistry"** %8, align 8
  %11 = icmp eq %"class.extensions::ExtensionRegistry"* %10, null
  br i1 %11, label %12, label %13

12:                                               ; preds = %2
  call void @llvm.lifetime.end.p0i8(i64 8, i8* nonnull %9)
  store i8* null, i8** %7, align 8
  br label %23

13:                                               ; preds = %2
  %14 = bitcast %"class.extensions::ExtensionRegistry"** %8 to i8*
  %15 = tail call i8* @_ZN7logging14StreamValToStrEPKvPFvRNSt3__113basic_ostreamIcNS2_11char_traitsIcEEEES1_E(i8* %14, void (%"class.std::__1::basic_ostream"*, i8*)* nonnull @_ZZN7logging15CheckOpValueStrIPN10extensions17ExtensionRegistryEEENSt3__19enable_ifIXaasr4base8internal23SupportsOstreamOperatorIRKT_EE5valuentsr3std11is_functionINS4_14remove_pointerIS6_E4typeEEE5valueEPcE4typeES8_ENUlRNS4_13basic_ostreamIcNS4_11char_traitsIcEEEEPKvE_8__invokeESJ_SL_) #7
  %16 = tail call i8* @_ZN7logging15CheckOpValueStrEDn(i8* null) #7
  call void @_ZN7logging13CheckOpResultC1EPKcPcS3_(%"class.logging::CheckOpResult"* nonnull %3, i8* getelementptr inbounds ([19 x i8], [19 x i8]* @.str.5, i64 0, i64 0), i8* %15, i8* %16) #7
  %17 = getelementptr inbounds %"class.logging::CheckOpResult", %"class.logging::CheckOpResult"* %3, i64 0, i32 0
  %18 = load i8*, i8** %17, align 8
  call void @llvm.lifetime.end.p0i8(i64 8, i8* nonnull %9)
  store i8* %18, i8** %7, align 8
  %19 = icmp eq i8* %18, null
  br i1 %19, label %23, label %20

20:                                               ; preds = %13
  %21 = bitcast %"class.logging::CheckError"* %5 to i8*
  call void @llvm.lifetime.start.p0i8(i64 8, i8* nonnull %21) #7
  call void @_ZN7logging10CheckError7CheckOpEPKciPNS_13CheckOpResultE(%"class.logging::CheckError"* nonnull sret %5, i8* getelementptr inbounds ([32 x i8], [32 x i8]* @.str.6, i64 0, i64 0), i32 61, %"class.logging::CheckOpResult"* nonnull %4) #7
  %22 = call dereferenceable(160) %"class.std::__1::basic_ostream"* @_ZN7logging10CheckError6streamEv(%"class.logging::CheckError"* nonnull %5) #7
  call void @_ZN7logging10CheckErrorD1Ev(%"class.logging::CheckError"* nonnull %5) #7
  call void @llvm.lifetime.end.p0i8(i64 8, i8* nonnull %21) #7
  br label %23

23:                                               ; preds = %12, %13, %20
  call void @llvm.lifetime.end.p0i8(i64 8, i8* nonnull %6) #7
  store %"class.extensions::ExtensionRegistry"* %1, %"class.extensions::ExtensionRegistry"** %8, align 8
  %24 = getelementptr inbounds %"class.base::ScopedObservation.1", %"class.base::ScopedObservation.1"* %0, i64 0, i32 0
  %25 = load %"class.extensions::ExtensionRegistryObserver"*, %"class.extensions::ExtensionRegistryObserver"** %24, align 8
  call void @_ZN10extensions17ExtensionRegistry11AddObserverEPNS_25ExtensionRegistryObserverE(%"class.extensions::ExtensionRegistry"* %1, %"class.extensions::ExtensionRegistryObserver"* %25) #7
  ret void
}

declare %"class.extensions::ExtensionRegistry"* @_ZN10extensions17ExtensionRegistry3GetEPN7content14BrowserContextE(%"class.content::BrowserContext"*) local_unnamed_addr #1

; Function Attrs: argmemonly nounwind
declare void @llvm.lifetime.start.p0i8(i64 immarg, i8* nocapture) #2

; Function Attrs: nounwind ssp uwtable
define hidden %"class.extensions::StateStore"* @_ZN10extensions29ExtensionActionStorageManager13GetStateStoreEv(%"class.extensions::ExtensionActionStorageManager"* nocapture readonly) local_unnamed_addr #0 align 2 {
  %2 = getelementptr inbounds %"class.extensions::ExtensionActionStorageManager", %"class.extensions::ExtensionActionStorageManager"* %0, i64 0, i32 2
  %3 = load %"class.content::BrowserContext"*, %"class.content::BrowserContext"** %2, align 8
  %4 = tail call %"class.extensions::ExtensionSystem"* @_ZN10extensions15ExtensionSystem3GetEPN7content14BrowserContextE(%"class.content::BrowserContext"* %3) #7
  %5 = bitcast %"class.extensions::ExtensionSystem"* %4 to %"class.extensions::StateStore"* (%"class.extensions::ExtensionSystem"*)***
  %6 = load %"class.extensions::StateStore"* (%"class.extensions::ExtensionSystem"*)**, %"class.extensions::StateStore"* (%"class.extensions::ExtensionSystem"*)*** %5, align 8
  %7 = getelementptr inbounds %"class.extensions::StateStore"* (%"class.extensions::ExtensionSystem"*)*, %"class.extensions::StateStore"* (%"class.extensions::ExtensionSystem"*)** %6, i64 9
  %8 = load %"class.extensions::StateStore"* (%"class.extensions::ExtensionSystem"*)*, %"class.extensions::StateStore"* (%"class.extensions::ExtensionSystem"*)** %7, align 8
  %9 = tail call %"class.extensions::StateStore"* %8(%"class.extensions::ExtensionSystem"* %4) #7
  ret %"class.extensions::StateStore"* %9
}

declare void @_ZN10extensions10StateStore11RegisterKeyERKNSt3__112basic_stringIcNS1_11char_traitsIcEENS1_9allocatorIcEEEE(%"class.extensions::StateStore"*, %"class.std::__1::basic_string"* dereferenceable(24)) local_unnamed_addr #1

; Function Attrs: argmemonly nounwind
declare void @llvm.lifetime.end.p0i8(i64 immarg, i8* nocapture) #2

; Function Attrs: nounwind ssp uwtable
define hidden void @_ZN10extensions29ExtensionActionStorageManagerD2Ev(%"class.extensions::ExtensionActionStorageManager"*) unnamed_addr #0 align 2 {
  %2 = bitcast %"class.extensions::ExtensionActionStorageManager"* %0 to <2 x i32 (...)**>*
  store <2 x i32 (...)**> <i32 (...)** bitcast (i8** getelementptr inbounds ({ [7 x i8*], [12 x i8*] }, { [7 x i8*], [12 x i8*] }* @_ZTVN10extensions29ExtensionActionStorageManagerE, i64 0, inrange i32 0, i64 2) to i32 (...)**), i32 (...)** bitcast (i8** getelementptr inbounds ({ [7 x i8*], [12 x i8*] }, { [7 x i8*], [12 x i8*] }* @_ZTVN10extensions29ExtensionActionStorageManagerE, i64 0, inrange i32 1, i64 2) to i32 (...)**)>, <2 x i32 (...)**>* %2, align 8
  %3 = getelementptr inbounds %"class.extensions::ExtensionActionStorageManager", %"class.extensions::ExtensionActionStorageManager"* %0, i64 0, i32 5, i32 0
  tail call void @_ZN4base8internal18WeakPtrFactoryBaseD2Ev(%"class.base::internal::WeakPtrFactoryBase"* %3) #7
  %4 = getelementptr inbounds %"class.extensions::ExtensionActionStorageManager", %"class.extensions::ExtensionActionStorageManager"* %0, i64 0, i32 4, i32 1
  %5 = load %"class.extensions::ExtensionRegistry"*, %"class.extensions::ExtensionRegistry"** %4, align 8
  %6 = icmp eq %"class.extensions::ExtensionRegistry"* %5, null
  br i1 %6, label %10, label %7

7:                                                ; preds = %1
  %8 = getelementptr inbounds %"class.extensions::ExtensionActionStorageManager", %"class.extensions::ExtensionActionStorageManager"* %0, i64 0, i32 4, i32 0
  %9 = load %"class.extensions::ExtensionRegistryObserver"*, %"class.extensions::ExtensionRegistryObserver"** %8, align 8
  tail call void @_ZN10extensions17ExtensionRegistry14RemoveObserverEPNS_25ExtensionRegistryObserverE(%"class.extensions::ExtensionRegistry"* nonnull %5, %"class.extensions::ExtensionRegistryObserver"* %9) #7
  store %"class.extensions::ExtensionRegistry"* null, %"class.extensions::ExtensionRegistry"** %4, align 8
  br label %10

10:                                               ; preds = %1, %7
  %11 = getelementptr inbounds %"class.extensions::ExtensionActionStorageManager", %"class.extensions::ExtensionActionStorageManager"* %0, i64 0, i32 3, i32 1
  %12 = load %"class.extensions::ExtensionActionAPI"*, %"class.extensions::ExtensionActionAPI"** %11, align 8
  %13 = icmp eq %"class.extensions::ExtensionActionAPI"* %12, null
  br i1 %13, label %17, label %14

14:                                               ; preds = %10
  %15 = getelementptr inbounds %"class.extensions::ExtensionActionStorageManager", %"class.extensions::ExtensionActionStorageManager"* %0, i64 0, i32 3, i32 0
  %16 = load %"class.extensions::ExtensionActionAPI::Observer"*, %"class.extensions::ExtensionActionAPI::Observer"** %15, align 8
  tail call void @_ZN10extensions18ExtensionActionAPI14RemoveObserverEPNS0_8ObserverE(%"class.extensions::ExtensionActionAPI"* nonnull %12, %"class.extensions::ExtensionActionAPI::Observer"* %16) #7
  store %"class.extensions::ExtensionActionAPI"* null, %"class.extensions::ExtensionActionAPI"** %11, align 8
  br label %17

17:                                               ; preds = %10, %14
  %18 = getelementptr inbounds %"class.extensions::ExtensionActionStorageManager", %"class.extensions::ExtensionActionStorageManager"* %0, i64 0, i32 0
  tail call void @_ZN10extensions18ExtensionActionAPI8ObserverD2Ev(%"class.extensions::ExtensionActionAPI::Observer"* %18) #7
  ret void
}

; Function Attrs: nounwind
declare void @_ZN4base8internal18WeakPtrFactoryBaseD2Ev(%"class.base::internal::WeakPtrFactoryBase"*) unnamed_addr #3

; Function Attrs: nounwind
declare void @_ZN10extensions18ExtensionActionAPI8ObserverD2Ev(%"class.extensions::ExtensionActionAPI::Observer"*) unnamed_addr #3

; Function Attrs: nounwind ssp uwtable
define hidden void @_ZThn8_N10extensions29ExtensionActionStorageManagerD1Ev(%"class.extensions::ExtensionActionStorageManager"*) unnamed_addr #0 align 2 {
  %2 = getelementptr inbounds %"class.extensions::ExtensionActionStorageManager", %"class.extensions::ExtensionActionStorageManager"* %0, i64 -1, i32 5, i32 0, i32 1
  %3 = bitcast i64* %2 to <2 x i32 (...)**>*
  store <2 x i32 (...)**> <i32 (...)** bitcast (i8** getelementptr inbounds ({ [7 x i8*], [12 x i8*] }, { [7 x i8*], [12 x i8*] }* @_ZTVN10extensions29ExtensionActionStorageManagerE, i64 0, inrange i32 0, i64 2) to i32 (...)**), i32 (...)** bitcast (i8** getelementptr inbounds ({ [7 x i8*], [12 x i8*] }, { [7 x i8*], [12 x i8*] }* @_ZTVN10extensions29ExtensionActionStorageManagerE, i64 0, inrange i32 1, i64 2) to i32 (...)**)>, <2 x i32 (...)**>* %3, align 8
  %4 = getelementptr inbounds i64, i64* %2, i64 7
  %5 = bitcast i64* %4 to %"class.base::internal::WeakPtrFactoryBase"*
  tail call void @_ZN4base8internal18WeakPtrFactoryBaseD2Ev(%"class.base::internal::WeakPtrFactoryBase"* %5) #7
  %6 = getelementptr inbounds i64, i64* %2, i64 6
  %7 = bitcast i64* %6 to %"class.extensions::ExtensionRegistry"**
  %8 = load %"class.extensions::ExtensionRegistry"*, %"class.extensions::ExtensionRegistry"** %7, align 8
  %9 = icmp eq %"class.extensions::ExtensionRegistry"* %8, null
  br i1 %9, label %14, label %10

10:                                               ; preds = %1
  %11 = getelementptr inbounds i64, i64* %2, i64 5
  %12 = bitcast i64* %11 to %"class.extensions::ExtensionRegistryObserver"**
  %13 = load %"class.extensions::ExtensionRegistryObserver"*, %"class.extensions::ExtensionRegistryObserver"** %12, align 8
  tail call void @_ZN10extensions17ExtensionRegistry14RemoveObserverEPNS_25ExtensionRegistryObserverE(%"class.extensions::ExtensionRegistry"* nonnull %8, %"class.extensions::ExtensionRegistryObserver"* %13) #7
  store %"class.extensions::ExtensionRegistry"* null, %"class.extensions::ExtensionRegistry"** %7, align 8
  br label %14

14:                                               ; preds = %10, %1
  %15 = getelementptr inbounds i64, i64* %2, i64 4
  %16 = bitcast i64* %15 to %"class.extensions::ExtensionActionAPI"**
  %17 = load %"class.extensions::ExtensionActionAPI"*, %"class.extensions::ExtensionActionAPI"** %16, align 8
  %18 = icmp eq %"class.extensions::ExtensionActionAPI"* %17, null
  br i1 %18, label %23, label %19

19:                                               ; preds = %14
  %20 = getelementptr inbounds i64, i64* %2, i64 3
  %21 = bitcast i64* %20 to %"class.extensions::ExtensionActionAPI::Observer"**
  %22 = load %"class.extensions::ExtensionActionAPI::Observer"*, %"class.extensions::ExtensionActionAPI::Observer"** %21, align 8
  tail call void @_ZN10extensions18ExtensionActionAPI14RemoveObserverEPNS0_8ObserverE(%"class.extensions::ExtensionActionAPI"* nonnull %17, %"class.extensions::ExtensionActionAPI::Observer"* %22) #7
  store %"class.extensions::ExtensionActionAPI"* null, %"class.extensions::ExtensionActionAPI"** %16, align 8
  br label %23

23:                                               ; preds = %14, %19
  %24 = bitcast i64* %2 to %"class.extensions::ExtensionActionAPI::Observer"*
  tail call void @_ZN10extensions18ExtensionActionAPI8ObserverD2Ev(%"class.extensions::ExtensionActionAPI::Observer"* %24) #7
  ret void
}

; Function Attrs: nounwind ssp uwtable
define hidden void @_ZN10extensions29ExtensionActionStorageManagerD0Ev(%"class.extensions::ExtensionActionStorageManager"*) unnamed_addr #0 align 2 {
  %2 = bitcast %"class.extensions::ExtensionActionStorageManager"* %0 to <2 x i32 (...)**>*
  store <2 x i32 (...)**> <i32 (...)** bitcast (i8** getelementptr inbounds ({ [7 x i8*], [12 x i8*] }, { [7 x i8*], [12 x i8*] }* @_ZTVN10extensions29ExtensionActionStorageManagerE, i64 0, inrange i32 0, i64 2) to i32 (...)**), i32 (...)** bitcast (i8** getelementptr inbounds ({ [7 x i8*], [12 x i8*] }, { [7 x i8*], [12 x i8*] }* @_ZTVN10extensions29ExtensionActionStorageManagerE, i64 0, inrange i32 1, i64 2) to i32 (...)**)>, <2 x i32 (...)**>* %2, align 8
  %3 = getelementptr inbounds %"class.extensions::ExtensionActionStorageManager", %"class.extensions::ExtensionActionStorageManager"* %0, i64 0, i32 5, i32 0
  tail call void @_ZN4base8internal18WeakPtrFactoryBaseD2Ev(%"class.base::internal::WeakPtrFactoryBase"* %3) #7
  %4 = getelementptr inbounds %"class.extensions::ExtensionActionStorageManager", %"class.extensions::ExtensionActionStorageManager"* %0, i64 0, i32 4, i32 1
  %5 = load %"class.extensions::ExtensionRegistry"*, %"class.extensions::ExtensionRegistry"** %4, align 8
  %6 = icmp eq %"class.extensions::ExtensionRegistry"* %5, null
  br i1 %6, label %10, label %7

7:                                                ; preds = %1
  %8 = getelementptr inbounds %"class.extensions::ExtensionActionStorageManager", %"class.extensions::ExtensionActionStorageManager"* %0, i64 0, i32 4, i32 0
  %9 = load %"class.extensions::ExtensionRegistryObserver"*, %"class.extensions::ExtensionRegistryObserver"** %8, align 8
  tail call void @_ZN10extensions17ExtensionRegistry14RemoveObserverEPNS_25ExtensionRegistryObserverE(%"class.extensions::ExtensionRegistry"* nonnull %5, %"class.extensions::ExtensionRegistryObserver"* %9) #7
  store %"class.extensions::ExtensionRegistry"* null, %"class.extensions::ExtensionRegistry"** %4, align 8
  br label %10

10:                                               ; preds = %7, %1
  %11 = getelementptr inbounds %"class.extensions::ExtensionActionStorageManager", %"class.extensions::ExtensionActionStorageManager"* %0, i64 0, i32 3, i32 1
  %12 = load %"class.extensions::ExtensionActionAPI"*, %"class.extensions::ExtensionActionAPI"** %11, align 8
  %13 = icmp eq %"class.extensions::ExtensionActionAPI"* %12, null
  br i1 %13, label %17, label %14

14:                                               ; preds = %10
  %15 = getelementptr inbounds %"class.extensions::ExtensionActionStorageManager", %"class.extensions::ExtensionActionStorageManager"* %0, i64 0, i32 3, i32 0
  %16 = load %"class.extensions::ExtensionActionAPI::Observer"*, %"class.extensions::ExtensionActionAPI::Observer"** %15, align 8
  tail call void @_ZN10extensions18ExtensionActionAPI14RemoveObserverEPNS0_8ObserverE(%"class.extensions::ExtensionActionAPI"* nonnull %12, %"class.extensions::ExtensionActionAPI::Observer"* %16) #7
  store %"class.extensions::ExtensionActionAPI"* null, %"class.extensions::ExtensionActionAPI"** %11, align 8
  br label %17

17:                                               ; preds = %10, %14
  %18 = getelementptr inbounds %"class.extensions::ExtensionActionStorageManager", %"class.extensions::ExtensionActionStorageManager"* %0, i64 0, i32 0
  tail call void @_ZN10extensions18ExtensionActionAPI8ObserverD2Ev(%"class.extensions::ExtensionActionAPI::Observer"* %18) #7
  %19 = bitcast %"class.extensions::ExtensionActionStorageManager"* %0 to i8*
  tail call void @_ZdlPv(i8* %19) #8
  ret void
}

; Function Attrs: nobuiltin nounwind
declare void @_ZdlPv(i8*) local_unnamed_addr #4

; Function Attrs: nounwind ssp uwtable
define hidden void @_ZThn8_N10extensions29ExtensionActionStorageManagerD0Ev(%"class.extensions::ExtensionActionStorageManager"*) unnamed_addr #0 align 2 {
  %2 = getelementptr inbounds %"class.extensions::ExtensionActionStorageManager", %"class.extensions::ExtensionActionStorageManager"* %0, i64 -1, i32 5, i32 0, i32 1
  %3 = bitcast i64* %2 to <2 x i32 (...)**>*
  store <2 x i32 (...)**> <i32 (...)** bitcast (i8** getelementptr inbounds ({ [7 x i8*], [12 x i8*] }, { [7 x i8*], [12 x i8*] }* @_ZTVN10extensions29ExtensionActionStorageManagerE, i64 0, inrange i32 0, i64 2) to i32 (...)**), i32 (...)** bitcast (i8** getelementptr inbounds ({ [7 x i8*], [12 x i8*] }, { [7 x i8*], [12 x i8*] }* @_ZTVN10extensions29ExtensionActionStorageManagerE, i64 0, inrange i32 1, i64 2) to i32 (...)**)>, <2 x i32 (...)**>* %3, align 8
  %4 = getelementptr inbounds i64, i64* %2, i64 7
  %5 = bitcast i64* %4 to %"class.base::internal::WeakPtrFactoryBase"*
  tail call void @_ZN4base8internal18WeakPtrFactoryBaseD2Ev(%"class.base::internal::WeakPtrFactoryBase"* %5) #7
  %6 = getelementptr inbounds i64, i64* %2, i64 6
  %7 = bitcast i64* %6 to %"class.extensions::ExtensionRegistry"**
  %8 = load %"class.extensions::ExtensionRegistry"*, %"class.extensions::ExtensionRegistry"** %7, align 8
  %9 = icmp eq %"class.extensions::ExtensionRegistry"* %8, null
  br i1 %9, label %14, label %10

10:                                               ; preds = %1
  %11 = getelementptr inbounds i64, i64* %2, i64 5
  %12 = bitcast i64* %11 to %"class.extensions::ExtensionRegistryObserver"**
  %13 = load %"class.extensions::ExtensionRegistryObserver"*, %"class.extensions::ExtensionRegistryObserver"** %12, align 8
  tail call void @_ZN10extensions17ExtensionRegistry14RemoveObserverEPNS_25ExtensionRegistryObserverE(%"class.extensions::ExtensionRegistry"* nonnull %8, %"class.extensions::ExtensionRegistryObserver"* %13) #7
  store %"class.extensions::ExtensionRegistry"* null, %"class.extensions::ExtensionRegistry"** %7, align 8
  br label %14

14:                                               ; preds = %10, %1
  %15 = getelementptr inbounds i64, i64* %2, i64 4
  %16 = bitcast i64* %15 to %"class.extensions::ExtensionActionAPI"**
  %17 = load %"class.extensions::ExtensionActionAPI"*, %"class.extensions::ExtensionActionAPI"** %16, align 8
  %18 = icmp eq %"class.extensions::ExtensionActionAPI"* %17, null
  br i1 %18, label %23, label %19

19:                                               ; preds = %14
  %20 = getelementptr inbounds i64, i64* %2, i64 3
  %21 = bitcast i64* %20 to %"class.extensions::ExtensionActionAPI::Observer"**
  %22 = load %"class.extensions::ExtensionActionAPI::Observer"*, %"class.extensions::ExtensionActionAPI::Observer"** %21, align 8
  tail call void @_ZN10extensions18ExtensionActionAPI14RemoveObserverEPNS0_8ObserverE(%"class.extensions::ExtensionActionAPI"* nonnull %17, %"class.extensions::ExtensionActionAPI::Observer"* %22) #7
  store %"class.extensions::ExtensionActionAPI"* null, %"class.extensions::ExtensionActionAPI"** %16, align 8
  br label %23

23:                                               ; preds = %14, %19
  %24 = bitcast i64* %2 to %"class.extensions::ExtensionActionAPI::Observer"*
  tail call void @_ZN10extensions18ExtensionActionAPI8ObserverD2Ev(%"class.extensions::ExtensionActionAPI::Observer"* %24) #7
  %25 = bitcast i64* %2 to i8*
  tail call void @_ZdlPv(i8* %25) #8
  ret void
}

; Function Attrs: nounwind ssp uwtable
define hidden void @_ZN10extensions29ExtensionActionStorageManager17OnExtensionLoadedEPN7content14BrowserContextEPKNS_9ExtensionE(%"class.extensions::ExtensionActionStorageManager"*, %"class.content::BrowserContext"* nocapture readnone, %"class.extensions::Extension"*) unnamed_addr #0 align 2 {
  %4 = alloca %"class.base::internal::WeakReference", align 8
  %5 = alloca %"class.std::__1::basic_string", align 8
  %6 = alloca %"class.base::OnceCallback", align 8
  %7 = alloca %"class.base::WeakPtr", align 8
  %8 = getelementptr inbounds %"class.extensions::ExtensionActionStorageManager", %"class.extensions::ExtensionActionStorageManager"* %0, i64 0, i32 2
  %9 = load %"class.content::BrowserContext"*, %"class.content::BrowserContext"** %8, align 8
  %10 = tail call %"class.extensions::ExtensionActionManager"* @_ZN10extensions22ExtensionActionManager3GetEPN7content14BrowserContextE(%"class.content::BrowserContext"* %9) #7
  %11 = tail call %"class.extensions::ExtensionAction"* @_ZNK10extensions22ExtensionActionManager18GetExtensionActionERKNS_9ExtensionE(%"class.extensions::ExtensionActionManager"* %10, %"class.extensions::Extension"* dereferenceable(472) %2) #7
  %12 = icmp eq %"class.extensions::ExtensionAction"* %11, null
  br i1 %12, label %72, label %13

13:                                               ; preds = %3
  %14 = getelementptr inbounds %"class.extensions::ExtensionAction", %"class.extensions::ExtensionAction"* %11, i64 0, i32 2
  %15 = load i32, i32* %14, align 8
  %16 = icmp eq i32 %15, 1
  br i1 %16, label %17, label %72

17:                                               ; preds = %13
  %18 = load %"class.content::BrowserContext"*, %"class.content::BrowserContext"** %8, align 8
  %19 = tail call %"class.extensions::ExtensionSystem"* @_ZN10extensions15ExtensionSystem3GetEPN7content14BrowserContextE(%"class.content::BrowserContext"* %18) #7
  %20 = bitcast %"class.extensions::ExtensionSystem"* %19 to %"class.extensions::StateStore"* (%"class.extensions::ExtensionSystem"*)***
  %21 = load %"class.extensions::StateStore"* (%"class.extensions::ExtensionSystem"*)**, %"class.extensions::StateStore"* (%"class.extensions::ExtensionSystem"*)*** %20, align 8
  %22 = getelementptr inbounds %"class.extensions::StateStore"* (%"class.extensions::ExtensionSystem"*)*, %"class.extensions::StateStore"* (%"class.extensions::ExtensionSystem"*)** %21, i64 9
  %23 = load %"class.extensions::StateStore"* (%"class.extensions::ExtensionSystem"*)*, %"class.extensions::StateStore"* (%"class.extensions::ExtensionSystem"*)** %22, align 8
  %24 = tail call %"class.extensions::StateStore"* %23(%"class.extensions::ExtensionSystem"* %19) #7
  %25 = icmp eq %"class.extensions::StateStore"* %24, null
  br i1 %25, label %72, label %26

26:                                               ; preds = %17
  %27 = tail call dereferenceable(24) %"class.std::__1::basic_string"* @_ZNK10extensions9Extension2idEv(%"class.extensions::Extension"* %2) #7
  %28 = bitcast %"class.std::__1::basic_string"* %5 to i8*
  call void @llvm.lifetime.start.p0i8(i64 24, i8* nonnull %28) #7
  %29 = bitcast %"class.std::__1::basic_string"* %5 to %"struct.std::__1::basic_string<char, std::__1::char_traits<char>, std::__1::allocator<char> >::__short"*
  %30 = getelementptr inbounds %"struct.std::__1::basic_string<char, std::__1::char_traits<char>, std::__1::allocator<char> >::__short", %"struct.std::__1::basic_string<char, std::__1::char_traits<char>, std::__1::allocator<char> >::__short"* %29, i64 0, i32 1, i32 0
  store i8 14, i8* %30, align 1
  call void @llvm.memcpy.p0i8.p0i8.i64(i8* nonnull align 8 %28, i8* align 1 getelementptr inbounds ([15 x i8], [15 x i8]* @_ZN10extensions12_GLOBAL__N_124kBrowserActionStorageKeyE, i64 0, i64 0), i64 14, i1 false) #7
  %31 = getelementptr inbounds i8, i8* %28, i64 14
  store i8 0, i8* %31, align 2
  %32 = bitcast %"class.base::WeakPtr"* %7 to i8*
  call void @llvm.lifetime.start.p0i8(i64 16, i8* nonnull %32) #7
  %33 = bitcast %"class.base::internal::WeakReference"* %4 to i8*
  call void @llvm.lifetime.start.p0i8(i64 8, i8* nonnull %33) #7, !noalias !2
  %34 = getelementptr inbounds %"class.extensions::ExtensionActionStorageManager", %"class.extensions::ExtensionActionStorageManager"* %0, i64 0, i32 5, i32 0, i32 0
  call void @_ZNK4base8internal18WeakReferenceOwner6GetRefEv(%"class.base::internal::WeakReference"* nonnull sret %4, %"class.base::internal::WeakReferenceOwner"* %34) #7, !noalias !2
  %35 = getelementptr inbounds %"class.extensions::ExtensionActionStorageManager", %"class.extensions::ExtensionActionStorageManager"* %0, i64 0, i32 5, i32 0, i32 1
  %36 = load i64, i64* %35, align 8, !noalias !2
  %37 = getelementptr inbounds %"class.base::WeakPtr", %"class.base::WeakPtr"* %7, i64 0, i32 0
  call void @_ZN4base8internal11WeakPtrBaseC2ERKNS0_13WeakReferenceEm(%"class.base::internal::WeakPtrBase"* nonnull %37, %"class.base::internal::WeakReference"* nonnull dereferenceable(8) %4, i64 %36) #7
  call void @_ZN4base8internal13WeakReferenceD1Ev(%"class.base::internal::WeakReference"* nonnull %4) #7
  call void @llvm.lifetime.end.p0i8(i64 8, i8* nonnull %33) #7, !noalias !2
  %38 = call dereferenceable(24) %"class.std::__1::basic_string"* @_ZNK10extensions9Extension2idEv(%"class.extensions::Extension"* %2) #7
  %39 = call i8* @_Znwm(i64 88) #8, !noalias !5
  %40 = bitcast i8* %39 to %"class.base::internal::BindStateBase"*
  call void @_ZN4base8internal13BindStateBaseC2EPFvvEPFvPKS1_EPFbS5_NS1_21CancellationQueryModeEE(%"class.base::internal::BindStateBase"* nonnull %40, void ()* bitcast (void (%"class.base::internal::BindStateBase"*, %"class.std::__1::unique_ptr.231"*)* @_ZN4base8internal7InvokerINS0_9BindStateIMN10extensions29ExtensionActionStorageManagerEFvRKNSt3__112basic_stringIcNS5_11char_traitsIcEENS5_9allocatorIcEEEENS5_10unique_ptrINS_5ValueENS5_14default_deleteISF_EEEEEJNS_7WeakPtrIS4_EESB_EEEFvSI_EE7RunOnceEPNS0_13BindStateBaseEOSI_ to void ()*), void (%"class.base::internal::BindStateBase"*)* nonnull @_ZN4base8internal9BindStateIMN10extensions29ExtensionActionStorageManagerEFvRKNSt3__112basic_stringIcNS4_11char_traitsIcEENS4_9allocatorIcEEEENS4_10unique_ptrINS_5ValueENS4_14default_deleteISE_EEEEEJNS_7WeakPtrIS3_EESA_EE7DestroyEPKNS0_13BindStateBaseE, i1 (%"class.base::internal::BindStateBase"*, i32)* nonnull @_ZN4base8internal23QueryCancellationTraitsINS0_9BindStateIMN10extensions29ExtensionActionStorageManagerEFvRKNSt3__112basic_stringIcNS5_11char_traitsIcEENS5_9allocatorIcEEEENS5_10unique_ptrINS_5ValueENS5_14default_deleteISF_EEEEEJNS_7WeakPtrIS4_EESB_EEEEEbPKNS0_13BindStateBaseENSO_21CancellationQueryModeE) #7, !noalias !5
  %41 = getelementptr inbounds i8, i8* %39, i64 32
  %42 = bitcast i8* %41 to <2 x i64>*
  store <2 x i64> <i64 ptrtoint (void (%"class.extensions::ExtensionActionStorageManager"*, %"class.std::__1::basic_string"*, %"class.base::Value"*)* @_ZN10extensions29ExtensionActionStorageManager15ReadFromStorageERKNSt3__112basic_stringIcNS1_11char_traitsIcEENS1_9allocatorIcEEEENS1_10unique_ptrIN4base5ValueENS1_14default_deleteISC_EEEE to i64), i64 0>, <2 x i64>* %42, align 8, !noalias !5
  %43 = getelementptr inbounds i8, i8* %39, i64 48
  %44 = bitcast i8* %43 to %"class.base::internal::WeakReference"*
  %45 = getelementptr inbounds %"class.base::WeakPtr", %"class.base::WeakPtr"* %7, i64 0, i32 0, i32 0
  call void @_ZN4base8internal13WeakReferenceC1EOS1_(%"class.base::internal::WeakReference"* %44, %"class.base::internal::WeakReference"* nonnull dereferenceable(8) %45) #7, !noalias !5
  %46 = getelementptr inbounds i8, i8* %39, i64 56
  %47 = bitcast i8* %46 to i64*
  %48 = getelementptr inbounds %"class.base::WeakPtr", %"class.base::WeakPtr"* %7, i64 0, i32 0, i32 1
  %49 = load i64, i64* %48, align 8, !noalias !5
  store i64 %49, i64* %47, align 8, !noalias !5
  %50 = getelementptr inbounds i8, i8* %39, i64 64
  %51 = bitcast %"class.std::__1::basic_string"* %38 to %"struct.std::__1::basic_string<char, std::__1::char_traits<char>, std::__1::allocator<char> >::__short"*
  %52 = getelementptr inbounds %"struct.std::__1::basic_string<char, std::__1::char_traits<char>, std::__1::allocator<char> >::__short", %"struct.std::__1::basic_string<char, std::__1::char_traits<char>, std::__1::allocator<char> >::__short"* %51, i64 0, i32 1, i32 0
  %53 = load i8, i8* %52, align 1, !noalias !5
  %54 = icmp slt i8 %53, 0
  br i1 %54, label %57, label %55

55:                                               ; preds = %26
  %56 = bitcast %"class.std::__1::basic_string"* %38 to i8*
  call void @llvm.memcpy.p0i8.p0i8.i64(i8* align 8 %50, i8* align 8 %56, i64 24, i1 false) #7, !noalias !5
  br label %63

57:                                               ; preds = %26
  %58 = bitcast i8* %50 to %"class.std::__1::basic_string"*
  %59 = getelementptr inbounds %"class.std::__1::basic_string", %"class.std::__1::basic_string"* %38, i64 0, i32 0, i32 0, i32 0, i32 0, i32 0, i32 0
  %60 = load i8*, i8** %59, align 8, !noalias !5
  %61 = getelementptr inbounds %"class.std::__1::basic_string", %"class.std::__1::basic_string"* %38, i64 0, i32 0, i32 0, i32 0, i32 0, i32 0, i32 1
  %62 = load i64, i64* %61, align 8, !noalias !5
  call void @_ZNSt3__112basic_stringIcNS_11char_traitsIcEENS_9allocatorIcEEE25__init_copy_ctor_externalEPKcm(%"class.std::__1::basic_string"* %58, i8* %60, i64 %62) #7, !noalias !5
  br label %63

63:                                               ; preds = %55, %57
  %64 = bitcast %"class.base::OnceCallback"* %6 to i8**
  store i8* %39, i8** %64, align 8, !alias.scope !5
  call void @_ZN10extensions10StateStore17GetExtensionValueERKNSt3__112basic_stringIcNS1_11char_traitsIcEENS1_9allocatorIcEEEES9_N4base12OnceCallbackIFvNS1_10unique_ptrINSA_5ValueENS1_14default_deleteISD_EEEEEEE(%"class.extensions::StateStore"* nonnull %24, %"class.std::__1::basic_string"* dereferenceable(24) %27, %"class.std::__1::basic_string"* nonnull dereferenceable(24) %5, %"class.base::OnceCallback"* nonnull %6) #7
  %65 = getelementptr inbounds %"class.base::OnceCallback", %"class.base::OnceCallback"* %6, i64 0, i32 0
  call void @_ZN4base8internal12CallbackBaseD2Ev(%"class.base::internal::CallbackBase"* nonnull %65) #7
  call void @_ZN4base8internal11WeakPtrBaseD2Ev(%"class.base::internal::WeakPtrBase"* nonnull %37) #7
  call void @llvm.lifetime.end.p0i8(i64 16, i8* nonnull %32) #7
  %66 = load i8, i8* %30, align 1
  %67 = icmp slt i8 %66, 0
  br i1 %67, label %68, label %71

68:                                               ; preds = %63
  %69 = getelementptr inbounds %"class.std::__1::basic_string", %"class.std::__1::basic_string"* %5, i64 0, i32 0, i32 0, i32 0, i32 0, i32 0, i32 0
  %70 = load i8*, i8** %69, align 8
  call void @_ZdlPv(i8* %70) #8
  br label %71

71:                                               ; preds = %63, %68
  call void @llvm.lifetime.end.p0i8(i64 24, i8* nonnull %28) #7
  br label %72

72:                                               ; preds = %71, %17, %3, %13
  ret void
}

declare %"class.extensions::ExtensionActionManager"* @_ZN10extensions22ExtensionActionManager3GetEPN7content14BrowserContextE(%"class.content::BrowserContext"*) local_unnamed_addr #1

declare %"class.extensions::ExtensionAction"* @_ZNK10extensions22ExtensionActionManager18GetExtensionActionERKNS_9ExtensionE(%"class.extensions::ExtensionActionManager"*, %"class.extensions::Extension"* dereferenceable(472)) local_unnamed_addr #1

declare void @_ZN10extensions10StateStore17GetExtensionValueERKNSt3__112basic_stringIcNS1_11char_traitsIcEENS1_9allocatorIcEEEES9_N4base12OnceCallbackIFvNS1_10unique_ptrINSA_5ValueENS1_14default_deleteISD_EEEEEEE(%"class.extensions::StateStore"*, %"class.std::__1::basic_string"* dereferenceable(24), %"class.std::__1::basic_string"* dereferenceable(24), %"class.base::OnceCallback"*) local_unnamed_addr #1

declare dereferenceable(24) %"class.std::__1::basic_string"* @_ZNK10extensions9Extension2idEv(%"class.extensions::Extension"*) local_unnamed_addr #1

; Function Attrs: nounwind ssp uwtable
define hidden void @_ZN10extensions29ExtensionActionStorageManager15ReadFromStorageERKNSt3__112basic_stringIcNS1_11char_traitsIcEENS1_9allocatorIcEEEENS1_10unique_ptrIN4base5ValueENS1_14default_deleteISC_EEEE(%"class.extensions::ExtensionActionStorageManager"* nocapture readonly, %"class.std::__1::basic_string"* dereferenceable(24), %"class.base::Value"*) #0 align 2 {
  %4 = alloca %"class.std::__1::basic_string", align 8
  %5 = alloca %"class.base::BasicStringPiece", align 8
  %6 = alloca %"class.base::detail::const_dict_iterator::pointer", align 8
  %7 = alloca %"class.base::detail::const_dict_iterator::pointer", align 8
  %8 = alloca %"class.base::detail::const_dict_iterator", align 8
  %9 = alloca %"class.base::detail::const_dict_iterator_proxy", align 8
  %10 = alloca i64, align 8
  %11 = alloca i64, align 8
  %12 = alloca %"class.std::__1::basic_string", align 8
  %13 = alloca %class.GURL, align 8
  %14 = alloca i32, align 4
  %15 = alloca %"class.base::DictionaryValue"*, align 8
  %16 = alloca %"class.gfx::ImageSkia", align 8
  %17 = alloca %class.SkBitmap, align 8
  %18 = alloca %"class.base::DictionaryValue::Iterator", align 8
  %19 = alloca i32, align 4
  %20 = alloca %"class.std::__1::basic_string", align 8
  %21 = alloca %"class.logging::CheckError", align 8
  %22 = alloca %"class.gfx::ImageSkiaRep", align 8
  %23 = alloca %"class.gfx::Image", align 8
  %24 = alloca %"class.base::DictionaryValue"*, align 8
  %25 = getelementptr inbounds %"class.extensions::ExtensionActionStorageManager", %"class.extensions::ExtensionActionStorageManager"* %0, i64 0, i32 2
  %26 = load %"class.content::BrowserContext"*, %"class.content::BrowserContext"** %25, align 8
  %27 = tail call %"class.extensions::ExtensionRegistry"* @_ZN10extensions17ExtensionRegistry3GetEPN7content14BrowserContextE(%"class.content::BrowserContext"* %26) #7
  %28 = getelementptr inbounds %"class.extensions::ExtensionRegistry", %"class.extensions::ExtensionRegistry"* %27, i64 0, i32 1
  %29 = tail call %"class.extensions::Extension"* @_ZNK10extensions12ExtensionSet7GetByIDERKNSt3__112basic_stringIcNS1_11char_traitsIcEENS1_9allocatorIcEEEE(%"class.extensions::ExtensionSet"* %28, %"class.std::__1::basic_string"* dereferenceable(24) %1) #7
  %30 = icmp eq %"class.extensions::Extension"* %29, null
  br i1 %30, label %382, label %31

31:                                               ; preds = %3
  %32 = load %"class.content::BrowserContext"*, %"class.content::BrowserContext"** %25, align 8
  %33 = tail call %"class.extensions::ExtensionActionManager"* @_ZN10extensions22ExtensionActionManager3GetEPN7content14BrowserContextE(%"class.content::BrowserContext"* %32) #7
  %34 = tail call %"class.extensions::ExtensionAction"* @_ZNK10extensions22ExtensionActionManager18GetExtensionActionERKNS_9ExtensionE(%"class.extensions::ExtensionActionManager"* %33, %"class.extensions::Extension"* nonnull dereferenceable(472) %29) #7
  %35 = icmp eq %"class.extensions::ExtensionAction"* %34, null
  br i1 %35, label %382, label %36

36:                                               ; preds = %31
  %37 = getelementptr inbounds %"class.extensions::ExtensionAction", %"class.extensions::ExtensionAction"* %34, i64 0, i32 2
  %38 = load i32, i32* %37, align 8
  %39 = icmp eq i32 %38, 1
  br i1 %39, label %40, label %382

40:                                               ; preds = %36
  %41 = bitcast %"class.base::DictionaryValue"** %24 to i8*
  call void @llvm.lifetime.start.p0i8(i64 8, i8* nonnull %41) #7
  store %"class.base::DictionaryValue"* null, %"class.base::DictionaryValue"** %24, align 8
  %42 = icmp eq %"class.base::Value"* %2, null
  br i1 %42, label %381, label %43

43:                                               ; preds = %40
  %44 = call zeroext i1 @_ZNK4base5Value15GetAsDictionaryEPPKNS_15DictionaryValueE(%"class.base::Value"* nonnull %2, %"class.base::DictionaryValue"** nonnull %24) #7
  br i1 %44, label %45, label %381

45:                                               ; preds = %43
  %46 = load %"class.base::DictionaryValue"*, %"class.base::DictionaryValue"** %24, align 8
  %47 = load i32, i32* @_ZN10extensions15ExtensionAction13kDefaultTabIdE, align 4
  %48 = bitcast %"class.std::__1::basic_string"* %12 to i8*
  call void @llvm.lifetime.start.p0i8(i64 24, i8* nonnull %48) #7
  %49 = getelementptr inbounds %"class.std::__1::basic_string", %"class.std::__1::basic_string"* %12, i64 0, i32 0, i32 0, i32 0, i32 0, i32 0, i32 0
  %50 = getelementptr inbounds %"class.std::__1::basic_string", %"class.std::__1::basic_string"* %12, i64 0, i32 0, i32 0, i32 0, i32 0, i32 0, i32 1
  call void @llvm.memset.p0i8.i64(i8* nonnull align 8 %48, i8 0, i64 24, i1 false) #7
  %51 = call zeroext i1 @_ZNK4base15DictionaryValue9GetStringENS_16BasicStringPieceIcNSt3__111char_traitsIcEEEEPNS2_12basic_stringIcS4_NS2_9allocatorIcEEEE(%"class.base::DictionaryValue"* %46, i8* getelementptr inbounds ([11 x i8], [11 x i8]* @_ZN10extensions12_GLOBAL__N_119kPopupUrlStorageKeyE, i64 0, i64 0), i64 10, %"class.std::__1::basic_string"* nonnull %12) #7
  br i1 %51, label %52, label %65

52:                                               ; preds = %45
  %53 = call zeroext i1 @_ZNK10extensions15ExtensionAction11HasPopupUrlEi(%"class.extensions::ExtensionAction"* nonnull %34, i32 %47) #7
  br i1 %53, label %65, label %54

54:                                               ; preds = %52
  %55 = bitcast %class.GURL* %13 to i8*
  call void @llvm.lifetime.start.p0i8(i64 120, i8* nonnull %55) #7
  %56 = bitcast %"class.std::__1::basic_string"* %12 to %"struct.std::__1::basic_string<char, std::__1::char_traits<char>, std::__1::allocator<char> >::__short"*
  %57 = getelementptr inbounds %"struct.std::__1::basic_string<char, std::__1::char_traits<char>, std::__1::allocator<char> >::__short", %"struct.std::__1::basic_string<char, std::__1::char_traits<char>, std::__1::allocator<char> >::__short"* %56, i64 0, i32 1, i32 0
  %58 = load i8, i8* %57, align 1
  %59 = icmp slt i8 %58, 0
  %60 = load i8*, i8** %49, align 8
  %61 = select i1 %59, i8* %60, i8* %48
  %62 = load i64, i64* %50, align 8
  %63 = zext i8 %58 to i64
  %64 = select i1 %59, i64 %62, i64 %63
  call void @_ZN4GURLC1EN4base16BasicStringPieceIcNSt3__111char_traitsIcEEEE(%class.GURL* nonnull %13, i8* %61, i64 %64) #7
  call void @_ZN10extensions15ExtensionAction11SetPopupUrlEiRK4GURL(%"class.extensions::ExtensionAction"* nonnull %34, i32 %47, %class.GURL* nonnull dereferenceable(120) %13) #7
  call void @_ZN4GURLD1Ev(%class.GURL* nonnull %13) #7
  call void @llvm.lifetime.end.p0i8(i64 120, i8* nonnull %55) #7
  br label %65

65:                                               ; preds = %54, %52, %45
  %66 = call zeroext i1 @_ZNK4base15DictionaryValue9GetStringENS_16BasicStringPieceIcNSt3__111char_traitsIcEEEEPNS2_12basic_stringIcS4_NS2_9allocatorIcEEEE(%"class.base::DictionaryValue"* %46, i8* getelementptr inbounds ([6 x i8], [6 x i8]* @_ZN10extensions12_GLOBAL__N_116kTitleStorageKeyE, i64 0, i64 0), i64 5, %"class.std::__1::basic_string"* nonnull %12) #7
  br i1 %66, label %67, label %71

67:                                               ; preds = %65
  %68 = call zeroext i1 @_ZNK10extensions15ExtensionAction8HasTitleEi(%"class.extensions::ExtensionAction"* nonnull %34, i32 %47) #7
  br i1 %68, label %71, label %69

69:                                               ; preds = %67
  %70 = getelementptr inbounds %"class.extensions::ExtensionAction", %"class.extensions::ExtensionAction"* %34, i64 0, i32 5
  call void @_ZN10extensions15ExtensionAction8SetValueINSt3__112basic_stringIcNS2_11char_traitsIcEENS2_9allocatorIcEEEEEEvPNS2_3mapIiT_NS2_4lessIiEENS6_INS2_4pairIKiSA_EEEEEEiRKSA_(%"class.extensions::ExtensionAction"* nonnull %34, %"class.std::__1::map.152"* %70, i32 %47, %"class.std::__1::basic_string"* nonnull dereferenceable(24) %12) #7
  br label %71

71:                                               ; preds = %69, %67, %65
  %72 = call zeroext i1 @_ZNK4base15DictionaryValue9GetStringENS_16BasicStringPieceIcNSt3__111char_traitsIcEEEEPNS2_12basic_stringIcS4_NS2_9allocatorIcEEEE(%"class.base::DictionaryValue"* %46, i8* getelementptr inbounds ([11 x i8], [11 x i8]* @_ZN10extensions12_GLOBAL__N_120kBadgeTextStorageKeyE, i64 0, i64 0), i64 10, %"class.std::__1::basic_string"* nonnull %12) #7
  br i1 %72, label %73, label %77

73:                                               ; preds = %71
  %74 = call zeroext i1 @_ZNK10extensions15ExtensionAction12HasBadgeTextEi(%"class.extensions::ExtensionAction"* nonnull %34, i32 %47) #7
  br i1 %74, label %77, label %75

75:                                               ; preds = %73
  %76 = getelementptr inbounds %"class.extensions::ExtensionAction", %"class.extensions::ExtensionAction"* %34, i64 0, i32 7
  call void @_ZN10extensions15ExtensionAction8SetValueINSt3__112basic_stringIcNS2_11char_traitsIcEENS2_9allocatorIcEEEEEEvPNS2_3mapIiT_NS2_4lessIiEENS6_INS2_4pairIKiSA_EEEEEEiRKSA_(%"class.extensions::ExtensionAction"* nonnull %34, %"class.std::__1::map.152"* %76, i32 %47, %"class.std::__1::basic_string"* nonnull dereferenceable(24) %12) #7
  br label %77

77:                                               ; preds = %75, %73, %71
  %78 = call zeroext i1 @_ZNK4base15DictionaryValue9GetStringENS_16BasicStringPieceIcNSt3__111char_traitsIcEEEEPNS2_12basic_stringIcS4_NS2_9allocatorIcEEEE(%"class.base::DictionaryValue"* %46, i8* getelementptr inbounds ([23 x i8], [23 x i8]* @_ZN10extensions12_GLOBAL__N_131kBadgeBackgroundColorStorageKeyE, i64 0, i64 0), i64 22, %"class.std::__1::basic_string"* nonnull %12) #7
  br i1 %78, label %79, label %166

79:                                               ; preds = %77
  %80 = call zeroext i1 @_ZNK10extensions15ExtensionAction23HasBadgeBackgroundColorEi(%"class.extensions::ExtensionAction"* nonnull %34, i32 %47) #7
  br i1 %80, label %166, label %81

81:                                               ; preds = %79
  %82 = bitcast i64* %11 to i8*
  call void @llvm.lifetime.start.p0i8(i64 8, i8* nonnull %82) #7
  store i64 0, i64* %11, align 8
  %83 = bitcast %"class.std::__1::basic_string"* %12 to %"struct.std::__1::basic_string<char, std::__1::char_traits<char>, std::__1::allocator<char> >::__short"*
  %84 = getelementptr inbounds %"struct.std::__1::basic_string<char, std::__1::char_traits<char>, std::__1::allocator<char> >::__short", %"struct.std::__1::basic_string<char, std::__1::char_traits<char>, std::__1::allocator<char> >::__short"* %83, i64 0, i32 1, i32 0
  %85 = load i8, i8* %84, align 1
  %86 = icmp slt i8 %85, 0
  %87 = load i8*, i8** %49, align 8
  %88 = select i1 %86, i8* %87, i8* %48
  %89 = load i64, i64* %50, align 8
  %90 = zext i8 %85 to i64
  %91 = select i1 %86, i64 %89, i64 %90
  %92 = call zeroext i1 @_ZN4base14StringToUint64ENS_16BasicStringPieceIcNSt3__111char_traitsIcEEEEPm(i8* %88, i64 %91, i64* nonnull %11) #7
  %93 = load i64, i64* %11, align 8
  %94 = trunc i64 %93 to i32
  call void @llvm.lifetime.end.p0i8(i64 8, i8* nonnull %82) #7
  %95 = getelementptr inbounds %"class.extensions::ExtensionAction", %"class.extensions::ExtensionAction"* %34, i64 0, i32 8
  %96 = getelementptr inbounds %"class.extensions::ExtensionAction", %"class.extensions::ExtensionAction"* %34, i64 0, i32 8, i32 0, i32 1, i32 0, i32 0
  %97 = bitcast %"class.std::__1::__tree_end_node"* %96 to %"class.std::__1::__tree_node.265"**
  %98 = load %"class.std::__1::__tree_node.265"*, %"class.std::__1::__tree_node.265"** %97, align 8
  %99 = icmp eq %"class.std::__1::__tree_node.265"* %98, null
  br i1 %99, label %128, label %100

100:                                              ; preds = %81
  %101 = getelementptr inbounds %"class.extensions::ExtensionAction", %"class.extensions::ExtensionAction"* %34, i64 0, i32 8, i32 0, i32 1, i32 0, i32 0, i32 0
  br label %102

102:                                              ; preds = %124, %100
  %103 = phi %"class.std::__1::__tree_node.265"* [ %127, %124 ], [ %98, %100 ]
  %104 = phi %"class.std::__1::__tree_node_base"** [ %126, %124 ], [ %101, %100 ]
  %105 = getelementptr inbounds %"class.std::__1::__tree_node.265", %"class.std::__1::__tree_node.265"* %103, i64 0, i32 1, i32 0, i32 0
  %106 = load i32, i32* %105, align 4
  %107 = icmp sgt i32 %106, %47
  br i1 %107, label %108, label %114

108:                                              ; preds = %102
  %109 = getelementptr inbounds %"class.std::__1::__tree_node.265", %"class.std::__1::__tree_node.265"* %103, i64 0, i32 0, i32 0, i32 0
  %110 = load %"class.std::__1::__tree_node_base"*, %"class.std::__1::__tree_node_base"** %109, align 8
  %111 = icmp eq %"class.std::__1::__tree_node_base"* %110, null
  br i1 %111, label %112, label %124

112:                                              ; preds = %108
  %113 = getelementptr inbounds %"class.std::__1::__tree_node.265", %"class.std::__1::__tree_node.265"* %103, i64 0, i32 0, i32 0
  br label %130

114:                                              ; preds = %102
  %115 = icmp slt i32 %106, %47
  br i1 %115, label %116, label %122

116:                                              ; preds = %114
  %117 = getelementptr inbounds %"class.std::__1::__tree_node.265", %"class.std::__1::__tree_node.265"* %103, i64 0, i32 0, i32 1
  %118 = load %"class.std::__1::__tree_node_base"*, %"class.std::__1::__tree_node_base"** %117, align 8
  %119 = icmp eq %"class.std::__1::__tree_node_base"* %118, null
  br i1 %119, label %120, label %124

120:                                              ; preds = %116
  %121 = getelementptr inbounds %"class.std::__1::__tree_node.265", %"class.std::__1::__tree_node.265"* %103, i64 0, i32 0, i32 0
  br label %130

122:                                              ; preds = %114
  %123 = getelementptr inbounds %"class.std::__1::__tree_node.265", %"class.std::__1::__tree_node.265"* %103, i64 0, i32 0, i32 0
  br label %130

124:                                              ; preds = %116, %108
  %125 = phi %"class.std::__1::__tree_node_base"* [ %110, %108 ], [ %118, %116 ]
  %126 = phi %"class.std::__1::__tree_node_base"** [ %109, %108 ], [ %117, %116 ]
  %127 = bitcast %"class.std::__1::__tree_node_base"* %125 to %"class.std::__1::__tree_node.265"*
  br label %102

128:                                              ; preds = %81
  %129 = getelementptr inbounds %"class.std::__1::__tree_end_node", %"class.std::__1::__tree_end_node"* %96, i64 0, i32 0
  br label %130

130:                                              ; preds = %128, %122, %120, %112
  %131 = phi %"class.std::__1::__tree_end_node"* [ %96, %128 ], [ %113, %112 ], [ %121, %120 ], [ %123, %122 ]
  %132 = phi %"class.std::__1::__tree_node_base"** [ %129, %128 ], [ %109, %112 ], [ %117, %120 ], [ %104, %122 ]
  %133 = bitcast %"class.std::__1::__tree_node_base"** %132 to %"class.std::__1::__tree_node.265"**
  %134 = load %"class.std::__1::__tree_node.265"*, %"class.std::__1::__tree_node.265"** %133, align 8
  %135 = icmp eq %"class.std::__1::__tree_node.265"* %134, null
  br i1 %135, label %136, label %163

136:                                              ; preds = %130
  %137 = call i8* @_Znwm(i64 40) #8, !noalias !10
  %138 = getelementptr inbounds i8, i8* %137, i64 28
  %139 = bitcast i8* %138 to i32*
  store i32 %47, i32* %139, align 4, !noalias !10
  %140 = getelementptr inbounds i8, i8* %137, i64 32
  %141 = bitcast i8* %140 to i32*
  store i32 0, i32* %141, align 4, !noalias !10
  %142 = bitcast i8* %137 to %"class.std::__1::__tree_node.265"*
  %143 = bitcast i8* %137 to %"class.std::__1::__tree_node_base"*
  %144 = getelementptr inbounds i8, i8* %137, i64 16
  %145 = bitcast i8* %144 to %"class.std::__1::__tree_end_node"**
  call void @llvm.memset.p0i8.i64(i8* nonnull align 8 %137, i8 0, i64 16, i1 false) #7
  store %"class.std::__1::__tree_end_node"* %131, %"class.std::__1::__tree_end_node"** %145, align 8
  %146 = bitcast %"class.std::__1::__tree_node_base"** %132 to i8**
  store i8* %137, i8** %146, align 8
  %147 = getelementptr inbounds %"class.std::__1::map.170", %"class.std::__1::map.170"* %95, i64 0, i32 0, i32 0
  %148 = load %"class.std::__1::__tree_end_node"*, %"class.std::__1::__tree_end_node"** %147, align 8
  %149 = getelementptr inbounds %"class.std::__1::__tree_end_node", %"class.std::__1::__tree_end_node"* %148, i64 0, i32 0
  %150 = load %"class.std::__1::__tree_node_base"*, %"class.std::__1::__tree_node_base"** %149, align 8
  %151 = icmp eq %"class.std::__1::__tree_node_base"* %150, null
  br i1 %151, label %156, label %152

152:                                              ; preds = %136
  %153 = ptrtoint %"class.std::__1::__tree_node_base"* %150 to i64
  %154 = bitcast %"class.std::__1::map.170"* %95 to i64*
  store i64 %153, i64* %154, align 8
  %155 = load %"class.std::__1::__tree_node_base"*, %"class.std::__1::__tree_node_base"** %132, align 8
  br label %156

156:                                              ; preds = %152, %136
  %157 = phi %"class.std::__1::__tree_node_base"* [ %143, %136 ], [ %155, %152 ]
  %158 = getelementptr inbounds %"class.extensions::ExtensionAction", %"class.extensions::ExtensionAction"* %34, i64 0, i32 8, i32 0, i32 1, i32 0, i32 0, i32 0
  %159 = load %"class.std::__1::__tree_node_base"*, %"class.std::__1::__tree_node_base"** %158, align 8
  call void @_ZNSt3__127__tree_balance_after_insertIPNS_16__tree_node_baseIPvEEEEvT_S5_(%"class.std::__1::__tree_node_base"* %159, %"class.std::__1::__tree_node_base"* %157) #7
  %160 = getelementptr inbounds %"class.extensions::ExtensionAction", %"class.extensions::ExtensionAction"* %34, i64 0, i32 8, i32 0, i32 2, i32 0, i32 0
  %161 = load i64, i64* %160, align 8
  %162 = add i64 %161, 1
  store i64 %162, i64* %160, align 8
  br label %163

163:                                              ; preds = %156, %130
  %164 = phi %"class.std::__1::__tree_node.265"* [ %142, %156 ], [ %134, %130 ]
  %165 = getelementptr inbounds %"class.std::__1::__tree_node.265", %"class.std::__1::__tree_node.265"* %164, i64 0, i32 1, i32 0, i32 1
  store i32 %94, i32* %165, align 4
  br label %166

166:                                              ; preds = %163, %79, %77
  %167 = call zeroext i1 @_ZNK4base15DictionaryValue9GetStringENS_16BasicStringPieceIcNSt3__111char_traitsIcEEEEPNS2_12basic_stringIcS4_NS2_9allocatorIcEEEE(%"class.base::DictionaryValue"* %46, i8* getelementptr inbounds ([17 x i8], [17 x i8]* @_ZN10extensions12_GLOBAL__N_125kBadgeTextColorStorageKeyE, i64 0, i64 0), i64 16, %"class.std::__1::basic_string"* nonnull %12) #7
  br i1 %167, label %168, label %255

168:                                              ; preds = %166
  %169 = call zeroext i1 @_ZNK10extensions15ExtensionAction17HasBadgeTextColorEi(%"class.extensions::ExtensionAction"* %34, i32 %47) #7
  br i1 %169, label %255, label %170

170:                                              ; preds = %168
  %171 = bitcast i64* %10 to i8*
  call void @llvm.lifetime.start.p0i8(i64 8, i8* nonnull %171) #7
  store i64 0, i64* %10, align 8
  %172 = bitcast %"class.std::__1::basic_string"* %12 to %"struct.std::__1::basic_string<char, std::__1::char_traits<char>, std::__1::allocator<char> >::__short"*
  %173 = getelementptr inbounds %"struct.std::__1::basic_string<char, std::__1::char_traits<char>, std::__1::allocator<char> >::__short", %"struct.std::__1::basic_string<char, std::__1::char_traits<char>, std::__1::allocator<char> >::__short"* %172, i64 0, i32 1, i32 0
  %174 = load i8, i8* %173, align 1
  %175 = icmp slt i8 %174, 0
  %176 = load i8*, i8** %49, align 8
  %177 = select i1 %175, i8* %176, i8* %48
  %178 = load i64, i64* %50, align 8
  %179 = zext i8 %174 to i64
  %180 = select i1 %175, i64 %178, i64 %179
  %181 = call zeroext i1 @_ZN4base14StringToUint64ENS_16BasicStringPieceIcNSt3__111char_traitsIcEEEEPm(i8* %177, i64 %180, i64* nonnull %10) #7
  %182 = load i64, i64* %10, align 8
  %183 = trunc i64 %182 to i32
  call void @llvm.lifetime.end.p0i8(i64 8, i8* nonnull %171) #7
  %184 = getelementptr inbounds %"class.extensions::ExtensionAction", %"class.extensions::ExtensionAction"* %34, i64 0, i32 9
  %185 = getelementptr inbounds %"class.extensions::ExtensionAction", %"class.extensions::ExtensionAction"* %34, i64 0, i32 9, i32 0, i32 1, i32 0, i32 0
  %186 = bitcast %"class.std::__1::__tree_end_node"* %185 to %"class.std::__1::__tree_node.265"**
  %187 = load %"class.std::__1::__tree_node.265"*, %"class.std::__1::__tree_node.265"** %186, align 8
  %188 = icmp eq %"class.std::__1::__tree_node.265"* %187, null
  br i1 %188, label %217, label %189

189:                                              ; preds = %170
  %190 = getelementptr inbounds %"class.extensions::ExtensionAction", %"class.extensions::ExtensionAction"* %34, i64 0, i32 9, i32 0, i32 1, i32 0, i32 0, i32 0
  br label %191

191:                                              ; preds = %213, %189
  %192 = phi %"class.std::__1::__tree_node.265"* [ %216, %213 ], [ %187, %189 ]
  %193 = phi %"class.std::__1::__tree_node_base"** [ %215, %213 ], [ %190, %189 ]
  %194 = getelementptr inbounds %"class.std::__1::__tree_node.265", %"class.std::__1::__tree_node.265"* %192, i64 0, i32 1, i32 0, i32 0
  %195 = load i32, i32* %194, align 4
  %196 = icmp sgt i32 %195, %47
  br i1 %196, label %197, label %203

197:                                              ; preds = %191
  %198 = getelementptr inbounds %"class.std::__1::__tree_node.265", %"class.std::__1::__tree_node.265"* %192, i64 0, i32 0, i32 0, i32 0
  %199 = load %"class.std::__1::__tree_node_base"*, %"class.std::__1::__tree_node_base"** %198, align 8
  %200 = icmp eq %"class.std::__1::__tree_node_base"* %199, null
  br i1 %200, label %201, label %213

201:                                              ; preds = %197
  %202 = getelementptr inbounds %"class.std::__1::__tree_node.265", %"class.std::__1::__tree_node.265"* %192, i64 0, i32 0, i32 0
  br label %219

203:                                              ; preds = %191
  %204 = icmp slt i32 %195, %47
  br i1 %204, label %205, label %211

205:                                              ; preds = %203
  %206 = getelementptr inbounds %"class.std::__1::__tree_node.265", %"class.std::__1::__tree_node.265"* %192, i64 0, i32 0, i32 1
  %207 = load %"class.std::__1::__tree_node_base"*, %"class.std::__1::__tree_node_base"** %206, align 8
  %208 = icmp eq %"class.std::__1::__tree_node_base"* %207, null
  br i1 %208, label %209, label %213

209:                                              ; preds = %205
  %210 = getelementptr inbounds %"class.std::__1::__tree_node.265", %"class.std::__1::__tree_node.265"* %192, i64 0, i32 0, i32 0
  br label %219

211:                                              ; preds = %203
  %212 = getelementptr inbounds %"class.std::__1::__tree_node.265", %"class.std::__1::__tree_node.265"* %192, i64 0, i32 0, i32 0
  br label %219

213:                                              ; preds = %205, %197
  %214 = phi %"class.std::__1::__tree_node_base"* [ %199, %197 ], [ %207, %205 ]
  %215 = phi %"class.std::__1::__tree_node_base"** [ %198, %197 ], [ %206, %205 ]
  %216 = bitcast %"class.std::__1::__tree_node_base"* %214 to %"class.std::__1::__tree_node.265"*
  br label %191

217:                                              ; preds = %170
  %218 = getelementptr inbounds %"class.std::__1::__tree_end_node", %"class.std::__1::__tree_end_node"* %185, i64 0, i32 0
  br label %219

219:                                              ; preds = %217, %211, %209, %201
  %220 = phi %"class.std::__1::__tree_end_node"* [ %185, %217 ], [ %202, %201 ], [ %210, %209 ], [ %212, %211 ]
  %221 = phi %"class.std::__1::__tree_node_base"** [ %218, %217 ], [ %198, %201 ], [ %206, %209 ], [ %193, %211 ]
  %222 = bitcast %"class.std::__1::__tree_node_base"** %221 to %"class.std::__1::__tree_node.265"**
  %223 = load %"class.std::__1::__tree_node.265"*, %"class.std::__1::__tree_node.265"** %222, align 8
  %224 = icmp eq %"class.std::__1::__tree_node.265"* %223, null
  br i1 %224, label %225, label %252

225:                                              ; preds = %219
  %226 = call i8* @_Znwm(i64 40) #8, !noalias !13
  %227 = getelementptr inbounds i8, i8* %226, i64 28
  %228 = bitcast i8* %227 to i32*
  store i32 %47, i32* %228, align 4, !noalias !13
  %229 = getelementptr inbounds i8, i8* %226, i64 32
  %230 = bitcast i8* %229 to i32*
  store i32 0, i32* %230, align 4, !noalias !13
  %231 = bitcast i8* %226 to %"class.std::__1::__tree_node.265"*
  %232 = bitcast i8* %226 to %"class.std::__1::__tree_node_base"*
  %233 = getelementptr inbounds i8, i8* %226, i64 16
  %234 = bitcast i8* %233 to %"class.std::__1::__tree_end_node"**
  call void @llvm.memset.p0i8.i64(i8* nonnull align 8 %226, i8 0, i64 16, i1 false) #7
  store %"class.std::__1::__tree_end_node"* %220, %"class.std::__1::__tree_end_node"** %234, align 8
  %235 = bitcast %"class.std::__1::__tree_node_base"** %221 to i8**
  store i8* %226, i8** %235, align 8
  %236 = getelementptr inbounds %"class.std::__1::map.170", %"class.std::__1::map.170"* %184, i64 0, i32 0, i32 0
  %237 = load %"class.std::__1::__tree_end_node"*, %"class.std::__1::__tree_end_node"** %236, align 8
  %238 = getelementptr inbounds %"class.std::__1::__tree_end_node", %"class.std::__1::__tree_end_node"* %237, i64 0, i32 0
  %239 = load %"class.std::__1::__tree_node_base"*, %"class.std::__1::__tree_node_base"** %238, align 8
  %240 = icmp eq %"class.std::__1::__tree_node_base"* %239, null
  br i1 %240, label %245, label %241

241:                                              ; preds = %225
  %242 = ptrtoint %"class.std::__1::__tree_node_base"* %239 to i64
  %243 = bitcast %"class.std::__1::map.170"* %184 to i64*
  store i64 %242, i64* %243, align 8
  %244 = load %"class.std::__1::__tree_node_base"*, %"class.std::__1::__tree_node_base"** %221, align 8
  br label %245

245:                                              ; preds = %241, %225
  %246 = phi %"class.std::__1::__tree_node_base"* [ %232, %225 ], [ %244, %241 ]
  %247 = getelementptr inbounds %"class.extensions::ExtensionAction", %"class.extensions::ExtensionAction"* %34, i64 0, i32 9, i32 0, i32 1, i32 0, i32 0, i32 0
  %248 = load %"class.std::__1::__tree_node_base"*, %"class.std::__1::__tree_node_base"** %247, align 8
  call void @_ZNSt3__127__tree_balance_after_insertIPNS_16__tree_node_baseIPvEEEEvT_S5_(%"class.std::__1::__tree_node_base"* %248, %"class.std::__1::__tree_node_base"* %246) #7
  %249 = getelementptr inbounds %"class.extensions::ExtensionAction", %"class.extensions::ExtensionAction"* %34, i64 0, i32 9, i32 0, i32 2, i32 0, i32 0
  %250 = load i64, i64* %249, align 8
  %251 = add i64 %250, 1
  store i64 %251, i64* %249, align 8
  br label %252

252:                                              ; preds = %245, %219
  %253 = phi %"class.std::__1::__tree_node.265"* [ %231, %245 ], [ %223, %219 ]
  %254 = getelementptr inbounds %"class.std::__1::__tree_node.265", %"class.std::__1::__tree_node.265"* %253, i64 0, i32 1, i32 0, i32 1
  store i32 %183, i32* %254, align 4
  br label %255

255:                                              ; preds = %252, %168, %166
  %256 = bitcast i32* %14 to i8*
  call void @llvm.lifetime.start.p0i8(i64 4, i8* nonnull %256) #7
  store i32 0, i32* %14, align 4
  %257 = call zeroext i1 @_ZNK4base15DictionaryValue10GetIntegerENS_16BasicStringPieceIcNSt3__111char_traitsIcEEEEPi(%"class.base::DictionaryValue"* %46, i8* getelementptr inbounds ([11 x i8], [11 x i8]* @_ZN10extensions12_GLOBAL__N_121kAppearanceStorageKeyE, i64 0, i64 0), i64 10, i32* nonnull %14) #7
  br i1 %257, label %258, label %266

258:                                              ; preds = %255
  %259 = call zeroext i1 @_ZNK10extensions15ExtensionAction12HasIsVisibleEi(%"class.extensions::ExtensionAction"* %34, i32 %47) #7
  br i1 %259, label %266, label %260

260:                                              ; preds = %258
  %261 = load i32, i32* %14, align 4
  switch i32 %261, label %266 [
    i32 0, label %262
    i32 1, label %262
    i32 2, label %264
  ]

262:                                              ; preds = %260, %260
  %263 = call zeroext i1 @_ZN10extensions15ExtensionAction12SetIsVisibleEib(%"class.extensions::ExtensionAction"* %34, i32 %47, i1 zeroext false) #7
  br label %266

264:                                              ; preds = %260
  %265 = call zeroext i1 @_ZN10extensions15ExtensionAction12SetIsVisibleEib(%"class.extensions::ExtensionAction"* %34, i32 %47, i1 zeroext true) #7
  br label %266

266:                                              ; preds = %264, %262, %260, %258, %255
  %267 = bitcast %"class.base::DictionaryValue"** %15 to i8*
  call void @llvm.lifetime.start.p0i8(i64 8, i8* nonnull %267) #7
  store %"class.base::DictionaryValue"* null, %"class.base::DictionaryValue"** %15, align 8
  %268 = call zeroext i1 @_ZNK4base15DictionaryValue13GetDictionaryENS_16BasicStringPieceIcNSt3__111char_traitsIcEEEEPPKS0_(%"class.base::DictionaryValue"* %46, i8* getelementptr inbounds ([5 x i8], [5 x i8]* @_ZN10extensions12_GLOBAL__N_115kIconStorageKeyE, i64 0, i64 0), i64 4, %"class.base::DictionaryValue"** nonnull %15) #7
  br i1 %268, label %269, label %373

269:                                              ; preds = %266
  %270 = call zeroext i1 @_ZNK10extensions15ExtensionAction7HasIconEi(%"class.extensions::ExtensionAction"* %34, i32 %47) #7
  br i1 %270, label %373, label %271

271:                                              ; preds = %269
  %272 = bitcast %"class.gfx::ImageSkia"* %16 to i8*
  call void @llvm.lifetime.start.p0i8(i64 8, i8* nonnull %272) #7
  %273 = getelementptr inbounds %"class.gfx::ImageSkia", %"class.gfx::ImageSkia"* %16, i64 0, i32 0, i32 0
  store %"class.gfx::internal::ImageSkiaStorage"* inttoptr (i64 -6148914691236517206 to %"class.gfx::internal::ImageSkiaStorage"*), %"class.gfx::internal::ImageSkiaStorage"** %273, align 8
  call void @_ZN3gfx9ImageSkiaC1Ev(%"class.gfx::ImageSkia"* nonnull %16) #7
  %274 = bitcast %class.SkBitmap* %17 to i8*
  call void @llvm.lifetime.start.p0i8(i64 56, i8* nonnull %274) #7
  call void @llvm.memset.p0i8.i64(i8* nonnull align 8 %274, i8 -86, i64 56, i1 false) #7
  call void @_ZN8SkBitmapC1Ev(%class.SkBitmap* nonnull %17) #7
  %275 = bitcast %"class.base::DictionaryValue::Iterator"* %18 to i8*
  call void @llvm.lifetime.start.p0i8(i64 16, i8* nonnull %275) #7
  call void @llvm.memset.p0i8.i64(i8* nonnull align 8 %275, i8 -86, i64 16, i1 false) #7
  %276 = load %"class.base::DictionaryValue"*, %"class.base::DictionaryValue"** %15, align 8
  call void @_ZN4base15DictionaryValue8IteratorC1ERKS0_(%"class.base::DictionaryValue::Iterator"* nonnull %18, %"class.base::DictionaryValue"* dereferenceable(32) %276) #7
  %277 = getelementptr inbounds %"class.base::DictionaryValue::Iterator", %"class.base::DictionaryValue::Iterator"* %18, i64 0, i32 1
  %278 = bitcast %"class.base::detail::const_dict_iterator"* %8 to i8*
  call void @llvm.lifetime.start.p0i8(i64 8, i8* nonnull %278) #7
  %279 = bitcast %"class.base::detail::const_dict_iterator_proxy"* %9 to i8*
  call void @llvm.lifetime.start.p0i8(i64 8, i8* nonnull %279) #7
  %280 = bitcast %"class.base::DictionaryValue::Iterator"* %18 to %"class.base::Value"**
  %281 = load %"class.base::Value"*, %"class.base::Value"** %280, align 8
  %282 = call %"class.base::flat_map"* @_ZNK4base5Value9DictItemsEv(%"class.base::Value"* %281) #7
  %283 = getelementptr inbounds %"class.base::detail::const_dict_iterator_proxy", %"class.base::detail::const_dict_iterator_proxy"* %9, i64 0, i32 0
  store %"class.base::flat_map"* %282, %"class.base::flat_map"** %283, align 8
  call void @_ZNK4base6detail25const_dict_iterator_proxy3endEv(%"class.base::detail::const_dict_iterator"* nonnull sret %8, %"class.base::detail::const_dict_iterator_proxy"* nonnull %9) #7
  %284 = call zeroext i1 @_ZN4base6detaileqERKNS0_19const_dict_iteratorES3_(%"class.base::detail::const_dict_iterator"* dereferenceable(8) %277, %"class.base::detail::const_dict_iterator"* nonnull dereferenceable(8) %8) #7
  call void @_ZN4base6detail19const_dict_iteratorD1Ev(%"class.base::detail::const_dict_iterator"* nonnull %8) #7
  call void @llvm.lifetime.end.p0i8(i64 8, i8* nonnull %279) #7
  call void @llvm.lifetime.end.p0i8(i64 8, i8* nonnull %278) #7
  br i1 %284, label %307, label %285

285:                                              ; preds = %271
  %286 = bitcast i32* %19 to i8*
  %287 = bitcast %"class.std::__1::basic_string"* %20 to i8*
  %288 = getelementptr inbounds %"class.std::__1::basic_string", %"class.std::__1::basic_string"* %20, i64 0, i32 0, i32 0, i32 0, i32 0, i32 0, i32 0
  %289 = getelementptr inbounds %"class.std::__1::basic_string", %"class.std::__1::basic_string"* %20, i64 0, i32 0, i32 0, i32 0, i32 0, i32 0, i32 1
  %290 = bitcast %"class.base::detail::const_dict_iterator::pointer"* %7 to i8*
  %291 = getelementptr inbounds %"class.base::detail::const_dict_iterator::pointer", %"class.base::detail::const_dict_iterator::pointer"* %7, i64 0, i32 0, i32 0
  %292 = bitcast %"class.base::detail::const_dict_iterator::pointer"* %6 to i8*
  %293 = getelementptr inbounds %"class.base::detail::const_dict_iterator::pointer", %"class.base::detail::const_dict_iterator::pointer"* %6, i64 0, i32 0, i32 1
  %294 = bitcast %"class.std::__1::basic_string"* %4 to i8*
  %295 = getelementptr inbounds %"class.std::__1::basic_string", %"class.std::__1::basic_string"* %4, i64 0, i32 0, i32 0, i32 0, i32 0, i32 0, i32 0
  %296 = bitcast %"class.base::BasicStringPiece"* %5 to i8*
  %297 = getelementptr inbounds %"class.base::BasicStringPiece", %"class.base::BasicStringPiece"* %5, i64 0, i32 0
  %298 = bitcast %"class.std::__1::basic_string"* %20 to %"struct.std::__1::basic_string<char, std::__1::char_traits<char>, std::__1::allocator<char> >::__short"*
  %299 = getelementptr inbounds %"struct.std::__1::basic_string<char, std::__1::char_traits<char>, std::__1::allocator<char> >::__short", %"struct.std::__1::basic_string<char, std::__1::char_traits<char>, std::__1::allocator<char> >::__short"* %298, i64 0, i32 1, i32 0
  %300 = getelementptr inbounds %"class.base::BasicStringPiece", %"class.base::BasicStringPiece"* %5, i64 0, i32 1
  %301 = bitcast %"class.std::__1::basic_string"* %4 to %"struct.std::__1::basic_string<char, std::__1::char_traits<char>, std::__1::allocator<char> >::__short"*
  %302 = getelementptr inbounds %"class.std::__1::basic_string", %"class.std::__1::basic_string"* %4, i64 0, i32 0, i32 0, i32 0, i32 0, i32 0, i32 1
  %303 = getelementptr inbounds %"struct.std::__1::basic_string<char, std::__1::char_traits<char>, std::__1::allocator<char> >::__short", %"struct.std::__1::basic_string<char, std::__1::char_traits<char>, std::__1::allocator<char> >::__short"* %301, i64 0, i32 1, i32 0
  %304 = getelementptr inbounds %class.SkBitmap, %class.SkBitmap* %17, i64 0, i32 0, i32 0
  %305 = bitcast %"class.logging::CheckError"* %21 to i8*
  %306 = bitcast %"class.gfx::ImageSkiaRep"* %22 to i8*
  br label %309

307:                                              ; preds = %368, %271
  call void @_ZN4base15DictionaryValue8IteratorD1Ev(%"class.base::DictionaryValue::Iterator"* nonnull %18) #7
  call void @llvm.lifetime.end.p0i8(i64 16, i8* nonnull %275) #7
  %308 = bitcast %"class.gfx::Image"* %23 to i8*
  call void @llvm.lifetime.start.p0i8(i64 8, i8* nonnull %308) #7
  call void @_ZN3gfx5ImageC1ERKNS_9ImageSkiaE(%"class.gfx::Image"* nonnull %23, %"class.gfx::ImageSkia"* nonnull dereferenceable(8) %16) #7
  call void @_ZN10extensions15ExtensionAction7SetIconEiRKN3gfx5ImageE(%"class.extensions::ExtensionAction"* %34, i32 %47, %"class.gfx::Image"* nonnull dereferenceable(8) %23) #7
  call void @_ZN3gfx5ImageD1Ev(%"class.gfx::Image"* nonnull %23) #7
  call void @llvm.lifetime.end.p0i8(i64 8, i8* nonnull %308) #7
  call void @_ZN8SkBitmapD1Ev(%class.SkBitmap* nonnull %17) #7
  call void @llvm.lifetime.end.p0i8(i64 56, i8* nonnull %274) #7
  call void @_ZN3gfx9ImageSkiaD1Ev(%"class.gfx::ImageSkia"* nonnull %16) #7
  call void @llvm.lifetime.end.p0i8(i64 8, i8* nonnull %272) #7
  br label %373

309:                                              ; preds = %368, %285
  call void @llvm.lifetime.start.p0i8(i64 4, i8* nonnull %286) #7
  store i32 0, i32* %19, align 4
  call void @llvm.lifetime.start.p0i8(i64 24, i8* nonnull %287) #7
  call void @llvm.memset.p0i8.i64(i8* nonnull align 8 %287, i8 0, i64 24, i1 false) #7
  call void @llvm.lifetime.start.p0i8(i64 16, i8* nonnull %290) #7
  call void @_ZNK4base6detail19const_dict_iteratorptEv(%"class.base::detail::const_dict_iterator::pointer"* nonnull sret %7, %"class.base::detail::const_dict_iterator"* %277) #7
  %310 = load %"class.std::__1::basic_string"*, %"class.std::__1::basic_string"** %291, align 8
  call void @llvm.lifetime.end.p0i8(i64 16, i8* nonnull %290) #7
  %311 = bitcast %"class.std::__1::basic_string"* %310 to %"struct.std::__1::basic_string<char, std::__1::char_traits<char>, std::__1::allocator<char> >::__short"*
  %312 = getelementptr inbounds %"struct.std::__1::basic_string<char, std::__1::char_traits<char>, std::__1::allocator<char> >::__short", %"struct.std::__1::basic_string<char, std::__1::char_traits<char>, std::__1::allocator<char> >::__short"* %311, i64 0, i32 1, i32 0
  %313 = load i8, i8* %312, align 1
  %314 = icmp slt i8 %313, 0
  %315 = getelementptr inbounds %"class.std::__1::basic_string", %"class.std::__1::basic_string"* %310, i64 0, i32 0, i32 0, i32 0, i32 0, i32 0, i32 0
  %316 = load i8*, i8** %315, align 8
  %317 = bitcast %"class.std::__1::basic_string"* %310 to i8*
  %318 = select i1 %314, i8* %316, i8* %317
  %319 = getelementptr inbounds %"class.std::__1::basic_string", %"class.std::__1::basic_string"* %310, i64 0, i32 0, i32 0, i32 0, i32 0, i32 0, i32 1
  %320 = load i64, i64* %319, align 8
  %321 = zext i8 %313 to i64
  %322 = select i1 %314, i64 %320, i64 %321
  %323 = call zeroext i1 @_ZN4base11StringToIntENS_16BasicStringPieceIcNSt3__111char_traitsIcEEEEPi(i8* %318, i64 %322, i32* nonnull %19) #7
  br i1 %323, label %324, label %363

324:                                              ; preds = %309
  call void @llvm.lifetime.start.p0i8(i64 16, i8* nonnull %292) #7
  call void @_ZNK4base6detail19const_dict_iteratorptEv(%"class.base::detail::const_dict_iterator::pointer"* nonnull sret %6, %"class.base::detail::const_dict_iterator"* %277) #7
  %325 = load %"class.base::Value"*, %"class.base::Value"** %293, align 8
  call void @llvm.lifetime.end.p0i8(i64 16, i8* nonnull %292) #7
  %326 = call zeroext i1 @_ZNK4base5Value11GetAsStringEPNSt3__112basic_stringIcNS1_11char_traitsIcEENS1_9allocatorIcEEEE(%"class.base::Value"* %325, %"class.std::__1::basic_string"* nonnull %20) #7
  br i1 %326, label %327, label %363

327:                                              ; preds = %324
  call void @llvm.lifetime.start.p0i8(i64 24, i8* nonnull %294) #7
  call void @llvm.memset.p0i8.i64(i8* nonnull align 8 %294, i8 0, i64 24, i1 false) #7
  call void @llvm.lifetime.start.p0i8(i64 16, i8* nonnull %296) #7
  %328 = load i8, i8* %299, align 1
  %329 = icmp slt i8 %328, 0
  %330 = load i8*, i8** %288, align 8
  %331 = select i1 %329, i8* %330, i8* %287
  store i8* %331, i8** %297, align 8
  %332 = load i64, i64* %289, align 8
  %333 = zext i8 %328 to i64
  %334 = select i1 %329, i64 %332, i64 %333
  store i64 %334, i64* %300, align 8
  %335 = call zeroext i1 @_ZN4base12Base64DecodeERKNS_16BasicStringPieceIcNSt3__111char_traitsIcEEEEPNS1_12basic_stringIcS3_NS1_9allocatorIcEEEE(%"class.base::BasicStringPiece"* nonnull dereferenceable(16) %5, %"class.std::__1::basic_string"* nonnull %4) #7
  call void @llvm.lifetime.end.p0i8(i64 16, i8* nonnull %296) #7
  br i1 %335, label %336, label %345

336:                                              ; preds = %327
  %337 = load i8, i8* %303, align 1
  %338 = icmp slt i8 %337, 0
  %339 = load i8*, i8** %295, align 8
  %340 = load i64, i64* %302, align 8
  %341 = zext i8 %337 to i64
  %342 = select i1 %338, i8* %339, i8* %294
  %343 = select i1 %338, i64 %340, i64 %341
  %344 = call zeroext i1 @_ZN3gfx8PNGCodec6DecodeEPKhmP8SkBitmap(i8* %342, i64 %343, %class.SkBitmap* nonnull %17) #7
  br label %345

345:                                              ; preds = %336, %327
  %346 = phi i1 [ %344, %336 ], [ false, %327 ]
  %347 = load i8, i8* %303, align 1
  %348 = icmp slt i8 %347, 0
  br i1 %348, label %349, label %351

349:                                              ; preds = %345
  %350 = load i8*, i8** %295, align 8
  call void @_ZdlPv(i8* %350) #8
  br label %351

351:                                              ; preds = %349, %345
  call void @llvm.lifetime.end.p0i8(i64 24, i8* nonnull %294) #7
  br i1 %346, label %352, label %363

352:                                              ; preds = %351
  %353 = load %class.SkPixelRef*, %class.SkPixelRef** %304, align 8
  %354 = icmp eq %class.SkPixelRef* %353, null
  br i1 %354, label %355, label %357

355:                                              ; preds = %352
  call void @llvm.lifetime.start.p0i8(i64 8, i8* nonnull %305) #7
  call void @_ZN7logging10CheckError5CheckEPKciS2_(%"class.logging::CheckError"* nonnull sret %21, i8* getelementptr inbounds ([68 x i8], [68 x i8]* @.str.2, i64 0, i64 0), i32 149, i8* getelementptr inbounds ([17 x i8], [17 x i8]* @.str.3, i64 0, i64 0)) #7
  %356 = call dereferenceable(160) %"class.std::__1::basic_ostream"* @_ZN7logging10CheckError6streamEv(%"class.logging::CheckError"* nonnull %21) #7
  call void @_ZN7logging10CheckErrorD1Ev(%"class.logging::CheckError"* nonnull %21) #7
  call void @llvm.lifetime.end.p0i8(i64 8, i8* nonnull %305) #7
  br label %357

357:                                              ; preds = %355, %352
  %358 = load i32, i32* %19, align 4
  %359 = sitofp i32 %358 to float
  %360 = call i32 @_ZN10extensions15ExtensionAction14ActionIconSizeEv() #7
  %361 = sitofp i32 %360 to float
  %362 = fdiv float %359, %361
  call void @llvm.lifetime.start.p0i8(i64 192, i8* nonnull %306) #7
  call void @_ZN3gfx12ImageSkiaRepC1ERK8SkBitmapf(%"class.gfx::ImageSkiaRep"* nonnull %22, %class.SkBitmap* nonnull dereferenceable(56) %17, float %362) #7
  call void @_ZN3gfx9ImageSkia17AddRepresentationERKNS_12ImageSkiaRepE(%"class.gfx::ImageSkia"* nonnull %16, %"class.gfx::ImageSkiaRep"* nonnull dereferenceable(192) %22) #7
  call void @_ZN3gfx12ImageSkiaRepD1Ev(%"class.gfx::ImageSkiaRep"* nonnull %22) #7
  call void @llvm.lifetime.end.p0i8(i64 192, i8* nonnull %306) #7
  br label %363

363:                                              ; preds = %357, %351, %324, %309
  %364 = load i8, i8* %299, align 1
  %365 = icmp slt i8 %364, 0
  br i1 %365, label %366, label %368

366:                                              ; preds = %363
  %367 = load i8*, i8** %288, align 8
  call void @_ZdlPv(i8* %367) #8
  br label %368

368:                                              ; preds = %366, %363
  call void @llvm.lifetime.end.p0i8(i64 24, i8* nonnull %287) #7
  call void @llvm.lifetime.end.p0i8(i64 4, i8* nonnull %286) #7
  %369 = call dereferenceable(8) %"class.base::detail::const_dict_iterator"* @_ZN4base6detail19const_dict_iteratorppEv(%"class.base::detail::const_dict_iterator"* %277) #7
  call void @llvm.lifetime.start.p0i8(i64 8, i8* nonnull %278) #7
  call void @llvm.lifetime.start.p0i8(i64 8, i8* nonnull %279) #7
  %370 = load %"class.base::Value"*, %"class.base::Value"** %280, align 8
  %371 = call %"class.base::flat_map"* @_ZNK4base5Value9DictItemsEv(%"class.base::Value"* %370) #7
  store %"class.base::flat_map"* %371, %"class.base::flat_map"** %283, align 8
  call void @_ZNK4base6detail25const_dict_iterator_proxy3endEv(%"class.base::detail::const_dict_iterator"* nonnull sret %8, %"class.base::detail::const_dict_iterator_proxy"* nonnull %9) #7
  %372 = call zeroext i1 @_ZN4base6detaileqERKNS0_19const_dict_iteratorES3_(%"class.base::detail::const_dict_iterator"* dereferenceable(8) %277, %"class.base::detail::const_dict_iterator"* nonnull dereferenceable(8) %8) #7
  call void @_ZN4base6detail19const_dict_iteratorD1Ev(%"class.base::detail::const_dict_iterator"* nonnull %8) #7
  call void @llvm.lifetime.end.p0i8(i64 8, i8* nonnull %279) #7
  call void @llvm.lifetime.end.p0i8(i64 8, i8* nonnull %278) #7
  br i1 %372, label %307, label %309

373:                                              ; preds = %307, %269, %266
  call void @llvm.lifetime.end.p0i8(i64 8, i8* nonnull %267) #7
  call void @llvm.lifetime.end.p0i8(i64 4, i8* nonnull %256) #7
  %374 = bitcast %"class.std::__1::basic_string"* %12 to %"struct.std::__1::basic_string<char, std::__1::char_traits<char>, std::__1::allocator<char> >::__short"*
  %375 = getelementptr inbounds %"struct.std::__1::basic_string<char, std::__1::char_traits<char>, std::__1::allocator<char> >::__short", %"struct.std::__1::basic_string<char, std::__1::char_traits<char>, std::__1::allocator<char> >::__short"* %374, i64 0, i32 1, i32 0
  %376 = load i8, i8* %375, align 1
  %377 = icmp slt i8 %376, 0
  br i1 %377, label %378, label %380

378:                                              ; preds = %373
  %379 = load i8*, i8** %49, align 8
  call void @_ZdlPv(i8* %379) #8
  br label %380

380:                                              ; preds = %373, %378
  call void @llvm.lifetime.end.p0i8(i64 24, i8* nonnull %48) #7
  br label %381

381:                                              ; preds = %43, %40, %380
  call void @llvm.lifetime.end.p0i8(i64 8, i8* nonnull %41) #7
  br label %382

382:                                              ; preds = %381, %36, %31, %3
  %383 = icmp eq %"class.base::Value"* %2, null
  br i1 %383, label %386, label %384

384:                                              ; preds = %382
  call void @_ZN4base5ValueD1Ev(%"class.base::Value"* nonnull %2) #7
  %385 = bitcast %"class.base::Value"* %2 to i8*
  call void @_ZdlPv(i8* %385) #8
  br label %386

386:                                              ; preds = %382, %384
  ret void
}

; Function Attrs: nounwind
declare void @_ZN4base8internal12CallbackBaseD2Ev(%"class.base::internal::CallbackBase"*) unnamed_addr #3

; Function Attrs: nounwind
declare void @_ZN4base8internal11WeakPtrBaseD2Ev(%"class.base::internal::WeakPtrBase"*) unnamed_addr #3

; Function Attrs: nounwind ssp uwtable
define hidden void @_ZThn8_N10extensions29ExtensionActionStorageManager17OnExtensionLoadedEPN7content14BrowserContextEPKNS_9ExtensionE(%"class.extensions::ExtensionActionStorageManager"*, %"class.content::BrowserContext"* nocapture readnone, %"class.extensions::Extension"*) unnamed_addr #0 align 2 {
  %4 = getelementptr inbounds %"class.extensions::ExtensionActionStorageManager", %"class.extensions::ExtensionActionStorageManager"* %0, i64 -1, i32 5, i32 0, i32 1
  %5 = bitcast i64* %4 to %"class.extensions::ExtensionActionStorageManager"*
  tail call void @_ZN10extensions29ExtensionActionStorageManager17OnExtensionLoadedEPN7content14BrowserContextEPKNS_9ExtensionE(%"class.extensions::ExtensionActionStorageManager"* %5, %"class.content::BrowserContext"* undef, %"class.extensions::Extension"* %2)
  ret void
}

; Function Attrs: nounwind ssp uwtable
define hidden void @_ZN10extensions29ExtensionActionStorageManager24OnExtensionActionUpdatedEPNS_15ExtensionActionEPN7content11WebContentsEPNS3_14BrowserContextE(%"class.extensions::ExtensionActionStorageManager"* nocapture readonly, %"class.extensions::ExtensionAction"*, %"class.content::WebContents"* readnone, %"class.content::BrowserContext"* readnone) unnamed_addr #0 align 2 {
  %5 = getelementptr inbounds %"class.extensions::ExtensionActionStorageManager", %"class.extensions::ExtensionActionStorageManager"* %0, i64 0, i32 2
  %6 = load %"class.content::BrowserContext"*, %"class.content::BrowserContext"** %5, align 8
  %7 = icmp eq %"class.content::BrowserContext"* %6, %3
  br i1 %7, label %8, label %15

8:                                                ; preds = %4
  %9 = icmp ne %"class.content::WebContents"* %2, null
  %10 = getelementptr inbounds %"class.extensions::ExtensionAction", %"class.extensions::ExtensionAction"* %1, i64 0, i32 2
  %11 = load i32, i32* %10, align 8
  %12 = icmp ne i32 %11, 1
  %13 = or i1 %9, %12
  br i1 %13, label %15, label %14

14:                                               ; preds = %8
  tail call void @_ZN10extensions29ExtensionActionStorageManager14WriteToStorageEPNS_15ExtensionActionE(%"class.extensions::ExtensionActionStorageManager"* %0, %"class.extensions::ExtensionAction"* %1)
  br label %15

15:                                               ; preds = %8, %14, %4
  ret void
}

; Function Attrs: nounwind ssp uwtable
define hidden void @_ZN10extensions29ExtensionActionStorageManager14WriteToStorageEPNS_15ExtensionActionE(%"class.extensions::ExtensionActionStorageManager"* nocapture readonly, %"class.extensions::ExtensionAction"*) local_unnamed_addr #0 align 2 {
  %3 = alloca %"class.std::__1::vector.102", align 8
  %4 = alloca %"class.base::BasicStringPiece", align 8
  %5 = alloca %"class.std::__1::basic_string", align 8
  %6 = alloca %class.GURL, align 8
  %7 = alloca %"class.std::__1::basic_string", align 8
  %8 = alloca %"class.std::__1::basic_string", align 8
  %9 = alloca %"class.std::__1::basic_string", align 8
  %10 = alloca %"class.std::__1::basic_string", align 8
  %11 = alloca %"class.gfx::ImageSkia", align 8
  %12 = alloca %"class.gfx::Image", align 8
  %13 = alloca %"class.std::__1::vector.243", align 8
  %14 = alloca %"class.std::__1::basic_string", align 8
  %15 = alloca %"class.std::__1::basic_string", align 8
  %16 = alloca %"class.std::__1::basic_string", align 8
  %17 = getelementptr inbounds %"class.extensions::ExtensionActionStorageManager", %"class.extensions::ExtensionActionStorageManager"* %0, i64 0, i32 2
  %18 = load %"class.content::BrowserContext"*, %"class.content::BrowserContext"** %17, align 8
  %19 = tail call %"class.extensions::ExtensionSystem"* @_ZN10extensions15ExtensionSystem3GetEPN7content14BrowserContextE(%"class.content::BrowserContext"* %18) #7
  %20 = bitcast %"class.extensions::ExtensionSystem"* %19 to %"class.extensions::StateStore"* (%"class.extensions::ExtensionSystem"*)***
  %21 = load %"class.extensions::StateStore"* (%"class.extensions::ExtensionSystem"*)**, %"class.extensions::StateStore"* (%"class.extensions::ExtensionSystem"*)*** %20, align 8
  %22 = getelementptr inbounds %"class.extensions::StateStore"* (%"class.extensions::ExtensionSystem"*)*, %"class.extensions::StateStore"* (%"class.extensions::ExtensionSystem"*)** %21, i64 9
  %23 = load %"class.extensions::StateStore"* (%"class.extensions::ExtensionSystem"*)*, %"class.extensions::StateStore"* (%"class.extensions::ExtensionSystem"*)** %22, align 8
  %24 = tail call %"class.extensions::StateStore"* %23(%"class.extensions::ExtensionSystem"* %19) #7
  %25 = icmp eq %"class.extensions::StateStore"* %24, null
  br i1 %25, label %352, label %26

26:                                               ; preds = %2
  %27 = load i32, i32* @_ZN10extensions15ExtensionAction13kDefaultTabIdE, align 4
  %28 = tail call i8* @_Znwm(i64 32) #8
  %29 = bitcast i8* %28 to %"class.base::DictionaryValue"*
  tail call void @_ZN4base15DictionaryValueC1Ev(%"class.base::DictionaryValue"* nonnull %29) #7
  %30 = bitcast %class.GURL* %6 to i8*
  call void @llvm.lifetime.start.p0i8(i64 120, i8* nonnull %30) #7
  call void @_ZNK10extensions15ExtensionAction11GetPopupUrlEi(%class.GURL* nonnull sret %6, %"class.extensions::ExtensionAction"* %1, i32 %27) #7
  %31 = call dereferenceable(24) %"class.std::__1::basic_string"* @_ZNK4GURL4specEv(%class.GURL* nonnull %6) #7
  %32 = bitcast %"class.std::__1::basic_string"* %31 to %"struct.std::__1::basic_string<char, std::__1::char_traits<char>, std::__1::allocator<char> >::__short"*
  %33 = getelementptr inbounds %"struct.std::__1::basic_string<char, std::__1::char_traits<char>, std::__1::allocator<char> >::__short", %"struct.std::__1::basic_string<char, std::__1::char_traits<char>, std::__1::allocator<char> >::__short"* %32, i64 0, i32 1, i32 0
  %34 = load i8, i8* %33, align 1
  %35 = icmp slt i8 %34, 0
  %36 = getelementptr inbounds %"class.std::__1::basic_string", %"class.std::__1::basic_string"* %31, i64 0, i32 0, i32 0, i32 0, i32 0, i32 0, i32 0
  %37 = load i8*, i8** %36, align 8
  %38 = bitcast %"class.std::__1::basic_string"* %31 to i8*
  %39 = select i1 %35, i8* %37, i8* %38
  %40 = getelementptr inbounds %"class.std::__1::basic_string", %"class.std::__1::basic_string"* %31, i64 0, i32 0, i32 0, i32 0, i32 0, i32 0, i32 1
  %41 = load i64, i64* %40, align 8
  %42 = zext i8 %34 to i64
  %43 = select i1 %35, i64 %41, i64 %42
  %44 = call %"class.base::Value"* @_ZN4base15DictionaryValue9SetStringENS_16BasicStringPieceIcNSt3__111char_traitsIcEEEES5_(%"class.base::DictionaryValue"* nonnull %29, i8* getelementptr inbounds ([11 x i8], [11 x i8]* @_ZN10extensions12_GLOBAL__N_119kPopupUrlStorageKeyE, i64 0, i64 0), i64 10, i8* %39, i64 %43) #7
  call void @_ZN4GURLD1Ev(%class.GURL* nonnull %6) #7
  call void @llvm.lifetime.end.p0i8(i64 120, i8* nonnull %30) #7
  %45 = bitcast %"class.std::__1::basic_string"* %7 to i8*
  call void @llvm.lifetime.start.p0i8(i64 24, i8* nonnull %45) #7
  %46 = getelementptr inbounds %"class.extensions::ExtensionAction", %"class.extensions::ExtensionAction"* %1, i64 0, i32 5
  call void @_ZNK10extensions15ExtensionAction8GetValueINSt3__112basic_stringIcNS2_11char_traitsIcEENS2_9allocatorIcEEEEEET_PKNS2_3mapIiS9_NS2_4lessIiEENS6_INS2_4pairIKiS9_EEEEEEi(%"class.std::__1::basic_string"* nonnull sret %7, %"class.extensions::ExtensionAction"* %1, %"class.std::__1::map.152"* %46, i32 %27) #7
  %47 = bitcast %"class.std::__1::basic_string"* %7 to %"struct.std::__1::basic_string<char, std::__1::char_traits<char>, std::__1::allocator<char> >::__short"*
  %48 = getelementptr inbounds %"struct.std::__1::basic_string<char, std::__1::char_traits<char>, std::__1::allocator<char> >::__short", %"struct.std::__1::basic_string<char, std::__1::char_traits<char>, std::__1::allocator<char> >::__short"* %47, i64 0, i32 1, i32 0
  %49 = load i8, i8* %48, align 1
  %50 = icmp slt i8 %49, 0
  %51 = getelementptr inbounds %"class.std::__1::basic_string", %"class.std::__1::basic_string"* %7, i64 0, i32 0, i32 0, i32 0, i32 0, i32 0, i32 0
  %52 = load i8*, i8** %51, align 8
  %53 = select i1 %50, i8* %52, i8* %45
  %54 = getelementptr inbounds %"class.std::__1::basic_string", %"class.std::__1::basic_string"* %7, i64 0, i32 0, i32 0, i32 0, i32 0, i32 0, i32 1
  %55 = load i64, i64* %54, align 8
  %56 = zext i8 %49 to i64
  %57 = select i1 %50, i64 %55, i64 %56
  %58 = call %"class.base::Value"* @_ZN4base15DictionaryValue9SetStringENS_16BasicStringPieceIcNSt3__111char_traitsIcEEEES5_(%"class.base::DictionaryValue"* nonnull %29, i8* getelementptr inbounds ([6 x i8], [6 x i8]* @_ZN10extensions12_GLOBAL__N_116kTitleStorageKeyE, i64 0, i64 0), i64 5, i8* %53, i64 %57) #7
  %59 = load i8, i8* %48, align 1
  %60 = icmp slt i8 %59, 0
  br i1 %60, label %61, label %63

61:                                               ; preds = %26
  %62 = load i8*, i8** %51, align 8
  call void @_ZdlPv(i8* %62) #8
  br label %63

63:                                               ; preds = %61, %26
  call void @llvm.lifetime.end.p0i8(i64 24, i8* nonnull %45) #7
  %64 = bitcast %"class.std::__1::basic_string"* %8 to i8*
  call void @llvm.lifetime.start.p0i8(i64 24, i8* nonnull %64) #7
  %65 = getelementptr inbounds %"class.extensions::ExtensionAction", %"class.extensions::ExtensionAction"* %1, i64 0, i32 7
  call void @_ZNK10extensions15ExtensionAction8GetValueINSt3__112basic_stringIcNS2_11char_traitsIcEENS2_9allocatorIcEEEEEET_PKNS2_3mapIiS9_NS2_4lessIiEENS6_INS2_4pairIKiS9_EEEEEEi(%"class.std::__1::basic_string"* nonnull sret %8, %"class.extensions::ExtensionAction"* %1, %"class.std::__1::map.152"* %65, i32 %27) #7
  %66 = bitcast %"class.std::__1::basic_string"* %8 to %"struct.std::__1::basic_string<char, std::__1::char_traits<char>, std::__1::allocator<char> >::__short"*
  %67 = getelementptr inbounds %"struct.std::__1::basic_string<char, std::__1::char_traits<char>, std::__1::allocator<char> >::__short", %"struct.std::__1::basic_string<char, std::__1::char_traits<char>, std::__1::allocator<char> >::__short"* %66, i64 0, i32 1, i32 0
  %68 = load i8, i8* %67, align 1
  %69 = icmp slt i8 %68, 0
  %70 = getelementptr inbounds %"class.std::__1::basic_string", %"class.std::__1::basic_string"* %8, i64 0, i32 0, i32 0, i32 0, i32 0, i32 0, i32 0
  %71 = load i8*, i8** %70, align 8
  %72 = select i1 %69, i8* %71, i8* %64
  %73 = getelementptr inbounds %"class.std::__1::basic_string", %"class.std::__1::basic_string"* %8, i64 0, i32 0, i32 0, i32 0, i32 0, i32 0, i32 1
  %74 = load i64, i64* %73, align 8
  %75 = zext i8 %68 to i64
  %76 = select i1 %69, i64 %74, i64 %75
  %77 = call %"class.base::Value"* @_ZN4base15DictionaryValue9SetStringENS_16BasicStringPieceIcNSt3__111char_traitsIcEEEES5_(%"class.base::DictionaryValue"* nonnull %29, i8* getelementptr inbounds ([11 x i8], [11 x i8]* @_ZN10extensions12_GLOBAL__N_120kBadgeTextStorageKeyE, i64 0, i64 0), i64 10, i8* %72, i64 %76) #7
  %78 = load i8, i8* %67, align 1
  %79 = icmp slt i8 %78, 0
  br i1 %79, label %80, label %82

80:                                               ; preds = %63
  %81 = load i8*, i8** %70, align 8
  call void @_ZdlPv(i8* %81) #8
  br label %82

82:                                               ; preds = %80, %63
  call void @llvm.lifetime.end.p0i8(i64 24, i8* nonnull %64) #7
  %83 = bitcast %"class.std::__1::basic_string"* %9 to i8*
  call void @llvm.lifetime.start.p0i8(i64 24, i8* nonnull %83) #7
  %84 = getelementptr inbounds %"class.extensions::ExtensionAction", %"class.extensions::ExtensionAction"* %1, i64 0, i32 8, i32 0, i32 1, i32 0, i32 0
  %85 = bitcast %"class.std::__1::__tree_end_node"* %84 to %"class.std::__1::__tree_node.265"**
  %86 = load %"class.std::__1::__tree_node.265"*, %"class.std::__1::__tree_node.265"** %85, align 8
  %87 = icmp eq %"class.std::__1::__tree_node.265"* %86, null
  br i1 %87, label %139, label %88

88:                                               ; preds = %82, %88
  %89 = phi %"class.std::__1::__tree_end_node"* [ %99, %88 ], [ %84, %82 ]
  %90 = phi %"class.std::__1::__tree_node.265"* [ %100, %88 ], [ %86, %82 ]
  %91 = getelementptr inbounds %"class.std::__1::__tree_node.265", %"class.std::__1::__tree_node.265"* %90, i64 0, i32 1, i32 0, i32 0
  %92 = load i32, i32* %91, align 4
  %93 = icmp slt i32 %92, %27
  %94 = getelementptr inbounds %"class.std::__1::__tree_node.265", %"class.std::__1::__tree_node.265"* %90, i64 0, i32 0, i32 1
  %95 = bitcast %"class.std::__1::__tree_node_base"** %94 to %"class.std::__1::__tree_node.265"**
  %96 = getelementptr inbounds %"class.std::__1::__tree_node.265", %"class.std::__1::__tree_node.265"* %90, i64 0, i32 0, i32 0
  %97 = bitcast %"class.std::__1::__tree_node.265"* %90 to %"class.std::__1::__tree_node.265"**
  %98 = select i1 %93, %"class.std::__1::__tree_node.265"** %95, %"class.std::__1::__tree_node.265"** %97
  %99 = select i1 %93, %"class.std::__1::__tree_end_node"* %89, %"class.std::__1::__tree_end_node"* %96
  %100 = load %"class.std::__1::__tree_node.265"*, %"class.std::__1::__tree_node.265"** %98, align 8
  %101 = icmp eq %"class.std::__1::__tree_node.265"* %100, null
  br i1 %101, label %102, label %88

102:                                              ; preds = %88
  %103 = icmp eq %"class.std::__1::__tree_end_node"* %99, %84
  br i1 %103, label %104, label %105

104:                                              ; preds = %105, %102
  br label %114

105:                                              ; preds = %102
  %106 = bitcast %"class.std::__1::__tree_end_node"* %99 to %"class.std::__1::__tree_node.265"*
  %107 = getelementptr inbounds %"class.std::__1::__tree_node.265", %"class.std::__1::__tree_node.265"* %106, i64 0, i32 1, i32 0, i32 0
  %108 = load i32, i32* %107, align 4
  %109 = icmp sgt i32 %108, %27
  br i1 %109, label %104, label %110

110:                                              ; preds = %105
  %111 = getelementptr inbounds %"class.std::__1::__tree_end_node", %"class.std::__1::__tree_end_node"* %99, i64 4
  %112 = bitcast %"class.std::__1::__tree_end_node"* %111 to i32*
  %113 = load i32, i32* %112, align 4
  br label %139

114:                                              ; preds = %104, %114
  %115 = phi %"class.std::__1::__tree_end_node"* [ %125, %114 ], [ %84, %104 ]
  %116 = phi %"class.std::__1::__tree_node.265"* [ %126, %114 ], [ %86, %104 ]
  %117 = getelementptr inbounds %"class.std::__1::__tree_node.265", %"class.std::__1::__tree_node.265"* %116, i64 0, i32 1, i32 0, i32 0
  %118 = load i32, i32* %117, align 4
  %119 = icmp slt i32 %118, %27
  %120 = getelementptr inbounds %"class.std::__1::__tree_node.265", %"class.std::__1::__tree_node.265"* %116, i64 0, i32 0, i32 1
  %121 = bitcast %"class.std::__1::__tree_node_base"** %120 to %"class.std::__1::__tree_node.265"**
  %122 = getelementptr inbounds %"class.std::__1::__tree_node.265", %"class.std::__1::__tree_node.265"* %116, i64 0, i32 0, i32 0
  %123 = bitcast %"class.std::__1::__tree_node.265"* %116 to %"class.std::__1::__tree_node.265"**
  %124 = select i1 %119, %"class.std::__1::__tree_node.265"** %121, %"class.std::__1::__tree_node.265"** %123
  %125 = select i1 %119, %"class.std::__1::__tree_end_node"* %115, %"class.std::__1::__tree_end_node"* %122
  %126 = load %"class.std::__1::__tree_node.265"*, %"class.std::__1::__tree_node.265"** %124, align 8
  %127 = icmp eq %"class.std::__1::__tree_node.265"* %126, null
  br i1 %127, label %128, label %114

128:                                              ; preds = %114
  %129 = icmp eq %"class.std::__1::__tree_end_node"* %125, %84
  br i1 %129, label %139, label %130

130:                                              ; preds = %128
  %131 = bitcast %"class.std::__1::__tree_end_node"* %125 to %"class.std::__1::__tree_node.265"*
  %132 = getelementptr inbounds %"class.std::__1::__tree_node.265", %"class.std::__1::__tree_node.265"* %131, i64 0, i32 1, i32 0, i32 0
  %133 = load i32, i32* %132, align 4
  %134 = icmp slt i32 %27, %133
  br i1 %134, label %139, label %135

135:                                              ; preds = %130
  %136 = getelementptr inbounds %"class.std::__1::__tree_end_node", %"class.std::__1::__tree_end_node"* %125, i64 4
  %137 = bitcast %"class.std::__1::__tree_end_node"* %136 to i32*
  %138 = load i32, i32* %137, align 4
  br label %139

139:                                              ; preds = %135, %130, %128, %110, %82
  %140 = phi i32 [ %113, %110 ], [ %138, %135 ], [ 0, %128 ], [ 0, %130 ], [ 0, %82 ]
  call void @_ZN4base14NumberToStringEj(%"class.std::__1::basic_string"* nonnull sret %9, i32 %140) #7
  %141 = bitcast %"class.std::__1::basic_string"* %9 to %"struct.std::__1::basic_string<char, std::__1::char_traits<char>, std::__1::allocator<char> >::__short"*
  %142 = getelementptr inbounds %"struct.std::__1::basic_string<char, std::__1::char_traits<char>, std::__1::allocator<char> >::__short", %"struct.std::__1::basic_string<char, std::__1::char_traits<char>, std::__1::allocator<char> >::__short"* %141, i64 0, i32 1, i32 0
  %143 = load i8, i8* %142, align 1
  %144 = icmp slt i8 %143, 0
  %145 = getelementptr inbounds %"class.std::__1::basic_string", %"class.std::__1::basic_string"* %9, i64 0, i32 0, i32 0, i32 0, i32 0, i32 0, i32 0
  %146 = load i8*, i8** %145, align 8
  %147 = select i1 %144, i8* %146, i8* %83
  %148 = getelementptr inbounds %"class.std::__1::basic_string", %"class.std::__1::basic_string"* %9, i64 0, i32 0, i32 0, i32 0, i32 0, i32 0, i32 1
  %149 = load i64, i64* %148, align 8
  %150 = zext i8 %143 to i64
  %151 = select i1 %144, i64 %149, i64 %150
  %152 = call %"class.base::Value"* @_ZN4base15DictionaryValue9SetStringENS_16BasicStringPieceIcNSt3__111char_traitsIcEEEES5_(%"class.base::DictionaryValue"* nonnull %29, i8* getelementptr inbounds ([23 x i8], [23 x i8]* @_ZN10extensions12_GLOBAL__N_131kBadgeBackgroundColorStorageKeyE, i64 0, i64 0), i64 22, i8* %147, i64 %151) #7
  %153 = load i8, i8* %142, align 1
  %154 = icmp slt i8 %153, 0
  br i1 %154, label %155, label %157

155:                                              ; preds = %139
  %156 = load i8*, i8** %145, align 8
  call void @_ZdlPv(i8* %156) #8
  br label %157

157:                                              ; preds = %155, %139
  call void @llvm.lifetime.end.p0i8(i64 24, i8* nonnull %83) #7
  %158 = bitcast %"class.std::__1::basic_string"* %10 to i8*
  call void @llvm.lifetime.start.p0i8(i64 24, i8* nonnull %158) #7
  %159 = getelementptr inbounds %"class.extensions::ExtensionAction", %"class.extensions::ExtensionAction"* %1, i64 0, i32 9, i32 0, i32 1, i32 0, i32 0
  %160 = bitcast %"class.std::__1::__tree_end_node"* %159 to %"class.std::__1::__tree_node.265"**
  %161 = load %"class.std::__1::__tree_node.265"*, %"class.std::__1::__tree_node.265"** %160, align 8
  %162 = icmp eq %"class.std::__1::__tree_node.265"* %161, null
  br i1 %162, label %214, label %163

163:                                              ; preds = %157, %163
  %164 = phi %"class.std::__1::__tree_end_node"* [ %174, %163 ], [ %159, %157 ]
  %165 = phi %"class.std::__1::__tree_node.265"* [ %175, %163 ], [ %161, %157 ]
  %166 = getelementptr inbounds %"class.std::__1::__tree_node.265", %"class.std::__1::__tree_node.265"* %165, i64 0, i32 1, i32 0, i32 0
  %167 = load i32, i32* %166, align 4
  %168 = icmp slt i32 %167, %27
  %169 = getelementptr inbounds %"class.std::__1::__tree_node.265", %"class.std::__1::__tree_node.265"* %165, i64 0, i32 0, i32 1
  %170 = bitcast %"class.std::__1::__tree_node_base"** %169 to %"class.std::__1::__tree_node.265"**
  %171 = getelementptr inbounds %"class.std::__1::__tree_node.265", %"class.std::__1::__tree_node.265"* %165, i64 0, i32 0, i32 0
  %172 = bitcast %"class.std::__1::__tree_node.265"* %165 to %"class.std::__1::__tree_node.265"**
  %173 = select i1 %168, %"class.std::__1::__tree_node.265"** %170, %"class.std::__1::__tree_node.265"** %172
  %174 = select i1 %168, %"class.std::__1::__tree_end_node"* %164, %"class.std::__1::__tree_end_node"* %171
  %175 = load %"class.std::__1::__tree_node.265"*, %"class.std::__1::__tree_node.265"** %173, align 8
  %176 = icmp eq %"class.std::__1::__tree_node.265"* %175, null
  br i1 %176, label %177, label %163

177:                                              ; preds = %163
  %178 = icmp eq %"class.std::__1::__tree_end_node"* %174, %159
  br i1 %178, label %179, label %180

179:                                              ; preds = %180, %177
  br label %189

180:                                              ; preds = %177
  %181 = bitcast %"class.std::__1::__tree_end_node"* %174 to %"class.std::__1::__tree_node.265"*
  %182 = getelementptr inbounds %"class.std::__1::__tree_node.265", %"class.std::__1::__tree_node.265"* %181, i64 0, i32 1, i32 0, i32 0
  %183 = load i32, i32* %182, align 4
  %184 = icmp sgt i32 %183, %27
  br i1 %184, label %179, label %185

185:                                              ; preds = %180
  %186 = getelementptr inbounds %"class.std::__1::__tree_end_node", %"class.std::__1::__tree_end_node"* %174, i64 4
  %187 = bitcast %"class.std::__1::__tree_end_node"* %186 to i32*
  %188 = load i32, i32* %187, align 4
  br label %214

189:                                              ; preds = %179, %189
  %190 = phi %"class.std::__1::__tree_end_node"* [ %200, %189 ], [ %159, %179 ]
  %191 = phi %"class.std::__1::__tree_node.265"* [ %201, %189 ], [ %161, %179 ]
  %192 = getelementptr inbounds %"class.std::__1::__tree_node.265", %"class.std::__1::__tree_node.265"* %191, i64 0, i32 1, i32 0, i32 0
  %193 = load i32, i32* %192, align 4
  %194 = icmp slt i32 %193, %27
  %195 = getelementptr inbounds %"class.std::__1::__tree_node.265", %"class.std::__1::__tree_node.265"* %191, i64 0, i32 0, i32 1
  %196 = bitcast %"class.std::__1::__tree_node_base"** %195 to %"class.std::__1::__tree_node.265"**
  %197 = getelementptr inbounds %"class.std::__1::__tree_node.265", %"class.std::__1::__tree_node.265"* %191, i64 0, i32 0, i32 0
  %198 = bitcast %"class.std::__1::__tree_node.265"* %191 to %"class.std::__1::__tree_node.265"**
  %199 = select i1 %194, %"class.std::__1::__tree_node.265"** %196, %"class.std::__1::__tree_node.265"** %198
  %200 = select i1 %194, %"class.std::__1::__tree_end_node"* %190, %"class.std::__1::__tree_end_node"* %197
  %201 = load %"class.std::__1::__tree_node.265"*, %"class.std::__1::__tree_node.265"** %199, align 8
  %202 = icmp eq %"class.std::__1::__tree_node.265"* %201, null
  br i1 %202, label %203, label %189

203:                                              ; preds = %189
  %204 = icmp eq %"class.std::__1::__tree_end_node"* %200, %159
  br i1 %204, label %214, label %205

205:                                              ; preds = %203
  %206 = bitcast %"class.std::__1::__tree_end_node"* %200 to %"class.std::__1::__tree_node.265"*
  %207 = getelementptr inbounds %"class.std::__1::__tree_node.265", %"class.std::__1::__tree_node.265"* %206, i64 0, i32 1, i32 0, i32 0
  %208 = load i32, i32* %207, align 4
  %209 = icmp slt i32 %27, %208
  br i1 %209, label %214, label %210

210:                                              ; preds = %205
  %211 = getelementptr inbounds %"class.std::__1::__tree_end_node", %"class.std::__1::__tree_end_node"* %200, i64 4
  %212 = bitcast %"class.std::__1::__tree_end_node"* %211 to i32*
  %213 = load i32, i32* %212, align 4
  br label %214

214:                                              ; preds = %210, %205, %203, %185, %157
  %215 = phi i32 [ %188, %185 ], [ %213, %210 ], [ 0, %203 ], [ 0, %205 ], [ 0, %157 ]
  call void @_ZN4base14NumberToStringEj(%"class.std::__1::basic_string"* nonnull sret %10, i32 %215) #7
  %216 = bitcast %"class.std::__1::basic_string"* %10 to %"struct.std::__1::basic_string<char, std::__1::char_traits<char>, std::__1::allocator<char> >::__short"*
  %217 = getelementptr inbounds %"struct.std::__1::basic_string<char, std::__1::char_traits<char>, std::__1::allocator<char> >::__short", %"struct.std::__1::basic_string<char, std::__1::char_traits<char>, std::__1::allocator<char> >::__short"* %216, i64 0, i32 1, i32 0
  %218 = load i8, i8* %217, align 1
  %219 = icmp slt i8 %218, 0
  %220 = getelementptr inbounds %"class.std::__1::basic_string", %"class.std::__1::basic_string"* %10, i64 0, i32 0, i32 0, i32 0, i32 0, i32 0, i32 0
  %221 = load i8*, i8** %220, align 8
  %222 = select i1 %219, i8* %221, i8* %158
  %223 = getelementptr inbounds %"class.std::__1::basic_string", %"class.std::__1::basic_string"* %10, i64 0, i32 0, i32 0, i32 0, i32 0, i32 0, i32 1
  %224 = load i64, i64* %223, align 8
  %225 = zext i8 %218 to i64
  %226 = select i1 %219, i64 %224, i64 %225
  %227 = call %"class.base::Value"* @_ZN4base15DictionaryValue9SetStringENS_16BasicStringPieceIcNSt3__111char_traitsIcEEEES5_(%"class.base::DictionaryValue"* nonnull %29, i8* getelementptr inbounds ([17 x i8], [17 x i8]* @_ZN10extensions12_GLOBAL__N_125kBadgeTextColorStorageKeyE, i64 0, i64 0), i64 16, i8* %222, i64 %226) #7
  %228 = load i8, i8* %217, align 1
  %229 = icmp slt i8 %228, 0
  br i1 %229, label %230, label %232

230:                                              ; preds = %214
  %231 = load i8*, i8** %220, align 8
  call void @_ZdlPv(i8* %231) #8
  br label %232

232:                                              ; preds = %230, %214
  call void @llvm.lifetime.end.p0i8(i64 24, i8* nonnull %158) #7
  %233 = call zeroext i1 @_ZNK10extensions15ExtensionAction12GetIsVisibleEi(%"class.extensions::ExtensionAction"* %1, i32 %27) #7
  %234 = select i1 %233, i32 2, i32 0
  %235 = call %"class.base::Value"* @_ZN4base15DictionaryValue10SetIntegerENS_16BasicStringPieceIcNSt3__111char_traitsIcEEEEi(%"class.base::DictionaryValue"* nonnull %29, i8* getelementptr inbounds ([11 x i8], [11 x i8]* @_ZN10extensions12_GLOBAL__N_121kAppearanceStorageKeyE, i64 0, i64 0), i64 10, i32 %234) #7
  %236 = bitcast %"class.gfx::ImageSkia"* %11 to i8*
  call void @llvm.lifetime.start.p0i8(i64 8, i8* nonnull %236) #7
  %237 = getelementptr inbounds %"class.gfx::ImageSkia", %"class.gfx::ImageSkia"* %11, i64 0, i32 0, i32 0
  store %"class.gfx::internal::ImageSkiaStorage"* inttoptr (i64 -6148914691236517206 to %"class.gfx::internal::ImageSkiaStorage"*), %"class.gfx::internal::ImageSkiaStorage"** %237, align 8
  %238 = bitcast %"class.gfx::Image"* %12 to i8*
  call void @llvm.lifetime.start.p0i8(i64 8, i8* nonnull %238) #7
  call void @_ZNK10extensions15ExtensionAction20GetExplicitlySetIconEi(%"class.gfx::Image"* nonnull sret %12, %"class.extensions::ExtensionAction"* %1, i32 %27) #7
  call void @_ZNK3gfx5Image11AsImageSkiaEv(%"class.gfx::ImageSkia"* nonnull sret %11, %"class.gfx::Image"* nonnull %12) #7
  call void @_ZN3gfx5ImageD1Ev(%"class.gfx::Image"* nonnull %12) #7
  call void @llvm.lifetime.end.p0i8(i64 8, i8* nonnull %238) #7
  %239 = load %"class.gfx::internal::ImageSkiaStorage"*, %"class.gfx::internal::ImageSkiaStorage"** %237, align 8
  %240 = icmp eq %"class.gfx::internal::ImageSkiaStorage"* %239, null
  br i1 %240, label %339, label %241

241:                                              ; preds = %232
  %242 = call i8* @_Znwm(i64 32) #8
  %243 = bitcast i8* %242 to %"class.base::DictionaryValue"*
  call void @_ZN4base15DictionaryValueC1Ev(%"class.base::DictionaryValue"* nonnull %243) #7
  %244 = bitcast %"class.std::__1::vector.243"* %13 to i8*
  call void @llvm.lifetime.start.p0i8(i64 24, i8* nonnull %244) #7
  %245 = getelementptr inbounds %"class.std::__1::vector.243", %"class.std::__1::vector.243"* %13, i64 0, i32 0, i32 0
  %246 = getelementptr inbounds %"class.std::__1::vector.243", %"class.std::__1::vector.243"* %13, i64 0, i32 0, i32 1
  call void @llvm.memset.p0i8.i64(i8* nonnull align 8 %244, i8 -86, i64 24, i1 false) #7
  call void @_ZNK3gfx9ImageSkia10image_repsEv(%"class.std::__1::vector.243"* nonnull sret %13, %"class.gfx::ImageSkia"* nonnull %11) #7
  %247 = load %"class.gfx::ImageSkiaRep"*, %"class.gfx::ImageSkiaRep"** %245, align 8
  %248 = load %"class.gfx::ImageSkiaRep"*, %"class.gfx::ImageSkiaRep"** %246, align 8
  %249 = icmp eq %"class.gfx::ImageSkiaRep"* %247, %248
  br i1 %249, label %270, label %250

250:                                              ; preds = %241
  %251 = bitcast %"class.std::__1::basic_string"* %14 to i8*
  %252 = getelementptr inbounds %"class.std::__1::basic_string", %"class.std::__1::basic_string"* %14, i64 0, i32 0, i32 0, i32 0, i32 0, i32 0, i32 0
  %253 = getelementptr inbounds %"class.std::__1::basic_string", %"class.std::__1::basic_string"* %14, i64 0, i32 0, i32 0, i32 0, i32 0, i32 0, i32 1
  %254 = bitcast %"class.std::__1::basic_string"* %14 to %"struct.std::__1::basic_string<char, std::__1::char_traits<char>, std::__1::allocator<char> >::__short"*
  %255 = getelementptr inbounds %"struct.std::__1::basic_string<char, std::__1::char_traits<char>, std::__1::allocator<char> >::__short", %"struct.std::__1::basic_string<char, std::__1::char_traits<char>, std::__1::allocator<char> >::__short"* %254, i64 0, i32 1, i32 0
  %256 = bitcast %"class.std::__1::basic_string"* %15 to i8*
  %257 = bitcast %"class.std::__1::vector.102"* %3 to i8*
  %258 = getelementptr inbounds %"class.std::__1::vector.102", %"class.std::__1::vector.102"* %3, i64 0, i32 0, i32 0
  %259 = getelementptr inbounds %"class.std::__1::vector.102", %"class.std::__1::vector.102"* %3, i64 0, i32 0, i32 1
  %260 = bitcast %"class.base::BasicStringPiece"* %4 to i8*
  %261 = getelementptr inbounds %"class.base::BasicStringPiece", %"class.base::BasicStringPiece"* %4, i64 0, i32 1
  %262 = bitcast %"class.std::__1::vector.102"* %3 to i64*
  %263 = bitcast i8** %259 to i64*
  %264 = bitcast %"class.base::BasicStringPiece"* %4 to i64*
  %265 = bitcast %"class.std::__1::basic_string"* %5 to i8*
  %266 = bitcast %"class.std::__1::basic_string"* %15 to %"struct.std::__1::basic_string<char, std::__1::char_traits<char>, std::__1::allocator<char> >::__short"*
  %267 = getelementptr inbounds %"struct.std::__1::basic_string<char, std::__1::char_traits<char>, std::__1::allocator<char> >::__short", %"struct.std::__1::basic_string<char, std::__1::char_traits<char>, std::__1::allocator<char> >::__short"* %266, i64 0, i32 1, i32 0
  %268 = getelementptr inbounds %"class.std::__1::basic_string", %"class.std::__1::basic_string"* %15, i64 0, i32 0, i32 0, i32 0, i32 0, i32 0, i32 0
  %269 = getelementptr inbounds %"class.std::__1::basic_string", %"class.std::__1::basic_string"* %15, i64 0, i32 0, i32 0, i32 0, i32 0, i32 0, i32 1
  br label %289

270:                                              ; preds = %336, %241
  %271 = bitcast i8* %242 to %"class.base::Value"*
  %272 = call %"class.base::Value"* @_ZN4base15DictionaryValue3SetENS_16BasicStringPieceIcNSt3__111char_traitsIcEEEENS2_10unique_ptrINS_5ValueENS2_14default_deleteIS7_EEEE(%"class.base::DictionaryValue"* nonnull %29, i8* getelementptr inbounds ([5 x i8], [5 x i8]* @_ZN10extensions12_GLOBAL__N_115kIconStorageKeyE, i64 0, i64 0), i64 4, %"class.base::Value"* nonnull %271) #7
  %273 = load %"class.gfx::ImageSkiaRep"*, %"class.gfx::ImageSkiaRep"** %245, align 8
  %274 = icmp eq %"class.gfx::ImageSkiaRep"* %273, null
  br i1 %274, label %288, label %275

275:                                              ; preds = %270
  %276 = bitcast %"class.gfx::ImageSkiaRep"* %273 to i8*
  %277 = load %"class.gfx::ImageSkiaRep"*, %"class.gfx::ImageSkiaRep"** %246, align 8
  %278 = icmp eq %"class.gfx::ImageSkiaRep"* %277, %273
  br i1 %278, label %286, label %279

279:                                              ; preds = %275, %279
  %280 = phi %"class.gfx::ImageSkiaRep"* [ %281, %279 ], [ %277, %275 ]
  %281 = getelementptr inbounds %"class.gfx::ImageSkiaRep", %"class.gfx::ImageSkiaRep"* %280, i64 -1
  call void @_ZN3gfx12ImageSkiaRepD1Ev(%"class.gfx::ImageSkiaRep"* %281) #7
  %282 = icmp eq %"class.gfx::ImageSkiaRep"* %281, %273
  br i1 %282, label %283, label %279

283:                                              ; preds = %279
  %284 = bitcast %"class.std::__1::vector.243"* %13 to i8**
  %285 = load i8*, i8** %284, align 8
  br label %286

286:                                              ; preds = %283, %275
  %287 = phi i8* [ %285, %283 ], [ %276, %275 ]
  store %"class.gfx::ImageSkiaRep"* %273, %"class.gfx::ImageSkiaRep"** %246, align 8
  call void @_ZdlPv(i8* %287) #8
  br label %288

288:                                              ; preds = %286, %270
  call void @llvm.lifetime.end.p0i8(i64 24, i8* nonnull %244) #7
  br label %339

289:                                              ; preds = %336, %250
  %290 = phi %"class.gfx::ImageSkiaRep"* [ %247, %250 ], [ %337, %336 ]
  %291 = getelementptr inbounds %"class.gfx::ImageSkiaRep", %"class.gfx::ImageSkiaRep"* %290, i64 0, i32 6
  %292 = load float, float* %291, align 8
  %293 = fcmp oeq float %292, 0.000000e+00
  %294 = select i1 %293, float 1.000000e+00, float %292
  %295 = call i32 @_ZNK3gfx9ImageSkia5widthEv(%"class.gfx::ImageSkia"* nonnull %11) #7
  %296 = sitofp i32 %295 to float
  %297 = fmul float %294, %296
  %298 = fptosi float %297 to i32
  call void @llvm.lifetime.start.p0i8(i64 24, i8* nonnull %251) #7
  call void @llvm.memset.p0i8.i64(i8* nonnull align 8 %251, i8 -86, i64 24, i1 false) #7
  call void @_ZN4base14NumberToStringEi(%"class.std::__1::basic_string"* nonnull sret %14, i32 %298) #7
  %299 = load i8, i8* %255, align 1
  %300 = icmp slt i8 %299, 0
  %301 = load i8*, i8** %252, align 8
  %302 = select i1 %300, i8* %301, i8* %251
  %303 = load i64, i64* %253, align 8
  %304 = zext i8 %299 to i64
  %305 = select i1 %300, i64 %303, i64 %304
  call void @llvm.lifetime.start.p0i8(i64 24, i8* nonnull %256) #7
  %306 = call dereferenceable(56) %class.SkBitmap* @_ZNK3gfx12ImageSkiaRep9GetBitmapEv(%"class.gfx::ImageSkiaRep"* %290) #7
  call void @llvm.lifetime.start.p0i8(i64 24, i8* nonnull %257) #7, !noalias !16
  call void @llvm.memset.p0i8.i64(i8* nonnull align 8 %257, i8 0, i64 24, i1 false) #7, !noalias !16
  %307 = call zeroext i1 @_ZN3gfx8PNGCodec18EncodeBGRASkBitmapERK8SkBitmapbPNSt3__16vectorIhNS4_9allocatorIhEEEE(%class.SkBitmap* dereferenceable(56) %306, i1 zeroext false, %"class.std::__1::vector.102"* nonnull %3) #7, !noalias !16
  br i1 %307, label %309, label %308

308:                                              ; preds = %289
  call void @llvm.memset.p0i8.i64(i8* nonnull align 8 %256, i8 0, i64 24, i1 false) #7, !alias.scope !16
  br label %313

309:                                              ; preds = %289
  call void @llvm.lifetime.start.p0i8(i64 16, i8* nonnull %260) #7, !noalias !16
  %310 = load i64, i64* %262, align 8, !noalias !16
  %311 = load i64, i64* %263, align 8, !noalias !16
  %312 = sub i64 %311, %310
  store i64 %310, i64* %264, align 8, !noalias !16
  store i64 %312, i64* %261, align 8, !noalias !16
  call void @llvm.lifetime.start.p0i8(i64 24, i8* nonnull %265) #7, !noalias !16
  call void @llvm.memset.p0i8.i64(i8* nonnull align 8 %265, i8 0, i64 24, i1 false) #7, !noalias !16
  call void @_ZN4base12Base64EncodeERKNS_16BasicStringPieceIcNSt3__111char_traitsIcEEEEPNS1_12basic_stringIcS3_NS1_9allocatorIcEEEE(%"class.base::BasicStringPiece"* nonnull dereferenceable(16) %4, %"class.std::__1::basic_string"* nonnull %5) #7, !noalias !16
  call void @llvm.memcpy.p0i8.p0i8.i64(i8* nonnull align 8 %256, i8* nonnull align 8 %265, i64 24, i1 false) #7
  call void @llvm.lifetime.end.p0i8(i64 24, i8* nonnull %265) #7, !noalias !16
  call void @llvm.lifetime.end.p0i8(i64 16, i8* nonnull %260) #7, !noalias !16
  br label %313

313:                                              ; preds = %309, %308
  %314 = load i8*, i8** %258, align 8, !noalias !16
  %315 = icmp eq i8* %314, null
  br i1 %315, label %318, label %316

316:                                              ; preds = %313
  %317 = ptrtoint i8* %314 to i64
  store i64 %317, i64* %263, align 8, !noalias !16
  call void @_ZdlPv(i8* nonnull %314) #8, !noalias !16
  br label %318

318:                                              ; preds = %316, %313
  call void @llvm.lifetime.end.p0i8(i64 24, i8* nonnull %257) #7, !noalias !16
  %319 = load i8, i8* %267, align 1
  %320 = icmp slt i8 %319, 0
  %321 = load i8*, i8** %268, align 8
  %322 = select i1 %320, i8* %321, i8* %256
  %323 = load i64, i64* %269, align 8
  %324 = zext i8 %319 to i64
  %325 = select i1 %320, i64 %323, i64 %324
  %326 = call %"class.base::Value"* @_ZN4base15DictionaryValue9SetStringENS_16BasicStringPieceIcNSt3__111char_traitsIcEEEES5_(%"class.base::DictionaryValue"* nonnull %243, i8* %302, i64 %305, i8* %322, i64 %325) #7
  %327 = load i8, i8* %267, align 1
  %328 = icmp slt i8 %327, 0
  br i1 %328, label %329, label %331

329:                                              ; preds = %318
  %330 = load i8*, i8** %268, align 8
  call void @_ZdlPv(i8* %330) #8
  br label %331

331:                                              ; preds = %329, %318
  call void @llvm.lifetime.end.p0i8(i64 24, i8* nonnull %256) #7
  %332 = load i8, i8* %255, align 1
  %333 = icmp slt i8 %332, 0
  br i1 %333, label %334, label %336

334:                                              ; preds = %331
  %335 = load i8*, i8** %252, align 8
  call void @_ZdlPv(i8* %335) #8
  br label %336

336:                                              ; preds = %334, %331
  call void @llvm.lifetime.end.p0i8(i64 24, i8* nonnull %251) #7
  %337 = getelementptr inbounds %"class.gfx::ImageSkiaRep", %"class.gfx::ImageSkiaRep"* %290, i64 1
  %338 = icmp eq %"class.gfx::ImageSkiaRep"* %337, %248
  br i1 %338, label %270, label %289

339:                                              ; preds = %232, %288
  call void @_ZN3gfx9ImageSkiaD1Ev(%"class.gfx::ImageSkia"* nonnull %11) #7
  call void @llvm.lifetime.end.p0i8(i64 8, i8* nonnull %236) #7
  %340 = getelementptr inbounds %"class.extensions::ExtensionAction", %"class.extensions::ExtensionAction"* %1, i64 0, i32 0
  %341 = bitcast %"class.std::__1::basic_string"* %16 to i8*
  call void @llvm.lifetime.start.p0i8(i64 24, i8* nonnull %341) #7
  %342 = bitcast %"class.std::__1::basic_string"* %16 to %"struct.std::__1::basic_string<char, std::__1::char_traits<char>, std::__1::allocator<char> >::__short"*
  %343 = getelementptr inbounds %"struct.std::__1::basic_string<char, std::__1::char_traits<char>, std::__1::allocator<char> >::__short", %"struct.std::__1::basic_string<char, std::__1::char_traits<char>, std::__1::allocator<char> >::__short"* %342, i64 0, i32 1, i32 0
  store i8 14, i8* %343, align 1
  call void @llvm.memcpy.p0i8.p0i8.i64(i8* nonnull align 8 %341, i8* align 1 getelementptr inbounds ([15 x i8], [15 x i8]* @_ZN10extensions12_GLOBAL__N_124kBrowserActionStorageKeyE, i64 0, i64 0), i64 14, i1 false) #7
  %344 = getelementptr inbounds i8, i8* %341, i64 14
  store i8 0, i8* %344, align 2
  %345 = bitcast i8* %28 to %"class.base::Value"*
  call void @_ZN10extensions10StateStore17SetExtensionValueERKNSt3__112basic_stringIcNS1_11char_traitsIcEENS1_9allocatorIcEEEES9_NS1_10unique_ptrIN4base5ValueENS1_14default_deleteISC_EEEE(%"class.extensions::StateStore"* nonnull %24, %"class.std::__1::basic_string"* dereferenceable(24) %340, %"class.std::__1::basic_string"* nonnull dereferenceable(24) %16, %"class.base::Value"* nonnull %345) #7
  %346 = load i8, i8* %343, align 1
  %347 = icmp slt i8 %346, 0
  br i1 %347, label %348, label %351

348:                                              ; preds = %339
  %349 = getelementptr inbounds %"class.std::__1::basic_string", %"class.std::__1::basic_string"* %16, i64 0, i32 0, i32 0, i32 0, i32 0, i32 0, i32 0
  %350 = load i8*, i8** %349, align 8
  call void @_ZdlPv(i8* %350) #8
  br label %351

351:                                              ; preds = %348, %339
  call void @llvm.lifetime.end.p0i8(i64 24, i8* nonnull %341) #7
  br label %352

352:                                              ; preds = %2, %351
  ret void
}

; Function Attrs: nounwind ssp uwtable
define hidden void @_ZN10extensions29ExtensionActionStorageManager32OnExtensionActionAPIShuttingDownEv(%"class.extensions::ExtensionActionStorageManager"* nocapture) unnamed_addr #0 align 2 {
  %2 = getelementptr inbounds %"class.extensions::ExtensionActionStorageManager", %"class.extensions::ExtensionActionStorageManager"* %0, i64 0, i32 3, i32 1
  %3 = load %"class.extensions::ExtensionActionAPI"*, %"class.extensions::ExtensionActionAPI"** %2, align 8
  %4 = icmp eq %"class.extensions::ExtensionActionAPI"* %3, null
  br i1 %4, label %8, label %5

5:                                                ; preds = %1
  %6 = getelementptr inbounds %"class.extensions::ExtensionActionStorageManager", %"class.extensions::ExtensionActionStorageManager"* %0, i64 0, i32 3, i32 0
  %7 = load %"class.extensions::ExtensionActionAPI::Observer"*, %"class.extensions::ExtensionActionAPI::Observer"** %6, align 8
  tail call void @_ZN10extensions18ExtensionActionAPI14RemoveObserverEPNS0_8ObserverE(%"class.extensions::ExtensionActionAPI"* nonnull %3, %"class.extensions::ExtensionActionAPI::Observer"* %7) #7
  store %"class.extensions::ExtensionActionAPI"* null, %"class.extensions::ExtensionActionAPI"** %2, align 8
  br label %8

8:                                                ; preds = %1, %5
  ret void
}

declare void @_ZN10extensions10StateStore17SetExtensionValueERKNSt3__112basic_stringIcNS1_11char_traitsIcEENS1_9allocatorIcEEEES9_NS1_10unique_ptrIN4base5ValueENS1_14default_deleteISC_EEEE(%"class.extensions::StateStore"*, %"class.std::__1::basic_string"* dereferenceable(24), %"class.std::__1::basic_string"* dereferenceable(24), %"class.base::Value"*) local_unnamed_addr #1

declare %"class.extensions::Extension"* @_ZNK10extensions12ExtensionSet7GetByIDERKNSt3__112basic_stringIcNS1_11char_traitsIcEENS1_9allocatorIcEEEE(%"class.extensions::ExtensionSet"*, %"class.std::__1::basic_string"* dereferenceable(24)) local_unnamed_addr #1

declare zeroext i1 @_ZNK4base5Value15GetAsDictionaryEPPKNS_15DictionaryValueE(%"class.base::Value"*, %"class.base::DictionaryValue"**) local_unnamed_addr #1

declare %"class.extensions::ExtensionSystem"* @_ZN10extensions15ExtensionSystem3GetEPN7content14BrowserContextE(%"class.content::BrowserContext"*) local_unnamed_addr #1

; Function Attrs: nounwind ssp uwtable
define linkonce_odr hidden void @_ZN10extensions25ExtensionRegistryObserver16OnExtensionReadyEPN7content14BrowserContextEPKNS_9ExtensionE(%"class.extensions::ExtensionRegistryObserver"*, %"class.content::BrowserContext"*, %"class.extensions::Extension"*) unnamed_addr #0 comdat align 2 {
  ret void
}

; Function Attrs: nounwind ssp uwtable
define linkonce_odr hidden void @_ZN10extensions25ExtensionRegistryObserver19OnExtensionUnloadedEPN7content14BrowserContextEPKNS_9ExtensionENS_23UnloadedExtensionReasonE(%"class.extensions::ExtensionRegistryObserver"*, %"class.content::BrowserContext"*, %"class.extensions::Extension"*, i32) unnamed_addr #0 comdat align 2 {
  ret void
}

; Function Attrs: nounwind ssp uwtable
define linkonce_odr hidden void @_ZN10extensions25ExtensionRegistryObserver26OnExtensionWillBeInstalledEPN7content14BrowserContextEPKNS_9ExtensionEbRKNSt3__112basic_stringIcNS7_11char_traitsIcEENS7_9allocatorIcEEEE(%"class.extensions::ExtensionRegistryObserver"*, %"class.content::BrowserContext"*, %"class.extensions::Extension"*, i1 zeroext, %"class.std::__1::basic_string"* dereferenceable(24)) unnamed_addr #0 comdat align 2 {
  ret void
}

; Function Attrs: nounwind ssp uwtable
define linkonce_odr hidden void @_ZN10extensions25ExtensionRegistryObserver20OnExtensionInstalledEPN7content14BrowserContextEPKNS_9ExtensionEb(%"class.extensions::ExtensionRegistryObserver"*, %"class.content::BrowserContext"*, %"class.extensions::Extension"*, i1 zeroext) unnamed_addr #0 comdat align 2 {
  ret void
}

; Function Attrs: nounwind ssp uwtable
define linkonce_odr hidden void @_ZN10extensions25ExtensionRegistryObserver22OnExtensionUninstalledEPN7content14BrowserContextEPKNS_9ExtensionENS_15UninstallReasonE(%"class.extensions::ExtensionRegistryObserver"*, %"class.content::BrowserContext"*, %"class.extensions::Extension"*, i32) unnamed_addr #0 comdat align 2 {
  ret void
}

; Function Attrs: nounwind ssp uwtable
define linkonce_odr hidden void @_ZN10extensions25ExtensionRegistryObserver31OnExtensionUninstallationDeniedEPN7content14BrowserContextEPKNS_9ExtensionE(%"class.extensions::ExtensionRegistryObserver"*, %"class.content::BrowserContext"*, %"class.extensions::Extension"*) unnamed_addr #0 comdat align 2 {
  ret void
}

; Function Attrs: nounwind ssp uwtable
define linkonce_odr hidden void @_ZN10extensions25ExtensionRegistryObserver10OnShutdownEPNS_17ExtensionRegistryE(%"class.extensions::ExtensionRegistryObserver"*, %"class.extensions::ExtensionRegistry"*) unnamed_addr #0 comdat align 2 {
  ret void
}

; Function Attrs: nobuiltin nofree
declare noalias nonnull i8* @_Znwm(i64) local_unnamed_addr #5

declare void @_ZN4base15DictionaryValueC1Ev(%"class.base::DictionaryValue"*) unnamed_addr #1

declare %"class.base::Value"* @_ZN4base15DictionaryValue9SetStringENS_16BasicStringPieceIcNSt3__111char_traitsIcEEEES5_(%"class.base::DictionaryValue"*, i8*, i64, i8*, i64) local_unnamed_addr #1

declare void @_ZNK10extensions15ExtensionAction11GetPopupUrlEi(%class.GURL* sret, %"class.extensions::ExtensionAction"*, i32) local_unnamed_addr #1

declare dereferenceable(24) %"class.std::__1::basic_string"* @_ZNK4GURL4specEv(%class.GURL*) local_unnamed_addr #1

; Function Attrs: nounwind
declare void @_ZN4GURLD1Ev(%class.GURL*) unnamed_addr #3

declare %"class.base::Value"* @_ZN4base15DictionaryValue10SetIntegerENS_16BasicStringPieceIcNSt3__111char_traitsIcEEEEi(%"class.base::DictionaryValue"*, i8*, i64, i32) local_unnamed_addr #1

; Function Attrs: nounwind ssp uwtable
define linkonce_odr hidden zeroext i1 @_ZNK10extensions15ExtensionAction12GetIsVisibleEi(%"class.extensions::ExtensionAction"*, i32) local_unnamed_addr #0 comdat align 2 {
  %3 = getelementptr inbounds %"class.extensions::ExtensionAction", %"class.extensions::ExtensionAction"* %0, i64 0, i32 10, i32 0, i32 1, i32 0, i32 0
  %4 = bitcast %"class.std::__1::__tree_end_node"* %3 to %"class.std::__1::__tree_node.270"**
  %5 = load %"class.std::__1::__tree_node.270"*, %"class.std::__1::__tree_node.270"** %4, align 8
  %6 = icmp eq %"class.std::__1::__tree_node.270"* %5, null
  br i1 %6, label %35, label %7

7:                                                ; preds = %2, %7
  %8 = phi %"class.std::__1::__tree_end_node"* [ %18, %7 ], [ %3, %2 ]
  %9 = phi %"class.std::__1::__tree_node.270"* [ %19, %7 ], [ %5, %2 ]
  %10 = getelementptr inbounds %"class.std::__1::__tree_node.270", %"class.std::__1::__tree_node.270"* %9, i64 0, i32 2, i32 0, i32 0
  %11 = load i32, i32* %10, align 4
  %12 = icmp slt i32 %11, %1
  %13 = getelementptr inbounds %"class.std::__1::__tree_node.270", %"class.std::__1::__tree_node.270"* %9, i64 0, i32 0, i32 1
  %14 = bitcast %"class.std::__1::__tree_node_base"** %13 to %"class.std::__1::__tree_node.270"**
  %15 = getelementptr inbounds %"class.std::__1::__tree_node.270", %"class.std::__1::__tree_node.270"* %9, i64 0, i32 0, i32 0
  %16 = bitcast %"class.std::__1::__tree_node.270"* %9 to %"class.std::__1::__tree_node.270"**
  %17 = select i1 %12, %"class.std::__1::__tree_node.270"** %14, %"class.std::__1::__tree_node.270"** %16
  %18 = select i1 %12, %"class.std::__1::__tree_end_node"* %8, %"class.std::__1::__tree_end_node"* %15
  %19 = load %"class.std::__1::__tree_node.270"*, %"class.std::__1::__tree_node.270"** %17, align 8
  %20 = icmp eq %"class.std::__1::__tree_node.270"* %19, null
  br i1 %20, label %21, label %7

21:                                               ; preds = %7
  %22 = icmp eq %"class.std::__1::__tree_end_node"* %18, %3
  br i1 %22, label %35, label %23

23:                                               ; preds = %21
  %24 = bitcast %"class.std::__1::__tree_end_node"* %18 to %"class.std::__1::__tree_node.270"*
  %25 = getelementptr inbounds %"class.std::__1::__tree_node.270", %"class.std::__1::__tree_node.270"* %24, i64 0, i32 2, i32 0, i32 0
  %26 = load i32, i32* %25, align 4
  %27 = icmp sgt i32 %26, %1
  br i1 %27, label %35, label %28

28:                                               ; preds = %23
  %29 = getelementptr inbounds %"class.std::__1::__tree_end_node", %"class.std::__1::__tree_end_node"* %18, i64 4
  %30 = icmp eq %"class.std::__1::__tree_end_node"* %29, null
  br i1 %30, label %35, label %31

31:                                               ; preds = %28
  %32 = bitcast %"class.std::__1::__tree_end_node"* %29 to i8*
  %33 = load i8, i8* %32, align 1, !range !19
  %34 = icmp ne i8 %33, 0
  br label %93

35:                                               ; preds = %23, %21, %2, %28
  %36 = getelementptr inbounds %"class.extensions::ExtensionAction", %"class.extensions::ExtensionAction"* %0, i64 0, i32 11, i32 0, i32 1, i32 0, i32 0
  %37 = bitcast %"class.std::__1::__tree_end_node"* %36 to %"class.std::__1::__tree_node.277"**
  %38 = load %"class.std::__1::__tree_node.277"*, %"class.std::__1::__tree_node.277"** %37, align 8
  %39 = icmp eq %"class.std::__1::__tree_node.277"* %38, null
  br i1 %39, label %62, label %40

40:                                               ; preds = %35, %40
  %41 = phi %"class.std::__1::__tree_end_node"* [ %51, %40 ], [ %36, %35 ]
  %42 = phi %"class.std::__1::__tree_node.277"* [ %52, %40 ], [ %38, %35 ]
  %43 = getelementptr inbounds %"class.std::__1::__tree_node.277", %"class.std::__1::__tree_node.277"* %42, i64 0, i32 1, i32 0, i32 0
  %44 = load i32, i32* %43, align 4
  %45 = icmp slt i32 %44, %1
  %46 = getelementptr inbounds %"class.std::__1::__tree_node.277", %"class.std::__1::__tree_node.277"* %42, i64 0, i32 0, i32 1
  %47 = bitcast %"class.std::__1::__tree_node_base"** %46 to %"class.std::__1::__tree_node.277"**
  %48 = getelementptr inbounds %"class.std::__1::__tree_node.277", %"class.std::__1::__tree_node.277"* %42, i64 0, i32 0, i32 0
  %49 = bitcast %"class.std::__1::__tree_node.277"* %42 to %"class.std::__1::__tree_node.277"**
  %50 = select i1 %45, %"class.std::__1::__tree_node.277"** %47, %"class.std::__1::__tree_node.277"** %49
  %51 = select i1 %45, %"class.std::__1::__tree_end_node"* %41, %"class.std::__1::__tree_end_node"* %48
  %52 = load %"class.std::__1::__tree_node.277"*, %"class.std::__1::__tree_node.277"** %50, align 8
  %53 = icmp eq %"class.std::__1::__tree_node.277"* %52, null
  br i1 %53, label %54, label %40

54:                                               ; preds = %40
  %55 = icmp eq %"class.std::__1::__tree_end_node"* %51, %36
  br i1 %55, label %62, label %56

56:                                               ; preds = %54
  %57 = bitcast %"class.std::__1::__tree_end_node"* %51 to %"class.std::__1::__tree_node.277"*
  %58 = getelementptr inbounds %"class.std::__1::__tree_node.277", %"class.std::__1::__tree_node.277"* %57, i64 0, i32 1, i32 0, i32 0
  %59 = load i32, i32* %58, align 4
  %60 = icmp sle i32 %59, %1
  %61 = or i1 %6, %60
  br i1 %61, label %93, label %63

62:                                               ; preds = %54, %35
  br i1 %6, label %93, label %63

63:                                               ; preds = %56, %62
  %64 = load i32, i32* @_ZN10extensions15ExtensionAction13kDefaultTabIdE, align 4
  br label %65

65:                                               ; preds = %65, %63
  %66 = phi %"class.std::__1::__tree_end_node"* [ %3, %63 ], [ %76, %65 ]
  %67 = phi %"class.std::__1::__tree_node.270"* [ %5, %63 ], [ %77, %65 ]
  %68 = getelementptr inbounds %"class.std::__1::__tree_node.270", %"class.std::__1::__tree_node.270"* %67, i64 0, i32 2, i32 0, i32 0
  %69 = load i32, i32* %68, align 4
  %70 = icmp slt i32 %69, %64
  %71 = getelementptr inbounds %"class.std::__1::__tree_node.270", %"class.std::__1::__tree_node.270"* %67, i64 0, i32 0, i32 1
  %72 = bitcast %"class.std::__1::__tree_node_base"** %71 to %"class.std::__1::__tree_node.270"**
  %73 = getelementptr inbounds %"class.std::__1::__tree_node.270", %"class.std::__1::__tree_node.270"* %67, i64 0, i32 0, i32 0
  %74 = bitcast %"class.std::__1::__tree_node.270"* %67 to %"class.std::__1::__tree_node.270"**
  %75 = select i1 %70, %"class.std::__1::__tree_node.270"** %72, %"class.std::__1::__tree_node.270"** %74
  %76 = select i1 %70, %"class.std::__1::__tree_end_node"* %66, %"class.std::__1::__tree_end_node"* %73
  %77 = load %"class.std::__1::__tree_node.270"*, %"class.std::__1::__tree_node.270"** %75, align 8
  %78 = icmp eq %"class.std::__1::__tree_node.270"* %77, null
  br i1 %78, label %79, label %65

79:                                               ; preds = %65
  %80 = icmp eq %"class.std::__1::__tree_end_node"* %76, %3
  br i1 %80, label %93, label %81

81:                                               ; preds = %79
  %82 = bitcast %"class.std::__1::__tree_end_node"* %76 to %"class.std::__1::__tree_node.270"*
  %83 = getelementptr inbounds %"class.std::__1::__tree_node.270", %"class.std::__1::__tree_node.270"* %82, i64 0, i32 2, i32 0, i32 0
  %84 = load i32, i32* %83, align 4
  %85 = icmp slt i32 %64, %84
  br i1 %85, label %93, label %86

86:                                               ; preds = %81
  %87 = getelementptr inbounds %"class.std::__1::__tree_end_node", %"class.std::__1::__tree_end_node"* %76, i64 4
  %88 = icmp eq %"class.std::__1::__tree_end_node"* %87, null
  br i1 %88, label %93, label %89

89:                                               ; preds = %86
  %90 = bitcast %"class.std::__1::__tree_end_node"* %87 to i8*
  %91 = load i8, i8* %90, align 1, !range !19
  %92 = icmp ne i8 %91, 0
  br label %93

93:                                               ; preds = %56, %31, %81, %79, %62, %86, %89
  %94 = phi i1 [ %92, %89 ], [ false, %86 ], [ false, %62 ], [ false, %79 ], [ false, %81 ], [ %34, %31 ], [ %60, %56 ]
  ret i1 %94
}

declare void @_ZNK10extensions15ExtensionAction20GetExplicitlySetIconEi(%"class.gfx::Image"* sret, %"class.extensions::ExtensionAction"*, i32) local_unnamed_addr #1

declare void @_ZNK3gfx5Image11AsImageSkiaEv(%"class.gfx::ImageSkia"* sret, %"class.gfx::Image"*) local_unnamed_addr #1

; Function Attrs: nounwind
declare void @_ZN3gfx5ImageD1Ev(%"class.gfx::Image"*) unnamed_addr #3

declare void @_ZNK3gfx9ImageSkia10image_repsEv(%"class.std::__1::vector.243"* sret, %"class.gfx::ImageSkia"*) local_unnamed_addr #1

declare i32 @_ZNK3gfx9ImageSkia5widthEv(%"class.gfx::ImageSkia"*) local_unnamed_addr #1

declare void @_ZN4base14NumberToStringEi(%"class.std::__1::basic_string"* sret, i32) local_unnamed_addr #1

declare dereferenceable(56) %class.SkBitmap* @_ZNK3gfx12ImageSkiaRep9GetBitmapEv(%"class.gfx::ImageSkiaRep"*) local_unnamed_addr #1

declare %"class.base::Value"* @_ZN4base15DictionaryValue3SetENS_16BasicStringPieceIcNSt3__111char_traitsIcEEEENS2_10unique_ptrINS_5ValueENS2_14default_deleteIS7_EEEE(%"class.base::DictionaryValue"*, i8*, i64, %"class.base::Value"*) local_unnamed_addr #1

; Function Attrs: nounwind
declare void @_ZN3gfx9ImageSkiaD1Ev(%"class.gfx::ImageSkia"*) unnamed_addr #3

declare void @_ZN7logging10CheckError5CheckEPKciS2_(%"class.logging::CheckError"* sret, i8*, i32, i8*) local_unnamed_addr #1

declare dereferenceable(160) %"class.std::__1::basic_ostream"* @_ZN7logging10CheckError6streamEv(%"class.logging::CheckError"*) local_unnamed_addr #1

; Function Attrs: nounwind
declare void @_ZN7logging10CheckErrorD1Ev(%"class.logging::CheckError"*) unnamed_addr #3

; Function Attrs: nounwind ssp uwtable
define linkonce_odr hidden void @_ZNK10extensions15ExtensionAction8GetValueINSt3__112basic_stringIcNS2_11char_traitsIcEENS2_9allocatorIcEEEEEET_PKNS2_3mapIiS9_NS2_4lessIiEENS6_INS2_4pairIKiS9_EEEEEEi(%"class.std::__1::basic_string"* noalias sret, %"class.extensions::ExtensionAction"*, %"class.std::__1::map.152"*, i32) local_unnamed_addr #0 comdat align 2 {
  %5 = getelementptr inbounds %"class.std::__1::map.152", %"class.std::__1::map.152"* %2, i64 0, i32 0, i32 1, i32 0, i32 0
  %6 = bitcast %"class.std::__1::__tree_end_node"* %5 to %"class.std::__1::__tree_node"**
  %7 = load %"class.std::__1::__tree_node"*, %"class.std::__1::__tree_node"** %6, align 8
  %8 = icmp eq %"class.std::__1::__tree_node"* %7, null
  br i1 %8, label %87, label %9

9:                                                ; preds = %4, %9
  %10 = phi %"class.std::__1::__tree_end_node"* [ %20, %9 ], [ %5, %4 ]
  %11 = phi %"class.std::__1::__tree_node"* [ %21, %9 ], [ %7, %4 ]
  %12 = getelementptr inbounds %"class.std::__1::__tree_node", %"class.std::__1::__tree_node"* %11, i64 0, i32 1, i32 0, i32 0
  %13 = load i32, i32* %12, align 4
  %14 = icmp slt i32 %13, %3
  %15 = getelementptr inbounds %"class.std::__1::__tree_node", %"class.std::__1::__tree_node"* %11, i64 0, i32 0, i32 1
  %16 = bitcast %"class.std::__1::__tree_node_base"** %15 to %"class.std::__1::__tree_node"**
  %17 = getelementptr inbounds %"class.std::__1::__tree_node", %"class.std::__1::__tree_node"* %11, i64 0, i32 0, i32 0
  %18 = bitcast %"class.std::__1::__tree_node"* %11 to %"class.std::__1::__tree_node"**
  %19 = select i1 %14, %"class.std::__1::__tree_node"** %16, %"class.std::__1::__tree_node"** %18
  %20 = select i1 %14, %"class.std::__1::__tree_end_node"* %10, %"class.std::__1::__tree_end_node"* %17
  %21 = load %"class.std::__1::__tree_node"*, %"class.std::__1::__tree_node"** %19, align 8
  %22 = icmp eq %"class.std::__1::__tree_node"* %21, null
  br i1 %22, label %23, label %9

23:                                               ; preds = %9
  %24 = icmp eq %"class.std::__1::__tree_end_node"* %20, %5
  br i1 %24, label %47, label %25

25:                                               ; preds = %23
  %26 = getelementptr inbounds %"class.std::__1::__tree_end_node", %"class.std::__1::__tree_end_node"* %20, i64 4
  %27 = bitcast %"class.std::__1::__tree_end_node"* %26 to i32*
  %28 = load i32, i32* %27, align 4
  %29 = icmp sgt i32 %28, %3
  br i1 %29, label %47, label %30

30:                                               ; preds = %25
  %31 = getelementptr inbounds %"class.std::__1::__tree_end_node", %"class.std::__1::__tree_end_node"* %20, i64 5
  %32 = icmp eq %"class.std::__1::__tree_end_node"* %31, null
  br i1 %32, label %47, label %33

33:                                               ; preds = %30
  %34 = bitcast %"class.std::__1::__tree_end_node"* %31 to %"struct.std::__1::basic_string<char, std::__1::char_traits<char>, std::__1::allocator<char> >::__short"*
  %35 = getelementptr inbounds %"struct.std::__1::basic_string<char, std::__1::char_traits<char>, std::__1::allocator<char> >::__short", %"struct.std::__1::basic_string<char, std::__1::char_traits<char>, std::__1::allocator<char> >::__short"* %34, i64 0, i32 1, i32 0
  %36 = load i8, i8* %35, align 1
  %37 = icmp slt i8 %36, 0
  br i1 %37, label %41, label %38

38:                                               ; preds = %33
  %39 = bitcast %"class.std::__1::basic_string"* %0 to i8*
  %40 = bitcast %"class.std::__1::__tree_end_node"* %31 to i8*
  tail call void @llvm.memcpy.p0i8.p0i8.i64(i8* align 8 %39, i8* nonnull align 8 %40, i64 24, i1 false) #7
  br label %89

41:                                               ; preds = %33
  %42 = bitcast %"class.std::__1::__tree_end_node"* %31 to i8**
  %43 = load i8*, i8** %42, align 8
  %44 = getelementptr inbounds %"class.std::__1::__tree_end_node", %"class.std::__1::__tree_end_node"* %20, i64 6
  %45 = bitcast %"class.std::__1::__tree_end_node"* %44 to i64*
  %46 = load i64, i64* %45, align 8
  tail call void @_ZNSt3__112basic_stringIcNS_11char_traitsIcEENS_9allocatorIcEEE25__init_copy_ctor_externalEPKcm(%"class.std::__1::basic_string"* %0, i8* %43, i64 %46) #7
  br label %89

47:                                               ; preds = %30, %23, %25
  %48 = load i32, i32* @_ZN10extensions15ExtensionAction13kDefaultTabIdE, align 4
  br label %49

49:                                               ; preds = %49, %47
  %50 = phi %"class.std::__1::__tree_end_node"* [ %5, %47 ], [ %60, %49 ]
  %51 = phi %"class.std::__1::__tree_node"* [ %7, %47 ], [ %61, %49 ]
  %52 = getelementptr inbounds %"class.std::__1::__tree_node", %"class.std::__1::__tree_node"* %51, i64 0, i32 1, i32 0, i32 0
  %53 = load i32, i32* %52, align 4
  %54 = icmp slt i32 %53, %48
  %55 = getelementptr inbounds %"class.std::__1::__tree_node", %"class.std::__1::__tree_node"* %51, i64 0, i32 0, i32 1
  %56 = bitcast %"class.std::__1::__tree_node_base"** %55 to %"class.std::__1::__tree_node"**
  %57 = getelementptr inbounds %"class.std::__1::__tree_node", %"class.std::__1::__tree_node"* %51, i64 0, i32 0, i32 0
  %58 = bitcast %"class.std::__1::__tree_node"* %51 to %"class.std::__1::__tree_node"**
  %59 = select i1 %54, %"class.std::__1::__tree_node"** %56, %"class.std::__1::__tree_node"** %58
  %60 = select i1 %54, %"class.std::__1::__tree_end_node"* %50, %"class.std::__1::__tree_end_node"* %57
  %61 = load %"class.std::__1::__tree_node"*, %"class.std::__1::__tree_node"** %59, align 8
  %62 = icmp eq %"class.std::__1::__tree_node"* %61, null
  br i1 %62, label %63, label %49

63:                                               ; preds = %49
  %64 = icmp eq %"class.std::__1::__tree_end_node"* %60, %5
  br i1 %64, label %87, label %65

65:                                               ; preds = %63
  %66 = getelementptr inbounds %"class.std::__1::__tree_end_node", %"class.std::__1::__tree_end_node"* %60, i64 4
  %67 = bitcast %"class.std::__1::__tree_end_node"* %66 to i32*
  %68 = load i32, i32* %67, align 4
  %69 = icmp slt i32 %48, %68
  br i1 %69, label %87, label %70

70:                                               ; preds = %65
  %71 = getelementptr inbounds %"class.std::__1::__tree_end_node", %"class.std::__1::__tree_end_node"* %60, i64 5
  %72 = icmp eq %"class.std::__1::__tree_end_node"* %71, null
  br i1 %72, label %87, label %73

73:                                               ; preds = %70
  %74 = bitcast %"class.std::__1::__tree_end_node"* %71 to %"struct.std::__1::basic_string<char, std::__1::char_traits<char>, std::__1::allocator<char> >::__short"*
  %75 = getelementptr inbounds %"struct.std::__1::basic_string<char, std::__1::char_traits<char>, std::__1::allocator<char> >::__short", %"struct.std::__1::basic_string<char, std::__1::char_traits<char>, std::__1::allocator<char> >::__short"* %74, i64 0, i32 1, i32 0
  %76 = load i8, i8* %75, align 1
  %77 = icmp slt i8 %76, 0
  br i1 %77, label %81, label %78

78:                                               ; preds = %73
  %79 = bitcast %"class.std::__1::basic_string"* %0 to i8*
  %80 = bitcast %"class.std::__1::__tree_end_node"* %71 to i8*
  tail call void @llvm.memcpy.p0i8.p0i8.i64(i8* align 8 %79, i8* nonnull align 8 %80, i64 24, i1 false) #7
  br label %89

81:                                               ; preds = %73
  %82 = bitcast %"class.std::__1::__tree_end_node"* %71 to i8**
  %83 = load i8*, i8** %82, align 8
  %84 = getelementptr inbounds %"class.std::__1::__tree_end_node", %"class.std::__1::__tree_end_node"* %60, i64 6
  %85 = bitcast %"class.std::__1::__tree_end_node"* %84 to i64*
  %86 = load i64, i64* %85, align 8
  tail call void @_ZNSt3__112basic_stringIcNS_11char_traitsIcEENS_9allocatorIcEEE25__init_copy_ctor_externalEPKcm(%"class.std::__1::basic_string"* %0, i8* %83, i64 %86) #7
  br label %89

87:                                               ; preds = %4, %65, %63, %70
  %88 = bitcast %"class.std::__1::basic_string"* %0 to i8*
  tail call void @llvm.memset.p0i8.i64(i8* align 8 %88, i8 0, i64 24, i1 false) #7, !alias.scope !20
  br label %89

89:                                               ; preds = %81, %78, %41, %38, %87
  ret void
}

; Function Attrs: argmemonly nounwind
declare void @llvm.memcpy.p0i8.p0i8.i64(i8* nocapture writeonly, i8* nocapture readonly, i64, i1 immarg) #2

declare void @_ZNSt3__112basic_stringIcNS_11char_traitsIcEENS_9allocatorIcEEE25__init_copy_ctor_externalEPKcm(%"class.std::__1::basic_string"*, i8*, i64) local_unnamed_addr #1

declare void @_ZN4base14NumberToStringEj(%"class.std::__1::basic_string"* sret, i32) local_unnamed_addr #1

declare zeroext i1 @_ZN3gfx8PNGCodec18EncodeBGRASkBitmapERK8SkBitmapbPNSt3__16vectorIhNS4_9allocatorIhEEEE(%class.SkBitmap* dereferenceable(56), i1 zeroext, %"class.std::__1::vector.102"*) local_unnamed_addr #1

declare void @_ZN4base12Base64EncodeERKNS_16BasicStringPieceIcNSt3__111char_traitsIcEEEEPNS1_12basic_stringIcS3_NS1_9allocatorIcEEEE(%"class.base::BasicStringPiece"* dereferenceable(16), %"class.std::__1::basic_string"*) local_unnamed_addr #1

; Function Attrs: nounwind
declare void @_ZN3gfx12ImageSkiaRepD1Ev(%"class.gfx::ImageSkiaRep"*) unnamed_addr #3

declare zeroext i1 @_ZNK4base15DictionaryValue9GetStringENS_16BasicStringPieceIcNSt3__111char_traitsIcEEEEPNS2_12basic_stringIcS4_NS2_9allocatorIcEEEE(%"class.base::DictionaryValue"*, i8*, i64, %"class.std::__1::basic_string"*) local_unnamed_addr #1

declare zeroext i1 @_ZNK10extensions15ExtensionAction11HasPopupUrlEi(%"class.extensions::ExtensionAction"*, i32) local_unnamed_addr #1

declare void @_ZN10extensions15ExtensionAction11SetPopupUrlEiRK4GURL(%"class.extensions::ExtensionAction"*, i32, %class.GURL* dereferenceable(120)) local_unnamed_addr #1

declare void @_ZN4GURLC1EN4base16BasicStringPieceIcNSt3__111char_traitsIcEEEE(%class.GURL*, i8*, i64) unnamed_addr #1

declare zeroext i1 @_ZNK10extensions15ExtensionAction8HasTitleEi(%"class.extensions::ExtensionAction"*, i32) local_unnamed_addr #1

declare zeroext i1 @_ZNK10extensions15ExtensionAction12HasBadgeTextEi(%"class.extensions::ExtensionAction"*, i32) local_unnamed_addr #1

declare zeroext i1 @_ZNK10extensions15ExtensionAction23HasBadgeBackgroundColorEi(%"class.extensions::ExtensionAction"*, i32) local_unnamed_addr #1

declare zeroext i1 @_ZNK10extensions15ExtensionAction17HasBadgeTextColorEi(%"class.extensions::ExtensionAction"*, i32) local_unnamed_addr #1

declare zeroext i1 @_ZNK4base15DictionaryValue10GetIntegerENS_16BasicStringPieceIcNSt3__111char_traitsIcEEEEPi(%"class.base::DictionaryValue"*, i8*, i64, i32*) local_unnamed_addr #1

declare zeroext i1 @_ZNK10extensions15ExtensionAction12HasIsVisibleEi(%"class.extensions::ExtensionAction"*, i32) local_unnamed_addr #1

declare zeroext i1 @_ZN10extensions15ExtensionAction12SetIsVisibleEib(%"class.extensions::ExtensionAction"*, i32, i1 zeroext) local_unnamed_addr #1

declare zeroext i1 @_ZNK4base15DictionaryValue13GetDictionaryENS_16BasicStringPieceIcNSt3__111char_traitsIcEEEEPPKS0_(%"class.base::DictionaryValue"*, i8*, i64, %"class.base::DictionaryValue"**) local_unnamed_addr #1

declare zeroext i1 @_ZNK10extensions15ExtensionAction7HasIconEi(%"class.extensions::ExtensionAction"*, i32) local_unnamed_addr #1

declare void @_ZN3gfx9ImageSkiaC1Ev(%"class.gfx::ImageSkia"*) unnamed_addr #1

; Function Attrs: argmemonly nounwind
declare void @llvm.memset.p0i8.i64(i8* nocapture writeonly, i8, i64, i1 immarg) #2

declare void @_ZN8SkBitmapC1Ev(%class.SkBitmap*) unnamed_addr #1

declare void @_ZN4base15DictionaryValue8IteratorC1ERKS0_(%"class.base::DictionaryValue::Iterator"*, %"class.base::DictionaryValue"* dereferenceable(32)) unnamed_addr #1

declare zeroext i1 @_ZN4base11StringToIntENS_16BasicStringPieceIcNSt3__111char_traitsIcEEEEPi(i8*, i64, i32*) local_unnamed_addr #1

declare zeroext i1 @_ZNK4base5Value11GetAsStringEPNSt3__112basic_stringIcNS1_11char_traitsIcEENS1_9allocatorIcEEEE(%"class.base::Value"*, %"class.std::__1::basic_string"*) local_unnamed_addr #1

declare i32 @_ZN10extensions15ExtensionAction14ActionIconSizeEv() local_unnamed_addr #1

declare void @_ZN3gfx9ImageSkia17AddRepresentationERKNS_12ImageSkiaRepE(%"class.gfx::ImageSkia"*, %"class.gfx::ImageSkiaRep"* dereferenceable(192)) local_unnamed_addr #1

declare void @_ZN3gfx12ImageSkiaRepC1ERK8SkBitmapf(%"class.gfx::ImageSkiaRep"*, %class.SkBitmap* dereferenceable(56), float) unnamed_addr #1

; Function Attrs: nounwind
declare void @_ZN4base15DictionaryValue8IteratorD1Ev(%"class.base::DictionaryValue::Iterator"*) unnamed_addr #3

declare void @_ZN10extensions15ExtensionAction7SetIconEiRKN3gfx5ImageE(%"class.extensions::ExtensionAction"*, i32, %"class.gfx::Image"* dereferenceable(8)) local_unnamed_addr #1

declare void @_ZN3gfx5ImageC1ERKNS_9ImageSkiaE(%"class.gfx::Image"*, %"class.gfx::ImageSkia"* dereferenceable(8)) unnamed_addr #1

; Function Attrs: nounwind
declare void @_ZN8SkBitmapD1Ev(%class.SkBitmap*) unnamed_addr #3

; Function Attrs: nounwind ssp uwtable
define linkonce_odr hidden void @_ZN10extensions15ExtensionAction8SetValueINSt3__112basic_stringIcNS2_11char_traitsIcEENS2_9allocatorIcEEEEEEvPNS2_3mapIiT_NS2_4lessIiEENS6_INS2_4pairIKiSA_EEEEEEiRKSA_(%"class.extensions::ExtensionAction"*, %"class.std::__1::map.152"*, i32, %"class.std::__1::basic_string"* dereferenceable(24)) local_unnamed_addr #0 comdat align 2 {
  %5 = getelementptr inbounds %"class.std::__1::map.152", %"class.std::__1::map.152"* %1, i64 0, i32 0, i32 1, i32 0, i32 0
  %6 = bitcast %"class.std::__1::__tree_end_node"* %5 to %"class.std::__1::__tree_node"**
  %7 = load %"class.std::__1::__tree_node"*, %"class.std::__1::__tree_node"** %6, align 8
  %8 = icmp eq %"class.std::__1::__tree_node"* %7, null
  br i1 %8, label %37, label %9

9:                                                ; preds = %4
  %10 = getelementptr inbounds %"class.std::__1::map.152", %"class.std::__1::map.152"* %1, i64 0, i32 0, i32 1, i32 0, i32 0, i32 0
  br label %11

11:                                               ; preds = %33, %9
  %12 = phi %"class.std::__1::__tree_node"* [ %36, %33 ], [ %7, %9 ]
  %13 = phi %"class.std::__1::__tree_node_base"** [ %35, %33 ], [ %10, %9 ]
  %14 = getelementptr inbounds %"class.std::__1::__tree_node", %"class.std::__1::__tree_node"* %12, i64 0, i32 1, i32 0, i32 0
  %15 = load i32, i32* %14, align 4
  %16 = icmp sgt i32 %15, %2
  br i1 %16, label %17, label %23

17:                                               ; preds = %11
  %18 = getelementptr inbounds %"class.std::__1::__tree_node", %"class.std::__1::__tree_node"* %12, i64 0, i32 0, i32 0, i32 0
  %19 = load %"class.std::__1::__tree_node_base"*, %"class.std::__1::__tree_node_base"** %18, align 8
  %20 = icmp eq %"class.std::__1::__tree_node_base"* %19, null
  br i1 %20, label %21, label %33

21:                                               ; preds = %17
  %22 = getelementptr inbounds %"class.std::__1::__tree_node", %"class.std::__1::__tree_node"* %12, i64 0, i32 0, i32 0
  br label %39

23:                                               ; preds = %11
  %24 = icmp slt i32 %15, %2
  br i1 %24, label %25, label %31

25:                                               ; preds = %23
  %26 = getelementptr inbounds %"class.std::__1::__tree_node", %"class.std::__1::__tree_node"* %12, i64 0, i32 0, i32 1
  %27 = load %"class.std::__1::__tree_node_base"*, %"class.std::__1::__tree_node_base"** %26, align 8
  %28 = icmp eq %"class.std::__1::__tree_node_base"* %27, null
  br i1 %28, label %29, label %33

29:                                               ; preds = %25
  %30 = getelementptr inbounds %"class.std::__1::__tree_node", %"class.std::__1::__tree_node"* %12, i64 0, i32 0, i32 0
  br label %39

31:                                               ; preds = %23
  %32 = getelementptr inbounds %"class.std::__1::__tree_node", %"class.std::__1::__tree_node"* %12, i64 0, i32 0, i32 0
  br label %39

33:                                               ; preds = %25, %17
  %34 = phi %"class.std::__1::__tree_node_base"* [ %19, %17 ], [ %27, %25 ]
  %35 = phi %"class.std::__1::__tree_node_base"** [ %18, %17 ], [ %26, %25 ]
  %36 = bitcast %"class.std::__1::__tree_node_base"* %34 to %"class.std::__1::__tree_node"*
  br label %11

37:                                               ; preds = %4
  %38 = getelementptr inbounds %"class.std::__1::__tree_end_node", %"class.std::__1::__tree_end_node"* %5, i64 0, i32 0
  br label %39

39:                                               ; preds = %37, %31, %29, %21
  %40 = phi %"class.std::__1::__tree_end_node"* [ %5, %37 ], [ %22, %21 ], [ %30, %29 ], [ %32, %31 ]
  %41 = phi %"class.std::__1::__tree_node_base"** [ %38, %37 ], [ %18, %21 ], [ %26, %29 ], [ %13, %31 ]
  %42 = bitcast %"class.std::__1::__tree_node_base"** %41 to %"class.std::__1::__tree_node"**
  %43 = load %"class.std::__1::__tree_node"*, %"class.std::__1::__tree_node"** %42, align 8
  %44 = icmp eq %"class.std::__1::__tree_node"* %43, null
  br i1 %44, label %45, label %71

45:                                               ; preds = %39
  %46 = tail call i8* @_Znwm(i64 64) #8, !noalias !23
  %47 = getelementptr inbounds i8, i8* %46, i64 32
  %48 = bitcast i8* %47 to i32*
  store i32 %2, i32* %48, align 8, !noalias !23
  %49 = getelementptr inbounds i8, i8* %46, i64 40
  tail call void @llvm.memset.p0i8.i64(i8* align 8 %49, i8 0, i64 24, i1 false) #7, !noalias !23
  %50 = bitcast i8* %46 to %"class.std::__1::__tree_node"*
  %51 = bitcast i8* %46 to %"class.std::__1::__tree_node_base"*
  %52 = getelementptr inbounds i8, i8* %46, i64 16
  %53 = bitcast i8* %52 to %"class.std::__1::__tree_end_node"**
  tail call void @llvm.memset.p0i8.i64(i8* nonnull align 8 %46, i8 0, i64 16, i1 false) #7
  store %"class.std::__1::__tree_end_node"* %40, %"class.std::__1::__tree_end_node"** %53, align 8
  %54 = bitcast %"class.std::__1::__tree_node_base"** %41 to i8**
  store i8* %46, i8** %54, align 8
  %55 = getelementptr inbounds %"class.std::__1::map.152", %"class.std::__1::map.152"* %1, i64 0, i32 0, i32 0
  %56 = load %"class.std::__1::__tree_end_node"*, %"class.std::__1::__tree_end_node"** %55, align 8
  %57 = getelementptr inbounds %"class.std::__1::__tree_end_node", %"class.std::__1::__tree_end_node"* %56, i64 0, i32 0
  %58 = load %"class.std::__1::__tree_node_base"*, %"class.std::__1::__tree_node_base"** %57, align 8
  %59 = icmp eq %"class.std::__1::__tree_node_base"* %58, null
  br i1 %59, label %64, label %60

60:                                               ; preds = %45
  %61 = ptrtoint %"class.std::__1::__tree_node_base"* %58 to i64
  %62 = bitcast %"class.std::__1::map.152"* %1 to i64*
  store i64 %61, i64* %62, align 8
  %63 = load %"class.std::__1::__tree_node_base"*, %"class.std::__1::__tree_node_base"** %41, align 8
  br label %64

64:                                               ; preds = %60, %45
  %65 = phi %"class.std::__1::__tree_node_base"* [ %51, %45 ], [ %63, %60 ]
  %66 = getelementptr inbounds %"class.std::__1::map.152", %"class.std::__1::map.152"* %1, i64 0, i32 0, i32 1, i32 0, i32 0, i32 0
  %67 = load %"class.std::__1::__tree_node_base"*, %"class.std::__1::__tree_node_base"** %66, align 8
  tail call void @_ZNSt3__127__tree_balance_after_insertIPNS_16__tree_node_baseIPvEEEEvT_S5_(%"class.std::__1::__tree_node_base"* %67, %"class.std::__1::__tree_node_base"* %65) #7
  %68 = getelementptr inbounds %"class.std::__1::map.152", %"class.std::__1::map.152"* %1, i64 0, i32 0, i32 2, i32 0, i32 0
  %69 = load i64, i64* %68, align 8
  %70 = add i64 %69, 1
  store i64 %70, i64* %68, align 8
  br label %71

71:                                               ; preds = %39, %64
  %72 = phi %"class.std::__1::__tree_node"* [ %50, %64 ], [ %43, %39 ]
  %73 = getelementptr inbounds %"class.std::__1::__tree_node", %"class.std::__1::__tree_node"* %72, i64 0, i32 1, i32 0, i32 1
  %74 = icmp eq %"class.std::__1::basic_string"* %73, %3
  br i1 %74, label %104, label %75

75:                                               ; preds = %71
  %76 = bitcast %"class.std::__1::basic_string"* %73 to %"struct.std::__1::basic_string<char, std::__1::char_traits<char>, std::__1::allocator<char> >::__short"*
  %77 = getelementptr inbounds %"struct.std::__1::basic_string<char, std::__1::char_traits<char>, std::__1::allocator<char> >::__short", %"struct.std::__1::basic_string<char, std::__1::char_traits<char>, std::__1::allocator<char> >::__short"* %76, i64 0, i32 1, i32 0
  %78 = load i8, i8* %77, align 1
  %79 = icmp slt i8 %78, 0
  %80 = bitcast %"class.std::__1::basic_string"* %3 to %"struct.std::__1::basic_string<char, std::__1::char_traits<char>, std::__1::allocator<char> >::__short"*
  %81 = getelementptr inbounds %"struct.std::__1::basic_string<char, std::__1::char_traits<char>, std::__1::allocator<char> >::__short", %"struct.std::__1::basic_string<char, std::__1::char_traits<char>, std::__1::allocator<char> >::__short"* %80, i64 0, i32 1, i32 0
  %82 = load i8, i8* %81, align 1
  %83 = icmp slt i8 %82, 0
  br i1 %79, label %94, label %84

84:                                               ; preds = %75
  br i1 %83, label %88, label %85

85:                                               ; preds = %84
  %86 = bitcast %"class.std::__1::basic_string"* %73 to i8*
  %87 = bitcast %"class.std::__1::basic_string"* %3 to i8*
  tail call void @llvm.memcpy.p0i8.p0i8.i64(i8* align 8 %86, i8* align 8 %87, i64 24, i1 false) #7
  br label %104

88:                                               ; preds = %84
  %89 = getelementptr inbounds %"class.std::__1::basic_string", %"class.std::__1::basic_string"* %3, i64 0, i32 0, i32 0, i32 0, i32 0, i32 0, i32 0
  %90 = load i8*, i8** %89, align 8
  %91 = getelementptr inbounds %"class.std::__1::basic_string", %"class.std::__1::basic_string"* %3, i64 0, i32 0, i32 0, i32 0, i32 0, i32 0, i32 1
  %92 = load i64, i64* %91, align 8
  %93 = tail call dereferenceable(24) %"class.std::__1::basic_string"* @_ZNSt3__112basic_stringIcNS_11char_traitsIcEENS_9allocatorIcEEE17__assign_no_aliasILb1EEERS5_PKcm(%"class.std::__1::basic_string"* %73, i8* %90, i64 %92) #7
  br label %104

94:                                               ; preds = %75
  %95 = getelementptr inbounds %"class.std::__1::basic_string", %"class.std::__1::basic_string"* %3, i64 0, i32 0, i32 0, i32 0, i32 0, i32 0, i32 0
  %96 = load i8*, i8** %95, align 8
  %97 = getelementptr inbounds %"class.std::__1::basic_string", %"class.std::__1::basic_string"* %3, i64 0, i32 0, i32 0, i32 0, i32 0, i32 0, i32 1
  %98 = load i64, i64* %97, align 8
  %99 = bitcast %"class.std::__1::basic_string"* %3 to i8*
  %100 = zext i8 %82 to i64
  %101 = select i1 %83, i8* %96, i8* %99
  %102 = select i1 %83, i64 %98, i64 %100
  %103 = tail call dereferenceable(24) %"class.std::__1::basic_string"* @_ZNSt3__112basic_stringIcNS_11char_traitsIcEENS_9allocatorIcEEE17__assign_no_aliasILb0EEERS5_PKcm(%"class.std::__1::basic_string"* %73, i8* %101, i64 %102) #7
  br label %104

104:                                              ; preds = %71, %85, %88, %94
  ret void
}

; Function Attrs: nounwind ssp uwtable
define linkonce_odr hidden void @_ZNSt3__127__tree_balance_after_insertIPNS_16__tree_node_baseIPvEEEEvT_S5_(%"class.std::__1::__tree_node_base"*, %"class.std::__1::__tree_node_base"*) local_unnamed_addr #0 comdat {
  %3 = icmp eq %"class.std::__1::__tree_node_base"* %1, %0
  %4 = getelementptr inbounds %"class.std::__1::__tree_node_base", %"class.std::__1::__tree_node_base"* %1, i64 0, i32 3
  %5 = zext i1 %3 to i8
  store i8 %5, i8* %4, align 8
  br i1 %3, label %156, label %6

6:                                                ; preds = %2, %149
  %7 = phi %"class.std::__1::__tree_node_base"* [ %20, %149 ], [ %1, %2 ]
  %8 = getelementptr inbounds %"class.std::__1::__tree_node_base", %"class.std::__1::__tree_node_base"* %7, i64 0, i32 2
  %9 = bitcast %"class.std::__1::__tree_end_node"** %8 to %"class.std::__1::__tree_node_base"**
  %10 = load %"class.std::__1::__tree_node_base"*, %"class.std::__1::__tree_node_base"** %9, align 8
  %11 = getelementptr inbounds %"class.std::__1::__tree_node_base", %"class.std::__1::__tree_node_base"* %10, i64 0, i32 3
  %12 = load i8, i8* %11, align 8, !range !19
  %13 = icmp eq i8 %12, 0
  br i1 %13, label %14, label %156

14:                                               ; preds = %6
  %15 = getelementptr inbounds %"class.std::__1::__tree_node_base", %"class.std::__1::__tree_node_base"* %10, i64 0, i32 2
  %16 = load %"class.std::__1::__tree_end_node"*, %"class.std::__1::__tree_end_node"** %15, align 8
  %17 = getelementptr inbounds %"class.std::__1::__tree_end_node", %"class.std::__1::__tree_end_node"* %16, i64 0, i32 0
  %18 = load %"class.std::__1::__tree_node_base"*, %"class.std::__1::__tree_node_base"** %17, align 8
  %19 = icmp eq %"class.std::__1::__tree_node_base"* %18, %10
  %20 = bitcast %"class.std::__1::__tree_end_node"* %16 to %"class.std::__1::__tree_node_base"*
  br i1 %19, label %21, label %87

21:                                               ; preds = %14
  %22 = getelementptr inbounds %"class.std::__1::__tree_end_node", %"class.std::__1::__tree_end_node"* %16, i64 1, i32 0
  %23 = load %"class.std::__1::__tree_node_base"*, %"class.std::__1::__tree_node_base"** %22, align 8
  %24 = icmp eq %"class.std::__1::__tree_node_base"* %23, null
  br i1 %24, label %29, label %25

25:                                               ; preds = %21
  %26 = getelementptr inbounds %"class.std::__1::__tree_node_base", %"class.std::__1::__tree_node_base"* %23, i64 0, i32 3
  %27 = load i8, i8* %26, align 8, !range !19
  %28 = icmp eq i8 %27, 0
  br i1 %28, label %149, label %29

29:                                               ; preds = %25, %21
  %30 = getelementptr inbounds %"class.std::__1::__tree_node_base", %"class.std::__1::__tree_node_base"* %10, i64 0, i32 2
  %31 = bitcast %"class.std::__1::__tree_end_node"* %16 to %"class.std::__1::__tree_node_base"*
  %32 = getelementptr inbounds %"class.std::__1::__tree_node_base", %"class.std::__1::__tree_node_base"* %10, i64 0, i32 0, i32 0
  %33 = load %"class.std::__1::__tree_node_base"*, %"class.std::__1::__tree_node_base"** %32, align 8
  %34 = icmp eq %"class.std::__1::__tree_node_base"* %33, %7
  br i1 %34, label %61, label %35

35:                                               ; preds = %29
  %36 = ptrtoint %"class.std::__1::__tree_end_node"* %16 to i64
  %37 = getelementptr inbounds %"class.std::__1::__tree_node_base", %"class.std::__1::__tree_node_base"* %10, i64 0, i32 1
  %38 = load %"class.std::__1::__tree_node_base"*, %"class.std::__1::__tree_node_base"** %37, align 8
  %39 = getelementptr inbounds %"class.std::__1::__tree_node_base", %"class.std::__1::__tree_node_base"* %38, i64 0, i32 0, i32 0
  %40 = load %"class.std::__1::__tree_node_base"*, %"class.std::__1::__tree_node_base"** %39, align 8
  store %"class.std::__1::__tree_node_base"* %40, %"class.std::__1::__tree_node_base"** %37, align 8
  %41 = icmp eq %"class.std::__1::__tree_node_base"* %40, null
  br i1 %41, label %47, label %42

42:                                               ; preds = %35
  %43 = getelementptr inbounds %"class.std::__1::__tree_node_base", %"class.std::__1::__tree_node_base"* %10, i64 0, i32 0
  %44 = getelementptr inbounds %"class.std::__1::__tree_node_base", %"class.std::__1::__tree_node_base"* %40, i64 0, i32 2
  store %"class.std::__1::__tree_end_node"* %43, %"class.std::__1::__tree_end_node"** %44, align 8
  %45 = bitcast %"class.std::__1::__tree_end_node"** %30 to i64*
  %46 = load i64, i64* %45, align 8
  br label %47

47:                                               ; preds = %35, %42
  %48 = phi i64 [ %46, %42 ], [ %36, %35 ]
  %49 = getelementptr inbounds %"class.std::__1::__tree_node_base", %"class.std::__1::__tree_node_base"* %38, i64 0, i32 2
  %50 = bitcast %"class.std::__1::__tree_end_node"** %49 to i64*
  store i64 %48, i64* %50, align 8
  %51 = load %"class.std::__1::__tree_end_node"*, %"class.std::__1::__tree_end_node"** %30, align 8
  %52 = getelementptr inbounds %"class.std::__1::__tree_end_node", %"class.std::__1::__tree_end_node"* %51, i64 0, i32 0
  %53 = load %"class.std::__1::__tree_node_base"*, %"class.std::__1::__tree_node_base"** %52, align 8
  %54 = icmp eq %"class.std::__1::__tree_node_base"* %53, %10
  %55 = getelementptr inbounds %"class.std::__1::__tree_end_node", %"class.std::__1::__tree_end_node"* %51, i64 1, i32 0
  %56 = select i1 %54, %"class.std::__1::__tree_node_base"** %52, %"class.std::__1::__tree_node_base"** %55
  store %"class.std::__1::__tree_node_base"* %38, %"class.std::__1::__tree_node_base"** %56, align 8
  store %"class.std::__1::__tree_node_base"* %10, %"class.std::__1::__tree_node_base"** %39, align 8
  %57 = getelementptr inbounds %"class.std::__1::__tree_node_base", %"class.std::__1::__tree_node_base"* %38, i64 0, i32 0
  store %"class.std::__1::__tree_end_node"* %57, %"class.std::__1::__tree_end_node"** %30, align 8
  %58 = getelementptr inbounds %"class.std::__1::__tree_node_base", %"class.std::__1::__tree_node_base"* %38, i64 0, i32 2
  %59 = bitcast %"class.std::__1::__tree_end_node"** %58 to %"class.std::__1::__tree_node_base"**
  %60 = load %"class.std::__1::__tree_node_base"*, %"class.std::__1::__tree_node_base"** %59, align 8
  br label %61

61:                                               ; preds = %47, %29
  %62 = phi %"class.std::__1::__tree_node_base"* [ %31, %29 ], [ %60, %47 ]
  %63 = phi %"class.std::__1::__tree_node_base"* [ %10, %29 ], [ %38, %47 ]
  %64 = getelementptr inbounds %"class.std::__1::__tree_node_base", %"class.std::__1::__tree_node_base"* %63, i64 0, i32 3
  store i8 1, i8* %64, align 8
  %65 = getelementptr inbounds %"class.std::__1::__tree_node_base", %"class.std::__1::__tree_node_base"* %62, i64 0, i32 3
  store i8 0, i8* %65, align 8
  %66 = getelementptr inbounds %"class.std::__1::__tree_node_base", %"class.std::__1::__tree_node_base"* %62, i64 0, i32 0, i32 0
  %67 = load %"class.std::__1::__tree_node_base"*, %"class.std::__1::__tree_node_base"** %66, align 8
  %68 = getelementptr inbounds %"class.std::__1::__tree_node_base", %"class.std::__1::__tree_node_base"* %67, i64 0, i32 1
  %69 = load %"class.std::__1::__tree_node_base"*, %"class.std::__1::__tree_node_base"** %68, align 8
  store %"class.std::__1::__tree_node_base"* %69, %"class.std::__1::__tree_node_base"** %66, align 8
  %70 = icmp eq %"class.std::__1::__tree_node_base"* %69, null
  br i1 %70, label %74, label %71

71:                                               ; preds = %61
  %72 = getelementptr inbounds %"class.std::__1::__tree_node_base", %"class.std::__1::__tree_node_base"* %62, i64 0, i32 0
  %73 = getelementptr inbounds %"class.std::__1::__tree_node_base", %"class.std::__1::__tree_node_base"* %69, i64 0, i32 2
  store %"class.std::__1::__tree_end_node"* %72, %"class.std::__1::__tree_end_node"** %73, align 8
  br label %74

74:                                               ; preds = %71, %61
  %75 = getelementptr inbounds %"class.std::__1::__tree_node_base", %"class.std::__1::__tree_node_base"* %62, i64 0, i32 2
  %76 = bitcast %"class.std::__1::__tree_end_node"** %75 to i64*
  %77 = load i64, i64* %76, align 8
  %78 = getelementptr inbounds %"class.std::__1::__tree_node_base", %"class.std::__1::__tree_node_base"* %67, i64 0, i32 2
  %79 = bitcast %"class.std::__1::__tree_end_node"** %78 to i64*
  store i64 %77, i64* %79, align 8
  %80 = load %"class.std::__1::__tree_end_node"*, %"class.std::__1::__tree_end_node"** %75, align 8
  %81 = getelementptr inbounds %"class.std::__1::__tree_end_node", %"class.std::__1::__tree_end_node"* %80, i64 0, i32 0
  %82 = load %"class.std::__1::__tree_node_base"*, %"class.std::__1::__tree_node_base"** %81, align 8
  %83 = icmp eq %"class.std::__1::__tree_node_base"* %82, %62
  %84 = getelementptr inbounds %"class.std::__1::__tree_end_node", %"class.std::__1::__tree_end_node"* %80, i64 1, i32 0
  %85 = select i1 %83, %"class.std::__1::__tree_node_base"** %81, %"class.std::__1::__tree_node_base"** %84
  store %"class.std::__1::__tree_node_base"* %67, %"class.std::__1::__tree_node_base"** %85, align 8
  store %"class.std::__1::__tree_node_base"* %62, %"class.std::__1::__tree_node_base"** %68, align 8
  %86 = getelementptr inbounds %"class.std::__1::__tree_node_base", %"class.std::__1::__tree_node_base"* %67, i64 0, i32 0
  store %"class.std::__1::__tree_end_node"* %86, %"class.std::__1::__tree_end_node"** %75, align 8
  br label %156

87:                                               ; preds = %14
  %88 = icmp eq %"class.std::__1::__tree_node_base"* %18, null
  br i1 %88, label %93, label %89

89:                                               ; preds = %87
  %90 = getelementptr inbounds %"class.std::__1::__tree_node_base", %"class.std::__1::__tree_node_base"* %18, i64 0, i32 3
  %91 = load i8, i8* %90, align 8, !range !19
  %92 = icmp eq i8 %91, 0
  br i1 %92, label %149, label %93

93:                                               ; preds = %89, %87
  %94 = getelementptr inbounds %"class.std::__1::__tree_node_base", %"class.std::__1::__tree_node_base"* %10, i64 0, i32 2
  %95 = bitcast %"class.std::__1::__tree_end_node"* %16 to %"class.std::__1::__tree_node_base"*
  %96 = getelementptr inbounds %"class.std::__1::__tree_node_base", %"class.std::__1::__tree_node_base"* %10, i64 0, i32 0, i32 0
  %97 = load %"class.std::__1::__tree_node_base"*, %"class.std::__1::__tree_node_base"** %96, align 8
  %98 = icmp eq %"class.std::__1::__tree_node_base"* %97, %7
  br i1 %98, label %99, label %123

99:                                               ; preds = %93
  %100 = ptrtoint %"class.std::__1::__tree_end_node"* %16 to i64
  %101 = getelementptr inbounds %"class.std::__1::__tree_node_base", %"class.std::__1::__tree_node_base"* %10, i64 0, i32 0, i32 0
  %102 = getelementptr inbounds %"class.std::__1::__tree_node_base", %"class.std::__1::__tree_node_base"* %7, i64 0, i32 1
  %103 = load %"class.std::__1::__tree_node_base"*, %"class.std::__1::__tree_node_base"** %102, align 8
  store %"class.std::__1::__tree_node_base"* %103, %"class.std::__1::__tree_node_base"** %101, align 8
  %104 = icmp eq %"class.std::__1::__tree_node_base"* %103, null
  br i1 %104, label %110, label %105

105:                                              ; preds = %99
  %106 = getelementptr inbounds %"class.std::__1::__tree_node_base", %"class.std::__1::__tree_node_base"* %10, i64 0, i32 0
  %107 = getelementptr inbounds %"class.std::__1::__tree_node_base", %"class.std::__1::__tree_node_base"* %103, i64 0, i32 2
  store %"class.std::__1::__tree_end_node"* %106, %"class.std::__1::__tree_end_node"** %107, align 8
  %108 = bitcast %"class.std::__1::__tree_end_node"** %94 to i64*
  %109 = load i64, i64* %108, align 8
  br label %110

110:                                              ; preds = %99, %105
  %111 = phi i64 [ %109, %105 ], [ %100, %99 ]
  %112 = bitcast %"class.std::__1::__tree_end_node"** %8 to i64*
  store i64 %111, i64* %112, align 8
  %113 = load %"class.std::__1::__tree_end_node"*, %"class.std::__1::__tree_end_node"** %94, align 8
  %114 = getelementptr inbounds %"class.std::__1::__tree_end_node", %"class.std::__1::__tree_end_node"* %113, i64 0, i32 0
  %115 = load %"class.std::__1::__tree_node_base"*, %"class.std::__1::__tree_node_base"** %114, align 8
  %116 = icmp eq %"class.std::__1::__tree_node_base"* %115, %10
  %117 = getelementptr inbounds %"class.std::__1::__tree_end_node", %"class.std::__1::__tree_end_node"* %113, i64 1, i32 0
  %118 = select i1 %116, %"class.std::__1::__tree_node_base"** %114, %"class.std::__1::__tree_node_base"** %117
  store %"class.std::__1::__tree_node_base"* %7, %"class.std::__1::__tree_node_base"** %118, align 8
  store %"class.std::__1::__tree_node_base"* %10, %"class.std::__1::__tree_node_base"** %102, align 8
  %119 = getelementptr inbounds %"class.std::__1::__tree_node_base", %"class.std::__1::__tree_node_base"* %7, i64 0, i32 0
  store %"class.std::__1::__tree_end_node"* %119, %"class.std::__1::__tree_end_node"** %94, align 8
  %120 = getelementptr inbounds %"class.std::__1::__tree_node_base", %"class.std::__1::__tree_node_base"* %7, i64 0, i32 2
  %121 = bitcast %"class.std::__1::__tree_end_node"** %120 to %"class.std::__1::__tree_node_base"**
  %122 = load %"class.std::__1::__tree_node_base"*, %"class.std::__1::__tree_node_base"** %121, align 8
  br label %123

123:                                              ; preds = %93, %110
  %124 = phi %"class.std::__1::__tree_node_base"* [ %122, %110 ], [ %95, %93 ]
  %125 = phi %"class.std::__1::__tree_node_base"* [ %7, %110 ], [ %10, %93 ]
  %126 = getelementptr inbounds %"class.std::__1::__tree_node_base", %"class.std::__1::__tree_node_base"* %125, i64 0, i32 3
  store i8 1, i8* %126, align 8
  %127 = getelementptr inbounds %"class.std::__1::__tree_node_base", %"class.std::__1::__tree_node_base"* %124, i64 0, i32 3
  store i8 0, i8* %127, align 8
  %128 = getelementptr inbounds %"class.std::__1::__tree_node_base", %"class.std::__1::__tree_node_base"* %124, i64 0, i32 1
  %129 = load %"class.std::__1::__tree_node_base"*, %"class.std::__1::__tree_node_base"** %128, align 8
  %130 = getelementptr inbounds %"class.std::__1::__tree_node_base", %"class.std::__1::__tree_node_base"* %129, i64 0, i32 0, i32 0
  %131 = load %"class.std::__1::__tree_node_base"*, %"class.std::__1::__tree_node_base"** %130, align 8
  store %"class.std::__1::__tree_node_base"* %131, %"class.std::__1::__tree_node_base"** %128, align 8
  %132 = icmp eq %"class.std::__1::__tree_node_base"* %131, null
  br i1 %132, label %136, label %133

133:                                              ; preds = %123
  %134 = getelementptr inbounds %"class.std::__1::__tree_node_base", %"class.std::__1::__tree_node_base"* %124, i64 0, i32 0
  %135 = getelementptr inbounds %"class.std::__1::__tree_node_base", %"class.std::__1::__tree_node_base"* %131, i64 0, i32 2
  store %"class.std::__1::__tree_end_node"* %134, %"class.std::__1::__tree_end_node"** %135, align 8
  br label %136

136:                                              ; preds = %133, %123
  %137 = getelementptr inbounds %"class.std::__1::__tree_node_base", %"class.std::__1::__tree_node_base"* %124, i64 0, i32 2
  %138 = bitcast %"class.std::__1::__tree_end_node"** %137 to i64*
  %139 = load i64, i64* %138, align 8
  %140 = getelementptr inbounds %"class.std::__1::__tree_node_base", %"class.std::__1::__tree_node_base"* %129, i64 0, i32 2
  %141 = bitcast %"class.std::__1::__tree_end_node"** %140 to i64*
  store i64 %139, i64* %141, align 8
  %142 = load %"class.std::__1::__tree_end_node"*, %"class.std::__1::__tree_end_node"** %137, align 8
  %143 = getelementptr inbounds %"class.std::__1::__tree_end_node", %"class.std::__1::__tree_end_node"* %142, i64 0, i32 0
  %144 = load %"class.std::__1::__tree_node_base"*, %"class.std::__1::__tree_node_base"** %143, align 8
  %145 = icmp eq %"class.std::__1::__tree_node_base"* %144, %124
  %146 = getelementptr inbounds %"class.std::__1::__tree_end_node", %"class.std::__1::__tree_end_node"* %142, i64 1, i32 0
  %147 = select i1 %145, %"class.std::__1::__tree_node_base"** %143, %"class.std::__1::__tree_node_base"** %146
  store %"class.std::__1::__tree_node_base"* %129, %"class.std::__1::__tree_node_base"** %147, align 8
  store %"class.std::__1::__tree_node_base"* %124, %"class.std::__1::__tree_node_base"** %130, align 8
  %148 = getelementptr inbounds %"class.std::__1::__tree_node_base", %"class.std::__1::__tree_node_base"* %129, i64 0, i32 0
  store %"class.std::__1::__tree_end_node"* %148, %"class.std::__1::__tree_end_node"** %137, align 8
  br label %156

149:                                              ; preds = %89, %25
  %150 = phi i8* [ %26, %25 ], [ %90, %89 ]
  store i8 1, i8* %11, align 8
  %151 = icmp eq %"class.std::__1::__tree_node_base"* %20, %0
  %152 = getelementptr inbounds %"class.std::__1::__tree_end_node", %"class.std::__1::__tree_end_node"* %16, i64 3
  %153 = bitcast %"class.std::__1::__tree_end_node"* %152 to i8*
  %154 = zext i1 %151 to i8
  store i8 %154, i8* %153, align 8
  store i8 1, i8* %150, align 8
  %155 = icmp eq %"class.std::__1::__tree_node_base"* %20, %0
  br i1 %155, label %156, label %6

156:                                              ; preds = %6, %149, %2, %136, %74
  ret void
}

declare dereferenceable(24) %"class.std::__1::basic_string"* @_ZNSt3__112basic_stringIcNS_11char_traitsIcEENS_9allocatorIcEEE17__assign_no_aliasILb1EEERS5_PKcm(%"class.std::__1::basic_string"*, i8*, i64) local_unnamed_addr #1

declare dereferenceable(24) %"class.std::__1::basic_string"* @_ZNSt3__112basic_stringIcNS_11char_traitsIcEENS_9allocatorIcEEE17__assign_no_aliasILb0EEERS5_PKcm(%"class.std::__1::basic_string"*, i8*, i64) local_unnamed_addr #1

declare zeroext i1 @_ZN4base14StringToUint64ENS_16BasicStringPieceIcNSt3__111char_traitsIcEEEEPm(i8*, i64, i64*) local_unnamed_addr #1

declare zeroext i1 @_ZN4base6detaileqERKNS0_19const_dict_iteratorES3_(%"class.base::detail::const_dict_iterator"* dereferenceable(8), %"class.base::detail::const_dict_iterator"* dereferenceable(8)) local_unnamed_addr #1

declare %"class.base::flat_map"* @_ZNK4base5Value9DictItemsEv(%"class.base::Value"*) local_unnamed_addr #1

declare void @_ZNK4base6detail25const_dict_iterator_proxy3endEv(%"class.base::detail::const_dict_iterator"* sret, %"class.base::detail::const_dict_iterator_proxy"*) local_unnamed_addr #1

; Function Attrs: nounwind
declare void @_ZN4base6detail19const_dict_iteratorD1Ev(%"class.base::detail::const_dict_iterator"*) unnamed_addr #3

declare void @_ZNK4base6detail19const_dict_iteratorptEv(%"class.base::detail::const_dict_iterator::pointer"* sret, %"class.base::detail::const_dict_iterator"*) local_unnamed_addr #1

declare zeroext i1 @_ZN4base12Base64DecodeERKNS_16BasicStringPieceIcNSt3__111char_traitsIcEEEEPNS1_12basic_stringIcS3_NS1_9allocatorIcEEEE(%"class.base::BasicStringPiece"* dereferenceable(16), %"class.std::__1::basic_string"*) local_unnamed_addr #1

declare zeroext i1 @_ZN3gfx8PNGCodec6DecodeEPKhmP8SkBitmap(i8*, i64, %class.SkBitmap*) local_unnamed_addr #1

declare dereferenceable(8) %"class.base::detail::const_dict_iterator"* @_ZN4base6detail19const_dict_iteratorppEv(%"class.base::detail::const_dict_iterator"*) local_unnamed_addr #1

declare void @_ZN4base8internal18WeakPtrFactoryBaseC2Em(%"class.base::internal::WeakPtrFactoryBase"*, i64) unnamed_addr #1

; Function Attrs: nounwind
declare void @_ZN4base5ValueD1Ev(%"class.base::Value"*) unnamed_addr #3

declare void @_ZN10extensions17ExtensionRegistry14RemoveObserverEPNS_25ExtensionRegistryObserverE(%"class.extensions::ExtensionRegistry"*, %"class.extensions::ExtensionRegistryObserver"*) local_unnamed_addr #1

declare void @_ZN7logging10CheckError7CheckOpEPKciPNS_13CheckOpResultE(%"class.logging::CheckError"* sret, i8*, i32, %"class.logging::CheckOpResult"*) local_unnamed_addr #1

declare void @_ZN10extensions18ExtensionActionAPI11AddObserverEPNS0_8ObserverE(%"class.extensions::ExtensionActionAPI"*, %"class.extensions::ExtensionActionAPI::Observer"*) local_unnamed_addr #1

declare i8* @_ZN7logging15CheckOpValueStrEDn(i8*) local_unnamed_addr #1

declare void @_ZN7logging13CheckOpResultC1EPKcPcS3_(%"class.logging::CheckOpResult"*, i8*, i8*, i8*) unnamed_addr #1

declare i8* @_ZN7logging14StreamValToStrEPKvPFvRNSt3__113basic_ostreamIcNS2_11char_traitsIcEEEES1_E(i8*, void (%"class.std::__1::basic_ostream"*, i8*)*) local_unnamed_addr #1

; Function Attrs: inlinehint nounwind ssp uwtable
define linkonce_odr hidden void @_ZZN7logging15CheckOpValueStrIPN10extensions18ExtensionActionAPIEEENSt3__19enable_ifIXaasr4base8internal23SupportsOstreamOperatorIRKT_EE5valuentsr3std11is_functionINS4_14remove_pointerIS6_E4typeEEE5valueEPcE4typeES8_ENUlRNS4_13basic_ostreamIcNS4_11char_traitsIcEEEEPKvE_8__invokeESJ_SL_(%"class.std::__1::basic_ostream"* dereferenceable(160), i8*) #6 comdat align 2 {
  %3 = bitcast i8* %1 to i8**
  %4 = load i8*, i8** %3, align 8
  %5 = tail call dereferenceable(160) %"class.std::__1::basic_ostream"* @_ZNSt3__113basic_ostreamIcNS_11char_traitsIcEEElsEPKv(%"class.std::__1::basic_ostream"* %0, i8* %4) #7
  ret void
}

declare dereferenceable(160) %"class.std::__1::basic_ostream"* @_ZNSt3__113basic_ostreamIcNS_11char_traitsIcEEElsEPKv(%"class.std::__1::basic_ostream"*, i8*) local_unnamed_addr #1

declare void @_ZN10extensions17ExtensionRegistry11AddObserverEPNS_25ExtensionRegistryObserverE(%"class.extensions::ExtensionRegistry"*, %"class.extensions::ExtensionRegistryObserver"*) local_unnamed_addr #1

; Function Attrs: inlinehint nounwind ssp uwtable
define linkonce_odr hidden void @_ZZN7logging15CheckOpValueStrIPN10extensions17ExtensionRegistryEEENSt3__19enable_ifIXaasr4base8internal23SupportsOstreamOperatorIRKT_EE5valuentsr3std11is_functionINS4_14remove_pointerIS6_E4typeEEE5valueEPcE4typeES8_ENUlRNS4_13basic_ostreamIcNS4_11char_traitsIcEEEEPKvE_8__invokeESJ_SL_(%"class.std::__1::basic_ostream"* dereferenceable(160), i8*) #6 comdat align 2 {
  %3 = bitcast i8* %1 to i8**
  %4 = load i8*, i8** %3, align 8
  %5 = tail call dereferenceable(160) %"class.std::__1::basic_ostream"* @_ZNSt3__113basic_ostreamIcNS_11char_traitsIcEEElsEPKv(%"class.std::__1::basic_ostream"* %0, i8* %4) #7
  ret void
}

declare void @_ZNK4base8internal18WeakReferenceOwner6GetRefEv(%"class.base::internal::WeakReference"* sret, %"class.base::internal::WeakReferenceOwner"*) local_unnamed_addr #1

; Function Attrs: nounwind
declare void @_ZN4base8internal13WeakReferenceD1Ev(%"class.base::internal::WeakReference"*) unnamed_addr #3

declare void @_ZN4base8internal11WeakPtrBaseC2ERKNS0_13WeakReferenceEm(%"class.base::internal::WeakPtrBase"*, %"class.base::internal::WeakReference"* dereferenceable(8), i64) unnamed_addr #1

; Function Attrs: nounwind ssp uwtable
define linkonce_odr hidden void @_ZN4base8internal7InvokerINS0_9BindStateIMN10extensions29ExtensionActionStorageManagerEFvRKNSt3__112basic_stringIcNS5_11char_traitsIcEENS5_9allocatorIcEEEENS5_10unique_ptrINS_5ValueENS5_14default_deleteISF_EEEEEJNS_7WeakPtrIS4_EESB_EEEFvSI_EE7RunOnceEPNS0_13BindStateBaseEOSI_(%"class.base::internal::BindStateBase"*, %"class.std::__1::unique_ptr.231"* dereferenceable(8)) #0 comdat align 2 {
  %3 = alloca %"class.logging::CheckError", align 8
  %4 = getelementptr inbounds %"class.base::internal::BindStateBase", %"class.base::internal::BindStateBase"* %0, i64 1
  %5 = getelementptr inbounds %"class.base::internal::BindStateBase", %"class.base::internal::BindStateBase"* %0, i64 1, i32 2
  %6 = getelementptr inbounds void (%"class.base::internal::BindStateBase"*)*, void (%"class.base::internal::BindStateBase"*)** %5, i64 2
  %7 = bitcast void (%"class.base::internal::BindStateBase"*)** %6 to %"class.std::__1::basic_string"*
  %8 = bitcast void (%"class.base::internal::BindStateBase"*)** %5 to %"class.base::internal::WeakReference"*
  %9 = tail call zeroext i1 @_ZNK4base8internal13WeakReference7IsValidEv(%"class.base::internal::WeakReference"* %8) #7
  br i1 %9, label %10, label %47

10:                                               ; preds = %2
  %11 = getelementptr inbounds void (%"class.base::internal::BindStateBase"*)*, void (%"class.base::internal::BindStateBase"*)** %5, i64 1
  %12 = bitcast void (%"class.base::internal::BindStateBase"*)** %11 to %"class.extensions::ExtensionActionStorageManager"**
  %13 = load %"class.extensions::ExtensionActionStorageManager"*, %"class.extensions::ExtensionActionStorageManager"** %12, align 8
  %14 = icmp eq %"class.extensions::ExtensionActionStorageManager"* %13, null
  br i1 %14, label %47, label %15

15:                                               ; preds = %10
  %16 = bitcast %"class.base::internal::BindStateBase"* %4 to i64*
  %17 = load i64, i64* %16, align 8
  %18 = getelementptr inbounds %"class.base::internal::BindStateBase", %"class.base::internal::BindStateBase"* %0, i64 1, i32 1
  %19 = bitcast void ()** %18 to i64*
  %20 = load i64, i64* %19, align 8
  %21 = tail call zeroext i1 @_ZNK4base8internal13WeakReference7IsValidEv(%"class.base::internal::WeakReference"* %8) #7
  br i1 %21, label %25, label %22

22:                                               ; preds = %15
  %23 = bitcast %"class.logging::CheckError"* %3 to i8*
  call void @llvm.lifetime.start.p0i8(i64 8, i8* nonnull %23) #7
  call void @_ZN7logging10CheckError5CheckEPKciS2_(%"class.logging::CheckError"* nonnull sret %3, i8* getelementptr inbounds ([29 x i8], [29 x i8]* @.str.7, i64 0, i64 0), i32 251, i8* getelementptr inbounds ([15 x i8], [15 x i8]* @.str.8, i64 0, i64 0)) #7
  %24 = call dereferenceable(160) %"class.std::__1::basic_ostream"* @_ZN7logging10CheckError6streamEv(%"class.logging::CheckError"* nonnull %3) #7
  call void @_ZN7logging10CheckErrorD1Ev(%"class.logging::CheckError"* nonnull %3) #7
  call void @llvm.lifetime.end.p0i8(i64 8, i8* nonnull %23) #7
  br label %25

25:                                               ; preds = %22, %15
  %26 = call zeroext i1 @_ZNK4base8internal13WeakReference7IsValidEv(%"class.base::internal::WeakReference"* %8) #7
  %27 = bitcast void (%"class.base::internal::BindStateBase"*)** %11 to i8**
  %28 = load i8*, i8** %27, align 8
  %29 = select i1 %26, i8* %28, i8* null
  %30 = getelementptr inbounds i8, i8* %29, i64 %20
  %31 = bitcast i8* %30 to %"class.extensions::ExtensionActionStorageManager"*
  %32 = and i64 %17, 1
  %33 = icmp eq i64 %32, 0
  br i1 %33, label %41, label %34

34:                                               ; preds = %25
  %35 = bitcast i8* %30 to i8**
  %36 = load i8*, i8** %35, align 8
  %37 = add i64 %17, -1
  %38 = getelementptr i8, i8* %36, i64 %37
  %39 = bitcast i8* %38 to void (%"class.extensions::ExtensionActionStorageManager"*, %"class.std::__1::basic_string"*, %"class.base::Value"*)**
  %40 = load void (%"class.extensions::ExtensionActionStorageManager"*, %"class.std::__1::basic_string"*, %"class.base::Value"*)*, void (%"class.extensions::ExtensionActionStorageManager"*, %"class.std::__1::basic_string"*, %"class.base::Value"*)** %39, align 8
  br label %43

41:                                               ; preds = %25
  %42 = inttoptr i64 %17 to void (%"class.extensions::ExtensionActionStorageManager"*, %"class.std::__1::basic_string"*, %"class.base::Value"*)*
  br label %43

43:                                               ; preds = %41, %34
  %44 = phi void (%"class.extensions::ExtensionActionStorageManager"*, %"class.std::__1::basic_string"*, %"class.base::Value"*)* [ %40, %34 ], [ %42, %41 ]
  %45 = getelementptr inbounds %"class.std::__1::unique_ptr.231", %"class.std::__1::unique_ptr.231"* %1, i64 0, i32 0, i32 0, i32 0
  %46 = load %"class.base::Value"*, %"class.base::Value"** %45, align 8
  store %"class.base::Value"* null, %"class.base::Value"** %45, align 8
  call void %44(%"class.extensions::ExtensionActionStorageManager"* %31, %"class.std::__1::basic_string"* dereferenceable(24) %7, %"class.base::Value"* %46) #7
  br label %47

47:                                               ; preds = %2, %10, %43
  ret void
}

declare zeroext i1 @_ZNK4base8internal13WeakReference7IsValidEv(%"class.base::internal::WeakReference"*) local_unnamed_addr #1

; Function Attrs: nounwind ssp uwtable
define linkonce_odr hidden void @_ZN4base8internal9BindStateIMN10extensions29ExtensionActionStorageManagerEFvRKNSt3__112basic_stringIcNS4_11char_traitsIcEENS4_9allocatorIcEEEENS4_10unique_ptrINS_5ValueENS4_14default_deleteISE_EEEEEJNS_7WeakPtrIS3_EESA_EE7DestroyEPKNS0_13BindStateBaseE(%"class.base::internal::BindStateBase"*) #0 comdat align 2 {
  %2 = icmp eq %"class.base::internal::BindStateBase"* %0, null
  br i1 %2, label %16, label %3

3:                                                ; preds = %1
  %4 = getelementptr inbounds %"class.base::internal::BindStateBase", %"class.base::internal::BindStateBase"* %0, i64 2
  %5 = bitcast %"class.base::internal::BindStateBase"* %4 to %"struct.std::__1::basic_string<char, std::__1::char_traits<char>, std::__1::allocator<char> >::__short"*
  %6 = getelementptr inbounds %"struct.std::__1::basic_string<char, std::__1::char_traits<char>, std::__1::allocator<char> >::__short", %"struct.std::__1::basic_string<char, std::__1::char_traits<char>, std::__1::allocator<char> >::__short"* %5, i64 0, i32 1, i32 0
  %7 = load i8, i8* %6, align 1
  %8 = icmp slt i8 %7, 0
  br i1 %8, label %9, label %12

9:                                                ; preds = %3
  %10 = bitcast %"class.base::internal::BindStateBase"* %4 to i8**
  %11 = load i8*, i8** %10, align 8
  tail call void @_ZdlPv(i8* %11) #8
  br label %12

12:                                               ; preds = %3, %9
  %13 = getelementptr inbounds %"class.base::internal::BindStateBase", %"class.base::internal::BindStateBase"* %0, i64 1, i32 2
  %14 = bitcast void (%"class.base::internal::BindStateBase"*)** %13 to %"class.base::internal::WeakPtrBase"*
  tail call void @_ZN4base8internal11WeakPtrBaseD2Ev(%"class.base::internal::WeakPtrBase"* %14) #7
  %15 = bitcast %"class.base::internal::BindStateBase"* %0 to i8*
  tail call void @_ZdlPv(i8* %15) #8
  br label %16

16:                                               ; preds = %12, %1
  ret void
}

; Function Attrs: nounwind ssp uwtable
define linkonce_odr hidden zeroext i1 @_ZN4base8internal23QueryCancellationTraitsINS0_9BindStateIMN10extensions29ExtensionActionStorageManagerEFvRKNSt3__112basic_stringIcNS5_11char_traitsIcEENS5_9allocatorIcEEEENS5_10unique_ptrINS_5ValueENS5_14default_deleteISF_EEEEEJNS_7WeakPtrIS4_EESB_EEEEEbPKNS0_13BindStateBaseENSO_21CancellationQueryModeE(%"class.base::internal::BindStateBase"*, i32) #0 comdat {
  %3 = getelementptr inbounds %"class.base::internal::BindStateBase", %"class.base::internal::BindStateBase"* %0, i64 1, i32 2
  switch i32 %1, label %16 [
    i32 0, label %4
    i32 1, label %13
  ]

4:                                                ; preds = %2
  %5 = bitcast void (%"class.base::internal::BindStateBase"*)** %3 to %"class.base::internal::WeakReference"*
  %6 = tail call zeroext i1 @_ZNK4base8internal13WeakReference7IsValidEv(%"class.base::internal::WeakReference"* %5) #7
  %7 = getelementptr inbounds void (%"class.base::internal::BindStateBase"*)*, void (%"class.base::internal::BindStateBase"*)** %3, i64 1
  %8 = bitcast void (%"class.base::internal::BindStateBase"*)** %7 to %"class.extensions::ExtensionActionStorageManager"**
  %9 = load %"class.extensions::ExtensionActionStorageManager"*, %"class.extensions::ExtensionActionStorageManager"** %8, align 8
  %10 = icmp ne %"class.extensions::ExtensionActionStorageManager"* %9, null
  %11 = and i1 %6, %10
  %12 = xor i1 %11, true
  br label %16

13:                                               ; preds = %2
  %14 = bitcast void (%"class.base::internal::BindStateBase"*)** %3 to %"class.base::internal::WeakReference"*
  %15 = tail call zeroext i1 @_ZNK4base8internal13WeakReference10MaybeValidEv(%"class.base::internal::WeakReference"* %14) #7
  br label %16

16:                                               ; preds = %2, %4, %13
  %17 = phi i1 [ %15, %13 ], [ %12, %4 ], [ false, %2 ]
  ret i1 %17
}

declare void @_ZN4base8internal13BindStateBaseC2EPFvvEPFvPKS1_EPFbS5_NS1_21CancellationQueryModeEE(%"class.base::internal::BindStateBase"*, void ()*, void (%"class.base::internal::BindStateBase"*)*, i1 (%"class.base::internal::BindStateBase"*, i32)*) unnamed_addr #1

declare zeroext i1 @_ZNK4base8internal13WeakReference10MaybeValidEv(%"class.base::internal::WeakReference"*) local_unnamed_addr #1

; Function Attrs: nounwind
declare void @_ZN4base8internal13WeakReferenceC1EOS1_(%"class.base::internal::WeakReference"*, %"class.base::internal::WeakReference"* dereferenceable(8)) unnamed_addr #3

declare void @_ZN10extensions18ExtensionActionAPI14RemoveObserverEPNS0_8ObserverE(%"class.extensions::ExtensionActionAPI"*, %"class.extensions::ExtensionActionAPI::Observer"*) local_unnamed_addr #1

attributes #0 = { nounwind ssp uwtable "correctly-rounded-divide-sqrt-fp-math"="false" "disable-tail-calls"="false" "less-precise-fpmad"="false" "min-legal-vector-width"="0" "no-frame-pointer-elim"="false" "no-frame-pointer-elim-non-leaf" "no-infs-fp-math"="false" "no-jump-tables"="false" "no-nans-fp-math"="false" "no-signed-zeros-fp-math"="false" "no-trapping-math"="false" "null-pointer-is-valid"="true" "stack-protector-buffer-size"="4" "target-cpu"="x86-64" "target-features"="+cx8,+fxsr,+mmx,+sse,+sse2,+sse3,+x87" "unsafe-fp-math"="false" "use-soft-float"="false" }
attributes #1 = { "correctly-rounded-divide-sqrt-fp-math"="false" "disable-tail-calls"="false" "less-precise-fpmad"="false" "no-frame-pointer-elim"="false" "no-frame-pointer-elim-non-leaf" "no-infs-fp-math"="false" "no-nans-fp-math"="false" "no-signed-zeros-fp-math"="false" "no-trapping-math"="false" "null-pointer-is-valid"="true" "stack-protector-buffer-size"="4" "target-cpu"="x86-64" "target-features"="+cx8,+fxsr,+mmx,+sse,+sse2,+sse3,+x87" "unsafe-fp-math"="false" "use-soft-float"="false" }
attributes #2 = { argmemonly nounwind }
attributes #3 = { nounwind "correctly-rounded-divide-sqrt-fp-math"="false" "disable-tail-calls"="false" "less-precise-fpmad"="false" "no-frame-pointer-elim"="false" "no-frame-pointer-elim-non-leaf" "no-infs-fp-math"="false" "no-nans-fp-math"="false" "no-signed-zeros-fp-math"="false" "no-trapping-math"="false" "null-pointer-is-valid"="true" "stack-protector-buffer-size"="4" "target-cpu"="x86-64" "target-features"="+cx8,+fxsr,+mmx,+sse,+sse2,+sse3,+x87" "unsafe-fp-math"="false" "use-soft-float"="false" }
attributes #4 = { nobuiltin nounwind "correctly-rounded-divide-sqrt-fp-math"="false" "disable-tail-calls"="false" "less-precise-fpmad"="false" "no-frame-pointer-elim"="false" "no-frame-pointer-elim-non-leaf" "no-infs-fp-math"="false" "no-nans-fp-math"="false" "no-signed-zeros-fp-math"="false" "no-trapping-math"="false" "null-pointer-is-valid"="true" "stack-protector-buffer-size"="4" "target-cpu"="x86-64" "target-features"="+cx8,+fxsr,+mmx,+sse,+sse2,+sse3,+x87" "unsafe-fp-math"="false" "use-soft-float"="false" }
attributes #5 = { nobuiltin nofree "correctly-rounded-divide-sqrt-fp-math"="false" "disable-tail-calls"="false" "less-precise-fpmad"="false" "no-frame-pointer-elim"="false" "no-frame-pointer-elim-non-leaf" "no-infs-fp-math"="false" "no-nans-fp-math"="false" "no-signed-zeros-fp-math"="false" "no-trapping-math"="false" "null-pointer-is-valid"="true" "stack-protector-buffer-size"="4" "target-cpu"="x86-64" "target-features"="+cx8,+fxsr,+mmx,+sse,+sse2,+sse3,+x87" "unsafe-fp-math"="false" "use-soft-float"="false" }
attributes #6 = { inlinehint nounwind ssp uwtable "correctly-rounded-divide-sqrt-fp-math"="false" "disable-tail-calls"="false" "less-precise-fpmad"="false" "min-legal-vector-width"="0" "no-frame-pointer-elim"="false" "no-frame-pointer-elim-non-leaf" "no-infs-fp-math"="false" "no-jump-tables"="false" "no-nans-fp-math"="false" "no-signed-zeros-fp-math"="false" "no-trapping-math"="false" "null-pointer-is-valid"="true" "stack-protector-buffer-size"="4" "target-cpu"="x86-64" "target-features"="+cx8,+fxsr,+mmx,+sse,+sse2,+sse3,+x87" "unsafe-fp-math"="false" "use-soft-float"="false" }
attributes #7 = { nounwind }
attributes #8 = { builtin nounwind }

!llvm.module.flags = !{!0, !1}

!0 = !{i32 1, !"wchar_size", i32 4}
!1 = !{i32 7, !"PIC Level", i32 2}
!2 = !{!3}
!3 = distinct !{!3, !4, !"_ZNK4base14WeakPtrFactoryIN10extensions29ExtensionActionStorageManagerEE10GetWeakPtrEv: argument 0"}
!4 = distinct !{!4, !"_ZNK4base14WeakPtrFactoryIN10extensions29ExtensionActionStorageManagerEE10GetWeakPtrEv"}
!5 = !{!6, !8}
!6 = distinct !{!6, !7, !"_ZN4base8internal8BindImplINS_12OnceCallbackEMN10extensions29ExtensionActionStorageManagerEFvRKNSt3__112basic_stringIcNS5_11char_traitsIcEENS5_9allocatorIcEEEENS5_10unique_ptrINS_5ValueENS5_14default_deleteISF_EEEEEJNS_7WeakPtrIS4_EESD_EEEDcOT0_DpOT1_: argument 0"}
!7 = distinct !{!7, !"_ZN4base8internal8BindImplINS_12OnceCallbackEMN10extensions29ExtensionActionStorageManagerEFvRKNSt3__112basic_stringIcNS5_11char_traitsIcEENS5_9allocatorIcEEEENS5_10unique_ptrINS_5ValueENS5_14default_deleteISF_EEEEEJNS_7WeakPtrIS4_EESD_EEEDcOT0_DpOT1_"}
!8 = distinct !{!8, !9, !"_ZN4base8BindOnceIMN10extensions29ExtensionActionStorageManagerEFvRKNSt3__112basic_stringIcNS3_11char_traitsIcEENS3_9allocatorIcEEEENS3_10unique_ptrINS_5ValueENS3_14default_deleteISD_EEEEEJNS_7WeakPtrIS2_EESB_EEENS_12OnceCallbackINS_8internal14BindTypeHelperIT_JDpT0_EE14UnboundRunTypeEEEOSO_DpOSP_: argument 0"}
!9 = distinct !{!9, !"_ZN4base8BindOnceIMN10extensions29ExtensionActionStorageManagerEFvRKNSt3__112basic_stringIcNS3_11char_traitsIcEENS3_9allocatorIcEEEENS3_10unique_ptrINS_5ValueENS3_14default_deleteISD_EEEEEJNS_7WeakPtrIS2_EESB_EEENS_12OnceCallbackINS_8internal14BindTypeHelperIT_JDpT0_EE14UnboundRunTypeEEEOSO_DpOSP_"}
!10 = !{!11}
!11 = distinct !{!11, !12, !"_ZNSt3__16__treeINS_12__value_typeIijEENS_19__map_value_compareIiS2_NS_4lessIiEELb1EEENS_9allocatorIS2_EEE16__construct_nodeIJRKNS_21piecewise_construct_tENS_5tupleIJRKiEEENSE_IJEEEEEENS_10unique_ptrINS_11__tree_nodeIS2_PvEENS_22__tree_node_destructorINS7_ISM_EEEEEEDpOT_: argument 0"}
!12 = distinct !{!12, !"_ZNSt3__16__treeINS_12__value_typeIijEENS_19__map_value_compareIiS2_NS_4lessIiEELb1EEENS_9allocatorIS2_EEE16__construct_nodeIJRKNS_21piecewise_construct_tENS_5tupleIJRKiEEENSE_IJEEEEEENS_10unique_ptrINS_11__tree_nodeIS2_PvEENS_22__tree_node_destructorINS7_ISM_EEEEEEDpOT_"}
!13 = !{!14}
!14 = distinct !{!14, !15, !"_ZNSt3__16__treeINS_12__value_typeIijEENS_19__map_value_compareIiS2_NS_4lessIiEELb1EEENS_9allocatorIS2_EEE16__construct_nodeIJRKNS_21piecewise_construct_tENS_5tupleIJRKiEEENSE_IJEEEEEENS_10unique_ptrINS_11__tree_nodeIS2_PvEENS_22__tree_node_destructorINS7_ISM_EEEEEEDpOT_: argument 0"}
!15 = distinct !{!15, !"_ZNSt3__16__treeINS_12__value_typeIijEENS_19__map_value_compareIiS2_NS_4lessIiEELb1EEENS_9allocatorIS2_EEE16__construct_nodeIJRKNS_21piecewise_construct_tENS_5tupleIJRKiEEENSE_IJEEEEEENS_10unique_ptrINS_11__tree_nodeIS2_PvEENS_22__tree_node_destructorINS7_ISM_EEEEEEDpOT_"}
!16 = !{!17}
!17 = distinct !{!17, !18, !"_ZN10extensions12_GLOBAL__N_114BitmapToStringERK8SkBitmap: argument 0"}
!18 = distinct !{!18, !"_ZN10extensions12_GLOBAL__N_114BitmapToStringERK8SkBitmap"}
!19 = !{i8 0, i8 2}
!20 = !{!21}
!21 = distinct !{!21, !22, !"_ZN10extensions15ExtensionAction11ValueTraitsINSt3__112basic_stringIcNS2_11char_traitsIcEENS2_9allocatorIcEEEEE11CreateEmptyEv: argument 0"}
!22 = distinct !{!22, !"_ZN10extensions15ExtensionAction11ValueTraitsINSt3__112basic_stringIcNS2_11char_traitsIcEENS2_9allocatorIcEEEEE11CreateEmptyEv"}
!23 = !{!24}
!24 = distinct !{!24, !25, !"_ZNSt3__16__treeINS_12__value_typeIiNS_12basic_stringIcNS_11char_traitsIcEENS_9allocatorIcEEEEEENS_19__map_value_compareIiS8_NS_4lessIiEELb1EEENS5_IS8_EEE16__construct_nodeIJRKNS_21piecewise_construct_tENS_5tupleIJRKiEEENSJ_IJEEEEEENS_10unique_ptrINS_11__tree_nodeIS8_PvEENS_22__tree_node_destructorINS5_ISR_EEEEEEDpOT_: argument 0"}
!25 = distinct !{!25, !"_ZNSt3__16__treeINS_12__value_typeIiNS_12basic_stringIcNS_11char_traitsIcEENS_9allocatorIcEEEEEENS_19__map_value_compareIiS8_NS_4lessIiEELb1EEENS5_IS8_EEE16__construct_nodeIJRKNS_21piecewise_construct_tENS_5tupleIJRKiEEENSJ_IJEEEEEENS_10unique_ptrINS_11__tree_nodeIS8_PvEENS_22__tree_node_destructorINS5_ISR_EEEEEEDpOT_"}
