; ModuleID = '../../chrome/browser/ui/extensions/extension_install_ui_default.cc'
source_filename = "../../chrome/browser/ui/extensions/extension_install_ui_default.cc"
target datalayout = "e-m:e-i64:64-f80:128-n8:16:32:64-S128"
target triple = "x86_64-unknown-linux-gnu"

module asm ".symver exp, exp@GLIBC_2.2.5"
module asm ".symver exp2, exp2@GLIBC_2.2.5"
module asm ".symver exp2f, exp2f@GLIBC_2.2.5"
module asm ".symver expf, expf@GLIBC_2.2.5"
module asm ".symver lgamma, lgamma@GLIBC_2.2.5"
module asm ".symver lgammaf, lgammaf@GLIBC_2.2.5"
module asm ".symver lgammal, lgammal@GLIBC_2.2.5"
module asm ".symver log, log@GLIBC_2.2.5"
module asm ".symver log2, log2@GLIBC_2.2.5"
module asm ".symver log2f, log2f@GLIBC_2.2.5"
module asm ".symver logf, logf@GLIBC_2.2.5"
module asm ".symver pow, pow@GLIBC_2.2.5"
module asm ".symver powf, powf@GLIBC_2.2.5"

%class.ExtensionInstallUIDefault = type <{ %"class.extensions::ExtensionInstallUI", %class.Profile*, i8, i8, [6 x i8] }>
%"class.extensions::ExtensionInstallUI" = type { i32 (...)** }
%class.Profile = type { %"class.content::BrowserContext", %"class.std::__1::unique_ptr.7", i8, i8, i32, %"class.base::ObserverList", %"class.std::__1::unique_ptr.24" }
%"class.content::BrowserContext" = type { %"class.base::SupportsUserData.base", %"class.std::__1::unique_ptr" }
%"class.base::SupportsUserData.base" = type <{ i32 (...)**, %"class.std::__1::map", %"class.base::SequenceCheckerDoNothing" }>
%"class.std::__1::map" = type { %"class.std::__1::__tree" }
%"class.std::__1::__tree" = type { %"class.std::__1::__tree_end_node"*, %"class.std::__1::__compressed_pair", %"class.std::__1::__compressed_pair.1" }
%"class.std::__1::__tree_end_node" = type { %"class.std::__1::__tree_node_base"* }
%"class.std::__1::__tree_node_base" = type <{ %"class.std::__1::__tree_end_node", %"class.std::__1::__tree_node_base"*, %"class.std::__1::__tree_end_node"*, i8, [7 x i8] }>
%"class.std::__1::__compressed_pair" = type { %"struct.std::__1::__compressed_pair_elem" }
%"struct.std::__1::__compressed_pair_elem" = type { %"class.std::__1::__tree_end_node" }
%"class.std::__1::__compressed_pair.1" = type { %"struct.std::__1::__compressed_pair_elem.2" }
%"struct.std::__1::__compressed_pair_elem.2" = type { i64 }
%"class.base::SequenceCheckerDoNothing" = type { i8 }
%"class.std::__1::unique_ptr" = type { %"class.std::__1::__compressed_pair.4" }
%"class.std::__1::__compressed_pair.4" = type { %"struct.std::__1::__compressed_pair_elem.5" }
%"struct.std::__1::__compressed_pair_elem.5" = type { %"class.content::BrowserContext::Impl"* }
%"class.content::BrowserContext::Impl" = type opaque
%"class.std::__1::unique_ptr.7" = type { %"class.std::__1::__compressed_pair.8" }
%"class.std::__1::__compressed_pair.8" = type { %"struct.std::__1::__compressed_pair_elem.9" }
%"struct.std::__1::__compressed_pair_elem.9" = type { %"class.content::ResourceContext"* }
%"class.content::ResourceContext" = type opaque
%"class.base::ObserverList" = type <{ %"class.std::__1::vector", %"class.base::LinkedList", i64, i32, [4 x i8] }>
%"class.std::__1::vector" = type { %"class.std::__1::__vector_base" }
%"class.std::__1::__vector_base" = type { %"class.base::internal::CheckedObserverAdapter"*, %"class.base::internal::CheckedObserverAdapter"*, %"class.std::__1::__compressed_pair.19" }
%"class.base::internal::CheckedObserverAdapter" = type { %"class.base::WeakPtr" }
%"class.base::WeakPtr" = type { %"class.base::internal::WeakPtrBase" }
%"class.base::internal::WeakPtrBase" = type { %"class.base::internal::WeakReference", i64 }
%"class.base::internal::WeakReference" = type { %class.scoped_refptr }
%class.scoped_refptr = type { %"class.base::internal::WeakReference::Flag"* }
%"class.base::internal::WeakReference::Flag" = type <{ %"class.base::RefCountedThreadSafe", %"class.base::AtomicFlag", [3 x i8] }>
%"class.base::RefCountedThreadSafe" = type { %"class.base::subtle::RefCountedThreadSafeBase" }
%"class.base::subtle::RefCountedThreadSafeBase" = type { %"class.base::AtomicRefCount" }
%"class.base::AtomicRefCount" = type { %"struct.std::__1::atomic" }
%"struct.std::__1::atomic" = type { %"struct.std::__1::__atomic_base" }
%"struct.std::__1::__atomic_base" = type { %"struct.std::__1::__atomic_base.13" }
%"struct.std::__1::__atomic_base.13" = type { %"struct.std::__1::__cxx_atomic_impl" }
%"struct.std::__1::__cxx_atomic_impl" = type { %"struct.std::__1::__cxx_atomic_base_impl" }
%"struct.std::__1::__cxx_atomic_base_impl" = type { i32 }
%"class.base::AtomicFlag" = type { %"struct.std::__1::atomic.14" }
%"struct.std::__1::atomic.14" = type { %"struct.std::__1::__atomic_base.15" }
%"struct.std::__1::__atomic_base.15" = type { %"struct.std::__1::__atomic_base.16" }
%"struct.std::__1::__atomic_base.16" = type { %"struct.std::__1::__cxx_atomic_impl.17" }
%"struct.std::__1::__cxx_atomic_impl.17" = type { %"struct.std::__1::__cxx_atomic_base_impl.18" }
%"struct.std::__1::__cxx_atomic_base_impl.18" = type { i8 }
%"class.std::__1::__compressed_pair.19" = type { %"struct.std::__1::__compressed_pair_elem.20" }
%"struct.std::__1::__compressed_pair_elem.20" = type { %"class.base::internal::CheckedObserverAdapter"* }
%"class.base::LinkedList" = type { %"class.base::LinkNode" }
%"class.base::LinkNode" = type { %"class.base::internal::LinkNodeBase" }
%"class.base::internal::LinkNodeBase" = type { %"class.base::internal::LinkNodeBase"*, %"class.base::internal::LinkNodeBase"* }
%"class.std::__1::unique_ptr.24" = type { %"class.std::__1::__compressed_pair.25" }
%"class.std::__1::__compressed_pair.25" = type { %"struct.std::__1::__compressed_pair_elem.26" }
%"struct.std::__1::__compressed_pair_elem.26" = type { %"class.variations::VariationsClient"* }
%"class.variations::VariationsClient" = type opaque
%"class.extensions::Extension" = type { %"class.base::RefCountedThreadSafe.31", %"class.std::__1::basic_string", %"class.std::__1::basic_string", %"class.std::__1::basic_string", i32, %"class.base::FilePath", %"class.extensions::URLPatternSet", %"class.std::__1::unique_ptr.46", %"class.std::__1::unique_ptr.52", %"class.std::__1::vector.58", %class.GURL, %"class.base::Version", %"class.std::__1::basic_string", %"class.std::__1::basic_string", i8, %"class.std::__1::basic_string", %"class.std::__1::unique_ptr.78", %"class.std::__1::map.119", i8, %"class.base::ThreadChecker", i8, i8, i8, i32, %"class.base::GUID" }
%"class.base::RefCountedThreadSafe.31" = type { %"class.base::subtle::RefCountedThreadSafeBase" }
%"class.base::FilePath" = type { %"class.std::__1::basic_string" }
%"class.extensions::URLPatternSet" = type { %"class.std::__1::set" }
%"class.std::__1::set" = type { %"class.std::__1::__tree.37" }
%"class.std::__1::__tree.37" = type { %"class.std::__1::__tree_end_node"*, %"class.std::__1::__compressed_pair.38", %"class.std::__1::__compressed_pair.42" }
%"class.std::__1::__compressed_pair.38" = type { %"struct.std::__1::__compressed_pair_elem" }
%"class.std::__1::__compressed_pair.42" = type { %"struct.std::__1::__compressed_pair_elem.2" }
%"class.std::__1::unique_ptr.46" = type { %"class.std::__1::__compressed_pair.47" }
%"class.std::__1::__compressed_pair.47" = type { %"struct.std::__1::__compressed_pair_elem.48" }
%"struct.std::__1::__compressed_pair_elem.48" = type { %"class.extensions::PermissionsParser"* }
%"class.extensions::PermissionsParser" = type opaque
%"class.std::__1::unique_ptr.52" = type { %"class.std::__1::__compressed_pair.53" }
%"class.std::__1::__compressed_pair.53" = type { %"struct.std::__1::__compressed_pair_elem.54" }
%"struct.std::__1::__compressed_pair_elem.54" = type { %"class.extensions::PermissionsData"* }
%"class.extensions::PermissionsData" = type opaque
%"class.std::__1::vector.58" = type { %"class.std::__1::__vector_base.59" }
%"class.std::__1::__vector_base.59" = type { %"struct.extensions::InstallWarning"*, %"struct.extensions::InstallWarning"*, %"class.std::__1::__compressed_pair.60" }
%"struct.extensions::InstallWarning" = type { %"class.std::__1::basic_string", %"class.std::__1::basic_string", %"class.std::__1::basic_string" }
%"class.std::__1::__compressed_pair.60" = type { %"struct.std::__1::__compressed_pair_elem.61" }
%"struct.std::__1::__compressed_pair_elem.61" = type { %"struct.extensions::InstallWarning"* }
%class.GURL = type { %"class.std::__1::basic_string", i8, %"struct.url::Parsed", %"class.std::__1::unique_ptr.65" }
%"struct.url::Parsed" = type { %"struct.url::Component", %"struct.url::Component", %"struct.url::Component", %"struct.url::Component", %"struct.url::Component", %"struct.url::Component", %"struct.url::Component", %"struct.url::Component", i8, %"struct.url::Parsed"* }
%"struct.url::Component" = type { i32, i32 }
%"class.std::__1::unique_ptr.65" = type { %"class.std::__1::__compressed_pair.66" }
%"class.std::__1::__compressed_pair.66" = type { %"struct.std::__1::__compressed_pair_elem.67" }
%"struct.std::__1::__compressed_pair_elem.67" = type { %class.GURL* }
%"class.base::Version" = type { %"class.std::__1::vector.71" }
%"class.std::__1::vector.71" = type { %"class.std::__1::__vector_base.72" }
%"class.std::__1::__vector_base.72" = type { i32*, i32*, %"class.std::__1::__compressed_pair.73" }
%"class.std::__1::__compressed_pair.73" = type { %"struct.std::__1::__compressed_pair_elem.74" }
%"struct.std::__1::__compressed_pair_elem.74" = type { i32* }
%"class.std::__1::basic_string" = type { %"class.std::__1::__compressed_pair.32" }
%"class.std::__1::__compressed_pair.32" = type { %"struct.std::__1::__compressed_pair_elem.33" }
%"struct.std::__1::__compressed_pair_elem.33" = type { %"struct.std::__1::basic_string<char, std::__1::char_traits<char>, std::__1::allocator<char> >::__rep" }
%"struct.std::__1::basic_string<char, std::__1::char_traits<char>, std::__1::allocator<char> >::__rep" = type { %union.anon }
%union.anon = type { %"struct.std::__1::basic_string<char, std::__1::char_traits<char>, std::__1::allocator<char> >::__long" }
%"struct.std::__1::basic_string<char, std::__1::char_traits<char>, std::__1::allocator<char> >::__long" = type { i8*, i64, i64 }
%"class.std::__1::unique_ptr.78" = type { %"class.std::__1::__compressed_pair.79" }
%"class.std::__1::__compressed_pair.79" = type { %"struct.std::__1::__compressed_pair_elem.80" }
%"struct.std::__1::__compressed_pair_elem.80" = type { %"class.extensions::Manifest"* }
%"class.extensions::Manifest" = type { %"class.std::__1::basic_string", %"class.extensions::HashedExtensionId", i32, %"class.std::__1::unique_ptr.81", %"class.std::__1::unique_ptr.81", i32, i32 }
%"class.extensions::HashedExtensionId" = type { %"class.std::__1::basic_string" }
%"class.std::__1::unique_ptr.81" = type { %"class.std::__1::__compressed_pair.82" }
%"class.std::__1::__compressed_pair.82" = type { %"struct.std::__1::__compressed_pair_elem.83" }
%"struct.std::__1::__compressed_pair_elem.83" = type { %"class.base::DictionaryValue"* }
%"class.base::DictionaryValue" = type { %"class.base::Value" }
%"class.base::Value" = type { %"class.absl::variant" }
%"class.absl::variant" = type { %"class.absl::variant_internal::VariantCopyAssignBaseNontrivial" }
%"class.absl::variant_internal::VariantCopyAssignBaseNontrivial" = type { %"class.absl::variant_internal::VariantMoveAssignBaseNontrivial" }
%"class.absl::variant_internal::VariantMoveAssignBaseNontrivial" = type { %"class.absl::variant_internal::VariantCopyBaseNontrivial" }
%"class.absl::variant_internal::VariantCopyBaseNontrivial" = type { %"class.absl::variant_internal::VariantMoveBaseNontrivial" }
%"class.absl::variant_internal::VariantMoveBaseNontrivial" = type { %"class.absl::variant_internal::VariantStateBaseDestructorNontrivial" }
%"class.absl::variant_internal::VariantStateBaseDestructorNontrivial" = type { %"class.absl::variant_internal::VariantStateBase" }
%"class.absl::variant_internal::VariantStateBase" = type { %"union.absl::variant_internal::DestructibleUnionImpl", i64 }
%"union.absl::variant_internal::DestructibleUnionImpl" = type { %"union.absl::variant_internal::DestructibleUnionImpl.84" }
%"union.absl::variant_internal::DestructibleUnionImpl.84" = type { %"union.absl::variant_internal::DestructibleUnionImpl.85" }
%"union.absl::variant_internal::DestructibleUnionImpl.85" = type { %"union.absl::variant_internal::DestructibleUnionImpl.86" }
%"union.absl::variant_internal::DestructibleUnionImpl.86" = type { %"union.absl::variant_internal::DestructibleUnionImpl.87" }
%"union.absl::variant_internal::DestructibleUnionImpl.87" = type { %"class.std::__1::basic_string" }
%"class.std::__1::map.119" = type { %"class.std::__1::__tree.120" }
%"class.std::__1::__tree.120" = type { %"class.std::__1::__tree_end_node"*, %"class.std::__1::__compressed_pair.121", %"class.std::__1::__compressed_pair.125" }
%"class.std::__1::__compressed_pair.121" = type { %"struct.std::__1::__compressed_pair_elem" }
%"class.std::__1::__compressed_pair.125" = type { %"struct.std::__1::__compressed_pair_elem.2" }
%"class.base::ThreadChecker" = type { i8 }
%"class.base::GUID" = type { %"class.std::__1::basic_string" }
%class.SkBitmap = type { %class.sk_sp, %class.SkPixmap, %class.sk_sp.131 }
%class.sk_sp = type { %class.SkPixelRef* }
%class.SkPixelRef = type opaque
%class.SkPixmap = type { i8*, i64, %struct.SkImageInfo }
%struct.SkImageInfo = type { %class.SkColorInfo, %struct.SkISize }
%class.SkColorInfo = type { %class.sk_sp.130, i32, i32 }
%class.sk_sp.130 = type { %class.SkColorSpace* }
%class.SkColorSpace = type <{ %class.SkNVRefCnt, i32, i32, %struct.skcms_TransferFunction, %struct.skcms_Matrix3x3, %struct.skcms_TransferFunction, %struct.skcms_Matrix3x3, %class.SkOnce, [3 x i8] }>
%class.SkNVRefCnt = type { %"struct.std::__1::atomic" }
%struct.skcms_TransferFunction = type { float, float, float, float, float, float, float }
%struct.skcms_Matrix3x3 = type { [3 x [3 x float]] }
%class.SkOnce = type { %"struct.std::__1::atomic.14" }
%struct.SkISize = type { i32, i32 }
%class.sk_sp.131 = type { %class.SkMipmap* }
%class.SkMipmap = type opaque
%class.Browser = type { %class.TabStripModelObserver, %"class.content::WebContentsDelegate", %class.ChromeWebModalDialogManagerDelegate, %class.BookmarkTabHelperObserver, %"class.zoom::ZoomObserver", %"class.content::PageNavigator", %class.ThemeServiceObserver, %"class.translate::ContentTranslateDriver::TranslationObserver", %"class.ui::SelectFileDialog::Listener", %class.PrefChangeRegistrar, %"struct.Browser::CreateParams", i32, %class.Profile*, %"class.std::__1::unique_ptr.213", %class.BrowserWindow*, %"class.std::__1::unique_ptr.219", %"class.std::__1::unique_ptr.225", %"class.std::__1::basic_string", i8, i8, %class.SessionID, %"class.std::__1::unique_ptr.276", %"class.std::__1::map.282", i32, %"class.gfx::Rect", i32, %"class.std::__1::basic_string", i8, i8, %"class.base::TimeTicks", %class.UnloadController, %"class.std::__1::unique_ptr.305", %class.scoped_refptr.311, %"class.std::__1::unique_ptr.319", %"class.std::__1::unique_ptr.325", %"class.std::__1::unique_ptr.331", %"class.std::__1::unique_ptr.337", %"class.std::__1::unique_ptr.343", %"class.std::__1::unique_ptr.349", i32, %"class.std::__1::unique_ptr.355", %"class.std::__1::unique_ptr.361", %"class.std::__1::unique_ptr.367", i8, %"class.std::__1::basic_string", %class.SigninViewController, %"class.std::__1::unique_ptr.378", %"class.base::OnceCallback", %"class.std::__1::unique_ptr.384", %"class.base::ElapsedTimer", %"class.base::WeakPtrFactory.390", %"class.base::WeakPtrFactory.390" }
%class.TabStripModelObserver = type { i32 (...)**, %"class.std::__1::set.132" }
%"class.std::__1::set.132" = type { %"class.std::__1::__tree.133" }
%"class.std::__1::__tree.133" = type { %"class.std::__1::__tree_end_node"*, %"class.std::__1::__compressed_pair.134", %"class.std::__1::__compressed_pair.138" }
%"class.std::__1::__compressed_pair.134" = type { %"struct.std::__1::__compressed_pair_elem" }
%"class.std::__1::__compressed_pair.138" = type { %"struct.std::__1::__compressed_pair_elem.2" }
%"class.content::WebContentsDelegate" = type { i32 (...)**, %"class.std::__1::set.142" }
%"class.std::__1::set.142" = type { %"class.std::__1::__tree.143" }
%"class.std::__1::__tree.143" = type { %"class.std::__1::__tree_end_node"*, %"class.std::__1::__compressed_pair.144", %"class.std::__1::__compressed_pair.148" }
%"class.std::__1::__compressed_pair.144" = type { %"struct.std::__1::__compressed_pair_elem" }
%"class.std::__1::__compressed_pair.148" = type { %"struct.std::__1::__compressed_pair_elem.2" }
%class.ChromeWebModalDialogManagerDelegate = type { %"class.web_modal::WebContentsModalDialogManagerDelegate" }
%"class.web_modal::WebContentsModalDialogManagerDelegate" = type { i32 (...)** }
%class.BookmarkTabHelperObserver = type { i32 (...)** }
%"class.zoom::ZoomObserver" = type { i32 (...)** }
%"class.content::PageNavigator" = type { i32 (...)** }
%class.ThemeServiceObserver = type { %"class.base::CheckedObserver" }
%"class.base::CheckedObserver" = type { i32 (...)**, %"class.base::WeakPtrFactory" }
%"class.base::WeakPtrFactory" = type { %"class.base::internal::WeakPtrFactoryBase" }
%"class.base::internal::WeakPtrFactoryBase" = type { %"class.base::internal::WeakReferenceOwner", i64 }
%"class.base::internal::WeakReferenceOwner" = type { %class.scoped_refptr.152 }
%class.scoped_refptr.152 = type { %"class.base::internal::WeakReference::Flag"* }
%"class.translate::ContentTranslateDriver::TranslationObserver" = type { %"class.base::CheckedObserver" }
%"class.ui::SelectFileDialog::Listener" = type { i32 (...)** }
%class.PrefChangeRegistrar = type { %class.PrefObserver, %"class.std::__1::map.153", %class.PrefService* }
%class.PrefObserver = type { i32 (...)** }
%"class.std::__1::map.153" = type { %"class.std::__1::__tree.154" }
%"class.std::__1::__tree.154" = type { %"class.std::__1::__tree_end_node"*, %"class.std::__1::__compressed_pair.155", %"class.std::__1::__compressed_pair.159" }
%"class.std::__1::__compressed_pair.155" = type { %"struct.std::__1::__compressed_pair_elem" }
%"class.std::__1::__compressed_pair.159" = type { %"struct.std::__1::__compressed_pair_elem.2" }
%class.PrefService = type { i32 (...)**, %"class.std::__1::unique_ptr.162", %"class.std::__1::unique_ptr.168", %class.scoped_refptr.192, %"class.base::RepeatingCallback.193", %class.scoped_refptr.194, %"class.std::__1::unordered_map" }
%"class.std::__1::unique_ptr.162" = type { %"class.std::__1::__compressed_pair.163" }
%"class.std::__1::__compressed_pair.163" = type { %"struct.std::__1::__compressed_pair_elem.164" }
%"struct.std::__1::__compressed_pair_elem.164" = type { %class.PrefNotifierImpl* }
%class.PrefNotifierImpl = type opaque
%"class.std::__1::unique_ptr.168" = type { %"class.std::__1::__compressed_pair.169" }
%"class.std::__1::__compressed_pair.169" = type { %"struct.std::__1::__compressed_pair_elem.170" }
%"struct.std::__1::__compressed_pair_elem.170" = type { %class.PrefValueStore* }
%class.PrefValueStore = type { i32 (...)**, [7 x %"class.PrefValueStore::PrefStoreKeeper"], %"class.base::RepeatingCallback", %class.PrefNotifier*, %"class.std::__1::map.174", i8, %"class.std::__1::unique_ptr.183" }
%"class.PrefValueStore::PrefStoreKeeper" = type <{ %"class.PrefStore::Observer", %class.PrefValueStore*, %class.scoped_refptr.171, i32, [4 x i8] }>
%"class.PrefStore::Observer" = type { i32 (...)** }
%class.scoped_refptr.171 = type { %class.PrefStore* }
%class.PrefStore = type <{ i32 (...)**, %"class.base::RefCounted", [4 x i8] }>
%"class.base::RefCounted" = type { %"class.base::subtle::RefCountedBase" }
%"class.base::subtle::RefCountedBase" = type { i32 }
%"class.base::RepeatingCallback" = type { %"class.base::internal::CallbackBaseCopyable" }
%"class.base::internal::CallbackBaseCopyable" = type { %"class.base::internal::CallbackBase" }
%"class.base::internal::CallbackBase" = type { %class.scoped_refptr.172 }
%class.scoped_refptr.172 = type { %"class.base::internal::BindStateBase"* }
%"class.base::internal::BindStateBase" = type { %"class.base::RefCountedThreadSafe.173", void ()*, void (%"class.base::internal::BindStateBase"*)*, i1 (%"class.base::internal::BindStateBase"*, i32)* }
%"class.base::RefCountedThreadSafe.173" = type { %"class.base::subtle::RefCountedThreadSafeBase" }
%class.PrefNotifier = type opaque
%"class.std::__1::map.174" = type { %"class.std::__1::__tree.175" }
%"class.std::__1::__tree.175" = type { %"class.std::__1::__tree_end_node"*, %"class.std::__1::__compressed_pair.176", %"class.std::__1::__compressed_pair.180" }
%"class.std::__1::__compressed_pair.176" = type { %"struct.std::__1::__compressed_pair_elem" }
%"class.std::__1::__compressed_pair.180" = type { %"struct.std::__1::__compressed_pair_elem.2" }
%"class.std::__1::unique_ptr.183" = type { %"class.std::__1::__compressed_pair.184" }
%"class.std::__1::__compressed_pair.184" = type { %"struct.std::__1::__compressed_pair_elem.185" }
%"struct.std::__1::__compressed_pair_elem.185" = type { %"class.PrefValueStore::Delegate"* }
%"class.PrefValueStore::Delegate" = type { i32 (...)** }
%class.scoped_refptr.192 = type { %class.PersistentPrefStore* }
%class.PersistentPrefStore = type { %class.WriteablePrefStore.base, [4 x i8] }
%class.WriteablePrefStore.base = type { %class.PrefStore.base }
%class.PrefStore.base = type <{ i32 (...)**, %"class.base::RefCounted" }>
%"class.base::RepeatingCallback.193" = type { %"class.base::internal::CallbackBaseCopyable" }
%class.scoped_refptr.194 = type { %class.PrefRegistry* }
%class.PrefRegistry = type opaque
%"class.std::__1::unordered_map" = type { %"class.std::__1::__hash_table" }
%"class.std::__1::__hash_table" = type <{ %"class.std::__1::unique_ptr.195", %"class.std::__1::__compressed_pair.203", %"class.std::__1::__compressed_pair.208", %"class.std::__1::__compressed_pair.210", [4 x i8] }>
%"class.std::__1::unique_ptr.195" = type { %"class.std::__1::__compressed_pair.196" }
%"class.std::__1::__compressed_pair.196" = type { %"struct.std::__1::__compressed_pair_elem.197", %"struct.std::__1::__compressed_pair_elem.198" }
%"struct.std::__1::__compressed_pair_elem.197" = type { %"struct.std::__1::__hash_node_base"** }
%"struct.std::__1::__hash_node_base" = type { %"struct.std::__1::__hash_node_base"* }
%"struct.std::__1::__compressed_pair_elem.198" = type { %"class.std::__1::__bucket_list_deallocator" }
%"class.std::__1::__bucket_list_deallocator" = type { %"class.std::__1::__compressed_pair.199" }
%"class.std::__1::__compressed_pair.199" = type { %"struct.std::__1::__compressed_pair_elem.2" }
%"class.std::__1::__compressed_pair.203" = type { %"struct.std::__1::__compressed_pair_elem.204" }
%"struct.std::__1::__compressed_pair_elem.204" = type { %"struct.std::__1::__hash_node_base" }
%"class.std::__1::__compressed_pair.208" = type { %"struct.std::__1::__compressed_pair_elem.2" }
%"class.std::__1::__compressed_pair.210" = type { %"struct.std::__1::__compressed_pair_elem.211" }
%"struct.std::__1::__compressed_pair_elem.211" = type { float }
%"struct.Browser::CreateParams" = type <{ i32, [4 x i8], %class.Profile*, i8, [3 x i8], %"class.gfx::Rect", [4 x i8], %"class.std::__1::basic_string", i8, [3 x i8], i32, i8, i8, i8, i8, [4 x i8], %class.BrowserWindow*, %"class.std::__1::basic_string", i8, i8, [6 x i8], %"class.std::__1::basic_string", i8, [7 x i8] }>
%"class.std::__1::unique_ptr.213" = type { %"class.std::__1::__compressed_pair.214" }
%"class.std::__1::__compressed_pair.214" = type { %"struct.std::__1::__compressed_pair_elem.215" }
%"struct.std::__1::__compressed_pair_elem.215" = type { %class.ScopedProfileKeepAlive* }
%class.ScopedProfileKeepAlive = type opaque
%class.BrowserWindow = type { %"class.ui::BaseWindow" }
%"class.ui::BaseWindow" = type { i32 (...)** }
%"class.std::__1::unique_ptr.219" = type { %"class.std::__1::__compressed_pair.220" }
%"class.std::__1::__compressed_pair.220" = type { %"struct.std::__1::__compressed_pair_elem.221" }
%"struct.std::__1::__compressed_pair_elem.221" = type { %class.TabStripModelDelegate* }
%class.TabStripModelDelegate = type opaque
%"class.std::__1::unique_ptr.225" = type { %"class.std::__1::__compressed_pair.226" }
%"class.std::__1::__compressed_pair.226" = type { %"struct.std::__1::__compressed_pair_elem.227" }
%"struct.std::__1::__compressed_pair_elem.227" = type { %class.TabStripModel* }
%class.TabStripModel = type { %class.TabGroupController, %"class.std::__1::vector.228", %"class.std::__1::unique_ptr.236", %class.TabStripModelDelegate*, i8, [7 x i8], %"class.base::ObserverList.242", %class.Profile*, i8, %"class.std::__1::unique_ptr.253", %"class.ui::ListSelectionModel", i8, %class.TabSwitchEventLatencyRecorder, %"class.base::RepeatingTimer", %"class.base::TimeTicks", i64, i64, %"class.base::WeakPtrFactory.272" }
%class.TabGroupController = type { i32 (...)** }
%"class.std::__1::vector.228" = type { %"class.std::__1::__vector_base.229" }
%"class.std::__1::__vector_base.229" = type { %"class.std::__1::unique_ptr.230"*, %"class.std::__1::unique_ptr.230"*, %"class.std::__1::__compressed_pair.231" }
%"class.std::__1::unique_ptr.230" = type { %"class.std::__1::__compressed_pair.484" }
%"class.std::__1::__compressed_pair.484" = type { %"struct.std::__1::__compressed_pair_elem.485" }
%"struct.std::__1::__compressed_pair_elem.485" = type { %"class.TabStripModel::WebContentsData"* }
%"class.TabStripModel::WebContentsData" = type opaque
%"class.std::__1::__compressed_pair.231" = type { %"struct.std::__1::__compressed_pair_elem.232" }
%"struct.std::__1::__compressed_pair_elem.232" = type { %"class.std::__1::unique_ptr.230"* }
%"class.std::__1::unique_ptr.236" = type { %"class.std::__1::__compressed_pair.237" }
%"class.std::__1::__compressed_pair.237" = type { %"struct.std::__1::__compressed_pair_elem.238" }
%"struct.std::__1::__compressed_pair_elem.238" = type { %class.TabGroupModel* }
%class.TabGroupModel = type opaque
%"class.base::ObserverList.242" = type <{ %"class.std::__1::vector.243", %"class.base::LinkedList.250", i64, i32, [4 x i8] }>
%"class.std::__1::vector.243" = type { %"class.std::__1::__vector_base.244" }
%"class.std::__1::__vector_base.244" = type { %"class.base::internal::UncheckedObserverAdapter"*, %"class.base::internal::UncheckedObserverAdapter"*, %"class.std::__1::__compressed_pair.245" }
%"class.base::internal::UncheckedObserverAdapter" = type { i8* }
%"class.std::__1::__compressed_pair.245" = type { %"struct.std::__1::__compressed_pair_elem.246" }
%"struct.std::__1::__compressed_pair_elem.246" = type { %"class.base::internal::UncheckedObserverAdapter"* }
%"class.base::LinkedList.250" = type { %"class.base::LinkNode.251" }
%"class.base::LinkNode.251" = type { %"class.base::internal::LinkNodeBase" }
%"class.std::__1::unique_ptr.253" = type { %"class.std::__1::__compressed_pair.254" }
%"class.std::__1::__compressed_pair.254" = type { %"struct.std::__1::__compressed_pair_elem.255" }
%"struct.std::__1::__compressed_pair_elem.255" = type { %class.TabStripModelOrderController* }
%class.TabStripModelOrderController = type { %class.TabStripModelObserver, %class.TabStripModel* }
%"class.ui::ListSelectionModel" = type { %"class.base::internal::flat_tree.259", i32, i32 }
%"class.base::internal::flat_tree.259" = type { %"class.std::__1::vector.260" }
%"class.std::__1::vector.260" = type { %"class.std::__1::__vector_base.261" }
%"class.std::__1::__vector_base.261" = type { i32*, i32*, %"class.std::__1::__compressed_pair.262" }
%"class.std::__1::__compressed_pair.262" = type { %"struct.std::__1::__compressed_pair_elem.263" }
%"struct.std::__1::__compressed_pair_elem.263" = type { i32* }
%class.TabSwitchEventLatencyRecorder = type { %"class.base::TimeTicks", %"class.absl::optional" }
%"class.absl::optional" = type { %"class.absl::optional_internal::optional_data" }
%"class.absl::optional_internal::optional_data" = type { %"class.absl::optional_internal::optional_data_base" }
%"class.absl::optional_internal::optional_data_base" = type { %"class.absl::optional_internal::optional_data_dtor_base" }
%"class.absl::optional_internal::optional_data_dtor_base" = type { i8, %union.anon.267 }
%union.anon.267 = type { i32 }
%"class.base::RepeatingTimer" = type { %"class.base::internal::TimerBase", %"class.base::RepeatingCallback.271" }
%"class.base::internal::TimerBase" = type { i32 (...)**, %class.scoped_refptr.268, %"class.base::SequenceCheckerDoNothing", %"class.base::internal::TaskDestructionDetector"*, %"class.base::Location", %"class.base::TimeDelta", %"class.base::TimeTicks", %"class.base::TimeTicks", %"class.base::TickClock"*, i8, %"class.base::WeakPtrFactory.270" }
%class.scoped_refptr.268 = type { %"class.base::SequencedTaskRunner"* }
%"class.base::SequencedTaskRunner" = type { %"class.base::TaskRunner.base", [4 x i8] }
%"class.base::TaskRunner.base" = type <{ i32 (...)**, %"class.base::RefCountedThreadSafe.269" }>
%"class.base::RefCountedThreadSafe.269" = type { %"class.base::subtle::RefCountedThreadSafeBase" }
%"class.base::internal::TaskDestructionDetector" = type opaque
%"class.base::Location" = type { i8*, i8*, i32, i8* }
%"class.base::TimeDelta" = type { i64 }
%"class.base::TickClock" = type { i32 (...)** }
%"class.base::WeakPtrFactory.270" = type { %"class.base::internal::WeakPtrFactoryBase" }
%"class.base::RepeatingCallback.271" = type { %"class.base::internal::CallbackBaseCopyable" }
%"class.base::WeakPtrFactory.272" = type { %"class.base::internal::WeakPtrFactoryBase" }
%class.SessionID = type { i32 }
%"class.std::__1::unique_ptr.276" = type { %"class.std::__1::__compressed_pair.277" }
%"class.std::__1::__compressed_pair.277" = type { %"struct.std::__1::__compressed_pair_elem.278" }
%"struct.std::__1::__compressed_pair_elem.278" = type { %class.LocationBarModel* }
%class.LocationBarModel = type opaque
%"class.std::__1::map.282" = type { %"class.std::__1::__tree.283" }
%"class.std::__1::__tree.283" = type { %"class.std::__1::__tree_end_node"*, %"class.std::__1::__compressed_pair.284", %"class.std::__1::__compressed_pair.288" }
%"class.std::__1::__compressed_pair.284" = type { %"struct.std::__1::__compressed_pair_elem" }
%"class.std::__1::__compressed_pair.288" = type { %"struct.std::__1::__compressed_pair_elem.2" }
%"class.gfx::Rect" = type { %"class.gfx::Point", %"class.gfx::Size" }
%"class.gfx::Point" = type { i32, i32 }
%"class.gfx::Size" = type { i32, i32 }
%"class.base::TimeTicks" = type { %"class.base::time_internal::TimeBase" }
%"class.base::time_internal::TimeBase" = type { i64 }
%class.UnloadController = type { %"class.WebContentsCollection::Observer", %class.TabStripModelObserver, %class.Browser*, %class.WebContentsCollection, %"class.std::__1::set.142", %"class.std::__1::set.142", i8, %"class.base::RepeatingCallback.303", %"class.base::WeakPtrFactory.304" }
%"class.WebContentsCollection::Observer" = type { i32 (...)** }
%class.WebContentsCollection = type { %"class.WebContentsCollection::Observer"*, %"class.base::flat_map.293" }
%"class.base::flat_map.293" = type { %"class.base::internal::flat_tree.294" }
%"class.base::internal::flat_tree.294" = type { %"class.std::__1::vector.295" }
%"class.std::__1::vector.295" = type { %"class.std::__1::__vector_base.296" }
%"class.std::__1::__vector_base.296" = type { %"struct.std::__1::pair.297"*, %"struct.std::__1::pair.297"*, %"class.std::__1::__compressed_pair.298" }
%"struct.std::__1::pair.297" = type opaque
%"class.std::__1::__compressed_pair.298" = type { %"struct.std::__1::__compressed_pair_elem.299" }
%"struct.std::__1::__compressed_pair_elem.299" = type { %"struct.std::__1::pair.297"* }
%"class.base::RepeatingCallback.303" = type { %"class.base::internal::CallbackBaseCopyable" }
%"class.base::WeakPtrFactory.304" = type { %"class.base::internal::WeakPtrFactoryBase" }
%"class.std::__1::unique_ptr.305" = type { %"class.std::__1::__compressed_pair.306" }
%"class.std::__1::__compressed_pair.306" = type { %"struct.std::__1::__compressed_pair_elem.307" }
%"struct.std::__1::__compressed_pair_elem.307" = type { %class.FindBarController* }
%class.FindBarController = type opaque
%class.scoped_refptr.311 = type { %"class.ui::SelectFileDialog"* }
%"class.ui::SelectFileDialog" = type { %"class.ui::BaseShellDialog", %"class.base::RefCountedThreadSafe.312", %"class.ui::SelectFileDialog::Listener"*, %"class.std::__1::unique_ptr.313" }
%"class.ui::BaseShellDialog" = type { i32 (...)** }
%"class.base::RefCountedThreadSafe.312" = type { %"class.base::subtle::RefCountedThreadSafeBase" }
%"class.std::__1::unique_ptr.313" = type { %"class.std::__1::__compressed_pair.314" }
%"class.std::__1::__compressed_pair.314" = type { %"struct.std::__1::__compressed_pair_elem.315" }
%"struct.std::__1::__compressed_pair_elem.315" = type { %"class.ui::SelectFilePolicy"* }
%"class.ui::SelectFilePolicy" = type opaque
%"class.std::__1::unique_ptr.319" = type { %"class.std::__1::__compressed_pair.320" }
%"class.std::__1::__compressed_pair.320" = type { %"struct.std::__1::__compressed_pair_elem.321" }
%"struct.std::__1::__compressed_pair_elem.321" = type { %class.BrowserContentSettingBubbleModelDelegate* }
%class.BrowserContentSettingBubbleModelDelegate = type opaque
%"class.std::__1::unique_ptr.325" = type { %"class.std::__1::__compressed_pair.326" }
%"class.std::__1::__compressed_pair.326" = type { %"struct.std::__1::__compressed_pair_elem.327" }
%"struct.std::__1::__compressed_pair_elem.327" = type { %class.BrowserLocationBarModelDelegate* }
%class.BrowserLocationBarModelDelegate = type opaque
%"class.std::__1::unique_ptr.331" = type { %"class.std::__1::__compressed_pair.332" }
%"class.std::__1::__compressed_pair.332" = type { %"struct.std::__1::__compressed_pair_elem.333" }
%"struct.std::__1::__compressed_pair_elem.333" = type { %class.BrowserLiveTabContext* }
%class.BrowserLiveTabContext = type opaque
%"class.std::__1::unique_ptr.337" = type { %"class.std::__1::__compressed_pair.338" }
%"class.std::__1::__compressed_pair.338" = type { %"struct.std::__1::__compressed_pair_elem.339" }
%"struct.std::__1::__compressed_pair_elem.339" = type { %class.BrowserSyncedWindowDelegate* }
%class.BrowserSyncedWindowDelegate = type opaque
%"class.std::__1::unique_ptr.343" = type { %"class.std::__1::__compressed_pair.344" }
%"class.std::__1::__compressed_pair.344" = type { %"struct.std::__1::__compressed_pair_elem.345" }
%"struct.std::__1::__compressed_pair_elem.345" = type { %class.BrowserInstantController* }
%class.BrowserInstantController = type opaque
%"class.std::__1::unique_ptr.349" = type { %"class.std::__1::__compressed_pair.350" }
%"class.std::__1::__compressed_pair.350" = type { %"struct.std::__1::__compressed_pair_elem.351" }
%"struct.std::__1::__compressed_pair_elem.351" = type { %"class.web_app::AppBrowserController"* }
%"class.web_app::AppBrowserController" = type opaque
%"class.std::__1::unique_ptr.355" = type { %"class.std::__1::__compressed_pair.356" }
%"class.std::__1::__compressed_pair.356" = type { %"struct.std::__1::__compressed_pair_elem.357" }
%"struct.std::__1::__compressed_pair_elem.357" = type { %class.ExclusiveAccessManager* }
%class.ExclusiveAccessManager = type opaque
%"class.std::__1::unique_ptr.361" = type { %"class.std::__1::__compressed_pair.362" }
%"class.std::__1::__compressed_pair.362" = type { %"struct.std::__1::__compressed_pair_elem.363" }
%"struct.std::__1::__compressed_pair_elem.363" = type { %"class.extensions::BrowserExtensionWindowController"* }
%"class.extensions::BrowserExtensionWindowController" = type opaque
%"class.std::__1::unique_ptr.367" = type { %"class.std::__1::__compressed_pair.368" }
%"class.std::__1::__compressed_pair.368" = type { %"struct.std::__1::__compressed_pair_elem.369" }
%"struct.std::__1::__compressed_pair_elem.369" = type { %"class.chrome::BrowserCommandController"* }
%"class.chrome::BrowserCommandController" = type opaque
%class.SigninViewController = type { %"class.SigninViewControllerDelegate::Observer", %class.Browser*, %class.SigninViewControllerDelegate*, %"class.base::ScopedObservation", %"class.base::WeakPtrFactory.377" }
%"class.SigninViewControllerDelegate::Observer" = type { %"class.base::CheckedObserver" }
%class.SigninViewControllerDelegate = type { i32 (...)**, %"class.base::ObserverList.373" }
%"class.base::ObserverList.373" = type <{ %"class.std::__1::vector", %"class.base::LinkedList.374", i64, i32, [4 x i8] }>
%"class.base::LinkedList.374" = type { %"class.base::LinkNode.375" }
%"class.base::LinkNode.375" = type { %"class.base::internal::LinkNodeBase" }
%"class.base::ScopedObservation" = type { %"class.SigninViewControllerDelegate::Observer"*, %class.SigninViewControllerDelegate* }
%"class.base::WeakPtrFactory.377" = type { %"class.base::internal::WeakPtrFactoryBase" }
%"class.std::__1::unique_ptr.378" = type { %"class.std::__1::__compressed_pair.379" }
%"class.std::__1::__compressed_pair.379" = type { %"struct.std::__1::__compressed_pair_elem.380" }
%"struct.std::__1::__compressed_pair_elem.380" = type { %class.ScopedKeepAlive* }
%class.ScopedKeepAlive = type opaque
%"class.base::OnceCallback" = type { %"class.base::internal::CallbackBase" }
%"class.std::__1::unique_ptr.384" = type { %"class.std::__1::__compressed_pair.385" }
%"class.std::__1::__compressed_pair.385" = type { %"struct.std::__1::__compressed_pair_elem.386" }
%"struct.std::__1::__compressed_pair_elem.386" = type { %"class.extensions::ExtensionBrowserWindowHelper"* }
%"class.extensions::ExtensionBrowserWindowHelper" = type opaque
%"class.base::ElapsedTimer" = type { %"class.base::TimeTicks" }
%"class.base::WeakPtrFactory.390" = type { %"class.base::internal::WeakPtrFactoryBase" }
%"class.chrome::ScopedTabbedBrowserDisplayer" = type { %class.Browser* }
%"class.absl::optional.465" = type { %"class.absl::optional_internal::optional_data.466" }
%"class.absl::optional_internal::optional_data.466" = type { %"class.absl::optional_internal::optional_data_base.467" }
%"class.absl::optional_internal::optional_data_base.467" = type { %"class.absl::optional_internal::optional_data_dtor_base.468" }
%"class.absl::optional_internal::optional_data_dtor_base.468" = type { i8, %union.anon.469 }
%union.anon.469 = type { %"class.tab_groups::TabGroupId" }
%"class.tab_groups::TabGroupId" = type { %"class.base::Token" }
%"class.base::Token" = type { i64, i64 }
%"class.extensions::CrxInstallError" = type { i32, i32, %"class.absl::optional.391", %"class.std::__1::basic_string.396" }
%"class.absl::optional.391" = type { %"class.absl::optional_internal::optional_data.392" }
%"class.absl::optional_internal::optional_data.392" = type { %"class.absl::optional_internal::optional_data_base.393" }
%"class.absl::optional_internal::optional_data_base.393" = type { %"class.absl::optional_internal::optional_data_dtor_base.394" }
%"class.absl::optional_internal::optional_data_dtor_base.394" = type { i8, %union.anon.395 }
%union.anon.395 = type { i32 }
%"class.std::__1::basic_string.396" = type { %"class.std::__1::__compressed_pair.397" }
%"class.std::__1::__compressed_pair.397" = type { %"struct.std::__1::__compressed_pair_elem.398" }
%"struct.std::__1::__compressed_pair_elem.398" = type { %"struct.std::__1::basic_string<char16_t, std::__1::char_traits<char16_t>, std::__1::allocator<char16_t> >::__rep" }
%"struct.std::__1::basic_string<char16_t, std::__1::char_traits<char16_t>, std::__1::allocator<char16_t> >::__rep" = type { %union.anon.399 }
%union.anon.399 = type { %"struct.std::__1::basic_string<char16_t, std::__1::char_traits<char16_t>, std::__1::allocator<char16_t> >::__long" }
%"struct.std::__1::basic_string<char16_t, std::__1::char_traits<char16_t>, std::__1::allocator<char16_t> >::__long" = type { i16*, i64, i64 }
%"class.content::WebContents" = type <{ %"class.content::PageNavigator", %"class.base::SupportsUserData.base", [7 x i8] }>
%"class.base::SupportsUserData" = type <{ i32 (...)**, %"class.std::__1::map", %"class.base::SequenceCheckerDoNothing", [7 x i8] }>
%"class.base::SupportsUserData::Data" = type { i32 (...)** }
%"class.infobars::ContentInfoBarManager" = type <{ %"class.infobars::InfoBarManager", %"class.content::WebContentsObserver", %"class.content::WebContentsUserData", i8, [7 x i8] }>
%"class.infobars::InfoBarManager" = type { i32 (...)**, %"class.std::__1::vector.405", i8, [7 x i8], %"class.base::ObserverList.412" }
%"class.std::__1::vector.405" = type { %"class.std::__1::__vector_base.406" }
%"class.std::__1::__vector_base.406" = type { %"class.infobars::InfoBar"**, %"class.infobars::InfoBar"**, %"class.std::__1::__compressed_pair.407" }
%"class.infobars::InfoBar" = type opaque
%"class.std::__1::__compressed_pair.407" = type { %"struct.std::__1::__compressed_pair_elem.408" }
%"struct.std::__1::__compressed_pair_elem.408" = type { %"class.infobars::InfoBar"** }
%"class.base::ObserverList.412" = type <{ %"class.std::__1::vector.243", %"class.base::LinkedList.413", i64, i32, [4 x i8] }>
%"class.base::LinkedList.413" = type { %"class.base::LinkNode.414" }
%"class.base::LinkNode.414" = type { %"class.base::internal::LinkNodeBase" }
%"class.content::WebContentsObserver" = type { %"class.IPC::Listener", %"class.content::WebContents"* }
%"class.IPC::Listener" = type { i32 (...)** }
%"class.content::WebContentsUserData" = type { %"class.base::SupportsUserData::Data" }
%struct.NavigateParams = type <{ %class.GURL, %"struct.content::Referrer", %"class.absl::optional.416", i32, [4 x i8], %"class.absl::optional.421", %"class.std::__1::basic_string", i32, [4 x i8], %"class.std::__1::vector.431", %class.scoped_refptr.437, %"class.std::__1::basic_string", %"class.std::__1::unique_ptr.459", %"class.content::WebContents"*, %"class.content::WebContents"*, %"class.content::WebContents"*, i32, [4 x i8], %"class.content::RenderFrameHost"*, i8, [3 x i8], i32, i8, [3 x i8], i32, %"class.std::__1::basic_string", %"class.gfx::Rect", i32, i8, i8, [2 x i8], i32, [4 x i8], %class.Browser*, %"class.absl::optional.465", i32, [4 x i8], %class.Profile*, i8, i8, i8, [5 x i8], %class.scoped_refptr.470, %class.scoped_refptr.472, i8, [7 x i8], %"class.base::TimeTicks", i32, [4 x i8], %"class.std::__1::basic_string", i32, [4 x i8], %"class.absl::optional.474", i8, [7 x i8] }>
%"struct.content::Referrer" = type <{ %class.GURL, i32, [4 x i8] }>
%"class.absl::optional.416" = type { %"class.absl::optional_internal::optional_data.417" }
%"class.absl::optional_internal::optional_data.417" = type { %"class.absl::optional_internal::optional_data_base.418" }
%"class.absl::optional_internal::optional_data_base.418" = type { %"class.absl::optional_internal::optional_data_dtor_base.419" }
%"class.absl::optional_internal::optional_data_dtor_base.419" = type { i8, %union.anon.420 }
%union.anon.420 = type { %"class.util::TokenType" }
%"class.util::TokenType" = type { %"class.base::StrongAlias" }
%"class.base::StrongAlias" = type { %"class.base::UnguessableToken" }
%"class.base::UnguessableToken" = type { %"class.base::Token" }
%"class.absl::optional.421" = type { %"class.absl::optional_internal::optional_data.422" }
%"class.absl::optional_internal::optional_data.422" = type { %"class.absl::optional_internal::optional_data_base.423" }
%"class.absl::optional_internal::optional_data_base.423" = type { %"class.absl::optional_internal::optional_data_dtor_base.424" }
%"class.absl::optional_internal::optional_data_dtor_base.424" = type { i8, %union.anon.425 }
%union.anon.425 = type { %"class.url::Origin" }
%"class.url::Origin" = type { %"class.url::SchemeHostPort", %"class.absl::optional.426" }
%"class.url::SchemeHostPort" = type <{ %"class.std::__1::basic_string", %"class.std::__1::basic_string", i16, [6 x i8] }>
%"class.absl::optional.426" = type { %"class.absl::optional_internal::optional_data.427" }
%"class.absl::optional_internal::optional_data.427" = type { %"class.absl::optional_internal::optional_data_base.428" }
%"class.absl::optional_internal::optional_data_base.428" = type { %"class.absl::optional_internal::optional_data_dtor_base.429" }
%"class.absl::optional_internal::optional_data_dtor_base.429" = type { i8, %union.anon.430 }
%union.anon.430 = type { %"class.url::Origin::Nonce" }
%"class.url::Origin::Nonce" = type { %"class.base::UnguessableToken" }
%"class.std::__1::vector.431" = type { %"class.std::__1::__vector_base.432" }
%"class.std::__1::__vector_base.432" = type { %class.GURL*, %class.GURL*, %"class.std::__1::__compressed_pair.433" }
%"class.std::__1::__compressed_pair.433" = type { %"struct.std::__1::__compressed_pair_elem.67" }
%class.scoped_refptr.437 = type { %"class.network::ResourceRequestBody"* }
%"class.network::ResourceRequestBody" = type <{ %"class.base::RefCountedThreadSafe.438", [4 x i8], %"class.std::__1::vector.439", i64, i8, i8, [6 x i8] }>
%"class.base::RefCountedThreadSafe.438" = type { %"class.base::subtle::RefCountedThreadSafeBase" }
%"class.std::__1::vector.439" = type { %"class.std::__1::__vector_base.440" }
%"class.std::__1::__vector_base.440" = type { %"class.network::DataElement"*, %"class.network::DataElement"*, %"class.std::__1::__compressed_pair.454" }
%"class.network::DataElement" = type { %"class.absl::variant.441" }
%"class.absl::variant.441" = type { %"class.absl::variant_internal::VariantMoveAssignBaseNontrivial.442" }
%"class.absl::variant_internal::VariantMoveAssignBaseNontrivial.442" = type { %"class.absl::variant_internal::VariantMoveBaseNontrivial.443" }
%"class.absl::variant_internal::VariantMoveBaseNontrivial.443" = type { %"class.absl::variant_internal::VariantStateBaseDestructorNontrivial.444" }
%"class.absl::variant_internal::VariantStateBaseDestructorNontrivial.444" = type { %"class.absl::variant_internal::VariantStateBase.445" }
%"class.absl::variant_internal::VariantStateBase.445" = type { %"union.absl::variant_internal::DestructibleUnionImpl.446", i64 }
%"union.absl::variant_internal::DestructibleUnionImpl.446" = type { %"union.absl::variant_internal::DestructibleUnionImpl.447" }
%"union.absl::variant_internal::DestructibleUnionImpl.447" = type { %"union.absl::variant_internal::DestructibleUnionImpl.448" }
%"union.absl::variant_internal::DestructibleUnionImpl.448" = type { %"union.absl::variant_internal::DestructibleUnionImpl.449" }
%"union.absl::variant_internal::DestructibleUnionImpl.449" = type { %"union.absl::variant_internal::DestructibleUnionImpl.452" }
%"union.absl::variant_internal::DestructibleUnionImpl.452" = type { %"class.network::DataElementFile" }
%"class.network::DataElementFile" = type { %"class.base::FilePath", i64, i64, %"class.base::Time" }
%"class.base::Time" = type { %"class.base::time_internal::TimeBase.453" }
%"class.base::time_internal::TimeBase.453" = type { i64 }
%"class.std::__1::__compressed_pair.454" = type { %"struct.std::__1::__compressed_pair_elem.455" }
%"struct.std::__1::__compressed_pair_elem.455" = type { %"class.network::DataElement"* }
%"class.std::__1::unique_ptr.459" = type { %"class.std::__1::__compressed_pair.460" }
%"class.std::__1::__compressed_pair.460" = type { %"struct.std::__1::__compressed_pair_elem.461" }
%"struct.std::__1::__compressed_pair_elem.461" = type { %"class.content::WebContents"* }
%"class.content::RenderFrameHost" = type { %"class.IPC::Listener", %"class.IPC::Sender" }
%"class.IPC::Sender" = type { i32 (...)** }
%class.scoped_refptr.470 = type { %"class.content::SiteInstance"* }
%"class.content::SiteInstance" = type <{ i32 (...)**, %"class.base::RefCounted.471", [4 x i8] }>
%"class.base::RefCounted.471" = type { %"class.base::subtle::RefCountedBase" }
%class.scoped_refptr.472 = type { %"class.network::SharedURLLoaderFactory"* }
%"class.network::SharedURLLoaderFactory" = type <{ %"class.network::mojom::URLLoaderFactory", %"class.base::RefCounted.473", [4 x i8] }>
%"class.network::mojom::URLLoaderFactory" = type { i32 (...)** }
%"class.base::RefCounted.473" = type { %"class.base::subtle::RefCountedBase" }
%"class.absl::optional.474" = type { %"class.absl::optional_internal::optional_data.475" }
%"class.absl::optional_internal::optional_data.475" = type { %"class.absl::optional_internal::optional_data_base.476" }
%"class.absl::optional_internal::optional_data_base.476" = type { %"class.absl::optional_internal::optional_data_dtor_base.477" }
%"class.absl::optional_internal::optional_data_dtor_base.477" = type { i8, %union.anon.478 }
%union.anon.478 = type { %"struct.blink::Impression" }
%"struct.blink::Impression" = type { %"class.url::Origin", %"class.absl::optional.421", i64, %"class.absl::optional.479", i64 }
%"class.absl::optional.479" = type { %"class.absl::optional_internal::optional_data.480" }
%"class.absl::optional_internal::optional_data.480" = type { %"class.absl::optional_internal::optional_data_base.481" }
%"class.absl::optional_internal::optional_data_base.481" = type { %"class.absl::optional_internal::optional_data_dtor_base.482" }
%"class.absl::optional_internal::optional_data_dtor_base.482" = type { i8, %union.anon.483 }
%union.anon.483 = type { %"class.base::TimeDelta" }
%"class.aura::Window" = type opaque

@_ZTV25ExtensionInstallUIDefault = hidden unnamed_addr constant { [10 x i8*] } { [10 x i8*] [i8* null, i8* null, i8* bitcast (void (%class.ExtensionInstallUIDefault*)* @_ZN25ExtensionInstallUIDefaultD2Ev to i8*), i8* bitcast (void (%class.ExtensionInstallUIDefault*)* @_ZN25ExtensionInstallUIDefaultD0Ev to i8*), i8* bitcast (void (%class.ExtensionInstallUIDefault*, %"class.extensions::Extension"*, %class.SkBitmap*)* @_ZN25ExtensionInstallUIDefault16OnInstallSuccessE13scoped_refptrIKN10extensions9ExtensionEEPK8SkBitmap to i8*), i8* bitcast (void (%class.ExtensionInstallUIDefault*, %"class.extensions::CrxInstallError"*)* @_ZN25ExtensionInstallUIDefault16OnInstallFailureERKN10extensions15CrxInstallErrorE to i8*), i8* bitcast (void (%class.ExtensionInstallUIDefault*, i1)* @_ZN25ExtensionInstallUIDefault24SetUseAppInstalledBubbleEb to i8*), i8* bitcast (void (%class.ExtensionInstallUIDefault*, %"class.std::__1::basic_string"*)* @_ZN25ExtensionInstallUIDefault18OpenAppInstalledUIERKNSt3__112basic_stringIcNS0_11char_traitsIcEENS0_9allocatorIcEEEE to i8*), i8* bitcast (void (%class.ExtensionInstallUIDefault*, i1)* @_ZN25ExtensionInstallUIDefault20SetSkipPostInstallUIEb to i8*), i8* bitcast (%"class.aura::Window"* (%class.ExtensionInstallUIDefault*)* @_ZN25ExtensionInstallUIDefault29GetDefaultInstallDialogParentEv to i8*)] }, align 8
@_ZN6chrome16kChromeUIAppsURLE = external constant [0 x i8], align 1
@_ZN10extensions18ExtensionInstallUI21disable_ui_for_tests_E = external local_unnamed_addr global i8, align 1
@_ZN8infobars21ContentInfoBarManager12kUserDataKeyE = external constant i32, align 4

@_ZN25ExtensionInstallUIDefaultC1EPN7content14BrowserContextE = hidden unnamed_addr alias void (%class.ExtensionInstallUIDefault*, %"class.content::BrowserContext"*), void (%class.ExtensionInstallUIDefault*, %"class.content::BrowserContext"*)* @_ZN25ExtensionInstallUIDefaultC2EPN7content14BrowserContextE
@_ZN25ExtensionInstallUIDefaultD1Ev = hidden unnamed_addr alias void (%class.ExtensionInstallUIDefault*), void (%class.ExtensionInstallUIDefault*)* @_ZN25ExtensionInstallUIDefaultD2Ev

; Function Attrs: nounwind ssp uwtable
define hidden void @_ZN25ExtensionInstallUIDefaultC2EPN7content14BrowserContextE(%class.ExtensionInstallUIDefault*, %"class.content::BrowserContext"*) unnamed_addr #0 align 2 {
  %3 = getelementptr inbounds %class.ExtensionInstallUIDefault, %class.ExtensionInstallUIDefault* %0, i64 0, i32 0
  tail call void @_ZN10extensions18ExtensionInstallUIC2Ev(%"class.extensions::ExtensionInstallUI"* %3) #7
  %4 = getelementptr inbounds %class.ExtensionInstallUIDefault, %class.ExtensionInstallUIDefault* %0, i64 0, i32 0, i32 0
  store i32 (...)** bitcast (i8** getelementptr inbounds ({ [10 x i8*] }, { [10 x i8*] }* @_ZTV25ExtensionInstallUIDefault, i64 0, inrange i32 0, i64 2) to i32 (...)**), i32 (...)*** %4, align 8
  %5 = getelementptr inbounds %class.ExtensionInstallUIDefault, %class.ExtensionInstallUIDefault* %0, i64 0, i32 1
  %6 = tail call %class.Profile* @_ZN7Profile18FromBrowserContextEPN7content14BrowserContextE(%"class.content::BrowserContext"* %1) #7
  store %class.Profile* %6, %class.Profile** %5, align 8
  %7 = getelementptr inbounds %class.ExtensionInstallUIDefault, %class.ExtensionInstallUIDefault* %0, i64 0, i32 2
  store i8 0, i8* %7, align 8
  %8 = getelementptr inbounds %class.ExtensionInstallUIDefault, %class.ExtensionInstallUIDefault* %0, i64 0, i32 3
  store i8 0, i8* %8, align 1
  ret void
}

declare void @_ZN10extensions18ExtensionInstallUIC2Ev(%"class.extensions::ExtensionInstallUI"*) unnamed_addr #1

declare %class.Profile* @_ZN7Profile18FromBrowserContextEPN7content14BrowserContextE(%"class.content::BrowserContext"*) local_unnamed_addr #1

; Function Attrs: nounwind
declare void @_ZN10extensions18ExtensionInstallUID2Ev(%"class.extensions::ExtensionInstallUI"*) unnamed_addr #2

; Function Attrs: nounwind ssp uwtable
define hidden void @_ZN25ExtensionInstallUIDefaultD2Ev(%class.ExtensionInstallUIDefault*) unnamed_addr #0 align 2 {
  %2 = getelementptr inbounds %class.ExtensionInstallUIDefault, %class.ExtensionInstallUIDefault* %0, i64 0, i32 0
  tail call void @_ZN10extensions18ExtensionInstallUID2Ev(%"class.extensions::ExtensionInstallUI"* %2) #7
  ret void
}

; Function Attrs: nounwind ssp uwtable
define hidden void @_ZN25ExtensionInstallUIDefaultD0Ev(%class.ExtensionInstallUIDefault*) unnamed_addr #0 align 2 {
  %2 = getelementptr inbounds %class.ExtensionInstallUIDefault, %class.ExtensionInstallUIDefault* %0, i64 0, i32 0
  tail call void @_ZN10extensions18ExtensionInstallUID2Ev(%"class.extensions::ExtensionInstallUI"* %2) #7
  %3 = bitcast %class.ExtensionInstallUIDefault* %0 to i8*
  tail call void @_ZdlPv(i8* %3) #8
  ret void
}

; Function Attrs: nobuiltin nounwind
declare void @_ZdlPv(i8*) local_unnamed_addr #3

; Function Attrs: nounwind ssp uwtable
define hidden void @_ZN25ExtensionInstallUIDefault16OnInstallSuccessE13scoped_refptrIKN10extensions9ExtensionEEPK8SkBitmap(%class.ExtensionInstallUIDefault*, %"class.extensions::Extension"*, %class.SkBitmap*) unnamed_addr #0 align 2 {
  %4 = load i8, i8* @_ZN10extensions18ExtensionInstallUI21disable_ui_for_tests_E, align 1, !range !2
  %5 = icmp eq i8 %4, 0
  br i1 %5, label %6, label %48

6:                                                ; preds = %3
  %7 = getelementptr inbounds %class.ExtensionInstallUIDefault, %class.ExtensionInstallUIDefault* %0, i64 0, i32 2
  %8 = load i8, i8* %7, align 8, !range !2
  %9 = icmp eq i8 %8, 0
  br i1 %9, label %10, label %48

10:                                               ; preds = %6
  %11 = tail call zeroext i1 @_ZNK10extensions9Extension8is_themeEv(%"class.extensions::Extension"* %1) #7
  br i1 %11, label %48, label %12

12:                                               ; preds = %10
  %13 = getelementptr inbounds %class.ExtensionInstallUIDefault, %class.ExtensionInstallUIDefault* %0, i64 0, i32 1
  %14 = load %class.Profile*, %class.Profile** %13, align 8
  %15 = icmp eq %class.Profile* %14, null
  br i1 %15, label %48, label %16

16:                                               ; preds = %12
  %17 = bitcast %class.Profile* %14 to %class.Profile* (%class.Profile*)***
  %18 = load %class.Profile* (%class.Profile*)**, %class.Profile* (%class.Profile*)*** %17, align 8
  %19 = getelementptr inbounds %class.Profile* (%class.Profile*)*, %class.Profile* (%class.Profile*)** %18, i64 40
  %20 = load %class.Profile* (%class.Profile*)*, %class.Profile* (%class.Profile*)** %19, align 8
  %21 = tail call %class.Profile* %20(%class.Profile* nonnull %14) #7
  %22 = tail call fastcc %class.Browser* @_ZN12_GLOBAL__N_126FindOrCreateVisibleBrowserEP7Profile(%class.Profile* %21)
  %23 = tail call zeroext i1 @_ZNK10extensions9Extension6is_appEv(%"class.extensions::Extension"* %1) #7
  br i1 %23, label %24, label %42

24:                                               ; preds = %16
  %25 = getelementptr inbounds %class.ExtensionInstallUIDefault, %class.ExtensionInstallUIDefault* %0, i64 0, i32 3
  %26 = load i8, i8* %25, align 1, !range !2
  %27 = icmp eq i8 %26, 0
  br i1 %27, label %36, label %28

28:                                               ; preds = %24
  %29 = icmp eq %class.Browser* %22, null
  br i1 %29, label %48, label %30

30:                                               ; preds = %28
  %31 = icmp eq %"class.extensions::Extension"* %1, null
  br i1 %31, label %35, label %32

32:                                               ; preds = %30
  %33 = getelementptr inbounds %"class.extensions::Extension", %"class.extensions::Extension"* %1, i64 0, i32 0, i32 0, i32 0, i32 0, i32 0, i32 0, i32 0, i32 0, i32 0
  %34 = atomicrmw add i32* %33, i32 1 monotonic
  br label %35

35:                                               ; preds = %30, %32
  tail call void @_ZN25ExtensionInstallUIDefault18ShowPlatformBubbleE13scoped_refptrIKN10extensions9ExtensionEEP7BrowserRK8SkBitmap(%"class.extensions::Extension"* %1, %class.Browser* nonnull %22, %class.SkBitmap* dereferenceable(56) %2) #7
  br label %48

36:                                               ; preds = %24
  %37 = tail call dereferenceable(24) %"class.std::__1::basic_string"* @_ZNK10extensions9Extension2idEv(%"class.extensions::Extension"* %1) #7
  %38 = bitcast %class.ExtensionInstallUIDefault* %0 to void (%class.ExtensionInstallUIDefault*, %"class.std::__1::basic_string"*)***
  %39 = load void (%class.ExtensionInstallUIDefault*, %"class.std::__1::basic_string"*)**, void (%class.ExtensionInstallUIDefault*, %"class.std::__1::basic_string"*)*** %38, align 8
  %40 = getelementptr inbounds void (%class.ExtensionInstallUIDefault*, %"class.std::__1::basic_string"*)*, void (%class.ExtensionInstallUIDefault*, %"class.std::__1::basic_string"*)** %39, i64 5
  %41 = load void (%class.ExtensionInstallUIDefault*, %"class.std::__1::basic_string"*)*, void (%class.ExtensionInstallUIDefault*, %"class.std::__1::basic_string"*)** %40, align 8
  tail call void %41(%class.ExtensionInstallUIDefault* %0, %"class.std::__1::basic_string"* dereferenceable(24) %37) #7
  br label %48

42:                                               ; preds = %16
  %43 = icmp eq %"class.extensions::Extension"* %1, null
  br i1 %43, label %47, label %44

44:                                               ; preds = %42
  %45 = getelementptr inbounds %"class.extensions::Extension", %"class.extensions::Extension"* %1, i64 0, i32 0, i32 0, i32 0, i32 0, i32 0, i32 0, i32 0, i32 0, i32 0
  %46 = atomicrmw add i32* %45, i32 1 monotonic
  br label %47

47:                                               ; preds = %42, %44
  tail call void @_ZN25ExtensionInstallUIDefault18ShowPlatformBubbleE13scoped_refptrIKN10extensions9ExtensionEEP7BrowserRK8SkBitmap(%"class.extensions::Extension"* %1, %class.Browser* %22, %class.SkBitmap* dereferenceable(56) %2) #7
  br label %48

48:                                               ; preds = %3, %36, %47, %28, %35, %12, %10, %6
  %49 = icmp eq %"class.extensions::Extension"* %1, null
  br i1 %49, label %56, label %50

50:                                               ; preds = %48
  %51 = getelementptr inbounds %"class.extensions::Extension", %"class.extensions::Extension"* %1, i64 0, i32 0, i32 0, i32 0, i32 0, i32 0, i32 0, i32 0, i32 0, i32 0
  %52 = atomicrmw sub i32* %51, i32 1 acq_rel
  %53 = icmp eq i32 %52, 1
  br i1 %53, label %54, label %56

54:                                               ; preds = %50
  tail call void @_ZN10extensions9ExtensionD1Ev(%"class.extensions::Extension"* nonnull %1) #7
  %55 = bitcast %"class.extensions::Extension"* %1 to i8*
  tail call void @_ZdlPv(i8* %55) #8
  br label %56

56:                                               ; preds = %48, %50, %54
  ret void
}

declare zeroext i1 @_ZNK10extensions9Extension8is_themeEv(%"class.extensions::Extension"*) local_unnamed_addr #1

; Function Attrs: argmemonly nounwind
declare void @llvm.lifetime.start.p0i8(i64 immarg, i8* nocapture) #4

; Function Attrs: nounwind ssp uwtable
define internal fastcc %class.Browser* @_ZN12_GLOBAL__N_126FindOrCreateVisibleBrowserEP7Profile(%class.Profile*) unnamed_addr #0 {
  %2 = alloca %"class.chrome::ScopedTabbedBrowserDisplayer", align 8
  %3 = alloca %class.GURL, align 8
  %4 = alloca %"class.absl::optional.465", align 8
  %5 = tail call zeroext i1 @_ZN18IncognitoModePrefs14CanOpenBrowserEP7Profile(%class.Profile* %0) #7
  br i1 %5, label %6, label %26

6:                                                ; preds = %1
  %7 = bitcast %"class.chrome::ScopedTabbedBrowserDisplayer"* %2 to i8*
  call void @llvm.lifetime.start.p0i8(i64 8, i8* nonnull %7) #7
  %8 = getelementptr inbounds %"class.chrome::ScopedTabbedBrowserDisplayer", %"class.chrome::ScopedTabbedBrowserDisplayer"* %2, i64 0, i32 0
  store %class.Browser* inttoptr (i64 -6148914691236517206 to %class.Browser*), %class.Browser** %8, align 8
  call void @_ZN6chrome28ScopedTabbedBrowserDisplayerC1EP7Profile(%"class.chrome::ScopedTabbedBrowserDisplayer"* nonnull %2, %class.Profile* %0) #7
  %9 = load %class.Browser*, %class.Browser** %8, align 8
  %10 = getelementptr inbounds %class.Browser, %class.Browser* %9, i64 0, i32 16, i32 0, i32 0, i32 0
  %11 = load %class.TabStripModel*, %class.TabStripModel** %10, align 8
  %12 = getelementptr inbounds %class.TabStripModel, %class.TabStripModel* %11, i64 0, i32 1
  %13 = getelementptr inbounds %class.TabStripModel, %class.TabStripModel* %11, i64 0, i32 1, i32 0, i32 1
  %14 = bitcast %"class.std::__1::unique_ptr.230"** %13 to i64*
  %15 = load i64, i64* %14, align 8
  %16 = bitcast %"class.std::__1::vector.228"* %12 to i64*
  %17 = load i64, i64* %16, align 8
  %18 = sub i64 %15, %17
  %19 = lshr exact i64 %18, 3
  %20 = trunc i64 %19 to i32
  %21 = icmp eq i32 %20, 0
  br i1 %21, label %22, label %25

22:                                               ; preds = %6
  %23 = bitcast %class.GURL* %3 to i8*
  call void @llvm.lifetime.start.p0i8(i64 120, i8* nonnull %23) #7
  call void @_ZN4GURLC1Ev(%class.GURL* nonnull %3) #7
  %24 = getelementptr inbounds %"class.absl::optional.465", %"class.absl::optional.465"* %4, i64 0, i32 0, i32 0, i32 0, i32 0
  store i8 0, i8* %24, align 8
  call void @_ZN6chrome8AddTabAtEP7BrowserRK4GURLibN4absl8optionalIN10tab_groups10TabGroupIdEEE(%class.Browser* %9, %class.GURL* nonnull dereferenceable(120) %3, i32 -1, i1 zeroext true, %"class.absl::optional.465"* nonnull %4) #7
  call void @_ZN4GURLD1Ev(%class.GURL* nonnull %3) #7
  call void @llvm.lifetime.end.p0i8(i64 120, i8* nonnull %23) #7
  br label %25

25:                                               ; preds = %22, %6
  call void @_ZN6chrome28ScopedTabbedBrowserDisplayerD1Ev(%"class.chrome::ScopedTabbedBrowserDisplayer"* nonnull %2) #7
  call void @llvm.lifetime.end.p0i8(i64 8, i8* nonnull %7) #7
  br label %26

26:                                               ; preds = %1, %25
  %27 = phi %class.Browser* [ %9, %25 ], [ null, %1 ]
  ret %class.Browser* %27
}

declare zeroext i1 @_ZNK10extensions9Extension6is_appEv(%"class.extensions::Extension"*) local_unnamed_addr #1

declare void @_ZN25ExtensionInstallUIDefault18ShowPlatformBubbleE13scoped_refptrIKN10extensions9ExtensionEEP7BrowserRK8SkBitmap(%"class.extensions::Extension"*, %class.Browser*, %class.SkBitmap* dereferenceable(56)) local_unnamed_addr #1

declare dereferenceable(24) %"class.std::__1::basic_string"* @_ZNK10extensions9Extension2idEv(%"class.extensions::Extension"*) local_unnamed_addr #1

; Function Attrs: argmemonly nounwind
declare void @llvm.lifetime.end.p0i8(i64 immarg, i8* nocapture) #4

; Function Attrs: nounwind ssp uwtable
define hidden void @_ZN25ExtensionInstallUIDefault16OnInstallFailureERKN10extensions15CrxInstallErrorE(%class.ExtensionInstallUIDefault* nocapture readonly, %"class.extensions::CrxInstallError"* dereferenceable(40)) unnamed_addr #0 align 2 {
  %3 = load i8, i8* @_ZN10extensions18ExtensionInstallUI21disable_ui_for_tests_E, align 1, !range !2
  %4 = icmp eq i8 %3, 0
  br i1 %4, label %5, label %27

5:                                                ; preds = %2
  %6 = getelementptr inbounds %class.ExtensionInstallUIDefault, %class.ExtensionInstallUIDefault* %0, i64 0, i32 2
  %7 = load i8, i8* %6, align 8, !range !2
  %8 = icmp eq i8 %7, 0
  br i1 %8, label %9, label %27

9:                                                ; preds = %5
  %10 = getelementptr inbounds %class.ExtensionInstallUIDefault, %class.ExtensionInstallUIDefault* %0, i64 0, i32 1
  %11 = load %class.Profile*, %class.Profile** %10, align 8
  %12 = tail call %class.Browser* @_ZN6chrome25FindLastActiveWithProfileEP7Profile(%class.Profile* %11) #7
  %13 = icmp eq %class.Browser* %12, null
  br i1 %13, label %27, label %14

14:                                               ; preds = %9
  %15 = getelementptr inbounds %class.Browser, %class.Browser* %12, i64 0, i32 16, i32 0, i32 0, i32 0
  %16 = load %class.TabStripModel*, %class.TabStripModel** %15, align 8
  %17 = tail call %"class.content::WebContents"* @_ZNK13TabStripModel20GetActiveWebContentsEv(%class.TabStripModel* %16) #7
  %18 = icmp eq %"class.content::WebContents"* %17, null
  br i1 %18, label %27, label %19

19:                                               ; preds = %14
  %20 = getelementptr inbounds %"class.content::WebContents", %"class.content::WebContents"* %17, i64 0, i32 1
  %21 = bitcast %"class.base::SupportsUserData.base"* %20 to %"class.base::SupportsUserData"*
  %22 = tail call %"class.base::SupportsUserData::Data"* @_ZNK4base16SupportsUserData11GetUserDataEPKv(%"class.base::SupportsUserData"* %21, i8* bitcast (i32* @_ZN8infobars21ContentInfoBarManager12kUserDataKeyE to i8*)) #7
  %23 = icmp eq %"class.base::SupportsUserData::Data"* %22, null
  %24 = getelementptr inbounds %"class.base::SupportsUserData::Data", %"class.base::SupportsUserData::Data"* %22, i64 -14
  %25 = bitcast %"class.base::SupportsUserData::Data"* %24 to %"class.infobars::ContentInfoBarManager"*
  %26 = select i1 %23, %"class.infobars::ContentInfoBarManager"* null, %"class.infobars::ContentInfoBarManager"* %25
  tail call void @_ZN32InstallationErrorInfoBarDelegate6CreateEPN8infobars21ContentInfoBarManagerERKN10extensions15CrxInstallErrorE(%"class.infobars::ContentInfoBarManager"* %26, %"class.extensions::CrxInstallError"* dereferenceable(40) %1) #7
  br label %27

27:                                               ; preds = %2, %9, %14, %19, %5
  ret void
}

declare %class.Browser* @_ZN6chrome25FindLastActiveWithProfileEP7Profile(%class.Profile*) local_unnamed_addr #1

declare %"class.content::WebContents"* @_ZNK13TabStripModel20GetActiveWebContentsEv(%class.TabStripModel*) local_unnamed_addr #1

declare void @_ZN32InstallationErrorInfoBarDelegate6CreateEPN8infobars21ContentInfoBarManagerERKN10extensions15CrxInstallErrorE(%"class.infobars::ContentInfoBarManager"*, %"class.extensions::CrxInstallError"* dereferenceable(40)) local_unnamed_addr #1

; Function Attrs: nounwind ssp uwtable
define hidden void @_ZN25ExtensionInstallUIDefault18OpenAppInstalledUIERKNSt3__112basic_stringIcNS0_11char_traitsIcEENS0_9allocatorIcEEEE(%class.ExtensionInstallUIDefault* nocapture readonly, %"class.std::__1::basic_string"* nocapture readnone dereferenceable(24)) unnamed_addr #0 align 2 {
  %3 = alloca %struct.NavigateParams, align 8
  %4 = alloca %class.GURL, align 8
  %5 = getelementptr inbounds %class.ExtensionInstallUIDefault, %class.ExtensionInstallUIDefault* %0, i64 0, i32 1
  %6 = load %class.Profile*, %class.Profile** %5, align 8
  %7 = bitcast %class.Profile* %6 to %class.Profile* (%class.Profile*)***
  %8 = load %class.Profile* (%class.Profile*)**, %class.Profile* (%class.Profile*)*** %7, align 8
  %9 = getelementptr inbounds %class.Profile* (%class.Profile*)*, %class.Profile* (%class.Profile*)** %8, i64 40
  %10 = load %class.Profile* (%class.Profile*)*, %class.Profile* (%class.Profile*)** %9, align 8
  %11 = tail call %class.Profile* %10(%class.Profile* %6) #7
  %12 = tail call fastcc %class.Browser* @_ZN12_GLOBAL__N_126FindOrCreateVisibleBrowserEP7Profile(%class.Profile* %11)
  %13 = icmp eq %class.Browser* %12, null
  br i1 %13, label %18, label %14

14:                                               ; preds = %2
  %15 = bitcast %struct.NavigateParams* %3 to i8*
  call void @llvm.lifetime.start.p0i8(i64 920, i8* nonnull %15) #7
  call void @llvm.memset.p0i8.i64(i8* nonnull align 8 %15, i8 -86, i64 920, i1 false)
  %16 = bitcast %class.GURL* %4 to i8*
  call void @llvm.lifetime.start.p0i8(i64 120, i8* nonnull %16) #7
  %17 = tail call i64 @strlen(i8* nonnull getelementptr inbounds ([0 x i8], [0 x i8]* @_ZN6chrome16kChromeUIAppsURLE, i64 0, i64 0)) #7
  call void @_ZN4GURLC1EN4base16BasicStringPieceIcNSt3__111char_traitsIcEEEE(%class.GURL* nonnull %4, i8* getelementptr inbounds ([0 x i8], [0 x i8]* @_ZN6chrome16kChromeUIAppsURLE, i64 0, i64 0), i64 %17) #7
  call void @_Z29GetSingletonTabNavigateParamsP7BrowserRK4GURL(%struct.NavigateParams* nonnull sret %3, %class.Browser* nonnull %12, %class.GURL* nonnull dereferenceable(120) %4) #7
  call void @_ZN4GURLD1Ev(%class.GURL* nonnull %4) #7
  call void @llvm.lifetime.end.p0i8(i64 120, i8* nonnull %16) #7
  call void @_Z8NavigateP14NavigateParams(%struct.NavigateParams* nonnull %3) #7
  call void @_ZN14NavigateParamsD1Ev(%struct.NavigateParams* nonnull %3) #7
  call void @llvm.lifetime.end.p0i8(i64 920, i8* nonnull %15) #7
  br label %18

18:                                               ; preds = %2, %14
  ret void
}

; Function Attrs: argmemonly nounwind
declare void @llvm.memset.p0i8.i64(i8* nocapture writeonly, i8, i64, i1 immarg) #4

declare void @_Z29GetSingletonTabNavigateParamsP7BrowserRK4GURL(%struct.NavigateParams* sret, %class.Browser*, %class.GURL* dereferenceable(120)) local_unnamed_addr #1

declare void @_ZN4GURLC1EN4base16BasicStringPieceIcNSt3__111char_traitsIcEEEE(%class.GURL*, i8*, i64) unnamed_addr #1

; Function Attrs: nounwind
declare void @_ZN4GURLD1Ev(%class.GURL*) unnamed_addr #2

declare void @_Z8NavigateP14NavigateParams(%struct.NavigateParams*) local_unnamed_addr #1

; Function Attrs: nounwind
declare void @_ZN14NavigateParamsD1Ev(%struct.NavigateParams*) unnamed_addr #2

; Function Attrs: nofree norecurse nounwind ssp uwtable writeonly
define hidden void @_ZN25ExtensionInstallUIDefault24SetUseAppInstalledBubbleEb(%class.ExtensionInstallUIDefault* nocapture, i1 zeroext) unnamed_addr #5 align 2 {
  %3 = zext i1 %1 to i8
  %4 = getelementptr inbounds %class.ExtensionInstallUIDefault, %class.ExtensionInstallUIDefault* %0, i64 0, i32 3
  store i8 %3, i8* %4, align 1
  ret void
}

; Function Attrs: nofree norecurse nounwind ssp uwtable writeonly
define hidden void @_ZN25ExtensionInstallUIDefault20SetSkipPostInstallUIEb(%class.ExtensionInstallUIDefault* nocapture, i1 zeroext) unnamed_addr #5 align 2 {
  %3 = zext i1 %1 to i8
  %4 = getelementptr inbounds %class.ExtensionInstallUIDefault, %class.ExtensionInstallUIDefault* %0, i64 0, i32 2
  store i8 %3, i8* %4, align 8
  ret void
}

; Function Attrs: nounwind ssp uwtable
define hidden %"class.aura::Window"* @_ZN25ExtensionInstallUIDefault29GetDefaultInstallDialogParentEv(%class.ExtensionInstallUIDefault* nocapture readonly) unnamed_addr #0 align 2 {
  %2 = getelementptr inbounds %class.ExtensionInstallUIDefault, %class.ExtensionInstallUIDefault* %0, i64 0, i32 1
  %3 = load %class.Profile*, %class.Profile** %2, align 8
  %4 = tail call %class.Browser* @_ZN6chrome25FindLastActiveWithProfileEP7Profile(%class.Profile* %3) #7
  %5 = icmp eq %class.Browser* %4, null
  br i1 %5, label %15, label %6

6:                                                ; preds = %1
  %7 = getelementptr inbounds %class.Browser, %class.Browser* %4, i64 0, i32 16, i32 0, i32 0, i32 0
  %8 = load %class.TabStripModel*, %class.TabStripModel** %7, align 8
  %9 = tail call %"class.content::WebContents"* @_ZNK13TabStripModel20GetActiveWebContentsEv(%class.TabStripModel* %8) #7
  %10 = bitcast %"class.content::WebContents"* %9 to %"class.aura::Window"* (%"class.content::WebContents"*)***
  %11 = load %"class.aura::Window"* (%"class.content::WebContents"*)**, %"class.aura::Window"* (%"class.content::WebContents"*)*** %10, align 8
  %12 = getelementptr inbounds %"class.aura::Window"* (%"class.content::WebContents"*)*, %"class.aura::Window"* (%"class.content::WebContents"*)** %11, i64 113
  %13 = load %"class.aura::Window"* (%"class.content::WebContents"*)*, %"class.aura::Window"* (%"class.content::WebContents"*)** %12, align 8
  %14 = tail call %"class.aura::Window"* %13(%"class.content::WebContents"* %9) #7
  br label %15

15:                                               ; preds = %1, %6
  %16 = phi %"class.aura::Window"* [ %14, %6 ], [ null, %1 ]
  ret %"class.aura::Window"* %16
}

declare zeroext i1 @_ZN18IncognitoModePrefs14CanOpenBrowserEP7Profile(%class.Profile*) local_unnamed_addr #1

declare void @_ZN6chrome28ScopedTabbedBrowserDisplayerC1EP7Profile(%"class.chrome::ScopedTabbedBrowserDisplayer"*, %class.Profile*) unnamed_addr #1

declare void @_ZN6chrome8AddTabAtEP7BrowserRK4GURLibN4absl8optionalIN10tab_groups10TabGroupIdEEE(%class.Browser*, %class.GURL* dereferenceable(120), i32, i1 zeroext, %"class.absl::optional.465"*) local_unnamed_addr #1

declare void @_ZN4GURLC1Ev(%class.GURL*) unnamed_addr #1

; Function Attrs: nounwind
declare void @_ZN6chrome28ScopedTabbedBrowserDisplayerD1Ev(%"class.chrome::ScopedTabbedBrowserDisplayer"*) unnamed_addr #2

; Function Attrs: argmemonly nofree nounwind readonly
declare i64 @strlen(i8* nocapture) local_unnamed_addr #6

; Function Attrs: nounwind
declare void @_ZN10extensions9ExtensionD1Ev(%"class.extensions::Extension"*) unnamed_addr #2

declare %"class.base::SupportsUserData::Data"* @_ZNK4base16SupportsUserData11GetUserDataEPKv(%"class.base::SupportsUserData"*, i8*) local_unnamed_addr #1

attributes #0 = { nounwind ssp uwtable "correctly-rounded-divide-sqrt-fp-math"="false" "disable-tail-calls"="false" "less-precise-fpmad"="false" "min-legal-vector-width"="0" "no-frame-pointer-elim"="false" "no-frame-pointer-elim-non-leaf" "no-infs-fp-math"="false" "no-jump-tables"="false" "no-nans-fp-math"="false" "no-signed-zeros-fp-math"="false" "no-trapping-math"="false" "null-pointer-is-valid"="true" "stack-protector-buffer-size"="4" "target-cpu"="x86-64" "target-features"="+cx8,+fxsr,+mmx,+sse,+sse2,+sse3,+x87" "unsafe-fp-math"="false" "use-soft-float"="false" }
attributes #1 = { "correctly-rounded-divide-sqrt-fp-math"="false" "disable-tail-calls"="false" "less-precise-fpmad"="false" "no-frame-pointer-elim"="false" "no-frame-pointer-elim-non-leaf" "no-infs-fp-math"="false" "no-nans-fp-math"="false" "no-signed-zeros-fp-math"="false" "no-trapping-math"="false" "null-pointer-is-valid"="true" "stack-protector-buffer-size"="4" "target-cpu"="x86-64" "target-features"="+cx8,+fxsr,+mmx,+sse,+sse2,+sse3,+x87" "unsafe-fp-math"="false" "use-soft-float"="false" }
attributes #2 = { nounwind "correctly-rounded-divide-sqrt-fp-math"="false" "disable-tail-calls"="false" "less-precise-fpmad"="false" "no-frame-pointer-elim"="false" "no-frame-pointer-elim-non-leaf" "no-infs-fp-math"="false" "no-nans-fp-math"="false" "no-signed-zeros-fp-math"="false" "no-trapping-math"="false" "null-pointer-is-valid"="true" "stack-protector-buffer-size"="4" "target-cpu"="x86-64" "target-features"="+cx8,+fxsr,+mmx,+sse,+sse2,+sse3,+x87" "unsafe-fp-math"="false" "use-soft-float"="false" }
attributes #3 = { nobuiltin nounwind "correctly-rounded-divide-sqrt-fp-math"="false" "disable-tail-calls"="false" "less-precise-fpmad"="false" "no-frame-pointer-elim"="false" "no-frame-pointer-elim-non-leaf" "no-infs-fp-math"="false" "no-nans-fp-math"="false" "no-signed-zeros-fp-math"="false" "no-trapping-math"="false" "null-pointer-is-valid"="true" "stack-protector-buffer-size"="4" "target-cpu"="x86-64" "target-features"="+cx8,+fxsr,+mmx,+sse,+sse2,+sse3,+x87" "unsafe-fp-math"="false" "use-soft-float"="false" }
attributes #4 = { argmemonly nounwind }
attributes #5 = { nofree norecurse nounwind ssp uwtable writeonly "correctly-rounded-divide-sqrt-fp-math"="false" "disable-tail-calls"="false" "less-precise-fpmad"="false" "min-legal-vector-width"="0" "no-frame-pointer-elim"="false" "no-frame-pointer-elim-non-leaf" "no-infs-fp-math"="false" "no-jump-tables"="false" "no-nans-fp-math"="false" "no-signed-zeros-fp-math"="false" "no-trapping-math"="false" "null-pointer-is-valid"="true" "stack-protector-buffer-size"="4" "target-cpu"="x86-64" "target-features"="+cx8,+fxsr,+mmx,+sse,+sse2,+sse3,+x87" "unsafe-fp-math"="false" "use-soft-float"="false" }
attributes #6 = { argmemonly nofree nounwind readonly "correctly-rounded-divide-sqrt-fp-math"="false" "disable-tail-calls"="false" "less-precise-fpmad"="false" "no-frame-pointer-elim"="false" "no-frame-pointer-elim-non-leaf" "no-infs-fp-math"="false" "no-nans-fp-math"="false" "no-signed-zeros-fp-math"="false" "no-trapping-math"="false" "null-pointer-is-valid"="true" "stack-protector-buffer-size"="4" "target-cpu"="x86-64" "target-features"="+cx8,+fxsr,+mmx,+sse,+sse2,+sse3,+x87" "unsafe-fp-math"="false" "use-soft-float"="false" }
attributes #7 = { nounwind }
attributes #8 = { builtin nounwind }

!llvm.module.flags = !{!0, !1}

!0 = !{i32 1, !"wchar_size", i32 4}
!1 = !{i32 7, !"PIC Level", i32 2}
!2 = !{i8 0, i8 2}
