; ModuleID = '../../extensions/common/extension_message_generator.cc'
source_filename = "../../extensions/common/extension_message_generator.cc"
target datalayout = "e-m:e-i64:64-f80:128-n8:16:32:64-S128"
target triple = "x86_64-unknown-linux-gnu"

module asm ".symver exp, exp@GLIBC_2.2.5"
module asm ".symver exp2, exp2@GLIBC_2.2.5"
module asm ".symver exp2f, exp2f@GLIBC_2.2.5"
module asm ".symver expf, expf@GLIBC_2.2.5"
module asm ".symver lgamma, lgamma@GLIBC_2.2.5"
module asm ".symver lgammaf, lgammaf@GLIBC_2.2.5"
module asm ".symver lgammal, lgammal@GLIBC_2.2.5"
module asm ".symver log, log@GLIBC_2.2.5"
module asm ".symver log2, log2@GLIBC_2.2.5"
module asm ".symver log2f, log2f@GLIBC_2.2.5"
module asm ".symver logf, logf@GLIBC_2.2.5"
module asm ".symver pow, pow@GLIBC_2.2.5"
module asm ".symver powf, powf@GLIBC_2.2.5"

%union.anon.387 = type { %"class.base::UnguessableToken" }
%"class.base::UnguessableToken" = type { %"class.base::Token" }
%"class.base::Token" = type { i64, i64 }
%"class.gfx::RectF" = type { %"class.gfx::PointF", %"class.gfx::SizeF" }
%"class.gfx::PointF" = type { float, float }
%"class.gfx::SizeF" = type { float, float }
%"class.std::__1::unique_ptr.455" = type { %"class.std::__1::__compressed_pair.456" }
%"class.std::__1::__compressed_pair.456" = type { %"struct.std::__1::__compressed_pair_elem.457" }
%"struct.std::__1::__compressed_pair_elem.457" = type { %"class.gfx::Transform"* }
%"class.gfx::Transform" = type { %class.SkMatrix44 }
%class.SkMatrix44 = type <{ [4 x [4 x float]], i8, [3 x i8] }>
%"struct.std::__1::piecewise_construct_t" = type { i8 }
%"class.IPC::MessageT" = type { %"class.IPC::Message" }
%"class.IPC::Message" = type { %"class.base::Pickle", i8, %class.scoped_refptr }
%"class.base::Pickle" = type { i32 (...)**, %"struct.base::Pickle::Header"*, i64, i64, i64 }
%"struct.base::Pickle::Header" = type { i32 }
%class.scoped_refptr = type { %"class.IPC::MessageAttachmentSet"* }
%"class.IPC::MessageAttachmentSet" = type opaque
%struct.ExtensionMsg_DispatchEvent_Params = type { i32, %"class.std::__1::basic_string", %"class.std::__1::basic_string", i32, i8, [3 x i8], %"struct.extensions::EventFilteringInfo" }
%"class.std::__1::basic_string" = type { %"class.std::__1::__compressed_pair" }
%"class.std::__1::__compressed_pair" = type { %"struct.std::__1::__compressed_pair_elem" }
%"struct.std::__1::__compressed_pair_elem" = type { %"struct.std::__1::basic_string<char, std::__1::char_traits<char>, std::__1::allocator<char> >::__rep" }
%"struct.std::__1::basic_string<char, std::__1::char_traits<char>, std::__1::allocator<char> >::__rep" = type { %union.anon }
%union.anon = type { %"struct.std::__1::basic_string<char, std::__1::char_traits<char>, std::__1::allocator<char> >::__long" }
%"struct.std::__1::basic_string<char, std::__1::char_traits<char>, std::__1::allocator<char> >::__long" = type { i8*, i64, i64 }
%"struct.extensions::EventFilteringInfo" = type <{ %"class.absl::optional", %"class.absl::optional.5", %"class.absl::optional.10", %"class.absl::optional.5", %"class.absl::optional.15", [6 x i8] }>
%"class.absl::optional" = type { %"class.absl::optional_internal::optional_data" }
%"class.absl::optional_internal::optional_data" = type { %"class.absl::optional_internal::optional_data_base" }
%"class.absl::optional_internal::optional_data_base" = type { %"class.absl::optional_internal::optional_data_dtor_base" }
%"class.absl::optional_internal::optional_data_dtor_base" = type { i8, %union.anon.1 }
%union.anon.1 = type { %class.GURL }
%class.GURL = type { %"class.std::__1::basic_string", i8, %"struct.url::Parsed", %"class.std::__1::unique_ptr" }
%"struct.url::Parsed" = type { %"struct.url::Component", %"struct.url::Component", %"struct.url::Component", %"struct.url::Component", %"struct.url::Component", %"struct.url::Component", %"struct.url::Component", %"struct.url::Component", i8, %"struct.url::Parsed"* }
%"struct.url::Component" = type { i32, i32 }
%"class.std::__1::unique_ptr" = type { %"class.std::__1::__compressed_pair.2" }
%"class.std::__1::__compressed_pair.2" = type { %"struct.std::__1::__compressed_pair_elem.3" }
%"struct.std::__1::__compressed_pair_elem.3" = type { %class.GURL* }
%"class.absl::optional.10" = type { %"class.absl::optional_internal::optional_data.11" }
%"class.absl::optional_internal::optional_data.11" = type { %"class.absl::optional_internal::optional_data_base.12" }
%"class.absl::optional_internal::optional_data_base.12" = type { %"class.absl::optional_internal::optional_data_dtor_base.13" }
%"class.absl::optional_internal::optional_data_dtor_base.13" = type { i8, %union.anon.14 }
%union.anon.14 = type { i32 }
%"class.absl::optional.5" = type { %"class.absl::optional_internal::optional_data.6" }
%"class.absl::optional_internal::optional_data.6" = type { %"class.absl::optional_internal::optional_data_base.7" }
%"class.absl::optional_internal::optional_data_base.7" = type { %"class.absl::optional_internal::optional_data_dtor_base.8" }
%"class.absl::optional_internal::optional_data_dtor_base.8" = type { i8, %union.anon.9 }
%union.anon.9 = type { %"class.std::__1::basic_string" }
%"class.absl::optional.15" = type { %"class.absl::optional_internal::optional_data.16" }
%"class.absl::optional_internal::optional_data.16" = type { %"class.absl::optional_internal::optional_data_base.17" }
%"class.absl::optional_internal::optional_data_base.17" = type { %"class.absl::optional_internal::optional_data_dtor_base.18" }
%"class.absl::optional_internal::optional_data_dtor_base.18" = type { i8, %union.anon.19 }
%union.anon.19 = type { i8 }
%"class.base::ListValue" = type { %"class.base::Value" }
%"class.base::Value" = type { %"class.absl::variant" }
%"class.absl::variant" = type { %"class.absl::variant_internal::VariantCopyAssignBaseNontrivial" }
%"class.absl::variant_internal::VariantCopyAssignBaseNontrivial" = type { %"class.absl::variant_internal::VariantMoveAssignBaseNontrivial" }
%"class.absl::variant_internal::VariantMoveAssignBaseNontrivial" = type { %"class.absl::variant_internal::VariantCopyBaseNontrivial" }
%"class.absl::variant_internal::VariantCopyBaseNontrivial" = type { %"class.absl::variant_internal::VariantMoveBaseNontrivial" }
%"class.absl::variant_internal::VariantMoveBaseNontrivial" = type { %"class.absl::variant_internal::VariantStateBaseDestructorNontrivial" }
%"class.absl::variant_internal::VariantStateBaseDestructorNontrivial" = type { %"class.absl::variant_internal::VariantStateBase" }
%"class.absl::variant_internal::VariantStateBase" = type { %"union.absl::variant_internal::DestructibleUnionImpl", i64 }
%"union.absl::variant_internal::DestructibleUnionImpl" = type { %"union.absl::variant_internal::DestructibleUnionImpl.21" }
%"union.absl::variant_internal::DestructibleUnionImpl.21" = type { %"union.absl::variant_internal::DestructibleUnionImpl.22" }
%"union.absl::variant_internal::DestructibleUnionImpl.22" = type { %"union.absl::variant_internal::DestructibleUnionImpl.23" }
%"union.absl::variant_internal::DestructibleUnionImpl.23" = type { %"union.absl::variant_internal::DestructibleUnionImpl.24" }
%"union.absl::variant_internal::DestructibleUnionImpl.24" = type { %"class.std::__1::basic_string" }
%"class.IPC::MessageT.55" = type { %"class.IPC::Message" }
%"class.IPC::MessageT.62" = type { %"class.IPC::Message" }
%"class.IPC::MessageT.69" = type { %"class.IPC::Message" }
%"struct.extensions::PortId" = type <{ %"class.base::UnguessableToken", i32, i8, [3 x i8] }>
%"class.IPC::MessageT.88" = type { %"class.IPC::Message" }
%struct.ExtensionMsg_TabConnectionInfo = type <{ %"class.base::DictionaryValue", i32, [4 x i8] }>
%"class.base::DictionaryValue" = type { %"class.base::Value" }
%struct.ExtensionMsg_ExternalConnectionInfo = type { %"class.std::__1::basic_string", %"struct.extensions::MessagingEndpoint", %class.GURL, %"class.absl::optional.78", i32, i32 }
%"struct.extensions::MessagingEndpoint" = type { i32, %"class.absl::optional.5", %"class.absl::optional.5" }
%"class.absl::optional.78" = type { %"class.absl::optional_internal::optional_data.79" }
%"class.absl::optional_internal::optional_data.79" = type { %"class.absl::optional_internal::optional_data_base.80" }
%"class.absl::optional_internal::optional_data_base.80" = type { %"class.absl::optional_internal::optional_data_dtor_base.81" }
%"class.absl::optional_internal::optional_data_dtor_base.81" = type { i8, %union.anon.82 }
%union.anon.82 = type { %"class.url::Origin" }
%"class.url::Origin" = type { %"class.url::SchemeHostPort", %"class.absl::optional.83" }
%"class.url::SchemeHostPort" = type <{ %"class.std::__1::basic_string", %"class.std::__1::basic_string", i16, [6 x i8] }>
%"class.absl::optional.83" = type { %"class.absl::optional_internal::optional_data.84" }
%"class.absl::optional_internal::optional_data.84" = type { %"class.absl::optional_internal::optional_data_base.85" }
%"class.absl::optional_internal::optional_data_base.85" = type { %"class.absl::optional_internal::optional_data_dtor_base.86" }
%"class.absl::optional_internal::optional_data_dtor_base.86" = type { i8, %union.anon.87 }
%union.anon.87 = type { %"class.url::Origin::Nonce" }
%"class.url::Origin::Nonce" = type { %"class.base::UnguessableToken" }
%"class.IPC::MessageT.97" = type { %"class.IPC::Message" }
%"struct.extensions::Message" = type <{ %"class.std::__1::basic_string", i8, i8, [6 x i8] }>
%"class.IPC::MessageT.103" = type { %"class.IPC::Message" }
%"class.IPC::MessageT.119" = type { %"class.IPC::Message" }
%"class.absl::optional.111" = type { %"class.absl::optional_internal::optional_data.112" }
%"class.absl::optional_internal::optional_data.112" = type { %"class.absl::optional_internal::optional_data_base.113" }
%"class.absl::optional_internal::optional_data_base.113" = type { %"class.absl::optional_internal::optional_data_dtor_base.114" }
%"class.absl::optional_internal::optional_data_dtor_base.114" = type { i8, [7 x i8], %union.anon.115 }
%union.anon.115 = type { %struct.ServiceWorkerIdentifier }
%struct.ServiceWorkerIdentifier = type <{ %class.GURL, i64, i32, [4 x i8] }>
%"class.IPC::MessageT.127" = type { %"class.IPC::Message" }
%"class.IPC::MessageT.128" = type { %"class.IPC::Message" }
%"class.IPC::MessageT.144" = type { %"class.IPC::Message" }
%"struct.extensions::PortContext" = type { %"class.absl::optional.132", %"class.absl::optional.137" }
%"class.absl::optional.132" = type { %"class.absl::optional_internal::optional_data.133" }
%"class.absl::optional_internal::optional_data.133" = type { %"class.absl::optional_internal::optional_data_base.134" }
%"class.absl::optional_internal::optional_data_base.134" = type { %"class.absl::optional_internal::optional_data_dtor_base.135" }
%"class.absl::optional_internal::optional_data_dtor_base.135" = type { i8, %union.anon.136 }
%union.anon.136 = type { %"struct.extensions::PortContext::FrameContext" }
%"struct.extensions::PortContext::FrameContext" = type { i32 }
%"class.absl::optional.137" = type { %"class.absl::optional_internal::optional_data.138" }
%"class.absl::optional_internal::optional_data.138" = type { %"class.absl::optional_internal::optional_data_base.139" }
%"class.absl::optional_internal::optional_data_base.139" = type { %"class.absl::optional_internal::optional_data_dtor_base.140" }
%"class.absl::optional_internal::optional_data_dtor_base.140" = type { i8, %union.anon.141 }
%union.anon.141 = type { %"struct.extensions::PortContext::WorkerContext" }
%"struct.extensions::PortContext::WorkerContext" = type { i32, i64, %"class.std::__1::basic_string" }
%"class.IPC::MessageT.153" = type { %"class.IPC::Message" }
%"class.IPC::MessageT.162" = type { %"class.IPC::Message" }
%struct.ExtensionMsg_TabTargetConnectionInfo = type { i32, i32 }
%"class.IPC::MessageT.170" = type { %"class.IPC::Message" }
%"class.IPC::MessageT.177" = type { %"class.IPC::Message" }
%"class.IPC::MessageT.185" = type { %"class.IPC::Message" }
%"class.IPC::MessageT.206" = type { %"class.IPC::SyncMessage" }
%"class.IPC::SyncMessage" = type { %"class.IPC::Message", %"class.std::__1::unique_ptr.207" }
%"class.std::__1::unique_ptr.207" = type { %"class.std::__1::__compressed_pair.208" }
%"class.std::__1::__compressed_pair.208" = type { %"struct.std::__1::__compressed_pair_elem.209" }
%"struct.std::__1::__compressed_pair_elem.209" = type { %"class.IPC::MessageReplyDeserializer"* }
%"class.IPC::MessageReplyDeserializer" = type { i32 (...)** }
%"class.std::__1::map" = type { %"class.std::__1::__tree" }
%"class.std::__1::__tree" = type { %"class.std::__1::__tree_end_node"*, %"class.std::__1::__compressed_pair.195", %"class.std::__1::__compressed_pair.200" }
%"class.std::__1::__tree_end_node" = type { %"class.std::__1::__tree_node_base"* }
%"class.std::__1::__tree_node_base" = type <{ %"class.std::__1::__tree_end_node", %"class.std::__1::__tree_node_base"*, %"class.std::__1::__tree_end_node"*, i8, [7 x i8] }>
%"class.std::__1::__compressed_pair.195" = type { %"struct.std::__1::__compressed_pair_elem.196" }
%"struct.std::__1::__compressed_pair_elem.196" = type { %"class.std::__1::__tree_end_node" }
%"class.std::__1::__compressed_pair.200" = type { %"struct.std::__1::__compressed_pair_elem.201" }
%"struct.std::__1::__compressed_pair_elem.201" = type { i64 }
%"class.IPC::MessageT.231" = type { %"class.IPC::Message" }
%"class.std::__1::map.221" = type { %"class.std::__1::__tree.222" }
%"class.std::__1::__tree.222" = type { %"class.std::__1::__tree_end_node"*, %"class.std::__1::__compressed_pair.223", %"class.std::__1::__compressed_pair.227" }
%"class.std::__1::__compressed_pair.223" = type { %"struct.std::__1::__compressed_pair_elem.196" }
%"class.std::__1::__compressed_pair.227" = type { %"struct.std::__1::__compressed_pair_elem.201" }
%"class.IPC::MessageT.236" = type { %"class.IPC::Message" }
%"class.IPC::MessageT.238" = type { %"class.IPC::Message" }
%"class.IPC::MessageT.239" = type { %"class.IPC::Message" }
%"class.IPC::MessageT.240" = type { %"class.IPC::Message" }
%"class.IPC::MessageT.251" = type { %"class.IPC::Message" }
%"class.std::__1::vector.244" = type { %"class.std::__1::__vector_base.245" }
%"class.std::__1::__vector_base.245" = type { %"struct.extensions::DraggableRegion"*, %"struct.extensions::DraggableRegion"*, %"class.std::__1::__compressed_pair.246" }
%"struct.extensions::DraggableRegion" = type { i8, %"class.gfx::Rect" }
%"class.gfx::Rect" = type { %"class.gfx::Point", %"class.gfx::Size" }
%"class.gfx::Point" = type { i32, i32 }
%"class.gfx::Size" = type { i32, i32 }
%"class.std::__1::__compressed_pair.246" = type { %"struct.std::__1::__compressed_pair_elem.247" }
%"struct.std::__1::__compressed_pair_elem.247" = type { %"struct.extensions::DraggableRegion"* }
%"class.IPC::MessageT.258" = type { %"class.IPC::Message" }
%struct.ExtensionHostMsg_APIActionOrEvent_Params = type { %"class.std::__1::basic_string", %"class.base::ListValue", %"class.std::__1::basic_string" }
%"class.IPC::MessageT.262" = type { %"class.IPC::Message" }
%"class.IPC::MessageT.275" = type { %"class.IPC::Message" }
%struct.ExtensionHostMsg_DOMAction_Params = type <{ %class.GURL, %"class.std::__1::basic_string.266", %"class.std::__1::basic_string", %"class.base::ListValue", i32, [4 x i8] }>
%"class.std::__1::basic_string.266" = type { %"class.std::__1::__compressed_pair.267" }
%"class.std::__1::__compressed_pair.267" = type { %"struct.std::__1::__compressed_pair_elem.268" }
%"struct.std::__1::__compressed_pair_elem.268" = type { %"struct.std::__1::basic_string<char16_t, std::__1::char_traits<char16_t>, std::__1::allocator<char16_t> >::__rep" }
%"struct.std::__1::basic_string<char16_t, std::__1::char_traits<char16_t>, std::__1::allocator<char16_t> >::__rep" = type { %union.anon.269 }
%union.anon.269 = type { %"struct.std::__1::basic_string<char16_t, std::__1::char_traits<char16_t>, std::__1::allocator<char16_t> >::__long" }
%"struct.std::__1::basic_string<char16_t, std::__1::char_traits<char16_t>, std::__1::allocator<char16_t> >::__long" = type { i16*, i64, i64 }
%"class.IPC::MessageT.281" = type { %"class.IPC::Message" }
%"class.IPC::MessageT.298" = type { %"class.IPC::Message" }
%"class.std::__1::vector.289" = type { %"class.std::__1::__vector_base.290" }
%"class.std::__1::__vector_base.290" = type { %"struct.extensions::StackFrame"*, %"struct.extensions::StackFrame"*, %"class.std::__1::__compressed_pair.291" }
%"struct.extensions::StackFrame" = type { i32, i32, %"class.std::__1::basic_string.266", %"class.std::__1::basic_string.266" }
%"class.std::__1::__compressed_pair.291" = type { %"struct.std::__1::__compressed_pair_elem.292" }
%"struct.std::__1::__compressed_pair_elem.292" = type { %"struct.extensions::StackFrame"* }
%"class.IPC::MessageT.309" = type { %"class.IPC::Message" }
%"class.IPC::MessageT.318" = type { %"class.IPC::Message" }
%struct.ExtensionHostMsg_AutomationQuerySelector_Error = type { i32 }
%"class.IPC::MessageT.326" = type { %"class.IPC::Message" }
%"class.extensions::mojom::RequestParams" = type { %"class.std::__1::basic_string", %"class.base::Value", %"class.std::__1::basic_string", %class.GURL, i32, i8, i8, i32, i64 }
%"class.IPC::MessageT.334" = type { %"class.IPC::Message" }
%"class.IPC::MessageT.342" = type { %"class.IPC::Message" }
%"class.IPC::MessageT.346" = type { %"class.IPC::Message" }
%"class.IPC::MessageT.350" = type { %"class.IPC::Message" }
%"class.IPC::MessageT.357" = type { %"class.IPC::Message" }
%"class.IPC::MessageT.367" = type { %"class.IPC::Message" }
%"class.base::StrongAlias" = type { i32 }
%"class.IPC::MessageT.374" = type { %"class.IPC::Message" }
%"class.IPC::MessageT.377" = type { %"class.IPC::Message" }
%"class.IPC::MessageT.486" = type { %"class.IPC::Message" }
%struct.ExtensionMsg_AccessibilityEventBundleParams = type { %"class.ui::AXTreeID", %"class.std::__1::vector.388", %"class.std::__1::vector.478", %"class.gfx::Point" }
%"class.ui::AXTreeID" = type { i32, %"class.absl::optional.383" }
%"class.absl::optional.383" = type { %"class.absl::optional_internal::optional_data.384" }
%"class.absl::optional_internal::optional_data.384" = type { %"class.absl::optional_internal::optional_data_base.385" }
%"class.absl::optional_internal::optional_data_base.385" = type { %"class.absl::optional_internal::optional_data_dtor_base.386" }
%"class.absl::optional_internal::optional_data_dtor_base.386" = type { i8, %union.anon.387 }
%"class.std::__1::vector.388" = type { %"class.std::__1::__vector_base.389" }
%"class.std::__1::__vector_base.389" = type { %"struct.ui::AXTreeUpdate"*, %"struct.ui::AXTreeUpdate"*, %"class.std::__1::__compressed_pair.473" }
%"struct.ui::AXTreeUpdate" = type { i8, [7 x i8], %"struct.ui::AXTreeData", i32, i32, %"class.std::__1::vector.390", i32, i32, %"class.std::__1::vector.466" }
%"struct.ui::AXTreeData" = type <{ i32 (...)**, %"class.ui::AXTreeID", %"class.ui::AXTreeID", %"class.ui::AXTreeID", %"class.std::__1::basic_string", i8, [3 x i8], float, %"class.std::__1::basic_string", %"class.std::__1::basic_string", %"class.std::__1::basic_string", i32, i8, [3 x i8], i32, i32, i32, i32, i32, i32, i32, [4 x i8] }>
%"class.std::__1::vector.390" = type { %"class.std::__1::__vector_base.391" }
%"class.std::__1::__vector_base.391" = type { %"struct.ui::AXNodeData"*, %"struct.ui::AXNodeData"*, %"class.std::__1::__compressed_pair.461" }
%"struct.ui::AXNodeData" = type { i32 (...)**, i32, i32, i32, i64, %"class.std::__1::vector.392", %"class.std::__1::vector.400", %"class.std::__1::vector.408", %"class.std::__1::vector.416", %"class.std::__1::vector.424", %"class.std::__1::vector.432", %"class.std::__1::vector.440", %"class.std::__1::vector.448", %"struct.ui::AXRelativeBounds" }
%"class.std::__1::vector.392" = type { %"class.std::__1::__vector_base.393" }
%"class.std::__1::__vector_base.393" = type { %"struct.std::__1::pair.394"*, %"struct.std::__1::pair.394"*, %"class.std::__1::__compressed_pair.395" }
%"struct.std::__1::pair.394" = type opaque
%"class.std::__1::__compressed_pair.395" = type { %"struct.std::__1::__compressed_pair_elem.396" }
%"struct.std::__1::__compressed_pair_elem.396" = type { %"struct.std::__1::pair.394"* }
%"class.std::__1::vector.400" = type { %"class.std::__1::__vector_base.401" }
%"class.std::__1::__vector_base.401" = type { %"struct.std::__1::pair.402"*, %"struct.std::__1::pair.402"*, %"class.std::__1::__compressed_pair.403" }
%"struct.std::__1::pair.402" = type opaque
%"class.std::__1::__compressed_pair.403" = type { %"struct.std::__1::__compressed_pair_elem.404" }
%"struct.std::__1::__compressed_pair_elem.404" = type { %"struct.std::__1::pair.402"* }
%"class.std::__1::vector.408" = type { %"class.std::__1::__vector_base.409" }
%"class.std::__1::__vector_base.409" = type { %"struct.std::__1::pair.410"*, %"struct.std::__1::pair.410"*, %"class.std::__1::__compressed_pair.411" }
%"struct.std::__1::pair.410" = type opaque
%"class.std::__1::__compressed_pair.411" = type { %"struct.std::__1::__compressed_pair_elem.412" }
%"struct.std::__1::__compressed_pair_elem.412" = type { %"struct.std::__1::pair.410"* }
%"class.std::__1::vector.416" = type { %"class.std::__1::__vector_base.417" }
%"class.std::__1::__vector_base.417" = type { %"struct.std::__1::pair.418"*, %"struct.std::__1::pair.418"*, %"class.std::__1::__compressed_pair.419" }
%"struct.std::__1::pair.418" = type opaque
%"class.std::__1::__compressed_pair.419" = type { %"struct.std::__1::__compressed_pair_elem.420" }
%"struct.std::__1::__compressed_pair_elem.420" = type { %"struct.std::__1::pair.418"* }
%"class.std::__1::vector.424" = type { %"class.std::__1::__vector_base.425" }
%"class.std::__1::__vector_base.425" = type { %"struct.std::__1::pair.426"*, %"struct.std::__1::pair.426"*, %"class.std::__1::__compressed_pair.427" }
%"struct.std::__1::pair.426" = type opaque
%"class.std::__1::__compressed_pair.427" = type { %"struct.std::__1::__compressed_pair_elem.428" }
%"struct.std::__1::__compressed_pair_elem.428" = type { %"struct.std::__1::pair.426"* }
%"class.std::__1::vector.432" = type { %"class.std::__1::__vector_base.433" }
%"class.std::__1::__vector_base.433" = type { %"struct.std::__1::pair.434"*, %"struct.std::__1::pair.434"*, %"class.std::__1::__compressed_pair.435" }
%"struct.std::__1::pair.434" = type opaque
%"class.std::__1::__compressed_pair.435" = type { %"struct.std::__1::__compressed_pair_elem.436" }
%"struct.std::__1::__compressed_pair_elem.436" = type { %"struct.std::__1::pair.434"* }
%"class.std::__1::vector.440" = type { %"class.std::__1::__vector_base.441" }
%"class.std::__1::__vector_base.441" = type { %"struct.std::__1::pair.442"*, %"struct.std::__1::pair.442"*, %"class.std::__1::__compressed_pair.443" }
%"struct.std::__1::pair.442" = type opaque
%"class.std::__1::__compressed_pair.443" = type { %"struct.std::__1::__compressed_pair_elem.444" }
%"struct.std::__1::__compressed_pair_elem.444" = type { %"struct.std::__1::pair.442"* }
%"class.std::__1::vector.448" = type { %"class.std::__1::__vector_base.449" }
%"class.std::__1::__vector_base.449" = type { i32*, i32*, %"class.std::__1::__compressed_pair.450" }
%"class.std::__1::__compressed_pair.450" = type { %"struct.std::__1::__compressed_pair_elem.451" }
%"struct.std::__1::__compressed_pair_elem.451" = type { i32* }
%"struct.ui::AXRelativeBounds" = type { i32 (...)**, i32, %"class.gfx::RectF", %"class.std::__1::unique_ptr.455" }
%"class.std::__1::__compressed_pair.461" = type { %"struct.std::__1::__compressed_pair_elem.462" }
%"struct.std::__1::__compressed_pair_elem.462" = type { %"struct.ui::AXNodeData"* }
%"class.std::__1::vector.466" = type { %"class.std::__1::__vector_base.467" }
%"class.std::__1::__vector_base.467" = type { %"struct.ui::AXEventIntent"*, %"struct.ui::AXEventIntent"*, %"class.std::__1::__compressed_pair.468" }
%"struct.ui::AXEventIntent" = type { i32 (...)**, i32, i32, i32, i32 }
%"class.std::__1::__compressed_pair.468" = type { %"struct.std::__1::__compressed_pair_elem.469" }
%"struct.std::__1::__compressed_pair_elem.469" = type { %"struct.ui::AXEventIntent"* }
%"class.std::__1::__compressed_pair.473" = type { %"struct.std::__1::__compressed_pair_elem.474" }
%"struct.std::__1::__compressed_pair_elem.474" = type { %"struct.ui::AXTreeUpdate"* }
%"class.std::__1::vector.478" = type { %"class.std::__1::__vector_base.479" }
%"class.std::__1::__vector_base.479" = type { %"struct.ui::AXEvent"*, %"struct.ui::AXEvent"*, %"class.std::__1::__compressed_pair.480" }
%"struct.ui::AXEvent" = type <{ i32 (...)**, i32, i32, i32, i32, %"class.std::__1::vector.466", i32, [4 x i8] }>
%"class.std::__1::__compressed_pair.480" = type { %"struct.std::__1::__compressed_pair_elem.481" }
%"struct.std::__1::__compressed_pair_elem.481" = type { %"struct.ui::AXEvent"* }
%"class.IPC::MessageT.493" = type { %"class.IPC::Message" }
%struct.ExtensionMsg_AccessibilityLocationChangeParams = type { %"class.ui::AXTreeID", i32, %"struct.ui::AXRelativeBounds" }
%"class.IPC::MessageT.503" = type { %"class.IPC::SyncMessage" }
%"class.std::__1::tuple" = type { %"struct.std::__1::__tuple_impl" }
%"struct.std::__1::__tuple_impl" = type { %"class.std::__1::__tuple_leaf", %"class.std::__1::__tuple_leaf.20" }
%"class.std::__1::__tuple_leaf" = type { %struct.ExtensionMsg_DispatchEvent_Params }
%"class.std::__1::__tuple_leaf.20" = type { %"class.base::ListValue" }
%"class.base::PickleIterator" = type { i8*, i64, i64 }
%"struct.std::__1::basic_string<char, std::__1::char_traits<char>, std::__1::allocator<char> >::__short" = type { [23 x i8], %struct.anon }
%struct.anon = type { i8 }
%"class.base::BasicStringPiece" = type { i8*, i64 }
%"class.std::__1::tuple.52" = type { %"struct.std::__1::__tuple_impl.53" }
%"struct.std::__1::__tuple_impl.53" = type { %"class.std::__1::__tuple_leaf.54" }
%"class.std::__1::__tuple_leaf.54" = type { i32 }
%"class.std::__1::tuple.59" = type { %"struct.std::__1::__tuple_impl.60" }
%"struct.std::__1::__tuple_impl.60" = type <{ %"class.std::__1::__tuple_leaf.54", %"class.std::__1::__tuple_leaf.61", [3 x i8] }>
%"class.std::__1::__tuple_leaf.61" = type { i8 }
%"class.std::__1::tuple.66" = type { %"struct.std::__1::__tuple_impl.67" }
%"struct.std::__1::__tuple_impl.67" = type { %"class.std::__1::__tuple_leaf.54", [4 x i8], %"class.std::__1::__tuple_leaf.68" }
%"class.std::__1::__tuple_leaf.68" = type { %"struct.extensions::PortId" }
%"class.std::__1::tuple.73" = type { %"struct.std::__1::__tuple_impl.74" }
%"struct.std::__1::__tuple_impl.74" = type { %"class.std::__1::__tuple_leaf.54", [4 x i8], %"class.std::__1::__tuple_leaf.68", %"class.std::__1::__tuple_leaf.75", %"class.std::__1::__tuple_leaf.76", %"class.std::__1::__tuple_leaf.77" }
%"class.std::__1::__tuple_leaf.75" = type { %"class.std::__1::basic_string" }
%"class.std::__1::__tuple_leaf.76" = type { %struct.ExtensionMsg_TabConnectionInfo }
%"class.std::__1::__tuple_leaf.77" = type { %struct.ExtensionMsg_ExternalConnectionInfo }
%"class.std::__1::tuple.94" = type { %"struct.std::__1::__tuple_impl.95" }
%"struct.std::__1::__tuple_impl.95" = type { %"class.std::__1::__tuple_leaf.54", [4 x i8], %"class.std::__1::__tuple_leaf.68", %"class.std::__1::__tuple_leaf.96" }
%"class.std::__1::__tuple_leaf.96" = type { %"struct.extensions::Message" }
%"class.std::__1::tuple.101" = type { %"struct.std::__1::__tuple_impl.102" }
%"struct.std::__1::__tuple_impl.102" = type { %"class.std::__1::__tuple_leaf.54", [4 x i8], %"class.std::__1::__tuple_leaf.68", %"class.std::__1::__tuple_leaf.75" }
%"class.std::__1::tuple.106" = type { %"struct.std::__1::__tuple_impl.107" }
%"struct.std::__1::__tuple_impl.107" = type <{ %"class.std::__1::__tuple_leaf.108", %"class.std::__1::__tuple_leaf.109", %"class.std::__1::__tuple_leaf.110", %"class.std::__1::__tuple_leaf.116", %"class.std::__1::__tuple_leaf.117", [7 x i8] }>
%"class.std::__1::__tuple_leaf.108" = type { %"class.std::__1::basic_string" }
%"class.std::__1::__tuple_leaf.109" = type { %"class.std::__1::basic_string" }
%"class.std::__1::__tuple_leaf.110" = type { %"class.absl::optional.111" }
%"class.std::__1::__tuple_leaf.116" = type { %"class.base::DictionaryValue" }
%"class.std::__1::__tuple_leaf.117" = type { i8 }
%"class.std::__1::tuple.120" = type { %"struct.std::__1::__tuple_impl.121" }
%"struct.std::__1::__tuple_impl.121" = type { %"class.std::__1::__tuple_leaf.122", %"class.std::__1::__tuple_leaf.123", %"class.std::__1::__tuple_leaf.124", %"class.std::__1::__tuple_leaf.125", %"class.std::__1::__tuple_leaf.126" }
%"class.std::__1::__tuple_leaf.122" = type { %"class.std::__1::basic_string"* }
%"class.std::__1::__tuple_leaf.123" = type { %"class.std::__1::basic_string"* }
%"class.std::__1::__tuple_leaf.124" = type { %"class.absl::optional.111"* }
%"class.std::__1::__tuple_leaf.125" = type { %"class.base::DictionaryValue"* }
%"class.std::__1::__tuple_leaf.126" = type { i8* }
%"class.std::__1::tuple.129" = type { %"struct.std::__1::__tuple_impl.130" }
%"struct.std::__1::__tuple_impl.130" = type { %"class.std::__1::__tuple_leaf.131", %"class.std::__1::__tuple_leaf.142", %"class.std::__1::__tuple_leaf.75", %"class.std::__1::__tuple_leaf.143" }
%"class.std::__1::__tuple_leaf.131" = type { %"struct.extensions::PortContext" }
%"class.std::__1::__tuple_leaf.142" = type { %struct.ExtensionMsg_ExternalConnectionInfo }
%"class.std::__1::__tuple_leaf.143" = type { %"struct.extensions::PortId" }
%"class.std::__1::tuple.150" = type { %"struct.std::__1::__tuple_impl.151" }
%"struct.std::__1::__tuple_impl.151" = type { %"class.std::__1::__tuple_leaf.131", %"class.std::__1::__tuple_leaf.109", %"class.std::__1::__tuple_leaf.152" }
%"class.std::__1::__tuple_leaf.152" = type { %"struct.extensions::PortId" }
%"class.std::__1::tuple.157" = type { %"struct.std::__1::__tuple_impl.158" }
%"struct.std::__1::__tuple_impl.158" = type { %"class.std::__1::__tuple_leaf.131", %"class.std::__1::__tuple_leaf.159", %"class.std::__1::__tuple_leaf.75", %"class.std::__1::__tuple_leaf.160", %"class.std::__1::__tuple_leaf.161" }
%"class.std::__1::__tuple_leaf.159" = type { %struct.ExtensionMsg_TabTargetConnectionInfo }
%"class.std::__1::__tuple_leaf.160" = type { %"class.std::__1::basic_string" }
%"class.std::__1::__tuple_leaf.161" = type { %"struct.extensions::PortId" }
%"class.std::__1::tuple.168" = type { %"struct.std::__1::__tuple_impl.169" }
%"struct.std::__1::__tuple_impl.169" = type { %"class.std::__1::__tuple_leaf.131", %"class.std::__1::__tuple_leaf.68" }
%"class.std::__1::tuple.173" = type { %"struct.std::__1::__tuple_impl.174" }
%"struct.std::__1::__tuple_impl.174" = type <{ %"class.std::__1::__tuple_leaf.131", %"class.std::__1::__tuple_leaf.68", %"class.std::__1::__tuple_leaf.175", [7 x i8] }>
%"class.std::__1::__tuple_leaf.175" = type { i8 }
%"class.std::__1::tuple.181" = type { %"struct.std::__1::__tuple_impl.182" }
%"struct.std::__1::__tuple_impl.182" = type { %"class.std::__1::__tuple_leaf.183", %"class.std::__1::__tuple_leaf.184" }
%"class.std::__1::__tuple_leaf.183" = type { %"struct.extensions::PortId" }
%"class.std::__1::__tuple_leaf.184" = type { %"struct.extensions::Message" }
%"class.std::__1::tuple.190" = type { %"struct.std::__1::__tuple_impl.191" }
%"struct.std::__1::__tuple_impl.191" = type { %"class.std::__1::__tuple_leaf.108" }
%"class.std::__1::tuple.192" = type { %"struct.std::__1::__tuple_impl.193" }
%"struct.std::__1::__tuple_impl.193" = type { %"class.std::__1::__tuple_leaf.194" }
%"class.std::__1::__tuple_leaf.194" = type { %"class.std::__1::map" }
%"struct.IPC::Message::Header" = type { %"struct.base::Pickle::Header", i32, i32, i32, i16, i16 }
%"class.std::__1::__tree_node" = type { %"class.std::__1::__tree_node_base.base", %"struct.std::__1::__value_type" }
%"class.std::__1::__tree_node_base.base" = type <{ %"class.std::__1::__tree_end_node", %"class.std::__1::__tree_node_base"*, %"class.std::__1::__tree_end_node"*, i8 }>
%"struct.std::__1::__value_type" = type { %"struct.std::__1::pair.529" }
%"struct.std::__1::pair.529" = type { %"class.std::__1::basic_string", %"class.std::__1::basic_string" }
%"class.std::__1::tuple.218" = type { %"struct.std::__1::__tuple_impl.219" }
%"struct.std::__1::__tuple_impl.219" = type { %"class.std::__1::__tuple_leaf.220", %"class.std::__1::__tuple_leaf.230" }
%"class.std::__1::__tuple_leaf.220" = type { %"class.std::__1::map.221" }
%"class.std::__1::__tuple_leaf.230" = type { %class.GURL }
%"class.std::__1::__tree_node.532" = type { %"class.std::__1::__tree_node_base.base", %"struct.std::__1::__value_type.533" }
%"struct.std::__1::__value_type.533" = type { %"struct.std::__1::pair.534" }
%"struct.std::__1::pair.534" = type { %"class.std::__1::basic_string", %"class.std::__1::set" }
%"class.std::__1::set" = type { %"class.std::__1::__tree.535" }
%"class.std::__1::__tree.535" = type { %"class.std::__1::__tree_end_node"*, %"class.std::__1::__compressed_pair.536", %"class.std::__1::__compressed_pair.540" }
%"class.std::__1::__compressed_pair.536" = type { %"struct.std::__1::__compressed_pair_elem.196" }
%"class.std::__1::__compressed_pair.540" = type { %"struct.std::__1::__compressed_pair_elem.201" }
%"class.std::__1::tuple.237" = type { i8 }
%"class.std::__1::tuple.241" = type { %"struct.std::__1::__tuple_impl.242" }
%"struct.std::__1::__tuple_impl.242" = type { %"class.std::__1::__tuple_leaf.243" }
%"class.std::__1::__tuple_leaf.243" = type { %"class.std::__1::vector.244" }
%"class.std::__1::tuple.255" = type { %"struct.std::__1::__tuple_impl.256" }
%"struct.std::__1::__tuple_impl.256" = type { %"class.std::__1::__tuple_leaf.108", %"class.std::__1::__tuple_leaf.257" }
%"class.std::__1::__tuple_leaf.257" = type { %struct.ExtensionHostMsg_APIActionOrEvent_Params }
%"class.std::__1::tuple.263" = type { %"struct.std::__1::__tuple_impl.264" }
%"struct.std::__1::__tuple_impl.264" = type { %"class.std::__1::__tuple_leaf.108", %"class.std::__1::__tuple_leaf.265" }
%"class.std::__1::__tuple_leaf.265" = type { %struct.ExtensionHostMsg_DOMAction_Params }
%"struct.std::__1::basic_string<char16_t, std::__1::char_traits<char16_t>, std::__1::allocator<char16_t> >::__short" = type { [11 x i16], %struct.anon.270 }
%struct.anon.270 = type { %"struct.std::__1::__padding.271", i8 }
%"struct.std::__1::__padding.271" = type { [1 x i8] }
%"class.std::__1::tuple.276" = type { %"struct.std::__1::__tuple_impl.277" }
%"struct.std::__1::__tuple_impl.277" = type { %"class.std::__1::__tuple_leaf.122", %"class.std::__1::__tuple_leaf.278" }
%"class.std::__1::__tuple_leaf.278" = type { %struct.ExtensionHostMsg_DOMAction_Params* }
%"class.std::__1::tuple.279" = type { %"struct.std::__1::__tuple_impl.280" }
%"struct.std::__1::__tuple_impl.280" = type { %"class.std::__1::__tuple_leaf.54", %"class.std::__1::__tuple_leaf.109" }
%"class.std::__1::tuple.284" = type { %"struct.std::__1::__tuple_impl.285" }
%"struct.std::__1::__tuple_impl.285" = type <{ %"class.std::__1::__tuple_leaf.286", %"class.std::__1::__tuple_leaf.287", %"class.std::__1::__tuple_leaf.288", %"class.std::__1::__tuple_leaf.296", [4 x i8] }>
%"class.std::__1::__tuple_leaf.286" = type { %"class.std::__1::basic_string.266" }
%"class.std::__1::__tuple_leaf.287" = type { %"class.std::__1::basic_string.266" }
%"class.std::__1::__tuple_leaf.288" = type { %"class.std::__1::vector.289" }
%"class.std::__1::__tuple_leaf.296" = type { i32 }
%"class.base::BasicStringPiece.595" = type { i16*, i64 }
%"class.std::__1::tuple.299" = type { %"struct.std::__1::__tuple_impl.300" }
%"struct.std::__1::__tuple_impl.300" = type { %"class.std::__1::__tuple_leaf.301", %"class.std::__1::__tuple_leaf.302", %"class.std::__1::__tuple_leaf.303", %"class.std::__1::__tuple_leaf.304" }
%"class.std::__1::__tuple_leaf.301" = type { %"class.std::__1::basic_string.266"* }
%"class.std::__1::__tuple_leaf.302" = type { %"class.std::__1::basic_string.266"* }
%"class.std::__1::__tuple_leaf.303" = type { %"class.std::__1::vector.289"* }
%"class.std::__1::__tuple_leaf.304" = type { i32* }
%"class.std::__1::tuple.305" = type { %"struct.std::__1::__tuple_impl.306" }
%"struct.std::__1::__tuple_impl.306" = type { %"class.std::__1::__tuple_leaf.54", %"class.std::__1::__tuple_leaf.307", %"class.std::__1::__tuple_leaf.308" }
%"class.std::__1::__tuple_leaf.307" = type { i32 }
%"class.std::__1::__tuple_leaf.308" = type { %"class.std::__1::basic_string.266" }
%"class.std::__1::tuple.314" = type { %"struct.std::__1::__tuple_impl.315" }
%"struct.std::__1::__tuple_impl.315" = type { %"class.std::__1::__tuple_leaf.54", %"class.std::__1::__tuple_leaf.316", %"class.std::__1::__tuple_leaf.317" }
%"class.std::__1::__tuple_leaf.316" = type { %struct.ExtensionHostMsg_AutomationQuerySelector_Error }
%"class.std::__1::__tuple_leaf.317" = type { i32 }
%"class.std::__1::tuple.323" = type { %"struct.std::__1::__tuple_impl.324" }
%"struct.std::__1::__tuple_impl.324" = type { %"class.std::__1::__tuple_leaf.325" }
%"class.std::__1::__tuple_leaf.325" = type { %"class.extensions::mojom::RequestParams" }
%"class.std::__1::tuple.330" = type { %"struct.std::__1::__tuple_impl.331" }
%"struct.std::__1::__tuple_impl.331" = type { %"class.std::__1::__tuple_leaf.54", %"class.std::__1::__tuple_leaf.307", %"class.std::__1::__tuple_leaf.175", %"class.std::__1::__tuple_leaf.332", %"class.std::__1::__tuple_leaf.333" }
%"class.std::__1::__tuple_leaf.332" = type { %"class.base::ListValue" }
%"class.std::__1::__tuple_leaf.333" = type { %"class.std::__1::basic_string" }
%"class.std::__1::tuple.339" = type { %"struct.std::__1::__tuple_impl.340" }
%"struct.std::__1::__tuple_impl.340" = type { %"class.std::__1::__tuple_leaf.341", %"class.std::__1::__tuple_leaf.109" }
%"class.std::__1::__tuple_leaf.341" = type { i64 }
%"class.std::__1::tuple.347" = type { %"struct.std::__1::__tuple_impl.348" }
%"struct.std::__1::__tuple_impl.348" = type { %"class.std::__1::__tuple_leaf.108", %"class.std::__1::__tuple_leaf.349", %"class.std::__1::__tuple_leaf.317", %"class.std::__1::__tuple_leaf.296" }
%"class.std::__1::__tuple_leaf.349" = type { i64 }
%"class.std::__1::tuple.354" = type { %"struct.std::__1::__tuple_impl.355" }
%"struct.std::__1::__tuple_impl.355" = type <{ %"class.std::__1::__tuple_leaf.108", %"class.std::__1::__tuple_leaf.349", %"class.std::__1::__tuple_leaf.317", [4 x i8] }>
%"class.std::__1::tuple.360" = type { %"struct.std::__1::__tuple_impl.361" }
%"struct.std::__1::__tuple_impl.361" = type <{ %"class.std::__1::__tuple_leaf.108", %"class.std::__1::__tuple_leaf.362", [4 x i8], %"class.std::__1::__tuple_leaf.363", %"class.std::__1::__tuple_leaf.364", %"class.std::__1::__tuple_leaf.365", [4 x i8] }>
%"class.std::__1::__tuple_leaf.362" = type { %"class.base::StrongAlias" }
%"class.std::__1::__tuple_leaf.363" = type { %class.GURL }
%"class.std::__1::__tuple_leaf.364" = type { i64 }
%"class.std::__1::__tuple_leaf.365" = type { i32 }
%"class.std::__1::tuple.375" = type { %"struct.std::__1::__tuple_impl.376" }
%"struct.std::__1::__tuple_impl.376" = type { %"class.std::__1::__tuple_leaf.54", %"class.std::__1::__tuple_leaf.349" }
%"class.std::__1::tuple.380" = type { %"struct.std::__1::__tuple_impl.381" }
%"struct.std::__1::__tuple_impl.381" = type <{ %"class.std::__1::__tuple_leaf.382", %"class.std::__1::__tuple_leaf.61", [7 x i8] }>
%"class.std::__1::__tuple_leaf.382" = type { %struct.ExtensionMsg_AccessibilityEventBundleParams }
%"class.std::__1::tuple.490" = type { %"struct.std::__1::__tuple_impl.491" }
%"struct.std::__1::__tuple_impl.491" = type { %"class.std::__1::__tuple_leaf.492" }
%"class.std::__1::__tuple_leaf.492" = type { %struct.ExtensionMsg_AccessibilityLocationChangeParams }
%"class.std::__1::tuple.497" = type { %"struct.std::__1::__tuple_impl.498" }
%"struct.std::__1::__tuple_impl.498" = type { %"class.std::__1::__tuple_leaf.499" }
%"class.std::__1::__tuple_leaf.499" = type { i8 }
%"struct.content::SocketPermissionRequest" = type <{ i32, [4 x i8], %"class.std::__1::basic_string", i16, [6 x i8] }>
%"class.extensions::SocketPermissionEntry" = type { %"struct.content::SocketPermissionRequest", i8, [7 x i8] }
%"class.extensions::SocketPermissionData" = type { %"class.extensions::SocketPermissionEntry", %"class.std::__1::basic_string" }
%"class.extensions::UsbDevicePermissionData" = type { i32, i32, i32, i32 }
%class.scoped_refptr.508 = type opaque
%"class.std::__1::__tree_node.542" = type { %"class.std::__1::__tree_node_base.base", %"class.std::__1::basic_string" }
%"class.std::__1::tuple.216" = type { %"struct.std::__1::__tuple_impl.217" }
%"struct.std::__1::__tuple_impl.217" = type { %"class.std::__1::__tuple_leaf.122" }
%"class.IPC::ParamDeserializer" = type { %"class.IPC::MessageReplyDeserializer", %"class.std::__1::tuple.213" }
%"class.std::__1::tuple.213" = type { %"struct.std::__1::__tuple_impl.214" }
%"struct.std::__1::__tuple_impl.214" = type { %"class.std::__1::__tuple_leaf.215" }
%"class.std::__1::__tuple_leaf.215" = type { %"class.std::__1::map"* }
%"class.std::__1::__vector_base_common" = type { i8 }
%"class.IPC::ParamDeserializer.504" = type { %"class.IPC::MessageReplyDeserializer", %"class.std::__1::tuple.505" }
%"class.std::__1::tuple.505" = type { %"struct.std::__1::__tuple_impl.506" }
%"struct.std::__1::__tuple_impl.506" = type { %"class.std::__1::__tuple_leaf.507" }
%"class.std::__1::__tuple_leaf.507" = type { i8* }

$_ZN3IPC8MessageTI31ExtensionMsg_DispatchEvent_MetaNSt3__15tupleIJ33ExtensionMsg_DispatchEvent_ParamsN4base9ListValueEEEEvE4ReadEPKNS_7MessageEPS7_ = comdat any

$_ZN3IPC8MessageTI31ExtensionMsg_DispatchEvent_MetaNSt3__15tupleIJ33ExtensionMsg_DispatchEvent_ParamsN4base9ListValueEEEEvE3LogEPNS2_12basic_stringIcNS2_11char_traitsIcEENS2_9allocatorIcEEEEPKNS_7MessageESF_ = comdat any

$_ZN3IPC8MessageTI31ExtensionMsg_DispatchEvent_MetaNSt3__15tupleIJ33ExtensionMsg_DispatchEvent_ParamsN4base9ListValueEEEEvEC5ENS_7RoutingERKS4_RKS6_ = comdat any

$_ZN3IPC8MessageTI39ExtensionMsg_UpdateBrowserWindowId_MetaNSt3__15tupleIJiEEEvE4ReadEPKNS_7MessageEPS4_ = comdat any

$_ZN3IPC8MessageTI39ExtensionMsg_UpdateBrowserWindowId_MetaNSt3__15tupleIJiEEEvE3LogEPNS2_12basic_stringIcNS2_11char_traitsIcEENS2_9allocatorIcEEEEPKNS_7MessageESC_ = comdat any

$_ZN3IPC8MessageTI39ExtensionMsg_UpdateBrowserWindowId_MetaNSt3__15tupleIJiEEEvEC5ENS_7RoutingERKi = comdat any

$_ZN3IPC8MessageTI39ExtensionMsg_WakeEventPageResponse_MetaNSt3__15tupleIJibEEEvE4ReadEPKNS_7MessageEPS4_ = comdat any

$_ZN3IPC8MessageTI39ExtensionMsg_WakeEventPageResponse_MetaNSt3__15tupleIJibEEEvE3LogEPNS2_12basic_stringIcNS2_11char_traitsIcEENS2_9allocatorIcEEEEPKNS_7MessageESC_ = comdat any

$_ZN3IPC8MessageTI39ExtensionMsg_WakeEventPageResponse_MetaNSt3__15tupleIJibEEEvEC5ENS_7RoutingERKiRKb = comdat any

$_ZN3IPC8MessageTI37ExtensionMsg_ValidateMessagePort_MetaNSt3__15tupleIJiN10extensions6PortIdEEEEvE4ReadEPKNS_7MessageEPS6_ = comdat any

$_ZN3IPC8MessageTI37ExtensionMsg_ValidateMessagePort_MetaNSt3__15tupleIJiN10extensions6PortIdEEEEvE3LogEPNS2_12basic_stringIcNS2_11char_traitsIcEENS2_9allocatorIcEEEEPKNS_7MessageESE_ = comdat any

$_ZN3IPC8MessageTI37ExtensionMsg_ValidateMessagePort_MetaNSt3__15tupleIJiN10extensions6PortIdEEEEvEC5ENS_7RoutingERKiRKS5_ = comdat any

$_ZN3IPC8MessageTI35ExtensionMsg_DispatchOnConnect_MetaNSt3__15tupleIJiN10extensions6PortIdENS2_12basic_stringIcNS2_11char_traitsIcEENS2_9allocatorIcEEEE30ExtensionMsg_TabConnectionInfo35ExtensionMsg_ExternalConnectionInfoEEEvE4ReadEPKNS_7MessageEPSE_ = comdat any

$_ZN3IPC8MessageTI35ExtensionMsg_DispatchOnConnect_MetaNSt3__15tupleIJiN10extensions6PortIdENS2_12basic_stringIcNS2_11char_traitsIcEENS2_9allocatorIcEEEE30ExtensionMsg_TabConnectionInfo35ExtensionMsg_ExternalConnectionInfoEEEvE3LogEPSB_PKNS_7MessageESG_ = comdat any

$_ZN3IPC8MessageTI35ExtensionMsg_DispatchOnConnect_MetaNSt3__15tupleIJiN10extensions6PortIdENS2_12basic_stringIcNS2_11char_traitsIcEENS2_9allocatorIcEEEE30ExtensionMsg_TabConnectionInfo35ExtensionMsg_ExternalConnectionInfoEEEvEC5ENS_7RoutingERKiRKS5_RKSB_RKSC_RKSD_ = comdat any

$_ZN3IPC8MessageTI32ExtensionMsg_DeliverMessage_MetaNSt3__15tupleIJiN10extensions6PortIdENS4_7MessageEEEEvE4ReadEPKNS_7MessageEPS7_ = comdat any

$_ZN3IPC8MessageTI32ExtensionMsg_DeliverMessage_MetaNSt3__15tupleIJiN10extensions6PortIdENS4_7MessageEEEEvE3LogEPNS2_12basic_stringIcNS2_11char_traitsIcEENS2_9allocatorIcEEEEPKNS_7MessageESF_ = comdat any

$_ZN3IPC8MessageTI32ExtensionMsg_DeliverMessage_MetaNSt3__15tupleIJiN10extensions6PortIdENS4_7MessageEEEEvEC5ENS_7RoutingERKiRKS5_RKS6_ = comdat any

$_ZN3IPC8MessageTI38ExtensionMsg_DispatchOnDisconnect_MetaNSt3__15tupleIJiN10extensions6PortIdENS2_12basic_stringIcNS2_11char_traitsIcEENS2_9allocatorIcEEEEEEEvE4ReadEPKNS_7MessageEPSC_ = comdat any

$_ZN3IPC8MessageTI38ExtensionMsg_DispatchOnDisconnect_MetaNSt3__15tupleIJiN10extensions6PortIdENS2_12basic_stringIcNS2_11char_traitsIcEENS2_9allocatorIcEEEEEEEvE3LogEPSB_PKNS_7MessageESE_ = comdat any

$_ZN3IPC8MessageTI38ExtensionMsg_DispatchOnDisconnect_MetaNSt3__15tupleIJiN10extensions6PortIdENS2_12basic_stringIcNS2_11char_traitsIcEENS2_9allocatorIcEEEEEEEvEC5ENS_7RoutingERKiRKS5_RKSB_ = comdat any

$_ZN3IPC8MessageTI41ExtensionHostMsg_AddFilteredListener_MetaNSt3__15tupleIJNS2_12basic_stringIcNS2_11char_traitsIcEENS2_9allocatorIcEEEES9_N4absl8optionalI23ServiceWorkerIdentifierEEN4base15DictionaryValueEbEEEvE4ReadEPKNS_7MessageEPSG_ = comdat any

$_ZN3IPC8MessageTI41ExtensionHostMsg_AddFilteredListener_MetaNSt3__15tupleIJNS2_12basic_stringIcNS2_11char_traitsIcEENS2_9allocatorIcEEEES9_N4absl8optionalI23ServiceWorkerIdentifierEEN4base15DictionaryValueEbEEEvE3LogEPS9_PKNS_7MessageESI_ = comdat any

$_ZN3IPC8MessageTI41ExtensionHostMsg_AddFilteredListener_MetaNSt3__15tupleIJNS2_12basic_stringIcNS2_11char_traitsIcEENS2_9allocatorIcEEEES9_N4absl8optionalI23ServiceWorkerIdentifierEEN4base15DictionaryValueEbEEEvEC5ENS_7RoutingERKS9_SK_RKSD_RKSF_RKb = comdat any

$_ZN3IPC8MessageTI44ExtensionHostMsg_RemoveFilteredListener_MetaNSt3__15tupleIJNS2_12basic_stringIcNS2_11char_traitsIcEENS2_9allocatorIcEEEES9_N4absl8optionalI23ServiceWorkerIdentifierEEN4base15DictionaryValueEbEEEvE4ReadEPKNS_7MessageEPSG_ = comdat any

$_ZN3IPC8MessageTI44ExtensionHostMsg_RemoveFilteredListener_MetaNSt3__15tupleIJNS2_12basic_stringIcNS2_11char_traitsIcEENS2_9allocatorIcEEEES9_N4absl8optionalI23ServiceWorkerIdentifierEEN4base15DictionaryValueEbEEEvE3LogEPS9_PKNS_7MessageESI_ = comdat any

$_ZN3IPC8MessageTI44ExtensionHostMsg_RemoveFilteredListener_MetaNSt3__15tupleIJNS2_12basic_stringIcNS2_11char_traitsIcEENS2_9allocatorIcEEEES9_N4absl8optionalI23ServiceWorkerIdentifierEEN4base15DictionaryValueEbEEEvEC5ENS_7RoutingERKS9_SK_RKSD_RKSF_RKb = comdat any

$_ZN3IPC8MessageTI30ExtensionHostMsg_EventAck_MetaNSt3__15tupleIJiEEEvE4ReadEPKNS_7MessageEPS4_ = comdat any

$_ZN3IPC8MessageTI30ExtensionHostMsg_EventAck_MetaNSt3__15tupleIJiEEEvE3LogEPNS2_12basic_stringIcNS2_11char_traitsIcEENS2_9allocatorIcEEEEPKNS_7MessageESC_ = comdat any

$_ZN3IPC8MessageTI30ExtensionHostMsg_EventAck_MetaNSt3__15tupleIJiEEEvEC5ENS_7RoutingERKi = comdat any

$_ZN3IPC8MessageTI44ExtensionHostMsg_OpenChannelToExtension_MetaNSt3__15tupleIJN10extensions11PortContextE35ExtensionMsg_ExternalConnectionInfoNS2_12basic_stringIcNS2_11char_traitsIcEENS2_9allocatorIcEEEENS4_6PortIdEEEEvE4ReadEPKNS_7MessageEPSE_ = comdat any

$_ZN3IPC9ReadParamINSt3__15tupleIJN10extensions11PortContextE35ExtensionMsg_ExternalConnectionInfoNS1_12basic_stringIcNS1_11char_traitsIcEENS1_9allocatorIcEEEENS3_6PortIdEEEEEEbPKN4base6PickleEPNSE_14PickleIteratorEPT_ = comdat any

$_ZN3IPC8MessageTI44ExtensionHostMsg_OpenChannelToExtension_MetaNSt3__15tupleIJN10extensions11PortContextE35ExtensionMsg_ExternalConnectionInfoNS2_12basic_stringIcNS2_11char_traitsIcEENS2_9allocatorIcEEEENS4_6PortIdEEEEvE3LogEPSC_PKNS_7MessageESG_ = comdat any

$_ZN3IPC8MessageTI44ExtensionHostMsg_OpenChannelToExtension_MetaNSt3__15tupleIJN10extensions11PortContextE35ExtensionMsg_ExternalConnectionInfoNS2_12basic_stringIcNS2_11char_traitsIcEENS2_9allocatorIcEEEENS4_6PortIdEEEEvEC5ENS_7RoutingERKS5_RKS6_RKSC_RKSD_ = comdat any

$_ZN3IPC8MessageTI44ExtensionHostMsg_OpenChannelToNativeApp_MetaNSt3__15tupleIJN10extensions11PortContextENS2_12basic_stringIcNS2_11char_traitsIcEENS2_9allocatorIcEEEENS4_6PortIdEEEEvE4ReadEPKNS_7MessageEPSD_ = comdat any

$_ZN3IPC8MessageTI44ExtensionHostMsg_OpenChannelToNativeApp_MetaNSt3__15tupleIJN10extensions11PortContextENS2_12basic_stringIcNS2_11char_traitsIcEENS2_9allocatorIcEEEENS4_6PortIdEEEEvE3LogEPSB_PKNS_7MessageESF_ = comdat any

$_ZN3IPC8MessageTI44ExtensionHostMsg_OpenChannelToNativeApp_MetaNSt3__15tupleIJN10extensions11PortContextENS2_12basic_stringIcNS2_11char_traitsIcEENS2_9allocatorIcEEEENS4_6PortIdEEEEvEC5ENS_7RoutingERKS5_RKSB_RKSC_ = comdat any

$_ZN3IPC8MessageTI38ExtensionHostMsg_OpenChannelToTab_MetaNSt3__15tupleIJN10extensions11PortContextE36ExtensionMsg_TabTargetConnectionInfoNS2_12basic_stringIcNS2_11char_traitsIcEENS2_9allocatorIcEEEESC_NS4_6PortIdEEEEvE4ReadEPKNS_7MessageEPSE_ = comdat any

$_ZN3IPC9ReadParamINSt3__15tupleIJN10extensions11PortContextE36ExtensionMsg_TabTargetConnectionInfoNS1_12basic_stringIcNS1_11char_traitsIcEENS1_9allocatorIcEEEESB_NS3_6PortIdEEEEEEbPKN4base6PickleEPNSE_14PickleIteratorEPT_ = comdat any

$_ZN3IPC8MessageTI38ExtensionHostMsg_OpenChannelToTab_MetaNSt3__15tupleIJN10extensions11PortContextE36ExtensionMsg_TabTargetConnectionInfoNS2_12basic_stringIcNS2_11char_traitsIcEENS2_9allocatorIcEEEESC_NS4_6PortIdEEEEvE3LogEPSC_PKNS_7MessageESG_ = comdat any

$_ZN3IPC8MessageTI38ExtensionHostMsg_OpenChannelToTab_MetaNSt3__15tupleIJN10extensions11PortContextE36ExtensionMsg_TabTargetConnectionInfoNS2_12basic_stringIcNS2_11char_traitsIcEENS2_9allocatorIcEEEESC_NS4_6PortIdEEEEvEC5ENS_7RoutingERKS5_RKS6_RKSC_SM_RKSD_ = comdat any

$_ZN3IPC8MessageTI37ExtensionHostMsg_OpenMessagePort_MetaNSt3__15tupleIJN10extensions11PortContextENS4_6PortIdEEEEvE4ReadEPKNS_7MessageEPS7_ = comdat any

$_ZN3IPC8MessageTI37ExtensionHostMsg_OpenMessagePort_MetaNSt3__15tupleIJN10extensions11PortContextENS4_6PortIdEEEEvE3LogEPNS2_12basic_stringIcNS2_11char_traitsIcEENS2_9allocatorIcEEEEPKNS_7MessageESF_ = comdat any

$_ZN3IPC8MessageTI37ExtensionHostMsg_OpenMessagePort_MetaNSt3__15tupleIJN10extensions11PortContextENS4_6PortIdEEEEvEC5ENS_7RoutingERKS5_RKS6_ = comdat any

$_ZN3IPC8MessageTI38ExtensionHostMsg_CloseMessagePort_MetaNSt3__15tupleIJN10extensions11PortContextENS4_6PortIdEbEEEvE4ReadEPKNS_7MessageEPS7_ = comdat any

$_ZN3IPC8MessageTI38ExtensionHostMsg_CloseMessagePort_MetaNSt3__15tupleIJN10extensions11PortContextENS4_6PortIdEbEEEvE3LogEPNS2_12basic_stringIcNS2_11char_traitsIcEENS2_9allocatorIcEEEEPKNS_7MessageESF_ = comdat any

$_ZN3IPC8MessageTI38ExtensionHostMsg_CloseMessagePort_MetaNSt3__15tupleIJN10extensions11PortContextENS4_6PortIdEbEEEvEC5ENS_7RoutingERKS5_RKS6_RKb = comdat any

$_ZN3IPC8MessageTI33ExtensionHostMsg_PostMessage_MetaNSt3__15tupleIJN10extensions6PortIdENS4_7MessageEEEEvE4ReadEPKNS_7MessageEPS7_ = comdat any

$_ZN3IPC8MessageTI33ExtensionHostMsg_PostMessage_MetaNSt3__15tupleIJN10extensions6PortIdENS4_7MessageEEEEvE3LogEPNS2_12basic_stringIcNS2_11char_traitsIcEENS2_9allocatorIcEEEEPKNS_7MessageESF_ = comdat any

$_ZN3IPC8MessageTI33ExtensionHostMsg_PostMessage_MetaNSt3__15tupleIJN10extensions6PortIdENS4_7MessageEEEEvEC5ENS_7RoutingERKS5_RKS6_ = comdat any

$_ZN3IPC8MessageTI38ExtensionHostMsg_GetMessageBundle_MetaNSt3__15tupleIJNS2_12basic_stringIcNS2_11char_traitsIcEENS2_9allocatorIcEEEEEEENS3_IJNS2_3mapIS9_S9_NS2_4lessIS9_EENS7_INS2_4pairIKS9_S9_EEEEEEEEEE13ReadSendParamEPKNS_7MessageEPSA_ = comdat any

$_ZN3IPC8MessageTI38ExtensionHostMsg_GetMessageBundle_MetaNSt3__15tupleIJNS2_12basic_stringIcNS2_11char_traitsIcEENS2_9allocatorIcEEEEEEENS3_IJNS2_3mapIS9_S9_NS2_4lessIS9_EENS7_INS2_4pairIKS9_S9_EEEEEEEEEE14ReadReplyParamEPKNS_7MessageEPSJ_ = comdat any

$_ZN3IPC8MessageTI38ExtensionHostMsg_GetMessageBundle_MetaNSt3__15tupleIJNS2_12basic_stringIcNS2_11char_traitsIcEENS2_9allocatorIcEEEEEEENS3_IJNS2_3mapIS9_S9_NS2_4lessIS9_EENS7_INS2_4pairIKS9_S9_EEEEEEEEEE16WriteReplyParamsEPNS_7MessageERKSI_ = comdat any

$_ZN3IPC8MessageTI38ExtensionHostMsg_GetMessageBundle_MetaNSt3__15tupleIJNS2_12basic_stringIcNS2_11char_traitsIcEENS2_9allocatorIcEEEEEEENS3_IJNS2_3mapIS9_S9_NS2_4lessIS9_EENS7_INS2_4pairIKS9_S9_EEEEEEEEEE3LogEPS9_PKNS_7MessageESL_ = comdat any

$_ZN3IPC8MessageTI38ExtensionHostMsg_GetMessageBundle_MetaNSt3__15tupleIJNS2_12basic_stringIcNS2_11char_traitsIcEENS2_9allocatorIcEEEEEEENS3_IJNS2_3mapIS9_S9_NS2_4lessIS9_EENS7_INS2_4pairIKS9_S9_EEEEEEEEEEC5ENS_7RoutingERSF_PSI_ = comdat any

$_ZN3IPC8MessageTI45ExtensionHostMsg_ContentScriptsExecuting_MetaNSt3__15tupleIJNS2_3mapINS2_12basic_stringIcNS2_11char_traitsIcEENS2_9allocatorIcEEEENS2_3setISA_NS2_4lessISA_EENS8_ISA_EEEESD_NS8_INS2_4pairIKSA_SF_EEEEEE4GURLEEEvE4ReadEPKNS_7MessageEPSM_ = comdat any

$_ZN3IPC8MessageTI45ExtensionHostMsg_ContentScriptsExecuting_MetaNSt3__15tupleIJNS2_3mapINS2_12basic_stringIcNS2_11char_traitsIcEENS2_9allocatorIcEEEENS2_3setISA_NS2_4lessISA_EENS8_ISA_EEEESD_NS8_INS2_4pairIKSA_SF_EEEEEE4GURLEEEvE3LogEPSA_PKNS_7MessageESO_ = comdat any

$_ZN3IPC8MessageTI45ExtensionHostMsg_ContentScriptsExecuting_MetaNSt3__15tupleIJNS2_3mapINS2_12basic_stringIcNS2_11char_traitsIcEENS2_9allocatorIcEEEENS2_3setISA_NS2_4lessISA_EENS8_ISA_EEEESD_NS8_INS2_4pairIKSA_SF_EEEEEE4GURLEEEvEC5ENS_7RoutingERKSK_RKSL_ = comdat any

$_ZN3IPC8MessageTI33ExtensionHostMsg_ResponseAck_MetaNSt3__15tupleIJiEEEvE4ReadEPKNS_7MessageEPS4_ = comdat any

$_ZN3IPC8MessageTI33ExtensionHostMsg_ResponseAck_MetaNSt3__15tupleIJiEEEvE3LogEPNS2_12basic_stringIcNS2_11char_traitsIcEENS2_9allocatorIcEEEEPKNS_7MessageESC_ = comdat any

$_ZN3IPC8MessageTI33ExtensionHostMsg_ResponseAck_MetaNSt3__15tupleIJiEEEvEC5ENS_7RoutingERKi = comdat any

$_ZN3IPC8MessageTI49ExtensionHostMsg_IncrementLazyKeepaliveCount_MetaNSt3__15tupleIJEEEvE4ReadEPKNS_7MessageEPS4_ = comdat any

$_ZN3IPC8MessageTI49ExtensionHostMsg_IncrementLazyKeepaliveCount_MetaNSt3__15tupleIJEEEvE3LogEPNS2_12basic_stringIcNS2_11char_traitsIcEENS2_9allocatorIcEEEEPKNS_7MessageESC_ = comdat any

$_ZN3IPC8MessageTI49ExtensionHostMsg_IncrementLazyKeepaliveCount_MetaNSt3__15tupleIJEEEvEC5ENS_7RoutingE = comdat any

$_ZN3IPC8MessageTI49ExtensionHostMsg_DecrementLazyKeepaliveCount_MetaNSt3__15tupleIJEEEvE4ReadEPKNS_7MessageEPS4_ = comdat any

$_ZN3IPC8MessageTI49ExtensionHostMsg_DecrementLazyKeepaliveCount_MetaNSt3__15tupleIJEEEvE3LogEPNS2_12basic_stringIcNS2_11char_traitsIcEENS2_9allocatorIcEEEEPKNS_7MessageESC_ = comdat any

$_ZN3IPC8MessageTI49ExtensionHostMsg_DecrementLazyKeepaliveCount_MetaNSt3__15tupleIJEEEvEC5ENS_7RoutingE = comdat any

$_ZN3IPC8MessageTI36ExtensionHostMsg_AppWindowReady_MetaNSt3__15tupleIJEEEvE4ReadEPKNS_7MessageEPS4_ = comdat any

$_ZN3IPC8MessageTI36ExtensionHostMsg_AppWindowReady_MetaNSt3__15tupleIJEEEvE3LogEPNS2_12basic_stringIcNS2_11char_traitsIcEENS2_9allocatorIcEEEEPKNS_7MessageESC_ = comdat any

$_ZN3IPC8MessageTI36ExtensionHostMsg_AppWindowReady_MetaNSt3__15tupleIJEEEvEC5ENS_7RoutingE = comdat any

$_ZN3IPC8MessageTI44ExtensionHostMsg_UpdateDraggableRegions_MetaNSt3__15tupleIJNS2_6vectorIN10extensions15DraggableRegionENS2_9allocatorIS6_EEEEEEEvE4ReadEPKNS_7MessageEPSA_ = comdat any

$_ZN3IPC8MessageTI44ExtensionHostMsg_UpdateDraggableRegions_MetaNSt3__15tupleIJNS2_6vectorIN10extensions15DraggableRegionENS2_9allocatorIS6_EEEEEEEvE3LogEPNS2_12basic_stringIcNS2_11char_traitsIcEENS7_IcEEEEPKNS_7MessageESH_ = comdat any

$_ZN3IPC8MessageTI44ExtensionHostMsg_UpdateDraggableRegions_MetaNSt3__15tupleIJNS2_6vectorIN10extensions15DraggableRegionENS2_9allocatorIS6_EEEEEEEvEC5ENS_7RoutingERKS9_ = comdat any

$_ZN3IPC8MessageTI47ExtensionHostMsg_AddAPIActionToActivityLog_MetaNSt3__15tupleIJNS2_12basic_stringIcNS2_11char_traitsIcEENS2_9allocatorIcEEEE40ExtensionHostMsg_APIActionOrEvent_ParamsEEEvE4ReadEPKNS_7MessageEPSB_ = comdat any

$_ZN3IPC8MessageTI47ExtensionHostMsg_AddAPIActionToActivityLog_MetaNSt3__15tupleIJNS2_12basic_stringIcNS2_11char_traitsIcEENS2_9allocatorIcEEEE40ExtensionHostMsg_APIActionOrEvent_ParamsEEEvE3LogEPS9_PKNS_7MessageESD_ = comdat any

$_ZN3IPC8MessageTI47ExtensionHostMsg_AddAPIActionToActivityLog_MetaNSt3__15tupleIJNS2_12basic_stringIcNS2_11char_traitsIcEENS2_9allocatorIcEEEE40ExtensionHostMsg_APIActionOrEvent_ParamsEEEvEC5ENS_7RoutingERKS9_RKSA_ = comdat any

$_ZN3IPC8MessageTI43ExtensionHostMsg_AddEventToActivityLog_MetaNSt3__15tupleIJNS2_12basic_stringIcNS2_11char_traitsIcEENS2_9allocatorIcEEEE40ExtensionHostMsg_APIActionOrEvent_ParamsEEEvE4ReadEPKNS_7MessageEPSB_ = comdat any

$_ZN3IPC8MessageTI43ExtensionHostMsg_AddEventToActivityLog_MetaNSt3__15tupleIJNS2_12basic_stringIcNS2_11char_traitsIcEENS2_9allocatorIcEEEE40ExtensionHostMsg_APIActionOrEvent_ParamsEEEvE3LogEPS9_PKNS_7MessageESD_ = comdat any

$_ZN3IPC8MessageTI43ExtensionHostMsg_AddEventToActivityLog_MetaNSt3__15tupleIJNS2_12basic_stringIcNS2_11char_traitsIcEENS2_9allocatorIcEEEE40ExtensionHostMsg_APIActionOrEvent_ParamsEEEvEC5ENS_7RoutingERKS9_RKSA_ = comdat any

$_ZN3IPC8MessageTI47ExtensionHostMsg_AddDOMActionToActivityLog_MetaNSt3__15tupleIJNS2_12basic_stringIcNS2_11char_traitsIcEENS2_9allocatorIcEEEE33ExtensionHostMsg_DOMAction_ParamsEEEvE4ReadEPKNS_7MessageEPSB_ = comdat any

$_ZN3IPC8MessageTI47ExtensionHostMsg_AddDOMActionToActivityLog_MetaNSt3__15tupleIJNS2_12basic_stringIcNS2_11char_traitsIcEENS2_9allocatorIcEEEE33ExtensionHostMsg_DOMAction_ParamsEEEvE3LogEPS9_PKNS_7MessageESD_ = comdat any

$_ZN3IPC8MessageTI47ExtensionHostMsg_AddDOMActionToActivityLog_MetaNSt3__15tupleIJNS2_12basic_stringIcNS2_11char_traitsIcEENS2_9allocatorIcEEEE33ExtensionHostMsg_DOMAction_ParamsEEEvEC5ENS_7RoutingERKS9_RKSA_ = comdat any

$_ZN3IPC8MessageTI35ExtensionHostMsg_WakeEventPage_MetaNSt3__15tupleIJiNS2_12basic_stringIcNS2_11char_traitsIcEENS2_9allocatorIcEEEEEEEvE4ReadEPKNS_7MessageEPSA_ = comdat any

$_ZN3IPC8MessageTI35ExtensionHostMsg_WakeEventPage_MetaNSt3__15tupleIJiNS2_12basic_stringIcNS2_11char_traitsIcEENS2_9allocatorIcEEEEEEEvE3LogEPS9_PKNS_7MessageESC_ = comdat any

$_ZN3IPC8MessageTI35ExtensionHostMsg_WakeEventPage_MetaNSt3__15tupleIJiNS2_12basic_stringIcNS2_11char_traitsIcEENS2_9allocatorIcEEEEEEEvEC5ENS_7RoutingERKiRKS9_ = comdat any

$_ZN3IPC8MessageTI49ExtensionHostMsg_DetailedConsoleMessageAdded_MetaNSt3__15tupleIJNS2_12basic_stringIDsNS2_11char_traitsIDsEENS2_9allocatorIDsEEEES9_NS2_6vectorIN10extensions10StackFrameENS7_ISC_EEEEiEEEvE4ReadEPKNS_7MessageEPSF_ = comdat any

$_ZN3IPC8MessageTI49ExtensionHostMsg_DetailedConsoleMessageAdded_MetaNSt3__15tupleIJNS2_12basic_stringIDsNS2_11char_traitsIDsEENS2_9allocatorIDsEEEES9_NS2_6vectorIN10extensions10StackFrameENS7_ISC_EEEEiEEEvE3LogEPNS4_IcNS5_IcEENS7_IcEEEEPKNS_7MessageESK_ = comdat any

$_ZN3IPC8MessageTI49ExtensionHostMsg_DetailedConsoleMessageAdded_MetaNSt3__15tupleIJNS2_12basic_stringIDsNS2_11char_traitsIDsEENS2_9allocatorIDsEEEES9_NS2_6vectorIN10extensions10StackFrameENS7_ISC_EEEEiEEEvEC5ENS_7RoutingERKS9_SJ_RKSE_RKi = comdat any

$_ZN3IPC8MessageTI41ExtensionMsg_AutomationQuerySelector_MetaNSt3__15tupleIJiiNS2_12basic_stringIDsNS2_11char_traitsIDsEENS2_9allocatorIDsEEEEEEEvE4ReadEPKNS_7MessageEPSA_ = comdat any

$_ZN3IPC8MessageTI41ExtensionMsg_AutomationQuerySelector_MetaNSt3__15tupleIJiiNS2_12basic_stringIDsNS2_11char_traitsIDsEENS2_9allocatorIDsEEEEEEEvE3LogEPNS4_IcNS5_IcEENS7_IcEEEEPKNS_7MessageESF_ = comdat any

$_ZN3IPC8MessageTI41ExtensionMsg_AutomationQuerySelector_MetaNSt3__15tupleIJiiNS2_12basic_stringIDsNS2_11char_traitsIDsEENS2_9allocatorIDsEEEEEEEvEC5ENS_7RoutingERKiSE_RKS9_ = comdat any

$_ZN3IPC8MessageTI52ExtensionHostMsg_AutomationQuerySelector_Result_MetaNSt3__15tupleIJi46ExtensionHostMsg_AutomationQuerySelector_ErroriEEEvE4ReadEPKNS_7MessageEPS5_ = comdat any

$_ZN3IPC8MessageTI52ExtensionHostMsg_AutomationQuerySelector_Result_MetaNSt3__15tupleIJi46ExtensionHostMsg_AutomationQuerySelector_ErroriEEEvE3LogEPNS2_12basic_stringIcNS2_11char_traitsIcEENS2_9allocatorIcEEEEPKNS_7MessageESD_ = comdat any

$_ZN3IPC8MessageTI52ExtensionHostMsg_AutomationQuerySelector_Result_MetaNSt3__15tupleIJi46ExtensionHostMsg_AutomationQuerySelector_ErroriEEEvEC5ENS_7RoutingERKiRKS4_S9_ = comdat any

$_ZN3IPC8MessageTI35ExtensionHostMsg_RequestWorker_MetaNSt3__15tupleIJN10extensions5mojom13RequestParamsEEEEvE4ReadEPKNS_7MessageEPS7_ = comdat any

$_ZN3IPC8MessageTI35ExtensionHostMsg_RequestWorker_MetaNSt3__15tupleIJN10extensions5mojom13RequestParamsEEEEvE3LogEPNS2_12basic_stringIcNS2_11char_traitsIcEENS2_9allocatorIcEEEEPKNS_7MessageESF_ = comdat any

$_ZN3IPC8MessageTI35ExtensionHostMsg_RequestWorker_MetaNSt3__15tupleIJN10extensions5mojom13RequestParamsEEEEvEC5ENS_7RoutingERKS6_ = comdat any

$_ZN3IPC8MessageTI32ExtensionMsg_ResponseWorker_MetaNSt3__15tupleIJiibN4base9ListValueENS2_12basic_stringIcNS2_11char_traitsIcEENS2_9allocatorIcEEEEEEEvE4ReadEPKNS_7MessageEPSC_ = comdat any

$_ZN3IPC8MessageTI32ExtensionMsg_ResponseWorker_MetaNSt3__15tupleIJiibN4base9ListValueENS2_12basic_stringIcNS2_11char_traitsIcEENS2_9allocatorIcEEEEEEEvE3LogEPSB_PKNS_7MessageESE_ = comdat any

$_ZN3IPC8MessageTI32ExtensionMsg_ResponseWorker_MetaNSt3__15tupleIJiibN4base9ListValueENS2_12basic_stringIcNS2_11char_traitsIcEENS2_9allocatorIcEEEEEEEvEC5ENS_7RoutingERKiSG_RKbRKS5_RKSB_ = comdat any

$_ZN3IPC8MessageTI52ExtensionHostMsg_IncrementServiceWorkerActivity_MetaNSt3__15tupleIJlNS2_12basic_stringIcNS2_11char_traitsIcEENS2_9allocatorIcEEEEEEEvE4ReadEPKNS_7MessageEPSA_ = comdat any

$_ZN3IPC8MessageTI52ExtensionHostMsg_IncrementServiceWorkerActivity_MetaNSt3__15tupleIJlNS2_12basic_stringIcNS2_11char_traitsIcEENS2_9allocatorIcEEEEEEEvE3LogEPS9_PKNS_7MessageESC_ = comdat any

$_ZN3IPC8MessageTI52ExtensionHostMsg_IncrementServiceWorkerActivity_MetaNSt3__15tupleIJlNS2_12basic_stringIcNS2_11char_traitsIcEENS2_9allocatorIcEEEEEEEvEC5ENS_7RoutingERKlRKS9_ = comdat any

$_ZN3IPC8MessageTI52ExtensionHostMsg_DecrementServiceWorkerActivity_MetaNSt3__15tupleIJlNS2_12basic_stringIcNS2_11char_traitsIcEENS2_9allocatorIcEEEEEEEvE4ReadEPKNS_7MessageEPSA_ = comdat any

$_ZN3IPC8MessageTI52ExtensionHostMsg_DecrementServiceWorkerActivity_MetaNSt3__15tupleIJlNS2_12basic_stringIcNS2_11char_traitsIcEENS2_9allocatorIcEEEEEEEvE3LogEPS9_PKNS_7MessageESC_ = comdat any

$_ZN3IPC8MessageTI52ExtensionHostMsg_DecrementServiceWorkerActivity_MetaNSt3__15tupleIJlNS2_12basic_stringIcNS2_11char_traitsIcEENS2_9allocatorIcEEEEEEEvEC5ENS_7RoutingERKlRKS9_ = comdat any

$_ZN3IPC8MessageTI36ExtensionHostMsg_EventAckWorker_MetaNSt3__15tupleIJNS2_12basic_stringIcNS2_11char_traitsIcEENS2_9allocatorIcEEEEliiEEEvE4ReadEPKNS_7MessageEPSA_ = comdat any

$_ZN3IPC8MessageTI36ExtensionHostMsg_EventAckWorker_MetaNSt3__15tupleIJNS2_12basic_stringIcNS2_11char_traitsIcEENS2_9allocatorIcEEEEliiEEEvE3LogEPS9_PKNS_7MessageESC_ = comdat any

$_ZN3IPC8MessageTI36ExtensionHostMsg_EventAckWorker_MetaNSt3__15tupleIJNS2_12basic_stringIcNS2_11char_traitsIcEENS2_9allocatorIcEEEEliiEEEvEC5ENS_7RoutingERKS9_RKlRKiSI_ = comdat any

$_ZN3IPC8MessageTI55ExtensionHostMsg_DidInitializeServiceWorkerContext_MetaNSt3__15tupleIJNS2_12basic_stringIcNS2_11char_traitsIcEENS2_9allocatorIcEEEEliEEEvE4ReadEPKNS_7MessageEPSA_ = comdat any

$_ZN3IPC8MessageTI55ExtensionHostMsg_DidInitializeServiceWorkerContext_MetaNSt3__15tupleIJNS2_12basic_stringIcNS2_11char_traitsIcEENS2_9allocatorIcEEEEliEEEvE3LogEPS9_PKNS_7MessageESC_ = comdat any

$_ZN3IPC8MessageTI55ExtensionHostMsg_DidInitializeServiceWorkerContext_MetaNSt3__15tupleIJNS2_12basic_stringIcNS2_11char_traitsIcEENS2_9allocatorIcEEEEliEEEvEC5ENS_7RoutingERKS9_RKlRKi = comdat any

$_ZN3IPC8MessageTI50ExtensionHostMsg_DidStartServiceWorkerContext_MetaNSt3__15tupleIJNS2_12basic_stringIcNS2_11char_traitsIcEENS2_9allocatorIcEEEEN4base11StrongAliasIN10extensions21ActivationSequenceTagEiEE4GURLliEEEvE4ReadEPKNS_7MessageEPSG_ = comdat any

$_ZN3IPC8MessageTI50ExtensionHostMsg_DidStartServiceWorkerContext_MetaNSt3__15tupleIJNS2_12basic_stringIcNS2_11char_traitsIcEENS2_9allocatorIcEEEEN4base11StrongAliasIN10extensions21ActivationSequenceTagEiEE4GURLliEEEvE3LogEPS9_PKNS_7MessageESI_ = comdat any

$_ZN3IPC8MessageTI50ExtensionHostMsg_DidStartServiceWorkerContext_MetaNSt3__15tupleIJNS2_12basic_stringIcNS2_11char_traitsIcEENS2_9allocatorIcEEEEN4base11StrongAliasIN10extensions21ActivationSequenceTagEiEE4GURLliEEEvEC5ENS_7RoutingERKS9_RKSE_RKSF_RKlRKi = comdat any

$_ZN3IPC8MessageTI49ExtensionHostMsg_DidStopServiceWorkerContext_MetaNSt3__15tupleIJNS2_12basic_stringIcNS2_11char_traitsIcEENS2_9allocatorIcEEEEN4base11StrongAliasIN10extensions21ActivationSequenceTagEiEE4GURLliEEEvE4ReadEPKNS_7MessageEPSG_ = comdat any

$_ZN3IPC8MessageTI49ExtensionHostMsg_DidStopServiceWorkerContext_MetaNSt3__15tupleIJNS2_12basic_stringIcNS2_11char_traitsIcEENS2_9allocatorIcEEEEN4base11StrongAliasIN10extensions21ActivationSequenceTagEiEE4GURLliEEEvE3LogEPS9_PKNS_7MessageESI_ = comdat any

$_ZN3IPC8MessageTI49ExtensionHostMsg_DidStopServiceWorkerContext_MetaNSt3__15tupleIJNS2_12basic_stringIcNS2_11char_traitsIcEENS2_9allocatorIcEEEEN4base11StrongAliasIN10extensions21ActivationSequenceTagEiEE4GURLliEEEvEC5ENS_7RoutingERKS9_RKSE_RKSF_RKlRKi = comdat any

$_ZN3IPC8MessageTI39ExtensionHostMsg_WorkerResponseAck_MetaNSt3__15tupleIJilEEEvE4ReadEPKNS_7MessageEPS4_ = comdat any

$_ZN3IPC8MessageTI39ExtensionHostMsg_WorkerResponseAck_MetaNSt3__15tupleIJilEEEvE3LogEPNS2_12basic_stringIcNS2_11char_traitsIcEENS2_9allocatorIcEEEEPKNS_7MessageESC_ = comdat any

$_ZN3IPC8MessageTI39ExtensionHostMsg_WorkerResponseAck_MetaNSt3__15tupleIJilEEEvEC5ENS_7RoutingERKiRKl = comdat any

$_ZN3IPC8MessageTI42ExtensionMsg_AccessibilityEventBundle_MetaNSt3__15tupleIJ43ExtensionMsg_AccessibilityEventBundleParamsbEEEvE4ReadEPKNS_7MessageEPS5_ = comdat any

$_ZN3IPC8MessageTI42ExtensionMsg_AccessibilityEventBundle_MetaNSt3__15tupleIJ43ExtensionMsg_AccessibilityEventBundleParamsbEEEvE3LogEPNS2_12basic_stringIcNS2_11char_traitsIcEENS2_9allocatorIcEEEEPKNS_7MessageESD_ = comdat any

$_ZN3IPC8MessageTI42ExtensionMsg_AccessibilityEventBundle_MetaNSt3__15tupleIJ43ExtensionMsg_AccessibilityEventBundleParamsbEEEvEC5ENS_7RoutingERKS4_RKb = comdat any

$_ZN3IPC8MessageTI45ExtensionMsg_AccessibilityLocationChange_MetaNSt3__15tupleIJ46ExtensionMsg_AccessibilityLocationChangeParamsEEEvE4ReadEPKNS_7MessageEPS5_ = comdat any

$_ZN3IPC8MessageTI45ExtensionMsg_AccessibilityLocationChange_MetaNSt3__15tupleIJ46ExtensionMsg_AccessibilityLocationChangeParamsEEEvE3LogEPNS2_12basic_stringIcNS2_11char_traitsIcEENS2_9allocatorIcEEEEPKNS_7MessageESD_ = comdat any

$_ZN3IPC8MessageTI45ExtensionMsg_AccessibilityLocationChange_MetaNSt3__15tupleIJ46ExtensionMsg_AccessibilityLocationChangeParamsEEEvEC5ENS_7RoutingERKS4_ = comdat any

$_ZN3IPC8MessageTI59ExtensionsGuestViewHostMsg_CanExecuteContentScriptSync_MetaNSt3__15tupleIJiNS2_12basic_stringIcNS2_11char_traitsIcEENS2_9allocatorIcEEEEEEENS3_IJbEEEE13ReadSendParamEPKNS_7MessageEPSA_ = comdat any

$_ZN3IPC8MessageTI59ExtensionsGuestViewHostMsg_CanExecuteContentScriptSync_MetaNSt3__15tupleIJiNS2_12basic_stringIcNS2_11char_traitsIcEENS2_9allocatorIcEEEEEEENS3_IJbEEEE14ReadReplyParamEPKNS_7MessageEPSB_ = comdat any

$_ZN3IPC8MessageTI59ExtensionsGuestViewHostMsg_CanExecuteContentScriptSync_MetaNSt3__15tupleIJiNS2_12basic_stringIcNS2_11char_traitsIcEENS2_9allocatorIcEEEEEEENS3_IJbEEEE16WriteReplyParamsEPNS_7MessageERKb = comdat any

$_ZN3IPC8MessageTI59ExtensionsGuestViewHostMsg_CanExecuteContentScriptSync_MetaNSt3__15tupleIJiNS2_12basic_stringIcNS2_11char_traitsIcEENS2_9allocatorIcEEEEEEENS3_IJbEEEE3LogEPS9_PKNS_7MessageESD_ = comdat any

$_ZN3IPC8MessageTI59ExtensionsGuestViewHostMsg_CanExecuteContentScriptSync_MetaNSt3__15tupleIJiNS2_12basic_stringIcNS2_11char_traitsIcEENS2_9allocatorIcEEEEEEENS3_IJbEEEEC5ENS_7RoutingERKiRKS9_Pb = comdat any

$_ZN3IPC8MessageTI31ExtensionMsg_DispatchEvent_MetaNSt3__15tupleIJ33ExtensionMsg_DispatchEvent_ParamsN4base9ListValueEEEEvED0Ev = comdat any

$_ZN3IPC8MessageTI39ExtensionMsg_UpdateBrowserWindowId_MetaNSt3__15tupleIJiEEEvED0Ev = comdat any

$_ZN3IPC8MessageTI39ExtensionMsg_WakeEventPageResponse_MetaNSt3__15tupleIJibEEEvED0Ev = comdat any

$_ZN3IPC8MessageTI37ExtensionMsg_ValidateMessagePort_MetaNSt3__15tupleIJiN10extensions6PortIdEEEEvED0Ev = comdat any

$_ZN3IPC8MessageTI35ExtensionMsg_DispatchOnConnect_MetaNSt3__15tupleIJiN10extensions6PortIdENS2_12basic_stringIcNS2_11char_traitsIcEENS2_9allocatorIcEEEE30ExtensionMsg_TabConnectionInfo35ExtensionMsg_ExternalConnectionInfoEEEvED0Ev = comdat any

$_ZN3IPC8MessageTI32ExtensionMsg_DeliverMessage_MetaNSt3__15tupleIJiN10extensions6PortIdENS4_7MessageEEEEvED0Ev = comdat any

$_ZN3IPC8MessageTI38ExtensionMsg_DispatchOnDisconnect_MetaNSt3__15tupleIJiN10extensions6PortIdENS2_12basic_stringIcNS2_11char_traitsIcEENS2_9allocatorIcEEEEEEEvED0Ev = comdat any

$_ZN3IPC8MessageTI41ExtensionHostMsg_AddFilteredListener_MetaNSt3__15tupleIJNS2_12basic_stringIcNS2_11char_traitsIcEENS2_9allocatorIcEEEES9_N4absl8optionalI23ServiceWorkerIdentifierEEN4base15DictionaryValueEbEEEvED0Ev = comdat any

$_ZN3IPC8MessageTI44ExtensionHostMsg_RemoveFilteredListener_MetaNSt3__15tupleIJNS2_12basic_stringIcNS2_11char_traitsIcEENS2_9allocatorIcEEEES9_N4absl8optionalI23ServiceWorkerIdentifierEEN4base15DictionaryValueEbEEEvED0Ev = comdat any

$_ZN3IPC8MessageTI30ExtensionHostMsg_EventAck_MetaNSt3__15tupleIJiEEEvED0Ev = comdat any

$_ZN3IPC8MessageTI44ExtensionHostMsg_OpenChannelToExtension_MetaNSt3__15tupleIJN10extensions11PortContextE35ExtensionMsg_ExternalConnectionInfoNS2_12basic_stringIcNS2_11char_traitsIcEENS2_9allocatorIcEEEENS4_6PortIdEEEEvED0Ev = comdat any

$_ZN3IPC8MessageTI44ExtensionHostMsg_OpenChannelToNativeApp_MetaNSt3__15tupleIJN10extensions11PortContextENS2_12basic_stringIcNS2_11char_traitsIcEENS2_9allocatorIcEEEENS4_6PortIdEEEEvED0Ev = comdat any

$_ZN3IPC8MessageTI38ExtensionHostMsg_OpenChannelToTab_MetaNSt3__15tupleIJN10extensions11PortContextE36ExtensionMsg_TabTargetConnectionInfoNS2_12basic_stringIcNS2_11char_traitsIcEENS2_9allocatorIcEEEESC_NS4_6PortIdEEEEvED0Ev = comdat any

$_ZN3IPC8MessageTI37ExtensionHostMsg_OpenMessagePort_MetaNSt3__15tupleIJN10extensions11PortContextENS4_6PortIdEEEEvED0Ev = comdat any

$_ZN3IPC8MessageTI38ExtensionHostMsg_CloseMessagePort_MetaNSt3__15tupleIJN10extensions11PortContextENS4_6PortIdEbEEEvED0Ev = comdat any

$_ZN3IPC8MessageTI33ExtensionHostMsg_PostMessage_MetaNSt3__15tupleIJN10extensions6PortIdENS4_7MessageEEEEvED0Ev = comdat any

$_ZN3IPC8MessageTI38ExtensionHostMsg_GetMessageBundle_MetaNSt3__15tupleIJNS2_12basic_stringIcNS2_11char_traitsIcEENS2_9allocatorIcEEEEEEENS3_IJNS2_3mapIS9_S9_NS2_4lessIS9_EENS7_INS2_4pairIKS9_S9_EEEEEEEEEED0Ev = comdat any

$_ZN3IPC8MessageTI45ExtensionHostMsg_ContentScriptsExecuting_MetaNSt3__15tupleIJNS2_3mapINS2_12basic_stringIcNS2_11char_traitsIcEENS2_9allocatorIcEEEENS2_3setISA_NS2_4lessISA_EENS8_ISA_EEEESD_NS8_INS2_4pairIKSA_SF_EEEEEE4GURLEEEvED0Ev = comdat any

$_ZN3IPC8MessageTI33ExtensionHostMsg_ResponseAck_MetaNSt3__15tupleIJiEEEvED0Ev = comdat any

$_ZN3IPC8MessageTI49ExtensionHostMsg_IncrementLazyKeepaliveCount_MetaNSt3__15tupleIJEEEvED0Ev = comdat any

$_ZN3IPC8MessageTI49ExtensionHostMsg_DecrementLazyKeepaliveCount_MetaNSt3__15tupleIJEEEvED0Ev = comdat any

$_ZN3IPC8MessageTI36ExtensionHostMsg_AppWindowReady_MetaNSt3__15tupleIJEEEvED0Ev = comdat any

$_ZN3IPC8MessageTI44ExtensionHostMsg_UpdateDraggableRegions_MetaNSt3__15tupleIJNS2_6vectorIN10extensions15DraggableRegionENS2_9allocatorIS6_EEEEEEEvED0Ev = comdat any

$_ZN3IPC8MessageTI47ExtensionHostMsg_AddAPIActionToActivityLog_MetaNSt3__15tupleIJNS2_12basic_stringIcNS2_11char_traitsIcEENS2_9allocatorIcEEEE40ExtensionHostMsg_APIActionOrEvent_ParamsEEEvED0Ev = comdat any

$_ZN3IPC8MessageTI43ExtensionHostMsg_AddEventToActivityLog_MetaNSt3__15tupleIJNS2_12basic_stringIcNS2_11char_traitsIcEENS2_9allocatorIcEEEE40ExtensionHostMsg_APIActionOrEvent_ParamsEEEvED0Ev = comdat any

$_ZN3IPC8MessageTI47ExtensionHostMsg_AddDOMActionToActivityLog_MetaNSt3__15tupleIJNS2_12basic_stringIcNS2_11char_traitsIcEENS2_9allocatorIcEEEE33ExtensionHostMsg_DOMAction_ParamsEEEvED0Ev = comdat any

$_ZN3IPC8MessageTI35ExtensionHostMsg_WakeEventPage_MetaNSt3__15tupleIJiNS2_12basic_stringIcNS2_11char_traitsIcEENS2_9allocatorIcEEEEEEEvED0Ev = comdat any

$_ZN3IPC8MessageTI49ExtensionHostMsg_DetailedConsoleMessageAdded_MetaNSt3__15tupleIJNS2_12basic_stringIDsNS2_11char_traitsIDsEENS2_9allocatorIDsEEEES9_NS2_6vectorIN10extensions10StackFrameENS7_ISC_EEEEiEEEvED0Ev = comdat any

$_ZN3IPC8MessageTI41ExtensionMsg_AutomationQuerySelector_MetaNSt3__15tupleIJiiNS2_12basic_stringIDsNS2_11char_traitsIDsEENS2_9allocatorIDsEEEEEEEvED0Ev = comdat any

$_ZN3IPC8MessageTI52ExtensionHostMsg_AutomationQuerySelector_Result_MetaNSt3__15tupleIJi46ExtensionHostMsg_AutomationQuerySelector_ErroriEEEvED0Ev = comdat any

$_ZN3IPC8MessageTI35ExtensionHostMsg_RequestWorker_MetaNSt3__15tupleIJN10extensions5mojom13RequestParamsEEEEvED0Ev = comdat any

$_ZN3IPC8MessageTI32ExtensionMsg_ResponseWorker_MetaNSt3__15tupleIJiibN4base9ListValueENS2_12basic_stringIcNS2_11char_traitsIcEENS2_9allocatorIcEEEEEEEvED0Ev = comdat any

$_ZN3IPC8MessageTI52ExtensionHostMsg_IncrementServiceWorkerActivity_MetaNSt3__15tupleIJlNS2_12basic_stringIcNS2_11char_traitsIcEENS2_9allocatorIcEEEEEEEvED0Ev = comdat any

$_ZN3IPC8MessageTI52ExtensionHostMsg_DecrementServiceWorkerActivity_MetaNSt3__15tupleIJlNS2_12basic_stringIcNS2_11char_traitsIcEENS2_9allocatorIcEEEEEEEvED0Ev = comdat any

$_ZN3IPC8MessageTI36ExtensionHostMsg_EventAckWorker_MetaNSt3__15tupleIJNS2_12basic_stringIcNS2_11char_traitsIcEENS2_9allocatorIcEEEEliiEEEvED0Ev = comdat any

$_ZN3IPC8MessageTI55ExtensionHostMsg_DidInitializeServiceWorkerContext_MetaNSt3__15tupleIJNS2_12basic_stringIcNS2_11char_traitsIcEENS2_9allocatorIcEEEEliEEEvED0Ev = comdat any

$_ZN3IPC8MessageTI50ExtensionHostMsg_DidStartServiceWorkerContext_MetaNSt3__15tupleIJNS2_12basic_stringIcNS2_11char_traitsIcEENS2_9allocatorIcEEEEN4base11StrongAliasIN10extensions21ActivationSequenceTagEiEE4GURLliEEEvED0Ev = comdat any

$_ZN3IPC8MessageTI49ExtensionHostMsg_DidStopServiceWorkerContext_MetaNSt3__15tupleIJNS2_12basic_stringIcNS2_11char_traitsIcEENS2_9allocatorIcEEEEN4base11StrongAliasIN10extensions21ActivationSequenceTagEiEE4GURLliEEEvED0Ev = comdat any

$_ZN3IPC8MessageTI39ExtensionHostMsg_WorkerResponseAck_MetaNSt3__15tupleIJilEEEvED0Ev = comdat any

$_ZN3IPC8MessageTI42ExtensionMsg_AccessibilityEventBundle_MetaNSt3__15tupleIJ43ExtensionMsg_AccessibilityEventBundleParamsbEEEvED0Ev = comdat any

$_ZN3IPC8MessageTI45ExtensionMsg_AccessibilityLocationChange_MetaNSt3__15tupleIJ46ExtensionMsg_AccessibilityLocationChangeParamsEEEvED0Ev = comdat any

$_ZN3IPC8MessageTI59ExtensionsGuestViewHostMsg_CanExecuteContentScriptSync_MetaNSt3__15tupleIJiNS2_12basic_stringIcNS2_11char_traitsIcEENS2_9allocatorIcEEEEEEENS3_IJbEEEED0Ev = comdat any

$_ZNSt3__16__treeINS_12__value_typeINS_12basic_stringIcNS_11char_traitsIcEENS_9allocatorIcEEEES7_EENS_19__map_value_compareIS7_S8_NS_4lessIS7_EELb1EEENS5_IS8_EEE7destroyEPNS_11__tree_nodeIS8_PvEE = comdat any

$_ZNSt3__16__treeINS_12__value_typeINS_12basic_stringIcNS_11char_traitsIcEENS_9allocatorIcEEEENS_3setIS7_NS_4lessIS7_EENS5_IS7_EEEEEENS_19__map_value_compareIS7_SD_SA_Lb1EEENS5_ISD_EEE7destroyEPNS_11__tree_nodeISD_PvEE = comdat any

$_ZNSt3__16__treeINS_12basic_stringIcNS_11char_traitsIcEENS_9allocatorIcEEEENS_4lessIS6_EENS4_IS6_EEE7destroyEPNS_11__tree_nodeIS6_PvEE = comdat any

$_ZN3IPC22TupleParamTraitsHelperINSt3__15tupleIJiN10extensions6PortIdENS1_12basic_stringIcNS1_11char_traitsIcEENS1_9allocatorIcEEEE30ExtensionMsg_TabConnectionInfo35ExtensionMsg_ExternalConnectionInfoEEELi1ELi5EE4ReadEPKN4base6PickleEPNSF_14PickleIteratorEPSD_ = comdat any

$_ZN3IPC22TupleParamTraitsHelperINSt3__15tupleIJiN10extensions6PortIdENS1_12basic_stringIcNS1_11char_traitsIcEENS1_9allocatorIcEEEE30ExtensionMsg_TabConnectionInfo35ExtensionMsg_ExternalConnectionInfoEEELi1ELi5EE3LogERKSD_PSA_ = comdat any

$_ZN3IPC22TupleParamTraitsHelperINSt3__15tupleIJiN10extensions6PortIdENS3_7MessageEEEELi0ELi3EE4ReadEPKN4base6PickleEPNS8_14PickleIteratorEPS6_ = comdat any

$_ZN3IPC22TupleParamTraitsHelperINSt3__15tupleIJiN10extensions6PortIdENS3_7MessageEEEELi1ELi3EE3LogERKS6_PNS1_12basic_stringIcNS1_11char_traitsIcEENS1_9allocatorIcEEEE = comdat any

$_ZN3IPC11ParamTraitsIN4absl8optionalI23ServiceWorkerIdentifierEEE4ReadEPKN4base6PickleEPNS6_14PickleIteratorEPS4_ = comdat any

$_ZN3IPC22TupleParamTraitsHelperINSt3__15tupleIJNS1_12basic_stringIcNS1_11char_traitsIcEENS1_9allocatorIcEEEES8_N4absl8optionalI23ServiceWorkerIdentifierEEN4base15DictionaryValueEbEEELi0ELi5EE3LogERKSF_PS8_ = comdat any

$_ZN3IPC22TupleParamTraitsHelperINSt3__15tupleIJRKNS1_12basic_stringIcNS1_11char_traitsIcEENS1_9allocatorIcEEEESA_RKN4absl8optionalI23ServiceWorkerIdentifierEERKN4base15DictionaryValueERKbEEELi2ELi5EE5WriteEPNSH_6PickleERKSN_ = comdat any

$_ZN3IPC22TupleParamTraitsHelperINSt3__15tupleIJN10extensions11PortContextE36ExtensionMsg_TabTargetConnectionInfoNS1_12basic_stringIcNS1_11char_traitsIcEENS1_9allocatorIcEEEESB_NS3_6PortIdEEEELi1ELi5EE3LogERKSD_PSB_ = comdat any

$_ZN3IPC22TupleParamTraitsHelperINSt3__15tupleIJN10extensions6PortIdENS3_7MessageEEEELi0ELi2EE3LogERKS6_PNS1_12basic_stringIcNS1_11char_traitsIcEENS1_9allocatorIcEEEE = comdat any

$_ZN3IPC11ParamTraitsINSt3__13mapINS1_12basic_stringIcNS1_11char_traitsIcEENS1_9allocatorIcEEEES8_NS1_4lessIS8_EENS6_INS1_4pairIKS8_S8_EEEEEEE4ReadEPKN4base6PickleEPNSH_14PickleIteratorEPSF_ = comdat any

$_ZNSt3__16__treeINS_12__value_typeINS_12basic_stringIcNS_11char_traitsIcEENS_9allocatorIcEEEES7_EENS_19__map_value_compareIS7_S8_NS_4lessIS7_EELb1EEENS5_IS8_EEE25__emplace_unique_key_argsIS7_JRKNS_21piecewise_construct_tENS_5tupleIJRKS7_EEENSJ_IJEEEEEENS_4pairINS_15__tree_iteratorIS8_PNS_11__tree_nodeIS8_PvEElEEbEERKT_DpOT0_ = comdat any

$_ZNSt3__16__treeINS_12__value_typeINS_12basic_stringIcNS_11char_traitsIcEENS_9allocatorIcEEEES7_EENS_19__map_value_compareIS7_S8_NS_4lessIS7_EELb1EEENS5_IS8_EEE12__find_equalIS7_EERPNS_16__tree_node_baseIPvEERPNS_15__tree_end_nodeISJ_EERKT_ = comdat any

$_ZNSt3__127__tree_balance_after_insertIPNS_16__tree_node_baseIPvEEEEvT_S5_ = comdat any

$_ZN3IPC11ParamTraitsINSt3__13mapINS1_12basic_stringIcNS1_11char_traitsIcEENS1_9allocatorIcEEEES8_NS1_4lessIS8_EENS6_INS1_4pairIKS8_S8_EEEEEEE5WriteEPN4base6PickleERKSF_ = comdat any

$_ZN3IPC24MessageReplyDeserializerD2Ev = comdat any

$_ZN3IPC17ParamDeserializerIJNSt3__13mapINS1_12basic_stringIcNS1_11char_traitsIcEENS1_9allocatorIcEEEES8_NS1_4lessIS8_EENS6_INS1_4pairIKS8_S8_EEEEEEEED0Ev = comdat any

$_ZN3IPC17ParamDeserializerIJNSt3__13mapINS1_12basic_stringIcNS1_11char_traitsIcEENS1_9allocatorIcEEEES8_NS1_4lessIS8_EENS6_INS1_4pairIKS8_S8_EEEEEEEE25SerializeOutputParametersERKNS_7MessageEN4base14PickleIteratorE = comdat any

$_ZN3IPC11ParamTraitsINSt3__13mapINS1_12basic_stringIcNS1_11char_traitsIcEENS1_9allocatorIcEEEENS1_3setIS8_NS1_4lessIS8_EENS6_IS8_EEEESB_NS6_INS1_4pairIKS8_SD_EEEEEEE4ReadEPKN4base6PickleEPNSK_14PickleIteratorEPSI_ = comdat any

$_ZNSt3__16__treeINS_12__value_typeINS_12basic_stringIcNS_11char_traitsIcEENS_9allocatorIcEEEENS_3setIS7_NS_4lessIS7_EENS5_IS7_EEEEEENS_19__map_value_compareIS7_SD_SA_Lb1EEENS5_ISD_EEE25__emplace_unique_key_argsIS7_JRKNS_21piecewise_construct_tENS_5tupleIJRKS7_EEENSM_IJEEEEEENS_4pairINS_15__tree_iteratorISD_PNS_11__tree_nodeISD_PvEElEEbEERKT_DpOT0_ = comdat any

$_ZNSt3__16__treeINS_12__value_typeINS_12basic_stringIcNS_11char_traitsIcEENS_9allocatorIcEEEENS_3setIS7_NS_4lessIS7_EENS5_IS7_EEEEEENS_19__map_value_compareIS7_SD_SA_Lb1EEENS5_ISD_EEE12__find_equalIS7_EERPNS_16__tree_node_baseIPvEERPNS_15__tree_end_nodeISM_EERKT_ = comdat any

$_ZNSt3__16__treeINS_12basic_stringIcNS_11char_traitsIcEENS_9allocatorIcEEEENS_4lessIS6_EENS4_IS6_EEE25__emplace_unique_key_argsIS6_JRKS6_EEENS_4pairINS_15__tree_iteratorIS6_PNS_11__tree_nodeIS6_PvEElEEbEERKT_DpOT0_ = comdat any

$_ZNSt3__16__treeINS_12basic_stringIcNS_11char_traitsIcEENS_9allocatorIcEEEENS_4lessIS6_EENS4_IS6_EEE12__find_equalIS6_EERPNS_16__tree_node_baseIPvEERPNS_15__tree_end_nodeISF_EERKT_ = comdat any

$_ZN3IPC11ParamTraitsINSt3__13mapINS1_12basic_stringIcNS1_11char_traitsIcEENS1_9allocatorIcEEEENS1_3setIS8_NS1_4lessIS8_EENS6_IS8_EEEESB_NS6_INS1_4pairIKS8_SD_EEEEEEE5WriteEPN4base6PickleERKSI_ = comdat any

$_ZN3IPC11ParamTraitsINSt3__16vectorIN10extensions15DraggableRegionENS1_9allocatorIS4_EEEEE4ReadEPKN4base6PickleEPNS9_14PickleIteratorEPS7_ = comdat any

$_ZNSt3__16vectorIN10extensions15DraggableRegionENS_9allocatorIS2_EEE8__appendEm = comdat any

$_ZN3IPC22TupleParamTraitsHelperINSt3__15tupleIJNS1_6vectorIN10extensions15DraggableRegionENS1_9allocatorIS5_EEEEEEELi0ELi1EE3LogERKS9_PNS1_12basic_stringIcNS1_11char_traitsIcEENS6_IcEEEE = comdat any

$_ZN3IPC22TupleParamTraitsHelperINSt3__15tupleIJRKNS1_12basic_stringIcNS1_11char_traitsIcEENS1_9allocatorIcEEEERK33ExtensionHostMsg_DOMAction_ParamsEEELi0ELi2EE5WriteEPN4base6PickleERKSE_ = comdat any

$_ZN3IPC11ParamTraitsINSt3__16vectorIN10extensions10StackFrameENS1_9allocatorIS4_EEEEE4ReadEPKN4base6PickleEPNS9_14PickleIteratorEPS7_ = comdat any

$_ZNSt3__16vectorIN10extensions10StackFrameENS_9allocatorIS2_EEE8__appendEm = comdat any

$_ZN3IPC22TupleParamTraitsHelperINSt3__15tupleIJNS1_12basic_stringIDsNS1_11char_traitsIDsEENS1_9allocatorIDsEEEES8_NS1_6vectorIN10extensions10StackFrameENS6_ISB_EEEEiEEELi1ELi4EE3LogERKSE_PNS3_IcNS4_IcEENS6_IcEEEE = comdat any

$_ZN3IPC22TupleParamTraitsHelperINSt3__15tupleIJRKNS1_12basic_stringIDsNS1_11char_traitsIDsEENS1_9allocatorIDsEEEESA_RKNS1_6vectorIN10extensions10StackFrameENS6_ISD_EEEERKiEEELi1ELi4EE5WriteEPN4base6PickleERKSK_ = comdat any

$_ZN3IPC17ParamDeserializerIJbEED0Ev = comdat any

$_ZN3IPC17ParamDeserializerIJbEE25SerializeOutputParametersERKNS_7MessageEN4base14PickleIteratorE = comdat any

$_ZN3IPC11ParamTraitsIN4absl8optionalINSt3__112basic_stringIcNS3_11char_traitsIcEENS3_9allocatorIcEEEEEEE4ReadEPKN4base6PickleEPNSC_14PickleIteratorEPSA_ = comdat any

$_ZN3IPC11ParamTraitsIN4absl8optionalIN3url6OriginEEEE4ReadEPKN4base6PickleEPNS7_14PickleIteratorEPS5_ = comdat any

$_ZN3IPC11ParamTraitsIN4absl8optionalIN10extensions11PortContext13WorkerContextEEEE4ReadEPKN4base6PickleEPNS8_14PickleIteratorEPS6_ = comdat any

$_ZN3IPC11ParamTraitsIN4absl8optionalI4GURLEEE4ReadEPKN4base6PickleEPNS6_14PickleIteratorEPS4_ = comdat any

$_ZN3IPC11ParamTraitsINSt3__16vectorIN2ui12AXTreeUpdateENS1_9allocatorIS4_EEEEE4ReadEPKN4base6PickleEPNS9_14PickleIteratorEPS7_ = comdat any

$_ZNSt3__16vectorIN2ui12AXTreeUpdateENS_9allocatorIS2_EEE8__appendEm = comdat any

$_ZN3IPC11ParamTraitsINSt3__16vectorIN2ui7AXEventENS1_9allocatorIS4_EEEEE4ReadEPKN4base6PickleEPNS9_14PickleIteratorEPS7_ = comdat any

$_ZNSt3__16vectorIN2ui7AXEventENS_9allocatorIS2_EEE8__appendEm = comdat any

$_ZTVN3IPC8MessageTI31ExtensionMsg_DispatchEvent_MetaNSt3__15tupleIJ33ExtensionMsg_DispatchEvent_ParamsN4base9ListValueEEEEvEE = comdat any

$_ZTVN3IPC8MessageTI39ExtensionMsg_UpdateBrowserWindowId_MetaNSt3__15tupleIJiEEEvEE = comdat any

$_ZTVN3IPC8MessageTI39ExtensionMsg_WakeEventPageResponse_MetaNSt3__15tupleIJibEEEvEE = comdat any

$_ZTVN3IPC8MessageTI37ExtensionMsg_ValidateMessagePort_MetaNSt3__15tupleIJiN10extensions6PortIdEEEEvEE = comdat any

$_ZTVN3IPC8MessageTI35ExtensionMsg_DispatchOnConnect_MetaNSt3__15tupleIJiN10extensions6PortIdENS2_12basic_stringIcNS2_11char_traitsIcEENS2_9allocatorIcEEEE30ExtensionMsg_TabConnectionInfo35ExtensionMsg_ExternalConnectionInfoEEEvEE = comdat any

$_ZTVN3IPC8MessageTI32ExtensionMsg_DeliverMessage_MetaNSt3__15tupleIJiN10extensions6PortIdENS4_7MessageEEEEvEE = comdat any

$_ZTVN3IPC8MessageTI38ExtensionMsg_DispatchOnDisconnect_MetaNSt3__15tupleIJiN10extensions6PortIdENS2_12basic_stringIcNS2_11char_traitsIcEENS2_9allocatorIcEEEEEEEvEE = comdat any

$_ZTVN3IPC8MessageTI41ExtensionHostMsg_AddFilteredListener_MetaNSt3__15tupleIJNS2_12basic_stringIcNS2_11char_traitsIcEENS2_9allocatorIcEEEES9_N4absl8optionalI23ServiceWorkerIdentifierEEN4base15DictionaryValueEbEEEvEE = comdat any

$_ZTVN3IPC8MessageTI44ExtensionHostMsg_RemoveFilteredListener_MetaNSt3__15tupleIJNS2_12basic_stringIcNS2_11char_traitsIcEENS2_9allocatorIcEEEES9_N4absl8optionalI23ServiceWorkerIdentifierEEN4base15DictionaryValueEbEEEvEE = comdat any

$_ZTVN3IPC8MessageTI30ExtensionHostMsg_EventAck_MetaNSt3__15tupleIJiEEEvEE = comdat any

$_ZTVN3IPC8MessageTI44ExtensionHostMsg_OpenChannelToExtension_MetaNSt3__15tupleIJN10extensions11PortContextE35ExtensionMsg_ExternalConnectionInfoNS2_12basic_stringIcNS2_11char_traitsIcEENS2_9allocatorIcEEEENS4_6PortIdEEEEvEE = comdat any

$_ZTVN3IPC8MessageTI44ExtensionHostMsg_OpenChannelToNativeApp_MetaNSt3__15tupleIJN10extensions11PortContextENS2_12basic_stringIcNS2_11char_traitsIcEENS2_9allocatorIcEEEENS4_6PortIdEEEEvEE = comdat any

$_ZTVN3IPC8MessageTI38ExtensionHostMsg_OpenChannelToTab_MetaNSt3__15tupleIJN10extensions11PortContextE36ExtensionMsg_TabTargetConnectionInfoNS2_12basic_stringIcNS2_11char_traitsIcEENS2_9allocatorIcEEEESC_NS4_6PortIdEEEEvEE = comdat any

$_ZTVN3IPC8MessageTI37ExtensionHostMsg_OpenMessagePort_MetaNSt3__15tupleIJN10extensions11PortContextENS4_6PortIdEEEEvEE = comdat any

$_ZTVN3IPC8MessageTI38ExtensionHostMsg_CloseMessagePort_MetaNSt3__15tupleIJN10extensions11PortContextENS4_6PortIdEbEEEvEE = comdat any

$_ZTVN3IPC8MessageTI33ExtensionHostMsg_PostMessage_MetaNSt3__15tupleIJN10extensions6PortIdENS4_7MessageEEEEvEE = comdat any

$_ZTVN3IPC8MessageTI38ExtensionHostMsg_GetMessageBundle_MetaNSt3__15tupleIJNS2_12basic_stringIcNS2_11char_traitsIcEENS2_9allocatorIcEEEEEEENS3_IJNS2_3mapIS9_S9_NS2_4lessIS9_EENS7_INS2_4pairIKS9_S9_EEEEEEEEEEE = comdat any

$_ZTVN3IPC8MessageTI45ExtensionHostMsg_ContentScriptsExecuting_MetaNSt3__15tupleIJNS2_3mapINS2_12basic_stringIcNS2_11char_traitsIcEENS2_9allocatorIcEEEENS2_3setISA_NS2_4lessISA_EENS8_ISA_EEEESD_NS8_INS2_4pairIKSA_SF_EEEEEE4GURLEEEvEE = comdat any

$_ZTVN3IPC8MessageTI33ExtensionHostMsg_ResponseAck_MetaNSt3__15tupleIJiEEEvEE = comdat any

$_ZTVN3IPC8MessageTI49ExtensionHostMsg_IncrementLazyKeepaliveCount_MetaNSt3__15tupleIJEEEvEE = comdat any

$_ZTVN3IPC8MessageTI49ExtensionHostMsg_DecrementLazyKeepaliveCount_MetaNSt3__15tupleIJEEEvEE = comdat any

$_ZTVN3IPC8MessageTI36ExtensionHostMsg_AppWindowReady_MetaNSt3__15tupleIJEEEvEE = comdat any

$_ZTVN3IPC8MessageTI44ExtensionHostMsg_UpdateDraggableRegions_MetaNSt3__15tupleIJNS2_6vectorIN10extensions15DraggableRegionENS2_9allocatorIS6_EEEEEEEvEE = comdat any

$_ZTVN3IPC8MessageTI47ExtensionHostMsg_AddAPIActionToActivityLog_MetaNSt3__15tupleIJNS2_12basic_stringIcNS2_11char_traitsIcEENS2_9allocatorIcEEEE40ExtensionHostMsg_APIActionOrEvent_ParamsEEEvEE = comdat any

$_ZTVN3IPC8MessageTI43ExtensionHostMsg_AddEventToActivityLog_MetaNSt3__15tupleIJNS2_12basic_stringIcNS2_11char_traitsIcEENS2_9allocatorIcEEEE40ExtensionHostMsg_APIActionOrEvent_ParamsEEEvEE = comdat any

$_ZTVN3IPC8MessageTI47ExtensionHostMsg_AddDOMActionToActivityLog_MetaNSt3__15tupleIJNS2_12basic_stringIcNS2_11char_traitsIcEENS2_9allocatorIcEEEE33ExtensionHostMsg_DOMAction_ParamsEEEvEE = comdat any

$_ZTVN3IPC8MessageTI35ExtensionHostMsg_WakeEventPage_MetaNSt3__15tupleIJiNS2_12basic_stringIcNS2_11char_traitsIcEENS2_9allocatorIcEEEEEEEvEE = comdat any

$_ZTVN3IPC8MessageTI49ExtensionHostMsg_DetailedConsoleMessageAdded_MetaNSt3__15tupleIJNS2_12basic_stringIDsNS2_11char_traitsIDsEENS2_9allocatorIDsEEEES9_NS2_6vectorIN10extensions10StackFrameENS7_ISC_EEEEiEEEvEE = comdat any

$_ZTVN3IPC8MessageTI41ExtensionMsg_AutomationQuerySelector_MetaNSt3__15tupleIJiiNS2_12basic_stringIDsNS2_11char_traitsIDsEENS2_9allocatorIDsEEEEEEEvEE = comdat any

$_ZTVN3IPC8MessageTI52ExtensionHostMsg_AutomationQuerySelector_Result_MetaNSt3__15tupleIJi46ExtensionHostMsg_AutomationQuerySelector_ErroriEEEvEE = comdat any

$_ZTVN3IPC8MessageTI35ExtensionHostMsg_RequestWorker_MetaNSt3__15tupleIJN10extensions5mojom13RequestParamsEEEEvEE = comdat any

$_ZTVN3IPC8MessageTI32ExtensionMsg_ResponseWorker_MetaNSt3__15tupleIJiibN4base9ListValueENS2_12basic_stringIcNS2_11char_traitsIcEENS2_9allocatorIcEEEEEEEvEE = comdat any

$_ZTVN3IPC8MessageTI52ExtensionHostMsg_IncrementServiceWorkerActivity_MetaNSt3__15tupleIJlNS2_12basic_stringIcNS2_11char_traitsIcEENS2_9allocatorIcEEEEEEEvEE = comdat any

$_ZTVN3IPC8MessageTI52ExtensionHostMsg_DecrementServiceWorkerActivity_MetaNSt3__15tupleIJlNS2_12basic_stringIcNS2_11char_traitsIcEENS2_9allocatorIcEEEEEEEvEE = comdat any

$_ZTVN3IPC8MessageTI36ExtensionHostMsg_EventAckWorker_MetaNSt3__15tupleIJNS2_12basic_stringIcNS2_11char_traitsIcEENS2_9allocatorIcEEEEliiEEEvEE = comdat any

$_ZTVN3IPC8MessageTI55ExtensionHostMsg_DidInitializeServiceWorkerContext_MetaNSt3__15tupleIJNS2_12basic_stringIcNS2_11char_traitsIcEENS2_9allocatorIcEEEEliEEEvEE = comdat any

$_ZTVN3IPC8MessageTI50ExtensionHostMsg_DidStartServiceWorkerContext_MetaNSt3__15tupleIJNS2_12basic_stringIcNS2_11char_traitsIcEENS2_9allocatorIcEEEEN4base11StrongAliasIN10extensions21ActivationSequenceTagEiEE4GURLliEEEvEE = comdat any

$_ZTVN3IPC8MessageTI49ExtensionHostMsg_DidStopServiceWorkerContext_MetaNSt3__15tupleIJNS2_12basic_stringIcNS2_11char_traitsIcEENS2_9allocatorIcEEEEN4base11StrongAliasIN10extensions21ActivationSequenceTagEiEE4GURLliEEEvEE = comdat any

$_ZTVN3IPC8MessageTI39ExtensionHostMsg_WorkerResponseAck_MetaNSt3__15tupleIJilEEEvEE = comdat any

$_ZTVN3IPC8MessageTI42ExtensionMsg_AccessibilityEventBundle_MetaNSt3__15tupleIJ43ExtensionMsg_AccessibilityEventBundleParamsbEEEvEE = comdat any

$_ZTVN3IPC8MessageTI45ExtensionMsg_AccessibilityLocationChange_MetaNSt3__15tupleIJ46ExtensionMsg_AccessibilityLocationChangeParamsEEEvEE = comdat any

$_ZTVN3IPC8MessageTI59ExtensionsGuestViewHostMsg_CanExecuteContentScriptSync_MetaNSt3__15tupleIJiNS2_12basic_stringIcNS2_11char_traitsIcEENS2_9allocatorIcEEEEEEENS3_IJbEEEEE = comdat any

$_ZTVN3IPC17ParamDeserializerIJNSt3__13mapINS1_12basic_stringIcNS1_11char_traitsIcEENS1_9allocatorIcEEEES8_NS1_4lessIS8_EENS6_INS1_4pairIKS8_S8_EEEEEEEEE = comdat any

$_ZTVN3IPC17ParamDeserializerIJbEEE = comdat any

@_ZN31ExtensionMsg_DispatchEvent_Meta5kNameE = hidden constant [27 x i8] c"ExtensionMsg_DispatchEvent\00", align 16
@_ZN31ExtensionMsg_DispatchEvent_Meta5kKindE = hidden local_unnamed_addr constant i32 0, align 4
@_ZTVN3IPC8MessageTI31ExtensionMsg_DispatchEvent_MetaNSt3__15tupleIJ33ExtensionMsg_DispatchEvent_ParamsN4base9ListValueEEEEvEE = weak_odr hidden unnamed_addr constant { [7 x i8*] } { [7 x i8*] [i8* null, i8* null, i8* bitcast (void (%"class.IPC::Message"*)* @_ZN3IPC7MessageD2Ev to i8*), i8* bitcast (void (%"class.IPC::MessageT"*)* @_ZN3IPC8MessageTI31ExtensionMsg_DispatchEvent_MetaNSt3__15tupleIJ33ExtensionMsg_DispatchEvent_ParamsN4base9ListValueEEEEvED0Ev to i8*), i8* bitcast (void ()* @_ZN3IPC7Message15WriteAttachmentE13scoped_refptrIN4base6Pickle10AttachmentEE to i8*), i8* bitcast (i1 (%"class.IPC::Message"*, %"class.base::PickleIterator"*, %class.scoped_refptr.508*)* @_ZNK3IPC7Message14ReadAttachmentEPN4base14PickleIteratorEP13scoped_refptrINS1_6Pickle10AttachmentEE to i8*), i8* bitcast (i1 (%"class.IPC::Message"*)* @_ZNK3IPC7Message14HasAttachmentsEv to i8*)] }, comdat, align 8
@_ZN39ExtensionMsg_UpdateBrowserWindowId_Meta5kNameE = hidden constant [35 x i8] c"ExtensionMsg_UpdateBrowserWindowId\00", align 16
@_ZN39ExtensionMsg_UpdateBrowserWindowId_Meta5kKindE = hidden local_unnamed_addr constant i32 1, align 4
@_ZTVN3IPC8MessageTI39ExtensionMsg_UpdateBrowserWindowId_MetaNSt3__15tupleIJiEEEvEE = weak_odr hidden unnamed_addr constant { [7 x i8*] } { [7 x i8*] [i8* null, i8* null, i8* bitcast (void (%"class.IPC::Message"*)* @_ZN3IPC7MessageD2Ev to i8*), i8* bitcast (void (%"class.IPC::MessageT.55"*)* @_ZN3IPC8MessageTI39ExtensionMsg_UpdateBrowserWindowId_MetaNSt3__15tupleIJiEEEvED0Ev to i8*), i8* bitcast (void ()* @_ZN3IPC7Message15WriteAttachmentE13scoped_refptrIN4base6Pickle10AttachmentEE to i8*), i8* bitcast (i1 (%"class.IPC::Message"*, %"class.base::PickleIterator"*, %class.scoped_refptr.508*)* @_ZNK3IPC7Message14ReadAttachmentEPN4base14PickleIteratorEP13scoped_refptrINS1_6Pickle10AttachmentEE to i8*), i8* bitcast (i1 (%"class.IPC::Message"*)* @_ZNK3IPC7Message14HasAttachmentsEv to i8*)] }, comdat, align 8
@_ZN39ExtensionMsg_WakeEventPageResponse_Meta5kNameE = hidden constant [35 x i8] c"ExtensionMsg_WakeEventPageResponse\00", align 16
@_ZN39ExtensionMsg_WakeEventPageResponse_Meta5kKindE = hidden local_unnamed_addr constant i32 0, align 4
@_ZTVN3IPC8MessageTI39ExtensionMsg_WakeEventPageResponse_MetaNSt3__15tupleIJibEEEvEE = weak_odr hidden unnamed_addr constant { [7 x i8*] } { [7 x i8*] [i8* null, i8* null, i8* bitcast (void (%"class.IPC::Message"*)* @_ZN3IPC7MessageD2Ev to i8*), i8* bitcast (void (%"class.IPC::MessageT.62"*)* @_ZN3IPC8MessageTI39ExtensionMsg_WakeEventPageResponse_MetaNSt3__15tupleIJibEEEvED0Ev to i8*), i8* bitcast (void ()* @_ZN3IPC7Message15WriteAttachmentE13scoped_refptrIN4base6Pickle10AttachmentEE to i8*), i8* bitcast (i1 (%"class.IPC::Message"*, %"class.base::PickleIterator"*, %class.scoped_refptr.508*)* @_ZNK3IPC7Message14ReadAttachmentEPN4base14PickleIteratorEP13scoped_refptrINS1_6Pickle10AttachmentEE to i8*), i8* bitcast (i1 (%"class.IPC::Message"*)* @_ZNK3IPC7Message14HasAttachmentsEv to i8*)] }, comdat, align 8
@_ZN37ExtensionMsg_ValidateMessagePort_Meta5kNameE = hidden constant [33 x i8] c"ExtensionMsg_ValidateMessagePort\00", align 16
@_ZN37ExtensionMsg_ValidateMessagePort_Meta5kKindE = hidden local_unnamed_addr constant i32 1, align 4
@_ZTVN3IPC8MessageTI37ExtensionMsg_ValidateMessagePort_MetaNSt3__15tupleIJiN10extensions6PortIdEEEEvEE = weak_odr hidden unnamed_addr constant { [7 x i8*] } { [7 x i8*] [i8* null, i8* null, i8* bitcast (void (%"class.IPC::Message"*)* @_ZN3IPC7MessageD2Ev to i8*), i8* bitcast (void (%"class.IPC::MessageT.69"*)* @_ZN3IPC8MessageTI37ExtensionMsg_ValidateMessagePort_MetaNSt3__15tupleIJiN10extensions6PortIdEEEEvED0Ev to i8*), i8* bitcast (void ()* @_ZN3IPC7Message15WriteAttachmentE13scoped_refptrIN4base6Pickle10AttachmentEE to i8*), i8* bitcast (i1 (%"class.IPC::Message"*, %"class.base::PickleIterator"*, %class.scoped_refptr.508*)* @_ZNK3IPC7Message14ReadAttachmentEPN4base14PickleIteratorEP13scoped_refptrINS1_6Pickle10AttachmentEE to i8*), i8* bitcast (i1 (%"class.IPC::Message"*)* @_ZNK3IPC7Message14HasAttachmentsEv to i8*)] }, comdat, align 8
@_ZN35ExtensionMsg_DispatchOnConnect_Meta5kNameE = hidden constant [31 x i8] c"ExtensionMsg_DispatchOnConnect\00", align 16
@_ZN35ExtensionMsg_DispatchOnConnect_Meta5kKindE = hidden local_unnamed_addr constant i32 1, align 4
@_ZTVN3IPC8MessageTI35ExtensionMsg_DispatchOnConnect_MetaNSt3__15tupleIJiN10extensions6PortIdENS2_12basic_stringIcNS2_11char_traitsIcEENS2_9allocatorIcEEEE30ExtensionMsg_TabConnectionInfo35ExtensionMsg_ExternalConnectionInfoEEEvEE = weak_odr hidden unnamed_addr constant { [7 x i8*] } { [7 x i8*] [i8* null, i8* null, i8* bitcast (void (%"class.IPC::Message"*)* @_ZN3IPC7MessageD2Ev to i8*), i8* bitcast (void (%"class.IPC::MessageT.88"*)* @_ZN3IPC8MessageTI35ExtensionMsg_DispatchOnConnect_MetaNSt3__15tupleIJiN10extensions6PortIdENS2_12basic_stringIcNS2_11char_traitsIcEENS2_9allocatorIcEEEE30ExtensionMsg_TabConnectionInfo35ExtensionMsg_ExternalConnectionInfoEEEvED0Ev to i8*), i8* bitcast (void ()* @_ZN3IPC7Message15WriteAttachmentE13scoped_refptrIN4base6Pickle10AttachmentEE to i8*), i8* bitcast (i1 (%"class.IPC::Message"*, %"class.base::PickleIterator"*, %class.scoped_refptr.508*)* @_ZNK3IPC7Message14ReadAttachmentEPN4base14PickleIteratorEP13scoped_refptrINS1_6Pickle10AttachmentEE to i8*), i8* bitcast (i1 (%"class.IPC::Message"*)* @_ZNK3IPC7Message14HasAttachmentsEv to i8*)] }, comdat, align 8
@_ZN32ExtensionMsg_DeliverMessage_Meta5kNameE = hidden constant [28 x i8] c"ExtensionMsg_DeliverMessage\00", align 16
@_ZN32ExtensionMsg_DeliverMessage_Meta5kKindE = hidden local_unnamed_addr constant i32 1, align 4
@_ZTVN3IPC8MessageTI32ExtensionMsg_DeliverMessage_MetaNSt3__15tupleIJiN10extensions6PortIdENS4_7MessageEEEEvEE = weak_odr hidden unnamed_addr constant { [7 x i8*] } { [7 x i8*] [i8* null, i8* null, i8* bitcast (void (%"class.IPC::Message"*)* @_ZN3IPC7MessageD2Ev to i8*), i8* bitcast (void (%"class.IPC::MessageT.97"*)* @_ZN3IPC8MessageTI32ExtensionMsg_DeliverMessage_MetaNSt3__15tupleIJiN10extensions6PortIdENS4_7MessageEEEEvED0Ev to i8*), i8* bitcast (void ()* @_ZN3IPC7Message15WriteAttachmentE13scoped_refptrIN4base6Pickle10AttachmentEE to i8*), i8* bitcast (i1 (%"class.IPC::Message"*, %"class.base::PickleIterator"*, %class.scoped_refptr.508*)* @_ZNK3IPC7Message14ReadAttachmentEPN4base14PickleIteratorEP13scoped_refptrINS1_6Pickle10AttachmentEE to i8*), i8* bitcast (i1 (%"class.IPC::Message"*)* @_ZNK3IPC7Message14HasAttachmentsEv to i8*)] }, comdat, align 8
@_ZN38ExtensionMsg_DispatchOnDisconnect_Meta5kNameE = hidden constant [34 x i8] c"ExtensionMsg_DispatchOnDisconnect\00", align 16
@_ZN38ExtensionMsg_DispatchOnDisconnect_Meta5kKindE = hidden local_unnamed_addr constant i32 1, align 4
@_ZTVN3IPC8MessageTI38ExtensionMsg_DispatchOnDisconnect_MetaNSt3__15tupleIJiN10extensions6PortIdENS2_12basic_stringIcNS2_11char_traitsIcEENS2_9allocatorIcEEEEEEEvEE = weak_odr hidden unnamed_addr constant { [7 x i8*] } { [7 x i8*] [i8* null, i8* null, i8* bitcast (void (%"class.IPC::Message"*)* @_ZN3IPC7MessageD2Ev to i8*), i8* bitcast (void (%"class.IPC::MessageT.103"*)* @_ZN3IPC8MessageTI38ExtensionMsg_DispatchOnDisconnect_MetaNSt3__15tupleIJiN10extensions6PortIdENS2_12basic_stringIcNS2_11char_traitsIcEENS2_9allocatorIcEEEEEEEvED0Ev to i8*), i8* bitcast (void ()* @_ZN3IPC7Message15WriteAttachmentE13scoped_refptrIN4base6Pickle10AttachmentEE to i8*), i8* bitcast (i1 (%"class.IPC::Message"*, %"class.base::PickleIterator"*, %class.scoped_refptr.508*)* @_ZNK3IPC7Message14ReadAttachmentEPN4base14PickleIteratorEP13scoped_refptrINS1_6Pickle10AttachmentEE to i8*), i8* bitcast (i1 (%"class.IPC::Message"*)* @_ZNK3IPC7Message14HasAttachmentsEv to i8*)] }, comdat, align 8
@_ZN41ExtensionHostMsg_AddFilteredListener_Meta5kNameE = hidden constant [37 x i8] c"ExtensionHostMsg_AddFilteredListener\00", align 16
@_ZN41ExtensionHostMsg_AddFilteredListener_Meta5kKindE = hidden local_unnamed_addr constant i32 0, align 4
@_ZTVN3IPC8MessageTI41ExtensionHostMsg_AddFilteredListener_MetaNSt3__15tupleIJNS2_12basic_stringIcNS2_11char_traitsIcEENS2_9allocatorIcEEEES9_N4absl8optionalI23ServiceWorkerIdentifierEEN4base15DictionaryValueEbEEEvEE = weak_odr hidden unnamed_addr constant { [7 x i8*] } { [7 x i8*] [i8* null, i8* null, i8* bitcast (void (%"class.IPC::Message"*)* @_ZN3IPC7MessageD2Ev to i8*), i8* bitcast (void (%"class.IPC::MessageT.119"*)* @_ZN3IPC8MessageTI41ExtensionHostMsg_AddFilteredListener_MetaNSt3__15tupleIJNS2_12basic_stringIcNS2_11char_traitsIcEENS2_9allocatorIcEEEES9_N4absl8optionalI23ServiceWorkerIdentifierEEN4base15DictionaryValueEbEEEvED0Ev to i8*), i8* bitcast (void ()* @_ZN3IPC7Message15WriteAttachmentE13scoped_refptrIN4base6Pickle10AttachmentEE to i8*), i8* bitcast (i1 (%"class.IPC::Message"*, %"class.base::PickleIterator"*, %class.scoped_refptr.508*)* @_ZNK3IPC7Message14ReadAttachmentEPN4base14PickleIteratorEP13scoped_refptrINS1_6Pickle10AttachmentEE to i8*), i8* bitcast (i1 (%"class.IPC::Message"*)* @_ZNK3IPC7Message14HasAttachmentsEv to i8*)] }, comdat, align 8
@_ZN44ExtensionHostMsg_RemoveFilteredListener_Meta5kNameE = hidden constant [40 x i8] c"ExtensionHostMsg_RemoveFilteredListener\00", align 16
@_ZN44ExtensionHostMsg_RemoveFilteredListener_Meta5kKindE = hidden local_unnamed_addr constant i32 0, align 4
@_ZTVN3IPC8MessageTI44ExtensionHostMsg_RemoveFilteredListener_MetaNSt3__15tupleIJNS2_12basic_stringIcNS2_11char_traitsIcEENS2_9allocatorIcEEEES9_N4absl8optionalI23ServiceWorkerIdentifierEEN4base15DictionaryValueEbEEEvEE = weak_odr hidden unnamed_addr constant { [7 x i8*] } { [7 x i8*] [i8* null, i8* null, i8* bitcast (void (%"class.IPC::Message"*)* @_ZN3IPC7MessageD2Ev to i8*), i8* bitcast (void (%"class.IPC::MessageT.127"*)* @_ZN3IPC8MessageTI44ExtensionHostMsg_RemoveFilteredListener_MetaNSt3__15tupleIJNS2_12basic_stringIcNS2_11char_traitsIcEENS2_9allocatorIcEEEES9_N4absl8optionalI23ServiceWorkerIdentifierEEN4base15DictionaryValueEbEEEvED0Ev to i8*), i8* bitcast (void ()* @_ZN3IPC7Message15WriteAttachmentE13scoped_refptrIN4base6Pickle10AttachmentEE to i8*), i8* bitcast (i1 (%"class.IPC::Message"*, %"class.base::PickleIterator"*, %class.scoped_refptr.508*)* @_ZNK3IPC7Message14ReadAttachmentEPN4base14PickleIteratorEP13scoped_refptrINS1_6Pickle10AttachmentEE to i8*), i8* bitcast (i1 (%"class.IPC::Message"*)* @_ZNK3IPC7Message14HasAttachmentsEv to i8*)] }, comdat, align 8
@_ZN30ExtensionHostMsg_EventAck_Meta5kNameE = hidden constant [26 x i8] c"ExtensionHostMsg_EventAck\00", align 16
@_ZN30ExtensionHostMsg_EventAck_Meta5kKindE = hidden local_unnamed_addr constant i32 1, align 4
@_ZTVN3IPC8MessageTI30ExtensionHostMsg_EventAck_MetaNSt3__15tupleIJiEEEvEE = weak_odr hidden unnamed_addr constant { [7 x i8*] } { [7 x i8*] [i8* null, i8* null, i8* bitcast (void (%"class.IPC::Message"*)* @_ZN3IPC7MessageD2Ev to i8*), i8* bitcast (void (%"class.IPC::MessageT.128"*)* @_ZN3IPC8MessageTI30ExtensionHostMsg_EventAck_MetaNSt3__15tupleIJiEEEvED0Ev to i8*), i8* bitcast (void ()* @_ZN3IPC7Message15WriteAttachmentE13scoped_refptrIN4base6Pickle10AttachmentEE to i8*), i8* bitcast (i1 (%"class.IPC::Message"*, %"class.base::PickleIterator"*, %class.scoped_refptr.508*)* @_ZNK3IPC7Message14ReadAttachmentEPN4base14PickleIteratorEP13scoped_refptrINS1_6Pickle10AttachmentEE to i8*), i8* bitcast (i1 (%"class.IPC::Message"*)* @_ZNK3IPC7Message14HasAttachmentsEv to i8*)] }, comdat, align 8
@_ZN44ExtensionHostMsg_OpenChannelToExtension_Meta5kNameE = hidden constant [40 x i8] c"ExtensionHostMsg_OpenChannelToExtension\00", align 16
@_ZN44ExtensionHostMsg_OpenChannelToExtension_Meta5kKindE = hidden local_unnamed_addr constant i32 0, align 4
@_ZTVN3IPC8MessageTI44ExtensionHostMsg_OpenChannelToExtension_MetaNSt3__15tupleIJN10extensions11PortContextE35ExtensionMsg_ExternalConnectionInfoNS2_12basic_stringIcNS2_11char_traitsIcEENS2_9allocatorIcEEEENS4_6PortIdEEEEvEE = weak_odr hidden unnamed_addr constant { [7 x i8*] } { [7 x i8*] [i8* null, i8* null, i8* bitcast (void (%"class.IPC::Message"*)* @_ZN3IPC7MessageD2Ev to i8*), i8* bitcast (void (%"class.IPC::MessageT.144"*)* @_ZN3IPC8MessageTI44ExtensionHostMsg_OpenChannelToExtension_MetaNSt3__15tupleIJN10extensions11PortContextE35ExtensionMsg_ExternalConnectionInfoNS2_12basic_stringIcNS2_11char_traitsIcEENS2_9allocatorIcEEEENS4_6PortIdEEEEvED0Ev to i8*), i8* bitcast (void ()* @_ZN3IPC7Message15WriteAttachmentE13scoped_refptrIN4base6Pickle10AttachmentEE to i8*), i8* bitcast (i1 (%"class.IPC::Message"*, %"class.base::PickleIterator"*, %class.scoped_refptr.508*)* @_ZNK3IPC7Message14ReadAttachmentEPN4base14PickleIteratorEP13scoped_refptrINS1_6Pickle10AttachmentEE to i8*), i8* bitcast (i1 (%"class.IPC::Message"*)* @_ZNK3IPC7Message14HasAttachmentsEv to i8*)] }, comdat, align 8
@_ZN44ExtensionHostMsg_OpenChannelToNativeApp_Meta5kNameE = hidden constant [40 x i8] c"ExtensionHostMsg_OpenChannelToNativeApp\00", align 16
@_ZN44ExtensionHostMsg_OpenChannelToNativeApp_Meta5kKindE = hidden local_unnamed_addr constant i32 0, align 4
@_ZTVN3IPC8MessageTI44ExtensionHostMsg_OpenChannelToNativeApp_MetaNSt3__15tupleIJN10extensions11PortContextENS2_12basic_stringIcNS2_11char_traitsIcEENS2_9allocatorIcEEEENS4_6PortIdEEEEvEE = weak_odr hidden unnamed_addr constant { [7 x i8*] } { [7 x i8*] [i8* null, i8* null, i8* bitcast (void (%"class.IPC::Message"*)* @_ZN3IPC7MessageD2Ev to i8*), i8* bitcast (void (%"class.IPC::MessageT.153"*)* @_ZN3IPC8MessageTI44ExtensionHostMsg_OpenChannelToNativeApp_MetaNSt3__15tupleIJN10extensions11PortContextENS2_12basic_stringIcNS2_11char_traitsIcEENS2_9allocatorIcEEEENS4_6PortIdEEEEvED0Ev to i8*), i8* bitcast (void ()* @_ZN3IPC7Message15WriteAttachmentE13scoped_refptrIN4base6Pickle10AttachmentEE to i8*), i8* bitcast (i1 (%"class.IPC::Message"*, %"class.base::PickleIterator"*, %class.scoped_refptr.508*)* @_ZNK3IPC7Message14ReadAttachmentEPN4base14PickleIteratorEP13scoped_refptrINS1_6Pickle10AttachmentEE to i8*), i8* bitcast (i1 (%"class.IPC::Message"*)* @_ZNK3IPC7Message14HasAttachmentsEv to i8*)] }, comdat, align 8
@_ZN38ExtensionHostMsg_OpenChannelToTab_Meta5kNameE = hidden constant [34 x i8] c"ExtensionHostMsg_OpenChannelToTab\00", align 16
@_ZN38ExtensionHostMsg_OpenChannelToTab_Meta5kKindE = hidden local_unnamed_addr constant i32 0, align 4
@_ZTVN3IPC8MessageTI38ExtensionHostMsg_OpenChannelToTab_MetaNSt3__15tupleIJN10extensions11PortContextE36ExtensionMsg_TabTargetConnectionInfoNS2_12basic_stringIcNS2_11char_traitsIcEENS2_9allocatorIcEEEESC_NS4_6PortIdEEEEvEE = weak_odr hidden unnamed_addr constant { [7 x i8*] } { [7 x i8*] [i8* null, i8* null, i8* bitcast (void (%"class.IPC::Message"*)* @_ZN3IPC7MessageD2Ev to i8*), i8* bitcast (void (%"class.IPC::MessageT.162"*)* @_ZN3IPC8MessageTI38ExtensionHostMsg_OpenChannelToTab_MetaNSt3__15tupleIJN10extensions11PortContextE36ExtensionMsg_TabTargetConnectionInfoNS2_12basic_stringIcNS2_11char_traitsIcEENS2_9allocatorIcEEEESC_NS4_6PortIdEEEEvED0Ev to i8*), i8* bitcast (void ()* @_ZN3IPC7Message15WriteAttachmentE13scoped_refptrIN4base6Pickle10AttachmentEE to i8*), i8* bitcast (i1 (%"class.IPC::Message"*, %"class.base::PickleIterator"*, %class.scoped_refptr.508*)* @_ZNK3IPC7Message14ReadAttachmentEPN4base14PickleIteratorEP13scoped_refptrINS1_6Pickle10AttachmentEE to i8*), i8* bitcast (i1 (%"class.IPC::Message"*)* @_ZNK3IPC7Message14HasAttachmentsEv to i8*)] }, comdat, align 8
@_ZN37ExtensionHostMsg_OpenMessagePort_Meta5kNameE = hidden constant [33 x i8] c"ExtensionHostMsg_OpenMessagePort\00", align 16
@_ZN37ExtensionHostMsg_OpenMessagePort_Meta5kKindE = hidden local_unnamed_addr constant i32 0, align 4
@_ZTVN3IPC8MessageTI37ExtensionHostMsg_OpenMessagePort_MetaNSt3__15tupleIJN10extensions11PortContextENS4_6PortIdEEEEvEE = weak_odr hidden unnamed_addr constant { [7 x i8*] } { [7 x i8*] [i8* null, i8* null, i8* bitcast (void (%"class.IPC::Message"*)* @_ZN3IPC7MessageD2Ev to i8*), i8* bitcast (void (%"class.IPC::MessageT.170"*)* @_ZN3IPC8MessageTI37ExtensionHostMsg_OpenMessagePort_MetaNSt3__15tupleIJN10extensions11PortContextENS4_6PortIdEEEEvED0Ev to i8*), i8* bitcast (void ()* @_ZN3IPC7Message15WriteAttachmentE13scoped_refptrIN4base6Pickle10AttachmentEE to i8*), i8* bitcast (i1 (%"class.IPC::Message"*, %"class.base::PickleIterator"*, %class.scoped_refptr.508*)* @_ZNK3IPC7Message14ReadAttachmentEPN4base14PickleIteratorEP13scoped_refptrINS1_6Pickle10AttachmentEE to i8*), i8* bitcast (i1 (%"class.IPC::Message"*)* @_ZNK3IPC7Message14HasAttachmentsEv to i8*)] }, comdat, align 8
@_ZN38ExtensionHostMsg_CloseMessagePort_Meta5kNameE = hidden constant [34 x i8] c"ExtensionHostMsg_CloseMessagePort\00", align 16
@_ZN38ExtensionHostMsg_CloseMessagePort_Meta5kKindE = hidden local_unnamed_addr constant i32 0, align 4
@_ZTVN3IPC8MessageTI38ExtensionHostMsg_CloseMessagePort_MetaNSt3__15tupleIJN10extensions11PortContextENS4_6PortIdEbEEEvEE = weak_odr hidden unnamed_addr constant { [7 x i8*] } { [7 x i8*] [i8* null, i8* null, i8* bitcast (void (%"class.IPC::Message"*)* @_ZN3IPC7MessageD2Ev to i8*), i8* bitcast (void (%"class.IPC::MessageT.177"*)* @_ZN3IPC8MessageTI38ExtensionHostMsg_CloseMessagePort_MetaNSt3__15tupleIJN10extensions11PortContextENS4_6PortIdEbEEEvED0Ev to i8*), i8* bitcast (void ()* @_ZN3IPC7Message15WriteAttachmentE13scoped_refptrIN4base6Pickle10AttachmentEE to i8*), i8* bitcast (i1 (%"class.IPC::Message"*, %"class.base::PickleIterator"*, %class.scoped_refptr.508*)* @_ZNK3IPC7Message14ReadAttachmentEPN4base14PickleIteratorEP13scoped_refptrINS1_6Pickle10AttachmentEE to i8*), i8* bitcast (i1 (%"class.IPC::Message"*)* @_ZNK3IPC7Message14HasAttachmentsEv to i8*)] }, comdat, align 8
@_ZN33ExtensionHostMsg_PostMessage_Meta5kNameE = hidden constant [29 x i8] c"ExtensionHostMsg_PostMessage\00", align 16
@_ZN33ExtensionHostMsg_PostMessage_Meta5kKindE = hidden local_unnamed_addr constant i32 0, align 4
@_ZTVN3IPC8MessageTI33ExtensionHostMsg_PostMessage_MetaNSt3__15tupleIJN10extensions6PortIdENS4_7MessageEEEEvEE = weak_odr hidden unnamed_addr constant { [7 x i8*] } { [7 x i8*] [i8* null, i8* null, i8* bitcast (void (%"class.IPC::Message"*)* @_ZN3IPC7MessageD2Ev to i8*), i8* bitcast (void (%"class.IPC::MessageT.185"*)* @_ZN3IPC8MessageTI33ExtensionHostMsg_PostMessage_MetaNSt3__15tupleIJN10extensions6PortIdENS4_7MessageEEEEvED0Ev to i8*), i8* bitcast (void ()* @_ZN3IPC7Message15WriteAttachmentE13scoped_refptrIN4base6Pickle10AttachmentEE to i8*), i8* bitcast (i1 (%"class.IPC::Message"*, %"class.base::PickleIterator"*, %class.scoped_refptr.508*)* @_ZNK3IPC7Message14ReadAttachmentEPN4base14PickleIteratorEP13scoped_refptrINS1_6Pickle10AttachmentEE to i8*), i8* bitcast (i1 (%"class.IPC::Message"*)* @_ZNK3IPC7Message14HasAttachmentsEv to i8*)] }, comdat, align 8
@_ZN38ExtensionHostMsg_GetMessageBundle_Meta5kNameE = hidden constant [34 x i8] c"ExtensionHostMsg_GetMessageBundle\00", align 16
@_ZN38ExtensionHostMsg_GetMessageBundle_Meta5kKindE = hidden local_unnamed_addr constant i32 0, align 4
@_ZTVN3IPC8MessageTI38ExtensionHostMsg_GetMessageBundle_MetaNSt3__15tupleIJNS2_12basic_stringIcNS2_11char_traitsIcEENS2_9allocatorIcEEEEEEENS3_IJNS2_3mapIS9_S9_NS2_4lessIS9_EENS7_INS2_4pairIKS9_S9_EEEEEEEEEEE = weak_odr hidden unnamed_addr constant { [7 x i8*] } { [7 x i8*] [i8* null, i8* null, i8* bitcast (void (%"class.IPC::SyncMessage"*)* @_ZN3IPC11SyncMessageD2Ev to i8*), i8* bitcast (void (%"class.IPC::MessageT.206"*)* @_ZN3IPC8MessageTI38ExtensionHostMsg_GetMessageBundle_MetaNSt3__15tupleIJNS2_12basic_stringIcNS2_11char_traitsIcEENS2_9allocatorIcEEEEEEENS3_IJNS2_3mapIS9_S9_NS2_4lessIS9_EENS7_INS2_4pairIKS9_S9_EEEEEEEEEED0Ev to i8*), i8* bitcast (void ()* @_ZN3IPC7Message15WriteAttachmentE13scoped_refptrIN4base6Pickle10AttachmentEE to i8*), i8* bitcast (i1 (%"class.IPC::Message"*, %"class.base::PickleIterator"*, %class.scoped_refptr.508*)* @_ZNK3IPC7Message14ReadAttachmentEPN4base14PickleIteratorEP13scoped_refptrINS1_6Pickle10AttachmentEE to i8*), i8* bitcast (i1 (%"class.IPC::Message"*)* @_ZNK3IPC7Message14HasAttachmentsEv to i8*)] }, comdat, align 8
@_ZN45ExtensionHostMsg_ContentScriptsExecuting_Meta5kNameE = hidden constant [41 x i8] c"ExtensionHostMsg_ContentScriptsExecuting\00", align 16
@_ZN45ExtensionHostMsg_ContentScriptsExecuting_Meta5kKindE = hidden local_unnamed_addr constant i32 1, align 4
@_ZTVN3IPC8MessageTI45ExtensionHostMsg_ContentScriptsExecuting_MetaNSt3__15tupleIJNS2_3mapINS2_12basic_stringIcNS2_11char_traitsIcEENS2_9allocatorIcEEEENS2_3setISA_NS2_4lessISA_EENS8_ISA_EEEESD_NS8_INS2_4pairIKSA_SF_EEEEEE4GURLEEEvEE = weak_odr hidden unnamed_addr constant { [7 x i8*] } { [7 x i8*] [i8* null, i8* null, i8* bitcast (void (%"class.IPC::Message"*)* @_ZN3IPC7MessageD2Ev to i8*), i8* bitcast (void (%"class.IPC::MessageT.231"*)* @_ZN3IPC8MessageTI45ExtensionHostMsg_ContentScriptsExecuting_MetaNSt3__15tupleIJNS2_3mapINS2_12basic_stringIcNS2_11char_traitsIcEENS2_9allocatorIcEEEENS2_3setISA_NS2_4lessISA_EENS8_ISA_EEEESD_NS8_INS2_4pairIKSA_SF_EEEEEE4GURLEEEvED0Ev to i8*), i8* bitcast (void ()* @_ZN3IPC7Message15WriteAttachmentE13scoped_refptrIN4base6Pickle10AttachmentEE to i8*), i8* bitcast (i1 (%"class.IPC::Message"*, %"class.base::PickleIterator"*, %class.scoped_refptr.508*)* @_ZNK3IPC7Message14ReadAttachmentEPN4base14PickleIteratorEP13scoped_refptrINS1_6Pickle10AttachmentEE to i8*), i8* bitcast (i1 (%"class.IPC::Message"*)* @_ZNK3IPC7Message14HasAttachmentsEv to i8*)] }, comdat, align 8
@_ZN33ExtensionHostMsg_ResponseAck_Meta5kNameE = hidden constant [29 x i8] c"ExtensionHostMsg_ResponseAck\00", align 16
@_ZN33ExtensionHostMsg_ResponseAck_Meta5kKindE = hidden local_unnamed_addr constant i32 1, align 4
@_ZTVN3IPC8MessageTI33ExtensionHostMsg_ResponseAck_MetaNSt3__15tupleIJiEEEvEE = weak_odr hidden unnamed_addr constant { [7 x i8*] } { [7 x i8*] [i8* null, i8* null, i8* bitcast (void (%"class.IPC::Message"*)* @_ZN3IPC7MessageD2Ev to i8*), i8* bitcast (void (%"class.IPC::MessageT.236"*)* @_ZN3IPC8MessageTI33ExtensionHostMsg_ResponseAck_MetaNSt3__15tupleIJiEEEvED0Ev to i8*), i8* bitcast (void ()* @_ZN3IPC7Message15WriteAttachmentE13scoped_refptrIN4base6Pickle10AttachmentEE to i8*), i8* bitcast (i1 (%"class.IPC::Message"*, %"class.base::PickleIterator"*, %class.scoped_refptr.508*)* @_ZNK3IPC7Message14ReadAttachmentEPN4base14PickleIteratorEP13scoped_refptrINS1_6Pickle10AttachmentEE to i8*), i8* bitcast (i1 (%"class.IPC::Message"*)* @_ZNK3IPC7Message14HasAttachmentsEv to i8*)] }, comdat, align 8
@_ZN49ExtensionHostMsg_IncrementLazyKeepaliveCount_Meta5kNameE = hidden constant [45 x i8] c"ExtensionHostMsg_IncrementLazyKeepaliveCount\00", align 16
@_ZN49ExtensionHostMsg_IncrementLazyKeepaliveCount_Meta5kKindE = hidden local_unnamed_addr constant i32 1, align 4
@_ZTVN3IPC8MessageTI49ExtensionHostMsg_IncrementLazyKeepaliveCount_MetaNSt3__15tupleIJEEEvEE = weak_odr hidden unnamed_addr constant { [7 x i8*] } { [7 x i8*] [i8* null, i8* null, i8* bitcast (void (%"class.IPC::Message"*)* @_ZN3IPC7MessageD2Ev to i8*), i8* bitcast (void (%"class.IPC::MessageT.238"*)* @_ZN3IPC8MessageTI49ExtensionHostMsg_IncrementLazyKeepaliveCount_MetaNSt3__15tupleIJEEEvED0Ev to i8*), i8* bitcast (void ()* @_ZN3IPC7Message15WriteAttachmentE13scoped_refptrIN4base6Pickle10AttachmentEE to i8*), i8* bitcast (i1 (%"class.IPC::Message"*, %"class.base::PickleIterator"*, %class.scoped_refptr.508*)* @_ZNK3IPC7Message14ReadAttachmentEPN4base14PickleIteratorEP13scoped_refptrINS1_6Pickle10AttachmentEE to i8*), i8* bitcast (i1 (%"class.IPC::Message"*)* @_ZNK3IPC7Message14HasAttachmentsEv to i8*)] }, comdat, align 8
@_ZN49ExtensionHostMsg_DecrementLazyKeepaliveCount_Meta5kNameE = hidden constant [45 x i8] c"ExtensionHostMsg_DecrementLazyKeepaliveCount\00", align 16
@_ZN49ExtensionHostMsg_DecrementLazyKeepaliveCount_Meta5kKindE = hidden local_unnamed_addr constant i32 1, align 4
@_ZTVN3IPC8MessageTI49ExtensionHostMsg_DecrementLazyKeepaliveCount_MetaNSt3__15tupleIJEEEvEE = weak_odr hidden unnamed_addr constant { [7 x i8*] } { [7 x i8*] [i8* null, i8* null, i8* bitcast (void (%"class.IPC::Message"*)* @_ZN3IPC7MessageD2Ev to i8*), i8* bitcast (void (%"class.IPC::MessageT.239"*)* @_ZN3IPC8MessageTI49ExtensionHostMsg_DecrementLazyKeepaliveCount_MetaNSt3__15tupleIJEEEvED0Ev to i8*), i8* bitcast (void ()* @_ZN3IPC7Message15WriteAttachmentE13scoped_refptrIN4base6Pickle10AttachmentEE to i8*), i8* bitcast (i1 (%"class.IPC::Message"*, %"class.base::PickleIterator"*, %class.scoped_refptr.508*)* @_ZNK3IPC7Message14ReadAttachmentEPN4base14PickleIteratorEP13scoped_refptrINS1_6Pickle10AttachmentEE to i8*), i8* bitcast (i1 (%"class.IPC::Message"*)* @_ZNK3IPC7Message14HasAttachmentsEv to i8*)] }, comdat, align 8
@_ZN36ExtensionHostMsg_AppWindowReady_Meta5kNameE = hidden constant [32 x i8] c"ExtensionHostMsg_AppWindowReady\00", align 16
@_ZN36ExtensionHostMsg_AppWindowReady_Meta5kKindE = hidden local_unnamed_addr constant i32 1, align 4
@_ZTVN3IPC8MessageTI36ExtensionHostMsg_AppWindowReady_MetaNSt3__15tupleIJEEEvEE = weak_odr hidden unnamed_addr constant { [7 x i8*] } { [7 x i8*] [i8* null, i8* null, i8* bitcast (void (%"class.IPC::Message"*)* @_ZN3IPC7MessageD2Ev to i8*), i8* bitcast (void (%"class.IPC::MessageT.240"*)* @_ZN3IPC8MessageTI36ExtensionHostMsg_AppWindowReady_MetaNSt3__15tupleIJEEEvED0Ev to i8*), i8* bitcast (void ()* @_ZN3IPC7Message15WriteAttachmentE13scoped_refptrIN4base6Pickle10AttachmentEE to i8*), i8* bitcast (i1 (%"class.IPC::Message"*, %"class.base::PickleIterator"*, %class.scoped_refptr.508*)* @_ZNK3IPC7Message14ReadAttachmentEPN4base14PickleIteratorEP13scoped_refptrINS1_6Pickle10AttachmentEE to i8*), i8* bitcast (i1 (%"class.IPC::Message"*)* @_ZNK3IPC7Message14HasAttachmentsEv to i8*)] }, comdat, align 8
@_ZN44ExtensionHostMsg_UpdateDraggableRegions_Meta5kNameE = hidden constant [40 x i8] c"ExtensionHostMsg_UpdateDraggableRegions\00", align 16
@_ZN44ExtensionHostMsg_UpdateDraggableRegions_Meta5kKindE = hidden local_unnamed_addr constant i32 1, align 4
@_ZTVN3IPC8MessageTI44ExtensionHostMsg_UpdateDraggableRegions_MetaNSt3__15tupleIJNS2_6vectorIN10extensions15DraggableRegionENS2_9allocatorIS6_EEEEEEEvEE = weak_odr hidden unnamed_addr constant { [7 x i8*] } { [7 x i8*] [i8* null, i8* null, i8* bitcast (void (%"class.IPC::Message"*)* @_ZN3IPC7MessageD2Ev to i8*), i8* bitcast (void (%"class.IPC::MessageT.251"*)* @_ZN3IPC8MessageTI44ExtensionHostMsg_UpdateDraggableRegions_MetaNSt3__15tupleIJNS2_6vectorIN10extensions15DraggableRegionENS2_9allocatorIS6_EEEEEEEvED0Ev to i8*), i8* bitcast (void ()* @_ZN3IPC7Message15WriteAttachmentE13scoped_refptrIN4base6Pickle10AttachmentEE to i8*), i8* bitcast (i1 (%"class.IPC::Message"*, %"class.base::PickleIterator"*, %class.scoped_refptr.508*)* @_ZNK3IPC7Message14ReadAttachmentEPN4base14PickleIteratorEP13scoped_refptrINS1_6Pickle10AttachmentEE to i8*), i8* bitcast (i1 (%"class.IPC::Message"*)* @_ZNK3IPC7Message14HasAttachmentsEv to i8*)] }, comdat, align 8
@_ZN47ExtensionHostMsg_AddAPIActionToActivityLog_Meta5kNameE = hidden constant [43 x i8] c"ExtensionHostMsg_AddAPIActionToActivityLog\00", align 16
@_ZN47ExtensionHostMsg_AddAPIActionToActivityLog_Meta5kKindE = hidden local_unnamed_addr constant i32 0, align 4
@_ZTVN3IPC8MessageTI47ExtensionHostMsg_AddAPIActionToActivityLog_MetaNSt3__15tupleIJNS2_12basic_stringIcNS2_11char_traitsIcEENS2_9allocatorIcEEEE40ExtensionHostMsg_APIActionOrEvent_ParamsEEEvEE = weak_odr hidden unnamed_addr constant { [7 x i8*] } { [7 x i8*] [i8* null, i8* null, i8* bitcast (void (%"class.IPC::Message"*)* @_ZN3IPC7MessageD2Ev to i8*), i8* bitcast (void (%"class.IPC::MessageT.258"*)* @_ZN3IPC8MessageTI47ExtensionHostMsg_AddAPIActionToActivityLog_MetaNSt3__15tupleIJNS2_12basic_stringIcNS2_11char_traitsIcEENS2_9allocatorIcEEEE40ExtensionHostMsg_APIActionOrEvent_ParamsEEEvED0Ev to i8*), i8* bitcast (void ()* @_ZN3IPC7Message15WriteAttachmentE13scoped_refptrIN4base6Pickle10AttachmentEE to i8*), i8* bitcast (i1 (%"class.IPC::Message"*, %"class.base::PickleIterator"*, %class.scoped_refptr.508*)* @_ZNK3IPC7Message14ReadAttachmentEPN4base14PickleIteratorEP13scoped_refptrINS1_6Pickle10AttachmentEE to i8*), i8* bitcast (i1 (%"class.IPC::Message"*)* @_ZNK3IPC7Message14HasAttachmentsEv to i8*)] }, comdat, align 8
@_ZN43ExtensionHostMsg_AddEventToActivityLog_Meta5kNameE = hidden constant [39 x i8] c"ExtensionHostMsg_AddEventToActivityLog\00", align 16
@_ZN43ExtensionHostMsg_AddEventToActivityLog_Meta5kKindE = hidden local_unnamed_addr constant i32 0, align 4
@_ZTVN3IPC8MessageTI43ExtensionHostMsg_AddEventToActivityLog_MetaNSt3__15tupleIJNS2_12basic_stringIcNS2_11char_traitsIcEENS2_9allocatorIcEEEE40ExtensionHostMsg_APIActionOrEvent_ParamsEEEvEE = weak_odr hidden unnamed_addr constant { [7 x i8*] } { [7 x i8*] [i8* null, i8* null, i8* bitcast (void (%"class.IPC::Message"*)* @_ZN3IPC7MessageD2Ev to i8*), i8* bitcast (void (%"class.IPC::MessageT.262"*)* @_ZN3IPC8MessageTI43ExtensionHostMsg_AddEventToActivityLog_MetaNSt3__15tupleIJNS2_12basic_stringIcNS2_11char_traitsIcEENS2_9allocatorIcEEEE40ExtensionHostMsg_APIActionOrEvent_ParamsEEEvED0Ev to i8*), i8* bitcast (void ()* @_ZN3IPC7Message15WriteAttachmentE13scoped_refptrIN4base6Pickle10AttachmentEE to i8*), i8* bitcast (i1 (%"class.IPC::Message"*, %"class.base::PickleIterator"*, %class.scoped_refptr.508*)* @_ZNK3IPC7Message14ReadAttachmentEPN4base14PickleIteratorEP13scoped_refptrINS1_6Pickle10AttachmentEE to i8*), i8* bitcast (i1 (%"class.IPC::Message"*)* @_ZNK3IPC7Message14HasAttachmentsEv to i8*)] }, comdat, align 8
@_ZN47ExtensionHostMsg_AddDOMActionToActivityLog_Meta5kNameE = hidden constant [43 x i8] c"ExtensionHostMsg_AddDOMActionToActivityLog\00", align 16
@_ZN47ExtensionHostMsg_AddDOMActionToActivityLog_Meta5kKindE = hidden local_unnamed_addr constant i32 0, align 4
@_ZTVN3IPC8MessageTI47ExtensionHostMsg_AddDOMActionToActivityLog_MetaNSt3__15tupleIJNS2_12basic_stringIcNS2_11char_traitsIcEENS2_9allocatorIcEEEE33ExtensionHostMsg_DOMAction_ParamsEEEvEE = weak_odr hidden unnamed_addr constant { [7 x i8*] } { [7 x i8*] [i8* null, i8* null, i8* bitcast (void (%"class.IPC::Message"*)* @_ZN3IPC7MessageD2Ev to i8*), i8* bitcast (void (%"class.IPC::MessageT.275"*)* @_ZN3IPC8MessageTI47ExtensionHostMsg_AddDOMActionToActivityLog_MetaNSt3__15tupleIJNS2_12basic_stringIcNS2_11char_traitsIcEENS2_9allocatorIcEEEE33ExtensionHostMsg_DOMAction_ParamsEEEvED0Ev to i8*), i8* bitcast (void ()* @_ZN3IPC7Message15WriteAttachmentE13scoped_refptrIN4base6Pickle10AttachmentEE to i8*), i8* bitcast (i1 (%"class.IPC::Message"*, %"class.base::PickleIterator"*, %class.scoped_refptr.508*)* @_ZNK3IPC7Message14ReadAttachmentEPN4base14PickleIteratorEP13scoped_refptrINS1_6Pickle10AttachmentEE to i8*), i8* bitcast (i1 (%"class.IPC::Message"*)* @_ZNK3IPC7Message14HasAttachmentsEv to i8*)] }, comdat, align 8
@_ZN35ExtensionHostMsg_WakeEventPage_Meta5kNameE = hidden constant [31 x i8] c"ExtensionHostMsg_WakeEventPage\00", align 16
@_ZN35ExtensionHostMsg_WakeEventPage_Meta5kKindE = hidden local_unnamed_addr constant i32 0, align 4
@_ZTVN3IPC8MessageTI35ExtensionHostMsg_WakeEventPage_MetaNSt3__15tupleIJiNS2_12basic_stringIcNS2_11char_traitsIcEENS2_9allocatorIcEEEEEEEvEE = weak_odr hidden unnamed_addr constant { [7 x i8*] } { [7 x i8*] [i8* null, i8* null, i8* bitcast (void (%"class.IPC::Message"*)* @_ZN3IPC7MessageD2Ev to i8*), i8* bitcast (void (%"class.IPC::MessageT.281"*)* @_ZN3IPC8MessageTI35ExtensionHostMsg_WakeEventPage_MetaNSt3__15tupleIJiNS2_12basic_stringIcNS2_11char_traitsIcEENS2_9allocatorIcEEEEEEEvED0Ev to i8*), i8* bitcast (void ()* @_ZN3IPC7Message15WriteAttachmentE13scoped_refptrIN4base6Pickle10AttachmentEE to i8*), i8* bitcast (i1 (%"class.IPC::Message"*, %"class.base::PickleIterator"*, %class.scoped_refptr.508*)* @_ZNK3IPC7Message14ReadAttachmentEPN4base14PickleIteratorEP13scoped_refptrINS1_6Pickle10AttachmentEE to i8*), i8* bitcast (i1 (%"class.IPC::Message"*)* @_ZNK3IPC7Message14HasAttachmentsEv to i8*)] }, comdat, align 8
@_ZN49ExtensionHostMsg_DetailedConsoleMessageAdded_Meta5kNameE = hidden constant [45 x i8] c"ExtensionHostMsg_DetailedConsoleMessageAdded\00", align 16
@_ZN49ExtensionHostMsg_DetailedConsoleMessageAdded_Meta5kKindE = hidden local_unnamed_addr constant i32 1, align 4
@_ZTVN3IPC8MessageTI49ExtensionHostMsg_DetailedConsoleMessageAdded_MetaNSt3__15tupleIJNS2_12basic_stringIDsNS2_11char_traitsIDsEENS2_9allocatorIDsEEEES9_NS2_6vectorIN10extensions10StackFrameENS7_ISC_EEEEiEEEvEE = weak_odr hidden unnamed_addr constant { [7 x i8*] } { [7 x i8*] [i8* null, i8* null, i8* bitcast (void (%"class.IPC::Message"*)* @_ZN3IPC7MessageD2Ev to i8*), i8* bitcast (void (%"class.IPC::MessageT.298"*)* @_ZN3IPC8MessageTI49ExtensionHostMsg_DetailedConsoleMessageAdded_MetaNSt3__15tupleIJNS2_12basic_stringIDsNS2_11char_traitsIDsEENS2_9allocatorIDsEEEES9_NS2_6vectorIN10extensions10StackFrameENS7_ISC_EEEEiEEEvED0Ev to i8*), i8* bitcast (void ()* @_ZN3IPC7Message15WriteAttachmentE13scoped_refptrIN4base6Pickle10AttachmentEE to i8*), i8* bitcast (i1 (%"class.IPC::Message"*, %"class.base::PickleIterator"*, %class.scoped_refptr.508*)* @_ZNK3IPC7Message14ReadAttachmentEPN4base14PickleIteratorEP13scoped_refptrINS1_6Pickle10AttachmentEE to i8*), i8* bitcast (i1 (%"class.IPC::Message"*)* @_ZNK3IPC7Message14HasAttachmentsEv to i8*)] }, comdat, align 8
@_ZN41ExtensionMsg_AutomationQuerySelector_Meta5kNameE = hidden constant [37 x i8] c"ExtensionMsg_AutomationQuerySelector\00", align 16
@_ZN41ExtensionMsg_AutomationQuerySelector_Meta5kKindE = hidden local_unnamed_addr constant i32 1, align 4
@_ZTVN3IPC8MessageTI41ExtensionMsg_AutomationQuerySelector_MetaNSt3__15tupleIJiiNS2_12basic_stringIDsNS2_11char_traitsIDsEENS2_9allocatorIDsEEEEEEEvEE = weak_odr hidden unnamed_addr constant { [7 x i8*] } { [7 x i8*] [i8* null, i8* null, i8* bitcast (void (%"class.IPC::Message"*)* @_ZN3IPC7MessageD2Ev to i8*), i8* bitcast (void (%"class.IPC::MessageT.309"*)* @_ZN3IPC8MessageTI41ExtensionMsg_AutomationQuerySelector_MetaNSt3__15tupleIJiiNS2_12basic_stringIDsNS2_11char_traitsIDsEENS2_9allocatorIDsEEEEEEEvED0Ev to i8*), i8* bitcast (void ()* @_ZN3IPC7Message15WriteAttachmentE13scoped_refptrIN4base6Pickle10AttachmentEE to i8*), i8* bitcast (i1 (%"class.IPC::Message"*, %"class.base::PickleIterator"*, %class.scoped_refptr.508*)* @_ZNK3IPC7Message14ReadAttachmentEPN4base14PickleIteratorEP13scoped_refptrINS1_6Pickle10AttachmentEE to i8*), i8* bitcast (i1 (%"class.IPC::Message"*)* @_ZNK3IPC7Message14HasAttachmentsEv to i8*)] }, comdat, align 8
@_ZN52ExtensionHostMsg_AutomationQuerySelector_Result_Meta5kNameE = hidden constant [48 x i8] c"ExtensionHostMsg_AutomationQuerySelector_Result\00", align 16
@_ZN52ExtensionHostMsg_AutomationQuerySelector_Result_Meta5kKindE = hidden local_unnamed_addr constant i32 1, align 4
@_ZTVN3IPC8MessageTI52ExtensionHostMsg_AutomationQuerySelector_Result_MetaNSt3__15tupleIJi46ExtensionHostMsg_AutomationQuerySelector_ErroriEEEvEE = weak_odr hidden unnamed_addr constant { [7 x i8*] } { [7 x i8*] [i8* null, i8* null, i8* bitcast (void (%"class.IPC::Message"*)* @_ZN3IPC7MessageD2Ev to i8*), i8* bitcast (void (%"class.IPC::MessageT.318"*)* @_ZN3IPC8MessageTI52ExtensionHostMsg_AutomationQuerySelector_Result_MetaNSt3__15tupleIJi46ExtensionHostMsg_AutomationQuerySelector_ErroriEEEvED0Ev to i8*), i8* bitcast (void ()* @_ZN3IPC7Message15WriteAttachmentE13scoped_refptrIN4base6Pickle10AttachmentEE to i8*), i8* bitcast (i1 (%"class.IPC::Message"*, %"class.base::PickleIterator"*, %class.scoped_refptr.508*)* @_ZNK3IPC7Message14ReadAttachmentEPN4base14PickleIteratorEP13scoped_refptrINS1_6Pickle10AttachmentEE to i8*), i8* bitcast (i1 (%"class.IPC::Message"*)* @_ZNK3IPC7Message14HasAttachmentsEv to i8*)] }, comdat, align 8
@_ZN35ExtensionHostMsg_RequestWorker_Meta5kNameE = hidden constant [31 x i8] c"ExtensionHostMsg_RequestWorker\00", align 16
@_ZN35ExtensionHostMsg_RequestWorker_Meta5kKindE = hidden local_unnamed_addr constant i32 0, align 4
@_ZTVN3IPC8MessageTI35ExtensionHostMsg_RequestWorker_MetaNSt3__15tupleIJN10extensions5mojom13RequestParamsEEEEvEE = weak_odr hidden unnamed_addr constant { [7 x i8*] } { [7 x i8*] [i8* null, i8* null, i8* bitcast (void (%"class.IPC::Message"*)* @_ZN3IPC7MessageD2Ev to i8*), i8* bitcast (void (%"class.IPC::MessageT.326"*)* @_ZN3IPC8MessageTI35ExtensionHostMsg_RequestWorker_MetaNSt3__15tupleIJN10extensions5mojom13RequestParamsEEEEvED0Ev to i8*), i8* bitcast (void ()* @_ZN3IPC7Message15WriteAttachmentE13scoped_refptrIN4base6Pickle10AttachmentEE to i8*), i8* bitcast (i1 (%"class.IPC::Message"*, %"class.base::PickleIterator"*, %class.scoped_refptr.508*)* @_ZNK3IPC7Message14ReadAttachmentEPN4base14PickleIteratorEP13scoped_refptrINS1_6Pickle10AttachmentEE to i8*), i8* bitcast (i1 (%"class.IPC::Message"*)* @_ZNK3IPC7Message14HasAttachmentsEv to i8*)] }, comdat, align 8
@_ZN32ExtensionMsg_ResponseWorker_Meta5kNameE = hidden constant [28 x i8] c"ExtensionMsg_ResponseWorker\00", align 16
@_ZN32ExtensionMsg_ResponseWorker_Meta5kKindE = hidden local_unnamed_addr constant i32 0, align 4
@_ZTVN3IPC8MessageTI32ExtensionMsg_ResponseWorker_MetaNSt3__15tupleIJiibN4base9ListValueENS2_12basic_stringIcNS2_11char_traitsIcEENS2_9allocatorIcEEEEEEEvEE = weak_odr hidden unnamed_addr constant { [7 x i8*] } { [7 x i8*] [i8* null, i8* null, i8* bitcast (void (%"class.IPC::Message"*)* @_ZN3IPC7MessageD2Ev to i8*), i8* bitcast (void (%"class.IPC::MessageT.334"*)* @_ZN3IPC8MessageTI32ExtensionMsg_ResponseWorker_MetaNSt3__15tupleIJiibN4base9ListValueENS2_12basic_stringIcNS2_11char_traitsIcEENS2_9allocatorIcEEEEEEEvED0Ev to i8*), i8* bitcast (void ()* @_ZN3IPC7Message15WriteAttachmentE13scoped_refptrIN4base6Pickle10AttachmentEE to i8*), i8* bitcast (i1 (%"class.IPC::Message"*, %"class.base::PickleIterator"*, %class.scoped_refptr.508*)* @_ZNK3IPC7Message14ReadAttachmentEPN4base14PickleIteratorEP13scoped_refptrINS1_6Pickle10AttachmentEE to i8*), i8* bitcast (i1 (%"class.IPC::Message"*)* @_ZNK3IPC7Message14HasAttachmentsEv to i8*)] }, comdat, align 8
@_ZN52ExtensionHostMsg_IncrementServiceWorkerActivity_Meta5kNameE = hidden constant [48 x i8] c"ExtensionHostMsg_IncrementServiceWorkerActivity\00", align 16
@_ZN52ExtensionHostMsg_IncrementServiceWorkerActivity_Meta5kKindE = hidden local_unnamed_addr constant i32 0, align 4
@_ZTVN3IPC8MessageTI52ExtensionHostMsg_IncrementServiceWorkerActivity_MetaNSt3__15tupleIJlNS2_12basic_stringIcNS2_11char_traitsIcEENS2_9allocatorIcEEEEEEEvEE = weak_odr hidden unnamed_addr constant { [7 x i8*] } { [7 x i8*] [i8* null, i8* null, i8* bitcast (void (%"class.IPC::Message"*)* @_ZN3IPC7MessageD2Ev to i8*), i8* bitcast (void (%"class.IPC::MessageT.342"*)* @_ZN3IPC8MessageTI52ExtensionHostMsg_IncrementServiceWorkerActivity_MetaNSt3__15tupleIJlNS2_12basic_stringIcNS2_11char_traitsIcEENS2_9allocatorIcEEEEEEEvED0Ev to i8*), i8* bitcast (void ()* @_ZN3IPC7Message15WriteAttachmentE13scoped_refptrIN4base6Pickle10AttachmentEE to i8*), i8* bitcast (i1 (%"class.IPC::Message"*, %"class.base::PickleIterator"*, %class.scoped_refptr.508*)* @_ZNK3IPC7Message14ReadAttachmentEPN4base14PickleIteratorEP13scoped_refptrINS1_6Pickle10AttachmentEE to i8*), i8* bitcast (i1 (%"class.IPC::Message"*)* @_ZNK3IPC7Message14HasAttachmentsEv to i8*)] }, comdat, align 8
@_ZN52ExtensionHostMsg_DecrementServiceWorkerActivity_Meta5kNameE = hidden constant [48 x i8] c"ExtensionHostMsg_DecrementServiceWorkerActivity\00", align 16
@_ZN52ExtensionHostMsg_DecrementServiceWorkerActivity_Meta5kKindE = hidden local_unnamed_addr constant i32 0, align 4
@_ZTVN3IPC8MessageTI52ExtensionHostMsg_DecrementServiceWorkerActivity_MetaNSt3__15tupleIJlNS2_12basic_stringIcNS2_11char_traitsIcEENS2_9allocatorIcEEEEEEEvEE = weak_odr hidden unnamed_addr constant { [7 x i8*] } { [7 x i8*] [i8* null, i8* null, i8* bitcast (void (%"class.IPC::Message"*)* @_ZN3IPC7MessageD2Ev to i8*), i8* bitcast (void (%"class.IPC::MessageT.346"*)* @_ZN3IPC8MessageTI52ExtensionHostMsg_DecrementServiceWorkerActivity_MetaNSt3__15tupleIJlNS2_12basic_stringIcNS2_11char_traitsIcEENS2_9allocatorIcEEEEEEEvED0Ev to i8*), i8* bitcast (void ()* @_ZN3IPC7Message15WriteAttachmentE13scoped_refptrIN4base6Pickle10AttachmentEE to i8*), i8* bitcast (i1 (%"class.IPC::Message"*, %"class.base::PickleIterator"*, %class.scoped_refptr.508*)* @_ZNK3IPC7Message14ReadAttachmentEPN4base14PickleIteratorEP13scoped_refptrINS1_6Pickle10AttachmentEE to i8*), i8* bitcast (i1 (%"class.IPC::Message"*)* @_ZNK3IPC7Message14HasAttachmentsEv to i8*)] }, comdat, align 8
@_ZN36ExtensionHostMsg_EventAckWorker_Meta5kNameE = hidden constant [32 x i8] c"ExtensionHostMsg_EventAckWorker\00", align 16
@_ZN36ExtensionHostMsg_EventAckWorker_Meta5kKindE = hidden local_unnamed_addr constant i32 0, align 4
@_ZTVN3IPC8MessageTI36ExtensionHostMsg_EventAckWorker_MetaNSt3__15tupleIJNS2_12basic_stringIcNS2_11char_traitsIcEENS2_9allocatorIcEEEEliiEEEvEE = weak_odr hidden unnamed_addr constant { [7 x i8*] } { [7 x i8*] [i8* null, i8* null, i8* bitcast (void (%"class.IPC::Message"*)* @_ZN3IPC7MessageD2Ev to i8*), i8* bitcast (void (%"class.IPC::MessageT.350"*)* @_ZN3IPC8MessageTI36ExtensionHostMsg_EventAckWorker_MetaNSt3__15tupleIJNS2_12basic_stringIcNS2_11char_traitsIcEENS2_9allocatorIcEEEEliiEEEvED0Ev to i8*), i8* bitcast (void ()* @_ZN3IPC7Message15WriteAttachmentE13scoped_refptrIN4base6Pickle10AttachmentEE to i8*), i8* bitcast (i1 (%"class.IPC::Message"*, %"class.base::PickleIterator"*, %class.scoped_refptr.508*)* @_ZNK3IPC7Message14ReadAttachmentEPN4base14PickleIteratorEP13scoped_refptrINS1_6Pickle10AttachmentEE to i8*), i8* bitcast (i1 (%"class.IPC::Message"*)* @_ZNK3IPC7Message14HasAttachmentsEv to i8*)] }, comdat, align 8
@_ZN55ExtensionHostMsg_DidInitializeServiceWorkerContext_Meta5kNameE = hidden constant [51 x i8] c"ExtensionHostMsg_DidInitializeServiceWorkerContext\00", align 16
@_ZN55ExtensionHostMsg_DidInitializeServiceWorkerContext_Meta5kKindE = hidden local_unnamed_addr constant i32 0, align 4
@_ZTVN3IPC8MessageTI55ExtensionHostMsg_DidInitializeServiceWorkerContext_MetaNSt3__15tupleIJNS2_12basic_stringIcNS2_11char_traitsIcEENS2_9allocatorIcEEEEliEEEvEE = weak_odr hidden unnamed_addr constant { [7 x i8*] } { [7 x i8*] [i8* null, i8* null, i8* bitcast (void (%"class.IPC::Message"*)* @_ZN3IPC7MessageD2Ev to i8*), i8* bitcast (void (%"class.IPC::MessageT.357"*)* @_ZN3IPC8MessageTI55ExtensionHostMsg_DidInitializeServiceWorkerContext_MetaNSt3__15tupleIJNS2_12basic_stringIcNS2_11char_traitsIcEENS2_9allocatorIcEEEEliEEEvED0Ev to i8*), i8* bitcast (void ()* @_ZN3IPC7Message15WriteAttachmentE13scoped_refptrIN4base6Pickle10AttachmentEE to i8*), i8* bitcast (i1 (%"class.IPC::Message"*, %"class.base::PickleIterator"*, %class.scoped_refptr.508*)* @_ZNK3IPC7Message14ReadAttachmentEPN4base14PickleIteratorEP13scoped_refptrINS1_6Pickle10AttachmentEE to i8*), i8* bitcast (i1 (%"class.IPC::Message"*)* @_ZNK3IPC7Message14HasAttachmentsEv to i8*)] }, comdat, align 8
@_ZN50ExtensionHostMsg_DidStartServiceWorkerContext_Meta5kNameE = hidden constant [46 x i8] c"ExtensionHostMsg_DidStartServiceWorkerContext\00", align 16
@_ZN50ExtensionHostMsg_DidStartServiceWorkerContext_Meta5kKindE = hidden local_unnamed_addr constant i32 0, align 4
@_ZTVN3IPC8MessageTI50ExtensionHostMsg_DidStartServiceWorkerContext_MetaNSt3__15tupleIJNS2_12basic_stringIcNS2_11char_traitsIcEENS2_9allocatorIcEEEEN4base11StrongAliasIN10extensions21ActivationSequenceTagEiEE4GURLliEEEvEE = weak_odr hidden unnamed_addr constant { [7 x i8*] } { [7 x i8*] [i8* null, i8* null, i8* bitcast (void (%"class.IPC::Message"*)* @_ZN3IPC7MessageD2Ev to i8*), i8* bitcast (void (%"class.IPC::MessageT.367"*)* @_ZN3IPC8MessageTI50ExtensionHostMsg_DidStartServiceWorkerContext_MetaNSt3__15tupleIJNS2_12basic_stringIcNS2_11char_traitsIcEENS2_9allocatorIcEEEEN4base11StrongAliasIN10extensions21ActivationSequenceTagEiEE4GURLliEEEvED0Ev to i8*), i8* bitcast (void ()* @_ZN3IPC7Message15WriteAttachmentE13scoped_refptrIN4base6Pickle10AttachmentEE to i8*), i8* bitcast (i1 (%"class.IPC::Message"*, %"class.base::PickleIterator"*, %class.scoped_refptr.508*)* @_ZNK3IPC7Message14ReadAttachmentEPN4base14PickleIteratorEP13scoped_refptrINS1_6Pickle10AttachmentEE to i8*), i8* bitcast (i1 (%"class.IPC::Message"*)* @_ZNK3IPC7Message14HasAttachmentsEv to i8*)] }, comdat, align 8
@_ZN49ExtensionHostMsg_DidStopServiceWorkerContext_Meta5kNameE = hidden constant [45 x i8] c"ExtensionHostMsg_DidStopServiceWorkerContext\00", align 16
@_ZN49ExtensionHostMsg_DidStopServiceWorkerContext_Meta5kKindE = hidden local_unnamed_addr constant i32 0, align 4
@_ZTVN3IPC8MessageTI49ExtensionHostMsg_DidStopServiceWorkerContext_MetaNSt3__15tupleIJNS2_12basic_stringIcNS2_11char_traitsIcEENS2_9allocatorIcEEEEN4base11StrongAliasIN10extensions21ActivationSequenceTagEiEE4GURLliEEEvEE = weak_odr hidden unnamed_addr constant { [7 x i8*] } { [7 x i8*] [i8* null, i8* null, i8* bitcast (void (%"class.IPC::Message"*)* @_ZN3IPC7MessageD2Ev to i8*), i8* bitcast (void (%"class.IPC::MessageT.374"*)* @_ZN3IPC8MessageTI49ExtensionHostMsg_DidStopServiceWorkerContext_MetaNSt3__15tupleIJNS2_12basic_stringIcNS2_11char_traitsIcEENS2_9allocatorIcEEEEN4base11StrongAliasIN10extensions21ActivationSequenceTagEiEE4GURLliEEEvED0Ev to i8*), i8* bitcast (void ()* @_ZN3IPC7Message15WriteAttachmentE13scoped_refptrIN4base6Pickle10AttachmentEE to i8*), i8* bitcast (i1 (%"class.IPC::Message"*, %"class.base::PickleIterator"*, %class.scoped_refptr.508*)* @_ZNK3IPC7Message14ReadAttachmentEPN4base14PickleIteratorEP13scoped_refptrINS1_6Pickle10AttachmentEE to i8*), i8* bitcast (i1 (%"class.IPC::Message"*)* @_ZNK3IPC7Message14HasAttachmentsEv to i8*)] }, comdat, align 8
@_ZN39ExtensionHostMsg_WorkerResponseAck_Meta5kNameE = hidden constant [35 x i8] c"ExtensionHostMsg_WorkerResponseAck\00", align 16
@_ZN39ExtensionHostMsg_WorkerResponseAck_Meta5kKindE = hidden local_unnamed_addr constant i32 0, align 4
@_ZTVN3IPC8MessageTI39ExtensionHostMsg_WorkerResponseAck_MetaNSt3__15tupleIJilEEEvEE = weak_odr hidden unnamed_addr constant { [7 x i8*] } { [7 x i8*] [i8* null, i8* null, i8* bitcast (void (%"class.IPC::Message"*)* @_ZN3IPC7MessageD2Ev to i8*), i8* bitcast (void (%"class.IPC::MessageT.377"*)* @_ZN3IPC8MessageTI39ExtensionHostMsg_WorkerResponseAck_MetaNSt3__15tupleIJilEEEvED0Ev to i8*), i8* bitcast (void ()* @_ZN3IPC7Message15WriteAttachmentE13scoped_refptrIN4base6Pickle10AttachmentEE to i8*), i8* bitcast (i1 (%"class.IPC::Message"*, %"class.base::PickleIterator"*, %class.scoped_refptr.508*)* @_ZNK3IPC7Message14ReadAttachmentEPN4base14PickleIteratorEP13scoped_refptrINS1_6Pickle10AttachmentEE to i8*), i8* bitcast (i1 (%"class.IPC::Message"*)* @_ZNK3IPC7Message14HasAttachmentsEv to i8*)] }, comdat, align 8
@_ZN42ExtensionMsg_AccessibilityEventBundle_Meta5kNameE = hidden constant [38 x i8] c"ExtensionMsg_AccessibilityEventBundle\00", align 16
@_ZN42ExtensionMsg_AccessibilityEventBundle_Meta5kKindE = hidden local_unnamed_addr constant i32 0, align 4
@_ZTVN3IPC8MessageTI42ExtensionMsg_AccessibilityEventBundle_MetaNSt3__15tupleIJ43ExtensionMsg_AccessibilityEventBundleParamsbEEEvEE = weak_odr hidden unnamed_addr constant { [7 x i8*] } { [7 x i8*] [i8* null, i8* null, i8* bitcast (void (%"class.IPC::Message"*)* @_ZN3IPC7MessageD2Ev to i8*), i8* bitcast (void (%"class.IPC::MessageT.486"*)* @_ZN3IPC8MessageTI42ExtensionMsg_AccessibilityEventBundle_MetaNSt3__15tupleIJ43ExtensionMsg_AccessibilityEventBundleParamsbEEEvED0Ev to i8*), i8* bitcast (void ()* @_ZN3IPC7Message15WriteAttachmentE13scoped_refptrIN4base6Pickle10AttachmentEE to i8*), i8* bitcast (i1 (%"class.IPC::Message"*, %"class.base::PickleIterator"*, %class.scoped_refptr.508*)* @_ZNK3IPC7Message14ReadAttachmentEPN4base14PickleIteratorEP13scoped_refptrINS1_6Pickle10AttachmentEE to i8*), i8* bitcast (i1 (%"class.IPC::Message"*)* @_ZNK3IPC7Message14HasAttachmentsEv to i8*)] }, comdat, align 8
@_ZN45ExtensionMsg_AccessibilityLocationChange_Meta5kNameE = hidden constant [41 x i8] c"ExtensionMsg_AccessibilityLocationChange\00", align 16
@_ZN45ExtensionMsg_AccessibilityLocationChange_Meta5kKindE = hidden local_unnamed_addr constant i32 0, align 4
@__const._ZN3IPC8MessageTI45ExtensionMsg_AccessibilityLocationChange_MetaNSt3__15tupleIJ46ExtensionMsg_AccessibilityLocationChangeParamsEEEvE3LogEPNS2_12basic_stringIcNS2_11char_traitsIcEENS2_9allocatorIcEEEEPKNS_7MessageESD_.p = private unnamed_addr constant { { { { { i32, [4 x i8], { { { { i8, [7 x i8], %union.anon.387 } } } } }, i32, [4 x i8], { i32 (...)**, i32, %"class.gfx::RectF", [4 x i8], %"class.std::__1::unique_ptr.455" } } } } } { { { { { i32, [4 x i8], { { { { i8, [7 x i8], %union.anon.387 } } } } }, i32, [4 x i8], { i32 (...)**, i32, %"class.gfx::RectF", [4 x i8], %"class.std::__1::unique_ptr.455" } } } } { { { { i32, [4 x i8], { { { { i8, [7 x i8], %union.anon.387 } } } } }, i32, [4 x i8], { i32 (...)**, i32, %"class.gfx::RectF", [4 x i8], %"class.std::__1::unique_ptr.455" } } } { { { i32, [4 x i8], { { { { i8, [7 x i8], %union.anon.387 } } } } }, i32, [4 x i8], { i32 (...)**, i32, %"class.gfx::RectF", [4 x i8], %"class.std::__1::unique_ptr.455" } } { { i32, [4 x i8], { { { { i8, [7 x i8], %union.anon.387 } } } } } { i32 -1431655766, [4 x i8] c"\AA\AA\AA\AA", { { { { i8, [7 x i8], %union.anon.387 } } } } { { { { i8, [7 x i8], %union.anon.387 } } } { { { i8, [7 x i8], %union.anon.387 } } { { i8, [7 x i8], %union.anon.387 } { i8 -86, [7 x i8] c"\AA\AA\AA\AA\AA\AA\AA", %union.anon.387 { %"class.base::UnguessableToken" { %"class.base::Token" { i64 -6148914691236517206, i64 -6148914691236517206 } } } } } } } }, i32 -1431655766, [4 x i8] c"\AA\AA\AA\AA", { i32 (...)**, i32, %"class.gfx::RectF", [4 x i8], %"class.std::__1::unique_ptr.455" } { i32 (...)** inttoptr (i64 -6148914691236517206 to i32 (...)**), i32 -1431655766, %"class.gfx::RectF" { %"class.gfx::PointF" { float 0xFFFFFFFFE0000000, float 0xFFFFFFFFE0000000 }, %"class.gfx::SizeF" { float 0xFFFFFFFFE0000000, float 0xFFFFFFFFE0000000 } }, [4 x i8] c"\AA\AA\AA\AA", %"class.std::__1::unique_ptr.455" { %"class.std::__1::__compressed_pair.456" { %"struct.std::__1::__compressed_pair_elem.457" { %"class.gfx::Transform"* inttoptr (i64 -6148914691236517206 to %"class.gfx::Transform"*) } } } } } } } }, align 8
@_ZTVN3IPC8MessageTI45ExtensionMsg_AccessibilityLocationChange_MetaNSt3__15tupleIJ46ExtensionMsg_AccessibilityLocationChangeParamsEEEvEE = weak_odr hidden unnamed_addr constant { [7 x i8*] } { [7 x i8*] [i8* null, i8* null, i8* bitcast (void (%"class.IPC::Message"*)* @_ZN3IPC7MessageD2Ev to i8*), i8* bitcast (void (%"class.IPC::MessageT.493"*)* @_ZN3IPC8MessageTI45ExtensionMsg_AccessibilityLocationChange_MetaNSt3__15tupleIJ46ExtensionMsg_AccessibilityLocationChangeParamsEEEvED0Ev to i8*), i8* bitcast (void ()* @_ZN3IPC7Message15WriteAttachmentE13scoped_refptrIN4base6Pickle10AttachmentEE to i8*), i8* bitcast (i1 (%"class.IPC::Message"*, %"class.base::PickleIterator"*, %class.scoped_refptr.508*)* @_ZNK3IPC7Message14ReadAttachmentEPN4base14PickleIteratorEP13scoped_refptrINS1_6Pickle10AttachmentEE to i8*), i8* bitcast (i1 (%"class.IPC::Message"*)* @_ZNK3IPC7Message14HasAttachmentsEv to i8*)] }, comdat, align 8
@_ZN59ExtensionsGuestViewHostMsg_CanExecuteContentScriptSync_Meta5kNameE = hidden constant [55 x i8] c"ExtensionsGuestViewHostMsg_CanExecuteContentScriptSync\00", align 16
@_ZN59ExtensionsGuestViewHostMsg_CanExecuteContentScriptSync_Meta5kKindE = hidden local_unnamed_addr constant i32 0, align 4
@_ZTVN3IPC8MessageTI59ExtensionsGuestViewHostMsg_CanExecuteContentScriptSync_MetaNSt3__15tupleIJiNS2_12basic_stringIcNS2_11char_traitsIcEENS2_9allocatorIcEEEEEEENS3_IJbEEEEE = weak_odr hidden unnamed_addr constant { [7 x i8*] } { [7 x i8*] [i8* null, i8* null, i8* bitcast (void (%"class.IPC::SyncMessage"*)* @_ZN3IPC11SyncMessageD2Ev to i8*), i8* bitcast (void (%"class.IPC::MessageT.503"*)* @_ZN3IPC8MessageTI59ExtensionsGuestViewHostMsg_CanExecuteContentScriptSync_MetaNSt3__15tupleIJiNS2_12basic_stringIcNS2_11char_traitsIcEENS2_9allocatorIcEEEEEEENS3_IJbEEEED0Ev to i8*), i8* bitcast (void ()* @_ZN3IPC7Message15WriteAttachmentE13scoped_refptrIN4base6Pickle10AttachmentEE to i8*), i8* bitcast (i1 (%"class.IPC::Message"*, %"class.base::PickleIterator"*, %class.scoped_refptr.508*)* @_ZNK3IPC7Message14ReadAttachmentEPN4base14PickleIteratorEP13scoped_refptrINS1_6Pickle10AttachmentEE to i8*), i8* bitcast (i1 (%"class.IPC::Message"*)* @_ZNK3IPC7Message14HasAttachmentsEv to i8*)] }, comdat, align 8
@.str = private unnamed_addr constant [2 x i8] c"(\00", align 1
@.str.1 = private unnamed_addr constant [3 x i8] c", \00", align 1
@.str.2 = private unnamed_addr constant [2 x i8] c")\00", align 1
@.str.3 = private unnamed_addr constant [8 x i8] c"(unset)\00", align 1
@_ZNSt3__1L19piecewise_constructE = internal constant %"struct.std::__1::piecewise_construct_t" undef, align 1
@.str.5 = private unnamed_addr constant [11 x i8] c"<std::map>\00", align 1
@_ZTVN3IPC17ParamDeserializerIJNSt3__13mapINS1_12basic_stringIcNS1_11char_traitsIcEENS1_9allocatorIcEEEES8_NS1_4lessIS8_EENS6_INS1_4pairIKS8_S8_EEEEEEEEE = linkonce_odr hidden unnamed_addr constant { [5 x i8*] } { [5 x i8*] [i8* null, i8* null, i8* bitcast (void (%"class.IPC::MessageReplyDeserializer"*)* @_ZN3IPC24MessageReplyDeserializerD2Ev to i8*), i8* bitcast (void (%"class.IPC::ParamDeserializer"*)* @_ZN3IPC17ParamDeserializerIJNSt3__13mapINS1_12basic_stringIcNS1_11char_traitsIcEENS1_9allocatorIcEEEES8_NS1_4lessIS8_EENS6_INS1_4pairIKS8_S8_EEEEEEEED0Ev to i8*), i8* bitcast (i1 (%"class.IPC::ParamDeserializer"*, %"class.IPC::Message"*, %"class.base::PickleIterator"*)* @_ZN3IPC17ParamDeserializerIJNSt3__13mapINS1_12basic_stringIcNS1_11char_traitsIcEENS1_9allocatorIcEEEES8_NS1_4lessIS8_EENS6_INS1_4pairIKS8_S8_EEEEEEEE25SerializeOutputParametersERKNS_7MessageEN4base14PickleIteratorE to i8*)] }, comdat, align 8
@.str.6 = private unnamed_addr constant [2 x i8] c" \00", align 1
@_ZTVN3IPC17ParamDeserializerIJbEEE = linkonce_odr hidden unnamed_addr constant { [5 x i8*] } { [5 x i8*] [i8* null, i8* null, i8* bitcast (void (%"class.IPC::MessageReplyDeserializer"*)* @_ZN3IPC24MessageReplyDeserializerD2Ev to i8*), i8* bitcast (void (%"class.IPC::ParamDeserializer.504"*)* @_ZN3IPC17ParamDeserializerIJbEED0Ev to i8*), i8* bitcast (i1 (%"class.IPC::ParamDeserializer.504"*, %"class.IPC::Message"*, %"class.base::PickleIterator"*)* @_ZN3IPC17ParamDeserializerIJbEE25SerializeOutputParametersERKNS_7MessageEN4base14PickleIteratorE to i8*)] }, comdat, align 8

@_ZN3IPC8MessageTI31ExtensionMsg_DispatchEvent_MetaNSt3__15tupleIJ33ExtensionMsg_DispatchEvent_ParamsN4base9ListValueEEEEvEC1ENS_7RoutingERKS4_RKS6_ = weak_odr hidden unnamed_addr alias void (%"class.IPC::MessageT"*, i32, %struct.ExtensionMsg_DispatchEvent_Params*, %"class.base::ListValue"*), void (%"class.IPC::MessageT"*, i32, %struct.ExtensionMsg_DispatchEvent_Params*, %"class.base::ListValue"*)* @_ZN3IPC8MessageTI31ExtensionMsg_DispatchEvent_MetaNSt3__15tupleIJ33ExtensionMsg_DispatchEvent_ParamsN4base9ListValueEEEEvEC2ENS_7RoutingERKS4_RKS6_
@_ZN3IPC8MessageTI39ExtensionMsg_UpdateBrowserWindowId_MetaNSt3__15tupleIJiEEEvEC1ENS_7RoutingERKi = weak_odr hidden unnamed_addr alias void (%"class.IPC::MessageT.55"*, i32, i32*), void (%"class.IPC::MessageT.55"*, i32, i32*)* @_ZN3IPC8MessageTI39ExtensionMsg_UpdateBrowserWindowId_MetaNSt3__15tupleIJiEEEvEC2ENS_7RoutingERKi
@_ZN3IPC8MessageTI39ExtensionMsg_WakeEventPageResponse_MetaNSt3__15tupleIJibEEEvEC1ENS_7RoutingERKiRKb = weak_odr hidden unnamed_addr alias void (%"class.IPC::MessageT.62"*, i32, i32*, i8*), void (%"class.IPC::MessageT.62"*, i32, i32*, i8*)* @_ZN3IPC8MessageTI39ExtensionMsg_WakeEventPageResponse_MetaNSt3__15tupleIJibEEEvEC2ENS_7RoutingERKiRKb
@_ZN3IPC8MessageTI37ExtensionMsg_ValidateMessagePort_MetaNSt3__15tupleIJiN10extensions6PortIdEEEEvEC1ENS_7RoutingERKiRKS5_ = weak_odr hidden unnamed_addr alias void (%"class.IPC::MessageT.69"*, i32, i32*, %"struct.extensions::PortId"*), void (%"class.IPC::MessageT.69"*, i32, i32*, %"struct.extensions::PortId"*)* @_ZN3IPC8MessageTI37ExtensionMsg_ValidateMessagePort_MetaNSt3__15tupleIJiN10extensions6PortIdEEEEvEC2ENS_7RoutingERKiRKS5_
@_ZN3IPC8MessageTI35ExtensionMsg_DispatchOnConnect_MetaNSt3__15tupleIJiN10extensions6PortIdENS2_12basic_stringIcNS2_11char_traitsIcEENS2_9allocatorIcEEEE30ExtensionMsg_TabConnectionInfo35ExtensionMsg_ExternalConnectionInfoEEEvEC1ENS_7RoutingERKiRKS5_RKSB_RKSC_RKSD_ = weak_odr hidden unnamed_addr alias void (%"class.IPC::MessageT.88"*, i32, i32*, %"struct.extensions::PortId"*, %"class.std::__1::basic_string"*, %struct.ExtensionMsg_TabConnectionInfo*, %struct.ExtensionMsg_ExternalConnectionInfo*), void (%"class.IPC::MessageT.88"*, i32, i32*, %"struct.extensions::PortId"*, %"class.std::__1::basic_string"*, %struct.ExtensionMsg_TabConnectionInfo*, %struct.ExtensionMsg_ExternalConnectionInfo*)* @_ZN3IPC8MessageTI35ExtensionMsg_DispatchOnConnect_MetaNSt3__15tupleIJiN10extensions6PortIdENS2_12basic_stringIcNS2_11char_traitsIcEENS2_9allocatorIcEEEE30ExtensionMsg_TabConnectionInfo35ExtensionMsg_ExternalConnectionInfoEEEvEC2ENS_7RoutingERKiRKS5_RKSB_RKSC_RKSD_
@_ZN3IPC8MessageTI32ExtensionMsg_DeliverMessage_MetaNSt3__15tupleIJiN10extensions6PortIdENS4_7MessageEEEEvEC1ENS_7RoutingERKiRKS5_RKS6_ = weak_odr hidden unnamed_addr alias void (%"class.IPC::MessageT.97"*, i32, i32*, %"struct.extensions::PortId"*, %"struct.extensions::Message"*), void (%"class.IPC::MessageT.97"*, i32, i32*, %"struct.extensions::PortId"*, %"struct.extensions::Message"*)* @_ZN3IPC8MessageTI32ExtensionMsg_DeliverMessage_MetaNSt3__15tupleIJiN10extensions6PortIdENS4_7MessageEEEEvEC2ENS_7RoutingERKiRKS5_RKS6_
@_ZN3IPC8MessageTI38ExtensionMsg_DispatchOnDisconnect_MetaNSt3__15tupleIJiN10extensions6PortIdENS2_12basic_stringIcNS2_11char_traitsIcEENS2_9allocatorIcEEEEEEEvEC1ENS_7RoutingERKiRKS5_RKSB_ = weak_odr hidden unnamed_addr alias void (%"class.IPC::MessageT.103"*, i32, i32*, %"struct.extensions::PortId"*, %"class.std::__1::basic_string"*), void (%"class.IPC::MessageT.103"*, i32, i32*, %"struct.extensions::PortId"*, %"class.std::__1::basic_string"*)* @_ZN3IPC8MessageTI38ExtensionMsg_DispatchOnDisconnect_MetaNSt3__15tupleIJiN10extensions6PortIdENS2_12basic_stringIcNS2_11char_traitsIcEENS2_9allocatorIcEEEEEEEvEC2ENS_7RoutingERKiRKS5_RKSB_
@_ZN3IPC8MessageTI41ExtensionHostMsg_AddFilteredListener_MetaNSt3__15tupleIJNS2_12basic_stringIcNS2_11char_traitsIcEENS2_9allocatorIcEEEES9_N4absl8optionalI23ServiceWorkerIdentifierEEN4base15DictionaryValueEbEEEvEC1ENS_7RoutingERKS9_SK_RKSD_RKSF_RKb = weak_odr hidden unnamed_addr alias void (%"class.IPC::MessageT.119"*, i32, %"class.std::__1::basic_string"*, %"class.std::__1::basic_string"*, %"class.absl::optional.111"*, %"class.base::DictionaryValue"*, i8*), void (%"class.IPC::MessageT.119"*, i32, %"class.std::__1::basic_string"*, %"class.std::__1::basic_string"*, %"class.absl::optional.111"*, %"class.base::DictionaryValue"*, i8*)* @_ZN3IPC8MessageTI41ExtensionHostMsg_AddFilteredListener_MetaNSt3__15tupleIJNS2_12basic_stringIcNS2_11char_traitsIcEENS2_9allocatorIcEEEES9_N4absl8optionalI23ServiceWorkerIdentifierEEN4base15DictionaryValueEbEEEvEC2ENS_7RoutingERKS9_SK_RKSD_RKSF_RKb
@_ZN3IPC8MessageTI44ExtensionHostMsg_RemoveFilteredListener_MetaNSt3__15tupleIJNS2_12basic_stringIcNS2_11char_traitsIcEENS2_9allocatorIcEEEES9_N4absl8optionalI23ServiceWorkerIdentifierEEN4base15DictionaryValueEbEEEvEC1ENS_7RoutingERKS9_SK_RKSD_RKSF_RKb = weak_odr hidden unnamed_addr alias void (%"class.IPC::MessageT.127"*, i32, %"class.std::__1::basic_string"*, %"class.std::__1::basic_string"*, %"class.absl::optional.111"*, %"class.base::DictionaryValue"*, i8*), void (%"class.IPC::MessageT.127"*, i32, %"class.std::__1::basic_string"*, %"class.std::__1::basic_string"*, %"class.absl::optional.111"*, %"class.base::DictionaryValue"*, i8*)* @_ZN3IPC8MessageTI44ExtensionHostMsg_RemoveFilteredListener_MetaNSt3__15tupleIJNS2_12basic_stringIcNS2_11char_traitsIcEENS2_9allocatorIcEEEES9_N4absl8optionalI23ServiceWorkerIdentifierEEN4base15DictionaryValueEbEEEvEC2ENS_7RoutingERKS9_SK_RKSD_RKSF_RKb
@_ZN3IPC8MessageTI30ExtensionHostMsg_EventAck_MetaNSt3__15tupleIJiEEEvEC1ENS_7RoutingERKi = weak_odr hidden unnamed_addr alias void (%"class.IPC::MessageT.128"*, i32, i32*), void (%"class.IPC::MessageT.128"*, i32, i32*)* @_ZN3IPC8MessageTI30ExtensionHostMsg_EventAck_MetaNSt3__15tupleIJiEEEvEC2ENS_7RoutingERKi
@_ZN3IPC8MessageTI44ExtensionHostMsg_OpenChannelToExtension_MetaNSt3__15tupleIJN10extensions11PortContextE35ExtensionMsg_ExternalConnectionInfoNS2_12basic_stringIcNS2_11char_traitsIcEENS2_9allocatorIcEEEENS4_6PortIdEEEEvEC1ENS_7RoutingERKS5_RKS6_RKSC_RKSD_ = weak_odr hidden unnamed_addr alias void (%"class.IPC::MessageT.144"*, i32, %"struct.extensions::PortContext"*, %struct.ExtensionMsg_ExternalConnectionInfo*, %"class.std::__1::basic_string"*, %"struct.extensions::PortId"*), void (%"class.IPC::MessageT.144"*, i32, %"struct.extensions::PortContext"*, %struct.ExtensionMsg_ExternalConnectionInfo*, %"class.std::__1::basic_string"*, %"struct.extensions::PortId"*)* @_ZN3IPC8MessageTI44ExtensionHostMsg_OpenChannelToExtension_MetaNSt3__15tupleIJN10extensions11PortContextE35ExtensionMsg_ExternalConnectionInfoNS2_12basic_stringIcNS2_11char_traitsIcEENS2_9allocatorIcEEEENS4_6PortIdEEEEvEC2ENS_7RoutingERKS5_RKS6_RKSC_RKSD_
@_ZN3IPC8MessageTI44ExtensionHostMsg_OpenChannelToNativeApp_MetaNSt3__15tupleIJN10extensions11PortContextENS2_12basic_stringIcNS2_11char_traitsIcEENS2_9allocatorIcEEEENS4_6PortIdEEEEvEC1ENS_7RoutingERKS5_RKSB_RKSC_ = weak_odr hidden unnamed_addr alias void (%"class.IPC::MessageT.153"*, i32, %"struct.extensions::PortContext"*, %"class.std::__1::basic_string"*, %"struct.extensions::PortId"*), void (%"class.IPC::MessageT.153"*, i32, %"struct.extensions::PortContext"*, %"class.std::__1::basic_string"*, %"struct.extensions::PortId"*)* @_ZN3IPC8MessageTI44ExtensionHostMsg_OpenChannelToNativeApp_MetaNSt3__15tupleIJN10extensions11PortContextENS2_12basic_stringIcNS2_11char_traitsIcEENS2_9allocatorIcEEEENS4_6PortIdEEEEvEC2ENS_7RoutingERKS5_RKSB_RKSC_
@_ZN3IPC8MessageTI38ExtensionHostMsg_OpenChannelToTab_MetaNSt3__15tupleIJN10extensions11PortContextE36ExtensionMsg_TabTargetConnectionInfoNS2_12basic_stringIcNS2_11char_traitsIcEENS2_9allocatorIcEEEESC_NS4_6PortIdEEEEvEC1ENS_7RoutingERKS5_RKS6_RKSC_SM_RKSD_ = weak_odr hidden unnamed_addr alias void (%"class.IPC::MessageT.162"*, i32, %"struct.extensions::PortContext"*, %struct.ExtensionMsg_TabTargetConnectionInfo*, %"class.std::__1::basic_string"*, %"class.std::__1::basic_string"*, %"struct.extensions::PortId"*), void (%"class.IPC::MessageT.162"*, i32, %"struct.extensions::PortContext"*, %struct.ExtensionMsg_TabTargetConnectionInfo*, %"class.std::__1::basic_string"*, %"class.std::__1::basic_string"*, %"struct.extensions::PortId"*)* @_ZN3IPC8MessageTI38ExtensionHostMsg_OpenChannelToTab_MetaNSt3__15tupleIJN10extensions11PortContextE36ExtensionMsg_TabTargetConnectionInfoNS2_12basic_stringIcNS2_11char_traitsIcEENS2_9allocatorIcEEEESC_NS4_6PortIdEEEEvEC2ENS_7RoutingERKS5_RKS6_RKSC_SM_RKSD_
@_ZN3IPC8MessageTI37ExtensionHostMsg_OpenMessagePort_MetaNSt3__15tupleIJN10extensions11PortContextENS4_6PortIdEEEEvEC1ENS_7RoutingERKS5_RKS6_ = weak_odr hidden unnamed_addr alias void (%"class.IPC::MessageT.170"*, i32, %"struct.extensions::PortContext"*, %"struct.extensions::PortId"*), void (%"class.IPC::MessageT.170"*, i32, %"struct.extensions::PortContext"*, %"struct.extensions::PortId"*)* @_ZN3IPC8MessageTI37ExtensionHostMsg_OpenMessagePort_MetaNSt3__15tupleIJN10extensions11PortContextENS4_6PortIdEEEEvEC2ENS_7RoutingERKS5_RKS6_
@_ZN3IPC8MessageTI38ExtensionHostMsg_CloseMessagePort_MetaNSt3__15tupleIJN10extensions11PortContextENS4_6PortIdEbEEEvEC1ENS_7RoutingERKS5_RKS6_RKb = weak_odr hidden unnamed_addr alias void (%"class.IPC::MessageT.177"*, i32, %"struct.extensions::PortContext"*, %"struct.extensions::PortId"*, i8*), void (%"class.IPC::MessageT.177"*, i32, %"struct.extensions::PortContext"*, %"struct.extensions::PortId"*, i8*)* @_ZN3IPC8MessageTI38ExtensionHostMsg_CloseMessagePort_MetaNSt3__15tupleIJN10extensions11PortContextENS4_6PortIdEbEEEvEC2ENS_7RoutingERKS5_RKS6_RKb
@_ZN3IPC8MessageTI33ExtensionHostMsg_PostMessage_MetaNSt3__15tupleIJN10extensions6PortIdENS4_7MessageEEEEvEC1ENS_7RoutingERKS5_RKS6_ = weak_odr hidden unnamed_addr alias void (%"class.IPC::MessageT.185"*, i32, %"struct.extensions::PortId"*, %"struct.extensions::Message"*), void (%"class.IPC::MessageT.185"*, i32, %"struct.extensions::PortId"*, %"struct.extensions::Message"*)* @_ZN3IPC8MessageTI33ExtensionHostMsg_PostMessage_MetaNSt3__15tupleIJN10extensions6PortIdENS4_7MessageEEEEvEC2ENS_7RoutingERKS5_RKS6_
@_ZN3IPC8MessageTI38ExtensionHostMsg_GetMessageBundle_MetaNSt3__15tupleIJNS2_12basic_stringIcNS2_11char_traitsIcEENS2_9allocatorIcEEEEEEENS3_IJNS2_3mapIS9_S9_NS2_4lessIS9_EENS7_INS2_4pairIKS9_S9_EEEEEEEEEEC1ENS_7RoutingERSF_PSI_ = weak_odr hidden unnamed_addr alias void (%"class.IPC::MessageT.206"*, i32, %"class.std::__1::basic_string"*, %"class.std::__1::map"*), void (%"class.IPC::MessageT.206"*, i32, %"class.std::__1::basic_string"*, %"class.std::__1::map"*)* @_ZN3IPC8MessageTI38ExtensionHostMsg_GetMessageBundle_MetaNSt3__15tupleIJNS2_12basic_stringIcNS2_11char_traitsIcEENS2_9allocatorIcEEEEEEENS3_IJNS2_3mapIS9_S9_NS2_4lessIS9_EENS7_INS2_4pairIKS9_S9_EEEEEEEEEEC2ENS_7RoutingERSF_PSI_
@_ZN3IPC8MessageTI45ExtensionHostMsg_ContentScriptsExecuting_MetaNSt3__15tupleIJNS2_3mapINS2_12basic_stringIcNS2_11char_traitsIcEENS2_9allocatorIcEEEENS2_3setISA_NS2_4lessISA_EENS8_ISA_EEEESD_NS8_INS2_4pairIKSA_SF_EEEEEE4GURLEEEvEC1ENS_7RoutingERKSK_RKSL_ = weak_odr hidden unnamed_addr alias void (%"class.IPC::MessageT.231"*, i32, %"class.std::__1::map.221"*, %class.GURL*), void (%"class.IPC::MessageT.231"*, i32, %"class.std::__1::map.221"*, %class.GURL*)* @_ZN3IPC8MessageTI45ExtensionHostMsg_ContentScriptsExecuting_MetaNSt3__15tupleIJNS2_3mapINS2_12basic_stringIcNS2_11char_traitsIcEENS2_9allocatorIcEEEENS2_3setISA_NS2_4lessISA_EENS8_ISA_EEEESD_NS8_INS2_4pairIKSA_SF_EEEEEE4GURLEEEvEC2ENS_7RoutingERKSK_RKSL_
@_ZN3IPC8MessageTI33ExtensionHostMsg_ResponseAck_MetaNSt3__15tupleIJiEEEvEC1ENS_7RoutingERKi = weak_odr hidden unnamed_addr alias void (%"class.IPC::MessageT.236"*, i32, i32*), void (%"class.IPC::MessageT.236"*, i32, i32*)* @_ZN3IPC8MessageTI33ExtensionHostMsg_ResponseAck_MetaNSt3__15tupleIJiEEEvEC2ENS_7RoutingERKi
@_ZN3IPC8MessageTI49ExtensionHostMsg_IncrementLazyKeepaliveCount_MetaNSt3__15tupleIJEEEvEC1ENS_7RoutingE = weak_odr hidden unnamed_addr alias void (%"class.IPC::MessageT.238"*, i32), void (%"class.IPC::MessageT.238"*, i32)* @_ZN3IPC8MessageTI49ExtensionHostMsg_IncrementLazyKeepaliveCount_MetaNSt3__15tupleIJEEEvEC2ENS_7RoutingE
@_ZN3IPC8MessageTI49ExtensionHostMsg_DecrementLazyKeepaliveCount_MetaNSt3__15tupleIJEEEvEC1ENS_7RoutingE = weak_odr hidden unnamed_addr alias void (%"class.IPC::MessageT.239"*, i32), void (%"class.IPC::MessageT.239"*, i32)* @_ZN3IPC8MessageTI49ExtensionHostMsg_DecrementLazyKeepaliveCount_MetaNSt3__15tupleIJEEEvEC2ENS_7RoutingE
@_ZN3IPC8MessageTI36ExtensionHostMsg_AppWindowReady_MetaNSt3__15tupleIJEEEvEC1ENS_7RoutingE = weak_odr hidden unnamed_addr alias void (%"class.IPC::MessageT.240"*, i32), void (%"class.IPC::MessageT.240"*, i32)* @_ZN3IPC8MessageTI36ExtensionHostMsg_AppWindowReady_MetaNSt3__15tupleIJEEEvEC2ENS_7RoutingE
@_ZN3IPC8MessageTI44ExtensionHostMsg_UpdateDraggableRegions_MetaNSt3__15tupleIJNS2_6vectorIN10extensions15DraggableRegionENS2_9allocatorIS6_EEEEEEEvEC1ENS_7RoutingERKS9_ = weak_odr hidden unnamed_addr alias void (%"class.IPC::MessageT.251"*, i32, %"class.std::__1::vector.244"*), void (%"class.IPC::MessageT.251"*, i32, %"class.std::__1::vector.244"*)* @_ZN3IPC8MessageTI44ExtensionHostMsg_UpdateDraggableRegions_MetaNSt3__15tupleIJNS2_6vectorIN10extensions15DraggableRegionENS2_9allocatorIS6_EEEEEEEvEC2ENS_7RoutingERKS9_
@_ZN3IPC8MessageTI47ExtensionHostMsg_AddAPIActionToActivityLog_MetaNSt3__15tupleIJNS2_12basic_stringIcNS2_11char_traitsIcEENS2_9allocatorIcEEEE40ExtensionHostMsg_APIActionOrEvent_ParamsEEEvEC1ENS_7RoutingERKS9_RKSA_ = weak_odr hidden unnamed_addr alias void (%"class.IPC::MessageT.258"*, i32, %"class.std::__1::basic_string"*, %struct.ExtensionHostMsg_APIActionOrEvent_Params*), void (%"class.IPC::MessageT.258"*, i32, %"class.std::__1::basic_string"*, %struct.ExtensionHostMsg_APIActionOrEvent_Params*)* @_ZN3IPC8MessageTI47ExtensionHostMsg_AddAPIActionToActivityLog_MetaNSt3__15tupleIJNS2_12basic_stringIcNS2_11char_traitsIcEENS2_9allocatorIcEEEE40ExtensionHostMsg_APIActionOrEvent_ParamsEEEvEC2ENS_7RoutingERKS9_RKSA_
@_ZN3IPC8MessageTI43ExtensionHostMsg_AddEventToActivityLog_MetaNSt3__15tupleIJNS2_12basic_stringIcNS2_11char_traitsIcEENS2_9allocatorIcEEEE40ExtensionHostMsg_APIActionOrEvent_ParamsEEEvEC1ENS_7RoutingERKS9_RKSA_ = weak_odr hidden unnamed_addr alias void (%"class.IPC::MessageT.262"*, i32, %"class.std::__1::basic_string"*, %struct.ExtensionHostMsg_APIActionOrEvent_Params*), void (%"class.IPC::MessageT.262"*, i32, %"class.std::__1::basic_string"*, %struct.ExtensionHostMsg_APIActionOrEvent_Params*)* @_ZN3IPC8MessageTI43ExtensionHostMsg_AddEventToActivityLog_MetaNSt3__15tupleIJNS2_12basic_stringIcNS2_11char_traitsIcEENS2_9allocatorIcEEEE40ExtensionHostMsg_APIActionOrEvent_ParamsEEEvEC2ENS_7RoutingERKS9_RKSA_
@_ZN3IPC8MessageTI47ExtensionHostMsg_AddDOMActionToActivityLog_MetaNSt3__15tupleIJNS2_12basic_stringIcNS2_11char_traitsIcEENS2_9allocatorIcEEEE33ExtensionHostMsg_DOMAction_ParamsEEEvEC1ENS_7RoutingERKS9_RKSA_ = weak_odr hidden unnamed_addr alias void (%"class.IPC::MessageT.275"*, i32, %"class.std::__1::basic_string"*, %struct.ExtensionHostMsg_DOMAction_Params*), void (%"class.IPC::MessageT.275"*, i32, %"class.std::__1::basic_string"*, %struct.ExtensionHostMsg_DOMAction_Params*)* @_ZN3IPC8MessageTI47ExtensionHostMsg_AddDOMActionToActivityLog_MetaNSt3__15tupleIJNS2_12basic_stringIcNS2_11char_traitsIcEENS2_9allocatorIcEEEE33ExtensionHostMsg_DOMAction_ParamsEEEvEC2ENS_7RoutingERKS9_RKSA_
@_ZN3IPC8MessageTI35ExtensionHostMsg_WakeEventPage_MetaNSt3__15tupleIJiNS2_12basic_stringIcNS2_11char_traitsIcEENS2_9allocatorIcEEEEEEEvEC1ENS_7RoutingERKiRKS9_ = weak_odr hidden unnamed_addr alias void (%"class.IPC::MessageT.281"*, i32, i32*, %"class.std::__1::basic_string"*), void (%"class.IPC::MessageT.281"*, i32, i32*, %"class.std::__1::basic_string"*)* @_ZN3IPC8MessageTI35ExtensionHostMsg_WakeEventPage_MetaNSt3__15tupleIJiNS2_12basic_stringIcNS2_11char_traitsIcEENS2_9allocatorIcEEEEEEEvEC2ENS_7RoutingERKiRKS9_
@_ZN3IPC8MessageTI49ExtensionHostMsg_DetailedConsoleMessageAdded_MetaNSt3__15tupleIJNS2_12basic_stringIDsNS2_11char_traitsIDsEENS2_9allocatorIDsEEEES9_NS2_6vectorIN10extensions10StackFrameENS7_ISC_EEEEiEEEvEC1ENS_7RoutingERKS9_SJ_RKSE_RKi = weak_odr hidden unnamed_addr alias void (%"class.IPC::MessageT.298"*, i32, %"class.std::__1::basic_string.266"*, %"class.std::__1::basic_string.266"*, %"class.std::__1::vector.289"*, i32*), void (%"class.IPC::MessageT.298"*, i32, %"class.std::__1::basic_string.266"*, %"class.std::__1::basic_string.266"*, %"class.std::__1::vector.289"*, i32*)* @_ZN3IPC8MessageTI49ExtensionHostMsg_DetailedConsoleMessageAdded_MetaNSt3__15tupleIJNS2_12basic_stringIDsNS2_11char_traitsIDsEENS2_9allocatorIDsEEEES9_NS2_6vectorIN10extensions10StackFrameENS7_ISC_EEEEiEEEvEC2ENS_7RoutingERKS9_SJ_RKSE_RKi
@_ZN3IPC8MessageTI41ExtensionMsg_AutomationQuerySelector_MetaNSt3__15tupleIJiiNS2_12basic_stringIDsNS2_11char_traitsIDsEENS2_9allocatorIDsEEEEEEEvEC1ENS_7RoutingERKiSE_RKS9_ = weak_odr hidden unnamed_addr alias void (%"class.IPC::MessageT.309"*, i32, i32*, i32*, %"class.std::__1::basic_string.266"*), void (%"class.IPC::MessageT.309"*, i32, i32*, i32*, %"class.std::__1::basic_string.266"*)* @_ZN3IPC8MessageTI41ExtensionMsg_AutomationQuerySelector_MetaNSt3__15tupleIJiiNS2_12basic_stringIDsNS2_11char_traitsIDsEENS2_9allocatorIDsEEEEEEEvEC2ENS_7RoutingERKiSE_RKS9_
@_ZN3IPC8MessageTI52ExtensionHostMsg_AutomationQuerySelector_Result_MetaNSt3__15tupleIJi46ExtensionHostMsg_AutomationQuerySelector_ErroriEEEvEC1ENS_7RoutingERKiRKS4_S9_ = weak_odr hidden unnamed_addr alias void (%"class.IPC::MessageT.318"*, i32, i32*, %struct.ExtensionHostMsg_AutomationQuerySelector_Error*, i32*), void (%"class.IPC::MessageT.318"*, i32, i32*, %struct.ExtensionHostMsg_AutomationQuerySelector_Error*, i32*)* @_ZN3IPC8MessageTI52ExtensionHostMsg_AutomationQuerySelector_Result_MetaNSt3__15tupleIJi46ExtensionHostMsg_AutomationQuerySelector_ErroriEEEvEC2ENS_7RoutingERKiRKS4_S9_
@_ZN3IPC8MessageTI35ExtensionHostMsg_RequestWorker_MetaNSt3__15tupleIJN10extensions5mojom13RequestParamsEEEEvEC1ENS_7RoutingERKS6_ = weak_odr hidden unnamed_addr alias void (%"class.IPC::MessageT.326"*, i32, %"class.extensions::mojom::RequestParams"*), void (%"class.IPC::MessageT.326"*, i32, %"class.extensions::mojom::RequestParams"*)* @_ZN3IPC8MessageTI35ExtensionHostMsg_RequestWorker_MetaNSt3__15tupleIJN10extensions5mojom13RequestParamsEEEEvEC2ENS_7RoutingERKS6_
@_ZN3IPC8MessageTI32ExtensionMsg_ResponseWorker_MetaNSt3__15tupleIJiibN4base9ListValueENS2_12basic_stringIcNS2_11char_traitsIcEENS2_9allocatorIcEEEEEEEvEC1ENS_7RoutingERKiSG_RKbRKS5_RKSB_ = weak_odr hidden unnamed_addr alias void (%"class.IPC::MessageT.334"*, i32, i32*, i32*, i8*, %"class.base::ListValue"*, %"class.std::__1::basic_string"*), void (%"class.IPC::MessageT.334"*, i32, i32*, i32*, i8*, %"class.base::ListValue"*, %"class.std::__1::basic_string"*)* @_ZN3IPC8MessageTI32ExtensionMsg_ResponseWorker_MetaNSt3__15tupleIJiibN4base9ListValueENS2_12basic_stringIcNS2_11char_traitsIcEENS2_9allocatorIcEEEEEEEvEC2ENS_7RoutingERKiSG_RKbRKS5_RKSB_
@_ZN3IPC8MessageTI52ExtensionHostMsg_IncrementServiceWorkerActivity_MetaNSt3__15tupleIJlNS2_12basic_stringIcNS2_11char_traitsIcEENS2_9allocatorIcEEEEEEEvEC1ENS_7RoutingERKlRKS9_ = weak_odr hidden unnamed_addr alias void (%"class.IPC::MessageT.342"*, i32, i64*, %"class.std::__1::basic_string"*), void (%"class.IPC::MessageT.342"*, i32, i64*, %"class.std::__1::basic_string"*)* @_ZN3IPC8MessageTI52ExtensionHostMsg_IncrementServiceWorkerActivity_MetaNSt3__15tupleIJlNS2_12basic_stringIcNS2_11char_traitsIcEENS2_9allocatorIcEEEEEEEvEC2ENS_7RoutingERKlRKS9_
@_ZN3IPC8MessageTI52ExtensionHostMsg_DecrementServiceWorkerActivity_MetaNSt3__15tupleIJlNS2_12basic_stringIcNS2_11char_traitsIcEENS2_9allocatorIcEEEEEEEvEC1ENS_7RoutingERKlRKS9_ = weak_odr hidden unnamed_addr alias void (%"class.IPC::MessageT.346"*, i32, i64*, %"class.std::__1::basic_string"*), void (%"class.IPC::MessageT.346"*, i32, i64*, %"class.std::__1::basic_string"*)* @_ZN3IPC8MessageTI52ExtensionHostMsg_DecrementServiceWorkerActivity_MetaNSt3__15tupleIJlNS2_12basic_stringIcNS2_11char_traitsIcEENS2_9allocatorIcEEEEEEEvEC2ENS_7RoutingERKlRKS9_
@_ZN3IPC8MessageTI36ExtensionHostMsg_EventAckWorker_MetaNSt3__15tupleIJNS2_12basic_stringIcNS2_11char_traitsIcEENS2_9allocatorIcEEEEliiEEEvEC1ENS_7RoutingERKS9_RKlRKiSI_ = weak_odr hidden unnamed_addr alias void (%"class.IPC::MessageT.350"*, i32, %"class.std::__1::basic_string"*, i64*, i32*, i32*), void (%"class.IPC::MessageT.350"*, i32, %"class.std::__1::basic_string"*, i64*, i32*, i32*)* @_ZN3IPC8MessageTI36ExtensionHostMsg_EventAckWorker_MetaNSt3__15tupleIJNS2_12basic_stringIcNS2_11char_traitsIcEENS2_9allocatorIcEEEEliiEEEvEC2ENS_7RoutingERKS9_RKlRKiSI_
@_ZN3IPC8MessageTI55ExtensionHostMsg_DidInitializeServiceWorkerContext_MetaNSt3__15tupleIJNS2_12basic_stringIcNS2_11char_traitsIcEENS2_9allocatorIcEEEEliEEEvEC1ENS_7RoutingERKS9_RKlRKi = weak_odr hidden unnamed_addr alias void (%"class.IPC::MessageT.357"*, i32, %"class.std::__1::basic_string"*, i64*, i32*), void (%"class.IPC::MessageT.357"*, i32, %"class.std::__1::basic_string"*, i64*, i32*)* @_ZN3IPC8MessageTI55ExtensionHostMsg_DidInitializeServiceWorkerContext_MetaNSt3__15tupleIJNS2_12basic_stringIcNS2_11char_traitsIcEENS2_9allocatorIcEEEEliEEEvEC2ENS_7RoutingERKS9_RKlRKi
@_ZN3IPC8MessageTI50ExtensionHostMsg_DidStartServiceWorkerContext_MetaNSt3__15tupleIJNS2_12basic_stringIcNS2_11char_traitsIcEENS2_9allocatorIcEEEEN4base11StrongAliasIN10extensions21ActivationSequenceTagEiEE4GURLliEEEvEC1ENS_7RoutingERKS9_RKSE_RKSF_RKlRKi = weak_odr hidden unnamed_addr alias void (%"class.IPC::MessageT.367"*, i32, %"class.std::__1::basic_string"*, %"class.base::StrongAlias"*, %class.GURL*, i64*, i32*), void (%"class.IPC::MessageT.367"*, i32, %"class.std::__1::basic_string"*, %"class.base::StrongAlias"*, %class.GURL*, i64*, i32*)* @_ZN3IPC8MessageTI50ExtensionHostMsg_DidStartServiceWorkerContext_MetaNSt3__15tupleIJNS2_12basic_stringIcNS2_11char_traitsIcEENS2_9allocatorIcEEEEN4base11StrongAliasIN10extensions21ActivationSequenceTagEiEE4GURLliEEEvEC2ENS_7RoutingERKS9_RKSE_RKSF_RKlRKi
@_ZN3IPC8MessageTI49ExtensionHostMsg_DidStopServiceWorkerContext_MetaNSt3__15tupleIJNS2_12basic_stringIcNS2_11char_traitsIcEENS2_9allocatorIcEEEEN4base11StrongAliasIN10extensions21ActivationSequenceTagEiEE4GURLliEEEvEC1ENS_7RoutingERKS9_RKSE_RKSF_RKlRKi = weak_odr hidden unnamed_addr alias void (%"class.IPC::MessageT.374"*, i32, %"class.std::__1::basic_string"*, %"class.base::StrongAlias"*, %class.GURL*, i64*, i32*), void (%"class.IPC::MessageT.374"*, i32, %"class.std::__1::basic_string"*, %"class.base::StrongAlias"*, %class.GURL*, i64*, i32*)* @_ZN3IPC8MessageTI49ExtensionHostMsg_DidStopServiceWorkerContext_MetaNSt3__15tupleIJNS2_12basic_stringIcNS2_11char_traitsIcEENS2_9allocatorIcEEEEN4base11StrongAliasIN10extensions21ActivationSequenceTagEiEE4GURLliEEEvEC2ENS_7RoutingERKS9_RKSE_RKSF_RKlRKi
@_ZN3IPC8MessageTI39ExtensionHostMsg_WorkerResponseAck_MetaNSt3__15tupleIJilEEEvEC1ENS_7RoutingERKiRKl = weak_odr hidden unnamed_addr alias void (%"class.IPC::MessageT.377"*, i32, i32*, i64*), void (%"class.IPC::MessageT.377"*, i32, i32*, i64*)* @_ZN3IPC8MessageTI39ExtensionHostMsg_WorkerResponseAck_MetaNSt3__15tupleIJilEEEvEC2ENS_7RoutingERKiRKl
@_ZN3IPC8MessageTI42ExtensionMsg_AccessibilityEventBundle_MetaNSt3__15tupleIJ43ExtensionMsg_AccessibilityEventBundleParamsbEEEvEC1ENS_7RoutingERKS4_RKb = weak_odr hidden unnamed_addr alias void (%"class.IPC::MessageT.486"*, i32, %struct.ExtensionMsg_AccessibilityEventBundleParams*, i8*), void (%"class.IPC::MessageT.486"*, i32, %struct.ExtensionMsg_AccessibilityEventBundleParams*, i8*)* @_ZN3IPC8MessageTI42ExtensionMsg_AccessibilityEventBundle_MetaNSt3__15tupleIJ43ExtensionMsg_AccessibilityEventBundleParamsbEEEvEC2ENS_7RoutingERKS4_RKb
@_ZN3IPC8MessageTI45ExtensionMsg_AccessibilityLocationChange_MetaNSt3__15tupleIJ46ExtensionMsg_AccessibilityLocationChangeParamsEEEvEC1ENS_7RoutingERKS4_ = weak_odr hidden unnamed_addr alias void (%"class.IPC::MessageT.493"*, i32, %struct.ExtensionMsg_AccessibilityLocationChangeParams*), void (%"class.IPC::MessageT.493"*, i32, %struct.ExtensionMsg_AccessibilityLocationChangeParams*)* @_ZN3IPC8MessageTI45ExtensionMsg_AccessibilityLocationChange_MetaNSt3__15tupleIJ46ExtensionMsg_AccessibilityLocationChangeParamsEEEvEC2ENS_7RoutingERKS4_
@_ZN3IPC8MessageTI59ExtensionsGuestViewHostMsg_CanExecuteContentScriptSync_MetaNSt3__15tupleIJiNS2_12basic_stringIcNS2_11char_traitsIcEENS2_9allocatorIcEEEEEEENS3_IJbEEEEC1ENS_7RoutingERKiRKS9_Pb = weak_odr hidden unnamed_addr alias void (%"class.IPC::MessageT.503"*, i32, i32*, %"class.std::__1::basic_string"*, i8*), void (%"class.IPC::MessageT.503"*, i32, i32*, %"class.std::__1::basic_string"*, i8*)* @_ZN3IPC8MessageTI59ExtensionsGuestViewHostMsg_CanExecuteContentScriptSync_MetaNSt3__15tupleIJiNS2_12basic_stringIcNS2_11char_traitsIcEENS2_9allocatorIcEEEEEEENS3_IJbEEEEC2ENS_7RoutingERKiRKS9_Pb
@_ZN40ExtensionHostMsg_APIActionOrEvent_ParamsC1Ev = hidden unnamed_addr alias void (%struct.ExtensionHostMsg_APIActionOrEvent_Params*), void (%struct.ExtensionHostMsg_APIActionOrEvent_Params*)* @_ZN40ExtensionHostMsg_APIActionOrEvent_ParamsC2Ev
@_ZN33ExtensionHostMsg_DOMAction_ParamsC1Ev = hidden unnamed_addr alias void (%struct.ExtensionHostMsg_DOMAction_Params*), void (%struct.ExtensionHostMsg_DOMAction_Params*)* @_ZN33ExtensionHostMsg_DOMAction_ParamsC2Ev
@_ZN33ExtensionMsg_DispatchEvent_ParamsC1Ev = hidden unnamed_addr alias void (%struct.ExtensionMsg_DispatchEvent_Params*), void (%struct.ExtensionMsg_DispatchEvent_Params*)* @_ZN33ExtensionMsg_DispatchEvent_ParamsC2Ev
@_ZN30ExtensionMsg_TabConnectionInfoC1Ev = hidden unnamed_addr alias void (%struct.ExtensionMsg_TabConnectionInfo*), void (%struct.ExtensionMsg_TabConnectionInfo*)* @_ZN30ExtensionMsg_TabConnectionInfoC2Ev
@_ZN36ExtensionMsg_TabTargetConnectionInfoC1Ev = hidden unnamed_addr alias void (%struct.ExtensionMsg_TabTargetConnectionInfo*), void (%struct.ExtensionMsg_TabTargetConnectionInfo*)* @_ZN36ExtensionMsg_TabTargetConnectionInfoC2Ev
@_ZN35ExtensionMsg_ExternalConnectionInfoC1Ev = hidden unnamed_addr alias void (%struct.ExtensionMsg_ExternalConnectionInfo*), void (%struct.ExtensionMsg_ExternalConnectionInfo*)* @_ZN35ExtensionMsg_ExternalConnectionInfoC2Ev
@_ZN23ServiceWorkerIdentifierC1Ev = hidden unnamed_addr alias void (%struct.ServiceWorkerIdentifier*), void (%struct.ServiceWorkerIdentifier*)* @_ZN23ServiceWorkerIdentifierC2Ev
@_ZN43ExtensionMsg_AccessibilityEventBundleParamsC1Ev = hidden unnamed_addr alias void (%struct.ExtensionMsg_AccessibilityEventBundleParams*), void (%struct.ExtensionMsg_AccessibilityEventBundleParams*)* @_ZN43ExtensionMsg_AccessibilityEventBundleParamsC2Ev
@_ZN46ExtensionMsg_AccessibilityLocationChangeParamsC1Ev = hidden unnamed_addr alias void (%struct.ExtensionMsg_AccessibilityLocationChangeParams*), void (%struct.ExtensionMsg_AccessibilityLocationChangeParams*)* @_ZN46ExtensionMsg_AccessibilityLocationChangeParamsC2Ev

; Function Attrs: nounwind ssp uwtable
define weak_odr hidden zeroext i1 @_ZN3IPC8MessageTI31ExtensionMsg_DispatchEvent_MetaNSt3__15tupleIJ33ExtensionMsg_DispatchEvent_ParamsN4base9ListValueEEEEvE4ReadEPKNS_7MessageEPS7_(%"class.IPC::Message"*, %"class.std::__1::tuple"*) local_unnamed_addr #0 comdat align 2 {
  %3 = alloca %"class.base::PickleIterator", align 8
  %4 = bitcast %"class.base::PickleIterator"* %3 to i8*
  call void @llvm.lifetime.start.p0i8(i64 24, i8* nonnull %4) #11
  %5 = getelementptr inbounds %"class.IPC::Message", %"class.IPC::Message"* %0, i64 0, i32 0
  %6 = bitcast %"class.base::PickleIterator"* %3 to i8*
  call void @llvm.memset.p0i8.i64(i8* nonnull align 8 %6, i8 -86, i64 24, i1 false)
  call void @_ZN4base14PickleIteratorC1ERKNS_6PickleE(%"class.base::PickleIterator"* nonnull %3, %"class.base::Pickle"* dereferenceable(40) %5) #11
  %7 = getelementptr inbounds %"class.std::__1::tuple", %"class.std::__1::tuple"* %1, i64 0, i32 0, i32 0, i32 0
  %8 = call zeroext i1 @_ZN3IPC11ParamTraitsI33ExtensionMsg_DispatchEvent_ParamsE4ReadEPKN4base6PickleEPNS3_14PickleIteratorEPS1_(%"class.base::Pickle"* %5, %"class.base::PickleIterator"* nonnull %3, %struct.ExtensionMsg_DispatchEvent_Params* %7) #11
  br i1 %8, label %9, label %12

9:                                                ; preds = %2
  %10 = getelementptr inbounds %"class.std::__1::tuple", %"class.std::__1::tuple"* %1, i64 0, i32 0, i32 1, i32 0
  %11 = call zeroext i1 @_ZN3IPC11ParamTraitsIN4base9ListValueEE4ReadEPKNS1_6PickleEPNS1_14PickleIteratorEPS2_(%"class.base::Pickle"* %5, %"class.base::PickleIterator"* nonnull %3, %"class.base::ListValue"* %10) #11
  br label %12

12:                                               ; preds = %2, %9
  %13 = phi i1 [ false, %2 ], [ %11, %9 ]
  call void @llvm.lifetime.end.p0i8(i64 24, i8* nonnull %4) #11
  ret i1 %13
}

; Function Attrs: argmemonly nounwind
declare void @llvm.lifetime.start.p0i8(i64 immarg, i8* nocapture) #1

declare void @_ZN4base14PickleIteratorC1ERKNS_6PickleE(%"class.base::PickleIterator"*, %"class.base::Pickle"* dereferenceable(40)) unnamed_addr #2

; Function Attrs: argmemonly nounwind
declare void @llvm.lifetime.end.p0i8(i64 immarg, i8* nocapture) #1

; Function Attrs: nounwind ssp uwtable
define weak_odr hidden void @_ZN3IPC8MessageTI31ExtensionMsg_DispatchEvent_MetaNSt3__15tupleIJ33ExtensionMsg_DispatchEvent_ParamsN4base9ListValueEEEEvE3LogEPNS2_12basic_stringIcNS2_11char_traitsIcEENS2_9allocatorIcEEEEPKNS_7MessageESF_(%"class.std::__1::basic_string"*, %"class.IPC::Message"*, %"class.std::__1::basic_string"*) local_unnamed_addr #0 comdat align 2 {
  %4 = alloca %"class.base::PickleIterator", align 8
  %5 = alloca %"class.std::__1::tuple", align 8
  %6 = icmp eq %"class.std::__1::basic_string"* %0, null
  br i1 %6, label %9, label %7

7:                                                ; preds = %3
  %8 = tail call dereferenceable(24) %"class.std::__1::basic_string"* @_ZNSt3__112basic_stringIcNS_11char_traitsIcEENS_9allocatorIcEEE17__assign_externalEPKcm(%"class.std::__1::basic_string"* nonnull %0, i8* getelementptr inbounds ([27 x i8], [27 x i8]* @_ZN31ExtensionMsg_DispatchEvent_Meta5kNameE, i64 0, i64 0), i64 26) #11
  br label %9

9:                                                ; preds = %7, %3
  %10 = icmp ne %"class.IPC::Message"* %1, null
  %11 = icmp ne %"class.std::__1::basic_string"* %2, null
  %12 = and i1 %10, %11
  br i1 %12, label %13, label %48

13:                                               ; preds = %9
  %14 = bitcast %"class.std::__1::tuple"* %5 to i8*
  call void @llvm.lifetime.start.p0i8(i64 304, i8* nonnull %14) #11
  call void @llvm.memset.p0i8.i64(i8* nonnull align 8 %14, i8 -86, i64 304, i1 false)
  %15 = getelementptr inbounds %"class.std::__1::tuple", %"class.std::__1::tuple"* %5, i64 0, i32 0, i32 0, i32 0, i32 0
  store i32 0, i32* %15, align 8
  %16 = getelementptr inbounds %"class.std::__1::tuple", %"class.std::__1::tuple"* %5, i64 0, i32 0, i32 0, i32 0, i32 1
  %17 = getelementptr inbounds %"class.std::__1::tuple", %"class.std::__1::tuple"* %5, i64 0, i32 0, i32 0, i32 0, i32 6
  %18 = bitcast %"class.std::__1::basic_string"* %16 to i8*
  call void @llvm.memset.p0i8.i64(i8* align 8 %18, i8 0, i64 53, i1 false) #11
  call void @_ZN10extensions18EventFilteringInfoC1Ev(%"struct.extensions::EventFilteringInfo"* %17) #11
  %19 = getelementptr inbounds %"class.std::__1::tuple", %"class.std::__1::tuple"* %5, i64 0, i32 0, i32 1, i32 0
  call void @_ZN4base9ListValueC1Ev(%"class.base::ListValue"* %19) #11
  %20 = bitcast %"class.base::PickleIterator"* %4 to i8*
  call void @llvm.lifetime.start.p0i8(i64 24, i8* nonnull %20) #11
  %21 = getelementptr inbounds %"class.IPC::Message", %"class.IPC::Message"* %1, i64 0, i32 0
  call void @llvm.memset.p0i8.i64(i8* nonnull align 8 %20, i8 -86, i64 24, i1 false) #11
  call void @_ZN4base14PickleIteratorC1ERKNS_6PickleE(%"class.base::PickleIterator"* nonnull %4, %"class.base::Pickle"* dereferenceable(40) %21) #11
  %22 = getelementptr inbounds %"class.std::__1::tuple", %"class.std::__1::tuple"* %5, i64 0, i32 0, i32 0, i32 0
  %23 = call zeroext i1 @_ZN3IPC11ParamTraitsI33ExtensionMsg_DispatchEvent_ParamsE4ReadEPKN4base6PickleEPNS3_14PickleIteratorEPS1_(%"class.base::Pickle"* %21, %"class.base::PickleIterator"* nonnull %4, %struct.ExtensionMsg_DispatchEvent_Params* nonnull %22) #11
  br i1 %23, label %25, label %24

24:                                               ; preds = %13
  call void @llvm.lifetime.end.p0i8(i64 24, i8* nonnull %20) #11
  br label %29

25:                                               ; preds = %13
  %26 = call zeroext i1 @_ZN3IPC11ParamTraitsIN4base9ListValueEE4ReadEPKNS1_6PickleEPNS1_14PickleIteratorEPS2_(%"class.base::Pickle"* %21, %"class.base::PickleIterator"* nonnull %4, %"class.base::ListValue"* %19) #11
  call void @llvm.lifetime.end.p0i8(i64 24, i8* nonnull %20) #11
  br i1 %26, label %27, label %29

27:                                               ; preds = %25
  call void @_ZN3IPC11ParamTraitsI33ExtensionMsg_DispatchEvent_ParamsE3LogERKS1_PNSt3__112basic_stringIcNS5_11char_traitsIcEENS5_9allocatorIcEEEE(%struct.ExtensionMsg_DispatchEvent_Params* nonnull dereferenceable(272) %22, %"class.std::__1::basic_string"* nonnull %2) #11
  %28 = call dereferenceable(24) %"class.std::__1::basic_string"* @_ZNSt3__112basic_stringIcNS_11char_traitsIcEENS_9allocatorIcEEE6appendEPKc(%"class.std::__1::basic_string"* nonnull %2, i8* getelementptr inbounds ([3 x i8], [3 x i8]* @.str.1, i64 0, i64 0)) #11
  call void @_ZN3IPC11ParamTraitsIN4base9ListValueEE3LogERKS2_PNSt3__112basic_stringIcNS6_11char_traitsIcEENS6_9allocatorIcEEEE(%"class.base::ListValue"* dereferenceable(32) %19, %"class.std::__1::basic_string"* nonnull %2) #11
  br label %29

29:                                               ; preds = %24, %27, %25
  %30 = getelementptr inbounds %"class.std::__1::tuple", %"class.std::__1::tuple"* %5, i64 0, i32 0, i32 1, i32 0, i32 0
  call void @_ZN4base5ValueD2Ev(%"class.base::Value"* %30) #11
  call void @_ZN10extensions18EventFilteringInfoD1Ev(%"struct.extensions::EventFilteringInfo"* %17) #11
  %31 = getelementptr inbounds %"class.std::__1::tuple", %"class.std::__1::tuple"* %5, i64 0, i32 0, i32 0, i32 0, i32 2
  %32 = bitcast %"class.std::__1::basic_string"* %31 to %"struct.std::__1::basic_string<char, std::__1::char_traits<char>, std::__1::allocator<char> >::__short"*
  %33 = getelementptr inbounds %"struct.std::__1::basic_string<char, std::__1::char_traits<char>, std::__1::allocator<char> >::__short", %"struct.std::__1::basic_string<char, std::__1::char_traits<char>, std::__1::allocator<char> >::__short"* %32, i64 0, i32 1, i32 0
  %34 = load i8, i8* %33, align 1
  %35 = icmp slt i8 %34, 0
  br i1 %35, label %36, label %39

36:                                               ; preds = %29
  %37 = getelementptr inbounds %"class.std::__1::basic_string", %"class.std::__1::basic_string"* %31, i64 0, i32 0, i32 0, i32 0, i32 0, i32 0, i32 0
  %38 = load i8*, i8** %37, align 8
  call void @_ZdlPv(i8* %38) #12
  br label %39

39:                                               ; preds = %36, %29
  %40 = bitcast %"class.std::__1::basic_string"* %16 to %"struct.std::__1::basic_string<char, std::__1::char_traits<char>, std::__1::allocator<char> >::__short"*
  %41 = getelementptr inbounds %"struct.std::__1::basic_string<char, std::__1::char_traits<char>, std::__1::allocator<char> >::__short", %"struct.std::__1::basic_string<char, std::__1::char_traits<char>, std::__1::allocator<char> >::__short"* %40, i64 0, i32 1, i32 0
  %42 = load i8, i8* %41, align 1
  %43 = icmp slt i8 %42, 0
  br i1 %43, label %44, label %47

44:                                               ; preds = %39
  %45 = getelementptr inbounds %"class.std::__1::basic_string", %"class.std::__1::basic_string"* %16, i64 0, i32 0, i32 0, i32 0, i32 0, i32 0, i32 0
  %46 = load i8*, i8** %45, align 8
  call void @_ZdlPv(i8* %46) #12
  br label %47

47:                                               ; preds = %39, %44
  call void @llvm.lifetime.end.p0i8(i64 304, i8* nonnull %14) #11
  br label %48

48:                                               ; preds = %9, %47
  ret void
}

; Function Attrs: argmemonly nounwind
declare void @llvm.memset.p0i8.i64(i8* nocapture writeonly, i8, i64, i1 immarg) #1

; Function Attrs: nounwind ssp uwtable
define weak_odr hidden void @_ZN3IPC8MessageTI31ExtensionMsg_DispatchEvent_MetaNSt3__15tupleIJ33ExtensionMsg_DispatchEvent_ParamsN4base9ListValueEEEEvEC2ENS_7RoutingERKS4_RKS6_(%"class.IPC::MessageT"*, i32, %struct.ExtensionMsg_DispatchEvent_Params* dereferenceable(272), %"class.base::ListValue"* dereferenceable(32)) unnamed_addr #0 comdat($_ZN3IPC8MessageTI31ExtensionMsg_DispatchEvent_MetaNSt3__15tupleIJ33ExtensionMsg_DispatchEvent_ParamsN4base9ListValueEEEEvEC5ENS_7RoutingERKS4_RKS6_) align 2 {
  %5 = alloca i32, align 4
  %6 = alloca i32, align 4
  %7 = alloca %"class.base::BasicStringPiece", align 8
  %8 = alloca %"class.base::BasicStringPiece", align 8
  %9 = alloca i32, align 4
  %10 = getelementptr inbounds %"class.IPC::MessageT", %"class.IPC::MessageT"* %0, i64 0, i32 0
  tail call void @_ZN3IPC7MessageC2EijNS0_13PriorityValueE(%"class.IPC::Message"* %10, i32 %1, i32 459070, i32 2) #11
  %11 = getelementptr inbounds %"class.IPC::MessageT", %"class.IPC::MessageT"* %0, i64 0, i32 0, i32 0, i32 0
  store i32 (...)** bitcast (i8** getelementptr inbounds ({ [7 x i8*] }, { [7 x i8*] }* @_ZTVN3IPC8MessageTI31ExtensionMsg_DispatchEvent_MetaNSt3__15tupleIJ33ExtensionMsg_DispatchEvent_ParamsN4base9ListValueEEEEvEE, i64 0, inrange i32 0, i64 2) to i32 (...)**), i32 (...)*** %11, align 8
  %12 = getelementptr inbounds %"class.IPC::MessageT", %"class.IPC::MessageT"* %0, i64 0, i32 0, i32 0
  %13 = getelementptr inbounds %struct.ExtensionMsg_DispatchEvent_Params, %struct.ExtensionMsg_DispatchEvent_Params* %2, i64 0, i32 0
  %14 = load i32, i32* %13, align 4
  %15 = bitcast i32* %9 to i8*
  call void @llvm.lifetime.start.p0i8(i64 4, i8* nonnull %15) #11
  store i32 %14, i32* %9, align 4
  call void @_ZN4base6Pickle16WriteBytesStaticILm4EEEvPKv(%"class.base::Pickle"* %12, i8* nonnull %15) #11
  call void @llvm.lifetime.end.p0i8(i64 4, i8* nonnull %15) #11
  %16 = getelementptr inbounds %struct.ExtensionMsg_DispatchEvent_Params, %struct.ExtensionMsg_DispatchEvent_Params* %2, i64 0, i32 1
  %17 = bitcast %"class.base::BasicStringPiece"* %8 to i8*
  call void @llvm.lifetime.start.p0i8(i64 16, i8* nonnull %17) #11
  %18 = getelementptr inbounds %"class.base::BasicStringPiece", %"class.base::BasicStringPiece"* %8, i64 0, i32 0
  %19 = bitcast %"class.std::__1::basic_string"* %16 to %"struct.std::__1::basic_string<char, std::__1::char_traits<char>, std::__1::allocator<char> >::__short"*
  %20 = getelementptr inbounds %"struct.std::__1::basic_string<char, std::__1::char_traits<char>, std::__1::allocator<char> >::__short", %"struct.std::__1::basic_string<char, std::__1::char_traits<char>, std::__1::allocator<char> >::__short"* %19, i64 0, i32 1, i32 0
  %21 = load i8, i8* %20, align 1
  %22 = icmp slt i8 %21, 0
  %23 = getelementptr inbounds %"class.std::__1::basic_string", %"class.std::__1::basic_string"* %16, i64 0, i32 0, i32 0, i32 0, i32 0, i32 0, i32 0
  %24 = load i8*, i8** %23, align 8
  %25 = bitcast %"class.std::__1::basic_string"* %16 to i8*
  %26 = select i1 %22, i8* %24, i8* %25
  store i8* %26, i8** %18, align 8
  %27 = getelementptr inbounds %"class.base::BasicStringPiece", %"class.base::BasicStringPiece"* %8, i64 0, i32 1
  %28 = getelementptr inbounds %struct.ExtensionMsg_DispatchEvent_Params, %struct.ExtensionMsg_DispatchEvent_Params* %2, i64 0, i32 1, i32 0, i32 0, i32 0, i32 0, i32 0, i32 1
  %29 = load i64, i64* %28, align 8
  %30 = zext i8 %21 to i64
  %31 = select i1 %22, i64 %29, i64 %30
  store i64 %31, i64* %27, align 8
  call void @_ZN4base6Pickle11WriteStringERKNS_16BasicStringPieceIcNSt3__111char_traitsIcEEEE(%"class.base::Pickle"* %12, %"class.base::BasicStringPiece"* nonnull dereferenceable(16) %8) #11
  call void @llvm.lifetime.end.p0i8(i64 16, i8* nonnull %17) #11
  %32 = getelementptr inbounds %struct.ExtensionMsg_DispatchEvent_Params, %struct.ExtensionMsg_DispatchEvent_Params* %2, i64 0, i32 2
  %33 = bitcast %"class.base::BasicStringPiece"* %7 to i8*
  call void @llvm.lifetime.start.p0i8(i64 16, i8* nonnull %33) #11
  %34 = getelementptr inbounds %"class.base::BasicStringPiece", %"class.base::BasicStringPiece"* %7, i64 0, i32 0
  %35 = bitcast %"class.std::__1::basic_string"* %32 to %"struct.std::__1::basic_string<char, std::__1::char_traits<char>, std::__1::allocator<char> >::__short"*
  %36 = getelementptr inbounds %"struct.std::__1::basic_string<char, std::__1::char_traits<char>, std::__1::allocator<char> >::__short", %"struct.std::__1::basic_string<char, std::__1::char_traits<char>, std::__1::allocator<char> >::__short"* %35, i64 0, i32 1, i32 0
  %37 = load i8, i8* %36, align 1
  %38 = icmp slt i8 %37, 0
  %39 = getelementptr inbounds %"class.std::__1::basic_string", %"class.std::__1::basic_string"* %32, i64 0, i32 0, i32 0, i32 0, i32 0, i32 0, i32 0
  %40 = load i8*, i8** %39, align 8
  %41 = bitcast %"class.std::__1::basic_string"* %32 to i8*
  %42 = select i1 %38, i8* %40, i8* %41
  store i8* %42, i8** %34, align 8
  %43 = getelementptr inbounds %"class.base::BasicStringPiece", %"class.base::BasicStringPiece"* %7, i64 0, i32 1
  %44 = getelementptr inbounds %struct.ExtensionMsg_DispatchEvent_Params, %struct.ExtensionMsg_DispatchEvent_Params* %2, i64 0, i32 2, i32 0, i32 0, i32 0, i32 0, i32 0, i32 1
  %45 = load i64, i64* %44, align 8
  %46 = zext i8 %37 to i64
  %47 = select i1 %38, i64 %45, i64 %46
  store i64 %47, i64* %43, align 8
  call void @_ZN4base6Pickle11WriteStringERKNS_16BasicStringPieceIcNSt3__111char_traitsIcEEEE(%"class.base::Pickle"* %12, %"class.base::BasicStringPiece"* nonnull dereferenceable(16) %7) #11
  call void @llvm.lifetime.end.p0i8(i64 16, i8* nonnull %33) #11
  %48 = getelementptr inbounds %struct.ExtensionMsg_DispatchEvent_Params, %struct.ExtensionMsg_DispatchEvent_Params* %2, i64 0, i32 3
  %49 = load i32, i32* %48, align 4
  %50 = bitcast i32* %6 to i8*
  call void @llvm.lifetime.start.p0i8(i64 4, i8* nonnull %50) #11
  store i32 %49, i32* %6, align 4
  call void @_ZN4base6Pickle16WriteBytesStaticILm4EEEvPKv(%"class.base::Pickle"* %12, i8* nonnull %50) #11
  call void @llvm.lifetime.end.p0i8(i64 4, i8* nonnull %50) #11
  %51 = getelementptr inbounds %struct.ExtensionMsg_DispatchEvent_Params, %struct.ExtensionMsg_DispatchEvent_Params* %2, i64 0, i32 4
  %52 = load i8, i8* %51, align 1, !range !2
  %53 = zext i8 %52 to i32
  %54 = bitcast i32* %5 to i8*
  call void @llvm.lifetime.start.p0i8(i64 4, i8* nonnull %54) #11
  store i32 %53, i32* %5, align 4
  call void @_ZN4base6Pickle16WriteBytesStaticILm4EEEvPKv(%"class.base::Pickle"* %12, i8* nonnull %54) #11
  call void @llvm.lifetime.end.p0i8(i64 4, i8* nonnull %54) #11
  %55 = getelementptr inbounds %struct.ExtensionMsg_DispatchEvent_Params, %struct.ExtensionMsg_DispatchEvent_Params* %2, i64 0, i32 6
  call void @_ZN3IPC11ParamTraitsIN10extensions18EventFilteringInfoEE5WriteEPN4base6PickleERKS2_(%"class.base::Pickle"* %12, %"struct.extensions::EventFilteringInfo"* dereferenceable(208) %55) #11
  call void @_ZN3IPC11ParamTraitsIN4base9ListValueEE5WriteEPNS1_6PickleERKS2_(%"class.base::Pickle"* %12, %"class.base::ListValue"* dereferenceable(32) %3) #11
  ret void
}

declare void @_ZN3IPC7MessageC2EijNS0_13PriorityValueE(%"class.IPC::Message"*, i32, i32, i32) unnamed_addr #2

; Function Attrs: nounwind ssp uwtable
define weak_odr hidden zeroext i1 @_ZN3IPC8MessageTI39ExtensionMsg_UpdateBrowserWindowId_MetaNSt3__15tupleIJiEEEvE4ReadEPKNS_7MessageEPS4_(%"class.IPC::Message"*, %"class.std::__1::tuple.52"*) local_unnamed_addr #0 comdat align 2 {
  %3 = alloca %"class.base::PickleIterator", align 8
  %4 = bitcast %"class.base::PickleIterator"* %3 to i8*
  call void @llvm.lifetime.start.p0i8(i64 24, i8* nonnull %4) #11
  %5 = getelementptr inbounds %"class.IPC::Message", %"class.IPC::Message"* %0, i64 0, i32 0
  %6 = bitcast %"class.base::PickleIterator"* %3 to i8*
  call void @llvm.memset.p0i8.i64(i8* nonnull align 8 %6, i8 -86, i64 24, i1 false)
  call void @_ZN4base14PickleIteratorC1ERKNS_6PickleE(%"class.base::PickleIterator"* nonnull %3, %"class.base::Pickle"* dereferenceable(40) %5) #11
  %7 = getelementptr inbounds %"class.std::__1::tuple.52", %"class.std::__1::tuple.52"* %1, i64 0, i32 0, i32 0, i32 0
  %8 = call zeroext i1 @_ZN4base14PickleIterator7ReadIntEPi(%"class.base::PickleIterator"* nonnull %3, i32* %7) #11
  call void @llvm.lifetime.end.p0i8(i64 24, i8* nonnull %4) #11
  ret i1 %8
}

; Function Attrs: nounwind ssp uwtable
define weak_odr hidden void @_ZN3IPC8MessageTI39ExtensionMsg_UpdateBrowserWindowId_MetaNSt3__15tupleIJiEEEvE3LogEPNS2_12basic_stringIcNS2_11char_traitsIcEENS2_9allocatorIcEEEEPKNS_7MessageESC_(%"class.std::__1::basic_string"*, %"class.IPC::Message"*, %"class.std::__1::basic_string"*) local_unnamed_addr #0 comdat align 2 {
  %4 = alloca %"class.base::PickleIterator", align 8
  %5 = alloca %"class.std::__1::tuple.52", align 4
  %6 = icmp eq %"class.std::__1::basic_string"* %0, null
  br i1 %6, label %9, label %7

7:                                                ; preds = %3
  %8 = tail call dereferenceable(24) %"class.std::__1::basic_string"* @_ZNSt3__112basic_stringIcNS_11char_traitsIcEENS_9allocatorIcEEE17__assign_externalEPKcm(%"class.std::__1::basic_string"* nonnull %0, i8* getelementptr inbounds ([35 x i8], [35 x i8]* @_ZN39ExtensionMsg_UpdateBrowserWindowId_Meta5kNameE, i64 0, i64 0), i64 34) #11
  br label %9

9:                                                ; preds = %7, %3
  %10 = icmp ne %"class.IPC::Message"* %1, null
  %11 = icmp ne %"class.std::__1::basic_string"* %2, null
  %12 = and i1 %10, %11
  br i1 %12, label %13, label %21

13:                                               ; preds = %9
  %14 = bitcast %"class.std::__1::tuple.52"* %5 to i8*
  call void @llvm.lifetime.start.p0i8(i64 4, i8* nonnull %14) #11
  %15 = getelementptr inbounds %"class.std::__1::tuple.52", %"class.std::__1::tuple.52"* %5, i64 0, i32 0, i32 0, i32 0
  store i32 0, i32* %15, align 4
  %16 = bitcast %"class.base::PickleIterator"* %4 to i8*
  call void @llvm.lifetime.start.p0i8(i64 24, i8* nonnull %16) #11
  %17 = getelementptr inbounds %"class.IPC::Message", %"class.IPC::Message"* %1, i64 0, i32 0
  call void @llvm.memset.p0i8.i64(i8* nonnull align 8 %16, i8 -86, i64 24, i1 false) #11
  call void @_ZN4base14PickleIteratorC1ERKNS_6PickleE(%"class.base::PickleIterator"* nonnull %4, %"class.base::Pickle"* dereferenceable(40) %17) #11
  %18 = call zeroext i1 @_ZN4base14PickleIterator7ReadIntEPi(%"class.base::PickleIterator"* nonnull %4, i32* nonnull %15) #11
  call void @llvm.lifetime.end.p0i8(i64 24, i8* nonnull %16) #11
  br i1 %18, label %19, label %20

19:                                               ; preds = %13
  call void @_ZN3IPC11ParamTraitsIiE3LogERKiPNSt3__112basic_stringIcNS4_11char_traitsIcEENS4_9allocatorIcEEEE(i32* nonnull dereferenceable(4) %15, %"class.std::__1::basic_string"* nonnull %2) #11
  br label %20

20:                                               ; preds = %19, %13
  call void @llvm.lifetime.end.p0i8(i64 4, i8* nonnull %14) #11
  br label %21

21:                                               ; preds = %9, %20
  ret void
}

; Function Attrs: nounwind ssp uwtable
define weak_odr hidden void @_ZN3IPC8MessageTI39ExtensionMsg_UpdateBrowserWindowId_MetaNSt3__15tupleIJiEEEvEC2ENS_7RoutingERKi(%"class.IPC::MessageT.55"*, i32, i32* dereferenceable(4)) unnamed_addr #0 comdat($_ZN3IPC8MessageTI39ExtensionMsg_UpdateBrowserWindowId_MetaNSt3__15tupleIJiEEEvEC5ENS_7RoutingERKi) align 2 {
  %4 = alloca i32, align 4
  %5 = getelementptr inbounds %"class.IPC::MessageT.55", %"class.IPC::MessageT.55"* %0, i64 0, i32 0
  tail call void @_ZN3IPC7MessageC2EijNS0_13PriorityValueE(%"class.IPC::Message"* %5, i32 %1, i32 459074, i32 2) #11
  %6 = getelementptr inbounds %"class.IPC::MessageT.55", %"class.IPC::MessageT.55"* %0, i64 0, i32 0, i32 0, i32 0
  store i32 (...)** bitcast (i8** getelementptr inbounds ({ [7 x i8*] }, { [7 x i8*] }* @_ZTVN3IPC8MessageTI39ExtensionMsg_UpdateBrowserWindowId_MetaNSt3__15tupleIJiEEEvEE, i64 0, inrange i32 0, i64 2) to i32 (...)**), i32 (...)*** %6, align 8
  %7 = getelementptr inbounds %"class.IPC::MessageT.55", %"class.IPC::MessageT.55"* %0, i64 0, i32 0, i32 0
  %8 = load i32, i32* %2, align 4
  %9 = bitcast i32* %4 to i8*
  call void @llvm.lifetime.start.p0i8(i64 4, i8* nonnull %9) #11
  store i32 %8, i32* %4, align 4
  call void @_ZN4base6Pickle16WriteBytesStaticILm4EEEvPKv(%"class.base::Pickle"* %7, i8* nonnull %9) #11
  call void @llvm.lifetime.end.p0i8(i64 4, i8* nonnull %9) #11
  ret void
}

; Function Attrs: nounwind ssp uwtable
define weak_odr hidden zeroext i1 @_ZN3IPC8MessageTI39ExtensionMsg_WakeEventPageResponse_MetaNSt3__15tupleIJibEEEvE4ReadEPKNS_7MessageEPS4_(%"class.IPC::Message"*, %"class.std::__1::tuple.59"*) local_unnamed_addr #0 comdat align 2 {
  %3 = alloca %"class.base::PickleIterator", align 8
  %4 = bitcast %"class.base::PickleIterator"* %3 to i8*
  call void @llvm.lifetime.start.p0i8(i64 24, i8* nonnull %4) #11
  %5 = getelementptr inbounds %"class.IPC::Message", %"class.IPC::Message"* %0, i64 0, i32 0
  %6 = bitcast %"class.base::PickleIterator"* %3 to i8*
  call void @llvm.memset.p0i8.i64(i8* nonnull align 8 %6, i8 -86, i64 24, i1 false)
  call void @_ZN4base14PickleIteratorC1ERKNS_6PickleE(%"class.base::PickleIterator"* nonnull %3, %"class.base::Pickle"* dereferenceable(40) %5) #11
  %7 = getelementptr inbounds %"class.std::__1::tuple.59", %"class.std::__1::tuple.59"* %1, i64 0, i32 0, i32 0, i32 0
  %8 = call zeroext i1 @_ZN4base14PickleIterator7ReadIntEPi(%"class.base::PickleIterator"* nonnull %3, i32* %7) #11
  br i1 %8, label %9, label %12

9:                                                ; preds = %2
  %10 = getelementptr inbounds %"class.std::__1::tuple.59", %"class.std::__1::tuple.59"* %1, i64 0, i32 0, i32 1, i32 0
  %11 = call zeroext i1 @_ZN4base14PickleIterator8ReadBoolEPb(%"class.base::PickleIterator"* nonnull %3, i8* %10) #11
  br label %12

12:                                               ; preds = %2, %9
  %13 = phi i1 [ false, %2 ], [ %11, %9 ]
  call void @llvm.lifetime.end.p0i8(i64 24, i8* nonnull %4) #11
  ret i1 %13
}

; Function Attrs: nounwind ssp uwtable
define weak_odr hidden void @_ZN3IPC8MessageTI39ExtensionMsg_WakeEventPageResponse_MetaNSt3__15tupleIJibEEEvE3LogEPNS2_12basic_stringIcNS2_11char_traitsIcEENS2_9allocatorIcEEEEPKNS_7MessageESC_(%"class.std::__1::basic_string"*, %"class.IPC::Message"*, %"class.std::__1::basic_string"*) local_unnamed_addr #0 comdat align 2 {
  %4 = alloca %"class.base::PickleIterator", align 8
  %5 = alloca i64, align 8
  %6 = bitcast i64* %5 to %"class.std::__1::tuple.59"*
  %7 = icmp eq %"class.std::__1::basic_string"* %0, null
  br i1 %7, label %10, label %8

8:                                                ; preds = %3
  %9 = tail call dereferenceable(24) %"class.std::__1::basic_string"* @_ZNSt3__112basic_stringIcNS_11char_traitsIcEENS_9allocatorIcEEE17__assign_externalEPKcm(%"class.std::__1::basic_string"* nonnull %0, i8* getelementptr inbounds ([35 x i8], [35 x i8]* @_ZN39ExtensionMsg_WakeEventPageResponse_Meta5kNameE, i64 0, i64 0), i64 34) #11
  br label %10

10:                                               ; preds = %8, %3
  %11 = icmp ne %"class.IPC::Message"* %1, null
  %12 = icmp ne %"class.std::__1::basic_string"* %2, null
  %13 = and i1 %11, %12
  br i1 %13, label %14, label %27

14:                                               ; preds = %10
  %15 = bitcast i64* %5 to i8*
  call void @llvm.lifetime.start.p0i8(i64 8, i8* nonnull %15) #11
  %16 = bitcast i64* %5 to i32*
  %17 = getelementptr inbounds %"class.std::__1::tuple.59", %"class.std::__1::tuple.59"* %6, i64 0, i32 0, i32 1, i32 0
  store i64 -6148915424244269056, i64* %5, align 8
  %18 = bitcast %"class.base::PickleIterator"* %4 to i8*
  call void @llvm.lifetime.start.p0i8(i64 24, i8* nonnull %18) #11
  %19 = getelementptr inbounds %"class.IPC::Message", %"class.IPC::Message"* %1, i64 0, i32 0
  call void @llvm.memset.p0i8.i64(i8* nonnull align 8 %18, i8 -86, i64 24, i1 false) #11
  call void @_ZN4base14PickleIteratorC1ERKNS_6PickleE(%"class.base::PickleIterator"* nonnull %4, %"class.base::Pickle"* dereferenceable(40) %19) #11
  %20 = call zeroext i1 @_ZN4base14PickleIterator7ReadIntEPi(%"class.base::PickleIterator"* nonnull %4, i32* nonnull %16) #11
  br i1 %20, label %22, label %21

21:                                               ; preds = %14
  call void @llvm.lifetime.end.p0i8(i64 24, i8* nonnull %18) #11
  br label %26

22:                                               ; preds = %14
  %23 = call zeroext i1 @_ZN4base14PickleIterator8ReadBoolEPb(%"class.base::PickleIterator"* nonnull %4, i8* %17) #11
  call void @llvm.lifetime.end.p0i8(i64 24, i8* nonnull %18) #11
  br i1 %23, label %24, label %26

24:                                               ; preds = %22
  call void @_ZN3IPC11ParamTraitsIiE3LogERKiPNSt3__112basic_stringIcNS4_11char_traitsIcEENS4_9allocatorIcEEEE(i32* nonnull dereferenceable(4) %16, %"class.std::__1::basic_string"* nonnull %2) #11
  %25 = call dereferenceable(24) %"class.std::__1::basic_string"* @_ZNSt3__112basic_stringIcNS_11char_traitsIcEENS_9allocatorIcEEE6appendEPKc(%"class.std::__1::basic_string"* nonnull %2, i8* getelementptr inbounds ([3 x i8], [3 x i8]* @.str.1, i64 0, i64 0)) #11
  call void @_ZN3IPC11ParamTraitsIbE3LogERKbPNSt3__112basic_stringIcNS4_11char_traitsIcEENS4_9allocatorIcEEEE(i8* dereferenceable(1) %17, %"class.std::__1::basic_string"* nonnull %2) #11
  br label %26

26:                                               ; preds = %21, %24, %22
  call void @llvm.lifetime.end.p0i8(i64 8, i8* nonnull %15) #11
  br label %27

27:                                               ; preds = %10, %26
  ret void
}

; Function Attrs: nounwind ssp uwtable
define weak_odr hidden void @_ZN3IPC8MessageTI39ExtensionMsg_WakeEventPageResponse_MetaNSt3__15tupleIJibEEEvEC2ENS_7RoutingERKiRKb(%"class.IPC::MessageT.62"*, i32, i32* dereferenceable(4), i8* dereferenceable(1)) unnamed_addr #0 comdat($_ZN3IPC8MessageTI39ExtensionMsg_WakeEventPageResponse_MetaNSt3__15tupleIJibEEEvEC5ENS_7RoutingERKiRKb) align 2 {
  %5 = alloca i32, align 4
  %6 = alloca i32, align 4
  %7 = getelementptr inbounds %"class.IPC::MessageT.62", %"class.IPC::MessageT.62"* %0, i64 0, i32 0
  tail call void @_ZN3IPC7MessageC2EijNS0_13PriorityValueE(%"class.IPC::Message"* %7, i32 %1, i32 459079, i32 2) #11
  %8 = getelementptr inbounds %"class.IPC::MessageT.62", %"class.IPC::MessageT.62"* %0, i64 0, i32 0, i32 0, i32 0
  store i32 (...)** bitcast (i8** getelementptr inbounds ({ [7 x i8*] }, { [7 x i8*] }* @_ZTVN3IPC8MessageTI39ExtensionMsg_WakeEventPageResponse_MetaNSt3__15tupleIJibEEEvEE, i64 0, inrange i32 0, i64 2) to i32 (...)**), i32 (...)*** %8, align 8
  %9 = getelementptr inbounds %"class.IPC::MessageT.62", %"class.IPC::MessageT.62"* %0, i64 0, i32 0, i32 0
  %10 = load i32, i32* %2, align 4
  %11 = bitcast i32* %5 to i8*
  call void @llvm.lifetime.start.p0i8(i64 4, i8* nonnull %11) #11
  store i32 %10, i32* %5, align 4
  call void @_ZN4base6Pickle16WriteBytesStaticILm4EEEvPKv(%"class.base::Pickle"* %9, i8* nonnull %11) #11
  call void @llvm.lifetime.end.p0i8(i64 4, i8* nonnull %11) #11
  %12 = load i8, i8* %3, align 1, !range !2
  %13 = zext i8 %12 to i32
  %14 = bitcast i32* %6 to i8*
  call void @llvm.lifetime.start.p0i8(i64 4, i8* nonnull %14) #11
  store i32 %13, i32* %6, align 4
  call void @_ZN4base6Pickle16WriteBytesStaticILm4EEEvPKv(%"class.base::Pickle"* %9, i8* nonnull %14) #11
  call void @llvm.lifetime.end.p0i8(i64 4, i8* nonnull %14) #11
  ret void
}

; Function Attrs: nounwind ssp uwtable
define weak_odr hidden zeroext i1 @_ZN3IPC8MessageTI37ExtensionMsg_ValidateMessagePort_MetaNSt3__15tupleIJiN10extensions6PortIdEEEEvE4ReadEPKNS_7MessageEPS6_(%"class.IPC::Message"*, %"class.std::__1::tuple.66"*) local_unnamed_addr #0 comdat align 2 {
  %3 = alloca %"class.base::PickleIterator", align 8
  %4 = bitcast %"class.base::PickleIterator"* %3 to i8*
  call void @llvm.lifetime.start.p0i8(i64 24, i8* nonnull %4) #11
  %5 = getelementptr inbounds %"class.IPC::Message", %"class.IPC::Message"* %0, i64 0, i32 0
  %6 = bitcast %"class.base::PickleIterator"* %3 to i8*
  call void @llvm.memset.p0i8.i64(i8* nonnull align 8 %6, i8 -86, i64 24, i1 false)
  call void @_ZN4base14PickleIteratorC1ERKNS_6PickleE(%"class.base::PickleIterator"* nonnull %3, %"class.base::Pickle"* dereferenceable(40) %5) #11
  %7 = getelementptr inbounds %"class.std::__1::tuple.66", %"class.std::__1::tuple.66"* %1, i64 0, i32 0, i32 0, i32 0
  %8 = call zeroext i1 @_ZN4base14PickleIterator7ReadIntEPi(%"class.base::PickleIterator"* nonnull %3, i32* %7) #11
  br i1 %8, label %9, label %18

9:                                                ; preds = %2
  %10 = getelementptr inbounds %"class.std::__1::tuple.66", %"class.std::__1::tuple.66"* %1, i64 0, i32 0, i32 2, i32 0, i32 0
  %11 = call zeroext i1 @_ZN3IPC11ParamTraitsIN4base16UnguessableTokenEE4ReadEPKNS1_6PickleEPNS1_14PickleIteratorEPS2_(%"class.base::Pickle"* %5, %"class.base::PickleIterator"* nonnull %3, %"class.base::UnguessableToken"* %10) #11
  br i1 %11, label %12, label %18

12:                                               ; preds = %9
  %13 = getelementptr inbounds %"class.std::__1::tuple.66", %"class.std::__1::tuple.66"* %1, i64 0, i32 0, i32 2, i32 0, i32 1
  %14 = call zeroext i1 @_ZN4base14PickleIterator7ReadIntEPi(%"class.base::PickleIterator"* nonnull %3, i32* %13) #11
  br i1 %14, label %15, label %18

15:                                               ; preds = %12
  %16 = getelementptr inbounds %"class.std::__1::tuple.66", %"class.std::__1::tuple.66"* %1, i64 0, i32 0, i32 2, i32 0, i32 2
  %17 = call zeroext i1 @_ZN4base14PickleIterator8ReadBoolEPb(%"class.base::PickleIterator"* nonnull %3, i8* %16) #11
  br label %18

18:                                               ; preds = %2, %9, %12, %15
  %19 = phi i1 [ false, %2 ], [ %17, %15 ], [ false, %12 ], [ false, %9 ]
  call void @llvm.lifetime.end.p0i8(i64 24, i8* nonnull %4) #11
  ret i1 %19
}

; Function Attrs: nounwind ssp uwtable
define weak_odr hidden void @_ZN3IPC8MessageTI37ExtensionMsg_ValidateMessagePort_MetaNSt3__15tupleIJiN10extensions6PortIdEEEEvE3LogEPNS2_12basic_stringIcNS2_11char_traitsIcEENS2_9allocatorIcEEEEPKNS_7MessageESE_(%"class.std::__1::basic_string"*, %"class.IPC::Message"*, %"class.std::__1::basic_string"*) local_unnamed_addr #0 comdat align 2 {
  %4 = alloca %"class.base::PickleIterator", align 8
  %5 = alloca %"class.std::__1::tuple.66", align 8
  %6 = icmp eq %"class.std::__1::basic_string"* %0, null
  br i1 %6, label %9, label %7

7:                                                ; preds = %3
  %8 = tail call dereferenceable(24) %"class.std::__1::basic_string"* @_ZNSt3__112basic_stringIcNS_11char_traitsIcEENS_9allocatorIcEEE17__assign_externalEPKcm(%"class.std::__1::basic_string"* nonnull %0, i8* getelementptr inbounds ([33 x i8], [33 x i8]* @_ZN37ExtensionMsg_ValidateMessagePort_Meta5kNameE, i64 0, i64 0), i64 32) #11
  br label %9

9:                                                ; preds = %7, %3
  %10 = icmp ne %"class.IPC::Message"* %1, null
  %11 = icmp ne %"class.std::__1::basic_string"* %2, null
  %12 = and i1 %10, %11
  br i1 %12, label %13, label %38

13:                                               ; preds = %9
  %14 = bitcast %"class.std::__1::tuple.66"* %5 to i8*
  call void @llvm.lifetime.start.p0i8(i64 32, i8* nonnull %14) #11
  %15 = getelementptr inbounds %"class.std::__1::tuple.66", %"class.std::__1::tuple.66"* %5, i64 0, i32 0, i32 0, i32 0
  %16 = getelementptr inbounds %"class.std::__1::tuple.66", %"class.std::__1::tuple.66"* %5, i64 0, i32 0, i32 2, i32 0, i32 1
  %17 = getelementptr inbounds %"class.std::__1::tuple.66", %"class.std::__1::tuple.66"* %5, i64 0, i32 0, i32 2, i32 0, i32 2
  %18 = bitcast %"class.std::__1::tuple.66"* %5 to i8*
  call void @llvm.memset.p0i8.i64(i8* nonnull align 8 %18, i8 -86, i64 32, i1 false)
  store i32 0, i32* %15, align 8
  %19 = getelementptr inbounds %"class.std::__1::tuple.66", %"class.std::__1::tuple.66"* %5, i64 0, i32 0, i32 2, i32 0
  call void @_ZN10extensions6PortIdC1Ev(%"struct.extensions::PortId"* %19) #11
  %20 = bitcast %"class.base::PickleIterator"* %4 to i8*
  call void @llvm.lifetime.start.p0i8(i64 24, i8* nonnull %20) #11
  %21 = getelementptr inbounds %"class.IPC::Message", %"class.IPC::Message"* %1, i64 0, i32 0
  call void @llvm.memset.p0i8.i64(i8* nonnull align 8 %20, i8 -86, i64 24, i1 false) #11
  call void @_ZN4base14PickleIteratorC1ERKNS_6PickleE(%"class.base::PickleIterator"* nonnull %4, %"class.base::Pickle"* dereferenceable(40) %21) #11
  %22 = call zeroext i1 @_ZN4base14PickleIterator7ReadIntEPi(%"class.base::PickleIterator"* nonnull %4, i32* nonnull %15) #11
  br i1 %22, label %23, label %28

23:                                               ; preds = %13
  %24 = getelementptr inbounds %"class.std::__1::tuple.66", %"class.std::__1::tuple.66"* %5, i64 0, i32 0, i32 2, i32 0, i32 0
  %25 = call zeroext i1 @_ZN3IPC11ParamTraitsIN4base16UnguessableTokenEE4ReadEPKNS1_6PickleEPNS1_14PickleIteratorEPS2_(%"class.base::Pickle"* %21, %"class.base::PickleIterator"* nonnull %4, %"class.base::UnguessableToken"* %24) #11
  br i1 %25, label %26, label %28

26:                                               ; preds = %23
  %27 = call zeroext i1 @_ZN4base14PickleIterator7ReadIntEPi(%"class.base::PickleIterator"* nonnull %4, i32* %16) #11
  br i1 %27, label %29, label %28

28:                                               ; preds = %13, %26, %23
  call void @llvm.lifetime.end.p0i8(i64 24, i8* nonnull %20) #11
  br label %37

29:                                               ; preds = %26
  %30 = call zeroext i1 @_ZN4base14PickleIterator8ReadBoolEPb(%"class.base::PickleIterator"* nonnull %4, i8* %17) #11
  call void @llvm.lifetime.end.p0i8(i64 24, i8* nonnull %20) #11
  br i1 %30, label %31, label %37

31:                                               ; preds = %29
  call void @_ZN3IPC11ParamTraitsIiE3LogERKiPNSt3__112basic_stringIcNS4_11char_traitsIcEENS4_9allocatorIcEEEE(i32* nonnull dereferenceable(4) %15, %"class.std::__1::basic_string"* nonnull %2) #11
  %32 = call dereferenceable(24) %"class.std::__1::basic_string"* @_ZNSt3__112basic_stringIcNS_11char_traitsIcEENS_9allocatorIcEEE6appendEPKc(%"class.std::__1::basic_string"* nonnull %2, i8* getelementptr inbounds ([3 x i8], [3 x i8]* @.str.1, i64 0, i64 0)) #11
  %33 = call dereferenceable(24) %"class.std::__1::basic_string"* @_ZNSt3__112basic_stringIcNS_11char_traitsIcEENS_9allocatorIcEEE6appendEPKc(%"class.std::__1::basic_string"* nonnull %2, i8* getelementptr inbounds ([2 x i8], [2 x i8]* @.str, i64 0, i64 0)) #11
  call void @_ZN3IPC11ParamTraitsIN4base16UnguessableTokenEE3LogERKS2_PNSt3__112basic_stringIcNS6_11char_traitsIcEENS6_9allocatorIcEEEE(%"class.base::UnguessableToken"* dereferenceable(16) %24, %"class.std::__1::basic_string"* nonnull %2) #11
  %34 = call dereferenceable(24) %"class.std::__1::basic_string"* @_ZNSt3__112basic_stringIcNS_11char_traitsIcEENS_9allocatorIcEEE6appendEPKc(%"class.std::__1::basic_string"* nonnull %2, i8* getelementptr inbounds ([3 x i8], [3 x i8]* @.str.1, i64 0, i64 0)) #11
  call void @_ZN3IPC11ParamTraitsIiE3LogERKiPNSt3__112basic_stringIcNS4_11char_traitsIcEENS4_9allocatorIcEEEE(i32* dereferenceable(4) %16, %"class.std::__1::basic_string"* nonnull %2) #11
  %35 = call dereferenceable(24) %"class.std::__1::basic_string"* @_ZNSt3__112basic_stringIcNS_11char_traitsIcEENS_9allocatorIcEEE6appendEPKc(%"class.std::__1::basic_string"* nonnull %2, i8* getelementptr inbounds ([3 x i8], [3 x i8]* @.str.1, i64 0, i64 0)) #11
  call void @_ZN3IPC11ParamTraitsIbE3LogERKbPNSt3__112basic_stringIcNS4_11char_traitsIcEENS4_9allocatorIcEEEE(i8* dereferenceable(1) %17, %"class.std::__1::basic_string"* nonnull %2) #11
  %36 = call dereferenceable(24) %"class.std::__1::basic_string"* @_ZNSt3__112basic_stringIcNS_11char_traitsIcEENS_9allocatorIcEEE6appendEPKc(%"class.std::__1::basic_string"* nonnull %2, i8* getelementptr inbounds ([2 x i8], [2 x i8]* @.str.2, i64 0, i64 0)) #11
  br label %37

37:                                               ; preds = %28, %31, %29
  call void @_ZN10extensions6PortIdD1Ev(%"struct.extensions::PortId"* %19) #11
  call void @llvm.lifetime.end.p0i8(i64 32, i8* nonnull %14) #11
  br label %38

38:                                               ; preds = %9, %37
  ret void
}

; Function Attrs: nounwind ssp uwtable
define weak_odr hidden void @_ZN3IPC8MessageTI37ExtensionMsg_ValidateMessagePort_MetaNSt3__15tupleIJiN10extensions6PortIdEEEEvEC2ENS_7RoutingERKiRKS5_(%"class.IPC::MessageT.69"*, i32, i32* dereferenceable(4), %"struct.extensions::PortId"* dereferenceable(24)) unnamed_addr #0 comdat($_ZN3IPC8MessageTI37ExtensionMsg_ValidateMessagePort_MetaNSt3__15tupleIJiN10extensions6PortIdEEEEvEC5ENS_7RoutingERKiRKS5_) align 2 {
  %5 = alloca i32, align 4
  %6 = alloca i32, align 4
  %7 = alloca i32, align 4
  %8 = getelementptr inbounds %"class.IPC::MessageT.69", %"class.IPC::MessageT.69"* %0, i64 0, i32 0
  tail call void @_ZN3IPC7MessageC2EijNS0_13PriorityValueE(%"class.IPC::Message"* %8, i32 %1, i32 459087, i32 2) #11
  %9 = getelementptr inbounds %"class.IPC::MessageT.69", %"class.IPC::MessageT.69"* %0, i64 0, i32 0, i32 0, i32 0
  store i32 (...)** bitcast (i8** getelementptr inbounds ({ [7 x i8*] }, { [7 x i8*] }* @_ZTVN3IPC8MessageTI37ExtensionMsg_ValidateMessagePort_MetaNSt3__15tupleIJiN10extensions6PortIdEEEEvEE, i64 0, inrange i32 0, i64 2) to i32 (...)**), i32 (...)*** %9, align 8
  %10 = getelementptr inbounds %"class.IPC::MessageT.69", %"class.IPC::MessageT.69"* %0, i64 0, i32 0, i32 0
  %11 = load i32, i32* %2, align 4
  %12 = bitcast i32* %5 to i8*
  call void @llvm.lifetime.start.p0i8(i64 4, i8* nonnull %12) #11
  store i32 %11, i32* %5, align 4
  call void @_ZN4base6Pickle16WriteBytesStaticILm4EEEvPKv(%"class.base::Pickle"* %10, i8* nonnull %12) #11
  call void @llvm.lifetime.end.p0i8(i64 4, i8* nonnull %12) #11
  %13 = getelementptr inbounds %"struct.extensions::PortId", %"struct.extensions::PortId"* %3, i64 0, i32 0
  call void @_ZN3IPC11ParamTraitsIN4base16UnguessableTokenEE5WriteEPNS1_6PickleERKS2_(%"class.base::Pickle"* %10, %"class.base::UnguessableToken"* dereferenceable(16) %13) #11
  %14 = getelementptr inbounds %"struct.extensions::PortId", %"struct.extensions::PortId"* %3, i64 0, i32 1
  %15 = load i32, i32* %14, align 4
  %16 = bitcast i32* %7 to i8*
  call void @llvm.lifetime.start.p0i8(i64 4, i8* nonnull %16) #11
  store i32 %15, i32* %7, align 4
  call void @_ZN4base6Pickle16WriteBytesStaticILm4EEEvPKv(%"class.base::Pickle"* %10, i8* nonnull %16) #11
  call void @llvm.lifetime.end.p0i8(i64 4, i8* nonnull %16) #11
  %17 = getelementptr inbounds %"struct.extensions::PortId", %"struct.extensions::PortId"* %3, i64 0, i32 2
  %18 = load i8, i8* %17, align 1, !range !2
  %19 = zext i8 %18 to i32
  %20 = bitcast i32* %6 to i8*
  call void @llvm.lifetime.start.p0i8(i64 4, i8* nonnull %20) #11
  store i32 %19, i32* %6, align 4
  call void @_ZN4base6Pickle16WriteBytesStaticILm4EEEvPKv(%"class.base::Pickle"* %10, i8* nonnull %20) #11
  call void @llvm.lifetime.end.p0i8(i64 4, i8* nonnull %20) #11
  ret void
}

; Function Attrs: nounwind ssp uwtable
define weak_odr hidden zeroext i1 @_ZN3IPC8MessageTI35ExtensionMsg_DispatchOnConnect_MetaNSt3__15tupleIJiN10extensions6PortIdENS2_12basic_stringIcNS2_11char_traitsIcEENS2_9allocatorIcEEEE30ExtensionMsg_TabConnectionInfo35ExtensionMsg_ExternalConnectionInfoEEEvE4ReadEPKNS_7MessageEPSE_(%"class.IPC::Message"*, %"class.std::__1::tuple.73"*) local_unnamed_addr #0 comdat align 2 {
  %3 = alloca %"class.base::PickleIterator", align 8
  %4 = bitcast %"class.base::PickleIterator"* %3 to i8*
  call void @llvm.lifetime.start.p0i8(i64 24, i8* nonnull %4) #11
  %5 = getelementptr inbounds %"class.IPC::Message", %"class.IPC::Message"* %0, i64 0, i32 0
  %6 = bitcast %"class.base::PickleIterator"* %3 to i8*
  call void @llvm.memset.p0i8.i64(i8* nonnull align 8 %6, i8 -86, i64 24, i1 false)
  call void @_ZN4base14PickleIteratorC1ERKNS_6PickleE(%"class.base::PickleIterator"* nonnull %3, %"class.base::Pickle"* dereferenceable(40) %5) #11
  %7 = getelementptr inbounds %"class.std::__1::tuple.73", %"class.std::__1::tuple.73"* %1, i64 0, i32 0, i32 0, i32 0
  %8 = call zeroext i1 @_ZN4base14PickleIterator7ReadIntEPi(%"class.base::PickleIterator"* nonnull %3, i32* %7) #11
  br i1 %8, label %9, label %11

9:                                                ; preds = %2
  %10 = call zeroext i1 @_ZN3IPC22TupleParamTraitsHelperINSt3__15tupleIJiN10extensions6PortIdENS1_12basic_stringIcNS1_11char_traitsIcEENS1_9allocatorIcEEEE30ExtensionMsg_TabConnectionInfo35ExtensionMsg_ExternalConnectionInfoEEELi1ELi5EE4ReadEPKN4base6PickleEPNSF_14PickleIteratorEPSD_(%"class.base::Pickle"* %5, %"class.base::PickleIterator"* nonnull %3, %"class.std::__1::tuple.73"* %1) #11
  br label %11

11:                                               ; preds = %2, %9
  %12 = phi i1 [ false, %2 ], [ %10, %9 ]
  call void @llvm.lifetime.end.p0i8(i64 24, i8* nonnull %4) #11
  ret i1 %12
}

; Function Attrs: nounwind ssp uwtable
define weak_odr hidden void @_ZN3IPC8MessageTI35ExtensionMsg_DispatchOnConnect_MetaNSt3__15tupleIJiN10extensions6PortIdENS2_12basic_stringIcNS2_11char_traitsIcEENS2_9allocatorIcEEEE30ExtensionMsg_TabConnectionInfo35ExtensionMsg_ExternalConnectionInfoEEEvE3LogEPSB_PKNS_7MessageESG_(%"class.std::__1::basic_string"*, %"class.IPC::Message"*, %"class.std::__1::basic_string"*) local_unnamed_addr #0 comdat align 2 {
  %4 = alloca %"class.base::PickleIterator", align 8
  %5 = alloca %"class.std::__1::tuple.73", align 8
  %6 = icmp eq %"class.std::__1::basic_string"* %0, null
  br i1 %6, label %9, label %7

7:                                                ; preds = %3
  %8 = tail call dereferenceable(24) %"class.std::__1::basic_string"* @_ZNSt3__112basic_stringIcNS_11char_traitsIcEENS_9allocatorIcEEE17__assign_externalEPKcm(%"class.std::__1::basic_string"* nonnull %0, i8* getelementptr inbounds ([31 x i8], [31 x i8]* @_ZN35ExtensionMsg_DispatchOnConnect_Meta5kNameE, i64 0, i64 0), i64 30) #11
  br label %9

9:                                                ; preds = %7, %3
  %10 = icmp ne %"class.IPC::Message"* %1, null
  %11 = icmp ne %"class.std::__1::basic_string"* %2, null
  %12 = and i1 %10, %11
  br i1 %12, label %13, label %59

13:                                               ; preds = %9
  %14 = bitcast %"class.std::__1::tuple.73"* %5 to i8*
  call void @llvm.lifetime.start.p0i8(i64 408, i8* nonnull %14) #11
  call void @llvm.memset.p0i8.i64(i8* nonnull align 8 %14, i8 -86, i64 408, i1 false)
  %15 = getelementptr inbounds %"class.std::__1::tuple.73", %"class.std::__1::tuple.73"* %5, i64 0, i32 0, i32 0, i32 0
  store i32 0, i32* %15, align 8
  %16 = getelementptr inbounds %"class.std::__1::tuple.73", %"class.std::__1::tuple.73"* %5, i64 0, i32 0, i32 2, i32 0
  call void @_ZN10extensions6PortIdC1Ev(%"struct.extensions::PortId"* %16) #11
  %17 = getelementptr inbounds %"class.std::__1::tuple.73", %"class.std::__1::tuple.73"* %5, i64 0, i32 0, i32 3
  %18 = bitcast %"class.std::__1::__tuple_leaf.75"* %17 to i8*
  call void @llvm.memset.p0i8.i64(i8* align 8 %18, i8 0, i64 24, i1 false) #11
  %19 = getelementptr inbounds %"class.std::__1::tuple.73", %"class.std::__1::tuple.73"* %5, i64 0, i32 0, i32 4, i32 0, i32 0
  call void @_ZN4base15DictionaryValueC1Ev(%"class.base::DictionaryValue"* %19) #11
  %20 = getelementptr inbounds %"class.std::__1::tuple.73", %"class.std::__1::tuple.73"* %5, i64 0, i32 0, i32 4, i32 0, i32 1
  store i32 0, i32* %20, align 8
  %21 = getelementptr inbounds %"class.std::__1::tuple.73", %"class.std::__1::tuple.73"* %5, i64 0, i32 0, i32 5
  %22 = bitcast %"class.std::__1::__tuple_leaf.77"* %21 to i8*
  call void @llvm.memset.p0i8.i64(i8* align 8 %22, i8 0, i64 24, i1 false) #11
  %23 = getelementptr inbounds %"class.std::__1::tuple.73", %"class.std::__1::tuple.73"* %5, i64 0, i32 0, i32 5, i32 0, i32 1
  call void @_ZN10extensions17MessagingEndpointC1Ev(%"struct.extensions::MessagingEndpoint"* %23) #11
  %24 = getelementptr inbounds %"class.std::__1::tuple.73", %"class.std::__1::tuple.73"* %5, i64 0, i32 0, i32 5, i32 0, i32 2
  call void @_ZN4GURLC1Ev(%class.GURL* %24) #11
  %25 = getelementptr inbounds %"class.std::__1::tuple.73", %"class.std::__1::tuple.73"* %5, i64 0, i32 0, i32 5, i32 0, i32 3, i32 0, i32 0, i32 0, i32 0
  store i8 0, i8* %25, align 8
  %26 = getelementptr inbounds %"class.std::__1::tuple.73", %"class.std::__1::tuple.73"* %5, i64 0, i32 0, i32 5, i32 0, i32 3, i32 0, i32 0, i32 0, i32 1
  %27 = bitcast %union.anon.82* %26 to i8*
  call void @llvm.memset.p0i8.i64(i8* align 8 %27, i8 0, i64 88, i1 false) #11
  %28 = bitcast %"class.base::PickleIterator"* %4 to i8*
  call void @llvm.lifetime.start.p0i8(i64 24, i8* nonnull %28) #11
  %29 = getelementptr inbounds %"class.IPC::Message", %"class.IPC::Message"* %1, i64 0, i32 0
  call void @llvm.memset.p0i8.i64(i8* nonnull align 8 %28, i8 -86, i64 24, i1 false) #11
  call void @_ZN4base14PickleIteratorC1ERKNS_6PickleE(%"class.base::PickleIterator"* nonnull %4, %"class.base::Pickle"* dereferenceable(40) %29) #11
  %30 = call zeroext i1 @_ZN4base14PickleIterator7ReadIntEPi(%"class.base::PickleIterator"* nonnull %4, i32* nonnull %15) #11
  br i1 %30, label %32, label %31

31:                                               ; preds = %13
  call void @llvm.lifetime.end.p0i8(i64 24, i8* nonnull %28) #11
  br label %36

32:                                               ; preds = %13
  %33 = call zeroext i1 @_ZN3IPC22TupleParamTraitsHelperINSt3__15tupleIJiN10extensions6PortIdENS1_12basic_stringIcNS1_11char_traitsIcEENS1_9allocatorIcEEEE30ExtensionMsg_TabConnectionInfo35ExtensionMsg_ExternalConnectionInfoEEELi1ELi5EE4ReadEPKN4base6PickleEPNSF_14PickleIteratorEPSD_(%"class.base::Pickle"* %29, %"class.base::PickleIterator"* nonnull %4, %"class.std::__1::tuple.73"* nonnull %5) #11
  call void @llvm.lifetime.end.p0i8(i64 24, i8* nonnull %28) #11
  br i1 %33, label %34, label %36

34:                                               ; preds = %32
  call void @_ZN3IPC11ParamTraitsIiE3LogERKiPNSt3__112basic_stringIcNS4_11char_traitsIcEENS4_9allocatorIcEEEE(i32* nonnull dereferenceable(4) %15, %"class.std::__1::basic_string"* nonnull %2) #11
  %35 = call dereferenceable(24) %"class.std::__1::basic_string"* @_ZNSt3__112basic_stringIcNS_11char_traitsIcEENS_9allocatorIcEEE6appendEPKc(%"class.std::__1::basic_string"* nonnull %2, i8* getelementptr inbounds ([3 x i8], [3 x i8]* @.str.1, i64 0, i64 0)) #11
  call void @_ZN3IPC22TupleParamTraitsHelperINSt3__15tupleIJiN10extensions6PortIdENS1_12basic_stringIcNS1_11char_traitsIcEENS1_9allocatorIcEEEE30ExtensionMsg_TabConnectionInfo35ExtensionMsg_ExternalConnectionInfoEEELi1ELi5EE3LogERKSD_PSA_(%"class.std::__1::tuple.73"* nonnull dereferenceable(408) %5, %"class.std::__1::basic_string"* nonnull %2) #11
  br label %36

36:                                               ; preds = %31, %34, %32
  %37 = load i8, i8* %25, align 8, !range !2
  %38 = icmp eq i8 %37, 0
  br i1 %38, label %41, label %39

39:                                               ; preds = %36
  %40 = getelementptr inbounds %"class.std::__1::tuple.73", %"class.std::__1::tuple.73"* %5, i64 0, i32 0, i32 5, i32 0, i32 3, i32 0, i32 0, i32 0, i32 1, i32 0
  call void @_ZN3url6OriginD1Ev(%"class.url::Origin"* %40) #11
  store i8 0, i8* %25, align 8
  br label %41

41:                                               ; preds = %39, %36
  call void @_ZN4GURLD1Ev(%class.GURL* %24) #11
  call void @_ZN10extensions17MessagingEndpointD1Ev(%"struct.extensions::MessagingEndpoint"* %23) #11
  %42 = bitcast %"class.std::__1::__tuple_leaf.77"* %21 to %"struct.std::__1::basic_string<char, std::__1::char_traits<char>, std::__1::allocator<char> >::__short"*
  %43 = getelementptr inbounds %"struct.std::__1::basic_string<char, std::__1::char_traits<char>, std::__1::allocator<char> >::__short", %"struct.std::__1::basic_string<char, std::__1::char_traits<char>, std::__1::allocator<char> >::__short"* %42, i64 0, i32 1, i32 0
  %44 = load i8, i8* %43, align 1
  %45 = icmp slt i8 %44, 0
  br i1 %45, label %46, label %49

46:                                               ; preds = %41
  %47 = getelementptr inbounds %"class.std::__1::__tuple_leaf.77", %"class.std::__1::__tuple_leaf.77"* %21, i64 0, i32 0, i32 0, i32 0, i32 0, i32 0, i32 0, i32 0, i32 0
  %48 = load i8*, i8** %47, align 8
  call void @_ZdlPv(i8* %48) #12
  br label %49

49:                                               ; preds = %46, %41
  %50 = getelementptr inbounds %"class.std::__1::tuple.73", %"class.std::__1::tuple.73"* %5, i64 0, i32 0, i32 4, i32 0, i32 0, i32 0
  call void @_ZN4base5ValueD2Ev(%"class.base::Value"* %50) #11
  %51 = bitcast %"class.std::__1::__tuple_leaf.75"* %17 to %"struct.std::__1::basic_string<char, std::__1::char_traits<char>, std::__1::allocator<char> >::__short"*
  %52 = getelementptr inbounds %"struct.std::__1::basic_string<char, std::__1::char_traits<char>, std::__1::allocator<char> >::__short", %"struct.std::__1::basic_string<char, std::__1::char_traits<char>, std::__1::allocator<char> >::__short"* %51, i64 0, i32 1, i32 0
  %53 = load i8, i8* %52, align 1
  %54 = icmp slt i8 %53, 0
  br i1 %54, label %55, label %58

55:                                               ; preds = %49
  %56 = getelementptr inbounds %"class.std::__1::__tuple_leaf.75", %"class.std::__1::__tuple_leaf.75"* %17, i64 0, i32 0, i32 0, i32 0, i32 0, i32 0, i32 0, i32 0
  %57 = load i8*, i8** %56, align 8
  call void @_ZdlPv(i8* %57) #12
  br label %58

58:                                               ; preds = %49, %55
  call void @_ZN10extensions6PortIdD1Ev(%"struct.extensions::PortId"* %16) #11
  call void @llvm.lifetime.end.p0i8(i64 408, i8* nonnull %14) #11
  br label %59

59:                                               ; preds = %9, %58
  ret void
}

; Function Attrs: nounwind ssp uwtable
define weak_odr hidden void @_ZN3IPC8MessageTI35ExtensionMsg_DispatchOnConnect_MetaNSt3__15tupleIJiN10extensions6PortIdENS2_12basic_stringIcNS2_11char_traitsIcEENS2_9allocatorIcEEEE30ExtensionMsg_TabConnectionInfo35ExtensionMsg_ExternalConnectionInfoEEEvEC2ENS_7RoutingERKiRKS5_RKSB_RKSC_RKSD_(%"class.IPC::MessageT.88"*, i32, i32* dereferenceable(4), %"struct.extensions::PortId"* dereferenceable(24), %"class.std::__1::basic_string"* dereferenceable(24), %struct.ExtensionMsg_TabConnectionInfo* dereferenceable(40), %struct.ExtensionMsg_ExternalConnectionInfo* dereferenceable(312)) unnamed_addr #0 comdat($_ZN3IPC8MessageTI35ExtensionMsg_DispatchOnConnect_MetaNSt3__15tupleIJiN10extensions6PortIdENS2_12basic_stringIcNS2_11char_traitsIcEENS2_9allocatorIcEEEE30ExtensionMsg_TabConnectionInfo35ExtensionMsg_ExternalConnectionInfoEEEvEC5ENS_7RoutingERKiRKS5_RKSB_RKSC_RKSD_) align 2 {
  %8 = alloca i32, align 4
  %9 = alloca i32, align 4
  %10 = alloca %"class.base::BasicStringPiece", align 8
  %11 = alloca i32, align 4
  %12 = alloca i32, align 4
  %13 = getelementptr inbounds %"class.IPC::MessageT.88", %"class.IPC::MessageT.88"* %0, i64 0, i32 0
  tail call void @_ZN3IPC7MessageC2EijNS0_13PriorityValueE(%"class.IPC::Message"* %13, i32 %1, i32 459097, i32 2) #11
  %14 = getelementptr inbounds %"class.IPC::MessageT.88", %"class.IPC::MessageT.88"* %0, i64 0, i32 0, i32 0, i32 0
  store i32 (...)** bitcast (i8** getelementptr inbounds ({ [7 x i8*] }, { [7 x i8*] }* @_ZTVN3IPC8MessageTI35ExtensionMsg_DispatchOnConnect_MetaNSt3__15tupleIJiN10extensions6PortIdENS2_12basic_stringIcNS2_11char_traitsIcEENS2_9allocatorIcEEEE30ExtensionMsg_TabConnectionInfo35ExtensionMsg_ExternalConnectionInfoEEEvEE, i64 0, inrange i32 0, i64 2) to i32 (...)**), i32 (...)*** %14, align 8
  %15 = getelementptr inbounds %"class.IPC::MessageT.88", %"class.IPC::MessageT.88"* %0, i64 0, i32 0, i32 0
  %16 = load i32, i32* %2, align 4
  %17 = bitcast i32* %12 to i8*
  call void @llvm.lifetime.start.p0i8(i64 4, i8* nonnull %17) #11
  store i32 %16, i32* %12, align 4
  call void @_ZN4base6Pickle16WriteBytesStaticILm4EEEvPKv(%"class.base::Pickle"* %15, i8* nonnull %17) #11
  call void @llvm.lifetime.end.p0i8(i64 4, i8* nonnull %17) #11
  %18 = getelementptr inbounds %"struct.extensions::PortId", %"struct.extensions::PortId"* %3, i64 0, i32 0
  call void @_ZN3IPC11ParamTraitsIN4base16UnguessableTokenEE5WriteEPNS1_6PickleERKS2_(%"class.base::Pickle"* %15, %"class.base::UnguessableToken"* dereferenceable(16) %18) #11
  %19 = getelementptr inbounds %"struct.extensions::PortId", %"struct.extensions::PortId"* %3, i64 0, i32 1
  %20 = load i32, i32* %19, align 4
  %21 = bitcast i32* %9 to i8*
  call void @llvm.lifetime.start.p0i8(i64 4, i8* nonnull %21) #11
  store i32 %20, i32* %9, align 4
  call void @_ZN4base6Pickle16WriteBytesStaticILm4EEEvPKv(%"class.base::Pickle"* %15, i8* nonnull %21) #11
  call void @llvm.lifetime.end.p0i8(i64 4, i8* nonnull %21) #11
  %22 = getelementptr inbounds %"struct.extensions::PortId", %"struct.extensions::PortId"* %3, i64 0, i32 2
  %23 = load i8, i8* %22, align 1, !range !2
  %24 = zext i8 %23 to i32
  %25 = bitcast i32* %8 to i8*
  call void @llvm.lifetime.start.p0i8(i64 4, i8* nonnull %25) #11
  store i32 %24, i32* %8, align 4
  call void @_ZN4base6Pickle16WriteBytesStaticILm4EEEvPKv(%"class.base::Pickle"* %15, i8* nonnull %25) #11
  call void @llvm.lifetime.end.p0i8(i64 4, i8* nonnull %25) #11
  %26 = bitcast %"class.base::BasicStringPiece"* %10 to i8*
  call void @llvm.lifetime.start.p0i8(i64 16, i8* nonnull %26) #11
  %27 = getelementptr inbounds %"class.base::BasicStringPiece", %"class.base::BasicStringPiece"* %10, i64 0, i32 0
  %28 = bitcast %"class.std::__1::basic_string"* %4 to %"struct.std::__1::basic_string<char, std::__1::char_traits<char>, std::__1::allocator<char> >::__short"*
  %29 = getelementptr inbounds %"struct.std::__1::basic_string<char, std::__1::char_traits<char>, std::__1::allocator<char> >::__short", %"struct.std::__1::basic_string<char, std::__1::char_traits<char>, std::__1::allocator<char> >::__short"* %28, i64 0, i32 1, i32 0
  %30 = load i8, i8* %29, align 1
  %31 = icmp slt i8 %30, 0
  %32 = getelementptr inbounds %"class.std::__1::basic_string", %"class.std::__1::basic_string"* %4, i64 0, i32 0, i32 0, i32 0, i32 0, i32 0, i32 0
  %33 = load i8*, i8** %32, align 8
  %34 = bitcast %"class.std::__1::basic_string"* %4 to i8*
  %35 = select i1 %31, i8* %33, i8* %34
  store i8* %35, i8** %27, align 8
  %36 = getelementptr inbounds %"class.base::BasicStringPiece", %"class.base::BasicStringPiece"* %10, i64 0, i32 1
  %37 = getelementptr inbounds %"class.std::__1::basic_string", %"class.std::__1::basic_string"* %4, i64 0, i32 0, i32 0, i32 0, i32 0, i32 0, i32 1
  %38 = load i64, i64* %37, align 8
  %39 = zext i8 %30 to i64
  %40 = select i1 %31, i64 %38, i64 %39
  store i64 %40, i64* %36, align 8
  call void @_ZN4base6Pickle11WriteStringERKNS_16BasicStringPieceIcNSt3__111char_traitsIcEEEE(%"class.base::Pickle"* %15, %"class.base::BasicStringPiece"* nonnull dereferenceable(16) %10) #11
  call void @llvm.lifetime.end.p0i8(i64 16, i8* nonnull %26) #11
  %41 = getelementptr inbounds %struct.ExtensionMsg_TabConnectionInfo, %struct.ExtensionMsg_TabConnectionInfo* %5, i64 0, i32 0
  call void @_ZN3IPC11ParamTraitsIN4base15DictionaryValueEE5WriteEPNS1_6PickleERKS2_(%"class.base::Pickle"* %15, %"class.base::DictionaryValue"* dereferenceable(32) %41) #11
  %42 = getelementptr inbounds %struct.ExtensionMsg_TabConnectionInfo, %struct.ExtensionMsg_TabConnectionInfo* %5, i64 0, i32 1
  %43 = load i32, i32* %42, align 4
  %44 = bitcast i32* %11 to i8*
  call void @llvm.lifetime.start.p0i8(i64 4, i8* nonnull %44) #11
  store i32 %43, i32* %11, align 4
  call void @_ZN4base6Pickle16WriteBytesStaticILm4EEEvPKv(%"class.base::Pickle"* %15, i8* nonnull %44) #11
  call void @llvm.lifetime.end.p0i8(i64 4, i8* nonnull %44) #11
  call void @_ZN3IPC11ParamTraitsI35ExtensionMsg_ExternalConnectionInfoE5WriteEPN4base6PickleERKS1_(%"class.base::Pickle"* %15, %struct.ExtensionMsg_ExternalConnectionInfo* dereferenceable(312) %6) #11
  ret void
}

; Function Attrs: nounwind ssp uwtable
define weak_odr hidden zeroext i1 @_ZN3IPC8MessageTI32ExtensionMsg_DeliverMessage_MetaNSt3__15tupleIJiN10extensions6PortIdENS4_7MessageEEEEvE4ReadEPKNS_7MessageEPS7_(%"class.IPC::Message"*, %"class.std::__1::tuple.94"*) local_unnamed_addr #0 comdat align 2 {
  %3 = alloca %"class.base::PickleIterator", align 8
  %4 = bitcast %"class.base::PickleIterator"* %3 to i8*
  call void @llvm.lifetime.start.p0i8(i64 24, i8* nonnull %4) #11
  %5 = getelementptr inbounds %"class.IPC::Message", %"class.IPC::Message"* %0, i64 0, i32 0
  %6 = bitcast %"class.base::PickleIterator"* %3 to i8*
  call void @llvm.memset.p0i8.i64(i8* nonnull align 8 %6, i8 -86, i64 24, i1 false)
  call void @_ZN4base14PickleIteratorC1ERKNS_6PickleE(%"class.base::PickleIterator"* nonnull %3, %"class.base::Pickle"* dereferenceable(40) %5) #11
  %7 = call zeroext i1 @_ZN3IPC22TupleParamTraitsHelperINSt3__15tupleIJiN10extensions6PortIdENS3_7MessageEEEELi0ELi3EE4ReadEPKN4base6PickleEPNS8_14PickleIteratorEPS6_(%"class.base::Pickle"* %5, %"class.base::PickleIterator"* nonnull %3, %"class.std::__1::tuple.94"* %1) #11
  call void @llvm.lifetime.end.p0i8(i64 24, i8* nonnull %4) #11
  ret i1 %7
}

; Function Attrs: nounwind ssp uwtable
define weak_odr hidden void @_ZN3IPC8MessageTI32ExtensionMsg_DeliverMessage_MetaNSt3__15tupleIJiN10extensions6PortIdENS4_7MessageEEEEvE3LogEPNS2_12basic_stringIcNS2_11char_traitsIcEENS2_9allocatorIcEEEEPKNS_7MessageESF_(%"class.std::__1::basic_string"*, %"class.IPC::Message"*, %"class.std::__1::basic_string"*) local_unnamed_addr #0 comdat align 2 {
  %4 = alloca %"class.base::PickleIterator", align 8
  %5 = alloca %"class.std::__1::tuple.94", align 8
  %6 = icmp eq %"class.std::__1::basic_string"* %0, null
  br i1 %6, label %9, label %7

7:                                                ; preds = %3
  %8 = tail call dereferenceable(24) %"class.std::__1::basic_string"* @_ZNSt3__112basic_stringIcNS_11char_traitsIcEENS_9allocatorIcEEE17__assign_externalEPKcm(%"class.std::__1::basic_string"* nonnull %0, i8* getelementptr inbounds ([28 x i8], [28 x i8]* @_ZN32ExtensionMsg_DeliverMessage_Meta5kNameE, i64 0, i64 0), i64 27) #11
  br label %9

9:                                                ; preds = %7, %3
  %10 = icmp ne %"class.IPC::Message"* %1, null
  %11 = icmp ne %"class.std::__1::basic_string"* %2, null
  %12 = and i1 %10, %11
  br i1 %12, label %13, label %33

13:                                               ; preds = %9
  %14 = bitcast %"class.std::__1::tuple.94"* %5 to i8*
  call void @llvm.lifetime.start.p0i8(i64 64, i8* nonnull %14) #11
  call void @llvm.memset.p0i8.i64(i8* nonnull align 8 %14, i8 -86, i64 64, i1 false)
  %15 = getelementptr inbounds %"class.std::__1::tuple.94", %"class.std::__1::tuple.94"* %5, i64 0, i32 0, i32 0, i32 0
  store i32 0, i32* %15, align 8
  %16 = getelementptr inbounds %"class.std::__1::tuple.94", %"class.std::__1::tuple.94"* %5, i64 0, i32 0, i32 2, i32 0
  call void @_ZN10extensions6PortIdC1Ev(%"struct.extensions::PortId"* %16) #11
  %17 = getelementptr inbounds %"class.std::__1::tuple.94", %"class.std::__1::tuple.94"* %5, i64 0, i32 0, i32 3
  %18 = bitcast %"class.std::__1::__tuple_leaf.96"* %17 to i8*
  call void @llvm.memset.p0i8.i64(i8* align 8 %18, i8 0, i64 32, i1 false) #11
  %19 = bitcast %"class.base::PickleIterator"* %4 to i8*
  call void @llvm.lifetime.start.p0i8(i64 24, i8* nonnull %19) #11
  %20 = getelementptr inbounds %"class.IPC::Message", %"class.IPC::Message"* %1, i64 0, i32 0
  call void @llvm.memset.p0i8.i64(i8* nonnull align 8 %19, i8 -86, i64 24, i1 false) #11
  call void @_ZN4base14PickleIteratorC1ERKNS_6PickleE(%"class.base::PickleIterator"* nonnull %4, %"class.base::Pickle"* dereferenceable(40) %20) #11
  %21 = call zeroext i1 @_ZN3IPC22TupleParamTraitsHelperINSt3__15tupleIJiN10extensions6PortIdENS3_7MessageEEEELi0ELi3EE4ReadEPKN4base6PickleEPNS8_14PickleIteratorEPS6_(%"class.base::Pickle"* %20, %"class.base::PickleIterator"* nonnull %4, %"class.std::__1::tuple.94"* nonnull %5) #11
  call void @llvm.lifetime.end.p0i8(i64 24, i8* nonnull %19) #11
  br i1 %21, label %22, label %24

22:                                               ; preds = %13
  call void @_ZN3IPC11ParamTraitsIiE3LogERKiPNSt3__112basic_stringIcNS4_11char_traitsIcEENS4_9allocatorIcEEEE(i32* nonnull dereferenceable(4) %15, %"class.std::__1::basic_string"* nonnull %2) #11
  %23 = call dereferenceable(24) %"class.std::__1::basic_string"* @_ZNSt3__112basic_stringIcNS_11char_traitsIcEENS_9allocatorIcEEE6appendEPKc(%"class.std::__1::basic_string"* nonnull %2, i8* getelementptr inbounds ([3 x i8], [3 x i8]* @.str.1, i64 0, i64 0)) #11
  call void @_ZN3IPC22TupleParamTraitsHelperINSt3__15tupleIJiN10extensions6PortIdENS3_7MessageEEEELi1ELi3EE3LogERKS6_PNS1_12basic_stringIcNS1_11char_traitsIcEENS1_9allocatorIcEEEE(%"class.std::__1::tuple.94"* nonnull dereferenceable(64) %5, %"class.std::__1::basic_string"* nonnull %2) #11
  br label %24

24:                                               ; preds = %22, %13
  %25 = bitcast %"class.std::__1::__tuple_leaf.96"* %17 to %"struct.std::__1::basic_string<char, std::__1::char_traits<char>, std::__1::allocator<char> >::__short"*
  %26 = getelementptr inbounds %"struct.std::__1::basic_string<char, std::__1::char_traits<char>, std::__1::allocator<char> >::__short", %"struct.std::__1::basic_string<char, std::__1::char_traits<char>, std::__1::allocator<char> >::__short"* %25, i64 0, i32 1, i32 0
  %27 = load i8, i8* %26, align 1
  %28 = icmp slt i8 %27, 0
  br i1 %28, label %29, label %32

29:                                               ; preds = %24
  %30 = getelementptr inbounds %"class.std::__1::__tuple_leaf.96", %"class.std::__1::__tuple_leaf.96"* %17, i64 0, i32 0, i32 0, i32 0, i32 0, i32 0, i32 0, i32 0, i32 0
  %31 = load i8*, i8** %30, align 8
  call void @_ZdlPv(i8* %31) #12
  br label %32

32:                                               ; preds = %24, %29
  call void @_ZN10extensions6PortIdD1Ev(%"struct.extensions::PortId"* %16) #11
  call void @llvm.lifetime.end.p0i8(i64 64, i8* nonnull %14) #11
  br label %33

33:                                               ; preds = %9, %32
  ret void
}

; Function Attrs: nounwind ssp uwtable
define weak_odr hidden void @_ZN3IPC8MessageTI32ExtensionMsg_DeliverMessage_MetaNSt3__15tupleIJiN10extensions6PortIdENS4_7MessageEEEEvEC2ENS_7RoutingERKiRKS5_RKS6_(%"class.IPC::MessageT.97"*, i32, i32* dereferenceable(4), %"struct.extensions::PortId"* dereferenceable(24), %"struct.extensions::Message"* dereferenceable(32)) unnamed_addr #0 comdat($_ZN3IPC8MessageTI32ExtensionMsg_DeliverMessage_MetaNSt3__15tupleIJiN10extensions6PortIdENS4_7MessageEEEEvEC5ENS_7RoutingERKiRKS5_RKS6_) align 2 {
  %6 = alloca i32, align 4
  %7 = alloca i32, align 4
  %8 = alloca i32, align 4
  %9 = alloca i32, align 4
  %10 = alloca %"class.base::BasicStringPiece", align 8
  %11 = getelementptr inbounds %"class.IPC::MessageT.97", %"class.IPC::MessageT.97"* %0, i64 0, i32 0
  tail call void @_ZN3IPC7MessageC2EijNS0_13PriorityValueE(%"class.IPC::Message"* %11, i32 %1, i32 459104, i32 2) #11
  %12 = getelementptr inbounds %"class.IPC::MessageT.97", %"class.IPC::MessageT.97"* %0, i64 0, i32 0, i32 0, i32 0
  store i32 (...)** bitcast (i8** getelementptr inbounds ({ [7 x i8*] }, { [7 x i8*] }* @_ZTVN3IPC8MessageTI32ExtensionMsg_DeliverMessage_MetaNSt3__15tupleIJiN10extensions6PortIdENS4_7MessageEEEEvEE, i64 0, inrange i32 0, i64 2) to i32 (...)**), i32 (...)*** %12, align 8
  %13 = getelementptr inbounds %"class.IPC::MessageT.97", %"class.IPC::MessageT.97"* %0, i64 0, i32 0, i32 0
  %14 = load i32, i32* %2, align 4
  %15 = bitcast i32* %6 to i8*
  call void @llvm.lifetime.start.p0i8(i64 4, i8* nonnull %15) #11
  store i32 %14, i32* %6, align 4
  call void @_ZN4base6Pickle16WriteBytesStaticILm4EEEvPKv(%"class.base::Pickle"* %13, i8* nonnull %15) #11
  call void @llvm.lifetime.end.p0i8(i64 4, i8* nonnull %15) #11
  %16 = getelementptr inbounds %"struct.extensions::PortId", %"struct.extensions::PortId"* %3, i64 0, i32 0
  call void @_ZN3IPC11ParamTraitsIN4base16UnguessableTokenEE5WriteEPNS1_6PickleERKS2_(%"class.base::Pickle"* %13, %"class.base::UnguessableToken"* dereferenceable(16) %16) #11
  %17 = getelementptr inbounds %"struct.extensions::PortId", %"struct.extensions::PortId"* %3, i64 0, i32 1
  %18 = load i32, i32* %17, align 4
  %19 = bitcast i32* %8 to i8*
  call void @llvm.lifetime.start.p0i8(i64 4, i8* nonnull %19) #11
  store i32 %18, i32* %8, align 4
  call void @_ZN4base6Pickle16WriteBytesStaticILm4EEEvPKv(%"class.base::Pickle"* %13, i8* nonnull %19) #11
  call void @llvm.lifetime.end.p0i8(i64 4, i8* nonnull %19) #11
  %20 = getelementptr inbounds %"struct.extensions::PortId", %"struct.extensions::PortId"* %3, i64 0, i32 2
  %21 = load i8, i8* %20, align 1, !range !2
  %22 = zext i8 %21 to i32
  %23 = bitcast i32* %7 to i8*
  call void @llvm.lifetime.start.p0i8(i64 4, i8* nonnull %23) #11
  store i32 %22, i32* %7, align 4
  call void @_ZN4base6Pickle16WriteBytesStaticILm4EEEvPKv(%"class.base::Pickle"* %13, i8* nonnull %23) #11
  call void @llvm.lifetime.end.p0i8(i64 4, i8* nonnull %23) #11
  %24 = bitcast %"class.base::BasicStringPiece"* %10 to i8*
  call void @llvm.lifetime.start.p0i8(i64 16, i8* nonnull %24) #11
  %25 = getelementptr inbounds %"class.base::BasicStringPiece", %"class.base::BasicStringPiece"* %10, i64 0, i32 0
  %26 = bitcast %"struct.extensions::Message"* %4 to %"struct.std::__1::basic_string<char, std::__1::char_traits<char>, std::__1::allocator<char> >::__short"*
  %27 = getelementptr inbounds %"struct.std::__1::basic_string<char, std::__1::char_traits<char>, std::__1::allocator<char> >::__short", %"struct.std::__1::basic_string<char, std::__1::char_traits<char>, std::__1::allocator<char> >::__short"* %26, i64 0, i32 1, i32 0
  %28 = load i8, i8* %27, align 1
  %29 = icmp slt i8 %28, 0
  %30 = getelementptr inbounds %"struct.extensions::Message", %"struct.extensions::Message"* %4, i64 0, i32 0, i32 0, i32 0, i32 0, i32 0, i32 0, i32 0
  %31 = load i8*, i8** %30, align 8
  %32 = bitcast %"struct.extensions::Message"* %4 to i8*
  %33 = select i1 %29, i8* %31, i8* %32
  store i8* %33, i8** %25, align 8
  %34 = getelementptr inbounds %"class.base::BasicStringPiece", %"class.base::BasicStringPiece"* %10, i64 0, i32 1
  %35 = getelementptr inbounds %"struct.extensions::Message", %"struct.extensions::Message"* %4, i64 0, i32 0, i32 0, i32 0, i32 0, i32 0, i32 0, i32 1
  %36 = load i64, i64* %35, align 8
  %37 = zext i8 %28 to i64
  %38 = select i1 %29, i64 %36, i64 %37
  store i64 %38, i64* %34, align 8
  call void @_ZN4base6Pickle11WriteStringERKNS_16BasicStringPieceIcNSt3__111char_traitsIcEEEE(%"class.base::Pickle"* %13, %"class.base::BasicStringPiece"* nonnull dereferenceable(16) %10) #11
  call void @llvm.lifetime.end.p0i8(i64 16, i8* nonnull %24) #11
  %39 = getelementptr inbounds %"struct.extensions::Message", %"struct.extensions::Message"* %4, i64 0, i32 1
  %40 = load i8, i8* %39, align 1, !range !2
  %41 = zext i8 %40 to i32
  %42 = bitcast i32* %9 to i8*
  call void @llvm.lifetime.start.p0i8(i64 4, i8* nonnull %42) #11
  store i32 %41, i32* %9, align 4
  call void @_ZN4base6Pickle16WriteBytesStaticILm4EEEvPKv(%"class.base::Pickle"* %13, i8* nonnull %42) #11
  call void @llvm.lifetime.end.p0i8(i64 4, i8* nonnull %42) #11
  ret void
}

; Function Attrs: nounwind ssp uwtable
define weak_odr hidden zeroext i1 @_ZN3IPC8MessageTI38ExtensionMsg_DispatchOnDisconnect_MetaNSt3__15tupleIJiN10extensions6PortIdENS2_12basic_stringIcNS2_11char_traitsIcEENS2_9allocatorIcEEEEEEEvE4ReadEPKNS_7MessageEPSC_(%"class.IPC::Message"*, %"class.std::__1::tuple.101"*) local_unnamed_addr #0 comdat align 2 {
  %3 = alloca %"class.base::PickleIterator", align 8
  %4 = bitcast %"class.base::PickleIterator"* %3 to i8*
  call void @llvm.lifetime.start.p0i8(i64 24, i8* nonnull %4) #11
  %5 = getelementptr inbounds %"class.IPC::Message", %"class.IPC::Message"* %0, i64 0, i32 0
  %6 = bitcast %"class.base::PickleIterator"* %3 to i8*
  call void @llvm.memset.p0i8.i64(i8* nonnull align 8 %6, i8 -86, i64 24, i1 false)
  call void @_ZN4base14PickleIteratorC1ERKNS_6PickleE(%"class.base::PickleIterator"* nonnull %3, %"class.base::Pickle"* dereferenceable(40) %5) #11
  %7 = getelementptr inbounds %"class.std::__1::tuple.101", %"class.std::__1::tuple.101"* %1, i64 0, i32 0, i32 0, i32 0
  %8 = call zeroext i1 @_ZN4base14PickleIterator7ReadIntEPi(%"class.base::PickleIterator"* nonnull %3, i32* %7) #11
  br i1 %8, label %9, label %21

9:                                                ; preds = %2
  %10 = getelementptr inbounds %"class.std::__1::tuple.101", %"class.std::__1::tuple.101"* %1, i64 0, i32 0, i32 2, i32 0, i32 0
  %11 = call zeroext i1 @_ZN3IPC11ParamTraitsIN4base16UnguessableTokenEE4ReadEPKNS1_6PickleEPNS1_14PickleIteratorEPS2_(%"class.base::Pickle"* %5, %"class.base::PickleIterator"* nonnull %3, %"class.base::UnguessableToken"* %10) #11
  br i1 %11, label %12, label %21

12:                                               ; preds = %9
  %13 = getelementptr inbounds %"class.std::__1::tuple.101", %"class.std::__1::tuple.101"* %1, i64 0, i32 0, i32 2, i32 0, i32 1
  %14 = call zeroext i1 @_ZN4base14PickleIterator7ReadIntEPi(%"class.base::PickleIterator"* nonnull %3, i32* %13) #11
  br i1 %14, label %15, label %21

15:                                               ; preds = %12
  %16 = getelementptr inbounds %"class.std::__1::tuple.101", %"class.std::__1::tuple.101"* %1, i64 0, i32 0, i32 2, i32 0, i32 2
  %17 = call zeroext i1 @_ZN4base14PickleIterator8ReadBoolEPb(%"class.base::PickleIterator"* nonnull %3, i8* %16) #11
  br i1 %17, label %18, label %21

18:                                               ; preds = %15
  %19 = getelementptr inbounds %"class.std::__1::tuple.101", %"class.std::__1::tuple.101"* %1, i64 0, i32 0, i32 3, i32 0
  %20 = call zeroext i1 @_ZN4base14PickleIterator10ReadStringEPNSt3__112basic_stringIcNS1_11char_traitsIcEENS1_9allocatorIcEEEE(%"class.base::PickleIterator"* nonnull %3, %"class.std::__1::basic_string"* %19) #11
  br label %21

21:                                               ; preds = %2, %9, %12, %15, %18
  %22 = phi i1 [ false, %2 ], [ false, %15 ], [ %20, %18 ], [ false, %12 ], [ false, %9 ]
  call void @llvm.lifetime.end.p0i8(i64 24, i8* nonnull %4) #11
  ret i1 %22
}

; Function Attrs: nounwind ssp uwtable
define weak_odr hidden void @_ZN3IPC8MessageTI38ExtensionMsg_DispatchOnDisconnect_MetaNSt3__15tupleIJiN10extensions6PortIdENS2_12basic_stringIcNS2_11char_traitsIcEENS2_9allocatorIcEEEEEEEvE3LogEPSB_PKNS_7MessageESE_(%"class.std::__1::basic_string"*, %"class.IPC::Message"*, %"class.std::__1::basic_string"*) local_unnamed_addr #0 comdat align 2 {
  %4 = alloca %"class.std::__1::tuple.101", align 8
  %5 = icmp eq %"class.std::__1::basic_string"* %0, null
  br i1 %5, label %8, label %6

6:                                                ; preds = %3
  %7 = tail call dereferenceable(24) %"class.std::__1::basic_string"* @_ZNSt3__112basic_stringIcNS_11char_traitsIcEENS_9allocatorIcEEE17__assign_externalEPKcm(%"class.std::__1::basic_string"* nonnull %0, i8* getelementptr inbounds ([34 x i8], [34 x i8]* @_ZN38ExtensionMsg_DispatchOnDisconnect_Meta5kNameE, i64 0, i64 0), i64 33) #11
  br label %8

8:                                                ; preds = %6, %3
  %9 = icmp ne %"class.IPC::Message"* %1, null
  %10 = icmp ne %"class.std::__1::basic_string"* %2, null
  %11 = and i1 %9, %10
  br i1 %11, label %12, label %39

12:                                               ; preds = %8
  %13 = bitcast %"class.std::__1::tuple.101"* %4 to i8*
  call void @llvm.lifetime.start.p0i8(i64 56, i8* nonnull %13) #11
  call void @llvm.memset.p0i8.i64(i8* nonnull align 8 %13, i8 -86, i64 56, i1 false)
  %14 = getelementptr inbounds %"class.std::__1::tuple.101", %"class.std::__1::tuple.101"* %4, i64 0, i32 0, i32 0, i32 0
  store i32 0, i32* %14, align 8
  %15 = getelementptr inbounds %"class.std::__1::tuple.101", %"class.std::__1::tuple.101"* %4, i64 0, i32 0, i32 2, i32 0
  call void @_ZN10extensions6PortIdC1Ev(%"struct.extensions::PortId"* %15) #11
  %16 = getelementptr inbounds %"class.std::__1::tuple.101", %"class.std::__1::tuple.101"* %4, i64 0, i32 0, i32 3
  %17 = bitcast %"class.std::__1::__tuple_leaf.75"* %16 to i8*
  call void @llvm.memset.p0i8.i64(i8* align 8 %17, i8 0, i64 24, i1 false) #11
  %18 = call zeroext i1 @_ZN3IPC8MessageTI38ExtensionMsg_DispatchOnDisconnect_MetaNSt3__15tupleIJiN10extensions6PortIdENS2_12basic_stringIcNS2_11char_traitsIcEENS2_9allocatorIcEEEEEEEvE4ReadEPKNS_7MessageEPSC_(%"class.IPC::Message"* nonnull %1, %"class.std::__1::tuple.101"* nonnull %4)
  br i1 %18, label %19, label %30

19:                                               ; preds = %12
  call void @_ZN3IPC11ParamTraitsIiE3LogERKiPNSt3__112basic_stringIcNS4_11char_traitsIcEENS4_9allocatorIcEEEE(i32* nonnull dereferenceable(4) %14, %"class.std::__1::basic_string"* nonnull %2) #11
  %20 = call dereferenceable(24) %"class.std::__1::basic_string"* @_ZNSt3__112basic_stringIcNS_11char_traitsIcEENS_9allocatorIcEEE6appendEPKc(%"class.std::__1::basic_string"* nonnull %2, i8* getelementptr inbounds ([3 x i8], [3 x i8]* @.str.1, i64 0, i64 0)) #11
  %21 = call dereferenceable(24) %"class.std::__1::basic_string"* @_ZNSt3__112basic_stringIcNS_11char_traitsIcEENS_9allocatorIcEEE6appendEPKc(%"class.std::__1::basic_string"* nonnull %2, i8* getelementptr inbounds ([2 x i8], [2 x i8]* @.str, i64 0, i64 0)) #11
  %22 = getelementptr inbounds %"class.std::__1::tuple.101", %"class.std::__1::tuple.101"* %4, i64 0, i32 0, i32 2, i32 0, i32 0
  call void @_ZN3IPC11ParamTraitsIN4base16UnguessableTokenEE3LogERKS2_PNSt3__112basic_stringIcNS6_11char_traitsIcEENS6_9allocatorIcEEEE(%"class.base::UnguessableToken"* dereferenceable(16) %22, %"class.std::__1::basic_string"* nonnull %2) #11
  %23 = call dereferenceable(24) %"class.std::__1::basic_string"* @_ZNSt3__112basic_stringIcNS_11char_traitsIcEENS_9allocatorIcEEE6appendEPKc(%"class.std::__1::basic_string"* nonnull %2, i8* getelementptr inbounds ([3 x i8], [3 x i8]* @.str.1, i64 0, i64 0)) #11
  %24 = getelementptr inbounds %"class.std::__1::tuple.101", %"class.std::__1::tuple.101"* %4, i64 0, i32 0, i32 2, i32 0, i32 1
  call void @_ZN3IPC11ParamTraitsIiE3LogERKiPNSt3__112basic_stringIcNS4_11char_traitsIcEENS4_9allocatorIcEEEE(i32* dereferenceable(4) %24, %"class.std::__1::basic_string"* nonnull %2) #11
  %25 = call dereferenceable(24) %"class.std::__1::basic_string"* @_ZNSt3__112basic_stringIcNS_11char_traitsIcEENS_9allocatorIcEEE6appendEPKc(%"class.std::__1::basic_string"* nonnull %2, i8* getelementptr inbounds ([3 x i8], [3 x i8]* @.str.1, i64 0, i64 0)) #11
  %26 = getelementptr inbounds %"class.std::__1::tuple.101", %"class.std::__1::tuple.101"* %4, i64 0, i32 0, i32 2, i32 0, i32 2
  call void @_ZN3IPC11ParamTraitsIbE3LogERKbPNSt3__112basic_stringIcNS4_11char_traitsIcEENS4_9allocatorIcEEEE(i8* dereferenceable(1) %26, %"class.std::__1::basic_string"* nonnull %2) #11
  %27 = call dereferenceable(24) %"class.std::__1::basic_string"* @_ZNSt3__112basic_stringIcNS_11char_traitsIcEENS_9allocatorIcEEE6appendEPKc(%"class.std::__1::basic_string"* nonnull %2, i8* getelementptr inbounds ([2 x i8], [2 x i8]* @.str.2, i64 0, i64 0)) #11
  %28 = call dereferenceable(24) %"class.std::__1::basic_string"* @_ZNSt3__112basic_stringIcNS_11char_traitsIcEENS_9allocatorIcEEE6appendEPKc(%"class.std::__1::basic_string"* nonnull %2, i8* getelementptr inbounds ([3 x i8], [3 x i8]* @.str.1, i64 0, i64 0)) #11
  %29 = getelementptr inbounds %"class.std::__1::tuple.101", %"class.std::__1::tuple.101"* %4, i64 0, i32 0, i32 3, i32 0
  call void @_ZN3IPC11ParamTraitsINSt3__112basic_stringIcNS1_11char_traitsIcEENS1_9allocatorIcEEEEE3LogERKS7_PS7_(%"class.std::__1::basic_string"* dereferenceable(24) %29, %"class.std::__1::basic_string"* nonnull %2) #11
  br label %30

30:                                               ; preds = %19, %12
  %31 = bitcast %"class.std::__1::__tuple_leaf.75"* %16 to %"struct.std::__1::basic_string<char, std::__1::char_traits<char>, std::__1::allocator<char> >::__short"*
  %32 = getelementptr inbounds %"struct.std::__1::basic_string<char, std::__1::char_traits<char>, std::__1::allocator<char> >::__short", %"struct.std::__1::basic_string<char, std::__1::char_traits<char>, std::__1::allocator<char> >::__short"* %31, i64 0, i32 1, i32 0
  %33 = load i8, i8* %32, align 1
  %34 = icmp slt i8 %33, 0
  br i1 %34, label %35, label %38

35:                                               ; preds = %30
  %36 = getelementptr inbounds %"class.std::__1::__tuple_leaf.75", %"class.std::__1::__tuple_leaf.75"* %16, i64 0, i32 0, i32 0, i32 0, i32 0, i32 0, i32 0, i32 0
  %37 = load i8*, i8** %36, align 8
  call void @_ZdlPv(i8* %37) #12
  br label %38

38:                                               ; preds = %30, %35
  call void @_ZN10extensions6PortIdD1Ev(%"struct.extensions::PortId"* %15) #11
  call void @llvm.lifetime.end.p0i8(i64 56, i8* nonnull %13) #11
  br label %39

39:                                               ; preds = %8, %38
  ret void
}

; Function Attrs: nounwind ssp uwtable
define weak_odr hidden void @_ZN3IPC8MessageTI38ExtensionMsg_DispatchOnDisconnect_MetaNSt3__15tupleIJiN10extensions6PortIdENS2_12basic_stringIcNS2_11char_traitsIcEENS2_9allocatorIcEEEEEEEvEC2ENS_7RoutingERKiRKS5_RKSB_(%"class.IPC::MessageT.103"*, i32, i32* dereferenceable(4), %"struct.extensions::PortId"* dereferenceable(24), %"class.std::__1::basic_string"* dereferenceable(24)) unnamed_addr #0 comdat($_ZN3IPC8MessageTI38ExtensionMsg_DispatchOnDisconnect_MetaNSt3__15tupleIJiN10extensions6PortIdENS2_12basic_stringIcNS2_11char_traitsIcEENS2_9allocatorIcEEEEEEEvEC5ENS_7RoutingERKiRKS5_RKSB_) align 2 {
  %6 = alloca i32, align 4
  %7 = alloca i32, align 4
  %8 = alloca i32, align 4
  %9 = alloca %"class.base::BasicStringPiece", align 8
  %10 = getelementptr inbounds %"class.IPC::MessageT.103", %"class.IPC::MessageT.103"* %0, i64 0, i32 0
  tail call void @_ZN3IPC7MessageC2EijNS0_13PriorityValueE(%"class.IPC::Message"* %10, i32 %1, i32 459111, i32 2) #11
  %11 = getelementptr inbounds %"class.IPC::MessageT.103", %"class.IPC::MessageT.103"* %0, i64 0, i32 0, i32 0, i32 0
  store i32 (...)** bitcast (i8** getelementptr inbounds ({ [7 x i8*] }, { [7 x i8*] }* @_ZTVN3IPC8MessageTI38ExtensionMsg_DispatchOnDisconnect_MetaNSt3__15tupleIJiN10extensions6PortIdENS2_12basic_stringIcNS2_11char_traitsIcEENS2_9allocatorIcEEEEEEEvEE, i64 0, inrange i32 0, i64 2) to i32 (...)**), i32 (...)*** %11, align 8
  %12 = getelementptr inbounds %"class.IPC::MessageT.103", %"class.IPC::MessageT.103"* %0, i64 0, i32 0, i32 0
  %13 = load i32, i32* %2, align 4
  %14 = bitcast i32* %6 to i8*
  call void @llvm.lifetime.start.p0i8(i64 4, i8* nonnull %14) #11
  store i32 %13, i32* %6, align 4
  call void @_ZN4base6Pickle16WriteBytesStaticILm4EEEvPKv(%"class.base::Pickle"* %12, i8* nonnull %14) #11
  call void @llvm.lifetime.end.p0i8(i64 4, i8* nonnull %14) #11
  %15 = getelementptr inbounds %"struct.extensions::PortId", %"struct.extensions::PortId"* %3, i64 0, i32 0
  call void @_ZN3IPC11ParamTraitsIN4base16UnguessableTokenEE5WriteEPNS1_6PickleERKS2_(%"class.base::Pickle"* %12, %"class.base::UnguessableToken"* dereferenceable(16) %15) #11
  %16 = getelementptr inbounds %"struct.extensions::PortId", %"struct.extensions::PortId"* %3, i64 0, i32 1
  %17 = load i32, i32* %16, align 4
  %18 = bitcast i32* %8 to i8*
  call void @llvm.lifetime.start.p0i8(i64 4, i8* nonnull %18) #11
  store i32 %17, i32* %8, align 4
  call void @_ZN4base6Pickle16WriteBytesStaticILm4EEEvPKv(%"class.base::Pickle"* %12, i8* nonnull %18) #11
  call void @llvm.lifetime.end.p0i8(i64 4, i8* nonnull %18) #11
  %19 = getelementptr inbounds %"struct.extensions::PortId", %"struct.extensions::PortId"* %3, i64 0, i32 2
  %20 = load i8, i8* %19, align 1, !range !2
  %21 = zext i8 %20 to i32
  %22 = bitcast i32* %7 to i8*
  call void @llvm.lifetime.start.p0i8(i64 4, i8* nonnull %22) #11
  store i32 %21, i32* %7, align 4
  call void @_ZN4base6Pickle16WriteBytesStaticILm4EEEvPKv(%"class.base::Pickle"* %12, i8* nonnull %22) #11
  call void @llvm.lifetime.end.p0i8(i64 4, i8* nonnull %22) #11
  %23 = bitcast %"class.base::BasicStringPiece"* %9 to i8*
  call void @llvm.lifetime.start.p0i8(i64 16, i8* nonnull %23) #11
  %24 = getelementptr inbounds %"class.base::BasicStringPiece", %"class.base::BasicStringPiece"* %9, i64 0, i32 0
  %25 = bitcast %"class.std::__1::basic_string"* %4 to %"struct.std::__1::basic_string<char, std::__1::char_traits<char>, std::__1::allocator<char> >::__short"*
  %26 = getelementptr inbounds %"struct.std::__1::basic_string<char, std::__1::char_traits<char>, std::__1::allocator<char> >::__short", %"struct.std::__1::basic_string<char, std::__1::char_traits<char>, std::__1::allocator<char> >::__short"* %25, i64 0, i32 1, i32 0
  %27 = load i8, i8* %26, align 1
  %28 = icmp slt i8 %27, 0
  %29 = getelementptr inbounds %"class.std::__1::basic_string", %"class.std::__1::basic_string"* %4, i64 0, i32 0, i32 0, i32 0, i32 0, i32 0, i32 0
  %30 = load i8*, i8** %29, align 8
  %31 = bitcast %"class.std::__1::basic_string"* %4 to i8*
  %32 = select i1 %28, i8* %30, i8* %31
  store i8* %32, i8** %24, align 8
  %33 = getelementptr inbounds %"class.base::BasicStringPiece", %"class.base::BasicStringPiece"* %9, i64 0, i32 1
  %34 = getelementptr inbounds %"class.std::__1::basic_string", %"class.std::__1::basic_string"* %4, i64 0, i32 0, i32 0, i32 0, i32 0, i32 0, i32 1
  %35 = load i64, i64* %34, align 8
  %36 = zext i8 %27 to i64
  %37 = select i1 %28, i64 %35, i64 %36
  store i64 %37, i64* %33, align 8
  call void @_ZN4base6Pickle11WriteStringERKNS_16BasicStringPieceIcNSt3__111char_traitsIcEEEE(%"class.base::Pickle"* %12, %"class.base::BasicStringPiece"* nonnull dereferenceable(16) %9) #11
  call void @llvm.lifetime.end.p0i8(i64 16, i8* nonnull %23) #11
  ret void
}

; Function Attrs: nounwind ssp uwtable
define weak_odr hidden zeroext i1 @_ZN3IPC8MessageTI41ExtensionHostMsg_AddFilteredListener_MetaNSt3__15tupleIJNS2_12basic_stringIcNS2_11char_traitsIcEENS2_9allocatorIcEEEES9_N4absl8optionalI23ServiceWorkerIdentifierEEN4base15DictionaryValueEbEEEvE4ReadEPKNS_7MessageEPSG_(%"class.IPC::Message"*, %"class.std::__1::tuple.106"*) local_unnamed_addr #0 comdat align 2 {
  %3 = alloca %"class.base::PickleIterator", align 8
  %4 = bitcast %"class.base::PickleIterator"* %3 to i8*
  call void @llvm.lifetime.start.p0i8(i64 24, i8* nonnull %4) #11
  %5 = getelementptr inbounds %"class.IPC::Message", %"class.IPC::Message"* %0, i64 0, i32 0
  %6 = bitcast %"class.base::PickleIterator"* %3 to i8*
  call void @llvm.memset.p0i8.i64(i8* nonnull align 8 %6, i8 -86, i64 24, i1 false)
  call void @_ZN4base14PickleIteratorC1ERKNS_6PickleE(%"class.base::PickleIterator"* nonnull %3, %"class.base::Pickle"* dereferenceable(40) %5) #11
  %7 = getelementptr inbounds %"class.std::__1::tuple.106", %"class.std::__1::tuple.106"* %1, i64 0, i32 0, i32 0, i32 0
  %8 = call zeroext i1 @_ZN4base14PickleIterator10ReadStringEPNSt3__112basic_stringIcNS1_11char_traitsIcEENS1_9allocatorIcEEEE(%"class.base::PickleIterator"* nonnull %3, %"class.std::__1::basic_string"* %7) #11
  br i1 %8, label %9, label %22

9:                                                ; preds = %2
  %10 = getelementptr inbounds %"class.std::__1::tuple.106", %"class.std::__1::tuple.106"* %1, i64 0, i32 0, i32 1, i32 0
  %11 = call zeroext i1 @_ZN4base14PickleIterator10ReadStringEPNSt3__112basic_stringIcNS1_11char_traitsIcEENS1_9allocatorIcEEEE(%"class.base::PickleIterator"* nonnull %3, %"class.std::__1::basic_string"* %10) #11
  br i1 %11, label %12, label %22

12:                                               ; preds = %9
  %13 = getelementptr inbounds %"class.std::__1::tuple.106", %"class.std::__1::tuple.106"* %1, i64 0, i32 0, i32 2, i32 0, i32 0, i32 0, i32 0, i32 0
  %14 = bitcast i8* %13 to %"class.absl::optional.111"*
  %15 = call zeroext i1 @_ZN3IPC11ParamTraitsIN4absl8optionalI23ServiceWorkerIdentifierEEE4ReadEPKN4base6PickleEPNS6_14PickleIteratorEPS4_(%"class.base::Pickle"* %5, %"class.base::PickleIterator"* nonnull %3, %"class.absl::optional.111"* %14) #11
  br i1 %15, label %16, label %22

16:                                               ; preds = %12
  %17 = getelementptr inbounds %"class.std::__1::tuple.106", %"class.std::__1::tuple.106"* %1, i64 0, i32 0, i32 3, i32 0
  %18 = call zeroext i1 @_ZN3IPC11ParamTraitsIN4base15DictionaryValueEE4ReadEPKNS1_6PickleEPNS1_14PickleIteratorEPS2_(%"class.base::Pickle"* %5, %"class.base::PickleIterator"* nonnull %3, %"class.base::DictionaryValue"* %17) #11
  br i1 %18, label %19, label %22

19:                                               ; preds = %16
  %20 = getelementptr inbounds %"class.std::__1::tuple.106", %"class.std::__1::tuple.106"* %1, i64 0, i32 0, i32 4, i32 0
  %21 = call zeroext i1 @_ZN4base14PickleIterator8ReadBoolEPb(%"class.base::PickleIterator"* nonnull %3, i8* %20) #11
  br label %22

22:                                               ; preds = %2, %9, %12, %16, %19
  %23 = phi i1 [ false, %2 ], [ false, %9 ], [ false, %12 ], [ false, %16 ], [ %21, %19 ]
  call void @llvm.lifetime.end.p0i8(i64 24, i8* nonnull %4) #11
  ret i1 %23
}

; Function Attrs: nounwind ssp uwtable
define weak_odr hidden void @_ZN3IPC8MessageTI41ExtensionHostMsg_AddFilteredListener_MetaNSt3__15tupleIJNS2_12basic_stringIcNS2_11char_traitsIcEENS2_9allocatorIcEEEES9_N4absl8optionalI23ServiceWorkerIdentifierEEN4base15DictionaryValueEbEEEvE3LogEPS9_PKNS_7MessageESI_(%"class.std::__1::basic_string"*, %"class.IPC::Message"*, %"class.std::__1::basic_string"*) local_unnamed_addr #0 comdat align 2 {
  %4 = alloca %"class.std::__1::tuple.106", align 8
  %5 = icmp eq %"class.std::__1::basic_string"* %0, null
  br i1 %5, label %8, label %6

6:                                                ; preds = %3
  %7 = tail call dereferenceable(24) %"class.std::__1::basic_string"* @_ZNSt3__112basic_stringIcNS_11char_traitsIcEENS_9allocatorIcEEE17__assign_externalEPKcm(%"class.std::__1::basic_string"* nonnull %0, i8* getelementptr inbounds ([37 x i8], [37 x i8]* @_ZN41ExtensionHostMsg_AddFilteredListener_Meta5kNameE, i64 0, i64 0), i64 36) #11
  br label %8

8:                                                ; preds = %6, %3
  %9 = icmp ne %"class.IPC::Message"* %1, null
  %10 = icmp ne %"class.std::__1::basic_string"* %2, null
  %11 = and i1 %9, %10
  br i1 %11, label %12, label %44

12:                                               ; preds = %8
  %13 = bitcast %"class.std::__1::tuple.106"* %4 to i8*
  call void @llvm.lifetime.start.p0i8(i64 232, i8* nonnull %13) #11
  call void @llvm.memset.p0i8.i64(i8* nonnull align 8 %13, i8 -86, i64 232, i1 false)
  %14 = getelementptr inbounds %"class.std::__1::tuple.106", %"class.std::__1::tuple.106"* %4, i64 0, i32 0, i32 2, i32 0, i32 0, i32 0, i32 0, i32 0
  %15 = getelementptr inbounds i8, i8* %14, i64 8
  call void @llvm.memset.p0i8.i64(i8* nonnull align 8 %13, i8 0, i64 49, i1 false) #11
  call void @llvm.memset.p0i8.i64(i8* align 8 %15, i8 0, i64 136, i1 false) #11
  %16 = getelementptr inbounds %"class.std::__1::tuple.106", %"class.std::__1::tuple.106"* %4, i64 0, i32 0, i32 3, i32 0
  call void @_ZN4base15DictionaryValueC1Ev(%"class.base::DictionaryValue"* %16) #11
  %17 = getelementptr inbounds %"class.std::__1::tuple.106", %"class.std::__1::tuple.106"* %4, i64 0, i32 0, i32 4, i32 0
  store i8 0, i8* %17, align 8
  %18 = call zeroext i1 @_ZN3IPC8MessageTI41ExtensionHostMsg_AddFilteredListener_MetaNSt3__15tupleIJNS2_12basic_stringIcNS2_11char_traitsIcEENS2_9allocatorIcEEEES9_N4absl8optionalI23ServiceWorkerIdentifierEEN4base15DictionaryValueEbEEEvE4ReadEPKNS_7MessageEPSG_(%"class.IPC::Message"* nonnull %1, %"class.std::__1::tuple.106"* nonnull %4)
  br i1 %18, label %19, label %20

19:                                               ; preds = %12
  call void @_ZN3IPC22TupleParamTraitsHelperINSt3__15tupleIJNS1_12basic_stringIcNS1_11char_traitsIcEENS1_9allocatorIcEEEES8_N4absl8optionalI23ServiceWorkerIdentifierEEN4base15DictionaryValueEbEEELi0ELi5EE3LogERKSF_PS8_(%"class.std::__1::tuple.106"* nonnull dereferenceable(232) %4, %"class.std::__1::basic_string"* nonnull %2) #11
  br label %20

20:                                               ; preds = %19, %12
  %21 = getelementptr inbounds %"class.std::__1::tuple.106", %"class.std::__1::tuple.106"* %4, i64 0, i32 0, i32 3, i32 0, i32 0
  call void @_ZN4base5ValueD2Ev(%"class.base::Value"* %21) #11
  %22 = load i8, i8* %14, align 8, !range !2
  %23 = icmp eq i8 %22, 0
  br i1 %23, label %26, label %24

24:                                               ; preds = %20
  %25 = bitcast i8* %15 to %class.GURL*
  call void @_ZN4GURLD1Ev(%class.GURL* %25) #11
  store i8 0, i8* %14, align 8
  br label %26

26:                                               ; preds = %24, %20
  %27 = getelementptr inbounds %"class.std::__1::tuple.106", %"class.std::__1::tuple.106"* %4, i64 0, i32 0, i32 1
  %28 = bitcast %"class.std::__1::__tuple_leaf.109"* %27 to %"struct.std::__1::basic_string<char, std::__1::char_traits<char>, std::__1::allocator<char> >::__short"*
  %29 = getelementptr inbounds %"struct.std::__1::basic_string<char, std::__1::char_traits<char>, std::__1::allocator<char> >::__short", %"struct.std::__1::basic_string<char, std::__1::char_traits<char>, std::__1::allocator<char> >::__short"* %28, i64 0, i32 1, i32 0
  %30 = load i8, i8* %29, align 1
  %31 = icmp slt i8 %30, 0
  br i1 %31, label %32, label %35

32:                                               ; preds = %26
  %33 = getelementptr inbounds %"class.std::__1::__tuple_leaf.109", %"class.std::__1::__tuple_leaf.109"* %27, i64 0, i32 0, i32 0, i32 0, i32 0, i32 0, i32 0, i32 0
  %34 = load i8*, i8** %33, align 8
  call void @_ZdlPv(i8* %34) #12
  br label %35

35:                                               ; preds = %32, %26
  %36 = bitcast %"class.std::__1::tuple.106"* %4 to %"struct.std::__1::basic_string<char, std::__1::char_traits<char>, std::__1::allocator<char> >::__short"*
  %37 = getelementptr inbounds %"struct.std::__1::basic_string<char, std::__1::char_traits<char>, std::__1::allocator<char> >::__short", %"struct.std::__1::basic_string<char, std::__1::char_traits<char>, std::__1::allocator<char> >::__short"* %36, i64 0, i32 1, i32 0
  %38 = load i8, i8* %37, align 1
  %39 = icmp slt i8 %38, 0
  br i1 %39, label %40, label %43

40:                                               ; preds = %35
  %41 = getelementptr inbounds %"class.std::__1::tuple.106", %"class.std::__1::tuple.106"* %4, i64 0, i32 0, i32 0, i32 0, i32 0, i32 0, i32 0, i32 0, i32 0, i32 0
  %42 = load i8*, i8** %41, align 8
  call void @_ZdlPv(i8* %42) #12
  br label %43

43:                                               ; preds = %35, %40
  call void @llvm.lifetime.end.p0i8(i64 232, i8* nonnull %13) #11
  br label %44

44:                                               ; preds = %8, %43
  ret void
}

; Function Attrs: nounwind ssp uwtable
define weak_odr hidden void @_ZN3IPC8MessageTI41ExtensionHostMsg_AddFilteredListener_MetaNSt3__15tupleIJNS2_12basic_stringIcNS2_11char_traitsIcEENS2_9allocatorIcEEEES9_N4absl8optionalI23ServiceWorkerIdentifierEEN4base15DictionaryValueEbEEEvEC2ENS_7RoutingERKS9_SK_RKSD_RKSF_RKb(%"class.IPC::MessageT.119"*, i32, %"class.std::__1::basic_string"* dereferenceable(24), %"class.std::__1::basic_string"* dereferenceable(24), %"class.absl::optional.111"* dereferenceable(144), %"class.base::DictionaryValue"* dereferenceable(32), i8* dereferenceable(1)) unnamed_addr #0 comdat($_ZN3IPC8MessageTI41ExtensionHostMsg_AddFilteredListener_MetaNSt3__15tupleIJNS2_12basic_stringIcNS2_11char_traitsIcEENS2_9allocatorIcEEEES9_N4absl8optionalI23ServiceWorkerIdentifierEEN4base15DictionaryValueEbEEEvEC5ENS_7RoutingERKS9_SK_RKSD_RKSF_RKb) align 2 {
  %8 = alloca %"class.base::BasicStringPiece", align 8
  %9 = alloca %"class.base::BasicStringPiece", align 8
  %10 = alloca %"class.std::__1::tuple.120", align 8
  %11 = getelementptr inbounds %"class.IPC::MessageT.119", %"class.IPC::MessageT.119"* %0, i64 0, i32 0
  tail call void @_ZN3IPC7MessageC2EijNS0_13PriorityValueE(%"class.IPC::Message"* %11, i32 %1, i32 459125, i32 2) #11
  %12 = getelementptr inbounds %"class.IPC::MessageT.119", %"class.IPC::MessageT.119"* %0, i64 0, i32 0, i32 0, i32 0
  store i32 (...)** bitcast (i8** getelementptr inbounds ({ [7 x i8*] }, { [7 x i8*] }* @_ZTVN3IPC8MessageTI41ExtensionHostMsg_AddFilteredListener_MetaNSt3__15tupleIJNS2_12basic_stringIcNS2_11char_traitsIcEENS2_9allocatorIcEEEES9_N4absl8optionalI23ServiceWorkerIdentifierEEN4base15DictionaryValueEbEEEvEE, i64 0, inrange i32 0, i64 2) to i32 (...)**), i32 (...)*** %12, align 8
  %13 = getelementptr inbounds %"class.IPC::MessageT.119", %"class.IPC::MessageT.119"* %0, i64 0, i32 0, i32 0
  %14 = bitcast %"class.std::__1::tuple.120"* %10 to i8*
  call void @llvm.lifetime.start.p0i8(i64 40, i8* nonnull %14) #11
  %15 = getelementptr inbounds %"class.std::__1::tuple.120", %"class.std::__1::tuple.120"* %10, i64 0, i32 0, i32 0, i32 0
  store %"class.std::__1::basic_string"* %2, %"class.std::__1::basic_string"** %15, align 8, !alias.scope !3
  %16 = getelementptr inbounds %"class.std::__1::tuple.120", %"class.std::__1::tuple.120"* %10, i64 0, i32 0, i32 1, i32 0
  store %"class.std::__1::basic_string"* %3, %"class.std::__1::basic_string"** %16, align 8, !alias.scope !3
  %17 = getelementptr inbounds %"class.std::__1::tuple.120", %"class.std::__1::tuple.120"* %10, i64 0, i32 0, i32 2, i32 0
  store %"class.absl::optional.111"* %4, %"class.absl::optional.111"** %17, align 8, !alias.scope !3
  %18 = getelementptr inbounds %"class.std::__1::tuple.120", %"class.std::__1::tuple.120"* %10, i64 0, i32 0, i32 3, i32 0
  store %"class.base::DictionaryValue"* %5, %"class.base::DictionaryValue"** %18, align 8, !alias.scope !3
  %19 = getelementptr inbounds %"class.std::__1::tuple.120", %"class.std::__1::tuple.120"* %10, i64 0, i32 0, i32 4, i32 0
  store i8* %6, i8** %19, align 8, !alias.scope !3
  %20 = bitcast %"class.base::BasicStringPiece"* %8 to i8*
  call void @llvm.lifetime.start.p0i8(i64 16, i8* nonnull %20) #11
  %21 = getelementptr inbounds %"class.base::BasicStringPiece", %"class.base::BasicStringPiece"* %8, i64 0, i32 0
  %22 = bitcast %"class.std::__1::basic_string"* %2 to %"struct.std::__1::basic_string<char, std::__1::char_traits<char>, std::__1::allocator<char> >::__short"*
  %23 = getelementptr inbounds %"struct.std::__1::basic_string<char, std::__1::char_traits<char>, std::__1::allocator<char> >::__short", %"struct.std::__1::basic_string<char, std::__1::char_traits<char>, std::__1::allocator<char> >::__short"* %22, i64 0, i32 1, i32 0
  %24 = load i8, i8* %23, align 1
  %25 = icmp slt i8 %24, 0
  %26 = getelementptr inbounds %"class.std::__1::basic_string", %"class.std::__1::basic_string"* %2, i64 0, i32 0, i32 0, i32 0, i32 0, i32 0, i32 0
  %27 = load i8*, i8** %26, align 8
  %28 = bitcast %"class.std::__1::basic_string"* %2 to i8*
  %29 = select i1 %25, i8* %27, i8* %28
  store i8* %29, i8** %21, align 8
  %30 = getelementptr inbounds %"class.base::BasicStringPiece", %"class.base::BasicStringPiece"* %8, i64 0, i32 1
  %31 = getelementptr inbounds %"class.std::__1::basic_string", %"class.std::__1::basic_string"* %2, i64 0, i32 0, i32 0, i32 0, i32 0, i32 0, i32 1
  %32 = load i64, i64* %31, align 8
  %33 = zext i8 %24 to i64
  %34 = select i1 %25, i64 %32, i64 %33
  store i64 %34, i64* %30, align 8
  call void @_ZN4base6Pickle11WriteStringERKNS_16BasicStringPieceIcNSt3__111char_traitsIcEEEE(%"class.base::Pickle"* %13, %"class.base::BasicStringPiece"* nonnull dereferenceable(16) %8) #11
  call void @llvm.lifetime.end.p0i8(i64 16, i8* nonnull %20) #11
  %35 = bitcast %"class.base::BasicStringPiece"* %9 to i8*
  call void @llvm.lifetime.start.p0i8(i64 16, i8* nonnull %35) #11
  %36 = getelementptr inbounds %"class.base::BasicStringPiece", %"class.base::BasicStringPiece"* %9, i64 0, i32 0
  %37 = bitcast %"class.std::__1::basic_string"* %3 to %"struct.std::__1::basic_string<char, std::__1::char_traits<char>, std::__1::allocator<char> >::__short"*
  %38 = getelementptr inbounds %"struct.std::__1::basic_string<char, std::__1::char_traits<char>, std::__1::allocator<char> >::__short", %"struct.std::__1::basic_string<char, std::__1::char_traits<char>, std::__1::allocator<char> >::__short"* %37, i64 0, i32 1, i32 0
  %39 = load i8, i8* %38, align 1
  %40 = icmp slt i8 %39, 0
  %41 = getelementptr inbounds %"class.std::__1::basic_string", %"class.std::__1::basic_string"* %3, i64 0, i32 0, i32 0, i32 0, i32 0, i32 0, i32 0
  %42 = load i8*, i8** %41, align 8
  %43 = bitcast %"class.std::__1::basic_string"* %3 to i8*
  %44 = select i1 %40, i8* %42, i8* %43
  store i8* %44, i8** %36, align 8
  %45 = getelementptr inbounds %"class.base::BasicStringPiece", %"class.base::BasicStringPiece"* %9, i64 0, i32 1
  %46 = getelementptr inbounds %"class.std::__1::basic_string", %"class.std::__1::basic_string"* %3, i64 0, i32 0, i32 0, i32 0, i32 0, i32 0, i32 1
  %47 = load i64, i64* %46, align 8
  %48 = zext i8 %39 to i64
  %49 = select i1 %40, i64 %47, i64 %48
  store i64 %49, i64* %45, align 8
  call void @_ZN4base6Pickle11WriteStringERKNS_16BasicStringPieceIcNSt3__111char_traitsIcEEEE(%"class.base::Pickle"* %13, %"class.base::BasicStringPiece"* nonnull dereferenceable(16) %9) #11
  call void @llvm.lifetime.end.p0i8(i64 16, i8* nonnull %35) #11
  call void @_ZN3IPC22TupleParamTraitsHelperINSt3__15tupleIJRKNS1_12basic_stringIcNS1_11char_traitsIcEENS1_9allocatorIcEEEESA_RKN4absl8optionalI23ServiceWorkerIdentifierEERKN4base15DictionaryValueERKbEEELi2ELi5EE5WriteEPNSH_6PickleERKSN_(%"class.base::Pickle"* %13, %"class.std::__1::tuple.120"* nonnull dereferenceable(40) %10) #11
  call void @llvm.lifetime.end.p0i8(i64 40, i8* nonnull %14) #11
  ret void
}

; Function Attrs: nounwind ssp uwtable
define weak_odr hidden zeroext i1 @_ZN3IPC8MessageTI44ExtensionHostMsg_RemoveFilteredListener_MetaNSt3__15tupleIJNS2_12basic_stringIcNS2_11char_traitsIcEENS2_9allocatorIcEEEES9_N4absl8optionalI23ServiceWorkerIdentifierEEN4base15DictionaryValueEbEEEvE4ReadEPKNS_7MessageEPSG_(%"class.IPC::Message"*, %"class.std::__1::tuple.106"*) local_unnamed_addr #0 comdat align 2 {
  %3 = alloca %"class.base::PickleIterator", align 8
  %4 = bitcast %"class.base::PickleIterator"* %3 to i8*
  call void @llvm.lifetime.start.p0i8(i64 24, i8* nonnull %4) #11
  %5 = getelementptr inbounds %"class.IPC::Message", %"class.IPC::Message"* %0, i64 0, i32 0
  %6 = bitcast %"class.base::PickleIterator"* %3 to i8*
  call void @llvm.memset.p0i8.i64(i8* nonnull align 8 %6, i8 -86, i64 24, i1 false)
  call void @_ZN4base14PickleIteratorC1ERKNS_6PickleE(%"class.base::PickleIterator"* nonnull %3, %"class.base::Pickle"* dereferenceable(40) %5) #11
  %7 = getelementptr inbounds %"class.std::__1::tuple.106", %"class.std::__1::tuple.106"* %1, i64 0, i32 0, i32 0, i32 0
  %8 = call zeroext i1 @_ZN4base14PickleIterator10ReadStringEPNSt3__112basic_stringIcNS1_11char_traitsIcEENS1_9allocatorIcEEEE(%"class.base::PickleIterator"* nonnull %3, %"class.std::__1::basic_string"* %7) #11
  br i1 %8, label %9, label %22

9:                                                ; preds = %2
  %10 = getelementptr inbounds %"class.std::__1::tuple.106", %"class.std::__1::tuple.106"* %1, i64 0, i32 0, i32 1, i32 0
  %11 = call zeroext i1 @_ZN4base14PickleIterator10ReadStringEPNSt3__112basic_stringIcNS1_11char_traitsIcEENS1_9allocatorIcEEEE(%"class.base::PickleIterator"* nonnull %3, %"class.std::__1::basic_string"* %10) #11
  br i1 %11, label %12, label %22

12:                                               ; preds = %9
  %13 = getelementptr inbounds %"class.std::__1::tuple.106", %"class.std::__1::tuple.106"* %1, i64 0, i32 0, i32 2, i32 0, i32 0, i32 0, i32 0, i32 0
  %14 = bitcast i8* %13 to %"class.absl::optional.111"*
  %15 = call zeroext i1 @_ZN3IPC11ParamTraitsIN4absl8optionalI23ServiceWorkerIdentifierEEE4ReadEPKN4base6PickleEPNS6_14PickleIteratorEPS4_(%"class.base::Pickle"* %5, %"class.base::PickleIterator"* nonnull %3, %"class.absl::optional.111"* %14) #11
  br i1 %15, label %16, label %22

16:                                               ; preds = %12
  %17 = getelementptr inbounds %"class.std::__1::tuple.106", %"class.std::__1::tuple.106"* %1, i64 0, i32 0, i32 3, i32 0
  %18 = call zeroext i1 @_ZN3IPC11ParamTraitsIN4base15DictionaryValueEE4ReadEPKNS1_6PickleEPNS1_14PickleIteratorEPS2_(%"class.base::Pickle"* %5, %"class.base::PickleIterator"* nonnull %3, %"class.base::DictionaryValue"* %17) #11
  br i1 %18, label %19, label %22

19:                                               ; preds = %16
  %20 = getelementptr inbounds %"class.std::__1::tuple.106", %"class.std::__1::tuple.106"* %1, i64 0, i32 0, i32 4, i32 0
  %21 = call zeroext i1 @_ZN4base14PickleIterator8ReadBoolEPb(%"class.base::PickleIterator"* nonnull %3, i8* %20) #11
  br label %22

22:                                               ; preds = %2, %9, %12, %16, %19
  %23 = phi i1 [ false, %2 ], [ false, %9 ], [ false, %12 ], [ false, %16 ], [ %21, %19 ]
  call void @llvm.lifetime.end.p0i8(i64 24, i8* nonnull %4) #11
  ret i1 %23
}

; Function Attrs: nounwind ssp uwtable
define weak_odr hidden void @_ZN3IPC8MessageTI44ExtensionHostMsg_RemoveFilteredListener_MetaNSt3__15tupleIJNS2_12basic_stringIcNS2_11char_traitsIcEENS2_9allocatorIcEEEES9_N4absl8optionalI23ServiceWorkerIdentifierEEN4base15DictionaryValueEbEEEvE3LogEPS9_PKNS_7MessageESI_(%"class.std::__1::basic_string"*, %"class.IPC::Message"*, %"class.std::__1::basic_string"*) local_unnamed_addr #0 comdat align 2 {
  %4 = alloca %"class.std::__1::tuple.106", align 8
  %5 = icmp eq %"class.std::__1::basic_string"* %0, null
  br i1 %5, label %8, label %6

6:                                                ; preds = %3
  %7 = tail call dereferenceable(24) %"class.std::__1::basic_string"* @_ZNSt3__112basic_stringIcNS_11char_traitsIcEENS_9allocatorIcEEE17__assign_externalEPKcm(%"class.std::__1::basic_string"* nonnull %0, i8* getelementptr inbounds ([40 x i8], [40 x i8]* @_ZN44ExtensionHostMsg_RemoveFilteredListener_Meta5kNameE, i64 0, i64 0), i64 39) #11
  br label %8

8:                                                ; preds = %6, %3
  %9 = icmp ne %"class.IPC::Message"* %1, null
  %10 = icmp ne %"class.std::__1::basic_string"* %2, null
  %11 = and i1 %9, %10
  br i1 %11, label %12, label %44

12:                                               ; preds = %8
  %13 = bitcast %"class.std::__1::tuple.106"* %4 to i8*
  call void @llvm.lifetime.start.p0i8(i64 232, i8* nonnull %13) #11
  call void @llvm.memset.p0i8.i64(i8* nonnull align 8 %13, i8 -86, i64 232, i1 false)
  %14 = getelementptr inbounds %"class.std::__1::tuple.106", %"class.std::__1::tuple.106"* %4, i64 0, i32 0, i32 2, i32 0, i32 0, i32 0, i32 0, i32 0
  %15 = getelementptr inbounds i8, i8* %14, i64 8
  call void @llvm.memset.p0i8.i64(i8* nonnull align 8 %13, i8 0, i64 49, i1 false) #11
  call void @llvm.memset.p0i8.i64(i8* align 8 %15, i8 0, i64 136, i1 false) #11
  %16 = getelementptr inbounds %"class.std::__1::tuple.106", %"class.std::__1::tuple.106"* %4, i64 0, i32 0, i32 3, i32 0
  call void @_ZN4base15DictionaryValueC1Ev(%"class.base::DictionaryValue"* %16) #11
  %17 = getelementptr inbounds %"class.std::__1::tuple.106", %"class.std::__1::tuple.106"* %4, i64 0, i32 0, i32 4, i32 0
  store i8 0, i8* %17, align 8
  %18 = call zeroext i1 @_ZN3IPC8MessageTI44ExtensionHostMsg_RemoveFilteredListener_MetaNSt3__15tupleIJNS2_12basic_stringIcNS2_11char_traitsIcEENS2_9allocatorIcEEEES9_N4absl8optionalI23ServiceWorkerIdentifierEEN4base15DictionaryValueEbEEEvE4ReadEPKNS_7MessageEPSG_(%"class.IPC::Message"* nonnull %1, %"class.std::__1::tuple.106"* nonnull %4)
  br i1 %18, label %19, label %20

19:                                               ; preds = %12
  call void @_ZN3IPC22TupleParamTraitsHelperINSt3__15tupleIJNS1_12basic_stringIcNS1_11char_traitsIcEENS1_9allocatorIcEEEES8_N4absl8optionalI23ServiceWorkerIdentifierEEN4base15DictionaryValueEbEEELi0ELi5EE3LogERKSF_PS8_(%"class.std::__1::tuple.106"* nonnull dereferenceable(232) %4, %"class.std::__1::basic_string"* nonnull %2) #11
  br label %20

20:                                               ; preds = %19, %12
  %21 = getelementptr inbounds %"class.std::__1::tuple.106", %"class.std::__1::tuple.106"* %4, i64 0, i32 0, i32 3, i32 0, i32 0
  call void @_ZN4base5ValueD2Ev(%"class.base::Value"* %21) #11
  %22 = load i8, i8* %14, align 8, !range !2
  %23 = icmp eq i8 %22, 0
  br i1 %23, label %26, label %24

24:                                               ; preds = %20
  %25 = bitcast i8* %15 to %class.GURL*
  call void @_ZN4GURLD1Ev(%class.GURL* %25) #11
  store i8 0, i8* %14, align 8
  br label %26

26:                                               ; preds = %24, %20
  %27 = getelementptr inbounds %"class.std::__1::tuple.106", %"class.std::__1::tuple.106"* %4, i64 0, i32 0, i32 1
  %28 = bitcast %"class.std::__1::__tuple_leaf.109"* %27 to %"struct.std::__1::basic_string<char, std::__1::char_traits<char>, std::__1::allocator<char> >::__short"*
  %29 = getelementptr inbounds %"struct.std::__1::basic_string<char, std::__1::char_traits<char>, std::__1::allocator<char> >::__short", %"struct.std::__1::basic_string<char, std::__1::char_traits<char>, std::__1::allocator<char> >::__short"* %28, i64 0, i32 1, i32 0
  %30 = load i8, i8* %29, align 1
  %31 = icmp slt i8 %30, 0
  br i1 %31, label %32, label %35

32:                                               ; preds = %26
  %33 = getelementptr inbounds %"class.std::__1::__tuple_leaf.109", %"class.std::__1::__tuple_leaf.109"* %27, i64 0, i32 0, i32 0, i32 0, i32 0, i32 0, i32 0, i32 0
  %34 = load i8*, i8** %33, align 8
  call void @_ZdlPv(i8* %34) #12
  br label %35

35:                                               ; preds = %32, %26
  %36 = bitcast %"class.std::__1::tuple.106"* %4 to %"struct.std::__1::basic_string<char, std::__1::char_traits<char>, std::__1::allocator<char> >::__short"*
  %37 = getelementptr inbounds %"struct.std::__1::basic_string<char, std::__1::char_traits<char>, std::__1::allocator<char> >::__short", %"struct.std::__1::basic_string<char, std::__1::char_traits<char>, std::__1::allocator<char> >::__short"* %36, i64 0, i32 1, i32 0
  %38 = load i8, i8* %37, align 1
  %39 = icmp slt i8 %38, 0
  br i1 %39, label %40, label %43

40:                                               ; preds = %35
  %41 = getelementptr inbounds %"class.std::__1::tuple.106", %"class.std::__1::tuple.106"* %4, i64 0, i32 0, i32 0, i32 0, i32 0, i32 0, i32 0, i32 0, i32 0, i32 0
  %42 = load i8*, i8** %41, align 8
  call void @_ZdlPv(i8* %42) #12
  br label %43

43:                                               ; preds = %35, %40
  call void @llvm.lifetime.end.p0i8(i64 232, i8* nonnull %13) #11
  br label %44

44:                                               ; preds = %8, %43
  ret void
}

; Function Attrs: nounwind ssp uwtable
define weak_odr hidden void @_ZN3IPC8MessageTI44ExtensionHostMsg_RemoveFilteredListener_MetaNSt3__15tupleIJNS2_12basic_stringIcNS2_11char_traitsIcEENS2_9allocatorIcEEEES9_N4absl8optionalI23ServiceWorkerIdentifierEEN4base15DictionaryValueEbEEEvEC2ENS_7RoutingERKS9_SK_RKSD_RKSF_RKb(%"class.IPC::MessageT.127"*, i32, %"class.std::__1::basic_string"* dereferenceable(24), %"class.std::__1::basic_string"* dereferenceable(24), %"class.absl::optional.111"* dereferenceable(144), %"class.base::DictionaryValue"* dereferenceable(32), i8* dereferenceable(1)) unnamed_addr #0 comdat($_ZN3IPC8MessageTI44ExtensionHostMsg_RemoveFilteredListener_MetaNSt3__15tupleIJNS2_12basic_stringIcNS2_11char_traitsIcEENS2_9allocatorIcEEEES9_N4absl8optionalI23ServiceWorkerIdentifierEEN4base15DictionaryValueEbEEEvEC5ENS_7RoutingERKS9_SK_RKSD_RKSF_RKb) align 2 {
  %8 = alloca %"class.base::BasicStringPiece", align 8
  %9 = alloca %"class.base::BasicStringPiece", align 8
  %10 = alloca %"class.std::__1::tuple.120", align 8
  %11 = getelementptr inbounds %"class.IPC::MessageT.127", %"class.IPC::MessageT.127"* %0, i64 0, i32 0
  tail call void @_ZN3IPC7MessageC2EijNS0_13PriorityValueE(%"class.IPC::Message"* %11, i32 %1, i32 459137, i32 2) #11
  %12 = getelementptr inbounds %"class.IPC::MessageT.127", %"class.IPC::MessageT.127"* %0, i64 0, i32 0, i32 0, i32 0
  store i32 (...)** bitcast (i8** getelementptr inbounds ({ [7 x i8*] }, { [7 x i8*] }* @_ZTVN3IPC8MessageTI44ExtensionHostMsg_RemoveFilteredListener_MetaNSt3__15tupleIJNS2_12basic_stringIcNS2_11char_traitsIcEENS2_9allocatorIcEEEES9_N4absl8optionalI23ServiceWorkerIdentifierEEN4base15DictionaryValueEbEEEvEE, i64 0, inrange i32 0, i64 2) to i32 (...)**), i32 (...)*** %12, align 8
  %13 = getelementptr inbounds %"class.IPC::MessageT.127", %"class.IPC::MessageT.127"* %0, i64 0, i32 0, i32 0
  %14 = bitcast %"class.std::__1::tuple.120"* %10 to i8*
  call void @llvm.lifetime.start.p0i8(i64 40, i8* nonnull %14) #11
  %15 = getelementptr inbounds %"class.std::__1::tuple.120", %"class.std::__1::tuple.120"* %10, i64 0, i32 0, i32 0, i32 0
  store %"class.std::__1::basic_string"* %2, %"class.std::__1::basic_string"** %15, align 8, !alias.scope !6
  %16 = getelementptr inbounds %"class.std::__1::tuple.120", %"class.std::__1::tuple.120"* %10, i64 0, i32 0, i32 1, i32 0
  store %"class.std::__1::basic_string"* %3, %"class.std::__1::basic_string"** %16, align 8, !alias.scope !6
  %17 = getelementptr inbounds %"class.std::__1::tuple.120", %"class.std::__1::tuple.120"* %10, i64 0, i32 0, i32 2, i32 0
  store %"class.absl::optional.111"* %4, %"class.absl::optional.111"** %17, align 8, !alias.scope !6
  %18 = getelementptr inbounds %"class.std::__1::tuple.120", %"class.std::__1::tuple.120"* %10, i64 0, i32 0, i32 3, i32 0
  store %"class.base::DictionaryValue"* %5, %"class.base::DictionaryValue"** %18, align 8, !alias.scope !6
  %19 = getelementptr inbounds %"class.std::__1::tuple.120", %"class.std::__1::tuple.120"* %10, i64 0, i32 0, i32 4, i32 0
  store i8* %6, i8** %19, align 8, !alias.scope !6
  %20 = bitcast %"class.base::BasicStringPiece"* %8 to i8*
  call void @llvm.lifetime.start.p0i8(i64 16, i8* nonnull %20) #11
  %21 = getelementptr inbounds %"class.base::BasicStringPiece", %"class.base::BasicStringPiece"* %8, i64 0, i32 0
  %22 = bitcast %"class.std::__1::basic_string"* %2 to %"struct.std::__1::basic_string<char, std::__1::char_traits<char>, std::__1::allocator<char> >::__short"*
  %23 = getelementptr inbounds %"struct.std::__1::basic_string<char, std::__1::char_traits<char>, std::__1::allocator<char> >::__short", %"struct.std::__1::basic_string<char, std::__1::char_traits<char>, std::__1::allocator<char> >::__short"* %22, i64 0, i32 1, i32 0
  %24 = load i8, i8* %23, align 1
  %25 = icmp slt i8 %24, 0
  %26 = getelementptr inbounds %"class.std::__1::basic_string", %"class.std::__1::basic_string"* %2, i64 0, i32 0, i32 0, i32 0, i32 0, i32 0, i32 0
  %27 = load i8*, i8** %26, align 8
  %28 = bitcast %"class.std::__1::basic_string"* %2 to i8*
  %29 = select i1 %25, i8* %27, i8* %28
  store i8* %29, i8** %21, align 8
  %30 = getelementptr inbounds %"class.base::BasicStringPiece", %"class.base::BasicStringPiece"* %8, i64 0, i32 1
  %31 = getelementptr inbounds %"class.std::__1::basic_string", %"class.std::__1::basic_string"* %2, i64 0, i32 0, i32 0, i32 0, i32 0, i32 0, i32 1
  %32 = load i64, i64* %31, align 8
  %33 = zext i8 %24 to i64
  %34 = select i1 %25, i64 %32, i64 %33
  store i64 %34, i64* %30, align 8
  call void @_ZN4base6Pickle11WriteStringERKNS_16BasicStringPieceIcNSt3__111char_traitsIcEEEE(%"class.base::Pickle"* %13, %"class.base::BasicStringPiece"* nonnull dereferenceable(16) %8) #11
  call void @llvm.lifetime.end.p0i8(i64 16, i8* nonnull %20) #11
  %35 = bitcast %"class.base::BasicStringPiece"* %9 to i8*
  call void @llvm.lifetime.start.p0i8(i64 16, i8* nonnull %35) #11
  %36 = getelementptr inbounds %"class.base::BasicStringPiece", %"class.base::BasicStringPiece"* %9, i64 0, i32 0
  %37 = bitcast %"class.std::__1::basic_string"* %3 to %"struct.std::__1::basic_string<char, std::__1::char_traits<char>, std::__1::allocator<char> >::__short"*
  %38 = getelementptr inbounds %"struct.std::__1::basic_string<char, std::__1::char_traits<char>, std::__1::allocator<char> >::__short", %"struct.std::__1::basic_string<char, std::__1::char_traits<char>, std::__1::allocator<char> >::__short"* %37, i64 0, i32 1, i32 0
  %39 = load i8, i8* %38, align 1
  %40 = icmp slt i8 %39, 0
  %41 = getelementptr inbounds %"class.std::__1::basic_string", %"class.std::__1::basic_string"* %3, i64 0, i32 0, i32 0, i32 0, i32 0, i32 0, i32 0
  %42 = load i8*, i8** %41, align 8
  %43 = bitcast %"class.std::__1::basic_string"* %3 to i8*
  %44 = select i1 %40, i8* %42, i8* %43
  store i8* %44, i8** %36, align 8
  %45 = getelementptr inbounds %"class.base::BasicStringPiece", %"class.base::BasicStringPiece"* %9, i64 0, i32 1
  %46 = getelementptr inbounds %"class.std::__1::basic_string", %"class.std::__1::basic_string"* %3, i64 0, i32 0, i32 0, i32 0, i32 0, i32 0, i32 1
  %47 = load i64, i64* %46, align 8
  %48 = zext i8 %39 to i64
  %49 = select i1 %40, i64 %47, i64 %48
  store i64 %49, i64* %45, align 8
  call void @_ZN4base6Pickle11WriteStringERKNS_16BasicStringPieceIcNSt3__111char_traitsIcEEEE(%"class.base::Pickle"* %13, %"class.base::BasicStringPiece"* nonnull dereferenceable(16) %9) #11
  call void @llvm.lifetime.end.p0i8(i64 16, i8* nonnull %35) #11
  call void @_ZN3IPC22TupleParamTraitsHelperINSt3__15tupleIJRKNS1_12basic_stringIcNS1_11char_traitsIcEENS1_9allocatorIcEEEESA_RKN4absl8optionalI23ServiceWorkerIdentifierEERKN4base15DictionaryValueERKbEEELi2ELi5EE5WriteEPNSH_6PickleERKSN_(%"class.base::Pickle"* %13, %"class.std::__1::tuple.120"* nonnull dereferenceable(40) %10) #11
  call void @llvm.lifetime.end.p0i8(i64 40, i8* nonnull %14) #11
  ret void
}

; Function Attrs: nounwind ssp uwtable
define weak_odr hidden zeroext i1 @_ZN3IPC8MessageTI30ExtensionHostMsg_EventAck_MetaNSt3__15tupleIJiEEEvE4ReadEPKNS_7MessageEPS4_(%"class.IPC::Message"*, %"class.std::__1::tuple.52"*) local_unnamed_addr #0 comdat align 2 {
  %3 = alloca %"class.base::PickleIterator", align 8
  %4 = bitcast %"class.base::PickleIterator"* %3 to i8*
  call void @llvm.lifetime.start.p0i8(i64 24, i8* nonnull %4) #11
  %5 = getelementptr inbounds %"class.IPC::Message", %"class.IPC::Message"* %0, i64 0, i32 0
  %6 = bitcast %"class.base::PickleIterator"* %3 to i8*
  call void @llvm.memset.p0i8.i64(i8* nonnull align 8 %6, i8 -86, i64 24, i1 false)
  call void @_ZN4base14PickleIteratorC1ERKNS_6PickleE(%"class.base::PickleIterator"* nonnull %3, %"class.base::Pickle"* dereferenceable(40) %5) #11
  %7 = getelementptr inbounds %"class.std::__1::tuple.52", %"class.std::__1::tuple.52"* %1, i64 0, i32 0, i32 0, i32 0
  %8 = call zeroext i1 @_ZN4base14PickleIterator7ReadIntEPi(%"class.base::PickleIterator"* nonnull %3, i32* %7) #11
  call void @llvm.lifetime.end.p0i8(i64 24, i8* nonnull %4) #11
  ret i1 %8
}

; Function Attrs: nounwind ssp uwtable
define weak_odr hidden void @_ZN3IPC8MessageTI30ExtensionHostMsg_EventAck_MetaNSt3__15tupleIJiEEEvE3LogEPNS2_12basic_stringIcNS2_11char_traitsIcEENS2_9allocatorIcEEEEPKNS_7MessageESC_(%"class.std::__1::basic_string"*, %"class.IPC::Message"*, %"class.std::__1::basic_string"*) local_unnamed_addr #0 comdat align 2 {
  %4 = alloca %"class.base::PickleIterator", align 8
  %5 = alloca %"class.std::__1::tuple.52", align 4
  %6 = icmp eq %"class.std::__1::basic_string"* %0, null
  br i1 %6, label %9, label %7

7:                                                ; preds = %3
  %8 = tail call dereferenceable(24) %"class.std::__1::basic_string"* @_ZNSt3__112basic_stringIcNS_11char_traitsIcEENS_9allocatorIcEEE17__assign_externalEPKcm(%"class.std::__1::basic_string"* nonnull %0, i8* getelementptr inbounds ([26 x i8], [26 x i8]* @_ZN30ExtensionHostMsg_EventAck_Meta5kNameE, i64 0, i64 0), i64 25) #11
  br label %9

9:                                                ; preds = %7, %3
  %10 = icmp ne %"class.IPC::Message"* %1, null
  %11 = icmp ne %"class.std::__1::basic_string"* %2, null
  %12 = and i1 %10, %11
  br i1 %12, label %13, label %21

13:                                               ; preds = %9
  %14 = bitcast %"class.std::__1::tuple.52"* %5 to i8*
  call void @llvm.lifetime.start.p0i8(i64 4, i8* nonnull %14) #11
  %15 = getelementptr inbounds %"class.std::__1::tuple.52", %"class.std::__1::tuple.52"* %5, i64 0, i32 0, i32 0, i32 0
  store i32 0, i32* %15, align 4
  %16 = bitcast %"class.base::PickleIterator"* %4 to i8*
  call void @llvm.lifetime.start.p0i8(i64 24, i8* nonnull %16) #11
  %17 = getelementptr inbounds %"class.IPC::Message", %"class.IPC::Message"* %1, i64 0, i32 0
  call void @llvm.memset.p0i8.i64(i8* nonnull align 8 %16, i8 -86, i64 24, i1 false) #11
  call void @_ZN4base14PickleIteratorC1ERKNS_6PickleE(%"class.base::PickleIterator"* nonnull %4, %"class.base::Pickle"* dereferenceable(40) %17) #11
  %18 = call zeroext i1 @_ZN4base14PickleIterator7ReadIntEPi(%"class.base::PickleIterator"* nonnull %4, i32* nonnull %15) #11
  call void @llvm.lifetime.end.p0i8(i64 24, i8* nonnull %16) #11
  br i1 %18, label %19, label %20

19:                                               ; preds = %13
  call void @_ZN3IPC11ParamTraitsIiE3LogERKiPNSt3__112basic_stringIcNS4_11char_traitsIcEENS4_9allocatorIcEEEE(i32* nonnull dereferenceable(4) %15, %"class.std::__1::basic_string"* nonnull %2) #11
  br label %20

20:                                               ; preds = %19, %13
  call void @llvm.lifetime.end.p0i8(i64 4, i8* nonnull %14) #11
  br label %21

21:                                               ; preds = %9, %20
  ret void
}

; Function Attrs: nounwind ssp uwtable
define weak_odr hidden void @_ZN3IPC8MessageTI30ExtensionHostMsg_EventAck_MetaNSt3__15tupleIJiEEEvEC2ENS_7RoutingERKi(%"class.IPC::MessageT.128"*, i32, i32* dereferenceable(4)) unnamed_addr #0 comdat($_ZN3IPC8MessageTI30ExtensionHostMsg_EventAck_MetaNSt3__15tupleIJiEEEvEC5ENS_7RoutingERKi) align 2 {
  %4 = alloca i32, align 4
  %5 = getelementptr inbounds %"class.IPC::MessageT.128", %"class.IPC::MessageT.128"* %0, i64 0, i32 0
  tail call void @_ZN3IPC7MessageC2EijNS0_13PriorityValueE(%"class.IPC::Message"* %5, i32 %1, i32 459140, i32 2) #11
  %6 = getelementptr inbounds %"class.IPC::MessageT.128", %"class.IPC::MessageT.128"* %0, i64 0, i32 0, i32 0, i32 0
  store i32 (...)** bitcast (i8** getelementptr inbounds ({ [7 x i8*] }, { [7 x i8*] }* @_ZTVN3IPC8MessageTI30ExtensionHostMsg_EventAck_MetaNSt3__15tupleIJiEEEvEE, i64 0, inrange i32 0, i64 2) to i32 (...)**), i32 (...)*** %6, align 8
  %7 = getelementptr inbounds %"class.IPC::MessageT.128", %"class.IPC::MessageT.128"* %0, i64 0, i32 0, i32 0
  %8 = load i32, i32* %2, align 4
  %9 = bitcast i32* %4 to i8*
  call void @llvm.lifetime.start.p0i8(i64 4, i8* nonnull %9) #11
  store i32 %8, i32* %4, align 4
  call void @_ZN4base6Pickle16WriteBytesStaticILm4EEEvPKv(%"class.base::Pickle"* %7, i8* nonnull %9) #11
  call void @llvm.lifetime.end.p0i8(i64 4, i8* nonnull %9) #11
  ret void
}

; Function Attrs: nounwind ssp uwtable
define weak_odr hidden zeroext i1 @_ZN3IPC8MessageTI44ExtensionHostMsg_OpenChannelToExtension_MetaNSt3__15tupleIJN10extensions11PortContextE35ExtensionMsg_ExternalConnectionInfoNS2_12basic_stringIcNS2_11char_traitsIcEENS2_9allocatorIcEEEENS4_6PortIdEEEEvE4ReadEPKNS_7MessageEPSE_(%"class.IPC::Message"*, %"class.std::__1::tuple.129"*) local_unnamed_addr #0 comdat align 2 {
  %3 = alloca %"class.base::PickleIterator", align 8
  %4 = bitcast %"class.base::PickleIterator"* %3 to i8*
  call void @llvm.lifetime.start.p0i8(i64 24, i8* nonnull %4) #11
  %5 = getelementptr inbounds %"class.IPC::Message", %"class.IPC::Message"* %0, i64 0, i32 0
  %6 = bitcast %"class.base::PickleIterator"* %3 to i8*
  call void @llvm.memset.p0i8.i64(i8* nonnull align 8 %6, i8 -86, i64 24, i1 false)
  call void @_ZN4base14PickleIteratorC1ERKNS_6PickleE(%"class.base::PickleIterator"* nonnull %3, %"class.base::Pickle"* dereferenceable(40) %5) #11
  %7 = call zeroext i1 @_ZN3IPC9ReadParamINSt3__15tupleIJN10extensions11PortContextE35ExtensionMsg_ExternalConnectionInfoNS1_12basic_stringIcNS1_11char_traitsIcEENS1_9allocatorIcEEEENS3_6PortIdEEEEEEbPKN4base6PickleEPNSE_14PickleIteratorEPT_(%"class.base::Pickle"* %5, %"class.base::PickleIterator"* nonnull %3, %"class.std::__1::tuple.129"* %1)
  call void @llvm.lifetime.end.p0i8(i64 24, i8* nonnull %4) #11
  ret i1 %7
}

; Function Attrs: inlinehint nounwind ssp uwtable
define linkonce_odr hidden zeroext i1 @_ZN3IPC9ReadParamINSt3__15tupleIJN10extensions11PortContextE35ExtensionMsg_ExternalConnectionInfoNS1_12basic_stringIcNS1_11char_traitsIcEENS1_9allocatorIcEEEENS3_6PortIdEEEEEEbPKN4base6PickleEPNSE_14PickleIteratorEPT_(%"class.base::Pickle"*, %"class.base::PickleIterator"*, %"class.std::__1::tuple.129"*) local_unnamed_addr #3 comdat {
  %4 = alloca i8, align 1
  %5 = alloca %"struct.extensions::PortContext::FrameContext", align 4
  call void @llvm.lifetime.start.p0i8(i64 1, i8* nonnull %4) #11
  store i8 0, i8* %4, align 1
  %6 = call zeroext i1 @_ZN4base14PickleIterator8ReadBoolEPb(%"class.base::PickleIterator"* %1, i8* nonnull %4) #11
  br i1 %6, label %7, label %23

7:                                                ; preds = %3
  %8 = load i8, i8* %4, align 1, !range !2
  %9 = icmp eq i8 %8, 0
  br i1 %9, label %24, label %10

10:                                               ; preds = %7
  %11 = bitcast %"struct.extensions::PortContext::FrameContext"* %5 to i8*
  call void @llvm.lifetime.start.p0i8(i64 4, i8* nonnull %11) #11
  %12 = getelementptr inbounds %"struct.extensions::PortContext::FrameContext", %"struct.extensions::PortContext::FrameContext"* %5, i64 0, i32 0
  store i32 -1431655766, i32* %12, align 4
  call void @_ZN10extensions11PortContext12FrameContextC1Ev(%"struct.extensions::PortContext::FrameContext"* nonnull %5) #11
  %13 = call zeroext i1 @_ZN4base14PickleIterator7ReadIntEPi(%"class.base::PickleIterator"* %1, i32* nonnull %12) #11
  br i1 %13, label %14, label %22

14:                                               ; preds = %10
  %15 = getelementptr inbounds %"class.std::__1::tuple.129", %"class.std::__1::tuple.129"* %2, i64 0, i32 0, i32 0, i32 0, i32 0, i32 0, i32 0, i32 0, i32 0
  %16 = load i8, i8* %15, align 4, !range !2
  %17 = icmp eq i8 %16, 0
  %18 = getelementptr inbounds %"class.std::__1::tuple.129", %"class.std::__1::tuple.129"* %2, i64 0, i32 0, i32 0, i32 0, i32 0, i32 0, i32 0, i32 0, i32 1, i32 0, i32 0
  %19 = load i32, i32* %12, align 4
  store i32 %19, i32* %18, align 4
  br i1 %17, label %20, label %21

20:                                               ; preds = %14
  store i8 1, i8* %15, align 4
  br label %21

21:                                               ; preds = %20, %14
  call void @llvm.lifetime.end.p0i8(i64 4, i8* nonnull %11) #11
  br label %24

22:                                               ; preds = %10
  call void @llvm.lifetime.end.p0i8(i64 4, i8* nonnull %11) #11
  br label %23

23:                                               ; preds = %3, %22
  call void @llvm.lifetime.end.p0i8(i64 1, i8* nonnull %4) #11
  br label %47

24:                                               ; preds = %7, %21
  call void @llvm.lifetime.end.p0i8(i64 1, i8* nonnull %4) #11
  %25 = getelementptr inbounds %"class.std::__1::tuple.129", %"class.std::__1::tuple.129"* %2, i64 0, i32 0, i32 0, i32 0, i32 1
  %26 = call zeroext i1 @_ZN3IPC11ParamTraitsIN4absl8optionalIN10extensions11PortContext13WorkerContextEEEE4ReadEPKN4base6PickleEPNS8_14PickleIteratorEPS6_(%"class.base::Pickle"* %0, %"class.base::PickleIterator"* %1, %"class.absl::optional.137"* %25) #11
  br i1 %26, label %27, label %47

27:                                               ; preds = %24
  %28 = getelementptr inbounds %"class.std::__1::tuple.129", %"class.std::__1::tuple.129"* %2, i64 0, i32 0, i32 0, i32 0, i32 0, i32 0, i32 0, i32 0, i32 0
  %29 = getelementptr inbounds i8, i8* %28, i64 56
  %30 = bitcast i8* %29 to %struct.ExtensionMsg_ExternalConnectionInfo*
  %31 = call zeroext i1 @_ZN3IPC11ParamTraitsI35ExtensionMsg_ExternalConnectionInfoE4ReadEPKN4base6PickleEPNS3_14PickleIteratorEPS1_(%"class.base::Pickle"* %0, %"class.base::PickleIterator"* %1, %struct.ExtensionMsg_ExternalConnectionInfo* %30) #11
  br i1 %31, label %32, label %47

32:                                               ; preds = %27
  %33 = getelementptr inbounds i8, i8* %28, i64 368
  %34 = bitcast i8* %33 to %"class.std::__1::basic_string"*
  %35 = call zeroext i1 @_ZN4base14PickleIterator10ReadStringEPNSt3__112basic_stringIcNS1_11char_traitsIcEENS1_9allocatorIcEEEE(%"class.base::PickleIterator"* %1, %"class.std::__1::basic_string"* %34) #11
  br i1 %35, label %36, label %47

36:                                               ; preds = %32
  %37 = getelementptr inbounds i8, i8* %28, i64 392
  %38 = bitcast i8* %37 to %"class.base::UnguessableToken"*
  %39 = call zeroext i1 @_ZN3IPC11ParamTraitsIN4base16UnguessableTokenEE4ReadEPKNS1_6PickleEPNS1_14PickleIteratorEPS2_(%"class.base::Pickle"* %0, %"class.base::PickleIterator"* %1, %"class.base::UnguessableToken"* %38) #11
  br i1 %39, label %40, label %47

40:                                               ; preds = %36
  %41 = getelementptr inbounds i8, i8* %28, i64 408
  %42 = bitcast i8* %41 to i32*
  %43 = call zeroext i1 @_ZN4base14PickleIterator7ReadIntEPi(%"class.base::PickleIterator"* %1, i32* %42) #11
  br i1 %43, label %44, label %47

44:                                               ; preds = %40
  %45 = getelementptr inbounds i8, i8* %28, i64 412
  %46 = call zeroext i1 @_ZN4base14PickleIterator8ReadBoolEPb(%"class.base::PickleIterator"* %1, i8* %45) #11
  br label %47

47:                                               ; preds = %44, %40, %36, %32, %27, %23, %24
  %48 = phi i1 [ false, %24 ], [ false, %23 ], [ false, %27 ], [ false, %32 ], [ %46, %44 ], [ false, %40 ], [ false, %36 ]
  ret i1 %48
}

; Function Attrs: nounwind ssp uwtable
define weak_odr hidden void @_ZN3IPC8MessageTI44ExtensionHostMsg_OpenChannelToExtension_MetaNSt3__15tupleIJN10extensions11PortContextE35ExtensionMsg_ExternalConnectionInfoNS2_12basic_stringIcNS2_11char_traitsIcEENS2_9allocatorIcEEEENS4_6PortIdEEEEvE3LogEPSC_PKNS_7MessageESG_(%"class.std::__1::basic_string"*, %"class.IPC::Message"*, %"class.std::__1::basic_string"*) local_unnamed_addr #0 comdat align 2 {
  %4 = alloca %"class.base::PickleIterator", align 8
  %5 = alloca %"class.std::__1::tuple.129", align 8
  %6 = icmp eq %"class.std::__1::basic_string"* %0, null
  br i1 %6, label %9, label %7

7:                                                ; preds = %3
  %8 = tail call dereferenceable(24) %"class.std::__1::basic_string"* @_ZNSt3__112basic_stringIcNS_11char_traitsIcEENS_9allocatorIcEEE17__assign_externalEPKcm(%"class.std::__1::basic_string"* nonnull %0, i8* getelementptr inbounds ([40 x i8], [40 x i8]* @_ZN44ExtensionHostMsg_OpenChannelToExtension_Meta5kNameE, i64 0, i64 0), i64 39) #11
  br label %9

9:                                                ; preds = %7, %3
  %10 = icmp ne %"class.IPC::Message"* %1, null
  %11 = icmp ne %"class.std::__1::basic_string"* %2, null
  %12 = and i1 %10, %11
  br i1 %12, label %13, label %64

13:                                               ; preds = %9
  %14 = getelementptr inbounds %"class.std::__1::tuple.129", %"class.std::__1::tuple.129"* %5, i64 0, i32 0, i32 0, i32 0, i32 0, i32 0, i32 0, i32 0, i32 0
  call void @llvm.lifetime.start.p0i8(i64 416, i8* nonnull %14) #11
  call void @llvm.memset.p0i8.i64(i8* nonnull align 8 %14, i8 -86, i64 416, i1 false)
  %15 = getelementptr inbounds %"class.std::__1::tuple.129", %"class.std::__1::tuple.129"* %5, i64 0, i32 0, i32 0, i32 0
  call void @_ZN10extensions11PortContextC1Ev(%"struct.extensions::PortContext"* nonnull %15) #11
  %16 = getelementptr inbounds i8, i8* %14, i64 56
  call void @llvm.memset.p0i8.i64(i8* align 8 %16, i8 0, i64 24, i1 false) #11
  %17 = getelementptr inbounds i8, i8* %14, i64 80
  %18 = bitcast i8* %17 to %"struct.extensions::MessagingEndpoint"*
  call void @_ZN10extensions17MessagingEndpointC1Ev(%"struct.extensions::MessagingEndpoint"* %18) #11
  %19 = getelementptr inbounds i8, i8* %14, i64 152
  %20 = bitcast i8* %19 to %class.GURL*
  call void @_ZN4GURLC1Ev(%class.GURL* %20) #11
  %21 = getelementptr inbounds i8, i8* %14, i64 272
  store i8 0, i8* %21, align 8
  %22 = getelementptr inbounds i8, i8* %14, i64 280
  %23 = getelementptr inbounds i8, i8* %14, i64 392
  %24 = bitcast i8* %23 to %"struct.extensions::PortId"*
  call void @llvm.memset.p0i8.i64(i8* align 8 %22, i8 0, i64 112, i1 false) #11
  call void @_ZN10extensions6PortIdC1Ev(%"struct.extensions::PortId"* %24) #11
  %25 = bitcast %"class.base::PickleIterator"* %4 to i8*
  call void @llvm.lifetime.start.p0i8(i64 24, i8* nonnull %25) #11
  %26 = getelementptr inbounds %"class.IPC::Message", %"class.IPC::Message"* %1, i64 0, i32 0
  call void @llvm.memset.p0i8.i64(i8* nonnull align 8 %25, i8 -86, i64 24, i1 false) #11
  call void @_ZN4base14PickleIteratorC1ERKNS_6PickleE(%"class.base::PickleIterator"* nonnull %4, %"class.base::Pickle"* dereferenceable(40) %26) #11
  %27 = call zeroext i1 @_ZN3IPC9ReadParamINSt3__15tupleIJN10extensions11PortContextE35ExtensionMsg_ExternalConnectionInfoNS1_12basic_stringIcNS1_11char_traitsIcEENS1_9allocatorIcEEEENS3_6PortIdEEEEEEbPKN4base6PickleEPNSE_14PickleIteratorEPT_(%"class.base::Pickle"* %26, %"class.base::PickleIterator"* nonnull %4, %"class.std::__1::tuple.129"* nonnull %5) #11
  call void @llvm.lifetime.end.p0i8(i64 24, i8* nonnull %25) #11
  br i1 %27, label %28, label %43

28:                                               ; preds = %13
  call void @_ZN3IPC11ParamTraitsIN10extensions11PortContextEE3LogERKS2_PNSt3__112basic_stringIcNS6_11char_traitsIcEENS6_9allocatorIcEEEE(%"struct.extensions::PortContext"* nonnull dereferenceable(56) %15, %"class.std::__1::basic_string"* nonnull %2) #11
  %29 = call dereferenceable(24) %"class.std::__1::basic_string"* @_ZNSt3__112basic_stringIcNS_11char_traitsIcEENS_9allocatorIcEEE6appendEPKc(%"class.std::__1::basic_string"* nonnull %2, i8* getelementptr inbounds ([3 x i8], [3 x i8]* @.str.1, i64 0, i64 0)) #11
  %30 = bitcast i8* %16 to %struct.ExtensionMsg_ExternalConnectionInfo*
  call void @_ZN3IPC11ParamTraitsI35ExtensionMsg_ExternalConnectionInfoE3LogERKS1_PNSt3__112basic_stringIcNS5_11char_traitsIcEENS5_9allocatorIcEEEE(%struct.ExtensionMsg_ExternalConnectionInfo* dereferenceable(312) %30, %"class.std::__1::basic_string"* nonnull %2) #11
  %31 = call dereferenceable(24) %"class.std::__1::basic_string"* @_ZNSt3__112basic_stringIcNS_11char_traitsIcEENS_9allocatorIcEEE6appendEPKc(%"class.std::__1::basic_string"* nonnull %2, i8* getelementptr inbounds ([3 x i8], [3 x i8]* @.str.1, i64 0, i64 0)) #11
  %32 = getelementptr inbounds i8, i8* %14, i64 368
  %33 = bitcast i8* %32 to %"class.std::__1::basic_string"*
  call void @_ZN3IPC11ParamTraitsINSt3__112basic_stringIcNS1_11char_traitsIcEENS1_9allocatorIcEEEEE3LogERKS7_PS7_(%"class.std::__1::basic_string"* dereferenceable(24) %33, %"class.std::__1::basic_string"* nonnull %2) #11
  %34 = call dereferenceable(24) %"class.std::__1::basic_string"* @_ZNSt3__112basic_stringIcNS_11char_traitsIcEENS_9allocatorIcEEE6appendEPKc(%"class.std::__1::basic_string"* nonnull %2, i8* getelementptr inbounds ([3 x i8], [3 x i8]* @.str.1, i64 0, i64 0)) #11
  %35 = call dereferenceable(24) %"class.std::__1::basic_string"* @_ZNSt3__112basic_stringIcNS_11char_traitsIcEENS_9allocatorIcEEE6appendEPKc(%"class.std::__1::basic_string"* nonnull %2, i8* getelementptr inbounds ([2 x i8], [2 x i8]* @.str, i64 0, i64 0)) #11
  %36 = bitcast i8* %23 to %"class.base::UnguessableToken"*
  call void @_ZN3IPC11ParamTraitsIN4base16UnguessableTokenEE3LogERKS2_PNSt3__112basic_stringIcNS6_11char_traitsIcEENS6_9allocatorIcEEEE(%"class.base::UnguessableToken"* dereferenceable(16) %36, %"class.std::__1::basic_string"* nonnull %2) #11
  %37 = call dereferenceable(24) %"class.std::__1::basic_string"* @_ZNSt3__112basic_stringIcNS_11char_traitsIcEENS_9allocatorIcEEE6appendEPKc(%"class.std::__1::basic_string"* nonnull %2, i8* getelementptr inbounds ([3 x i8], [3 x i8]* @.str.1, i64 0, i64 0)) #11
  %38 = getelementptr inbounds i8, i8* %14, i64 408
  %39 = bitcast i8* %38 to i32*
  call void @_ZN3IPC11ParamTraitsIiE3LogERKiPNSt3__112basic_stringIcNS4_11char_traitsIcEENS4_9allocatorIcEEEE(i32* dereferenceable(4) %39, %"class.std::__1::basic_string"* nonnull %2) #11
  %40 = call dereferenceable(24) %"class.std::__1::basic_string"* @_ZNSt3__112basic_stringIcNS_11char_traitsIcEENS_9allocatorIcEEE6appendEPKc(%"class.std::__1::basic_string"* nonnull %2, i8* getelementptr inbounds ([3 x i8], [3 x i8]* @.str.1, i64 0, i64 0)) #11
  %41 = getelementptr inbounds i8, i8* %14, i64 412
  call void @_ZN3IPC11ParamTraitsIbE3LogERKbPNSt3__112basic_stringIcNS4_11char_traitsIcEENS4_9allocatorIcEEEE(i8* dereferenceable(1) %41, %"class.std::__1::basic_string"* nonnull %2) #11
  %42 = call dereferenceable(24) %"class.std::__1::basic_string"* @_ZNSt3__112basic_stringIcNS_11char_traitsIcEENS_9allocatorIcEEE6appendEPKc(%"class.std::__1::basic_string"* nonnull %2, i8* getelementptr inbounds ([2 x i8], [2 x i8]* @.str.2, i64 0, i64 0)) #11
  br label %43

43:                                               ; preds = %28, %13
  call void @_ZN10extensions6PortIdD1Ev(%"struct.extensions::PortId"* %24) #11
  %44 = getelementptr inbounds i8, i8* %14, i64 391
  %45 = load i8, i8* %44, align 1
  %46 = icmp slt i8 %45, 0
  br i1 %46, label %47, label %51

47:                                               ; preds = %43
  %48 = getelementptr inbounds i8, i8* %14, i64 368
  %49 = bitcast i8* %48 to i8**
  %50 = load i8*, i8** %49, align 8
  call void @_ZdlPv(i8* %50) #12
  br label %51

51:                                               ; preds = %47, %43
  %52 = load i8, i8* %21, align 8, !range !2
  %53 = icmp eq i8 %52, 0
  br i1 %53, label %56, label %54

54:                                               ; preds = %51
  %55 = bitcast i8* %22 to %"class.url::Origin"*
  call void @_ZN3url6OriginD1Ev(%"class.url::Origin"* %55) #11
  store i8 0, i8* %21, align 8
  br label %56

56:                                               ; preds = %54, %51
  call void @_ZN4GURLD1Ev(%class.GURL* %20) #11
  call void @_ZN10extensions17MessagingEndpointD1Ev(%"struct.extensions::MessagingEndpoint"* %18) #11
  %57 = getelementptr inbounds i8, i8* %14, i64 79
  %58 = load i8, i8* %57, align 1
  %59 = icmp slt i8 %58, 0
  br i1 %59, label %60, label %63

60:                                               ; preds = %56
  %61 = bitcast i8* %16 to i8**
  %62 = load i8*, i8** %61, align 8
  call void @_ZdlPv(i8* %62) #12
  br label %63

63:                                               ; preds = %56, %60
  call void @_ZN10extensions11PortContextD1Ev(%"struct.extensions::PortContext"* nonnull %15) #11
  call void @llvm.lifetime.end.p0i8(i64 416, i8* nonnull %14) #11
  br label %64

64:                                               ; preds = %9, %63
  ret void
}

; Function Attrs: nounwind ssp uwtable
define weak_odr hidden void @_ZN3IPC8MessageTI44ExtensionHostMsg_OpenChannelToExtension_MetaNSt3__15tupleIJN10extensions11PortContextE35ExtensionMsg_ExternalConnectionInfoNS2_12basic_stringIcNS2_11char_traitsIcEENS2_9allocatorIcEEEENS4_6PortIdEEEEvEC2ENS_7RoutingERKS5_RKS6_RKSC_RKSD_(%"class.IPC::MessageT.144"*, i32, %"struct.extensions::PortContext"* dereferenceable(56), %struct.ExtensionMsg_ExternalConnectionInfo* dereferenceable(312), %"class.std::__1::basic_string"* dereferenceable(24), %"struct.extensions::PortId"* dereferenceable(24)) unnamed_addr #0 comdat($_ZN3IPC8MessageTI44ExtensionHostMsg_OpenChannelToExtension_MetaNSt3__15tupleIJN10extensions11PortContextE35ExtensionMsg_ExternalConnectionInfoNS2_12basic_stringIcNS2_11char_traitsIcEENS2_9allocatorIcEEEENS4_6PortIdEEEEvEC5ENS_7RoutingERKS5_RKS6_RKSC_RKSD_) align 2 {
  %7 = alloca %"class.base::BasicStringPiece", align 8
  %8 = alloca i32, align 4
  %9 = alloca i32, align 4
  %10 = getelementptr inbounds %"class.IPC::MessageT.144", %"class.IPC::MessageT.144"* %0, i64 0, i32 0
  tail call void @_ZN3IPC7MessageC2EijNS0_13PriorityValueE(%"class.IPC::Message"* %10, i32 %1, i32 459149, i32 2) #11
  %11 = getelementptr inbounds %"class.IPC::MessageT.144", %"class.IPC::MessageT.144"* %0, i64 0, i32 0, i32 0, i32 0
  store i32 (...)** bitcast (i8** getelementptr inbounds ({ [7 x i8*] }, { [7 x i8*] }* @_ZTVN3IPC8MessageTI44ExtensionHostMsg_OpenChannelToExtension_MetaNSt3__15tupleIJN10extensions11PortContextE35ExtensionMsg_ExternalConnectionInfoNS2_12basic_stringIcNS2_11char_traitsIcEENS2_9allocatorIcEEEENS4_6PortIdEEEEvEE, i64 0, inrange i32 0, i64 2) to i32 (...)**), i32 (...)*** %11, align 8
  %12 = getelementptr inbounds %"class.IPC::MessageT.144", %"class.IPC::MessageT.144"* %0, i64 0, i32 0, i32 0
  tail call void @_ZN3IPC11ParamTraitsIN10extensions11PortContextEE5WriteEPN4base6PickleERKS2_(%"class.base::Pickle"* %12, %"struct.extensions::PortContext"* dereferenceable(56) %2) #11
  tail call void @_ZN3IPC11ParamTraitsI35ExtensionMsg_ExternalConnectionInfoE5WriteEPN4base6PickleERKS1_(%"class.base::Pickle"* %12, %struct.ExtensionMsg_ExternalConnectionInfo* dereferenceable(312) %3) #11
  %13 = bitcast %"class.base::BasicStringPiece"* %7 to i8*
  call void @llvm.lifetime.start.p0i8(i64 16, i8* nonnull %13) #11
  %14 = getelementptr inbounds %"class.base::BasicStringPiece", %"class.base::BasicStringPiece"* %7, i64 0, i32 0
  %15 = bitcast %"class.std::__1::basic_string"* %4 to %"struct.std::__1::basic_string<char, std::__1::char_traits<char>, std::__1::allocator<char> >::__short"*
  %16 = getelementptr inbounds %"struct.std::__1::basic_string<char, std::__1::char_traits<char>, std::__1::allocator<char> >::__short", %"struct.std::__1::basic_string<char, std::__1::char_traits<char>, std::__1::allocator<char> >::__short"* %15, i64 0, i32 1, i32 0
  %17 = load i8, i8* %16, align 1
  %18 = icmp slt i8 %17, 0
  %19 = getelementptr inbounds %"class.std::__1::basic_string", %"class.std::__1::basic_string"* %4, i64 0, i32 0, i32 0, i32 0, i32 0, i32 0, i32 0
  %20 = load i8*, i8** %19, align 8
  %21 = bitcast %"class.std::__1::basic_string"* %4 to i8*
  %22 = select i1 %18, i8* %20, i8* %21
  store i8* %22, i8** %14, align 8
  %23 = getelementptr inbounds %"class.base::BasicStringPiece", %"class.base::BasicStringPiece"* %7, i64 0, i32 1
  %24 = getelementptr inbounds %"class.std::__1::basic_string", %"class.std::__1::basic_string"* %4, i64 0, i32 0, i32 0, i32 0, i32 0, i32 0, i32 1
  %25 = load i64, i64* %24, align 8
  %26 = zext i8 %17 to i64
  %27 = select i1 %18, i64 %25, i64 %26
  store i64 %27, i64* %23, align 8
  call void @_ZN4base6Pickle11WriteStringERKNS_16BasicStringPieceIcNSt3__111char_traitsIcEEEE(%"class.base::Pickle"* %12, %"class.base::BasicStringPiece"* nonnull dereferenceable(16) %7) #11
  call void @llvm.lifetime.end.p0i8(i64 16, i8* nonnull %13) #11
  %28 = getelementptr inbounds %"struct.extensions::PortId", %"struct.extensions::PortId"* %5, i64 0, i32 0
  call void @_ZN3IPC11ParamTraitsIN4base16UnguessableTokenEE5WriteEPNS1_6PickleERKS2_(%"class.base::Pickle"* %12, %"class.base::UnguessableToken"* dereferenceable(16) %28) #11
  %29 = getelementptr inbounds %"struct.extensions::PortId", %"struct.extensions::PortId"* %5, i64 0, i32 1
  %30 = load i32, i32* %29, align 4
  %31 = bitcast i32* %9 to i8*
  call void @llvm.lifetime.start.p0i8(i64 4, i8* nonnull %31) #11
  store i32 %30, i32* %9, align 4
  call void @_ZN4base6Pickle16WriteBytesStaticILm4EEEvPKv(%"class.base::Pickle"* %12, i8* nonnull %31) #11
  call void @llvm.lifetime.end.p0i8(i64 4, i8* nonnull %31) #11
  %32 = getelementptr inbounds %"struct.extensions::PortId", %"struct.extensions::PortId"* %5, i64 0, i32 2
  %33 = load i8, i8* %32, align 1, !range !2
  %34 = zext i8 %33 to i32
  %35 = bitcast i32* %8 to i8*
  call void @llvm.lifetime.start.p0i8(i64 4, i8* nonnull %35) #11
  store i32 %34, i32* %8, align 4
  call void @_ZN4base6Pickle16WriteBytesStaticILm4EEEvPKv(%"class.base::Pickle"* %12, i8* nonnull %35) #11
  call void @llvm.lifetime.end.p0i8(i64 4, i8* nonnull %35) #11
  ret void
}

; Function Attrs: nounwind ssp uwtable
define weak_odr hidden zeroext i1 @_ZN3IPC8MessageTI44ExtensionHostMsg_OpenChannelToNativeApp_MetaNSt3__15tupleIJN10extensions11PortContextENS2_12basic_stringIcNS2_11char_traitsIcEENS2_9allocatorIcEEEENS4_6PortIdEEEEvE4ReadEPKNS_7MessageEPSD_(%"class.IPC::Message"*, %"class.std::__1::tuple.150"*) local_unnamed_addr #0 comdat align 2 {
  %3 = alloca i8, align 1
  %4 = alloca %"struct.extensions::PortContext::FrameContext", align 4
  %5 = alloca %"class.base::PickleIterator", align 8
  %6 = bitcast %"class.base::PickleIterator"* %5 to i8*
  call void @llvm.lifetime.start.p0i8(i64 24, i8* nonnull %6) #11
  %7 = getelementptr inbounds %"class.IPC::Message", %"class.IPC::Message"* %0, i64 0, i32 0
  %8 = bitcast %"class.base::PickleIterator"* %5 to i8*
  call void @llvm.memset.p0i8.i64(i8* nonnull align 8 %8, i8 -86, i64 24, i1 false)
  call void @_ZN4base14PickleIteratorC1ERKNS_6PickleE(%"class.base::PickleIterator"* nonnull %5, %"class.base::Pickle"* dereferenceable(40) %7) #11
  call void @llvm.lifetime.start.p0i8(i64 1, i8* nonnull %3) #11
  store i8 0, i8* %3, align 1
  %9 = call zeroext i1 @_ZN4base14PickleIterator8ReadBoolEPb(%"class.base::PickleIterator"* nonnull %5, i8* nonnull %3) #11
  br i1 %9, label %10, label %26

10:                                               ; preds = %2
  %11 = load i8, i8* %3, align 1, !range !2
  %12 = icmp eq i8 %11, 0
  br i1 %12, label %27, label %13

13:                                               ; preds = %10
  %14 = bitcast %"struct.extensions::PortContext::FrameContext"* %4 to i8*
  call void @llvm.lifetime.start.p0i8(i64 4, i8* nonnull %14) #11
  %15 = getelementptr inbounds %"struct.extensions::PortContext::FrameContext", %"struct.extensions::PortContext::FrameContext"* %4, i64 0, i32 0
  store i32 -1431655766, i32* %15, align 4
  call void @_ZN10extensions11PortContext12FrameContextC1Ev(%"struct.extensions::PortContext::FrameContext"* nonnull %4) #11
  %16 = call zeroext i1 @_ZN4base14PickleIterator7ReadIntEPi(%"class.base::PickleIterator"* nonnull %5, i32* nonnull %15) #11
  br i1 %16, label %17, label %25

17:                                               ; preds = %13
  %18 = getelementptr inbounds %"class.std::__1::tuple.150", %"class.std::__1::tuple.150"* %1, i64 0, i32 0, i32 0, i32 0, i32 0, i32 0, i32 0, i32 0, i32 0
  %19 = load i8, i8* %18, align 4, !range !2
  %20 = icmp eq i8 %19, 0
  %21 = getelementptr inbounds %"class.std::__1::tuple.150", %"class.std::__1::tuple.150"* %1, i64 0, i32 0, i32 0, i32 0, i32 0, i32 0, i32 0, i32 0, i32 1, i32 0, i32 0
  %22 = load i32, i32* %15, align 4
  store i32 %22, i32* %21, align 4
  br i1 %20, label %23, label %24

23:                                               ; preds = %17
  store i8 1, i8* %18, align 4
  br label %24

24:                                               ; preds = %23, %17
  call void @llvm.lifetime.end.p0i8(i64 4, i8* nonnull %14) #11
  br label %27

25:                                               ; preds = %13
  call void @llvm.lifetime.end.p0i8(i64 4, i8* nonnull %14) #11
  br label %26

26:                                               ; preds = %2, %25
  call void @llvm.lifetime.end.p0i8(i64 1, i8* nonnull %3) #11
  br label %46

27:                                               ; preds = %10, %24
  call void @llvm.lifetime.end.p0i8(i64 1, i8* nonnull %3) #11
  %28 = getelementptr inbounds %"class.std::__1::tuple.150", %"class.std::__1::tuple.150"* %1, i64 0, i32 0, i32 0, i32 0, i32 1
  %29 = call zeroext i1 @_ZN3IPC11ParamTraitsIN4absl8optionalIN10extensions11PortContext13WorkerContextEEEE4ReadEPKN4base6PickleEPNS8_14PickleIteratorEPS6_(%"class.base::Pickle"* %7, %"class.base::PickleIterator"* nonnull %5, %"class.absl::optional.137"* %28) #11
  br i1 %29, label %30, label %46

30:                                               ; preds = %27
  %31 = getelementptr inbounds %"class.std::__1::tuple.150", %"class.std::__1::tuple.150"* %1, i64 0, i32 0, i32 0, i32 0, i32 0, i32 0, i32 0, i32 0, i32 0
  %32 = getelementptr inbounds i8, i8* %31, i64 56
  %33 = bitcast i8* %32 to %"class.std::__1::basic_string"*
  %34 = call zeroext i1 @_ZN4base14PickleIterator10ReadStringEPNSt3__112basic_stringIcNS1_11char_traitsIcEENS1_9allocatorIcEEEE(%"class.base::PickleIterator"* nonnull %5, %"class.std::__1::basic_string"* %33) #11
  br i1 %34, label %35, label %46

35:                                               ; preds = %30
  %36 = getelementptr inbounds i8, i8* %31, i64 80
  %37 = bitcast i8* %36 to %"class.base::UnguessableToken"*
  %38 = call zeroext i1 @_ZN3IPC11ParamTraitsIN4base16UnguessableTokenEE4ReadEPKNS1_6PickleEPNS1_14PickleIteratorEPS2_(%"class.base::Pickle"* %7, %"class.base::PickleIterator"* nonnull %5, %"class.base::UnguessableToken"* %37) #11
  br i1 %38, label %39, label %46

39:                                               ; preds = %35
  %40 = getelementptr inbounds i8, i8* %31, i64 96
  %41 = bitcast i8* %40 to i32*
  %42 = call zeroext i1 @_ZN4base14PickleIterator7ReadIntEPi(%"class.base::PickleIterator"* nonnull %5, i32* %41) #11
  br i1 %42, label %43, label %46

43:                                               ; preds = %39
  %44 = getelementptr inbounds i8, i8* %31, i64 100
  %45 = call zeroext i1 @_ZN4base14PickleIterator8ReadBoolEPb(%"class.base::PickleIterator"* nonnull %5, i8* %44) #11
  br label %46

46:                                               ; preds = %26, %27, %30, %35, %39, %43
  %47 = phi i1 [ false, %27 ], [ false, %30 ], [ %45, %43 ], [ false, %39 ], [ false, %35 ], [ false, %26 ]
  call void @llvm.lifetime.end.p0i8(i64 24, i8* nonnull %6) #11
  ret i1 %47
}

; Function Attrs: nounwind ssp uwtable
define weak_odr hidden void @_ZN3IPC8MessageTI44ExtensionHostMsg_OpenChannelToNativeApp_MetaNSt3__15tupleIJN10extensions11PortContextENS2_12basic_stringIcNS2_11char_traitsIcEENS2_9allocatorIcEEEENS4_6PortIdEEEEvE3LogEPSB_PKNS_7MessageESF_(%"class.std::__1::basic_string"*, %"class.IPC::Message"*, %"class.std::__1::basic_string"*) local_unnamed_addr #0 comdat align 2 {
  %4 = alloca %"class.std::__1::tuple.150", align 8
  %5 = icmp eq %"class.std::__1::basic_string"* %0, null
  br i1 %5, label %8, label %6

6:                                                ; preds = %3
  %7 = tail call dereferenceable(24) %"class.std::__1::basic_string"* @_ZNSt3__112basic_stringIcNS_11char_traitsIcEENS_9allocatorIcEEE17__assign_externalEPKcm(%"class.std::__1::basic_string"* nonnull %0, i8* getelementptr inbounds ([40 x i8], [40 x i8]* @_ZN44ExtensionHostMsg_OpenChannelToNativeApp_Meta5kNameE, i64 0, i64 0), i64 39) #11
  br label %8

8:                                                ; preds = %6, %3
  %9 = icmp ne %"class.IPC::Message"* %1, null
  %10 = icmp ne %"class.std::__1::basic_string"* %2, null
  %11 = and i1 %9, %10
  br i1 %11, label %12, label %39

12:                                               ; preds = %8
  %13 = getelementptr inbounds %"class.std::__1::tuple.150", %"class.std::__1::tuple.150"* %4, i64 0, i32 0, i32 0, i32 0, i32 0, i32 0, i32 0, i32 0, i32 0
  call void @llvm.lifetime.start.p0i8(i64 104, i8* nonnull %13) #11
  call void @llvm.memset.p0i8.i64(i8* nonnull align 8 %13, i8 -86, i64 104, i1 false)
  %14 = getelementptr inbounds %"class.std::__1::tuple.150", %"class.std::__1::tuple.150"* %4, i64 0, i32 0, i32 0, i32 0
  call void @_ZN10extensions11PortContextC1Ev(%"struct.extensions::PortContext"* nonnull %14) #11
  %15 = getelementptr inbounds i8, i8* %13, i64 56
  call void @llvm.memset.p0i8.i64(i8* align 8 %15, i8 0, i64 24, i1 false) #11
  %16 = getelementptr inbounds i8, i8* %13, i64 80
  %17 = bitcast i8* %16 to %"struct.extensions::PortId"*
  call void @_ZN10extensions6PortIdC1Ev(%"struct.extensions::PortId"* %17) #11
  %18 = call zeroext i1 @_ZN3IPC8MessageTI44ExtensionHostMsg_OpenChannelToNativeApp_MetaNSt3__15tupleIJN10extensions11PortContextENS2_12basic_stringIcNS2_11char_traitsIcEENS2_9allocatorIcEEEENS4_6PortIdEEEEvE4ReadEPKNS_7MessageEPSD_(%"class.IPC::Message"* nonnull %1, %"class.std::__1::tuple.150"* nonnull %4)
  br i1 %18, label %19, label %31

19:                                               ; preds = %12
  call void @_ZN3IPC11ParamTraitsIN10extensions11PortContextEE3LogERKS2_PNSt3__112basic_stringIcNS6_11char_traitsIcEENS6_9allocatorIcEEEE(%"struct.extensions::PortContext"* nonnull dereferenceable(56) %14, %"class.std::__1::basic_string"* nonnull %2) #11
  %20 = call dereferenceable(24) %"class.std::__1::basic_string"* @_ZNSt3__112basic_stringIcNS_11char_traitsIcEENS_9allocatorIcEEE6appendEPKc(%"class.std::__1::basic_string"* nonnull %2, i8* getelementptr inbounds ([3 x i8], [3 x i8]* @.str.1, i64 0, i64 0)) #11
  %21 = bitcast i8* %15 to %"class.std::__1::basic_string"*
  call void @_ZN3IPC11ParamTraitsINSt3__112basic_stringIcNS1_11char_traitsIcEENS1_9allocatorIcEEEEE3LogERKS7_PS7_(%"class.std::__1::basic_string"* dereferenceable(24) %21, %"class.std::__1::basic_string"* nonnull %2) #11
  %22 = call dereferenceable(24) %"class.std::__1::basic_string"* @_ZNSt3__112basic_stringIcNS_11char_traitsIcEENS_9allocatorIcEEE6appendEPKc(%"class.std::__1::basic_string"* nonnull %2, i8* getelementptr inbounds ([3 x i8], [3 x i8]* @.str.1, i64 0, i64 0)) #11
  %23 = call dereferenceable(24) %"class.std::__1::basic_string"* @_ZNSt3__112basic_stringIcNS_11char_traitsIcEENS_9allocatorIcEEE6appendEPKc(%"class.std::__1::basic_string"* nonnull %2, i8* getelementptr inbounds ([2 x i8], [2 x i8]* @.str, i64 0, i64 0)) #11
  %24 = bitcast i8* %16 to %"class.base::UnguessableToken"*
  call void @_ZN3IPC11ParamTraitsIN4base16UnguessableTokenEE3LogERKS2_PNSt3__112basic_stringIcNS6_11char_traitsIcEENS6_9allocatorIcEEEE(%"class.base::UnguessableToken"* dereferenceable(16) %24, %"class.std::__1::basic_string"* nonnull %2) #11
  %25 = call dereferenceable(24) %"class.std::__1::basic_string"* @_ZNSt3__112basic_stringIcNS_11char_traitsIcEENS_9allocatorIcEEE6appendEPKc(%"class.std::__1::basic_string"* nonnull %2, i8* getelementptr inbounds ([3 x i8], [3 x i8]* @.str.1, i64 0, i64 0)) #11
  %26 = getelementptr inbounds i8, i8* %13, i64 96
  %27 = bitcast i8* %26 to i32*
  call void @_ZN3IPC11ParamTraitsIiE3LogERKiPNSt3__112basic_stringIcNS4_11char_traitsIcEENS4_9allocatorIcEEEE(i32* dereferenceable(4) %27, %"class.std::__1::basic_string"* nonnull %2) #11
  %28 = call dereferenceable(24) %"class.std::__1::basic_string"* @_ZNSt3__112basic_stringIcNS_11char_traitsIcEENS_9allocatorIcEEE6appendEPKc(%"class.std::__1::basic_string"* nonnull %2, i8* getelementptr inbounds ([3 x i8], [3 x i8]* @.str.1, i64 0, i64 0)) #11
  %29 = getelementptr inbounds i8, i8* %13, i64 100
  call void @_ZN3IPC11ParamTraitsIbE3LogERKbPNSt3__112basic_stringIcNS4_11char_traitsIcEENS4_9allocatorIcEEEE(i8* dereferenceable(1) %29, %"class.std::__1::basic_string"* nonnull %2) #11
  %30 = call dereferenceable(24) %"class.std::__1::basic_string"* @_ZNSt3__112basic_stringIcNS_11char_traitsIcEENS_9allocatorIcEEE6appendEPKc(%"class.std::__1::basic_string"* nonnull %2, i8* getelementptr inbounds ([2 x i8], [2 x i8]* @.str.2, i64 0, i64 0)) #11
  br label %31

31:                                               ; preds = %19, %12
  call void @_ZN10extensions6PortIdD1Ev(%"struct.extensions::PortId"* %17) #11
  %32 = getelementptr inbounds i8, i8* %13, i64 79
  %33 = load i8, i8* %32, align 1
  %34 = icmp slt i8 %33, 0
  br i1 %34, label %35, label %38

35:                                               ; preds = %31
  %36 = bitcast i8* %15 to i8**
  %37 = load i8*, i8** %36, align 8
  call void @_ZdlPv(i8* %37) #12
  br label %38

38:                                               ; preds = %31, %35
  call void @_ZN10extensions11PortContextD1Ev(%"struct.extensions::PortContext"* nonnull %14) #11
  call void @llvm.lifetime.end.p0i8(i64 104, i8* nonnull %13) #11
  br label %39

39:                                               ; preds = %8, %38
  ret void
}

; Function Attrs: nounwind ssp uwtable
define weak_odr hidden void @_ZN3IPC8MessageTI44ExtensionHostMsg_OpenChannelToNativeApp_MetaNSt3__15tupleIJN10extensions11PortContextENS2_12basic_stringIcNS2_11char_traitsIcEENS2_9allocatorIcEEEENS4_6PortIdEEEEvEC2ENS_7RoutingERKS5_RKSB_RKSC_(%"class.IPC::MessageT.153"*, i32, %"struct.extensions::PortContext"* dereferenceable(56), %"class.std::__1::basic_string"* dereferenceable(24), %"struct.extensions::PortId"* dereferenceable(24)) unnamed_addr #0 comdat($_ZN3IPC8MessageTI44ExtensionHostMsg_OpenChannelToNativeApp_MetaNSt3__15tupleIJN10extensions11PortContextENS2_12basic_stringIcNS2_11char_traitsIcEENS2_9allocatorIcEEEENS4_6PortIdEEEEvEC5ENS_7RoutingERKS5_RKSB_RKSC_) align 2 {
  %6 = alloca %"class.base::BasicStringPiece", align 8
  %7 = alloca i32, align 4
  %8 = alloca i32, align 4
  %9 = getelementptr inbounds %"class.IPC::MessageT.153", %"class.IPC::MessageT.153"* %0, i64 0, i32 0
  tail call void @_ZN3IPC7MessageC2EijNS0_13PriorityValueE(%"class.IPC::Message"* %9, i32 %1, i32 459154, i32 2) #11
  %10 = getelementptr inbounds %"class.IPC::MessageT.153", %"class.IPC::MessageT.153"* %0, i64 0, i32 0, i32 0, i32 0
  store i32 (...)** bitcast (i8** getelementptr inbounds ({ [7 x i8*] }, { [7 x i8*] }* @_ZTVN3IPC8MessageTI44ExtensionHostMsg_OpenChannelToNativeApp_MetaNSt3__15tupleIJN10extensions11PortContextENS2_12basic_stringIcNS2_11char_traitsIcEENS2_9allocatorIcEEEENS4_6PortIdEEEEvEE, i64 0, inrange i32 0, i64 2) to i32 (...)**), i32 (...)*** %10, align 8
  %11 = getelementptr inbounds %"class.IPC::MessageT.153", %"class.IPC::MessageT.153"* %0, i64 0, i32 0, i32 0
  tail call void @_ZN3IPC11ParamTraitsIN10extensions11PortContextEE5WriteEPN4base6PickleERKS2_(%"class.base::Pickle"* %11, %"struct.extensions::PortContext"* dereferenceable(56) %2) #11
  %12 = bitcast %"class.base::BasicStringPiece"* %6 to i8*
  call void @llvm.lifetime.start.p0i8(i64 16, i8* nonnull %12) #11
  %13 = getelementptr inbounds %"class.base::BasicStringPiece", %"class.base::BasicStringPiece"* %6, i64 0, i32 0
  %14 = bitcast %"class.std::__1::basic_string"* %3 to %"struct.std::__1::basic_string<char, std::__1::char_traits<char>, std::__1::allocator<char> >::__short"*
  %15 = getelementptr inbounds %"struct.std::__1::basic_string<char, std::__1::char_traits<char>, std::__1::allocator<char> >::__short", %"struct.std::__1::basic_string<char, std::__1::char_traits<char>, std::__1::allocator<char> >::__short"* %14, i64 0, i32 1, i32 0
  %16 = load i8, i8* %15, align 1
  %17 = icmp slt i8 %16, 0
  %18 = getelementptr inbounds %"class.std::__1::basic_string", %"class.std::__1::basic_string"* %3, i64 0, i32 0, i32 0, i32 0, i32 0, i32 0, i32 0
  %19 = load i8*, i8** %18, align 8
  %20 = bitcast %"class.std::__1::basic_string"* %3 to i8*
  %21 = select i1 %17, i8* %19, i8* %20
  store i8* %21, i8** %13, align 8
  %22 = getelementptr inbounds %"class.base::BasicStringPiece", %"class.base::BasicStringPiece"* %6, i64 0, i32 1
  %23 = getelementptr inbounds %"class.std::__1::basic_string", %"class.std::__1::basic_string"* %3, i64 0, i32 0, i32 0, i32 0, i32 0, i32 0, i32 1
  %24 = load i64, i64* %23, align 8
  %25 = zext i8 %16 to i64
  %26 = select i1 %17, i64 %24, i64 %25
  store i64 %26, i64* %22, align 8
  call void @_ZN4base6Pickle11WriteStringERKNS_16BasicStringPieceIcNSt3__111char_traitsIcEEEE(%"class.base::Pickle"* %11, %"class.base::BasicStringPiece"* nonnull dereferenceable(16) %6) #11
  call void @llvm.lifetime.end.p0i8(i64 16, i8* nonnull %12) #11
  %27 = getelementptr inbounds %"struct.extensions::PortId", %"struct.extensions::PortId"* %4, i64 0, i32 0
  call void @_ZN3IPC11ParamTraitsIN4base16UnguessableTokenEE5WriteEPNS1_6PickleERKS2_(%"class.base::Pickle"* %11, %"class.base::UnguessableToken"* dereferenceable(16) %27) #11
  %28 = getelementptr inbounds %"struct.extensions::PortId", %"struct.extensions::PortId"* %4, i64 0, i32 1
  %29 = load i32, i32* %28, align 4
  %30 = bitcast i32* %8 to i8*
  call void @llvm.lifetime.start.p0i8(i64 4, i8* nonnull %30) #11
  store i32 %29, i32* %8, align 4
  call void @_ZN4base6Pickle16WriteBytesStaticILm4EEEvPKv(%"class.base::Pickle"* %11, i8* nonnull %30) #11
  call void @llvm.lifetime.end.p0i8(i64 4, i8* nonnull %30) #11
  %31 = getelementptr inbounds %"struct.extensions::PortId", %"struct.extensions::PortId"* %4, i64 0, i32 2
  %32 = load i8, i8* %31, align 1, !range !2
  %33 = zext i8 %32 to i32
  %34 = bitcast i32* %7 to i8*
  call void @llvm.lifetime.start.p0i8(i64 4, i8* nonnull %34) #11
  store i32 %33, i32* %7, align 4
  call void @_ZN4base6Pickle16WriteBytesStaticILm4EEEvPKv(%"class.base::Pickle"* %11, i8* nonnull %34) #11
  call void @llvm.lifetime.end.p0i8(i64 4, i8* nonnull %34) #11
  ret void
}

; Function Attrs: nounwind ssp uwtable
define weak_odr hidden zeroext i1 @_ZN3IPC8MessageTI38ExtensionHostMsg_OpenChannelToTab_MetaNSt3__15tupleIJN10extensions11PortContextE36ExtensionMsg_TabTargetConnectionInfoNS2_12basic_stringIcNS2_11char_traitsIcEENS2_9allocatorIcEEEESC_NS4_6PortIdEEEEvE4ReadEPKNS_7MessageEPSE_(%"class.IPC::Message"*, %"class.std::__1::tuple.157"*) local_unnamed_addr #0 comdat align 2 {
  %3 = alloca %"class.base::PickleIterator", align 8
  %4 = bitcast %"class.base::PickleIterator"* %3 to i8*
  call void @llvm.lifetime.start.p0i8(i64 24, i8* nonnull %4) #11
  %5 = getelementptr inbounds %"class.IPC::Message", %"class.IPC::Message"* %0, i64 0, i32 0
  %6 = bitcast %"class.base::PickleIterator"* %3 to i8*
  call void @llvm.memset.p0i8.i64(i8* nonnull align 8 %6, i8 -86, i64 24, i1 false)
  call void @_ZN4base14PickleIteratorC1ERKNS_6PickleE(%"class.base::PickleIterator"* nonnull %3, %"class.base::Pickle"* dereferenceable(40) %5) #11
  %7 = call zeroext i1 @_ZN3IPC9ReadParamINSt3__15tupleIJN10extensions11PortContextE36ExtensionMsg_TabTargetConnectionInfoNS1_12basic_stringIcNS1_11char_traitsIcEENS1_9allocatorIcEEEESB_NS3_6PortIdEEEEEEbPKN4base6PickleEPNSE_14PickleIteratorEPT_(%"class.base::Pickle"* %5, %"class.base::PickleIterator"* nonnull %3, %"class.std::__1::tuple.157"* %1)
  call void @llvm.lifetime.end.p0i8(i64 24, i8* nonnull %4) #11
  ret i1 %7
}

; Function Attrs: inlinehint nounwind ssp uwtable
define linkonce_odr hidden zeroext i1 @_ZN3IPC9ReadParamINSt3__15tupleIJN10extensions11PortContextE36ExtensionMsg_TabTargetConnectionInfoNS1_12basic_stringIcNS1_11char_traitsIcEENS1_9allocatorIcEEEESB_NS3_6PortIdEEEEEEbPKN4base6PickleEPNSE_14PickleIteratorEPT_(%"class.base::Pickle"*, %"class.base::PickleIterator"*, %"class.std::__1::tuple.157"*) local_unnamed_addr #3 comdat {
  %4 = alloca i8, align 1
  %5 = alloca %"struct.extensions::PortContext::FrameContext", align 4
  call void @llvm.lifetime.start.p0i8(i64 1, i8* nonnull %4) #11
  store i8 0, i8* %4, align 1
  %6 = call zeroext i1 @_ZN4base14PickleIterator8ReadBoolEPb(%"class.base::PickleIterator"* %1, i8* nonnull %4) #11
  br i1 %6, label %7, label %23

7:                                                ; preds = %3
  %8 = load i8, i8* %4, align 1, !range !2
  %9 = icmp eq i8 %8, 0
  br i1 %9, label %24, label %10

10:                                               ; preds = %7
  %11 = bitcast %"struct.extensions::PortContext::FrameContext"* %5 to i8*
  call void @llvm.lifetime.start.p0i8(i64 4, i8* nonnull %11) #11
  %12 = getelementptr inbounds %"struct.extensions::PortContext::FrameContext", %"struct.extensions::PortContext::FrameContext"* %5, i64 0, i32 0
  store i32 -1431655766, i32* %12, align 4
  call void @_ZN10extensions11PortContext12FrameContextC1Ev(%"struct.extensions::PortContext::FrameContext"* nonnull %5) #11
  %13 = call zeroext i1 @_ZN4base14PickleIterator7ReadIntEPi(%"class.base::PickleIterator"* %1, i32* nonnull %12) #11
  br i1 %13, label %14, label %22

14:                                               ; preds = %10
  %15 = getelementptr inbounds %"class.std::__1::tuple.157", %"class.std::__1::tuple.157"* %2, i64 0, i32 0, i32 0, i32 0, i32 0, i32 0, i32 0, i32 0, i32 0
  %16 = load i8, i8* %15, align 4, !range !2
  %17 = icmp eq i8 %16, 0
  %18 = getelementptr inbounds %"class.std::__1::tuple.157", %"class.std::__1::tuple.157"* %2, i64 0, i32 0, i32 0, i32 0, i32 0, i32 0, i32 0, i32 0, i32 1, i32 0, i32 0
  %19 = load i32, i32* %12, align 4
  store i32 %19, i32* %18, align 4
  br i1 %17, label %20, label %21

20:                                               ; preds = %14
  store i8 1, i8* %15, align 4
  br label %21

21:                                               ; preds = %20, %14
  call void @llvm.lifetime.end.p0i8(i64 4, i8* nonnull %11) #11
  br label %24

22:                                               ; preds = %10
  call void @llvm.lifetime.end.p0i8(i64 4, i8* nonnull %11) #11
  br label %23

23:                                               ; preds = %3, %22
  call void @llvm.lifetime.end.p0i8(i64 1, i8* nonnull %4) #11
  br label %55

24:                                               ; preds = %7, %21
  call void @llvm.lifetime.end.p0i8(i64 1, i8* nonnull %4) #11
  %25 = getelementptr inbounds %"class.std::__1::tuple.157", %"class.std::__1::tuple.157"* %2, i64 0, i32 0, i32 0, i32 0, i32 1
  %26 = call zeroext i1 @_ZN3IPC11ParamTraitsIN4absl8optionalIN10extensions11PortContext13WorkerContextEEEE4ReadEPKN4base6PickleEPNS8_14PickleIteratorEPS6_(%"class.base::Pickle"* %0, %"class.base::PickleIterator"* %1, %"class.absl::optional.137"* %25) #11
  br i1 %26, label %27, label %55

27:                                               ; preds = %24
  %28 = getelementptr inbounds %"class.std::__1::tuple.157", %"class.std::__1::tuple.157"* %2, i64 0, i32 0, i32 0, i32 0, i32 0, i32 0, i32 0, i32 0, i32 0
  %29 = getelementptr inbounds i8, i8* %28, i64 56
  %30 = bitcast i8* %29 to i32*
  %31 = call zeroext i1 @_ZN4base14PickleIterator7ReadIntEPi(%"class.base::PickleIterator"* %1, i32* %30) #11
  br i1 %31, label %32, label %55

32:                                               ; preds = %27
  %33 = getelementptr inbounds i8, i8* %28, i64 60
  %34 = bitcast i8* %33 to i32*
  %35 = call zeroext i1 @_ZN4base14PickleIterator7ReadIntEPi(%"class.base::PickleIterator"* %1, i32* %34) #11
  br i1 %35, label %36, label %55

36:                                               ; preds = %32
  %37 = getelementptr inbounds i8, i8* %28, i64 64
  %38 = bitcast i8* %37 to %"class.std::__1::basic_string"*
  %39 = call zeroext i1 @_ZN4base14PickleIterator10ReadStringEPNSt3__112basic_stringIcNS1_11char_traitsIcEENS1_9allocatorIcEEEE(%"class.base::PickleIterator"* %1, %"class.std::__1::basic_string"* %38) #11
  br i1 %39, label %40, label %55

40:                                               ; preds = %36
  %41 = getelementptr inbounds i8, i8* %28, i64 88
  %42 = bitcast i8* %41 to %"class.std::__1::basic_string"*
  %43 = call zeroext i1 @_ZN4base14PickleIterator10ReadStringEPNSt3__112basic_stringIcNS1_11char_traitsIcEENS1_9allocatorIcEEEE(%"class.base::PickleIterator"* %1, %"class.std::__1::basic_string"* %42) #11
  br i1 %43, label %44, label %55

44:                                               ; preds = %40
  %45 = getelementptr inbounds i8, i8* %28, i64 112
  %46 = bitcast i8* %45 to %"class.base::UnguessableToken"*
  %47 = call zeroext i1 @_ZN3IPC11ParamTraitsIN4base16UnguessableTokenEE4ReadEPKNS1_6PickleEPNS1_14PickleIteratorEPS2_(%"class.base::Pickle"* %0, %"class.base::PickleIterator"* %1, %"class.base::UnguessableToken"* %46) #11
  br i1 %47, label %48, label %55

48:                                               ; preds = %44
  %49 = getelementptr inbounds i8, i8* %28, i64 128
  %50 = bitcast i8* %49 to i32*
  %51 = call zeroext i1 @_ZN4base14PickleIterator7ReadIntEPi(%"class.base::PickleIterator"* %1, i32* %50) #11
  br i1 %51, label %52, label %55

52:                                               ; preds = %48
  %53 = getelementptr inbounds i8, i8* %28, i64 132
  %54 = call zeroext i1 @_ZN4base14PickleIterator8ReadBoolEPb(%"class.base::PickleIterator"* %1, i8* %53) #11
  br label %55

55:                                               ; preds = %52, %48, %44, %40, %36, %23, %24, %27, %32
  %56 = phi i1 [ false, %24 ], [ false, %32 ], [ false, %27 ], [ false, %23 ], [ false, %36 ], [ false, %40 ], [ %54, %52 ], [ false, %48 ], [ false, %44 ]
  ret i1 %56
}

; Function Attrs: nounwind ssp uwtable
define weak_odr hidden void @_ZN3IPC8MessageTI38ExtensionHostMsg_OpenChannelToTab_MetaNSt3__15tupleIJN10extensions11PortContextE36ExtensionMsg_TabTargetConnectionInfoNS2_12basic_stringIcNS2_11char_traitsIcEENS2_9allocatorIcEEEESC_NS4_6PortIdEEEEvE3LogEPSC_PKNS_7MessageESG_(%"class.std::__1::basic_string"*, %"class.IPC::Message"*, %"class.std::__1::basic_string"*) local_unnamed_addr #0 comdat align 2 {
  %4 = alloca %"class.base::PickleIterator", align 8
  %5 = alloca %"class.std::__1::tuple.157", align 8
  %6 = icmp eq %"class.std::__1::basic_string"* %0, null
  br i1 %6, label %9, label %7

7:                                                ; preds = %3
  %8 = tail call dereferenceable(24) %"class.std::__1::basic_string"* @_ZNSt3__112basic_stringIcNS_11char_traitsIcEENS_9allocatorIcEEE17__assign_externalEPKcm(%"class.std::__1::basic_string"* nonnull %0, i8* getelementptr inbounds ([34 x i8], [34 x i8]* @_ZN38ExtensionHostMsg_OpenChannelToTab_Meta5kNameE, i64 0, i64 0), i64 33) #11
  br label %9

9:                                                ; preds = %7, %3
  %10 = icmp ne %"class.IPC::Message"* %1, null
  %11 = icmp ne %"class.std::__1::basic_string"* %2, null
  %12 = and i1 %10, %11
  br i1 %12, label %13, label %41

13:                                               ; preds = %9
  %14 = getelementptr inbounds %"class.std::__1::tuple.157", %"class.std::__1::tuple.157"* %5, i64 0, i32 0, i32 0, i32 0, i32 0, i32 0, i32 0, i32 0, i32 0
  call void @llvm.lifetime.start.p0i8(i64 136, i8* nonnull %14) #11
  call void @llvm.memset.p0i8.i64(i8* nonnull align 8 %14, i8 -86, i64 136, i1 false)
  %15 = getelementptr inbounds %"class.std::__1::tuple.157", %"class.std::__1::tuple.157"* %5, i64 0, i32 0, i32 0, i32 0
  call void @_ZN10extensions11PortContextC1Ev(%"struct.extensions::PortContext"* nonnull %15) #11
  %16 = getelementptr inbounds i8, i8* %14, i64 56
  %17 = getelementptr inbounds i8, i8* %14, i64 112
  %18 = bitcast i8* %17 to %"struct.extensions::PortId"*
  call void @llvm.memset.p0i8.i64(i8* align 8 %16, i8 0, i64 56, i1 false) #11
  call void @_ZN10extensions6PortIdC1Ev(%"struct.extensions::PortId"* %18) #11
  %19 = bitcast %"class.base::PickleIterator"* %4 to i8*
  call void @llvm.lifetime.start.p0i8(i64 24, i8* nonnull %19) #11
  %20 = getelementptr inbounds %"class.IPC::Message", %"class.IPC::Message"* %1, i64 0, i32 0
  call void @llvm.memset.p0i8.i64(i8* nonnull align 8 %19, i8 -86, i64 24, i1 false) #11
  call void @_ZN4base14PickleIteratorC1ERKNS_6PickleE(%"class.base::PickleIterator"* nonnull %4, %"class.base::Pickle"* dereferenceable(40) %20) #11
  %21 = call zeroext i1 @_ZN3IPC9ReadParamINSt3__15tupleIJN10extensions11PortContextE36ExtensionMsg_TabTargetConnectionInfoNS1_12basic_stringIcNS1_11char_traitsIcEENS1_9allocatorIcEEEESB_NS3_6PortIdEEEEEEbPKN4base6PickleEPNSE_14PickleIteratorEPT_(%"class.base::Pickle"* %20, %"class.base::PickleIterator"* nonnull %4, %"class.std::__1::tuple.157"* nonnull %5) #11
  call void @llvm.lifetime.end.p0i8(i64 24, i8* nonnull %19) #11
  br i1 %21, label %22, label %24

22:                                               ; preds = %13
  call void @_ZN3IPC11ParamTraitsIN10extensions11PortContextEE3LogERKS2_PNSt3__112basic_stringIcNS6_11char_traitsIcEENS6_9allocatorIcEEEE(%"struct.extensions::PortContext"* nonnull dereferenceable(56) %15, %"class.std::__1::basic_string"* nonnull %2) #11
  %23 = call dereferenceable(24) %"class.std::__1::basic_string"* @_ZNSt3__112basic_stringIcNS_11char_traitsIcEENS_9allocatorIcEEE6appendEPKc(%"class.std::__1::basic_string"* nonnull %2, i8* getelementptr inbounds ([3 x i8], [3 x i8]* @.str.1, i64 0, i64 0)) #11
  call void @_ZN3IPC22TupleParamTraitsHelperINSt3__15tupleIJN10extensions11PortContextE36ExtensionMsg_TabTargetConnectionInfoNS1_12basic_stringIcNS1_11char_traitsIcEENS1_9allocatorIcEEEESB_NS3_6PortIdEEEELi1ELi5EE3LogERKSD_PSB_(%"class.std::__1::tuple.157"* nonnull dereferenceable(136) %5, %"class.std::__1::basic_string"* nonnull %2) #11
  br label %24

24:                                               ; preds = %22, %13
  call void @_ZN10extensions6PortIdD1Ev(%"struct.extensions::PortId"* %18) #11
  %25 = getelementptr inbounds i8, i8* %14, i64 111
  %26 = load i8, i8* %25, align 1
  %27 = icmp slt i8 %26, 0
  br i1 %27, label %28, label %32

28:                                               ; preds = %24
  %29 = getelementptr inbounds i8, i8* %14, i64 88
  %30 = bitcast i8* %29 to i8**
  %31 = load i8*, i8** %30, align 8
  call void @_ZdlPv(i8* %31) #12
  br label %32

32:                                               ; preds = %28, %24
  %33 = getelementptr inbounds i8, i8* %14, i64 87
  %34 = load i8, i8* %33, align 1
  %35 = icmp slt i8 %34, 0
  br i1 %35, label %36, label %40

36:                                               ; preds = %32
  %37 = getelementptr inbounds i8, i8* %14, i64 64
  %38 = bitcast i8* %37 to i8**
  %39 = load i8*, i8** %38, align 8
  call void @_ZdlPv(i8* %39) #12
  br label %40

40:                                               ; preds = %32, %36
  call void @_ZN10extensions11PortContextD1Ev(%"struct.extensions::PortContext"* nonnull %15) #11
  call void @llvm.lifetime.end.p0i8(i64 136, i8* nonnull %14) #11
  br label %41

41:                                               ; preds = %9, %40
  ret void
}

; Function Attrs: nounwind ssp uwtable
define weak_odr hidden void @_ZN3IPC8MessageTI38ExtensionHostMsg_OpenChannelToTab_MetaNSt3__15tupleIJN10extensions11PortContextE36ExtensionMsg_TabTargetConnectionInfoNS2_12basic_stringIcNS2_11char_traitsIcEENS2_9allocatorIcEEEESC_NS4_6PortIdEEEEvEC2ENS_7RoutingERKS5_RKS6_RKSC_SM_RKSD_(%"class.IPC::MessageT.162"*, i32, %"struct.extensions::PortContext"* dereferenceable(56), %struct.ExtensionMsg_TabTargetConnectionInfo* dereferenceable(8), %"class.std::__1::basic_string"* dereferenceable(24), %"class.std::__1::basic_string"* dereferenceable(24), %"struct.extensions::PortId"* dereferenceable(24)) unnamed_addr #0 comdat($_ZN3IPC8MessageTI38ExtensionHostMsg_OpenChannelToTab_MetaNSt3__15tupleIJN10extensions11PortContextE36ExtensionMsg_TabTargetConnectionInfoNS2_12basic_stringIcNS2_11char_traitsIcEENS2_9allocatorIcEEEESC_NS4_6PortIdEEEEvEC5ENS_7RoutingERKS5_RKS6_RKSC_SM_RKSD_) align 2 {
  %8 = alloca %"class.base::BasicStringPiece", align 8
  %9 = alloca %"class.base::BasicStringPiece", align 8
  %10 = alloca i32, align 4
  %11 = alloca i32, align 4
  %12 = alloca i32, align 4
  %13 = alloca i32, align 4
  %14 = getelementptr inbounds %"class.IPC::MessageT.162", %"class.IPC::MessageT.162"* %0, i64 0, i32 0
  tail call void @_ZN3IPC7MessageC2EijNS0_13PriorityValueE(%"class.IPC::Message"* %14, i32 %1, i32 459163, i32 2) #11
  %15 = getelementptr inbounds %"class.IPC::MessageT.162", %"class.IPC::MessageT.162"* %0, i64 0, i32 0, i32 0, i32 0
  store i32 (...)** bitcast (i8** getelementptr inbounds ({ [7 x i8*] }, { [7 x i8*] }* @_ZTVN3IPC8MessageTI38ExtensionHostMsg_OpenChannelToTab_MetaNSt3__15tupleIJN10extensions11PortContextE36ExtensionMsg_TabTargetConnectionInfoNS2_12basic_stringIcNS2_11char_traitsIcEENS2_9allocatorIcEEEESC_NS4_6PortIdEEEEvEE, i64 0, inrange i32 0, i64 2) to i32 (...)**), i32 (...)*** %15, align 8
  %16 = getelementptr inbounds %"class.IPC::MessageT.162", %"class.IPC::MessageT.162"* %0, i64 0, i32 0, i32 0
  tail call void @_ZN3IPC11ParamTraitsIN10extensions11PortContextEE5WriteEPN4base6PickleERKS2_(%"class.base::Pickle"* %16, %"struct.extensions::PortContext"* dereferenceable(56) %2) #11
  %17 = getelementptr inbounds %struct.ExtensionMsg_TabTargetConnectionInfo, %struct.ExtensionMsg_TabTargetConnectionInfo* %3, i64 0, i32 0
  %18 = load i32, i32* %17, align 4
  %19 = bitcast i32* %13 to i8*
  call void @llvm.lifetime.start.p0i8(i64 4, i8* nonnull %19) #11
  store i32 %18, i32* %13, align 4
  call void @_ZN4base6Pickle16WriteBytesStaticILm4EEEvPKv(%"class.base::Pickle"* %16, i8* nonnull %19) #11
  call void @llvm.lifetime.end.p0i8(i64 4, i8* nonnull %19) #11
  %20 = getelementptr inbounds %struct.ExtensionMsg_TabTargetConnectionInfo, %struct.ExtensionMsg_TabTargetConnectionInfo* %3, i64 0, i32 1
  %21 = load i32, i32* %20, align 4
  %22 = bitcast i32* %12 to i8*
  call void @llvm.lifetime.start.p0i8(i64 4, i8* nonnull %22) #11
  store i32 %21, i32* %12, align 4
  call void @_ZN4base6Pickle16WriteBytesStaticILm4EEEvPKv(%"class.base::Pickle"* %16, i8* nonnull %22) #11
  call void @llvm.lifetime.end.p0i8(i64 4, i8* nonnull %22) #11
  %23 = bitcast %"class.base::BasicStringPiece"* %8 to i8*
  call void @llvm.lifetime.start.p0i8(i64 16, i8* nonnull %23) #11
  %24 = getelementptr inbounds %"class.base::BasicStringPiece", %"class.base::BasicStringPiece"* %8, i64 0, i32 0
  %25 = bitcast %"class.std::__1::basic_string"* %4 to %"struct.std::__1::basic_string<char, std::__1::char_traits<char>, std::__1::allocator<char> >::__short"*
  %26 = getelementptr inbounds %"struct.std::__1::basic_string<char, std::__1::char_traits<char>, std::__1::allocator<char> >::__short", %"struct.std::__1::basic_string<char, std::__1::char_traits<char>, std::__1::allocator<char> >::__short"* %25, i64 0, i32 1, i32 0
  %27 = load i8, i8* %26, align 1
  %28 = icmp slt i8 %27, 0
  %29 = getelementptr inbounds %"class.std::__1::basic_string", %"class.std::__1::basic_string"* %4, i64 0, i32 0, i32 0, i32 0, i32 0, i32 0, i32 0
  %30 = load i8*, i8** %29, align 8
  %31 = bitcast %"class.std::__1::basic_string"* %4 to i8*
  %32 = select i1 %28, i8* %30, i8* %31
  store i8* %32, i8** %24, align 8
  %33 = getelementptr inbounds %"class.base::BasicStringPiece", %"class.base::BasicStringPiece"* %8, i64 0, i32 1
  %34 = getelementptr inbounds %"class.std::__1::basic_string", %"class.std::__1::basic_string"* %4, i64 0, i32 0, i32 0, i32 0, i32 0, i32 0, i32 1
  %35 = load i64, i64* %34, align 8
  %36 = zext i8 %27 to i64
  %37 = select i1 %28, i64 %35, i64 %36
  store i64 %37, i64* %33, align 8
  call void @_ZN4base6Pickle11WriteStringERKNS_16BasicStringPieceIcNSt3__111char_traitsIcEEEE(%"class.base::Pickle"* %16, %"class.base::BasicStringPiece"* nonnull dereferenceable(16) %8) #11
  call void @llvm.lifetime.end.p0i8(i64 16, i8* nonnull %23) #11
  %38 = bitcast %"class.base::BasicStringPiece"* %9 to i8*
  call void @llvm.lifetime.start.p0i8(i64 16, i8* nonnull %38) #11
  %39 = getelementptr inbounds %"class.base::BasicStringPiece", %"class.base::BasicStringPiece"* %9, i64 0, i32 0
  %40 = bitcast %"class.std::__1::basic_string"* %5 to %"struct.std::__1::basic_string<char, std::__1::char_traits<char>, std::__1::allocator<char> >::__short"*
  %41 = getelementptr inbounds %"struct.std::__1::basic_string<char, std::__1::char_traits<char>, std::__1::allocator<char> >::__short", %"struct.std::__1::basic_string<char, std::__1::char_traits<char>, std::__1::allocator<char> >::__short"* %40, i64 0, i32 1, i32 0
  %42 = load i8, i8* %41, align 1
  %43 = icmp slt i8 %42, 0
  %44 = getelementptr inbounds %"class.std::__1::basic_string", %"class.std::__1::basic_string"* %5, i64 0, i32 0, i32 0, i32 0, i32 0, i32 0, i32 0
  %45 = load i8*, i8** %44, align 8
  %46 = bitcast %"class.std::__1::basic_string"* %5 to i8*
  %47 = select i1 %43, i8* %45, i8* %46
  store i8* %47, i8** %39, align 8
  %48 = getelementptr inbounds %"class.base::BasicStringPiece", %"class.base::BasicStringPiece"* %9, i64 0, i32 1
  %49 = getelementptr inbounds %"class.std::__1::basic_string", %"class.std::__1::basic_string"* %5, i64 0, i32 0, i32 0, i32 0, i32 0, i32 0, i32 1
  %50 = load i64, i64* %49, align 8
  %51 = zext i8 %42 to i64
  %52 = select i1 %43, i64 %50, i64 %51
  store i64 %52, i64* %48, align 8
  call void @_ZN4base6Pickle11WriteStringERKNS_16BasicStringPieceIcNSt3__111char_traitsIcEEEE(%"class.base::Pickle"* %16, %"class.base::BasicStringPiece"* nonnull dereferenceable(16) %9) #11
  call void @llvm.lifetime.end.p0i8(i64 16, i8* nonnull %38) #11
  %53 = getelementptr inbounds %"struct.extensions::PortId", %"struct.extensions::PortId"* %6, i64 0, i32 0
  call void @_ZN3IPC11ParamTraitsIN4base16UnguessableTokenEE5WriteEPNS1_6PickleERKS2_(%"class.base::Pickle"* %16, %"class.base::UnguessableToken"* dereferenceable(16) %53) #11
  %54 = getelementptr inbounds %"struct.extensions::PortId", %"struct.extensions::PortId"* %6, i64 0, i32 1
  %55 = load i32, i32* %54, align 4
  %56 = bitcast i32* %11 to i8*
  call void @llvm.lifetime.start.p0i8(i64 4, i8* nonnull %56) #11
  store i32 %55, i32* %11, align 4
  call void @_ZN4base6Pickle16WriteBytesStaticILm4EEEvPKv(%"class.base::Pickle"* %16, i8* nonnull %56) #11
  call void @llvm.lifetime.end.p0i8(i64 4, i8* nonnull %56) #11
  %57 = getelementptr inbounds %"struct.extensions::PortId", %"struct.extensions::PortId"* %6, i64 0, i32 2
  %58 = load i8, i8* %57, align 1, !range !2
  %59 = zext i8 %58 to i32
  %60 = bitcast i32* %10 to i8*
  call void @llvm.lifetime.start.p0i8(i64 4, i8* nonnull %60) #11
  store i32 %59, i32* %10, align 4
  call void @_ZN4base6Pickle16WriteBytesStaticILm4EEEvPKv(%"class.base::Pickle"* %16, i8* nonnull %60) #11
  call void @llvm.lifetime.end.p0i8(i64 4, i8* nonnull %60) #11
  ret void
}

; Function Attrs: nounwind ssp uwtable
define weak_odr hidden zeroext i1 @_ZN3IPC8MessageTI37ExtensionHostMsg_OpenMessagePort_MetaNSt3__15tupleIJN10extensions11PortContextENS4_6PortIdEEEEvE4ReadEPKNS_7MessageEPS7_(%"class.IPC::Message"*, %"class.std::__1::tuple.168"*) local_unnamed_addr #0 comdat align 2 {
  %3 = alloca i8, align 1
  %4 = alloca %"struct.extensions::PortContext::FrameContext", align 4
  %5 = alloca %"class.base::PickleIterator", align 8
  %6 = bitcast %"class.base::PickleIterator"* %5 to i8*
  call void @llvm.lifetime.start.p0i8(i64 24, i8* nonnull %6) #11
  %7 = getelementptr inbounds %"class.IPC::Message", %"class.IPC::Message"* %0, i64 0, i32 0
  %8 = bitcast %"class.base::PickleIterator"* %5 to i8*
  call void @llvm.memset.p0i8.i64(i8* nonnull align 8 %8, i8 -86, i64 24, i1 false)
  call void @_ZN4base14PickleIteratorC1ERKNS_6PickleE(%"class.base::PickleIterator"* nonnull %5, %"class.base::Pickle"* dereferenceable(40) %7) #11
  call void @llvm.lifetime.start.p0i8(i64 1, i8* nonnull %3) #11
  store i8 0, i8* %3, align 1
  %9 = call zeroext i1 @_ZN4base14PickleIterator8ReadBoolEPb(%"class.base::PickleIterator"* nonnull %5, i8* nonnull %3) #11
  br i1 %9, label %10, label %26

10:                                               ; preds = %2
  %11 = load i8, i8* %3, align 1, !range !2
  %12 = icmp eq i8 %11, 0
  br i1 %12, label %27, label %13

13:                                               ; preds = %10
  %14 = bitcast %"struct.extensions::PortContext::FrameContext"* %4 to i8*
  call void @llvm.lifetime.start.p0i8(i64 4, i8* nonnull %14) #11
  %15 = getelementptr inbounds %"struct.extensions::PortContext::FrameContext", %"struct.extensions::PortContext::FrameContext"* %4, i64 0, i32 0
  store i32 -1431655766, i32* %15, align 4
  call void @_ZN10extensions11PortContext12FrameContextC1Ev(%"struct.extensions::PortContext::FrameContext"* nonnull %4) #11
  %16 = call zeroext i1 @_ZN4base14PickleIterator7ReadIntEPi(%"class.base::PickleIterator"* nonnull %5, i32* nonnull %15) #11
  br i1 %16, label %17, label %25

17:                                               ; preds = %13
  %18 = getelementptr inbounds %"class.std::__1::tuple.168", %"class.std::__1::tuple.168"* %1, i64 0, i32 0, i32 0, i32 0, i32 0, i32 0, i32 0, i32 0, i32 0
  %19 = load i8, i8* %18, align 4, !range !2
  %20 = icmp eq i8 %19, 0
  %21 = getelementptr inbounds %"class.std::__1::tuple.168", %"class.std::__1::tuple.168"* %1, i64 0, i32 0, i32 0, i32 0, i32 0, i32 0, i32 0, i32 0, i32 1, i32 0, i32 0
  %22 = load i32, i32* %15, align 4
  store i32 %22, i32* %21, align 4
  br i1 %20, label %23, label %24

23:                                               ; preds = %17
  store i8 1, i8* %18, align 4
  br label %24

24:                                               ; preds = %23, %17
  call void @llvm.lifetime.end.p0i8(i64 4, i8* nonnull %14) #11
  br label %27

25:                                               ; preds = %13
  call void @llvm.lifetime.end.p0i8(i64 4, i8* nonnull %14) #11
  br label %26

26:                                               ; preds = %2, %25
  call void @llvm.lifetime.end.p0i8(i64 1, i8* nonnull %3) #11
  br label %42

27:                                               ; preds = %10, %24
  call void @llvm.lifetime.end.p0i8(i64 1, i8* nonnull %3) #11
  %28 = getelementptr inbounds %"class.std::__1::tuple.168", %"class.std::__1::tuple.168"* %1, i64 0, i32 0, i32 0, i32 0, i32 1
  %29 = call zeroext i1 @_ZN3IPC11ParamTraitsIN4absl8optionalIN10extensions11PortContext13WorkerContextEEEE4ReadEPKN4base6PickleEPNS8_14PickleIteratorEPS6_(%"class.base::Pickle"* %7, %"class.base::PickleIterator"* nonnull %5, %"class.absl::optional.137"* %28) #11
  br i1 %29, label %30, label %42

30:                                               ; preds = %27
  %31 = getelementptr inbounds %"class.std::__1::tuple.168", %"class.std::__1::tuple.168"* %1, i64 0, i32 0, i32 0, i32 0, i32 0, i32 0, i32 0, i32 0, i32 0
  %32 = getelementptr inbounds i8, i8* %31, i64 56
  %33 = bitcast i8* %32 to %"class.base::UnguessableToken"*
  %34 = call zeroext i1 @_ZN3IPC11ParamTraitsIN4base16UnguessableTokenEE4ReadEPKNS1_6PickleEPNS1_14PickleIteratorEPS2_(%"class.base::Pickle"* %7, %"class.base::PickleIterator"* nonnull %5, %"class.base::UnguessableToken"* %33) #11
  br i1 %34, label %35, label %42

35:                                               ; preds = %30
  %36 = getelementptr inbounds i8, i8* %31, i64 72
  %37 = bitcast i8* %36 to i32*
  %38 = call zeroext i1 @_ZN4base14PickleIterator7ReadIntEPi(%"class.base::PickleIterator"* nonnull %5, i32* %37) #11
  br i1 %38, label %39, label %42

39:                                               ; preds = %35
  %40 = getelementptr inbounds i8, i8* %31, i64 76
  %41 = call zeroext i1 @_ZN4base14PickleIterator8ReadBoolEPb(%"class.base::PickleIterator"* nonnull %5, i8* %40) #11
  br label %42

42:                                               ; preds = %26, %27, %30, %35, %39
  %43 = phi i1 [ false, %27 ], [ %41, %39 ], [ false, %35 ], [ false, %30 ], [ false, %26 ]
  call void @llvm.lifetime.end.p0i8(i64 24, i8* nonnull %6) #11
  ret i1 %43
}

; Function Attrs: nounwind ssp uwtable
define weak_odr hidden void @_ZN3IPC8MessageTI37ExtensionHostMsg_OpenMessagePort_MetaNSt3__15tupleIJN10extensions11PortContextENS4_6PortIdEEEEvE3LogEPNS2_12basic_stringIcNS2_11char_traitsIcEENS2_9allocatorIcEEEEPKNS_7MessageESF_(%"class.std::__1::basic_string"*, %"class.IPC::Message"*, %"class.std::__1::basic_string"*) local_unnamed_addr #0 comdat align 2 {
  %4 = alloca %"class.std::__1::tuple.168", align 8
  %5 = icmp eq %"class.std::__1::basic_string"* %0, null
  br i1 %5, label %8, label %6

6:                                                ; preds = %3
  %7 = tail call dereferenceable(24) %"class.std::__1::basic_string"* @_ZNSt3__112basic_stringIcNS_11char_traitsIcEENS_9allocatorIcEEE17__assign_externalEPKcm(%"class.std::__1::basic_string"* nonnull %0, i8* getelementptr inbounds ([33 x i8], [33 x i8]* @_ZN37ExtensionHostMsg_OpenMessagePort_Meta5kNameE, i64 0, i64 0), i64 32) #11
  br label %8

8:                                                ; preds = %6, %3
  %9 = icmp ne %"class.IPC::Message"* %1, null
  %10 = icmp ne %"class.std::__1::basic_string"* %2, null
  %11 = and i1 %9, %10
  br i1 %11, label %12, label %29

12:                                               ; preds = %8
  %13 = getelementptr inbounds %"class.std::__1::tuple.168", %"class.std::__1::tuple.168"* %4, i64 0, i32 0, i32 0, i32 0, i32 0, i32 0, i32 0, i32 0, i32 0
  call void @llvm.lifetime.start.p0i8(i64 80, i8* nonnull %13) #11
  call void @llvm.memset.p0i8.i64(i8* nonnull align 8 %13, i8 -86, i64 80, i1 false)
  %14 = getelementptr inbounds %"class.std::__1::tuple.168", %"class.std::__1::tuple.168"* %4, i64 0, i32 0, i32 0, i32 0
  call void @_ZN10extensions11PortContextC1Ev(%"struct.extensions::PortContext"* nonnull %14) #11
  %15 = getelementptr inbounds i8, i8* %13, i64 56
  %16 = bitcast i8* %15 to %"struct.extensions::PortId"*
  call void @_ZN10extensions6PortIdC1Ev(%"struct.extensions::PortId"* %16) #11
  %17 = call zeroext i1 @_ZN3IPC8MessageTI37ExtensionHostMsg_OpenMessagePort_MetaNSt3__15tupleIJN10extensions11PortContextENS4_6PortIdEEEEvE4ReadEPKNS_7MessageEPS7_(%"class.IPC::Message"* nonnull %1, %"class.std::__1::tuple.168"* nonnull %4)
  br i1 %17, label %18, label %28

18:                                               ; preds = %12
  call void @_ZN3IPC11ParamTraitsIN10extensions11PortContextEE3LogERKS2_PNSt3__112basic_stringIcNS6_11char_traitsIcEENS6_9allocatorIcEEEE(%"struct.extensions::PortContext"* nonnull dereferenceable(56) %14, %"class.std::__1::basic_string"* nonnull %2) #11
  %19 = call dereferenceable(24) %"class.std::__1::basic_string"* @_ZNSt3__112basic_stringIcNS_11char_traitsIcEENS_9allocatorIcEEE6appendEPKc(%"class.std::__1::basic_string"* nonnull %2, i8* getelementptr inbounds ([3 x i8], [3 x i8]* @.str.1, i64 0, i64 0)) #11
  %20 = call dereferenceable(24) %"class.std::__1::basic_string"* @_ZNSt3__112basic_stringIcNS_11char_traitsIcEENS_9allocatorIcEEE6appendEPKc(%"class.std::__1::basic_string"* nonnull %2, i8* getelementptr inbounds ([2 x i8], [2 x i8]* @.str, i64 0, i64 0)) #11
  %21 = bitcast i8* %15 to %"class.base::UnguessableToken"*
  call void @_ZN3IPC11ParamTraitsIN4base16UnguessableTokenEE3LogERKS2_PNSt3__112basic_stringIcNS6_11char_traitsIcEENS6_9allocatorIcEEEE(%"class.base::UnguessableToken"* dereferenceable(16) %21, %"class.std::__1::basic_string"* nonnull %2) #11
  %22 = call dereferenceable(24) %"class.std::__1::basic_string"* @_ZNSt3__112basic_stringIcNS_11char_traitsIcEENS_9allocatorIcEEE6appendEPKc(%"class.std::__1::basic_string"* nonnull %2, i8* getelementptr inbounds ([3 x i8], [3 x i8]* @.str.1, i64 0, i64 0)) #11
  %23 = getelementptr inbounds i8, i8* %13, i64 72
  %24 = bitcast i8* %23 to i32*
  call void @_ZN3IPC11ParamTraitsIiE3LogERKiPNSt3__112basic_stringIcNS4_11char_traitsIcEENS4_9allocatorIcEEEE(i32* dereferenceable(4) %24, %"class.std::__1::basic_string"* nonnull %2) #11
  %25 = call dereferenceable(24) %"class.std::__1::basic_string"* @_ZNSt3__112basic_stringIcNS_11char_traitsIcEENS_9allocatorIcEEE6appendEPKc(%"class.std::__1::basic_string"* nonnull %2, i8* getelementptr inbounds ([3 x i8], [3 x i8]* @.str.1, i64 0, i64 0)) #11
  %26 = getelementptr inbounds i8, i8* %13, i64 76
  call void @_ZN3IPC11ParamTraitsIbE3LogERKbPNSt3__112basic_stringIcNS4_11char_traitsIcEENS4_9allocatorIcEEEE(i8* dereferenceable(1) %26, %"class.std::__1::basic_string"* nonnull %2) #11
  %27 = call dereferenceable(24) %"class.std::__1::basic_string"* @_ZNSt3__112basic_stringIcNS_11char_traitsIcEENS_9allocatorIcEEE6appendEPKc(%"class.std::__1::basic_string"* nonnull %2, i8* getelementptr inbounds ([2 x i8], [2 x i8]* @.str.2, i64 0, i64 0)) #11
  br label %28

28:                                               ; preds = %18, %12
  call void @_ZN10extensions6PortIdD1Ev(%"struct.extensions::PortId"* %16) #11
  call void @_ZN10extensions11PortContextD1Ev(%"struct.extensions::PortContext"* nonnull %14) #11
  call void @llvm.lifetime.end.p0i8(i64 80, i8* nonnull %13) #11
  br label %29

29:                                               ; preds = %8, %28
  ret void
}

; Function Attrs: nounwind ssp uwtable
define weak_odr hidden void @_ZN3IPC8MessageTI37ExtensionHostMsg_OpenMessagePort_MetaNSt3__15tupleIJN10extensions11PortContextENS4_6PortIdEEEEvEC2ENS_7RoutingERKS5_RKS6_(%"class.IPC::MessageT.170"*, i32, %"struct.extensions::PortContext"* dereferenceable(56), %"struct.extensions::PortId"* dereferenceable(24)) unnamed_addr #0 comdat($_ZN3IPC8MessageTI37ExtensionHostMsg_OpenMessagePort_MetaNSt3__15tupleIJN10extensions11PortContextENS4_6PortIdEEEEvEC5ENS_7RoutingERKS5_RKS6_) align 2 {
  %5 = alloca i32, align 4
  %6 = alloca i32, align 4
  %7 = getelementptr inbounds %"class.IPC::MessageT.170", %"class.IPC::MessageT.170"* %0, i64 0, i32 0
  tail call void @_ZN3IPC7MessageC2EijNS0_13PriorityValueE(%"class.IPC::Message"* %7, i32 %1, i32 459169, i32 2) #11
  %8 = getelementptr inbounds %"class.IPC::MessageT.170", %"class.IPC::MessageT.170"* %0, i64 0, i32 0, i32 0, i32 0
  store i32 (...)** bitcast (i8** getelementptr inbounds ({ [7 x i8*] }, { [7 x i8*] }* @_ZTVN3IPC8MessageTI37ExtensionHostMsg_OpenMessagePort_MetaNSt3__15tupleIJN10extensions11PortContextENS4_6PortIdEEEEvEE, i64 0, inrange i32 0, i64 2) to i32 (...)**), i32 (...)*** %8, align 8
  %9 = getelementptr inbounds %"class.IPC::MessageT.170", %"class.IPC::MessageT.170"* %0, i64 0, i32 0, i32 0
  tail call void @_ZN3IPC11ParamTraitsIN10extensions11PortContextEE5WriteEPN4base6PickleERKS2_(%"class.base::Pickle"* %9, %"struct.extensions::PortContext"* dereferenceable(56) %2) #11
  %10 = getelementptr inbounds %"struct.extensions::PortId", %"struct.extensions::PortId"* %3, i64 0, i32 0
  tail call void @_ZN3IPC11ParamTraitsIN4base16UnguessableTokenEE5WriteEPNS1_6PickleERKS2_(%"class.base::Pickle"* %9, %"class.base::UnguessableToken"* dereferenceable(16) %10) #11
  %11 = getelementptr inbounds %"struct.extensions::PortId", %"struct.extensions::PortId"* %3, i64 0, i32 1
  %12 = load i32, i32* %11, align 4
  %13 = bitcast i32* %6 to i8*
  call void @llvm.lifetime.start.p0i8(i64 4, i8* nonnull %13) #11
  store i32 %12, i32* %6, align 4
  call void @_ZN4base6Pickle16WriteBytesStaticILm4EEEvPKv(%"class.base::Pickle"* %9, i8* nonnull %13) #11
  call void @llvm.lifetime.end.p0i8(i64 4, i8* nonnull %13) #11
  %14 = getelementptr inbounds %"struct.extensions::PortId", %"struct.extensions::PortId"* %3, i64 0, i32 2
  %15 = load i8, i8* %14, align 1, !range !2
  %16 = zext i8 %15 to i32
  %17 = bitcast i32* %5 to i8*
  call void @llvm.lifetime.start.p0i8(i64 4, i8* nonnull %17) #11
  store i32 %16, i32* %5, align 4
  call void @_ZN4base6Pickle16WriteBytesStaticILm4EEEvPKv(%"class.base::Pickle"* %9, i8* nonnull %17) #11
  call void @llvm.lifetime.end.p0i8(i64 4, i8* nonnull %17) #11
  ret void
}

; Function Attrs: nounwind ssp uwtable
define weak_odr hidden zeroext i1 @_ZN3IPC8MessageTI38ExtensionHostMsg_CloseMessagePort_MetaNSt3__15tupleIJN10extensions11PortContextENS4_6PortIdEbEEEvE4ReadEPKNS_7MessageEPS7_(%"class.IPC::Message"*, %"class.std::__1::tuple.173"*) local_unnamed_addr #0 comdat align 2 {
  %3 = alloca i8, align 1
  %4 = alloca %"struct.extensions::PortContext::FrameContext", align 4
  %5 = alloca %"class.base::PickleIterator", align 8
  %6 = bitcast %"class.base::PickleIterator"* %5 to i8*
  call void @llvm.lifetime.start.p0i8(i64 24, i8* nonnull %6) #11
  %7 = getelementptr inbounds %"class.IPC::Message", %"class.IPC::Message"* %0, i64 0, i32 0
  %8 = bitcast %"class.base::PickleIterator"* %5 to i8*
  call void @llvm.memset.p0i8.i64(i8* nonnull align 8 %8, i8 -86, i64 24, i1 false)
  call void @_ZN4base14PickleIteratorC1ERKNS_6PickleE(%"class.base::PickleIterator"* nonnull %5, %"class.base::Pickle"* dereferenceable(40) %7) #11
  call void @llvm.lifetime.start.p0i8(i64 1, i8* nonnull %3) #11
  store i8 0, i8* %3, align 1
  %9 = call zeroext i1 @_ZN4base14PickleIterator8ReadBoolEPb(%"class.base::PickleIterator"* nonnull %5, i8* nonnull %3) #11
  br i1 %9, label %10, label %26

10:                                               ; preds = %2
  %11 = load i8, i8* %3, align 1, !range !2
  %12 = icmp eq i8 %11, 0
  br i1 %12, label %27, label %13

13:                                               ; preds = %10
  %14 = bitcast %"struct.extensions::PortContext::FrameContext"* %4 to i8*
  call void @llvm.lifetime.start.p0i8(i64 4, i8* nonnull %14) #11
  %15 = getelementptr inbounds %"struct.extensions::PortContext::FrameContext", %"struct.extensions::PortContext::FrameContext"* %4, i64 0, i32 0
  store i32 -1431655766, i32* %15, align 4
  call void @_ZN10extensions11PortContext12FrameContextC1Ev(%"struct.extensions::PortContext::FrameContext"* nonnull %4) #11
  %16 = call zeroext i1 @_ZN4base14PickleIterator7ReadIntEPi(%"class.base::PickleIterator"* nonnull %5, i32* nonnull %15) #11
  br i1 %16, label %17, label %25

17:                                               ; preds = %13
  %18 = getelementptr inbounds %"class.std::__1::tuple.173", %"class.std::__1::tuple.173"* %1, i64 0, i32 0, i32 0, i32 0, i32 0, i32 0, i32 0, i32 0, i32 0
  %19 = load i8, i8* %18, align 4, !range !2
  %20 = icmp eq i8 %19, 0
  %21 = getelementptr inbounds %"class.std::__1::tuple.173", %"class.std::__1::tuple.173"* %1, i64 0, i32 0, i32 0, i32 0, i32 0, i32 0, i32 0, i32 0, i32 1, i32 0, i32 0
  %22 = load i32, i32* %15, align 4
  store i32 %22, i32* %21, align 4
  br i1 %20, label %23, label %24

23:                                               ; preds = %17
  store i8 1, i8* %18, align 4
  br label %24

24:                                               ; preds = %23, %17
  call void @llvm.lifetime.end.p0i8(i64 4, i8* nonnull %14) #11
  br label %27

25:                                               ; preds = %13
  call void @llvm.lifetime.end.p0i8(i64 4, i8* nonnull %14) #11
  br label %26

26:                                               ; preds = %2, %25
  call void @llvm.lifetime.end.p0i8(i64 1, i8* nonnull %3) #11
  br label %45

27:                                               ; preds = %10, %24
  call void @llvm.lifetime.end.p0i8(i64 1, i8* nonnull %3) #11
  %28 = getelementptr inbounds %"class.std::__1::tuple.173", %"class.std::__1::tuple.173"* %1, i64 0, i32 0, i32 0, i32 0, i32 1
  %29 = call zeroext i1 @_ZN3IPC11ParamTraitsIN4absl8optionalIN10extensions11PortContext13WorkerContextEEEE4ReadEPKN4base6PickleEPNS8_14PickleIteratorEPS6_(%"class.base::Pickle"* %7, %"class.base::PickleIterator"* nonnull %5, %"class.absl::optional.137"* %28) #11
  br i1 %29, label %30, label %45

30:                                               ; preds = %27
  %31 = getelementptr inbounds %"class.std::__1::tuple.173", %"class.std::__1::tuple.173"* %1, i64 0, i32 0, i32 0, i32 0, i32 0, i32 0, i32 0, i32 0, i32 0
  %32 = getelementptr inbounds i8, i8* %31, i64 56
  %33 = bitcast i8* %32 to %"class.base::UnguessableToken"*
  %34 = call zeroext i1 @_ZN3IPC11ParamTraitsIN4base16UnguessableTokenEE4ReadEPKNS1_6PickleEPNS1_14PickleIteratorEPS2_(%"class.base::Pickle"* %7, %"class.base::PickleIterator"* nonnull %5, %"class.base::UnguessableToken"* %33) #11
  br i1 %34, label %35, label %45

35:                                               ; preds = %30
  %36 = getelementptr inbounds i8, i8* %31, i64 72
  %37 = bitcast i8* %36 to i32*
  %38 = call zeroext i1 @_ZN4base14PickleIterator7ReadIntEPi(%"class.base::PickleIterator"* nonnull %5, i32* %37) #11
  br i1 %38, label %39, label %45

39:                                               ; preds = %35
  %40 = getelementptr inbounds i8, i8* %31, i64 76
  %41 = call zeroext i1 @_ZN4base14PickleIterator8ReadBoolEPb(%"class.base::PickleIterator"* nonnull %5, i8* %40) #11
  br i1 %41, label %42, label %45

42:                                               ; preds = %39
  %43 = getelementptr inbounds i8, i8* %31, i64 80
  %44 = call zeroext i1 @_ZN4base14PickleIterator8ReadBoolEPb(%"class.base::PickleIterator"* nonnull %5, i8* %43) #11
  br label %45

45:                                               ; preds = %26, %27, %30, %35, %39, %42
  %46 = phi i1 [ false, %27 ], [ false, %39 ], [ %44, %42 ], [ false, %35 ], [ false, %30 ], [ false, %26 ]
  call void @llvm.lifetime.end.p0i8(i64 24, i8* nonnull %6) #11
  ret i1 %46
}

; Function Attrs: nounwind ssp uwtable
define weak_odr hidden void @_ZN3IPC8MessageTI38ExtensionHostMsg_CloseMessagePort_MetaNSt3__15tupleIJN10extensions11PortContextENS4_6PortIdEbEEEvE3LogEPNS2_12basic_stringIcNS2_11char_traitsIcEENS2_9allocatorIcEEEEPKNS_7MessageESF_(%"class.std::__1::basic_string"*, %"class.IPC::Message"*, %"class.std::__1::basic_string"*) local_unnamed_addr #0 comdat align 2 {
  %4 = alloca %"class.std::__1::tuple.173", align 8
  %5 = icmp eq %"class.std::__1::basic_string"* %0, null
  br i1 %5, label %8, label %6

6:                                                ; preds = %3
  %7 = tail call dereferenceable(24) %"class.std::__1::basic_string"* @_ZNSt3__112basic_stringIcNS_11char_traitsIcEENS_9allocatorIcEEE17__assign_externalEPKcm(%"class.std::__1::basic_string"* nonnull %0, i8* getelementptr inbounds ([34 x i8], [34 x i8]* @_ZN38ExtensionHostMsg_CloseMessagePort_Meta5kNameE, i64 0, i64 0), i64 33) #11
  br label %8

8:                                                ; preds = %6, %3
  %9 = icmp ne %"class.IPC::Message"* %1, null
  %10 = icmp ne %"class.std::__1::basic_string"* %2, null
  %11 = and i1 %9, %10
  br i1 %11, label %12, label %31

12:                                               ; preds = %8
  %13 = getelementptr inbounds %"class.std::__1::tuple.173", %"class.std::__1::tuple.173"* %4, i64 0, i32 0, i32 0, i32 0, i32 0, i32 0, i32 0, i32 0, i32 0
  call void @llvm.lifetime.start.p0i8(i64 88, i8* nonnull %13) #11
  call void @llvm.memset.p0i8.i64(i8* nonnull align 8 %13, i8 -86, i64 88, i1 false)
  %14 = getelementptr inbounds %"class.std::__1::tuple.173", %"class.std::__1::tuple.173"* %4, i64 0, i32 0, i32 0, i32 0
  call void @_ZN10extensions11PortContextC1Ev(%"struct.extensions::PortContext"* nonnull %14) #11
  %15 = getelementptr inbounds i8, i8* %13, i64 56
  %16 = bitcast i8* %15 to %"struct.extensions::PortId"*
  call void @_ZN10extensions6PortIdC1Ev(%"struct.extensions::PortId"* %16) #11
  %17 = getelementptr inbounds i8, i8* %13, i64 80
  store i8 0, i8* %17, align 8
  %18 = call zeroext i1 @_ZN3IPC8MessageTI38ExtensionHostMsg_CloseMessagePort_MetaNSt3__15tupleIJN10extensions11PortContextENS4_6PortIdEbEEEvE4ReadEPKNS_7MessageEPS7_(%"class.IPC::Message"* nonnull %1, %"class.std::__1::tuple.173"* nonnull %4)
  br i1 %18, label %19, label %30

19:                                               ; preds = %12
  call void @_ZN3IPC11ParamTraitsIN10extensions11PortContextEE3LogERKS2_PNSt3__112basic_stringIcNS6_11char_traitsIcEENS6_9allocatorIcEEEE(%"struct.extensions::PortContext"* nonnull dereferenceable(56) %14, %"class.std::__1::basic_string"* nonnull %2) #11
  %20 = call dereferenceable(24) %"class.std::__1::basic_string"* @_ZNSt3__112basic_stringIcNS_11char_traitsIcEENS_9allocatorIcEEE6appendEPKc(%"class.std::__1::basic_string"* nonnull %2, i8* getelementptr inbounds ([3 x i8], [3 x i8]* @.str.1, i64 0, i64 0)) #11
  %21 = call dereferenceable(24) %"class.std::__1::basic_string"* @_ZNSt3__112basic_stringIcNS_11char_traitsIcEENS_9allocatorIcEEE6appendEPKc(%"class.std::__1::basic_string"* nonnull %2, i8* getelementptr inbounds ([2 x i8], [2 x i8]* @.str, i64 0, i64 0)) #11
  %22 = bitcast i8* %15 to %"class.base::UnguessableToken"*
  call void @_ZN3IPC11ParamTraitsIN4base16UnguessableTokenEE3LogERKS2_PNSt3__112basic_stringIcNS6_11char_traitsIcEENS6_9allocatorIcEEEE(%"class.base::UnguessableToken"* dereferenceable(16) %22, %"class.std::__1::basic_string"* nonnull %2) #11
  %23 = call dereferenceable(24) %"class.std::__1::basic_string"* @_ZNSt3__112basic_stringIcNS_11char_traitsIcEENS_9allocatorIcEEE6appendEPKc(%"class.std::__1::basic_string"* nonnull %2, i8* getelementptr inbounds ([3 x i8], [3 x i8]* @.str.1, i64 0, i64 0)) #11
  %24 = getelementptr inbounds i8, i8* %13, i64 72
  %25 = bitcast i8* %24 to i32*
  call void @_ZN3IPC11ParamTraitsIiE3LogERKiPNSt3__112basic_stringIcNS4_11char_traitsIcEENS4_9allocatorIcEEEE(i32* dereferenceable(4) %25, %"class.std::__1::basic_string"* nonnull %2) #11
  %26 = call dereferenceable(24) %"class.std::__1::basic_string"* @_ZNSt3__112basic_stringIcNS_11char_traitsIcEENS_9allocatorIcEEE6appendEPKc(%"class.std::__1::basic_string"* nonnull %2, i8* getelementptr inbounds ([3 x i8], [3 x i8]* @.str.1, i64 0, i64 0)) #11
  %27 = getelementptr inbounds i8, i8* %13, i64 76
  call void @_ZN3IPC11ParamTraitsIbE3LogERKbPNSt3__112basic_stringIcNS4_11char_traitsIcEENS4_9allocatorIcEEEE(i8* dereferenceable(1) %27, %"class.std::__1::basic_string"* nonnull %2) #11
  %28 = call dereferenceable(24) %"class.std::__1::basic_string"* @_ZNSt3__112basic_stringIcNS_11char_traitsIcEENS_9allocatorIcEEE6appendEPKc(%"class.std::__1::basic_string"* nonnull %2, i8* getelementptr inbounds ([2 x i8], [2 x i8]* @.str.2, i64 0, i64 0)) #11
  %29 = call dereferenceable(24) %"class.std::__1::basic_string"* @_ZNSt3__112basic_stringIcNS_11char_traitsIcEENS_9allocatorIcEEE6appendEPKc(%"class.std::__1::basic_string"* nonnull %2, i8* getelementptr inbounds ([3 x i8], [3 x i8]* @.str.1, i64 0, i64 0)) #11
  call void @_ZN3IPC11ParamTraitsIbE3LogERKbPNSt3__112basic_stringIcNS4_11char_traitsIcEENS4_9allocatorIcEEEE(i8* dereferenceable(1) %17, %"class.std::__1::basic_string"* nonnull %2) #11
  br label %30

30:                                               ; preds = %19, %12
  call void @_ZN10extensions6PortIdD1Ev(%"struct.extensions::PortId"* %16) #11
  call void @_ZN10extensions11PortContextD1Ev(%"struct.extensions::PortContext"* nonnull %14) #11
  call void @llvm.lifetime.end.p0i8(i64 88, i8* nonnull %13) #11
  br label %31

31:                                               ; preds = %8, %30
  ret void
}

; Function Attrs: nounwind ssp uwtable
define weak_odr hidden void @_ZN3IPC8MessageTI38ExtensionHostMsg_CloseMessagePort_MetaNSt3__15tupleIJN10extensions11PortContextENS4_6PortIdEbEEEvEC2ENS_7RoutingERKS5_RKS6_RKb(%"class.IPC::MessageT.177"*, i32, %"struct.extensions::PortContext"* dereferenceable(56), %"struct.extensions::PortId"* dereferenceable(24), i8* dereferenceable(1)) unnamed_addr #0 comdat($_ZN3IPC8MessageTI38ExtensionHostMsg_CloseMessagePort_MetaNSt3__15tupleIJN10extensions11PortContextENS4_6PortIdEbEEEvEC5ENS_7RoutingERKS5_RKS6_RKb) align 2 {
  %6 = alloca i32, align 4
  %7 = alloca i32, align 4
  %8 = alloca i32, align 4
  %9 = getelementptr inbounds %"class.IPC::MessageT.177", %"class.IPC::MessageT.177"* %0, i64 0, i32 0
  tail call void @_ZN3IPC7MessageC2EijNS0_13PriorityValueE(%"class.IPC::Message"* %9, i32 %1, i32 459176, i32 2) #11
  %10 = getelementptr inbounds %"class.IPC::MessageT.177", %"class.IPC::MessageT.177"* %0, i64 0, i32 0, i32 0, i32 0
  store i32 (...)** bitcast (i8** getelementptr inbounds ({ [7 x i8*] }, { [7 x i8*] }* @_ZTVN3IPC8MessageTI38ExtensionHostMsg_CloseMessagePort_MetaNSt3__15tupleIJN10extensions11PortContextENS4_6PortIdEbEEEvEE, i64 0, inrange i32 0, i64 2) to i32 (...)**), i32 (...)*** %10, align 8
  %11 = getelementptr inbounds %"class.IPC::MessageT.177", %"class.IPC::MessageT.177"* %0, i64 0, i32 0, i32 0
  tail call void @_ZN3IPC11ParamTraitsIN10extensions11PortContextEE5WriteEPN4base6PickleERKS2_(%"class.base::Pickle"* %11, %"struct.extensions::PortContext"* dereferenceable(56) %2) #11
  %12 = getelementptr inbounds %"struct.extensions::PortId", %"struct.extensions::PortId"* %3, i64 0, i32 0
  tail call void @_ZN3IPC11ParamTraitsIN4base16UnguessableTokenEE5WriteEPNS1_6PickleERKS2_(%"class.base::Pickle"* %11, %"class.base::UnguessableToken"* dereferenceable(16) %12) #11
  %13 = getelementptr inbounds %"struct.extensions::PortId", %"struct.extensions::PortId"* %3, i64 0, i32 1
  %14 = load i32, i32* %13, align 4
  %15 = bitcast i32* %7 to i8*
  call void @llvm.lifetime.start.p0i8(i64 4, i8* nonnull %15) #11
  store i32 %14, i32* %7, align 4
  call void @_ZN4base6Pickle16WriteBytesStaticILm4EEEvPKv(%"class.base::Pickle"* %11, i8* nonnull %15) #11
  call void @llvm.lifetime.end.p0i8(i64 4, i8* nonnull %15) #11
  %16 = getelementptr inbounds %"struct.extensions::PortId", %"struct.extensions::PortId"* %3, i64 0, i32 2
  %17 = load i8, i8* %16, align 1, !range !2
  %18 = zext i8 %17 to i32
  %19 = bitcast i32* %6 to i8*
  call void @llvm.lifetime.start.p0i8(i64 4, i8* nonnull %19) #11
  store i32 %18, i32* %6, align 4
  call void @_ZN4base6Pickle16WriteBytesStaticILm4EEEvPKv(%"class.base::Pickle"* %11, i8* nonnull %19) #11
  call void @llvm.lifetime.end.p0i8(i64 4, i8* nonnull %19) #11
  %20 = load i8, i8* %4, align 1, !range !2
  %21 = zext i8 %20 to i32
  %22 = bitcast i32* %8 to i8*
  call void @llvm.lifetime.start.p0i8(i64 4, i8* nonnull %22) #11
  store i32 %21, i32* %8, align 4
  call void @_ZN4base6Pickle16WriteBytesStaticILm4EEEvPKv(%"class.base::Pickle"* %11, i8* nonnull %22) #11
  call void @llvm.lifetime.end.p0i8(i64 4, i8* nonnull %22) #11
  ret void
}

; Function Attrs: nounwind ssp uwtable
define weak_odr hidden zeroext i1 @_ZN3IPC8MessageTI33ExtensionHostMsg_PostMessage_MetaNSt3__15tupleIJN10extensions6PortIdENS4_7MessageEEEEvE4ReadEPKNS_7MessageEPS7_(%"class.IPC::Message"*, %"class.std::__1::tuple.181"*) local_unnamed_addr #0 comdat align 2 {
  %3 = alloca %"class.base::PickleIterator", align 8
  %4 = bitcast %"class.base::PickleIterator"* %3 to i8*
  call void @llvm.lifetime.start.p0i8(i64 24, i8* nonnull %4) #11
  %5 = getelementptr inbounds %"class.IPC::Message", %"class.IPC::Message"* %0, i64 0, i32 0
  %6 = bitcast %"class.base::PickleIterator"* %3 to i8*
  call void @llvm.memset.p0i8.i64(i8* nonnull align 8 %6, i8 -86, i64 24, i1 false)
  call void @_ZN4base14PickleIteratorC1ERKNS_6PickleE(%"class.base::PickleIterator"* nonnull %3, %"class.base::Pickle"* dereferenceable(40) %5) #11
  %7 = getelementptr inbounds %"class.std::__1::tuple.181", %"class.std::__1::tuple.181"* %1, i64 0, i32 0, i32 0, i32 0, i32 0
  %8 = call zeroext i1 @_ZN3IPC11ParamTraitsIN4base16UnguessableTokenEE4ReadEPKNS1_6PickleEPNS1_14PickleIteratorEPS2_(%"class.base::Pickle"* %5, %"class.base::PickleIterator"* nonnull %3, %"class.base::UnguessableToken"* %7) #11
  br i1 %8, label %9, label %21

9:                                                ; preds = %2
  %10 = getelementptr inbounds %"class.std::__1::tuple.181", %"class.std::__1::tuple.181"* %1, i64 0, i32 0, i32 0, i32 0, i32 1
  %11 = call zeroext i1 @_ZN4base14PickleIterator7ReadIntEPi(%"class.base::PickleIterator"* nonnull %3, i32* %10) #11
  br i1 %11, label %12, label %21

12:                                               ; preds = %9
  %13 = getelementptr inbounds %"class.std::__1::tuple.181", %"class.std::__1::tuple.181"* %1, i64 0, i32 0, i32 0, i32 0, i32 2
  %14 = call zeroext i1 @_ZN4base14PickleIterator8ReadBoolEPb(%"class.base::PickleIterator"* nonnull %3, i8* %13) #11
  br i1 %14, label %15, label %21

15:                                               ; preds = %12
  %16 = getelementptr inbounds %"class.std::__1::tuple.181", %"class.std::__1::tuple.181"* %1, i64 0, i32 0, i32 1, i32 0, i32 0
  %17 = call zeroext i1 @_ZN4base14PickleIterator10ReadStringEPNSt3__112basic_stringIcNS1_11char_traitsIcEENS1_9allocatorIcEEEE(%"class.base::PickleIterator"* nonnull %3, %"class.std::__1::basic_string"* %16) #11
  br i1 %17, label %18, label %21

18:                                               ; preds = %15
  %19 = getelementptr inbounds %"class.std::__1::tuple.181", %"class.std::__1::tuple.181"* %1, i64 0, i32 0, i32 1, i32 0, i32 1
  %20 = call zeroext i1 @_ZN4base14PickleIterator8ReadBoolEPb(%"class.base::PickleIterator"* nonnull %3, i8* %19) #11
  br label %21

21:                                               ; preds = %2, %9, %12, %15, %18
  %22 = phi i1 [ false, %12 ], [ %20, %18 ], [ false, %15 ], [ false, %9 ], [ false, %2 ]
  call void @llvm.lifetime.end.p0i8(i64 24, i8* nonnull %4) #11
  ret i1 %22
}

; Function Attrs: nounwind ssp uwtable
define weak_odr hidden void @_ZN3IPC8MessageTI33ExtensionHostMsg_PostMessage_MetaNSt3__15tupleIJN10extensions6PortIdENS4_7MessageEEEEvE3LogEPNS2_12basic_stringIcNS2_11char_traitsIcEENS2_9allocatorIcEEEEPKNS_7MessageESF_(%"class.std::__1::basic_string"*, %"class.IPC::Message"*, %"class.std::__1::basic_string"*) local_unnamed_addr #0 comdat align 2 {
  %4 = alloca %"class.std::__1::tuple.181", align 8
  %5 = icmp eq %"class.std::__1::basic_string"* %0, null
  br i1 %5, label %8, label %6

6:                                                ; preds = %3
  %7 = tail call dereferenceable(24) %"class.std::__1::basic_string"* @_ZNSt3__112basic_stringIcNS_11char_traitsIcEENS_9allocatorIcEEE17__assign_externalEPKcm(%"class.std::__1::basic_string"* nonnull %0, i8* getelementptr inbounds ([29 x i8], [29 x i8]* @_ZN33ExtensionHostMsg_PostMessage_Meta5kNameE, i64 0, i64 0), i64 28) #11
  br label %8

8:                                                ; preds = %6, %3
  %9 = icmp ne %"class.IPC::Message"* %1, null
  %10 = icmp ne %"class.std::__1::basic_string"* %2, null
  %11 = and i1 %9, %10
  br i1 %11, label %12, label %28

12:                                               ; preds = %8
  %13 = bitcast %"class.std::__1::tuple.181"* %4 to i8*
  call void @llvm.lifetime.start.p0i8(i64 56, i8* nonnull %13) #11
  call void @llvm.memset.p0i8.i64(i8* nonnull align 8 %13, i8 -86, i64 56, i1 false)
  %14 = getelementptr inbounds %"class.std::__1::tuple.181", %"class.std::__1::tuple.181"* %4, i64 0, i32 0, i32 0, i32 0
  call void @_ZN10extensions6PortIdC1Ev(%"struct.extensions::PortId"* nonnull %14) #11
  %15 = getelementptr inbounds %"class.std::__1::tuple.181", %"class.std::__1::tuple.181"* %4, i64 0, i32 0, i32 1
  %16 = bitcast %"class.std::__1::__tuple_leaf.184"* %15 to i8*
  call void @llvm.memset.p0i8.i64(i8* align 8 %16, i8 0, i64 32, i1 false) #11
  %17 = call zeroext i1 @_ZN3IPC8MessageTI33ExtensionHostMsg_PostMessage_MetaNSt3__15tupleIJN10extensions6PortIdENS4_7MessageEEEEvE4ReadEPKNS_7MessageEPS7_(%"class.IPC::Message"* nonnull %1, %"class.std::__1::tuple.181"* nonnull %4)
  br i1 %17, label %18, label %19

18:                                               ; preds = %12
  call void @_ZN3IPC22TupleParamTraitsHelperINSt3__15tupleIJN10extensions6PortIdENS3_7MessageEEEELi0ELi2EE3LogERKS6_PNS1_12basic_stringIcNS1_11char_traitsIcEENS1_9allocatorIcEEEE(%"class.std::__1::tuple.181"* nonnull dereferenceable(56) %4, %"class.std::__1::basic_string"* nonnull %2) #11
  br label %19

19:                                               ; preds = %18, %12
  %20 = bitcast %"class.std::__1::__tuple_leaf.184"* %15 to %"struct.std::__1::basic_string<char, std::__1::char_traits<char>, std::__1::allocator<char> >::__short"*
  %21 = getelementptr inbounds %"struct.std::__1::basic_string<char, std::__1::char_traits<char>, std::__1::allocator<char> >::__short", %"struct.std::__1::basic_string<char, std::__1::char_traits<char>, std::__1::allocator<char> >::__short"* %20, i64 0, i32 1, i32 0
  %22 = load i8, i8* %21, align 1
  %23 = icmp slt i8 %22, 0
  br i1 %23, label %24, label %27

24:                                               ; preds = %19
  %25 = getelementptr inbounds %"class.std::__1::__tuple_leaf.184", %"class.std::__1::__tuple_leaf.184"* %15, i64 0, i32 0, i32 0, i32 0, i32 0, i32 0, i32 0, i32 0, i32 0
  %26 = load i8*, i8** %25, align 8
  call void @_ZdlPv(i8* %26) #12
  br label %27

27:                                               ; preds = %19, %24
  call void @_ZN10extensions6PortIdD1Ev(%"struct.extensions::PortId"* nonnull %14) #11
  call void @llvm.lifetime.end.p0i8(i64 56, i8* nonnull %13) #11
  br label %28

28:                                               ; preds = %8, %27
  ret void
}

; Function Attrs: nounwind ssp uwtable
define weak_odr hidden void @_ZN3IPC8MessageTI33ExtensionHostMsg_PostMessage_MetaNSt3__15tupleIJN10extensions6PortIdENS4_7MessageEEEEvEC2ENS_7RoutingERKS5_RKS6_(%"class.IPC::MessageT.185"*, i32, %"struct.extensions::PortId"* dereferenceable(24), %"struct.extensions::Message"* dereferenceable(32)) unnamed_addr #0 comdat($_ZN3IPC8MessageTI33ExtensionHostMsg_PostMessage_MetaNSt3__15tupleIJN10extensions6PortIdENS4_7MessageEEEEvEC5ENS_7RoutingERKS5_RKS6_) align 2 {
  %5 = alloca i32, align 4
  %6 = alloca i32, align 4
  %7 = alloca i32, align 4
  %8 = alloca %"class.base::BasicStringPiece", align 8
  %9 = getelementptr inbounds %"class.IPC::MessageT.185", %"class.IPC::MessageT.185"* %0, i64 0, i32 0
  tail call void @_ZN3IPC7MessageC2EijNS0_13PriorityValueE(%"class.IPC::Message"* %9, i32 %1, i32 459182, i32 2) #11
  %10 = getelementptr inbounds %"class.IPC::MessageT.185", %"class.IPC::MessageT.185"* %0, i64 0, i32 0, i32 0, i32 0
  store i32 (...)** bitcast (i8** getelementptr inbounds ({ [7 x i8*] }, { [7 x i8*] }* @_ZTVN3IPC8MessageTI33ExtensionHostMsg_PostMessage_MetaNSt3__15tupleIJN10extensions6PortIdENS4_7MessageEEEEvEE, i64 0, inrange i32 0, i64 2) to i32 (...)**), i32 (...)*** %10, align 8
  %11 = getelementptr inbounds %"class.IPC::MessageT.185", %"class.IPC::MessageT.185"* %0, i64 0, i32 0, i32 0
  %12 = getelementptr inbounds %"struct.extensions::PortId", %"struct.extensions::PortId"* %2, i64 0, i32 0
  tail call void @_ZN3IPC11ParamTraitsIN4base16UnguessableTokenEE5WriteEPNS1_6PickleERKS2_(%"class.base::Pickle"* %11, %"class.base::UnguessableToken"* dereferenceable(16) %12) #11
  %13 = getelementptr inbounds %"struct.extensions::PortId", %"struct.extensions::PortId"* %2, i64 0, i32 1
  %14 = load i32, i32* %13, align 4
  %15 = bitcast i32* %6 to i8*
  call void @llvm.lifetime.start.p0i8(i64 4, i8* nonnull %15) #11
  store i32 %14, i32* %6, align 4
  call void @_ZN4base6Pickle16WriteBytesStaticILm4EEEvPKv(%"class.base::Pickle"* %11, i8* nonnull %15) #11
  call void @llvm.lifetime.end.p0i8(i64 4, i8* nonnull %15) #11
  %16 = getelementptr inbounds %"struct.extensions::PortId", %"struct.extensions::PortId"* %2, i64 0, i32 2
  %17 = load i8, i8* %16, align 1, !range !2
  %18 = zext i8 %17 to i32
  %19 = bitcast i32* %5 to i8*
  call void @llvm.lifetime.start.p0i8(i64 4, i8* nonnull %19) #11
  store i32 %18, i32* %5, align 4
  call void @_ZN4base6Pickle16WriteBytesStaticILm4EEEvPKv(%"class.base::Pickle"* %11, i8* nonnull %19) #11
  call void @llvm.lifetime.end.p0i8(i64 4, i8* nonnull %19) #11
  %20 = bitcast %"class.base::BasicStringPiece"* %8 to i8*
  call void @llvm.lifetime.start.p0i8(i64 16, i8* nonnull %20) #11
  %21 = getelementptr inbounds %"class.base::BasicStringPiece", %"class.base::BasicStringPiece"* %8, i64 0, i32 0
  %22 = bitcast %"struct.extensions::Message"* %3 to %"struct.std::__1::basic_string<char, std::__1::char_traits<char>, std::__1::allocator<char> >::__short"*
  %23 = getelementptr inbounds %"struct.std::__1::basic_string<char, std::__1::char_traits<char>, std::__1::allocator<char> >::__short", %"struct.std::__1::basic_string<char, std::__1::char_traits<char>, std::__1::allocator<char> >::__short"* %22, i64 0, i32 1, i32 0
  %24 = load i8, i8* %23, align 1
  %25 = icmp slt i8 %24, 0
  %26 = getelementptr inbounds %"struct.extensions::Message", %"struct.extensions::Message"* %3, i64 0, i32 0, i32 0, i32 0, i32 0, i32 0, i32 0, i32 0
  %27 = load i8*, i8** %26, align 8
  %28 = bitcast %"struct.extensions::Message"* %3 to i8*
  %29 = select i1 %25, i8* %27, i8* %28
  store i8* %29, i8** %21, align 8
  %30 = getelementptr inbounds %"class.base::BasicStringPiece", %"class.base::BasicStringPiece"* %8, i64 0, i32 1
  %31 = getelementptr inbounds %"struct.extensions::Message", %"struct.extensions::Message"* %3, i64 0, i32 0, i32 0, i32 0, i32 0, i32 0, i32 0, i32 1
  %32 = load i64, i64* %31, align 8
  %33 = zext i8 %24 to i64
  %34 = select i1 %25, i64 %32, i64 %33
  store i64 %34, i64* %30, align 8
  call void @_ZN4base6Pickle11WriteStringERKNS_16BasicStringPieceIcNSt3__111char_traitsIcEEEE(%"class.base::Pickle"* %11, %"class.base::BasicStringPiece"* nonnull dereferenceable(16) %8) #11
  call void @llvm.lifetime.end.p0i8(i64 16, i8* nonnull %20) #11
  %35 = getelementptr inbounds %"struct.extensions::Message", %"struct.extensions::Message"* %3, i64 0, i32 1
  %36 = load i8, i8* %35, align 1, !range !2
  %37 = zext i8 %36 to i32
  %38 = bitcast i32* %7 to i8*
  call void @llvm.lifetime.start.p0i8(i64 4, i8* nonnull %38) #11
  store i32 %37, i32* %7, align 4
  call void @_ZN4base6Pickle16WriteBytesStaticILm4EEEvPKv(%"class.base::Pickle"* %11, i8* nonnull %38) #11
  call void @llvm.lifetime.end.p0i8(i64 4, i8* nonnull %38) #11
  ret void
}

; Function Attrs: nounwind ssp uwtable
define weak_odr hidden zeroext i1 @_ZN3IPC8MessageTI38ExtensionHostMsg_GetMessageBundle_MetaNSt3__15tupleIJNS2_12basic_stringIcNS2_11char_traitsIcEENS2_9allocatorIcEEEEEEENS3_IJNS2_3mapIS9_S9_NS2_4lessIS9_EENS7_INS2_4pairIKS9_S9_EEEEEEEEEE13ReadSendParamEPKNS_7MessageEPSA_(%"class.IPC::Message"*, %"class.std::__1::tuple.190"*) local_unnamed_addr #0 comdat align 2 {
  %3 = alloca %"class.base::PickleIterator", align 8
  %4 = bitcast %"class.base::PickleIterator"* %3 to i8*
  call void @llvm.lifetime.start.p0i8(i64 24, i8* nonnull %4) #11
  %5 = bitcast %"class.base::PickleIterator"* %3 to i8*
  call void @llvm.memset.p0i8.i64(i8* nonnull align 8 %5, i8 -86, i64 24, i1 false)
  call void @_ZN3IPC11SyncMessage15GetDataIteratorEPKNS_7MessageE(%"class.base::PickleIterator"* nonnull sret %3, %"class.IPC::Message"* %0) #11
  %6 = getelementptr inbounds %"class.std::__1::tuple.190", %"class.std::__1::tuple.190"* %1, i64 0, i32 0, i32 0, i32 0
  %7 = call zeroext i1 @_ZN4base14PickleIterator10ReadStringEPNSt3__112basic_stringIcNS1_11char_traitsIcEENS1_9allocatorIcEEEE(%"class.base::PickleIterator"* nonnull %3, %"class.std::__1::basic_string"* %6) #11
  call void @llvm.lifetime.end.p0i8(i64 24, i8* nonnull %4) #11
  ret i1 %7
}

declare void @_ZN3IPC11SyncMessage15GetDataIteratorEPKNS_7MessageE(%"class.base::PickleIterator"* sret, %"class.IPC::Message"*) local_unnamed_addr #2

; Function Attrs: nounwind ssp uwtable
define weak_odr hidden zeroext i1 @_ZN3IPC8MessageTI38ExtensionHostMsg_GetMessageBundle_MetaNSt3__15tupleIJNS2_12basic_stringIcNS2_11char_traitsIcEENS2_9allocatorIcEEEEEEENS3_IJNS2_3mapIS9_S9_NS2_4lessIS9_EENS7_INS2_4pairIKS9_S9_EEEEEEEEEE14ReadReplyParamEPKNS_7MessageEPSJ_(%"class.IPC::Message"*, %"class.std::__1::tuple.192"*) local_unnamed_addr #0 comdat align 2 {
  %3 = alloca %"class.base::PickleIterator", align 8
  %4 = bitcast %"class.base::PickleIterator"* %3 to i8*
  call void @llvm.lifetime.start.p0i8(i64 24, i8* nonnull %4) #11
  %5 = bitcast %"class.base::PickleIterator"* %3 to i8*
  call void @llvm.memset.p0i8.i64(i8* nonnull align 8 %5, i8 -86, i64 24, i1 false)
  call void @_ZN3IPC11SyncMessage15GetDataIteratorEPKNS_7MessageE(%"class.base::PickleIterator"* nonnull sret %3, %"class.IPC::Message"* %0) #11
  %6 = getelementptr inbounds %"class.IPC::Message", %"class.IPC::Message"* %0, i64 0, i32 0
  %7 = getelementptr inbounds %"class.std::__1::tuple.192", %"class.std::__1::tuple.192"* %1, i64 0, i32 0, i32 0, i32 0
  %8 = call zeroext i1 @_ZN3IPC11ParamTraitsINSt3__13mapINS1_12basic_stringIcNS1_11char_traitsIcEENS1_9allocatorIcEEEES8_NS1_4lessIS8_EENS6_INS1_4pairIKS8_S8_EEEEEEE4ReadEPKN4base6PickleEPNSH_14PickleIteratorEPSF_(%"class.base::Pickle"* %6, %"class.base::PickleIterator"* nonnull %3, %"class.std::__1::map"* %7) #11
  call void @llvm.lifetime.end.p0i8(i64 24, i8* nonnull %4) #11
  ret i1 %8
}

; Function Attrs: nounwind ssp uwtable
define weak_odr hidden void @_ZN3IPC8MessageTI38ExtensionHostMsg_GetMessageBundle_MetaNSt3__15tupleIJNS2_12basic_stringIcNS2_11char_traitsIcEENS2_9allocatorIcEEEEEEENS3_IJNS2_3mapIS9_S9_NS2_4lessIS9_EENS7_INS2_4pairIKS9_S9_EEEEEEEEEE16WriteReplyParamsEPNS_7MessageERKSI_(%"class.IPC::Message"*, %"class.std::__1::map"* dereferenceable(24)) local_unnamed_addr #0 comdat align 2 {
  %3 = getelementptr inbounds %"class.IPC::Message", %"class.IPC::Message"* %0, i64 0, i32 0
  tail call void @_ZN3IPC11ParamTraitsINSt3__13mapINS1_12basic_stringIcNS1_11char_traitsIcEENS1_9allocatorIcEEEES8_NS1_4lessIS8_EENS6_INS1_4pairIKS8_S8_EEEEEEE5WriteEPN4base6PickleERKSF_(%"class.base::Pickle"* %3, %"class.std::__1::map"* dereferenceable(24) %1) #11
  ret void
}

; Function Attrs: nounwind ssp uwtable
define weak_odr hidden void @_ZN3IPC8MessageTI38ExtensionHostMsg_GetMessageBundle_MetaNSt3__15tupleIJNS2_12basic_stringIcNS2_11char_traitsIcEENS2_9allocatorIcEEEEEEENS3_IJNS2_3mapIS9_S9_NS2_4lessIS9_EENS7_INS2_4pairIKS9_S9_EEEEEEEEEE3LogEPS9_PKNS_7MessageESL_(%"class.std::__1::basic_string"*, %"class.IPC::Message"*, %"class.std::__1::basic_string"*) local_unnamed_addr #0 comdat align 2 {
  %4 = alloca %"class.base::PickleIterator", align 8
  %5 = alloca %"class.base::PickleIterator", align 8
  %6 = alloca %"class.std::__1::tuple.190", align 8
  %7 = alloca %"class.std::__1::tuple.192", align 8
  %8 = icmp eq %"class.std::__1::basic_string"* %0, null
  br i1 %8, label %11, label %9

9:                                                ; preds = %3
  %10 = tail call dereferenceable(24) %"class.std::__1::basic_string"* @_ZNSt3__112basic_stringIcNS_11char_traitsIcEENS_9allocatorIcEEE17__assign_externalEPKcm(%"class.std::__1::basic_string"* nonnull %0, i8* getelementptr inbounds ([34 x i8], [34 x i8]* @_ZN38ExtensionHostMsg_GetMessageBundle_Meta5kNameE, i64 0, i64 0), i64 33) #11
  br label %11

11:                                               ; preds = %9, %3
  %12 = icmp ne %"class.IPC::Message"* %1, null
  %13 = icmp ne %"class.std::__1::basic_string"* %2, null
  %14 = and i1 %12, %13
  br i1 %14, label %15, label %55

15:                                               ; preds = %11
  %16 = getelementptr inbounds %"class.IPC::Message", %"class.IPC::Message"* %1, i64 0, i32 0, i32 1
  %17 = bitcast %"struct.base::Pickle::Header"** %16 to %"struct.IPC::Message::Header"**
  %18 = load %"struct.IPC::Message::Header"*, %"struct.IPC::Message::Header"** %17, align 8
  %19 = getelementptr inbounds %"struct.IPC::Message::Header", %"struct.IPC::Message::Header"* %18, i64 0, i32 3
  %20 = load i32, i32* %19, align 4
  %21 = and i32 %20, 4
  %22 = icmp eq i32 %21, 0
  br i1 %22, label %37, label %23

23:                                               ; preds = %15
  %24 = bitcast %"class.std::__1::tuple.190"* %6 to i8*
  call void @llvm.lifetime.start.p0i8(i64 24, i8* nonnull %24) #11
  %25 = getelementptr inbounds %"class.std::__1::tuple.190", %"class.std::__1::tuple.190"* %6, i64 0, i32 0, i32 0, i32 0, i32 0, i32 0, i32 0, i32 0, i32 0, i32 0
  call void @llvm.memset.p0i8.i64(i8* nonnull align 8 %24, i8 0, i64 24, i1 false) #11
  %26 = bitcast %"class.base::PickleIterator"* %5 to i8*
  call void @llvm.lifetime.start.p0i8(i64 24, i8* nonnull %26) #11
  call void @llvm.memset.p0i8.i64(i8* nonnull align 8 %26, i8 -86, i64 24, i1 false) #11
  call void @_ZN3IPC11SyncMessage15GetDataIteratorEPKNS_7MessageE(%"class.base::PickleIterator"* nonnull sret %5, %"class.IPC::Message"* nonnull %1) #11
  %27 = getelementptr inbounds %"class.std::__1::tuple.190", %"class.std::__1::tuple.190"* %6, i64 0, i32 0, i32 0, i32 0
  %28 = call zeroext i1 @_ZN4base14PickleIterator10ReadStringEPNSt3__112basic_stringIcNS1_11char_traitsIcEENS1_9allocatorIcEEEE(%"class.base::PickleIterator"* nonnull %5, %"class.std::__1::basic_string"* nonnull %27) #11
  call void @llvm.lifetime.end.p0i8(i64 24, i8* nonnull %26) #11
  br i1 %28, label %29, label %30

29:                                               ; preds = %23
  call void @_ZN3IPC11ParamTraitsINSt3__112basic_stringIcNS1_11char_traitsIcEENS1_9allocatorIcEEEEE3LogERKS7_PS7_(%"class.std::__1::basic_string"* nonnull dereferenceable(24) %27, %"class.std::__1::basic_string"* nonnull %2) #11
  br label %30

30:                                               ; preds = %29, %23
  %31 = bitcast %"class.std::__1::tuple.190"* %6 to %"struct.std::__1::basic_string<char, std::__1::char_traits<char>, std::__1::allocator<char> >::__short"*
  %32 = getelementptr inbounds %"struct.std::__1::basic_string<char, std::__1::char_traits<char>, std::__1::allocator<char> >::__short", %"struct.std::__1::basic_string<char, std::__1::char_traits<char>, std::__1::allocator<char> >::__short"* %31, i64 0, i32 1, i32 0
  %33 = load i8, i8* %32, align 1
  %34 = icmp slt i8 %33, 0
  br i1 %34, label %35, label %53

35:                                               ; preds = %30
  %36 = load i8*, i8** %25, align 8
  call void @_ZdlPv(i8* %36) #12
  br label %53

37:                                               ; preds = %15
  %38 = bitcast %"class.std::__1::tuple.192"* %7 to i8*
  call void @llvm.lifetime.start.p0i8(i64 24, i8* nonnull %38) #11
  %39 = getelementptr inbounds %"class.std::__1::tuple.192", %"class.std::__1::tuple.192"* %7, i64 0, i32 0, i32 0, i32 0, i32 0, i32 0
  %40 = getelementptr inbounds %"class.std::__1::tuple.192", %"class.std::__1::tuple.192"* %7, i64 0, i32 0, i32 0, i32 0, i32 0, i32 1, i32 0, i32 0, i32 0
  %41 = getelementptr inbounds %"class.std::__1::tuple.192", %"class.std::__1::tuple.192"* %7, i64 0, i32 0, i32 0, i32 0, i32 0, i32 1, i32 0, i32 0
  %42 = bitcast %"class.std::__1::__tree_node_base"** %40 to i8*
  call void @llvm.memset.p0i8.i64(i8* align 8 %42, i8 0, i64 16, i1 false) #11
  store %"class.std::__1::__tree_end_node"* %41, %"class.std::__1::__tree_end_node"** %39, align 8
  %43 = bitcast %"class.base::PickleIterator"* %4 to i8*
  call void @llvm.lifetime.start.p0i8(i64 24, i8* nonnull %43) #11
  call void @llvm.memset.p0i8.i64(i8* nonnull align 8 %43, i8 -86, i64 24, i1 false) #11
  call void @_ZN3IPC11SyncMessage15GetDataIteratorEPKNS_7MessageE(%"class.base::PickleIterator"* nonnull sret %4, %"class.IPC::Message"* nonnull %1) #11
  %44 = getelementptr inbounds %"class.IPC::Message", %"class.IPC::Message"* %1, i64 0, i32 0
  %45 = getelementptr inbounds %"class.std::__1::tuple.192", %"class.std::__1::tuple.192"* %7, i64 0, i32 0, i32 0, i32 0
  %46 = call zeroext i1 @_ZN3IPC11ParamTraitsINSt3__13mapINS1_12basic_stringIcNS1_11char_traitsIcEENS1_9allocatorIcEEEES8_NS1_4lessIS8_EENS6_INS1_4pairIKS8_S8_EEEEEEE4ReadEPKN4base6PickleEPNSH_14PickleIteratorEPSF_(%"class.base::Pickle"* %44, %"class.base::PickleIterator"* nonnull %4, %"class.std::__1::map"* nonnull %45) #11
  call void @llvm.lifetime.end.p0i8(i64 24, i8* nonnull %43) #11
  br i1 %46, label %47, label %49

47:                                               ; preds = %37
  %48 = call dereferenceable(24) %"class.std::__1::basic_string"* @_ZNSt3__112basic_stringIcNS_11char_traitsIcEENS_9allocatorIcEEE6appendEPKc(%"class.std::__1::basic_string"* nonnull %2, i8* getelementptr inbounds ([11 x i8], [11 x i8]* @.str.5, i64 0, i64 0)) #11
  br label %49

49:                                               ; preds = %47, %37
  %50 = getelementptr inbounds %"class.std::__1::tuple.192", %"class.std::__1::tuple.192"* %7, i64 0, i32 0, i32 0, i32 0, i32 0
  %51 = bitcast %"class.std::__1::__tree_end_node"* %41 to %"class.std::__1::__tree_node"**
  %52 = load %"class.std::__1::__tree_node"*, %"class.std::__1::__tree_node"** %51, align 8
  call void @_ZNSt3__16__treeINS_12__value_typeINS_12basic_stringIcNS_11char_traitsIcEENS_9allocatorIcEEEES7_EENS_19__map_value_compareIS7_S8_NS_4lessIS7_EELb1EEENS5_IS8_EEE7destroyEPNS_11__tree_nodeIS8_PvEE(%"class.std::__1::__tree"* nonnull %50, %"class.std::__1::__tree_node"* %52) #11
  br label %53

53:                                               ; preds = %35, %30, %49
  %54 = phi i8* [ %38, %49 ], [ %24, %30 ], [ %24, %35 ]
  call void @llvm.lifetime.end.p0i8(i64 24, i8* nonnull %54) #11
  br label %55

55:                                               ; preds = %53, %11
  ret void
}

; Function Attrs: nounwind ssp uwtable
define weak_odr hidden void @_ZN3IPC8MessageTI38ExtensionHostMsg_GetMessageBundle_MetaNSt3__15tupleIJNS2_12basic_stringIcNS2_11char_traitsIcEENS2_9allocatorIcEEEEEEENS3_IJNS2_3mapIS9_S9_NS2_4lessIS9_EENS7_INS2_4pairIKS9_S9_EEEEEEEEEEC2ENS_7RoutingERSF_PSI_(%"class.IPC::MessageT.206"*, i32, %"class.std::__1::basic_string"* dereferenceable(24), %"class.std::__1::map"*) unnamed_addr #0 comdat($_ZN3IPC8MessageTI38ExtensionHostMsg_GetMessageBundle_MetaNSt3__15tupleIJNS2_12basic_stringIcNS2_11char_traitsIcEENS2_9allocatorIcEEEEEEENS3_IJNS2_3mapIS9_S9_NS2_4lessIS9_EENS7_INS2_4pairIKS9_S9_EEEEEEEEEEC5ENS_7RoutingERSF_PSI_) align 2 {
  %5 = alloca %"class.base::BasicStringPiece", align 8
  %6 = getelementptr inbounds %"class.IPC::MessageT.206", %"class.IPC::MessageT.206"* %0, i64 0, i32 0
  %7 = tail call i8* @_Znwm(i64 16) #12
  %8 = ptrtoint %"class.std::__1::map"* %3 to i64
  %9 = bitcast i8* %7 to i32 (...)***
  store i32 (...)** bitcast (i8** getelementptr inbounds ({ [5 x i8*] }, { [5 x i8*] }* @_ZTVN3IPC17ParamDeserializerIJNSt3__13mapINS1_12basic_stringIcNS1_11char_traitsIcEENS1_9allocatorIcEEEES8_NS1_4lessIS8_EENS6_INS1_4pairIKS8_S8_EEEEEEEEE, i64 0, inrange i32 0, i64 2) to i32 (...)**), i32 (...)*** %9, align 8
  %10 = getelementptr inbounds i8, i8* %7, i64 8
  %11 = bitcast i8* %10 to i64*
  store i64 %8, i64* %11, align 8
  %12 = bitcast i8* %7 to %"class.IPC::MessageReplyDeserializer"*
  tail call void @_ZN3IPC11SyncMessageC2EijNS_7Message13PriorityValueEPNS_24MessageReplyDeserializerE(%"class.IPC::SyncMessage"* %6, i32 %1, i32 459188, i32 2, %"class.IPC::MessageReplyDeserializer"* nonnull %12) #11
  %13 = getelementptr inbounds %"class.IPC::MessageT.206", %"class.IPC::MessageT.206"* %0, i64 0, i32 0, i32 0, i32 0, i32 0
  store i32 (...)** bitcast (i8** getelementptr inbounds ({ [7 x i8*] }, { [7 x i8*] }* @_ZTVN3IPC8MessageTI38ExtensionHostMsg_GetMessageBundle_MetaNSt3__15tupleIJNS2_12basic_stringIcNS2_11char_traitsIcEENS2_9allocatorIcEEEEEEENS3_IJNS2_3mapIS9_S9_NS2_4lessIS9_EENS7_INS2_4pairIKS9_S9_EEEEEEEEEEE, i64 0, inrange i32 0, i64 2) to i32 (...)**), i32 (...)*** %13, align 8
  %14 = getelementptr inbounds %"class.IPC::MessageT.206", %"class.IPC::MessageT.206"* %0, i64 0, i32 0, i32 0, i32 0
  %15 = bitcast %"class.base::BasicStringPiece"* %5 to i8*
  call void @llvm.lifetime.start.p0i8(i64 16, i8* nonnull %15) #11
  %16 = getelementptr inbounds %"class.base::BasicStringPiece", %"class.base::BasicStringPiece"* %5, i64 0, i32 0
  %17 = bitcast %"class.std::__1::basic_string"* %2 to %"struct.std::__1::basic_string<char, std::__1::char_traits<char>, std::__1::allocator<char> >::__short"*
  %18 = getelementptr inbounds %"struct.std::__1::basic_string<char, std::__1::char_traits<char>, std::__1::allocator<char> >::__short", %"struct.std::__1::basic_string<char, std::__1::char_traits<char>, std::__1::allocator<char> >::__short"* %17, i64 0, i32 1, i32 0
  %19 = load i8, i8* %18, align 1
  %20 = icmp slt i8 %19, 0
  %21 = getelementptr inbounds %"class.std::__1::basic_string", %"class.std::__1::basic_string"* %2, i64 0, i32 0, i32 0, i32 0, i32 0, i32 0, i32 0
  %22 = load i8*, i8** %21, align 8
  %23 = bitcast %"class.std::__1::basic_string"* %2 to i8*
  %24 = select i1 %20, i8* %22, i8* %23
  store i8* %24, i8** %16, align 8
  %25 = getelementptr inbounds %"class.base::BasicStringPiece", %"class.base::BasicStringPiece"* %5, i64 0, i32 1
  %26 = getelementptr inbounds %"class.std::__1::basic_string", %"class.std::__1::basic_string"* %2, i64 0, i32 0, i32 0, i32 0, i32 0, i32 0, i32 1
  %27 = load i64, i64* %26, align 8
  %28 = zext i8 %19 to i64
  %29 = select i1 %20, i64 %27, i64 %28
  store i64 %29, i64* %25, align 8
  call void @_ZN4base6Pickle11WriteStringERKNS_16BasicStringPieceIcNSt3__111char_traitsIcEEEE(%"class.base::Pickle"* %14, %"class.base::BasicStringPiece"* nonnull dereferenceable(16) %5) #11
  call void @llvm.lifetime.end.p0i8(i64 16, i8* nonnull %15) #11
  ret void
}

; Function Attrs: nobuiltin nofree
declare noalias nonnull i8* @_Znwm(i64) local_unnamed_addr #4

declare void @_ZN3IPC11SyncMessageC2EijNS_7Message13PriorityValueEPNS_24MessageReplyDeserializerE(%"class.IPC::SyncMessage"*, i32, i32, i32, %"class.IPC::MessageReplyDeserializer"*) unnamed_addr #2

; Function Attrs: nounwind ssp uwtable
define weak_odr hidden zeroext i1 @_ZN3IPC8MessageTI45ExtensionHostMsg_ContentScriptsExecuting_MetaNSt3__15tupleIJNS2_3mapINS2_12basic_stringIcNS2_11char_traitsIcEENS2_9allocatorIcEEEENS2_3setISA_NS2_4lessISA_EENS8_ISA_EEEESD_NS8_INS2_4pairIKSA_SF_EEEEEE4GURLEEEvE4ReadEPKNS_7MessageEPSM_(%"class.IPC::Message"*, %"class.std::__1::tuple.218"*) local_unnamed_addr #0 comdat align 2 {
  %3 = alloca %"class.base::PickleIterator", align 8
  %4 = bitcast %"class.base::PickleIterator"* %3 to i8*
  call void @llvm.lifetime.start.p0i8(i64 24, i8* nonnull %4) #11
  %5 = getelementptr inbounds %"class.IPC::Message", %"class.IPC::Message"* %0, i64 0, i32 0
  %6 = bitcast %"class.base::PickleIterator"* %3 to i8*
  call void @llvm.memset.p0i8.i64(i8* nonnull align 8 %6, i8 -86, i64 24, i1 false)
  call void @_ZN4base14PickleIteratorC1ERKNS_6PickleE(%"class.base::PickleIterator"* nonnull %3, %"class.base::Pickle"* dereferenceable(40) %5) #11
  %7 = getelementptr inbounds %"class.std::__1::tuple.218", %"class.std::__1::tuple.218"* %1, i64 0, i32 0, i32 0, i32 0
  %8 = call zeroext i1 @_ZN3IPC11ParamTraitsINSt3__13mapINS1_12basic_stringIcNS1_11char_traitsIcEENS1_9allocatorIcEEEENS1_3setIS8_NS1_4lessIS8_EENS6_IS8_EEEESB_NS6_INS1_4pairIKS8_SD_EEEEEEE4ReadEPKN4base6PickleEPNSK_14PickleIteratorEPSI_(%"class.base::Pickle"* %5, %"class.base::PickleIterator"* nonnull %3, %"class.std::__1::map.221"* %7) #11
  br i1 %8, label %9, label %12

9:                                                ; preds = %2
  %10 = getelementptr inbounds %"class.std::__1::tuple.218", %"class.std::__1::tuple.218"* %1, i64 0, i32 0, i32 1, i32 0
  %11 = call zeroext i1 @_ZN3IPC11ParamTraitsI4GURLE4ReadEPKN4base6PickleEPNS3_14PickleIteratorEPS1_(%"class.base::Pickle"* %5, %"class.base::PickleIterator"* nonnull %3, %class.GURL* %10) #11
  br label %12

12:                                               ; preds = %2, %9
  %13 = phi i1 [ false, %2 ], [ %11, %9 ]
  call void @llvm.lifetime.end.p0i8(i64 24, i8* nonnull %4) #11
  ret i1 %13
}

; Function Attrs: nounwind ssp uwtable
define weak_odr hidden void @_ZN3IPC8MessageTI45ExtensionHostMsg_ContentScriptsExecuting_MetaNSt3__15tupleIJNS2_3mapINS2_12basic_stringIcNS2_11char_traitsIcEENS2_9allocatorIcEEEENS2_3setISA_NS2_4lessISA_EENS8_ISA_EEEESD_NS8_INS2_4pairIKSA_SF_EEEEEE4GURLEEEvE3LogEPSA_PKNS_7MessageESO_(%"class.std::__1::basic_string"*, %"class.IPC::Message"*, %"class.std::__1::basic_string"*) local_unnamed_addr #0 comdat align 2 {
  %4 = alloca %"class.base::PickleIterator", align 8
  %5 = alloca %"class.std::__1::tuple.218", align 8
  %6 = icmp eq %"class.std::__1::basic_string"* %0, null
  br i1 %6, label %9, label %7

7:                                                ; preds = %3
  %8 = tail call dereferenceable(24) %"class.std::__1::basic_string"* @_ZNSt3__112basic_stringIcNS_11char_traitsIcEENS_9allocatorIcEEE17__assign_externalEPKcm(%"class.std::__1::basic_string"* nonnull %0, i8* getelementptr inbounds ([41 x i8], [41 x i8]* @_ZN45ExtensionHostMsg_ContentScriptsExecuting_Meta5kNameE, i64 0, i64 0), i64 40) #11
  br label %9

9:                                                ; preds = %7, %3
  %10 = icmp ne %"class.IPC::Message"* %1, null
  %11 = icmp ne %"class.std::__1::basic_string"* %2, null
  %12 = and i1 %10, %11
  br i1 %12, label %13, label %36

13:                                               ; preds = %9
  %14 = bitcast %"class.std::__1::tuple.218"* %5 to i8*
  call void @llvm.lifetime.start.p0i8(i64 144, i8* nonnull %14) #11
  %15 = getelementptr inbounds %"class.std::__1::tuple.218", %"class.std::__1::tuple.218"* %5, i64 0, i32 0, i32 1
  %16 = bitcast %"class.std::__1::__tuple_leaf.230"* %15 to i8*
  call void @llvm.memset.p0i8.i64(i8* nonnull align 8 %16, i8 -86, i64 120, i1 false)
  %17 = getelementptr inbounds %"class.std::__1::tuple.218", %"class.std::__1::tuple.218"* %5, i64 0, i32 0, i32 0, i32 0, i32 0, i32 1, i32 0, i32 0, i32 0
  %18 = getelementptr inbounds %"class.std::__1::tuple.218", %"class.std::__1::tuple.218"* %5, i64 0, i32 0, i32 0, i32 0, i32 0, i32 1, i32 0, i32 0
  %19 = getelementptr inbounds %"class.std::__1::tuple.218", %"class.std::__1::tuple.218"* %5, i64 0, i32 0, i32 0, i32 0, i32 0, i32 0
  %20 = bitcast %"class.std::__1::__tree_node_base"** %17 to i8*
  call void @llvm.memset.p0i8.i64(i8* align 8 %20, i8 0, i64 16, i1 false) #11
  store %"class.std::__1::__tree_end_node"* %18, %"class.std::__1::__tree_end_node"** %19, align 8
  %21 = getelementptr inbounds %"class.std::__1::tuple.218", %"class.std::__1::tuple.218"* %5, i64 0, i32 0, i32 1, i32 0
  call void @_ZN4GURLC1Ev(%class.GURL* %21) #11
  %22 = bitcast %"class.base::PickleIterator"* %4 to i8*
  call void @llvm.lifetime.start.p0i8(i64 24, i8* nonnull %22) #11
  %23 = getelementptr inbounds %"class.IPC::Message", %"class.IPC::Message"* %1, i64 0, i32 0
  call void @llvm.memset.p0i8.i64(i8* nonnull align 8 %22, i8 -86, i64 24, i1 false) #11
  call void @_ZN4base14PickleIteratorC1ERKNS_6PickleE(%"class.base::PickleIterator"* nonnull %4, %"class.base::Pickle"* dereferenceable(40) %23) #11
  %24 = getelementptr inbounds %"class.std::__1::tuple.218", %"class.std::__1::tuple.218"* %5, i64 0, i32 0, i32 0, i32 0
  %25 = call zeroext i1 @_ZN3IPC11ParamTraitsINSt3__13mapINS1_12basic_stringIcNS1_11char_traitsIcEENS1_9allocatorIcEEEENS1_3setIS8_NS1_4lessIS8_EENS6_IS8_EEEESB_NS6_INS1_4pairIKS8_SD_EEEEEEE4ReadEPKN4base6PickleEPNSK_14PickleIteratorEPSI_(%"class.base::Pickle"* %23, %"class.base::PickleIterator"* nonnull %4, %"class.std::__1::map.221"* nonnull %24) #11
  br i1 %25, label %27, label %26

26:                                               ; preds = %13
  call void @llvm.lifetime.end.p0i8(i64 24, i8* nonnull %22) #11
  br label %32

27:                                               ; preds = %13
  %28 = call zeroext i1 @_ZN3IPC11ParamTraitsI4GURLE4ReadEPKN4base6PickleEPNS3_14PickleIteratorEPS1_(%"class.base::Pickle"* %23, %"class.base::PickleIterator"* nonnull %4, %class.GURL* %21) #11
  call void @llvm.lifetime.end.p0i8(i64 24, i8* nonnull %22) #11
  br i1 %28, label %29, label %32

29:                                               ; preds = %27
  %30 = call dereferenceable(24) %"class.std::__1::basic_string"* @_ZNSt3__112basic_stringIcNS_11char_traitsIcEENS_9allocatorIcEEE6appendEPKc(%"class.std::__1::basic_string"* nonnull %2, i8* getelementptr inbounds ([11 x i8], [11 x i8]* @.str.5, i64 0, i64 0)) #11
  %31 = call dereferenceable(24) %"class.std::__1::basic_string"* @_ZNSt3__112basic_stringIcNS_11char_traitsIcEENS_9allocatorIcEEE6appendEPKc(%"class.std::__1::basic_string"* nonnull %2, i8* getelementptr inbounds ([3 x i8], [3 x i8]* @.str.1, i64 0, i64 0)) #11
  call void @_ZN3IPC11ParamTraitsI4GURLE3LogERKS1_PNSt3__112basic_stringIcNS5_11char_traitsIcEENS5_9allocatorIcEEEE(%class.GURL* dereferenceable(120) %21, %"class.std::__1::basic_string"* nonnull %2) #11
  br label %32

32:                                               ; preds = %26, %29, %27
  call void @_ZN4GURLD1Ev(%class.GURL* %21) #11
  %33 = getelementptr inbounds %"class.std::__1::tuple.218", %"class.std::__1::tuple.218"* %5, i64 0, i32 0, i32 0, i32 0, i32 0
  %34 = bitcast %"class.std::__1::__tree_end_node"* %18 to %"class.std::__1::__tree_node.532"**
  %35 = load %"class.std::__1::__tree_node.532"*, %"class.std::__1::__tree_node.532"** %34, align 8
  call void @_ZNSt3__16__treeINS_12__value_typeINS_12basic_stringIcNS_11char_traitsIcEENS_9allocatorIcEEEENS_3setIS7_NS_4lessIS7_EENS5_IS7_EEEEEENS_19__map_value_compareIS7_SD_SA_Lb1EEENS5_ISD_EEE7destroyEPNS_11__tree_nodeISD_PvEE(%"class.std::__1::__tree.222"* nonnull %33, %"class.std::__1::__tree_node.532"* %35) #11
  call void @llvm.lifetime.end.p0i8(i64 144, i8* nonnull %14) #11
  br label %36

36:                                               ; preds = %9, %32
  ret void
}

; Function Attrs: nounwind ssp uwtable
define weak_odr hidden void @_ZN3IPC8MessageTI45ExtensionHostMsg_ContentScriptsExecuting_MetaNSt3__15tupleIJNS2_3mapINS2_12basic_stringIcNS2_11char_traitsIcEENS2_9allocatorIcEEEENS2_3setISA_NS2_4lessISA_EENS8_ISA_EEEESD_NS8_INS2_4pairIKSA_SF_EEEEEE4GURLEEEvEC2ENS_7RoutingERKSK_RKSL_(%"class.IPC::MessageT.231"*, i32, %"class.std::__1::map.221"* dereferenceable(24), %class.GURL* dereferenceable(120)) unnamed_addr #0 comdat($_ZN3IPC8MessageTI45ExtensionHostMsg_ContentScriptsExecuting_MetaNSt3__15tupleIJNS2_3mapINS2_12basic_stringIcNS2_11char_traitsIcEENS2_9allocatorIcEEEENS2_3setISA_NS2_4lessISA_EENS8_ISA_EEEESD_NS8_INS2_4pairIKSA_SF_EEEEEE4GURLEEEvEC5ENS_7RoutingERKSK_RKSL_) align 2 {
  %5 = getelementptr inbounds %"class.IPC::MessageT.231", %"class.IPC::MessageT.231"* %0, i64 0, i32 0
  tail call void @_ZN3IPC7MessageC2EijNS0_13PriorityValueE(%"class.IPC::Message"* %5, i32 %1, i32 459194, i32 2) #11
  %6 = getelementptr inbounds %"class.IPC::MessageT.231", %"class.IPC::MessageT.231"* %0, i64 0, i32 0, i32 0, i32 0
  store i32 (...)** bitcast (i8** getelementptr inbounds ({ [7 x i8*] }, { [7 x i8*] }* @_ZTVN3IPC8MessageTI45ExtensionHostMsg_ContentScriptsExecuting_MetaNSt3__15tupleIJNS2_3mapINS2_12basic_stringIcNS2_11char_traitsIcEENS2_9allocatorIcEEEENS2_3setISA_NS2_4lessISA_EENS8_ISA_EEEESD_NS8_INS2_4pairIKSA_SF_EEEEEE4GURLEEEvEE, i64 0, inrange i32 0, i64 2) to i32 (...)**), i32 (...)*** %6, align 8
  %7 = getelementptr inbounds %"class.IPC::MessageT.231", %"class.IPC::MessageT.231"* %0, i64 0, i32 0, i32 0
  tail call void @_ZN3IPC11ParamTraitsINSt3__13mapINS1_12basic_stringIcNS1_11char_traitsIcEENS1_9allocatorIcEEEENS1_3setIS8_NS1_4lessIS8_EENS6_IS8_EEEESB_NS6_INS1_4pairIKS8_SD_EEEEEEE5WriteEPN4base6PickleERKSI_(%"class.base::Pickle"* %7, %"class.std::__1::map.221"* dereferenceable(24) %2) #11
  tail call void @_ZN3IPC11ParamTraitsI4GURLE5WriteEPN4base6PickleERKS1_(%"class.base::Pickle"* %7, %class.GURL* dereferenceable(120) %3) #11
  ret void
}

; Function Attrs: nounwind ssp uwtable
define weak_odr hidden zeroext i1 @_ZN3IPC8MessageTI33ExtensionHostMsg_ResponseAck_MetaNSt3__15tupleIJiEEEvE4ReadEPKNS_7MessageEPS4_(%"class.IPC::Message"*, %"class.std::__1::tuple.52"*) local_unnamed_addr #0 comdat align 2 {
  %3 = alloca %"class.base::PickleIterator", align 8
  %4 = bitcast %"class.base::PickleIterator"* %3 to i8*
  call void @llvm.lifetime.start.p0i8(i64 24, i8* nonnull %4) #11
  %5 = getelementptr inbounds %"class.IPC::Message", %"class.IPC::Message"* %0, i64 0, i32 0
  %6 = bitcast %"class.base::PickleIterator"* %3 to i8*
  call void @llvm.memset.p0i8.i64(i8* nonnull align 8 %6, i8 -86, i64 24, i1 false)
  call void @_ZN4base14PickleIteratorC1ERKNS_6PickleE(%"class.base::PickleIterator"* nonnull %3, %"class.base::Pickle"* dereferenceable(40) %5) #11
  %7 = getelementptr inbounds %"class.std::__1::tuple.52", %"class.std::__1::tuple.52"* %1, i64 0, i32 0, i32 0, i32 0
  %8 = call zeroext i1 @_ZN4base14PickleIterator7ReadIntEPi(%"class.base::PickleIterator"* nonnull %3, i32* %7) #11
  call void @llvm.lifetime.end.p0i8(i64 24, i8* nonnull %4) #11
  ret i1 %8
}

; Function Attrs: nounwind ssp uwtable
define weak_odr hidden void @_ZN3IPC8MessageTI33ExtensionHostMsg_ResponseAck_MetaNSt3__15tupleIJiEEEvE3LogEPNS2_12basic_stringIcNS2_11char_traitsIcEENS2_9allocatorIcEEEEPKNS_7MessageESC_(%"class.std::__1::basic_string"*, %"class.IPC::Message"*, %"class.std::__1::basic_string"*) local_unnamed_addr #0 comdat align 2 {
  %4 = alloca %"class.base::PickleIterator", align 8
  %5 = alloca %"class.std::__1::tuple.52", align 4
  %6 = icmp eq %"class.std::__1::basic_string"* %0, null
  br i1 %6, label %9, label %7

7:                                                ; preds = %3
  %8 = tail call dereferenceable(24) %"class.std::__1::basic_string"* @_ZNSt3__112basic_stringIcNS_11char_traitsIcEENS_9allocatorIcEEE17__assign_externalEPKcm(%"class.std::__1::basic_string"* nonnull %0, i8* getelementptr inbounds ([29 x i8], [29 x i8]* @_ZN33ExtensionHostMsg_ResponseAck_Meta5kNameE, i64 0, i64 0), i64 28) #11
  br label %9

9:                                                ; preds = %7, %3
  %10 = icmp ne %"class.IPC::Message"* %1, null
  %11 = icmp ne %"class.std::__1::basic_string"* %2, null
  %12 = and i1 %10, %11
  br i1 %12, label %13, label %21

13:                                               ; preds = %9
  %14 = bitcast %"class.std::__1::tuple.52"* %5 to i8*
  call void @llvm.lifetime.start.p0i8(i64 4, i8* nonnull %14) #11
  %15 = getelementptr inbounds %"class.std::__1::tuple.52", %"class.std::__1::tuple.52"* %5, i64 0, i32 0, i32 0, i32 0
  store i32 0, i32* %15, align 4
  %16 = bitcast %"class.base::PickleIterator"* %4 to i8*
  call void @llvm.lifetime.start.p0i8(i64 24, i8* nonnull %16) #11
  %17 = getelementptr inbounds %"class.IPC::Message", %"class.IPC::Message"* %1, i64 0, i32 0
  call void @llvm.memset.p0i8.i64(i8* nonnull align 8 %16, i8 -86, i64 24, i1 false) #11
  call void @_ZN4base14PickleIteratorC1ERKNS_6PickleE(%"class.base::PickleIterator"* nonnull %4, %"class.base::Pickle"* dereferenceable(40) %17) #11
  %18 = call zeroext i1 @_ZN4base14PickleIterator7ReadIntEPi(%"class.base::PickleIterator"* nonnull %4, i32* nonnull %15) #11
  call void @llvm.lifetime.end.p0i8(i64 24, i8* nonnull %16) #11
  br i1 %18, label %19, label %20

19:                                               ; preds = %13
  call void @_ZN3IPC11ParamTraitsIiE3LogERKiPNSt3__112basic_stringIcNS4_11char_traitsIcEENS4_9allocatorIcEEEE(i32* nonnull dereferenceable(4) %15, %"class.std::__1::basic_string"* nonnull %2) #11
  br label %20

20:                                               ; preds = %19, %13
  call void @llvm.lifetime.end.p0i8(i64 4, i8* nonnull %14) #11
  br label %21

21:                                               ; preds = %9, %20
  ret void
}

; Function Attrs: nounwind ssp uwtable
define weak_odr hidden void @_ZN3IPC8MessageTI33ExtensionHostMsg_ResponseAck_MetaNSt3__15tupleIJiEEEvEC2ENS_7RoutingERKi(%"class.IPC::MessageT.236"*, i32, i32* dereferenceable(4)) unnamed_addr #0 comdat($_ZN3IPC8MessageTI33ExtensionHostMsg_ResponseAck_MetaNSt3__15tupleIJiEEEvEC5ENS_7RoutingERKi) align 2 {
  %4 = alloca i32, align 4
  %5 = getelementptr inbounds %"class.IPC::MessageT.236", %"class.IPC::MessageT.236"* %0, i64 0, i32 0
  tail call void @_ZN3IPC7MessageC2EijNS0_13PriorityValueE(%"class.IPC::Message"* %5, i32 %1, i32 459199, i32 2) #11
  %6 = getelementptr inbounds %"class.IPC::MessageT.236", %"class.IPC::MessageT.236"* %0, i64 0, i32 0, i32 0, i32 0
  store i32 (...)** bitcast (i8** getelementptr inbounds ({ [7 x i8*] }, { [7 x i8*] }* @_ZTVN3IPC8MessageTI33ExtensionHostMsg_ResponseAck_MetaNSt3__15tupleIJiEEEvEE, i64 0, inrange i32 0, i64 2) to i32 (...)**), i32 (...)*** %6, align 8
  %7 = getelementptr inbounds %"class.IPC::MessageT.236", %"class.IPC::MessageT.236"* %0, i64 0, i32 0, i32 0
  %8 = load i32, i32* %2, align 4
  %9 = bitcast i32* %4 to i8*
  call void @llvm.lifetime.start.p0i8(i64 4, i8* nonnull %9) #11
  store i32 %8, i32* %4, align 4
  call void @_ZN4base6Pickle16WriteBytesStaticILm4EEEvPKv(%"class.base::Pickle"* %7, i8* nonnull %9) #11
  call void @llvm.lifetime.end.p0i8(i64 4, i8* nonnull %9) #11
  ret void
}

; Function Attrs: nounwind ssp uwtable
define weak_odr hidden zeroext i1 @_ZN3IPC8MessageTI49ExtensionHostMsg_IncrementLazyKeepaliveCount_MetaNSt3__15tupleIJEEEvE4ReadEPKNS_7MessageEPS4_(%"class.IPC::Message"*, %"class.std::__1::tuple.237"*) local_unnamed_addr #0 comdat align 2 {
  %3 = alloca %"class.base::PickleIterator", align 8
  %4 = bitcast %"class.base::PickleIterator"* %3 to i8*
  call void @llvm.lifetime.start.p0i8(i64 24, i8* nonnull %4) #11
  %5 = getelementptr inbounds %"class.IPC::Message", %"class.IPC::Message"* %0, i64 0, i32 0
  %6 = bitcast %"class.base::PickleIterator"* %3 to i8*
  call void @llvm.memset.p0i8.i64(i8* nonnull align 8 %6, i8 -86, i64 24, i1 false)
  call void @_ZN4base14PickleIteratorC1ERKNS_6PickleE(%"class.base::PickleIterator"* nonnull %3, %"class.base::Pickle"* dereferenceable(40) %5) #11
  call void @llvm.lifetime.end.p0i8(i64 24, i8* nonnull %4) #11
  ret i1 true
}

; Function Attrs: nounwind ssp uwtable
define weak_odr hidden void @_ZN3IPC8MessageTI49ExtensionHostMsg_IncrementLazyKeepaliveCount_MetaNSt3__15tupleIJEEEvE3LogEPNS2_12basic_stringIcNS2_11char_traitsIcEENS2_9allocatorIcEEEEPKNS_7MessageESC_(%"class.std::__1::basic_string"*, %"class.IPC::Message"*, %"class.std::__1::basic_string"*) local_unnamed_addr #0 comdat align 2 {
  %4 = alloca %"class.base::PickleIterator", align 8
  %5 = icmp eq %"class.std::__1::basic_string"* %0, null
  br i1 %5, label %8, label %6

6:                                                ; preds = %3
  %7 = tail call dereferenceable(24) %"class.std::__1::basic_string"* @_ZNSt3__112basic_stringIcNS_11char_traitsIcEENS_9allocatorIcEEE17__assign_externalEPKcm(%"class.std::__1::basic_string"* nonnull %0, i8* getelementptr inbounds ([45 x i8], [45 x i8]* @_ZN49ExtensionHostMsg_IncrementLazyKeepaliveCount_Meta5kNameE, i64 0, i64 0), i64 44) #11
  br label %8

8:                                                ; preds = %6, %3
  %9 = icmp ne %"class.IPC::Message"* %1, null
  %10 = icmp ne %"class.std::__1::basic_string"* %2, null
  %11 = and i1 %9, %10
  br i1 %11, label %12, label %15

12:                                               ; preds = %8
  %13 = bitcast %"class.base::PickleIterator"* %4 to i8*
  call void @llvm.lifetime.start.p0i8(i64 24, i8* nonnull %13) #11
  %14 = getelementptr inbounds %"class.IPC::Message", %"class.IPC::Message"* %1, i64 0, i32 0
  call void @llvm.memset.p0i8.i64(i8* nonnull align 8 %13, i8 -86, i64 24, i1 false) #11
  call void @_ZN4base14PickleIteratorC1ERKNS_6PickleE(%"class.base::PickleIterator"* nonnull %4, %"class.base::Pickle"* dereferenceable(40) %14) #11
  call void @llvm.lifetime.end.p0i8(i64 24, i8* nonnull %13) #11
  br label %15

15:                                               ; preds = %8, %12
  ret void
}

; Function Attrs: nounwind ssp uwtable
define weak_odr hidden void @_ZN3IPC8MessageTI49ExtensionHostMsg_IncrementLazyKeepaliveCount_MetaNSt3__15tupleIJEEEvEC2ENS_7RoutingE(%"class.IPC::MessageT.238"*, i32) unnamed_addr #0 comdat($_ZN3IPC8MessageTI49ExtensionHostMsg_IncrementLazyKeepaliveCount_MetaNSt3__15tupleIJEEEvEC5ENS_7RoutingE) align 2 {
  %3 = getelementptr inbounds %"class.IPC::MessageT.238", %"class.IPC::MessageT.238"* %0, i64 0, i32 0
  tail call void @_ZN3IPC7MessageC2EijNS0_13PriorityValueE(%"class.IPC::Message"* %3, i32 %1, i32 459203, i32 2) #11
  %4 = getelementptr inbounds %"class.IPC::MessageT.238", %"class.IPC::MessageT.238"* %0, i64 0, i32 0, i32 0, i32 0
  store i32 (...)** bitcast (i8** getelementptr inbounds ({ [7 x i8*] }, { [7 x i8*] }* @_ZTVN3IPC8MessageTI49ExtensionHostMsg_IncrementLazyKeepaliveCount_MetaNSt3__15tupleIJEEEvEE, i64 0, inrange i32 0, i64 2) to i32 (...)**), i32 (...)*** %4, align 8
  ret void
}

; Function Attrs: nounwind ssp uwtable
define weak_odr hidden zeroext i1 @_ZN3IPC8MessageTI49ExtensionHostMsg_DecrementLazyKeepaliveCount_MetaNSt3__15tupleIJEEEvE4ReadEPKNS_7MessageEPS4_(%"class.IPC::Message"*, %"class.std::__1::tuple.237"*) local_unnamed_addr #0 comdat align 2 {
  %3 = alloca %"class.base::PickleIterator", align 8
  %4 = bitcast %"class.base::PickleIterator"* %3 to i8*
  call void @llvm.lifetime.start.p0i8(i64 24, i8* nonnull %4) #11
  %5 = getelementptr inbounds %"class.IPC::Message", %"class.IPC::Message"* %0, i64 0, i32 0
  %6 = bitcast %"class.base::PickleIterator"* %3 to i8*
  call void @llvm.memset.p0i8.i64(i8* nonnull align 8 %6, i8 -86, i64 24, i1 false)
  call void @_ZN4base14PickleIteratorC1ERKNS_6PickleE(%"class.base::PickleIterator"* nonnull %3, %"class.base::Pickle"* dereferenceable(40) %5) #11
  call void @llvm.lifetime.end.p0i8(i64 24, i8* nonnull %4) #11
  ret i1 true
}

; Function Attrs: nounwind ssp uwtable
define weak_odr hidden void @_ZN3IPC8MessageTI49ExtensionHostMsg_DecrementLazyKeepaliveCount_MetaNSt3__15tupleIJEEEvE3LogEPNS2_12basic_stringIcNS2_11char_traitsIcEENS2_9allocatorIcEEEEPKNS_7MessageESC_(%"class.std::__1::basic_string"*, %"class.IPC::Message"*, %"class.std::__1::basic_string"*) local_unnamed_addr #0 comdat align 2 {
  %4 = alloca %"class.base::PickleIterator", align 8
  %5 = icmp eq %"class.std::__1::basic_string"* %0, null
  br i1 %5, label %8, label %6

6:                                                ; preds = %3
  %7 = tail call dereferenceable(24) %"class.std::__1::basic_string"* @_ZNSt3__112basic_stringIcNS_11char_traitsIcEENS_9allocatorIcEEE17__assign_externalEPKcm(%"class.std::__1::basic_string"* nonnull %0, i8* getelementptr inbounds ([45 x i8], [45 x i8]* @_ZN49ExtensionHostMsg_DecrementLazyKeepaliveCount_Meta5kNameE, i64 0, i64 0), i64 44) #11
  br label %8

8:                                                ; preds = %6, %3
  %9 = icmp ne %"class.IPC::Message"* %1, null
  %10 = icmp ne %"class.std::__1::basic_string"* %2, null
  %11 = and i1 %9, %10
  br i1 %11, label %12, label %15

12:                                               ; preds = %8
  %13 = bitcast %"class.base::PickleIterator"* %4 to i8*
  call void @llvm.lifetime.start.p0i8(i64 24, i8* nonnull %13) #11
  %14 = getelementptr inbounds %"class.IPC::Message", %"class.IPC::Message"* %1, i64 0, i32 0
  call void @llvm.memset.p0i8.i64(i8* nonnull align 8 %13, i8 -86, i64 24, i1 false) #11
  call void @_ZN4base14PickleIteratorC1ERKNS_6PickleE(%"class.base::PickleIterator"* nonnull %4, %"class.base::Pickle"* dereferenceable(40) %14) #11
  call void @llvm.lifetime.end.p0i8(i64 24, i8* nonnull %13) #11
  br label %15

15:                                               ; preds = %8, %12
  ret void
}

; Function Attrs: nounwind ssp uwtable
define weak_odr hidden void @_ZN3IPC8MessageTI49ExtensionHostMsg_DecrementLazyKeepaliveCount_MetaNSt3__15tupleIJEEEvEC2ENS_7RoutingE(%"class.IPC::MessageT.239"*, i32) unnamed_addr #0 comdat($_ZN3IPC8MessageTI49ExtensionHostMsg_DecrementLazyKeepaliveCount_MetaNSt3__15tupleIJEEEvEC5ENS_7RoutingE) align 2 {
  %3 = getelementptr inbounds %"class.IPC::MessageT.239", %"class.IPC::MessageT.239"* %0, i64 0, i32 0
  tail call void @_ZN3IPC7MessageC2EijNS0_13PriorityValueE(%"class.IPC::Message"* %3, i32 %1, i32 459207, i32 2) #11
  %4 = getelementptr inbounds %"class.IPC::MessageT.239", %"class.IPC::MessageT.239"* %0, i64 0, i32 0, i32 0, i32 0
  store i32 (...)** bitcast (i8** getelementptr inbounds ({ [7 x i8*] }, { [7 x i8*] }* @_ZTVN3IPC8MessageTI49ExtensionHostMsg_DecrementLazyKeepaliveCount_MetaNSt3__15tupleIJEEEvEE, i64 0, inrange i32 0, i64 2) to i32 (...)**), i32 (...)*** %4, align 8
  ret void
}

; Function Attrs: nounwind ssp uwtable
define weak_odr hidden zeroext i1 @_ZN3IPC8MessageTI36ExtensionHostMsg_AppWindowReady_MetaNSt3__15tupleIJEEEvE4ReadEPKNS_7MessageEPS4_(%"class.IPC::Message"*, %"class.std::__1::tuple.237"*) local_unnamed_addr #0 comdat align 2 {
  %3 = alloca %"class.base::PickleIterator", align 8
  %4 = bitcast %"class.base::PickleIterator"* %3 to i8*
  call void @llvm.lifetime.start.p0i8(i64 24, i8* nonnull %4) #11
  %5 = getelementptr inbounds %"class.IPC::Message", %"class.IPC::Message"* %0, i64 0, i32 0
  %6 = bitcast %"class.base::PickleIterator"* %3 to i8*
  call void @llvm.memset.p0i8.i64(i8* nonnull align 8 %6, i8 -86, i64 24, i1 false)
  call void @_ZN4base14PickleIteratorC1ERKNS_6PickleE(%"class.base::PickleIterator"* nonnull %3, %"class.base::Pickle"* dereferenceable(40) %5) #11
  call void @llvm.lifetime.end.p0i8(i64 24, i8* nonnull %4) #11
  ret i1 true
}

; Function Attrs: nounwind ssp uwtable
define weak_odr hidden void @_ZN3IPC8MessageTI36ExtensionHostMsg_AppWindowReady_MetaNSt3__15tupleIJEEEvE3LogEPNS2_12basic_stringIcNS2_11char_traitsIcEENS2_9allocatorIcEEEEPKNS_7MessageESC_(%"class.std::__1::basic_string"*, %"class.IPC::Message"*, %"class.std::__1::basic_string"*) local_unnamed_addr #0 comdat align 2 {
  %4 = alloca %"class.base::PickleIterator", align 8
  %5 = icmp eq %"class.std::__1::basic_string"* %0, null
  br i1 %5, label %8, label %6

6:                                                ; preds = %3
  %7 = tail call dereferenceable(24) %"class.std::__1::basic_string"* @_ZNSt3__112basic_stringIcNS_11char_traitsIcEENS_9allocatorIcEEE17__assign_externalEPKcm(%"class.std::__1::basic_string"* nonnull %0, i8* getelementptr inbounds ([32 x i8], [32 x i8]* @_ZN36ExtensionHostMsg_AppWindowReady_Meta5kNameE, i64 0, i64 0), i64 31) #11
  br label %8

8:                                                ; preds = %6, %3
  %9 = icmp ne %"class.IPC::Message"* %1, null
  %10 = icmp ne %"class.std::__1::basic_string"* %2, null
  %11 = and i1 %9, %10
  br i1 %11, label %12, label %15

12:                                               ; preds = %8
  %13 = bitcast %"class.base::PickleIterator"* %4 to i8*
  call void @llvm.lifetime.start.p0i8(i64 24, i8* nonnull %13) #11
  %14 = getelementptr inbounds %"class.IPC::Message", %"class.IPC::Message"* %1, i64 0, i32 0
  call void @llvm.memset.p0i8.i64(i8* nonnull align 8 %13, i8 -86, i64 24, i1 false) #11
  call void @_ZN4base14PickleIteratorC1ERKNS_6PickleE(%"class.base::PickleIterator"* nonnull %4, %"class.base::Pickle"* dereferenceable(40) %14) #11
  call void @llvm.lifetime.end.p0i8(i64 24, i8* nonnull %13) #11
  br label %15

15:                                               ; preds = %8, %12
  ret void
}

; Function Attrs: nounwind ssp uwtable
define weak_odr hidden void @_ZN3IPC8MessageTI36ExtensionHostMsg_AppWindowReady_MetaNSt3__15tupleIJEEEvEC2ENS_7RoutingE(%"class.IPC::MessageT.240"*, i32) unnamed_addr #0 comdat($_ZN3IPC8MessageTI36ExtensionHostMsg_AppWindowReady_MetaNSt3__15tupleIJEEEvEC5ENS_7RoutingE) align 2 {
  %3 = getelementptr inbounds %"class.IPC::MessageT.240", %"class.IPC::MessageT.240"* %0, i64 0, i32 0
  tail call void @_ZN3IPC7MessageC2EijNS0_13PriorityValueE(%"class.IPC::Message"* %3, i32 %1, i32 459211, i32 2) #11
  %4 = getelementptr inbounds %"class.IPC::MessageT.240", %"class.IPC::MessageT.240"* %0, i64 0, i32 0, i32 0, i32 0
  store i32 (...)** bitcast (i8** getelementptr inbounds ({ [7 x i8*] }, { [7 x i8*] }* @_ZTVN3IPC8MessageTI36ExtensionHostMsg_AppWindowReady_MetaNSt3__15tupleIJEEEvEE, i64 0, inrange i32 0, i64 2) to i32 (...)**), i32 (...)*** %4, align 8
  ret void
}

; Function Attrs: nounwind ssp uwtable
define weak_odr hidden zeroext i1 @_ZN3IPC8MessageTI44ExtensionHostMsg_UpdateDraggableRegions_MetaNSt3__15tupleIJNS2_6vectorIN10extensions15DraggableRegionENS2_9allocatorIS6_EEEEEEEvE4ReadEPKNS_7MessageEPSA_(%"class.IPC::Message"*, %"class.std::__1::tuple.241"*) local_unnamed_addr #0 comdat align 2 {
  %3 = alloca %"class.base::PickleIterator", align 8
  %4 = bitcast %"class.base::PickleIterator"* %3 to i8*
  call void @llvm.lifetime.start.p0i8(i64 24, i8* nonnull %4) #11
  %5 = getelementptr inbounds %"class.IPC::Message", %"class.IPC::Message"* %0, i64 0, i32 0
  %6 = bitcast %"class.base::PickleIterator"* %3 to i8*
  call void @llvm.memset.p0i8.i64(i8* nonnull align 8 %6, i8 -86, i64 24, i1 false)
  call void @_ZN4base14PickleIteratorC1ERKNS_6PickleE(%"class.base::PickleIterator"* nonnull %3, %"class.base::Pickle"* dereferenceable(40) %5) #11
  %7 = getelementptr inbounds %"class.std::__1::tuple.241", %"class.std::__1::tuple.241"* %1, i64 0, i32 0, i32 0, i32 0
  %8 = call zeroext i1 @_ZN3IPC11ParamTraitsINSt3__16vectorIN10extensions15DraggableRegionENS1_9allocatorIS4_EEEEE4ReadEPKN4base6PickleEPNS9_14PickleIteratorEPS7_(%"class.base::Pickle"* %5, %"class.base::PickleIterator"* nonnull %3, %"class.std::__1::vector.244"* %7) #11
  call void @llvm.lifetime.end.p0i8(i64 24, i8* nonnull %4) #11
  ret i1 %8
}

; Function Attrs: nounwind ssp uwtable
define weak_odr hidden void @_ZN3IPC8MessageTI44ExtensionHostMsg_UpdateDraggableRegions_MetaNSt3__15tupleIJNS2_6vectorIN10extensions15DraggableRegionENS2_9allocatorIS6_EEEEEEEvE3LogEPNS2_12basic_stringIcNS2_11char_traitsIcEENS7_IcEEEEPKNS_7MessageESH_(%"class.std::__1::basic_string"*, %"class.IPC::Message"*, %"class.std::__1::basic_string"*) local_unnamed_addr #0 comdat align 2 {
  %4 = alloca %"class.base::PickleIterator", align 8
  %5 = alloca %"class.std::__1::tuple.241", align 8
  %6 = icmp eq %"class.std::__1::basic_string"* %0, null
  br i1 %6, label %9, label %7

7:                                                ; preds = %3
  %8 = tail call dereferenceable(24) %"class.std::__1::basic_string"* @_ZNSt3__112basic_stringIcNS_11char_traitsIcEENS_9allocatorIcEEE17__assign_externalEPKcm(%"class.std::__1::basic_string"* nonnull %0, i8* getelementptr inbounds ([40 x i8], [40 x i8]* @_ZN44ExtensionHostMsg_UpdateDraggableRegions_Meta5kNameE, i64 0, i64 0), i64 39) #11
  br label %9

9:                                                ; preds = %7, %3
  %10 = icmp ne %"class.IPC::Message"* %1, null
  %11 = icmp ne %"class.std::__1::basic_string"* %2, null
  %12 = and i1 %10, %11
  br i1 %12, label %13, label %30

13:                                               ; preds = %9
  %14 = bitcast %"class.std::__1::tuple.241"* %5 to i8*
  call void @llvm.lifetime.start.p0i8(i64 24, i8* nonnull %14) #11
  %15 = getelementptr inbounds %"class.std::__1::tuple.241", %"class.std::__1::tuple.241"* %5, i64 0, i32 0, i32 0, i32 0, i32 0, i32 0
  %16 = getelementptr inbounds %"class.std::__1::tuple.241", %"class.std::__1::tuple.241"* %5, i64 0, i32 0, i32 0, i32 0, i32 0, i32 1
  call void @llvm.memset.p0i8.i64(i8* nonnull align 8 %14, i8 0, i64 24, i1 false) #11
  %17 = bitcast %"class.base::PickleIterator"* %4 to i8*
  call void @llvm.lifetime.start.p0i8(i64 24, i8* nonnull %17) #11
  %18 = getelementptr inbounds %"class.IPC::Message", %"class.IPC::Message"* %1, i64 0, i32 0
  call void @llvm.memset.p0i8.i64(i8* nonnull align 8 %17, i8 -86, i64 24, i1 false) #11
  call void @_ZN4base14PickleIteratorC1ERKNS_6PickleE(%"class.base::PickleIterator"* nonnull %4, %"class.base::Pickle"* dereferenceable(40) %18) #11
  %19 = getelementptr inbounds %"class.std::__1::tuple.241", %"class.std::__1::tuple.241"* %5, i64 0, i32 0, i32 0, i32 0
  %20 = call zeroext i1 @_ZN3IPC11ParamTraitsINSt3__16vectorIN10extensions15DraggableRegionENS1_9allocatorIS4_EEEEE4ReadEPKN4base6PickleEPNS9_14PickleIteratorEPS7_(%"class.base::Pickle"* %18, %"class.base::PickleIterator"* nonnull %4, %"class.std::__1::vector.244"* nonnull %19) #11
  call void @llvm.lifetime.end.p0i8(i64 24, i8* nonnull %17) #11
  br i1 %20, label %21, label %22

21:                                               ; preds = %13
  call void @_ZN3IPC22TupleParamTraitsHelperINSt3__15tupleIJNS1_6vectorIN10extensions15DraggableRegionENS1_9allocatorIS5_EEEEEEELi0ELi1EE3LogERKS9_PNS1_12basic_stringIcNS1_11char_traitsIcEENS6_IcEEEE(%"class.std::__1::tuple.241"* nonnull dereferenceable(24) %5, %"class.std::__1::basic_string"* nonnull %2) #11
  br label %22

22:                                               ; preds = %21, %13
  %23 = load %"struct.extensions::DraggableRegion"*, %"struct.extensions::DraggableRegion"** %15, align 8
  %24 = icmp eq %"struct.extensions::DraggableRegion"* %23, null
  br i1 %24, label %29, label %25

25:                                               ; preds = %22
  %26 = ptrtoint %"struct.extensions::DraggableRegion"* %23 to i64
  %27 = bitcast %"struct.extensions::DraggableRegion"** %16 to i64*
  store i64 %26, i64* %27, align 8
  %28 = getelementptr inbounds %"struct.extensions::DraggableRegion", %"struct.extensions::DraggableRegion"* %23, i64 0, i32 0
  call void @_ZdlPv(i8* %28) #12
  br label %29

29:                                               ; preds = %22, %25
  call void @llvm.lifetime.end.p0i8(i64 24, i8* nonnull %14) #11
  br label %30

30:                                               ; preds = %9, %29
  ret void
}

; Function Attrs: nounwind ssp uwtable
define weak_odr hidden void @_ZN3IPC8MessageTI44ExtensionHostMsg_UpdateDraggableRegions_MetaNSt3__15tupleIJNS2_6vectorIN10extensions15DraggableRegionENS2_9allocatorIS6_EEEEEEEvEC2ENS_7RoutingERKS9_(%"class.IPC::MessageT.251"*, i32, %"class.std::__1::vector.244"* dereferenceable(24)) unnamed_addr #0 comdat($_ZN3IPC8MessageTI44ExtensionHostMsg_UpdateDraggableRegions_MetaNSt3__15tupleIJNS2_6vectorIN10extensions15DraggableRegionENS2_9allocatorIS6_EEEEEEEvEC5ENS_7RoutingERKS9_) align 2 {
  %4 = alloca i32, align 4
  %5 = alloca i32, align 4
  %6 = getelementptr inbounds %"class.IPC::MessageT.251", %"class.IPC::MessageT.251"* %0, i64 0, i32 0
  tail call void @_ZN3IPC7MessageC2EijNS0_13PriorityValueE(%"class.IPC::Message"* %6, i32 %1, i32 459215, i32 2) #11
  %7 = getelementptr inbounds %"class.IPC::MessageT.251", %"class.IPC::MessageT.251"* %0, i64 0, i32 0, i32 0, i32 0
  store i32 (...)** bitcast (i8** getelementptr inbounds ({ [7 x i8*] }, { [7 x i8*] }* @_ZTVN3IPC8MessageTI44ExtensionHostMsg_UpdateDraggableRegions_MetaNSt3__15tupleIJNS2_6vectorIN10extensions15DraggableRegionENS2_9allocatorIS6_EEEEEEEvEE, i64 0, inrange i32 0, i64 2) to i32 (...)**), i32 (...)*** %7, align 8
  %8 = getelementptr inbounds %"class.IPC::MessageT.251", %"class.IPC::MessageT.251"* %0, i64 0, i32 0, i32 0
  %9 = getelementptr inbounds %"class.std::__1::vector.244", %"class.std::__1::vector.244"* %2, i64 0, i32 0, i32 1
  %10 = bitcast %"struct.extensions::DraggableRegion"** %9 to i64*
  %11 = load i64, i64* %10, align 8
  %12 = bitcast %"class.std::__1::vector.244"* %2 to i64*
  %13 = load i64, i64* %12, align 8
  %14 = sub i64 %11, %13
  %15 = sdiv exact i64 %14, 20
  %16 = icmp ult i64 %15, 2147483648
  br i1 %16, label %18, label %17, !prof !9

17:                                               ; preds = %3
  tail call void @llvm.trap() #11
  unreachable

18:                                               ; preds = %3
  %19 = trunc i64 %15 to i32
  %20 = bitcast i32* %4 to i8*
  call void @llvm.lifetime.start.p0i8(i64 4, i8* nonnull %20) #11
  store i32 %19, i32* %4, align 4
  call void @_ZN4base6Pickle16WriteBytesStaticILm4EEEvPKv(%"class.base::Pickle"* %8, i8* nonnull %20) #11
  call void @llvm.lifetime.end.p0i8(i64 4, i8* nonnull %20) #11
  %21 = load i64, i64* %10, align 8
  %22 = load i64, i64* %12, align 8
  %23 = icmp eq i64 %21, %22
  br i1 %23, label %40, label %24

24:                                               ; preds = %18
  %25 = bitcast i32* %5 to i8*
  br label %26

26:                                               ; preds = %26, %24
  %27 = phi i64 [ %22, %24 ], [ %36, %26 ]
  %28 = phi i64 [ 0, %24 ], [ %34, %26 ]
  %29 = inttoptr i64 %27 to %"struct.extensions::DraggableRegion"*
  %30 = getelementptr inbounds %"struct.extensions::DraggableRegion", %"struct.extensions::DraggableRegion"* %29, i64 %28, i32 0
  %31 = load i8, i8* %30, align 1, !range !2
  %32 = zext i8 %31 to i32
  call void @llvm.lifetime.start.p0i8(i64 4, i8* nonnull %25) #11
  store i32 %32, i32* %5, align 4
  call void @_ZN4base6Pickle16WriteBytesStaticILm4EEEvPKv(%"class.base::Pickle"* %8, i8* nonnull %25) #11
  call void @llvm.lifetime.end.p0i8(i64 4, i8* nonnull %25) #11
  %33 = getelementptr inbounds %"struct.extensions::DraggableRegion", %"struct.extensions::DraggableRegion"* %29, i64 %28, i32 1
  call void @_ZN3IPC11ParamTraitsIN3gfx4RectEE5WriteEPN4base6PickleERKS2_(%"class.base::Pickle"* %8, %"class.gfx::Rect"* dereferenceable(16) %33) #11
  %34 = add nuw i64 %28, 1
  %35 = load i64, i64* %10, align 8
  %36 = load i64, i64* %12, align 8
  %37 = sub i64 %35, %36
  %38 = sdiv exact i64 %37, 20
  %39 = icmp ult i64 %34, %38
  br i1 %39, label %26, label %40

40:                                               ; preds = %26, %18
  ret void
}

; Function Attrs: nounwind ssp uwtable
define weak_odr hidden zeroext i1 @_ZN3IPC8MessageTI47ExtensionHostMsg_AddAPIActionToActivityLog_MetaNSt3__15tupleIJNS2_12basic_stringIcNS2_11char_traitsIcEENS2_9allocatorIcEEEE40ExtensionHostMsg_APIActionOrEvent_ParamsEEEvE4ReadEPKNS_7MessageEPSB_(%"class.IPC::Message"*, %"class.std::__1::tuple.255"*) local_unnamed_addr #0 comdat align 2 {
  %3 = alloca %"class.base::PickleIterator", align 8
  %4 = bitcast %"class.base::PickleIterator"* %3 to i8*
  call void @llvm.lifetime.start.p0i8(i64 24, i8* nonnull %4) #11
  %5 = getelementptr inbounds %"class.IPC::Message", %"class.IPC::Message"* %0, i64 0, i32 0
  %6 = bitcast %"class.base::PickleIterator"* %3 to i8*
  call void @llvm.memset.p0i8.i64(i8* nonnull align 8 %6, i8 -86, i64 24, i1 false)
  call void @_ZN4base14PickleIteratorC1ERKNS_6PickleE(%"class.base::PickleIterator"* nonnull %3, %"class.base::Pickle"* dereferenceable(40) %5) #11
  %7 = getelementptr inbounds %"class.std::__1::tuple.255", %"class.std::__1::tuple.255"* %1, i64 0, i32 0, i32 0, i32 0
  %8 = call zeroext i1 @_ZN4base14PickleIterator10ReadStringEPNSt3__112basic_stringIcNS1_11char_traitsIcEENS1_9allocatorIcEEEE(%"class.base::PickleIterator"* nonnull %3, %"class.std::__1::basic_string"* %7) #11
  br i1 %8, label %9, label %18

9:                                                ; preds = %2
  %10 = getelementptr inbounds %"class.std::__1::tuple.255", %"class.std::__1::tuple.255"* %1, i64 0, i32 0, i32 1, i32 0, i32 0
  %11 = call zeroext i1 @_ZN4base14PickleIterator10ReadStringEPNSt3__112basic_stringIcNS1_11char_traitsIcEENS1_9allocatorIcEEEE(%"class.base::PickleIterator"* nonnull %3, %"class.std::__1::basic_string"* %10) #11
  br i1 %11, label %12, label %18

12:                                               ; preds = %9
  %13 = getelementptr inbounds %"class.std::__1::tuple.255", %"class.std::__1::tuple.255"* %1, i64 0, i32 0, i32 1, i32 0, i32 1
  %14 = call zeroext i1 @_ZN3IPC11ParamTraitsIN4base9ListValueEE4ReadEPKNS1_6PickleEPNS1_14PickleIteratorEPS2_(%"class.base::Pickle"* %5, %"class.base::PickleIterator"* nonnull %3, %"class.base::ListValue"* %13) #11
  br i1 %14, label %15, label %18

15:                                               ; preds = %12
  %16 = getelementptr inbounds %"class.std::__1::tuple.255", %"class.std::__1::tuple.255"* %1, i64 0, i32 0, i32 1, i32 0, i32 2
  %17 = call zeroext i1 @_ZN4base14PickleIterator10ReadStringEPNSt3__112basic_stringIcNS1_11char_traitsIcEENS1_9allocatorIcEEEE(%"class.base::PickleIterator"* nonnull %3, %"class.std::__1::basic_string"* %16) #11
  br label %18

18:                                               ; preds = %2, %9, %12, %15
  %19 = phi i1 [ false, %2 ], [ %17, %15 ], [ false, %12 ], [ false, %9 ]
  call void @llvm.lifetime.end.p0i8(i64 24, i8* nonnull %4) #11
  ret i1 %19
}

; Function Attrs: nounwind ssp uwtable
define weak_odr hidden void @_ZN3IPC8MessageTI47ExtensionHostMsg_AddAPIActionToActivityLog_MetaNSt3__15tupleIJNS2_12basic_stringIcNS2_11char_traitsIcEENS2_9allocatorIcEEEE40ExtensionHostMsg_APIActionOrEvent_ParamsEEEvE3LogEPS9_PKNS_7MessageESD_(%"class.std::__1::basic_string"*, %"class.IPC::Message"*, %"class.std::__1::basic_string"*) local_unnamed_addr #0 comdat align 2 {
  %4 = alloca %"class.base::PickleIterator", align 8
  %5 = alloca %"class.std::__1::tuple.255", align 8
  %6 = icmp eq %"class.std::__1::basic_string"* %0, null
  br i1 %6, label %9, label %7

7:                                                ; preds = %3
  %8 = tail call dereferenceable(24) %"class.std::__1::basic_string"* @_ZNSt3__112basic_stringIcNS_11char_traitsIcEENS_9allocatorIcEEE17__assign_externalEPKcm(%"class.std::__1::basic_string"* nonnull %0, i8* getelementptr inbounds ([43 x i8], [43 x i8]* @_ZN47ExtensionHostMsg_AddAPIActionToActivityLog_Meta5kNameE, i64 0, i64 0), i64 42) #11
  br label %9

9:                                                ; preds = %7, %3
  %10 = icmp ne %"class.IPC::Message"* %1, null
  %11 = icmp ne %"class.std::__1::basic_string"* %2, null
  %12 = and i1 %10, %11
  br i1 %12, label %13, label %65

13:                                               ; preds = %9
  %14 = bitcast %"class.std::__1::tuple.255"* %5 to i8*
  call void @llvm.lifetime.start.p0i8(i64 104, i8* nonnull %14) #11
  %15 = getelementptr inbounds %"class.std::__1::tuple.255", %"class.std::__1::tuple.255"* %5, i64 0, i32 0, i32 1, i32 0, i32 1
  %16 = bitcast %"class.base::ListValue"* %15 to i8*
  call void @llvm.memset.p0i8.i64(i8* nonnull align 8 %16, i8 -86, i64 56, i1 false)
  %17 = getelementptr inbounds %"class.std::__1::tuple.255", %"class.std::__1::tuple.255"* %5, i64 0, i32 0, i32 1, i32 0, i32 1
  call void @llvm.memset.p0i8.i64(i8* nonnull align 8 %14, i8 0, i64 48, i1 false) #11
  call void @_ZN4base9ListValueC1Ev(%"class.base::ListValue"* %17) #11
  %18 = getelementptr inbounds %"class.std::__1::tuple.255", %"class.std::__1::tuple.255"* %5, i64 0, i32 0, i32 1, i32 0, i32 2
  %19 = bitcast %"class.std::__1::basic_string"* %18 to i8*
  call void @llvm.memset.p0i8.i64(i8* align 8 %19, i8 0, i64 24, i1 false) #11
  %20 = bitcast %"class.base::PickleIterator"* %4 to i8*
  call void @llvm.lifetime.start.p0i8(i64 24, i8* nonnull %20) #11
  %21 = getelementptr inbounds %"class.IPC::Message", %"class.IPC::Message"* %1, i64 0, i32 0
  call void @llvm.memset.p0i8.i64(i8* nonnull align 8 %20, i8 -86, i64 24, i1 false) #11
  call void @_ZN4base14PickleIteratorC1ERKNS_6PickleE(%"class.base::PickleIterator"* nonnull %4, %"class.base::Pickle"* dereferenceable(40) %21) #11
  %22 = getelementptr inbounds %"class.std::__1::tuple.255", %"class.std::__1::tuple.255"* %5, i64 0, i32 0, i32 0, i32 0
  %23 = call zeroext i1 @_ZN4base14PickleIterator10ReadStringEPNSt3__112basic_stringIcNS1_11char_traitsIcEENS1_9allocatorIcEEEE(%"class.base::PickleIterator"* nonnull %4, %"class.std::__1::basic_string"* nonnull %22) #11
  br i1 %23, label %24, label %29

24:                                               ; preds = %13
  %25 = getelementptr inbounds %"class.std::__1::tuple.255", %"class.std::__1::tuple.255"* %5, i64 0, i32 0, i32 1, i32 0, i32 0
  %26 = call zeroext i1 @_ZN4base14PickleIterator10ReadStringEPNSt3__112basic_stringIcNS1_11char_traitsIcEENS1_9allocatorIcEEEE(%"class.base::PickleIterator"* nonnull %4, %"class.std::__1::basic_string"* %25) #11
  br i1 %26, label %27, label %29

27:                                               ; preds = %24
  %28 = call zeroext i1 @_ZN3IPC11ParamTraitsIN4base9ListValueEE4ReadEPKNS1_6PickleEPNS1_14PickleIteratorEPS2_(%"class.base::Pickle"* %21, %"class.base::PickleIterator"* nonnull %4, %"class.base::ListValue"* %17) #11
  br i1 %28, label %30, label %29

29:                                               ; preds = %13, %27, %24
  call void @llvm.lifetime.end.p0i8(i64 24, i8* nonnull %20) #11
  br label %38

30:                                               ; preds = %27
  %31 = call zeroext i1 @_ZN4base14PickleIterator10ReadStringEPNSt3__112basic_stringIcNS1_11char_traitsIcEENS1_9allocatorIcEEEE(%"class.base::PickleIterator"* nonnull %4, %"class.std::__1::basic_string"* %18) #11
  call void @llvm.lifetime.end.p0i8(i64 24, i8* nonnull %20) #11
  br i1 %31, label %32, label %38

32:                                               ; preds = %30
  call void @_ZN3IPC11ParamTraitsINSt3__112basic_stringIcNS1_11char_traitsIcEENS1_9allocatorIcEEEEE3LogERKS7_PS7_(%"class.std::__1::basic_string"* nonnull dereferenceable(24) %22, %"class.std::__1::basic_string"* nonnull %2) #11
  %33 = call dereferenceable(24) %"class.std::__1::basic_string"* @_ZNSt3__112basic_stringIcNS_11char_traitsIcEENS_9allocatorIcEEE6appendEPKc(%"class.std::__1::basic_string"* nonnull %2, i8* getelementptr inbounds ([3 x i8], [3 x i8]* @.str.1, i64 0, i64 0)) #11
  %34 = call dereferenceable(24) %"class.std::__1::basic_string"* @_ZNSt3__112basic_stringIcNS_11char_traitsIcEENS_9allocatorIcEEE6appendEPKc(%"class.std::__1::basic_string"* nonnull %2, i8* getelementptr inbounds ([2 x i8], [2 x i8]* @.str, i64 0, i64 0)) #11
  call void @_ZN3IPC11ParamTraitsINSt3__112basic_stringIcNS1_11char_traitsIcEENS1_9allocatorIcEEEEE3LogERKS7_PS7_(%"class.std::__1::basic_string"* dereferenceable(24) %25, %"class.std::__1::basic_string"* nonnull %2) #11
  %35 = call dereferenceable(24) %"class.std::__1::basic_string"* @_ZNSt3__112basic_stringIcNS_11char_traitsIcEENS_9allocatorIcEEE6appendEPKc(%"class.std::__1::basic_string"* nonnull %2, i8* getelementptr inbounds ([3 x i8], [3 x i8]* @.str.1, i64 0, i64 0)) #11
  call void @_ZN3IPC11ParamTraitsIN4base9ListValueEE3LogERKS2_PNSt3__112basic_stringIcNS6_11char_traitsIcEENS6_9allocatorIcEEEE(%"class.base::ListValue"* dereferenceable(32) %17, %"class.std::__1::basic_string"* nonnull %2) #11
  %36 = call dereferenceable(24) %"class.std::__1::basic_string"* @_ZNSt3__112basic_stringIcNS_11char_traitsIcEENS_9allocatorIcEEE6appendEPKc(%"class.std::__1::basic_string"* nonnull %2, i8* getelementptr inbounds ([3 x i8], [3 x i8]* @.str.1, i64 0, i64 0)) #11
  call void @_ZN3IPC11ParamTraitsINSt3__112basic_stringIcNS1_11char_traitsIcEENS1_9allocatorIcEEEEE3LogERKS7_PS7_(%"class.std::__1::basic_string"* dereferenceable(24) %18, %"class.std::__1::basic_string"* nonnull %2) #11
  %37 = call dereferenceable(24) %"class.std::__1::basic_string"* @_ZNSt3__112basic_stringIcNS_11char_traitsIcEENS_9allocatorIcEEE6appendEPKc(%"class.std::__1::basic_string"* nonnull %2, i8* getelementptr inbounds ([2 x i8], [2 x i8]* @.str.2, i64 0, i64 0)) #11
  br label %38

38:                                               ; preds = %29, %32, %30
  %39 = getelementptr inbounds %"class.std::__1::tuple.255", %"class.std::__1::tuple.255"* %5, i64 0, i32 0, i32 1
  %40 = bitcast %"class.std::__1::basic_string"* %18 to %"struct.std::__1::basic_string<char, std::__1::char_traits<char>, std::__1::allocator<char> >::__short"*
  %41 = getelementptr inbounds %"struct.std::__1::basic_string<char, std::__1::char_traits<char>, std::__1::allocator<char> >::__short", %"struct.std::__1::basic_string<char, std::__1::char_traits<char>, std::__1::allocator<char> >::__short"* %40, i64 0, i32 1, i32 0
  %42 = load i8, i8* %41, align 1
  %43 = icmp slt i8 %42, 0
  br i1 %43, label %44, label %47

44:                                               ; preds = %38
  %45 = getelementptr inbounds %"class.std::__1::basic_string", %"class.std::__1::basic_string"* %18, i64 0, i32 0, i32 0, i32 0, i32 0, i32 0, i32 0
  %46 = load i8*, i8** %45, align 8
  call void @_ZdlPv(i8* %46) #12
  br label %47

47:                                               ; preds = %44, %38
  %48 = getelementptr inbounds %"class.std::__1::tuple.255", %"class.std::__1::tuple.255"* %5, i64 0, i32 0, i32 1, i32 0, i32 1, i32 0
  call void @_ZN4base5ValueD2Ev(%"class.base::Value"* %48) #11
  %49 = bitcast %"class.std::__1::__tuple_leaf.257"* %39 to %"struct.std::__1::basic_string<char, std::__1::char_traits<char>, std::__1::allocator<char> >::__short"*
  %50 = getelementptr inbounds %"struct.std::__1::basic_string<char, std::__1::char_traits<char>, std::__1::allocator<char> >::__short", %"struct.std::__1::basic_string<char, std::__1::char_traits<char>, std::__1::allocator<char> >::__short"* %49, i64 0, i32 1, i32 0
  %51 = load i8, i8* %50, align 1
  %52 = icmp slt i8 %51, 0
  br i1 %52, label %53, label %56

53:                                               ; preds = %47
  %54 = getelementptr inbounds %"class.std::__1::__tuple_leaf.257", %"class.std::__1::__tuple_leaf.257"* %39, i64 0, i32 0, i32 0, i32 0, i32 0, i32 0, i32 0, i32 0, i32 0
  %55 = load i8*, i8** %54, align 8
  call void @_ZdlPv(i8* %55) #12
  br label %56

56:                                               ; preds = %53, %47
  %57 = bitcast %"class.std::__1::tuple.255"* %5 to %"struct.std::__1::basic_string<char, std::__1::char_traits<char>, std::__1::allocator<char> >::__short"*
  %58 = getelementptr inbounds %"struct.std::__1::basic_string<char, std::__1::char_traits<char>, std::__1::allocator<char> >::__short", %"struct.std::__1::basic_string<char, std::__1::char_traits<char>, std::__1::allocator<char> >::__short"* %57, i64 0, i32 1, i32 0
  %59 = load i8, i8* %58, align 1
  %60 = icmp slt i8 %59, 0
  br i1 %60, label %61, label %64

61:                                               ; preds = %56
  %62 = getelementptr inbounds %"class.std::__1::tuple.255", %"class.std::__1::tuple.255"* %5, i64 0, i32 0, i32 0, i32 0, i32 0, i32 0, i32 0, i32 0, i32 0, i32 0
  %63 = load i8*, i8** %62, align 8
  call void @_ZdlPv(i8* %63) #12
  br label %64

64:                                               ; preds = %56, %61
  call void @llvm.lifetime.end.p0i8(i64 104, i8* nonnull %14) #11
  br label %65

65:                                               ; preds = %9, %64
  ret void
}

; Function Attrs: nounwind ssp uwtable
define weak_odr hidden void @_ZN3IPC8MessageTI47ExtensionHostMsg_AddAPIActionToActivityLog_MetaNSt3__15tupleIJNS2_12basic_stringIcNS2_11char_traitsIcEENS2_9allocatorIcEEEE40ExtensionHostMsg_APIActionOrEvent_ParamsEEEvEC2ENS_7RoutingERKS9_RKSA_(%"class.IPC::MessageT.258"*, i32, %"class.std::__1::basic_string"* dereferenceable(24), %struct.ExtensionHostMsg_APIActionOrEvent_Params* dereferenceable(80)) unnamed_addr #0 comdat($_ZN3IPC8MessageTI47ExtensionHostMsg_AddAPIActionToActivityLog_MetaNSt3__15tupleIJNS2_12basic_stringIcNS2_11char_traitsIcEENS2_9allocatorIcEEEE40ExtensionHostMsg_APIActionOrEvent_ParamsEEEvEC5ENS_7RoutingERKS9_RKSA_) align 2 {
  %5 = alloca %"class.base::BasicStringPiece", align 8
  %6 = alloca %"class.base::BasicStringPiece", align 8
  %7 = alloca %"class.base::BasicStringPiece", align 8
  %8 = getelementptr inbounds %"class.IPC::MessageT.258", %"class.IPC::MessageT.258"* %0, i64 0, i32 0
  tail call void @_ZN3IPC7MessageC2EijNS0_13PriorityValueE(%"class.IPC::Message"* %8, i32 %1, i32 459220, i32 2) #11
  %9 = getelementptr inbounds %"class.IPC::MessageT.258", %"class.IPC::MessageT.258"* %0, i64 0, i32 0, i32 0, i32 0
  store i32 (...)** bitcast (i8** getelementptr inbounds ({ [7 x i8*] }, { [7 x i8*] }* @_ZTVN3IPC8MessageTI47ExtensionHostMsg_AddAPIActionToActivityLog_MetaNSt3__15tupleIJNS2_12basic_stringIcNS2_11char_traitsIcEENS2_9allocatorIcEEEE40ExtensionHostMsg_APIActionOrEvent_ParamsEEEvEE, i64 0, inrange i32 0, i64 2) to i32 (...)**), i32 (...)*** %9, align 8
  %10 = getelementptr inbounds %"class.IPC::MessageT.258", %"class.IPC::MessageT.258"* %0, i64 0, i32 0, i32 0
  %11 = bitcast %"class.base::BasicStringPiece"* %5 to i8*
  call void @llvm.lifetime.start.p0i8(i64 16, i8* nonnull %11) #11
  %12 = getelementptr inbounds %"class.base::BasicStringPiece", %"class.base::BasicStringPiece"* %5, i64 0, i32 0
  %13 = bitcast %"class.std::__1::basic_string"* %2 to %"struct.std::__1::basic_string<char, std::__1::char_traits<char>, std::__1::allocator<char> >::__short"*
  %14 = getelementptr inbounds %"struct.std::__1::basic_string<char, std::__1::char_traits<char>, std::__1::allocator<char> >::__short", %"struct.std::__1::basic_string<char, std::__1::char_traits<char>, std::__1::allocator<char> >::__short"* %13, i64 0, i32 1, i32 0
  %15 = load i8, i8* %14, align 1
  %16 = icmp slt i8 %15, 0
  %17 = getelementptr inbounds %"class.std::__1::basic_string", %"class.std::__1::basic_string"* %2, i64 0, i32 0, i32 0, i32 0, i32 0, i32 0, i32 0
  %18 = load i8*, i8** %17, align 8
  %19 = bitcast %"class.std::__1::basic_string"* %2 to i8*
  %20 = select i1 %16, i8* %18, i8* %19
  store i8* %20, i8** %12, align 8
  %21 = getelementptr inbounds %"class.base::BasicStringPiece", %"class.base::BasicStringPiece"* %5, i64 0, i32 1
  %22 = getelementptr inbounds %"class.std::__1::basic_string", %"class.std::__1::basic_string"* %2, i64 0, i32 0, i32 0, i32 0, i32 0, i32 0, i32 1
  %23 = load i64, i64* %22, align 8
  %24 = zext i8 %15 to i64
  %25 = select i1 %16, i64 %23, i64 %24
  store i64 %25, i64* %21, align 8
  call void @_ZN4base6Pickle11WriteStringERKNS_16BasicStringPieceIcNSt3__111char_traitsIcEEEE(%"class.base::Pickle"* %10, %"class.base::BasicStringPiece"* nonnull dereferenceable(16) %5) #11
  call void @llvm.lifetime.end.p0i8(i64 16, i8* nonnull %11) #11
  %26 = bitcast %"class.base::BasicStringPiece"* %7 to i8*
  call void @llvm.lifetime.start.p0i8(i64 16, i8* nonnull %26) #11
  %27 = getelementptr inbounds %"class.base::BasicStringPiece", %"class.base::BasicStringPiece"* %7, i64 0, i32 0
  %28 = bitcast %struct.ExtensionHostMsg_APIActionOrEvent_Params* %3 to %"struct.std::__1::basic_string<char, std::__1::char_traits<char>, std::__1::allocator<char> >::__short"*
  %29 = getelementptr inbounds %"struct.std::__1::basic_string<char, std::__1::char_traits<char>, std::__1::allocator<char> >::__short", %"struct.std::__1::basic_string<char, std::__1::char_traits<char>, std::__1::allocator<char> >::__short"* %28, i64 0, i32 1, i32 0
  %30 = load i8, i8* %29, align 1
  %31 = icmp slt i8 %30, 0
  %32 = getelementptr inbounds %struct.ExtensionHostMsg_APIActionOrEvent_Params, %struct.ExtensionHostMsg_APIActionOrEvent_Params* %3, i64 0, i32 0, i32 0, i32 0, i32 0, i32 0, i32 0, i32 0
  %33 = load i8*, i8** %32, align 8
  %34 = bitcast %struct.ExtensionHostMsg_APIActionOrEvent_Params* %3 to i8*
  %35 = select i1 %31, i8* %33, i8* %34
  store i8* %35, i8** %27, align 8
  %36 = getelementptr inbounds %"class.base::BasicStringPiece", %"class.base::BasicStringPiece"* %7, i64 0, i32 1
  %37 = getelementptr inbounds %struct.ExtensionHostMsg_APIActionOrEvent_Params, %struct.ExtensionHostMsg_APIActionOrEvent_Params* %3, i64 0, i32 0, i32 0, i32 0, i32 0, i32 0, i32 0, i32 1
  %38 = load i64, i64* %37, align 8
  %39 = zext i8 %30 to i64
  %40 = select i1 %31, i64 %38, i64 %39
  store i64 %40, i64* %36, align 8
  call void @_ZN4base6Pickle11WriteStringERKNS_16BasicStringPieceIcNSt3__111char_traitsIcEEEE(%"class.base::Pickle"* %10, %"class.base::BasicStringPiece"* nonnull dereferenceable(16) %7) #11
  call void @llvm.lifetime.end.p0i8(i64 16, i8* nonnull %26) #11
  %41 = getelementptr inbounds %struct.ExtensionHostMsg_APIActionOrEvent_Params, %struct.ExtensionHostMsg_APIActionOrEvent_Params* %3, i64 0, i32 1
  call void @_ZN3IPC11ParamTraitsIN4base9ListValueEE5WriteEPNS1_6PickleERKS2_(%"class.base::Pickle"* %10, %"class.base::ListValue"* dereferenceable(32) %41) #11
  %42 = getelementptr inbounds %struct.ExtensionHostMsg_APIActionOrEvent_Params, %struct.ExtensionHostMsg_APIActionOrEvent_Params* %3, i64 0, i32 2
  %43 = bitcast %"class.base::BasicStringPiece"* %6 to i8*
  call void @llvm.lifetime.start.p0i8(i64 16, i8* nonnull %43) #11
  %44 = getelementptr inbounds %"class.base::BasicStringPiece", %"class.base::BasicStringPiece"* %6, i64 0, i32 0
  %45 = bitcast %"class.std::__1::basic_string"* %42 to %"struct.std::__1::basic_string<char, std::__1::char_traits<char>, std::__1::allocator<char> >::__short"*
  %46 = getelementptr inbounds %"struct.std::__1::basic_string<char, std::__1::char_traits<char>, std::__1::allocator<char> >::__short", %"struct.std::__1::basic_string<char, std::__1::char_traits<char>, std::__1::allocator<char> >::__short"* %45, i64 0, i32 1, i32 0
  %47 = load i8, i8* %46, align 1
  %48 = icmp slt i8 %47, 0
  %49 = getelementptr inbounds %"class.std::__1::basic_string", %"class.std::__1::basic_string"* %42, i64 0, i32 0, i32 0, i32 0, i32 0, i32 0, i32 0
  %50 = load i8*, i8** %49, align 8
  %51 = bitcast %"class.std::__1::basic_string"* %42 to i8*
  %52 = select i1 %48, i8* %50, i8* %51
  store i8* %52, i8** %44, align 8
  %53 = getelementptr inbounds %"class.base::BasicStringPiece", %"class.base::BasicStringPiece"* %6, i64 0, i32 1
  %54 = getelementptr inbounds %struct.ExtensionHostMsg_APIActionOrEvent_Params, %struct.ExtensionHostMsg_APIActionOrEvent_Params* %3, i64 0, i32 2, i32 0, i32 0, i32 0, i32 0, i32 0, i32 1
  %55 = load i64, i64* %54, align 8
  %56 = zext i8 %47 to i64
  %57 = select i1 %48, i64 %55, i64 %56
  store i64 %57, i64* %53, align 8
  call void @_ZN4base6Pickle11WriteStringERKNS_16BasicStringPieceIcNSt3__111char_traitsIcEEEE(%"class.base::Pickle"* %10, %"class.base::BasicStringPiece"* nonnull dereferenceable(16) %6) #11
  call void @llvm.lifetime.end.p0i8(i64 16, i8* nonnull %43) #11
  ret void
}

; Function Attrs: nounwind ssp uwtable
define weak_odr hidden zeroext i1 @_ZN3IPC8MessageTI43ExtensionHostMsg_AddEventToActivityLog_MetaNSt3__15tupleIJNS2_12basic_stringIcNS2_11char_traitsIcEENS2_9allocatorIcEEEE40ExtensionHostMsg_APIActionOrEvent_ParamsEEEvE4ReadEPKNS_7MessageEPSB_(%"class.IPC::Message"*, %"class.std::__1::tuple.255"*) local_unnamed_addr #0 comdat align 2 {
  %3 = alloca %"class.base::PickleIterator", align 8
  %4 = bitcast %"class.base::PickleIterator"* %3 to i8*
  call void @llvm.lifetime.start.p0i8(i64 24, i8* nonnull %4) #11
  %5 = getelementptr inbounds %"class.IPC::Message", %"class.IPC::Message"* %0, i64 0, i32 0
  %6 = bitcast %"class.base::PickleIterator"* %3 to i8*
  call void @llvm.memset.p0i8.i64(i8* nonnull align 8 %6, i8 -86, i64 24, i1 false)
  call void @_ZN4base14PickleIteratorC1ERKNS_6PickleE(%"class.base::PickleIterator"* nonnull %3, %"class.base::Pickle"* dereferenceable(40) %5) #11
  %7 = getelementptr inbounds %"class.std::__1::tuple.255", %"class.std::__1::tuple.255"* %1, i64 0, i32 0, i32 0, i32 0
  %8 = call zeroext i1 @_ZN4base14PickleIterator10ReadStringEPNSt3__112basic_stringIcNS1_11char_traitsIcEENS1_9allocatorIcEEEE(%"class.base::PickleIterator"* nonnull %3, %"class.std::__1::basic_string"* %7) #11
  br i1 %8, label %9, label %18

9:                                                ; preds = %2
  %10 = getelementptr inbounds %"class.std::__1::tuple.255", %"class.std::__1::tuple.255"* %1, i64 0, i32 0, i32 1, i32 0, i32 0
  %11 = call zeroext i1 @_ZN4base14PickleIterator10ReadStringEPNSt3__112basic_stringIcNS1_11char_traitsIcEENS1_9allocatorIcEEEE(%"class.base::PickleIterator"* nonnull %3, %"class.std::__1::basic_string"* %10) #11
  br i1 %11, label %12, label %18

12:                                               ; preds = %9
  %13 = getelementptr inbounds %"class.std::__1::tuple.255", %"class.std::__1::tuple.255"* %1, i64 0, i32 0, i32 1, i32 0, i32 1
  %14 = call zeroext i1 @_ZN3IPC11ParamTraitsIN4base9ListValueEE4ReadEPKNS1_6PickleEPNS1_14PickleIteratorEPS2_(%"class.base::Pickle"* %5, %"class.base::PickleIterator"* nonnull %3, %"class.base::ListValue"* %13) #11
  br i1 %14, label %15, label %18

15:                                               ; preds = %12
  %16 = getelementptr inbounds %"class.std::__1::tuple.255", %"class.std::__1::tuple.255"* %1, i64 0, i32 0, i32 1, i32 0, i32 2
  %17 = call zeroext i1 @_ZN4base14PickleIterator10ReadStringEPNSt3__112basic_stringIcNS1_11char_traitsIcEENS1_9allocatorIcEEEE(%"class.base::PickleIterator"* nonnull %3, %"class.std::__1::basic_string"* %16) #11
  br label %18

18:                                               ; preds = %2, %9, %12, %15
  %19 = phi i1 [ false, %2 ], [ %17, %15 ], [ false, %12 ], [ false, %9 ]
  call void @llvm.lifetime.end.p0i8(i64 24, i8* nonnull %4) #11
  ret i1 %19
}

; Function Attrs: nounwind ssp uwtable
define weak_odr hidden void @_ZN3IPC8MessageTI43ExtensionHostMsg_AddEventToActivityLog_MetaNSt3__15tupleIJNS2_12basic_stringIcNS2_11char_traitsIcEENS2_9allocatorIcEEEE40ExtensionHostMsg_APIActionOrEvent_ParamsEEEvE3LogEPS9_PKNS_7MessageESD_(%"class.std::__1::basic_string"*, %"class.IPC::Message"*, %"class.std::__1::basic_string"*) local_unnamed_addr #0 comdat align 2 {
  %4 = alloca %"class.base::PickleIterator", align 8
  %5 = alloca %"class.std::__1::tuple.255", align 8
  %6 = icmp eq %"class.std::__1::basic_string"* %0, null
  br i1 %6, label %9, label %7

7:                                                ; preds = %3
  %8 = tail call dereferenceable(24) %"class.std::__1::basic_string"* @_ZNSt3__112basic_stringIcNS_11char_traitsIcEENS_9allocatorIcEEE17__assign_externalEPKcm(%"class.std::__1::basic_string"* nonnull %0, i8* getelementptr inbounds ([39 x i8], [39 x i8]* @_ZN43ExtensionHostMsg_AddEventToActivityLog_Meta5kNameE, i64 0, i64 0), i64 38) #11
  br label %9

9:                                                ; preds = %7, %3
  %10 = icmp ne %"class.IPC::Message"* %1, null
  %11 = icmp ne %"class.std::__1::basic_string"* %2, null
  %12 = and i1 %10, %11
  br i1 %12, label %13, label %65

13:                                               ; preds = %9
  %14 = bitcast %"class.std::__1::tuple.255"* %5 to i8*
  call void @llvm.lifetime.start.p0i8(i64 104, i8* nonnull %14) #11
  %15 = getelementptr inbounds %"class.std::__1::tuple.255", %"class.std::__1::tuple.255"* %5, i64 0, i32 0, i32 1, i32 0, i32 1
  %16 = bitcast %"class.base::ListValue"* %15 to i8*
  call void @llvm.memset.p0i8.i64(i8* nonnull align 8 %16, i8 -86, i64 56, i1 false)
  %17 = getelementptr inbounds %"class.std::__1::tuple.255", %"class.std::__1::tuple.255"* %5, i64 0, i32 0, i32 1, i32 0, i32 1
  call void @llvm.memset.p0i8.i64(i8* nonnull align 8 %14, i8 0, i64 48, i1 false) #11
  call void @_ZN4base9ListValueC1Ev(%"class.base::ListValue"* %17) #11
  %18 = getelementptr inbounds %"class.std::__1::tuple.255", %"class.std::__1::tuple.255"* %5, i64 0, i32 0, i32 1, i32 0, i32 2
  %19 = bitcast %"class.std::__1::basic_string"* %18 to i8*
  call void @llvm.memset.p0i8.i64(i8* align 8 %19, i8 0, i64 24, i1 false) #11
  %20 = bitcast %"class.base::PickleIterator"* %4 to i8*
  call void @llvm.lifetime.start.p0i8(i64 24, i8* nonnull %20) #11
  %21 = getelementptr inbounds %"class.IPC::Message", %"class.IPC::Message"* %1, i64 0, i32 0
  call void @llvm.memset.p0i8.i64(i8* nonnull align 8 %20, i8 -86, i64 24, i1 false) #11
  call void @_ZN4base14PickleIteratorC1ERKNS_6PickleE(%"class.base::PickleIterator"* nonnull %4, %"class.base::Pickle"* dereferenceable(40) %21) #11
  %22 = getelementptr inbounds %"class.std::__1::tuple.255", %"class.std::__1::tuple.255"* %5, i64 0, i32 0, i32 0, i32 0
  %23 = call zeroext i1 @_ZN4base14PickleIterator10ReadStringEPNSt3__112basic_stringIcNS1_11char_traitsIcEENS1_9allocatorIcEEEE(%"class.base::PickleIterator"* nonnull %4, %"class.std::__1::basic_string"* nonnull %22) #11
  br i1 %23, label %24, label %29

24:                                               ; preds = %13
  %25 = getelementptr inbounds %"class.std::__1::tuple.255", %"class.std::__1::tuple.255"* %5, i64 0, i32 0, i32 1, i32 0, i32 0
  %26 = call zeroext i1 @_ZN4base14PickleIterator10ReadStringEPNSt3__112basic_stringIcNS1_11char_traitsIcEENS1_9allocatorIcEEEE(%"class.base::PickleIterator"* nonnull %4, %"class.std::__1::basic_string"* %25) #11
  br i1 %26, label %27, label %29

27:                                               ; preds = %24
  %28 = call zeroext i1 @_ZN3IPC11ParamTraitsIN4base9ListValueEE4ReadEPKNS1_6PickleEPNS1_14PickleIteratorEPS2_(%"class.base::Pickle"* %21, %"class.base::PickleIterator"* nonnull %4, %"class.base::ListValue"* %17) #11
  br i1 %28, label %30, label %29

29:                                               ; preds = %13, %27, %24
  call void @llvm.lifetime.end.p0i8(i64 24, i8* nonnull %20) #11
  br label %38

30:                                               ; preds = %27
  %31 = call zeroext i1 @_ZN4base14PickleIterator10ReadStringEPNSt3__112basic_stringIcNS1_11char_traitsIcEENS1_9allocatorIcEEEE(%"class.base::PickleIterator"* nonnull %4, %"class.std::__1::basic_string"* %18) #11
  call void @llvm.lifetime.end.p0i8(i64 24, i8* nonnull %20) #11
  br i1 %31, label %32, label %38

32:                                               ; preds = %30
  call void @_ZN3IPC11ParamTraitsINSt3__112basic_stringIcNS1_11char_traitsIcEENS1_9allocatorIcEEEEE3LogERKS7_PS7_(%"class.std::__1::basic_string"* nonnull dereferenceable(24) %22, %"class.std::__1::basic_string"* nonnull %2) #11
  %33 = call dereferenceable(24) %"class.std::__1::basic_string"* @_ZNSt3__112basic_stringIcNS_11char_traitsIcEENS_9allocatorIcEEE6appendEPKc(%"class.std::__1::basic_string"* nonnull %2, i8* getelementptr inbounds ([3 x i8], [3 x i8]* @.str.1, i64 0, i64 0)) #11
  %34 = call dereferenceable(24) %"class.std::__1::basic_string"* @_ZNSt3__112basic_stringIcNS_11char_traitsIcEENS_9allocatorIcEEE6appendEPKc(%"class.std::__1::basic_string"* nonnull %2, i8* getelementptr inbounds ([2 x i8], [2 x i8]* @.str, i64 0, i64 0)) #11
  call void @_ZN3IPC11ParamTraitsINSt3__112basic_stringIcNS1_11char_traitsIcEENS1_9allocatorIcEEEEE3LogERKS7_PS7_(%"class.std::__1::basic_string"* dereferenceable(24) %25, %"class.std::__1::basic_string"* nonnull %2) #11
  %35 = call dereferenceable(24) %"class.std::__1::basic_string"* @_ZNSt3__112basic_stringIcNS_11char_traitsIcEENS_9allocatorIcEEE6appendEPKc(%"class.std::__1::basic_string"* nonnull %2, i8* getelementptr inbounds ([3 x i8], [3 x i8]* @.str.1, i64 0, i64 0)) #11
  call void @_ZN3IPC11ParamTraitsIN4base9ListValueEE3LogERKS2_PNSt3__112basic_stringIcNS6_11char_traitsIcEENS6_9allocatorIcEEEE(%"class.base::ListValue"* dereferenceable(32) %17, %"class.std::__1::basic_string"* nonnull %2) #11
  %36 = call dereferenceable(24) %"class.std::__1::basic_string"* @_ZNSt3__112basic_stringIcNS_11char_traitsIcEENS_9allocatorIcEEE6appendEPKc(%"class.std::__1::basic_string"* nonnull %2, i8* getelementptr inbounds ([3 x i8], [3 x i8]* @.str.1, i64 0, i64 0)) #11
  call void @_ZN3IPC11ParamTraitsINSt3__112basic_stringIcNS1_11char_traitsIcEENS1_9allocatorIcEEEEE3LogERKS7_PS7_(%"class.std::__1::basic_string"* dereferenceable(24) %18, %"class.std::__1::basic_string"* nonnull %2) #11
  %37 = call dereferenceable(24) %"class.std::__1::basic_string"* @_ZNSt3__112basic_stringIcNS_11char_traitsIcEENS_9allocatorIcEEE6appendEPKc(%"class.std::__1::basic_string"* nonnull %2, i8* getelementptr inbounds ([2 x i8], [2 x i8]* @.str.2, i64 0, i64 0)) #11
  br label %38

38:                                               ; preds = %29, %32, %30
  %39 = getelementptr inbounds %"class.std::__1::tuple.255", %"class.std::__1::tuple.255"* %5, i64 0, i32 0, i32 1
  %40 = bitcast %"class.std::__1::basic_string"* %18 to %"struct.std::__1::basic_string<char, std::__1::char_traits<char>, std::__1::allocator<char> >::__short"*
  %41 = getelementptr inbounds %"struct.std::__1::basic_string<char, std::__1::char_traits<char>, std::__1::allocator<char> >::__short", %"struct.std::__1::basic_string<char, std::__1::char_traits<char>, std::__1::allocator<char> >::__short"* %40, i64 0, i32 1, i32 0
  %42 = load i8, i8* %41, align 1
  %43 = icmp slt i8 %42, 0
  br i1 %43, label %44, label %47

44:                                               ; preds = %38
  %45 = getelementptr inbounds %"class.std::__1::basic_string", %"class.std::__1::basic_string"* %18, i64 0, i32 0, i32 0, i32 0, i32 0, i32 0, i32 0
  %46 = load i8*, i8** %45, align 8
  call void @_ZdlPv(i8* %46) #12
  br label %47

47:                                               ; preds = %44, %38
  %48 = getelementptr inbounds %"class.std::__1::tuple.255", %"class.std::__1::tuple.255"* %5, i64 0, i32 0, i32 1, i32 0, i32 1, i32 0
  call void @_ZN4base5ValueD2Ev(%"class.base::Value"* %48) #11
  %49 = bitcast %"class.std::__1::__tuple_leaf.257"* %39 to %"struct.std::__1::basic_string<char, std::__1::char_traits<char>, std::__1::allocator<char> >::__short"*
  %50 = getelementptr inbounds %"struct.std::__1::basic_string<char, std::__1::char_traits<char>, std::__1::allocator<char> >::__short", %"struct.std::__1::basic_string<char, std::__1::char_traits<char>, std::__1::allocator<char> >::__short"* %49, i64 0, i32 1, i32 0
  %51 = load i8, i8* %50, align 1
  %52 = icmp slt i8 %51, 0
  br i1 %52, label %53, label %56

53:                                               ; preds = %47
  %54 = getelementptr inbounds %"class.std::__1::__tuple_leaf.257", %"class.std::__1::__tuple_leaf.257"* %39, i64 0, i32 0, i32 0, i32 0, i32 0, i32 0, i32 0, i32 0, i32 0
  %55 = load i8*, i8** %54, align 8
  call void @_ZdlPv(i8* %55) #12
  br label %56

56:                                               ; preds = %53, %47
  %57 = bitcast %"class.std::__1::tuple.255"* %5 to %"struct.std::__1::basic_string<char, std::__1::char_traits<char>, std::__1::allocator<char> >::__short"*
  %58 = getelementptr inbounds %"struct.std::__1::basic_string<char, std::__1::char_traits<char>, std::__1::allocator<char> >::__short", %"struct.std::__1::basic_string<char, std::__1::char_traits<char>, std::__1::allocator<char> >::__short"* %57, i64 0, i32 1, i32 0
  %59 = load i8, i8* %58, align 1
  %60 = icmp slt i8 %59, 0
  br i1 %60, label %61, label %64

61:                                               ; preds = %56
  %62 = getelementptr inbounds %"class.std::__1::tuple.255", %"class.std::__1::tuple.255"* %5, i64 0, i32 0, i32 0, i32 0, i32 0, i32 0, i32 0, i32 0, i32 0, i32 0
  %63 = load i8*, i8** %62, align 8
  call void @_ZdlPv(i8* %63) #12
  br label %64

64:                                               ; preds = %56, %61
  call void @llvm.lifetime.end.p0i8(i64 104, i8* nonnull %14) #11
  br label %65

65:                                               ; preds = %9, %64
  ret void
}

; Function Attrs: nounwind ssp uwtable
define weak_odr hidden void @_ZN3IPC8MessageTI43ExtensionHostMsg_AddEventToActivityLog_MetaNSt3__15tupleIJNS2_12basic_stringIcNS2_11char_traitsIcEENS2_9allocatorIcEEEE40ExtensionHostMsg_APIActionOrEvent_ParamsEEEvEC2ENS_7RoutingERKS9_RKSA_(%"class.IPC::MessageT.262"*, i32, %"class.std::__1::basic_string"* dereferenceable(24), %struct.ExtensionHostMsg_APIActionOrEvent_Params* dereferenceable(80)) unnamed_addr #0 comdat($_ZN3IPC8MessageTI43ExtensionHostMsg_AddEventToActivityLog_MetaNSt3__15tupleIJNS2_12basic_stringIcNS2_11char_traitsIcEENS2_9allocatorIcEEEE40ExtensionHostMsg_APIActionOrEvent_ParamsEEEvEC5ENS_7RoutingERKS9_RKSA_) align 2 {
  %5 = alloca %"class.base::BasicStringPiece", align 8
  %6 = alloca %"class.base::BasicStringPiece", align 8
  %7 = alloca %"class.base::BasicStringPiece", align 8
  %8 = getelementptr inbounds %"class.IPC::MessageT.262", %"class.IPC::MessageT.262"* %0, i64 0, i32 0
  tail call void @_ZN3IPC7MessageC2EijNS0_13PriorityValueE(%"class.IPC::Message"* %8, i32 %1, i32 459225, i32 2) #11
  %9 = getelementptr inbounds %"class.IPC::MessageT.262", %"class.IPC::MessageT.262"* %0, i64 0, i32 0, i32 0, i32 0
  store i32 (...)** bitcast (i8** getelementptr inbounds ({ [7 x i8*] }, { [7 x i8*] }* @_ZTVN3IPC8MessageTI43ExtensionHostMsg_AddEventToActivityLog_MetaNSt3__15tupleIJNS2_12basic_stringIcNS2_11char_traitsIcEENS2_9allocatorIcEEEE40ExtensionHostMsg_APIActionOrEvent_ParamsEEEvEE, i64 0, inrange i32 0, i64 2) to i32 (...)**), i32 (...)*** %9, align 8
  %10 = getelementptr inbounds %"class.IPC::MessageT.262", %"class.IPC::MessageT.262"* %0, i64 0, i32 0, i32 0
  %11 = bitcast %"class.base::BasicStringPiece"* %5 to i8*
  call void @llvm.lifetime.start.p0i8(i64 16, i8* nonnull %11) #11
  %12 = getelementptr inbounds %"class.base::BasicStringPiece", %"class.base::BasicStringPiece"* %5, i64 0, i32 0
  %13 = bitcast %"class.std::__1::basic_string"* %2 to %"struct.std::__1::basic_string<char, std::__1::char_traits<char>, std::__1::allocator<char> >::__short"*
  %14 = getelementptr inbounds %"struct.std::__1::basic_string<char, std::__1::char_traits<char>, std::__1::allocator<char> >::__short", %"struct.std::__1::basic_string<char, std::__1::char_traits<char>, std::__1::allocator<char> >::__short"* %13, i64 0, i32 1, i32 0
  %15 = load i8, i8* %14, align 1
  %16 = icmp slt i8 %15, 0
  %17 = getelementptr inbounds %"class.std::__1::basic_string", %"class.std::__1::basic_string"* %2, i64 0, i32 0, i32 0, i32 0, i32 0, i32 0, i32 0
  %18 = load i8*, i8** %17, align 8
  %19 = bitcast %"class.std::__1::basic_string"* %2 to i8*
  %20 = select i1 %16, i8* %18, i8* %19
  store i8* %20, i8** %12, align 8
  %21 = getelementptr inbounds %"class.base::BasicStringPiece", %"class.base::BasicStringPiece"* %5, i64 0, i32 1
  %22 = getelementptr inbounds %"class.std::__1::basic_string", %"class.std::__1::basic_string"* %2, i64 0, i32 0, i32 0, i32 0, i32 0, i32 0, i32 1
  %23 = load i64, i64* %22, align 8
  %24 = zext i8 %15 to i64
  %25 = select i1 %16, i64 %23, i64 %24
  store i64 %25, i64* %21, align 8
  call void @_ZN4base6Pickle11WriteStringERKNS_16BasicStringPieceIcNSt3__111char_traitsIcEEEE(%"class.base::Pickle"* %10, %"class.base::BasicStringPiece"* nonnull dereferenceable(16) %5) #11
  call void @llvm.lifetime.end.p0i8(i64 16, i8* nonnull %11) #11
  %26 = bitcast %"class.base::BasicStringPiece"* %7 to i8*
  call void @llvm.lifetime.start.p0i8(i64 16, i8* nonnull %26) #11
  %27 = getelementptr inbounds %"class.base::BasicStringPiece", %"class.base::BasicStringPiece"* %7, i64 0, i32 0
  %28 = bitcast %struct.ExtensionHostMsg_APIActionOrEvent_Params* %3 to %"struct.std::__1::basic_string<char, std::__1::char_traits<char>, std::__1::allocator<char> >::__short"*
  %29 = getelementptr inbounds %"struct.std::__1::basic_string<char, std::__1::char_traits<char>, std::__1::allocator<char> >::__short", %"struct.std::__1::basic_string<char, std::__1::char_traits<char>, std::__1::allocator<char> >::__short"* %28, i64 0, i32 1, i32 0
  %30 = load i8, i8* %29, align 1
  %31 = icmp slt i8 %30, 0
  %32 = getelementptr inbounds %struct.ExtensionHostMsg_APIActionOrEvent_Params, %struct.ExtensionHostMsg_APIActionOrEvent_Params* %3, i64 0, i32 0, i32 0, i32 0, i32 0, i32 0, i32 0, i32 0
  %33 = load i8*, i8** %32, align 8
  %34 = bitcast %struct.ExtensionHostMsg_APIActionOrEvent_Params* %3 to i8*
  %35 = select i1 %31, i8* %33, i8* %34
  store i8* %35, i8** %27, align 8
  %36 = getelementptr inbounds %"class.base::BasicStringPiece", %"class.base::BasicStringPiece"* %7, i64 0, i32 1
  %37 = getelementptr inbounds %struct.ExtensionHostMsg_APIActionOrEvent_Params, %struct.ExtensionHostMsg_APIActionOrEvent_Params* %3, i64 0, i32 0, i32 0, i32 0, i32 0, i32 0, i32 0, i32 1
  %38 = load i64, i64* %37, align 8
  %39 = zext i8 %30 to i64
  %40 = select i1 %31, i64 %38, i64 %39
  store i64 %40, i64* %36, align 8
  call void @_ZN4base6Pickle11WriteStringERKNS_16BasicStringPieceIcNSt3__111char_traitsIcEEEE(%"class.base::Pickle"* %10, %"class.base::BasicStringPiece"* nonnull dereferenceable(16) %7) #11
  call void @llvm.lifetime.end.p0i8(i64 16, i8* nonnull %26) #11
  %41 = getelementptr inbounds %struct.ExtensionHostMsg_APIActionOrEvent_Params, %struct.ExtensionHostMsg_APIActionOrEvent_Params* %3, i64 0, i32 1
  call void @_ZN3IPC11ParamTraitsIN4base9ListValueEE5WriteEPNS1_6PickleERKS2_(%"class.base::Pickle"* %10, %"class.base::ListValue"* dereferenceable(32) %41) #11
  %42 = getelementptr inbounds %struct.ExtensionHostMsg_APIActionOrEvent_Params, %struct.ExtensionHostMsg_APIActionOrEvent_Params* %3, i64 0, i32 2
  %43 = bitcast %"class.base::BasicStringPiece"* %6 to i8*
  call void @llvm.lifetime.start.p0i8(i64 16, i8* nonnull %43) #11
  %44 = getelementptr inbounds %"class.base::BasicStringPiece", %"class.base::BasicStringPiece"* %6, i64 0, i32 0
  %45 = bitcast %"class.std::__1::basic_string"* %42 to %"struct.std::__1::basic_string<char, std::__1::char_traits<char>, std::__1::allocator<char> >::__short"*
  %46 = getelementptr inbounds %"struct.std::__1::basic_string<char, std::__1::char_traits<char>, std::__1::allocator<char> >::__short", %"struct.std::__1::basic_string<char, std::__1::char_traits<char>, std::__1::allocator<char> >::__short"* %45, i64 0, i32 1, i32 0
  %47 = load i8, i8* %46, align 1
  %48 = icmp slt i8 %47, 0
  %49 = getelementptr inbounds %"class.std::__1::basic_string", %"class.std::__1::basic_string"* %42, i64 0, i32 0, i32 0, i32 0, i32 0, i32 0, i32 0
  %50 = load i8*, i8** %49, align 8
  %51 = bitcast %"class.std::__1::basic_string"* %42 to i8*
  %52 = select i1 %48, i8* %50, i8* %51
  store i8* %52, i8** %44, align 8
  %53 = getelementptr inbounds %"class.base::BasicStringPiece", %"class.base::BasicStringPiece"* %6, i64 0, i32 1
  %54 = getelementptr inbounds %struct.ExtensionHostMsg_APIActionOrEvent_Params, %struct.ExtensionHostMsg_APIActionOrEvent_Params* %3, i64 0, i32 2, i32 0, i32 0, i32 0, i32 0, i32 0, i32 1
  %55 = load i64, i64* %54, align 8
  %56 = zext i8 %47 to i64
  %57 = select i1 %48, i64 %55, i64 %56
  store i64 %57, i64* %53, align 8
  call void @_ZN4base6Pickle11WriteStringERKNS_16BasicStringPieceIcNSt3__111char_traitsIcEEEE(%"class.base::Pickle"* %10, %"class.base::BasicStringPiece"* nonnull dereferenceable(16) %6) #11
  call void @llvm.lifetime.end.p0i8(i64 16, i8* nonnull %43) #11
  ret void
}

; Function Attrs: nounwind ssp uwtable
define weak_odr hidden zeroext i1 @_ZN3IPC8MessageTI47ExtensionHostMsg_AddDOMActionToActivityLog_MetaNSt3__15tupleIJNS2_12basic_stringIcNS2_11char_traitsIcEENS2_9allocatorIcEEEE33ExtensionHostMsg_DOMAction_ParamsEEEvE4ReadEPKNS_7MessageEPSB_(%"class.IPC::Message"*, %"class.std::__1::tuple.263"*) local_unnamed_addr #0 comdat align 2 {
  %3 = alloca %"class.base::PickleIterator", align 8
  %4 = bitcast %"class.base::PickleIterator"* %3 to i8*
  call void @llvm.lifetime.start.p0i8(i64 24, i8* nonnull %4) #11
  %5 = getelementptr inbounds %"class.IPC::Message", %"class.IPC::Message"* %0, i64 0, i32 0
  %6 = bitcast %"class.base::PickleIterator"* %3 to i8*
  call void @llvm.memset.p0i8.i64(i8* nonnull align 8 %6, i8 -86, i64 24, i1 false)
  call void @_ZN4base14PickleIteratorC1ERKNS_6PickleE(%"class.base::PickleIterator"* nonnull %3, %"class.base::Pickle"* dereferenceable(40) %5) #11
  %7 = getelementptr inbounds %"class.std::__1::tuple.263", %"class.std::__1::tuple.263"* %1, i64 0, i32 0, i32 0, i32 0
  %8 = call zeroext i1 @_ZN4base14PickleIterator10ReadStringEPNSt3__112basic_stringIcNS1_11char_traitsIcEENS1_9allocatorIcEEEE(%"class.base::PickleIterator"* nonnull %3, %"class.std::__1::basic_string"* %7) #11
  br i1 %8, label %9, label %24

9:                                                ; preds = %2
  %10 = getelementptr inbounds %"class.std::__1::tuple.263", %"class.std::__1::tuple.263"* %1, i64 0, i32 0, i32 1, i32 0, i32 0
  %11 = call zeroext i1 @_ZN3IPC11ParamTraitsI4GURLE4ReadEPKN4base6PickleEPNS3_14PickleIteratorEPS1_(%"class.base::Pickle"* %5, %"class.base::PickleIterator"* nonnull %3, %class.GURL* %10) #11
  br i1 %11, label %12, label %24

12:                                               ; preds = %9
  %13 = getelementptr inbounds %"class.std::__1::tuple.263", %"class.std::__1::tuple.263"* %1, i64 0, i32 0, i32 1, i32 0, i32 1
  %14 = call zeroext i1 @_ZN4base14PickleIterator12ReadString16EPNSt3__112basic_stringIDsNS1_11char_traitsIDsEENS1_9allocatorIDsEEEE(%"class.base::PickleIterator"* nonnull %3, %"class.std::__1::basic_string.266"* %13) #11
  br i1 %14, label %15, label %24

15:                                               ; preds = %12
  %16 = getelementptr inbounds %"class.std::__1::tuple.263", %"class.std::__1::tuple.263"* %1, i64 0, i32 0, i32 1, i32 0, i32 2
  %17 = call zeroext i1 @_ZN4base14PickleIterator10ReadStringEPNSt3__112basic_stringIcNS1_11char_traitsIcEENS1_9allocatorIcEEEE(%"class.base::PickleIterator"* nonnull %3, %"class.std::__1::basic_string"* %16) #11
  br i1 %17, label %18, label %24

18:                                               ; preds = %15
  %19 = getelementptr inbounds %"class.std::__1::tuple.263", %"class.std::__1::tuple.263"* %1, i64 0, i32 0, i32 1, i32 0, i32 3
  %20 = call zeroext i1 @_ZN3IPC11ParamTraitsIN4base9ListValueEE4ReadEPKNS1_6PickleEPNS1_14PickleIteratorEPS2_(%"class.base::Pickle"* %5, %"class.base::PickleIterator"* nonnull %3, %"class.base::ListValue"* %19) #11
  br i1 %20, label %21, label %24

21:                                               ; preds = %18
  %22 = getelementptr inbounds %"class.std::__1::tuple.263", %"class.std::__1::tuple.263"* %1, i64 0, i32 0, i32 1, i32 0, i32 4
  %23 = call zeroext i1 @_ZN4base14PickleIterator7ReadIntEPi(%"class.base::PickleIterator"* nonnull %3, i32* %22) #11
  br label %24

24:                                               ; preds = %2, %9, %12, %15, %18, %21
  %25 = phi i1 [ false, %2 ], [ %23, %21 ], [ false, %18 ], [ false, %15 ], [ false, %12 ], [ false, %9 ]
  call void @llvm.lifetime.end.p0i8(i64 24, i8* nonnull %4) #11
  ret i1 %25
}

; Function Attrs: nounwind ssp uwtable
define weak_odr hidden void @_ZN3IPC8MessageTI47ExtensionHostMsg_AddDOMActionToActivityLog_MetaNSt3__15tupleIJNS2_12basic_stringIcNS2_11char_traitsIcEENS2_9allocatorIcEEEE33ExtensionHostMsg_DOMAction_ParamsEEEvE3LogEPS9_PKNS_7MessageESD_(%"class.std::__1::basic_string"*, %"class.IPC::Message"*, %"class.std::__1::basic_string"*) local_unnamed_addr #0 comdat align 2 {
  %4 = alloca %"class.std::__1::tuple.263", align 8
  %5 = icmp eq %"class.std::__1::basic_string"* %0, null
  br i1 %5, label %8, label %6

6:                                                ; preds = %3
  %7 = tail call dereferenceable(24) %"class.std::__1::basic_string"* @_ZNSt3__112basic_stringIcNS_11char_traitsIcEENS_9allocatorIcEEE17__assign_externalEPKcm(%"class.std::__1::basic_string"* nonnull %0, i8* getelementptr inbounds ([43 x i8], [43 x i8]* @_ZN47ExtensionHostMsg_AddDOMActionToActivityLog_Meta5kNameE, i64 0, i64 0), i64 42) #11
  br label %8

8:                                                ; preds = %6, %3
  %9 = icmp ne %"class.IPC::Message"* %1, null
  %10 = icmp ne %"class.std::__1::basic_string"* %2, null
  %11 = and i1 %9, %10
  br i1 %11, label %12, label %53

12:                                               ; preds = %8
  %13 = bitcast %"class.std::__1::tuple.263"* %4 to i8*
  call void @llvm.lifetime.start.p0i8(i64 232, i8* nonnull %13) #11
  %14 = getelementptr inbounds %"class.std::__1::tuple.263", %"class.std::__1::tuple.263"* %4, i64 0, i32 0, i32 1
  %15 = bitcast %"class.std::__1::__tuple_leaf.265"* %14 to i8*
  call void @llvm.memset.p0i8.i64(i8* nonnull align 8 %15, i8 -86, i64 208, i1 false)
  call void @llvm.memset.p0i8.i64(i8* nonnull align 8 %13, i8 0, i64 24, i1 false) #11
  %16 = getelementptr inbounds %"class.std::__1::tuple.263", %"class.std::__1::tuple.263"* %4, i64 0, i32 0, i32 1, i32 0, i32 0
  call void @_ZN4GURLC1Ev(%class.GURL* %16) #11
  %17 = getelementptr inbounds %"class.std::__1::tuple.263", %"class.std::__1::tuple.263"* %4, i64 0, i32 0, i32 1, i32 0, i32 1
  %18 = getelementptr inbounds %"class.std::__1::tuple.263", %"class.std::__1::tuple.263"* %4, i64 0, i32 0, i32 1, i32 0, i32 3
  %19 = bitcast %"class.std::__1::basic_string.266"* %17 to i8*
  call void @llvm.memset.p0i8.i64(i8* align 8 %19, i8 0, i64 48, i1 false) #11
  call void @_ZN4base9ListValueC1Ev(%"class.base::ListValue"* %18) #11
  %20 = getelementptr inbounds %"class.std::__1::tuple.263", %"class.std::__1::tuple.263"* %4, i64 0, i32 0, i32 1, i32 0, i32 4
  store i32 0, i32* %20, align 8
  %21 = call zeroext i1 @_ZN3IPC8MessageTI47ExtensionHostMsg_AddDOMActionToActivityLog_MetaNSt3__15tupleIJNS2_12basic_stringIcNS2_11char_traitsIcEENS2_9allocatorIcEEEE33ExtensionHostMsg_DOMAction_ParamsEEEvE4ReadEPKNS_7MessageEPSB_(%"class.IPC::Message"* nonnull %1, %"class.std::__1::tuple.263"* nonnull %4)
  br i1 %21, label %22, label %26

22:                                               ; preds = %12
  %23 = getelementptr inbounds %"class.std::__1::tuple.263", %"class.std::__1::tuple.263"* %4, i64 0, i32 0, i32 0, i32 0
  call void @_ZN3IPC11ParamTraitsINSt3__112basic_stringIcNS1_11char_traitsIcEENS1_9allocatorIcEEEEE3LogERKS7_PS7_(%"class.std::__1::basic_string"* nonnull dereferenceable(24) %23, %"class.std::__1::basic_string"* nonnull %2) #11
  %24 = call dereferenceable(24) %"class.std::__1::basic_string"* @_ZNSt3__112basic_stringIcNS_11char_traitsIcEENS_9allocatorIcEEE6appendEPKc(%"class.std::__1::basic_string"* nonnull %2, i8* getelementptr inbounds ([3 x i8], [3 x i8]* @.str.1, i64 0, i64 0)) #11
  %25 = getelementptr inbounds %"class.std::__1::tuple.263", %"class.std::__1::tuple.263"* %4, i64 0, i32 0, i32 1, i32 0
  call void @_ZN3IPC11ParamTraitsI33ExtensionHostMsg_DOMAction_ParamsE3LogERKS1_PNSt3__112basic_stringIcNS5_11char_traitsIcEENS5_9allocatorIcEEEE(%struct.ExtensionHostMsg_DOMAction_Params* dereferenceable(208) %25, %"class.std::__1::basic_string"* nonnull %2) #11
  br label %26

26:                                               ; preds = %22, %12
  %27 = getelementptr inbounds %"class.std::__1::tuple.263", %"class.std::__1::tuple.263"* %4, i64 0, i32 0, i32 1, i32 0, i32 3, i32 0
  call void @_ZN4base5ValueD2Ev(%"class.base::Value"* %27) #11
  %28 = getelementptr inbounds %"class.std::__1::tuple.263", %"class.std::__1::tuple.263"* %4, i64 0, i32 0, i32 1, i32 0, i32 2
  %29 = bitcast %"class.std::__1::basic_string"* %28 to %"struct.std::__1::basic_string<char, std::__1::char_traits<char>, std::__1::allocator<char> >::__short"*
  %30 = getelementptr inbounds %"struct.std::__1::basic_string<char, std::__1::char_traits<char>, std::__1::allocator<char> >::__short", %"struct.std::__1::basic_string<char, std::__1::char_traits<char>, std::__1::allocator<char> >::__short"* %29, i64 0, i32 1, i32 0
  %31 = load i8, i8* %30, align 1
  %32 = icmp slt i8 %31, 0
  br i1 %32, label %33, label %36

33:                                               ; preds = %26
  %34 = getelementptr inbounds %"class.std::__1::basic_string", %"class.std::__1::basic_string"* %28, i64 0, i32 0, i32 0, i32 0, i32 0, i32 0, i32 0
  %35 = load i8*, i8** %34, align 8
  call void @_ZdlPv(i8* %35) #12
  br label %36

36:                                               ; preds = %33, %26
  %37 = bitcast %"class.std::__1::basic_string.266"* %17 to %"struct.std::__1::basic_string<char16_t, std::__1::char_traits<char16_t>, std::__1::allocator<char16_t> >::__short"*
  %38 = getelementptr inbounds %"struct.std::__1::basic_string<char16_t, std::__1::char_traits<char16_t>, std::__1::allocator<char16_t> >::__short", %"struct.std::__1::basic_string<char16_t, std::__1::char_traits<char16_t>, std::__1::allocator<char16_t> >::__short"* %37, i64 0, i32 1, i32 1
  %39 = load i8, i8* %38, align 1
  %40 = icmp slt i8 %39, 0
  br i1 %40, label %41, label %44

41:                                               ; preds = %36
  %42 = bitcast %"class.std::__1::basic_string.266"* %17 to i8**
  %43 = load i8*, i8** %42, align 8
  call void @_ZdlPv(i8* %43) #12
  br label %44

44:                                               ; preds = %41, %36
  call void @_ZN4GURLD1Ev(%class.GURL* %16) #11
  %45 = bitcast %"class.std::__1::tuple.263"* %4 to %"struct.std::__1::basic_string<char, std::__1::char_traits<char>, std::__1::allocator<char> >::__short"*
  %46 = getelementptr inbounds %"struct.std::__1::basic_string<char, std::__1::char_traits<char>, std::__1::allocator<char> >::__short", %"struct.std::__1::basic_string<char, std::__1::char_traits<char>, std::__1::allocator<char> >::__short"* %45, i64 0, i32 1, i32 0
  %47 = load i8, i8* %46, align 1
  %48 = icmp slt i8 %47, 0
  br i1 %48, label %49, label %52

49:                                               ; preds = %44
  %50 = getelementptr inbounds %"class.std::__1::tuple.263", %"class.std::__1::tuple.263"* %4, i64 0, i32 0, i32 0, i32 0, i32 0, i32 0, i32 0, i32 0, i32 0, i32 0
  %51 = load i8*, i8** %50, align 8
  call void @_ZdlPv(i8* %51) #12
  br label %52

52:                                               ; preds = %44, %49
  call void @llvm.lifetime.end.p0i8(i64 232, i8* nonnull %13) #11
  br label %53

53:                                               ; preds = %8, %52
  ret void
}

; Function Attrs: nounwind ssp uwtable
define weak_odr hidden void @_ZN3IPC8MessageTI47ExtensionHostMsg_AddDOMActionToActivityLog_MetaNSt3__15tupleIJNS2_12basic_stringIcNS2_11char_traitsIcEENS2_9allocatorIcEEEE33ExtensionHostMsg_DOMAction_ParamsEEEvEC2ENS_7RoutingERKS9_RKSA_(%"class.IPC::MessageT.275"*, i32, %"class.std::__1::basic_string"* dereferenceable(24), %struct.ExtensionHostMsg_DOMAction_Params* dereferenceable(208)) unnamed_addr #0 comdat($_ZN3IPC8MessageTI47ExtensionHostMsg_AddDOMActionToActivityLog_MetaNSt3__15tupleIJNS2_12basic_stringIcNS2_11char_traitsIcEENS2_9allocatorIcEEEE33ExtensionHostMsg_DOMAction_ParamsEEEvEC5ENS_7RoutingERKS9_RKSA_) align 2 {
  %5 = alloca %"class.std::__1::tuple.276", align 8
  %6 = getelementptr inbounds %"class.IPC::MessageT.275", %"class.IPC::MessageT.275"* %0, i64 0, i32 0
  tail call void @_ZN3IPC7MessageC2EijNS0_13PriorityValueE(%"class.IPC::Message"* %6, i32 %1, i32 459230, i32 2) #11
  %7 = getelementptr inbounds %"class.IPC::MessageT.275", %"class.IPC::MessageT.275"* %0, i64 0, i32 0, i32 0, i32 0
  store i32 (...)** bitcast (i8** getelementptr inbounds ({ [7 x i8*] }, { [7 x i8*] }* @_ZTVN3IPC8MessageTI47ExtensionHostMsg_AddDOMActionToActivityLog_MetaNSt3__15tupleIJNS2_12basic_stringIcNS2_11char_traitsIcEENS2_9allocatorIcEEEE33ExtensionHostMsg_DOMAction_ParamsEEEvEE, i64 0, inrange i32 0, i64 2) to i32 (...)**), i32 (...)*** %7, align 8
  %8 = getelementptr inbounds %"class.IPC::MessageT.275", %"class.IPC::MessageT.275"* %0, i64 0, i32 0, i32 0
  %9 = bitcast %"class.std::__1::tuple.276"* %5 to i8*
  call void @llvm.lifetime.start.p0i8(i64 16, i8* nonnull %9) #11
  %10 = getelementptr inbounds %"class.std::__1::tuple.276", %"class.std::__1::tuple.276"* %5, i64 0, i32 0, i32 0, i32 0
  store %"class.std::__1::basic_string"* %2, %"class.std::__1::basic_string"** %10, align 8
  %11 = getelementptr inbounds %"class.std::__1::tuple.276", %"class.std::__1::tuple.276"* %5, i64 0, i32 0, i32 1, i32 0
  store %struct.ExtensionHostMsg_DOMAction_Params* %3, %struct.ExtensionHostMsg_DOMAction_Params** %11, align 8
  call void @_ZN3IPC22TupleParamTraitsHelperINSt3__15tupleIJRKNS1_12basic_stringIcNS1_11char_traitsIcEENS1_9allocatorIcEEEERK33ExtensionHostMsg_DOMAction_ParamsEEELi0ELi2EE5WriteEPN4base6PickleERKSE_(%"class.base::Pickle"* %8, %"class.std::__1::tuple.276"* nonnull dereferenceable(16) %5) #11
  call void @llvm.lifetime.end.p0i8(i64 16, i8* nonnull %9) #11
  ret void
}

; Function Attrs: nounwind ssp uwtable
define weak_odr hidden zeroext i1 @_ZN3IPC8MessageTI35ExtensionHostMsg_WakeEventPage_MetaNSt3__15tupleIJiNS2_12basic_stringIcNS2_11char_traitsIcEENS2_9allocatorIcEEEEEEEvE4ReadEPKNS_7MessageEPSA_(%"class.IPC::Message"*, %"class.std::__1::tuple.279"*) local_unnamed_addr #0 comdat align 2 {
  %3 = alloca %"class.base::PickleIterator", align 8
  %4 = bitcast %"class.base::PickleIterator"* %3 to i8*
  call void @llvm.lifetime.start.p0i8(i64 24, i8* nonnull %4) #11
  %5 = getelementptr inbounds %"class.IPC::Message", %"class.IPC::Message"* %0, i64 0, i32 0
  %6 = bitcast %"class.base::PickleIterator"* %3 to i8*
  call void @llvm.memset.p0i8.i64(i8* nonnull align 8 %6, i8 -86, i64 24, i1 false)
  call void @_ZN4base14PickleIteratorC1ERKNS_6PickleE(%"class.base::PickleIterator"* nonnull %3, %"class.base::Pickle"* dereferenceable(40) %5) #11
  %7 = getelementptr inbounds %"class.std::__1::tuple.279", %"class.std::__1::tuple.279"* %1, i64 0, i32 0, i32 0, i32 0
  %8 = call zeroext i1 @_ZN4base14PickleIterator7ReadIntEPi(%"class.base::PickleIterator"* nonnull %3, i32* %7) #11
  br i1 %8, label %9, label %12

9:                                                ; preds = %2
  %10 = getelementptr inbounds %"class.std::__1::tuple.279", %"class.std::__1::tuple.279"* %1, i64 0, i32 0, i32 1, i32 0
  %11 = call zeroext i1 @_ZN4base14PickleIterator10ReadStringEPNSt3__112basic_stringIcNS1_11char_traitsIcEENS1_9allocatorIcEEEE(%"class.base::PickleIterator"* nonnull %3, %"class.std::__1::basic_string"* %10) #11
  br label %12

12:                                               ; preds = %2, %9
  %13 = phi i1 [ false, %2 ], [ %11, %9 ]
  call void @llvm.lifetime.end.p0i8(i64 24, i8* nonnull %4) #11
  ret i1 %13
}

; Function Attrs: nounwind ssp uwtable
define weak_odr hidden void @_ZN3IPC8MessageTI35ExtensionHostMsg_WakeEventPage_MetaNSt3__15tupleIJiNS2_12basic_stringIcNS2_11char_traitsIcEENS2_9allocatorIcEEEEEEEvE3LogEPS9_PKNS_7MessageESC_(%"class.std::__1::basic_string"*, %"class.IPC::Message"*, %"class.std::__1::basic_string"*) local_unnamed_addr #0 comdat align 2 {
  %4 = alloca %"class.base::PickleIterator", align 8
  %5 = alloca %"class.std::__1::tuple.279", align 8
  %6 = icmp eq %"class.std::__1::basic_string"* %0, null
  br i1 %6, label %9, label %7

7:                                                ; preds = %3
  %8 = tail call dereferenceable(24) %"class.std::__1::basic_string"* @_ZNSt3__112basic_stringIcNS_11char_traitsIcEENS_9allocatorIcEEE17__assign_externalEPKcm(%"class.std::__1::basic_string"* nonnull %0, i8* getelementptr inbounds ([31 x i8], [31 x i8]* @_ZN35ExtensionHostMsg_WakeEventPage_Meta5kNameE, i64 0, i64 0), i64 30) #11
  br label %9

9:                                                ; preds = %7, %3
  %10 = icmp ne %"class.IPC::Message"* %1, null
  %11 = icmp ne %"class.std::__1::basic_string"* %2, null
  %12 = and i1 %10, %11
  br i1 %12, label %13, label %37

13:                                               ; preds = %9
  %14 = bitcast %"class.std::__1::tuple.279"* %5 to i8*
  call void @llvm.lifetime.start.p0i8(i64 32, i8* nonnull %14) #11
  %15 = bitcast %"class.std::__1::tuple.279"* %5 to i64*
  store i64 -6148914691236517206, i64* %15, align 8
  %16 = getelementptr inbounds %"class.std::__1::tuple.279", %"class.std::__1::tuple.279"* %5, i64 0, i32 0, i32 0, i32 0
  store i32 0, i32* %16, align 8
  %17 = getelementptr inbounds %"class.std::__1::tuple.279", %"class.std::__1::tuple.279"* %5, i64 0, i32 0, i32 1
  %18 = bitcast %"class.std::__1::__tuple_leaf.109"* %17 to i8*
  call void @llvm.memset.p0i8.i64(i8* align 8 %18, i8 0, i64 24, i1 false) #11
  %19 = bitcast %"class.base::PickleIterator"* %4 to i8*
  call void @llvm.lifetime.start.p0i8(i64 24, i8* nonnull %19) #11
  %20 = getelementptr inbounds %"class.IPC::Message", %"class.IPC::Message"* %1, i64 0, i32 0
  call void @llvm.memset.p0i8.i64(i8* nonnull align 8 %19, i8 -86, i64 24, i1 false) #11
  call void @_ZN4base14PickleIteratorC1ERKNS_6PickleE(%"class.base::PickleIterator"* nonnull %4, %"class.base::Pickle"* dereferenceable(40) %20) #11
  %21 = call zeroext i1 @_ZN4base14PickleIterator7ReadIntEPi(%"class.base::PickleIterator"* nonnull %4, i32* nonnull %16) #11
  br i1 %21, label %23, label %22

22:                                               ; preds = %13
  call void @llvm.lifetime.end.p0i8(i64 24, i8* nonnull %19) #11
  br label %28

23:                                               ; preds = %13
  %24 = getelementptr inbounds %"class.std::__1::tuple.279", %"class.std::__1::tuple.279"* %5, i64 0, i32 0, i32 1, i32 0
  %25 = call zeroext i1 @_ZN4base14PickleIterator10ReadStringEPNSt3__112basic_stringIcNS1_11char_traitsIcEENS1_9allocatorIcEEEE(%"class.base::PickleIterator"* nonnull %4, %"class.std::__1::basic_string"* %24) #11
  call void @llvm.lifetime.end.p0i8(i64 24, i8* nonnull %19) #11
  br i1 %25, label %26, label %28

26:                                               ; preds = %23
  call void @_ZN3IPC11ParamTraitsIiE3LogERKiPNSt3__112basic_stringIcNS4_11char_traitsIcEENS4_9allocatorIcEEEE(i32* nonnull dereferenceable(4) %16, %"class.std::__1::basic_string"* nonnull %2) #11
  %27 = call dereferenceable(24) %"class.std::__1::basic_string"* @_ZNSt3__112basic_stringIcNS_11char_traitsIcEENS_9allocatorIcEEE6appendEPKc(%"class.std::__1::basic_string"* nonnull %2, i8* getelementptr inbounds ([3 x i8], [3 x i8]* @.str.1, i64 0, i64 0)) #11
  call void @_ZN3IPC11ParamTraitsINSt3__112basic_stringIcNS1_11char_traitsIcEENS1_9allocatorIcEEEEE3LogERKS7_PS7_(%"class.std::__1::basic_string"* dereferenceable(24) %24, %"class.std::__1::basic_string"* nonnull %2) #11
  br label %28

28:                                               ; preds = %22, %26, %23
  %29 = bitcast %"class.std::__1::__tuple_leaf.109"* %17 to %"struct.std::__1::basic_string<char, std::__1::char_traits<char>, std::__1::allocator<char> >::__short"*
