; ModuleID = '../../chrome/common/extensions/extension_constants.cc'
source_filename = "../../chrome/common/extensions/extension_constants.cc"
target datalayout = "e-m:e-i64:64-f80:128-n8:16:32:64-S128"
target triple = "x86_64-unknown-linux-gnu"

@_ZN14extension_urls20kWebstoreSourceFieldE = hidden local_unnamed_addr constant [11 x i8] c"utm_source\00", align 1
@_ZN14extension_urls20kLaunchSourceAppListE = hidden local_unnamed_addr constant [20 x i8] c"chrome-app-launcher\00", align 16
@_ZN14extension_urls26kLaunchSourceAppListSearchE = hidden local_unnamed_addr constant [27 x i8] c"chrome-app-launcher-search\00", align 16
@_ZN14extension_urls30kLaunchSourceAppListInfoDialogE = hidden local_unnamed_addr constant [32 x i8] c"chrome-app-launcher-info-dialog\00", align 16
@_ZN14extension_misc14kCalendarAppIdE = hidden constant [33 x i8] c"ejjicmeblgpmajnghnpcppodonldlgfn\00", align 16
@_ZN14extension_misc16kCloudPrintAppIdE = hidden constant [33 x i8] c"mfehgcgbbipciphmccgaenjidiccnmng\00", align 16
@_ZN14extension_misc21kDataSaverExtensionIdE = hidden constant [33 x i8] c"pfmgfdlgomnbgkofeojodiodmgpgmkac\00", align 16
@_ZN14extension_misc23kDocsOfflineExtensionIdE = hidden constant [33 x i8] c"ghbmnnjooekpmoecnnnilnnbdlolhkhi\00", align 16
@_ZN14extension_misc17kDriveHostedAppIdE = hidden constant [33 x i8] c"apdfllckaahabafndbhieahigkjlhalf\00", align 16
@_ZN14extension_misc24kEnterpriseWebStoreAppIdE = hidden constant [33 x i8] c"afchcafgojfnemjkcbhfekplkmjaldaa\00", align 16
@_ZN14extension_misc11kGmailAppIdE = hidden constant [33 x i8] c"pjkljhegncpnkpknbcohdijeoejaedia\00", align 16
@_ZN14extension_misc15kGoogleDocAppIdE = hidden constant [33 x i8] c"aohghmighlieiainnegkcijnfilokake\00", align 16
@_ZN14extension_misc16kGoogleMapsAppIdE = hidden constant [33 x i8] c"lneaknkopdijkpnocmklfnjbeapigfbh\00", align 16
@_ZN14extension_misc18kGooglePhotosAppIdE = hidden constant [33 x i8] c"hcglmfcclpfgljeaiahehebeoaiicbko\00", align 16
@_ZN14extension_misc21kGooglePlayBooksAppIdE = hidden constant [33 x i8] c"mmimngoggfoobjdlefbcabngfnmieonb\00", align 16
@_ZN14extension_misc22kGooglePlayMoviesAppIdE = hidden constant [33 x i8] c"gdijeikdkaembjbdobgfkoidjkpbmlkd\00", align 16
@_ZN14extension_misc21kGooglePlayMusicAppIdE = hidden constant [33 x i8] c"icppfcnhkcmnfdhfhphakoifcfokfdhg\00", align 16
@_ZN14extension_misc16kGooglePlusAppIdE = hidden constant [33 x i8] c"dlppkpafhbajpcmmoheippocdidnckmm\00", align 16
@_ZN14extension_misc18kGoogleSheetsAppIdE = hidden constant [33 x i8] c"felcaaldnbdncclmgdcncolpebgiejap\00", align 16
@_ZN14extension_misc18kGoogleSlidesAppIdE = hidden constant [33 x i8] c"aapocclcgogkmnckokdopfmhonfmgoek\00", align 16
@_ZN14extension_misc19kIdentityApiUiAppIdE = hidden constant [33 x i8] c"ahjaciijnoiaklcomgnblndopackapon\00", align 16
@_ZN14extension_misc16kTextEditorAppIdE = hidden constant [33 x i8] c"mmfbcljfglbokpmkimbfghdkjmjhdgbg\00", align 16
@_ZN14extension_misc26kInAppPaymentsSupportAppIdE = hidden constant [33 x i8] c"nmmhkkegccagdldgiimedpiccmgmieda\00", align 16
@_ZN14extension_misc16kCalculatorAppIdE = external constant [0 x i8], align 1
@_ZN14extension_misc23kCastExtensionIdReleaseE = external constant [0 x i8], align 1
@_ZN14extension_misc30kBuiltInFirstPartyExtensionIdsE = hidden local_unnamed_addr constant [22 x i8*] [i8* getelementptr inbounds ([0 x i8], [0 x i8]* @_ZN14extension_misc16kCalculatorAppIdE, i32 0, i32 0), i8* getelementptr inbounds ([33 x i8], [33 x i8]* @_ZN14extension_misc14kCalendarAppIdE, i32 0, i32 0), i8* getelementptr inbounds ([33 x i8], [33 x i8]* @_ZN14extension_misc16kCloudPrintAppIdE, i32 0, i32 0), i8* getelementptr inbounds ([33 x i8], [33 x i8]* @_ZN14extension_misc21kDataSaverExtensionIdE, i32 0, i32 0), i8* getelementptr inbounds ([33 x i8], [33 x i8]* @_ZN14extension_misc23kDocsOfflineExtensionIdE, i32 0, i32 0), i8* getelementptr inbounds ([33 x i8], [33 x i8]* @_ZN14extension_misc17kDriveHostedAppIdE, i32 0, i32 0), i8* getelementptr inbounds ([33 x i8], [33 x i8]* @_ZN14extension_misc24kEnterpriseWebStoreAppIdE, i32 0, i32 0), i8* getelementptr inbounds ([33 x i8], [33 x i8]* @_ZN14extension_misc11kGmailAppIdE, i32 0, i32 0), i8* getelementptr inbounds ([33 x i8], [33 x i8]* @_ZN14extension_misc15kGoogleDocAppIdE, i32 0, i32 0), i8* getelementptr inbounds ([33 x i8], [33 x i8]* @_ZN14extension_misc16kGoogleMapsAppIdE, i32 0, i32 0), i8* getelementptr inbounds ([33 x i8], [33 x i8]* @_ZN14extension_misc18kGooglePhotosAppIdE, i32 0, i32 0), i8* getelementptr inbounds ([33 x i8], [33 x i8]* @_ZN14extension_misc21kGooglePlayBooksAppIdE, i32 0, i32 0), i8* getelementptr inbounds ([33 x i8], [33 x i8]* @_ZN14extension_misc22kGooglePlayMoviesAppIdE, i32 0, i32 0), i8* getelementptr inbounds ([33 x i8], [33 x i8]* @_ZN14extension_misc21kGooglePlayMusicAppIdE, i32 0, i32 0), i8* getelementptr inbounds ([33 x i8], [33 x i8]* @_ZN14extension_misc16kGooglePlusAppIdE, i32 0, i32 0), i8* getelementptr inbounds ([33 x i8], [33 x i8]* @_ZN14extension_misc18kGoogleSheetsAppIdE, i32 0, i32 0), i8* getelementptr inbounds ([33 x i8], [33 x i8]* @_ZN14extension_misc18kGoogleSlidesAppIdE, i32 0, i32 0), i8* getelementptr inbounds ([33 x i8], [33 x i8]* @_ZN14extension_misc19kIdentityApiUiAppIdE, i32 0, i32 0), i8* getelementptr inbounds ([33 x i8], [33 x i8]* @_ZN14extension_misc16kTextEditorAppIdE, i32 0, i32 0), i8* getelementptr inbounds ([33 x i8], [33 x i8]* @_ZN14extension_misc26kInAppPaymentsSupportAppIdE, i32 0, i32 0), i8* getelementptr inbounds ([0 x i8], [0 x i8]* @_ZN14extension_misc23kCastExtensionIdReleaseE, i32 0, i32 0), i8* null], align 16
@_ZN14extension_misc21kAppStateNotInstalledE = hidden local_unnamed_addr constant [14 x i8] c"not_installed\00", align 1
@_ZN14extension_misc18kAppStateInstalledE = hidden local_unnamed_addr constant [10 x i8] c"installed\00", align 1
@_ZN14extension_misc17kAppStateDisabledE = hidden local_unnamed_addr constant [9 x i8] c"disabled\00", align 1
@_ZN14extension_misc16kAppStateRunningE = hidden local_unnamed_addr constant [8 x i8] c"running\00", align 1
@_ZN14extension_misc18kAppStateCannotRunE = hidden local_unnamed_addr constant [11 x i8] c"cannot_run\00", align 1
@_ZN14extension_misc19kAppStateReadyToRunE = hidden local_unnamed_addr constant [13 x i8] c"ready_to_run\00", align 1
@_ZN14extension_misc24kMediaFileSystemPathPartE = hidden local_unnamed_addr constant [2 x i8] c"_\00", align 1
@_ZN14extension_misc26kExtensionRequestTimestampE = hidden local_unnamed_addr constant [10 x i8] c"timestamp\00", align 1

!llvm.module.flags = !{!0, !1}

!0 = !{i32 1, !"wchar_size", i32 4}
!1 = !{i32 7, !"PIC Level", i32 2}
