; ModuleID = 'gen/third_party/blink/public/mojom/fetch/fetch_api_request.mojom.cc'
source_filename = "gen/third_party/blink/public/mojom/fetch/fetch_api_request.mojom.cc"
target datalayout = "e-m:e-i64:64-f80:128-n8:16:32:64-S128"
target triple = "x86_64-unknown-linux-gnu"

module asm ".symver exp, exp@GLIBC_2.2.5"
module asm ".symver exp2, exp2@GLIBC_2.2.5"
module asm ".symver exp2f, exp2f@GLIBC_2.2.5"
module asm ".symver expf, expf@GLIBC_2.2.5"
module asm ".symver lgamma, lgamma@GLIBC_2.2.5"
module asm ".symver lgammaf, lgammaf@GLIBC_2.2.5"
module asm ".symver lgammal, lgammal@GLIBC_2.2.5"
module asm ".symver log, log@GLIBC_2.2.5"
module asm ".symver log2, log2@GLIBC_2.2.5"
module asm ".symver log2f, log2f@GLIBC_2.2.5"
module asm ".symver logf, logf@GLIBC_2.2.5"
module asm ".symver pow, pow@GLIBC_2.2.5"
module asm ".symver powf, powf@GLIBC_2.2.5"

%"class.blink::mojom::FetchAPIRequestHeaders" = type { %"class.base::flat_map" }
%"class.base::flat_map" = type { %"class.base::internal::flat_tree" }
%"class.base::internal::flat_tree" = type { %"class.std::__1::vector" }
%"class.std::__1::vector" = type { %"class.std::__1::__vector_base" }
%"class.std::__1::__vector_base" = type { %"struct.std::__1::pair"*, %"struct.std::__1::pair"*, %"class.std::__1::__compressed_pair.1" }
%"struct.std::__1::pair" = type { %"class.std::__1::basic_string", %"class.std::__1::basic_string" }
%"class.std::__1::basic_string" = type { %"class.std::__1::__compressed_pair" }
%"class.std::__1::__compressed_pair" = type { %"struct.std::__1::__compressed_pair_elem" }
%"struct.std::__1::__compressed_pair_elem" = type { %"struct.std::__1::basic_string<char, std::__1::char_traits<char>, std::__1::allocator<char> >::__rep" }
%"struct.std::__1::basic_string<char, std::__1::char_traits<char>, std::__1::allocator<char> >::__rep" = type { %union.anon }
%union.anon = type { %"struct.std::__1::basic_string<char, std::__1::char_traits<char>, std::__1::allocator<char> >::__long" }
%"struct.std::__1::basic_string<char, std::__1::char_traits<char>, std::__1::allocator<char> >::__long" = type { i8*, i64, i64 }
%"class.std::__1::__compressed_pair.1" = type { %"struct.std::__1::__compressed_pair_elem.2" }
%"struct.std::__1::__compressed_pair_elem.2" = type { %"struct.std::__1::pair"* }
%"class.blink::mojom::FetchAPIRequestBody" = type <{ %"class.std::__1::vector.37", i64, i8, [7 x i8] }>
%"class.std::__1::vector.37" = type { %"class.std::__1::__vector_base.38" }
%"class.std::__1::__vector_base.38" = type { %"class.network::DataElement"*, %"class.network::DataElement"*, %"class.std::__1::__compressed_pair.53" }
%"class.network::DataElement" = type { %"class.absl::variant" }
%"class.absl::variant" = type { %"class.absl::variant_internal::VariantMoveAssignBaseNontrivial" }
%"class.absl::variant_internal::VariantMoveAssignBaseNontrivial" = type { %"class.absl::variant_internal::VariantMoveBaseNontrivial" }
%"class.absl::variant_internal::VariantMoveBaseNontrivial" = type { %"class.absl::variant_internal::VariantStateBaseDestructorNontrivial" }
%"class.absl::variant_internal::VariantStateBaseDestructorNontrivial" = type { %"class.absl::variant_internal::VariantStateBase" }
%"class.absl::variant_internal::VariantStateBase" = type { %"union.absl::variant_internal::DestructibleUnionImpl", i64 }
%"union.absl::variant_internal::DestructibleUnionImpl" = type { %"union.absl::variant_internal::DestructibleUnionImpl.39" }
%"union.absl::variant_internal::DestructibleUnionImpl.39" = type { %"union.absl::variant_internal::DestructibleUnionImpl.47" }
%"union.absl::variant_internal::DestructibleUnionImpl.47" = type { %"union.absl::variant_internal::DestructibleUnionImpl.49" }
%"union.absl::variant_internal::DestructibleUnionImpl.49" = type { %"union.absl::variant_internal::DestructibleUnionImpl.51" }
%"union.absl::variant_internal::DestructibleUnionImpl.51" = type { %"class.network::DataElementFile" }
%"class.network::DataElementFile" = type { %"class.base::FilePath", i64, i64, %"class.base::Time" }
%"class.base::FilePath" = type { %"class.std::__1::basic_string" }
%"class.base::Time" = type { %"class.base::time_internal::TimeBase" }
%"class.base::time_internal::TimeBase" = type { i64 }
%"class.std::__1::__compressed_pair.53" = type { %"struct.std::__1::__compressed_pair_elem.54" }
%"struct.std::__1::__compressed_pair_elem.54" = type { %"class.network::DataElement"* }
%"class.blink::mojom::FetchAPIRequest" = type { i32, i8, i32, i32, %class.GURL, %"class.std::__1::basic_string", %"class.base::flat_map.61", %"class.mojo::StructPtr", %class.scoped_refptr.70, %"class.mojo::StructPtr.72", i32, i32, i32, %"class.absl::optional", i32, %"class.absl::optional.80", i8, i8, i8, %"class.absl::optional" }
%class.GURL = type { %"class.std::__1::basic_string", i8, %"struct.url::Parsed", %"class.std::__1::unique_ptr" }
%"struct.url::Parsed" = type { %"struct.url::Component", %"struct.url::Component", %"struct.url::Component", %"struct.url::Component", %"struct.url::Component", %"struct.url::Component", %"struct.url::Component", %"struct.url::Component", i8, %"struct.url::Parsed"* }
%"struct.url::Component" = type { i32, i32 }
%"class.std::__1::unique_ptr" = type { %"class.std::__1::__compressed_pair.58" }
%"class.std::__1::__compressed_pair.58" = type { %"struct.std::__1::__compressed_pair_elem.59" }
%"struct.std::__1::__compressed_pair_elem.59" = type { %class.GURL* }
%"class.base::flat_map.61" = type { %"class.base::internal::flat_tree.62" }
%"class.base::internal::flat_tree.62" = type { %"class.std::__1::vector" }
%"class.mojo::StructPtr" = type { %"class.std::__1::unique_ptr.63" }
%"class.std::__1::unique_ptr.63" = type { %"class.std::__1::__compressed_pair.64" }
%"class.std::__1::__compressed_pair.64" = type { %"struct.std::__1::__compressed_pair_elem.65" }
%"struct.std::__1::__compressed_pair_elem.65" = type { %"class.blink::mojom::SerializedBlob"* }
%"class.blink::mojom::SerializedBlob" = type { %"class.std::__1::basic_string", %"class.std::__1::basic_string", i64, %"class.mojo::PendingRemote.66" }
%"class.mojo::PendingRemote.66" = type { %"struct.mojo::internal::PendingRemoteState" }
%"struct.mojo::internal::PendingRemoteState" = type { %"class.mojo::ScopedHandleBase.48", i32 }
%"class.mojo::ScopedHandleBase.48" = type { %"class.mojo::MessagePipeHandle" }
%"class.mojo::MessagePipeHandle" = type { %"class.mojo::Handle" }
%"class.mojo::Handle" = type { i32 }
%class.scoped_refptr.70 = type { %"class.network::ResourceRequestBody"* }
%"class.network::ResourceRequestBody" = type <{ %"class.base::RefCountedThreadSafe.71", [4 x i8], %"class.std::__1::vector.37", i64, i8, i8, [6 x i8] }>
%"class.base::RefCountedThreadSafe.71" = type { %"class.base::subtle::RefCountedThreadSafeBase" }
%"class.base::subtle::RefCountedThreadSafeBase" = type { %"class.base::AtomicRefCount" }
%"class.base::AtomicRefCount" = type { %"struct.std::__1::atomic" }
%"struct.std::__1::atomic" = type { %"struct.std::__1::__atomic_base" }
%"struct.std::__1::__atomic_base" = type { %"struct.std::__1::__atomic_base.27" }
%"struct.std::__1::__atomic_base.27" = type { %"struct.std::__1::__cxx_atomic_impl" }
%"struct.std::__1::__cxx_atomic_impl" = type { %"struct.std::__1::__cxx_atomic_base_impl" }
%"struct.std::__1::__cxx_atomic_base_impl" = type { i32 }
%"class.mojo::StructPtr.72" = type { %"class.std::__1::unique_ptr.73" }
%"class.std::__1::unique_ptr.73" = type { %"class.std::__1::__compressed_pair.74" }
%"class.std::__1::__compressed_pair.74" = type { %"struct.std::__1::__compressed_pair_elem.75" }
%"struct.std::__1::__compressed_pair_elem.75" = type { %"class.blink::mojom::Referrer"* }
%"class.blink::mojom::Referrer" = type <{ %class.GURL, i32, [4 x i8] }>
%"class.absl::optional.80" = type { %"class.absl::optional_internal::optional_data.81" }
%"class.absl::optional_internal::optional_data.81" = type { %"class.absl::optional_internal::optional_data_base.82" }
%"class.absl::optional_internal::optional_data_base.82" = type { %"class.absl::optional_internal::optional_data_dtor_base.83" }
%"class.absl::optional_internal::optional_data_dtor_base.83" = type { i8, %union.anon.84 }
%union.anon.84 = type { %"class.base::UnguessableToken" }
%"class.base::UnguessableToken" = type { %"class.base::Token" }
%"class.base::Token" = type { i64, i64 }
%"class.absl::optional" = type { %"class.absl::optional_internal::optional_data" }
%"class.absl::optional_internal::optional_data" = type { %"class.absl::optional_internal::optional_data_base" }
%"class.absl::optional_internal::optional_data_base" = type { %"class.absl::optional_internal::optional_data_dtor_base" }
%"class.absl::optional_internal::optional_data_dtor_base" = type { i8, %union.anon.79 }
%union.anon.79 = type { %"class.std::__1::basic_string" }
%"struct.std::__1::basic_string<char, std::__1::char_traits<char>, std::__1::allocator<char> >::__short" = type { [23 x i8], %struct.anon }
%struct.anon = type { i8 }
%"class.perfetto::TracedValue" = type <{ %"class.perfetto::protos::pbzero::DebugAnnotation"*, %"class.perfetto::internal::CheckedScope", [7 x i8] }>
%"class.perfetto::protos::pbzero::DebugAnnotation" = type { %"class.protozero::Message.base", [7 x i8] }
%"class.protozero::Message.base" = type <{ %"class.protozero::ScatteredStreamWriter"*, %"class.protozero::MessageArena"*, %"class.protozero::Message"*, i8*, i32, i32, i8 }>
%"class.protozero::ScatteredStreamWriter" = type { %"class.protozero::ScatteredStreamWriter::Delegate"*, %"struct.protozero::ContiguousMemoryRange", i8*, i64 }
%"class.protozero::ScatteredStreamWriter::Delegate" = type { i32 (...)** }
%"struct.protozero::ContiguousMemoryRange" = type { i8*, i8* }
%"class.protozero::MessageArena" = type { %"class.std::__1::list" }
%"class.std::__1::list" = type { %"class.std::__1::__list_imp" }
%"class.std::__1::__list_imp" = type { %"struct.std::__1::__list_node_base", %"class.std::__1::__compressed_pair.6" }
%"struct.std::__1::__list_node_base" = type { %"struct.std::__1::__list_node_base"*, %"struct.std::__1::__list_node_base"* }
%"class.std::__1::__compressed_pair.6" = type { %"struct.std::__1::__compressed_pair_elem.7" }
%"struct.std::__1::__compressed_pair_elem.7" = type { i64 }
%"class.protozero::Message" = type <{ %"class.protozero::ScatteredStreamWriter"*, %"class.protozero::MessageArena"*, %"class.protozero::Message"*, i8*, i32, i32, i8, [7 x i8] }>
%"class.perfetto::internal::CheckedScope" = type { i8 }
%"class.perfetto::TracedDictionary" = type <{ %"class.protozero::Message"*, i32, %"class.perfetto::internal::CheckedScope", [3 x i8] }>
%"class.mojo::internal::ValidationContext" = type <{ %"class.mojo::Message"*, i8*, i32, [4 x i8], i64, i64, i32, i32, i32, i32, i32, [4 x i8] }>
%"class.mojo::Message" = type { %"class.mojo::ScopedHandleBase", %"class.mojo::internal::Buffer", %"class.std::__1::vector.11", %"class.std::__1::vector.19", %"class.mojo::ConnectionGroup::Ref"*, i8, i8, i8* }
%"class.mojo::ScopedHandleBase" = type { %"class.mojo::MessageHandle" }
%"class.mojo::MessageHandle" = type { i64 }
%"class.mojo::internal::Buffer" = type { %"class.mojo::MessageHandle", i64, i8*, i64, i64 }
%"class.std::__1::vector.11" = type { %"class.std::__1::__vector_base.12" }
%"class.std::__1::__vector_base.12" = type { %"class.mojo::ScopedHandleBase.13"*, %"class.mojo::ScopedHandleBase.13"*, %"class.std::__1::__compressed_pair.14" }
%"class.mojo::ScopedHandleBase.13" = type { %"class.mojo::Handle" }
%"class.std::__1::__compressed_pair.14" = type { %"struct.std::__1::__compressed_pair_elem.15" }
%"struct.std::__1::__compressed_pair_elem.15" = type { %"class.mojo::ScopedHandleBase.13"* }
%"class.std::__1::vector.19" = type { %"class.std::__1::__vector_base.20" }
%"class.std::__1::__vector_base.20" = type { %"class.mojo::ScopedInterfaceEndpointHandle"*, %"class.mojo::ScopedInterfaceEndpointHandle"*, %"class.std::__1::__compressed_pair.21" }
%"class.mojo::ScopedInterfaceEndpointHandle" = type { %class.scoped_refptr }
%class.scoped_refptr = type { %"class.mojo::ScopedInterfaceEndpointHandle::State"* }
%"class.mojo::ScopedInterfaceEndpointHandle::State" = type opaque
%"class.std::__1::__compressed_pair.21" = type { %"struct.std::__1::__compressed_pair_elem.22" }
%"struct.std::__1::__compressed_pair_elem.22" = type { %"class.mojo::ScopedInterfaceEndpointHandle"* }
%"class.mojo::ConnectionGroup::Ref" = type { i32, %class.scoped_refptr.26 }
%class.scoped_refptr.26 = type { %"class.mojo::ConnectionGroup"* }
%"class.mojo::ConnectionGroup" = type <{ i32 (...)**, %"class.base::RefCountedThreadSafe", [4 x i8], %"class.base::RepeatingCallback", %class.scoped_refptr.30, %"class.mojo::ConnectionGroup::Ref", %"struct.std::__1::atomic.32", [4 x i8] }>
%"class.base::RefCountedThreadSafe" = type { %"class.base::subtle::RefCountedThreadSafeBase" }
%"class.base::RepeatingCallback" = type { %"class.base::internal::CallbackBaseCopyable" }
%"class.base::internal::CallbackBaseCopyable" = type { %"class.base::internal::CallbackBase" }
%"class.base::internal::CallbackBase" = type { %class.scoped_refptr.28 }
%class.scoped_refptr.28 = type { %"class.base::internal::BindStateBase"* }
%"class.base::internal::BindStateBase" = type { %"class.base::RefCountedThreadSafe.29", void ()*, void (%"class.base::internal::BindStateBase"*)*, i1 (%"class.base::internal::BindStateBase"*, i32)* }
%"class.base::RefCountedThreadSafe.29" = type { %"class.base::subtle::RefCountedThreadSafeBase" }
%class.scoped_refptr.30 = type { %"class.base::SequencedTaskRunner"* }
%"class.base::SequencedTaskRunner" = type { %"class.base::TaskRunner.base", [4 x i8] }
%"class.base::TaskRunner.base" = type <{ i32 (...)**, %"class.base::RefCountedThreadSafe.31" }>
%"class.base::RefCountedThreadSafe.31" = type { %"class.base::subtle::RefCountedThreadSafeBase" }
%"struct.std::__1::atomic.32" = type { %"struct.std::__1::__atomic_base.33" }
%"struct.std::__1::__atomic_base.33" = type { %"struct.std::__1::__atomic_base.34" }
%"struct.std::__1::__atomic_base.34" = type { %"struct.std::__1::__cxx_atomic_impl.35" }
%"struct.std::__1::__cxx_atomic_impl.35" = type { %"struct.std::__1::__cxx_atomic_base_impl.36" }
%"struct.std::__1::__cxx_atomic_base_impl.36" = type { i32 }
%"class.blink::mojom::internal::FetchAPIRequestHeaders_Data" = type { %"struct.mojo::internal::StructHeader", %"struct.mojo::internal::Pointer" }
%"struct.mojo::internal::StructHeader" = type { i32, i32 }
%"struct.mojo::internal::Pointer" = type { i64 }
%"class.mojo::StructPtr.85" = type { %"class.std::__1::unique_ptr.86" }
%"class.std::__1::unique_ptr.86" = type { %"class.std::__1::__compressed_pair.87" }
%"class.std::__1::__compressed_pair.87" = type { %"struct.std::__1::__compressed_pair_elem.88" }
%"struct.std::__1::__compressed_pair_elem.88" = type { %"class.blink::mojom::FetchAPIRequestHeaders"* }
%"class.mojo::internal::Map_Data" = type { %"struct.mojo::internal::StructHeader", %"struct.mojo::internal::Pointer.120", %"struct.mojo::internal::Pointer.120" }
%"struct.mojo::internal::Pointer.120" = type { i64 }
%"class.blink::mojom::internal::FetchAPIRequestBody_Data" = type { %"struct.mojo::internal::StructHeader", %"struct.mojo::internal::Pointer.92", i64, i8, [7 x i8] }
%"struct.mojo::internal::Pointer.92" = type { i64 }
%"class.mojo::StructPtr.93" = type { %"class.std::__1::unique_ptr.94" }
%"class.std::__1::unique_ptr.94" = type { %"class.std::__1::__compressed_pair.95" }
%"class.std::__1::__compressed_pair.95" = type { %"struct.std::__1::__compressed_pair_elem.96" }
%"struct.std::__1::__compressed_pair_elem.96" = type { %"class.blink::mojom::FetchAPIRequestBody"* }
%"class.mojo::internal::Array_Data.138" = type { %"struct.mojo::internal::ArrayHeader" }
%"struct.mojo::internal::ArrayHeader" = type { i32, i32 }
%"class.blink::mojom::internal::FetchAPIRequest_Data" = type { %"struct.mojo::internal::StructHeader", i32, i8, [3 x i8], i32, i32, %"struct.mojo::internal::Pointer.100", %"struct.mojo::internal::Pointer.101", %"struct.mojo::internal::Pointer.102", %"struct.mojo::internal::Pointer.103", %"struct.mojo::internal::Pointer.104", %"struct.mojo::internal::Pointer.105", i32, i32, i32, i32, %"struct.mojo::internal::Pointer.101", %"struct.mojo::internal::Pointer.106", %"struct.mojo::internal::Pointer.101" }
%"struct.mojo::internal::Pointer.100" = type { i64 }
%"struct.mojo::internal::Pointer.102" = type { i64 }
%"struct.mojo::internal::Pointer.103" = type { i64 }
%"struct.mojo::internal::Pointer.104" = type { i64 }
%"struct.mojo::internal::Pointer.105" = type { i64 }
%"struct.mojo::internal::Pointer.106" = type { i64 }
%"struct.mojo::internal::Pointer.101" = type { i64 }
%"class.mojo::StructPtr.107" = type { %"class.std::__1::unique_ptr.108" }
%"class.std::__1::unique_ptr.108" = type { %"class.std::__1::__compressed_pair.109" }
%"class.std::__1::__compressed_pair.109" = type { %"struct.std::__1::__compressed_pair_elem.110" }
%"struct.std::__1::__compressed_pair_elem.110" = type { %"class.blink::mojom::FetchAPIRequest"* }
%"class.mojo::internal::Array_Data.128" = type { %"struct.mojo::internal::ArrayHeader" }
%"class.blink::mojom::FetchAPIRequestDataView" = type { %"class.blink::mojom::internal::FetchAPIRequest_Data"*, %"class.mojo::Message"* }
%"class.url::mojom::internal::Url_Data" = type { %"struct.mojo::internal::StructHeader", %"struct.mojo::internal::Pointer.101" }
%"class.blink::mojom::internal::SerializedBlob_Data" = type { %"struct.mojo::internal::StructHeader", %"struct.mojo::internal::Pointer.101", %"struct.mojo::internal::Pointer.101", i64, %"struct.mojo::internal::Interface_Data" }
%"struct.mojo::internal::Interface_Data" = type { %"struct.mojo::internal::Handle_Data", i32 }
%"struct.mojo::internal::Handle_Data" = type { i32 }
%"class.blink::mojom::internal::Referrer_Data" = type { %"struct.mojo::internal::StructHeader", %"struct.mojo::internal::Pointer.100", i32, [4 x i8] }
%"class.mojo_base::mojom::internal::UnguessableToken_Data" = type { %"struct.mojo::internal::StructHeader", i64, i64 }
%"class.std::__1::__vector_base_common" = type { i8 }
%"class.std::__1::vector.121" = type { %"class.std::__1::__vector_base.122" }
%"class.std::__1::__vector_base.122" = type { %"class.std::__1::basic_string"*, %"class.std::__1::basic_string"*, %"class.std::__1::__compressed_pair.123" }
%"class.std::__1::__compressed_pair.123" = type { %"struct.std::__1::__compressed_pair_elem.124" }
%"struct.std::__1::__compressed_pair_elem.124" = type { %"class.std::__1::basic_string"* }
%"class.mojo::internal::Array_Data" = type { %"struct.mojo::internal::ArrayHeader" }
%"struct.std::__1::__split_buffer" = type { %"struct.std::__1::pair"*, %"struct.std::__1::pair"*, %"struct.std::__1::pair"*, %"class.std::__1::__compressed_pair.135" }
%"class.std::__1::__compressed_pair.135" = type { %"struct.std::__1::__compressed_pair_elem.2", %"struct.std::__1::__compressed_pair_elem.136" }
%"struct.std::__1::__compressed_pair_elem.136" = type { %"class.std::__1::allocator.4"* }
%"class.std::__1::allocator.4" = type { i8 }
%"class.network::mojom::internal::DataElement_Data" = type { i32, i32, %"union.network::mojom::internal::DataElement_Data::Union_" }
%"union.network::mojom::internal::DataElement_Data::Union_" = type { %"struct.mojo::internal::Pointer.140" }
%"struct.mojo::internal::Pointer.140" = type { i64 }

$_ZNSt3__16vectorINS_4pairINS_12basic_stringIcNS_11char_traitsIcEENS_9allocatorIcEEEES7_EENS5_IS8_EEEC2ERKSA_ = comdat any

$_ZN4mojo8internal10SerializerINS_11MapDataViewINS_14StringDataViewES3_EEN4base8flat_mapINSt3__112basic_stringIcNS7_11char_traitsIcEENS7_9allocatorIcEEEESD_NS7_4lessIvEENS7_6vectorINS7_4pairISD_SD_EENSB_ISI_EEEEEEE11DeserializeEPNS0_8Map_DataINS0_7PointerINS0_10Array_DataIcEEEESR_EEPSL_PNS_7MessageE = comdat any

$_ZN4mojo8internal15ArraySerializerINS_13ArrayDataViewINS_14StringDataViewEEENSt3__16vectorINS5_12basic_stringIcNS5_11char_traitsIcEENS5_9allocatorIcEEEENSA_ISC_EEEENS0_12MapKeyReaderIN4base8flat_mapISC_SC_NS5_4lessIvEENS6_INS5_4pairISC_SC_EENSA_ISL_EEEEEEEEvE19DeserializeElementsEPNS0_10Array_DataINS0_7PointerINSR_IcEEEEEEPSE_PNS_7MessageE = comdat any

$_ZN4mojo8internal15ArraySerializerINS_13ArrayDataViewINS_14StringDataViewEEENSt3__16vectorINS5_12basic_stringIcNS5_11char_traitsIcEENS5_9allocatorIcEEEENSA_ISC_EEEENS0_14MapValueReaderIN4base8flat_mapISC_SC_NS5_4lessIvEENS6_INS5_4pairISC_SC_EENSA_ISL_EEEEEEEEvE19DeserializeElementsEPNS0_10Array_DataINS0_7PointerINSR_IcEEEEEEPSE_PNS_7MessageE = comdat any

$_ZN4base8internal9flat_treeINSt3__112basic_stringIcNS2_11char_traitsIcEENS2_9allocatorIcEEEENS0_8GetFirstENS2_4lessIvEENS2_6vectorINS2_4pairIS8_S8_EENS6_ISE_EEEEE16emplace_key_argsIS8_JSE_EEENSD_INS2_11__wrap_iterIPSE_EEbEERKT_DpOT0_ = comdat any

$_ZNSt3__16vectorINS_4pairINS_12basic_stringIcNS_11char_traitsIcEENS_9allocatorIcEEEES7_EENS5_IS8_EEE7emplaceIJS8_EEENS_11__wrap_iterIPS8_EENSC_IPKS8_EEDpOT_ = comdat any

$_ZNSt3__114__split_bufferINS_4pairINS_12basic_stringIcNS_11char_traitsIcEENS_9allocatorIcEEEES7_EERNS5_IS8_EEE12emplace_backIJS8_EEEvDpOT_ = comdat any

$_ZN4mojo8internal15ArraySerializerINS_13ArrayDataViewIN7network5mojom19DataElementDataViewEEENSt3__16vectorINS3_11DataElementENS7_9allocatorIS9_EEEENS0_13ArrayIteratorINS_11ArrayTraitsISC_EESC_Lb0EEEvE19DeserializeElementsEPNS0_10Array_DataINS4_8internal16DataElement_DataEEEPSC_PNS_7MessageE = comdat any

$_ZN4mojo8internal10SerializerINS_11MapDataViewINS_14StringDataViewES3_EEN4base8flat_mapINSt3__112basic_stringIcNS7_11char_traitsIcEENS7_9allocatorIcEEEESD_N5blink29FetchAPIRequestHeadersCompareENS7_6vectorINS7_4pairISD_SD_EENSB_ISI_EEEEEEE11DeserializeEPNS0_8Map_DataINS0_7PointerINS0_10Array_DataIcEEEESR_EEPSL_PNS_7MessageE = comdat any

$_ZN4mojo8internal15ArraySerializerINS_13ArrayDataViewINS_14StringDataViewEEENSt3__16vectorINS5_12basic_stringIcNS5_11char_traitsIcEENS5_9allocatorIcEEEENSA_ISC_EEEENS0_12MapKeyReaderIN4base8flat_mapISC_SC_N5blink29FetchAPIRequestHeadersCompareENS6_INS5_4pairISC_SC_EENSA_ISL_EEEEEEEEvE19DeserializeElementsEPNS0_10Array_DataINS0_7PointerINSR_IcEEEEEEPSE_PNS_7MessageE = comdat any

$_ZN4mojo8internal15ArraySerializerINS_13ArrayDataViewINS_14StringDataViewEEENSt3__16vectorINS5_12basic_stringIcNS5_11char_traitsIcEENS5_9allocatorIcEEEENSA_ISC_EEEENS0_14MapValueReaderIN4base8flat_mapISC_SC_N5blink29FetchAPIRequestHeadersCompareENS6_INS5_4pairISC_SC_EENSA_ISL_EEEEEEEEvE19DeserializeElementsEPNS0_10Array_DataINS0_7PointerINSR_IcEEEEEEPSE_PNS_7MessageE = comdat any

$_ZN4base8internal9flat_treeINSt3__112basic_stringIcNS2_11char_traitsIcEENS2_9allocatorIcEEEENS0_8GetFirstEN5blink29FetchAPIRequestHeadersCompareENS2_6vectorINS2_4pairIS8_S8_EENS6_ISE_EEEEE16emplace_key_argsIS8_JSE_EEENSD_INS2_11__wrap_iterIPSE_EEbEERKT_DpOT0_ = comdat any

$_ZN4mojo8internal11DeserializeINS_14StringDataViewERPNS0_10Array_DataIcEEN4absl8optionalINSt3__112basic_stringIcNS9_11char_traitsIcEENS9_9allocatorIcEEEEEEJRPNS_7MessageEELPv0EEEbOT0_PT1_DpOT2_ = comdat any

@.str = private unnamed_addr constant [8 x i8] c"headers\00", align 1
@.str.1 = private unnamed_addr constant [8 x i8] c"<value>\00", align 1
@.str.2 = private unnamed_addr constant [9 x i8] c"elements\00", align 1
@.str.3 = private unnamed_addr constant [11 x i8] c"identifier\00", align 1
@.str.4 = private unnamed_addr constant [24 x i8] c"contains_sensitive_info\00", align 1
@.str.5 = private unnamed_addr constant [5 x i8] c"mode\00", align 1
@.str.6 = private unnamed_addr constant [22 x i8] c"is_main_resource_load\00", align 1
@.str.7 = private unnamed_addr constant [12 x i8] c"destination\00", align 1
@.str.8 = private unnamed_addr constant [11 x i8] c"frame_type\00", align 1
@.str.9 = private unnamed_addr constant [4 x i8] c"url\00", align 1
@.str.10 = private unnamed_addr constant [7 x i8] c"method\00", align 1
@.str.11 = private unnamed_addr constant [5 x i8] c"blob\00", align 1
@.str.12 = private unnamed_addr constant [5 x i8] c"body\00", align 1
@.str.13 = private unnamed_addr constant [9 x i8] c"referrer\00", align 1
@.str.14 = private unnamed_addr constant [17 x i8] c"credentials_mode\00", align 1
@.str.15 = private unnamed_addr constant [11 x i8] c"cache_mode\00", align 1
@.str.16 = private unnamed_addr constant [14 x i8] c"redirect_mode\00", align 1
@.str.17 = private unnamed_addr constant [10 x i8] c"integrity\00", align 1
@.str.18 = private unnamed_addr constant [9 x i8] c"priority\00", align 1
@.str.19 = private unnamed_addr constant [16 x i8] c"fetch_window_id\00", align 1
@.str.20 = private unnamed_addr constant [10 x i8] c"keepalive\00", align 1
@.str.21 = private unnamed_addr constant [10 x i8] c"is_reload\00", align 1
@.str.22 = private unnamed_addr constant [22 x i8] c"is_history_navigation\00", align 1
@.str.23 = private unnamed_addr constant [18 x i8] c"devtools_stack_id\00", align 1

@_ZN5blink5mojom22FetchAPIRequestHeadersC1Ev = hidden unnamed_addr alias void (%"class.blink::mojom::FetchAPIRequestHeaders"*), void (%"class.blink::mojom::FetchAPIRequestHeaders"*)* @_ZN5blink5mojom22FetchAPIRequestHeadersC2Ev
@_ZN5blink5mojom22FetchAPIRequestHeadersC1ERKN4base8flat_mapINSt3__112basic_stringIcNS4_11char_traitsIcEENS4_9allocatorIcEEEESA_NS4_4lessIvEENS4_6vectorINS4_4pairISA_SA_EENS8_ISF_EEEEEE = hidden unnamed_addr alias void (%"class.blink::mojom::FetchAPIRequestHeaders"*, %"class.base::flat_map"*), void (%"class.blink::mojom::FetchAPIRequestHeaders"*, %"class.base::flat_map"*)* @_ZN5blink5mojom22FetchAPIRequestHeadersC2ERKN4base8flat_mapINSt3__112basic_stringIcNS4_11char_traitsIcEENS4_9allocatorIcEEEESA_NS4_4lessIvEENS4_6vectorINS4_4pairISA_SA_EENS8_ISF_EEEEEE
@_ZN5blink5mojom22FetchAPIRequestHeadersD1Ev = hidden unnamed_addr alias void (%"class.blink::mojom::FetchAPIRequestHeaders"*), void (%"class.blink::mojom::FetchAPIRequestHeaders"*)* @_ZN5blink5mojom22FetchAPIRequestHeadersD2Ev
@_ZN5blink5mojom19FetchAPIRequestBodyC1Ev = hidden unnamed_addr alias void (%"class.blink::mojom::FetchAPIRequestBody"*), void (%"class.blink::mojom::FetchAPIRequestBody"*)* @_ZN5blink5mojom19FetchAPIRequestBodyC2Ev
@_ZN5blink5mojom19FetchAPIRequestBodyC1ENSt3__16vectorIN7network11DataElementENS2_9allocatorIS5_EEEEmb = hidden unnamed_addr alias void (%"class.blink::mojom::FetchAPIRequestBody"*, %"class.std::__1::vector.37"*, i64, i1), void (%"class.blink::mojom::FetchAPIRequestBody"*, %"class.std::__1::vector.37"*, i64, i1)* @_ZN5blink5mojom19FetchAPIRequestBodyC2ENSt3__16vectorIN7network11DataElementENS2_9allocatorIS5_EEEEmb
@_ZN5blink5mojom19FetchAPIRequestBodyD1Ev = hidden unnamed_addr alias void (%"class.blink::mojom::FetchAPIRequestBody"*), void (%"class.blink::mojom::FetchAPIRequestBody"*)* @_ZN5blink5mojom19FetchAPIRequestBodyD2Ev
@_ZN5blink5mojom15FetchAPIRequestC1Ev = hidden unnamed_addr alias void (%"class.blink::mojom::FetchAPIRequest"*), void (%"class.blink::mojom::FetchAPIRequest"*)* @_ZN5blink5mojom15FetchAPIRequestC2Ev
@_ZN5blink5mojom15FetchAPIRequestC1EN7network5mojom11RequestModeEbNS3_18RequestDestinationENS0_23RequestContextFrameTypeERK4GURLRKNSt3__112basic_stringIcNSA_11char_traitsIcEENSA_9allocatorIcEEEEN4base8flat_mapISG_SG_NS_29FetchAPIRequestHeadersCompareENSA_6vectorINSA_4pairISG_SG_EENSE_ISO_EEEEEEN4mojo9StructPtrINS0_14SerializedBlobEEE13scoped_refptrINS2_19ResourceRequestBodyEENST_INS0_8ReferrerEEENS3_15CredentialsModeENS0_14FetchCacheModeENS3_12RedirectModeERKN4absl8optionalISG_EEN3net15RequestPriorityERKNS15_INSJ_16UnguessableTokenEEEbbbS18_ = hidden unnamed_addr alias void (%"class.blink::mojom::FetchAPIRequest"*, i32, i1, i32, i32, %class.GURL*, %"class.std::__1::basic_string"*, %"class.base::flat_map.61"*, %"class.mojo::StructPtr"*, i64, %"class.mojo::StructPtr.72"*, i32, i32, i32, %"class.absl::optional"*, i32, %"class.absl::optional.80"*, i1, i1, i1, %"class.absl::optional"*), void (%"class.blink::mojom::FetchAPIRequest"*, i32, i1, i32, i32, %class.GURL*, %"class.std::__1::basic_string"*, %"class.base::flat_map.61"*, %"class.mojo::StructPtr"*, i64, %"class.mojo::StructPtr.72"*, i32, i32, i32, %"class.absl::optional"*, i32, %"class.absl::optional.80"*, i1, i1, i1, %"class.absl::optional"*)* @_ZN5blink5mojom15FetchAPIRequestC2EN7network5mojom11RequestModeEbNS3_18RequestDestinationENS0_23RequestContextFrameTypeERK4GURLRKNSt3__112basic_stringIcNSA_11char_traitsIcEENSA_9allocatorIcEEEEN4base8flat_mapISG_SG_NS_29FetchAPIRequestHeadersCompareENSA_6vectorINSA_4pairISG_SG_EENSE_ISO_EEEEEEN4mojo9StructPtrINS0_14SerializedBlobEEE13scoped_refptrINS2_19ResourceRequestBodyEENST_INS0_8ReferrerEEENS3_15CredentialsModeENS0_14FetchCacheModeENS3_12RedirectModeERKN4absl8optionalISG_EEN3net15RequestPriorityERKNS15_INSJ_16UnguessableTokenEEEbbbS18_
@_ZN5blink5mojom15FetchAPIRequestD1Ev = hidden unnamed_addr alias void (%"class.blink::mojom::FetchAPIRequest"*), void (%"class.blink::mojom::FetchAPIRequest"*)* @_ZN5blink5mojom15FetchAPIRequestD2Ev

; Function Attrs: nounwind ssp uwtable
define hidden void @_ZN5blink5mojom22FetchAPIRequestHeadersC2Ev(%"class.blink::mojom::FetchAPIRequestHeaders"* nocapture) unnamed_addr #0 align 2 {
  %2 = bitcast %"class.blink::mojom::FetchAPIRequestHeaders"* %0 to i8*
  call void @llvm.memset.p0i8.i64(i8* align 8 %2, i8 0, i64 24, i1 false)
  ret void
}

; Function Attrs: argmemonly nounwind
declare void @llvm.memset.p0i8.i64(i8* nocapture writeonly, i8, i64, i1 immarg) #1

; Function Attrs: nounwind ssp uwtable
define hidden void @_ZN5blink5mojom22FetchAPIRequestHeadersC2ERKN4base8flat_mapINSt3__112basic_stringIcNS4_11char_traitsIcEENS4_9allocatorIcEEEESA_NS4_4lessIvEENS4_6vectorINS4_4pairISA_SA_EENS8_ISF_EEEEEE(%"class.blink::mojom::FetchAPIRequestHeaders"*, %"class.base::flat_map"* dereferenceable(24)) unnamed_addr #0 align 2 {
  %3 = getelementptr inbounds %"class.blink::mojom::FetchAPIRequestHeaders", %"class.blink::mojom::FetchAPIRequestHeaders"* %0, i64 0, i32 0, i32 0, i32 0
  %4 = getelementptr inbounds %"class.base::flat_map", %"class.base::flat_map"* %1, i64 0, i32 0, i32 0
  tail call void @_ZNSt3__16vectorINS_4pairINS_12basic_stringIcNS_11char_traitsIcEENS_9allocatorIcEEEES7_EENS5_IS8_EEEC2ERKSA_(%"class.std::__1::vector"* %3, %"class.std::__1::vector"* dereferenceable(24) %4) #10
  ret void
}

; Function Attrs: nounwind ssp uwtable
define hidden void @_ZN5blink5mojom22FetchAPIRequestHeadersD2Ev(%"class.blink::mojom::FetchAPIRequestHeaders"* nocapture) unnamed_addr #0 align 2 {
  %2 = getelementptr inbounds %"class.blink::mojom::FetchAPIRequestHeaders", %"class.blink::mojom::FetchAPIRequestHeaders"* %0, i64 0, i32 0, i32 0, i32 0, i32 0, i32 0
  %3 = load %"struct.std::__1::pair"*, %"struct.std::__1::pair"** %2, align 8
  %4 = icmp eq %"struct.std::__1::pair"* %3, null
  br i1 %4, label %36, label %5

5:                                                ; preds = %1
  %6 = bitcast %"struct.std::__1::pair"* %3 to i8*
  %7 = getelementptr inbounds %"class.blink::mojom::FetchAPIRequestHeaders", %"class.blink::mojom::FetchAPIRequestHeaders"* %0, i64 0, i32 0, i32 0, i32 0, i32 0, i32 1
  %8 = load %"struct.std::__1::pair"*, %"struct.std::__1::pair"** %7, align 8
  %9 = icmp eq %"struct.std::__1::pair"* %8, %3
  br i1 %9, label %34, label %10

10:                                               ; preds = %5, %29
  %11 = phi %"struct.std::__1::pair"* [ %12, %29 ], [ %8, %5 ]
  %12 = getelementptr inbounds %"struct.std::__1::pair", %"struct.std::__1::pair"* %11, i64 -1
  %13 = getelementptr inbounds %"struct.std::__1::pair", %"struct.std::__1::pair"* %11, i64 -1, i32 1
  %14 = bitcast %"class.std::__1::basic_string"* %13 to %"struct.std::__1::basic_string<char, std::__1::char_traits<char>, std::__1::allocator<char> >::__short"*
  %15 = getelementptr inbounds %"struct.std::__1::basic_string<char, std::__1::char_traits<char>, std::__1::allocator<char> >::__short", %"struct.std::__1::basic_string<char, std::__1::char_traits<char>, std::__1::allocator<char> >::__short"* %14, i64 0, i32 1, i32 0
  %16 = load i8, i8* %15, align 1
  %17 = icmp slt i8 %16, 0
  br i1 %17, label %18, label %21

18:                                               ; preds = %10
  %19 = getelementptr inbounds %"class.std::__1::basic_string", %"class.std::__1::basic_string"* %13, i64 0, i32 0, i32 0, i32 0, i32 0, i32 0, i32 0
  %20 = load i8*, i8** %19, align 8
  tail call void @_ZdlPv(i8* %20) #11
  br label %21

21:                                               ; preds = %18, %10
  %22 = bitcast %"struct.std::__1::pair"* %12 to %"struct.std::__1::basic_string<char, std::__1::char_traits<char>, std::__1::allocator<char> >::__short"*
  %23 = getelementptr inbounds %"struct.std::__1::basic_string<char, std::__1::char_traits<char>, std::__1::allocator<char> >::__short", %"struct.std::__1::basic_string<char, std::__1::char_traits<char>, std::__1::allocator<char> >::__short"* %22, i64 0, i32 1, i32 0
  %24 = load i8, i8* %23, align 1
  %25 = icmp slt i8 %24, 0
  br i1 %25, label %26, label %29

26:                                               ; preds = %21
  %27 = getelementptr inbounds %"struct.std::__1::pair", %"struct.std::__1::pair"* %12, i64 0, i32 0, i32 0, i32 0, i32 0, i32 0, i32 0, i32 0
  %28 = load i8*, i8** %27, align 8
  tail call void @_ZdlPv(i8* %28) #11
  br label %29

29:                                               ; preds = %26, %21
  %30 = icmp eq %"struct.std::__1::pair"* %12, %3
  br i1 %30, label %31, label %10

31:                                               ; preds = %29
  %32 = bitcast %"class.blink::mojom::FetchAPIRequestHeaders"* %0 to i8**
  %33 = load i8*, i8** %32, align 8
  br label %34

34:                                               ; preds = %31, %5
  %35 = phi i8* [ %33, %31 ], [ %6, %5 ]
  store %"struct.std::__1::pair"* %3, %"struct.std::__1::pair"** %7, align 8
  tail call void @_ZdlPv(i8* %35) #11
  br label %36

36:                                               ; preds = %1, %34
  ret void
}

; Function Attrs: nounwind ssp uwtable
define hidden void @_ZNK5blink5mojom22FetchAPIRequestHeaders14WriteIntoTraceEN8perfetto11TracedValueE(%"class.blink::mojom::FetchAPIRequestHeaders"* nocapture readnone, %"class.perfetto::TracedValue"*) local_unnamed_addr #0 align 2 {
  %3 = alloca %"class.perfetto::TracedDictionary", align 8
  %4 = alloca %"class.perfetto::TracedValue", align 8
  %5 = alloca %"class.std::__1::basic_string", align 8
  %6 = bitcast %"class.perfetto::TracedDictionary"* %3 to i8*
  call void @llvm.lifetime.start.p0i8(i64 16, i8* nonnull %6) #10
  %7 = bitcast %"class.perfetto::TracedDictionary"* %3 to i8*
  call void @llvm.memset.p0i8.i64(i8* nonnull align 8 %7, i8 -86, i64 16, i1 false)
  call void @_ZNO8perfetto11TracedValue15WriteDictionaryEv(%"class.perfetto::TracedDictionary"* nonnull sret %3, %"class.perfetto::TracedValue"* %1) #10
  call void @_ZN8perfetto16TracedDictionary7AddItemENS_12StaticStringE(%"class.perfetto::TracedValue"* nonnull sret %4, %"class.perfetto::TracedDictionary"* nonnull %3, i8* getelementptr inbounds ([8 x i8], [8 x i8]* @.str, i64 0, i64 0)) #10
  %8 = bitcast %"class.std::__1::basic_string"* %5 to i8*
  call void @llvm.lifetime.start.p0i8(i64 24, i8* nonnull %8) #10
  %9 = bitcast %"class.std::__1::basic_string"* %5 to %"struct.std::__1::basic_string<char, std::__1::char_traits<char>, std::__1::allocator<char> >::__short"*
  %10 = getelementptr inbounds %"struct.std::__1::basic_string<char, std::__1::char_traits<char>, std::__1::allocator<char> >::__short", %"struct.std::__1::basic_string<char, std::__1::char_traits<char>, std::__1::allocator<char> >::__short"* %9, i64 0, i32 1, i32 0
  store i8 7, i8* %10, align 1
  call void @llvm.memcpy.p0i8.p0i8.i64(i8* nonnull align 8 %8, i8* align 1 getelementptr inbounds ([8 x i8], [8 x i8]* @.str.1, i64 0, i64 0), i64 7, i1 false) #10
  %11 = getelementptr inbounds i8, i8* %8, i64 7
  store i8 0, i8* %11, align 1
  call void @_ZNO8perfetto11TracedValue11WriteStringERKNSt3__112basic_stringIcNS1_11char_traitsIcEENS1_9allocatorIcEEEE(%"class.perfetto::TracedValue"* nonnull %4, %"class.std::__1::basic_string"* nonnull dereferenceable(24) %5) #10
  %12 = load i8, i8* %10, align 1
  %13 = icmp slt i8 %12, 0
  br i1 %13, label %14, label %17

14:                                               ; preds = %2
  %15 = getelementptr inbounds %"class.std::__1::basic_string", %"class.std::__1::basic_string"* %5, i64 0, i32 0, i32 0, i32 0, i32 0, i32 0, i32 0
  %16 = load i8*, i8** %15, align 8
  call void @_ZdlPv(i8* %16) #11
  br label %17

17:                                               ; preds = %2, %14
  call void @llvm.lifetime.end.p0i8(i64 24, i8* nonnull %8) #10
  call void @llvm.lifetime.end.p0i8(i64 16, i8* nonnull %6) #10
  ret void
}

; Function Attrs: argmemonly nounwind
declare void @llvm.lifetime.start.p0i8(i64 immarg, i8* nocapture) #1

declare void @_ZNO8perfetto11TracedValue15WriteDictionaryEv(%"class.perfetto::TracedDictionary"* sret, %"class.perfetto::TracedValue"*) local_unnamed_addr #2

declare void @_ZN8perfetto16TracedDictionary7AddItemENS_12StaticStringE(%"class.perfetto::TracedValue"* sret, %"class.perfetto::TracedDictionary"*, i8*) local_unnamed_addr #2

; Function Attrs: argmemonly nounwind
declare void @llvm.lifetime.end.p0i8(i64 immarg, i8* nocapture) #1

; Function Attrs: nounwind ssp uwtable
define hidden zeroext i1 @_ZN5blink5mojom22FetchAPIRequestHeaders8ValidateEPKvPN4mojo8internal17ValidationContextE(i8*, %"class.mojo::internal::ValidationContext"*) local_unnamed_addr #0 align 2 {
  %3 = tail call zeroext i1 @_ZN5blink5mojom8internal27FetchAPIRequestHeaders_Data8ValidateEPKvPN4mojo8internal17ValidationContextE(i8* %0, %"class.mojo::internal::ValidationContext"* %1) #10
  ret i1 %3
}

declare zeroext i1 @_ZN5blink5mojom8internal27FetchAPIRequestHeaders_Data8ValidateEPKvPN4mojo8internal17ValidationContextE(i8*, %"class.mojo::internal::ValidationContext"*) local_unnamed_addr #2

; Function Attrs: nounwind ssp uwtable
define hidden void @_ZN5blink5mojom19FetchAPIRequestBodyC2Ev(%"class.blink::mojom::FetchAPIRequestBody"* nocapture) unnamed_addr #0 align 2 {
  %2 = bitcast %"class.blink::mojom::FetchAPIRequestBody"* %0 to i8*
  call void @llvm.memset.p0i8.i64(i8* align 8 %2, i8 0, i64 33, i1 false)
  ret void
}

; Function Attrs: nounwind ssp uwtable
define hidden void @_ZN5blink5mojom19FetchAPIRequestBodyC2ENSt3__16vectorIN7network11DataElementENS2_9allocatorIS5_EEEEmb(%"class.blink::mojom::FetchAPIRequestBody"* nocapture, %"class.std::__1::vector.37"* nocapture, i64, i1 zeroext) unnamed_addr #0 align 2 {
  %5 = zext i1 %3 to i8
  %6 = bitcast %"class.blink::mojom::FetchAPIRequestBody"* %0 to i8*
  tail call void @llvm.memset.p0i8.i64(i8* align 8 %6, i8 0, i64 24, i1 false) #10
  %7 = bitcast %"class.std::__1::vector.37"* %1 to i64*
  %8 = load i64, i64* %7, align 8
  %9 = bitcast %"class.blink::mojom::FetchAPIRequestBody"* %0 to i64*
  store i64 %8, i64* %9, align 8
  %10 = getelementptr inbounds %"class.std::__1::vector.37", %"class.std::__1::vector.37"* %1, i64 0, i32 0, i32 1
  %11 = bitcast %"class.network::DataElement"** %10 to i64*
  %12 = load i64, i64* %11, align 8
  %13 = getelementptr inbounds %"class.blink::mojom::FetchAPIRequestBody", %"class.blink::mojom::FetchAPIRequestBody"* %0, i64 0, i32 0, i32 0, i32 1
  %14 = bitcast %"class.network::DataElement"** %13 to i64*
  store i64 %12, i64* %14, align 8
  %15 = getelementptr inbounds %"class.std::__1::vector.37", %"class.std::__1::vector.37"* %1, i64 0, i32 0, i32 2, i32 0, i32 0
  %16 = bitcast %"class.network::DataElement"** %15 to i64*
  %17 = load i64, i64* %16, align 8
  %18 = getelementptr inbounds %"class.blink::mojom::FetchAPIRequestBody", %"class.blink::mojom::FetchAPIRequestBody"* %0, i64 0, i32 0, i32 0, i32 2, i32 0, i32 0
  %19 = bitcast %"class.network::DataElement"** %18 to i64*
  store i64 %17, i64* %19, align 8
  %20 = bitcast %"class.std::__1::vector.37"* %1 to i8*
  tail call void @llvm.memset.p0i8.i64(i8* align 8 %20, i8 0, i64 24, i1 false) #10
  %21 = getelementptr inbounds %"class.blink::mojom::FetchAPIRequestBody", %"class.blink::mojom::FetchAPIRequestBody"* %0, i64 0, i32 1
  store i64 %2, i64* %21, align 8
  %22 = getelementptr inbounds %"class.blink::mojom::FetchAPIRequestBody", %"class.blink::mojom::FetchAPIRequestBody"* %0, i64 0, i32 2
  store i8 %5, i8* %22, align 8
  ret void
}

; Function Attrs: nounwind ssp uwtable
define hidden void @_ZN5blink5mojom19FetchAPIRequestBodyD2Ev(%"class.blink::mojom::FetchAPIRequestBody"* nocapture) unnamed_addr #0 align 2 {
  %2 = getelementptr inbounds %"class.blink::mojom::FetchAPIRequestBody", %"class.blink::mojom::FetchAPIRequestBody"* %0, i64 0, i32 0, i32 0, i32 0
  %3 = load %"class.network::DataElement"*, %"class.network::DataElement"** %2, align 8
  %4 = icmp eq %"class.network::DataElement"* %3, null
  br i1 %4, label %19, label %5

5:                                                ; preds = %1
  %6 = bitcast %"class.network::DataElement"* %3 to i8*
  %7 = getelementptr inbounds %"class.blink::mojom::FetchAPIRequestBody", %"class.blink::mojom::FetchAPIRequestBody"* %0, i64 0, i32 0, i32 0, i32 1
  %8 = load %"class.network::DataElement"*, %"class.network::DataElement"** %7, align 8
  %9 = icmp eq %"class.network::DataElement"* %8, %3
  br i1 %9, label %17, label %10

10:                                               ; preds = %5, %10
  %11 = phi %"class.network::DataElement"* [ %12, %10 ], [ %8, %5 ]
  %12 = getelementptr inbounds %"class.network::DataElement", %"class.network::DataElement"* %11, i64 -1
  tail call void @_ZN7network11DataElementD1Ev(%"class.network::DataElement"* %12) #10
  %13 = icmp eq %"class.network::DataElement"* %12, %3
  br i1 %13, label %14, label %10

14:                                               ; preds = %10
  %15 = bitcast %"class.blink::mojom::FetchAPIRequestBody"* %0 to i8**
  %16 = load i8*, i8** %15, align 8
  br label %17

17:                                               ; preds = %14, %5
  %18 = phi i8* [ %16, %14 ], [ %6, %5 ]
  store %"class.network::DataElement"* %3, %"class.network::DataElement"** %7, align 8
  tail call void @_ZdlPv(i8* %18) #11
  br label %19

19:                                               ; preds = %1, %17
  ret void
}

; Function Attrs: nounwind ssp uwtable
define hidden void @_ZNK5blink5mojom19FetchAPIRequestBody14WriteIntoTraceEN8perfetto11TracedValueE(%"class.blink::mojom::FetchAPIRequestBody"* nocapture readonly, %"class.perfetto::TracedValue"*) local_unnamed_addr #0 align 2 {
  %3 = alloca %"class.perfetto::TracedValue", align 8
  %4 = alloca %"class.perfetto::TracedValue", align 8
  %5 = alloca %"class.perfetto::TracedDictionary", align 8
  %6 = alloca %"class.perfetto::TracedValue", align 8
  %7 = alloca %"class.std::__1::basic_string", align 8
  %8 = alloca %"class.perfetto::TracedValue", align 8
  %9 = alloca %"class.perfetto::TracedValue", align 8
  %10 = bitcast %"class.perfetto::TracedDictionary"* %5 to i8*
  call void @llvm.lifetime.start.p0i8(i64 16, i8* nonnull %10) #10
  %11 = bitcast %"class.perfetto::TracedDictionary"* %5 to i8*
  call void @llvm.memset.p0i8.i64(i8* nonnull align 8 %11, i8 -86, i64 16, i1 false)
  call void @_ZNO8perfetto11TracedValue15WriteDictionaryEv(%"class.perfetto::TracedDictionary"* nonnull sret %5, %"class.perfetto::TracedValue"* %1) #10
  call void @_ZN8perfetto16TracedDictionary7AddItemENS_12StaticStringE(%"class.perfetto::TracedValue"* nonnull sret %6, %"class.perfetto::TracedDictionary"* nonnull %5, i8* getelementptr inbounds ([9 x i8], [9 x i8]* @.str.2, i64 0, i64 0)) #10
  %12 = bitcast %"class.std::__1::basic_string"* %7 to i8*
  call void @llvm.lifetime.start.p0i8(i64 24, i8* nonnull %12) #10
  %13 = bitcast %"class.std::__1::basic_string"* %7 to %"struct.std::__1::basic_string<char, std::__1::char_traits<char>, std::__1::allocator<char> >::__short"*
  %14 = getelementptr inbounds %"struct.std::__1::basic_string<char, std::__1::char_traits<char>, std::__1::allocator<char> >::__short", %"struct.std::__1::basic_string<char, std::__1::char_traits<char>, std::__1::allocator<char> >::__short"* %13, i64 0, i32 1, i32 0
  store i8 7, i8* %14, align 1
  call void @llvm.memcpy.p0i8.p0i8.i64(i8* nonnull align 8 %12, i8* align 1 getelementptr inbounds ([8 x i8], [8 x i8]* @.str.1, i64 0, i64 0), i64 7, i1 false) #10
  %15 = getelementptr inbounds i8, i8* %12, i64 7
  store i8 0, i8* %15, align 1
  call void @_ZNO8perfetto11TracedValue11WriteStringERKNSt3__112basic_stringIcNS1_11char_traitsIcEENS1_9allocatorIcEEEE(%"class.perfetto::TracedValue"* nonnull %6, %"class.std::__1::basic_string"* nonnull dereferenceable(24) %7) #10
  %16 = load i8, i8* %14, align 1
  %17 = icmp slt i8 %16, 0
  br i1 %17, label %18, label %21

18:                                               ; preds = %2
  %19 = getelementptr inbounds %"class.std::__1::basic_string", %"class.std::__1::basic_string"* %7, i64 0, i32 0, i32 0, i32 0, i32 0, i32 0, i32 0
  %20 = load i8*, i8** %19, align 8
  call void @_ZdlPv(i8* %20) #11
  br label %21

21:                                               ; preds = %2, %18
  call void @llvm.lifetime.end.p0i8(i64 24, i8* nonnull %12) #10
  call void @_ZN8perfetto16TracedDictionary7AddItemENS_12StaticStringE(%"class.perfetto::TracedValue"* nonnull sret %8, %"class.perfetto::TracedDictionary"* nonnull %5, i8* getelementptr inbounds ([11 x i8], [11 x i8]* @.str.3, i64 0, i64 0)) #10
  %22 = getelementptr inbounds %"class.blink::mojom::FetchAPIRequestBody", %"class.blink::mojom::FetchAPIRequestBody"* %0, i64 0, i32 1
  %23 = bitcast %"class.perfetto::TracedValue"* %8 to i8*
  %24 = bitcast %"class.perfetto::TracedValue"* %3 to i8*
  call void @llvm.lifetime.start.p0i8(i64 16, i8* nonnull %24) #10
  call void @llvm.memcpy.p0i8.p0i8.i64(i8* nonnull align 8 %24, i8* nonnull align 8 %23, i64 16, i1 false) #10
  %25 = load i64, i64* %22, align 8
  call void @_ZNO8perfetto11TracedValue11WriteUInt64Em(%"class.perfetto::TracedValue"* nonnull %3, i64 %25) #10
  call void @llvm.lifetime.end.p0i8(i64 16, i8* nonnull %24) #10
  call void @_ZN8perfetto16TracedDictionary7AddItemENS_12StaticStringE(%"class.perfetto::TracedValue"* nonnull sret %9, %"class.perfetto::TracedDictionary"* nonnull %5, i8* getelementptr inbounds ([24 x i8], [24 x i8]* @.str.4, i64 0, i64 0)) #10
  %26 = getelementptr inbounds %"class.blink::mojom::FetchAPIRequestBody", %"class.blink::mojom::FetchAPIRequestBody"* %0, i64 0, i32 2
  %27 = bitcast %"class.perfetto::TracedValue"* %9 to i8*
  %28 = bitcast %"class.perfetto::TracedValue"* %4 to i8*
  call void @llvm.lifetime.start.p0i8(i64 16, i8* nonnull %28) #10
  call void @llvm.memcpy.p0i8.p0i8.i64(i8* nonnull align 8 %28, i8* nonnull align 8 %27, i64 16, i1 false) #10
  %29 = load i8, i8* %26, align 1, !range !2
  %30 = icmp ne i8 %29, 0
  call void @_ZNO8perfetto11TracedValue12WriteBooleanEb(%"class.perfetto::TracedValue"* nonnull %4, i1 zeroext %30) #10
  call void @llvm.lifetime.end.p0i8(i64 16, i8* nonnull %28) #10
  call void @llvm.lifetime.end.p0i8(i64 16, i8* nonnull %10) #10
  ret void
}

; Function Attrs: nounwind ssp uwtable
define hidden zeroext i1 @_ZN5blink5mojom19FetchAPIRequestBody8ValidateEPKvPN4mojo8internal17ValidationContextE(i8*, %"class.mojo::internal::ValidationContext"*) local_unnamed_addr #0 align 2 {
  %3 = tail call zeroext i1 @_ZN5blink5mojom8internal24FetchAPIRequestBody_Data8ValidateEPKvPN4mojo8internal17ValidationContextE(i8* %0, %"class.mojo::internal::ValidationContext"* %1) #10
  ret i1 %3
}

declare zeroext i1 @_ZN5blink5mojom8internal24FetchAPIRequestBody_Data8ValidateEPKvPN4mojo8internal17ValidationContextE(i8*, %"class.mojo::internal::ValidationContext"*) local_unnamed_addr #2

; Function Attrs: nounwind ssp uwtable
define hidden void @_ZN5blink5mojom15FetchAPIRequestC2Ev(%"class.blink::mojom::FetchAPIRequest"*) unnamed_addr #0 align 2 {
  %2 = alloca i32, align 4
  %3 = getelementptr inbounds %"class.blink::mojom::FetchAPIRequest", %"class.blink::mojom::FetchAPIRequest"* %0, i64 0, i32 0
  store i32 1, i32* %3, align 8
  %4 = getelementptr inbounds %"class.blink::mojom::FetchAPIRequest", %"class.blink::mojom::FetchAPIRequest"* %0, i64 0, i32 1
  store i8 0, i8* %4, align 4
  %5 = getelementptr inbounds %"class.blink::mojom::FetchAPIRequest", %"class.blink::mojom::FetchAPIRequest"* %0, i64 0, i32 2
  store i32 0, i32* %5, align 8
  %6 = getelementptr inbounds %"class.blink::mojom::FetchAPIRequest", %"class.blink::mojom::FetchAPIRequest"* %0, i64 0, i32 3
  store i32 2, i32* %6, align 4
  %7 = getelementptr inbounds %"class.blink::mojom::FetchAPIRequest", %"class.blink::mojom::FetchAPIRequest"* %0, i64 0, i32 4
  tail call void @_ZN4GURLC1Ev(%class.GURL* %7) #10
  %8 = getelementptr inbounds %"class.blink::mojom::FetchAPIRequest", %"class.blink::mojom::FetchAPIRequest"* %0, i64 0, i32 5
  %9 = getelementptr inbounds %"class.blink::mojom::FetchAPIRequest", %"class.blink::mojom::FetchAPIRequest"* %0, i64 0, i32 13, i32 0, i32 0, i32 0, i32 0
  store i8 0, i8* %9, align 8
  %10 = getelementptr inbounds %"class.blink::mojom::FetchAPIRequest", %"class.blink::mojom::FetchAPIRequest"* %0, i64 0, i32 13, i32 0, i32 0, i32 0, i32 1
  %11 = bitcast %union.anon.79* %10 to i8*
  tail call void @llvm.memset.p0i8.i64(i8* align 8 %11, i8 0, i64 24, i1 false) #10
  %12 = getelementptr inbounds %"class.blink::mojom::FetchAPIRequest", %"class.blink::mojom::FetchAPIRequest"* %0, i64 0, i32 14
  %13 = bitcast i32* %2 to i8*
  %14 = bitcast %"class.std::__1::basic_string"* %8 to i8*
  call void @llvm.memset.p0i8.i64(i8* align 8 %14, i8 0, i64 84, i1 false)
  call void @llvm.lifetime.start.p0i8(i64 4, i8* nonnull %13) #10
  store i32 -1431655766, i32* %2, align 4
  %15 = call zeroext i1 @_ZN4mojo10EnumTraitsIN7network5mojom15RequestPriorityEN3net15RequestPriorityEE9FromMojomES3_PS5_(i32 1, i32* nonnull %2) #10
  %16 = load i32, i32* %2, align 4
  call void @llvm.lifetime.end.p0i8(i64 4, i8* nonnull %13) #10
  store i32 %16, i32* %12, align 8
  %17 = getelementptr inbounds %"class.blink::mojom::FetchAPIRequest", %"class.blink::mojom::FetchAPIRequest"* %0, i64 0, i32 15, i32 0, i32 0, i32 0, i32 0
  store i8 0, i8* %17, align 8
  %18 = getelementptr inbounds %"class.blink::mojom::FetchAPIRequest", %"class.blink::mojom::FetchAPIRequest"* %0, i64 0, i32 16
  store i8 0, i8* %18, align 8
  %19 = getelementptr inbounds %"class.blink::mojom::FetchAPIRequest", %"class.blink::mojom::FetchAPIRequest"* %0, i64 0, i32 17
  store i8 0, i8* %19, align 1
  %20 = getelementptr inbounds %"class.blink::mojom::FetchAPIRequest", %"class.blink::mojom::FetchAPIRequest"* %0, i64 0, i32 18
  store i8 0, i8* %20, align 2
  %21 = getelementptr inbounds %"class.blink::mojom::FetchAPIRequest", %"class.blink::mojom::FetchAPIRequest"* %0, i64 0, i32 19, i32 0, i32 0, i32 0, i32 0
  store i8 0, i8* %21, align 8
  %22 = getelementptr inbounds %"class.blink::mojom::FetchAPIRequest", %"class.blink::mojom::FetchAPIRequest"* %0, i64 0, i32 19, i32 0, i32 0, i32 0, i32 1
  %23 = bitcast %union.anon.79* %22 to i8*
  call void @llvm.memset.p0i8.i64(i8* align 8 %23, i8 0, i64 24, i1 false) #10
  ret void
}

declare void @_ZN4GURLC1Ev(%class.GURL*) unnamed_addr #2

; Function Attrs: nounwind ssp uwtable
define hidden void @_ZN5blink5mojom15FetchAPIRequestC2EN7network5mojom11RequestModeEbNS3_18RequestDestinationENS0_23RequestContextFrameTypeERK4GURLRKNSt3__112basic_stringIcNSA_11char_traitsIcEENSA_9allocatorIcEEEEN4base8flat_mapISG_SG_NS_29FetchAPIRequestHeadersCompareENSA_6vectorINSA_4pairISG_SG_EENSE_ISO_EEEEEEN4mojo9StructPtrINS0_14SerializedBlobEEE13scoped_refptrINS2_19ResourceRequestBodyEENST_INS0_8ReferrerEEENS3_15CredentialsModeENS0_14FetchCacheModeENS3_12RedirectModeERKN4absl8optionalISG_EEN3net15RequestPriorityERKNS15_INSJ_16UnguessableTokenEEEbbbS18_(%"class.blink::mojom::FetchAPIRequest"*, i32, i1 zeroext, i32, i32, %class.GURL* dereferenceable(120), %"class.std::__1::basic_string"* nocapture readonly dereferenceable(24), %"class.base::flat_map.61"* nocapture, %"class.mojo::StructPtr"* nocapture, i64, %"class.mojo::StructPtr.72"* nocapture, i32, i32, i32, %"class.absl::optional"* nocapture readonly dereferenceable(32), i32, %"class.absl::optional.80"* nocapture readonly dereferenceable(24), i1 zeroext, i1 zeroext, i1 zeroext, %"class.absl::optional"* nocapture readonly dereferenceable(32)) unnamed_addr #0 align 2 {
  %22 = zext i1 %2 to i8
  %23 = zext i1 %17 to i8
  %24 = zext i1 %18 to i8
  %25 = zext i1 %19 to i8
  %26 = getelementptr inbounds %"class.blink::mojom::FetchAPIRequest", %"class.blink::mojom::FetchAPIRequest"* %0, i64 0, i32 0
  store i32 %1, i32* %26, align 8
  %27 = getelementptr inbounds %"class.blink::mojom::FetchAPIRequest", %"class.blink::mojom::FetchAPIRequest"* %0, i64 0, i32 1
  store i8 %22, i8* %27, align 4
  %28 = getelementptr inbounds %"class.blink::mojom::FetchAPIRequest", %"class.blink::mojom::FetchAPIRequest"* %0, i64 0, i32 2
  store i32 %3, i32* %28, align 8
  %29 = getelementptr inbounds %"class.blink::mojom::FetchAPIRequest", %"class.blink::mojom::FetchAPIRequest"* %0, i64 0, i32 3
  store i32 %4, i32* %29, align 4
  %30 = getelementptr inbounds %"class.blink::mojom::FetchAPIRequest", %"class.blink::mojom::FetchAPIRequest"* %0, i64 0, i32 4
  tail call void @_ZN4GURLC1ERKS_(%class.GURL* %30, %class.GURL* dereferenceable(120) %5) #10
  %31 = getelementptr inbounds %"class.blink::mojom::FetchAPIRequest", %"class.blink::mojom::FetchAPIRequest"* %0, i64 0, i32 5
  %32 = bitcast %"class.std::__1::basic_string"* %6 to %"struct.std::__1::basic_string<char, std::__1::char_traits<char>, std::__1::allocator<char> >::__short"*
  %33 = getelementptr inbounds %"struct.std::__1::basic_string<char, std::__1::char_traits<char>, std::__1::allocator<char> >::__short", %"struct.std::__1::basic_string<char, std::__1::char_traits<char>, std::__1::allocator<char> >::__short"* %32, i64 0, i32 1, i32 0
  %34 = load i8, i8* %33, align 1
  %35 = icmp slt i8 %34, 0
  br i1 %35, label %39, label %36

36:                                               ; preds = %21
  %37 = bitcast %"class.std::__1::basic_string"* %31 to i8*
  %38 = bitcast %"class.std::__1::basic_string"* %6 to i8*
  tail call void @llvm.memcpy.p0i8.p0i8.i64(i8* align 8 %37, i8* align 8 %38, i64 24, i1 false) #10
  br label %44

39:                                               ; preds = %21
  %40 = getelementptr inbounds %"class.std::__1::basic_string", %"class.std::__1::basic_string"* %6, i64 0, i32 0, i32 0, i32 0, i32 0, i32 0, i32 0
  %41 = load i8*, i8** %40, align 8
  %42 = getelementptr inbounds %"class.std::__1::basic_string", %"class.std::__1::basic_string"* %6, i64 0, i32 0, i32 0, i32 0, i32 0, i32 0, i32 1
  %43 = load i64, i64* %42, align 8
  tail call void @_ZNSt3__112basic_stringIcNS_11char_traitsIcEENS_9allocatorIcEEE25__init_copy_ctor_externalEPKcm(%"class.std::__1::basic_string"* %31, i8* %41, i64 %43) #10
  br label %44

44:                                               ; preds = %36, %39
  %45 = getelementptr inbounds %"class.blink::mojom::FetchAPIRequest", %"class.blink::mojom::FetchAPIRequest"* %0, i64 0, i32 6
  %46 = bitcast %"class.base::flat_map.61"* %45 to i8*
  tail call void @llvm.memset.p0i8.i64(i8* align 8 %46, i8 0, i64 24, i1 false) #10
  %47 = bitcast %"class.base::flat_map.61"* %7 to i64*
  %48 = load i64, i64* %47, align 8
  %49 = bitcast %"class.base::flat_map.61"* %45 to i64*
  store i64 %48, i64* %49, align 8
  %50 = getelementptr inbounds %"class.base::flat_map.61", %"class.base::flat_map.61"* %7, i64 0, i32 0, i32 0, i32 0, i32 1
  %51 = bitcast %"struct.std::__1::pair"** %50 to i64*
  %52 = load i64, i64* %51, align 8
  %53 = getelementptr inbounds %"class.blink::mojom::FetchAPIRequest", %"class.blink::mojom::FetchAPIRequest"* %0, i64 0, i32 6, i32 0, i32 0, i32 0, i32 1
  %54 = bitcast %"struct.std::__1::pair"** %53 to i64*
  store i64 %52, i64* %54, align 8
  %55 = getelementptr inbounds %"class.base::flat_map.61", %"class.base::flat_map.61"* %7, i64 0, i32 0, i32 0, i32 0, i32 2, i32 0, i32 0
  %56 = bitcast %"struct.std::__1::pair"** %55 to i64*
  %57 = load i64, i64* %56, align 8
  %58 = getelementptr inbounds %"class.blink::mojom::FetchAPIRequest", %"class.blink::mojom::FetchAPIRequest"* %0, i64 0, i32 6, i32 0, i32 0, i32 0, i32 2, i32 0, i32 0
  %59 = bitcast %"struct.std::__1::pair"** %58 to i64*
  store i64 %57, i64* %59, align 8
  %60 = bitcast %"class.base::flat_map.61"* %7 to i8*
  tail call void @llvm.memset.p0i8.i64(i8* align 8 %60, i8 0, i64 24, i1 false) #10
  %61 = getelementptr inbounds %"class.blink::mojom::FetchAPIRequest", %"class.blink::mojom::FetchAPIRequest"* %0, i64 0, i32 7
  %62 = bitcast %"class.mojo::StructPtr"* %61 to i64*
  %63 = getelementptr inbounds %"class.mojo::StructPtr", %"class.mojo::StructPtr"* %61, i64 0, i32 0, i32 0, i32 0, i32 0
  store %"class.blink::mojom::SerializedBlob"* null, %"class.blink::mojom::SerializedBlob"** %63, align 8
  %64 = bitcast %"class.mojo::StructPtr"* %8 to i64*
  %65 = load i64, i64* %64, align 8
  store i64 %65, i64* %62, align 8
  store i64 0, i64* %64, align 8
  %66 = getelementptr inbounds %"class.blink::mojom::FetchAPIRequest", %"class.blink::mojom::FetchAPIRequest"* %0, i64 0, i32 8
  %67 = bitcast %class.scoped_refptr.70* %66 to i64*
  store i64 %9, i64* %67, align 8
  %68 = getelementptr inbounds %"class.blink::mojom::FetchAPIRequest", %"class.blink::mojom::FetchAPIRequest"* %0, i64 0, i32 9
  %69 = bitcast %"class.mojo::StructPtr.72"* %68 to i64*
  %70 = getelementptr inbounds %"class.mojo::StructPtr.72", %"class.mojo::StructPtr.72"* %68, i64 0, i32 0, i32 0, i32 0, i32 0
  store %"class.blink::mojom::Referrer"* null, %"class.blink::mojom::Referrer"** %70, align 8
  %71 = bitcast %"class.mojo::StructPtr.72"* %10 to i64*
  %72 = load i64, i64* %71, align 8
  store i64 %72, i64* %69, align 8
  store i64 0, i64* %71, align 8
  %73 = getelementptr inbounds %"class.blink::mojom::FetchAPIRequest", %"class.blink::mojom::FetchAPIRequest"* %0, i64 0, i32 10
  store i32 %11, i32* %73, align 8
  %74 = getelementptr inbounds %"class.blink::mojom::FetchAPIRequest", %"class.blink::mojom::FetchAPIRequest"* %0, i64 0, i32 11
  store i32 %12, i32* %74, align 4
  %75 = getelementptr inbounds %"class.blink::mojom::FetchAPIRequest", %"class.blink::mojom::FetchAPIRequest"* %0, i64 0, i32 12
  store i32 %13, i32* %75, align 8
  %76 = getelementptr inbounds %"class.blink::mojom::FetchAPIRequest", %"class.blink::mojom::FetchAPIRequest"* %0, i64 0, i32 13, i32 0, i32 0, i32 0, i32 0
  %77 = getelementptr inbounds %"class.absl::optional", %"class.absl::optional"* %14, i64 0, i32 0, i32 0, i32 0, i32 0
  tail call void @llvm.memset.p0i8.i64(i8* align 8 %76, i8 0, i64 32, i1 false) #10
  %78 = load i8, i8* %77, align 8, !range !2
  %79 = icmp eq i8 %78, 0
  br i1 %79, label %96, label %80

80:                                               ; preds = %44
  %81 = getelementptr inbounds %"class.absl::optional", %"class.absl::optional"* %14, i64 0, i32 0, i32 0, i32 0, i32 1, i32 0
  %82 = getelementptr inbounds %"class.blink::mojom::FetchAPIRequest", %"class.blink::mojom::FetchAPIRequest"* %0, i64 0, i32 13, i32 0, i32 0, i32 0, i32 1, i32 0
  %83 = bitcast %"class.std::__1::basic_string"* %81 to %"struct.std::__1::basic_string<char, std::__1::char_traits<char>, std::__1::allocator<char> >::__short"*
  %84 = getelementptr inbounds %"struct.std::__1::basic_string<char, std::__1::char_traits<char>, std::__1::allocator<char> >::__short", %"struct.std::__1::basic_string<char, std::__1::char_traits<char>, std::__1::allocator<char> >::__short"* %83, i64 0, i32 1, i32 0
  %85 = load i8, i8* %84, align 1
  %86 = icmp slt i8 %85, 0
  br i1 %86, label %90, label %87

87:                                               ; preds = %80
  %88 = bitcast %"class.std::__1::basic_string"* %82 to i8*
  %89 = bitcast %"class.std::__1::basic_string"* %81 to i8*
  tail call void @llvm.memcpy.p0i8.p0i8.i64(i8* align 8 %88, i8* align 8 %89, i64 24, i1 false) #10
  br label %95

90:                                               ; preds = %80
  %91 = getelementptr inbounds %"class.std::__1::basic_string", %"class.std::__1::basic_string"* %81, i64 0, i32 0, i32 0, i32 0, i32 0, i32 0, i32 0
  %92 = load i8*, i8** %91, align 8
  %93 = getelementptr inbounds %"class.absl::optional", %"class.absl::optional"* %14, i64 0, i32 0, i32 0, i32 0, i32 1, i32 0, i32 0, i32 0, i32 0, i32 0, i32 0, i32 1
  %94 = load i64, i64* %93, align 8
  tail call void @_ZNSt3__112basic_stringIcNS_11char_traitsIcEENS_9allocatorIcEEE25__init_copy_ctor_externalEPKcm(%"class.std::__1::basic_string"* %82, i8* %92, i64 %94) #10
  br label %95

95:                                               ; preds = %90, %87
  store i8 1, i8* %76, align 8
  br label %96

96:                                               ; preds = %44, %95
  %97 = getelementptr inbounds %"class.blink::mojom::FetchAPIRequest", %"class.blink::mojom::FetchAPIRequest"* %0, i64 0, i32 14
  store i32 %15, i32* %97, align 8
  %98 = getelementptr inbounds %"class.blink::mojom::FetchAPIRequest", %"class.blink::mojom::FetchAPIRequest"* %0, i64 0, i32 15, i32 0, i32 0, i32 0, i32 0
  %99 = getelementptr inbounds %"class.absl::optional.80", %"class.absl::optional.80"* %16, i64 0, i32 0, i32 0, i32 0, i32 0
  tail call void @llvm.memcpy.p0i8.p0i8.i64(i8* align 8 %98, i8* align 8 %99, i64 24, i1 false)
  %100 = getelementptr inbounds %"class.blink::mojom::FetchAPIRequest", %"class.blink::mojom::FetchAPIRequest"* %0, i64 0, i32 16
  store i8 %23, i8* %100, align 8
  %101 = getelementptr inbounds %"class.blink::mojom::FetchAPIRequest", %"class.blink::mojom::FetchAPIRequest"* %0, i64 0, i32 17
  store i8 %24, i8* %101, align 1
  %102 = getelementptr inbounds %"class.blink::mojom::FetchAPIRequest", %"class.blink::mojom::FetchAPIRequest"* %0, i64 0, i32 18
  store i8 %25, i8* %102, align 2
  %103 = getelementptr inbounds %"class.blink::mojom::FetchAPIRequest", %"class.blink::mojom::FetchAPIRequest"* %0, i64 0, i32 19, i32 0, i32 0, i32 0, i32 0
  %104 = getelementptr inbounds %"class.absl::optional", %"class.absl::optional"* %20, i64 0, i32 0, i32 0, i32 0, i32 0
  tail call void @llvm.memset.p0i8.i64(i8* align 8 %103, i8 0, i64 32, i1 false) #10
  %105 = load i8, i8* %104, align 8, !range !2
  %106 = icmp eq i8 %105, 0
  br i1 %106, label %123, label %107

107:                                              ; preds = %96
  %108 = getelementptr inbounds %"class.absl::optional", %"class.absl::optional"* %20, i64 0, i32 0, i32 0, i32 0, i32 1, i32 0
  %109 = getelementptr inbounds %"class.blink::mojom::FetchAPIRequest", %"class.blink::mojom::FetchAPIRequest"* %0, i64 0, i32 19, i32 0, i32 0, i32 0, i32 1, i32 0
  %110 = bitcast %"class.std::__1::basic_string"* %108 to %"struct.std::__1::basic_string<char, std::__1::char_traits<char>, std::__1::allocator<char> >::__short"*
  %111 = getelementptr inbounds %"struct.std::__1::basic_string<char, std::__1::char_traits<char>, std::__1::allocator<char> >::__short", %"struct.std::__1::basic_string<char, std::__1::char_traits<char>, std::__1::allocator<char> >::__short"* %110, i64 0, i32 1, i32 0
  %112 = load i8, i8* %111, align 1
  %113 = icmp slt i8 %112, 0
  br i1 %113, label %117, label %114

114:                                              ; preds = %107
  %115 = bitcast %"class.std::__1::basic_string"* %109 to i8*
  %116 = bitcast %"class.std::__1::basic_string"* %108 to i8*
  tail call void @llvm.memcpy.p0i8.p0i8.i64(i8* align 8 %115, i8* align 8 %116, i64 24, i1 false) #10
  br label %122

117:                                              ; preds = %107
  %118 = getelementptr inbounds %"class.std::__1::basic_string", %"class.std::__1::basic_string"* %108, i64 0, i32 0, i32 0, i32 0, i32 0, i32 0, i32 0
  %119 = load i8*, i8** %118, align 8
  %120 = getelementptr inbounds %"class.absl::optional", %"class.absl::optional"* %20, i64 0, i32 0, i32 0, i32 0, i32 1, i32 0, i32 0, i32 0, i32 0, i32 0, i32 0, i32 1
  %121 = load i64, i64* %120, align 8
  tail call void @_ZNSt3__112basic_stringIcNS_11char_traitsIcEENS_9allocatorIcEEE25__init_copy_ctor_externalEPKcm(%"class.std::__1::basic_string"* %109, i8* %119, i64 %121) #10
  br label %122

122:                                              ; preds = %117, %114
  store i8 1, i8* %103, align 8
  br label %123

123:                                              ; preds = %122, %96
  ret void
}

declare void @_ZN4GURLC1ERKS_(%class.GURL*, %class.GURL* dereferenceable(120)) unnamed_addr #2

; Function Attrs: argmemonly nounwind
declare void @llvm.memcpy.p0i8.p0i8.i64(i8* nocapture writeonly, i8* nocapture readonly, i64, i1 immarg) #1

; Function Attrs: nounwind ssp uwtable
define hidden void @_ZN5blink5mojom15FetchAPIRequestD2Ev(%"class.blink::mojom::FetchAPIRequest"*) unnamed_addr #0 align 2 {
  %2 = getelementptr inbounds %"class.blink::mojom::FetchAPIRequest", %"class.blink::mojom::FetchAPIRequest"* %0, i64 0, i32 19, i32 0, i32 0, i32 0, i32 0
  %3 = load i8, i8* %2, align 8, !range !2
  %4 = icmp eq i8 %3, 0
  br i1 %4, label %15, label %5

5:                                                ; preds = %1
  %6 = getelementptr inbounds %"class.blink::mojom::FetchAPIRequest", %"class.blink::mojom::FetchAPIRequest"* %0, i64 0, i32 19, i32 0, i32 0, i32 0, i32 1, i32 0
  %7 = bitcast %"class.std::__1::basic_string"* %6 to %"struct.std::__1::basic_string<char, std::__1::char_traits<char>, std::__1::allocator<char> >::__short"*
  %8 = getelementptr inbounds %"struct.std::__1::basic_string<char, std::__1::char_traits<char>, std::__1::allocator<char> >::__short", %"struct.std::__1::basic_string<char, std::__1::char_traits<char>, std::__1::allocator<char> >::__short"* %7, i64 0, i32 1, i32 0
  %9 = load i8, i8* %8, align 1
  %10 = icmp slt i8 %9, 0
  br i1 %10, label %11, label %14

11:                                               ; preds = %5
  %12 = getelementptr inbounds %"class.std::__1::basic_string", %"class.std::__1::basic_string"* %6, i64 0, i32 0, i32 0, i32 0, i32 0, i32 0, i32 0
  %13 = load i8*, i8** %12, align 8
  tail call void @_ZdlPv(i8* %13) #11
  br label %14

14:                                               ; preds = %11, %5
  store i8 0, i8* %2, align 8
  br label %15

15:                                               ; preds = %1, %14
  %16 = getelementptr inbounds %"class.blink::mojom::FetchAPIRequest", %"class.blink::mojom::FetchAPIRequest"* %0, i64 0, i32 13, i32 0, i32 0, i32 0, i32 0
  %17 = load i8, i8* %16, align 8, !range !2
  %18 = icmp eq i8 %17, 0
  br i1 %18, label %29, label %19

19:                                               ; preds = %15
  %20 = getelementptr inbounds %"class.blink::mojom::FetchAPIRequest", %"class.blink::mojom::FetchAPIRequest"* %0, i64 0, i32 13, i32 0, i32 0, i32 0, i32 1, i32 0
  %21 = bitcast %"class.std::__1::basic_string"* %20 to %"struct.std::__1::basic_string<char, std::__1::char_traits<char>, std::__1::allocator<char> >::__short"*
  %22 = getelementptr inbounds %"struct.std::__1::basic_string<char, std::__1::char_traits<char>, std::__1::allocator<char> >::__short", %"struct.std::__1::basic_string<char, std::__1::char_traits<char>, std::__1::allocator<char> >::__short"* %21, i64 0, i32 1, i32 0
  %23 = load i8, i8* %22, align 1
  %24 = icmp slt i8 %23, 0
  br i1 %24, label %25, label %28

25:                                               ; preds = %19
  %26 = getelementptr inbounds %"class.std::__1::basic_string", %"class.std::__1::basic_string"* %20, i64 0, i32 0, i32 0, i32 0, i32 0, i32 0, i32 0
  %27 = load i8*, i8** %26, align 8
  tail call void @_ZdlPv(i8* %27) #11
  br label %28

28:                                               ; preds = %25, %19
  store i8 0, i8* %16, align 8
  br label %29

29:                                               ; preds = %15, %28
  %30 = getelementptr inbounds %"class.blink::mojom::FetchAPIRequest", %"class.blink::mojom::FetchAPIRequest"* %0, i64 0, i32 9, i32 0, i32 0, i32 0, i32 0
  %31 = load %"class.blink::mojom::Referrer"*, %"class.blink::mojom::Referrer"** %30, align 8
  store %"class.blink::mojom::Referrer"* null, %"class.blink::mojom::Referrer"** %30, align 8
  %32 = icmp eq %"class.blink::mojom::Referrer"* %31, null
  br i1 %32, label %35, label %33

33:                                               ; preds = %29
  tail call void @_ZN5blink5mojom8ReferrerD1Ev(%"class.blink::mojom::Referrer"* nonnull %31) #10
  %34 = bitcast %"class.blink::mojom::Referrer"* %31 to i8*
  tail call void @_ZdlPv(i8* %34) #11
  br label %35

35:                                               ; preds = %29, %33
  %36 = getelementptr inbounds %"class.blink::mojom::FetchAPIRequest", %"class.blink::mojom::FetchAPIRequest"* %0, i64 0, i32 8, i32 0
  %37 = load %"class.network::ResourceRequestBody"*, %"class.network::ResourceRequestBody"** %36, align 8
  %38 = icmp eq %"class.network::ResourceRequestBody"* %37, null
  br i1 %38, label %45, label %39

39:                                               ; preds = %35
  %40 = getelementptr inbounds %"class.network::ResourceRequestBody", %"class.network::ResourceRequestBody"* %37, i64 0, i32 0, i32 0, i32 0, i32 0, i32 0, i32 0, i32 0, i32 0, i32 0
  %41 = atomicrmw sub i32* %40, i32 1 acq_rel
  %42 = icmp eq i32 %41, 1
  br i1 %42, label %43, label %45

43:                                               ; preds = %39
  tail call void @_ZN7network19ResourceRequestBodyD1Ev(%"class.network::ResourceRequestBody"* nonnull %37) #10
  %44 = bitcast %"class.network::ResourceRequestBody"* %37 to i8*
  tail call void @_ZdlPv(i8* %44) #11
  br label %45

45:                                               ; preds = %35, %39, %43
  %46 = getelementptr inbounds %"class.blink::mojom::FetchAPIRequest", %"class.blink::mojom::FetchAPIRequest"* %0, i64 0, i32 7, i32 0, i32 0, i32 0, i32 0
  %47 = load %"class.blink::mojom::SerializedBlob"*, %"class.blink::mojom::SerializedBlob"** %46, align 8
  store %"class.blink::mojom::SerializedBlob"* null, %"class.blink::mojom::SerializedBlob"** %46, align 8
  %48 = icmp eq %"class.blink::mojom::SerializedBlob"* %47, null
  br i1 %48, label %51, label %49

49:                                               ; preds = %45
  tail call void @_ZN5blink5mojom14SerializedBlobD1Ev(%"class.blink::mojom::SerializedBlob"* nonnull %47) #10
  %50 = bitcast %"class.blink::mojom::SerializedBlob"* %47 to i8*
  tail call void @_ZdlPv(i8* %50) #11
  br label %51

51:                                               ; preds = %45, %49
  %52 = getelementptr inbounds %"class.blink::mojom::FetchAPIRequest", %"class.blink::mojom::FetchAPIRequest"* %0, i64 0, i32 6, i32 0
  %53 = getelementptr inbounds %"class.base::internal::flat_tree.62", %"class.base::internal::flat_tree.62"* %52, i64 0, i32 0, i32 0, i32 0
  %54 = load %"struct.std::__1::pair"*, %"struct.std::__1::pair"** %53, align 8
  %55 = icmp eq %"struct.std::__1::pair"* %54, null
  br i1 %55, label %87, label %56

56:                                               ; preds = %51
  %57 = bitcast %"struct.std::__1::pair"* %54 to i8*
  %58 = getelementptr inbounds %"class.blink::mojom::FetchAPIRequest", %"class.blink::mojom::FetchAPIRequest"* %0, i64 0, i32 6, i32 0, i32 0, i32 0, i32 1
  %59 = load %"struct.std::__1::pair"*, %"struct.std::__1::pair"** %58, align 8
  %60 = icmp eq %"struct.std::__1::pair"* %59, %54
  br i1 %60, label %85, label %61

61:                                               ; preds = %56, %80
  %62 = phi %"struct.std::__1::pair"* [ %63, %80 ], [ %59, %56 ]
  %63 = getelementptr inbounds %"struct.std::__1::pair", %"struct.std::__1::pair"* %62, i64 -1
  %64 = getelementptr inbounds %"struct.std::__1::pair", %"struct.std::__1::pair"* %62, i64 -1, i32 1
  %65 = bitcast %"class.std::__1::basic_string"* %64 to %"struct.std::__1::basic_string<char, std::__1::char_traits<char>, std::__1::allocator<char> >::__short"*
  %66 = getelementptr inbounds %"struct.std::__1::basic_string<char, std::__1::char_traits<char>, std::__1::allocator<char> >::__short", %"struct.std::__1::basic_string<char, std::__1::char_traits<char>, std::__1::allocator<char> >::__short"* %65, i64 0, i32 1, i32 0
  %67 = load i8, i8* %66, align 1
  %68 = icmp slt i8 %67, 0
  br i1 %68, label %69, label %72

69:                                               ; preds = %61
  %70 = getelementptr inbounds %"class.std::__1::basic_string", %"class.std::__1::basic_string"* %64, i64 0, i32 0, i32 0, i32 0, i32 0, i32 0, i32 0
  %71 = load i8*, i8** %70, align 8
  tail call void @_ZdlPv(i8* %71) #11
  br label %72

72:                                               ; preds = %69, %61
  %73 = bitcast %"struct.std::__1::pair"* %63 to %"struct.std::__1::basic_string<char, std::__1::char_traits<char>, std::__1::allocator<char> >::__short"*
  %74 = getelementptr inbounds %"struct.std::__1::basic_string<char, std::__1::char_traits<char>, std::__1::allocator<char> >::__short", %"struct.std::__1::basic_string<char, std::__1::char_traits<char>, std::__1::allocator<char> >::__short"* %73, i64 0, i32 1, i32 0
  %75 = load i8, i8* %74, align 1
  %76 = icmp slt i8 %75, 0
  br i1 %76, label %77, label %80

77:                                               ; preds = %72
  %78 = getelementptr inbounds %"struct.std::__1::pair", %"struct.std::__1::pair"* %63, i64 0, i32 0, i32 0, i32 0, i32 0, i32 0, i32 0, i32 0
  %79 = load i8*, i8** %78, align 8
  tail call void @_ZdlPv(i8* %79) #11
  br label %80

80:                                               ; preds = %77, %72
  %81 = icmp eq %"struct.std::__1::pair"* %63, %54
  br i1 %81, label %82, label %61

82:                                               ; preds = %80
  %83 = bitcast %"class.base::internal::flat_tree.62"* %52 to i8**
  %84 = load i8*, i8** %83, align 8
  br label %85

85:                                               ; preds = %82, %56
  %86 = phi i8* [ %84, %82 ], [ %57, %56 ]
  store %"struct.std::__1::pair"* %54, %"struct.std::__1::pair"** %58, align 8
  tail call void @_ZdlPv(i8* %86) #11
  br label %87

87:                                               ; preds = %51, %85
  %88 = getelementptr inbounds %"class.blink::mojom::FetchAPIRequest", %"class.blink::mojom::FetchAPIRequest"* %0, i64 0, i32 5
  %89 = bitcast %"class.std::__1::basic_string"* %88 to %"struct.std::__1::basic_string<char, std::__1::char_traits<char>, std::__1::allocator<char> >::__short"*
  %90 = getelementptr inbounds %"struct.std::__1::basic_string<char, std::__1::char_traits<char>, std::__1::allocator<char> >::__short", %"struct.std::__1::basic_string<char, std::__1::char_traits<char>, std::__1::allocator<char> >::__short"* %89, i64 0, i32 1, i32 0
  %91 = load i8, i8* %90, align 1
  %92 = icmp slt i8 %91, 0
  br i1 %92, label %93, label %96

93:                                               ; preds = %87
  %94 = getelementptr inbounds %"class.std::__1::basic_string", %"class.std::__1::basic_string"* %88, i64 0, i32 0, i32 0, i32 0, i32 0, i32 0, i32 0
  %95 = load i8*, i8** %94, align 8
  tail call void @_ZdlPv(i8* %95) #11
  br label %96

96:                                               ; preds = %87, %93
  %97 = getelementptr inbounds %"class.blink::mojom::FetchAPIRequest", %"class.blink::mojom::FetchAPIRequest"* %0, i64 0, i32 4
  tail call void @_ZN4GURLD1Ev(%class.GURL* %97) #10
  ret void
}

; Function Attrs: nounwind
declare void @_ZN4GURLD1Ev(%class.GURL*) unnamed_addr #3

; Function Attrs: nounwind ssp uwtable
define hidden void @_ZNK5blink5mojom15FetchAPIRequest14WriteIntoTraceEN8perfetto11TracedValueE(%"class.blink::mojom::FetchAPIRequest"*, %"class.perfetto::TracedValue"*) local_unnamed_addr #0 align 2 {
  %3 = alloca %"class.perfetto::TracedValue", align 8
  %4 = alloca %"class.perfetto::TracedValue", align 8
  %5 = alloca %"class.perfetto::TracedValue", align 8
  %6 = alloca %"class.std::__1::basic_string", align 8
  %7 = alloca %"class.perfetto::TracedValue", align 8
  %8 = alloca %"class.perfetto::TracedValue", align 8
  %9 = alloca %"class.perfetto::TracedValue", align 8
  %10 = alloca %"class.perfetto::TracedValue", align 8
  %11 = alloca %"class.perfetto::TracedValue", align 8
  %12 = alloca %"class.perfetto::TracedValue", align 8
  %13 = alloca %"class.perfetto::TracedValue", align 8
  %14 = alloca %"class.perfetto::TracedValue", align 8
  %15 = alloca %"class.perfetto::TracedValue", align 8
  %16 = alloca %"class.perfetto::TracedValue", align 8
  %17 = alloca %"class.perfetto::TracedValue", align 8
  %18 = alloca %"class.perfetto::TracedValue", align 8
  %19 = alloca %"class.perfetto::TracedValue", align 8
  %20 = alloca %"class.perfetto::TracedValue", align 8
  %21 = alloca %"class.perfetto::TracedValue", align 8
  %22 = alloca %"class.perfetto::TracedValue", align 8
  %23 = alloca %"class.perfetto::TracedValue", align 8
  %24 = alloca %"class.perfetto::TracedValue", align 8
  %25 = alloca %"class.perfetto::TracedValue", align 8
  %26 = alloca %"class.perfetto::TracedValue", align 8
  %27 = alloca %"class.perfetto::TracedDictionary", align 8
  %28 = alloca %"class.perfetto::TracedValue", align 8
  %29 = alloca %"class.perfetto::TracedValue", align 8
  %30 = alloca %"class.perfetto::TracedValue", align 8
  %31 = alloca %"class.perfetto::TracedValue", align 8
  %32 = alloca %"class.perfetto::TracedValue", align 8
  %33 = alloca %"class.perfetto::TracedValue", align 8
  %34 = alloca %"class.perfetto::TracedValue", align 8
  %35 = alloca %"class.std::__1::basic_string", align 8
  %36 = alloca %"class.perfetto::TracedValue", align 8
  %37 = alloca %"class.perfetto::TracedValue", align 8
  %38 = alloca %"class.std::__1::basic_string", align 8
  %39 = alloca %"class.perfetto::TracedValue", align 8
  %40 = alloca %"class.perfetto::TracedValue", align 8
  %41 = alloca %"class.perfetto::TracedValue", align 8
  %42 = alloca %"class.perfetto::TracedValue", align 8
  %43 = alloca %"class.perfetto::TracedValue", align 8
  %44 = alloca %"class.perfetto::TracedValue", align 8
  %45 = alloca %"class.perfetto::TracedValue", align 8
  %46 = alloca %"class.perfetto::TracedValue", align 8
  %47 = alloca %"class.perfetto::TracedValue", align 8
  %48 = alloca %"class.perfetto::TracedValue", align 8
  %49 = alloca %"class.perfetto::TracedValue", align 8
  %50 = bitcast %"class.perfetto::TracedDictionary"* %27 to i8*
  call void @llvm.lifetime.start.p0i8(i64 16, i8* nonnull %50) #10
  %51 = bitcast %"class.perfetto::TracedDictionary"* %27 to i8*
  call void @llvm.memset.p0i8.i64(i8* nonnull align 8 %51, i8 -86, i64 16, i1 false)
  call void @_ZNO8perfetto11TracedValue15WriteDictionaryEv(%"class.perfetto::TracedDictionary"* nonnull sret %27, %"class.perfetto::TracedValue"* %1) #10
  call void @_ZN8perfetto16TracedDictionary7AddItemENS_12StaticStringE(%"class.perfetto::TracedValue"* nonnull sret %28, %"class.perfetto::TracedDictionary"* nonnull %27, i8* getelementptr inbounds ([5 x i8], [5 x i8]* @.str.5, i64 0, i64 0)) #10
  %52 = getelementptr inbounds %"class.blink::mojom::FetchAPIRequest", %"class.blink::mojom::FetchAPIRequest"* %0, i64 0, i32 0
  %53 = bitcast %"class.perfetto::TracedValue"* %28 to i8*
  %54 = bitcast %"class.perfetto::TracedValue"* %24 to i8*
  call void @llvm.lifetime.start.p0i8(i64 16, i8* nonnull %54) #10
  call void @llvm.memcpy.p0i8.p0i8.i64(i8* nonnull align 8 %54, i8* nonnull align 8 %53, i64 16, i1 false) #10
  %55 = load i32, i32* %52, align 4
  call void @_ZN8perfetto17TraceFormatTraitsIN7network5mojom11RequestModeEvE14WriteIntoTraceENS_11TracedValueES3_(%"class.perfetto::TracedValue"* nonnull %24, i32 %55) #10
  call void @llvm.lifetime.end.p0i8(i64 16, i8* nonnull %54) #10
  call void @_ZN8perfetto16TracedDictionary7AddItemENS_12StaticStringE(%"class.perfetto::TracedValue"* nonnull sret %29, %"class.perfetto::TracedDictionary"* nonnull %27, i8* getelementptr inbounds ([22 x i8], [22 x i8]* @.str.6, i64 0, i64 0)) #10
  %56 = getelementptr inbounds %"class.blink::mojom::FetchAPIRequest", %"class.blink::mojom::FetchAPIRequest"* %0, i64 0, i32 1
  %57 = bitcast %"class.perfetto::TracedValue"* %29 to i8*
  %58 = bitcast %"class.perfetto::TracedValue"* %23 to i8*
  call void @llvm.lifetime.start.p0i8(i64 16, i8* nonnull %58) #10
  call void @llvm.memcpy.p0i8.p0i8.i64(i8* nonnull align 8 %58, i8* nonnull align 8 %57, i64 16, i1 false) #10
  %59 = load i8, i8* %56, align 1, !range !2
  %60 = icmp ne i8 %59, 0
  call void @_ZNO8perfetto11TracedValue12WriteBooleanEb(%"class.perfetto::TracedValue"* nonnull %23, i1 zeroext %60) #10
  call void @llvm.lifetime.end.p0i8(i64 16, i8* nonnull %58) #10
  call void @_ZN8perfetto16TracedDictionary7AddItemENS_12StaticStringE(%"class.perfetto::TracedValue"* nonnull sret %30, %"class.perfetto::TracedDictionary"* nonnull %27, i8* getelementptr inbounds ([12 x i8], [12 x i8]* @.str.7, i64 0, i64 0)) #10
  %61 = getelementptr inbounds %"class.blink::mojom::FetchAPIRequest", %"class.blink::mojom::FetchAPIRequest"* %0, i64 0, i32 2
  %62 = bitcast %"class.perfetto::TracedValue"* %30 to i8*
  %63 = bitcast %"class.perfetto::TracedValue"* %22 to i8*
  call void @llvm.lifetime.start.p0i8(i64 16, i8* nonnull %63) #10
  call void @llvm.memcpy.p0i8.p0i8.i64(i8* nonnull align 8 %63, i8* nonnull align 8 %62, i64 16, i1 false) #10
  %64 = load i32, i32* %61, align 4
  call void @_ZN8perfetto17TraceFormatTraitsIN7network5mojom18RequestDestinationEvE14WriteIntoTraceENS_11TracedValueES3_(%"class.perfetto::TracedValue"* nonnull %22, i32 %64) #10
  call void @llvm.lifetime.end.p0i8(i64 16, i8* nonnull %63) #10
  call void @_ZN8perfetto16TracedDictionary7AddItemENS_12StaticStringE(%"class.perfetto::TracedValue"* nonnull sret %31, %"class.perfetto::TracedDictionary"* nonnull %27, i8* getelementptr inbounds ([11 x i8], [11 x i8]* @.str.8, i64 0, i64 0)) #10
  %65 = getelementptr inbounds %"class.blink::mojom::FetchAPIRequest", %"class.blink::mojom::FetchAPIRequest"* %0, i64 0, i32 3
  %66 = bitcast %"class.perfetto::TracedValue"* %31 to i8*
  %67 = bitcast %"class.perfetto::TracedValue"* %21 to i8*
  call void @llvm.lifetime.start.p0i8(i64 16, i8* nonnull %67) #10
  call void @llvm.memcpy.p0i8.p0i8.i64(i8* nonnull align 8 %67, i8* nonnull align 8 %66, i64 16, i1 false) #10
  %68 = load i32, i32* %65, align 4
  call void @_ZN8perfetto17TraceFormatTraitsIN5blink5mojom23RequestContextFrameTypeEvE14WriteIntoTraceENS_11TracedValueES3_(%"class.perfetto::TracedValue"* nonnull %21, i32 %68) #10
  call void @llvm.lifetime.end.p0i8(i64 16, i8* nonnull %67) #10
  call void @_ZN8perfetto16TracedDictionary7AddItemENS_12StaticStringE(%"class.perfetto::TracedValue"* nonnull sret %32, %"class.perfetto::TracedDictionary"* nonnull %27, i8* getelementptr inbounds ([4 x i8], [4 x i8]* @.str.9, i64 0, i64 0)) #10
  %69 = getelementptr inbounds %"class.blink::mojom::FetchAPIRequest", %"class.blink::mojom::FetchAPIRequest"* %0, i64 0, i32 4
  %70 = bitcast %"class.perfetto::TracedValue"* %32 to i8*
  %71 = bitcast %"class.perfetto::TracedValue"* %20 to i8*
  call void @llvm.lifetime.start.p0i8(i64 16, i8* nonnull %71) #10
  call void @llvm.memcpy.p0i8.p0i8.i64(i8* nonnull align 8 %71, i8* nonnull align 8 %70, i64 16, i1 false) #10
  call void @_ZNK4GURL14WriteIntoTraceEN8perfetto11TracedValueE(%class.GURL* %69, %"class.perfetto::TracedValue"* nonnull %20) #10
  call void @llvm.lifetime.end.p0i8(i64 16, i8* nonnull %71) #10
  call void @_ZN8perfetto16TracedDictionary7AddItemENS_12StaticStringE(%"class.perfetto::TracedValue"* nonnull sret %33, %"class.perfetto::TracedDictionary"* nonnull %27, i8* getelementptr inbounds ([7 x i8], [7 x i8]* @.str.10, i64 0, i64 0)) #10
  %72 = getelementptr inbounds %"class.blink::mojom::FetchAPIRequest", %"class.blink::mojom::FetchAPIRequest"* %0, i64 0, i32 5
  %73 = bitcast %"class.perfetto::TracedValue"* %33 to i8*
  %74 = bitcast %"class.perfetto::TracedValue"* %19 to i8*
  call void @llvm.lifetime.start.p0i8(i64 16, i8* nonnull %74) #10
  call void @llvm.memcpy.p0i8.p0i8.i64(i8* nonnull align 8 %74, i8* nonnull align 8 %73, i64 16, i1 false) #10
  call void @_ZNO8perfetto11TracedValue11WriteStringERKNSt3__112basic_stringIcNS1_11char_traitsIcEENS1_9allocatorIcEEEE(%"class.perfetto::TracedValue"* nonnull %19, %"class.std::__1::basic_string"* dereferenceable(24) %72) #10
  call void @llvm.lifetime.end.p0i8(i64 16, i8* nonnull %74) #10
  call void @_ZN8perfetto16TracedDictionary7AddItemENS_12StaticStringE(%"class.perfetto::TracedValue"* nonnull sret %34, %"class.perfetto::TracedDictionary"* nonnull %27, i8* getelementptr inbounds ([8 x i8], [8 x i8]* @.str, i64 0, i64 0)) #10
  %75 = bitcast %"class.std::__1::basic_string"* %35 to i8*
  call void @llvm.lifetime.start.p0i8(i64 24, i8* nonnull %75) #10
  %76 = bitcast %"class.std::__1::basic_string"* %35 to %"struct.std::__1::basic_string<char, std::__1::char_traits<char>, std::__1::allocator<char> >::__short"*
  %77 = getelementptr inbounds %"struct.std::__1::basic_string<char, std::__1::char_traits<char>, std::__1::allocator<char> >::__short", %"struct.std::__1::basic_string<char, std::__1::char_traits<char>, std::__1::allocator<char> >::__short"* %76, i64 0, i32 1, i32 0
  store i8 7, i8* %77, align 1
  call void @llvm.memcpy.p0i8.p0i8.i64(i8* nonnull align 8 %75, i8* align 1 getelementptr inbounds ([8 x i8], [8 x i8]* @.str.1, i64 0, i64 0), i64 7, i1 false) #10
  %78 = getelementptr inbounds i8, i8* %75, i64 7
  store i8 0, i8* %78, align 1
  call void @_ZNO8perfetto11TracedValue11WriteStringERKNSt3__112basic_stringIcNS1_11char_traitsIcEENS1_9allocatorIcEEEE(%"class.perfetto::TracedValue"* nonnull %34, %"class.std::__1::basic_string"* nonnull dereferenceable(24) %35) #10
  %79 = load i8, i8* %77, align 1
  %80 = icmp slt i8 %79, 0
  br i1 %80, label %81, label %84

81:                                               ; preds = %2
  %82 = getelementptr inbounds %"class.std::__1::basic_string", %"class.std::__1::basic_string"* %35, i64 0, i32 0, i32 0, i32 0, i32 0, i32 0, i32 0
  %83 = load i8*, i8** %82, align 8
  call void @_ZdlPv(i8* %83) #11
  br label %84

84:                                               ; preds = %2, %81
  call void @llvm.lifetime.end.p0i8(i64 24, i8* nonnull %75) #10
  call void @_ZN8perfetto16TracedDictionary7AddItemENS_12StaticStringE(%"class.perfetto::TracedValue"* nonnull sret %36, %"class.perfetto::TracedDictionary"* nonnull %27, i8* getelementptr inbounds ([5 x i8], [5 x i8]* @.str.11, i64 0, i64 0)) #10
  %85 = bitcast %"class.perfetto::TracedValue"* %36 to i8*
  %86 = getelementptr inbounds %"class.blink::mojom::FetchAPIRequest", %"class.blink::mojom::FetchAPIRequest"* %0, i64 0, i32 7, i32 0, i32 0, i32 0, i32 0
  %87 = load %"class.blink::mojom::SerializedBlob"*, %"class.blink::mojom::SerializedBlob"** %86, align 8
  %88 = bitcast %"class.perfetto::TracedValue"* %18 to i8*
  call void @llvm.lifetime.start.p0i8(i64 16, i8* nonnull %88) #10
  call void @llvm.memcpy.p0i8.p0i8.i64(i8* nonnull align 8 %88, i8* nonnull align 8 %85, i64 16, i1 false)
  %89 = icmp eq %"class.blink::mojom::SerializedBlob"* %87, null
  br i1 %89, label %90, label %91

90:                                               ; preds = %84
  call void @_ZNO8perfetto11TracedValue12WritePointerEPKv(%"class.perfetto::TracedValue"* nonnull %18, i8* null) #10
  br label %93

91:                                               ; preds = %84
  %92 = bitcast %"class.perfetto::TracedValue"* %17 to i8*
  call void @llvm.lifetime.start.p0i8(i64 16, i8* nonnull %92) #10
  call void @llvm.memcpy.p0i8.p0i8.i64(i8* nonnull align 8 %92, i8* nonnull align 8 %88, i64 16, i1 false) #10
  call void @_ZNK5blink5mojom14SerializedBlob14WriteIntoTraceEN8perfetto11TracedValueE(%"class.blink::mojom::SerializedBlob"* nonnull %87, %"class.perfetto::TracedValue"* nonnull %17) #10
  call void @llvm.lifetime.end.p0i8(i64 16, i8* nonnull %92) #10
  br label %93

93:                                               ; preds = %91, %90
  call void @llvm.lifetime.end.p0i8(i64 16, i8* nonnull %88) #10
  call void @_ZN8perfetto16TracedDictionary7AddItemENS_12StaticStringE(%"class.perfetto::TracedValue"* nonnull sret %37, %"class.perfetto::TracedDictionary"* nonnull %27, i8* getelementptr inbounds ([5 x i8], [5 x i8]* @.str.12, i64 0, i64 0)) #10
  %94 = bitcast %"class.std::__1::basic_string"* %38 to i8*
  call void @llvm.lifetime.start.p0i8(i64 24, i8* nonnull %94) #10
  %95 = bitcast %"class.std::__1::basic_string"* %38 to %"struct.std::__1::basic_string<char, std::__1::char_traits<char>, std::__1::allocator<char> >::__short"*
  %96 = getelementptr inbounds %"struct.std::__1::basic_string<char, std::__1::char_traits<char>, std::__1::allocator<char> >::__short", %"struct.std::__1::basic_string<char, std::__1::char_traits<char>, std::__1::allocator<char> >::__short"* %95, i64 0, i32 1, i32 0
  store i8 7, i8* %96, align 1
  call void @llvm.memcpy.p0i8.p0i8.i64(i8* nonnull align 8 %94, i8* align 1 getelementptr inbounds ([8 x i8], [8 x i8]* @.str.1, i64 0, i64 0), i64 7, i1 false) #10
  %97 = getelementptr inbounds i8, i8* %94, i64 7
  store i8 0, i8* %97, align 1
  call void @_ZNO8perfetto11TracedValue11WriteStringERKNSt3__112basic_stringIcNS1_11char_traitsIcEENS1_9allocatorIcEEEE(%"class.perfetto::TracedValue"* nonnull %37, %"class.std::__1::basic_string"* nonnull dereferenceable(24) %38) #10
  %98 = load i8, i8* %96, align 1
  %99 = icmp slt i8 %98, 0
  br i1 %99, label %100, label %103

100:                                              ; preds = %93
  %101 = getelementptr inbounds %"class.std::__1::basic_string", %"class.std::__1::basic_string"* %38, i64 0, i32 0, i32 0, i32 0, i32 0, i32 0, i32 0
  %102 = load i8*, i8** %101, align 8
  call void @_ZdlPv(i8* %102) #11
  br label %103

103:                                              ; preds = %93, %100
  call void @llvm.lifetime.end.p0i8(i64 24, i8* nonnull %94) #10
  call void @_ZN8perfetto16TracedDictionary7AddItemENS_12StaticStringE(%"class.perfetto::TracedValue"* nonnull sret %39, %"class.perfetto::TracedDictionary"* nonnull %27, i8* getelementptr inbounds ([9 x i8], [9 x i8]* @.str.13, i64 0, i64 0)) #10
  %104 = bitcast %"class.perfetto::TracedValue"* %39 to i8*
  %105 = getelementptr inbounds %"class.blink::mojom::FetchAPIRequest", %"class.blink::mojom::FetchAPIRequest"* %0, i64 0, i32 9, i32 0, i32 0, i32 0, i32 0
  %106 = load %"class.blink::mojom::Referrer"*, %"class.blink::mojom::Referrer"** %105, align 8
  %107 = bitcast %"class.perfetto::TracedValue"* %16 to i8*
  call void @llvm.lifetime.start.p0i8(i64 16, i8* nonnull %107) #10
  call void @llvm.memcpy.p0i8.p0i8.i64(i8* nonnull align 8 %107, i8* nonnull align 8 %104, i64 16, i1 false)
  %108 = icmp eq %"class.blink::mojom::Referrer"* %106, null
  br i1 %108, label %109, label %110

109:                                              ; preds = %103
  call void @_ZNO8perfetto11TracedValue12WritePointerEPKv(%"class.perfetto::TracedValue"* nonnull %16, i8* null) #10
  br label %112

110:                                              ; preds = %103
  %111 = bitcast %"class.perfetto::TracedValue"* %15 to i8*
  call void @llvm.lifetime.start.p0i8(i64 16, i8* nonnull %111) #10
  call void @llvm.memcpy.p0i8.p0i8.i64(i8* nonnull align 8 %111, i8* nonnull align 8 %107, i64 16, i1 false) #10
  call void @_ZNK5blink5mojom8Referrer14WriteIntoTraceEN8perfetto11TracedValueE(%"class.blink::mojom::Referrer"* nonnull %106, %"class.perfetto::TracedValue"* nonnull %15) #10
  call void @llvm.lifetime.end.p0i8(i64 16, i8* nonnull %111) #10
  br label %112

112:                                              ; preds = %109, %110
  call void @llvm.lifetime.end.p0i8(i64 16, i8* nonnull %107) #10
  call void @_ZN8perfetto16TracedDictionary7AddItemENS_12StaticStringE(%"class.perfetto::TracedValue"* nonnull sret %40, %"class.perfetto::TracedDictionary"* nonnull %27, i8* getelementptr inbounds ([17 x i8], [17 x i8]* @.str.14, i64 0, i64 0)) #10
  %113 = getelementptr inbounds %"class.blink::mojom::FetchAPIRequest", %"class.blink::mojom::FetchAPIRequest"* %0, i64 0, i32 10
  %114 = bitcast %"class.perfetto::TracedValue"* %40 to i8*
  %115 = bitcast %"class.perfetto::TracedValue"* %14 to i8*
  call void @llvm.lifetime.start.p0i8(i64 16, i8* nonnull %115) #10
  call void @llvm.memcpy.p0i8.p0i8.i64(i8* nonnull align 8 %115, i8* nonnull align 8 %114, i64 16, i1 false) #10
  %116 = load i32, i32* %113, align 4
  call void @_ZN8perfetto17TraceFormatTraitsIN7network5mojom15CredentialsModeEvE14WriteIntoTraceENS_11TracedValueES3_(%"class.perfetto::TracedValue"* nonnull %14, i32 %116) #10
  call void @llvm.lifetime.end.p0i8(i64 16, i8* nonnull %115) #10
  call void @_ZN8perfetto16TracedDictionary7AddItemENS_12StaticStringE(%"class.perfetto::TracedValue"* nonnull sret %41, %"class.perfetto::TracedDictionary"* nonnull %27, i8* getelementptr inbounds ([11 x i8], [11 x i8]* @.str.15, i64 0, i64 0)) #10
  %117 = getelementptr inbounds %"class.blink::mojom::FetchAPIRequest", %"class.blink::mojom::FetchAPIRequest"* %0, i64 0, i32 11
  %118 = bitcast %"class.perfetto::TracedValue"* %41 to i8*
  %119 = bitcast %"class.perfetto::TracedValue"* %13 to i8*
  call void @llvm.lifetime.start.p0i8(i64 16, i8* nonnull %119) #10
  call void @llvm.memcpy.p0i8.p0i8.i64(i8* nonnull align 8 %119, i8* nonnull align 8 %118, i64 16, i1 false) #10
  %120 = load i32, i32* %117, align 4
  call void @_ZN8perfetto17TraceFormatTraitsIN5blink5mojom14FetchCacheModeEvE14WriteIntoTraceENS_11TracedValueES3_(%"class.perfetto::TracedValue"* nonnull %13, i32 %120) #10
  call void @llvm.lifetime.end.p0i8(i64 16, i8* nonnull %119) #10
  call void @_ZN8perfetto16TracedDictionary7AddItemENS_12StaticStringE(%"class.perfetto::TracedValue"* nonnull sret %42, %"class.perfetto::TracedDictionary"* nonnull %27, i8* getelementptr inbounds ([14 x i8], [14 x i8]* @.str.16, i64 0, i64 0)) #10
  %121 = getelementptr inbounds %"class.blink::mojom::FetchAPIRequest", %"class.blink::mojom::FetchAPIRequest"* %0, i64 0, i32 12
  %122 = bitcast %"class.perfetto::TracedValue"* %42 to i8*
  %123 = bitcast %"class.perfetto::TracedValue"* %12 to i8*
  call void @llvm.lifetime.start.p0i8(i64 16, i8* nonnull %123) #10
  call void @llvm.memcpy.p0i8.p0i8.i64(i8* nonnull align 8 %123, i8* nonnull align 8 %122, i64 16, i1 false) #10
  %124 = load i32, i32* %121, align 4
  call void @_ZN8perfetto17TraceFormatTraitsIN7network5mojom12RedirectModeEvE14WriteIntoTraceENS_11TracedValueES3_(%"class.perfetto::TracedValue"* nonnull %12, i32 %124) #10
  call void @llvm.lifetime.end.p0i8(i64 16, i8* nonnull %123) #10
  call void @_ZN8perfetto16TracedDictionary7AddItemENS_12StaticStringE(%"class.perfetto::TracedValue"* nonnull sret %43, %"class.perfetto::TracedDictionary"* nonnull %27, i8* getelementptr inbounds ([10 x i8], [10 x i8]* @.str.17, i64 0, i64 0)) #10
  %125 = bitcast %"class.perfetto::TracedValue"* %43 to i8*
  %126 = bitcast %"class.perfetto::TracedValue"* %11 to i8*
  call void @llvm.lifetime.start.p0i8(i64 16, i8* nonnull %126) #10
  call void @llvm.memcpy.p0i8.p0i8.i64(i8* nonnull align 8 %126, i8* nonnull align 8 %125, i64 16, i1 false) #10
  %127 = getelementptr inbounds %"class.blink::mojom::FetchAPIRequest", %"class.blink::mojom::FetchAPIRequest"* %0, i64 0, i32 13, i32 0, i32 0, i32 0, i32 0
  %128 = load i8, i8* %127, align 8, !range !2
  %129 = icmp eq i8 %128, 0
  br i1 %129, label %130, label %131

130:                                              ; preds = %112
  call void @_ZNO8perfetto11TracedValue12WritePointerEPKv(%"class.perfetto::TracedValue"* nonnull %11, i8* null) #10
  br label %134

131:                                              ; preds = %112
  %132 = getelementptr inbounds %"class.blink::mojom::FetchAPIRequest", %"class.blink::mojom::FetchAPIRequest"* %0, i64 0, i32 13, i32 0, i32 0, i32 0, i32 1, i32 0
  %133 = bitcast %"class.perfetto::TracedValue"* %10 to i8*
  call void @llvm.lifetime.start.p0i8(i64 16, i8* nonnull %133) #10
  call void @llvm.memcpy.p0i8.p0i8.i64(i8* nonnull align 8 %133, i8* nonnull align 8 %126, i64 16, i1 false) #10
  call void @_ZNO8perfetto11TracedValue11WriteStringERKNSt3__112basic_stringIcNS1_11char_traitsIcEENS1_9allocatorIcEEEE(%"class.perfetto::TracedValue"* nonnull %10, %"class.std::__1::basic_string"* dereferenceable(24) %132) #10
  call void @llvm.lifetime.end.p0i8(i64 16, i8* nonnull %133) #10
  br label %134

134:                                              ; preds = %130, %131
  call void @llvm.lifetime.end.p0i8(i64 16, i8* nonnull %126) #10
  call void @_ZN8perfetto16TracedDictionary7AddItemENS_12StaticStringE(%"class.perfetto::TracedValue"* nonnull sret %44, %"class.perfetto::TracedDictionary"* nonnull %27, i8* getelementptr inbounds ([9 x i8], [9 x i8]* @.str.18, i64 0, i64 0)) #10
  %135 = getelementptr inbounds %"class.blink::mojom::FetchAPIRequest", %"class.blink::mojom::FetchAPIRequest"* %0, i64 0, i32 14
  %136 = bitcast %"class.perfetto::TracedValue"* %44 to i8*
  %137 = bitcast %"class.perfetto::TracedValue"* %9 to i8*
  call void @llvm.lifetime.start.p0i8(i64 16, i8* nonnull %137) #10
  call void @llvm.memcpy.p0i8.p0i8.i64(i8* nonnull align 8 %137, i8* nonnull align 8 %136, i64 16, i1 false) #10
  %138 = load i32, i32* %135, align 4
  %139 = zext i32 %138 to i64
  call void @_ZNO8perfetto11TracedValue11WriteUInt64Em(%"class.perfetto::TracedValue"* nonnull %9, i64 %139) #10
  call void @llvm.lifetime.end.p0i8(i64 16, i8* nonnull %137) #10
  call void @_ZN8perfetto16TracedDictionary7AddItemENS_12StaticStringE(%"class.perfetto::TracedValue"* nonnull sret %45, %"class.perfetto::TracedDictionary"* nonnull %27, i8* getelementptr inbounds ([16 x i8], [16 x i8]* @.str.19, i64 0, i64 0)) #10
  %140 = bitcast %"class.perfetto::TracedValue"* %45 to i8*
  %141 = bitcast %"class.perfetto::TracedValue"* %8 to i8*
  call void @llvm.lifetime.start.p0i8(i64 16, i8* nonnull %141) #10
  call void @llvm.memcpy.p0i8.p0i8.i64(i8* nonnull align 8 %141, i8* nonnull align 8 %140, i64 16, i1 false) #10
  %142 = getelementptr inbounds %"class.blink::mojom::FetchAPIRequest", %"class.blink::mojom::FetchAPIRequest"* %0, i64 0, i32 15, i32 0, i32 0, i32 0, i32 0
  %143 = load i8, i8* %142, align 8, !range !2
  %144 = icmp eq i8 %143, 0
  br i1 %144, label %145, label %146

145:                                              ; preds = %134
  call void @_ZNO8perfetto11TracedValue12WritePointerEPKv(%"class.perfetto::TracedValue"* nonnull %8, i8* null) #10
  br label %158

146:                                              ; preds = %134
  %147 = bitcast %"class.perfetto::TracedValue"* %7 to i8*
  call void @llvm.lifetime.start.p0i8(i64 16, i8* nonnull %147) #10
  call void @llvm.memcpy.p0i8.p0i8.i64(i8* nonnull align 8 %147, i8* nonnull align 8 %141, i64 16, i1 false) #10
  %148 = bitcast %"class.std::__1::basic_string"* %6 to i8*
  call void @llvm.lifetime.start.p0i8(i64 24, i8* nonnull %148) #10
  %149 = getelementptr inbounds %"class.blink::mojom::FetchAPIRequest", %"class.blink::mojom::FetchAPIRequest"* %0, i64 0, i32 15, i32 0, i32 0, i32 0, i32 1, i32 0, i32 0
  call void @_ZNK4base5Token8ToStringEv(%"class.std::__1::basic_string"* nonnull sret %6, %"class.base::Token"* %149) #10
  call void @_ZNO8perfetto11TracedValue11WriteStringERKNSt3__112basic_stringIcNS1_11char_traitsIcEENS1_9allocatorIcEEEE(%"class.perfetto::TracedValue"* nonnull %7, %"class.std::__1::basic_string"* nonnull dereferenceable(24) %6) #10
  %150 = bitcast %"class.std::__1::basic_string"* %6 to %"struct.std::__1::basic_string<char, std::__1::char_traits<char>, std::__1::allocator<char> >::__short"*
  %151 = getelementptr inbounds %"struct.std::__1::basic_string<char, std::__1::char_traits<char>, std::__1::allocator<char> >::__short", %"struct.std::__1::basic_string<char, std::__1::char_traits<char>, std::__1::allocator<char> >::__short"* %150, i64 0, i32 1, i32 0
  %152 = load i8, i8* %151, align 1
  %153 = icmp slt i8 %152, 0
  br i1 %153, label %154, label %157

154:                                              ; preds = %146
  %155 = getelementptr inbounds %"class.std::__1::basic_string", %"class.std::__1::basic_string"* %6, i64 0, i32 0, i32 0, i32 0, i32 0, i32 0, i32 0
  %156 = load i8*, i8** %155, align 8
  call void @_ZdlPv(i8* %156) #11
  br label %157

157:                                              ; preds = %154, %146
  call void @llvm.lifetime.end.p0i8(i64 24, i8* nonnull %148) #10
  call void @llvm.lifetime.end.p0i8(i64 16, i8* nonnull %147) #10
  br label %158

158:                                              ; preds = %145, %157
  call void @llvm.lifetime.end.p0i8(i64 16, i8* nonnull %141) #10
  call void @_ZN8perfetto16TracedDictionary7AddItemENS_12StaticStringE(%"class.perfetto::TracedValue"* nonnull sret %46, %"class.perfetto::TracedDictionary"* nonnull %27, i8* getelementptr inbounds ([10 x i8], [10 x i8]* @.str.20, i64 0, i64 0)) #10
  %159 = getelementptr inbounds %"class.blink::mojom::FetchAPIRequest", %"class.blink::mojom::FetchAPIRequest"* %0, i64 0, i32 16
  %160 = bitcast %"class.perfetto::TracedValue"* %46 to i8*
  %161 = bitcast %"class.perfetto::TracedValue"* %5 to i8*
  call void @llvm.lifetime.start.p0i8(i64 16, i8* nonnull %161) #10
  call void @llvm.memcpy.p0i8.p0i8.i64(i8* nonnull align 8 %161, i8* nonnull align 8 %160, i64 16, i1 false) #10
  %162 = load i8, i8* %159, align 1, !range !2
  %163 = icmp ne i8 %162, 0
  call void @_ZNO8perfetto11TracedValue12WriteBooleanEb(%"class.perfetto::TracedValue"* nonnull %5, i1 zeroext %163) #10
  call void @llvm.lifetime.end.p0i8(i64 16, i8* nonnull %161) #10
  call void @_ZN8perfetto16TracedDictionary7AddItemENS_12StaticStringE(%"class.perfetto::TracedValue"* nonnull sret %47, %"class.perfetto::TracedDictionary"* nonnull %27, i8* getelementptr inbounds ([10 x i8], [10 x i8]* @.str.21, i64 0, i64 0)) #10
  %164 = getelementptr inbounds %"class.blink::mojom::FetchAPIRequest", %"class.blink::mojom::FetchAPIRequest"* %0, i64 0, i32 17
  %165 = bitcast %"class.perfetto::TracedValue"* %47 to i8*
  %166 = bitcast %"class.perfetto::TracedValue"* %4 to i8*
  call void @llvm.lifetime.start.p0i8(i64 16, i8* nonnull %166) #10
  call void @llvm.memcpy.p0i8.p0i8.i64(i8* nonnull align 8 %166, i8* nonnull align 8 %165, i64 16, i1 false) #10
  %167 = load i8, i8* %164, align 1, !range !2
  %168 = icmp ne i8 %167, 0
  call void @_ZNO8perfetto11TracedValue12WriteBooleanEb(%"class.perfetto::TracedValue"* nonnull %4, i1 zeroext %168) #10
  call void @llvm.lifetime.end.p0i8(i64 16, i8* nonnull %166) #10
  call void @_ZN8perfetto16TracedDictionary7AddItemENS_12StaticStringE(%"class.perfetto::TracedValue"* nonnull sret %48, %"class.perfetto::TracedDictionary"* nonnull %27, i8* getelementptr inbounds ([22 x i8], [22 x i8]* @.str.22, i64 0, i64 0)) #10
  %169 = getelementptr inbounds %"class.blink::mojom::FetchAPIRequest", %"class.blink::mojom::FetchAPIRequest"* %0, i64 0, i32 18
  %170 = bitcast %"class.perfetto::TracedValue"* %48 to i8*
  %171 = bitcast %"class.perfetto::TracedValue"* %3 to i8*
  call void @llvm.lifetime.start.p0i8(i64 16, i8* nonnull %171) #10
  call void @llvm.memcpy.p0i8.p0i8.i64(i8* nonnull align 8 %171, i8* nonnull align 8 %170, i64 16, i1 false) #10
  %172 = load i8, i8* %169, align 1, !range !2
  %173 = icmp ne i8 %172, 0
  call void @_ZNO8perfetto11TracedValue12WriteBooleanEb(%"class.perfetto::TracedValue"* nonnull %3, i1 zeroext %173) #10
  call void @llvm.lifetime.end.p0i8(i64 16, i8* nonnull %171) #10
  call void @_ZN8perfetto16TracedDictionary7AddItemENS_12StaticStringE(%"class.perfetto::TracedValue"* nonnull sret %49, %"class.perfetto::TracedDictionary"* nonnull %27, i8* getelementptr inbounds ([18 x i8], [18 x i8]* @.str.23, i64 0, i64 0)) #10
  %174 = bitcast %"class.perfetto::TracedValue"* %49 to i8*
  %175 = bitcast %"class.perfetto::TracedValue"* %26 to i8*
  call void @llvm.lifetime.start.p0i8(i64 16, i8* nonnull %175) #10
  call void @llvm.memcpy.p0i8.p0i8.i64(i8* nonnull align 8 %175, i8* nonnull align 8 %174, i64 16, i1 false) #10
  %176 = getelementptr inbounds %"class.blink::mojom::FetchAPIRequest", %"class.blink::mojom::FetchAPIRequest"* %0, i64 0, i32 19, i32 0, i32 0, i32 0, i32 0
  %177 = load i8, i8* %176, align 8, !range !2
  %178 = icmp eq i8 %177, 0
  br i1 %178, label %179, label %180

179:                                              ; preds = %158
  call void @_ZNO8perfetto11TracedValue12WritePointerEPKv(%"class.perfetto::TracedValue"* nonnull %26, i8* null) #10
  br label %183

180:                                              ; preds = %158
  %181 = getelementptr inbounds %"class.blink::mojom::FetchAPIRequest", %"class.blink::mojom::FetchAPIRequest"* %0, i64 0, i32 19, i32 0, i32 0, i32 0, i32 1, i32 0
  %182 = bitcast %"class.perfetto::TracedValue"* %25 to i8*
  call void @llvm.lifetime.start.p0i8(i64 16, i8* nonnull %182) #10
  call void @llvm.memcpy.p0i8.p0i8.i64(i8* nonnull align 8 %182, i8* nonnull align 8 %175, i64 16, i1 false) #10
  call void @_ZNO8perfetto11TracedValue11WriteStringERKNSt3__112basic_stringIcNS1_11char_traitsIcEENS1_9allocatorIcEEEE(%"class.perfetto::TracedValue"* nonnull %25, %"class.std::__1::basic_string"* dereferenceable(24) %181) #10
  call void @llvm.lifetime.end.p0i8(i64 16, i8* nonnull %182) #10
  br label %183

183:                                              ; preds = %180, %179
  call void @llvm.lifetime.end.p0i8(i64 16, i8* nonnull %175) #10
  call void @llvm.lifetime.end.p0i8(i64 16, i8* nonnull %50) #10
  ret void
}

; Function Attrs: nounwind ssp uwtable
define hidden zeroext i1 @_ZN5blink5mojom15FetchAPIRequest8ValidateEPKvPN4mojo8internal17ValidationContextE(i8*, %"class.mojo::internal::ValidationContext"*) local_unnamed_addr #0 align 2 {
  %3 = tail call zeroext i1 @_ZN5blink5mojom8internal20FetchAPIRequest_Data8ValidateEPKvPN4mojo8internal17ValidationContextE(i8* %0, %"class.mojo::internal::ValidationContext"* %1) #10
  ret i1 %3
}

declare zeroext i1 @_ZN5blink5mojom8internal20FetchAPIRequest_Data8ValidateEPKvPN4mojo8internal17ValidationContextE(i8*, %"class.mojo::internal::ValidationContext"*) local_unnamed_addr #2

; Function Attrs: nounwind ssp uwtable
define hidden zeroext i1 @_ZN4mojo12StructTraitsIN5blink5mojom30FetchAPIRequestHeadersDataViewENS_9StructPtrINS2_22FetchAPIRequestHeadersEEEE4ReadES3_PS6_(%"class.blink::mojom::internal::FetchAPIRequestHeaders_Data"*, %"class.mojo::Message"*, %"class.mojo::StructPtr.85"* nocapture) local_unnamed_addr #0 align 2 {
  %4 = tail call i8* @_Znwm(i64 24) #11, !noalias !3
  tail call void @llvm.memset.p0i8.i64(i8* nonnull align 8 %4, i8 0, i64 24, i1 false) #10, !noalias !3
  %5 = ptrtoint i8* %4 to i64
  %6 = bitcast i8* %4 to %"class.base::flat_map"*
  %7 = getelementptr inbounds %"class.blink::mojom::internal::FetchAPIRequestHeaders_Data", %"class.blink::mojom::internal::FetchAPIRequestHeaders_Data"* %0, i64 0, i32 1
  %8 = getelementptr inbounds %"struct.mojo::internal::Pointer", %"struct.mojo::internal::Pointer"* %7, i64 0, i32 0
  %9 = load i64, i64* %8, align 8
  %10 = icmp eq i64 %9, 0
  %11 = bitcast %"struct.mojo::internal::Pointer"* %7 to i8*
  %12 = getelementptr inbounds i8, i8* %11, i64 %9
  %13 = bitcast i8* %12 to %"class.mojo::internal::Map_Data"*
  %14 = select i1 %10, %"class.mojo::internal::Map_Data"* null, %"class.mojo::internal::Map_Data"* %13
  %15 = tail call zeroext i1 @_ZN4mojo8internal10SerializerINS_11MapDataViewINS_14StringDataViewES3_EEN4base8flat_mapINSt3__112basic_stringIcNS7_11char_traitsIcEENS7_9allocatorIcEEEESD_NS7_4lessIvEENS7_6vectorINS7_4pairISD_SD_EENSB_ISI_EEEEEEE11DeserializeEPNS0_8Map_DataINS0_7PointerINS0_10Array_DataIcEEEESR_EEPSL_PNS_7MessageE(%"class.mojo::internal::Map_Data"* %14, %"class.base::flat_map"* nonnull %6, %"class.mojo::Message"* %1) #10
  %16 = getelementptr inbounds %"class.mojo::StructPtr.85", %"class.mojo::StructPtr.85"* %2, i64 0, i32 0, i32 0, i32 0, i32 0
  %17 = load %"class.blink::mojom::FetchAPIRequestHeaders"*, %"class.blink::mojom::FetchAPIRequestHeaders"** %16, align 8
  store %"class.blink::mojom::FetchAPIRequestHeaders"* null, %"class.blink::mojom::FetchAPIRequestHeaders"** %16, align 8
  %18 = icmp eq %"class.blink::mojom::FetchAPIRequestHeaders"* %17, null
  br i1 %18, label %19, label %21

19:                                               ; preds = %3
  %20 = bitcast %"class.mojo::StructPtr.85"* %2 to i64*
  store i64 %5, i64* %20, align 8
  br label %98

21:                                               ; preds = %3
  %22 = getelementptr inbounds %"class.blink::mojom::FetchAPIRequestHeaders", %"class.blink::mojom::FetchAPIRequestHeaders"* %17, i64 0, i32 0, i32 0, i32 0, i32 0, i32 0
  %23 = load %"struct.std::__1::pair"*, %"struct.std::__1::pair"** %22, align 8
  %24 = icmp eq %"struct.std::__1::pair"* %23, null
  br i1 %24, label %56, label %25

25:                                               ; preds = %21
  %26 = bitcast %"struct.std::__1::pair"* %23 to i8*
  %27 = getelementptr inbounds %"class.blink::mojom::FetchAPIRequestHeaders", %"class.blink::mojom::FetchAPIRequestHeaders"* %17, i64 0, i32 0, i32 0, i32 0, i32 0, i32 1
  %28 = load %"struct.std::__1::pair"*, %"struct.std::__1::pair"** %27, align 8
  %29 = icmp eq %"struct.std::__1::pair"* %28, %23
  br i1 %29, label %54, label %30

30:                                               ; preds = %25, %49
  %31 = phi %"struct.std::__1::pair"* [ %32, %49 ], [ %28, %25 ]
  %32 = getelementptr inbounds %"struct.std::__1::pair", %"struct.std::__1::pair"* %31, i64 -1
  %33 = getelementptr inbounds %"struct.std::__1::pair", %"struct.std::__1::pair"* %31, i64 -1, i32 1
  %34 = bitcast %"class.std::__1::basic_string"* %33 to %"struct.std::__1::basic_string<char, std::__1::char_traits<char>, std::__1::allocator<char> >::__short"*
  %35 = getelementptr inbounds %"struct.std::__1::basic_string<char, std::__1::char_traits<char>, std::__1::allocator<char> >::__short", %"struct.std::__1::basic_string<char, std::__1::char_traits<char>, std::__1::allocator<char> >::__short"* %34, i64 0, i32 1, i32 0
  %36 = load i8, i8* %35, align 1
  %37 = icmp slt i8 %36, 0
  br i1 %37, label %38, label %41

38:                                               ; preds = %30
  %39 = getelementptr inbounds %"class.std::__1::basic_string", %"class.std::__1::basic_string"* %33, i64 0, i32 0, i32 0, i32 0, i32 0, i32 0, i32 0
  %40 = load i8*, i8** %39, align 8
  tail call void @_ZdlPv(i8* %40) #11
  br label %41

41:                                               ; preds = %38, %30
  %42 = bitcast %"struct.std::__1::pair"* %32 to %"struct.std::__1::basic_string<char, std::__1::char_traits<char>, std::__1::allocator<char> >::__short"*
  %43 = getelementptr inbounds %"struct.std::__1::basic_string<char, std::__1::char_traits<char>, std::__1::allocator<char> >::__short", %"struct.std::__1::basic_string<char, std::__1::char_traits<char>, std::__1::allocator<char> >::__short"* %42, i64 0, i32 1, i32 0
  %44 = load i8, i8* %43, align 1
  %45 = icmp slt i8 %44, 0
  br i1 %45, label %46, label %49

46:                                               ; preds = %41
  %47 = getelementptr inbounds %"struct.std::__1::pair", %"struct.std::__1::pair"* %32, i64 0, i32 0, i32 0, i32 0, i32 0, i32 0, i32 0, i32 0
  %48 = load i8*, i8** %47, align 8
  tail call void @_ZdlPv(i8* %48) #11
  br label %49

49:                                               ; preds = %46, %41
  %50 = icmp eq %"struct.std::__1::pair"* %32, %23
  br i1 %50, label %51, label %30

51:                                               ; preds = %49
  %52 = bitcast %"class.blink::mojom::FetchAPIRequestHeaders"* %17 to i8**
  %53 = load i8*, i8** %52, align 8
  br label %54

54:                                               ; preds = %51, %25
  %55 = phi i8* [ %53, %51 ], [ %26, %25 ]
  store %"struct.std::__1::pair"* %23, %"struct.std::__1::pair"** %27, align 8
  tail call void @_ZdlPv(i8* %55) #11
  br label %56

56:                                               ; preds = %21, %54
  %57 = bitcast %"class.blink::mojom::FetchAPIRequestHeaders"* %17 to i8*
  tail call void @_ZdlPv(i8* %57) #11
  %58 = bitcast %"class.mojo::StructPtr.85"* %2 to i64*
  %59 = load %"class.blink::mojom::FetchAPIRequestHeaders"*, %"class.blink::mojom::FetchAPIRequestHeaders"** %16, align 8
  store i64 %5, i64* %58, align 8
  %60 = icmp eq %"class.blink::mojom::FetchAPIRequestHeaders"* %59, null
  br i1 %60, label %98, label %61

61:                                               ; preds = %56
  %62 = getelementptr inbounds %"class.blink::mojom::FetchAPIRequestHeaders", %"class.blink::mojom::FetchAPIRequestHeaders"* %59, i64 0, i32 0, i32 0, i32 0, i32 0, i32 0
  %63 = load %"struct.std::__1::pair"*, %"struct.std::__1::pair"** %62, align 8
  %64 = icmp eq %"struct.std::__1::pair"* %63, null
  br i1 %64, label %96, label %65

65:                                               ; preds = %61
  %66 = bitcast %"struct.std::__1::pair"* %63 to i8*
  %67 = getelementptr inbounds %"class.blink::mojom::FetchAPIRequestHeaders", %"class.blink::mojom::FetchAPIRequestHeaders"* %59, i64 0, i32 0, i32 0, i32 0, i32 0, i32 1
  %68 = load %"struct.std::__1::pair"*, %"struct.std::__1::pair"** %67, align 8
  %69 = icmp eq %"struct.std::__1::pair"* %68, %63
  br i1 %69, label %94, label %70

70:                                               ; preds = %65, %89
  %71 = phi %"struct.std::__1::pair"* [ %72, %89 ], [ %68, %65 ]
  %72 = getelementptr inbounds %"struct.std::__1::pair", %"struct.std::__1::pair"* %71, i64 -1
  %73 = getelementptr inbounds %"struct.std::__1::pair", %"struct.std::__1::pair"* %71, i64 -1, i32 1
  %74 = bitcast %"class.std::__1::basic_string"* %73 to %"struct.std::__1::basic_string<char, std::__1::char_traits<char>, std::__1::allocator<char> >::__short"*
  %75 = getelementptr inbounds %"struct.std::__1::basic_string<char, std::__1::char_traits<char>, std::__1::allocator<char> >::__short", %"struct.std::__1::basic_string<char, std::__1::char_traits<char>, std::__1::allocator<char> >::__short"* %74, i64 0, i32 1, i32 0
  %76 = load i8, i8* %75, align 1
  %77 = icmp slt i8 %76, 0
  br i1 %77, label %78, label %81

78:                                               ; preds = %70
  %79 = getelementptr inbounds %"class.std::__1::basic_string", %"class.std::__1::basic_string"* %73, i64 0, i32 0, i32 0, i32 0, i32 0, i32 0, i32 0
  %80 = load i8*, i8** %79, align 8
  tail call void @_ZdlPv(i8* %80) #11
  br label %81

81:                                               ; preds = %78, %70
  %82 = bitcast %"struct.std::__1::pair"* %72 to %"struct.std::__1::basic_string<char, std::__1::char_traits<char>, std::__1::allocator<char> >::__short"*
  %83 = getelementptr inbounds %"struct.std::__1::basic_string<char, std::__1::char_traits<char>, std::__1::allocator<char> >::__short", %"struct.std::__1::basic_string<char, std::__1::char_traits<char>, std::__1::allocator<char> >::__short"* %82, i64 0, i32 1, i32 0
  %84 = load i8, i8* %83, align 1
  %85 = icmp slt i8 %84, 0
  br i1 %85, label %86, label %89

86:                                               ; preds = %81
  %87 = getelementptr inbounds %"struct.std::__1::pair", %"struct.std::__1::pair"* %72, i64 0, i32 0, i32 0, i32 0, i32 0, i32 0, i32 0, i32 0
  %88 = load i8*, i8** %87, align 8
  tail call void @_ZdlPv(i8* %88) #11
  br label %89

89:                                               ; preds = %86, %81
  %90 = icmp eq %"struct.std::__1::pair"* %72, %63
  br i1 %90, label %91, label %70

91:                                               ; preds = %89
  %92 = bitcast %"class.blink::mojom::FetchAPIRequestHeaders"* %59 to i8**
  %93 = load i8*, i8** %92, align 8
  br label %94

94:                                               ; preds = %91, %65
  %95 = phi i8* [ %93, %91 ], [ %66, %65 ]
  store %"struct.std::__1::pair"* %63, %"struct.std::__1::pair"** %67, align 8
  tail call void @_ZdlPv(i8* %95) #11
  br label %96

96:                                               ; preds = %94, %61
  %97 = bitcast %"class.blink::mojom::FetchAPIRequestHeaders"* %59 to i8*
  tail call void @_ZdlPv(i8* %97) #11
  br label %98

98:                                               ; preds = %19, %56, %96
  ret i1 %15
}

; Function Attrs: nounwind ssp uwtable
define hidden zeroext i1 @_ZN4mojo12StructTraitsIN5blink5mojom27FetchAPIRequestBodyDataViewENS_9StructPtrINS2_19FetchAPIRequestBodyEEEE4ReadES3_PS6_(%"class.blink::mojom::internal::FetchAPIRequestBody_Data"*, %"class.mojo::Message"*, %"class.mojo::StructPtr.93"* nocapture) local_unnamed_addr #0 align 2 {
  %4 = tail call i8* @_Znwm(i64 40) #11, !noalias !6
  tail call void @llvm.memset.p0i8.i64(i8* nonnull align 8 %4, i8 0, i64 33, i1 false) #10, !noalias !6
  %5 = ptrtoint i8* %4 to i64
  %6 = getelementptr inbounds %"class.blink::mojom::internal::FetchAPIRequestBody_Data", %"class.blink::mojom::internal::FetchAPIRequestBody_Data"* %0, i64 0, i32 1
  %7 = getelementptr inbounds %"struct.mojo::internal::Pointer.92", %"struct.mojo::internal::Pointer.92"* %6, i64 0, i32 0
  %8 = load i64, i64* %7, align 8
  %9 = icmp eq i64 %8, 0
  br i1 %9, label %10, label %13

10:                                               ; preds = %3
  %11 = getelementptr inbounds i8, i8* %4, i64 8
  %12 = bitcast i8* %11 to %"class.network::DataElement"**
  store %"class.network::DataElement"* null, %"class.network::DataElement"** %12, align 8
  br label %19

13:                                               ; preds = %3
  %14 = bitcast i8* %4 to %"class.std::__1::vector.37"*
  %15 = bitcast %"struct.mojo::internal::Pointer.92"* %6 to i8*
  %16 = getelementptr inbounds i8, i8* %15, i64 %8
  %17 = bitcast i8* %16 to %"class.mojo::internal::Array_Data.138"*
  %18 = tail call zeroext i1 @_ZN4mojo8internal15ArraySerializerINS_13ArrayDataViewIN7network5mojom19DataElementDataViewEEENSt3__16vectorINS3_11DataElementENS7_9allocatorIS9_EEEENS0_13ArrayIteratorINS_11ArrayTraitsISC_EESC_Lb0EEEvE19DeserializeElementsEPNS0_10Array_DataINS4_8internal16DataElement_DataEEEPSC_PNS_7MessageE(%"class.mojo::internal::Array_Data.138"* nonnull %17, %"class.std::__1::vector.37"* nonnull %14, %"class.mojo::Message"* %1) #10
  br i1 %18, label %19, label %28

19:                                               ; preds = %13, %10
  %20 = getelementptr inbounds %"class.blink::mojom::internal::FetchAPIRequestBody_Data", %"class.blink::mojom::internal::FetchAPIRequestBody_Data"* %0, i64 0, i32 2
  %21 = load i64, i64* %20, align 1
  %22 = getelementptr inbounds i8, i8* %4, i64 24
  %23 = bitcast i8* %22 to i64*
  store i64 %21, i64* %23, align 8
  %24 = getelementptr inbounds %"class.blink::mojom::internal::FetchAPIRequestBody_Data", %"class.blink::mojom::internal::FetchAPIRequestBody_Data"* %0, i64 0, i32 3
  %25 = load i8, i8* %24, align 1
  %26 = and i8 %25, 1
  %27 = getelementptr inbounds i8, i8* %4, i64 32
  store i8 %26, i8* %27, align 8
  br label %28

28:                                               ; preds = %13, %19
  %29 = phi i1 [ true, %19 ], [ false, %13 ]
  %30 = getelementptr inbounds %"class.mojo::StructPtr.93", %"class.mojo::StructPtr.93"* %2, i64 0, i32 0, i32 0, i32 0, i32 0
  %31 = load %"class.blink::mojom::FetchAPIRequestBody"*, %"class.blink::mojom::FetchAPIRequestBody"** %30, align 8
  store %"class.blink::mojom::FetchAPIRequestBody"* null, %"class.blink::mojom::FetchAPIRequestBody"** %30, align 8
  %32 = icmp eq %"class.blink::mojom::FetchAPIRequestBody"* %31, null
  br i1 %32, label %33, label %35

33:                                               ; preds = %28
  %34 = bitcast %"class.mojo::StructPtr.93"* %2 to i64*
  store i64 %5, i64* %34, align 8
  br label %78

35:                                               ; preds = %28
  %36 = getelementptr inbounds %"class.blink::mojom::FetchAPIRequestBody", %"class.blink::mojom::FetchAPIRequestBody"* %31, i64 0, i32 0, i32 0, i32 0
  %37 = load %"class.network::DataElement"*, %"class.network::DataElement"** %36, align 8
  %38 = icmp eq %"class.network::DataElement"* %37, null
  br i1 %38, label %53, label %39

39:                                               ; preds = %35
  %40 = bitcast %"class.network::DataElement"* %37 to i8*
  %41 = getelementptr inbounds %"class.blink::mojom::FetchAPIRequestBody", %"class.blink::mojom::FetchAPIRequestBody"* %31, i64 0, i32 0, i32 0, i32 1
  %42 = load %"class.network::DataElement"*, %"class.network::DataElement"** %41, align 8
  %43 = icmp eq %"class.network::DataElement"* %42, %37
  br i1 %43, label %51, label %44

44:                                               ; preds = %39, %44
  %45 = phi %"class.network::DataElement"* [ %46, %44 ], [ %42, %39 ]
  %46 = getelementptr inbounds %"class.network::DataElement", %"class.network::DataElement"* %45, i64 -1
  tail call void @_ZN7network11DataElementD1Ev(%"class.network::DataElement"* %46) #10
  %47 = icmp eq %"class.network::DataElement"* %46, %37
  br i1 %47, label %48, label %44

48:                                               ; preds = %44
  %49 = bitcast %"class.blink::mojom::FetchAPIRequestBody"* %31 to i8**
  %50 = load i8*, i8** %49, align 8
  br label %51

51:                                               ; preds = %48, %39
  %52 = phi i8* [ %50, %48 ], [ %40, %39 ]
  store %"class.network::DataElement"* %37, %"class.network::DataElement"** %41, align 8
  tail call void @_ZdlPv(i8* %52) #11
  br label %53

53:                                               ; preds = %35, %51
  %54 = bitcast %"class.blink::mojom::FetchAPIRequestBody"* %31 to i8*
  tail call void @_ZdlPv(i8* %54) #11
  %55 = bitcast %"class.mojo::StructPtr.93"* %2 to i64*
  %56 = load %"class.blink::mojom::FetchAPIRequestBody"*, %"class.blink::mojom::FetchAPIRequestBody"** %30, align 8
  store i64 %5, i64* %55, align 8
  %57 = icmp eq %"class.blink::mojom::FetchAPIRequestBody"* %56, null
  br i1 %57, label %78, label %58

58:                                               ; preds = %53
  %59 = getelementptr inbounds %"class.blink::mojom::FetchAPIRequestBody", %"class.blink::mojom::FetchAPIRequestBody"* %56, i64 0, i32 0, i32 0, i32 0
  %60 = load %"class.network::DataElement"*, %"class.network::DataElement"** %59, align 8
  %61 = icmp eq %"class.network::DataElement"* %60, null
  br i1 %61, label %76, label %62

62:                                               ; preds = %58
  %63 = bitcast %"class.network::DataElement"* %60 to i8*
  %64 = getelementptr inbounds %"class.blink::mojom::FetchAPIRequestBody", %"class.blink::mojom::FetchAPIRequestBody"* %56, i64 0, i32 0, i32 0, i32 1
  %65 = load %"class.network::DataElement"*, %"class.network::DataElement"** %64, align 8
  %66 = icmp eq %"class.network::DataElement"* %65, %60
  br i1 %66, label %74, label %67

67:                                               ; preds = %62, %67
  %68 = phi %"class.network::DataElement"* [ %69, %67 ], [ %65, %62 ]
  %69 = getelementptr inbounds %"class.network::DataElement", %"class.network::DataElement"* %68, i64 -1
  tail call void @_ZN7network11DataElementD1Ev(%"class.network::DataElement"* %69) #10
  %70 = icmp eq %"class.network::DataElement"* %69, %60
  br i1 %70, label %71, label %67

71:                                               ; preds = %67
  %72 = bitcast %"class.blink::mojom::FetchAPIRequestBody"* %56 to i8**
  %73 = load i8*, i8** %72, align 8
  br label %74

74:                                               ; preds = %71, %62
  %75 = phi i8* [ %73, %71 ], [ %63, %62 ]
  store %"class.network::DataElement"* %60, %"class.network::DataElement"** %64, align 8
  tail call void @_ZdlPv(i8* %75) #11
  br label %76

76:                                               ; preds = %74, %58
  %77 = bitcast %"class.blink::mojom::FetchAPIRequestBody"* %56 to i8*
  tail call void @_ZdlPv(i8* %77) #11
  br label %78

78:                                               ; preds = %33, %53, %76
  ret i1 %29
}

; Function Attrs: nounwind ssp uwtable
define hidden zeroext i1 @_ZN4mojo12StructTraitsIN5blink5mojom23FetchAPIRequestDataViewENS_9StructPtrINS2_15FetchAPIRequestEEEE4ReadES3_PS6_(%"class.blink::mojom::internal::FetchAPIRequest_Data"*, %"class.mojo::Message"*, %"class.mojo::StructPtr.107"* nocapture) local_unnamed_addr #0 align 2 {
  %4 = alloca %"class.mojo::internal::Array_Data.128"*, align 8
  %5 = alloca %"class.mojo::internal::Array_Data.128"*, align 8
  %6 = alloca i32, align 4
  %7 = alloca %"class.blink::mojom::FetchAPIRequestDataView", align 8
  %8 = getelementptr inbounds %"class.blink::mojom::FetchAPIRequestDataView", %"class.blink::mojom::FetchAPIRequestDataView"* %7, i64 0, i32 0
  store %"class.blink::mojom::internal::FetchAPIRequest_Data"* %0, %"class.blink::mojom::internal::FetchAPIRequest_Data"** %8, align 8
  %9 = getelementptr inbounds %"class.blink::mojom::FetchAPIRequestDataView", %"class.blink::mojom::FetchAPIRequestDataView"* %7, i64 0, i32 1
  store %"class.mojo::Message"* %1, %"class.mojo::Message"** %9, align 8
  %10 = tail call i8* @_Znwm(i64 328) #11, !noalias !9
  %11 = bitcast i8* %10 to i32*
  store i32 1, i32* %11, align 8, !noalias !9
  %12 = getelementptr inbounds i8, i8* %10, i64 4
  store i8 0, i8* %12, align 4, !noalias !9
  %13 = getelementptr inbounds i8, i8* %10, i64 8
  %14 = bitcast i8* %13 to i32*
  store i32 0, i32* %14, align 8, !noalias !9
  %15 = getelementptr inbounds i8, i8* %10, i64 12
  %16 = bitcast i8* %15 to i32*
  store i32 2, i32* %16, align 4, !noalias !9
  %17 = getelementptr inbounds i8, i8* %10, i64 16
  %18 = bitcast i8* %17 to %class.GURL*
  tail call void @_ZN4GURLC1Ev(%class.GURL* %18) #10, !noalias !9
  %19 = getelementptr inbounds i8, i8* %10, i64 136
  %20 = getelementptr inbounds i8, i8* %10, i64 224
  store i8 0, i8* %20, align 8, !noalias !9
  %21 = getelementptr inbounds i8, i8* %10, i64 232
  tail call void @llvm.memset.p0i8.i64(i8* align 8 %21, i8 0, i64 24, i1 false) #10, !noalias !9
  %22 = getelementptr inbounds i8, i8* %10, i64 256
  %23 = bitcast i8* %22 to i32*
  %24 = bitcast i32* %6 to i8*
  tail call void @llvm.memset.p0i8.i64(i8* align 8 %19, i8 0, i64 84, i1 false) #10, !noalias !9
  call void @llvm.lifetime.start.p0i8(i64 4, i8* nonnull %24) #10, !noalias !9
  store i32 -1431655766, i32* %6, align 4, !noalias !9
  %25 = call zeroext i1 @_ZN4mojo10EnumTraitsIN7network5mojom15RequestPriorityEN3net15RequestPriorityEE9FromMojomES3_PS5_(i32 1, i32* nonnull %6) #10, !noalias !9
  %26 = load i32, i32* %6, align 4, !noalias !9
  call void @llvm.lifetime.end.p0i8(i64 4, i8* nonnull %24) #10, !noalias !9
  store i32 %26, i32* %23, align 8, !noalias !9
  %27 = getelementptr inbounds i8, i8* %10, i64 264
  store i8 0, i8* %27, align 8, !noalias !9
  %28 = getelementptr inbounds i8, i8* %10, i64 288
  store i8 0, i8* %28, align 8, !noalias !9
  %29 = getelementptr inbounds i8, i8* %10, i64 289
  store i8 0, i8* %29, align 1, !noalias !9
  %30 = getelementptr inbounds i8, i8* %10, i64 290
  store i8 0, i8* %30, align 2, !noalias !9
  %31 = getelementptr inbounds i8, i8* %10, i64 296
  store i8 0, i8* %31, align 8, !noalias !9
  %32 = getelementptr inbounds i8, i8* %10, i64 304
  call void @llvm.memset.p0i8.i64(i8* align 8 %32, i8 0, i64 24, i1 false) #10, !noalias !9
  %33 = ptrtoint i8* %10 to i64
  %34 = getelementptr inbounds %"class.blink::mojom::internal::FetchAPIRequest_Data", %"class.blink::mojom::internal::FetchAPIRequest_Data"* %0, i64 0, i32 1
  %35 = load i32, i32* %34, align 1
  store i32 %35, i32* %11, align 4
  %36 = getelementptr inbounds %"class.blink::mojom::internal::FetchAPIRequest_Data", %"class.blink::mojom::internal::FetchAPIRequest_Data"* %0, i64 0, i32 2
  %37 = load i8, i8* %36, align 1
  %38 = and i8 %37, 1
  store i8 %38, i8* %12, align 4
  %39 = getelementptr inbounds %"class.blink::mojom::internal::FetchAPIRequest_Data", %"class.blink::mojom::internal::FetchAPIRequest_Data"* %0, i64 0, i32 4
  %40 = load i32, i32* %39, align 1
  store i32 %40, i32* %14, align 4
  %41 = getelementptr inbounds %"class.blink::mojom::internal::FetchAPIRequest_Data", %"class.blink::mojom::internal::FetchAPIRequest_Data"* %0, i64 0, i32 5
  %42 = load i32, i32* %41, align 1
  store i32 %42, i32* %16, align 4
  %43 = getelementptr inbounds %"class.blink::mojom::internal::FetchAPIRequest_Data", %"class.blink::mojom::internal::FetchAPIRequest_Data"* %0, i64 0, i32 6
  %44 = getelementptr inbounds %"struct.mojo::internal::Pointer.100", %"struct.mojo::internal::Pointer.100"* %43, i64 0, i32 0
  %45 = load i64, i64* %44, align 8
  %46 = icmp eq i64 %45, 0
  br i1 %46, label %54, label %47

47:                                               ; preds = %3
  %48 = bitcast %"struct.mojo::internal::Pointer.100"* %43 to i8*
  %49 = getelementptr inbounds i8, i8* %48, i64 %45
  %50 = bitcast i8* %49 to %"class.url::mojom::internal::Url_Data"*
  %51 = call zeroext i1 @_ZN4mojo12StructTraitsIN3url5mojom11UrlDataViewE4GURLE4ReadES3_PS4_(%"class.url::mojom::internal::Url_Data"* nonnull %50, %"class.mojo::Message"* %1, %class.GURL* %18) #10
  br i1 %51, label %52, label %266

52:                                               ; preds = %47
  %53 = load %"class.blink::mojom::internal::FetchAPIRequest_Data"*, %"class.blink::mojom::internal::FetchAPIRequest_Data"** %8, align 8
  br label %54

54:                                               ; preds = %52, %3
  %55 = phi %"class.blink::mojom::internal::FetchAPIRequest_Data"* [ %53, %52 ], [ %0, %3 ]
  %56 = bitcast i8* %19 to %"class.std::__1::basic_string"*
  %57 = getelementptr inbounds %"class.blink::mojom::internal::FetchAPIRequest_Data", %"class.blink::mojom::internal::FetchAPIRequest_Data"* %55, i64 0, i32 7
  %58 = getelementptr inbounds %"struct.mojo::internal::Pointer.101", %"struct.mojo::internal::Pointer.101"* %57, i64 0, i32 0
  %59 = load i64, i64* %58, align 8
  %60 = icmp eq i64 %59, 0
  %61 = bitcast %"struct.mojo::internal::Pointer.101"* %57 to i8*
  %62 = getelementptr inbounds i8, i8* %61, i64 %59
  br i1 %60, label %105, label %63

63:                                               ; preds = %54
  %64 = getelementptr inbounds i8, i8* %62, i64 8
  %65 = getelementptr inbounds i8, i8* %62, i64 4
  %66 = bitcast i8* %65 to i32*
  %67 = load i32, i32* %66, align 1
  %68 = zext i32 %67 to i64
  %69 = call i1 @llvm.is.constant.i64(i64 %68) #10
  %70 = icmp ult i32 %67, 23
  %71 = and i1 %70, %69
  br i1 %71, label %72, label %89

72:                                               ; preds = %63
  %73 = getelementptr inbounds i8, i8* %10, i64 159
  %74 = load i8, i8* %73, align 1
  %75 = icmp slt i8 %74, 0
  br i1 %75, label %76, label %81

76:                                               ; preds = %72
  %77 = getelementptr inbounds i8, i8* %10, i64 144
  %78 = bitcast i8* %77 to i64*
  store i64 %68, i64* %78, align 8
  %79 = bitcast i8* %19 to i8**
  %80 = load i8*, i8** %79, align 8
  br label %83

81:                                               ; preds = %72
  %82 = trunc i32 %67 to i8
  store i8 %82, i8* %73, align 1
  br label %83

83:                                               ; preds = %81, %76
  %84 = phi i8* [ %80, %76 ], [ %19, %81 ]
  %85 = icmp eq i32 %67, 0
  br i1 %85, label %87, label %86

86:                                               ; preds = %83
  call void @llvm.memmove.p0i8.p0i8.i64(i8* align 1 %84, i8* align 1 %64, i64 %68, i1 false) #10
  br label %87

87:                                               ; preds = %86, %83
  %88 = getelementptr inbounds i8, i8* %84, i64 %68
  store i8 0, i8* %88, align 1
  br label %91

89:                                               ; preds = %63
  %90 = call dereferenceable(24) %"class.std::__1::basic_string"* @_ZNSt3__112basic_stringIcNS_11char_traitsIcEENS_9allocatorIcEEE17__assign_externalEPKcm(%"class.std::__1::basic_string"* %56, i8* %64, i64 %68) #10
  br label %91

91:                                               ; preds = %89, %87
  %92 = getelementptr inbounds i8, i8* %10, i64 159
  %93 = load i8, i8* %92, align 1
  %94 = icmp slt i8 %93, 0
  %95 = bitcast i8* %19 to i8**
  %96 = load i8*, i8** %95, align 8
  %97 = select i1 %94, i8* %96, i8* %19
  %98 = getelementptr inbounds i8, i8* %10, i64 144
  %99 = bitcast i8* %98 to i64*
  %100 = load i64, i64* %99, align 8
  %101 = zext i8 %93 to i64
  %102 = select i1 %94, i64 %100, i64 %101
  %103 = call zeroext i1 @_ZN4base12IsStringUTF8ENS_16BasicStringPieceIcNSt3__111char_traitsIcEEEE(i8* %97, i64 %102) #10
  br i1 %103, label %105, label %104

104:                                              ; preds = %91
  call void @_ZN4mojo8internal34RecordInvalidStringDeserializationEv() #10
  br label %105

105:                                              ; preds = %54, %91, %104
  %106 = load %"class.blink::mojom::internal::FetchAPIRequest_Data"*, %"class.blink::mojom::internal::FetchAPIRequest_Data"** %8, align 8
  %107 = getelementptr inbounds %"class.blink::mojom::internal::FetchAPIRequest_Data", %"class.blink::mojom::internal::FetchAPIRequest_Data"* %106, i64 0, i32 8
  %108 = getelementptr inbounds %"struct.mojo::internal::Pointer.102", %"struct.mojo::internal::Pointer.102"* %107, i64 0, i32 0
  %109 = load i64, i64* %108, align 8
  %110 = icmp eq i64 %109, 0
  br i1 %110, label %127, label %111

111:                                              ; preds = %105
  %112 = bitcast %"struct.mojo::internal::Pointer.102"* %107 to i8*
  %113 = getelementptr inbounds i8, i8* %112, i64 %109
  %114 = getelementptr inbounds i8, i8* %10, i64 160
  %115 = bitcast i8* %114 to %"class.base::flat_map.61"*
  %116 = load %"class.mojo::Message"*, %"class.mojo::Message"** %9, align 8
  %117 = getelementptr inbounds i8, i8* %113, i64 8
  %118 = bitcast i8* %117 to i64*
  %119 = load i64, i64* %118, align 8
  %120 = icmp eq i64 %119, 0
  %121 = getelementptr inbounds i8, i8* %117, i64 %119
  %122 = bitcast i8* %121 to %"class.mojo::internal::Map_Data"*
  %123 = select i1 %120, %"class.mojo::internal::Map_Data"* null, %"class.mojo::internal::Map_Data"* %122
  %124 = call zeroext i1 @_ZN4mojo8internal10SerializerINS_11MapDataViewINS_14StringDataViewES3_EEN4base8flat_mapINSt3__112basic_stringIcNS7_11char_traitsIcEENS7_9allocatorIcEEEESD_N5blink29FetchAPIRequestHeadersCompareENS7_6vectorINS7_4pairISD_SD_EENSB_ISI_EEEEEEE11DeserializeEPNS0_8Map_DataINS0_7PointerINS0_10Array_DataIcEEEESR_EEPSL_PNS_7MessageE(%"class.mojo::internal::Map_Data"* %123, %"class.base::flat_map.61"* %115, %"class.mojo::Message"* %116) #10
  br i1 %124, label %125, label %266

125:                                              ; preds = %111
  %126 = load %"class.blink::mojom::internal::FetchAPIRequest_Data"*, %"class.blink::mojom::internal::FetchAPIRequest_Data"** %8, align 8
  br label %127

127:                                              ; preds = %125, %105
  %128 = phi %"class.blink::mojom::internal::FetchAPIRequest_Data"* [ %126, %125 ], [ %106, %105 ]
  %129 = getelementptr inbounds i8, i8* %10, i64 184
  %130 = getelementptr inbounds %"class.blink::mojom::internal::FetchAPIRequest_Data", %"class.blink::mojom::internal::FetchAPIRequest_Data"* %128, i64 0, i32 9
  %131 = getelementptr inbounds %"struct.mojo::internal::Pointer.103", %"struct.mojo::internal::Pointer.103"* %130, i64 0, i32 0
  %132 = load i64, i64* %131, align 8
  %133 = icmp eq i64 %132, 0
  br i1 %133, label %134, label %140

134:                                              ; preds = %127
  %135 = bitcast i8* %129 to %"class.blink::mojom::SerializedBlob"**
  %136 = load %"class.blink::mojom::SerializedBlob"*, %"class.blink::mojom::SerializedBlob"** %135, align 8
  store %"class.blink::mojom::SerializedBlob"* null, %"class.blink::mojom::SerializedBlob"** %135, align 8
  %137 = icmp eq %"class.blink::mojom::SerializedBlob"* %136, null
  br i1 %137, label %147, label %138

138:                                              ; preds = %134
  call void @_ZN5blink5mojom14SerializedBlobD1Ev(%"class.blink::mojom::SerializedBlob"* nonnull %136) #10
  %139 = bitcast %"class.blink::mojom::SerializedBlob"* %136 to i8*
  call void @_ZdlPv(i8* %139) #11
  br label %147

140:                                              ; preds = %127
  %141 = bitcast i8* %129 to %"class.mojo::StructPtr"*
  %142 = bitcast %"struct.mojo::internal::Pointer.103"* %130 to i8*
  %143 = getelementptr inbounds i8, i8* %142, i64 %132
  %144 = bitcast i8* %143 to %"class.blink::mojom::internal::SerializedBlob_Data"*
  %145 = load %"class.mojo::Message"*, %"class.mojo::Message"** %9, align 8
  %146 = call zeroext i1 @_ZN4mojo12StructTraitsIN5blink5mojom22SerializedBlobDataViewENS_9StructPtrINS2_14SerializedBlobEEEE4ReadES3_PS6_(%"class.blink::mojom::internal::SerializedBlob_Data"* nonnull %144, %"class.mojo::Message"* %145, %"class.mojo::StructPtr"* %141) #10
  br i1 %146, label %147, label %266

147:                                              ; preds = %138, %134, %140
  %148 = getelementptr inbounds i8, i8* %10, i64 192
  %149 = load %"class.blink::mojom::internal::FetchAPIRequest_Data"*, %"class.blink::mojom::internal::FetchAPIRequest_Data"** %8, align 8
  %150 = getelementptr inbounds %"class.blink::mojom::internal::FetchAPIRequest_Data", %"class.blink::mojom::internal::FetchAPIRequest_Data"* %149, i64 0, i32 10
  %151 = getelementptr inbounds %"struct.mojo::internal::Pointer.104", %"struct.mojo::internal::Pointer.104"* %150, i64 0, i32 0
  %152 = load i64, i64* %151, align 8
  %153 = icmp eq i64 %152, 0
  br i1 %153, label %154, label %165

154:                                              ; preds = %147
  %155 = bitcast i8* %148 to i64*
  %156 = bitcast i8* %148 to %"class.network::ResourceRequestBody"**
  %157 = load %"class.network::ResourceRequestBody"*, %"class.network::ResourceRequestBody"** %156, align 8
  store i64 0, i64* %155, align 8
  %158 = icmp eq %"class.network::ResourceRequestBody"* %157, null
  br i1 %158, label %172, label %159

159:                                              ; preds = %154
  %160 = getelementptr inbounds %"class.network::ResourceRequestBody", %"class.network::ResourceRequestBody"* %157, i64 0, i32 0, i32 0, i32 0, i32 0, i32 0, i32 0, i32 0, i32 0, i32 0
  %161 = atomicrmw sub i32* %160, i32 1 acq_rel
  %162 = icmp eq i32 %161, 1
  br i1 %162, label %163, label %172

163:                                              ; preds = %159
  call void @_ZN7network19ResourceRequestBodyD1Ev(%"class.network::ResourceRequestBody"* nonnull %157) #10
  %164 = bitcast %"class.network::ResourceRequestBody"* %157 to i8*
  call void @_ZdlPv(i8* %164) #11
  br label %172

165:                                              ; preds = %147
  %166 = bitcast i8* %148 to %class.scoped_refptr.70*
  %167 = bitcast %"struct.mojo::internal::Pointer.104"* %150 to i8*
  %168 = getelementptr inbounds i8, i8* %167, i64 %152
  %169 = bitcast i8* %168 to %"class.blink::mojom::internal::FetchAPIRequestBody_Data"*
  %170 = load %"class.mojo::Message"*, %"class.mojo::Message"** %9, align 8
  %171 = call zeroext i1 @_ZN4mojo12StructTraitsIN5blink5mojom27FetchAPIRequestBodyDataViewE13scoped_refptrIN7network19ResourceRequestBodyEEE4ReadES3_PS7_(%"class.blink::mojom::internal::FetchAPIRequestBody_Data"* nonnull %169, %"class.mojo::Message"* %170, %class.scoped_refptr.70* %166) #10
  br i1 %171, label %172, label %266

172:                                              ; preds = %163, %159, %154, %165
  %173 = getelementptr inbounds i8, i8* %10, i64 200
  %174 = load %"class.blink::mojom::internal::FetchAPIRequest_Data"*, %"class.blink::mojom::internal::FetchAPIRequest_Data"** %8, align 8
  %175 = getelementptr inbounds %"class.blink::mojom::internal::FetchAPIRequest_Data", %"class.blink::mojom::internal::FetchAPIRequest_Data"* %174, i64 0, i32 11
  %176 = getelementptr inbounds %"struct.mojo::internal::Pointer.105", %"struct.mojo::internal::Pointer.105"* %175, i64 0, i32 0
  %177 = load i64, i64* %176, align 8
  %178 = icmp eq i64 %177, 0
  br i1 %178, label %179, label %185

179:                                              ; preds = %172
  %180 = bitcast i8* %173 to %"class.blink::mojom::Referrer"**
  %181 = load %"class.blink::mojom::Referrer"*, %"class.blink::mojom::Referrer"** %180, align 8
  store %"class.blink::mojom::Referrer"* null, %"class.blink::mojom::Referrer"** %180, align 8
  %182 = icmp eq %"class.blink::mojom::Referrer"* %181, null
  br i1 %182, label %192, label %183

183:                                              ; preds = %179
  call void @_ZN5blink5mojom8ReferrerD1Ev(%"class.blink::mojom::Referrer"* nonnull %181) #10
  %184 = bitcast %"class.blink::mojom::Referrer"* %181 to i8*
  call void @_ZdlPv(i8* %184) #11
  br label %192

185:                                              ; preds = %172
  %186 = bitcast i8* %173 to %"class.mojo::StructPtr.72"*
  %187 = bitcast %"struct.mojo::internal::Pointer.105"* %175 to i8*
  %188 = getelementptr inbounds i8, i8* %187, i64 %177
  %189 = bitcast i8* %188 to %"class.blink::mojom::internal::Referrer_Data"*
  %190 = load %"class.mojo::Message"*, %"class.mojo::Message"** %9, align 8
  %191 = call zeroext i1 @_ZN4mojo12StructTraitsIN5blink5mojom16ReferrerDataViewENS_9StructPtrINS2_8ReferrerEEEE4ReadES3_PS6_(%"class.blink::mojom::internal::Referrer_Data"* nonnull %189, %"class.mojo::Message"* %190, %"class.mojo::StructPtr.72"* %186) #10
  br i1 %191, label %192, label %266

192:                                              ; preds = %183, %179, %185
  %193 = getelementptr inbounds i8, i8* %10, i64 208
  %194 = bitcast i8* %193 to i32*
  %195 = load %"class.blink::mojom::internal::FetchAPIRequest_Data"*, %"class.blink::mojom::internal::FetchAPIRequest_Data"** %8, align 8
  %196 = getelementptr inbounds %"class.blink::mojom::internal::FetchAPIRequest_Data", %"class.blink::mojom::internal::FetchAPIRequest_Data"* %195, i64 0, i32 12
  %197 = load i32, i32* %196, align 1
  store i32 %197, i32* %194, align 4
  %198 = getelementptr inbounds i8, i8* %10, i64 212
  %199 = bitcast i8* %198 to i32*
  %200 = getelementptr inbounds %"class.blink::mojom::internal::FetchAPIRequest_Data", %"class.blink::mojom::internal::FetchAPIRequest_Data"* %195, i64 0, i32 13
  %201 = load i32, i32* %200, align 1
  store i32 %201, i32* %199, align 4
  %202 = getelementptr inbounds i8, i8* %10, i64 216
  %203 = bitcast i8* %202 to i32*
  %204 = getelementptr inbounds %"class.blink::mojom::internal::FetchAPIRequest_Data", %"class.blink::mojom::internal::FetchAPIRequest_Data"* %195, i64 0, i32 14
  %205 = load i32, i32* %204, align 1
  store i32 %205, i32* %203, align 4
  %206 = bitcast i8* %20 to %"class.absl::optional"*
  %207 = bitcast %"class.mojo::internal::Array_Data.128"** %4 to i8*
  call void @llvm.lifetime.start.p0i8(i64 8, i8* nonnull %207) #10
  %208 = getelementptr inbounds %"class.blink::mojom::internal::FetchAPIRequest_Data", %"class.blink::mojom::internal::FetchAPIRequest_Data"* %195, i64 0, i32 16
  %209 = getelementptr inbounds %"struct.mojo::internal::Pointer.101", %"struct.mojo::internal::Pointer.101"* %208, i64 0, i32 0
  %210 = load i64, i64* %209, align 8
  %211 = icmp eq i64 %210, 0
  %212 = bitcast %"struct.mojo::internal::Pointer.101"* %208 to i8*
  %213 = getelementptr inbounds i8, i8* %212, i64 %210
  %214 = bitcast i8* %213 to %"class.mojo::internal::Array_Data.128"*
  %215 = select i1 %211, %"class.mojo::internal::Array_Data.128"* null, %"class.mojo::internal::Array_Data.128"* %214
  store %"class.mojo::internal::Array_Data.128"* %215, %"class.mojo::internal::Array_Data.128"** %4, align 8
  %216 = call zeroext i1 @_ZN4mojo8internal11DeserializeINS_14StringDataViewERPNS0_10Array_DataIcEEN4absl8optionalINSt3__112basic_stringIcNS9_11char_traitsIcEENS9_9allocatorIcEEEEEEJRPNS_7MessageEELPv0EEEbOT0_PT1_DpOT2_(%"class.mojo::internal::Array_Data.128"** nonnull dereferenceable(8) %4, %"class.absl::optional"* %206, %"class.mojo::Message"** dereferenceable(8) %9) #10
  call void @llvm.lifetime.end.p0i8(i64 8, i8* nonnull %207) #10
  br i1 %216, label %217, label %266

217:                                              ; preds = %192
  %218 = load %"class.blink::mojom::internal::FetchAPIRequest_Data"*, %"class.blink::mojom::internal::FetchAPIRequest_Data"** %8, align 8
  %219 = getelementptr inbounds %"class.blink::mojom::internal::FetchAPIRequest_Data", %"class.blink::mojom::internal::FetchAPIRequest_Data"* %218, i64 0, i32 15
  %220 = load i32, i32* %219, align 1
  %221 = call zeroext i1 @_ZN4mojo10EnumTraitsIN7network5mojom15RequestPriorityEN3net15RequestPriorityEE9FromMojomES3_PS5_(i32 %220, i32* %23) #10
  br i1 %221, label %222, label %266

222:                                              ; preds = %217
  %223 = load %"class.blink::mojom::internal::FetchAPIRequest_Data"*, %"class.blink::mojom::internal::FetchAPIRequest_Data"** %8, align 8
  %224 = getelementptr inbounds %"class.blink::mojom::internal::FetchAPIRequest_Data", %"class.blink::mojom::internal::FetchAPIRequest_Data"* %223, i64 0, i32 17
  %225 = getelementptr inbounds %"struct.mojo::internal::Pointer.106", %"struct.mojo::internal::Pointer.106"* %224, i64 0, i32 0
  %226 = load i64, i64* %225, align 8
  %227 = icmp eq i64 %226, 0
  %228 = bitcast %"struct.mojo::internal::Pointer.106"* %224 to i8*
  %229 = getelementptr inbounds i8, i8* %228, i64 %226
  %230 = bitcast i8* %229 to %"class.mojo_base::mojom::internal::UnguessableToken_Data"*
  br i1 %227, label %231, label %232

231:                                              ; preds = %222
  store i8 0, i8* %27, align 8
  br label %243

232:                                              ; preds = %222
  %233 = load i8, i8* %27, align 8, !range !2
  %234 = icmp eq i8 %233, 0
  br i1 %234, label %235, label %237

235:                                              ; preds = %232
  %236 = getelementptr inbounds i8, i8* %10, i64 272
  call void @llvm.memset.p0i8.i64(i8* align 8 %236, i8 0, i64 16, i1 false) #10
  store i8 1, i8* %27, align 8
  br label %237

237:                                              ; preds = %232, %235
  %238 = getelementptr inbounds i8, i8* %10, i64 272
  %239 = bitcast i8* %238 to %"class.base::UnguessableToken"*
  %240 = call zeroext i1 @_ZN4mojo12StructTraitsIN9mojo_base5mojom24UnguessableTokenDataViewEN4base16UnguessableTokenEE4ReadES3_PS5_(%"class.mojo_base::mojom::internal::UnguessableToken_Data"* nonnull %230, %"class.base::UnguessableToken"* %239) #10
  br i1 %240, label %241, label %266

241:                                              ; preds = %237
  %242 = load %"class.blink::mojom::internal::FetchAPIRequest_Data"*, %"class.blink::mojom::internal::FetchAPIRequest_Data"** %8, align 8
  br label %243

243:                                              ; preds = %231, %241
  %244 = phi %"class.blink::mojom::internal::FetchAPIRequest_Data"* [ %242, %241 ], [ %223, %231 ]
  %245 = getelementptr inbounds %"class.blink::mojom::internal::FetchAPIRequest_Data", %"class.blink::mojom::internal::FetchAPIRequest_Data"* %244, i64 0, i32 2
  %246 = load i8, i8* %245, align 1
  %247 = lshr i8 %246, 1
  %248 = and i8 %247, 1
  store i8 %248, i8* %28, align 8
  %249 = load i8, i8* %245, align 1
  %250 = lshr i8 %249, 2
  %251 = and i8 %250, 1
  store i8 %251, i8* %29, align 1
  %252 = load i8, i8* %245, align 1
  %253 = lshr i8 %252, 3
  %254 = and i8 %253, 1
  store i8 %254, i8* %30, align 2
  %255 = bitcast i8* %31 to %"class.absl::optional"*
  %256 = bitcast %"class.mojo::internal::Array_Data.128"** %5 to i8*
  call void @llvm.lifetime.start.p0i8(i64 8, i8* nonnull %256) #10
  %257 = getelementptr inbounds %"class.blink::mojom::internal::FetchAPIRequest_Data", %"class.blink::mojom::internal::FetchAPIRequest_Data"* %244, i64 0, i32 18
  %258 = getelementptr inbounds %"struct.mojo::internal::Pointer.101", %"struct.mojo::internal::Pointer.101"* %257, i64 0, i32 0
  %259 = load i64, i64* %258, align 8
  %260 = icmp eq i64 %259, 0
  %261 = bitcast %"struct.mojo::internal::Pointer.101"* %257 to i8*
  %262 = getelementptr inbounds i8, i8* %261, i64 %259
  %263 = bitcast i8* %262 to %"class.mojo::internal::Array_Data.128"*
  %264 = select i1 %260, %"class.mojo::internal::Array_Data.128"* null, %"class.mojo::internal::Array_Data.128"* %263
  store %"class.mojo::internal::Array_Data.128"* %264, %"class.mojo::internal::Array_Data.128"** %5, align 8
  %265 = call zeroext i1 @_ZN4mojo8internal11DeserializeINS_14StringDataViewERPNS0_10Array_DataIcEEN4absl8optionalINSt3__112basic_stringIcNS9_11char_traitsIcEENS9_9allocatorIcEEEEEEJRPNS_7MessageEELPv0EEEbOT0_PT1_DpOT2_(%"class.mojo::internal::Array_Data.128"** nonnull dereferenceable(8) %5, %"class.absl::optional"* %255, %"class.mojo::Message"** dereferenceable(8) %9) #10
  call void @llvm.lifetime.end.p0i8(i64 8, i8* nonnull %256) #10
  br label %266

266:                                              ; preds = %192, %237, %217, %47, %185, %165, %140, %111, %243
  %267 = phi i1 [ %265, %243 ], [ false, %237 ], [ false, %185 ], [ false, %165 ], [ false, %140 ], [ false, %111 ], [ false, %47 ], [ false, %217 ], [ false, %192 ]
  %268 = getelementptr inbounds %"class.mojo::StructPtr.107", %"class.mojo::StructPtr.107"* %2, i64 0, i32 0, i32 0, i32 0, i32 0
  %269 = load %"class.blink::mojom::FetchAPIRequest"*, %"class.blink::mojom::FetchAPIRequest"** %268, align 8
  store %"class.blink::mojom::FetchAPIRequest"* null, %"class.blink::mojom::FetchAPIRequest"** %268, align 8
  %270 = icmp eq %"class.blink::mojom::FetchAPIRequest"* %269, null
  br i1 %270, label %271, label %273

271:                                              ; preds = %266
  %272 = bitcast %"class.mojo::StructPtr.107"* %2 to i64*
  store i64 %33, i64* %272, align 8
  br label %280

273:                                              ; preds = %266
  call void @_ZN5blink5mojom15FetchAPIRequestD2Ev(%"class.blink::mojom::FetchAPIRequest"* nonnull %269) #10
  %274 = bitcast %"class.blink::mojom::FetchAPIRequest"* %269 to i8*
  call void @_ZdlPv(i8* %274) #11
  %275 = bitcast %"class.mojo::StructPtr.107"* %2 to i64*
  %276 = load %"class.blink::mojom::FetchAPIRequest"*, %"class.blink::mojom::FetchAPIRequest"** %268, align 8
  store i64 %33, i64* %275, align 8
  %277 = icmp eq %"class.blink::mojom::FetchAPIRequest"* %276, null
  br i1 %277, label %280, label %278

278:                                              ; preds = %273
  call void @_ZN5blink5mojom15FetchAPIRequestD2Ev(%"class.blink::mojom::FetchAPIRequest"* nonnull %276) #10
  %279 = bitcast %"class.blink::mojom::FetchAPIRequest"* %276 to i8*
  call void @_ZdlPv(i8* %279) #11
  br label %280

280:                                              ; preds = %271, %273, %278
  ret i1 %267
}

; Function Attrs: nounwind ssp uwtable
define linkonce_odr hidden void @_ZNSt3__16vectorINS_4pairINS_12basic_stringIcNS_11char_traitsIcEENS_9allocatorIcEEEES7_EENS5_IS8_EEEC2ERKSA_(%"class.std::__1::vector"*, %"class.std::__1::vector"* dereferenceable(24)) unnamed_addr #0 comdat align 2 {
  %3 = bitcast %"class.std::__1::vector"* %0 to i8*
  tail call void @llvm.memset.p0i8.i64(i8* align 8 %3, i8 0, i64 24, i1 false) #10
  %4 = getelementptr inbounds %"class.std::__1::vector", %"class.std::__1::vector"* %1, i64 0, i32 0, i32 1
  %5 = bitcast %"struct.std::__1::pair"** %4 to i64*
  %6 = load i64, i64* %5, align 8
  %7 = bitcast %"class.std::__1::vector"* %1 to i64*
  %8 = load i64, i64* %7, align 8
  %9 = sub i64 %6, %8
  %10 = sdiv exact i64 %9, 48
  %11 = icmp eq i64 %9, 0
  br i1 %11, label %71, label %12

12:                                               ; preds = %2
  %13 = icmp ugt i64 %10, 384307168202282325
  br i1 %13, label %14, label %16

14:                                               ; preds = %12
  %15 = bitcast %"class.std::__1::vector"* %0 to %"class.std::__1::__vector_base_common"*
  tail call void @_ZNKSt3__120__vector_base_commonILb1EE20__throw_length_errorEv(%"class.std::__1::__vector_base_common"* %15) #12
  unreachable

16:                                               ; preds = %12
  %17 = tail call i8* @_Znwm(i64 %9) #11
  %18 = bitcast i8* %17 to %"struct.std::__1::pair"*
  %19 = getelementptr inbounds %"class.std::__1::vector", %"class.std::__1::vector"* %0, i64 0, i32 0, i32 1
  %20 = bitcast %"struct.std::__1::pair"** %19 to i8**
  store i8* %17, i8** %20, align 8
  %21 = bitcast %"class.std::__1::vector"* %0 to i8**
  store i8* %17, i8** %21, align 8
  %22 = getelementptr inbounds %"struct.std::__1::pair", %"struct.std::__1::pair"* %18, i64 %10
  %23 = getelementptr inbounds %"class.std::__1::vector", %"class.std::__1::vector"* %0, i64 0, i32 0, i32 2, i32 0, i32 0
  store %"struct.std::__1::pair"* %22, %"struct.std::__1::pair"** %23, align 8
  %24 = getelementptr inbounds %"class.std::__1::vector", %"class.std::__1::vector"* %1, i64 0, i32 0, i32 0
  %25 = load %"struct.std::__1::pair"*, %"struct.std::__1::pair"** %24, align 8
  %26 = load %"struct.std::__1::pair"*, %"struct.std::__1::pair"** %4, align 8
  %27 = bitcast %"struct.std::__1::pair"** %19 to i64*
  %28 = ptrtoint i8* %17 to i64
  %29 = icmp eq %"struct.std::__1::pair"* %25, %26
  br i1 %29, label %69, label %30

30:                                               ; preds = %16
  %31 = bitcast i8* %17 to %"struct.std::__1::pair"*
  br label %32

32:                                               ; preds = %63, %30
  %33 = phi %"struct.std::__1::pair"* [ %65, %63 ], [ %31, %30 ]
  %34 = phi %"struct.std::__1::pair"* [ %64, %63 ], [ %25, %30 ]
  %35 = bitcast %"struct.std::__1::pair"* %34 to %"struct.std::__1::basic_string<char, std::__1::char_traits<char>, std::__1::allocator<char> >::__short"*
  %36 = getelementptr inbounds %"struct.std::__1::basic_string<char, std::__1::char_traits<char>, std::__1::allocator<char> >::__short", %"struct.std::__1::basic_string<char, std::__1::char_traits<char>, std::__1::allocator<char> >::__short"* %35, i64 0, i32 1, i32 0
  %37 = load i8, i8* %36, align 1
  %38 = icmp slt i8 %37, 0
  br i1 %38, label %42, label %39

39:                                               ; preds = %32
  %40 = bitcast %"struct.std::__1::pair"* %33 to i8*
  %41 = bitcast %"struct.std::__1::pair"* %34 to i8*
  tail call void @llvm.memcpy.p0i8.p0i8.i64(i8* align 8 %40, i8* align 8 %41, i64 24, i1 false) #10
  br label %48

42:                                               ; preds = %32
  %43 = getelementptr inbounds %"struct.std::__1::pair", %"struct.std::__1::pair"* %33, i64 0, i32 0
  %44 = getelementptr inbounds %"struct.std::__1::pair", %"struct.std::__1::pair"* %34, i64 0, i32 0, i32 0, i32 0, i32 0, i32 0, i32 0, i32 0
  %45 = load i8*, i8** %44, align 8
  %46 = getelementptr inbounds %"struct.std::__1::pair", %"struct.std::__1::pair"* %34, i64 0, i32 0, i32 0, i32 0, i32 0, i32 0, i32 0, i32 1
  %47 = load i64, i64* %46, align 8
  tail call void @_ZNSt3__112basic_stringIcNS_11char_traitsIcEENS_9allocatorIcEEE25__init_copy_ctor_externalEPKcm(%"class.std::__1::basic_string"* %43, i8* %45, i64 %47) #10
  br label %48

48:                                               ; preds = %42, %39
  %49 = getelementptr inbounds %"struct.std::__1::pair", %"struct.std::__1::pair"* %33, i64 0, i32 1
  %50 = getelementptr inbounds %"struct.std::__1::pair", %"struct.std::__1::pair"* %34, i64 0, i32 1
  %51 = bitcast %"class.std::__1::basic_string"* %50 to %"struct.std::__1::basic_string<char, std::__1::char_traits<char>, std::__1::allocator<char> >::__short"*
  %52 = getelementptr inbounds %"struct.std::__1::basic_string<char, std::__1::char_traits<char>, std::__1::allocator<char> >::__short", %"struct.std::__1::basic_string<char, std::__1::char_traits<char>, std::__1::allocator<char> >::__short"* %51, i64 0, i32 1, i32 0
  %53 = load i8, i8* %52, align 1
  %54 = icmp slt i8 %53, 0
  br i1 %54, label %58, label %55

55:                                               ; preds = %48
  %56 = bitcast %"class.std::__1::basic_string"* %49 to i8*
  %57 = bitcast %"class.std::__1::basic_string"* %50 to i8*
  tail call void @llvm.memcpy.p0i8.p0i8.i64(i8* align 8 %56, i8* align 8 %57, i64 24, i1 false) #10
  br label %63

58:                                               ; preds = %48
  %59 = getelementptr inbounds %"class.std::__1::basic_string", %"class.std::__1::basic_string"* %50, i64 0, i32 0, i32 0, i32 0, i32 0, i32 0, i32 0
  %60 = load i8*, i8** %59, align 8
  %61 = getelementptr inbounds %"struct.std::__1::pair", %"struct.std::__1::pair"* %34, i64 0, i32 1, i32 0, i32 0, i32 0, i32 0, i32 0, i32 1
  %62 = load i64, i64* %61, align 8
  tail call void @_ZNSt3__112basic_stringIcNS_11char_traitsIcEENS_9allocatorIcEEE25__init_copy_ctor_externalEPKcm(%"class.std::__1::basic_string"* %49, i8* %60, i64 %62) #10
  br label %63

63:                                               ; preds = %58, %55
  %64 = getelementptr inbounds %"struct.std::__1::pair", %"struct.std::__1::pair"* %34, i64 1
  %65 = getelementptr inbounds %"struct.std::__1::pair", %"struct.std::__1::pair"* %33, i64 1
  %66 = icmp eq %"struct.std::__1::pair"* %64, %26
  br i1 %66, label %67, label %32

67:                                               ; preds = %63
  %68 = ptrtoint %"struct.std::__1::pair"* %65 to i64
  br label %69

69:                                               ; preds = %16, %67
  %70 = phi i64 [ %28, %16 ], [ %68, %67 ]
  store i64 %70, i64* %27, align 8
  br label %71

71:                                               ; preds = %2, %69
  ret void
}

; Function Attrs: noreturn
declare void @_ZNKSt3__120__vector_base_commonILb1EE20__throw_length_errorEv(%"class.std::__1::__vector_base_common"*) local_unnamed_addr #4

; Function Attrs: noreturn nounwind
declare void @abort() local_unnamed_addr #5

; Function Attrs: nobuiltin nofree
declare noalias nonnull i8* @_Znwm(i64) local_unnamed_addr #6

; Function Attrs: nobuiltin nounwind
declare void @_ZdlPv(i8*) local_unnamed_addr #7

; Function Attrs: nounwind
declare void @_ZN5blink5mojom8ReferrerD1Ev(%"class.blink::mojom::Referrer"*) unnamed_addr #3

; Function Attrs: nounwind
declare void @_ZN5blink5mojom14SerializedBlobD1Ev(%"class.blink::mojom::SerializedBlob"*) unnamed_addr #3

declare void @_ZNSt3__112basic_stringIcNS_11char_traitsIcEENS_9allocatorIcEEE25__init_copy_ctor_externalEPKcm(%"class.std::__1::basic_string"*, i8*, i64) local_unnamed_addr #2

declare void @_ZNO8perfetto11TracedValue11WriteStringERKNSt3__112basic_stringIcNS1_11char_traitsIcEENS1_9allocatorIcEEEE(%"class.perfetto::TracedValue"*, %"class.std::__1::basic_string"* dereferenceable(24)) local_unnamed_addr #2

; Function Attrs: nounwind
declare void @_ZN7network11DataElementD1Ev(%"class.network::DataElement"*) unnamed_addr #3

declare void @_ZNO8perfetto11TracedValue11WriteUInt64Em(%"class.perfetto::TracedValue"*, i64) local_unnamed_addr #2

declare void @_ZNO8perfetto11TracedValue12WriteBooleanEb(%"class.perfetto::TracedValue"*, i1 zeroext) local_unnamed_addr #2

declare zeroext i1 @_ZN4mojo10EnumTraitsIN7network5mojom15RequestPriorityEN3net15RequestPriorityEE9FromMojomES3_PS5_(i32, i32*) local_unnamed_addr #2

; Function Attrs: nounwind
declare void @_ZN7network19ResourceRequestBodyD1Ev(%"class.network::ResourceRequestBody"*) unnamed_addr #3

declare void @_ZN8perfetto17TraceFormatTraitsIN7network5mojom11RequestModeEvE14WriteIntoTraceENS_11TracedValueES3_(%"class.perfetto::TracedValue"*, i32) local_unnamed_addr #2

declare void @_ZN8perfetto17TraceFormatTraitsIN7network5mojom18RequestDestinationEvE14WriteIntoTraceENS_11TracedValueES3_(%"class.perfetto::TracedValue"*, i32) local_unnamed_addr #2

declare void @_ZN8perfetto17TraceFormatTraitsIN5blink5mojom23RequestContextFrameTypeEvE14WriteIntoTraceENS_11TracedValueES3_(%"class.perfetto::TracedValue"*, i32) local_unnamed_addr #2

declare void @_ZNK4GURL14WriteIntoTraceEN8perfetto11TracedValueE(%class.GURL*, %"class.perfetto::TracedValue"*) local_unnamed_addr #2

declare void @_ZNO8perfetto11TracedValue12WritePointerEPKv(%"class.perfetto::TracedValue"*, i8*) local_unnamed_addr #2

declare void @_ZNK5blink5mojom14SerializedBlob14WriteIntoTraceEN8perfetto11TracedValueE(%"class.blink::mojom::SerializedBlob"*, %"class.perfetto::TracedValue"*) local_unnamed_addr #2

declare void @_ZNK5blink5mojom8Referrer14WriteIntoTraceEN8perfetto11TracedValueE(%"class.blink::mojom::Referrer"*, %"class.perfetto::TracedValue"*) local_unnamed_addr #2

declare void @_ZN8perfetto17TraceFormatTraitsIN7network5mojom15CredentialsModeEvE14WriteIntoTraceENS_11TracedValueES3_(%"class.perfetto::TracedValue"*, i32) local_unnamed_addr #2

declare void @_ZN8perfetto17TraceFormatTraitsIN5blink5mojom14FetchCacheModeEvE14WriteIntoTraceENS_11TracedValueES3_(%"class.perfetto::TracedValue"*, i32) local_unnamed_addr #2

declare void @_ZN8perfetto17TraceFormatTraitsIN7network5mojom12RedirectModeEvE14WriteIntoTraceENS_11TracedValueES3_(%"class.perfetto::TracedValue"*, i32) local_unnamed_addr #2

declare void @_ZNK4base5Token8ToStringEv(%"class.std::__1::basic_string"* sret, %"class.base::Token"*) local_unnamed_addr #2

; Function Attrs: nounwind ssp uwtable
define linkonce_odr hidden zeroext i1 @_ZN4mojo8internal10SerializerINS_11MapDataViewINS_14StringDataViewES3_EEN4base8flat_mapINSt3__112basic_stringIcNS7_11char_traitsIcEENS7_9allocatorIcEEEESD_NS7_4lessIvEENS7_6vectorINS7_4pairISD_SD_EENSB_ISI_EEEEEEE11DeserializeEPNS0_8Map_DataINS0_7PointerINS0_10Array_DataIcEEEESR_EEPSL_PNS_7MessageE(%"class.mojo::internal::Map_Data"*, %"class.base::flat_map"*, %"class.mojo::Message"*) local_unnamed_addr #0 comdat align 2 {
  %4 = alloca %"struct.std::__1::pair", align 8
  %5 = alloca %"class.std::__1::vector.121", align 8
  %6 = alloca %"class.std::__1::vector.121", align 8
  %7 = icmp eq %"class.mojo::internal::Map_Data"* %0, null
  br i1 %7, label %152, label %8

8:                                                ; preds = %3
  %9 = bitcast %"class.std::__1::vector.121"* %5 to i8*
  call void @llvm.lifetime.start.p0i8(i64 24, i8* nonnull %9) #10
  %10 = getelementptr inbounds %"class.std::__1::vector.121", %"class.std::__1::vector.121"* %5, i64 0, i32 0, i32 0
  %11 = getelementptr inbounds %"class.std::__1::vector.121", %"class.std::__1::vector.121"* %5, i64 0, i32 0, i32 1
  call void @llvm.memset.p0i8.i64(i8* nonnull align 8 %9, i8 0, i64 24, i1 false) #10
  %12 = bitcast %"class.std::__1::vector.121"* %6 to i8*
  call void @llvm.lifetime.start.p0i8(i64 24, i8* nonnull %12) #10
  %13 = getelementptr inbounds %"class.std::__1::vector.121", %"class.std::__1::vector.121"* %6, i64 0, i32 0, i32 0
  %14 = getelementptr inbounds %"class.std::__1::vector.121", %"class.std::__1::vector.121"* %6, i64 0, i32 0, i32 1
  call void @llvm.memset.p0i8.i64(i8* nonnull align 8 %12, i8 0, i64 24, i1 false) #10
  %15 = getelementptr inbounds %"class.mojo::internal::Map_Data", %"class.mojo::internal::Map_Data"* %0, i64 0, i32 1
  %16 = getelementptr inbounds %"struct.mojo::internal::Pointer.120", %"struct.mojo::internal::Pointer.120"* %15, i64 0, i32 0
  %17 = load i64, i64* %16, align 8
  %18 = icmp eq i64 %17, 0
  %19 = bitcast %"struct.mojo::internal::Pointer.120"* %15 to i8*
  %20 = getelementptr inbounds i8, i8* %19, i64 %17
  %21 = bitcast i8* %20 to %"class.mojo::internal::Array_Data"*
  %22 = select i1 %18, %"class.mojo::internal::Array_Data"* null, %"class.mojo::internal::Array_Data"* %21
  %23 = call zeroext i1 @_ZN4mojo8internal15ArraySerializerINS_13ArrayDataViewINS_14StringDataViewEEENSt3__16vectorINS5_12basic_stringIcNS5_11char_traitsIcEENS5_9allocatorIcEEEENSA_ISC_EEEENS0_12MapKeyReaderIN4base8flat_mapISC_SC_NS5_4lessIvEENS6_INS5_4pairISC_SC_EENSA_ISL_EEEEEEEEvE19DeserializeElementsEPNS0_10Array_DataINS0_7PointerINSR_IcEEEEEEPSE_PNS_7MessageE(%"class.mojo::internal::Array_Data"* %22, %"class.std::__1::vector.121"* nonnull %5, %"class.mojo::Message"* %2)
  br i1 %23, label %24, label %102

24:                                               ; preds = %8
  %25 = getelementptr inbounds %"class.mojo::internal::Map_Data", %"class.mojo::internal::Map_Data"* %0, i64 0, i32 2
  %26 = getelementptr inbounds %"struct.mojo::internal::Pointer.120", %"struct.mojo::internal::Pointer.120"* %25, i64 0, i32 0
  %27 = load i64, i64* %26, align 8
  %28 = icmp eq i64 %27, 0
  %29 = bitcast %"struct.mojo::internal::Pointer.120"* %25 to i8*
  %30 = getelementptr inbounds i8, i8* %29, i64 %27
  %31 = bitcast i8* %30 to %"class.mojo::internal::Array_Data"*
  %32 = select i1 %28, %"class.mojo::internal::Array_Data"* null, %"class.mojo::internal::Array_Data"* %31
  %33 = call zeroext i1 @_ZN4mojo8internal15ArraySerializerINS_13ArrayDataViewINS_14StringDataViewEEENSt3__16vectorINS5_12basic_stringIcNS5_11char_traitsIcEENS5_9allocatorIcEEEENSA_ISC_EEEENS0_14MapValueReaderIN4base8flat_mapISC_SC_NS5_4lessIvEENS6_INS5_4pairISC_SC_EENSA_ISL_EEEEEEEEvE19DeserializeElementsEPNS0_10Array_DataINS0_7PointerINSR_IcEEEEEEPSE_PNS_7MessageE(%"class.mojo::internal::Array_Data"* %32, %"class.std::__1::vector.121"* nonnull %6, %"class.mojo::Message"* %2)
  br i1 %33, label %34, label %102

34:                                               ; preds = %24
  %35 = bitcast %"class.std::__1::basic_string"** %11 to i64*
  %36 = load i64, i64* %35, align 8
  %37 = bitcast %"class.std::__1::vector.121"* %5 to i64*
  %38 = load i64, i64* %37, align 8
  %39 = sub i64 %36, %38
  %40 = sdiv exact i64 %39, 24
  %41 = getelementptr inbounds %"class.base::flat_map", %"class.base::flat_map"* %1, i64 0, i32 0, i32 0, i32 0, i32 0
  %42 = load %"struct.std::__1::pair"*, %"struct.std::__1::pair"** %41, align 8
  %43 = getelementptr inbounds %"class.base::flat_map", %"class.base::flat_map"* %1, i64 0, i32 0, i32 0, i32 0, i32 1
  %44 = load %"struct.std::__1::pair"*, %"struct.std::__1::pair"** %43, align 8
  %45 = icmp eq %"struct.std::__1::pair"* %44, %42
  br i1 %45, label %67, label %46

46:                                               ; preds = %34, %65
  %47 = phi %"struct.std::__1::pair"* [ %48, %65 ], [ %44, %34 ]
  %48 = getelementptr inbounds %"struct.std::__1::pair", %"struct.std::__1::pair"* %47, i64 -1
  %49 = getelementptr inbounds %"struct.std::__1::pair", %"struct.std::__1::pair"* %47, i64 -1, i32 1
  %50 = bitcast %"class.std::__1::basic_string"* %49 to %"struct.std::__1::basic_string<char, std::__1::char_traits<char>, std::__1::allocator<char> >::__short"*
  %51 = getelementptr inbounds %"struct.std::__1::basic_string<char, std::__1::char_traits<char>, std::__1::allocator<char> >::__short", %"struct.std::__1::basic_string<char, std::__1::char_traits<char>, std::__1::allocator<char> >::__short"* %50, i64 0, i32 1, i32 0
  %52 = load i8, i8* %51, align 1
  %53 = icmp slt i8 %52, 0
  br i1 %53, label %54, label %57

54:                                               ; preds = %46
  %55 = getelementptr inbounds %"class.std::__1::basic_string", %"class.std::__1::basic_string"* %49, i64 0, i32 0, i32 0, i32 0, i32 0, i32 0, i32 0
  %56 = load i8*, i8** %55, align 8
  call void @_ZdlPv(i8* %56) #11
  br label %57

57:                                               ; preds = %54, %46
  %58 = bitcast %"struct.std::__1::pair"* %48 to %"struct.std::__1::basic_string<char, std::__1::char_traits<char>, std::__1::allocator<char> >::__short"*
  %59 = getelementptr inbounds %"struct.std::__1::basic_string<char, std::__1::char_traits<char>, std::__1::allocator<char> >::__short", %"struct.std::__1::basic_string<char, std::__1::char_traits<char>, std::__1::allocator<char> >::__short"* %58, i64 0, i32 1, i32 0
  %60 = load i8, i8* %59, align 1
  %61 = icmp slt i8 %60, 0
  br i1 %61, label %62, label %65

62:                                               ; preds = %57
  %63 = getelementptr inbounds %"struct.std::__1::pair", %"struct.std::__1::pair"* %48, i64 0, i32 0, i32 0, i32 0, i32 0, i32 0, i32 0, i32 0
  %64 = load i8*, i8** %63, align 8
  call void @_ZdlPv(i8* %64) #11
  br label %65

65:                                               ; preds = %62, %57
  %66 = icmp eq %"struct.std::__1::pair"* %48, %42
  br i1 %66, label %67, label %46

67:                                               ; preds = %65, %34
  store %"struct.std::__1::pair"* %42, %"struct.std::__1::pair"** %43, align 8
  %68 = icmp eq i64 %39, 0
  br i1 %68, label %102, label %69

69:                                               ; preds = %67
  %70 = getelementptr inbounds %"class.base::flat_map", %"class.base::flat_map"* %1, i64 0, i32 0
  %71 = bitcast %"struct.std::__1::pair"* %4 to i8*
  %72 = getelementptr inbounds %"struct.std::__1::pair", %"struct.std::__1::pair"* %4, i64 0, i32 1
  %73 = bitcast %"class.std::__1::basic_string"* %72 to i8*
  %74 = getelementptr inbounds %"struct.std::__1::pair", %"struct.std::__1::pair"* %4, i64 0, i32 0
  %75 = bitcast %"class.std::__1::basic_string"* %72 to %"struct.std::__1::basic_string<char, std::__1::char_traits<char>, std::__1::allocator<char> >::__short"*
  %76 = getelementptr inbounds %"struct.std::__1::basic_string<char, std::__1::char_traits<char>, std::__1::allocator<char> >::__short", %"struct.std::__1::basic_string<char, std::__1::char_traits<char>, std::__1::allocator<char> >::__short"* %75, i64 0, i32 1, i32 0
  %77 = getelementptr inbounds %"class.std::__1::basic_string", %"class.std::__1::basic_string"* %72, i64 0, i32 0, i32 0, i32 0, i32 0, i32 0, i32 0
  %78 = bitcast %"struct.std::__1::pair"* %4 to %"struct.std::__1::basic_string<char, std::__1::char_traits<char>, std::__1::allocator<char> >::__short"*
  %79 = getelementptr inbounds %"struct.std::__1::basic_string<char, std::__1::char_traits<char>, std::__1::allocator<char> >::__short", %"struct.std::__1::basic_string<char, std::__1::char_traits<char>, std::__1::allocator<char> >::__short"* %78, i64 0, i32 1, i32 0
  %80 = getelementptr inbounds %"struct.std::__1::pair", %"struct.std::__1::pair"* %4, i64 0, i32 0, i32 0, i32 0, i32 0, i32 0, i32 0, i32 0
  br label %81

81:                                               ; preds = %69, %99
  %82 = phi i64 [ 0, %69 ], [ %100, %99 ]
  %83 = load %"class.std::__1::basic_string"*, %"class.std::__1::basic_string"** %10, align 8
  %84 = getelementptr inbounds %"class.std::__1::basic_string", %"class.std::__1::basic_string"* %83, i64 %82
  %85 = load %"class.std::__1::basic_string"*, %"class.std::__1::basic_string"** %13, align 8
  %86 = getelementptr inbounds %"class.std::__1::basic_string", %"class.std::__1::basic_string"* %85, i64 %82
  call void @llvm.lifetime.start.p0i8(i64 48, i8* nonnull %71) #10
  %87 = bitcast %"class.std::__1::basic_string"* %84 to i8*
  call void @llvm.memcpy.p0i8.p0i8.i64(i8* nonnull align 8 %71, i8* align 8 %87, i64 24, i1 false) #10
  call void @llvm.memset.p0i8.i64(i8* align 8 %87, i8 0, i64 24, i1 false) #10
  %88 = bitcast %"class.std::__1::basic_string"* %86 to i8*
  call void @llvm.memcpy.p0i8.p0i8.i64(i8* align 8 %73, i8* align 8 %88, i64 24, i1 false) #10
  call void @llvm.memset.p0i8.i64(i8* align 8 %88, i8 0, i64 24, i1 false) #10
  %89 = call { %"struct.std::__1::pair"*, i8 } @_ZN4base8internal9flat_treeINSt3__112basic_stringIcNS2_11char_traitsIcEENS2_9allocatorIcEEEENS0_8GetFirstENS2_4lessIvEENS2_6vectorINS2_4pairIS8_S8_EENS6_ISE_EEEEE16emplace_key_argsIS8_JSE_EEENSD_INS2_11__wrap_iterIPSE_EEbEERKT_DpOT0_(%"class.base::internal::flat_tree"* %70, %"class.std::__1::basic_string"* nonnull dereferenceable(24) %74, %"struct.std::__1::pair"* nonnull dereferenceable(48) %4) #10
  %90 = load i8, i8* %76, align 1
  %91 = icmp slt i8 %90, 0
  br i1 %91, label %92, label %94

92:                                               ; preds = %81
  %93 = load i8*, i8** %77, align 8
  call void @_ZdlPv(i8* %93) #11
  br label %94

94:                                               ; preds = %92, %81
  %95 = load i8, i8* %79, align 1
  %96 = icmp slt i8 %95, 0
  br i1 %96, label %97, label %99

97:                                               ; preds = %94
  %98 = load i8*, i8** %80, align 8
  call void @_ZdlPv(i8* %98) #11
  br label %99

99:                                               ; preds = %97, %94
  call void @llvm.lifetime.end.p0i8(i64 48, i8* nonnull %71) #10
  %100 = add nuw i64 %82, 1
  %101 = icmp ult i64 %100, %40
  br i1 %101, label %81, label %102

102:                                              ; preds = %99, %67, %8, %24
  %103 = phi i1 [ false, %24 ], [ false, %8 ], [ true, %67 ], [ true, %99 ]
  %104 = load %"class.std::__1::basic_string"*, %"class.std::__1::basic_string"** %13, align 8
  %105 = icmp eq %"class.std::__1::basic_string"* %104, null
  br i1 %105, label %127, label %106

106:                                              ; preds = %102
  %107 = bitcast %"class.std::__1::basic_string"* %104 to i8*
  %108 = load %"class.std::__1::basic_string"*, %"class.std::__1::basic_string"** %14, align 8
  %109 = icmp eq %"class.std::__1::basic_string"* %108, %104
  br i1 %109, label %125, label %110

110:                                              ; preds = %106, %120
  %111 = phi %"class.std::__1::basic_string"* [ %112, %120 ], [ %108, %106 ]
  %112 = getelementptr inbounds %"class.std::__1::basic_string", %"class.std::__1::basic_string"* %111, i64 -1
  %113 = bitcast %"class.std::__1::basic_string"* %112 to %"struct.std::__1::basic_string<char, std::__1::char_traits<char>, std::__1::allocator<char> >::__short"*
  %114 = getelementptr inbounds %"struct.std::__1::basic_string<char, std::__1::char_traits<char>, std::__1::allocator<char> >::__short", %"struct.std::__1::basic_string<char, std::__1::char_traits<char>, std::__1::allocator<char> >::__short"* %113, i64 0, i32 1, i32 0
  %115 = load i8, i8* %114, align 1
  %116 = icmp slt i8 %115, 0
  br i1 %116, label %117, label %120

117:                                              ; preds = %110
  %118 = getelementptr inbounds %"class.std::__1::basic_string", %"class.std::__1::basic_string"* %112, i64 0, i32 0, i32 0, i32 0, i32 0, i32 0, i32 0
  %119 = load i8*, i8** %118, align 8
  call void @_ZdlPv(i8* %119) #11
  br label %120

120:                                              ; preds = %117, %110
  %121 = icmp eq %"class.std::__1::basic_string"* %112, %104
  br i1 %121, label %122, label %110

122:                                              ; preds = %120
  %123 = bitcast %"class.std::__1::vector.121"* %6 to i8**
  %124 = load i8*, i8** %123, align 8
  br label %125

125:                                              ; preds = %122, %106
  %126 = phi i8* [ %124, %122 ], [ %107, %106 ]
  store %"class.std::__1::basic_string"* %104, %"class.std::__1::basic_string"** %14, align 8
  call void @_ZdlPv(i8* %126) #11
  br label %127

127:                                              ; preds = %102, %125
  call void @llvm.lifetime.end.p0i8(i64 24, i8* nonnull %12) #10
  %128 = load %"class.std::__1::basic_string"*, %"class.std::__1::basic_string"** %10, align 8
  %129 = icmp eq %"class.std::__1::basic_string"* %128, null
  br i1 %129, label %151, label %130

130:                                              ; preds = %127
  %131 = bitcast %"class.std::__1::basic_string"* %128 to i8*
  %132 = load %"class.std::__1::basic_string"*, %"class.std::__1::basic_string"** %11, align 8
  %133 = icmp eq %"class.std::__1::basic_string"* %132, %128
  br i1 %133, label %149, label %134

134:                                              ; preds = %130, %144
  %135 = phi %"class.std::__1::basic_string"* [ %136, %144 ], [ %132, %130 ]
  %136 = getelementptr inbounds %"class.std::__1::basic_string", %"class.std::__1::basic_string"* %135, i64 -1
  %137 = bitcast %"class.std::__1::basic_string"* %136 to %"struct.std::__1::basic_string<char, std::__1::char_traits<char>, std::__1::allocator<char> >::__short"*
  %138 = getelementptr inbounds %"struct.std::__1::basic_string<char, std::__1::char_traits<char>, std::__1::allocator<char> >::__short", %"struct.std::__1::basic_string<char, std::__1::char_traits<char>, std::__1::allocator<char> >::__short"* %137, i64 0, i32 1, i32 0
  %139 = load i8, i8* %138, align 1
  %140 = icmp slt i8 %139, 0
  br i1 %140, label %141, label %144

141:                                              ; preds = %134
  %142 = getelementptr inbounds %"class.std::__1::basic_string", %"class.std::__1::basic_string"* %136, i64 0, i32 0, i32 0, i32 0, i32 0, i32 0, i32 0
  %143 = load i8*, i8** %142, align 8
  call void @_ZdlPv(i8* %143) #11
  br label %144

144:                                              ; preds = %141, %134
  %145 = icmp eq %"class.std::__1::basic_string"* %136, %128
  br i1 %145, label %146, label %134

146:                                              ; preds = %144
  %147 = bitcast %"class.std::__1::vector.121"* %5 to i8**
  %148 = load i8*, i8** %147, align 8
  br label %149

149:                                              ; preds = %146, %130
  %150 = phi i8* [ %148, %146 ], [ %131, %130 ]
  store %"class.std::__1::basic_string"* %128, %"class.std::__1::basic_string"** %11, align 8
  call void @_ZdlPv(i8* %150) #11
  br label %151

151:                                              ; preds = %127, %149
  call void @llvm.lifetime.end.p0i8(i64 24, i8* nonnull %9) #10
  br label %152

152:                                              ; preds = %3, %151
  %153 = phi i1 [ %103, %151 ], [ true, %3 ]
  ret i1 %153
}

; Function Attrs: nounwind ssp uwtable
define linkonce_odr hidden zeroext i1 @_ZN4mojo8internal15ArraySerializerINS_13ArrayDataViewINS_14StringDataViewEEENSt3__16vectorINS5_12basic_stringIcNS5_11char_traitsIcEENS5_9allocatorIcEEEENSA_ISC_EEEENS0_12MapKeyReaderIN4base8flat_mapISC_SC_NS5_4lessIvEENS6_INS5_4pairISC_SC_EENSA_ISL_EEEEEEEEvE19DeserializeElementsEPNS0_10Array_DataINS0_7PointerINSR_IcEEEEEEPSE_PNS_7MessageE(%"class.mojo::internal::Array_Data"*, %"class.std::__1::vector.121"*, %"class.mojo::Message"*) local_unnamed_addr #0 comdat align 2 {
  %4 = getelementptr inbounds %"class.mojo::internal::Array_Data", %"class.mojo::internal::Array_Data"* %0, i64 0, i32 0, i32 1
  %5 = load i32, i32* %4, align 1
  %6 = zext i32 %5 to i64
  %7 = getelementptr inbounds %"class.std::__1::vector.121", %"class.std::__1::vector.121"* %1, i64 0, i32 0, i32 1
  %8 = bitcast %"class.std::__1::basic_string"** %7 to i64*
  %9 = load i64, i64* %8, align 8
  %10 = bitcast %"class.std::__1::vector.121"* %1 to i64*
  %11 = load i64, i64* %10, align 8
  %12 = sub i64 %9, %11
  %13 = sdiv exact i64 %12, 24
  %14 = icmp eq i64 %13, %6
  br i1 %14, label %55, label %15

15:                                               ; preds = %3
  %16 = icmp eq i32 %5, 0
  br i1 %16, label %31, label %17

17:                                               ; preds = %15
  %18 = mul nuw nsw i64 %6, 24
  %19 = tail call i8* @_Znwm(i64 %18) #11
  %20 = bitcast i8* %19 to %"class.std::__1::basic_string"*
  %21 = getelementptr inbounds %"class.std::__1::basic_string", %"class.std::__1::basic_string"* %20, i64 %6
  %22 = ptrtoint i8* %19 to i64
  %23 = add nsw i64 %6, -1
  %24 = getelementptr %"class.std::__1::basic_string", %"class.std::__1::basic_string"* %20, i64 %23, i32 0, i32 0, i32 0, i32 0, i32 0, i32 0
  %25 = ptrtoint i8** %24 to i64
  %26 = sub i64 %25, %22
  %27 = urem i64 %26, 24
  %28 = add i64 %26, 24
  %29 = sub i64 %28, %27
  tail call void @llvm.memset.p0i8.i64(i8* nonnull align 8 %19, i8 0, i64 %29, i1 false) #10
  %30 = ptrtoint %"class.std::__1::basic_string"* %21 to i64
  br label %31

31:                                               ; preds = %15, %17
  %32 = phi i64 [ %30, %17 ], [ 0, %15 ]
  %33 = phi i64 [ %22, %17 ], [ 0, %15 ]
  store i64 %33, i64* %10, align 8
  store i64 %32, i64* %8, align 8
  %34 = getelementptr inbounds %"class.std::__1::vector.121", %"class.std::__1::vector.121"* %1, i64 0, i32 0, i32 2, i32 0, i32 0
  %35 = bitcast %"class.std::__1::basic_string"** %34 to i64*
  store i64 %32, i64* %35, align 8
  %36 = inttoptr i64 %11 to %"class.std::__1::basic_string"*
  %37 = icmp eq i64 %11, 0
  %38 = inttoptr i64 %9 to %"class.std::__1::basic_string"*
  br i1 %37, label %55, label %39

39:                                               ; preds = %31
  %40 = icmp eq %"class.std::__1::basic_string"* %38, %36
  br i1 %40, label %53, label %41

41:                                               ; preds = %39, %51
  %42 = phi %"class.std::__1::basic_string"* [ %43, %51 ], [ %38, %39 ]
  %43 = getelementptr inbounds %"class.std::__1::basic_string", %"class.std::__1::basic_string"* %42, i64 -1
  %44 = bitcast %"class.std::__1::basic_string"* %43 to %"struct.std::__1::basic_string<char, std::__1::char_traits<char>, std::__1::allocator<char> >::__short"*
  %45 = getelementptr inbounds %"struct.std::__1::basic_string<char, std::__1::char_traits<char>, std::__1::allocator<char> >::__short", %"struct.std::__1::basic_string<char, std::__1::char_traits<char>, std::__1::allocator<char> >::__short"* %44, i64 0, i32 1, i32 0
  %46 = load i8, i8* %45, align 1
  %47 = icmp slt i8 %46, 0
  br i1 %47, label %48, label %51

48:                                               ; preds = %41
  %49 = getelementptr inbounds %"class.std::__1::basic_string", %"class.std::__1::basic_string"* %43, i64 0, i32 0, i32 0, i32 0, i32 0, i32 0, i32 0
  %50 = load i8*, i8** %49, align 8
  tail call void @_ZdlPv(i8* %50) #11
  br label %51

51:                                               ; preds = %48, %41
  %52 = icmp eq %"class.std::__1::basic_string"* %43, %36
  br i1 %52, label %53, label %41

53:                                               ; preds = %51, %39
  %54 = inttoptr i64 %11 to i8*
  tail call void @_ZdlPv(i8* %54) #11
  br label %55

55:                                               ; preds = %3, %53, %31
  %56 = load i32, i32* %4, align 1
  %57 = icmp eq i32 %56, 0
  br i1 %57, label %123, label %58

58:                                               ; preds = %55
  %59 = getelementptr inbounds %"class.mojo::internal::Array_Data", %"class.mojo::internal::Array_Data"* %0, i64 1
  %60 = getelementptr inbounds %"class.std::__1::vector.121", %"class.std::__1::vector.121"* %1, i64 0, i32 0, i32 0
  br label %61

61:                                               ; preds = %58, %119
  %62 = phi i64 [ 0, %58 ], [ %69, %119 ]
  %63 = getelementptr inbounds %"class.mojo::internal::Array_Data", %"class.mojo::internal::Array_Data"* %59, i64 %62
  %64 = bitcast %"class.mojo::internal::Array_Data"* %63 to i64*
  %65 = load i64, i64* %64, align 8
  %66 = icmp eq i64 %65, 0
  %67 = bitcast %"class.mojo::internal::Array_Data"* %63 to i8*
  %68 = getelementptr inbounds i8, i8* %67, i64 %65
  %69 = add nuw nsw i64 %62, 1
  %70 = load %"class.std::__1::basic_string"*, %"class.std::__1::basic_string"** %60, align 8
  %71 = getelementptr inbounds %"class.std::__1::basic_string", %"class.std::__1::basic_string"* %70, i64 %62
  %72 = icmp eq i8* %68, null
  %73 = or i1 %66, %72
  br i1 %73, label %119, label %74

74:                                               ; preds = %61
  %75 = getelementptr inbounds i8, i8* %68, i64 8
  %76 = getelementptr inbounds i8, i8* %68, i64 4
  %77 = bitcast i8* %76 to i32*
  %78 = load i32, i32* %77, align 1
  %79 = zext i32 %78 to i64
  %80 = tail call i1 @llvm.is.constant.i64(i64 %79) #10
  %81 = icmp ult i32 %78, 23
  %82 = and i1 %81, %80
  br i1 %82, label %83, label %101

83:                                               ; preds = %74
  %84 = bitcast %"class.std::__1::basic_string"* %71 to %"struct.std::__1::basic_string<char, std::__1::char_traits<char>, std::__1::allocator<char> >::__short"*
  %85 = getelementptr inbounds %"struct.std::__1::basic_string<char, std::__1::char_traits<char>, std::__1::allocator<char> >::__short", %"struct.std::__1::basic_string<char, std::__1::char_traits<char>, std::__1::allocator<char> >::__short"* %84, i64 0, i32 1, i32 0
  %86 = load i8, i8* %85, align 1
  %87 = icmp slt i8 %86, 0
  br i1 %87, label %88, label %92

88:                                               ; preds = %83
  %89 = getelementptr inbounds %"class.std::__1::basic_string", %"class.std::__1::basic_string"* %70, i64 %62, i32 0, i32 0, i32 0, i32 0, i32 0, i32 1
  store i64 %79, i64* %89, align 8
  %90 = getelementptr inbounds %"class.std::__1::basic_string", %"class.std::__1::basic_string"* %71, i64 0, i32 0, i32 0, i32 0, i32 0, i32 0, i32 0
  %91 = load i8*, i8** %90, align 8
  br label %95

92:                                               ; preds = %83
  %93 = trunc i32 %78 to i8
  store i8 %93, i8* %85, align 1
  %94 = bitcast %"class.std::__1::basic_string"* %71 to i8*
  br label %95

95:                                               ; preds = %92, %88
  %96 = phi i8* [ %91, %88 ], [ %94, %92 ]
  %97 = icmp eq i32 %78, 0
  br i1 %97, label %99, label %98

98:                                               ; preds = %95
  tail call void @llvm.memmove.p0i8.p0i8.i64(i8* align 1 %96, i8* align 1 %75, i64 %79, i1 false) #10
  br label %99

99:                                               ; preds = %98, %95
  %100 = getelementptr inbounds i8, i8* %96, i64 %79
  store i8 0, i8* %100, align 1
  br label %104

101:                                              ; preds = %74
  %102 = tail call dereferenceable(24) %"class.std::__1::basic_string"* @_ZNSt3__112basic_stringIcNS_11char_traitsIcEENS_9allocatorIcEEE17__assign_externalEPKcm(%"class.std::__1::basic_string"* %71, i8* %75, i64 %79) #10
  %103 = bitcast %"class.std::__1::basic_string"* %71 to %"struct.std::__1::basic_string<char, std::__1::char_traits<char>, std::__1::allocator<char> >::__short"*
  br label %104

104:                                              ; preds = %101, %99
  %105 = phi %"struct.std::__1::basic_string<char, std::__1::char_traits<char>, std::__1::allocator<char> >::__short"* [ %103, %101 ], [ %84, %99 ]
  %106 = getelementptr inbounds %"struct.std::__1::basic_string<char, std::__1::char_traits<char>, std::__1::allocator<char> >::__short", %"struct.std::__1::basic_string<char, std::__1::char_traits<char>, std::__1::allocator<char> >::__short"* %105, i64 0, i32 1, i32 0
  %107 = load i8, i8* %106, align 1
  %108 = icmp slt i8 %107, 0
  %109 = getelementptr inbounds %"class.std::__1::basic_string", %"class.std::__1::basic_string"* %71, i64 0, i32 0, i32 0, i32 0, i32 0, i32 0, i32 0
  %110 = load i8*, i8** %109, align 8
  %111 = bitcast %"class.std::__1::basic_string"* %71 to i8*
  %112 = select i1 %108, i8* %110, i8* %111
  %113 = getelementptr inbounds %"class.std::__1::basic_string", %"class.std::__1::basic_string"* %70, i64 %62, i32 0, i32 0, i32 0, i32 0, i32 0, i32 1
  %114 = load i64, i64* %113, align 8
  %115 = zext i8 %107 to i64
  %116 = select i1 %108, i64 %114, i64 %115
  %117 = tail call zeroext i1 @_ZN4base12IsStringUTF8ENS_16BasicStringPieceIcNSt3__111char_traitsIcEEEE(i8* %112, i64 %116) #10
  br i1 %117, label %119, label %118

118:                                              ; preds = %104
  tail call void @_ZN4mojo8internal34RecordInvalidStringDeserializationEv() #10
  br label %119

119:                                              ; preds = %118, %104, %61
  %120 = load i32, i32* %4, align 1
  %121 = zext i32 %120 to i64
  %122 = icmp ult i64 %69, %121
  br i1 %122, label %61, label %123

123:                                              ; preds = %119, %55
  ret i1 true
}

; Function Attrs: nounwind ssp uwtable
define linkonce_odr hidden zeroext i1 @_ZN4mojo8internal15ArraySerializerINS_13ArrayDataViewINS_14StringDataViewEEENSt3__16vectorINS5_12basic_stringIcNS5_11char_traitsIcEENS5_9allocatorIcEEEENSA_ISC_EEEENS0_14MapValueReaderIN4base8flat_mapISC_SC_NS5_4lessIvEENS6_INS5_4pairISC_SC_EENSA_ISL_EEEEEEEEvE19DeserializeElementsEPNS0_10Array_DataINS0_7PointerINSR_IcEEEEEEPSE_PNS_7MessageE(%"class.mojo::internal::Array_Data"*, %"class.std::__1::vector.121"*, %"class.mojo::Message"*) local_unnamed_addr #0 comdat align 2 {
  %4 = getelementptr inbounds %"class.mojo::internal::Array_Data", %"class.mojo::internal::Array_Data"* %0, i64 0, i32 0, i32 1
  %5 = load i32, i32* %4, align 1
  %6 = zext i32 %5 to i64
  %7 = getelementptr inbounds %"class.std::__1::vector.121", %"class.std::__1::vector.121"* %1, i64 0, i32 0, i32 1
  %8 = bitcast %"class.std::__1::basic_string"** %7 to i64*
  %9 = load i64, i64* %8, align 8
  %10 = bitcast %"class.std::__1::vector.121"* %1 to i64*
  %11 = load i64, i64* %10, align 8
  %12 = sub i64 %9, %11
  %13 = sdiv exact i64 %12, 24
  %14 = icmp eq i64 %13, %6
  br i1 %14, label %55, label %15

15:                                               ; preds = %3
  %16 = icmp eq i32 %5, 0
  br i1 %16, label %31, label %17

17:                                               ; preds = %15
  %18 = mul nuw nsw i64 %6, 24
  %19 = tail call i8* @_Znwm(i64 %18) #11
  %20 = bitcast i8* %19 to %"class.std::__1::basic_string"*
  %21 = getelementptr inbounds %"class.std::__1::basic_string", %"class.std::__1::basic_string"* %20, i64 %6
  %22 = ptrtoint i8* %19 to i64
  %23 = add nsw i64 %6, -1
  %24 = getelementptr %"class.std::__1::basic_string", %"class.std::__1::basic_string"* %20, i64 %23, i32 0, i32 0, i32 0, i32 0, i32 0, i32 0
  %25 = ptrtoint i8** %24 to i64
  %26 = sub i64 %25, %22
  %27 = urem i64 %26, 24
  %28 = add i64 %26, 24
  %29 = sub i64 %28, %27
  tail call void @llvm.memset.p0i8.i64(i8* nonnull align 8 %19, i8 0, i64 %29, i1 false) #10
  %30 = ptrtoint %"class.std::__1::basic_string"* %21 to i64
  br label %31

31:                                               ; preds = %15, %17
  %32 = phi i64 [ %30, %17 ], [ 0, %15 ]
  %33 = phi i64 [ %22, %17 ], [ 0, %15 ]
  store i64 %33, i64* %10, align 8
  store i64 %32, i64* %8, align 8
  %34 = getelementptr inbounds %"class.std::__1::vector.121", %"class.std::__1::vector.121"* %1, i64 0, i32 0, i32 2, i32 0, i32 0
  %35 = bitcast %"class.std::__1::basic_string"** %34 to i64*
  store i64 %32, i64* %35, align 8
  %36 = inttoptr i64 %11 to %"class.std::__1::basic_string"*
  %37 = icmp eq i64 %11, 0
  %38 = inttoptr i64 %9 to %"class.std::__1::basic_string"*
  br i1 %37, label %55, label %39

39:                                               ; preds = %31
  %40 = icmp eq %"class.std::__1::basic_string"* %38, %36
  br i1 %40, label %53, label %41

41:                                               ; preds = %39, %51
  %42 = phi %"class.std::__1::basic_string"* [ %43, %51 ], [ %38, %39 ]
  %43 = getelementptr inbounds %"class.std::__1::basic_string", %"class.std::__1::basic_string"* %42, i64 -1
  %44 = bitcast %"class.std::__1::basic_string"* %43 to %"struct.std::__1::basic_string<char, std::__1::char_traits<char>, std::__1::allocator<char> >::__short"*
  %45 = getelementptr inbounds %"struct.std::__1::basic_string<char, std::__1::char_traits<char>, std::__1::allocator<char> >::__short", %"struct.std::__1::basic_string<char, std::__1::char_traits<char>, std::__1::allocator<char> >::__short"* %44, i64 0, i32 1, i32 0
  %46 = load i8, i8* %45, align 1
  %47 = icmp slt i8 %46, 0
  br i1 %47, label %48, label %51

48:                                               ; preds = %41
  %49 = getelementptr inbounds %"class.std::__1::basic_string", %"class.std::__1::basic_string"* %43, i64 0, i32 0, i32 0, i32 0, i32 0, i32 0, i32 0
  %50 = load i8*, i8** %49, align 8
  tail call void @_ZdlPv(i8* %50) #11
  br label %51

51:                                               ; preds = %48, %41
  %52 = icmp eq %"class.std::__1::basic_string"* %43, %36
  br i1 %52, label %53, label %41

53:                                               ; preds = %51, %39
  %54 = inttoptr i64 %11 to i8*
  tail call void @_ZdlPv(i8* %54) #11
  br label %55

55:                                               ; preds = %3, %53, %31
  %56 = load i32, i32* %4, align 1
  %57 = icmp eq i32 %56, 0
  br i1 %57, label %123, label %58

58:                                               ; preds = %55
  %59 = getelementptr inbounds %"class.mojo::internal::Array_Data", %"class.mojo::internal::Array_Data"* %0, i64 1
  %60 = getelementptr inbounds %"class.std::__1::vector.121", %"class.std::__1::vector.121"* %1, i64 0, i32 0, i32 0
  br label %61

61:                                               ; preds = %58, %119
  %62 = phi i64 [ 0, %58 ], [ %69, %119 ]
  %63 = getelementptr inbounds %"class.mojo::internal::Array_Data", %"class.mojo::internal::Array_Data"* %59, i64 %62
  %64 = bitcast %"class.mojo::internal::Array_Data"* %63 to i64*
  %65 = load i64, i64* %64, align 8
  %66 = icmp eq i64 %65, 0
  %67 = bitcast %"class.mojo::internal::Array_Data"* %63 to i8*
  %68 = getelementptr inbounds i8, i8* %67, i64 %65
  %69 = add nuw nsw i64 %62, 1
  %70 = load %"class.std::__1::basic_string"*, %"class.std::__1::basic_string"** %60, align 8
  %71 = getelementptr inbounds %"class.std::__1::basic_string", %"class.std::__1::basic_string"* %70, i64 %62
  %72 = icmp eq i8* %68, null
  %73 = or i1 %66, %72
  br i1 %73, label %119, label %74

74:                                               ; preds = %61
  %75 = getelementptr inbounds i8, i8* %68, i64 8
  %76 = getelementptr inbounds i8, i8* %68, i64 4
  %77 = bitcast i8* %76 to i32*
  %78 = load i32, i32* %77, align 1
  %79 = zext i32 %78 to i64
  %80 = tail call i1 @llvm.is.constant.i64(i64 %79) #10
  %81 = icmp ult i32 %78, 23
  %82 = and i1 %81, %80
  br i1 %82, label %83, label %101

83:                                               ; preds = %74
  %84 = bitcast %"class.std::__1::basic_string"* %71 to %"struct.std::__1::basic_string<char, std::__1::char_traits<char>, std::__1::allocator<char> >::__short"*
  %85 = getelementptr inbounds %"struct.std::__1::basic_string<char, std::__1::char_traits<char>, std::__1::allocator<char> >::__short", %"struct.std::__1::basic_string<char, std::__1::char_traits<char>, std::__1::allocator<char> >::__short"* %84, i64 0, i32 1, i32 0
  %86 = load i8, i8* %85, align 1
  %87 = icmp slt i8 %86, 0
  br i1 %87, label %88, label %92

88:                                               ; preds = %83
  %89 = getelementptr inbounds %"class.std::__1::basic_string", %"class.std::__1::basic_string"* %70, i64 %62, i32 0, i32 0, i32 0, i32 0, i32 0, i32 1
  store i64 %79, i64* %89, align 8
  %90 = getelementptr inbounds %"class.std::__1::basic_string", %"class.std::__1::basic_string"* %71, i64 0, i32 0, i32 0, i32 0, i32 0, i32 0, i32 0
  %91 = load i8*, i8** %90, align 8
  br label %95

92:                                               ; preds = %83
  %93 = trunc i32 %78 to i8
  store i8 %93, i8* %85, align 1
  %94 = bitcast %"class.std::__1::basic_string"* %71 to i8*
  br label %95

95:                                               ; preds = %92, %88
  %96 = phi i8* [ %91, %88 ], [ %94, %92 ]
  %97 = icmp eq i32 %78, 0
  br i1 %97, label %99, label %98

98:                                               ; preds = %95
  tail call void @llvm.memmove.p0i8.p0i8.i64(i8* align 1 %96, i8* align 1 %75, i64 %79, i1 false) #10
  br label %99

99:                                               ; preds = %98, %95
  %100 = getelementptr inbounds i8, i8* %96, i64 %79
  store i8 0, i8* %100, align 1
  br label %104

101:                                              ; preds = %74
  %102 = tail call dereferenceable(24) %"class.std::__1::basic_string"* @_ZNSt3__112basic_stringIcNS_11char_traitsIcEENS_9allocatorIcEEE17__assign_externalEPKcm(%"class.std::__1::basic_string"* %71, i8* %75, i64 %79) #10
  %103 = bitcast %"class.std::__1::basic_string"* %71 to %"struct.std::__1::basic_string<char, std::__1::char_traits<char>, std::__1::allocator<char> >::__short"*
  br label %104

104:                                              ; preds = %101, %99
  %105 = phi %"struct.std::__1::basic_string<char, std::__1::char_traits<char>, std::__1::allocator<char> >::__short"* [ %103, %101 ], [ %84, %99 ]
  %106 = getelementptr inbounds %"struct.std::__1::basic_string<char, std::__1::char_traits<char>, std::__1::allocator<char> >::__short", %"struct.std::__1::basic_string<char, std::__1::char_traits<char>, std::__1::allocator<char> >::__short"* %105, i64 0, i32 1, i32 0
  %107 = load i8, i8* %106, align 1
  %108 = icmp slt i8 %107, 0
  %109 = getelementptr inbounds %"class.std::__1::basic_string", %"class.std::__1::basic_string"* %71, i64 0, i32 0, i32 0, i32 0, i32 0, i32 0, i32 0
  %110 = load i8*, i8** %109, align 8
  %111 = bitcast %"class.std::__1::basic_string"* %71 to i8*
  %112 = select i1 %108, i8* %110, i8* %111
  %113 = getelementptr inbounds %"class.std::__1::basic_string", %"class.std::__1::basic_string"* %70, i64 %62, i32 0, i32 0, i32 0, i32 0, i32 0, i32 1
  %114 = load i64, i64* %113, align 8
  %115 = zext i8 %107 to i64
  %116 = select i1 %108, i64 %114, i64 %115
  %117 = tail call zeroext i1 @_ZN4base12IsStringUTF8ENS_16BasicStringPieceIcNSt3__111char_traitsIcEEEE(i8* %112, i64 %116) #10
  br i1 %117, label %119, label %118

118:                                              ; preds = %104
  tail call void @_ZN4mojo8internal34RecordInvalidStringDeserializationEv() #10
  br label %119

119:                                              ; preds = %118, %104, %61
  %120 = load i32, i32* %4, align 1
  %121 = zext i32 %120 to i64
  %122 = icmp ult i64 %69, %121
  br i1 %122, label %61, label %123

123:                                              ; preds = %119, %55
  ret i1 true
}

declare void @_ZN4mojo8internal34RecordInvalidStringDeserializationEv() local_unnamed_addr #2

; Function Attrs: nounwind readnone
declare i1 @llvm.is.constant.i64(i64) #8

declare dereferenceable(24) %"class.std::__1::basic_string"* @_ZNSt3__112basic_stringIcNS_11char_traitsIcEENS_9allocatorIcEEE17__assign_externalEPKcm(%"class.std::__1::basic_string"*, i8*, i64) local_unnamed_addr #2

; Function Attrs: argmemonly nounwind
declare void @llvm.memmove.p0i8.p0i8.i64(i8* nocapture, i8* nocapture readonly, i64, i1 immarg) #1

declare zeroext i1 @_ZN4base12IsStringUTF8ENS_16BasicStringPieceIcNSt3__111char_traitsIcEEEE(i8*, i64) local_unnamed_addr #2

; Function Attrs: nounwind ssp uwtable
define linkonce_odr hidden { %"struct.std::__1::pair"*, i8 } @_ZN4base8internal9flat_treeINSt3__112basic_stringIcNS2_11char_traitsIcEENS2_9allocatorIcEEEENS0_8GetFirstENS2_4lessIvEENS2_6vectorINS2_4pairIS8_S8_EENS6_ISE_EEEEE16emplace_key_argsIS8_JSE_EEENSD_INS2_11__wrap_iterIPSE_EEbEERKT_DpOT0_(%"class.base::internal::flat_tree"*, %"class.std::__1::basic_string"* dereferenceable(24), %"struct.std::__1::pair"* dereferenceable(48)) local_unnamed_addr #0 comdat align 2 {
  %4 = getelementptr inbounds %"class.base::internal::flat_tree", %"class.base::internal::flat_tree"* %0, i64 0, i32 0, i32 0, i32 0
  %5 = load %"struct.std::__1::pair"*, %"struct.std::__1::pair"** %4, align 8
  %6 = getelementptr inbounds %"class.base::internal::flat_tree", %"class.base::internal::flat_tree"* %0, i64 0, i32 0, i32 0, i32 1
  %7 = bitcast %"struct.std::__1::pair"** %6 to i64*
  %8 = load i64, i64* %7, align 8
  %9 = ptrtoint %"struct.std::__1::pair"* %5 to i64
  %10 = sub i64 %8, %9
  %11 = icmp eq i64 %10, 0
  %12 = inttoptr i64 %8 to %"struct.std::__1::pair"*
  br i1 %11, label %64, label %13

13:                                               ; preds = %3
  %14 = sdiv exact i64 %10, 48
  %15 = bitcast %"class.std::__1::basic_string"* %1 to %"struct.std::__1::basic_string<char, std::__1::char_traits<char>, std::__1::allocator<char> >::__short"*
  %16 = getelementptr inbounds %"struct.std::__1::basic_string<char, std::__1::char_traits<char>, std::__1::allocator<char> >::__short", %"struct.std::__1::basic_string<char, std::__1::char_traits<char>, std::__1::allocator<char> >::__short"* %15, i64 0, i32 1, i32 0
  %17 = load i8, i8* %16, align 1
  %18 = icmp slt i8 %17, 0
  %19 = getelementptr inbounds %"class.std::__1::basic_string", %"class.std::__1::basic_string"* %1, i64 0, i32 0, i32 0, i32 0, i32 0, i32 0, i32 1
  %20 = load i64, i64* %19, align 8
  %21 = zext i8 %17 to i64
  %22 = select i1 %18, i64 %20, i64 %21
  %23 = getelementptr inbounds %"class.std::__1::basic_string", %"class.std::__1::basic_string"* %1, i64 0, i32 0, i32 0, i32 0, i32 0, i32 0, i32 0
  %24 = load i8*, i8** %23, align 8
  %25 = bitcast %"class.std::__1::basic_string"* %1 to i8*
  %26 = select i1 %18, i8* %24, i8* %25
  br label %27

27:                                               ; preds = %58, %13
  %28 = phi %"struct.std::__1::pair"* [ %5, %13 ], [ %60, %58 ]
  %29 = phi i64 [ %14, %13 ], [ %59, %58 ]
  %30 = lshr i64 %29, 1
  %31 = getelementptr inbounds %"struct.std::__1::pair", %"struct.std::__1::pair"* %28, i64 %30
  %32 = bitcast %"struct.std::__1::pair"* %31 to %"struct.std::__1::basic_string<char, std::__1::char_traits<char>, std::__1::allocator<char> >::__short"*
  %33 = getelementptr inbounds %"struct.std::__1::basic_string<char, std::__1::char_traits<char>, std::__1::allocator<char> >::__short", %"struct.std::__1::basic_string<char, std::__1::char_traits<char>, std::__1::allocator<char> >::__short"* %32, i64 0, i32 1, i32 0
  %34 = load i8, i8* %33, align 1
  %35 = icmp slt i8 %34, 0
  %36 = getelementptr inbounds %"struct.std::__1::pair", %"struct.std::__1::pair"* %28, i64 %30, i32 0, i32 0, i32 0, i32 0, i32 0, i32 0, i32 1
  %37 = load i64, i64* %36, align 8
  %38 = zext i8 %34 to i64
  %39 = select i1 %35, i64 %37, i64 %38
  %40 = icmp ult i64 %22, %39
  %41 = select i1 %40, i64 %22, i64 %39
  %42 = icmp eq i64 %41, 0
  br i1 %42, label %50, label %43

43:                                               ; preds = %27
  %44 = getelementptr inbounds %"struct.std::__1::pair", %"struct.std::__1::pair"* %31, i64 0, i32 0, i32 0, i32 0, i32 0, i32 0, i32 0, i32 0
  %45 = load i8*, i8** %44, align 8
  %46 = bitcast %"struct.std::__1::pair"* %31 to i8*
  %47 = select i1 %35, i8* %45, i8* %46
  %48 = tail call i32 @memcmp(i8* %47, i8* %26, i64 %41) #10
  %49 = icmp eq i32 %48, 0
  br i1 %49, label %50, label %52

50:                                               ; preds = %43, %27
  %51 = icmp ult i64 %39, %22
  br i1 %51, label %54, label %58

52:                                               ; preds = %43
  %53 = icmp slt i32 %48, 0
  br i1 %53, label %54, label %58

54:                                               ; preds = %52, %50
  %55 = getelementptr inbounds %"struct.std::__1::pair", %"struct.std::__1::pair"* %31, i64 1
  %56 = xor i64 %30, -1
  %57 = add i64 %29, %56
  br label %58

58:                                               ; preds = %54, %52, %50
  %59 = phi i64 [ %57, %54 ], [ %30, %52 ], [ %30, %50 ]
  %60 = phi %"struct.std::__1::pair"* [ %55, %54 ], [ %28, %52 ], [ %28, %50 ]
  %61 = icmp eq i64 %59, 0
  br i1 %61, label %62, label %27

62:                                               ; preds = %58
  %63 = ptrtoint %"struct.std::__1::pair"* %60 to i64
  br label %64

64:                                               ; preds = %62, %3
  %65 = phi i64 [ %63, %62 ], [ %9, %3 ]
  %66 = phi %"struct.std::__1::pair"* [ %60, %62 ], [ %5, %3 ]
  %67 = icmp eq %"struct.std::__1::pair"* %66, %12
  br i1 %67, label %103, label %68

68:                                               ; preds = %64
  %69 = bitcast %"struct.std::__1::pair"* %66 to %"struct.std::__1::basic_string<char, std::__1::char_traits<char>, std::__1::allocator<char> >::__short"*
  %70 = getelementptr inbounds %"struct.std::__1::basic_string<char, std::__1::char_traits<char>, std::__1::allocator<char> >::__short", %"struct.std::__1::basic_string<char, std::__1::char_traits<char>, std::__1::allocator<char> >::__short"* %69, i64 0, i32 1, i32 0
  %71 = load i8, i8* %70, align 1
  %72 = icmp slt i8 %71, 0
  %73 = getelementptr inbounds %"struct.std::__1::pair", %"struct.std::__1::pair"* %66, i64 0, i32 0, i32 0, i32 0, i32 0, i32 0, i32 0, i32 1
  %74 = load i64, i64* %73, align 8
  %75 = zext i8 %71 to i64
  %76 = select i1 %72, i64 %74, i64 %75
  %77 = bitcast %"class.std::__1::basic_string"* %1 to %"struct.std::__1::basic_string<char, std::__1::char_traits<char>, std::__1::allocator<char> >::__short"*
  %78 = getelementptr inbounds %"struct.std::__1::basic_string<char, std::__1::char_traits<char>, std::__1::allocator<char> >::__short", %"struct.std::__1::basic_string<char, std::__1::char_traits<char>, std::__1::allocator<char> >::__short"* %77, i64 0, i32 1, i32 0
  %79 = load i8, i8* %78, align 1
  %80 = icmp slt i8 %79, 0
  %81 = getelementptr inbounds %"class.std::__1::basic_string", %"class.std::__1::basic_string"* %1, i64 0, i32 0, i32 0, i32 0, i32 0, i32 0, i32 1
  %82 = load i64, i64* %81, align 8
  %83 = zext i8 %79 to i64
  %84 = select i1 %80, i64 %82, i64 %83
  %85 = icmp ult i64 %76, %84
  %86 = select i1 %85, i64 %76, i64 %84
  %87 = icmp eq i64 %86, 0
  br i1 %87, label %99, label %88

88:                                               ; preds = %68
  %89 = getelementptr inbounds %"class.std::__1::basic_string", %"class.std::__1::basic_string"* %1, i64 0, i32 0, i32 0, i32 0, i32 0, i32 0, i32 0
  %90 = load i8*, i8** %89, align 8
  %91 = bitcast %"class.std::__1::basic_string"* %1 to i8*
  %92 = select i1 %80, i8* %90, i8* %91
  %93 = getelementptr inbounds %"struct.std::__1::pair", %"struct.std::__1::pair"* %66, i64 0, i32 0, i32 0, i32 0, i32 0, i32 0, i32 0, i32 0
  %94 = load i8*, i8** %93, align 8
  %95 = bitcast %"struct.std::__1::pair"* %66 to i8*
  %96 = select i1 %72, i8* %94, i8* %95
  %97 = tail call i32 @memcmp(i8* %92, i8* %96, i64 %86) #10
  %98 = icmp eq i32 %97, 0
  br i1 %98, label %99, label %101

99:                                               ; preds = %88, %68
  %100 = icmp ult i64 %84, %76
  br i1 %100, label %103, label %107

101:                                              ; preds = %88
  %102 = icmp slt i32 %97, 0
  br i1 %102, label %103, label %107

103:                                              ; preds = %99, %64, %101
  %104 = getelementptr inbounds %"class.base::internal::flat_tree", %"class.base::internal::flat_tree"* %0, i64 0, i32 0
  %105 = tail call %"struct.std::__1::pair"* @_ZNSt3__16vectorINS_4pairINS_12basic_stringIcNS_11char_traitsIcEENS_9allocatorIcEEEES7_EENS5_IS8_EEE7emplaceIJS8_EEENS_11__wrap_iterIPS8_EENSC_IPKS8_EEDpOT_(%"class.std::__1::vector"* %104, %"struct.std::__1::pair"* %66, %"struct.std::__1::pair"* dereferenceable(48) %2) #10
  %106 = ptrtoint %"struct.std::__1::pair"* %105 to i64
  br label %107

107:                                              ; preds = %99, %101, %103
  %108 = phi i64 [ %106, %103 ], [ %65, %101 ], [ %65, %99 ]
  %109 = phi i8 [ 1, %103 ], [ 0, %101 ], [ 0, %99 ]
  %110 = inttoptr i64 %108 to %"struct.std::__1::pair"*
  %111 = insertvalue { %"struct.std::__1::pair"*, i8 } undef, %"struct.std::__1::pair"* %110, 0
  %112 = insertvalue { %"struct.std::__1::pair"*, i8 } %111, i8 %109, 1
  ret { %"struct.std::__1::pair"*, i8 } %112
}

; Function Attrs: nofree nounwind readonly
declare i32 @memcmp(i8* nocapture, i8* nocapture, i64) local_unnamed_addr #9

; Function Attrs: nounwind ssp uwtable
define linkonce_odr hidden %"struct.std::__1::pair"* @_ZNSt3__16vectorINS_4pairINS_12basic_stringIcNS_11char_traitsIcEENS_9allocatorIcEEEES7_EENS5_IS8_EEE7emplaceIJS8_EEENS_11__wrap_iterIPS8_EENSC_IPKS8_EEDpOT_(%"class.std::__1::vector"*, %"struct.std::__1::pair"*, %"struct.std::__1::pair"* dereferenceable(48)) local_unnamed_addr #0 comdat align 2 {
  %4 = alloca [15 x i8], align 8
  %5 = alloca [15 x i8], align 8
  %6 = alloca %"struct.std::__1::__split_buffer", align 8
  %7 = ptrtoint %"struct.std::__1::pair"* %1 to i64
  %8 = getelementptr inbounds %"class.std::__1::vector", %"class.std::__1::vector"* %0, i64 0, i32 0, i32 0
  %9 = getelementptr inbounds %"class.std::__1::vector", %"class.std::__1::vector"* %0, i64 0, i32 0, i32 1
  %10 = load %"struct.std::__1::pair"*, %"struct.std::__1::pair"** %9, align 8
  %11 = getelementptr inbounds %"class.std::__1::vector", %"class.std::__1::vector"* %0, i64 0, i32 0, i32 2, i32 0, i32 0
  %12 = load %"struct.std::__1::pair"*, %"struct.std::__1::pair"** %11, align 8
  %13 = icmp ult %"struct.std::__1::pair"* %10, %12
  %14 = ptrtoint %"struct.std::__1::pair"* %12 to i64
  br i1 %13, label %15, label %132

15:                                               ; preds = %3
  %16 = icmp eq %"struct.std::__1::pair"* %10, %1
  br i1 %16, label %17, label %27

17:                                               ; preds = %15
  %18 = bitcast %"struct.std::__1::pair"* %1 to i8*
  %19 = bitcast %"struct.std::__1::pair"* %2 to i8*
  tail call void @llvm.memcpy.p0i8.p0i8.i64(i8* align 8 %18, i8* align 8 %19, i64 24, i1 false) #10
  tail call void @llvm.memset.p0i8.i64(i8* align 8 %19, i8 0, i64 24, i1 false) #10
  %20 = getelementptr inbounds %"struct.std::__1::pair", %"struct.std::__1::pair"* %1, i64 0, i32 1
  %21 = getelementptr inbounds %"struct.std::__1::pair", %"struct.std::__1::pair"* %2, i64 0, i32 1
  %22 = bitcast %"class.std::__1::basic_string"* %20 to i8*
  %23 = bitcast %"class.std::__1::basic_string"* %21 to i8*
  tail call void @llvm.memcpy.p0i8.p0i8.i64(i8* align 8 %22, i8* align 8 %23, i64 24, i1 false) #10
  tail call void @llvm.memset.p0i8.i64(i8* align 8 %23, i8 0, i64 24, i1 false) #10
  %24 = getelementptr inbounds %"struct.std::__1::pair", %"struct.std::__1::pair"* %1, i64 1
  %25 = ptrtoint %"struct.std::__1::pair"* %24 to i64
  %26 = bitcast %"struct.std::__1::pair"** %9 to i64*
  store i64 %25, i64* %26, align 8
  br label %272

27:                                               ; preds = %15
  %28 = getelementptr inbounds [15 x i8], [15 x i8]* %4, i64 0, i64 0
  call void @llvm.lifetime.start.p0i8(i64 15, i8* nonnull %28)
  %29 = getelementptr inbounds [15 x i8], [15 x i8]* %5, i64 0, i64 0
  call void @llvm.lifetime.start.p0i8(i64 15, i8* nonnull %29)
  %30 = bitcast %"struct.std::__1::pair"* %2 to i8*
  %31 = bitcast %"struct.std::__1::pair"* %2 to i64*
  %32 = load i64, i64* %31, align 8
  %33 = getelementptr inbounds %"struct.std::__1::pair", %"struct.std::__1::pair"* %2, i64 0, i32 0, i32 0, i32 0, i32 0, i32 0, i32 0, i32 1
  %34 = bitcast i64* %33 to i8*
  call void @llvm.memcpy.p0i8.p0i8.i64(i8* nonnull align 8 %28, i8* align 8 %34, i64 15, i1 false)
  %35 = getelementptr inbounds i8, i8* %30, i64 23
  %36 = load i8, i8* %35, align 1
  tail call void @llvm.memset.p0i8.i64(i8* align 8 %30, i8 0, i64 24, i1 false) #10
  %37 = getelementptr inbounds %"struct.std::__1::pair", %"struct.std::__1::pair"* %2, i64 0, i32 1
  %38 = bitcast %"class.std::__1::basic_string"* %37 to i8*
  %39 = getelementptr inbounds %"struct.std::__1::pair", %"struct.std::__1::pair"* %2, i64 0, i32 1, i32 0, i32 0, i32 0, i32 0, i32 0, i32 0
  %40 = bitcast i8** %39 to i64*
  %41 = load i64, i64* %40, align 8
  %42 = getelementptr inbounds %"struct.std::__1::pair", %"struct.std::__1::pair"* %2, i64 0, i32 1, i32 0, i32 0, i32 0, i32 0, i32 0, i32 1
  %43 = bitcast i64* %42 to i8*
  call void @llvm.memcpy.p0i8.p0i8.i64(i8* nonnull align 8 %29, i8* align 8 %43, i64 15, i1 false)
  %44 = getelementptr inbounds i8, i8* %30, i64 47
  %45 = load i8, i8* %44, align 1
  tail call void @llvm.memset.p0i8.i64(i8* align 8 %38, i8 0, i64 24, i1 false) #10
  %46 = load %"struct.std::__1::pair"*, %"struct.std::__1::pair"** %9, align 8
  %47 = getelementptr inbounds %"struct.std::__1::pair", %"struct.std::__1::pair"* %1, i64 1
  %48 = ptrtoint %"struct.std::__1::pair"* %46 to i64
  %49 = ptrtoint %"struct.std::__1::pair"* %47 to i64
  %50 = sub i64 %48, %49
  %51 = sdiv exact i64 %50, 48
  %52 = getelementptr inbounds %"struct.std::__1::pair", %"struct.std::__1::pair"* %1, i64 %51
  %53 = bitcast %"struct.std::__1::pair"** %9 to i64*
  %54 = icmp ult %"struct.std::__1::pair"* %52, %46
  br i1 %54, label %92, label %57

55:                                               ; preds = %92
  %56 = ptrtoint %"struct.std::__1::pair"* %102 to i64
  br label %57

57:                                               ; preds = %55, %27
  %58 = phi i64 [ %56, %55 ], [ %48, %27 ]
  store i64 %58, i64* %53, align 8
  %59 = icmp eq i64 %50, 0
  br i1 %59, label %104, label %60

60:                                               ; preds = %57, %86
  %61 = phi %"struct.std::__1::pair"* [ %64, %86 ], [ %46, %57 ]
  %62 = phi %"struct.std::__1::pair"* [ %63, %86 ], [ %52, %57 ]
  %63 = getelementptr inbounds %"struct.std::__1::pair", %"struct.std::__1::pair"* %62, i64 -1
  %64 = getelementptr inbounds %"struct.std::__1::pair", %"struct.std::__1::pair"* %61, i64 -1
  %65 = bitcast %"struct.std::__1::pair"* %64 to %"struct.std::__1::basic_string<char, std::__1::char_traits<char>, std::__1::allocator<char> >::__short"*
  %66 = getelementptr inbounds %"struct.std::__1::basic_string<char, std::__1::char_traits<char>, std::__1::allocator<char> >::__short", %"struct.std::__1::basic_string<char, std::__1::char_traits<char>, std::__1::allocator<char> >::__short"* %65, i64 0, i32 1, i32 0
  %67 = load i8, i8* %66, align 1
  %68 = icmp slt i8 %67, 0
  br i1 %68, label %69, label %72

69:                                               ; preds = %60
  %70 = getelementptr inbounds %"struct.std::__1::pair", %"struct.std::__1::pair"* %64, i64 0, i32 0, i32 0, i32 0, i32 0, i32 0, i32 0, i32 0
  %71 = load i8*, i8** %70, align 8
  tail call void @_ZdlPv(i8* %71) #11
  br label %72

72:                                               ; preds = %69, %60
  %73 = bitcast %"struct.std::__1::pair"* %64 to i8*
  %74 = bitcast %"struct.std::__1::pair"* %63 to i8*
  tail call void @llvm.memcpy.p0i8.p0i8.i64(i8* align 8 %73, i8* align 8 %74, i64 24, i1 false) #10
  %75 = bitcast %"struct.std::__1::pair"* %63 to %"struct.std::__1::basic_string<char, std::__1::char_traits<char>, std::__1::allocator<char> >::__short"*
  %76 = getelementptr inbounds %"struct.std::__1::basic_string<char, std::__1::char_traits<char>, std::__1::allocator<char> >::__short", %"struct.std::__1::basic_string<char, std::__1::char_traits<char>, std::__1::allocator<char> >::__short"* %75, i64 0, i32 1, i32 0
  store i8 0, i8* %76, align 1
  store i8 0, i8* %74, align 1
  %77 = getelementptr inbounds %"struct.std::__1::pair", %"struct.std::__1::pair"* %62, i64 -1, i32 1
  %78 = getelementptr inbounds %"struct.std::__1::pair", %"struct.std::__1::pair"* %61, i64 -1, i32 1
  %79 = bitcast %"class.std::__1::basic_string"* %78 to %"struct.std::__1::basic_string<char, std::__1::char_traits<char>, std::__1::allocator<char> >::__short"*
  %80 = getelementptr inbounds %"struct.std::__1::basic_string<char, std::__1::char_traits<char>, std::__1::allocator<char> >::__short", %"struct.std::__1::basic_string<char, std::__1::char_traits<char>, std::__1::allocator<char> >::__short"* %79, i64 0, i32 1, i32 0
  %81 = load i8, i8* %80, align 1
  %82 = icmp slt i8 %81, 0
  br i1 %82, label %83, label %86

83:                                               ; preds = %72
  %84 = getelementptr inbounds %"class.std::__1::basic_string", %"class.std::__1::basic_string"* %78, i64 0, i32 0, i32 0, i32 0, i32 0, i32 0, i32 0
  %85 = load i8*, i8** %84, align 8
  tail call void @_ZdlPv(i8* %85) #11
  br label %86

86:                                               ; preds = %83, %72
  %87 = bitcast %"class.std::__1::basic_string"* %78 to i8*
  %88 = bitcast %"class.std::__1::basic_string"* %77 to i8*
  tail call void @llvm.memcpy.p0i8.p0i8.i64(i8* align 8 %87, i8* align 8 %88, i64 24, i1 false) #10
  %89 = bitcast %"class.std::__1::basic_string"* %77 to %"struct.std::__1::basic_string<char, std::__1::char_traits<char>, std::__1::allocator<char> >::__short"*
  %90 = getelementptr inbounds %"struct.std::__1::basic_string<char, std::__1::char_traits<char>, std::__1::allocator<char> >::__short", %"struct.std::__1::basic_string<char, std::__1::char_traits<char>, std::__1::allocator<char> >::__short"* %89, i64 0, i32 1, i32 0
  store i8 0, i8* %90, align 1
  store i8 0, i8* %88, align 1
  %91 = icmp eq %"struct.std::__1::pair"* %63, %1
  br i1 %91, label %104, label %60

92:                                               ; preds = %27, %92
  %93 = phi %"struct.std::__1::pair"* [ %102, %92 ], [ %46, %27 ]
  %94 = phi %"struct.std::__1::pair"* [ %101, %92 ], [ %52, %27 ]
  %95 = bitcast %"struct.std::__1::pair"* %93 to i8*
  %96 = bitcast %"struct.std::__1::pair"* %94 to i8*
  tail call void @llvm.memcpy.p0i8.p0i8.i64(i8* align 8 %95, i8* align 8 %96, i64 24, i1 false) #10
  tail call void @llvm.memset.p0i8.i64(i8* align 8 %96, i8 0, i64 24, i1 false) #10
  %97 = getelementptr inbounds %"struct.std::__1::pair", %"struct.std::__1::pair"* %93, i64 0, i32 1
  %98 = getelementptr inbounds %"struct.std::__1::pair", %"struct.std::__1::pair"* %94, i64 0, i32 1
  %99 = bitcast %"class.std::__1::basic_string"* %97 to i8*
  %100 = bitcast %"class.std::__1::basic_string"* %98 to i8*
  tail call void @llvm.memcpy.p0i8.p0i8.i64(i8* align 8 %99, i8* align 8 %100, i64 24, i1 false) #10
  tail call void @llvm.memset.p0i8.i64(i8* align 8 %100, i8 0, i64 24, i1 false) #10
  %101 = getelementptr inbounds %"struct.std::__1::pair", %"struct.std::__1::pair"* %94, i64 1
  %102 = getelementptr inbounds %"struct.std::__1::pair", %"struct.std::__1::pair"* %93, i64 1
  %103 = icmp ult %"struct.std::__1::pair"* %101, %46
  br i1 %103, label %92, label %55

104:                                              ; preds = %86, %57
  %105 = bitcast %"struct.std::__1::pair"* %1 to %"struct.std::__1::basic_string<char, std::__1::char_traits<char>, std::__1::allocator<char> >::__short"*
  %106 = getelementptr inbounds %"struct.std::__1::basic_string<char, std::__1::char_traits<char>, std::__1::allocator<char> >::__short", %"struct.std::__1::basic_string<char, std::__1::char_traits<char>, std::__1::allocator<char> >::__short"* %105, i64 0, i32 1, i32 0
  %107 = load i8, i8* %106, align 1
  %108 = icmp slt i8 %107, 0
  br i1 %108, label %109, label %112

109:                                              ; preds = %104
  %110 = getelementptr inbounds %"struct.std::__1::pair", %"struct.std::__1::pair"* %1, i64 0, i32 0, i32 0, i32 0, i32 0, i32 0, i32 0, i32 0
  %111 = load i8*, i8** %110, align 8
  tail call void @_ZdlPv(i8* %111) #11
  br label %112

112:                                              ; preds = %109, %104
  %113 = bitcast %"struct.std::__1::pair"* %1 to i64*
  store i64 %32, i64* %113, align 8
  %114 = getelementptr inbounds %"struct.std::__1::pair", %"struct.std::__1::pair"* %1, i64 0, i32 0, i32 0, i32 0, i32 0, i32 0, i32 0, i32 1
  %115 = bitcast i64* %114 to i8*
  call void @llvm.memcpy.p0i8.p0i8.i64(i8* align 8 %115, i8* nonnull align 8 %28, i64 15, i1 false)
  %116 = bitcast %"struct.std::__1::pair"* %1 to i8*
  %117 = getelementptr inbounds i8, i8* %116, i64 23
  store i8 %36, i8* %117, align 1
  %118 = getelementptr inbounds %"struct.std::__1::pair", %"struct.std::__1::pair"* %1, i64 0, i32 1
  %119 = bitcast %"class.std::__1::basic_string"* %118 to %"struct.std::__1::basic_string<char, std::__1::char_traits<char>, std::__1::allocator<char> >::__short"*
  %120 = getelementptr inbounds %"struct.std::__1::basic_string<char, std::__1::char_traits<char>, std::__1::allocator<char> >::__short", %"struct.std::__1::basic_string<char, std::__1::char_traits<char>, std::__1::allocator<char> >::__short"* %119, i64 0, i32 1, i32 0
  %121 = load i8, i8* %120, align 1
  %122 = icmp slt i8 %121, 0
  br i1 %122, label %123, label %126

123:                                              ; preds = %112
  %124 = getelementptr inbounds %"class.std::__1::basic_string", %"class.std::__1::basic_string"* %118, i64 0, i32 0, i32 0, i32 0, i32 0, i32 0, i32 0
  %125 = load i8*, i8** %124, align 8
  tail call void @_ZdlPv(i8* %125) #11
  br label %126

126:                                              ; preds = %112, %123
  %127 = getelementptr inbounds %"struct.std::__1::pair", %"struct.std::__1::pair"* %1, i64 0, i32 1, i32 0, i32 0, i32 0, i32 0, i32 0, i32 0
  %128 = bitcast i8** %127 to i64*
  store i64 %41, i64* %128, align 8
  %129 = getelementptr inbounds %"struct.std::__1::pair", %"struct.std::__1::pair"* %1, i64 0, i32 1, i32 0, i32 0, i32 0, i32 0, i32 0, i32 1
  %130 = bitcast i64* %129 to i8*
  call void @llvm.memcpy.p0i8.p0i8.i64(i8* align 8 %130, i8* nonnull align 8 %29, i64 15, i1 false)
  %131 = getelementptr inbounds i8, i8* %116, i64 47
  store i8 %45, i8* %131, align 1
  call void @llvm.lifetime.end.p0i8(i64 15, i8* nonnull %28)
  call void @llvm.lifetime.end.p0i8(i64 15, i8* nonnull %29)
  br label %272

132:                                              ; preds = %3
  %133 = ptrtoint %"struct.std::__1::pair"* %10 to i64
  %134 = getelementptr inbounds %"class.std::__1::vector", %"class.std::__1::vector"* %0, i64 0, i32 0, i32 2
  %135 = bitcast %"struct.std::__1::__split_buffer"* %6 to i8*
  call void @llvm.lifetime.start.p0i8(i64 40, i8* nonnull %135) #10
  %136 = getelementptr inbounds %"struct.std::__1::__split_buffer", %"struct.std::__1::__split_buffer"* %6, i64 0, i32 0
  %137 = getelementptr inbounds %"struct.std::__1::__split_buffer", %"struct.std::__1::__split_buffer"* %6, i64 0, i32 1
  %138 = getelementptr inbounds %"struct.std::__1::__split_buffer", %"struct.std::__1::__split_buffer"* %6, i64 0, i32 2
  %139 = getelementptr inbounds %"struct.std::__1::__split_buffer", %"struct.std::__1::__split_buffer"* %6, i64 0, i32 3, i32 0, i32 0
  %140 = getelementptr inbounds %"struct.std::__1::__split_buffer", %"struct.std::__1::__split_buffer"* %6, i64 0, i32 3, i32 1, i32 0
  %141 = bitcast %"struct.std::__1::pair"** %9 to i64*
  %142 = bitcast %"class.std::__1::vector"* %0 to i64*
  %143 = bitcast %"struct.std::__1::__split_buffer"* %6 to i8*
  call void @llvm.memset.p0i8.i64(i8* nonnull align 8 %143, i8 -86, i64 40, i1 false)
  %144 = load i64, i64* %142, align 8
  %145 = sub i64 %133, %144
  %146 = sdiv exact i64 %145, 48
  %147 = add nsw i64 %146, 1
  %148 = icmp ugt i64 %147, 384307168202282325
  br i1 %148, label %149, label %151

149:                                              ; preds = %132
  %150 = bitcast %"class.std::__1::vector"* %0 to %"class.std::__1::__vector_base_common"*
  tail call void @_ZNKSt3__120__vector_base_commonILb1EE20__throw_length_errorEv(%"class.std::__1::__vector_base_common"* %150) #12
  unreachable

151:                                              ; preds = %132
  %152 = bitcast %"struct.std::__1::pair"** %11 to i64*
  %153 = sub i64 %14, %144
  %154 = sdiv exact i64 %153, 48
  %155 = icmp ult i64 %154, 192153584101141162
  br i1 %155, label %160, label %156

156:                                              ; preds = %151
  %157 = sub i64 %7, %144
  %158 = sdiv exact i64 %157, 48
  store %"struct.std::__1::pair"* null, %"struct.std::__1::pair"** %139, align 8
  %159 = bitcast %"class.std::__1::allocator.4"** %140 to %"class.std::__1::__compressed_pair.1"**
  store %"class.std::__1::__compressed_pair.1"* %134, %"class.std::__1::__compressed_pair.1"** %159, align 8
  br label %168

160:                                              ; preds = %151
  %161 = shl nsw i64 %154, 1
  %162 = icmp ult i64 %161, %147
  %163 = select i1 %162, i64 %147, i64 %161
  %164 = sub i64 %7, %144
  %165 = sdiv exact i64 %164, 48
  store %"struct.std::__1::pair"* null, %"struct.std::__1::pair"** %139, align 8
  %166 = bitcast %"class.std::__1::allocator.4"** %140 to %"class.std::__1::__compressed_pair.1"**
  store %"class.std::__1::__compressed_pair.1"* %134, %"class.std::__1::__compressed_pair.1"** %166, align 8
  %167 = icmp eq i64 %163, 0
  br i1 %167, label %174, label %168

168:                                              ; preds = %160, %156
  %169 = phi i64 [ %158, %156 ], [ %165, %160 ]
  %170 = phi i64 [ 384307168202282325, %156 ], [ %163, %160 ]
  %171 = mul i64 %170, 48
  %172 = tail call i8* @_Znwm(i64 %171) #11
  %173 = bitcast i8* %172 to %"struct.std::__1::pair"*
  br label %174

174:                                              ; preds = %160, %168
  %175 = phi i64 [ %169, %168 ], [ %165, %160 ]
  %176 = phi i64 [ %170, %168 ], [ 0, %160 ]
  %177 = phi %"struct.std::__1::pair"* [ %173, %168 ], [ null, %160 ]
  store %"struct.std::__1::pair"* %177, %"struct.std::__1::pair"** %136, align 8
  %178 = getelementptr inbounds %"struct.std::__1::pair", %"struct.std::__1::pair"* %177, i64 %175
  store %"struct.std::__1::pair"* %178, %"struct.std::__1::pair"** %138, align 8
  store %"struct.std::__1::pair"* %178, %"struct.std::__1::pair"** %137, align 8
  %179 = getelementptr inbounds %"struct.std::__1::pair", %"struct.std::__1::pair"* %177, i64 %176
  store %"struct.std::__1::pair"* %179, %"struct.std::__1::pair"** %139, align 8
  call void @_ZNSt3__114__split_bufferINS_4pairINS_12basic_stringIcNS_11char_traitsIcEENS_9allocatorIcEEEES7_EERNS5_IS8_EEE12emplace_backIJS8_EEEvDpOT_(%"struct.std::__1::__split_buffer"* nonnull %6, %"struct.std::__1::pair"* dereferenceable(48) %2)
  %180 = load %"struct.std::__1::pair"*, %"struct.std::__1::pair"** %137, align 8
  %181 = load %"struct.std::__1::pair"*, %"struct.std::__1::pair"** %8, align 8
  %182 = icmp eq %"struct.std::__1::pair"* %181, %1
  br i1 %182, label %197, label %183

183:                                              ; preds = %174, %183
  %184 = phi %"struct.std::__1::pair"* [ %195, %183 ], [ %180, %174 ]
  %185 = phi %"struct.std::__1::pair"* [ %187, %183 ], [ %1, %174 ]
  %186 = getelementptr inbounds %"struct.std::__1::pair", %"struct.std::__1::pair"* %184, i64 -1
  %187 = getelementptr inbounds %"struct.std::__1::pair", %"struct.std::__1::pair"* %185, i64 -1
  %188 = bitcast %"struct.std::__1::pair"* %186 to i8*
  %189 = bitcast %"struct.std::__1::pair"* %187 to i8*
  call void @llvm.memcpy.p0i8.p0i8.i64(i8* align 8 %188, i8* align 8 %189, i64 24, i1 false) #10
  call void @llvm.memset.p0i8.i64(i8* align 8 %189, i8 0, i64 24, i1 false) #10
  %190 = getelementptr inbounds %"struct.std::__1::pair", %"struct.std::__1::pair"* %184, i64 -1, i32 1
  %191 = getelementptr inbounds %"struct.std::__1::pair", %"struct.std::__1::pair"* %185, i64 -1, i32 1
  %192 = bitcast %"class.std::__1::basic_string"* %190 to i8*
  %193 = bitcast %"class.std::__1::basic_string"* %191 to i8*
  call void @llvm.memcpy.p0i8.p0i8.i64(i8* align 8 %192, i8* align 8 %193, i64 24, i1 false) #10
  call void @llvm.memset.p0i8.i64(i8* align 8 %193, i8 0, i64 24, i1 false) #10
  %194 = load %"struct.std::__1::pair"*, %"struct.std::__1::pair"** %137, align 8
  %195 = getelementptr inbounds %"struct.std::__1::pair", %"struct.std::__1::pair"* %194, i64 -1
  store %"struct.std::__1::pair"* %195, %"struct.std::__1::pair"** %137, align 8
  %196 = icmp eq %"struct.std::__1::pair"* %187, %181
  br i1 %196, label %197, label %183

197:                                              ; preds = %183, %174
  %198 = phi %"struct.std::__1::pair"* [ %180, %174 ], [ %195, %183 ]
  %199 = load %"struct.std::__1::pair"*, %"struct.std::__1::pair"** %9, align 8
  %200 = icmp eq %"struct.std::__1::pair"* %199, %1
  br i1 %200, label %201, label %207

201:                                              ; preds = %197
  %202 = ptrtoint %"struct.std::__1::pair"* %199 to i64
  %203 = ptrtoint %"struct.std::__1::pair"* %198 to i64
  %204 = bitcast %"struct.std::__1::pair"** %137 to i64*
  %205 = bitcast %"struct.std::__1::pair"** %138 to i64*
  %206 = load i64, i64* %205, align 8
  br label %228

207:                                              ; preds = %197
  %208 = load %"struct.std::__1::pair"*, %"struct.std::__1::pair"** %138, align 8
  br label %209

209:                                              ; preds = %209, %207
  %210 = phi %"struct.std::__1::pair"* [ %220, %209 ], [ %208, %207 ]
  %211 = phi %"struct.std::__1::pair"* [ %218, %209 ], [ %1, %207 ]
  %212 = bitcast %"struct.std::__1::pair"* %210 to i8*
  %213 = bitcast %"struct.std::__1::pair"* %211 to i8*
  call void @llvm.memcpy.p0i8.p0i8.i64(i8* align 8 %212, i8* align 8 %213, i64 24, i1 false) #10
  call void @llvm.memset.p0i8.i64(i8* align 8 %213, i8 0, i64 24, i1 false) #10
  %214 = getelementptr inbounds %"struct.std::__1::pair", %"struct.std::__1::pair"* %210, i64 0, i32 1
  %215 = getelementptr inbounds %"struct.std::__1::pair", %"struct.std::__1::pair"* %211, i64 0, i32 1
  %216 = bitcast %"class.std::__1::basic_string"* %214 to i8*
  %217 = bitcast %"class.std::__1::basic_string"* %215 to i8*
  call void @llvm.memcpy.p0i8.p0i8.i64(i8* align 8 %216, i8* align 8 %217, i64 24, i1 false) #10
  call void @llvm.memset.p0i8.i64(i8* align 8 %217, i8 0, i64 24, i1 false) #10
  %218 = getelementptr inbounds %"struct.std::__1::pair", %"struct.std::__1::pair"* %211, i64 1
  %219 = load %"struct.std::__1::pair"*, %"struct.std::__1::pair"** %138, align 8
  %220 = getelementptr inbounds %"struct.std::__1::pair", %"struct.std::__1::pair"* %219, i64 1
  store %"struct.std::__1::pair"* %220, %"struct.std::__1::pair"** %138, align 8
  %221 = icmp eq %"struct.std::__1::pair"* %218, %199
  br i1 %221, label %222, label %209

222:                                              ; preds = %209
  %223 = ptrtoint %"struct.std::__1::pair"* %220 to i64
  %224 = bitcast %"struct.std::__1::pair"** %137 to i64*
  %225 = load i64, i64* %224, align 8
  %226 = load i64, i64* %141, align 8
  %227 = bitcast %"struct.std::__1::pair"** %138 to i64*
  br label %228

228:                                              ; preds = %201, %222
  %229 = phi i64* [ %205, %201 ], [ %227, %222 ]
  %230 = phi i64 [ %206, %201 ], [ %223, %222 ]
  %231 = phi i64 [ %202, %201 ], [ %226, %222 ]
  %232 = phi i64* [ %204, %201 ], [ %224, %222 ]
  %233 = phi i64 [ %203, %201 ], [ %225, %222 ]
  %234 = load i64, i64* %142, align 8
  store i64 %233, i64* %142, align 8
  store i64 %234, i64* %232, align 8
  store i64 %230, i64* %141, align 8
  store i64 %231, i64* %229, align 8
  %235 = load i64, i64* %152, align 8
  %236 = bitcast %"struct.std::__1::pair"** %139 to i64*
  %237 = load i64, i64* %236, align 8
  store i64 %237, i64* %152, align 8
  store i64 %235, i64* %236, align 8
  %238 = bitcast %"struct.std::__1::__split_buffer"* %6 to i64*
  store i64 %234, i64* %238, align 8
  %239 = inttoptr i64 %234 to %"struct.std::__1::pair"*
  %240 = inttoptr i64 %231 to %"struct.std::__1::pair"*
  %241 = icmp eq %"struct.std::__1::pair"* %240, %239
  br i1 %241, label %266, label %242

242:                                              ; preds = %228, %261
  %243 = phi %"struct.std::__1::pair"* [ %262, %261 ], [ %240, %228 ]
  %244 = getelementptr inbounds %"struct.std::__1::pair", %"struct.std::__1::pair"* %243, i64 -1
  store %"struct.std::__1::pair"* %244, %"struct.std::__1::pair"** %138, align 8
  %245 = getelementptr inbounds %"struct.std::__1::pair", %"struct.std::__1::pair"* %243, i64 -1, i32 1
  %246 = bitcast %"class.std::__1::basic_string"* %245 to %"struct.std::__1::basic_string<char, std::__1::char_traits<char>, std::__1::allocator<char> >::__short"*
  %247 = getelementptr inbounds %"struct.std::__1::basic_string<char, std::__1::char_traits<char>, std::__1::allocator<char> >::__short", %"struct.std::__1::basic_string<char, std::__1::char_traits<char>, std::__1::allocator<char> >::__short"* %246, i64 0, i32 1, i32 0
  %248 = load i8, i8* %247, align 1
  %249 = icmp slt i8 %248, 0
  br i1 %249, label %250, label %253

250:                                              ; preds = %242
  %251 = getelementptr inbounds %"class.std::__1::basic_string", %"class.std::__1::basic_string"* %245, i64 0, i32 0, i32 0, i32 0, i32 0, i32 0, i32 0
  %252 = load i8*, i8** %251, align 8
  call void @_ZdlPv(i8* %252) #11
  br label %253

253:                                              ; preds = %250, %242
  %254 = bitcast %"struct.std::__1::pair"* %244 to %"struct.std::__1::basic_string<char, std::__1::char_traits<char>, std::__1::allocator<char> >::__short"*
  %255 = getelementptr inbounds %"struct.std::__1::basic_string<char, std::__1::char_traits<char>, std::__1::allocator<char> >::__short", %"struct.std::__1::basic_string<char, std::__1::char_traits<char>, std::__1::allocator<char> >::__short"* %254, i64 0, i32 1, i32 0
  %256 = load i8, i8* %255, align 1
  %257 = icmp slt i8 %256, 0
  br i1 %257, label %258, label %261

258:                                              ; preds = %253
  %259 = getelementptr inbounds %"struct.std::__1::pair", %"struct.std::__1::pair"* %244, i64 0, i32 0, i32 0, i32 0, i32 0, i32 0, i32 0, i32 0
  %260 = load i8*, i8** %259, align 8
  call void @_ZdlPv(i8* %260) #11
  br label %261

261:                                              ; preds = %258, %253
  %262 = load %"struct.std::__1::pair"*, %"struct.std::__1::pair"** %138, align 8
  %263 = icmp eq %"struct.std::__1::pair"* %262, %239
  br i1 %263, label %264, label %242

264:                                              ; preds = %261
  %265 = load %"struct.std::__1::pair"*, %"struct.std::__1::pair"** %136, align 8
  br label %266

266:                                              ; preds = %264, %228
  %267 = phi %"struct.std::__1::pair"* [ %265, %264 ], [ %239, %228 ]
  %268 = icmp eq %"struct.std::__1::pair"* %267, null
  br i1 %268, label %271, label %269

269:                                              ; preds = %266
  %270 = bitcast %"struct.std::__1::pair"* %267 to i8*
  call void @_ZdlPv(i8* %270) #11
  br label %271

271:                                              ; preds = %266, %269
  call void @llvm.lifetime.end.p0i8(i64 40, i8* nonnull %135) #10
  br label %272

272:                                              ; preds = %17, %126, %271
  %273 = phi %"struct.std::__1::pair"* [ %1, %17 ], [ %1, %126 ], [ %180, %271 ]
  ret %"struct.std::__1::pair"* %273
}

; Function Attrs: nounwind ssp uwtable
define linkonce_odr hidden void @_ZNSt3__114__split_bufferINS_4pairINS_12basic_stringIcNS_11char_traitsIcEENS_9allocatorIcEEEES7_EERNS5_IS8_EEE12emplace_backIJS8_EEEvDpOT_(%"struct.std::__1::__split_buffer"*, %"struct.std::__1::pair"* dereferenceable(48)) local_unnamed_addr #0 comdat align 2 {
  %3 = getelementptr inbounds %"struct.std::__1::__split_buffer", %"struct.std::__1::__split_buffer"* %0, i64 0, i32 2
  %4 = load %"struct.std::__1::pair"*, %"struct.std::__1::pair"** %3, align 8
  %5 = getelementptr inbounds %"struct.std::__1::__split_buffer", %"struct.std::__1::__split_buffer"* %0, i64 0, i32 3, i32 0, i32 0
  %6 = load %"struct.std::__1::pair"*, %"struct.std::__1::pair"** %5, align 8
  %7 = icmp eq %"struct.std::__1::pair"* %4, %6
  %8 = ptrtoint %"struct.std::__1::pair"* %6 to i64
  br i1 %7, label %9, label %140

9:                                                ; preds = %2
  %10 = getelementptr inbounds %"struct.std::__1::__split_buffer", %"struct.std::__1::__split_buffer"* %0, i64 0, i32 1
  %11 = load %"struct.std::__1::pair"*, %"struct.std::__1::pair"** %10, align 8
  %12 = getelementptr inbounds %"struct.std::__1::__split_buffer", %"struct.std::__1::__split_buffer"* %0, i64 0, i32 0
  %13 = load %"struct.std::__1::pair"*, %"struct.std::__1::pair"** %12, align 8
  %14 = icmp ugt %"struct.std::__1::pair"* %11, %13
  %15 = ptrtoint %"struct.std::__1::pair"* %13 to i64
  br i1 %14, label %16, label %62

16:                                               ; preds = %9
  %17 = ptrtoint %"struct.std::__1::pair"* %11 to i64
  %18 = sub i64 %17, %15
  %19 = sdiv exact i64 %18, 48
  %20 = add nsw i64 %19, 1
  %21 = sdiv i64 %20, -2
  %22 = getelementptr inbounds %"struct.std::__1::pair", %"struct.std::__1::pair"* %11, i64 %21
  %23 = icmp eq %"struct.std::__1::pair"* %11, %4
  br i1 %23, label %58, label %24

24:                                               ; preds = %16, %48
  %25 = phi %"struct.std::__1::pair"* [ %54, %48 ], [ %22, %16 ]
  %26 = phi %"struct.std::__1::pair"* [ %53, %48 ], [ %11, %16 ]
  %27 = bitcast %"struct.std::__1::pair"* %25 to %"struct.std::__1::basic_string<char, std::__1::char_traits<char>, std::__1::allocator<char> >::__short"*
  %28 = getelementptr inbounds %"struct.std::__1::basic_string<char, std::__1::char_traits<char>, std::__1::allocator<char> >::__short", %"struct.std::__1::basic_string<char, std::__1::char_traits<char>, std::__1::allocator<char> >::__short"* %27, i64 0, i32 1, i32 0
  %29 = load i8, i8* %28, align 1
  %30 = icmp slt i8 %29, 0
  br i1 %30, label %31, label %34

31:                                               ; preds = %24
  %32 = getelementptr inbounds %"struct.std::__1::pair", %"struct.std::__1::pair"* %25, i64 0, i32 0, i32 0, i32 0, i32 0, i32 0, i32 0, i32 0
  %33 = load i8*, i8** %32, align 8
  tail call void @_ZdlPv(i8* %33) #11
  br label %34

34:                                               ; preds = %31, %24
  %35 = bitcast %"struct.std::__1::pair"* %25 to i8*
  %36 = bitcast %"struct.std::__1::pair"* %26 to i8*
  tail call void @llvm.memcpy.p0i8.p0i8.i64(i8* align 8 %35, i8* align 8 %36, i64 24, i1 false) #10
  %37 = bitcast %"struct.std::__1::pair"* %26 to %"struct.std::__1::basic_string<char, std::__1::char_traits<char>, std::__1::allocator<char> >::__short"*
  %38 = getelementptr inbounds %"struct.std::__1::basic_string<char, std::__1::char_traits<char>, std::__1::allocator<char> >::__short", %"struct.std::__1::basic_string<char, std::__1::char_traits<char>, std::__1::allocator<char> >::__short"* %37, i64 0, i32 1, i32 0
  store i8 0, i8* %38, align 1
  store i8 0, i8* %36, align 1
  %39 = getelementptr inbounds %"struct.std::__1::pair", %"struct.std::__1::pair"* %26, i64 0, i32 1
  %40 = getelementptr inbounds %"struct.std::__1::pair", %"struct.std::__1::pair"* %25, i64 0, i32 1
  %41 = bitcast %"class.std::__1::basic_string"* %40 to %"struct.std::__1::basic_string<char, std::__1::char_traits<char>, std::__1::allocator<char> >::__short"*
  %42 = getelementptr inbounds %"struct.std::__1::basic_string<char, std::__1::char_traits<char>, std::__1::allocator<char> >::__short", %"struct.std::__1::basic_string<char, std::__1::char_traits<char>, std::__1::allocator<char> >::__short"* %41, i64 0, i32 1, i32 0
  %43 = load i8, i8* %42, align 1
  %44 = icmp slt i8 %43, 0
  br i1 %44, label %45, label %48

45:                                               ; preds = %34
  %46 = getelementptr inbounds %"class.std::__1::basic_string", %"class.std::__1::basic_string"* %40, i64 0, i32 0, i32 0, i32 0, i32 0, i32 0, i32 0
  %47 = load i8*, i8** %46, align 8
  tail call void @_ZdlPv(i8* %47) #11
  br label %48

48:                                               ; preds = %45, %34
  %49 = bitcast %"class.std::__1::basic_string"* %40 to i8*
  %50 = bitcast %"class.std::__1::basic_string"* %39 to i8*
  tail call void @llvm.memcpy.p0i8.p0i8.i64(i8* align 8 %49, i8* align 8 %50, i64 24, i1 false) #10
  %51 = bitcast %"class.std::__1::basic_string"* %39 to %"struct.std::__1::basic_string<char, std::__1::char_traits<char>, std::__1::allocator<char> >::__short"*
  %52 = getelementptr inbounds %"struct.std::__1::basic_string<char, std::__1::char_traits<char>, std::__1::allocator<char> >::__short", %"struct.std::__1::basic_string<char, std::__1::char_traits<char>, std::__1::allocator<char> >::__short"* %51, i64 0, i32 1, i32 0
  store i8 0, i8* %52, align 1
  store i8 0, i8* %50, align 1
  %53 = getelementptr inbounds %"struct.std::__1::pair", %"struct.std::__1::pair"* %26, i64 1
  %54 = getelementptr inbounds %"struct.std::__1::pair", %"struct.std::__1::pair"* %25, i64 1
  %55 = icmp eq %"struct.std::__1::pair"* %53, %4
  br i1 %55, label %56, label %24

56:                                               ; preds = %48
  %57 = load %"struct.std::__1::pair"*, %"struct.std::__1::pair"** %10, align 8
  br label %58

58:                                               ; preds = %56, %16
  %59 = phi %"struct.std::__1::pair"* [ %4, %16 ], [ %57, %56 ]
  %60 = phi %"struct.std::__1::pair"* [ %22, %16 ], [ %54, %56 ]
  store %"struct.std::__1::pair"* %60, %"struct.std::__1::pair"** %3, align 8
  %61 = getelementptr inbounds %"struct.std::__1::pair", %"struct.std::__1::pair"* %59, i64 %21
  store %"struct.std::__1::pair"* %61, %"struct.std::__1::pair"** %10, align 8
  br label %140

62:                                               ; preds = %9
  %63 = bitcast %"struct.std::__1::pair"** %5 to i64*
  %64 = bitcast %"struct.std::__1::__split_buffer"* %0 to i64*
  %65 = sub i64 %8, %15
  %66 = sdiv exact i64 %65, 48
  %67 = shl nsw i64 %66, 1
  %68 = icmp eq i64 %65, 0
  %69 = select i1 %68, i64 1, i64 %67
  %70 = icmp ugt i64 %69, 384307168202282325
  br i1 %70, label %71, label %72

71:                                               ; preds = %62
  tail call void @abort() #12
  unreachable

72:                                               ; preds = %62
  %73 = lshr i64 %69, 2
  %74 = mul i64 %69, 48
  %75 = tail call i8* @_Znwm(i64 %74) #11
  %76 = bitcast i8* %75 to %"struct.std::__1::pair"*
  %77 = ptrtoint i8* %75 to i64
  %78 = getelementptr inbounds %"struct.std::__1::pair", %"struct.std::__1::pair"* %76, i64 %73
  %79 = ptrtoint %"struct.std::__1::pair"* %78 to i64
  %80 = getelementptr inbounds %"struct.std::__1::pair", %"struct.std::__1::pair"* %76, i64 %69
  %81 = ptrtoint %"struct.std::__1::pair"* %80 to i64
  %82 = ptrtoint %"struct.std::__1::pair"* %11 to i64
  %83 = ptrtoint %"struct.std::__1::pair"* %4 to i64
  %84 = sub i64 %83, %82
  %85 = sdiv exact i64 %84, 48
  %86 = getelementptr inbounds %"struct.std::__1::pair", %"struct.std::__1::pair"* %78, i64 %85
  %87 = icmp eq i64 %84, 0
  br i1 %87, label %107, label %88

88:                                               ; preds = %72, %88
  %89 = phi %"struct.std::__1::pair"* [ %98, %88 ], [ %78, %72 ]
  %90 = phi i64 [ %99, %88 ], [ %79, %72 ]
  %91 = phi %"struct.std::__1::pair"* [ %100, %88 ], [ %11, %72 ]
  %92 = inttoptr i64 %90 to i8*
  %93 = bitcast %"struct.std::__1::pair"* %91 to i8*
  tail call void @llvm.memcpy.p0i8.p0i8.i64(i8* align 8 %92, i8* align 8 %93, i64 24, i1 false) #10
  tail call void @llvm.memset.p0i8.i64(i8* align 8 %93, i8 0, i64 24, i1 false) #10
  %94 = getelementptr inbounds %"struct.std::__1::pair", %"struct.std::__1::pair"* %89, i64 0, i32 1
  %95 = getelementptr inbounds %"struct.std::__1::pair", %"struct.std::__1::pair"* %91, i64 0, i32 1
  %96 = bitcast %"class.std::__1::basic_string"* %94 to i8*
  %97 = bitcast %"class.std::__1::basic_string"* %95 to i8*
  tail call void @llvm.memcpy.p0i8.p0i8.i64(i8* align 8 %96, i8* align 8 %97, i64 24, i1 false) #10
  tail call void @llvm.memset.p0i8.i64(i8* align 8 %97, i8 0, i64 24, i1 false) #10
  %98 = getelementptr inbounds %"struct.std::__1::pair", %"struct.std::__1::pair"* %89, i64 1
  %99 = ptrtoint %"struct.std::__1::pair"* %98 to i64
  %100 = getelementptr inbounds %"struct.std::__1::pair", %"struct.std::__1::pair"* %91, i64 1
  %101 = icmp eq %"struct.std::__1::pair"* %86, %98
  br i1 %101, label %102, label %88

102:                                              ; preds = %88
  %103 = ptrtoint %"struct.std::__1::pair"* %86 to i64
  %104 = load %"struct.std::__1::pair"*, %"struct.std::__1::pair"** %12, align 8
  %105 = load %"struct.std::__1::pair"*, %"struct.std::__1::pair"** %10, align 8
  %106 = load %"struct.std::__1::pair"*, %"struct.std::__1::pair"** %3, align 8
  br label %107

107:                                              ; preds = %72, %102
  %108 = phi %"struct.std::__1::pair"* [ %106, %102 ], [ %4, %72 ]
  %109 = phi %"struct.std::__1::pair"* [ %105, %102 ], [ %11, %72 ]
  %110 = phi %"struct.std::__1::pair"* [ %104, %102 ], [ %13, %72 ]
  %111 = phi i64 [ %103, %102 ], [ %79, %72 ]
  store i64 %77, i64* %64, align 8
  %112 = bitcast %"struct.std::__1::pair"** %10 to i64*
  store i64 %79, i64* %112, align 8
  %113 = bitcast %"struct.std::__1::pair"** %3 to i64*
  store i64 %111, i64* %113, align 8
  store i64 %81, i64* %63, align 8
  %114 = icmp eq %"struct.std::__1::pair"* %108, %109
  br i1 %114, label %136, label %115

115:                                              ; preds = %107, %134
  %116 = phi %"struct.std::__1::pair"* [ %117, %134 ], [ %108, %107 ]
  %117 = getelementptr inbounds %"struct.std::__1::pair", %"struct.std::__1::pair"* %116, i64 -1
  %118 = getelementptr inbounds %"struct.std::__1::pair", %"struct.std::__1::pair"* %116, i64 -1, i32 1
  %119 = bitcast %"class.std::__1::basic_string"* %118 to %"struct.std::__1::basic_string<char, std::__1::char_traits<char>, std::__1::allocator<char> >::__short"*
  %120 = getelementptr inbounds %"struct.std::__1::basic_string<char, std::__1::char_traits<char>, std::__1::allocator<char> >::__short", %"struct.std::__1::basic_string<char, std::__1::char_traits<char>, std::__1::allocator<char> >::__short"* %119, i64 0, i32 1, i32 0
  %121 = load i8, i8* %120, align 1
  %122 = icmp slt i8 %121, 0
  br i1 %122, label %123, label %126

123:                                              ; preds = %115
  %124 = getelementptr inbounds %"class.std::__1::basic_string", %"class.std::__1::basic_string"* %118, i64 0, i32 0, i32 0, i32 0, i32 0, i32 0, i32 0
  %125 = load i8*, i8** %124, align 8
  tail call void @_ZdlPv(i8* %125) #11
  br label %126

126:                                              ; preds = %123, %115
  %127 = bitcast %"struct.std::__1::pair"* %117 to %"struct.std::__1::basic_string<char, std::__1::char_traits<char>, std::__1::allocator<char> >::__short"*
  %128 = getelementptr inbounds %"struct.std::__1::basic_string<char, std::__1::char_traits<char>, std::__1::allocator<char> >::__short", %"struct.std::__1::basic_string<char, std::__1::char_traits<char>, std::__1::allocator<char> >::__short"* %127, i64 0, i32 1, i32 0
  %129 = load i8, i8* %128, align 1
  %130 = icmp slt i8 %129, 0
  br i1 %130, label %131, label %134

131:                                              ; preds = %126
  %132 = getelementptr inbounds %"struct.std::__1::pair", %"struct.std::__1::pair"* %117, i64 0, i32 0, i32 0, i32 0, i32 0, i32 0, i32 0, i32 0
  %133 = load i8*, i8** %132, align 8
  tail call void @_ZdlPv(i8* %133) #11
  br label %134

134:                                              ; preds = %131, %126
  %135 = icmp eq %"struct.std::__1::pair"* %117, %109
  br i1 %135, label %136, label %115

136:                                              ; preds = %134, %107
  %137 = icmp eq %"struct.std::__1::pair"* %110, null
  br i1 %137, label %140, label %138

138:                                              ; preds = %136
  %139 = bitcast %"struct.std::__1::pair"* %110 to i8*
  tail call void @_ZdlPv(i8* %139) #11
  br label %140

140:                                              ; preds = %138, %136, %58, %2
  %141 = load %"struct.std::__1::pair"*, %"struct.std::__1::pair"** %3, align 8
  %142 = bitcast %"struct.std::__1::pair"* %141 to i8*
  %143 = bitcast %"struct.std::__1::pair"* %1 to i8*
  tail call void @llvm.memcpy.p0i8.p0i8.i64(i8* align 8 %142, i8* align 8 %143, i64 24, i1 false) #10
  tail call void @llvm.memset.p0i8.i64(i8* align 8 %143, i8 0, i64 24, i1 false) #10
  %144 = getelementptr inbounds %"struct.std::__1::pair", %"struct.std::__1::pair"* %141, i64 0, i32 1
  %145 = getelementptr inbounds %"struct.std::__1::pair", %"struct.std::__1::pair"* %1, i64 0, i32 1
  %146 = bitcast %"class.std::__1::basic_string"* %144 to i8*
  %147 = bitcast %"class.std::__1::basic_string"* %145 to i8*
  tail call void @llvm.memcpy.p0i8.p0i8.i64(i8* align 8 %146, i8* align 8 %147, i64 24, i1 false) #10
  tail call void @llvm.memset.p0i8.i64(i8* align 8 %147, i8 0, i64 24, i1 false) #10
  %148 = load %"struct.std::__1::pair"*, %"struct.std::__1::pair"** %3, align 8
  %149 = getelementptr inbounds %"struct.std::__1::pair", %"struct.std::__1::pair"* %148, i64 1
  store %"struct.std::__1::pair"* %149, %"struct.std::__1::pair"** %3, align 8
  ret void
}

; Function Attrs: nounwind ssp uwtable
define linkonce_odr hidden zeroext i1 @_ZN4mojo8internal15ArraySerializerINS_13ArrayDataViewIN7network5mojom19DataElementDataViewEEENSt3__16vectorINS3_11DataElementENS7_9allocatorIS9_EEEENS0_13ArrayIteratorINS_11ArrayTraitsISC_EESC_Lb0EEEvE19DeserializeElementsEPNS0_10Array_DataINS4_8internal16DataElement_DataEEEPSC_PNS_7MessageE(%"class.mojo::internal::Array_Data.138"*, %"class.std::__1::vector.37"*, %"class.mojo::Message"*) local_unnamed_addr #0 comdat align 2 {
  %4 = getelementptr inbounds %"class.mojo::internal::Array_Data.138", %"class.mojo::internal::Array_Data.138"* %0, i64 0, i32 0, i32 1
  %5 = load i32, i32* %4, align 1
  %6 = zext i32 %5 to i64
  %7 = getelementptr inbounds %"class.std::__1::vector.37", %"class.std::__1::vector.37"* %1, i64 0, i32 0, i32 1
  %8 = bitcast %"class.network::DataElement"** %7 to i64*
  %9 = load i64, i64* %8, align 8
  %10 = bitcast %"class.std::__1::vector.37"* %1 to i64*
  %11 = load i64, i64* %10, align 8
  %12 = sub i64 %9, %11
  %13 = sdiv exact i64 %12, 56
  %14 = icmp eq i64 %13, %6
  br i1 %14, label %49, label %15

15:                                               ; preds = %3
  %16 = icmp eq i32 %5, 0
  br i1 %16, label %31, label %17

17:                                               ; preds = %15
  %18 = mul nuw nsw i64 %6, 56
  %19 = tail call i8* @_Znwm(i64 %18) #11
  %20 = bitcast i8* %19 to %"class.network::DataElement"*
  %21 = getelementptr inbounds %"class.network::DataElement", %"class.network::DataElement"* %20, i64 %6
  %22 = ptrtoint i8* %19 to i64
  br label %23

23:                                               ; preds = %23, %17
  %24 = phi %"class.network::DataElement"* [ %25, %23 ], [ %20, %17 ]
  tail call void @_ZN7network11DataElementC1Ev(%"class.network::DataElement"* %24) #10
  %25 = getelementptr inbounds %"class.network::DataElement", %"class.network::DataElement"* %24, i64 1
  %26 = icmp eq %"class.network::DataElement"* %25, %21
  br i1 %26, label %27, label %23

27:                                               ; preds = %23
  %28 = ptrtoint %"class.network::DataElement"* %21 to i64
  %29 = load i64, i64* %10, align 8
  %30 = load i64, i64* %8, align 8
  br label %31

31:                                               ; preds = %15, %27
  %32 = phi i64 [ %28, %27 ], [ 0, %15 ]
  %33 = phi i64 [ %30, %27 ], [ %9, %15 ]
  %34 = phi i64 [ %22, %27 ], [ 0, %15 ]
  %35 = phi i64 [ %29, %27 ], [ %11, %15 ]
  store i64 %34, i64* %10, align 8
  store i64 %32, i64* %8, align 8
  %36 = getelementptr inbounds %"class.std::__1::vector.37", %"class.std::__1::vector.37"* %1, i64 0, i32 0, i32 2, i32 0, i32 0
  %37 = bitcast %"class.network::DataElement"** %36 to i64*
  store i64 %32, i64* %37, align 8
  %38 = inttoptr i64 %35 to %"class.network::DataElement"*
  %39 = icmp eq i64 %35, 0
  %40 = inttoptr i64 %33 to %"class.network::DataElement"*
  br i1 %39, label %49, label %41

41:                                               ; preds = %31
  %42 = icmp eq %"class.network::DataElement"* %40, %38
  br i1 %42, label %47, label %43

43:                                               ; preds = %41, %43
  %44 = phi %"class.network::DataElement"* [ %45, %43 ], [ %40, %41 ]
  %45 = getelementptr inbounds %"class.network::DataElement", %"class.network::DataElement"* %44, i64 -1
  tail call void @_ZN7network11DataElementD1Ev(%"class.network::DataElement"* %45) #10
  %46 = icmp eq %"class.network::DataElement"* %45, %38
