; ModuleID = '../../device/fido/fido_device_authenticator.cc'
source_filename = "../../device/fido/fido_device_authenticator.cc"
target datalayout = "e-m:e-i64:64-f80:128-n8:16:32:64-S128"
target triple = "x86_64-unknown-linux-gnu"

module asm ".symver exp, exp@GLIBC_2.2.5"
module asm ".symver exp2, exp2@GLIBC_2.2.5"
module asm ".symver exp2f, exp2f@GLIBC_2.2.5"
module asm ".symver expf, expf@GLIBC_2.2.5"
module asm ".symver lgamma, lgamma@GLIBC_2.2.5"
module asm ".symver lgammaf, lgammaf@GLIBC_2.2.5"
module asm ".symver lgammal, lgammal@GLIBC_2.2.5"
module asm ".symver log, log@GLIBC_2.2.5"
module asm ".symver log2, log2@GLIBC_2.2.5"
module asm ".symver log2f, log2f@GLIBC_2.2.5"
module asm ".symver logf, logf@GLIBC_2.2.5"
module asm ".symver pow, pow@GLIBC_2.2.5"
module asm ".symver powf, powf@GLIBC_2.2.5"

%"class.std::__1::locale::id" = type <{ %"struct.std::__1::once_flag", i32, [4 x i8] }>
%"struct.std::__1::once_flag" = type { i64 }
%union.anon.425 = type { %"struct.device::CredentialsMetadataResponse" }
%"struct.device::CredentialsMetadataResponse" = type { i64, i64 }
%"class.device::FidoDeviceAuthenticator" = type { %"class.device::FidoAuthenticator", %"class.std::__1::unique_ptr", %"class.absl::optional.64", %"class.std::__1::unique_ptr.69", %"class.std::__1::unique_ptr.81", %"class.absl::optional.87", %"class.base::WeakPtrFactory.92" }
%"class.device::FidoAuthenticator" = type { i32 (...)** }
%"class.std::__1::unique_ptr" = type { %"class.std::__1::__compressed_pair" }
%"class.std::__1::__compressed_pair" = type { %"struct.std::__1::__compressed_pair_elem" }
%"struct.std::__1::__compressed_pair_elem" = type { %"class.device::FidoDevice"* }
%"class.absl::optional.64" = type { %"class.absl::optional_internal::optional_data.65" }
%"class.absl::optional_internal::optional_data.65" = type { %"class.absl::optional_internal::optional_data_base.66" }
%"class.absl::optional_internal::optional_data_base.66" = type { %"class.absl::optional_internal::optional_data_dtor_base.67" }
%"class.absl::optional_internal::optional_data_dtor_base.67" = type { i8, [3 x i8], %union.anon.68 }
%union.anon.68 = type { %"struct.device::AuthenticatorSupportedOptions" }
%"struct.device::AuthenticatorSupportedOptions" = type <{ i8, i8, [2 x i8], i32, i8, i8, i8, i8, i32, i32, i8, i8, [2 x i8], i32, i8, i8, i8, i8, i8, [3 x i8] }>
%"class.std::__1::unique_ptr.69" = type { %"class.std::__1::__compressed_pair.70" }
%"class.std::__1::__compressed_pair.70" = type { %"struct.std::__1::__compressed_pair_elem.71" }
%"struct.std::__1::__compressed_pair_elem.71" = type { %"class.device::FidoTask"* }
%"class.device::FidoTask" = type { i32 (...)**, %"class.device::FidoDevice"*, %"class.base::WeakPtrFactory" }
%"class.base::WeakPtrFactory" = type { %"class.base::internal::WeakPtrFactoryBase" }
%"class.base::internal::WeakPtrFactoryBase" = type { %"class.base::internal::WeakReferenceOwner", i64 }
%"class.base::internal::WeakReferenceOwner" = type { %class.scoped_refptr }
%class.scoped_refptr = type { %"class.base::internal::WeakReference::Flag"* }
%"class.base::internal::WeakReference::Flag" = type <{ %"class.base::RefCountedThreadSafe", %"class.base::AtomicFlag", [3 x i8] }>
%"class.base::RefCountedThreadSafe" = type { %"class.base::subtle::RefCountedThreadSafeBase" }
%"class.base::subtle::RefCountedThreadSafeBase" = type { %"class.base::AtomicRefCount" }
%"class.base::AtomicRefCount" = type { %"struct.std::__1::atomic" }
%"struct.std::__1::atomic" = type { %"struct.std::__1::__atomic_base" }
%"struct.std::__1::__atomic_base" = type { %"struct.std::__1::__atomic_base.72" }
%"struct.std::__1::__atomic_base.72" = type { %"struct.std::__1::__cxx_atomic_impl" }
%"struct.std::__1::__cxx_atomic_impl" = type { %"struct.std::__1::__cxx_atomic_base_impl" }
%"struct.std::__1::__cxx_atomic_base_impl" = type { i32 }
%"class.base::AtomicFlag" = type { %"struct.std::__1::atomic.73" }
%"struct.std::__1::atomic.73" = type { %"struct.std::__1::__atomic_base.74" }
%"struct.std::__1::__atomic_base.74" = type { %"struct.std::__1::__atomic_base.75" }
%"struct.std::__1::__atomic_base.75" = type { %"struct.std::__1::__cxx_atomic_impl.76" }
%"struct.std::__1::__cxx_atomic_impl.76" = type { %"struct.std::__1::__cxx_atomic_base_impl.77" }
%"struct.std::__1::__cxx_atomic_base_impl.77" = type { i8 }
%"class.std::__1::unique_ptr.81" = type { %"class.std::__1::__compressed_pair.82" }
%"class.std::__1::__compressed_pair.82" = type { %"struct.std::__1::__compressed_pair_elem.83" }
%"struct.std::__1::__compressed_pair_elem.83" = type { %"class.device::GenericDeviceOperation"* }
%"class.device::GenericDeviceOperation" = type { i32 (...)** }
%"class.absl::optional.87" = type { %"class.absl::optional_internal::optional_data.88" }
%"class.absl::optional_internal::optional_data.88" = type { %"class.absl::optional_internal::optional_data_base.89" }
%"class.absl::optional_internal::optional_data_base.89" = type { %"class.absl::optional_internal::optional_data_dtor_base.90" }
%"class.absl::optional_internal::optional_data_dtor_base.90" = type { i8, %union.anon.91 }
%union.anon.91 = type { i8 }
%"class.base::WeakPtrFactory.92" = type { %"class.base::internal::WeakPtrFactoryBase" }
%"class.device::FidoDevice" = type { i32 (...)**, i32, i32, %"class.absl::optional", i8, i32 }
%"class.absl::optional" = type { %"class.absl::optional_internal::optional_data" }
%"class.absl::optional_internal::optional_data" = type { %"class.absl::optional_internal::optional_data_base" }
%"class.absl::optional_internal::optional_data_base" = type { %"class.absl::optional_internal::optional_data_dtor_base" }
%"class.absl::optional_internal::optional_data_dtor_base" = type { i8, %union.anon }
%union.anon = type { %"struct.device::AuthenticatorGetInfoResponse" }
%"struct.device::AuthenticatorGetInfoResponse" = type { %"class.base::internal::flat_tree", %"class.base::internal::flat_tree.3", %"struct.std::__1::array", %"class.absl::optional.11", %"class.absl::optional.11", %"class.absl::optional.11", %"class.absl::optional.16", %"class.absl::optional.29", %"class.std::__1::vector.47", %"class.absl::optional.11", %"class.absl::optional.11", %"class.absl::optional.54", %"class.absl::optional.11", %"class.absl::optional.11", %"struct.device::AuthenticatorSupportedOptions" }
%"class.base::internal::flat_tree" = type { %"class.std::__1::vector" }
%"class.std::__1::vector" = type { %"class.std::__1::__vector_base" }
%"class.std::__1::__vector_base" = type { i32*, i32*, %"class.std::__1::__compressed_pair.0" }
%"class.std::__1::__compressed_pair.0" = type { %"struct.std::__1::__compressed_pair_elem.1" }
%"struct.std::__1::__compressed_pair_elem.1" = type { i32* }
%"class.base::internal::flat_tree.3" = type { %"class.std::__1::vector.4" }
%"class.std::__1::vector.4" = type { %"class.std::__1::__vector_base.5" }
%"class.std::__1::__vector_base.5" = type { i32*, i32*, %"class.std::__1::__compressed_pair.6" }
%"class.std::__1::__compressed_pair.6" = type { %"struct.std::__1::__compressed_pair_elem.7" }
%"struct.std::__1::__compressed_pair_elem.7" = type { i32* }
%"struct.std::__1::array" = type { [16 x i8] }
%"class.absl::optional.16" = type { %"class.absl::optional_internal::optional_data.17" }
%"class.absl::optional_internal::optional_data.17" = type { %"class.absl::optional_internal::optional_data_base.18" }
%"class.absl::optional_internal::optional_data_base.18" = type { %"class.absl::optional_internal::optional_data_dtor_base.19" }
%"class.absl::optional_internal::optional_data_dtor_base.19" = type { i8, %union.anon.20 }
%union.anon.20 = type { %"class.base::internal::flat_tree.21" }
%"class.base::internal::flat_tree.21" = type { %"class.std::__1::vector.22" }
%"class.std::__1::vector.22" = type { %"class.std::__1::__vector_base.23" }
%"class.std::__1::__vector_base.23" = type { i8*, i8*, %"class.std::__1::__compressed_pair.24" }
%"class.std::__1::__compressed_pair.24" = type { %"struct.std::__1::__compressed_pair_elem.25" }
%"struct.std::__1::__compressed_pair_elem.25" = type { i8* }
%"class.absl::optional.29" = type { %"class.absl::optional_internal::optional_data.30" }
%"class.absl::optional_internal::optional_data.30" = type { %"class.absl::optional_internal::optional_data_base.31" }
%"class.absl::optional_internal::optional_data_base.31" = type { %"class.absl::optional_internal::optional_data_dtor_base.32" }
%"class.absl::optional_internal::optional_data_dtor_base.32" = type { i8, %union.anon.33 }
%union.anon.33 = type { %"class.std::__1::vector.34" }
%"class.std::__1::vector.34" = type { %"class.std::__1::__vector_base.35" }
%"class.std::__1::__vector_base.35" = type { %"class.std::__1::basic_string"*, %"class.std::__1::basic_string"*, %"class.std::__1::__compressed_pair.42" }
%"class.std::__1::basic_string" = type { %"class.std::__1::__compressed_pair.36" }
%"class.std::__1::__compressed_pair.36" = type { %"struct.std::__1::__compressed_pair_elem.37" }
%"struct.std::__1::__compressed_pair_elem.37" = type { %"struct.std::__1::basic_string<char, std::__1::char_traits<char>, std::__1::allocator<char> >::__rep" }
%"struct.std::__1::basic_string<char, std::__1::char_traits<char>, std::__1::allocator<char> >::__rep" = type { %union.anon.38 }
%union.anon.38 = type { %"struct.std::__1::basic_string<char, std::__1::char_traits<char>, std::__1::allocator<char> >::__long" }
%"struct.std::__1::basic_string<char, std::__1::char_traits<char>, std::__1::allocator<char> >::__long" = type { i8*, i64, i64 }
%"class.std::__1::__compressed_pair.42" = type { %"struct.std::__1::__compressed_pair_elem.43" }
%"struct.std::__1::__compressed_pair_elem.43" = type { %"class.std::__1::basic_string"* }
%"class.std::__1::vector.47" = type { %"class.std::__1::__vector_base.48" }
%"class.std::__1::__vector_base.48" = type { i32*, i32*, %"class.std::__1::__compressed_pair.49" }
%"class.std::__1::__compressed_pair.49" = type { %"struct.std::__1::__compressed_pair_elem.50" }
%"struct.std::__1::__compressed_pair_elem.50" = type { i32* }
%"class.absl::optional.54" = type { %"class.absl::optional_internal::optional_data.55" }
%"class.absl::optional_internal::optional_data.55" = type { %"class.absl::optional_internal::optional_data_base.56" }
%"class.absl::optional_internal::optional_data_base.56" = type { %"class.absl::optional_internal::optional_data_dtor_base.57" }
%"class.absl::optional_internal::optional_data_dtor_base.57" = type { i8, %union.anon.58 }
%union.anon.58 = type { i8 }
%"class.absl::optional.11" = type { %"class.absl::optional_internal::optional_data.12" }
%"class.absl::optional_internal::optional_data.12" = type { %"class.absl::optional_internal::optional_data_base.13" }
%"class.absl::optional_internal::optional_data_base.13" = type { %"class.absl::optional_internal::optional_data_dtor_base.14" }
%"class.absl::optional_internal::optional_data_dtor_base.14" = type { i8, %union.anon.15 }
%union.anon.15 = type { i32 }
%"class.base::OnceCallback" = type { %"class.base::internal::CallbackBase" }
%"class.base::internal::CallbackBase" = type { %class.scoped_refptr.93 }
%class.scoped_refptr.93 = type { %"class.base::internal::BindStateBase"* }
%"class.base::internal::BindStateBase" = type { %"class.base::RefCountedThreadSafe.94", void ()*, void (%"class.base::internal::BindStateBase"*)*, i1 (%"class.base::internal::BindStateBase"*, i32)* }
%"class.base::RefCountedThreadSafe.94" = type { %"class.base::subtle::RefCountedThreadSafeBase" }
%"class.base::internal::WeakReference" = type { %class.scoped_refptr.97 }
%class.scoped_refptr.97 = type { %"class.base::internal::WeakReference::Flag"* }
%"class.base::Location" = type { i8*, i8*, i32, i8* }
%"class.base::WeakPtr" = type { %"class.base::internal::WeakPtrBase" }
%"class.base::internal::WeakPtrBase" = type { %"class.base::internal::WeakReference", i64 }
%"class.base::WeakPtr.98" = type { %"class.base::internal::WeakPtrBase" }
%class.scoped_refptr.95 = type { %"class.base::SequencedTaskRunner"* }
%"class.base::SequencedTaskRunner" = type { %"class.base::TaskRunner.base", [4 x i8] }
%"class.base::TaskRunner.base" = type <{ i32 (...)**, %"class.base::RefCountedThreadSafe.96" }>
%"class.base::RefCountedThreadSafe.96" = type { %"class.base::subtle::RefCountedThreadSafeBase" }
%"class.base::TaskRunner" = type <{ i32 (...)**, %"class.base::RefCountedThreadSafe.96", [4 x i8] }>
%"struct.device::CtapMakeCredentialRequest" = type { %"class.std::__1::basic_string", %"struct.std::__1::array.99", %"struct.device::PublicKeyCredentialRpEntity", %"class.device::PublicKeyCredentialUserEntity", %"class.device::PublicKeyCredentialParams", i32, i32, i8, i8, i8, i8, i8, %"class.std::__1::vector.130", %"class.absl::optional.145", %"class.absl::optional.87", %"class.absl::optional.150", i8, %"class.absl::optional.100", %"class.absl::optional.155", i8, %"class.absl::optional.145" }
%"struct.std::__1::array.99" = type { [32 x i8] }
%"struct.device::PublicKeyCredentialRpEntity" = type { %"class.std::__1::basic_string", %"class.absl::optional.100", %"class.absl::optional.105" }
%"class.absl::optional.105" = type { %"class.absl::optional_internal::optional_data.106" }
%"class.absl::optional_internal::optional_data.106" = type { %"class.absl::optional_internal::optional_data_base.107" }
%"class.absl::optional_internal::optional_data_base.107" = type { %"class.absl::optional_internal::optional_data_dtor_base.108" }
%"class.absl::optional_internal::optional_data_dtor_base.108" = type { i8, %union.anon.109 }
%union.anon.109 = type { %class.GURL }
%class.GURL = type { %"class.std::__1::basic_string", i8, %"struct.url::Parsed", %"class.std::__1::unique_ptr.110" }
%"struct.url::Parsed" = type { %"struct.url::Component", %"struct.url::Component", %"struct.url::Component", %"struct.url::Component", %"struct.url::Component", %"struct.url::Component", %"struct.url::Component", %"struct.url::Component", i8, %"struct.url::Parsed"* }
%"struct.url::Component" = type { i32, i32 }
%"class.std::__1::unique_ptr.110" = type { %"class.std::__1::__compressed_pair.111" }
%"class.std::__1::__compressed_pair.111" = type { %"struct.std::__1::__compressed_pair_elem.112" }
%"struct.std::__1::__compressed_pair_elem.112" = type { %class.GURL* }
%"class.device::PublicKeyCredentialUserEntity" = type { %"class.std::__1::vector.116", %"class.absl::optional.100", %"class.absl::optional.100", %"class.absl::optional.105" }
%"class.std::__1::vector.116" = type { %"class.std::__1::__vector_base.117" }
%"class.std::__1::__vector_base.117" = type { i8*, i8*, %"class.std::__1::__compressed_pair.118" }
%"class.std::__1::__compressed_pair.118" = type { %"struct.std::__1::__compressed_pair_elem.119" }
%"struct.std::__1::__compressed_pair_elem.119" = type { i8* }
%"class.device::PublicKeyCredentialParams" = type { %"class.std::__1::vector.123" }
%"class.std::__1::vector.123" = type { %"class.std::__1::__vector_base.124" }
%"class.std::__1::__vector_base.124" = type { %"struct.device::PublicKeyCredentialParams::CredentialInfo"*, %"struct.device::PublicKeyCredentialParams::CredentialInfo"*, %"class.std::__1::__compressed_pair.125" }
%"struct.device::PublicKeyCredentialParams::CredentialInfo" = type { i32, i32 }
%"class.std::__1::__compressed_pair.125" = type { %"struct.std::__1::__compressed_pair_elem.126" }
%"struct.std::__1::__compressed_pair_elem.126" = type { %"struct.device::PublicKeyCredentialParams::CredentialInfo"* }
%"class.std::__1::vector.130" = type { %"class.std::__1::__vector_base.131" }
%"class.std::__1::__vector_base.131" = type { %"class.device::PublicKeyCredentialDescriptor"*, %"class.device::PublicKeyCredentialDescriptor"*, %"class.std::__1::__compressed_pair.140" }
%"class.device::PublicKeyCredentialDescriptor" = type { i32, %"class.std::__1::vector.116", %"class.base::internal::flat_tree.132" }
%"class.base::internal::flat_tree.132" = type { %"class.std::__1::vector.133" }
%"class.std::__1::vector.133" = type { %"class.std::__1::__vector_base.134" }
%"class.std::__1::__vector_base.134" = type { i8*, i8*, %"class.std::__1::__compressed_pair.135" }
%"class.std::__1::__compressed_pair.135" = type { %"struct.std::__1::__compressed_pair_elem.136" }
%"struct.std::__1::__compressed_pair_elem.136" = type { i8* }
%"class.std::__1::__compressed_pair.140" = type { %"struct.std::__1::__compressed_pair_elem.141" }
%"struct.std::__1::__compressed_pair_elem.141" = type { %"class.device::PublicKeyCredentialDescriptor"* }
%"class.absl::optional.150" = type { %"class.absl::optional_internal::optional_data.151" }
%"class.absl::optional_internal::optional_data.151" = type { %"class.absl::optional_internal::optional_data_base.152" }
%"class.absl::optional_internal::optional_data_base.152" = type { %"class.absl::optional_internal::optional_data_dtor_base.153" }
%"class.absl::optional_internal::optional_data_dtor_base.153" = type { i8, %union.anon.154 }
%union.anon.154 = type { %"class.device::pin::TokenResponse" }
%"class.device::pin::TokenResponse" = type { i8, %"class.std::__1::vector.116" }
%"class.absl::optional.100" = type { %"class.absl::optional_internal::optional_data.101" }
%"class.absl::optional_internal::optional_data.101" = type { %"class.absl::optional_internal::optional_data_base.102" }
%"class.absl::optional_internal::optional_data_base.102" = type { %"class.absl::optional_internal::optional_data_dtor_base.103" }
%"class.absl::optional_internal::optional_data_dtor_base.103" = type { i8, %union.anon.104 }
%union.anon.104 = type { %"class.std::__1::basic_string" }
%"class.absl::optional.155" = type { %"class.absl::optional_internal::optional_data.156" }
%"class.absl::optional_internal::optional_data.156" = type { %"class.absl::optional_internal::optional_data_base.157" }
%"class.absl::optional_internal::optional_data_base.157" = type { %"class.absl::optional_internal::optional_data_dtor_base.158" }
%"class.absl::optional_internal::optional_data_dtor_base.158" = type { i8, %union.anon.159 }
%union.anon.159 = type { i8 }
%"class.absl::optional.145" = type { %"class.absl::optional_internal::optional_data.146" }
%"class.absl::optional_internal::optional_data.146" = type { %"class.absl::optional_internal::optional_data_base.147" }
%"class.absl::optional_internal::optional_data_base.147" = type { %"class.absl::optional_internal::optional_data_dtor_base.148" }
%"class.absl::optional_internal::optional_data_dtor_base.148" = type { i8, %union.anon.149 }
%union.anon.149 = type { %"class.std::__1::vector.116" }
%"class.base::OnceCallback.160" = type { %"class.base::internal::CallbackBase" }
%"class.device::MakeCredentialTask" = type { %"class.device::FidoTask", %"struct.device::CtapMakeCredentialRequest", %"class.std::__1::vector.483", i64, %"class.std::__1::unique_ptr.490", %"class.std::__1::unique_ptr.496", %"class.base::OnceCallback.160", i8, i8, %"class.base::WeakPtrFactory.503" }
%"class.std::__1::vector.483" = type { %"class.std::__1::__vector_base.484" }
%"class.std::__1::__vector_base.484" = type { %"class.std::__1::vector.130"*, %"class.std::__1::vector.130"*, %"class.std::__1::__compressed_pair.485" }
%"class.std::__1::__compressed_pair.485" = type { %"struct.std::__1::__compressed_pair_elem.486" }
%"struct.std::__1::__compressed_pair_elem.486" = type { %"class.std::__1::vector.130"* }
%"class.std::__1::unique_ptr.490" = type { %"class.std::__1::__compressed_pair.491" }
%"class.std::__1::__compressed_pair.491" = type { %"struct.std::__1::__compressed_pair_elem.492" }
%"struct.std::__1::__compressed_pair_elem.492" = type { %"class.device::DeviceOperation"* }
%"class.device::DeviceOperation" = type opaque
%"class.std::__1::unique_ptr.496" = type { %"class.std::__1::__compressed_pair.497" }
%"class.std::__1::__compressed_pair.497" = type { %"struct.std::__1::__compressed_pair_elem.498" }
%"struct.std::__1::__compressed_pair_elem.498" = type { %"class.device::DeviceOperation.499"* }
%"class.device::DeviceOperation.499" = type opaque
%"class.base::WeakPtrFactory.503" = type { %"class.base::internal::WeakPtrFactoryBase" }
%"struct.device::CtapGetAssertionRequest" = type <{ %"class.std::__1::basic_string", %"class.std::__1::basic_string", %"struct.std::__1::array.99", i32, i8, [3 x i8], %"class.std::__1::vector.130", %"class.absl::optional.145", %"class.absl::optional.87", [6 x i8], %"class.absl::optional.161", %"class.absl::optional.100", %"class.absl::optional.178", [7 x i8], %"class.absl::optional.183", i8, i8, [6 x i8], %"class.absl::optional.145", i8, i8, i8, [5 x i8] }>
%"class.absl::optional.161" = type { %"class.absl::optional_internal::optional_data.162" }
%"class.absl::optional_internal::optional_data.162" = type { %"class.absl::optional_internal::optional_data_base.163" }
%"class.absl::optional_internal::optional_data_base.163" = type { %"class.absl::optional_internal::optional_data_dtor_base.164" }
%"class.absl::optional_internal::optional_data_dtor_base.164" = type { i8, %union.anon.165 }
%union.anon.165 = type { %"class.std::__1::vector.166" }
%"class.std::__1::vector.166" = type { %"class.std::__1::__vector_base.167" }
%"class.std::__1::__vector_base.167" = type { %"struct.device::CableDiscoveryData"*, %"struct.device::CableDiscoveryData"*, %"class.std::__1::__compressed_pair.173" }
%"struct.device::CableDiscoveryData" = type { i32, %"class.absl::optional.168", %"class.absl::optional.145" }
%"class.absl::optional.168" = type { %"class.absl::optional_internal::optional_data.169" }
%"class.absl::optional_internal::optional_data.169" = type { %"class.absl::optional_internal::optional_data_base.170" }
%"class.absl::optional_internal::optional_data_base.170" = type { %"class.absl::optional_internal::optional_data_dtor_base.171" }
%"class.absl::optional_internal::optional_data_dtor_base.171" = type { i8, %union.anon.172 }
%union.anon.172 = type { %"struct.device::CableDiscoveryData::V1Data" }
%"struct.device::CableDiscoveryData::V1Data" = type { %"struct.std::__1::array", %"struct.std::__1::array", %"struct.std::__1::array.99" }
%"class.std::__1::__compressed_pair.173" = type { %"struct.std::__1::__compressed_pair_elem.174" }
%"struct.std::__1::__compressed_pair_elem.174" = type { %"struct.device::CableDiscoveryData"* }
%"class.absl::optional.178" = type { %"class.absl::optional_internal::optional_data.179" }
%"class.absl::optional_internal::optional_data.179" = type { %"class.absl::optional_internal::optional_data_base.180" }
%"class.absl::optional_internal::optional_data_base.180" = type { %"class.absl::optional_internal::optional_data_dtor_base.181" }
%"class.absl::optional_internal::optional_data_dtor_base.181" = type { i8, %union.anon.182 }
%union.anon.182 = type { %"struct.std::__1::array.99" }
%"class.absl::optional.183" = type { %"class.absl::optional_internal::optional_data.184" }
%"class.absl::optional_internal::optional_data.184" = type { %"class.absl::optional_internal::optional_data_base.185" }
%"class.absl::optional_internal::optional_data_base.185" = type { %"class.absl::optional_internal::optional_data_dtor_base.186" }
%"class.absl::optional_internal::optional_data_dtor_base.186" = type { i8, %union.anon.187 }
%union.anon.187 = type { %"struct.device::CtapGetAssertionRequest::HMACSecret" }
%"struct.device::CtapGetAssertionRequest::HMACSecret" = type { %"struct.std::__1::array.188", %"class.std::__1::vector.116", %"class.std::__1::vector.116" }
%"struct.std::__1::array.188" = type { [65 x i8] }
%"struct.device::CtapGetAssertionOptions" = type { %"class.absl::optional.189", %"class.std::__1::vector.194" }
%"class.absl::optional.189" = type { %"class.absl::optional_internal::optional_data.190" }
%"class.absl::optional_internal::optional_data.190" = type { %"class.absl::optional_internal::optional_data_base.191" }
%"class.absl::optional_internal::optional_data_base.191" = type { %"class.absl::optional_internal::optional_data_dtor_base.192" }
%"class.absl::optional_internal::optional_data_dtor_base.192" = type { i8, %union.anon.193 }
%union.anon.193 = type { %"struct.device::pin::KeyAgreementResponse" }
%"struct.device::pin::KeyAgreementResponse" = type { [32 x i8], [32 x i8] }
%"class.std::__1::vector.194" = type { %"class.std::__1::__vector_base.195" }
%"class.std::__1::__vector_base.195" = type { %"struct.device::CtapGetAssertionOptions::PRFInput"*, %"struct.device::CtapGetAssertionOptions::PRFInput"*, %"class.std::__1::__compressed_pair.196" }
%"struct.device::CtapGetAssertionOptions::PRFInput" = type <{ %"class.absl::optional.145", %"struct.std::__1::array.99", %"class.absl::optional.178", [7 x i8] }>
%"class.std::__1::__compressed_pair.196" = type { %"struct.std::__1::__compressed_pair_elem.197" }
%"struct.std::__1::__compressed_pair_elem.197" = type { %"struct.device::CtapGetAssertionOptions::PRFInput"* }
%"class.base::OnceCallback.201" = type { %"class.base::internal::CallbackBase" }
%"class.base::OnceCallback.202" = type { %"class.base::internal::CallbackBase" }
%"class.base::OnceCallback.271" = type { %"class.base::internal::CallbackBase" }
%"class.std::__1::vector.257" = type { %"class.std::__1::__vector_base.412" }
%"class.std::__1::__vector_base.412" = type { %"class.cbor::Value"**, %"class.cbor::Value"**, %"class.std::__1::__compressed_pair.413" }
%"class.cbor::Value" = type { i32, %union.anon.226 }
%union.anon.226 = type { %"class.std::__1::vector.116" }
%"class.std::__1::__compressed_pair.413" = type { %"struct.std::__1::__compressed_pair_elem.414" }
%"struct.std::__1::__compressed_pair_elem.414" = type { %"class.cbor::Value"** }
%"class.absl::optional.203" = type { %"class.absl::optional_internal::optional_data.204" }
%"class.absl::optional_internal::optional_data.204" = type { %"class.absl::optional_internal::optional_data_base.205" }
%"class.absl::optional_internal::optional_data_base.205" = type { %"class.absl::optional_internal::optional_data_dtor_base.206" }
%"class.absl::optional_internal::optional_data_dtor_base.206" = type { i8, [7 x i8], %union.anon.207 }
%union.anon.207 = type { %"class.device::AuthenticatorGetAssertionResponse" }
%"class.device::AuthenticatorGetAssertionResponse" = type <{ %"class.device::AuthenticatorData", %"class.absl::optional.242", %"class.std::__1::vector.116", %"class.absl::optional.247", %"class.absl::optional.252", [6 x i8], %"class.absl::optional.145", i8, %"class.absl::optional.178", [6 x i8], %"class.absl::optional.145", i8, [7 x i8] }>
%"class.device::AuthenticatorData" = type { %"struct.std::__1::array.99", i8, %"struct.std::__1::array.208", %"class.absl::optional.209", %"class.absl::optional.221" }
%"struct.std::__1::array.208" = type { [4 x i8] }
%"class.absl::optional.209" = type { %"class.absl::optional_internal::optional_data.210" }
%"class.absl::optional_internal::optional_data.210" = type { %"class.absl::optional_internal::optional_data_base.211" }
%"class.absl::optional_internal::optional_data_base.211" = type { %"class.absl::optional_internal::optional_data_dtor_base.212" }
%"class.absl::optional_internal::optional_data_dtor_base.212" = type { i8, %union.anon.213 }
%union.anon.213 = type { %"class.device::AttestedCredentialData" }
%"class.device::AttestedCredentialData" = type { %"struct.std::__1::array", %"struct.std::__1::array.214", %"class.std::__1::vector.116", %"class.std::__1::unique_ptr.215" }
%"struct.std::__1::array.214" = type { [2 x i8] }
%"class.std::__1::unique_ptr.215" = type { %"class.std::__1::__compressed_pair.216" }
%"class.std::__1::__compressed_pair.216" = type { %"struct.std::__1::__compressed_pair_elem.217" }
%"struct.std::__1::__compressed_pair_elem.217" = type { %"struct.device::PublicKey"* }
%"struct.device::PublicKey" = type opaque
%"class.absl::optional.221" = type { %"class.absl::optional_internal::optional_data.222" }
%"class.absl::optional_internal::optional_data.222" = type { %"class.absl::optional_internal::optional_data_base.223" }
%"class.absl::optional_internal::optional_data_base.223" = type { %"class.absl::optional_internal::optional_data_dtor_base.224" }
%"class.absl::optional_internal::optional_data_dtor_base.224" = type { i8, %union.anon.225 }
%union.anon.225 = type { %"class.cbor::Value" }
%"class.absl::optional.242" = type { %"class.absl::optional_internal::optional_data.243" }
%"class.absl::optional_internal::optional_data.243" = type { %"class.absl::optional_internal::optional_data_base.244" }
%"class.absl::optional_internal::optional_data_base.244" = type { %"class.absl::optional_internal::optional_data_dtor_base.245" }
%"class.absl::optional_internal::optional_data_dtor_base.245" = type { i8, %union.anon.246 }
%union.anon.246 = type { %"class.device::PublicKeyCredentialDescriptor" }
%"class.absl::optional.247" = type { %"class.absl::optional_internal::optional_data.248" }
%"class.absl::optional_internal::optional_data.248" = type { %"class.absl::optional_internal::optional_data_base.249" }
%"class.absl::optional_internal::optional_data_base.249" = type { %"class.absl::optional_internal::optional_data_dtor_base.250" }
%"class.absl::optional_internal::optional_data_dtor_base.250" = type { i8, %union.anon.251 }
%union.anon.251 = type { %"class.device::PublicKeyCredentialUserEntity" }
%"class.absl::optional.252" = type { %"class.absl::optional_internal::optional_data.253" }
%"class.absl::optional_internal::optional_data.253" = type { %"class.absl::optional_internal::optional_data_base.254" }
%"class.absl::optional_internal::optional_data_base.254" = type { %"class.absl::optional_internal::optional_data_dtor_base.255" }
%"class.absl::optional_internal::optional_data_dtor_base.255" = type { i8, %union.anon.256 }
%union.anon.256 = type { i8 }
%"class.device::GetAssertionTask" = type { %"class.device::FidoTask", %"struct.device::CtapGetAssertionRequest", %"struct.device::CtapGetAssertionOptions", %"class.std::__1::vector.483", i64, %"class.std::__1::unique_ptr.496", %"class.std::__1::unique_ptr.490", %"class.base::OnceCallback.201", %"class.std::__1::unique_ptr.537", i8, %"class.base::WeakPtrFactory.543" }
%"class.std::__1::unique_ptr.537" = type { %"class.std::__1::__compressed_pair.538" }
%"class.std::__1::__compressed_pair.538" = type { %"struct.std::__1::__compressed_pair_elem.539" }
%"struct.std::__1::__compressed_pair_elem.539" = type { %"class.device::pin::HMACSecretRequest"* }
%"class.device::pin::HMACSecretRequest" = type { i8, %"class.std::__1::vector.116", %"struct.std::__1::array.188", %"class.std::__1::vector.116", %"class.std::__1::vector.116" }
%"class.base::WeakPtrFactory.543" = type { %"class.base::internal::WeakPtrFactoryBase" }
%"class.base::OnceCallback.258" = type { %"class.base::internal::CallbackBase" }
%"class.base::OnceCallback.259" = type { %"class.base::internal::CallbackBase" }
%"class.base::OnceCallback.260" = type { %"class.base::internal::CallbackBase" }
%"struct.std::__1::basic_string<char, std::__1::char_traits<char>, std::__1::allocator<char> >::__short" = type { [23 x i8], %struct.anon }
%struct.anon = type { i8 }
%"class.base::OnceCallback.268" = type { %"class.base::internal::CallbackBase" }
%"class.base::OnceCallback.269" = type { %"class.base::internal::CallbackBase" }
%"class.std::__1::vector.272" = type { %"class.std::__1::__vector_base.273" }
%"class.std::__1::__vector_base.273" = type { i8*, i8*, %"class.std::__1::__compressed_pair.274" }
%"class.std::__1::__compressed_pair.274" = type { %"struct.std::__1::__compressed_pair_elem.275" }
%"struct.std::__1::__compressed_pair_elem.275" = type { i8* }
%"class.base::OnceCallback.279" = type { %"class.base::internal::CallbackBase" }
%"class.device::pin::PinTokenWithPermissionsRequest" = type { %"class.device::pin::PinTokenRequest.base", i8, %"class.absl::optional.100" }
%"class.device::pin::PinTokenRequest.base" = type <{ i32 (...)**, %"class.device::pin::TokenRequest.base", [16 x i8] }>
%"class.device::pin::TokenRequest.base" = type <{ i8, [7 x i8], %"class.std::__1::vector.116", %"struct.std::__1::array.188" }>
%"class.base::OnceCallback.280" = type { %"class.base::internal::CallbackBase" }
%"class.device::pin::PinTokenRequest" = type <{ i32 (...)**, %"class.device::pin::TokenRequest.base", [16 x i8], [7 x i8] }>
%"class.device::pin::TokenRequest" = type <{ i8, [7 x i8], %"class.std::__1::vector.116", %"struct.std::__1::array.188", [7 x i8] }>
%"class.std::__1::__vector_base_common" = type { i8 }
%"class.absl::optional.261" = type { %"class.absl::optional_internal::optional_data.262" }
%"class.absl::optional_internal::optional_data.262" = type { %"class.absl::optional_internal::optional_data_base.263" }
%"class.absl::optional_internal::optional_data_base.263" = type { %"class.absl::optional_internal::optional_data_dtor_base.264" }
%"class.absl::optional_internal::optional_data_dtor_base.264" = type { i8, %union.anon.265 }
%union.anon.265 = type { %"struct.device::pin::EmptyResponse" }
%"struct.device::pin::EmptyResponse" = type { i8 }
%"class.device::pin::SetRequest" = type { i8, %"struct.device::pin::KeyAgreementResponse", [64 x i8] }
%"struct.base::internal::BindState.728" = type { %"class.base::internal::BindStateBase", { i64, i64 }, %"class.std::__1::tuple.729" }
%"class.std::__1::tuple.729" = type { %"struct.std::__1::__tuple_impl.730" }
%"struct.std::__1::__tuple_impl.730" = type { %"class.std::__1::__tuple_leaf", %"class.std::__1::__tuple_leaf.658", %"class.std::__1::__tuple_leaf.731", %"class.std::__1::__tuple_leaf.732" }
%"class.std::__1::__tuple_leaf" = type { %"class.base::WeakPtr.98" }
%"class.std::__1::__tuple_leaf.658" = type { %"class.std::__1::basic_string" }
%"class.std::__1::__tuple_leaf.731" = type { %"class.std::__1::basic_string" }
%"class.std::__1::__tuple_leaf.732" = type { %"class.base::OnceCallback.259" }
%"class.device::pin::ChangeRequest" = type { i8, %"struct.device::pin::KeyAgreementResponse", [16 x i8], [64 x i8] }
%"class.device::FidoRequestHandlerBase::Observer" = type { i32 (...)** }
%"class.base::OnceCallback.282" = type { %"class.base::internal::CallbackBase" }
%"struct.device::CredentialManagementRequest" = type { i32, i8, %"class.absl::optional.283", %"class.absl::optional.87", %"class.absl::optional.145" }
%"class.absl::optional.283" = type { %"class.absl::optional_internal::optional_data.284" }
%"class.absl::optional_internal::optional_data.284" = type { %"class.absl::optional_internal::optional_data_base.285" }
%"class.absl::optional_internal::optional_data_base.285" = type { %"class.absl::optional_internal::optional_data_dtor_base.286" }
%"class.absl::optional_internal::optional_data_dtor_base.286" = type { i8, %union.anon.287 }
%union.anon.287 = type { %"class.base::flat_map" }
%"class.base::flat_map" = type { %"class.base::internal::flat_tree.234" }
%"class.base::internal::flat_tree.234" = type { %"class.std::__1::vector.235" }
%"class.std::__1::vector.235" = type { %"class.std::__1::__vector_base.236" }
%"class.std::__1::__vector_base.236" = type { %"struct.std::__1::pair"*, %"struct.std::__1::pair"*, %"class.std::__1::__compressed_pair.237" }
%"struct.std::__1::pair" = type { %"class.cbor::Value", %"class.cbor::Value" }
%"class.std::__1::__compressed_pair.237" = type { %"struct.std::__1::__compressed_pair_elem.238" }
%"struct.std::__1::__compressed_pair_elem.238" = type { %"struct.std::__1::pair"* }
%"class.base::OnceCallback.288" = type { %"class.base::internal::CallbackBase" }
%"class.base::OnceCallback.290" = type { %"class.base::internal::CallbackBase" }
%"struct.device::FidoDeviceAuthenticator::EnumerateCredentialsState" = type { %"class.device::pin::TokenResponse", i64, i64, i64, %"class.base::OnceCallback.290", %"class.std::__1::vector.291", %"class.std::__1::vector.305" }
%"class.std::__1::vector.291" = type { %"class.std::__1::__vector_base.292" }
%"class.std::__1::__vector_base.292" = type { %"struct.device::AggregatedEnumerateCredentialsResponse"*, %"struct.device::AggregatedEnumerateCredentialsResponse"*, %"class.std::__1::__compressed_pair.300" }
%"struct.device::AggregatedEnumerateCredentialsResponse" = type { %"struct.device::PublicKeyCredentialRpEntity", %"class.std::__1::vector.293" }
%"class.std::__1::vector.293" = type { %"class.std::__1::__vector_base.294" }
%"class.std::__1::__vector_base.294" = type { %"struct.device::EnumerateCredentialsResponse"*, %"struct.device::EnumerateCredentialsResponse"*, %"class.std::__1::__compressed_pair.295" }
%"struct.device::EnumerateCredentialsResponse" = type { %"class.device::PublicKeyCredentialUserEntity", %"class.device::PublicKeyCredentialDescriptor", %"class.std::__1::vector.116", i64 }
%"class.std::__1::__compressed_pair.295" = type { %"struct.std::__1::__compressed_pair_elem.296" }
%"struct.std::__1::__compressed_pair_elem.296" = type { %"struct.device::EnumerateCredentialsResponse"* }
%"class.std::__1::__compressed_pair.300" = type { %"struct.std::__1::__compressed_pair_elem.301" }
%"struct.std::__1::__compressed_pair_elem.301" = type { %"struct.device::AggregatedEnumerateCredentialsResponse"* }
%"class.std::__1::vector.305" = type { %"class.std::__1::__vector_base.306" }
%"class.std::__1::__vector_base.306" = type { %"struct.std::__1::array.99"*, %"struct.std::__1::array.99"*, %"class.std::__1::__compressed_pair.307" }
%"class.std::__1::__compressed_pair.307" = type { %"struct.std::__1::__compressed_pair_elem.308" }
%"struct.std::__1::__compressed_pair_elem.308" = type { %"struct.std::__1::array.99"* }
%"class.base::OnceCallback.312" = type { %"class.base::internal::CallbackBase" }
%"class.base::OnceCallback.313" = type { %"class.base::internal::CallbackBase" }
%"class.absl::optional.314" = type { %"class.absl::optional_internal::optional_data.315" }
%"class.absl::optional_internal::optional_data.315" = type { %"class.absl::optional_internal::optional_data_base.316" }
%"class.absl::optional_internal::optional_data_base.316" = type { %"class.absl::optional_internal::optional_data_dtor_base.317" }
%"class.absl::optional_internal::optional_data_dtor_base.317" = type { i8, %union.anon.318 }
%union.anon.318 = type { %"struct.device::EnumerateRPsResponse" }
%"struct.device::EnumerateRPsResponse" = type { %"class.absl::optional.319", %"class.absl::optional.178", i64 }
%"class.absl::optional.319" = type { %"class.absl::optional_internal::optional_data.320" }
%"class.absl::optional_internal::optional_data.320" = type { %"class.absl::optional_internal::optional_data_base.321" }
%"class.absl::optional_internal::optional_data_base.321" = type { %"class.absl::optional_internal::optional_data_dtor_base.322" }
%"class.absl::optional_internal::optional_data_dtor_base.322" = type { i8, %union.anon.323 }
%union.anon.323 = type { %"struct.device::PublicKeyCredentialRpEntity" }
%"class.absl::optional.324" = type { %"class.absl::optional_internal::optional_data.325" }
%"class.absl::optional_internal::optional_data.325" = type { %"class.absl::optional_internal::optional_data_base.326" }
%"class.absl::optional_internal::optional_data_base.326" = type { %"class.absl::optional_internal::optional_data_dtor_base.327" }
%"class.absl::optional_internal::optional_data_dtor_base.327" = type { i8, %union.anon.328 }
%union.anon.328 = type { %"class.std::__1::vector.291" }
%"class.base::OnceCallback.329" = type { %"class.base::internal::CallbackBase" }
%"class.base::OnceCallback.330" = type { %"class.base::internal::CallbackBase" }
%"class.absl::optional.331" = type { %"class.absl::optional_internal::optional_data.332" }
%"class.absl::optional_internal::optional_data.332" = type { %"class.absl::optional_internal::optional_data_base.333" }
%"class.absl::optional_internal::optional_data_base.333" = type { %"class.absl::optional_internal::optional_data_dtor_base.334" }
%"class.absl::optional_internal::optional_data_dtor_base.334" = type { i8, %union.anon.335 }
%union.anon.335 = type { %"struct.device::EnumerateCredentialsResponse" }
%"class.base::OnceCallback.336" = type { %"class.base::internal::CallbackBase" }
%"struct.device::BioEnrollmentRequest" = type <{ i32, %"class.absl::optional.337", %"class.absl::optional.342", %"class.absl::optional.283", %"class.absl::optional.87", [6 x i8], %"class.absl::optional.145", %"class.absl::optional.54", [6 x i8] }>
%"class.absl::optional.337" = type { %"class.absl::optional_internal::optional_data.338" }
%"class.absl::optional_internal::optional_data.338" = type { %"class.absl::optional_internal::optional_data_base.339" }
%"class.absl::optional_internal::optional_data_base.339" = type { %"class.absl::optional_internal::optional_data_dtor_base.340" }
%"class.absl::optional_internal::optional_data_dtor_base.340" = type { i8, %union.anon.341 }
%union.anon.341 = type { i8 }
%"class.absl::optional.342" = type { %"class.absl::optional_internal::optional_data.343" }
%"class.absl::optional_internal::optional_data.343" = type { %"class.absl::optional_internal::optional_data_base.344" }
%"class.absl::optional_internal::optional_data_base.344" = type { %"class.absl::optional_internal::optional_data_dtor_base.345" }
%"class.absl::optional_internal::optional_data_dtor_base.345" = type { i8, %union.anon.346 }
%union.anon.346 = type { i8 }
%"class.base::OnceCallback.347" = type { %"class.base::internal::CallbackBase" }
%"class.base::OnceCallback.349" = type { %"class.base::internal::CallbackBase" }
%"class.device::LargeBlobArrayReader" = type { %"class.std::__1::vector.116" }
%"class.base::OnceCallback.350" = type { %"class.base::internal::CallbackBase" }
%"class.std::__1::tuple.885" = type { %"struct.std::__1::__tuple_impl.886" }
%"struct.std::__1::__tuple_impl.886" = type { %"class.std::__1::__tuple_leaf", %"class.std::__1::__tuple_leaf.669", %"class.std::__1::__tuple_leaf.887", %"class.std::__1::__tuple_leaf.888", %"class.std::__1::__tuple_leaf.889" }
%"class.std::__1::__tuple_leaf.669" = type { %"class.std::__1::vector.116" }
%"class.std::__1::__tuple_leaf.887" = type { %"struct.std::__1::array.99" }
%"class.std::__1::__tuple_leaf.888" = type { %"class.absl::optional.150" }
%"class.std::__1::__tuple_leaf.889" = type { %"class.base::OnceCallback.349" }
%"class.device::LargeBlobsRequest" = type <{ %"class.absl::optional.359", %"class.absl::optional.145", i64, %"class.absl::optional.359", %"class.absl::optional.145", %"class.absl::optional.87", [6 x i8] }>
%"class.absl::optional.359" = type { %"class.absl::optional_internal::optional_data.360" }
%"class.absl::optional_internal::optional_data.360" = type { %"class.absl::optional_internal::optional_data_base.361" }
%"class.absl::optional_internal::optional_data_base.361" = type { %"class.absl::optional_internal::optional_data_dtor_base.362" }
%"class.absl::optional_internal::optional_data_dtor_base.362" = type { i8, %union.anon.363 }
%union.anon.363 = type { i64 }
%"class.base::OnceCallback.364" = type { %"class.base::internal::CallbackBase" }
%"class.base::OnceCallback.365" = type { %"class.base::internal::CallbackBase" }
%"class.absl::optional.351" = type { %"class.absl::optional_internal::optional_data.352" }
%"class.absl::optional_internal::optional_data.352" = type { %"class.absl::optional_internal::optional_data_base.353" }
%"class.absl::optional_internal::optional_data_base.353" = type { %"class.absl::optional_internal::optional_data_dtor_base.354" }
%"class.absl::optional_internal::optional_data_dtor_base.354" = type { i8, %union.anon.355 }
%union.anon.355 = type { %"class.device::LargeBlobArrayReader" }
%"class.absl::optional.371" = type { %"class.absl::optional_internal::optional_data.372" }
%"class.absl::optional_internal::optional_data.372" = type { %"class.absl::optional_internal::optional_data_base.373" }
%"class.absl::optional_internal::optional_data_base.373" = type { %"class.absl::optional_internal::optional_data_dtor_base.374" }
%"class.absl::optional_internal::optional_data_dtor_base.374" = type { i8, %union.anon.375 }
%union.anon.375 = type { %"class.std::__1::vector.376" }
%"class.std::__1::vector.376" = type { %"class.std::__1::__vector_base.377" }
%"class.std::__1::__vector_base.377" = type { %"class.device::LargeBlobData"*, %"class.device::LargeBlobData"*, %"class.std::__1::__compressed_pair.379" }
%"class.device::LargeBlobData" = type { %"class.std::__1::vector.116", %"struct.std::__1::array.378", i64 }
%"struct.std::__1::array.378" = type { [12 x i8] }
%"class.std::__1::__compressed_pair.379" = type { %"struct.std::__1::__compressed_pair_elem.380" }
%"struct.std::__1::__compressed_pair_elem.380" = type { %"class.device::LargeBlobData"* }
%"class.device::LargeBlobArrayWriter" = type { %"class.std::__1::vector.116", i64 }
%"class.base::OnceCallback.358" = type { %"class.base::internal::CallbackBase" }
%"struct.base::internal::BindState.891" = type { %"class.base::internal::BindStateBase", { i64, i64 }, %"class.std::__1::tuple.892" }
%"class.std::__1::tuple.892" = type { %"struct.std::__1::__tuple_impl.893" }
%"struct.std::__1::__tuple_impl.893" = type { %"class.std::__1::__tuple_leaf", %"class.std::__1::__tuple_leaf.894", %"class.std::__1::__tuple_leaf.895" }
%"class.std::__1::__tuple_leaf.894" = type { %"class.std::__1::vector.305" }
%"class.std::__1::__tuple_leaf.895" = type { %"class.base::OnceCallback.358" }
%"class.absl::optional.386" = type { %"class.absl::optional_internal::optional_data.387" }
%"class.absl::optional_internal::optional_data.387" = type { %"class.absl::optional_internal::optional_data_base.388" }
%"class.absl::optional_internal::optional_data_base.388" = type { %"class.absl::optional_internal::optional_data_dtor_base.389" }
%"class.absl::optional_internal::optional_data_dtor_base.389" = type { i8, %union.anon.390 }
%union.anon.390 = type { %"class.std::__1::vector.391" }
%"class.std::__1::vector.391" = type { %"class.std::__1::__vector_base.392" }
%"class.std::__1::__vector_base.392" = type { %"struct.std::__1::pair.393"*, %"struct.std::__1::pair.393"*, %"class.std::__1::__compressed_pair.394" }
%"struct.std::__1::pair.393" = type { %"struct.std::__1::array.99", %"class.std::__1::vector.116" }
%"class.std::__1::__compressed_pair.394" = type { %"struct.std::__1::__compressed_pair_elem.395" }
%"struct.std::__1::__compressed_pair_elem.395" = type { %"struct.std::__1::pair.393"* }
%"class.absl::optional.366" = type { %"class.absl::optional_internal::optional_data.367" }
%"class.absl::optional_internal::optional_data.367" = type { %"class.absl::optional_internal::optional_data_base.368" }
%"class.absl::optional_internal::optional_data_base.368" = type { %"class.absl::optional_internal::optional_data_dtor_base.369" }
%"class.absl::optional_internal::optional_data_dtor_base.369" = type { i8, %union.anon.370 }
%union.anon.370 = type { %"class.device::LargeBlobsResponse" }
%"class.device::LargeBlobsResponse" = type { %"class.absl::optional.145" }
%"struct.device::LargeBlobArrayFragment" = type { %"class.std::__1::vector.116", i64 }
%"class.absl::optional.400" = type { %"class.absl::optional_internal::optional_data.401" }
%"class.absl::optional_internal::optional_data.401" = type { %"class.absl::optional_internal::optional_data_base.402" }
%"class.absl::optional_internal::optional_data_base.402" = type { %"class.absl::optional_internal::optional_data_dtor_base.403" }
%"class.absl::optional_internal::optional_data_dtor_base.403" = type { i8, %union.anon.404 }
%union.anon.404 = type { %"class.base::span.405" }
%"class.base::span.405" = type { %"struct.base::internal::ExtentStorage", i32* }
%"struct.base::internal::ExtentStorage" = type { i64 }
%"class.device::pin::UvTokenRequest" = type <{ i32 (...)**, %"class.device::pin::TokenRequest.base", [7 x i8], %"class.absl::optional.100", i8, [7 x i8] }>
%"class.base::WeakPtr.411" = type { %"class.base::internal::WeakPtrBase" }
%"class.std::__1::tuple" = type { %"struct.std::__1::__tuple_impl" }
%"struct.std::__1::__tuple_impl" = type { %"class.std::__1::__tuple_leaf", %"class.std::__1::__tuple_leaf.466" }
%"class.std::__1::__tuple_leaf.466" = type { %"class.base::OnceCallback" }
%"class.logging::CheckError" = type { %"class.logging::LogMessage"* }
%"class.logging::LogMessage" = type { i32 (...)**, i32, %"class.std::__1::basic_ostringstream", i64, i8*, i32, %"class.base::ScopedClearLastErrorBase" }
%"class.std::__1::basic_ostringstream" = type { %"class.std::__1::basic_ostream.base", %"class.std::__1::basic_stringbuf", %"class.std::__1::basic_ios.base" }
%"class.std::__1::basic_ostream.base" = type { i32 (...)** }
%"class.std::__1::basic_stringbuf" = type <{ %"class.std::__1::basic_streambuf", %"class.std::__1::basic_string", i8*, i32, [4 x i8] }>
%"class.std::__1::basic_streambuf" = type { i32 (...)**, %"class.std::__1::locale", i8*, i8*, i8*, i8*, i8*, i8* }
%"class.std::__1::locale" = type { %"class.std::__1::locale::__imp"* }
%"class.std::__1::locale::__imp" = type opaque
%"class.std::__1::basic_ios.base" = type <{ %"class.std::__1::ios_base", %"class.std::__1::basic_ostream"*, i32 }>
%"class.std::__1::ios_base" = type { i32 (...)**, i32, i64, i64, i32, i32, i8*, i8*, void (i32, %"class.std::__1::ios_base"*, i32)**, i32*, i64, i64, i64*, i64, i64, i8**, i64, i64 }
%"class.std::__1::basic_ostream" = type { i32 (...)**, %"class.std::__1::basic_ios.base" }
%"class.base::ScopedClearLastErrorBase" = type { i32 }
%"class.std::__1::tuple.470" = type { %"struct.std::__1::__tuple_impl.471" }
%"struct.std::__1::__tuple_impl.471" = type { %"class.std::__1::__tuple_leaf.472", %"class.std::__1::__tuple_leaf.466" }
%"class.std::__1::__tuple_leaf.472" = type { %"class.base::WeakPtr" }
%"class.absl::optional.507" = type { %"class.absl::optional_internal::optional_data.508" }
%"class.absl::optional_internal::optional_data.508" = type { %"class.absl::optional_internal::optional_data_base.509" }
%"class.absl::optional_internal::optional_data_base.509" = type { %"class.absl::optional_internal::optional_data_dtor_base.510" }
%"class.absl::optional_internal::optional_data_dtor_base.510" = type { i8, [7 x i8], %union.anon.511 }
%union.anon.511 = type { %"class.device::AuthenticatorMakeCredentialResponse" }
%"class.device::AuthenticatorMakeCredentialResponse" = type <{ i8, %"class.absl::optional.54", i8, [4 x i8], %"class.device::AttestationObject", %"class.absl::optional.406", %"class.absl::optional.178", [5 x i8] }>
%"class.device::AttestationObject" = type { %"class.device::AuthenticatorData", %"class.std::__1::unique_ptr.512" }
%"class.std::__1::unique_ptr.512" = type { %"class.std::__1::__compressed_pair.513" }
%"class.std::__1::__compressed_pair.513" = type { %"struct.std::__1::__compressed_pair_elem.514" }
%"struct.std::__1::__compressed_pair_elem.514" = type { %"class.device::AttestationStatement"* }
%"class.device::AttestationStatement" = type opaque
%"class.absl::optional.406" = type { %"class.absl::optional_internal::optional_data.407" }
%"class.absl::optional_internal::optional_data.407" = type { %"class.absl::optional_internal::optional_data_base.408" }
%"class.absl::optional_internal::optional_data_base.408" = type { %"class.absl::optional_internal::optional_data_dtor_base.409" }
%"class.absl::optional_internal::optional_data_dtor_base.409" = type { i8, %union.anon.410 }
%union.anon.410 = type { i8 }
%"class.device::Ctap2DeviceOperation" = type { %"class.device::DeviceOperation.559", %"class.base::OnceCallback.258", i1 (%"class.std::__1::vector.257"*)*, %"class.base::WeakPtrFactory.560" }
%"class.device::DeviceOperation.559" = type { %"class.device::GenericDeviceOperation", %"class.absl::optional.11", %"class.device::FidoDevice"*, %"struct.device::CtapGetNextAssertionRequest", %"class.base::OnceCallback.201" }
%"struct.device::CtapGetNextAssertionRequest" = type { i8 }
%"class.base::WeakPtrFactory.560" = type { %"class.base::internal::WeakPtrFactoryBase" }
%"struct.std::__1::pair.564" = type { i8, %"class.absl::optional.221" }
%"class.device_event_log::internal::DeviceEventLogInstance" = type { i8*, i32, i32, i32, %"class.std::__1::basic_ostringstream" }
%"class.base::OnceCallback.567" = type { %"class.base::internal::CallbackBase" }
%"class.base::WeakPtr.568" = type { %"class.base::internal::WeakPtrBase" }
%"struct.cbor::Reader::Config" = type <{ i64*, i32*, i32, i8, [3 x i8] }>
%"class.std::__1::basic_ostream<char, std::__1::char_traits<char> >::sentry" = type { i8, %"class.std::__1::basic_ostream"* }
%"class.std::__1::locale::facet" = type { %"class.std::__1::__shared_count" }
%"class.std::__1::__shared_count" = type { i32 (...)**, i64 }
%"class.std::__1::ctype" = type <{ %"class.std::__1::locale::facet", i16*, i8, [7 x i8] }>
%"class.device::Ctap2DeviceOperation.591" = type { %"class.device::DeviceOperation.592", %"class.base::OnceCallback.260", i1 (%"class.std::__1::vector.257"*)*, %"class.base::WeakPtrFactory.593" }
%"class.device::DeviceOperation.592" = type { %"class.device::GenericDeviceOperation", %"class.absl::optional.11", %"class.device::FidoDevice"*, %"struct.device::CtapAuthenticatorSelectionRequest", %"class.base::OnceCallback.259" }
%"struct.device::CtapAuthenticatorSelectionRequest" = type { i8 }
%"class.base::WeakPtrFactory.593" = type { %"class.base::internal::WeakPtrFactoryBase" }
%"class.base::WeakPtr.597" = type { %"class.base::internal::WeakPtrBase" }
%"class.absl::optional.270" = type { %"class.absl::optional_internal::optional_data.418" }
%"class.absl::optional_internal::optional_data.418" = type { %"class.absl::optional_internal::optional_data_base.419" }
%"class.absl::optional_internal::optional_data_base.419" = type { %"class.absl::optional_internal::optional_data_dtor_base.420" }
%"class.absl::optional_internal::optional_data_dtor_base.420" = type { i8, %union.anon.421 }
%union.anon.421 = type { %"struct.device::pin::RetriesResponse" }
%"struct.device::pin::RetriesResponse" = type { i32 }
%"class.device::Ctap2DeviceOperation.617" = type { %"class.device::DeviceOperation.618", %"class.base::OnceCallback.269", i1 (%"class.std::__1::vector.257"*)*, %"class.base::WeakPtrFactory.619" }
%"class.device::DeviceOperation.618" = type { %"class.device::GenericDeviceOperation", %"class.absl::optional.11", %"class.device::FidoDevice"*, %"struct.device::pin::PinRetriesRequest", %"class.base::OnceCallback.268" }
%"struct.device::pin::PinRetriesRequest" = type { i8 }
%"class.base::WeakPtrFactory.619" = type { %"class.base::internal::WeakPtrFactoryBase" }
%"class.base::WeakPtr.623" = type { %"class.base::internal::WeakPtrBase" }
%"class.device::Ctap2DeviceOperation.638" = type { %"class.device::DeviceOperation.639", %"class.base::OnceCallback.271", i1 (%"class.std::__1::vector.257"*)*, %"class.base::WeakPtrFactory.640" }
%"class.device::DeviceOperation.639" = type { %"class.device::GenericDeviceOperation", %"class.absl::optional.11", %"class.device::FidoDevice"*, %"struct.device::pin::KeyAgreementRequest", %"class.base::OnceCallback.202" }
%"struct.device::pin::KeyAgreementRequest" = type { i8 }
%"class.base::WeakPtrFactory.640" = type { %"class.base::internal::WeakPtrFactoryBase" }
%"class.base::WeakPtr.644" = type { %"class.base::internal::WeakPtrBase" }
%"class.device::Ctap2DeviceOperation.674" = type { %"class.device::DeviceOperation.675", %"class.base::OnceCallback.280", i1 (%"class.std::__1::vector.257"*)*, %"class.base::WeakPtrFactory.676" }
%"class.device::DeviceOperation.675" = type { %"class.device::GenericDeviceOperation", %"class.absl::optional.11", %"class.device::FidoDevice"*, %"class.device::pin::PinTokenWithPermissionsRequest", %"class.base::OnceCallback.279" }
%"class.base::WeakPtrFactory.676" = type { %"class.base::internal::WeakPtrFactoryBase" }
%"class.base::WeakPtr.680" = type { %"class.base::internal::WeakPtrBase" }
%"class.device::Ctap2DeviceOperation.694" = type { %"class.device::DeviceOperation.695", %"class.base::OnceCallback.280", i1 (%"class.std::__1::vector.257"*)*, %"class.base::WeakPtrFactory.696" }
%"class.device::DeviceOperation.695" = type { %"class.device::GenericDeviceOperation", %"class.absl::optional.11", %"class.device::FidoDevice"*, %"class.device::pin::PinTokenRequest", %"class.base::OnceCallback.279" }
%"class.base::WeakPtrFactory.696" = type { %"class.base::internal::WeakPtrFactoryBase" }
%"class.base::WeakPtr.700" = type { %"class.base::internal::WeakPtrBase" }
%"class.device::Ctap2DeviceOperation.716" = type { %"class.device::DeviceOperation.717", %"class.base::OnceCallback.260", i1 (%"class.std::__1::vector.257"*)*, %"class.base::WeakPtrFactory.718" }
%"class.device::DeviceOperation.717" = type { %"class.device::GenericDeviceOperation", %"class.absl::optional.11", %"class.device::FidoDevice"*, %"class.device::pin::SetRequest", %"class.base::OnceCallback.259" }
%"class.base::WeakPtrFactory.718" = type { %"class.base::internal::WeakPtrFactoryBase" }
%"class.base::WeakPtr.722" = type { %"class.base::internal::WeakPtrBase" }
%"class.device::Ctap2DeviceOperation.737" = type { %"class.device::DeviceOperation.738", %"class.base::OnceCallback.260", i1 (%"class.std::__1::vector.257"*)*, %"class.base::WeakPtrFactory.739" }
%"class.device::DeviceOperation.738" = type { %"class.device::GenericDeviceOperation", %"class.absl::optional.11", %"class.device::FidoDevice"*, %"class.device::pin::ChangeRequest", %"class.base::OnceCallback.259" }
%"class.base::WeakPtrFactory.739" = type { %"class.base::internal::WeakPtrFactoryBase" }
%"class.base::WeakPtr.743" = type { %"class.base::internal::WeakPtrBase" }
%"class.absl::optional.289" = type { %"class.absl::optional_internal::optional_data.422" }
%"class.absl::optional_internal::optional_data.422" = type { %"class.absl::optional_internal::optional_data_base.423" }
%"class.absl::optional_internal::optional_data_base.423" = type { %"class.absl::optional_internal::optional_data_dtor_base.424" }
%"class.absl::optional_internal::optional_data_dtor_base.424" = type { i8, %union.anon.425 }
%"class.device::Ctap2DeviceOperation.757" = type { %"class.device::DeviceOperation.758", %"class.base::OnceCallback.288", i1 (%"class.std::__1::vector.257"*)*, %"class.base::WeakPtrFactory.759" }
%"class.device::DeviceOperation.758" = type { %"class.device::GenericDeviceOperation", %"class.absl::optional.11", %"class.device::FidoDevice"*, %"struct.device::CredentialManagementRequest", %"class.base::OnceCallback.282" }
%"class.base::WeakPtrFactory.759" = type { %"class.base::internal::WeakPtrFactoryBase" }
%"class.base::WeakPtr.763" = type { %"class.base::internal::WeakPtrBase" }
%"struct.base::internal::BindState.774" = type { %"class.base::internal::BindStateBase", { i64, i64 }, %"class.std::__1::tuple.775" }
%"class.std::__1::tuple.775" = type { %"struct.std::__1::__tuple_impl.776" }
%"struct.std::__1::__tuple_impl.776" = type { %"class.std::__1::__tuple_leaf", %"class.std::__1::__tuple_leaf.777" }
%"class.std::__1::__tuple_leaf.777" = type { %"struct.device::FidoDeviceAuthenticator::EnumerateCredentialsState" }
%"class.device::Ctap2DeviceOperation.787" = type { %"class.device::DeviceOperation.788", %"class.base::OnceCallback.313", i1 (%"class.std::__1::vector.257"*)*, %"class.base::WeakPtrFactory.789" }
%"class.device::DeviceOperation.788" = type { %"class.device::GenericDeviceOperation", %"class.absl::optional.11", %"class.device::FidoDevice"*, %"struct.device::CredentialManagementRequest", %"class.base::OnceCallback.312" }
%"class.base::WeakPtrFactory.789" = type { %"class.base::internal::WeakPtrFactoryBase" }
%"class.base::WeakPtr.793" = type { %"class.base::internal::WeakPtrBase" }
%"struct.base::internal::BindState.816" = type { %"class.base::internal::BindStateBase", { i64, i64 }, %"class.std::__1::tuple.775" }
%"class.device::Ctap2DeviceOperation.821" = type { %"class.device::DeviceOperation.822", %"class.base::OnceCallback.330", i1 (%"class.std::__1::vector.257"*)*, %"class.base::WeakPtrFactory.823" }
%"class.device::DeviceOperation.822" = type { %"class.device::GenericDeviceOperation", %"class.absl::optional.11", %"class.device::FidoDevice"*, %"struct.device::CredentialManagementRequest", %"class.base::OnceCallback.329" }
%"class.base::WeakPtrFactory.823" = type { %"class.base::internal::WeakPtrFactoryBase" }
%"class.base::WeakPtr.827" = type { %"class.base::internal::WeakPtrBase" }
%"class.device::Ctap2DeviceOperation.848" = type { %"class.device::DeviceOperation.849", %"class.base::OnceCallback.260", i1 (%"class.std::__1::vector.257"*)*, %"class.base::WeakPtrFactory.850" }
%"class.device::DeviceOperation.849" = type { %"class.device::GenericDeviceOperation", %"class.absl::optional.11", %"class.device::FidoDevice"*, %"struct.device::CredentialManagementRequest", %"class.base::OnceCallback.259" }
%"class.base::WeakPtrFactory.850" = type { %"class.base::internal::WeakPtrFactoryBase" }
%"class.base::WeakPtr.854" = type { %"class.base::internal::WeakPtrBase" }
%"class.absl::optional.348" = type { %"class.absl::optional_internal::optional_data.426" }
%"class.absl::optional_internal::optional_data.426" = type { %"class.absl::optional_internal::optional_data_base.427" }
%"class.absl::optional_internal::optional_data_base.427" = type { %"class.absl::optional_internal::optional_data_dtor_base.428" }
%"class.absl::optional_internal::optional_data_dtor_base.428" = type { i8, %union.anon.429 }
%union.anon.429 = type { %"struct.device::BioEnrollmentResponse" }
%"struct.device::BioEnrollmentResponse" = type { %"class.absl::optional.337", %"class.absl::optional.430", %"class.absl::optional.252", %"class.absl::optional.145", %"class.absl::optional.435", %"class.absl::optional.252", %"class.absl::optional.440", %"class.absl::optional.11" }
%"class.absl::optional.430" = type { %"class.absl::optional_internal::optional_data.431" }
%"class.absl::optional_internal::optional_data.431" = type { %"class.absl::optional_internal::optional_data_base.432" }
%"class.absl::optional_internal::optional_data_base.432" = type { %"class.absl::optional_internal::optional_data_dtor_base.433" }
%"class.absl::optional_internal::optional_data_dtor_base.433" = type { i8, %union.anon.434 }
%union.anon.434 = type { i8 }
%"class.absl::optional.435" = type { %"class.absl::optional_internal::optional_data.436" }
%"class.absl::optional_internal::optional_data.436" = type { %"class.absl::optional_internal::optional_data_base.437" }
%"class.absl::optional_internal::optional_data_base.437" = type { %"class.absl::optional_internal::optional_data_dtor_base.438" }
%"class.absl::optional_internal::optional_data_dtor_base.438" = type { i8, %union.anon.439 }
%union.anon.439 = type { i8 }
%"class.absl::optional.440" = type { %"class.absl::optional_internal::optional_data.441" }
%"class.absl::optional_internal::optional_data.441" = type { %"class.absl::optional_internal::optional_data_base.442" }
%"class.absl::optional_internal::optional_data_base.442" = type { %"class.absl::optional_internal::optional_data_dtor_base.443" }
%"class.absl::optional_internal::optional_data_dtor_base.443" = type { i8, %union.anon.444 }
%union.anon.444 = type { %"class.std::__1::map" }
%"class.std::__1::map" = type { %"class.std::__1::__tree" }
%"class.std::__1::__tree" = type { %"class.std::__1::__tree_end_node"*, %"class.std::__1::__compressed_pair.445", %"class.std::__1::__compressed_pair.450" }
%"class.std::__1::__tree_end_node" = type { %"class.std::__1::__tree_node_base"* }
%"class.std::__1::__tree_node_base" = type <{ %"class.std::__1::__tree_end_node", %"class.std::__1::__tree_node_base"*, %"class.std::__1::__tree_end_node"*, i8, [7 x i8] }>
%"class.std::__1::__compressed_pair.445" = type { %"struct.std::__1::__compressed_pair_elem.446" }
%"struct.std::__1::__compressed_pair_elem.446" = type { %"class.std::__1::__tree_end_node" }
%"class.std::__1::__compressed_pair.450" = type { %"struct.std::__1::__compressed_pair_elem.451" }
%"struct.std::__1::__compressed_pair_elem.451" = type { i64 }
%"class.device::Ctap2DeviceOperation.864" = type { %"class.device::DeviceOperation.865", %"class.base::OnceCallback.347", i1 (%"class.std::__1::vector.257"*)*, %"class.base::WeakPtrFactory.866" }
%"class.device::DeviceOperation.865" = type { %"class.device::GenericDeviceOperation", %"class.absl::optional.11", %"class.device::FidoDevice"*, %"struct.device::BioEnrollmentRequest", %"class.base::OnceCallback.336" }
%"class.base::WeakPtrFactory.866" = type { %"class.base::internal::WeakPtrFactoryBase" }
%"class.base::WeakPtr.870" = type { %"class.base::internal::WeakPtrBase" }
%"class.std::__1::__tree_node" = type { %"class.std::__1::__tree_node_base.base", %"struct.std::__1::__value_type" }
%"class.std::__1::__tree_node_base.base" = type <{ %"class.std::__1::__tree_end_node", %"class.std::__1::__tree_node_base"*, %"class.std::__1::__tree_end_node"*, i8 }>
%"struct.std::__1::__value_type" = type { %"struct.std::__1::pair.876" }
%"struct.std::__1::pair.876" = type { %"class.std::__1::vector.116", %"class.std::__1::basic_string" }
%"class.device::Ctap2DeviceOperation.912" = type { %"class.device::DeviceOperation.913", %"class.base::OnceCallback.365", i1 (%"class.std::__1::vector.257"*)*, %"class.base::WeakPtrFactory.914" }
%"class.device::DeviceOperation.913" = type { %"class.device::GenericDeviceOperation", %"class.absl::optional.11", %"class.device::FidoDevice"*, %"class.device::LargeBlobsRequest", %"class.base::OnceCallback.364" }
%"class.base::WeakPtrFactory.914" = type { %"class.base::internal::WeakPtrFactoryBase" }
%"class.base::WeakPtr.918" = type { %"class.base::internal::WeakPtrBase" }
%"class.device::Ctap2DeviceOperation.958" = type { %"class.device::DeviceOperation.959", %"class.base::OnceCallback.260", i1 (%"class.std::__1::vector.257"*)*, %"class.base::WeakPtrFactory.960" }
%"class.device::DeviceOperation.959" = type { %"class.device::GenericDeviceOperation", %"class.absl::optional.11", %"class.device::FidoDevice"*, %"struct.device::pin::ResetRequest", %"class.base::OnceCallback.259" }
%"struct.device::pin::ResetRequest" = type { i8 }
%"class.base::WeakPtrFactory.960" = type { %"class.base::internal::WeakPtrFactoryBase" }
%"class.base::WeakPtr.964" = type { %"class.base::internal::WeakPtrBase" }
%"class.device::Ctap2DeviceOperation.973" = type { %"class.device::DeviceOperation.974", %"class.base::OnceCallback.269", i1 (%"class.std::__1::vector.257"*)*, %"class.base::WeakPtrFactory.975" }
%"class.device::DeviceOperation.974" = type { %"class.device::GenericDeviceOperation", %"class.absl::optional.11", %"class.device::FidoDevice"*, %"struct.device::pin::UvRetriesRequest", %"class.base::OnceCallback.268" }
%"struct.device::pin::UvRetriesRequest" = type { i8 }
%"class.base::WeakPtrFactory.975" = type { %"class.base::internal::WeakPtrFactoryBase" }
%"class.base::WeakPtr.979" = type { %"class.base::internal::WeakPtrBase" }
%"class.device::Ctap2DeviceOperation.994" = type { %"class.device::DeviceOperation.995", %"class.base::OnceCallback.280", i1 (%"class.std::__1::vector.257"*)*, %"class.base::WeakPtrFactory.996" }
%"class.device::DeviceOperation.995" = type { %"class.device::GenericDeviceOperation", %"class.absl::optional.11", %"class.device::FidoDevice"*, %"class.device::pin::UvTokenRequest", %"class.base::OnceCallback.279" }
%"class.base::WeakPtrFactory.996" = type { %"class.base::internal::WeakPtrFactoryBase" }
%"class.base::WeakPtr.1000" = type { %"class.base::internal::WeakPtrBase" }

$_ZN6device23FidoDeviceAuthenticator7RunTaskINS_18MakeCredentialTaskENS_35AuthenticatorMakeCredentialResponseEJNS_25CtapMakeCredentialRequestEEEEvDpOT1_N4base12OnceCallbackIFvNS_22CtapDeviceResponseCodeEN4absl8optionalIT0_EEEEE = comdat any

$_ZN6device23FidoDeviceAuthenticator7RunTaskINS_16GetAssertionTaskENS_33AuthenticatorGetAssertionResponseEJNS_23CtapGetAssertionRequestENS_23CtapGetAssertionOptionsEEEEvDpOT1_N4base12OnceCallbackIFvNS_22CtapDeviceResponseCodeEN4absl8optionalIT0_EEEEE = comdat any

$_ZN6device23FidoDeviceAuthenticator12RunOperationINS_27CtapGetNextAssertionRequestENS_33AuthenticatorGetAssertionResponseEEEvT_N4base12OnceCallbackIFvNS_22CtapDeviceResponseCodeEN4absl8optionalIT0_EEEEENS6_IFSB_RKNS9_IN4cbor5ValueEEEEEEPFbRKNSt3__16vectorIPKSF_NSL_9allocatorISO_EEEEE = comdat any

$_ZN6device23FidoDeviceAuthenticator12RunOperationINS_33CtapAuthenticatorSelectionRequestENS_3pin13EmptyResponseEEEvT_N4base12OnceCallbackIFvNS_22CtapDeviceResponseCodeEN4absl8optionalIT0_EEEEENS7_IFSC_RKNSA_IN4cbor5ValueEEEEEEPFbRKNSt3__16vectorIPKSG_NSM_9allocatorISP_EEEEE = comdat any

$_ZN6device23FidoDeviceAuthenticator12RunOperationINS_3pin17PinRetriesRequestENS2_15RetriesResponseEEEvT_N4base12OnceCallbackIFvNS_22CtapDeviceResponseCodeEN4absl8optionalIT0_EEEEENS7_IFSC_RKNSA_IN4cbor5ValueEEEEEEPFbRKNSt3__16vectorIPKSG_NSM_9allocatorISP_EEEEE = comdat any

$_ZN6device23FidoDeviceAuthenticator12RunOperationINS_3pin19KeyAgreementRequestENS2_20KeyAgreementResponseEEEvT_N4base12OnceCallbackIFvNS_22CtapDeviceResponseCodeEN4absl8optionalIT0_EEEEENS7_IFSC_RKNSA_IN4cbor5ValueEEEEEEPFbRKNSt3__16vectorIPKSG_NSM_9allocatorISP_EEEEE = comdat any

$_ZN6device23FidoDeviceAuthenticator12RunOperationINS_3pin30PinTokenWithPermissionsRequestENS2_13TokenResponseEEEvT_N4base12OnceCallbackIFvNS_22CtapDeviceResponseCodeEN4absl8optionalIT0_EEEEENS7_IFSC_RKNSA_IN4cbor5ValueEEEEEEPFbRKNSt3__16vectorIPKSG_NSM_9allocatorISP_EEEEE = comdat any

$_ZN6device23FidoDeviceAuthenticator12RunOperationINS_3pin15PinTokenRequestENS2_13TokenResponseEEEvT_N4base12OnceCallbackIFvNS_22CtapDeviceResponseCodeEN4absl8optionalIT0_EEEEENS7_IFSC_RKNSA_IN4cbor5ValueEEEEEEPFbRKNSt3__16vectorIPKSG_NSM_9allocatorISP_EEEEE = comdat any

$_ZN6device23FidoDeviceAuthenticator12RunOperationINS_3pin10SetRequestENS2_13EmptyResponseEEEvT_N4base12OnceCallbackIFvNS_22CtapDeviceResponseCodeEN4absl8optionalIT0_EEEEENS7_IFSC_RKNSA_IN4cbor5ValueEEEEEEPFbRKNSt3__16vectorIPKSG_NSM_9allocatorISP_EEEEE = comdat any

$_ZN6device23FidoDeviceAuthenticator12RunOperationINS_3pin13ChangeRequestENS2_13EmptyResponseEEEvT_N4base12OnceCallbackIFvNS_22CtapDeviceResponseCodeEN4absl8optionalIT0_EEEEENS7_IFSC_RKNSA_IN4cbor5ValueEEEEEEPFbRKNSt3__16vectorIPKSG_NSM_9allocatorISP_EEEEE = comdat any

$_ZN6device23FidoDeviceAuthenticator12RunOperationINS_27CredentialManagementRequestENS_27CredentialsMetadataResponseEEEvT_N4base12OnceCallbackIFvNS_22CtapDeviceResponseCodeEN4absl8optionalIT0_EEEEENS6_IFSB_RKNS9_IN4cbor5ValueEEEEEEPFbRKNSt3__16vectorIPKSF_NSL_9allocatorISO_EEEEE = comdat any

$_ZN6device23FidoDeviceAuthenticator12RunOperationINS_27CredentialManagementRequestENS_20EnumerateRPsResponseEEEvT_N4base12OnceCallbackIFvNS_22CtapDeviceResponseCodeEN4absl8optionalIT0_EEEEENS6_IFSB_RKNS9_IN4cbor5ValueEEEEEEPFbRKNSt3__16vectorIPKSF_NSL_9allocatorISO_EEEEE = comdat any

$_ZN6device23FidoDeviceAuthenticator12RunOperationINS_27CredentialManagementRequestENS_28EnumerateCredentialsResponseEEEvT_N4base12OnceCallbackIFvNS_22CtapDeviceResponseCodeEN4absl8optionalIT0_EEEEENS6_IFSB_RKNS9_IN4cbor5ValueEEEEEEPFbRKNSt3__16vectorIPKSF_NSL_9allocatorISO_EEEEE = comdat any

$_ZN6device23FidoDeviceAuthenticator12RunOperationINS_27CredentialManagementRequestENS_3pin13EmptyResponseEEEvT_N4base12OnceCallbackIFvNS_22CtapDeviceResponseCodeEN4absl8optionalIT0_EEEEENS7_IFSC_RKNSA_IN4cbor5ValueEEEEEEPFbRKNSt3__16vectorIPKSG_NSM_9allocatorISP_EEEEE = comdat any

$_ZN6device23FidoDeviceAuthenticator12RunOperationINS_20BioEnrollmentRequestENS_21BioEnrollmentResponseEEEvT_N4base12OnceCallbackIFvNS_22CtapDeviceResponseCodeEN4absl8optionalIT0_EEEEENS6_IFSB_RKNS9_IN4cbor5ValueEEEEEEPFbRKNSt3__16vectorIPKSF_NSL_9allocatorISO_EEEEE = comdat any

$_ZN6device23FidoDeviceAuthenticator12RunOperationINS_17LargeBlobsRequestENS_18LargeBlobsResponseEEEvT_N4base12OnceCallbackIFvNS_22CtapDeviceResponseCodeEN4absl8optionalIT0_EEEEENS6_IFSB_RKNS9_IN4cbor5ValueEEEEEEPFbRKNSt3__16vectorIPKSF_NSL_9allocatorISO_EEEEE = comdat any

$_ZN6device23FidoDeviceAuthenticator12RunOperationINS_3pin12ResetRequestENS2_13EmptyResponseEEEvT_N4base12OnceCallbackIFvNS_22CtapDeviceResponseCodeEN4absl8optionalIT0_EEEEENS7_IFSC_RKNSA_IN4cbor5ValueEEEEEEPFbRKNSt3__16vectorIPKSG_NSM_9allocatorISP_EEEEE = comdat any

$_ZN6device23FidoDeviceAuthenticator12RunOperationINS_3pin16UvRetriesRequestENS2_15RetriesResponseEEEvT_N4base12OnceCallbackIFvNS_22CtapDeviceResponseCodeEN4absl8optionalIT0_EEEEENS7_IFSC_RKNSA_IN4cbor5ValueEEEEEEPFbRKNSt3__16vectorIPKSG_NSM_9allocatorISP_EEEEE = comdat any

$_ZN6device23FidoDeviceAuthenticator12RunOperationINS_3pin14UvTokenRequestENS2_13TokenResponseEEEvT_N4base12OnceCallbackIFvNS_22CtapDeviceResponseCodeEN4absl8optionalIT0_EEEEENS7_IFSC_RKNSA_IN4cbor5ValueEEEEEEPFbRKNSt3__16vectorIPKSG_NSM_9allocatorISP_EEEEE = comdat any

$_ZN4base8internal7InvokerINS0_9BindStateIMN6device23FidoDeviceAuthenticatorEFvNS_12OnceCallbackIFvvEEEEJNS_7WeakPtrIS4_EES7_EEES6_E7RunOnceEPNS0_13BindStateBaseE = comdat any

$_ZN4base8internal7InvokerINS0_9BindStateIMN6device23FidoDeviceAuthenticatorEFvNS_12OnceCallbackIFvvEEEEJNS_7WeakPtrIS4_EES7_EEES6_E7RunImplIS9_NSt3__15tupleIJSB_S7_EEEJLm0ELm1EEEEvOT_OT0_NSF_16integer_sequenceImJXspT1_EEEE = comdat any

$_ZN4base8internal9BindStateIMN6device23FidoDeviceAuthenticatorEFvNS_12OnceCallbackIFvvEEEEJNS_7WeakPtrIS3_EES6_EE7DestroyEPKNS0_13BindStateBaseE = comdat any

$_ZN4base8internal23QueryCancellationTraitsINS0_9BindStateIMN6device23FidoDeviceAuthenticatorEFvNS_12OnceCallbackIFvvEEEEJNS_7WeakPtrIS4_EES7_EEEEEbPKNS0_13BindStateBaseENSD_21CancellationQueryModeE = comdat any

$_ZN4base8internal7InvokerINS0_9BindStateIMN6device10FidoDeviceEFvNS_12OnceCallbackIFvvEEEEJNS_7WeakPtrIS4_EES7_EEES6_E7RunOnceEPNS0_13BindStateBaseE = comdat any

$_ZN4base8internal7InvokerINS0_9BindStateIMN6device10FidoDeviceEFvNS_12OnceCallbackIFvvEEEEJNS_7WeakPtrIS4_EES7_EEES6_E7RunImplIS9_NSt3__15tupleIJSB_S7_EEEJLm0ELm1EEEEvOT_OT0_NSF_16integer_sequenceImJXspT1_EEEE = comdat any

$_ZN4base8internal9BindStateIMN6device10FidoDeviceEFvNS_12OnceCallbackIFvvEEEEJNS_7WeakPtrIS3_EES6_EE7DestroyEPKNS0_13BindStateBaseE = comdat any

$_ZN4base8internal23QueryCancellationTraitsINS0_9BindStateIMN6device10FidoDeviceEFvNS_12OnceCallbackIFvvEEEEJNS_7WeakPtrIS4_EES7_EEEEEbPKNS0_13BindStateBaseENSD_21CancellationQueryModeE = comdat any

$_ZN6device23FidoDeviceAuthenticator14TaskClearProxyIJNS_22CtapDeviceResponseCodeEN4absl8optionalINS_35AuthenticatorMakeCredentialResponseEEEEEEvN4base12OnceCallbackIFvDpT_EEESA_ = comdat any

$_ZN4base8internal7InvokerINS0_9BindStateIMN6device23FidoDeviceAuthenticatorEFvNS_12OnceCallbackIFvNS3_22CtapDeviceResponseCodeEN4absl8optionalINS3_35AuthenticatorMakeCredentialResponseEEEEEES6_SA_EJNS_7WeakPtrIS4_EESC_EEESB_E7RunOnceEPNS0_13BindStateBaseES6_OSA_ = comdat any

$_ZN4base8internal13FunctorTraitsIMN6device23FidoDeviceAuthenticatorEFvNS_12OnceCallbackIFvNS2_22CtapDeviceResponseCodeEN4absl8optionalINS2_35AuthenticatorMakeCredentialResponseEEEEEES5_S9_EvE6InvokeISD_NS_7WeakPtrIS3_EEJSB_S5_S9_EEEvT_OT0_DpOT1_ = comdat any

$_ZN4base8internal9BindStateIMN6device23FidoDeviceAuthenticatorEFvNS_12OnceCallbackIFvNS2_22CtapDeviceResponseCodeEN4absl8optionalINS2_35AuthenticatorMakeCredentialResponseEEEEEES5_S9_EJNS_7WeakPtrIS3_EESB_EE7DestroyEPKNS0_13BindStateBaseE = comdat any

$_ZN4base8internal23QueryCancellationTraitsINS0_9BindStateIMN6device23FidoDeviceAuthenticatorEFvNS_12OnceCallbackIFvNS3_22CtapDeviceResponseCodeEN4absl8optionalINS3_35AuthenticatorMakeCredentialResponseEEEEEES6_SA_EJNS_7WeakPtrIS4_EESC_EEEEEbPKNS0_13BindStateBaseENSI_21CancellationQueryModeE = comdat any

$_ZN4base8internal7InvokerINS0_9BindStateIMN6device23FidoDeviceAuthenticatorEFvNS3_23CtapGetAssertionRequestENS3_23CtapGetAssertionOptionsENS_12OnceCallbackIFvNS3_22CtapDeviceResponseCodeEN4absl8optionalINS3_33AuthenticatorGetAssertionResponseEEEEEES8_NSA_INS3_3pin20KeyAgreementResponseEEEEJNS_7WeakPtrIS4_EES5_S6_SE_EEEFvS8_SH_EE7RunOnceEPNS0_13BindStateBaseES8_OSH_ = comdat any

$_ZN4base8internal13FunctorTraitsIMN6device23FidoDeviceAuthenticatorEFvNS2_23CtapGetAssertionRequestENS2_23CtapGetAssertionOptionsENS_12OnceCallbackIFvNS2_22CtapDeviceResponseCodeEN4absl8optionalINS2_33AuthenticatorGetAssertionResponseEEEEEES7_NS9_INS2_3pin20KeyAgreementResponseEEEEvE6InvokeISI_NS_7WeakPtrIS3_EEJS4_S5_SD_S7_SG_EEEvT_OT0_DpOT1_ = comdat any

$_ZN4base8internal9BindStateIMN6device23FidoDeviceAuthenticatorEFvNS2_23CtapGetAssertionRequestENS2_23CtapGetAssertionOptionsENS_12OnceCallbackIFvNS2_22CtapDeviceResponseCodeEN4absl8optionalINS2_33AuthenticatorGetAssertionResponseEEEEEES7_NS9_INS2_3pin20KeyAgreementResponseEEEEJNS_7WeakPtrIS3_EES4_S5_SD_EE7DestroyEPKNS0_13BindStateBaseE = comdat any

$_ZN4base8internal23QueryCancellationTraitsINS0_9BindStateIMN6device23FidoDeviceAuthenticatorEFvNS3_23CtapGetAssertionRequestENS3_23CtapGetAssertionOptionsENS_12OnceCallbackIFvNS3_22CtapDeviceResponseCodeEN4absl8optionalINS3_33AuthenticatorGetAssertionResponseEEEEEES8_NSA_INS3_3pin20KeyAgreementResponseEEEEJNS_7WeakPtrIS4_EES5_S6_SE_EEEEEbPKNS0_13BindStateBaseENSN_21CancellationQueryModeE = comdat any

$_ZN6device23FidoDeviceAuthenticator14TaskClearProxyIJNS_22CtapDeviceResponseCodeEN4absl8optionalINS_33AuthenticatorGetAssertionResponseEEEEEEvN4base12OnceCallbackIFvDpT_EEESA_ = comdat any

$_ZN4base8internal7InvokerINS0_9BindStateIMN6device23FidoDeviceAuthenticatorEFvNS_12OnceCallbackIFvNS3_22CtapDeviceResponseCodeEN4absl8optionalINS3_33AuthenticatorGetAssertionResponseEEEEEES6_SA_EJNS_7WeakPtrIS4_EESC_EEESB_E7RunOnceEPNS0_13BindStateBaseES6_OSA_ = comdat any

$_ZN4base8internal13FunctorTraitsIMN6device23FidoDeviceAuthenticatorEFvNS_12OnceCallbackIFvNS2_22CtapDeviceResponseCodeEN4absl8optionalINS2_33AuthenticatorGetAssertionResponseEEEEEES5_S9_EvE6InvokeISD_NS_7WeakPtrIS3_EEJSB_S5_S9_EEEvT_OT0_DpOT1_ = comdat any

$_ZN4base8internal9BindStateIMN6device23FidoDeviceAuthenticatorEFvNS_12OnceCallbackIFvNS2_22CtapDeviceResponseCodeEN4absl8optionalINS2_33AuthenticatorGetAssertionResponseEEEEEES5_S9_EJNS_7WeakPtrIS3_EESB_EE7DestroyEPKNS0_13BindStateBaseE = comdat any

$_ZN4base8internal23QueryCancellationTraitsINS0_9BindStateIMN6device23FidoDeviceAuthenticatorEFvNS_12OnceCallbackIFvNS3_22CtapDeviceResponseCodeEN4absl8optionalINS3_33AuthenticatorGetAssertionResponseEEEEEES6_SA_EJNS_7WeakPtrIS4_EESC_EEEEEbPKNS0_13BindStateBaseENSI_21CancellationQueryModeE = comdat any

$_ZN4base8internal7InvokerINS0_9BindStateIPFN4absl8optionalIN6device33AuthenticatorGetAssertionResponseEEERKNS4_IN4cbor5ValueEEEEJEEESD_E7RunOnceEPNS0_13BindStateBaseESC_ = comdat any

$_ZN4base8internal9BindStateIPFN4absl8optionalIN6device33AuthenticatorGetAssertionResponseEEERKNS3_IN4cbor5ValueEEEEJEE7DestroyEPKNS0_13BindStateBaseE = comdat any

$_ZN6device23FidoDeviceAuthenticator19OperationClearProxyIJNS_22CtapDeviceResponseCodeEN4absl8optionalINS_33AuthenticatorGetAssertionResponseEEEEEEvN4base12OnceCallbackIFvDpT_EEESA_ = comdat any

$_ZN6device20Ctap2DeviceOperationINS_27CtapGetNextAssertionRequestENS_33AuthenticatorGetAssertionResponseEED2Ev = comdat any

$_ZN6device20Ctap2DeviceOperationINS_27CtapGetNextAssertionRequestENS_33AuthenticatorGetAssertionResponseEED0Ev = comdat any

$_ZN6device20Ctap2DeviceOperationINS_27CtapGetNextAssertionRequestENS_33AuthenticatorGetAssertionResponseEE5StartEv = comdat any

$_ZN6device20Ctap2DeviceOperationINS_27CtapGetNextAssertionRequestENS_33AuthenticatorGetAssertionResponseEE6CancelEv = comdat any

$_ZN6device15DeviceOperationINS_27CtapGetNextAssertionRequestENS_33AuthenticatorGetAssertionResponseEED2Ev = comdat any

$_ZN6device15DeviceOperationINS_27CtapGetNextAssertionRequestENS_33AuthenticatorGetAssertionResponseEED0Ev = comdat any

$_ZNSt3__16vectorIhNS_9allocatorIhEEE6insertENS_11__wrap_iterIPKhEEOh = comdat any

$_ZN6device20Ctap2DeviceOperationINS_27CtapGetNextAssertionRequestENS_33AuthenticatorGetAssertionResponseEE18OnResponseReceivedEN4absl8optionalINSt3__16vectorIhNS6_9allocatorIhEEEEEE = comdat any

$_ZNSt3__124__put_character_sequenceIcNS_11char_traitsIcEEEERNS_13basic_ostreamIT_T0_EES7_PKS4_m = comdat any

$_ZNSt3__116__pad_and_outputIcNS_11char_traitsIcEEEENS_19ostreambuf_iteratorIT_T0_EES6_PKS4_S8_S8_RNS_8ios_baseES4_ = comdat any

$_ZN4base8internal7InvokerINS0_9BindStateIMN6device20Ctap2DeviceOperationINS3_27CtapGetNextAssertionRequestENS3_33AuthenticatorGetAssertionResponseEEEFvN4absl8optionalINSt3__16vectorIhNSA_9allocatorIhEEEEEEEJNS_7WeakPtrIS7_EEEEEFvSF_EE7RunOnceEPNS0_13BindStateBaseEOSF_ = comdat any

$_ZN4base8internal13FunctorTraitsIMN6device20Ctap2DeviceOperationINS2_27CtapGetNextAssertionRequestENS2_33AuthenticatorGetAssertionResponseEEEFvN4absl8optionalINSt3__16vectorIhNS9_9allocatorIhEEEEEEEvE6InvokeISG_NS_7WeakPtrIS6_EEJSE_EEEvT_OT0_DpOT1_ = comdat any

$_ZN4base8internal9BindStateIMN6device20Ctap2DeviceOperationINS2_27CtapGetNextAssertionRequestENS2_33AuthenticatorGetAssertionResponseEEEFvN4absl8optionalINSt3__16vectorIhNS9_9allocatorIhEEEEEEEJNS_7WeakPtrIS6_EEEE7DestroyEPKNS0_13BindStateBaseE = comdat any

$_ZN4base8internal23QueryCancellationTraitsINS0_9BindStateIMN6device20Ctap2DeviceOperationINS3_27CtapGetNextAssertionRequestENS3_33AuthenticatorGetAssertionResponseEEEFvN4absl8optionalINSt3__16vectorIhNSA_9allocatorIhEEEEEEEJNS_7WeakPtrIS7_EEEEEEEbPKNS0_13BindStateBaseENSL_21CancellationQueryModeE = comdat any

$_ZN4base8internal7InvokerINS0_9BindStateIPFN4absl8optionalIN6device3pin13EmptyResponseEEERKNS4_IN4cbor5ValueEEEEJEEESE_E7RunOnceEPNS0_13BindStateBaseESD_ = comdat any

$_ZN4base8internal9BindStateIPFN4absl8optionalIN6device3pin13EmptyResponseEEERKNS3_IN4cbor5ValueEEEEJEE7DestroyEPKNS0_13BindStateBaseE = comdat any

$_ZN6device23FidoDeviceAuthenticator19OperationClearProxyIJNS_22CtapDeviceResponseCodeEN4absl8optionalINS_3pin13EmptyResponseEEEEEEvN4base12OnceCallbackIFvDpT_EEESB_ = comdat any

$_ZN6device20Ctap2DeviceOperationINS_33CtapAuthenticatorSelectionRequestENS_3pin13EmptyResponseEED2Ev = comdat any

$_ZN6device20Ctap2DeviceOperationINS_33CtapAuthenticatorSelectionRequestENS_3pin13EmptyResponseEED0Ev = comdat any

$_ZN6device20Ctap2DeviceOperationINS_33CtapAuthenticatorSelectionRequestENS_3pin13EmptyResponseEE5StartEv = comdat any

$_ZN6device20Ctap2DeviceOperationINS_33CtapAuthenticatorSelectionRequestENS_3pin13EmptyResponseEE6CancelEv = comdat any

$_ZN6device15DeviceOperationINS_33CtapAuthenticatorSelectionRequestENS_3pin13EmptyResponseEED2Ev = comdat any

$_ZN6device15DeviceOperationINS_33CtapAuthenticatorSelectionRequestENS_3pin13EmptyResponseEED0Ev = comdat any

$_ZN6device20Ctap2DeviceOperationINS_33CtapAuthenticatorSelectionRequestENS_3pin13EmptyResponseEE18OnResponseReceivedEN4absl8optionalINSt3__16vectorIhNS7_9allocatorIhEEEEEE = comdat any

$_ZN4base8internal7InvokerINS0_9BindStateIMN6device20Ctap2DeviceOperationINS3_33CtapAuthenticatorSelectionRequestENS3_3pin13EmptyResponseEEEFvN4absl8optionalINSt3__16vectorIhNSB_9allocatorIhEEEEEEEJNS_7WeakPtrIS8_EEEEEFvSG_EE7RunOnceEPNS0_13BindStateBaseEOSG_ = comdat any

$_ZN4base8internal13FunctorTraitsIMN6device20Ctap2DeviceOperationINS2_33CtapAuthenticatorSelectionRequestENS2_3pin13EmptyResponseEEEFvN4absl8optionalINSt3__16vectorIhNSA_9allocatorIhEEEEEEEvE6InvokeISH_NS_7WeakPtrIS7_EEJSF_EEEvT_OT0_DpOT1_ = comdat any

$_ZN4base8internal9BindStateIMN6device20Ctap2DeviceOperationINS2_33CtapAuthenticatorSelectionRequestENS2_3pin13EmptyResponseEEEFvN4absl8optionalINSt3__16vectorIhNSA_9allocatorIhEEEEEEEJNS_7WeakPtrIS7_EEEE7DestroyEPKNS0_13BindStateBaseE = comdat any

$_ZN4base8internal23QueryCancellationTraitsINS0_9BindStateIMN6device20Ctap2DeviceOperationINS3_33CtapAuthenticatorSelectionRequestENS3_3pin13EmptyResponseEEEFvN4absl8optionalINSt3__16vectorIhNSB_9allocatorIhEEEEEEEJNS_7WeakPtrIS8_EEEEEEEbPKNS0_13BindStateBaseENSM_21CancellationQueryModeE = comdat any

$_ZN4base8internal7InvokerINS0_9BindStateIMN6device23FidoDeviceAuthenticatorEFvNS_12OnceCallbackIFvNS3_22CtapDeviceResponseCodeEN4absl8optionalINS3_3pin13EmptyResponseEEEEEES6_SB_EJNS_7WeakPtrIS4_EESD_EEESC_E7RunOnceEPNS0_13BindStateBaseES6_OSB_ = comdat any

$_ZN4base8internal13FunctorTraitsIMN6device23FidoDeviceAuthenticatorEFvNS_12OnceCallbackIFvNS2_22CtapDeviceResponseCodeEN4absl8optionalINS2_3pin13EmptyResponseEEEEEES5_SA_EvE6InvokeISE_NS_7WeakPtrIS3_EEJSC_S5_SA_EEEvT_OT0_DpOT1_ = comdat any

$_ZN4base8internal9BindStateIMN6device23FidoDeviceAuthenticatorEFvNS_12OnceCallbackIFvNS2_22CtapDeviceResponseCodeEN4absl8optionalINS2_3pin13EmptyResponseEEEEEES5_SA_EJNS_7WeakPtrIS3_EESC_EE7DestroyEPKNS0_13BindStateBaseE = comdat any

$_ZN4base8internal23QueryCancellationTraitsINS0_9BindStateIMN6device23FidoDeviceAuthenticatorEFvNS_12OnceCallbackIFvNS3_22CtapDeviceResponseCodeEN4absl8optionalINS3_3pin13EmptyResponseEEEEEES6_SB_EJNS_7WeakPtrIS4_EESD_EEEEEbPKNS0_13BindStateBaseENSJ_21CancellationQueryModeE = comdat any

$_ZN4base8internal7InvokerINS0_9BindStateIPFN4absl8optionalIN6device3pin15RetriesResponseEEERKNS4_IN4cbor5ValueEEEEJEEESE_E7RunOnceEPNS0_13BindStateBaseESD_ = comdat any

$_ZN4base8internal9BindStateIPFN4absl8optionalIN6device3pin15RetriesResponseEEERKNS3_IN4cbor5ValueEEEEJEE7DestroyEPKNS0_13BindStateBaseE = comdat any

$_ZN6device23FidoDeviceAuthenticator19OperationClearProxyIJNS_22CtapDeviceResponseCodeEN4absl8optionalINS_3pin15RetriesResponseEEEEEEvN4base12OnceCallbackIFvDpT_EEESB_ = comdat any

$_ZN6device20Ctap2DeviceOperationINS_3pin17PinRetriesRequestENS1_15RetriesResponseEED2Ev = comdat any

$_ZN6device20Ctap2DeviceOperationINS_3pin17PinRetriesRequestENS1_15RetriesResponseEED0Ev = comdat any

$_ZN6device20Ctap2DeviceOperationINS_3pin17PinRetriesRequestENS1_15RetriesResponseEE5StartEv = comdat any

$_ZN6device20Ctap2DeviceOperationINS_3pin17PinRetriesRequestENS1_15RetriesResponseEE6CancelEv = comdat any

$_ZN6device15DeviceOperationINS_3pin17PinRetriesRequestENS1_15RetriesResponseEED2Ev = comdat any

$_ZN6device15DeviceOperationINS_3pin17PinRetriesRequestENS1_15RetriesResponseEED0Ev = comdat any

$_ZN6device20Ctap2DeviceOperationINS_3pin17PinRetriesRequestENS1_15RetriesResponseEE18OnResponseReceivedEN4absl8optionalINSt3__16vectorIhNS7_9allocatorIhEEEEEE = comdat any

$_ZN4base8internal7InvokerINS0_9BindStateIMN6device20Ctap2DeviceOperationINS3_3pin17PinRetriesRequestENS5_15RetriesResponseEEEFvN4absl8optionalINSt3__16vectorIhNSB_9allocatorIhEEEEEEEJNS_7WeakPtrIS8_EEEEEFvSG_EE7RunOnceEPNS0_13BindStateBaseEOSG_ = comdat any

$_ZN4base8internal13FunctorTraitsIMN6device20Ctap2DeviceOperationINS2_3pin17PinRetriesRequestENS4_15RetriesResponseEEEFvN4absl8optionalINSt3__16vectorIhNSA_9allocatorIhEEEEEEEvE6InvokeISH_NS_7WeakPtrIS7_EEJSF_EEEvT_OT0_DpOT1_ = comdat any

$_ZN4base8internal9BindStateIMN6device20Ctap2DeviceOperationINS2_3pin17PinRetriesRequestENS4_15RetriesResponseEEEFvN4absl8optionalINSt3__16vectorIhNSA_9allocatorIhEEEEEEEJNS_7WeakPtrIS7_EEEE7DestroyEPKNS0_13BindStateBaseE = comdat any

$_ZN4base8internal23QueryCancellationTraitsINS0_9BindStateIMN6device20Ctap2DeviceOperationINS3_3pin17PinRetriesRequestENS5_15RetriesResponseEEEFvN4absl8optionalINSt3__16vectorIhNSB_9allocatorIhEEEEEEEJNS_7WeakPtrIS8_EEEEEEEbPKNS0_13BindStateBaseENSM_21CancellationQueryModeE = comdat any

$_ZN4base8internal7InvokerINS0_9BindStateIMN6device23FidoDeviceAuthenticatorEFvNS_12OnceCallbackIFvNS3_22CtapDeviceResponseCodeEN4absl8optionalINS3_3pin15RetriesResponseEEEEEES6_SB_EJNS_7WeakPtrIS4_EESD_EEESC_E7RunOnceEPNS0_13BindStateBaseES6_OSB_ = comdat any

$_ZN4base8internal13FunctorTraitsIMN6device23FidoDeviceAuthenticatorEFvNS_12OnceCallbackIFvNS2_22CtapDeviceResponseCodeEN4absl8optionalINS2_3pin15RetriesResponseEEEEEES5_SA_EvE6InvokeISE_NS_7WeakPtrIS3_EEJSC_S5_SA_EEEvT_OT0_DpOT1_ = comdat any

$_ZN4base8internal9BindStateIMN6device23FidoDeviceAuthenticatorEFvNS_12OnceCallbackIFvNS2_22CtapDeviceResponseCodeEN4absl8optionalINS2_3pin15RetriesResponseEEEEEES5_SA_EJNS_7WeakPtrIS3_EESC_EE7DestroyEPKNS0_13BindStateBaseE = comdat any

$_ZN4base8internal23QueryCancellationTraitsINS0_9BindStateIMN6device23FidoDeviceAuthenticatorEFvNS_12OnceCallbackIFvNS3_22CtapDeviceResponseCodeEN4absl8optionalINS3_3pin15RetriesResponseEEEEEES6_SB_EJNS_7WeakPtrIS4_EESD_EEEEEbPKNS0_13BindStateBaseENSJ_21CancellationQueryModeE = comdat any

$_ZN4base8internal7InvokerINS0_9BindStateIPFN4absl8optionalIN6device3pin20KeyAgreementResponseEEERKNS4_IN4cbor5ValueEEEEJEEESE_E7RunOnceEPNS0_13BindStateBaseESD_ = comdat any

$_ZN4base8internal9BindStateIPFN4absl8optionalIN6device3pin20KeyAgreementResponseEEERKNS3_IN4cbor5ValueEEEEJEE7DestroyEPKNS0_13BindStateBaseE = comdat any

$_ZN6device23FidoDeviceAuthenticator19OperationClearProxyIJNS_22CtapDeviceResponseCodeEN4absl8optionalINS_3pin20KeyAgreementResponseEEEEEEvN4base12OnceCallbackIFvDpT_EEESB_ = comdat any

$_ZN6device20Ctap2DeviceOperationINS_3pin19KeyAgreementRequestENS1_20KeyAgreementResponseEED2Ev = comdat any

$_ZN6device20Ctap2DeviceOperationINS_3pin19KeyAgreementRequestENS1_20KeyAgreementResponseEED0Ev = comdat any

$_ZN6device20Ctap2DeviceOperationINS_3pin19KeyAgreementRequestENS1_20KeyAgreementResponseEE5StartEv = comdat any

$_ZN6device20Ctap2DeviceOperationINS_3pin19KeyAgreementRequestENS1_20KeyAgreementResponseEE6CancelEv = comdat any

$_ZN6device15DeviceOperationINS_3pin19KeyAgreementRequestENS1_20KeyAgreementResponseEED2Ev = comdat any

$_ZN6device15DeviceOperationINS_3pin19KeyAgreementRequestENS1_20KeyAgreementResponseEED0Ev = comdat any

$_ZN6device20Ctap2DeviceOperationINS_3pin19KeyAgreementRequestENS1_20KeyAgreementResponseEE18OnResponseReceivedEN4absl8optionalINSt3__16vectorIhNS7_9allocatorIhEEEEEE = comdat any

$_ZN4base8internal7InvokerINS0_9BindStateIMN6device20Ctap2DeviceOperationINS3_3pin19KeyAgreementRequestENS5_20KeyAgreementResponseEEEFvN4absl8optionalINSt3__16vectorIhNSB_9allocatorIhEEEEEEEJNS_7WeakPtrIS8_EEEEEFvSG_EE7RunOnceEPNS0_13BindStateBaseEOSG_ = comdat any

$_ZN4base8internal13FunctorTraitsIMN6device20Ctap2DeviceOperationINS2_3pin19KeyAgreementRequestENS4_20KeyAgreementResponseEEEFvN4absl8optionalINSt3__16vectorIhNSA_9allocatorIhEEEEEEEvE6InvokeISH_NS_7WeakPtrIS7_EEJSF_EEEvT_OT0_DpOT1_ = comdat any

$_ZN4base8internal9BindStateIMN6device20Ctap2DeviceOperationINS2_3pin19KeyAgreementRequestENS4_20KeyAgreementResponseEEEFvN4absl8optionalINSt3__16vectorIhNSA_9allocatorIhEEEEEEEJNS_7WeakPtrIS7_EEEE7DestroyEPKNS0_13BindStateBaseE = comdat any

$_ZN4base8internal23QueryCancellationTraitsINS0_9BindStateIMN6device20Ctap2DeviceOperationINS3_3pin19KeyAgreementRequestENS5_20KeyAgreementResponseEEEFvN4absl8optionalINSt3__16vectorIhNSB_9allocatorIhEEEEEEEJNS_7WeakPtrIS8_EEEEEEEbPKNS0_13BindStateBaseENSM_21CancellationQueryModeE = comdat any

$_ZN4base8internal7InvokerINS0_9BindStateIMN6device23FidoDeviceAuthenticatorEFvNS_12OnceCallbackIFvNS3_22CtapDeviceResponseCodeEN4absl8optionalINS3_3pin20KeyAgreementResponseEEEEEES6_SB_EJNS_7WeakPtrIS4_EESD_EEESC_E7RunOnceEPNS0_13BindStateBaseES6_OSB_ = comdat any

$_ZN4base8internal13FunctorTraitsIMN6device23FidoDeviceAuthenticatorEFvNS_12OnceCallbackIFvNS2_22CtapDeviceResponseCodeEN4absl8optionalINS2_3pin20KeyAgreementResponseEEEEEES5_SA_EvE6InvokeISE_NS_7WeakPtrIS3_EEJSC_S5_SA_EEEvT_OT0_DpOT1_ = comdat any

$_ZN4base8internal9BindStateIMN6device23FidoDeviceAuthenticatorEFvNS_12OnceCallbackIFvNS2_22CtapDeviceResponseCodeEN4absl8optionalINS2_3pin20KeyAgreementResponseEEEEEES5_SA_EJNS_7WeakPtrIS3_EESC_EE7DestroyEPKNS0_13BindStateBaseE = comdat any

$_ZN4base8internal23QueryCancellationTraitsINS0_9BindStateIMN6device23FidoDeviceAuthenticatorEFvNS_12OnceCallbackIFvNS3_22CtapDeviceResponseCodeEN4absl8optionalINS3_3pin20KeyAgreementResponseEEEEEES6_SB_EJNS_7WeakPtrIS4_EESD_EEEEEbPKNS0_13BindStateBaseENSJ_21CancellationQueryModeE = comdat any

$_ZN4base8internal7InvokerINS0_9BindStateIMN6device23FidoDeviceAuthenticatorEFvNSt3__112basic_stringIcNS5_11char_traitsIcEENS5_9allocatorIcEEEENS5_6vectorINS3_3pin11PermissionsENS9_ISE_EEEEN4absl8optionalISB_EENS_12OnceCallbackIFvNS3_22CtapDeviceResponseCodeENSI_INSD_13TokenResponseEEEEEESL_NSI_INSD_20KeyAgreementResponseEEEEJNS_7WeakPtrIS4_EESB_SG_SJ_SP_EEEFvSL_SR_EE7RunOnceEPNS0_13BindStateBaseESL_OSR_ = comdat any

$_ZN4base8internal13FunctorTraitsIMN6device23FidoDeviceAuthenticatorEFvNSt3__112basic_stringIcNS4_11char_traitsIcEENS4_9allocatorIcEEEENS4_6vectorINS2_3pin11PermissionsENS8_ISD_EEEEN4absl8optionalISA_EENS_12OnceCallbackIFvNS2_22CtapDeviceResponseCodeENSH_INSC_13TokenResponseEEEEEESK_NSH_INSC_20KeyAgreementResponseEEEEvE6InvokeISS_NS_7WeakPtrIS3_EEJSA_SF_SI_SO_SK_SQ_EEEvT_OT0_DpOT1_ = comdat any

$_ZN4base8internal9BindStateIMN6device23FidoDeviceAuthenticatorEFvNSt3__112basic_stringIcNS4_11char_traitsIcEENS4_9allocatorIcEEEENS4_6vectorINS2_3pin11PermissionsENS8_ISD_EEEEN4absl8optionalISA_EENS_12OnceCallbackIFvNS2_22CtapDeviceResponseCodeENSH_INSC_13TokenResponseEEEEEESK_NSH_INSC_20KeyAgreementResponseEEEEJNS_7WeakPtrIS3_EESA_SF_SI_SO_EE7DestroyEPKNS0_13BindStateBaseE = comdat any

$_ZN4base8internal23QueryCancellationTraitsINS0_9BindStateIMN6device23FidoDeviceAuthenticatorEFvNSt3__112basic_stringIcNS5_11char_traitsIcEENS5_9allocatorIcEEEENS5_6vectorINS3_3pin11PermissionsENS9_ISE_EEEEN4absl8optionalISB_EENS_12OnceCallbackIFvNS3_22CtapDeviceResponseCodeENSI_INSD_13TokenResponseEEEEEESL_NSI_INSD_20KeyAgreementResponseEEEEJNS_7WeakPtrIS4_EESB_SG_SJ_SP_EEEEEbPKNS0_13BindStateBaseENSX_21CancellationQueryModeE = comdat any

$_ZN4base8internal7InvokerINS0_9BindStateIPFN4absl8optionalIN6device3pin13TokenResponseEEENS5_17PINUVAuthProtocolENS_4spanIKhLm18446744073709551615EEERKNS4_IN4cbor5ValueEEEEJS9_NSt3__16vectorIhNSK_9allocatorIhEEEEEEEFS8_SH_EE7RunOnceEPNS0_13BindStateBaseESH_ = comdat any

$_ZN4base8internal9BindStateIPFN4absl8optionalIN6device3pin13TokenResponseEEENS4_17PINUVAuthProtocolENS_4spanIKhLm18446744073709551615EEERKNS3_IN4cbor5ValueEEEEJS8_NSt3__16vectorIhNSJ_9allocatorIhEEEEEE7DestroyEPKNS0_13BindStateBaseE = comdat any

$_ZN6device23FidoDeviceAuthenticator19OperationClearProxyIJNS_22CtapDeviceResponseCodeEN4absl8optionalINS_3pin13TokenResponseEEEEEEvN4base12OnceCallbackIFvDpT_EEESB_ = comdat any

$_ZN6device20Ctap2DeviceOperationINS_3pin30PinTokenWithPermissionsRequestENS1_13TokenResponseEED2Ev = comdat any

$_ZN6device20Ctap2DeviceOperationINS_3pin30PinTokenWithPermissionsRequestENS1_13TokenResponseEED0Ev = comdat any

$_ZN6device20Ctap2DeviceOperationINS_3pin30PinTokenWithPermissionsRequestENS1_13TokenResponseEE5StartEv = comdat any

$_ZN6device20Ctap2DeviceOperationINS_3pin30PinTokenWithPermissionsRequestENS1_13TokenResponseEE6CancelEv = comdat any

$_ZN6device15DeviceOperationINS_3pin30PinTokenWithPermissionsRequestENS1_13TokenResponseEED2Ev = comdat any

$_ZN6device15DeviceOperationINS_3pin30PinTokenWithPermissionsRequestENS1_13TokenResponseEED0Ev = comdat any

$_ZN6device20Ctap2DeviceOperationINS_3pin30PinTokenWithPermissionsRequestENS1_13TokenResponseEE18OnResponseReceivedEN4absl8optionalINSt3__16vectorIhNS7_9allocatorIhEEEEEE = comdat any

$_ZN4base8internal7InvokerINS0_9BindStateIMN6device20Ctap2DeviceOperationINS3_3pin30PinTokenWithPermissionsRequestENS5_13TokenResponseEEEFvN4absl8optionalINSt3__16vectorIhNSB_9allocatorIhEEEEEEEJNS_7WeakPtrIS8_EEEEEFvSG_EE7RunOnceEPNS0_13BindStateBaseEOSG_ = comdat any

$_ZN4base8internal13FunctorTraitsIMN6device20Ctap2DeviceOperationINS2_3pin30PinTokenWithPermissionsRequestENS4_13TokenResponseEEEFvN4absl8optionalINSt3__16vectorIhNSA_9allocatorIhEEEEEEEvE6InvokeISH_NS_7WeakPtrIS7_EEJSF_EEEvT_OT0_DpOT1_ = comdat any

$_ZN4base8internal9BindStateIMN6device20Ctap2DeviceOperationINS2_3pin30PinTokenWithPermissionsRequestENS4_13TokenResponseEEEFvN4absl8optionalINSt3__16vectorIhNSA_9allocatorIhEEEEEEEJNS_7WeakPtrIS7_EEEE7DestroyEPKNS0_13BindStateBaseE = comdat any

$_ZN4base8internal23QueryCancellationTraitsINS0_9BindStateIMN6device20Ctap2DeviceOperationINS3_3pin30PinTokenWithPermissionsRequestENS5_13TokenResponseEEEFvN4absl8optionalINSt3__16vectorIhNSB_9allocatorIhEEEEEEEJNS_7WeakPtrIS8_EEEEEEEbPKNS0_13BindStateBaseENSM_21CancellationQueryModeE = comdat any

$_ZN4base8internal7InvokerINS0_9BindStateIMN6device23FidoDeviceAuthenticatorEFvNS_12OnceCallbackIFvNS3_22CtapDeviceResponseCodeEN4absl8optionalINS3_3pin13TokenResponseEEEEEES6_SB_EJNS_7WeakPtrIS4_EESD_EEESC_E7RunOnceEPNS0_13BindStateBaseES6_OSB_ = comdat any

$_ZN4base8internal13FunctorTraitsIMN6device23FidoDeviceAuthenticatorEFvNS_12OnceCallbackIFvNS2_22CtapDeviceResponseCodeEN4absl8optionalINS2_3pin13TokenResponseEEEEEES5_SA_EvE6InvokeISE_NS_7WeakPtrIS3_EEJSC_S5_SA_EEEvT_OT0_DpOT1_ = comdat any

$_ZN4base8internal9BindStateIMN6device23FidoDeviceAuthenticatorEFvNS_12OnceCallbackIFvNS2_22CtapDeviceResponseCodeEN4absl8optionalINS2_3pin13TokenResponseEEEEEES5_SA_EJNS_7WeakPtrIS3_EESC_EE7DestroyEPKNS0_13BindStateBaseE = comdat any

$_ZN4base8internal23QueryCancellationTraitsINS0_9BindStateIMN6device23FidoDeviceAuthenticatorEFvNS_12OnceCallbackIFvNS3_22CtapDeviceResponseCodeEN4absl8optionalINS3_3pin13TokenResponseEEEEEES6_SB_EJNS_7WeakPtrIS4_EESD_EEEEEbPKNS0_13BindStateBaseENSJ_21CancellationQueryModeE = comdat any

$_ZN6device20Ctap2DeviceOperationINS_3pin15PinTokenRequestENS1_13TokenResponseEED2Ev = comdat any

$_ZN6device20Ctap2DeviceOperationINS_3pin15PinTokenRequestENS1_13TokenResponseEED0Ev = comdat any

$_ZN6device20Ctap2DeviceOperationINS_3pin15PinTokenRequestENS1_13TokenResponseEE5StartEv = comdat any

$_ZN6device20Ctap2DeviceOperationINS_3pin15PinTokenRequestENS1_13TokenResponseEE6CancelEv = comdat any

$_ZN6device15DeviceOperationINS_3pin15PinTokenRequestENS1_13TokenResponseEED2Ev = comdat any

$_ZN6device15DeviceOperationINS_3pin15PinTokenRequestENS1_13TokenResponseEED0Ev = comdat any

$_ZN6device20Ctap2DeviceOperationINS_3pin15PinTokenRequestENS1_13TokenResponseEE18OnResponseReceivedEN4absl8optionalINSt3__16vectorIhNS7_9allocatorIhEEEEEE = comdat any

$_ZN4base8internal7InvokerINS0_9BindStateIMN6device20Ctap2DeviceOperationINS3_3pin15PinTokenRequestENS5_13TokenResponseEEEFvN4absl8optionalINSt3__16vectorIhNSB_9allocatorIhEEEEEEEJNS_7WeakPtrIS8_EEEEEFvSG_EE7RunOnceEPNS0_13BindStateBaseEOSG_ = comdat any

$_ZN4base8internal13FunctorTraitsIMN6device20Ctap2DeviceOperationINS2_3pin15PinTokenRequestENS4_13TokenResponseEEEFvN4absl8optionalINSt3__16vectorIhNSA_9allocatorIhEEEEEEEvE6InvokeISH_NS_7WeakPtrIS7_EEJSF_EEEvT_OT0_DpOT1_ = comdat any

$_ZN4base8internal9BindStateIMN6device20Ctap2DeviceOperationINS2_3pin15PinTokenRequestENS4_13TokenResponseEEEFvN4absl8optionalINSt3__16vectorIhNSA_9allocatorIhEEEEEEEJNS_7WeakPtrIS7_EEEE7DestroyEPKNS0_13BindStateBaseE = comdat any

$_ZN4base8internal23QueryCancellationTraitsINS0_9BindStateIMN6device20Ctap2DeviceOperationINS3_3pin15PinTokenRequestENS5_13TokenResponseEEEFvN4absl8optionalINSt3__16vectorIhNSB_9allocatorIhEEEEEEEJNS_7WeakPtrIS8_EEEEEEEbPKNS0_13BindStateBaseENSM_21CancellationQueryModeE = comdat any

$_ZN4base8internal7InvokerINS0_9BindStateIMN6device23FidoDeviceAuthenticatorEFvNSt3__112basic_stringIcNS5_11char_traitsIcEENS5_9allocatorIcEEEENS_12OnceCallbackIFvNS3_22CtapDeviceResponseCodeEN4absl8optionalINS3_3pin13EmptyResponseEEEEEESD_NSF_INSG_20KeyAgreementResponseEEEEJNS_7WeakPtrIS4_EESB_SK_EEEFvSD_SM_EE7RunOnceEPNS0_13BindStateBaseESD_OSM_ = comdat any

$_ZN4base8internal13FunctorTraitsIMN6device23FidoDeviceAuthenticatorEFvNSt3__112basic_stringIcNS4_11char_traitsIcEENS4_9allocatorIcEEEENS_12OnceCallbackIFvNS2_22CtapDeviceResponseCodeEN4absl8optionalINS2_3pin13EmptyResponseEEEEEESC_NSE_INSF_20KeyAgreementResponseEEEEvE6InvokeISN_NS_7WeakPtrIS3_EEJSA_SJ_SC_SL_EEEvT_OT0_DpOT1_ = comdat any

$_ZN4base8internal9BindStateIMN6device23FidoDeviceAuthenticatorEFvNSt3__112basic_stringIcNS4_11char_traitsIcEENS4_9allocatorIcEEEENS_12OnceCallbackIFvNS2_22CtapDeviceResponseCodeEN4absl8optionalINS2_3pin13EmptyResponseEEEEEESC_NSE_INSF_20KeyAgreementResponseEEEEJNS_7WeakPtrIS3_EESA_SJ_EE7DestroyEPKNS0_13BindStateBaseE = comdat any

$_ZN4base8internal23QueryCancellationTraitsINS0_9BindStateIMN6device23FidoDeviceAuthenticatorEFvNSt3__112basic_stringIcNS5_11char_traitsIcEENS5_9allocatorIcEEEENS_12OnceCallbackIFvNS3_22CtapDeviceResponseCodeEN4absl8optionalINS3_3pin13EmptyResponseEEEEEESD_NSF_INSG_20KeyAgreementResponseEEEEJNS_7WeakPtrIS4_EESB_SK_EEEEEbPKNS0_13BindStateBaseENSS_21CancellationQueryModeE = comdat any

$_ZN6device20Ctap2DeviceOperationINS_3pin10SetRequestENS1_13EmptyResponseEED2Ev = comdat any

$_ZN6device20Ctap2DeviceOperationINS_3pin10SetRequestENS1_13EmptyResponseEED0Ev = comdat any

$_ZN6device20Ctap2DeviceOperationINS_3pin10SetRequestENS1_13EmptyResponseEE5StartEv = comdat any

$_ZN6device20Ctap2DeviceOperationINS_3pin10SetRequestENS1_13EmptyResponseEE6CancelEv = comdat any

$_ZN6device15DeviceOperationINS_3pin10SetRequestENS1_13EmptyResponseEED2Ev = comdat any

$_ZN6device15DeviceOperationINS_3pin10SetRequestENS1_13EmptyResponseEED0Ev = comdat any

$_ZN6device20Ctap2DeviceOperationINS_3pin10SetRequestENS1_13EmptyResponseEE18OnResponseReceivedEN4absl8optionalINSt3__16vectorIhNS7_9allocatorIhEEEEEE = comdat any

$_ZN4base8internal7InvokerINS0_9BindStateIMN6device20Ctap2DeviceOperationINS3_3pin10SetRequestENS5_13EmptyResponseEEEFvN4absl8optionalINSt3__16vectorIhNSB_9allocatorIhEEEEEEEJNS_7WeakPtrIS8_EEEEEFvSG_EE7RunOnceEPNS0_13BindStateBaseEOSG_ = comdat any

$_ZN4base8internal13FunctorTraitsIMN6device20Ctap2DeviceOperationINS2_3pin10SetRequestENS4_13EmptyResponseEEEFvN4absl8optionalINSt3__16vectorIhNSA_9allocatorIhEEEEEEEvE6InvokeISH_NS_7WeakPtrIS7_EEJSF_EEEvT_OT0_DpOT1_ = comdat any

$_ZN4base8internal9BindStateIMN6device20Ctap2DeviceOperationINS2_3pin10SetRequestENS4_13EmptyResponseEEEFvN4absl8optionalINSt3__16vectorIhNSA_9allocatorIhEEEEEEEJNS_7WeakPtrIS7_EEEE7DestroyEPKNS0_13BindStateBaseE = comdat any

$_ZN4base8internal23QueryCancellationTraitsINS0_9BindStateIMN6device20Ctap2DeviceOperationINS3_3pin10SetRequestENS5_13EmptyResponseEEEFvN4absl8optionalINSt3__16vectorIhNSB_9allocatorIhEEEEEEEJNS_7WeakPtrIS8_EEEEEEEbPKNS0_13BindStateBaseENSM_21CancellationQueryModeE = comdat any

$_ZN4base8internal9BindStateIMN6device23FidoDeviceAuthenticatorEFvNSt3__112basic_stringIcNS4_11char_traitsIcEENS4_9allocatorIcEEEESA_NS_12OnceCallbackIFvNS2_22CtapDeviceResponseCodeEN4absl8optionalINS2_3pin13EmptyResponseEEEEEESC_NSE_INSF_20KeyAgreementResponseEEEEJNS_7WeakPtrIS3_EESA_SA_SJ_EE6CreateISN_JSP_KSA_SS_SJ_EEEPSQ_PFvvEOT_DpOT0_ = comdat any

$_ZN4base8internal7InvokerINS0_9BindStateIMN6device23FidoDeviceAuthenticatorEFvNSt3__112basic_stringIcNS5_11char_traitsIcEENS5_9allocatorIcEEEESB_NS_12OnceCallbackIFvNS3_22CtapDeviceResponseCodeEN4absl8optionalINS3_3pin13EmptyResponseEEEEEESD_NSF_INSG_20KeyAgreementResponseEEEEJNS_7WeakPtrIS4_EESB_SB_SK_EEEFvSD_SM_EE7RunOnceEPNS0_13BindStateBaseESD_OSM_ = comdat any

$_ZN4base8internal13FunctorTraitsIMN6device23FidoDeviceAuthenticatorEFvNSt3__112basic_stringIcNS4_11char_traitsIcEENS4_9allocatorIcEEEESA_NS_12OnceCallbackIFvNS2_22CtapDeviceResponseCodeEN4absl8optionalINS2_3pin13EmptyResponseEEEEEESC_NSE_INSF_20KeyAgreementResponseEEEEvE6InvokeISN_NS_7WeakPtrIS3_EEJSA_SA_SJ_SC_SL_EEEvT_OT0_DpOT1_ = comdat any

$_ZN4base8internal9BindStateIMN6device23FidoDeviceAuthenticatorEFvNSt3__112basic_stringIcNS4_11char_traitsIcEENS4_9allocatorIcEEEESA_NS_12OnceCallbackIFvNS2_22CtapDeviceResponseCodeEN4absl8optionalINS2_3pin13EmptyResponseEEEEEESC_NSE_INSF_20KeyAgreementResponseEEEEJNS_7WeakPtrIS3_EESA_SA_SJ_EE7DestroyEPKNS0_13BindStateBaseE = comdat any

$_ZN4base8internal23QueryCancellationTraitsINS0_9BindStateIMN6device23FidoDeviceAuthenticatorEFvNSt3__112basic_stringIcNS5_11char_traitsIcEENS5_9allocatorIcEEEESB_NS_12OnceCallbackIFvNS3_22CtapDeviceResponseCodeEN4absl8optionalINS3_3pin13EmptyResponseEEEEEESD_NSF_INSG_20KeyAgreementResponseEEEEJNS_7WeakPtrIS4_EESB_SB_SK_EEEEEbPKNS0_13BindStateBaseENSS_21CancellationQueryModeE = comdat any

$_ZN6device20Ctap2DeviceOperationINS_3pin13ChangeRequestENS1_13EmptyResponseEED2Ev = comdat any

$_ZN6device20Ctap2DeviceOperationINS_3pin13ChangeRequestENS1_13EmptyResponseEED0Ev = comdat any

$_ZN6device20Ctap2DeviceOperationINS_3pin13ChangeRequestENS1_13EmptyResponseEE5StartEv = comdat any

$_ZN6device20Ctap2DeviceOperationINS_3pin13ChangeRequestENS1_13EmptyResponseEE6CancelEv = comdat any

$_ZN6device15DeviceOperationINS_3pin13ChangeRequestENS1_13EmptyResponseEED2Ev = comdat any

$_ZN6device15DeviceOperationINS_3pin13ChangeRequestENS1_13EmptyResponseEED0Ev = comdat any

$_ZN6device20Ctap2DeviceOperationINS_3pin13ChangeRequestENS1_13EmptyResponseEE18OnResponseReceivedEN4absl8optionalINSt3__16vectorIhNS7_9allocatorIhEEEEEE = comdat any

$_ZN4base8internal7InvokerINS0_9BindStateIMN6device20Ctap2DeviceOperationINS3_3pin13ChangeRequestENS5_13EmptyResponseEEEFvN4absl8optionalINSt3__16vectorIhNSB_9allocatorIhEEEEEEEJNS_7WeakPtrIS8_EEEEEFvSG_EE7RunOnceEPNS0_13BindStateBaseEOSG_ = comdat any

$_ZN4base8internal13FunctorTraitsIMN6device20Ctap2DeviceOperationINS2_3pin13ChangeRequestENS4_13EmptyResponseEEEFvN4absl8optionalINSt3__16vectorIhNSA_9allocatorIhEEEEEEEvE6InvokeISH_NS_7WeakPtrIS7_EEJSF_EEEvT_OT0_DpOT1_ = comdat any

$_ZN4base8internal9BindStateIMN6device20Ctap2DeviceOperationINS2_3pin13ChangeRequestENS4_13EmptyResponseEEEFvN4absl8optionalINSt3__16vectorIhNSA_9allocatorIhEEEEEEEJNS_7WeakPtrIS7_EEEE7DestroyEPKNS0_13BindStateBaseE = comdat any

$_ZN4base8internal23QueryCancellationTraitsINS0_9BindStateIMN6device20Ctap2DeviceOperationINS3_3pin13ChangeRequestENS5_13EmptyResponseEEEFvN4absl8optionalINSt3__16vectorIhNSB_9allocatorIhEEEEEEEJNS_7WeakPtrIS8_EEEEEEEbPKNS0_13BindStateBaseENSM_21CancellationQueryModeE = comdat any

$_ZN4base8internal7InvokerINS0_9BindStateIPFN4absl8optionalIN6device27CredentialsMetadataResponseEEERKNS4_IN4cbor5ValueEEEEJEEESD_E7RunOnceEPNS0_13BindStateBaseESC_ = comdat any

$_ZN4base8internal9BindStateIPFN4absl8optionalIN6device27CredentialsMetadataResponseEEERKNS3_IN4cbor5ValueEEEEJEE7DestroyEPKNS0_13BindStateBaseE = comdat any

$_ZN6device23FidoDeviceAuthenticator19OperationClearProxyIJNS_22CtapDeviceResponseCodeEN4absl8optionalINS_27CredentialsMetadataResponseEEEEEEvN4base12OnceCallbackIFvDpT_EEESA_ = comdat any

$_ZN6device20Ctap2DeviceOperationINS_27CredentialManagementRequestENS_27CredentialsMetadataResponseEED2Ev = comdat any

$_ZN6device20Ctap2DeviceOperationINS_27CredentialManagementRequestENS_27CredentialsMetadataResponseEED0Ev = comdat any

$_ZN6device20Ctap2DeviceOperationINS_27CredentialManagementRequestENS_27CredentialsMetadataResponseEE5StartEv = comdat any

$_ZN6device20Ctap2DeviceOperationINS_27CredentialManagementRequestENS_27CredentialsMetadataResponseEE6CancelEv = comdat any

$_ZN6device15DeviceOperationINS_27CredentialManagementRequestENS_27CredentialsMetadataResponseEED2Ev = comdat any

$_ZN6device15DeviceOperationINS_27CredentialManagementRequestENS_27CredentialsMetadataResponseEED0Ev = comdat any

$_ZN6device20Ctap2DeviceOperationINS_27CredentialManagementRequestENS_27CredentialsMetadataResponseEE18OnResponseReceivedEN4absl8optionalINSt3__16vectorIhNS6_9allocatorIhEEEEEE = comdat any

$_ZN4base8internal7InvokerINS0_9BindStateIMN6device20Ctap2DeviceOperationINS3_27CredentialManagementRequestENS3_27CredentialsMetadataResponseEEEFvN4absl8optionalINSt3__16vectorIhNSA_9allocatorIhEEEEEEEJNS_7WeakPtrIS7_EEEEEFvSF_EE7RunOnceEPNS0_13BindStateBaseEOSF_ = comdat any

$_ZN4base8internal13FunctorTraitsIMN6device20Ctap2DeviceOperationINS2_27CredentialManagementRequestENS2_27CredentialsMetadataResponseEEEFvN4absl8optionalINSt3__16vectorIhNS9_9allocatorIhEEEEEEEvE6InvokeISG_NS_7WeakPtrIS6_EEJSE_EEEvT_OT0_DpOT1_ = comdat any

$_ZN4base8internal9BindStateIMN6device20Ctap2DeviceOperationINS2_27CredentialManagementRequestENS2_27CredentialsMetadataResponseEEEFvN4absl8optionalINSt3__16vectorIhNS9_9allocatorIhEEEEEEEJNS_7WeakPtrIS6_EEEE7DestroyEPKNS0_13BindStateBaseE = comdat any

$_ZN4base8internal23QueryCancellationTraitsINS0_9BindStateIMN6device20Ctap2DeviceOperationINS3_27CredentialManagementRequestENS3_27CredentialsMetadataResponseEEEFvN4absl8optionalINSt3__16vectorIhNSA_9allocatorIhEEEEEEEJNS_7WeakPtrIS7_EEEEEEEbPKNS0_13BindStateBaseENSL_21CancellationQueryModeE = comdat any

$_ZN4base8internal7InvokerINS0_9BindStateIMN6device23FidoDeviceAuthenticatorEFvNS_12OnceCallbackIFvNS3_22CtapDeviceResponseCodeEN4absl8optionalINS3_27CredentialsMetadataResponseEEEEEES6_SA_EJNS_7WeakPtrIS4_EESC_EEESB_E7RunOnceEPNS0_13BindStateBaseES6_OSA_ = comdat any

$_ZN4base8internal13FunctorTraitsIMN6device23FidoDeviceAuthenticatorEFvNS_12OnceCallbackIFvNS2_22CtapDeviceResponseCodeEN4absl8optionalINS2_27CredentialsMetadataResponseEEEEEES5_S9_EvE6InvokeISD_NS_7WeakPtrIS3_EEJSB_S5_S9_EEEvT_OT0_DpOT1_ = comdat any

$_ZN4base8internal9BindStateIMN6device23FidoDeviceAuthenticatorEFvNS_12OnceCallbackIFvNS2_22CtapDeviceResponseCodeEN4absl8optionalINS2_27CredentialsMetadataResponseEEEEEES5_S9_EJNS_7WeakPtrIS3_EESB_EE7DestroyEPKNS0_13BindStateBaseE = comdat any

$_ZN4base8internal23QueryCancellationTraitsINS0_9BindStateIMN6device23FidoDeviceAuthenticatorEFvNS_12OnceCallbackIFvNS3_22CtapDeviceResponseCodeEN4absl8optionalINS3_27CredentialsMetadataResponseEEEEEES6_SA_EJNS_7WeakPtrIS4_EESC_EEEEEbPKNS0_13BindStateBaseENSI_21CancellationQueryModeE = comdat any

$_ZN4base8internal7InvokerINS0_9BindStateIMN6device23FidoDeviceAuthenticatorEFvNS4_25EnumerateCredentialsStateENS3_22CtapDeviceResponseCodeEN4absl8optionalINS3_20EnumerateRPsResponseEEEEJNS_7WeakPtrIS4_EES5_EEEFvS6_SA_EE7RunOnceEPNS0_13BindStateBaseES6_OSA_ = comdat any

$_ZN4base8internal13FunctorTraitsIMN6device23FidoDeviceAuthenticatorEFvNS3_25EnumerateCredentialsStateENS2_22CtapDeviceResponseCodeEN4absl8optionalINS2_20EnumerateRPsResponseEEEEvE6InvokeISB_NS_7WeakPtrIS3_EEJS4_S5_S9_EEEvT_OT0_DpOT1_ = comdat any

$_ZN4base8internal9BindStateIMN6device23FidoDeviceAuthenticatorEFvNS3_25EnumerateCredentialsStateENS2_22CtapDeviceResponseCodeEN4absl8optionalINS2_20EnumerateRPsResponseEEEEJNS_7WeakPtrIS3_EES4_EE7DestroyEPKNS0_13BindStateBaseE = comdat any

$_ZN4base8internal23QueryCancellationTraitsINS0_9BindStateIMN6device23FidoDeviceAuthenticatorEFvNS4_25EnumerateCredentialsStateENS3_22CtapDeviceResponseCodeEN4absl8optionalINS3_20EnumerateRPsResponseEEEEJNS_7WeakPtrIS4_EES5_EEEEEbPKNS0_13BindStateBaseENSG_21CancellationQueryModeE = comdat any

$_ZN4base8internal9BindStateIMN6device23FidoDeviceAuthenticatorEFvNS3_25EnumerateCredentialsStateENS2_22CtapDeviceResponseCodeEN4absl8optionalINS2_20EnumerateRPsResponseEEEEJNS_7WeakPtrIS3_EES4_EED2Ev = comdat any

$_ZN4base8internal7InvokerINS0_9BindStateIPFN4absl8optionalIN6device20EnumerateRPsResponseEEEbRKNS4_IN4cbor5ValueEEEEJbEEEFS7_SC_EE7RunOnceEPNS0_13BindStateBaseESC_ = comdat any

$_ZN4base8internal9BindStateIPFN4absl8optionalIN6device20EnumerateRPsResponseEEEbRKNS3_IN4cbor5ValueEEEEJbEE7DestroyEPKNS0_13BindStateBaseE = comdat any

$_ZN6device23FidoDeviceAuthenticator19OperationClearProxyIJNS_22CtapDeviceResponseCodeEN4absl8optionalINS_20EnumerateRPsResponseEEEEEEvN4base12OnceCallbackIFvDpT_EEESA_ = comdat any

$_ZN6device20Ctap2DeviceOperationINS_27CredentialManagementRequestENS_20EnumerateRPsResponseEED2Ev = comdat any

$_ZN6device20Ctap2DeviceOperationINS_27CredentialManagementRequestENS_20EnumerateRPsResponseEED0Ev = comdat any

$_ZN6device20Ctap2DeviceOperationINS_27CredentialManagementRequestENS_20EnumerateRPsResponseEE5StartEv = comdat any

$_ZN6device20Ctap2DeviceOperationINS_27CredentialManagementRequestENS_20EnumerateRPsResponseEE6CancelEv = comdat any

$_ZN6device15DeviceOperationINS_27CredentialManagementRequestENS_20EnumerateRPsResponseEED2Ev = comdat any

$_ZN6device15DeviceOperationINS_27CredentialManagementRequestENS_20EnumerateRPsResponseEED0Ev = comdat any

$_ZN6device20Ctap2DeviceOperationINS_27CredentialManagementRequestENS_20EnumerateRPsResponseEE18OnResponseReceivedEN4absl8optionalINSt3__16vectorIhNS6_9allocatorIhEEEEEE = comdat any

$_ZN4base8internal7InvokerINS0_9BindStateIMN6device20Ctap2DeviceOperationINS3_27CredentialManagementRequestENS3_20EnumerateRPsResponseEEEFvN4absl8optionalINSt3__16vectorIhNSA_9allocatorIhEEEEEEEJNS_7WeakPtrIS7_EEEEEFvSF_EE7RunOnceEPNS0_13BindStateBaseEOSF_ = comdat any

$_ZN4base8internal13FunctorTraitsIMN6device20Ctap2DeviceOperationINS2_27CredentialManagementRequestENS2_20EnumerateRPsResponseEEEFvN4absl8optionalINSt3__16vectorIhNS9_9allocatorIhEEEEEEEvE6InvokeISG_NS_7WeakPtrIS6_EEJSE_EEEvT_OT0_DpOT1_ = comdat any

$_ZN4base8internal9BindStateIMN6device20Ctap2DeviceOperationINS2_27CredentialManagementRequestENS2_20EnumerateRPsResponseEEEFvN4absl8optionalINSt3__16vectorIhNS9_9allocatorIhEEEEEEEJNS_7WeakPtrIS6_EEEE7DestroyEPKNS0_13BindStateBaseE = comdat any

$_ZN4base8internal23QueryCancellationTraitsINS0_9BindStateIMN6device20Ctap2DeviceOperationINS3_27CredentialManagementRequestENS3_20EnumerateRPsResponseEEEFvN4absl8optionalINSt3__16vectorIhNSA_9allocatorIhEEEEEEEJNS_7WeakPtrIS7_EEEEEEEbPKNS0_13BindStateBaseENSL_21CancellationQueryModeE = comdat any

$_ZN4base8internal7InvokerINS0_9BindStateIMN6device23FidoDeviceAuthenticatorEFvNS_12OnceCallbackIFvNS3_22CtapDeviceResponseCodeEN4absl8optionalINS3_20EnumerateRPsResponseEEEEEES6_SA_EJNS_7WeakPtrIS4_EESC_EEESB_E7RunOnceEPNS0_13BindStateBaseES6_OSA_ = comdat any

$_ZN4base8internal13FunctorTraitsIMN6device23FidoDeviceAuthenticatorEFvNS_12OnceCallbackIFvNS2_22CtapDeviceResponseCodeEN4absl8optionalINS2_20EnumerateRPsResponseEEEEEES5_S9_EvE6InvokeISD_NS_7WeakPtrIS3_EEJSB_S5_S9_EEEvT_OT0_DpOT1_ = comdat any

$_ZN4base8internal9BindStateIMN6device23FidoDeviceAuthenticatorEFvNS_12OnceCallbackIFvNS2_22CtapDeviceResponseCodeEN4absl8optionalINS2_20EnumerateRPsResponseEEEEEES5_S9_EJNS_7WeakPtrIS3_EESB_EE7DestroyEPKNS0_13BindStateBaseE = comdat any

$_ZN4base8internal23QueryCancellationTraitsINS0_9BindStateIMN6device23FidoDeviceAuthenticatorEFvNS_12OnceCallbackIFvNS3_22CtapDeviceResponseCodeEN4absl8optionalINS3_20EnumerateRPsResponseEEEEEES6_SA_EJNS_7WeakPtrIS4_EESC_EEEEEbPKNS0_13BindStateBaseENSI_21CancellationQueryModeE = comdat any

$_ZNSt3__16vectorIN6device38AggregatedEnumerateCredentialsResponseENS_9allocatorIS2_EEE21__push_back_slow_pathIS2_EEvOT_ = comdat any

$_ZN4base8internal7InvokerINS0_9BindStateIMN6device23FidoDeviceAuthenticatorEFvNS4_25EnumerateCredentialsStateENS3_22CtapDeviceResponseCodeEN4absl8optionalINS3_28EnumerateCredentialsResponseEEEEJNS_7WeakPtrIS4_EES5_EEEFvS6_SA_EE7RunOnceEPNS0_13BindStateBaseES6_OSA_ = comdat any

$_ZN4base8internal13FunctorTraitsIMN6device23FidoDeviceAuthenticatorEFvNS3_25EnumerateCredentialsStateENS2_22CtapDeviceResponseCodeEN4absl8optionalINS2_28EnumerateCredentialsResponseEEEEvE6InvokeISB_NS_7WeakPtrIS3_EEJS4_S5_S9_EEEvT_OT0_DpOT1_ = comdat any

$_ZN4base8internal9BindStateIMN6device23FidoDeviceAuthenticatorEFvNS3_25EnumerateCredentialsStateENS2_22CtapDeviceResponseCodeEN4absl8optionalINS2_28EnumerateCredentialsResponseEEEEJNS_7WeakPtrIS3_EES4_EE7DestroyEPKNS0_13BindStateBaseE = comdat any

$_ZN4base8internal23QueryCancellationTraitsINS0_9BindStateIMN6device23FidoDeviceAuthenticatorEFvNS4_25EnumerateCredentialsStateENS3_22CtapDeviceResponseCodeEN4absl8optionalINS3_28EnumerateCredentialsResponseEEEEJNS_7WeakPtrIS4_EES5_EEEEEbPKNS0_13BindStateBaseENSG_21CancellationQueryModeE = comdat any

$_ZN4base8internal9BindStateIMN6device23FidoDeviceAuthenticatorEFvNS3_25EnumerateCredentialsStateENS2_22CtapDeviceResponseCodeEN4absl8optionalINS2_28EnumerateCredentialsResponseEEEEJNS_7WeakPtrIS3_EES4_EED2Ev = comdat any

$_ZN4base8internal7InvokerINS0_9BindStateIPFN4absl8optionalIN6device28EnumerateCredentialsResponseEEEbRKNS4_IN4cbor5ValueEEEEJbEEEFS7_SC_EE7RunOnceEPNS0_13BindStateBaseESC_ = comdat any

$_ZN4base8internal9BindStateIPFN4absl8optionalIN6device28EnumerateCredentialsResponseEEEbRKNS3_IN4cbor5ValueEEEEJbEE7DestroyEPKNS0_13BindStateBaseE = comdat any

$_ZN6device23FidoDeviceAuthenticator19OperationClearProxyIJNS_22CtapDeviceResponseCodeEN4absl8optionalINS_28EnumerateCredentialsResponseEEEEEEvN4base12OnceCallbackIFvDpT_EEESA_ = comdat any

$_ZN6device20Ctap2DeviceOperationINS_27CredentialManagementRequestENS_28EnumerateCredentialsResponseEED2Ev = comdat any

$_ZN6device20Ctap2DeviceOperationINS_27CredentialManagementRequestENS_28EnumerateCredentialsResponseEED0Ev = comdat any

$_ZN6device20Ctap2DeviceOperationINS_27CredentialManagementRequestENS_28EnumerateCredentialsResponseEE5StartEv = comdat any

$_ZN6device20Ctap2DeviceOperationINS_27CredentialManagementRequestENS_28EnumerateCredentialsResponseEE6CancelEv = comdat any

$_ZN6device15DeviceOperationINS_27CredentialManagementRequestENS_28EnumerateCredentialsResponseEED2Ev = comdat any

$_ZN6device15DeviceOperationINS_27CredentialManagementRequestENS_28EnumerateCredentialsResponseEED0Ev = comdat any

$_ZN6device20Ctap2DeviceOperationINS_27CredentialManagementRequestENS_28EnumerateCredentialsResponseEE18OnResponseReceivedEN4absl8optionalINSt3__16vectorIhNS6_9allocatorIhEEEEEE = comdat any

$_ZN4base8internal7InvokerINS0_9BindStateIMN6device20Ctap2DeviceOperationINS3_27CredentialManagementRequestENS3_28EnumerateCredentialsResponseEEEFvN4absl8optionalINSt3__16vectorIhNSA_9allocatorIhEEEEEEEJNS_7WeakPtrIS7_EEEEEFvSF_EE7RunOnceEPNS0_13BindStateBaseEOSF_ = comdat any

$_ZN4base8internal13FunctorTraitsIMN6device20Ctap2DeviceOperationINS2_27CredentialManagementRequestENS2_28EnumerateCredentialsResponseEEEFvN4absl8optionalINSt3__16vectorIhNS9_9allocatorIhEEEEEEEvE6InvokeISG_NS_7WeakPtrIS6_EEJSE_EEEvT_OT0_DpOT1_ = comdat any

$_ZN4base8internal9BindStateIMN6device20Ctap2DeviceOperationINS2_27CredentialManagementRequestENS2_28EnumerateCredentialsResponseEEEFvN4absl8optionalINSt3__16vectorIhNS9_9allocatorIhEEEEEEEJNS_7WeakPtrIS6_EEEE7DestroyEPKNS0_13BindStateBaseE = comdat any

$_ZN4base8internal23QueryCancellationTraitsINS0_9BindStateIMN6device20Ctap2DeviceOperationINS3_27CredentialManagementRequestENS3_28EnumerateCredentialsResponseEEEFvN4absl8optionalINSt3__16vectorIhNSA_9allocatorIhEEEEEEEJNS_7WeakPtrIS7_EEEEEEEbPKNS0_13BindStateBaseENSL_21CancellationQueryModeE = comdat any

$_ZN4base8internal7InvokerINS0_9BindStateIMN6device23FidoDeviceAuthenticatorEFvNS_12OnceCallbackIFvNS3_22CtapDeviceResponseCodeEN4absl8optionalINS3_28EnumerateCredentialsResponseEEEEEES6_SA_EJNS_7WeakPtrIS4_EESC_EEESB_E7RunOnceEPNS0_13BindStateBaseES6_OSA_ = comdat any

$_ZN4base8internal13FunctorTraitsIMN6device23FidoDeviceAuthenticatorEFvNS_12OnceCallbackIFvNS2_22CtapDeviceResponseCodeEN4absl8optionalINS2_28EnumerateCredentialsResponseEEEEEES5_S9_EvE6InvokeISD_NS_7WeakPtrIS3_EEJSB_S5_S9_EEEvT_OT0_DpOT1_ = comdat any

$_ZN4base8internal9BindStateIMN6device23FidoDeviceAuthenticatorEFvNS_12OnceCallbackIFvNS2_22CtapDeviceResponseCodeEN4absl8optionalINS2_28EnumerateCredentialsResponseEEEEEES5_S9_EJNS_7WeakPtrIS3_EESB_EE7DestroyEPKNS0_13BindStateBaseE = comdat any

$_ZN4base8internal23QueryCancellationTraitsINS0_9BindStateIMN6device23FidoDeviceAuthenticatorEFvNS_12OnceCallbackIFvNS3_22CtapDeviceResponseCodeEN4absl8optionalINS3_28EnumerateCredentialsResponseEEEEEES6_SA_EJNS_7WeakPtrIS4_EESC_EEEEEbPKNS0_13BindStateBaseENSI_21CancellationQueryModeE = comdat any

$_ZNSt3__16vectorIN6device28EnumerateCredentialsResponseENS_9allocatorIS2_EEE21__push_back_slow_pathIS2_EEvOT_ = comdat any

$_ZN6device20Ctap2DeviceOperationINS_27CredentialManagementRequestENS_3pin13EmptyResponseEED2Ev = comdat any

$_ZN6device20Ctap2DeviceOperationINS_27CredentialManagementRequestENS_3pin13EmptyResponseEED0Ev = comdat any

$_ZN6device20Ctap2DeviceOperationINS_27CredentialManagementRequestENS_3pin13EmptyResponseEE5StartEv = comdat any

$_ZN6device20Ctap2DeviceOperationINS_27CredentialManagementRequestENS_3pin13EmptyResponseEE6CancelEv = comdat any

$_ZN6device15DeviceOperationINS_27CredentialManagementRequestENS_3pin13EmptyResponseEED2Ev = comdat any

$_ZN6device15DeviceOperationINS_27CredentialManagementRequestENS_3pin13EmptyResponseEED0Ev = comdat any

$_ZN6device20Ctap2DeviceOperationINS_27CredentialManagementRequestENS_3pin13EmptyResponseEE18OnResponseReceivedEN4absl8optionalINSt3__16vectorIhNS7_9allocatorIhEEEEEE = comdat any

$_ZN4base8internal7InvokerINS0_9BindStateIMN6device20Ctap2DeviceOperationINS3_27CredentialManagementRequestENS3_3pin13EmptyResponseEEEFvN4absl8optionalINSt3__16vectorIhNSB_9allocatorIhEEEEEEEJNS_7WeakPtrIS8_EEEEEFvSG_EE7RunOnceEPNS0_13BindStateBaseEOSG_ = comdat any

$_ZN4base8internal13FunctorTraitsIMN6device20Ctap2DeviceOperationINS2_27CredentialManagementRequestENS2_3pin13EmptyResponseEEEFvN4absl8optionalINSt3__16vectorIhNSA_9allocatorIhEEEEEEEvE6InvokeISH_NS_7WeakPtrIS7_EEJSF_EEEvT_OT0_DpOT1_ = comdat any

$_ZN4base8internal9BindStateIMN6device20Ctap2DeviceOperationINS2_27CredentialManagementRequestENS2_3pin13EmptyResponseEEEFvN4absl8optionalINSt3__16vectorIhNSA_9allocatorIhEEEEEEEJNS_7WeakPtrIS7_EEEE7DestroyEPKNS0_13BindStateBaseE = comdat any

$_ZN4base8internal23QueryCancellationTraitsINS0_9BindStateIMN6device20Ctap2DeviceOperationINS3_27CredentialManagementRequestENS3_3pin13EmptyResponseEEEFvN4absl8optionalINSt3__16vectorIhNSB_9allocatorIhEEEEEEEJNS_7WeakPtrIS8_EEEEEEEbPKNS0_13BindStateBaseENSM_21CancellationQueryModeE = comdat any

$_ZN4base8internal7InvokerINS0_9BindStateIPFN4absl8optionalIN6device21BioEnrollmentResponseEEERKNS4_IN4cbor5ValueEEEEJEEESD_E7RunOnceEPNS0_13BindStateBaseESC_ = comdat any

$_ZN4base8internal9BindStateIPFN4absl8optionalIN6device21BioEnrollmentResponseEEERKNS3_IN4cbor5ValueEEEEJEE7DestroyEPKNS0_13BindStateBaseE = comdat any

$_ZN6device23FidoDeviceAuthenticator19OperationClearProxyIJNS_22CtapDeviceResponseCodeEN4absl8optionalINS_21BioEnrollmentResponseEEEEEEvN4base12OnceCallbackIFvDpT_EEESA_ = comdat any

$_ZN6device20Ctap2DeviceOperationINS_20BioEnrollmentRequestENS_21BioEnrollmentResponseEED2Ev = comdat any

$_ZN6device20Ctap2DeviceOperationINS_20BioEnrollmentRequestENS_21BioEnrollmentResponseEED0Ev = comdat any

$_ZN6device20Ctap2DeviceOperationINS_20BioEnrollmentRequestENS_21BioEnrollmentResponseEE5StartEv = comdat any

$_ZN6device20Ctap2DeviceOperationINS_20BioEnrollmentRequestENS_21BioEnrollmentResponseEE6CancelEv = comdat any

$_ZN6device15DeviceOperationINS_20BioEnrollmentRequestENS_21BioEnrollmentResponseEED2Ev = comdat any

$_ZN6device15DeviceOperationINS_20BioEnrollmentRequestENS_21BioEnrollmentResponseEED0Ev = comdat any

$_ZN6device20Ctap2DeviceOperationINS_20BioEnrollmentRequestENS_21BioEnrollmentResponseEE18OnResponseReceivedEN4absl8optionalINSt3__16vectorIhNS6_9allocatorIhEEEEEE = comdat any

$_ZN4base8internal7InvokerINS0_9BindStateIMN6device20Ctap2DeviceOperationINS3_20BioEnrollmentRequestENS3_21BioEnrollmentResponseEEEFvN4absl8optionalINSt3__16vectorIhNSA_9allocatorIhEEEEEEEJNS_7WeakPtrIS7_EEEEEFvSF_EE7RunOnceEPNS0_13BindStateBaseEOSF_ = comdat any

$_ZN4base8internal13FunctorTraitsIMN6device20Ctap2DeviceOperationINS2_20BioEnrollmentRequestENS2_21BioEnrollmentResponseEEEFvN4absl8optionalINSt3__16vectorIhNS9_9allocatorIhEEEEEEEvE6InvokeISG_NS_7WeakPtrIS6_EEJSE_EEEvT_OT0_DpOT1_ = comdat any

$_ZN4base8internal9BindStateIMN6device20Ctap2DeviceOperationINS2_20BioEnrollmentRequestENS2_21BioEnrollmentResponseEEEFvN4absl8optionalINSt3__16vectorIhNS9_9allocatorIhEEEEEEEJNS_7WeakPtrIS6_EEEE7DestroyEPKNS0_13BindStateBaseE = comdat any

$_ZN4base8internal23QueryCancellationTraitsINS0_9BindStateIMN6device20Ctap2DeviceOperationINS3_20BioEnrollmentRequestENS3_21BioEnrollmentResponseEEEFvN4absl8optionalINSt3__16vectorIhNSA_9allocatorIhEEEEEEEJNS_7WeakPtrIS7_EEEEEEEbPKNS0_13BindStateBaseENSL_21CancellationQueryModeE = comdat any

$_ZN6device21BioEnrollmentResponseaSEOS0_ = comdat any

$_ZN4absl17optional_internal13optional_dataINSt3__13mapINS2_6vectorIhNS2_9allocatorIhEEEENS2_12basic_stringIcNS2_11char_traitsIcEENS5_IcEEEENS2_4lessIS7_EENS5_INS2_4pairIKS7_SC_EEEEEELb0EEaSEOSK_ = comdat any

$_ZNSt3__16__treeINS_12__value_typeINS_6vectorIhNS_9allocatorIhEEEENS_12basic_stringIcNS_11char_traitsIcEENS3_IcEEEEEENS_19__map_value_compareIS5_SB_NS_4lessIS5_EELb1EEENS3_ISB_EEE7destroyEPNS_11__tree_nodeISB_PvEE = comdat any

$_ZN4base8internal7InvokerINS0_9BindStateIMN6device23FidoDeviceAuthenticatorEFvNS_12OnceCallbackIFvNS3_22CtapDeviceResponseCodeEN4absl8optionalINS3_21BioEnrollmentResponseEEEEEES6_SA_EJNS_7WeakPtrIS4_EESC_EEESB_E7RunOnceEPNS0_13BindStateBaseES6_OSA_ = comdat any

$_ZN4base8internal13FunctorTraitsIMN6device23FidoDeviceAuthenticatorEFvNS_12OnceCallbackIFvNS2_22CtapDeviceResponseCodeEN4absl8optionalINS2_21BioEnrollmentResponseEEEEEES5_S9_EvE6InvokeISD_NS_7WeakPtrIS3_EEJSB_S5_S9_EEEvT_OT0_DpOT1_ = comdat any

$_ZN4base8internal9BindStateIMN6device23FidoDeviceAuthenticatorEFvNS_12OnceCallbackIFvNS2_22CtapDeviceResponseCodeEN4absl8optionalINS2_21BioEnrollmentResponseEEEEEES5_S9_EJNS_7WeakPtrIS3_EESB_EE7DestroyEPKNS0_13BindStateBaseE = comdat any

$_ZN4base8internal23QueryCancellationTraitsINS0_9BindStateIMN6device23FidoDeviceAuthenticatorEFvNS_12OnceCallbackIFvNS3_22CtapDeviceResponseCodeEN4absl8optionalINS3_21BioEnrollmentResponseEEEEEES6_SA_EJNS_7WeakPtrIS4_EESC_EEEEEbPKNS0_13BindStateBaseENSI_21CancellationQueryModeE = comdat any

$_ZN4base8internal7InvokerINS0_9BindStateIMN6device23FidoDeviceAuthenticatorEFvRKNSt3__16vectorIhNS5_9allocatorIhEEEERKNS5_5arrayIhLm32EEEN4absl8optionalINS3_3pin13TokenResponseEEENS_12OnceCallbackIFvNS3_22CtapDeviceResponseCodeEEEESM_NSH_INS3_20LargeBlobArrayReaderEEEEJNS_7WeakPtrIS4_EES9_SD_SK_SO_EEEFvSM_SQ_EE7RunOnceEPNS0_13BindStateBaseESM_OSQ_ = comdat any

$_ZN4base8internal13FunctorTraitsIMN6device23FidoDeviceAuthenticatorEFvRKNSt3__16vectorIhNS4_9allocatorIhEEEERKNS4_5arrayIhLm32EEEN4absl8optionalINS2_3pin13TokenResponseEEENS_12OnceCallbackIFvNS2_22CtapDeviceResponseCodeEEEESL_NSG_INS2_20LargeBlobArrayReaderEEEEvE6InvokeISR_NS_7WeakPtrIS3_EEJS8_SC_SJ_SN_SL_SP_EEEvT_OT0_DpOT1_ = comdat any

$_ZN4base8internal9BindStateIMN6device23FidoDeviceAuthenticatorEFvRKNSt3__16vectorIhNS4_9allocatorIhEEEERKNS4_5arrayIhLm32EEEN4absl8optionalINS2_3pin13TokenResponseEEENS_12OnceCallbackIFvNS2_22CtapDeviceResponseCodeEEEESL_NSG_INS2_20LargeBlobArrayReaderEEEEJNS_7WeakPtrIS3_EES8_SC_SJ_SN_EE7DestroyEPKNS0_13BindStateBaseE = comdat any

$_ZN4base8internal23QueryCancellationTraitsINS0_9BindStateIMN6device23FidoDeviceAuthenticatorEFvRKNSt3__16vectorIhNS5_9allocatorIhEEEERKNS5_5arrayIhLm32EEEN4absl8optionalINS3_3pin13TokenResponseEEENS_12OnceCallbackIFvNS3_22CtapDeviceResponseCodeEEEESM_NSH_INS3_20LargeBlobArrayReaderEEEEJNS_7WeakPtrIS4_EES9_SD_SK_SO_EEEEEbPKNS0_13BindStateBaseENSW_21CancellationQueryModeE = comdat any

$_ZNSt3__15tupleIJN4base7WeakPtrIN6device23FidoDeviceAuthenticatorEEENS_6vectorIhNS_9allocatorIhEEEENS_5arrayIhLm32EEEN4absl8optionalINS3_3pin13TokenResponseEEENS1_12OnceCallbackIFvNS3_22CtapDeviceResponseCodeEEEEEEC2IJS5_RKS9_RKSB_KSG_SK_ELb0ELb0EEEDpOT_ = comdat any

$_ZN4base8internal7InvokerINS0_9BindStateIMN6device23FidoDeviceAuthenticatorEFvRKNSt3__16vectorINS5_5arrayIhLm32EEENS5_9allocatorIS8_EEEENS_12OnceCallbackIFvNS3_22CtapDeviceResponseCodeEN4absl8optionalINS6_INS5_4pairIS8_NS6_IhNS9_IhEEEEEENS9_ISL_EEEEEEEEESF_NSH_INS3_20LargeBlobArrayReaderEEEEJNS_7WeakPtrIS4_EESB_SQ_EEEFvSF_SS_EE7RunOnceEPNS0_13BindStateBaseESF_OSS_ = comdat any

$_ZN4base8internal13FunctorTraitsIMN6device23FidoDeviceAuthenticatorEFvRKNSt3__16vectorINS4_5arrayIhLm32EEENS4_9allocatorIS7_EEEENS_12OnceCallbackIFvNS2_22CtapDeviceResponseCodeEN4absl8optionalINS5_INS4_4pairIS7_NS5_IhNS8_IhEEEEEENS8_ISK_EEEEEEEEESE_NSG_INS2_20LargeBlobArrayReaderEEEEvE6InvokeIST_NS_7WeakPtrIS3_EEJSA_SP_SE_SR_EEEvT_OT0_DpOT1_ = comdat any

$_ZN4base8internal9BindStateIMN6device23FidoDeviceAuthenticatorEFvRKNSt3__16vectorINS4_5arrayIhLm32EEENS4_9allocatorIS7_EEEENS_12OnceCallbackIFvNS2_22CtapDeviceResponseCodeEN4absl8optionalINS5_INS4_4pairIS7_NS5_IhNS8_IhEEEEEENS8_ISK_EEEEEEEEESE_NSG_INS2_20LargeBlobArrayReaderEEEEJNS_7WeakPtrIS3_EESA_SP_EEC2IST_JSV_SC_SP_EEENS4_17integral_constantIbLb1EEEPFvvEOT_DpOT0_ = comdat any

$_ZN4base8internal9BindStateIMN6device23FidoDeviceAuthenticatorEFvRKNSt3__16vectorINS4_5arrayIhLm32EEENS4_9allocatorIS7_EEEENS_12OnceCallbackIFvNS2_22CtapDeviceResponseCodeEN4absl8optionalINS5_INS4_4pairIS7_NS5_IhNS8_IhEEEEEENS8_ISK_EEEEEEEEESE_NSG_INS2_20LargeBlobArrayReaderEEEEJNS_7WeakPtrIS3_EESA_SP_EE7DestroyEPKNS0_13BindStateBaseE = comdat any

$_ZN4base8internal23QueryCancellationTraitsINS0_9BindStateIMN6device23FidoDeviceAuthenticatorEFvRKNSt3__16vectorINS5_5arrayIhLm32EEENS5_9allocatorIS8_EEEENS_12OnceCallbackIFvNS3_22CtapDeviceResponseCodeEN4absl8optionalINS6_INS5_4pairIS8_NS6_IhNS9_IhEEEEEENS9_ISL_EEEEEEEEESF_NSH_INS3_20LargeBlobArrayReaderEEEEJNS_7WeakPtrIS4_EESB_SQ_EEEEEbPKNS0_13BindStateBaseENSY_21CancellationQueryModeE = comdat any

$_ZN4base8internal7InvokerINS0_9BindStateIMN6device23FidoDeviceAuthenticatorEFvmNS3_20LargeBlobArrayReaderEN4absl8optionalINS3_3pin13TokenResponseEEENS_12OnceCallbackIFvNS3_22CtapDeviceResponseCodeENS7_IS5_EEEEESC_NS7_INS3_18LargeBlobsResponseEEEEJNS_7WeakPtrIS4_EEmS5_SA_SF_EEEFvSC_SH_EE7RunOnceEPNS0_13BindStateBaseESC_OSH_ = comdat any

$_ZN4base8internal13FunctorTraitsIMN6device23FidoDeviceAuthenticatorEFvmNS2_20LargeBlobArrayReaderEN4absl8optionalINS2_3pin13TokenResponseEEENS_12OnceCallbackIFvNS2_22CtapDeviceResponseCodeENS6_IS4_EEEEESB_NS6_INS2_18LargeBlobsResponseEEEEvE6InvokeISI_NS_7WeakPtrIS3_EEJmS4_S9_SE_SB_SG_EEEvT_OT0_DpOT1_ = comdat any

$_ZN4base8internal9BindStateIMN6device23FidoDeviceAuthenticatorEFvmNS2_20LargeBlobArrayReaderEN4absl8optionalINS2_3pin13TokenResponseEEENS_12OnceCallbackIFvNS2_22CtapDeviceResponseCodeENS6_IS4_EEEEESB_NS6_INS2_18LargeBlobsResponseEEEEJNS_7WeakPtrIS3_EEmS4_S9_SE_EE7DestroyEPKNS0_13BindStateBaseE = comdat any

$_ZN4base8internal23QueryCancellationTraitsINS0_9BindStateIMN6device23FidoDeviceAuthenticatorEFvmNS3_20LargeBlobArrayReaderEN4absl8optionalINS3_3pin13TokenResponseEEENS_12OnceCallbackIFvNS3_22CtapDeviceResponseCodeENS7_IS5_EEEEESC_NS7_INS3_18LargeBlobsResponseEEEEJNS_7WeakPtrIS4_EEmS5_SA_SF_EEEEEbPKNS0_13BindStateBaseENSN_21CancellationQueryModeE = comdat any

$_ZN4base8internal7InvokerINS0_9BindStateIPFN4absl8optionalIN6device18LargeBlobsResponseEEEmRKNS4_IN4cbor5ValueEEEEJmEEEFS7_SC_EE7RunOnceEPNS0_13BindStateBaseESC_ = comdat any

$_ZN4base8internal9BindStateIPFN4absl8optionalIN6device18LargeBlobsResponseEEEmRKNS3_IN4cbor5ValueEEEEJmEE7DestroyEPKNS0_13BindStateBaseE = comdat any

$_ZN6device23FidoDeviceAuthenticator19OperationClearProxyIJNS_22CtapDeviceResponseCodeEN4absl8optionalINS_18LargeBlobsResponseEEEEEEvN4base12OnceCallbackIFvDpT_EEESA_ = comdat any

$_ZN6device20Ctap2DeviceOperationINS_17LargeBlobsRequestENS_18LargeBlobsResponseEED2Ev = comdat any

$_ZN6device20Ctap2DeviceOperationINS_17LargeBlobsRequestENS_18LargeBlobsResponseEED0Ev = comdat any

$_ZN6device20Ctap2DeviceOperationINS_17LargeBlobsRequestENS_18LargeBlobsResponseEE5StartEv = comdat any

$_ZN6device20Ctap2DeviceOperationINS_17LargeBlobsRequestENS_18LargeBlobsResponseEE6CancelEv = comdat any

$_ZN6device15DeviceOperationINS_17LargeBlobsRequestENS_18LargeBlobsResponseEED2Ev = comdat any

$_ZN6device15DeviceOperationINS_17LargeBlobsRequestENS_18LargeBlobsResponseEED0Ev = comdat any

$_ZN6device20Ctap2DeviceOperationINS_17LargeBlobsRequestENS_18LargeBlobsResponseEE18OnResponseReceivedEN4absl8optionalINSt3__16vectorIhNS6_9allocatorIhEEEEEE = comdat any

$_ZN4base8internal7InvokerINS0_9BindStateIMN6device20Ctap2DeviceOperationINS3_17LargeBlobsRequestENS3_18LargeBlobsResponseEEEFvN4absl8optionalINSt3__16vectorIhNSA_9allocatorIhEEEEEEEJNS_7WeakPtrIS7_EEEEEFvSF_EE7RunOnceEPNS0_13BindStateBaseEOSF_ = comdat any

$_ZN4base8internal13FunctorTraitsIMN6device20Ctap2DeviceOperationINS2_17LargeBlobsRequestENS2_18LargeBlobsResponseEEEFvN4absl8optionalINSt3__16vectorIhNS9_9allocatorIhEEEEEEEvE6InvokeISG_NS_7WeakPtrIS6_EEJSE_EEEvT_OT0_DpOT1_ = comdat any

$_ZN4base8internal9BindStateIMN6device20Ctap2DeviceOperationINS2_17LargeBlobsRequestENS2_18LargeBlobsResponseEEEFvN4absl8optionalINSt3__16vectorIhNS9_9allocatorIhEEEEEEEJNS_7WeakPtrIS6_EEEE7DestroyEPKNS0_13BindStateBaseE = comdat any

$_ZN4base8internal23QueryCancellationTraitsINS0_9BindStateIMN6device20Ctap2DeviceOperationINS3_17LargeBlobsRequestENS3_18LargeBlobsResponseEEEFvN4absl8optionalINSt3__16vectorIhNSA_9allocatorIhEEEEEEEJNS_7WeakPtrIS7_EEEEEEEbPKNS0_13BindStateBaseENSL_21CancellationQueryModeE = comdat any

$_ZN4base8internal7InvokerINS0_9BindStateIMN6device23FidoDeviceAuthenticatorEFvNS_12OnceCallbackIFvNS3_22CtapDeviceResponseCodeEN4absl8optionalINS3_18LargeBlobsResponseEEEEEES6_SA_EJNS_7WeakPtrIS4_EESC_EEESB_E7RunOnceEPNS0_13BindStateBaseES6_OSA_ = comdat any

$_ZN4base8internal13FunctorTraitsIMN6device23FidoDeviceAuthenticatorEFvNS_12OnceCallbackIFvNS2_22CtapDeviceResponseCodeEN4absl8optionalINS2_18LargeBlobsResponseEEEEEES5_S9_EvE6InvokeISD_NS_7WeakPtrIS3_EEJSB_S5_S9_EEEvT_OT0_DpOT1_ = comdat any

$_ZN4base8internal9BindStateIMN6device23FidoDeviceAuthenticatorEFvNS_12OnceCallbackIFvNS2_22CtapDeviceResponseCodeEN4absl8optionalINS2_18LargeBlobsResponseEEEEEES5_S9_EJNS_7WeakPtrIS3_EESB_EE7DestroyEPKNS0_13BindStateBaseE = comdat any

$_ZN4base8internal23QueryCancellationTraitsINS0_9BindStateIMN6device23FidoDeviceAuthenticatorEFvNS_12OnceCallbackIFvNS3_22CtapDeviceResponseCodeEN4absl8optionalINS3_18LargeBlobsResponseEEEEEES6_SA_EJNS_7WeakPtrIS4_EESC_EEEEEbPKNS0_13BindStateBaseENSI_21CancellationQueryModeE = comdat any

$_ZNSt3__16vectorIN6device13LargeBlobDataENS_9allocatorIS2_EEE24__emplace_back_slow_pathIJS2_EEEvDpOT_ = comdat any

$_ZN4base8internal7InvokerINS0_9BindStateIMN6device23FidoDeviceAuthenticatorEFvNS3_20LargeBlobArrayWriterEN4absl8optionalINS3_3pin13TokenResponseEEENS_12OnceCallbackIFvNS3_22CtapDeviceResponseCodeEEEESC_NS7_INS3_18LargeBlobsResponseEEEEJNS_7WeakPtrIS4_EES5_SA_SE_EEEFvSC_SG_EE7RunOnceEPNS0_13BindStateBaseESC_OSG_ = comdat any

$_ZN4base8internal13FunctorTraitsIMN6device23FidoDeviceAuthenticatorEFvNS2_20LargeBlobArrayWriterEN4absl8optionalINS2_3pin13TokenResponseEEENS_12OnceCallbackIFvNS2_22CtapDeviceResponseCodeEEEESB_NS6_INS2_18LargeBlobsResponseEEEEvE6InvokeISH_NS_7WeakPtrIS3_EEJS4_S9_SD_SB_SF_EEEvT_OT0_DpOT1_ = comdat any

$_ZN4base8internal9BindStateIMN6device23FidoDeviceAuthenticatorEFvNS2_20LargeBlobArrayWriterEN4absl8optionalINS2_3pin13TokenResponseEEENS_12OnceCallbackIFvNS2_22CtapDeviceResponseCodeEEEESB_NS6_INS2_18LargeBlobsResponseEEEEJNS_7WeakPtrIS3_EES4_S9_SD_EE7DestroyEPKNS0_13BindStateBaseE = comdat any

$_ZN4base8internal23QueryCancellationTraitsINS0_9BindStateIMN6device23FidoDeviceAuthenticatorEFvNS3_20LargeBlobArrayWriterEN4absl8optionalINS3_3pin13TokenResponseEEENS_12OnceCallbackIFvNS3_22CtapDeviceResponseCodeEEEESC_NS7_INS3_18LargeBlobsResponseEEEEJNS_7WeakPtrIS4_EES5_SA_SE_EEEEEbPKNS0_13BindStateBaseENSM_21CancellationQueryModeE = comdat any

$_ZN4base8internal7InvokerINS0_9BindStateIPFN4absl8optionalIN6device18LargeBlobsResponseEEERKNS4_IN4cbor5ValueEEEEJEEESD_E7RunOnceEPNS0_13BindStateBaseESC_ = comdat any

$_ZN4base8internal9BindStateIPFN4absl8optionalIN6device18LargeBlobsResponseEEERKNS3_IN4cbor5ValueEEEEJEE7DestroyEPKNS0_13BindStateBaseE = comdat any

$_ZNSt3__16vectorINS_4pairINS_5arrayIhLm32EEENS0_IhNS_9allocatorIhEEEEEENS4_IS7_EEE24__emplace_back_slow_pathIJS7_EEEvDpOT_ = comdat any

$_ZN6device20Ctap2DeviceOperationINS_3pin12ResetRequestENS1_13EmptyResponseEED2Ev = comdat any

$_ZN6device20Ctap2DeviceOperationINS_3pin12ResetRequestENS1_13EmptyResponseEED0Ev = comdat any

$_ZN6device20Ctap2DeviceOperationINS_3pin12ResetRequestENS1_13EmptyResponseEE5StartEv = comdat any

$_ZN6device20Ctap2DeviceOperationINS_3pin12ResetRequestENS1_13EmptyResponseEE6CancelEv = comdat any

$_ZN6device15DeviceOperationINS_3pin12ResetRequestENS1_13EmptyResponseEED2Ev = comdat any

$_ZN6device15DeviceOperationINS_3pin12ResetRequestENS1_13EmptyResponseEED0Ev = comdat any

$_ZN6device20Ctap2DeviceOperationINS_3pin12ResetRequestENS1_13EmptyResponseEE18OnResponseReceivedEN4absl8optionalINSt3__16vectorIhNS7_9allocatorIhEEEEEE = comdat any

$_ZN4base8internal7InvokerINS0_9BindStateIMN6device20Ctap2DeviceOperationINS3_3pin12ResetRequestENS5_13EmptyResponseEEEFvN4absl8optionalINSt3__16vectorIhNSB_9allocatorIhEEEEEEEJNS_7WeakPtrIS8_EEEEEFvSG_EE7RunOnceEPNS0_13BindStateBaseEOSG_ = comdat any

$_ZN4base8internal13FunctorTraitsIMN6device20Ctap2DeviceOperationINS2_3pin12ResetRequestENS4_13EmptyResponseEEEFvN4absl8optionalINSt3__16vectorIhNSA_9allocatorIhEEEEEEEvE6InvokeISH_NS_7WeakPtrIS7_EEJSF_EEEvT_OT0_DpOT1_ = comdat any

$_ZN4base8internal9BindStateIMN6device20Ctap2DeviceOperationINS2_3pin12ResetRequestENS4_13EmptyResponseEEEFvN4absl8optionalINSt3__16vectorIhNSA_9allocatorIhEEEEEEEJNS_7WeakPtrIS7_EEEE7DestroyEPKNS0_13BindStateBaseE = comdat any

$_ZN4base8internal23QueryCancellationTraitsINS0_9BindStateIMN6device20Ctap2DeviceOperationINS3_3pin12ResetRequestENS5_13EmptyResponseEEEFvN4absl8optionalINSt3__16vectorIhNSB_9allocatorIhEEEEEEEJNS_7WeakPtrIS8_EEEEEEEbPKNS0_13BindStateBaseENSM_21CancellationQueryModeE = comdat any

$_ZN6device20Ctap2DeviceOperationINS_3pin16UvRetriesRequestENS1_15RetriesResponseEED2Ev = comdat any

$_ZN6device20Ctap2DeviceOperationINS_3pin16UvRetriesRequestENS1_15RetriesResponseEED0Ev = comdat any

$_ZN6device20Ctap2DeviceOperationINS_3pin16UvRetriesRequestENS1_15RetriesResponseEE5StartEv = comdat any

$_ZN6device20Ctap2DeviceOperationINS_3pin16UvRetriesRequestENS1_15RetriesResponseEE6CancelEv = comdat any

$_ZN6device15DeviceOperationINS_3pin16UvRetriesRequestENS1_15RetriesResponseEED2Ev = comdat any

$_ZN6device15DeviceOperationINS_3pin16UvRetriesRequestENS1_15RetriesResponseEED0Ev = comdat any

$_ZN6device20Ctap2DeviceOperationINS_3pin16UvRetriesRequestENS1_15RetriesResponseEE18OnResponseReceivedEN4absl8optionalINSt3__16vectorIhNS7_9allocatorIhEEEEEE = comdat any

$_ZN4base8internal7InvokerINS0_9BindStateIMN6device20Ctap2DeviceOperationINS3_3pin16UvRetriesRequestENS5_15RetriesResponseEEEFvN4absl8optionalINSt3__16vectorIhNSB_9allocatorIhEEEEEEEJNS_7WeakPtrIS8_EEEEEFvSG_EE7RunOnceEPNS0_13BindStateBaseEOSG_ = comdat any

$_ZN4base8internal13FunctorTraitsIMN6device20Ctap2DeviceOperationINS2_3pin16UvRetriesRequestENS4_15RetriesResponseEEEFvN4absl8optionalINSt3__16vectorIhNSA_9allocatorIhEEEEEEEvE6InvokeISH_NS_7WeakPtrIS7_EEJSF_EEEvT_OT0_DpOT1_ = comdat any

$_ZN4base8internal9BindStateIMN6device20Ctap2DeviceOperationINS2_3pin16UvRetriesRequestENS4_15RetriesResponseEEEFvN4absl8optionalINSt3__16vectorIhNSA_9allocatorIhEEEEEEEJNS_7WeakPtrIS7_EEEE7DestroyEPKNS0_13BindStateBaseE = comdat any

$_ZN4base8internal23QueryCancellationTraitsINS0_9BindStateIMN6device20Ctap2DeviceOperationINS3_3pin16UvRetriesRequestENS5_15RetriesResponseEEEFvN4absl8optionalINSt3__16vectorIhNSB_9allocatorIhEEEEEEEJNS_7WeakPtrIS8_EEEEEEEbPKNS0_13BindStateBaseENSM_21CancellationQueryModeE = comdat any

$_ZN4base8internal7InvokerINS0_9BindStateIMN6device23FidoDeviceAuthenticatorEFvN4absl8optionalINSt3__112basic_stringIcNS7_11char_traitsIcEENS7_9allocatorIcEEEEEENS7_6vectorINS3_3pin11PermissionsENSB_ISH_EEEENS_12OnceCallbackIFvNS3_22CtapDeviceResponseCodeENS6_INSG_13TokenResponseEEEEEESL_NS6_INSG_20KeyAgreementResponseEEEEJNS_7WeakPtrIS4_EESE_SJ_SP_EEEFvSL_SR_EE7RunOnceEPNS0_13BindStateBaseESL_OSR_ = comdat any

$_ZN4base8internal13FunctorTraitsIMN6device23FidoDeviceAuthenticatorEFvN4absl8optionalINSt3__112basic_stringIcNS6_11char_traitsIcEENS6_9allocatorIcEEEEEENS6_6vectorINS2_3pin11PermissionsENSA_ISG_EEEENS_12OnceCallbackIFvNS2_22CtapDeviceResponseCodeENS5_INSF_13TokenResponseEEEEEESK_NS5_INSF_20KeyAgreementResponseEEEEvE6InvokeISS_NS_7WeakPtrIS3_EEJSD_SI_SO_SK_SQ_EEEvT_OT0_DpOT1_ = comdat any

$_ZN4base8internal9BindStateIMN6device23FidoDeviceAuthenticatorEFvN4absl8optionalINSt3__112basic_stringIcNS6_11char_traitsIcEENS6_9allocatorIcEEEEEENS6_6vectorINS2_3pin11PermissionsENSA_ISG_EEEENS_12OnceCallbackIFvNS2_22CtapDeviceResponseCodeENS5_INSF_13TokenResponseEEEEEESK_NS5_INSF_20KeyAgreementResponseEEEEJNS_7WeakPtrIS3_EESD_SI_SO_EE7DestroyEPKNS0_13BindStateBaseE = comdat any

$_ZN4base8internal23QueryCancellationTraitsINS0_9BindStateIMN6device23FidoDeviceAuthenticatorEFvN4absl8optionalINSt3__112basic_stringIcNS7_11char_traitsIcEENS7_9allocatorIcEEEEEENS7_6vectorINS3_3pin11PermissionsENSB_ISH_EEEENS_12OnceCallbackIFvNS3_22CtapDeviceResponseCodeENS6_INSG_13TokenResponseEEEEEESL_NS6_INSG_20KeyAgreementResponseEEEEJNS_7WeakPtrIS4_EESE_SJ_SP_EEEEEbPKNS0_13BindStateBaseENSX_21CancellationQueryModeE = comdat any

$_ZN6device20Ctap2DeviceOperationINS_3pin14UvTokenRequestENS1_13TokenResponseEED2Ev = comdat any

$_ZN6device20Ctap2DeviceOperationINS_3pin14UvTokenRequestENS1_13TokenResponseEED0Ev = comdat any

$_ZN6device20Ctap2DeviceOperationINS_3pin14UvTokenRequestENS1_13TokenResponseEE5StartEv = comdat any

$_ZN6device20Ctap2DeviceOperationINS_3pin14UvTokenRequestENS1_13TokenResponseEE6CancelEv = comdat any

$_ZN6device15DeviceOperationINS_3pin14UvTokenRequestENS1_13TokenResponseEED2Ev = comdat any

$_ZN6device15DeviceOperationINS_3pin14UvTokenRequestENS1_13TokenResponseEED0Ev = comdat any

$_ZN6device20Ctap2DeviceOperationINS_3pin14UvTokenRequestENS1_13TokenResponseEE18OnResponseReceivedEN4absl8optionalINSt3__16vectorIhNS7_9allocatorIhEEEEEE = comdat any

$_ZN4base8internal7InvokerINS0_9BindStateIMN6device20Ctap2DeviceOperationINS3_3pin14UvTokenRequestENS5_13TokenResponseEEEFvN4absl8optionalINSt3__16vectorIhNSB_9allocatorIhEEEEEEEJNS_7WeakPtrIS8_EEEEEFvSG_EE7RunOnceEPNS0_13BindStateBaseEOSG_ = comdat any

$_ZN4base8internal13FunctorTraitsIMN6device20Ctap2DeviceOperationINS2_3pin14UvTokenRequestENS4_13TokenResponseEEEFvN4absl8optionalINSt3__16vectorIhNSA_9allocatorIhEEEEEEEvE6InvokeISH_NS_7WeakPtrIS7_EEJSF_EEEvT_OT0_DpOT1_ = comdat any

$_ZN4base8internal9BindStateIMN6device20Ctap2DeviceOperationINS2_3pin14UvTokenRequestENS4_13TokenResponseEEEFvN4absl8optionalINSt3__16vectorIhNSA_9allocatorIhEEEEEEEJNS_7WeakPtrIS7_EEEE7DestroyEPKNS0_13BindStateBaseE = comdat any

$_ZN4base8internal23QueryCancellationTraitsINS0_9BindStateIMN6device20Ctap2DeviceOperationINS3_3pin14UvTokenRequestENS5_13TokenResponseEEEFvN4absl8optionalINSt3__16vectorIhNSB_9allocatorIhEEEEEEEJNS_7WeakPtrIS8_EEEEEEEbPKNS0_13BindStateBaseENSM_21CancellationQueryModeE = comdat any

$_ZTVN6device20Ctap2DeviceOperationINS_27CtapGetNextAssertionRequestENS_33AuthenticatorGetAssertionResponseEEE = comdat any

$_ZTVN6device15DeviceOperationINS_27CtapGetNextAssertionRequestENS_33AuthenticatorGetAssertionResponseEEE = comdat any

$_ZTVN6device20Ctap2DeviceOperationINS_33CtapAuthenticatorSelectionRequestENS_3pin13EmptyResponseEEE = comdat any

$_ZTVN6device15DeviceOperationINS_33CtapAuthenticatorSelectionRequestENS_3pin13EmptyResponseEEE = comdat any

$_ZTVN6device20Ctap2DeviceOperationINS_3pin17PinRetriesRequestENS1_15RetriesResponseEEE = comdat any

$_ZTVN6device15DeviceOperationINS_3pin17PinRetriesRequestENS1_15RetriesResponseEEE = comdat any

$_ZTVN6device20Ctap2DeviceOperationINS_3pin19KeyAgreementRequestENS1_20KeyAgreementResponseEEE = comdat any

$_ZTVN6device15DeviceOperationINS_3pin19KeyAgreementRequestENS1_20KeyAgreementResponseEEE = comdat any

$_ZTVN6device20Ctap2DeviceOperationINS_3pin30PinTokenWithPermissionsRequestENS1_13TokenResponseEEE = comdat any

$_ZTVN6device15DeviceOperationINS_3pin30PinTokenWithPermissionsRequestENS1_13TokenResponseEEE = comdat any

$_ZTVN6device20Ctap2DeviceOperationINS_3pin15PinTokenRequestENS1_13TokenResponseEEE = comdat any

$_ZTVN6device15DeviceOperationINS_3pin15PinTokenRequestENS1_13TokenResponseEEE = comdat any

$_ZTVN6device20Ctap2DeviceOperationINS_3pin10SetRequestENS1_13EmptyResponseEEE = comdat any

$_ZTVN6device15DeviceOperationINS_3pin10SetRequestENS1_13EmptyResponseEEE = comdat any

$_ZTVN6device20Ctap2DeviceOperationINS_3pin13ChangeRequestENS1_13EmptyResponseEEE = comdat any

$_ZTVN6device15DeviceOperationINS_3pin13ChangeRequestENS1_13EmptyResponseEEE = comdat any

$_ZTVN6device20Ctap2DeviceOperationINS_27CredentialManagementRequestENS_27CredentialsMetadataResponseEEE = comdat any

$_ZTVN6device15DeviceOperationINS_27CredentialManagementRequestENS_27CredentialsMetadataResponseEEE = comdat any

$_ZTVN6device20Ctap2DeviceOperationINS_27CredentialManagementRequestENS_20EnumerateRPsResponseEEE = comdat any

$_ZTVN6device15DeviceOperationINS_27CredentialManagementRequestENS_20EnumerateRPsResponseEEE = comdat any

$_ZTVN6device20Ctap2DeviceOperationINS_27CredentialManagementRequestENS_28EnumerateCredentialsResponseEEE = comdat any

$_ZTVN6device15DeviceOperationINS_27CredentialManagementRequestENS_28EnumerateCredentialsResponseEEE = comdat any

$_ZTVN6device20Ctap2DeviceOperationINS_27CredentialManagementRequestENS_3pin13EmptyResponseEEE = comdat any

$_ZTVN6device15DeviceOperationINS_27CredentialManagementRequestENS_3pin13EmptyResponseEEE = comdat any

$_ZTVN6device20Ctap2DeviceOperationINS_20BioEnrollmentRequestENS_21BioEnrollmentResponseEEE = comdat any

$_ZTVN6device15DeviceOperationINS_20BioEnrollmentRequestENS_21BioEnrollmentResponseEEE = comdat any

$_ZTVN6device20Ctap2DeviceOperationINS_17LargeBlobsRequestENS_18LargeBlobsResponseEEE = comdat any

$_ZTVN6device15DeviceOperationINS_17LargeBlobsRequestENS_18LargeBlobsResponseEEE = comdat any

$_ZTVN6device20Ctap2DeviceOperationINS_3pin12ResetRequestENS1_13EmptyResponseEEE = comdat any

$_ZTVN6device15DeviceOperationINS_3pin12ResetRequestENS1_13EmptyResponseEEE = comdat any

$_ZTVN6device20Ctap2DeviceOperationINS_3pin16UvRetriesRequestENS1_15RetriesResponseEEE = comdat any

$_ZTVN6device15DeviceOperationINS_3pin16UvRetriesRequestENS1_15RetriesResponseEEE = comdat any

$_ZTVN6device20Ctap2DeviceOperationINS_3pin14UvTokenRequestENS1_13TokenResponseEEE = comdat any

$_ZTVN6device15DeviceOperationINS_3pin14UvTokenRequestENS1_13TokenResponseEEE = comdat any

@_ZTVN6device23FidoDeviceAuthenticatorE = hidden unnamed_addr constant { [50 x i8*] } { [50 x i8*] [i8* null, i8* null, i8* bitcast (void (%"class.device::FidoDeviceAuthenticator"*)* @_ZN6device23FidoDeviceAuthenticatorD2Ev to i8*), i8* bitcast (void (%"class.device::FidoDeviceAuthenticator"*)* @_ZN6device23FidoDeviceAuthenticatorD0Ev to i8*), i8* bitcast (void (%"class.device::FidoDeviceAuthenticator"*, %"class.base::OnceCallback"*)* @_ZN6device23FidoDeviceAuthenticator23InitializeAuthenticatorEN4base12OnceCallbackIFvvEEE to i8*), i8* bitcast (void (%"class.device::FidoDeviceAuthenticator"*, %"struct.device::CtapMakeCredentialRequest"*, %"class.base::OnceCallback.160"*)* @_ZN6device23FidoDeviceAuthenticator14MakeCredentialENS_25CtapMakeCredentialRequestEN4base12OnceCallbackIFvNS_22CtapDeviceResponseCodeEN4absl8optionalINS_35AuthenticatorMakeCredentialResponseEEEEEE to i8*), i8* bitcast (void (%"class.device::FidoDeviceAuthenticator"*, %"struct.device::CtapGetAssertionRequest"*, %"struct.device::CtapGetAssertionOptions"*, %"class.base::OnceCallback.201"*)* @_ZN6device23FidoDeviceAuthenticator12GetAssertionENS_23CtapGetAssertionRequestENS_23CtapGetAssertionOptionsEN4base12OnceCallbackIFvNS_22CtapDeviceResponseCodeEN4absl8optionalINS_33AuthenticatorGetAssertionResponseEEEEEE to i8*), i8* bitcast (void (%"class.device::FidoDeviceAuthenticator"*, %"class.base::OnceCallback.201"*)* @_ZN6device23FidoDeviceAuthenticator16GetNextAssertionEN4base12OnceCallbackIFvNS_22CtapDeviceResponseCodeEN4absl8optionalINS_33AuthenticatorGetAssertionResponseEEEEEE to i8*), i8* bitcast (void (%"class.device::FidoDeviceAuthenticator"*, %"class.base::OnceCallback"*)* @_ZN6device23FidoDeviceAuthenticator8GetTouchEN4base12OnceCallbackIFvvEEE to i8*), i8* bitcast (void (%"class.device::FidoDeviceAuthenticator"*, %"class.base::OnceCallback.268"*)* @_ZN6device23FidoDeviceAuthenticator13GetPinRetriesEN4base12OnceCallbackIFvNS_22CtapDeviceResponseCodeEN4absl8optionalINS_3pin15RetriesResponseEEEEEE to i8*), i8* bitcast (void (%"class.device::FidoDeviceAuthenticator"*, %"class.base::OnceCallback.268"*)* @_ZN6device23FidoDeviceAuthenticator12GetUvRetriesEN4base12OnceCallbackIFvNS_22CtapDeviceResponseCodeEN4absl8optionalINS_3pin15RetriesResponseEEEEEE to i8*), i8* bitcast (void (%"class.device::FidoDeviceAuthenticator"*, %"class.std::__1::basic_string"*, %"class.std::__1::vector.272"*, %"class.absl::optional.100"*, %"class.base::OnceCallback.279"*)* @_ZN6device23FidoDeviceAuthenticator11GetPINTokenENSt3__112basic_stringIcNS1_11char_traitsIcEENS1_9allocatorIcEEEENS1_6vectorINS_3pin11PermissionsENS5_ISA_EEEEN4absl8optionalIS7_EEN4base12OnceCallbackIFvNS_22CtapDeviceResponseCodeENSE_INS9_13TokenResponseEEEEEE to i8*), i8* bitcast (i1 (%"class.device::FidoDeviceAuthenticator"*)* @_ZN6device23FidoDeviceAuthenticator13CanGetUvTokenEv to i8*), i8* bitcast (void (%"class.device::FidoDeviceAuthenticator"*, %"class.std::__1::vector.272"*, %"class.absl::optional.100"*, %"class.base::OnceCallback.279"*)* @_ZN6device23FidoDeviceAuthenticator10GetUvTokenENSt3__16vectorINS_3pin11PermissionsENS1_9allocatorIS4_EEEEN4absl8optionalINS1_12basic_stringIcNS1_11char_traitsIcEENS5_IcEEEEEEN4base12OnceCallbackIFvNS_22CtapDeviceResponseCodeENS9_INS3_13TokenResponseEEEEEE to i8*), i8* bitcast (i32 (%"class.device::FidoDeviceAuthenticator"*)* @_ZN6device23FidoDeviceAuthenticator19CurrentMinPINLengthEv to i8*), i8* bitcast (i32 (%"class.device::FidoDeviceAuthenticator"*)* @_ZN6device23FidoDeviceAuthenticator15NewMinPINLengthEv to i8*), i8* bitcast (i1 (%"class.device::FidoDeviceAuthenticator"*)* @_ZN6device23FidoDeviceAuthenticator14ForcePINChangeEv to i8*), i8* bitcast (void (%"class.device::FidoDeviceAuthenticator"*, %"class.std::__1::basic_string"*, %"class.base::OnceCallback.259"*)* @_ZN6device23FidoDeviceAuthenticator6SetPINERKNSt3__112basic_stringIcNS1_11char_traitsIcEENS1_9allocatorIcEEEEN4base12OnceCallbackIFvNS_22CtapDeviceResponseCodeEN4absl8optionalINS_3pin13EmptyResponseEEEEEE to i8*), i8* bitcast (void (%"class.device::FidoDeviceAuthenticator"*, %"class.std::__1::basic_string"*, %"class.std::__1::basic_string"*, %"class.base::OnceCallback.259"*)* @_ZN6device23FidoDeviceAuthenticator9ChangePINERKNSt3__112basic_stringIcNS1_11char_traitsIcEENS1_9allocatorIcEEEES9_N4base12OnceCallbackIFvNS_22CtapDeviceResponseCodeEN4absl8optionalINS_3pin13EmptyResponseEEEEEE to i8*), i8* bitcast (i32 (%"class.device::FidoDeviceAuthenticator"*, %"struct.device::CtapMakeCredentialRequest"*, %"class.device::FidoRequestHandlerBase::Observer"*)* @_ZN6device23FidoDeviceAuthenticator33PINUVDispositionForMakeCredentialERKNS_25CtapMakeCredentialRequestEPKNS_22FidoRequestHandlerBase8ObserverE to i8*), i8* bitcast (i32 (%"class.device::FidoDeviceAuthenticator"*, %"struct.device::CtapGetAssertionRequest"*, %"class.device::FidoRequestHandlerBase::Observer"*)* @_ZN6device23FidoDeviceAuthenticator31PINUVDispositionForGetAssertionERKNS_23CtapGetAssertionRequestEPKNS_22FidoRequestHandlerBase8ObserverE to i8*), i8* bitcast (void (%"class.device::FidoDeviceAuthenticator"*, %"class.device::pin::TokenResponse"*, %"class.base::OnceCallback.282"*)* @_ZN6device23FidoDeviceAuthenticator22GetCredentialsMetadataERKNS_3pin13TokenResponseEN4base12OnceCallbackIFvNS_22CtapDeviceResponseCodeEN4absl8optionalINS_27CredentialsMetadataResponseEEEEEE to i8*), i8* bitcast (void (%"class.device::FidoDeviceAuthenticator"*, %"class.device::pin::TokenResponse"*, %"class.base::OnceCallback.290"*)* @_ZN6device23FidoDeviceAuthenticator20EnumerateCredentialsERKNS_3pin13TokenResponseEN4base12OnceCallbackIFvNS_22CtapDeviceResponseCodeEN4absl8optionalINSt3__16vectorINS_38AggregatedEnumerateCredentialsResponseENSA_9allocatorISC_EEEEEEEEE to i8*), i8* bitcast (void (%"class.device::FidoDeviceAuthenticator"*, %"class.device::pin::TokenResponse"*, %"class.device::PublicKeyCredentialDescriptor"*, %"class.base::OnceCallback.259"*)* @_ZN6device23FidoDeviceAuthenticator16DeleteCredentialERKNS_3pin13TokenResponseERKNS_29PublicKeyCredentialDescriptorEN4base12OnceCallbackIFvNS_22CtapDeviceResponseCodeEN4absl8optionalINS1_13EmptyResponseEEEEEE to i8*), i8* bitcast (void (%"class.device::FidoDeviceAuthenticator"*, %"class.base::OnceCallback.336"*)* @_ZN6device23FidoDeviceAuthenticator11GetModalityEN4base12OnceCallbackIFvNS_22CtapDeviceResponseCodeEN4absl8optionalINS_21BioEnrollmentResponseEEEEEE to i8*), i8* bitcast (void (%"class.device::FidoDeviceAuthenticator"*, %"class.base::OnceCallback.336"*)* @_ZN6device23FidoDeviceAuthenticator13GetSensorInfoEN4base12OnceCallbackIFvNS_22CtapDeviceResponseCodeEN4absl8optionalINS_21BioEnrollmentResponseEEEEEE to i8*), i8* bitcast (void (%"class.device::FidoDeviceAuthenticator"*, %"class.device::pin::TokenResponse"*, %"class.absl::optional.145"*, %"class.base::OnceCallback.336"*)* @_ZN6device23FidoDeviceAuthenticator20BioEnrollFingerprintERKNS_3pin13TokenResponseEN4absl8optionalINSt3__16vectorIhNS7_9allocatorIhEEEEEEN4base12OnceCallbackIFvNS_22CtapDeviceResponseCodeENS6_INS_21BioEnrollmentResponseEEEEEE to i8*), i8* bitcast (void (%"class.device::FidoDeviceAuthenticator"*, %"class.base::OnceCallback.336"*)* @_ZN6device23FidoDeviceAuthenticator15BioEnrollCancelEN4base12OnceCallbackIFvNS_22CtapDeviceResponseCodeEN4absl8optionalINS_21BioEnrollmentResponseEEEEEE to i8*), i8* bitcast (void (%"class.device::FidoDeviceAuthenticator"*, %"class.device::pin::TokenResponse"*, %"class.base::OnceCallback.336"*)* @_ZN6device23FidoDeviceAuthenticator18BioEnrollEnumerateERKNS_3pin13TokenResponseEN4base12OnceCallbackIFvNS_22CtapDeviceResponseCodeEN4absl8optionalINS_21BioEnrollmentResponseEEEEEE to i8*), i8* bitcast (void (%"class.device::FidoDeviceAuthenticator"*, %"class.device::pin::TokenResponse"*, %"class.std::__1::vector.116"*, %"class.std::__1::basic_string"*, %"class.base::OnceCallback.336"*)* @_ZN6device23FidoDeviceAuthenticator15BioEnrollRenameERKNS_3pin13TokenResponseENSt3__16vectorIhNS5_9allocatorIhEEEENS5_12basic_stringIcNS5_11char_traitsIcEENS7_IcEEEEN4base12OnceCallbackIFvNS_22CtapDeviceResponseCodeEN4absl8optionalINS_21BioEnrollmentResponseEEEEEE to i8*), i8* bitcast (void (%"class.device::FidoDeviceAuthenticator"*, %"class.device::pin::TokenResponse"*, %"class.std::__1::vector.116"*, %"class.base::OnceCallback.336"*)* @_ZN6device23FidoDeviceAuthenticator15BioEnrollDeleteERKNS_3pin13TokenResponseENSt3__16vectorIhNS5_9allocatorIhEEEEN4base12OnceCallbackIFvNS_22CtapDeviceResponseCodeEN4absl8optionalINS_21BioEnrollmentResponseEEEEEE to i8*), i8* bitcast (void (%"class.device::FidoDeviceAuthenticator"*, %"class.std::__1::vector.116"*, %"struct.std::__1::array.99"*, %"class.absl::optional.150"*, %"class.base::OnceCallback.349"*)* @_ZN6device23FidoDeviceAuthenticator14WriteLargeBlobERKNSt3__16vectorIhNS1_9allocatorIhEEEERKNS1_5arrayIhLm32EEEN4absl8optionalINS_3pin13TokenResponseEEEN4base12OnceCallbackIFvNS_22CtapDeviceResponseCodeEEEE to i8*), i8* bitcast (void (%"class.device::FidoDeviceAuthenticator"*, %"class.std::__1::vector.305"*, %"class.absl::optional.150"*, %"class.base::OnceCallback.358"*)* @_ZN6device23FidoDeviceAuthenticator13ReadLargeBlobERKNSt3__16vectorINS1_5arrayIhLm32EEENS1_9allocatorIS4_EEEEN4absl8optionalINS_3pin13TokenResponseEEEN4base12OnceCallbackIFvNS_22CtapDeviceResponseCodeENSB_INS2_INS1_4pairIS4_NS2_IhNS5_IhEEEEEENS5_ISL_EEEEEEEEE to i8*), i8* bitcast (void (%"class.absl::optional.400"*, %"class.device::FidoDeviceAuthenticator"*)* @_ZN6device23FidoDeviceAuthenticator13GetAlgorithmsEv to i8*), i8* bitcast (i1 (%"class.device::FidoDeviceAuthenticator"*)* @_ZNK6device23FidoDeviceAuthenticator33DiscoverableCredentialStorageFullEv to i8*), i8* bitcast (void (%"class.device::FidoDeviceAuthenticator"*, %"class.base::OnceCallback.259"*)* @_ZN6device23FidoDeviceAuthenticator5ResetEN4base12OnceCallbackIFvNS_22CtapDeviceResponseCodeEN4absl8optionalINS_3pin13EmptyResponseEEEEEE to i8*), i8* bitcast (void (%"class.device::FidoDeviceAuthenticator"*)* @_ZN6device23FidoDeviceAuthenticator6CancelEv to i8*), i8* bitcast (void (%"class.std::__1::basic_string"*, %"class.device::FidoDeviceAuthenticator"*)* @_ZNK6device23FidoDeviceAuthenticator5GetIdEv to i8*), i8* bitcast (void (%"class.std::__1::basic_string"*, %"class.device::FidoDeviceAuthenticator"*)* @_ZNK6device23FidoDeviceAuthenticator14GetDisplayNameEv to i8*), i8* bitcast (i32 (%"class.device::FidoDeviceAuthenticator"*)* @_ZNK6device23FidoDeviceAuthenticator17SupportedProtocolEv to i8*), i8* bitcast (i1 (%"class.device::FidoAuthenticator"*)* @_ZNK6device17FidoAuthenticator28SupportsCredProtectExtensionEv to i8*), i8* bitcast (i1 (%"class.device::FidoDeviceAuthenticator"*)* @_ZNK6device23FidoDeviceAuthenticator27SupportsHMACSecretExtensionEv to i8*), i8* bitcast (i1 (%"class.device::FidoDeviceAuthenticator"*)* @_ZNK6device23FidoDeviceAuthenticator29SupportsEnterpriseAttestationEv to i8*), i8* bitcast (i1 (%"class.device::FidoDeviceAuthenticator"*, i64)* @_ZNK6device23FidoDeviceAuthenticator22SupportsCredBlobOfSizeEm to i8*), i8* bitcast (%"class.absl::optional.64"* (%"class.device::FidoDeviceAuthenticator"*)* @_ZNK6device23FidoDeviceAuthenticator7OptionsEv to i8*), i8* bitcast (i16 (%"class.device::FidoDeviceAuthenticator"*)* @_ZNK6device23FidoDeviceAuthenticator22AuthenticatorTransportEv to i8*), i8* bitcast (i1 (%"class.device::FidoDeviceAuthenticator"*)* @_ZNK6device23FidoDeviceAuthenticator15IsInPairingModeEv to i8*), i8* bitcast (i1 (%"class.device::FidoDeviceAuthenticator"*)* @_ZNK6device23FidoDeviceAuthenticator8IsPairedEv to i8*), i8* bitcast (i1 (%"class.device::FidoDeviceAuthenticator"*)* @_ZNK6device23FidoDeviceAuthenticator21RequiresBlePairingPinEv to i8*), i8* bitcast (void (%"class.base::WeakPtr.411"*, %"class.device::FidoDeviceAuthenticator"*)* @_ZN6device23FidoDeviceAuthenticator10GetWeakPtrEv to i8*)] }, align 8
@.str = private unnamed_addr constant [24 x i8] c"InitializeAuthenticator\00", align 1
@.str.1 = private unnamed_addr constant [47 x i8] c"../../device/fido/fido_device_authenticator.cc\00", align 1
@_ZZN6device23FidoDeviceAuthenticator13GetAlgorithmsEvE14kU2fAlgorithms = internal constant [1 x i32] [i32 -7], align 4
@_ZN6device20kExtensionHmacSecretE = external constant [0 x i8], align 1
@_ZN6deviceL13kMinPinLengthE = internal unnamed_addr constant i32 4, align 4
@.str.2 = private unnamed_addr constant [29 x i8] c"../../base/memory/weak_ptr.h\00", align 1
@.str.3 = private unnamed_addr constant [15 x i8] c"ref_.IsValid()\00", align 1
@_ZTVN6device20Ctap2DeviceOperationINS_27CtapGetNextAssertionRequestENS_33AuthenticatorGetAssertionResponseEEE = linkonce_odr hidden unnamed_addr constant { [6 x i8*] } { [6 x i8*] [i8* null, i8* null, i8* bitcast (void (%"class.device::Ctap2DeviceOperation"*)* @_ZN6device20Ctap2DeviceOperationINS_27CtapGetNextAssertionRequestENS_33AuthenticatorGetAssertionResponseEED2Ev to i8*), i8* bitcast (void (%"class.device::Ctap2DeviceOperation"*)* @_ZN6device20Ctap2DeviceOperationINS_27CtapGetNextAssertionRequestENS_33AuthenticatorGetAssertionResponseEED0Ev to i8*), i8* bitcast (void (%"class.device::Ctap2DeviceOperation"*)* @_ZN6device20Ctap2DeviceOperationINS_27CtapGetNextAssertionRequestENS_33AuthenticatorGetAssertionResponseEE5StartEv to i8*), i8* bitcast (void (%"class.device::Ctap2DeviceOperation"*)* @_ZN6device20Ctap2DeviceOperationINS_27CtapGetNextAssertionRequestENS_33AuthenticatorGetAssertionResponseEE6CancelEv to i8*)] }, comdat, align 8
@_ZTVN6device15DeviceOperationINS_27CtapGetNextAssertionRequestENS_33AuthenticatorGetAssertionResponseEEE = linkonce_odr hidden unnamed_addr constant { [6 x i8*] } { [6 x i8*] [i8* null, i8* null, i8* bitcast (void (%"class.device::DeviceOperation.559"*)* @_ZN6device15DeviceOperationINS_27CtapGetNextAssertionRequestENS_33AuthenticatorGetAssertionResponseEED2Ev to i8*), i8* bitcast (void (%"class.device::DeviceOperation.559"*)* @_ZN6device15DeviceOperationINS_27CtapGetNextAssertionRequestENS_33AuthenticatorGetAssertionResponseEED0Ev to i8*), i8* bitcast (void ()* @__cxa_pure_virtual to i8*), i8* bitcast (void ()* @__cxa_pure_virtual to i8*)] }, comdat, align 8
@.str.4 = private unnamed_addr constant [43 x i8] c"../../device/fido/ctap2_device_operation.h\00", align 1
@.str.5 = private unnamed_addr constant [4 x i8] c"<- \00", align 1
@.str.6 = private unnamed_addr constant [2 x i8] c" \00", align 1
@.str.7 = private unnamed_addr constant [14 x i8] c" (no payload)\00", align 1
@_ZNSt3__15ctypeIcE2idE = external global %"class.std::__1::locale::id", align 8
@.str.9 = private unnamed_addr constant [19 x i8] c"-> (error reading)\00", align 1
@.str.10 = private unnamed_addr constant [22 x i8] c"-> (CTAP2 error code \00", align 1
@.str.11 = private unnamed_addr constant [2 x i8] c")\00", align 1
@.str.12 = private unnamed_addr constant [23 x i8] c"-> (CBOR parse error '\00", align 1
@.str.13 = private unnamed_addr constant [20 x i8] c"' from raw message \00", align 1
@.str.14 = private unnamed_addr constant [55 x i8] c"-> (CBOR with unfixable UTF-8 errors from raw message \00", align 1
@.str.15 = private unnamed_addr constant [4 x i8] c"-> \00", align 1
@.str.16 = private unnamed_addr constant [30 x i8] c"-> (rejected CBOR structure) \00", align 1
@.str.17 = private unnamed_addr constant [19 x i8] c"-> (empty payload)\00", align 1
@.str.18 = private unnamed_addr constant [28 x i8] c"-> (rejected empty payload)\00", align 1
@.str.19 = private unnamed_addr constant [29 x i8] c"../../base/containers/span.h\00", align 1
@.str.20 = private unnamed_addr constant [17 x i8] c"offset <= size()\00", align 1
@.str.22 = private unnamed_addr constant [12 x i8] c"<- (cancel)\00", align 1
@.str.23 = private unnamed_addr constant [17 x i8] c"Ignoring status \00", align 1
@.str.24 = private unnamed_addr constant [7 x i8] c" from \00", align 1
@_ZTVN6device20Ctap2DeviceOperationINS_33CtapAuthenticatorSelectionRequestENS_3pin13EmptyResponseEEE = linkonce_odr hidden unnamed_addr constant { [6 x i8*] } { [6 x i8*] [i8* null, i8* null, i8* bitcast (void (%"class.device::Ctap2DeviceOperation.591"*)* @_ZN6device20Ctap2DeviceOperationINS_33CtapAuthenticatorSelectionRequestENS_3pin13EmptyResponseEED2Ev to i8*), i8* bitcast (void (%"class.device::Ctap2DeviceOperation.591"*)* @_ZN6device20Ctap2DeviceOperationINS_33CtapAuthenticatorSelectionRequestENS_3pin13EmptyResponseEED0Ev to i8*), i8* bitcast (void (%"class.device::Ctap2DeviceOperation.591"*)* @_ZN6device20Ctap2DeviceOperationINS_33CtapAuthenticatorSelectionRequestENS_3pin13EmptyResponseEE5StartEv to i8*), i8* bitcast (void (%"class.device::Ctap2DeviceOperation.591"*)* @_ZN6device20Ctap2DeviceOperationINS_33CtapAuthenticatorSelectionRequestENS_3pin13EmptyResponseEE6CancelEv to i8*)] }, comdat, align 8
@_ZTVN6device15DeviceOperationINS_33CtapAuthenticatorSelectionRequestENS_3pin13EmptyResponseEEE = linkonce_odr hidden unnamed_addr constant { [6 x i8*] } { [6 x i8*] [i8* null, i8* null, i8* bitcast (void (%"class.device::DeviceOperation.592"*)* @_ZN6device15DeviceOperationINS_33CtapAuthenticatorSelectionRequestENS_3pin13EmptyResponseEED2Ev to i8*), i8* bitcast (void (%"class.device::DeviceOperation.592"*)* @_ZN6device15DeviceOperationINS_33CtapAuthenticatorSelectionRequestENS_3pin13EmptyResponseEED0Ev to i8*), i8* bitcast (void ()* @__cxa_pure_virtual to i8*), i8* bitcast (void ()* @__cxa_pure_virtual to i8*)] }, comdat, align 8
@_ZTVN6device20Ctap2DeviceOperationINS_3pin17PinRetriesRequestENS1_15RetriesResponseEEE = linkonce_odr hidden unnamed_addr constant { [6 x i8*] } { [6 x i8*] [i8* null, i8* null, i8* bitcast (void (%"class.device::Ctap2DeviceOperation.617"*)* @_ZN6device20Ctap2DeviceOperationINS_3pin17PinRetriesRequestENS1_15RetriesResponseEED2Ev to i8*), i8* bitcast (void (%"class.device::Ctap2DeviceOperation.617"*)* @_ZN6device20Ctap2DeviceOperationINS_3pin17PinRetriesRequestENS1_15RetriesResponseEED0Ev to i8*), i8* bitcast (void (%"class.device::Ctap2DeviceOperation.617"*)* @_ZN6device20Ctap2DeviceOperationINS_3pin17PinRetriesRequestENS1_15RetriesResponseEE5StartEv to i8*), i8* bitcast (void (%"class.device::Ctap2DeviceOperation.617"*)* @_ZN6device20Ctap2DeviceOperationINS_3pin17PinRetriesRequestENS1_15RetriesResponseEE6CancelEv to i8*)] }, comdat, align 8
@_ZTVN6device15DeviceOperationINS_3pin17PinRetriesRequestENS1_15RetriesResponseEEE = linkonce_odr hidden unnamed_addr constant { [6 x i8*] } { [6 x i8*] [i8* null, i8* null, i8* bitcast (void (%"class.device::DeviceOperation.618"*)* @_ZN6device15DeviceOperationINS_3pin17PinRetriesRequestENS1_15RetriesResponseEED2Ev to i8*), i8* bitcast (void (%"class.device::DeviceOperation.618"*)* @_ZN6device15DeviceOperationINS_3pin17PinRetriesRequestENS1_15RetriesResponseEED0Ev to i8*), i8* bitcast (void ()* @__cxa_pure_virtual to i8*), i8* bitcast (void ()* @__cxa_pure_virtual to i8*)] }, comdat, align 8
@_ZTVN6device20Ctap2DeviceOperationINS_3pin19KeyAgreementRequestENS1_20KeyAgreementResponseEEE = linkonce_odr hidden unnamed_addr constant { [6 x i8*] } { [6 x i8*] [i8* null, i8* null, i8* bitcast (void (%"class.device::Ctap2DeviceOperation.638"*)* @_ZN6device20Ctap2DeviceOperationINS_3pin19KeyAgreementRequestENS1_20KeyAgreementResponseEED2Ev to i8*), i8* bitcast (void (%"class.device::Ctap2DeviceOperation.638"*)* @_ZN6device20Ctap2DeviceOperationINS_3pin19KeyAgreementRequestENS1_20KeyAgreementResponseEED0Ev to i8*), i8* bitcast (void (%"class.device::Ctap2DeviceOperation.638"*)* @_ZN6device20Ctap2DeviceOperationINS_3pin19KeyAgreementRequestENS1_20KeyAgreementResponseEE5StartEv to i8*), i8* bitcast (void (%"class.device::Ctap2DeviceOperation.638"*)* @_ZN6device20Ctap2DeviceOperationINS_3pin19KeyAgreementRequestENS1_20KeyAgreementResponseEE6CancelEv to i8*)] }, comdat, align 8
@_ZTVN6device15DeviceOperationINS_3pin19KeyAgreementRequestENS1_20KeyAgreementResponseEEE = linkonce_odr hidden unnamed_addr constant { [6 x i8*] } { [6 x i8*] [i8* null, i8* null, i8* bitcast (void (%"class.device::DeviceOperation.639"*)* @_ZN6device15DeviceOperationINS_3pin19KeyAgreementRequestENS1_20KeyAgreementResponseEED2Ev to i8*), i8* bitcast (void (%"class.device::DeviceOperation.639"*)* @_ZN6device15DeviceOperationINS_3pin19KeyAgreementRequestENS1_20KeyAgreementResponseEED0Ev to i8*), i8* bitcast (void ()* @__cxa_pure_virtual to i8*), i8* bitcast (void ()* @__cxa_pure_virtual to i8*)] }, comdat, align 8
@_ZTVN6device20Ctap2DeviceOperationINS_3pin30PinTokenWithPermissionsRequestENS1_13TokenResponseEEE = linkonce_odr hidden unnamed_addr constant { [6 x i8*] } { [6 x i8*] [i8* null, i8* null, i8* bitcast (void (%"class.device::Ctap2DeviceOperation.674"*)* @_ZN6device20Ctap2DeviceOperationINS_3pin30PinTokenWithPermissionsRequestENS1_13TokenResponseEED2Ev to i8*), i8* bitcast (void (%"class.device::Ctap2DeviceOperation.674"*)* @_ZN6device20Ctap2DeviceOperationINS_3pin30PinTokenWithPermissionsRequestENS1_13TokenResponseEED0Ev to i8*), i8* bitcast (void (%"class.device::Ctap2DeviceOperation.674"*)* @_ZN6device20Ctap2DeviceOperationINS_3pin30PinTokenWithPermissionsRequestENS1_13TokenResponseEE5StartEv to i8*), i8* bitcast (void (%"class.device::Ctap2DeviceOperation.674"*)* @_ZN6device20Ctap2DeviceOperationINS_3pin30PinTokenWithPermissionsRequestENS1_13TokenResponseEE6CancelEv to i8*)] }, comdat, align 8
@_ZTVN6device15DeviceOperationINS_3pin30PinTokenWithPermissionsRequestENS1_13TokenResponseEEE = linkonce_odr hidden unnamed_addr constant { [6 x i8*] } { [6 x i8*] [i8* null, i8* null, i8* bitcast (void (%"class.device::DeviceOperation.675"*)* @_ZN6device15DeviceOperationINS_3pin30PinTokenWithPermissionsRequestENS1_13TokenResponseEED2Ev to i8*), i8* bitcast (void (%"class.device::DeviceOperation.675"*)* @_ZN6device15DeviceOperationINS_3pin30PinTokenWithPermissionsRequestENS1_13TokenResponseEED0Ev to i8*), i8* bitcast (void ()* @__cxa_pure_virtual to i8*), i8* bitcast (void ()* @__cxa_pure_virtual to i8*)] }, comdat, align 8
@_ZTVN6device20Ctap2DeviceOperationINS_3pin15PinTokenRequestENS1_13TokenResponseEEE = linkonce_odr hidden unnamed_addr constant { [6 x i8*] } { [6 x i8*] [i8* null, i8* null, i8* bitcast (void (%"class.device::Ctap2DeviceOperation.694"*)* @_ZN6device20Ctap2DeviceOperationINS_3pin15PinTokenRequestENS1_13TokenResponseEED2Ev to i8*), i8* bitcast (void (%"class.device::Ctap2DeviceOperation.694"*)* @_ZN6device20Ctap2DeviceOperationINS_3pin15PinTokenRequestENS1_13TokenResponseEED0Ev to i8*), i8* bitcast (void (%"class.device::Ctap2DeviceOperation.694"*)* @_ZN6device20Ctap2DeviceOperationINS_3pin15PinTokenRequestENS1_13TokenResponseEE5StartEv to i8*), i8* bitcast (void (%"class.device::Ctap2DeviceOperation.694"*)* @_ZN6device20Ctap2DeviceOperationINS_3pin15PinTokenRequestENS1_13TokenResponseEE6CancelEv to i8*)] }, comdat, align 8
@_ZTVN6device15DeviceOperationINS_3pin15PinTokenRequestENS1_13TokenResponseEEE = linkonce_odr hidden unnamed_addr constant { [6 x i8*] } { [6 x i8*] [i8* null, i8* null, i8* bitcast (void (%"class.device::DeviceOperation.695"*)* @_ZN6device15DeviceOperationINS_3pin15PinTokenRequestENS1_13TokenResponseEED2Ev to i8*), i8* bitcast (void (%"class.device::DeviceOperation.695"*)* @_ZN6device15DeviceOperationINS_3pin15PinTokenRequestENS1_13TokenResponseEED0Ev to i8*), i8* bitcast (void ()* @__cxa_pure_virtual to i8*), i8* bitcast (void ()* @__cxa_pure_virtual to i8*)] }, comdat, align 8
@_ZTVN6device20Ctap2DeviceOperationINS_3pin10SetRequestENS1_13EmptyResponseEEE = linkonce_odr hidden unnamed_addr constant { [6 x i8*] } { [6 x i8*] [i8* null, i8* null, i8* bitcast (void (%"class.device::Ctap2DeviceOperation.716"*)* @_ZN6device20Ctap2DeviceOperationINS_3pin10SetRequestENS1_13EmptyResponseEED2Ev to i8*), i8* bitcast (void (%"class.device::Ctap2DeviceOperation.716"*)* @_ZN6device20Ctap2DeviceOperationINS_3pin10SetRequestENS1_13EmptyResponseEED0Ev to i8*), i8* bitcast (void (%"class.device::Ctap2DeviceOperation.716"*)* @_ZN6device20Ctap2DeviceOperationINS_3pin10SetRequestENS1_13EmptyResponseEE5StartEv to i8*), i8* bitcast (void (%"class.device::Ctap2DeviceOperation.716"*)* @_ZN6device20Ctap2DeviceOperationINS_3pin10SetRequestENS1_13EmptyResponseEE6CancelEv to i8*)] }, comdat, align 8
@_ZTVN6device15DeviceOperationINS_3pin10SetRequestENS1_13EmptyResponseEEE = linkonce_odr hidden unnamed_addr constant { [6 x i8*] } { [6 x i8*] [i8* null, i8* null, i8* bitcast (void (%"class.device::DeviceOperation.717"*)* @_ZN6device15DeviceOperationINS_3pin10SetRequestENS1_13EmptyResponseEED2Ev to i8*), i8* bitcast (void (%"class.device::DeviceOperation.717"*)* @_ZN6device15DeviceOperationINS_3pin10SetRequestENS1_13EmptyResponseEED0Ev to i8*), i8* bitcast (void ()* @__cxa_pure_virtual to i8*), i8* bitcast (void ()* @__cxa_pure_virtual to i8*)] }, comdat, align 8
@_ZTVN6device20Ctap2DeviceOperationINS_3pin13ChangeRequestENS1_13EmptyResponseEEE = linkonce_odr hidden unnamed_addr constant { [6 x i8*] } { [6 x i8*] [i8* null, i8* null, i8* bitcast (void (%"class.device::Ctap2DeviceOperation.737"*)* @_ZN6device20Ctap2DeviceOperationINS_3pin13ChangeRequestENS1_13EmptyResponseEED2Ev to i8*), i8* bitcast (void (%"class.device::Ctap2DeviceOperation.737"*)* @_ZN6device20Ctap2DeviceOperationINS_3pin13ChangeRequestENS1_13EmptyResponseEED0Ev to i8*), i8* bitcast (void (%"class.device::Ctap2DeviceOperation.737"*)* @_ZN6device20Ctap2DeviceOperationINS_3pin13ChangeRequestENS1_13EmptyResponseEE5StartEv to i8*), i8* bitcast (void (%"class.device::Ctap2DeviceOperation.737"*)* @_ZN6device20Ctap2DeviceOperationINS_3pin13ChangeRequestENS1_13EmptyResponseEE6CancelEv to i8*)] }, comdat, align 8
@_ZTVN6device15DeviceOperationINS_3pin13ChangeRequestENS1_13EmptyResponseEEE = linkonce_odr hidden unnamed_addr constant { [6 x i8*] } { [6 x i8*] [i8* null, i8* null, i8* bitcast (void (%"class.device::DeviceOperation.738"*)* @_ZN6device15DeviceOperationINS_3pin13ChangeRequestENS1_13EmptyResponseEED2Ev to i8*), i8* bitcast (void (%"class.device::DeviceOperation.738"*)* @_ZN6device15DeviceOperationINS_3pin13ChangeRequestENS1_13EmptyResponseEED0Ev to i8*), i8* bitcast (void ()* @__cxa_pure_virtual to i8*), i8* bitcast (void ()* @__cxa_pure_virtual to i8*)] }, comdat, align 8
@_ZTVN6device20Ctap2DeviceOperationINS_27CredentialManagementRequestENS_27CredentialsMetadataResponseEEE = linkonce_odr hidden unnamed_addr constant { [6 x i8*] } { [6 x i8*] [i8* null, i8* null, i8* bitcast (void (%"class.device::Ctap2DeviceOperation.757"*)* @_ZN6device20Ctap2DeviceOperationINS_27CredentialManagementRequestENS_27CredentialsMetadataResponseEED2Ev to i8*), i8* bitcast (void (%"class.device::Ctap2DeviceOperation.757"*)* @_ZN6device20Ctap2DeviceOperationINS_27CredentialManagementRequestENS_27CredentialsMetadataResponseEED0Ev to i8*), i8* bitcast (void (%"class.device::Ctap2DeviceOperation.757"*)* @_ZN6device20Ctap2DeviceOperationINS_27CredentialManagementRequestENS_27CredentialsMetadataResponseEE5StartEv to i8*), i8* bitcast (void (%"class.device::Ctap2DeviceOperation.757"*)* @_ZN6device20Ctap2DeviceOperationINS_27CredentialManagementRequestENS_27CredentialsMetadataResponseEE6CancelEv to i8*)] }, comdat, align 8
@_ZTVN6device15DeviceOperationINS_27CredentialManagementRequestENS_27CredentialsMetadataResponseEEE = linkonce_odr hidden unnamed_addr constant { [6 x i8*] } { [6 x i8*] [i8* null, i8* null, i8* bitcast (void (%"class.device::DeviceOperation.758"*)* @_ZN6device15DeviceOperationINS_27CredentialManagementRequestENS_27CredentialsMetadataResponseEED2Ev to i8*), i8* bitcast (void (%"class.device::DeviceOperation.758"*)* @_ZN6device15DeviceOperationINS_27CredentialManagementRequestENS_27CredentialsMetadataResponseEED0Ev to i8*), i8* bitcast (void ()* @__cxa_pure_virtual to i8*), i8* bitcast (void ()* @__cxa_pure_virtual to i8*)] }, comdat, align 8
@__const._ZN6device20Ctap2DeviceOperationINS_27CredentialManagementRequestENS_27CredentialsMetadataResponseEE18OnResponseReceivedEN4absl8optionalINSt3__16vectorIhNS6_9allocatorIhEEEEEE.response = private unnamed_addr constant { { { { i8, [7 x i8], %union.anon.425 } } } } { { { { i8, [7 x i8], %union.anon.425 } } } { { { i8, [7 x i8], %union.anon.425 } } { { i8, [7 x i8], %union.anon.425 } { i8 -86, [7 x i8] c"\AA\AA\AA\AA\AA\AA\AA", %union.anon.425 { %"struct.device::CredentialsMetadataResponse" { i64 -6148914691236517206, i64 -6148914691236517206 } } } } } }, align 8
@_ZTVN6device20Ctap2DeviceOperationINS_27CredentialManagementRequestENS_20EnumerateRPsResponseEEE = linkonce_odr hidden unnamed_addr constant { [6 x i8*] } { [6 x i8*] [i8* null, i8* null, i8* bitcast (void (%"class.device::Ctap2DeviceOperation.787"*)* @_ZN6device20Ctap2DeviceOperationINS_27CredentialManagementRequestENS_20EnumerateRPsResponseEED2Ev to i8*), i8* bitcast (void (%"class.device::Ctap2DeviceOperation.787"*)* @_ZN6device20Ctap2DeviceOperationINS_27CredentialManagementRequestENS_20EnumerateRPsResponseEED0Ev to i8*), i8* bitcast (void (%"class.device::Ctap2DeviceOperation.787"*)* @_ZN6device20Ctap2DeviceOperationINS_27CredentialManagementRequestENS_20EnumerateRPsResponseEE5StartEv to i8*), i8* bitcast (void (%"class.device::Ctap2DeviceOperation.787"*)* @_ZN6device20Ctap2DeviceOperationINS_27CredentialManagementRequestENS_20EnumerateRPsResponseEE6CancelEv to i8*)] }, comdat, align 8
@_ZTVN6device15DeviceOperationINS_27CredentialManagementRequestENS_20EnumerateRPsResponseEEE = linkonce_odr hidden unnamed_addr constant { [6 x i8*] } { [6 x i8*] [i8* null, i8* null, i8* bitcast (void (%"class.device::DeviceOperation.788"*)* @_ZN6device15DeviceOperationINS_27CredentialManagementRequestENS_20EnumerateRPsResponseEED2Ev to i8*), i8* bitcast (void (%"class.device::DeviceOperation.788"*)* @_ZN6device15DeviceOperationINS_27CredentialManagementRequestENS_20EnumerateRPsResponseEED0Ev to i8*), i8* bitcast (void ()* @__cxa_pure_virtual to i8*), i8* bitcast (void ()* @__cxa_pure_virtual to i8*)] }, comdat, align 8
@_ZTVN6device20Ctap2DeviceOperationINS_27CredentialManagementRequestENS_28EnumerateCredentialsResponseEEE = linkonce_odr hidden unnamed_addr constant { [6 x i8*] } { [6 x i8*] [i8* null, i8* null, i8* bitcast (void (%"class.device::Ctap2DeviceOperation.821"*)* @_ZN6device20Ctap2DeviceOperationINS_27CredentialManagementRequestENS_28EnumerateCredentialsResponseEED2Ev to i8*), i8* bitcast (void (%"class.device::Ctap2DeviceOperation.821"*)* @_ZN6device20Ctap2DeviceOperationINS_27CredentialManagementRequestENS_28EnumerateCredentialsResponseEED0Ev to i8*), i8* bitcast (void (%"class.device::Ctap2DeviceOperation.821"*)* @_ZN6device20Ctap2DeviceOperationINS_27CredentialManagementRequestENS_28EnumerateCredentialsResponseEE5StartEv to i8*), i8* bitcast (void (%"class.device::Ctap2DeviceOperation.821"*)* @_ZN6device20Ctap2DeviceOperationINS_27CredentialManagementRequestENS_28EnumerateCredentialsResponseEE6CancelEv to i8*)] }, comdat, align 8
@_ZTVN6device15DeviceOperationINS_27CredentialManagementRequestENS_28EnumerateCredentialsResponseEEE = linkonce_odr hidden unnamed_addr constant { [6 x i8*] } { [6 x i8*] [i8* null, i8* null, i8* bitcast (void (%"class.device::DeviceOperation.822"*)* @_ZN6device15DeviceOperationINS_27CredentialManagementRequestENS_28EnumerateCredentialsResponseEED2Ev to i8*), i8* bitcast (void (%"class.device::DeviceOperation.822"*)* @_ZN6device15DeviceOperationINS_27CredentialManagementRequestENS_28EnumerateCredentialsResponseEED0Ev to i8*), i8* bitcast (void ()* @__cxa_pure_virtual to i8*), i8* bitcast (void ()* @__cxa_pure_virtual to i8*)] }, comdat, align 8
@_ZTVN6device20Ctap2DeviceOperationINS_27CredentialManagementRequestENS_3pin13EmptyResponseEEE = linkonce_odr hidden unnamed_addr constant { [6 x i8*] } { [6 x i8*] [i8* null, i8* null, i8* bitcast (void (%"class.device::Ctap2DeviceOperation.848"*)* @_ZN6device20Ctap2DeviceOperationINS_27CredentialManagementRequestENS_3pin13EmptyResponseEED2Ev to i8*), i8* bitcast (void (%"class.device::Ctap2DeviceOperation.848"*)* @_ZN6device20Ctap2DeviceOperationINS_27CredentialManagementRequestENS_3pin13EmptyResponseEED0Ev to i8*), i8* bitcast (void (%"class.device::Ctap2DeviceOperation.848"*)* @_ZN6device20Ctap2DeviceOperationINS_27CredentialManagementRequestENS_3pin13EmptyResponseEE5StartEv to i8*), i8* bitcast (void (%"class.device::Ctap2DeviceOperation.848"*)* @_ZN6device20Ctap2DeviceOperationINS_27CredentialManagementRequestENS_3pin13EmptyResponseEE6CancelEv to i8*)] }, comdat, align 8
@_ZTVN6device15DeviceOperationINS_27CredentialManagementRequestENS_3pin13EmptyResponseEEE = linkonce_odr hidden unnamed_addr constant { [6 x i8*] } { [6 x i8*] [i8* null, i8* null, i8* bitcast (void (%"class.device::DeviceOperation.849"*)* @_ZN6device15DeviceOperationINS_27CredentialManagementRequestENS_3pin13EmptyResponseEED2Ev to i8*), i8* bitcast (void (%"class.device::DeviceOperation.849"*)* @_ZN6device15DeviceOperationINS_27CredentialManagementRequestENS_3pin13EmptyResponseEED0Ev to i8*), i8* bitcast (void ()* @__cxa_pure_virtual to i8*), i8* bitcast (void ()* @__cxa_pure_virtual to i8*)] }, comdat, align 8
@_ZTVN6device20Ctap2DeviceOperationINS_20BioEnrollmentRequestENS_21BioEnrollmentResponseEEE = linkonce_odr hidden unnamed_addr constant { [6 x i8*] } { [6 x i8*] [i8* null, i8* null, i8* bitcast (void (%"class.device::Ctap2DeviceOperation.864"*)* @_ZN6device20Ctap2DeviceOperationINS_20BioEnrollmentRequestENS_21BioEnrollmentResponseEED2Ev to i8*), i8* bitcast (void (%"class.device::Ctap2DeviceOperation.864"*)* @_ZN6device20Ctap2DeviceOperationINS_20BioEnrollmentRequestENS_21BioEnrollmentResponseEED0Ev to i8*), i8* bitcast (void (%"class.device::Ctap2DeviceOperation.864"*)* @_ZN6device20Ctap2DeviceOperationINS_20BioEnrollmentRequestENS_21BioEnrollmentResponseEE5StartEv to i8*), i8* bitcast (void (%"class.device::Ctap2DeviceOperation.864"*)* @_ZN6device20Ctap2DeviceOperationINS_20BioEnrollmentRequestENS_21BioEnrollmentResponseEE6CancelEv to i8*)] }, comdat, align 8
@_ZTVN6device15DeviceOperationINS_20BioEnrollmentRequestENS_21BioEnrollmentResponseEEE = linkonce_odr hidden unnamed_addr constant { [6 x i8*] } { [6 x i8*] [i8* null, i8* null, i8* bitcast (void (%"class.device::DeviceOperation.865"*)* @_ZN6device15DeviceOperationINS_20BioEnrollmentRequestENS_21BioEnrollmentResponseEED2Ev to i8*), i8* bitcast (void (%"class.device::DeviceOperation.865"*)* @_ZN6device15DeviceOperationINS_20BioEnrollmentRequestENS_21BioEnrollmentResponseEED0Ev to i8*), i8* bitcast (void ()* @__cxa_pure_virtual to i8*), i8* bitcast (void ()* @__cxa_pure_virtual to i8*)] }, comdat, align 8
@_ZTVN6device20Ctap2DeviceOperationINS_17LargeBlobsRequestENS_18LargeBlobsResponseEEE = linkonce_odr hidden unnamed_addr constant { [6 x i8*] } { [6 x i8*] [i8* null, i8* null, i8* bitcast (void (%"class.device::Ctap2DeviceOperation.912"*)* @_ZN6device20Ctap2DeviceOperationINS_17LargeBlobsRequestENS_18LargeBlobsResponseEED2Ev to i8*), i8* bitcast (void (%"class.device::Ctap2DeviceOperation.912"*)* @_ZN6device20Ctap2DeviceOperationINS_17LargeBlobsRequestENS_18LargeBlobsResponseEED0Ev to i8*), i8* bitcast (void (%"class.device::Ctap2DeviceOperation.912"*)* @_ZN6device20Ctap2DeviceOperationINS_17LargeBlobsRequestENS_18LargeBlobsResponseEE5StartEv to i8*), i8* bitcast (void (%"class.device::Ctap2DeviceOperation.912"*)* @_ZN6device20Ctap2DeviceOperationINS_17LargeBlobsRequestENS_18LargeBlobsResponseEE6CancelEv to i8*)] }, comdat, align 8
@_ZTVN6device15DeviceOperationINS_17LargeBlobsRequestENS_18LargeBlobsResponseEEE = linkonce_odr hidden unnamed_addr constant { [6 x i8*] } { [6 x i8*] [i8* null, i8* null, i8* bitcast (void (%"class.device::DeviceOperation.913"*)* @_ZN6device15DeviceOperationINS_17LargeBlobsRequestENS_18LargeBlobsResponseEED2Ev to i8*), i8* bitcast (void (%"class.device::DeviceOperation.913"*)* @_ZN6device15DeviceOperationINS_17LargeBlobsRequestENS_18LargeBlobsResponseEED0Ev to i8*), i8* bitcast (void ()* @__cxa_pure_virtual to i8*), i8* bitcast (void ()* @__cxa_pure_virtual to i8*)] }, comdat, align 8
@_ZTVN6device20Ctap2DeviceOperationINS_3pin12ResetRequestENS1_13EmptyResponseEEE = linkonce_odr hidden unnamed_addr constant { [6 x i8*] } { [6 x i8*] [i8* null, i8* null, i8* bitcast (void (%"class.device::Ctap2DeviceOperation.958"*)* @_ZN6device20Ctap2DeviceOperationINS_3pin12ResetRequestENS1_13EmptyResponseEED2Ev to i8*), i8* bitcast (void (%"class.device::Ctap2DeviceOperation.958"*)* @_ZN6device20Ctap2DeviceOperationINS_3pin12ResetRequestENS1_13EmptyResponseEED0Ev to i8*), i8* bitcast (void (%"class.device::Ctap2DeviceOperation.958"*)* @_ZN6device20Ctap2DeviceOperationINS_3pin12ResetRequestENS1_13EmptyResponseEE5StartEv to i8*), i8* bitcast (void (%"class.device::Ctap2DeviceOperation.958"*)* @_ZN6device20Ctap2DeviceOperationINS_3pin12ResetRequestENS1_13EmptyResponseEE6CancelEv to i8*)] }, comdat, align 8
@_ZTVN6device15DeviceOperationINS_3pin12ResetRequestENS1_13EmptyResponseEEE = linkonce_odr hidden unnamed_addr constant { [6 x i8*] } { [6 x i8*] [i8* null, i8* null, i8* bitcast (void (%"class.device::DeviceOperation.959"*)* @_ZN6device15DeviceOperationINS_3pin12ResetRequestENS1_13EmptyResponseEED2Ev to i8*), i8* bitcast (void (%"class.device::DeviceOperation.959"*)* @_ZN6device15DeviceOperationINS_3pin12ResetRequestENS1_13EmptyResponseEED0Ev to i8*), i8* bitcast (void ()* @__cxa_pure_virtual to i8*), i8* bitcast (void ()* @__cxa_pure_virtual to i8*)] }, comdat, align 8
@_ZTVN6device20Ctap2DeviceOperationINS_3pin16UvRetriesRequestENS1_15RetriesResponseEEE = linkonce_odr hidden unnamed_addr constant { [6 x i8*] } { [6 x i8*] [i8* null, i8* null, i8* bitcast (void (%"class.device::Ctap2DeviceOperation.973"*)* @_ZN6device20Ctap2DeviceOperationINS_3pin16UvRetriesRequestENS1_15RetriesResponseEED2Ev to i8*), i8* bitcast (void (%"class.device::Ctap2DeviceOperation.973"*)* @_ZN6device20Ctap2DeviceOperationINS_3pin16UvRetriesRequestENS1_15RetriesResponseEED0Ev to i8*), i8* bitcast (void (%"class.device::Ctap2DeviceOperation.973"*)* @_ZN6device20Ctap2DeviceOperationINS_3pin16UvRetriesRequestENS1_15RetriesResponseEE5StartEv to i8*), i8* bitcast (void (%"class.device::Ctap2DeviceOperation.973"*)* @_ZN6device20Ctap2DeviceOperationINS_3pin16UvRetriesRequestENS1_15RetriesResponseEE6CancelEv to i8*)] }, comdat, align 8
@_ZTVN6device15DeviceOperationINS_3pin16UvRetriesRequestENS1_15RetriesResponseEEE = linkonce_odr hidden unnamed_addr constant { [6 x i8*] } { [6 x i8*] [i8* null, i8* null, i8* bitcast (void (%"class.device::DeviceOperation.974"*)* @_ZN6device15DeviceOperationINS_3pin16UvRetriesRequestENS1_15RetriesResponseEED2Ev to i8*), i8* bitcast (void (%"class.device::DeviceOperation.974"*)* @_ZN6device15DeviceOperationINS_3pin16UvRetriesRequestENS1_15RetriesResponseEED0Ev to i8*), i8* bitcast (void ()* @__cxa_pure_virtual to i8*), i8* bitcast (void ()* @__cxa_pure_virtual to i8*)] }, comdat, align 8
@_ZTVN6device20Ctap2DeviceOperationINS_3pin14UvTokenRequestENS1_13TokenResponseEEE = linkonce_odr hidden unnamed_addr constant { [6 x i8*] } { [6 x i8*] [i8* null, i8* null, i8* bitcast (void (%"class.device::Ctap2DeviceOperation.994"*)* @_ZN6device20Ctap2DeviceOperationINS_3pin14UvTokenRequestENS1_13TokenResponseEED2Ev to i8*), i8* bitcast (void (%"class.device::Ctap2DeviceOperation.994"*)* @_ZN6device20Ctap2DeviceOperationINS_3pin14UvTokenRequestENS1_13TokenResponseEED0Ev to i8*), i8* bitcast (void (%"class.device::Ctap2DeviceOperation.994"*)* @_ZN6device20Ctap2DeviceOperationINS_3pin14UvTokenRequestENS1_13TokenResponseEE5StartEv to i8*), i8* bitcast (void (%"class.device::Ctap2DeviceOperation.994"*)* @_ZN6device20Ctap2DeviceOperationINS_3pin14UvTokenRequestENS1_13TokenResponseEE6CancelEv to i8*)] }, comdat, align 8
@_ZTVN6device15DeviceOperationINS_3pin14UvTokenRequestENS1_13TokenResponseEEE = linkonce_odr hidden unnamed_addr constant { [6 x i8*] } { [6 x i8*] [i8* null, i8* null, i8* bitcast (void (%"class.device::DeviceOperation.995"*)* @_ZN6device15DeviceOperationINS_3pin14UvTokenRequestENS1_13TokenResponseEED2Ev to i8*), i8* bitcast (void (%"class.device::DeviceOperation.995"*)* @_ZN6device15DeviceOperationINS_3pin14UvTokenRequestENS1_13TokenResponseEED0Ev to i8*), i8* bitcast (void ()* @__cxa_pure_virtual to i8*), i8* bitcast (void ()* @__cxa_pure_virtual to i8*)] }, comdat, align 8

@_ZN6device23FidoDeviceAuthenticatorC1ENSt3__110unique_ptrINS_10FidoDeviceENS1_14default_deleteIS3_EEEE = hidden unnamed_addr alias void (%"class.device::FidoDeviceAuthenticator"*, %"class.device::FidoDevice"*), void (%"class.device::FidoDeviceAuthenticator"*, %"class.device::FidoDevice"*)* @_ZN6device23FidoDeviceAuthenticatorC2ENSt3__110unique_ptrINS_10FidoDeviceENS1_14default_deleteIS3_EEEE
@_ZN6device23FidoDeviceAuthenticatorD1Ev = hidden unnamed_addr alias void (%"class.device::FidoDeviceAuthenticator"*), void (%"class.device::FidoDeviceAuthenticator"*)* @_ZN6device23FidoDeviceAuthenticatorD2Ev

; Function Attrs: nounwind ssp uwtable
define hidden void @_ZN6device23FidoDeviceAuthenticatorC2ENSt3__110unique_ptrINS_10FidoDeviceENS1_14default_deleteIS3_EEEE(%"class.device::FidoDeviceAuthenticator"*, %"class.device::FidoDevice"*) unnamed_addr #0 align 2 {
  %3 = ptrtoint %"class.device::FidoDevice"* %1 to i64
  %4 = getelementptr inbounds %"class.device::FidoDeviceAuthenticator", %"class.device::FidoDeviceAuthenticator"* %0, i64 0, i32 0, i32 0
  store i32 (...)** bitcast (i8** getelementptr inbounds ({ [50 x i8*] }, { [50 x i8*] }* @_ZTVN6device23FidoDeviceAuthenticatorE, i64 0, inrange i32 0, i64 2) to i32 (...)**), i32 (...)*** %4, align 8
  %5 = getelementptr inbounds %"class.device::FidoDeviceAuthenticator", %"class.device::FidoDeviceAuthenticator"* %0, i64 0, i32 1
  %6 = bitcast %"class.std::__1::unique_ptr"* %5 to i64*
  store i64 %3, i64* %6, align 8
  %7 = getelementptr inbounds %"class.device::FidoDeviceAuthenticator", %"class.device::FidoDeviceAuthenticator"* %0, i64 0, i32 2, i32 0, i32 0, i32 0, i32 0
  store i8 0, i8* %7, align 4
  %8 = getelementptr inbounds %"class.device::FidoDeviceAuthenticator", %"class.device::FidoDeviceAuthenticator"* %0, i64 0, i32 2, i32 0, i32 0, i32 0, i32 2, i32 0, i32 0
  %9 = getelementptr inbounds %"class.device::FidoDeviceAuthenticator", %"class.device::FidoDeviceAuthenticator"* %0, i64 0, i32 6, i32 0
  %10 = ptrtoint %"class.device::FidoDeviceAuthenticator"* %0 to i64
  call void @llvm.memset.p0i8.i64(i8* align 4 %8, i8 0, i64 53, i1 false)
  tail call void @_ZN4base8internal18WeakPtrFactoryBaseC2Em(%"class.base::internal::WeakPtrFactoryBase"* %9, i64 %10) #13
  ret void
}

; Function Attrs: nounwind ssp uwtable
define hidden void @_ZN6device23FidoDeviceAuthenticatorD2Ev(%"class.device::FidoDeviceAuthenticator"*) unnamed_addr #0 align 2 {
  %2 = getelementptr inbounds %"class.device::FidoDeviceAuthenticator", %"class.device::FidoDeviceAuthenticator"* %0, i64 0, i32 0, i32 0
  store i32 (...)** bitcast (i8** getelementptr inbounds ({ [50 x i8*] }, { [50 x i8*] }* @_ZTVN6device23FidoDeviceAuthenticatorE, i64 0, inrange i32 0, i64 2) to i32 (...)**), i32 (...)*** %2, align 8
  %3 = getelementptr inbounds %"class.device::FidoDeviceAuthenticator", %"class.device::FidoDeviceAuthenticator"* %0, i64 0, i32 6, i32 0
  tail call void @_ZN4base8internal18WeakPtrFactoryBaseD2Ev(%"class.base::internal::WeakPtrFactoryBase"* %3) #13
  %4 = getelementptr inbounds %"class.device::FidoDeviceAuthenticator", %"class.device::FidoDeviceAuthenticator"* %0, i64 0, i32 4, i32 0, i32 0, i32 0
  %5 = load %"class.device::GenericDeviceOperation"*, %"class.device::GenericDeviceOperation"** %4, align 8
  store %"class.device::GenericDeviceOperation"* null, %"class.device::GenericDeviceOperation"** %4, align 8
  %6 = icmp eq %"class.device::GenericDeviceOperation"* %5, null
  br i1 %6, label %12, label %7

7:                                                ; preds = %1
  %8 = bitcast %"class.device::GenericDeviceOperation"* %5 to void (%"class.device::GenericDeviceOperation"*)***
  %9 = load void (%"class.device::GenericDeviceOperation"*)**, void (%"class.device::GenericDeviceOperation"*)*** %8, align 8
  %10 = getelementptr inbounds void (%"class.device::GenericDeviceOperation"*)*, void (%"class.device::GenericDeviceOperation"*)** %9, i64 1
  %11 = load void (%"class.device::GenericDeviceOperation"*)*, void (%"class.device::GenericDeviceOperation"*)** %10, align 8
  tail call void %11(%"class.device::GenericDeviceOperation"* nonnull %5) #13
  br label %12

12:                                               ; preds = %1, %7
  %13 = getelementptr inbounds %"class.device::FidoDeviceAuthenticator", %"class.device::FidoDeviceAuthenticator"* %0, i64 0, i32 3, i32 0, i32 0, i32 0
  %14 = load %"class.device::FidoTask"*, %"class.device::FidoTask"** %13, align 8
  store %"class.device::FidoTask"* null, %"class.device::FidoTask"** %13, align 8
  %15 = icmp eq %"class.device::FidoTask"* %14, null
  br i1 %15, label %21, label %16

16:                                               ; preds = %12
  %17 = bitcast %"class.device::FidoTask"* %14 to void (%"class.device::FidoTask"*)***
  %18 = load void (%"class.device::FidoTask"*)**, void (%"class.device::FidoTask"*)*** %17, align 8
  %19 = getelementptr inbounds void (%"class.device::FidoTask"*)*, void (%"class.device::FidoTask"*)** %18, i64 1
  %20 = load void (%"class.device::FidoTask"*)*, void (%"class.device::FidoTask"*)** %19, align 8
  tail call void %20(%"class.device::FidoTask"* nonnull %14) #13
  br label %21

21:                                               ; preds = %12, %16
  %22 = getelementptr inbounds %"class.device::FidoDeviceAuthenticator", %"class.device::FidoDeviceAuthenticator"* %0, i64 0, i32 2, i32 0, i32 0, i32 0, i32 0
  %23 = load i8, i8* %22, align 4, !range !2
  %24 = icmp eq i8 %23, 0
  br i1 %24, label %27, label %25

25:                                               ; preds = %21
  %26 = getelementptr inbounds %"class.device::FidoDeviceAuthenticator", %"class.device::FidoDeviceAuthenticator"* %0, i64 0, i32 2, i32 0, i32 0, i32 0, i32 2, i32 0
  tail call void @_ZN6device29AuthenticatorSupportedOptionsD1Ev(%"struct.device::AuthenticatorSupportedOptions"* %26) #13
  store i8 0, i8* %22, align 4
  br label %27

27:                                               ; preds = %21, %25
  %28 = getelementptr inbounds %"class.device::FidoDeviceAuthenticator", %"class.device::FidoDeviceAuthenticator"* %0, i64 0, i32 1, i32 0, i32 0, i32 0
  %29 = load %"class.device::FidoDevice"*, %"class.device::FidoDevice"** %28, align 8
  store %"class.device::FidoDevice"* null, %"class.device::FidoDevice"** %28, align 8
  %30 = icmp eq %"class.device::FidoDevice"* %29, null
  br i1 %30, label %36, label %31

31:                                               ; preds = %27
  %32 = bitcast %"class.device::FidoDevice"* %29 to void (%"class.device::FidoDevice"*)***
  %33 = load void (%"class.device::FidoDevice"*)**, void (%"class.device::FidoDevice"*)*** %32, align 8
  %34 = getelementptr inbounds void (%"class.device::FidoDevice"*)*, void (%"class.device::FidoDevice"*)** %33, i64 1
  %35 = load void (%"class.device::FidoDevice"*)*, void (%"class.device::FidoDevice"*)** %34, align 8
  tail call void %35(%"class.device::FidoDevice"* nonnull %29) #13
  br label %36

36:                                               ; preds = %27, %31
  ret void
}

; Function Attrs: nounwind ssp uwtable
define hidden void @_ZN6device23FidoDeviceAuthenticatorD0Ev(%"class.device::FidoDeviceAuthenticator"*) unnamed_addr #0 align 2 {
  %2 = getelementptr inbounds %"class.device::FidoDeviceAuthenticator", %"class.device::FidoDeviceAuthenticator"* %0, i64 0, i32 0, i32 0
  store i32 (...)** bitcast (i8** getelementptr inbounds ({ [50 x i8*] }, { [50 x i8*] }* @_ZTVN6device23FidoDeviceAuthenticatorE, i64 0, inrange i32 0, i64 2) to i32 (...)**), i32 (...)*** %2, align 8
  %3 = getelementptr inbounds %"class.device::FidoDeviceAuthenticator", %"class.device::FidoDeviceAuthenticator"* %0, i64 0, i32 6, i32 0
  tail call void @_ZN4base8internal18WeakPtrFactoryBaseD2Ev(%"class.base::internal::WeakPtrFactoryBase"* %3) #13
  %4 = getelementptr inbounds %"class.device::FidoDeviceAuthenticator", %"class.device::FidoDeviceAuthenticator"* %0, i64 0, i32 4, i32 0, i32 0, i32 0
  %5 = load %"class.device::GenericDeviceOperation"*, %"class.device::GenericDeviceOperation"** %4, align 8
  store %"class.device::GenericDeviceOperation"* null, %"class.device::GenericDeviceOperation"** %4, align 8
  %6 = icmp eq %"class.device::GenericDeviceOperation"* %5, null
  br i1 %6, label %12, label %7

7:                                                ; preds = %1
  %8 = bitcast %"class.device::GenericDeviceOperation"* %5 to void (%"class.device::GenericDeviceOperation"*)***
  %9 = load void (%"class.device::GenericDeviceOperation"*)**, void (%"class.device::GenericDeviceOperation"*)*** %8, align 8
  %10 = getelementptr inbounds void (%"class.device::GenericDeviceOperation"*)*, void (%"class.device::GenericDeviceOperation"*)** %9, i64 1
  %11 = load void (%"class.device::GenericDeviceOperation"*)*, void (%"class.device::GenericDeviceOperation"*)** %10, align 8
  tail call void %11(%"class.device::GenericDeviceOperation"* nonnull %5) #13
  br label %12

12:                                               ; preds = %7, %1
  %13 = getelementptr inbounds %"class.device::FidoDeviceAuthenticator", %"class.device::FidoDeviceAuthenticator"* %0, i64 0, i32 3, i32 0, i32 0, i32 0
  %14 = load %"class.device::FidoTask"*, %"class.device::FidoTask"** %13, align 8
  store %"class.device::FidoTask"* null, %"class.device::FidoTask"** %13, align 8
  %15 = icmp eq %"class.device::FidoTask"* %14, null
  br i1 %15, label %21, label %16

16:                                               ; preds = %12
  %17 = bitcast %"class.device::FidoTask"* %14 to void (%"class.device::FidoTask"*)***
  %18 = load void (%"class.device::FidoTask"*)**, void (%"class.device::FidoTask"*)*** %17, align 8
  %19 = getelementptr inbounds void (%"class.device::FidoTask"*)*, void (%"class.device::FidoTask"*)** %18, i64 1
  %20 = load void (%"class.device::FidoTask"*)*, void (%"class.device::FidoTask"*)** %19, align 8
  tail call void %20(%"class.device::FidoTask"* nonnull %14) #13
  br label %21

21:                                               ; preds = %16, %12
  %22 = getelementptr inbounds %"class.device::FidoDeviceAuthenticator", %"class.device::FidoDeviceAuthenticator"* %0, i64 0, i32 2, i32 0, i32 0, i32 0, i32 0
  %23 = load i8, i8* %22, align 4, !range !2
  %24 = icmp eq i8 %23, 0
  br i1 %24, label %27, label %25

25:                                               ; preds = %21
  %26 = getelementptr inbounds %"class.device::FidoDeviceAuthenticator", %"class.device::FidoDeviceAuthenticator"* %0, i64 0, i32 2, i32 0, i32 0, i32 0, i32 2, i32 0
  tail call void @_ZN6device29AuthenticatorSupportedOptionsD1Ev(%"struct.device::AuthenticatorSupportedOptions"* %26) #13
  store i8 0, i8* %22, align 4
  br label %27

27:                                               ; preds = %25, %21
  %28 = getelementptr inbounds %"class.device::FidoDeviceAuthenticator", %"class.device::FidoDeviceAuthenticator"* %0, i64 0, i32 1, i32 0, i32 0, i32 0
  %29 = load %"class.device::FidoDevice"*, %"class.device::FidoDevice"** %28, align 8
  store %"class.device::FidoDevice"* null, %"class.device::FidoDevice"** %28, align 8
  %30 = icmp eq %"class.device::FidoDevice"* %29, null
  br i1 %30, label %36, label %31

31:                                               ; preds = %27
  %32 = bitcast %"class.device::FidoDevice"* %29 to void (%"class.device::FidoDevice"*)***
  %33 = load void (%"class.device::FidoDevice"*)**, void (%"class.device::FidoDevice"*)*** %32, align 8
  %34 = getelementptr inbounds void (%"class.device::FidoDevice"*)*, void (%"class.device::FidoDevice"*)** %33, i64 1
  %35 = load void (%"class.device::FidoDevice"*)*, void (%"class.device::FidoDevice"*)** %34, align 8
  tail call void %35(%"class.device::FidoDevice"* nonnull %29) #13
  br label %36

36:                                               ; preds = %27, %31
  %37 = bitcast %"class.device::FidoDeviceAuthenticator"* %0 to i8*
  tail call void @_ZdlPv(i8* %37) #14
  ret void
}

; Function Attrs: nobuiltin nounwind
declare void @_ZdlPv(i8*) local_unnamed_addr #1

; Function Attrs: nounwind ssp uwtable
define hidden void @_ZN6device23FidoDeviceAuthenticator23InitializeAuthenticatorEN4base12OnceCallbackIFvvEEE(%"class.device::FidoDeviceAuthenticator"*, %"class.base::OnceCallback"* nocapture) unnamed_addr #0 align 2 {
  %3 = alloca %"class.base::internal::WeakReference", align 8
  %4 = alloca %"class.base::Location", align 8
  %5 = alloca %"class.base::OnceCallback", align 8
  %6 = alloca %"class.base::WeakPtr", align 8
  %7 = alloca %"class.base::OnceCallback", align 8
  %8 = alloca %"class.base::WeakPtr.98", align 8
  %9 = tail call dereferenceable(8) %class.scoped_refptr.95* @_ZN4base25SequencedTaskRunnerHandle3GetEv() #13
  %10 = bitcast %class.scoped_refptr.95* %9 to %"class.base::TaskRunner"**
  %11 = load %"class.base::TaskRunner"*, %"class.base::TaskRunner"** %10, align 8
  %12 = bitcast %"class.base::Location"* %4 to i8*
  call void @llvm.lifetime.start.p0i8(i64 32, i8* nonnull %12) #13
  call void @_ZN4base8Location7CurrentEPKcS2_i(%"class.base::Location"* nonnull sret %4, i8* getelementptr inbounds ([24 x i8], [24 x i8]* @.str, i64 0, i64 0), i8* getelementptr inbounds ([47 x i8], [47 x i8]* @.str.1, i64 0, i64 0), i32 77) #13
  %13 = bitcast %"class.base::WeakPtr"* %6 to i8*
  call void @llvm.lifetime.start.p0i8(i64 16, i8* nonnull %13) #13
  %14 = getelementptr inbounds %"class.device::FidoDeviceAuthenticator", %"class.device::FidoDeviceAuthenticator"* %0, i64 0, i32 1, i32 0, i32 0, i32 0
  %15 = load %"class.device::FidoDevice"*, %"class.device::FidoDevice"** %14, align 8
  %16 = bitcast %"class.device::FidoDevice"* %15 to void (%"class.base::WeakPtr"*, %"class.device::FidoDevice"*)***
  %17 = load void (%"class.base::WeakPtr"*, %"class.device::FidoDevice"*)**, void (%"class.base::WeakPtr"*, %"class.device::FidoDevice"*)*** %16, align 8
  %18 = getelementptr inbounds void (%"class.base::WeakPtr"*, %"class.device::FidoDevice"*)*, void (%"class.base::WeakPtr"*, %"class.device::FidoDevice"*)** %17, i64 11
  %19 = load void (%"class.base::WeakPtr"*, %"class.device::FidoDevice"*)*, void (%"class.base::WeakPtr"*, %"class.device::FidoDevice"*)** %18, align 8
  call void %19(%"class.base::WeakPtr"* nonnull sret %6, %"class.device::FidoDevice"* %15) #13
  %20 = bitcast %"class.base::OnceCallback"* %7 to i8*
  call void @llvm.lifetime.start.p0i8(i64 8, i8* nonnull %20) #13
  %21 = bitcast %"class.base::WeakPtr.98"* %8 to i8*
  call void @llvm.lifetime.start.p0i8(i64 16, i8* nonnull %21) #13
  %22 = bitcast %"class.base::internal::WeakReference"* %3 to i8*
  call void @llvm.lifetime.start.p0i8(i64 8, i8* nonnull %22) #13, !noalias !3
  %23 = getelementptr inbounds %"class.device::FidoDeviceAuthenticator", %"class.device::FidoDeviceAuthenticator"* %0, i64 0, i32 6, i32 0, i32 0
  call void @_ZNK4base8internal18WeakReferenceOwner6GetRefEv(%"class.base::internal::WeakReference"* nonnull sret %3, %"class.base::internal::WeakReferenceOwner"* %23) #13, !noalias !3
  %24 = getelementptr inbounds %"class.device::FidoDeviceAuthenticator", %"class.device::FidoDeviceAuthenticator"* %0, i64 0, i32 6, i32 0, i32 1
  %25 = load i64, i64* %24, align 8, !noalias !3
  %26 = getelementptr inbounds %"class.base::WeakPtr.98", %"class.base::WeakPtr.98"* %8, i64 0, i32 0
  call void @_ZN4base8internal11WeakPtrBaseC2ERKNS0_13WeakReferenceEm(%"class.base::internal::WeakPtrBase"* nonnull %26, %"class.base::internal::WeakReference"* nonnull dereferenceable(8) %3, i64 %25) #13
  call void @_ZN4base8internal13WeakReferenceD1Ev(%"class.base::internal::WeakReference"* nonnull %3) #13
  call void @llvm.lifetime.end.p0i8(i64 8, i8* nonnull %22) #13, !noalias !3
  %27 = call i8* @_Znwm(i64 72) #14, !noalias !6
  %28 = bitcast i8* %27 to %"class.base::internal::BindStateBase"*
  call void @_ZN4base8internal13BindStateBaseC2EPFvvEPFvPKS1_EPFbS5_NS1_21CancellationQueryModeEE(%"class.base::internal::BindStateBase"* nonnull %28, void ()* bitcast (void (%"class.base::internal::BindStateBase"*)* @_ZN4base8internal7InvokerINS0_9BindStateIMN6device23FidoDeviceAuthenticatorEFvNS_12OnceCallbackIFvvEEEEJNS_7WeakPtrIS4_EES7_EEES6_E7RunOnceEPNS0_13BindStateBaseE to void ()*), void (%"class.base::internal::BindStateBase"*)* nonnull @_ZN4base8internal9BindStateIMN6device23FidoDeviceAuthenticatorEFvNS_12OnceCallbackIFvvEEEEJNS_7WeakPtrIS3_EES6_EE7DestroyEPKNS0_13BindStateBaseE, i1 (%"class.base::internal::BindStateBase"*, i32)* nonnull @_ZN4base8internal23QueryCancellationTraitsINS0_9BindStateIMN6device23FidoDeviceAuthenticatorEFvNS_12OnceCallbackIFvvEEEEJNS_7WeakPtrIS4_EES7_EEEEEbPKNS0_13BindStateBaseENSD_21CancellationQueryModeE) #13, !noalias !6
  %29 = getelementptr inbounds i8, i8* %27, i64 32
  %30 = bitcast i8* %29 to <2 x i64>*
  store <2 x i64> <i64 ptrtoint (void (%"class.device::FidoDeviceAuthenticator"*, %"class.base::OnceCallback"*)* @_ZN6device23FidoDeviceAuthenticator27InitializeAuthenticatorDoneEN4base12OnceCallbackIFvvEEE to i64), i64 0>, <2 x i64>* %30, align 8, !noalias !6
  %31 = getelementptr inbounds i8, i8* %27, i64 48
  %32 = bitcast i8* %31 to %"class.base::internal::WeakReference"*
  %33 = getelementptr inbounds %"class.base::WeakPtr.98", %"class.base::WeakPtr.98"* %8, i64 0, i32 0, i32 0
  call void @_ZN4base8internal13WeakReferenceC1EOS1_(%"class.base::internal::WeakReference"* %32, %"class.base::internal::WeakReference"* nonnull dereferenceable(8) %33) #13, !noalias !6
  %34 = getelementptr inbounds i8, i8* %27, i64 56
  %35 = bitcast i8* %34 to i64*
  %36 = getelementptr inbounds %"class.base::WeakPtr.98", %"class.base::WeakPtr.98"* %8, i64 0, i32 0, i32 1
  %37 = load i64, i64* %36, align 8, !noalias !6
  store i64 %37, i64* %35, align 8, !noalias !6
  %38 = getelementptr inbounds i8, i8* %27, i64 64
  %39 = getelementptr inbounds %"class.base::OnceCallback", %"class.base::OnceCallback"* %1, i64 0, i32 0, i32 0, i32 0
  %40 = bitcast %"class.base::OnceCallback"* %1 to i64*
  %41 = load i64, i64* %40, align 8, !noalias !6
  %42 = bitcast i8* %38 to i64*
  store i64 %41, i64* %42, align 8, !noalias !6
  store %"class.base::internal::BindStateBase"* null, %"class.base::internal::BindStateBase"** %39, align 8, !noalias !6
  %43 = call i8* @_Znwm(i64 72) #14, !noalias !11
  %44 = bitcast i8* %43 to %"class.base::internal::BindStateBase"*
  call void @_ZN4base8internal13BindStateBaseC2EPFvvEPFvPKS1_EPFbS5_NS1_21CancellationQueryModeEE(%"class.base::internal::BindStateBase"* nonnull %44, void ()* bitcast (void (%"class.base::internal::BindStateBase"*)* @_ZN4base8internal7InvokerINS0_9BindStateIMN6device10FidoDeviceEFvNS_12OnceCallbackIFvvEEEEJNS_7WeakPtrIS4_EES7_EEES6_E7RunOnceEPNS0_13BindStateBaseE to void ()*), void (%"class.base::internal::BindStateBase"*)* nonnull @_ZN4base8internal9BindStateIMN6device10FidoDeviceEFvNS_12OnceCallbackIFvvEEEEJNS_7WeakPtrIS3_EES6_EE7DestroyEPKNS0_13BindStateBaseE, i1 (%"class.base::internal::BindStateBase"*, i32)* nonnull @_ZN4base8internal23QueryCancellationTraitsINS0_9BindStateIMN6device10FidoDeviceEFvNS_12OnceCallbackIFvvEEEEJNS_7WeakPtrIS4_EES7_EEEEEbPKNS0_13BindStateBaseENSD_21CancellationQueryModeE) #13, !noalias !11
  %45 = getelementptr inbounds i8, i8* %43, i64 32
  %46 = bitcast i8* %45 to <2 x i64>*
  store <2 x i64> <i64 97, i64 0>, <2 x i64>* %46, align 8, !noalias !11
  %47 = getelementptr inbounds i8, i8* %43, i64 48
  %48 = bitcast i8* %47 to %"class.base::internal::WeakReference"*
  %49 = getelementptr inbounds %"class.base::WeakPtr", %"class.base::WeakPtr"* %6, i64 0, i32 0, i32 0
  call void @_ZN4base8internal13WeakReferenceC1EOS1_(%"class.base::internal::WeakReference"* %48, %"class.base::internal::WeakReference"* nonnull dereferenceable(8) %49) #13, !noalias !11
  %50 = getelementptr inbounds i8, i8* %43, i64 56
  %51 = bitcast i8* %50 to i64*
  %52 = getelementptr inbounds %"class.base::WeakPtr", %"class.base::WeakPtr"* %6, i64 0, i32 0, i32 1
  %53 = load i64, i64* %52, align 8, !noalias !11
  store i64 %53, i64* %51, align 8, !noalias !11
  %54 = getelementptr inbounds i8, i8* %43, i64 64
  %55 = getelementptr inbounds %"class.base::OnceCallback", %"class.base::OnceCallback"* %7, i64 0, i32 0, i32 0, i32 0
  %56 = ptrtoint i8* %27 to i64
  %57 = bitcast i8* %54 to i64*
  store i64 %56, i64* %57, align 8, !noalias !11
  store %"class.base::internal::BindStateBase"* null, %"class.base::internal::BindStateBase"** %55, align 8, !noalias !11
  %58 = bitcast %"class.base::OnceCallback"* %5 to i8**
  store i8* %43, i8** %58, align 8, !alias.scope !11
  %59 = call zeroext i1 @_ZN4base10TaskRunner8PostTaskERKNS_8LocationENS_12OnceCallbackIFvvEEE(%"class.base::TaskRunner"* %11, %"class.base::Location"* nonnull dereferenceable(32) %4, %"class.base::OnceCallback"* nonnull %5) #13
  %60 = getelementptr inbounds %"class.base::OnceCallback", %"class.base::OnceCallback"* %5, i64 0, i32 0
  call void @_ZN4base8internal12CallbackBaseD2Ev(%"class.base::internal::CallbackBase"* nonnull %60) #13
  %61 = getelementptr inbounds %"class.base::OnceCallback", %"class.base::OnceCallback"* %7, i64 0, i32 0
  call void @_ZN4base8internal12CallbackBaseD2Ev(%"class.base::internal::CallbackBase"* nonnull %61) #13
  call void @_ZN4base8internal11WeakPtrBaseD2Ev(%"class.base::internal::WeakPtrBase"* nonnull %26) #13
  call void @llvm.lifetime.end.p0i8(i64 16, i8* nonnull %21) #13
  call void @llvm.lifetime.end.p0i8(i64 8, i8* nonnull %20) #13
  %62 = getelementptr inbounds %"class.base::WeakPtr", %"class.base::WeakPtr"* %6, i64 0, i32 0
  call void @_ZN4base8internal11WeakPtrBaseD2Ev(%"class.base::internal::WeakPtrBase"* nonnull %62) #13
  call void @llvm.lifetime.end.p0i8(i64 16, i8* nonnull %13) #13
  call void @llvm.lifetime.end.p0i8(i64 32, i8* nonnull %12) #13
  ret void
}

declare dereferenceable(8) %class.scoped_refptr.95* @_ZN4base25SequencedTaskRunnerHandle3GetEv() local_unnamed_addr #2

declare zeroext i1 @_ZN4base10TaskRunner8PostTaskERKNS_8LocationENS_12OnceCallbackIFvvEEE(%"class.base::TaskRunner"*, %"class.base::Location"* dereferenceable(32), %"class.base::OnceCallback"*) local_unnamed_addr #2

; Function Attrs: argmemonly nounwind
declare void @llvm.lifetime.start.p0i8(i64 immarg, i8* nocapture) #3

declare void @_ZN4base8Location7CurrentEPKcS2_i(%"class.base::Location"* sret, i8*, i8*, i32) local_unnamed_addr #2

; Function Attrs: nounwind ssp uwtable
define hidden void @_ZN6device23FidoDeviceAuthenticator27InitializeAuthenticatorDoneEN4base12OnceCallbackIFvvEEE(%"class.device::FidoDeviceAuthenticator"*, %"class.base::OnceCallback"* nocapture) #0 align 2 {
  %3 = alloca %"class.base::OnceCallback", align 8
  %4 = alloca %"struct.device::AuthenticatorSupportedOptions", align 4
  %5 = alloca %"struct.device::AuthenticatorSupportedOptions", align 4
  %6 = getelementptr inbounds %"class.device::FidoDeviceAuthenticator", %"class.device::FidoDeviceAuthenticator"* %0, i64 0, i32 1, i32 0, i32 0, i32 0
  %7 = load %"class.device::FidoDevice"*, %"class.device::FidoDevice"** %6, align 8
  %8 = getelementptr inbounds %"class.device::FidoDevice", %"class.device::FidoDevice"* %7, i64 0, i32 2
  %9 = load i32, i32* %8, align 4
  switch i32 %9, label %70 [
    i32 1, label %10
    i32 0, label %22
    i32 2, label %58
  ]

10:                                               ; preds = %2
  %11 = getelementptr inbounds %"struct.device::AuthenticatorSupportedOptions", %"struct.device::AuthenticatorSupportedOptions"* %4, i64 0, i32 0
  call void @llvm.lifetime.start.p0i8(i64 36, i8* nonnull %11) #13
  call void @_ZN6device29AuthenticatorSupportedOptionsC1Ev(%"struct.device::AuthenticatorSupportedOptions"* nonnull %4) #13
  %12 = getelementptr inbounds %"class.device::FidoDeviceAuthenticator", %"class.device::FidoDeviceAuthenticator"* %0, i64 0, i32 2, i32 0, i32 0, i32 0, i32 0
  %13 = load i8, i8* %12, align 4, !range !2
  %14 = icmp eq i8 %13, 0
  br i1 %14, label %18, label %15

15:                                               ; preds = %10
  %16 = getelementptr inbounds %"class.device::FidoDeviceAuthenticator", %"class.device::FidoDeviceAuthenticator"* %0, i64 0, i32 2, i32 0, i32 0, i32 0, i32 2, i32 0
  %17 = call dereferenceable(36) %"struct.device::AuthenticatorSupportedOptions"* @_ZN6device29AuthenticatorSupportedOptionsaSERKS0_(%"struct.device::AuthenticatorSupportedOptions"* %16, %"struct.device::AuthenticatorSupportedOptions"* nonnull dereferenceable(36) %4) #13
  br label %21

18:                                               ; preds = %10
  %19 = getelementptr inbounds %"class.device::FidoDeviceAuthenticator", %"class.device::FidoDeviceAuthenticator"* %0, i64 0, i32 2, i32 0, i32 0, i32 0, i32 2, i32 0, i32 0
  %20 = bitcast i8* %19 to %"struct.device::AuthenticatorSupportedOptions"*
  call void @_ZN6device29AuthenticatorSupportedOptionsC1ERKS0_(%"struct.device::AuthenticatorSupportedOptions"* %20, %"struct.device::AuthenticatorSupportedOptions"* nonnull dereferenceable(36) %4) #13
  store i8 1, i8* %12, align 4
  br label %21

21:                                               ; preds = %15, %18
  call void @_ZN6device29AuthenticatorSupportedOptionsD1Ev(%"struct.device::AuthenticatorSupportedOptions"* nonnull %4) #13
  call void @llvm.lifetime.end.p0i8(i64 36, i8* nonnull %11) #13
  br label %70

22:                                               ; preds = %2
  %23 = getelementptr inbounds %"class.device::FidoDevice", %"class.device::FidoDevice"* %7, i64 0, i32 3, i32 0, i32 0, i32 0, i32 0
  %24 = load i8, i8* %23, align 8, !range !2
  %25 = icmp eq i8 %24, 0
  br i1 %25, label %26, label %27, !prof !16

26:                                               ; preds = %22
  tail call void @llvm.trap() #13
  unreachable

27:                                               ; preds = %22
  %28 = getelementptr inbounds %"class.device::FidoDevice", %"class.device::FidoDevice"* %7, i64 0, i32 3, i32 0, i32 0, i32 0, i32 1, i32 0, i32 14
  %29 = getelementptr inbounds %"class.device::FidoDeviceAuthenticator", %"class.device::FidoDeviceAuthenticator"* %0, i64 0, i32 2, i32 0, i32 0, i32 0, i32 0
  %30 = load i8, i8* %29, align 4, !range !2
  %31 = icmp eq i8 %30, 0
  br i1 %31, label %35, label %32

32:                                               ; preds = %27
  %33 = getelementptr inbounds %"class.device::FidoDeviceAuthenticator", %"class.device::FidoDeviceAuthenticator"* %0, i64 0, i32 2, i32 0, i32 0, i32 0, i32 2, i32 0
  %34 = tail call dereferenceable(36) %"struct.device::AuthenticatorSupportedOptions"* @_ZN6device29AuthenticatorSupportedOptionsaSERKS0_(%"struct.device::AuthenticatorSupportedOptions"* %33, %"struct.device::AuthenticatorSupportedOptions"* dereferenceable(36) %28) #13
  br label %38

35:                                               ; preds = %27
  %36 = getelementptr inbounds %"class.device::FidoDeviceAuthenticator", %"class.device::FidoDeviceAuthenticator"* %0, i64 0, i32 2, i32 0, i32 0, i32 0, i32 2, i32 0, i32 0
  %37 = bitcast i8* %36 to %"struct.device::AuthenticatorSupportedOptions"*
  tail call void @_ZN6device29AuthenticatorSupportedOptionsC1ERKS0_(%"struct.device::AuthenticatorSupportedOptions"* %37, %"struct.device::AuthenticatorSupportedOptions"* dereferenceable(36) %28) #13
  store i8 1, i8* %29, align 4
  br label %38

38:                                               ; preds = %32, %35
  %39 = load %"class.device::FidoDevice"*, %"class.device::FidoDevice"** %6, align 8
  %40 = getelementptr inbounds %"class.device::FidoDevice", %"class.device::FidoDevice"* %39, i64 0, i32 3, i32 0, i32 0, i32 0, i32 0
  %41 = load i8, i8* %40, align 8, !range !2
  %42 = icmp eq i8 %41, 0
  br i1 %42, label %43, label %44, !prof !16

43:                                               ; preds = %38
  tail call void @llvm.trap() #13
  unreachable

44:                                               ; preds = %38
  %45 = getelementptr inbounds %"class.device::FidoDevice", %"class.device::FidoDevice"* %39, i64 0, i32 3, i32 0, i32 0, i32 0, i32 1, i32 0, i32 6, i32 0, i32 0, i32 0, i32 0
  %46 = load i8, i8* %45, align 8, !range !2
  %47 = icmp eq i8 %46, 0
  br i1 %47, label %70, label %48

48:                                               ; preds = %44
  %49 = getelementptr inbounds %"class.device::FidoDevice", %"class.device::FidoDevice"* %39, i64 0, i32 3, i32 0, i32 0, i32 0, i32 1, i32 0, i32 6, i32 0, i32 0, i32 0, i32 1, i32 0, i32 0, i32 0, i32 1
  %50 = load i8*, i8** %49, align 8
  %51 = getelementptr inbounds i8, i8* %50, i64 -1
  %52 = load i8, i8* %51, align 1
  %53 = getelementptr inbounds %"class.device::FidoDeviceAuthenticator", %"class.device::FidoDeviceAuthenticator"* %0, i64 0, i32 5, i32 0, i32 0, i32 0, i32 0
  %54 = bitcast i8* %53 to i16*
  %55 = zext i8 %52 to i16
  %56 = shl nuw i16 %55, 8
  %57 = or i16 %56, 1
  store i16 %57, i16* %54, align 8
  br label %70

58:                                               ; preds = %2
  %59 = getelementptr inbounds %"struct.device::AuthenticatorSupportedOptions", %"struct.device::AuthenticatorSupportedOptions"* %5, i64 0, i32 0
  call void @llvm.lifetime.start.p0i8(i64 36, i8* nonnull %59) #13
  call void @_ZN6device29AuthenticatorSupportedOptionsC1Ev(%"struct.device::AuthenticatorSupportedOptions"* nonnull %5) #13
  %60 = getelementptr inbounds %"class.device::FidoDeviceAuthenticator", %"class.device::FidoDeviceAuthenticator"* %0, i64 0, i32 2, i32 0, i32 0, i32 0, i32 0
  %61 = load i8, i8* %60, align 4, !range !2
  %62 = icmp eq i8 %61, 0
  br i1 %62, label %66, label %63

63:                                               ; preds = %58
  %64 = getelementptr inbounds %"class.device::FidoDeviceAuthenticator", %"class.device::FidoDeviceAuthenticator"* %0, i64 0, i32 2, i32 0, i32 0, i32 0, i32 2, i32 0
  %65 = call dereferenceable(36) %"struct.device::AuthenticatorSupportedOptions"* @_ZN6device29AuthenticatorSupportedOptionsaSERKS0_(%"struct.device::AuthenticatorSupportedOptions"* %64, %"struct.device::AuthenticatorSupportedOptions"* nonnull dereferenceable(36) %5) #13
  br label %69

66:                                               ; preds = %58
  %67 = getelementptr inbounds %"class.device::FidoDeviceAuthenticator", %"class.device::FidoDeviceAuthenticator"* %0, i64 0, i32 2, i32 0, i32 0, i32 0, i32 2, i32 0, i32 0
  %68 = bitcast i8* %67 to %"struct.device::AuthenticatorSupportedOptions"*
  call void @_ZN6device29AuthenticatorSupportedOptionsC1ERKS0_(%"struct.device::AuthenticatorSupportedOptions"* %68, %"struct.device::AuthenticatorSupportedOptions"* nonnull dereferenceable(36) %5) #13
  store i8 1, i8* %60, align 4
  br label %69

69:                                               ; preds = %63, %66
  call void @_ZN6device29AuthenticatorSupportedOptionsD1Ev(%"struct.device::AuthenticatorSupportedOptions"* nonnull %5) #13
  call void @llvm.lifetime.end.p0i8(i64 36, i8* nonnull %59) #13
  br label %70

70:                                               ; preds = %44, %48, %69, %2, %21
  %71 = bitcast %"class.base::OnceCallback"* %3 to i8*
  call void @llvm.lifetime.start.p0i8(i64 8, i8* nonnull %71) #13
  %72 = getelementptr inbounds %"class.base::OnceCallback", %"class.base::OnceCallback"* %1, i64 0, i32 0, i32 0, i32 0
  %73 = bitcast %"class.base::OnceCallback"* %1 to i64*
  %74 = load i64, i64* %73, align 8
  %75 = bitcast %"class.base::OnceCallback"* %3 to i64*
  store i64 %74, i64* %75, align 8
  store %"class.base::internal::BindStateBase"* null, %"class.base::internal::BindStateBase"** %72, align 8
  %76 = getelementptr inbounds %"class.base::OnceCallback", %"class.base::OnceCallback"* %3, i64 0, i32 0
  %77 = inttoptr i64 %74 to %"class.base::internal::BindStateBase"*
  %78 = getelementptr inbounds %"class.base::internal::BindStateBase", %"class.base::internal::BindStateBase"* %77, i64 0, i32 1
  %79 = bitcast void ()** %78 to void (%"class.base::internal::BindStateBase"*)**
  %80 = load void (%"class.base::internal::BindStateBase"*)*, void (%"class.base::internal::BindStateBase"*)** %79, align 8
  call void %80(%"class.base::internal::BindStateBase"* %77) #13
  call void @_ZN4base8internal12CallbackBaseD2Ev(%"class.base::internal::CallbackBase"* nonnull %76) #13
  call void @llvm.lifetime.end.p0i8(i64 8, i8* nonnull %71) #13
  ret void
}

; Function Attrs: argmemonly nounwind
declare void @llvm.lifetime.end.p0i8(i64 immarg, i8* nocapture) #3

declare void @_ZN6device29AuthenticatorSupportedOptionsC1Ev(%"struct.device::AuthenticatorSupportedOptions"*) unnamed_addr #2

; Function Attrs: nounwind
declare void @_ZN6device29AuthenticatorSupportedOptionsD1Ev(%"struct.device::AuthenticatorSupportedOptions"*) unnamed_addr #4

; Function Attrs: argmemonly nounwind
declare void @llvm.memcpy.p0i8.p0i8.i64(i8* nocapture writeonly, i8* nocapture readonly, i64, i1 immarg) #3

; Function Attrs: nounwind ssp uwtable
define hidden void @_ZN6device23FidoDeviceAuthenticator14MakeCredentialENS_25CtapMakeCredentialRequestEN4base12OnceCallbackIFvNS_22CtapDeviceResponseCodeEN4absl8optionalINS_35AuthenticatorMakeCredentialResponseEEEEEE(%"class.device::FidoDeviceAuthenticator"*, %"struct.device::CtapMakeCredentialRequest"*, %"class.base::OnceCallback.160"* nocapture) unnamed_addr #0 align 2 {
  %4 = alloca %"class.base::OnceCallback.160", align 8
  %5 = getelementptr inbounds %"struct.device::CtapMakeCredentialRequest", %"struct.device::CtapMakeCredentialRequest"* %1, i64 0, i32 13, i32 0, i32 0, i32 0, i32 0
  %6 = load i8, i8* %5, align 8, !range !2
  %7 = icmp eq i8 %6, 0
  br i1 %7, label %8, label %25

8:                                                ; preds = %3
  %9 = getelementptr inbounds %"class.device::FidoDeviceAuthenticator", %"class.device::FidoDeviceAuthenticator"* %0, i64 0, i32 2, i32 0, i32 0, i32 0, i32 0
  %10 = load i8, i8* %9, align 4, !range !2
  %11 = icmp eq i8 %10, 0
  br i1 %11, label %12, label %13, !prof !16

12:                                               ; preds = %8
  tail call void @llvm.trap() #13
  unreachable

13:                                               ; preds = %8
  %14 = getelementptr inbounds %"class.device::FidoDeviceAuthenticator", %"class.device::FidoDeviceAuthenticator"* %0, i64 0, i32 2, i32 0, i32 0, i32 0, i32 2, i32 0, i32 3
  %15 = load i32, i32* %14, align 4
  %16 = icmp eq i32 %15, 0
  br i1 %16, label %17, label %25

17:                                               ; preds = %13
  %18 = getelementptr inbounds %"class.device::FidoDeviceAuthenticator", %"class.device::FidoDeviceAuthenticator"* %0, i64 0, i32 2, i32 0, i32 0, i32 0, i32 2, i32 0, i32 18
  %19 = load i8, i8* %18, align 4, !range !2
  %20 = icmp eq i8 %19, 0
  br i1 %20, label %21, label %25

21:                                               ; preds = %17
  %22 = getelementptr inbounds %"struct.device::CtapMakeCredentialRequest", %"struct.device::CtapMakeCredentialRequest"* %1, i64 0, i32 10
  %23 = load i8, i8* %22, align 1, !range !2
  %24 = icmp eq i8 %23, 0
  br i1 %24, label %26, label %25

25:                                               ; preds = %3, %21, %17, %13
  br label %26

26:                                               ; preds = %21, %25
  %27 = phi i32 [ 2, %25 ], [ 0, %21 ]
  %28 = getelementptr inbounds %"struct.device::CtapMakeCredentialRequest", %"struct.device::CtapMakeCredentialRequest"* %1, i64 0, i32 5
  store i32 %27, i32* %28, align 8
  %29 = getelementptr inbounds %"class.base::OnceCallback.160", %"class.base::OnceCallback.160"* %2, i64 0, i32 0, i32 0, i32 0
  %30 = bitcast %"class.base::OnceCallback.160"* %2 to i64*
  %31 = load i64, i64* %30, align 8
  %32 = bitcast %"class.base::OnceCallback.160"* %4 to i64*
  store i64 %31, i64* %32, align 8
  store %"class.base::internal::BindStateBase"* null, %"class.base::internal::BindStateBase"** %29, align 8
  call void @_ZN6device23FidoDeviceAuthenticator7RunTaskINS_18MakeCredentialTaskENS_35AuthenticatorMakeCredentialResponseEJNS_25CtapMakeCredentialRequestEEEEvDpOT1_N4base12OnceCallbackIFvNS_22CtapDeviceResponseCodeEN4absl8optionalIT0_EEEEE(%"class.device::FidoDeviceAuthenticator"* %0, %"struct.device::CtapMakeCredentialRequest"* dereferenceable(680) %1, %"class.base::OnceCallback.160"* nonnull %4)
  %33 = getelementptr inbounds %"class.base::OnceCallback.160", %"class.base::OnceCallback.160"* %4, i64 0, i32 0
  call void @_ZN4base8internal12CallbackBaseD2Ev(%"class.base::internal::CallbackBase"* nonnull %33) #13
  ret void
}

; Function Attrs: nounwind ssp uwtable
define linkonce_odr hidden void @_ZN6device23FidoDeviceAuthenticator7RunTaskINS_18MakeCredentialTaskENS_35AuthenticatorMakeCredentialResponseEJNS_25CtapMakeCredentialRequestEEEEvDpOT1_N4base12OnceCallbackIFvNS_22CtapDeviceResponseCodeEN4absl8optionalIT0_EEEEE(%"class.device::FidoDeviceAuthenticator"*, %"struct.device::CtapMakeCredentialRequest"* dereferenceable(680), %"class.base::OnceCallback.160"*) local_unnamed_addr #0 comdat align 2 {
  %4 = alloca %"struct.device::CtapMakeCredentialRequest", align 8
  %5 = alloca %"class.base::OnceCallback.160", align 8
  %6 = alloca %"class.base::internal::WeakReference", align 8
  %7 = alloca %"class.base::OnceCallback.160", align 8
  %8 = alloca %"class.base::WeakPtr.98", align 8
  %9 = getelementptr inbounds %"class.device::FidoDeviceAuthenticator", %"class.device::FidoDeviceAuthenticator"* %0, i64 0, i32 1, i32 0, i32 0, i32 0
  %10 = load %"class.device::FidoDevice"*, %"class.device::FidoDevice"** %9, align 8
  %11 = bitcast %"class.base::OnceCallback.160"* %7 to i8*
  call void @llvm.lifetime.start.p0i8(i64 8, i8* nonnull %11) #13
  %12 = bitcast %"class.base::WeakPtr.98"* %8 to i8*
  call void @llvm.lifetime.start.p0i8(i64 16, i8* nonnull %12) #13
  %13 = bitcast %"class.base::internal::WeakReference"* %6 to i8*
  call void @llvm.lifetime.start.p0i8(i64 8, i8* nonnull %13) #13, !noalias !17
  %14 = getelementptr inbounds %"class.device::FidoDeviceAuthenticator", %"class.device::FidoDeviceAuthenticator"* %0, i64 0, i32 6, i32 0, i32 0
  call void @_ZNK4base8internal18WeakReferenceOwner6GetRefEv(%"class.base::internal::WeakReference"* nonnull sret %6, %"class.base::internal::WeakReferenceOwner"* %14) #13, !noalias !17
  %15 = getelementptr inbounds %"class.device::FidoDeviceAuthenticator", %"class.device::FidoDeviceAuthenticator"* %0, i64 0, i32 6, i32 0, i32 1
  %16 = load i64, i64* %15, align 8, !noalias !17
  %17 = getelementptr inbounds %"class.base::WeakPtr.98", %"class.base::WeakPtr.98"* %8, i64 0, i32 0
  call void @_ZN4base8internal11WeakPtrBaseC2ERKNS0_13WeakReferenceEm(%"class.base::internal::WeakPtrBase"* nonnull %17, %"class.base::internal::WeakReference"* nonnull dereferenceable(8) %6, i64 %16) #13
  call void @_ZN4base8internal13WeakReferenceD1Ev(%"class.base::internal::WeakReference"* nonnull %6) #13
  call void @llvm.lifetime.end.p0i8(i64 8, i8* nonnull %13) #13, !noalias !17
  %18 = call i8* @_Znwm(i64 72) #14, !noalias !20
  %19 = bitcast i8* %18 to %"class.base::internal::BindStateBase"*
  call void @_ZN4base8internal13BindStateBaseC2EPFvvEPFvPKS1_EPFbS5_NS1_21CancellationQueryModeEE(%"class.base::internal::BindStateBase"* nonnull %19, void ()* bitcast (void (%"class.base::internal::BindStateBase"*, i8, %"class.absl::optional.507"*)* @_ZN4base8internal7InvokerINS0_9BindStateIMN6device23FidoDeviceAuthenticatorEFvNS_12OnceCallbackIFvNS3_22CtapDeviceResponseCodeEN4absl8optionalINS3_35AuthenticatorMakeCredentialResponseEEEEEES6_SA_EJNS_7WeakPtrIS4_EESC_EEESB_E7RunOnceEPNS0_13BindStateBaseES6_OSA_ to void ()*), void (%"class.base::internal::BindStateBase"*)* nonnull @_ZN4base8internal9BindStateIMN6device23FidoDeviceAuthenticatorEFvNS_12OnceCallbackIFvNS2_22CtapDeviceResponseCodeEN4absl8optionalINS2_35AuthenticatorMakeCredentialResponseEEEEEES5_S9_EJNS_7WeakPtrIS3_EESB_EE7DestroyEPKNS0_13BindStateBaseE, i1 (%"class.base::internal::BindStateBase"*, i32)* nonnull @_ZN4base8internal23QueryCancellationTraitsINS0_9BindStateIMN6device23FidoDeviceAuthenticatorEFvNS_12OnceCallbackIFvNS3_22CtapDeviceResponseCodeEN4absl8optionalINS3_35AuthenticatorMakeCredentialResponseEEEEEES6_SA_EJNS_7WeakPtrIS4_EESC_EEEEEbPKNS0_13BindStateBaseENSI_21CancellationQueryModeE) #13, !noalias !20
  %20 = getelementptr inbounds i8, i8* %18, i64 32
  %21 = bitcast i8* %20 to <2 x i64>*
  store <2 x i64> <i64 ptrtoint (void (%"class.device::FidoDeviceAuthenticator"*, %"class.base::OnceCallback.160"*, i8, %"class.absl::optional.507"*)* @_ZN6device23FidoDeviceAuthenticator14TaskClearProxyIJNS_22CtapDeviceResponseCodeEN4absl8optionalINS_35AuthenticatorMakeCredentialResponseEEEEEEvN4base12OnceCallbackIFvDpT_EEESA_ to i64), i64 0>, <2 x i64>* %21, align 8, !noalias !20
  %22 = getelementptr inbounds i8, i8* %18, i64 48
  %23 = bitcast i8* %22 to %"class.base::internal::WeakReference"*
  %24 = getelementptr inbounds %"class.base::WeakPtr.98", %"class.base::WeakPtr.98"* %8, i64 0, i32 0, i32 0
  call void @_ZN4base8internal13WeakReferenceC1EOS1_(%"class.base::internal::WeakReference"* %23, %"class.base::internal::WeakReference"* nonnull dereferenceable(8) %24) #13, !noalias !20
  %25 = getelementptr inbounds i8, i8* %18, i64 56
  %26 = bitcast i8* %25 to i64*
  %27 = getelementptr inbounds %"class.base::WeakPtr.98", %"class.base::WeakPtr.98"* %8, i64 0, i32 0, i32 1
  %28 = load i64, i64* %27, align 8, !noalias !20
  store i64 %28, i64* %26, align 8, !noalias !20
  %29 = getelementptr inbounds i8, i8* %18, i64 64
  %30 = getelementptr inbounds %"class.base::OnceCallback.160", %"class.base::OnceCallback.160"* %2, i64 0, i32 0, i32 0, i32 0
  %31 = bitcast %"class.base::OnceCallback.160"* %2 to i64*
  %32 = load i64, i64* %31, align 8, !noalias !20
  %33 = bitcast i8* %29 to i64*
  store i64 %32, i64* %33, align 8, !noalias !20
  store %"class.base::internal::BindStateBase"* null, %"class.base::internal::BindStateBase"** %30, align 8, !noalias !20
  %34 = bitcast %"struct.device::CtapMakeCredentialRequest"* %4 to i8*
  call void @llvm.lifetime.start.p0i8(i64 680, i8* nonnull %34)
  %35 = bitcast %"class.base::OnceCallback.160"* %5 to i8*
  call void @llvm.lifetime.start.p0i8(i64 8, i8* nonnull %35)
  %36 = call i8* @_Znwm(i64 792) #14
  %37 = bitcast i8* %36 to %"class.device::MakeCredentialTask"*
  call void @_ZN6device25CtapMakeCredentialRequestC1EOS0_(%"struct.device::CtapMakeCredentialRequest"* nonnull %4, %"struct.device::CtapMakeCredentialRequest"* dereferenceable(680) %1) #13
  %38 = getelementptr inbounds %"class.base::OnceCallback.160", %"class.base::OnceCallback.160"* %7, i64 0, i32 0, i32 0, i32 0
  %39 = ptrtoint i8* %18 to i64
  %40 = bitcast %"class.base::OnceCallback.160"* %5 to i64*
  store i64 %39, i64* %40, align 8
  store %"class.base::internal::BindStateBase"* null, %"class.base::internal::BindStateBase"** %38, align 8
  call void @_ZN6device18MakeCredentialTaskC1EPNS_10FidoDeviceENS_25CtapMakeCredentialRequestEN4base12OnceCallbackIFvNS_22CtapDeviceResponseCodeEN4absl8optionalINS_35AuthenticatorMakeCredentialResponseEEEEEE(%"class.device::MakeCredentialTask"* nonnull %37, %"class.device::FidoDevice"* %10, %"struct.device::CtapMakeCredentialRequest"* nonnull %4, %"class.base::OnceCallback.160"* nonnull %5) #13
  %41 = getelementptr inbounds %"class.base::OnceCallback.160", %"class.base::OnceCallback.160"* %5, i64 0, i32 0
  call void @_ZN4base8internal12CallbackBaseD2Ev(%"class.base::internal::CallbackBase"* nonnull %41) #13
  call void @_ZN6device25CtapMakeCredentialRequestD1Ev(%"struct.device::CtapMakeCredentialRequest"* nonnull %4) #13
  call void @llvm.lifetime.end.p0i8(i64 680, i8* nonnull %34)
  call void @llvm.lifetime.end.p0i8(i64 8, i8* nonnull %35)
  %42 = getelementptr inbounds %"class.device::FidoDeviceAuthenticator", %"class.device::FidoDeviceAuthenticator"* %0, i64 0, i32 3, i32 0, i32 0, i32 0
  %43 = load %"class.device::FidoTask"*, %"class.device::FidoTask"** %42, align 8
  %44 = bitcast %"class.device::FidoTask"** %42 to i8**
  store i8* %36, i8** %44, align 8
  %45 = icmp eq %"class.device::FidoTask"* %43, null
  br i1 %45, label %51, label %46

46:                                               ; preds = %3
  %47 = bitcast %"class.device::FidoTask"* %43 to void (%"class.device::FidoTask"*)***
  %48 = load void (%"class.device::FidoTask"*)**, void (%"class.device::FidoTask"*)*** %47, align 8
  %49 = getelementptr inbounds void (%"class.device::FidoTask"*)*, void (%"class.device::FidoTask"*)** %48, i64 1
  %50 = load void (%"class.device::FidoTask"*)*, void (%"class.device::FidoTask"*)** %49, align 8
  call void %50(%"class.device::FidoTask"* nonnull %43) #13
  br label %51

51:                                               ; preds = %46, %3
  %52 = getelementptr inbounds %"class.base::OnceCallback.160", %"class.base::OnceCallback.160"* %7, i64 0, i32 0
  call void @_ZN4base8internal12CallbackBaseD2Ev(%"class.base::internal::CallbackBase"* nonnull %52) #13
  call void @_ZN4base8internal11WeakPtrBaseD2Ev(%"class.base::internal::WeakPtrBase"* nonnull %17) #13
  call void @llvm.lifetime.end.p0i8(i64 16, i8* nonnull %12) #13
  call void @llvm.lifetime.end.p0i8(i64 8, i8* nonnull %11) #13
  ret void
}

; Function Attrs: nounwind ssp uwtable
define hidden void @_ZN6device23FidoDeviceAuthenticator12GetAssertionENS_23CtapGetAssertionRequestENS_23CtapGetAssertionOptionsEN4base12OnceCallbackIFvNS_22CtapDeviceResponseCodeEN4absl8optionalINS_33AuthenticatorGetAssertionResponseEEEEEE(%"class.device::FidoDeviceAuthenticator"*, %"struct.device::CtapGetAssertionRequest"*, %"struct.device::CtapGetAssertionOptions"*, %"class.base::OnceCallback.201"* nocapture) unnamed_addr #0 align 2 {
  %5 = alloca %"class.base::OnceCallback.202", align 8
  %6 = alloca %"class.base::OnceCallback.271", align 8
  %7 = alloca %"class.base::internal::WeakReference", align 8
  %8 = alloca %"class.base::OnceCallback.201", align 8
  %9 = alloca %"class.base::OnceCallback.202", align 8
  %10 = alloca %"class.base::WeakPtr.98", align 8
  %11 = alloca %"struct.device::CtapGetAssertionRequest", align 8
  %12 = alloca %"struct.device::CtapGetAssertionOptions", align 8
  %13 = alloca %"class.base::OnceCallback.201", align 8
  %14 = getelementptr inbounds %"struct.device::CtapGetAssertionOptions", %"struct.device::CtapGetAssertionOptions"* %2, i64 0, i32 1, i32 0, i32 0
  %15 = load %"struct.device::CtapGetAssertionOptions::PRFInput"*, %"struct.device::CtapGetAssertionOptions::PRFInput"** %14, align 8
  %16 = getelementptr inbounds %"struct.device::CtapGetAssertionOptions", %"struct.device::CtapGetAssertionOptions"* %2, i64 0, i32 1, i32 0, i32 1
  %17 = load %"struct.device::CtapGetAssertionOptions::PRFInput"*, %"struct.device::CtapGetAssertionOptions::PRFInput"** %16, align 8
  %18 = icmp eq %"struct.device::CtapGetAssertionOptions::PRFInput"* %15, %17
  br i1 %18, label %67, label %19

19:                                               ; preds = %4
  %20 = bitcast %"class.base::WeakPtr.98"* %10 to i8*
  call void @llvm.lifetime.start.p0i8(i64 16, i8* nonnull %20) #13
  %21 = bitcast %"class.base::internal::WeakReference"* %7 to i8*
  call void @llvm.lifetime.start.p0i8(i64 8, i8* nonnull %21) #13, !noalias !25
  %22 = getelementptr inbounds %"class.device::FidoDeviceAuthenticator", %"class.device::FidoDeviceAuthenticator"* %0, i64 0, i32 6, i32 0, i32 0
  call void @_ZNK4base8internal18WeakReferenceOwner6GetRefEv(%"class.base::internal::WeakReference"* nonnull sret %7, %"class.base::internal::WeakReferenceOwner"* %22) #13, !noalias !25
  %23 = getelementptr inbounds %"class.device::FidoDeviceAuthenticator", %"class.device::FidoDeviceAuthenticator"* %0, i64 0, i32 6, i32 0, i32 1
  %24 = load i64, i64* %23, align 8, !noalias !25
  %25 = getelementptr inbounds %"class.base::WeakPtr.98", %"class.base::WeakPtr.98"* %10, i64 0, i32 0
  call void @_ZN4base8internal11WeakPtrBaseC2ERKNS0_13WeakReferenceEm(%"class.base::internal::WeakPtrBase"* nonnull %25, %"class.base::internal::WeakReference"* nonnull dereferenceable(8) %7, i64 %24) #13
  call void @_ZN4base8internal13WeakReferenceD1Ev(%"class.base::internal::WeakReference"* nonnull %7) #13
  call void @llvm.lifetime.end.p0i8(i64 8, i8* nonnull %21) #13, !noalias !25
  %26 = call i8* @_Znwm(i64 600) #14, !noalias !28
  %27 = bitcast i8* %26 to %"class.base::internal::BindStateBase"*
  call void @_ZN4base8internal13BindStateBaseC2EPFvvEPFvPKS1_EPFbS5_NS1_21CancellationQueryModeEE(%"class.base::internal::BindStateBase"* nonnull %27, void ()* bitcast (void (%"class.base::internal::BindStateBase"*, i8, %"class.absl::optional.189"*)* @_ZN4base8internal7InvokerINS0_9BindStateIMN6device23FidoDeviceAuthenticatorEFvNS3_23CtapGetAssertionRequestENS3_23CtapGetAssertionOptionsENS_12OnceCallbackIFvNS3_22CtapDeviceResponseCodeEN4absl8optionalINS3_33AuthenticatorGetAssertionResponseEEEEEES8_NSA_INS3_3pin20KeyAgreementResponseEEEEJNS_7WeakPtrIS4_EES5_S6_SE_EEEFvS8_SH_EE7RunOnceEPNS0_13BindStateBaseES8_OSH_ to void ()*), void (%"class.base::internal::BindStateBase"*)* nonnull @_ZN4base8internal9BindStateIMN6device23FidoDeviceAuthenticatorEFvNS2_23CtapGetAssertionRequestENS2_23CtapGetAssertionOptionsENS_12OnceCallbackIFvNS2_22CtapDeviceResponseCodeEN4absl8optionalINS2_33AuthenticatorGetAssertionResponseEEEEEES7_NS9_INS2_3pin20KeyAgreementResponseEEEEJNS_7WeakPtrIS3_EES4_S5_SD_EE7DestroyEPKNS0_13BindStateBaseE, i1 (%"class.base::internal::BindStateBase"*, i32)* nonnull @_ZN4base8internal23QueryCancellationTraitsINS0_9BindStateIMN6device23FidoDeviceAuthenticatorEFvNS3_23CtapGetAssertionRequestENS3_23CtapGetAssertionOptionsENS_12OnceCallbackIFvNS3_22CtapDeviceResponseCodeEN4absl8optionalINS3_33AuthenticatorGetAssertionResponseEEEEEES8_NSA_INS3_3pin20KeyAgreementResponseEEEEJNS_7WeakPtrIS4_EES5_S6_SE_EEEEEbPKNS0_13BindStateBaseENSN_21CancellationQueryModeE) #13, !noalias !28
  %28 = getelementptr inbounds i8, i8* %26, i64 32
  %29 = bitcast i8* %28 to <2 x i64>*
  store <2 x i64> <i64 ptrtoint (void (%"class.device::FidoDeviceAuthenticator"*, %"struct.device::CtapGetAssertionRequest"*, %"struct.device::CtapGetAssertionOptions"*, %"class.base::OnceCallback.201"*, i8, %"class.absl::optional.189"*)* @_ZN6device23FidoDeviceAuthenticator33OnHaveEphemeralKeyForGetAssertionENS_23CtapGetAssertionRequestENS_23CtapGetAssertionOptionsEN4base12OnceCallbackIFvNS_22CtapDeviceResponseCodeEN4absl8optionalINS_33AuthenticatorGetAssertionResponseEEEEEES5_NS7_INS_3pin20KeyAgreementResponseEEE to i64), i64 0>, <2 x i64>* %29, align 8, !noalias !28
  %30 = getelementptr inbounds i8, i8* %26, i64 48
  %31 = bitcast i8* %30 to %"class.base::internal::WeakReference"*
  %32 = getelementptr inbounds %"class.base::WeakPtr.98", %"class.base::WeakPtr.98"* %10, i64 0, i32 0, i32 0
  call void @_ZN4base8internal13WeakReferenceC1EOS1_(%"class.base::internal::WeakReference"* %31, %"class.base::internal::WeakReference"* nonnull dereferenceable(8) %32) #13, !noalias !28
  %33 = getelementptr inbounds i8, i8* %26, i64 56
  %34 = bitcast i8* %33 to i64*
  %35 = getelementptr inbounds %"class.base::WeakPtr.98", %"class.base::WeakPtr.98"* %10, i64 0, i32 0, i32 1
  %36 = load i64, i64* %35, align 8, !noalias !28
  store i64 %36, i64* %34, align 8, !noalias !28
  %37 = getelementptr inbounds i8, i8* %26, i64 64
  %38 = bitcast i8* %37 to %"struct.device::CtapGetAssertionRequest"*
  call void @_ZN6device23CtapGetAssertionRequestC1EOS0_(%"struct.device::CtapGetAssertionRequest"* %38, %"struct.device::CtapGetAssertionRequest"* dereferenceable(432) %1) #13, !noalias !28
  %39 = getelementptr inbounds i8, i8* %26, i64 496
  %40 = bitcast i8* %39 to %"struct.device::CtapGetAssertionOptions"*
  call void @_ZN6device23CtapGetAssertionOptionsC1EOS0_(%"struct.device::CtapGetAssertionOptions"* %40, %"struct.device::CtapGetAssertionOptions"* dereferenceable(96) %2) #13, !noalias !28
  %41 = getelementptr inbounds i8, i8* %26, i64 592
  %42 = getelementptr inbounds %"class.base::OnceCallback.201", %"class.base::OnceCallback.201"* %3, i64 0, i32 0, i32 0, i32 0
  %43 = bitcast %"class.base::OnceCallback.201"* %3 to i64*
  %44 = load i64, i64* %43, align 8, !noalias !28
  %45 = bitcast i8* %41 to i64*
  store i64 %44, i64* %45, align 8, !noalias !28
  store %"class.base::internal::BindStateBase"* null, %"class.base::internal::BindStateBase"** %42, align 8, !noalias !28
  %46 = bitcast %"class.base::OnceCallback.202"* %9 to i8**
  store i8* %26, i8** %46, align 8, !alias.scope !28
  %47 = bitcast %"class.base::OnceCallback.202"* %5 to i8*
  call void @llvm.lifetime.start.p0i8(i64 8, i8* nonnull %47)
  %48 = bitcast %"class.base::OnceCallback.271"* %6 to i8*
  call void @llvm.lifetime.start.p0i8(i64 8, i8* nonnull %48)
  %49 = getelementptr inbounds %"class.device::FidoDeviceAuthenticator", %"class.device::FidoDeviceAuthenticator"* %0, i64 0, i32 5, i32 0, i32 0, i32 0, i32 0
  %50 = load i8, i8* %49, align 1, !range !2
  %51 = icmp eq i8 %50, 0
  br i1 %51, label %52, label %53, !prof !16

52:                                               ; preds = %19
  call void @llvm.trap() #13
  unreachable

53:                                               ; preds = %19
  %54 = ptrtoint i8* %26 to i64
  %55 = getelementptr inbounds %"class.device::FidoDeviceAuthenticator", %"class.device::FidoDeviceAuthenticator"* %0, i64 0, i32 5, i32 0, i32 0, i32 0, i32 1, i32 0
  %56 = load i8, i8* %55, align 1
  %57 = getelementptr inbounds %"class.base::OnceCallback.202", %"class.base::OnceCallback.202"* %9, i64 0, i32 0, i32 0, i32 0
  %58 = bitcast %"class.base::OnceCallback.202"* %5 to i64*
  store i64 %54, i64* %58, align 8
  store %"class.base::internal::BindStateBase"* null, %"class.base::internal::BindStateBase"** %57, align 8
  %59 = call i8* @_Znwm(i64 48) #14, !noalias !33
  %60 = bitcast i8* %59 to %"class.base::internal::BindStateBase"*
  call void @_ZN4base8internal13BindStateBaseC2EPFvvEPFvPKS1_E(%"class.base::internal::BindStateBase"* nonnull %60, void ()* bitcast (void (%"class.absl::optional.189"*, %"class.base::internal::BindStateBase"*, %"class.absl::optional.221"*)* @_ZN4base8internal7InvokerINS0_9BindStateIPFN4absl8optionalIN6device3pin20KeyAgreementResponseEEERKNS4_IN4cbor5ValueEEEEJEEESE_E7RunOnceEPNS0_13BindStateBaseESD_ to void ()*), void (%"class.base::internal::BindStateBase"*)* nonnull @_ZN4base8internal9BindStateIPFN4absl8optionalIN6device3pin20KeyAgreementResponseEEERKNS3_IN4cbor5ValueEEEEJEE7DestroyEPKNS0_13BindStateBaseE) #13, !noalias !33
  %61 = getelementptr inbounds i8, i8* %59, i64 32
  %62 = bitcast i8* %61 to i64*
  store i64 ptrtoint (void (%"class.absl::optional.189"*, %"class.absl::optional.221"*)* @_ZN6device3pin20KeyAgreementResponse5ParseERKN4absl8optionalIN4cbor5ValueEEE to i64), i64* %62, align 8, !noalias !33
  %63 = bitcast %"class.base::OnceCallback.271"* %6 to i8**
  store i8* %59, i8** %63, align 8, !alias.scope !33
  call void @_ZN6device23FidoDeviceAuthenticator12RunOperationINS_3pin19KeyAgreementRequestENS2_20KeyAgreementResponseEEEvT_N4base12OnceCallbackIFvNS_22CtapDeviceResponseCodeEN4absl8optionalIT0_EEEEENS7_IFSC_RKNSA_IN4cbor5ValueEEEEEEPFbRKNSt3__16vectorIPKSG_NSM_9allocatorISP_EEEEE(%"class.device::FidoDeviceAuthenticator"* %0, i8 %56, %"class.base::OnceCallback.202"* nonnull %5, %"class.base::OnceCallback.271"* nonnull %6, i1 (%"class.std::__1::vector.257"*)* null) #13
  %64 = getelementptr inbounds %"class.base::OnceCallback.271", %"class.base::OnceCallback.271"* %6, i64 0, i32 0
  call void @_ZN4base8internal12CallbackBaseD2Ev(%"class.base::internal::CallbackBase"* nonnull %64) #13
  %65 = getelementptr inbounds %"class.base::OnceCallback.202", %"class.base::OnceCallback.202"* %5, i64 0, i32 0
  call void @_ZN4base8internal12CallbackBaseD2Ev(%"class.base::internal::CallbackBase"* nonnull %65) #13
  call void @llvm.lifetime.end.p0i8(i64 8, i8* nonnull %47)
  call void @llvm.lifetime.end.p0i8(i64 8, i8* nonnull %48)
  %66 = getelementptr inbounds %"class.base::OnceCallback.202", %"class.base::OnceCallback.202"* %9, i64 0, i32 0
  call void @_ZN4base8internal12CallbackBaseD2Ev(%"class.base::internal::CallbackBase"* nonnull %66) #13
  call void @_ZN4base8internal11WeakPtrBaseD2Ev(%"class.base::internal::WeakPtrBase"* nonnull %25) #13
  call void @llvm.lifetime.end.p0i8(i64 16, i8* nonnull %20) #13
  br label %97

67:                                               ; preds = %4
  call void @_ZN6device23CtapGetAssertionRequestC1EOS0_(%"struct.device::CtapGetAssertionRequest"* nonnull %11, %"struct.device::CtapGetAssertionRequest"* dereferenceable(432) %1) #13
  call void @_ZN6device23CtapGetAssertionOptionsC1EOS0_(%"struct.device::CtapGetAssertionOptions"* nonnull %12, %"struct.device::CtapGetAssertionOptions"* dereferenceable(96) %2) #13
  %68 = getelementptr inbounds %"class.base::OnceCallback.201", %"class.base::OnceCallback.201"* %3, i64 0, i32 0, i32 0, i32 0
  %69 = bitcast %"class.base::OnceCallback.201"* %3 to i64*
  %70 = load i64, i64* %69, align 8
  %71 = bitcast %"class.base::OnceCallback.201"* %13 to i64*
  store i64 %70, i64* %71, align 8
  store %"class.base::internal::BindStateBase"* null, %"class.base::internal::BindStateBase"** %68, align 8
  %72 = bitcast %"class.base::OnceCallback.201"* %8 to i8*
  call void @llvm.lifetime.start.p0i8(i64 8, i8* nonnull %72)
  %73 = getelementptr inbounds %"struct.device::CtapGetAssertionRequest", %"struct.device::CtapGetAssertionRequest"* %11, i64 0, i32 7, i32 0, i32 0, i32 0, i32 0
  %74 = load i8, i8* %73, align 8, !range !2
  %75 = icmp eq i8 %74, 0
  br i1 %75, label %76, label %90

76:                                               ; preds = %67
  %77 = getelementptr inbounds %"class.device::FidoDeviceAuthenticator", %"class.device::FidoDeviceAuthenticator"* %0, i64 0, i32 2, i32 0, i32 0, i32 0, i32 0
  %78 = load i8, i8* %77, align 4, !range !2
  %79 = icmp eq i8 %78, 0
  br i1 %79, label %80, label %81, !prof !16

80:                                               ; preds = %76
  call void @llvm.trap() #13
  unreachable

81:                                               ; preds = %76
  %82 = getelementptr inbounds %"class.device::FidoDeviceAuthenticator", %"class.device::FidoDeviceAuthenticator"* %0, i64 0, i32 2, i32 0, i32 0, i32 0, i32 2, i32 0, i32 3
  %83 = load i32, i32* %82, align 4
  %84 = icmp eq i32 %83, 0
  br i1 %84, label %85, label %90

85:                                               ; preds = %81
  %86 = getelementptr inbounds %"struct.device::CtapGetAssertionRequest", %"struct.device::CtapGetAssertionRequest"* %11, i64 0, i32 3
  %87 = load i32, i32* %86, align 8
  %88 = icmp eq i32 %87, 2
  br i1 %88, label %90, label %89

89:                                               ; preds = %85
  store i32 0, i32* %86, align 8
  br label %92

90:                                               ; preds = %85, %81, %67
  %91 = getelementptr inbounds %"struct.device::CtapGetAssertionRequest", %"struct.device::CtapGetAssertionRequest"* %11, i64 0, i32 3
  store i32 2, i32* %91, align 8
  br label %92

92:                                               ; preds = %89, %90
  %93 = getelementptr inbounds %"class.base::OnceCallback.201", %"class.base::OnceCallback.201"* %13, i64 0, i32 0, i32 0, i32 0
  %94 = bitcast %"class.base::OnceCallback.201"* %8 to i64*
  store i64 %70, i64* %94, align 8
  store %"class.base::internal::BindStateBase"* null, %"class.base::internal::BindStateBase"** %93, align 8
  call void @_ZN6device23FidoDeviceAuthenticator7RunTaskINS_16GetAssertionTaskENS_33AuthenticatorGetAssertionResponseEJNS_23CtapGetAssertionRequestENS_23CtapGetAssertionOptionsEEEEvDpOT1_N4base12OnceCallbackIFvNS_22CtapDeviceResponseCodeEN4absl8optionalIT0_EEEEE(%"class.device::FidoDeviceAuthenticator"* %0, %"struct.device::CtapGetAssertionRequest"* nonnull dereferenceable(432) %11, %"struct.device::CtapGetAssertionOptions"* nonnull dereferenceable(96) %12, %"class.base::OnceCallback.201"* nonnull %8) #13
  %95 = getelementptr inbounds %"class.base::OnceCallback.201", %"class.base::OnceCallback.201"* %8, i64 0, i32 0
  call void @_ZN4base8internal12CallbackBaseD2Ev(%"class.base::internal::CallbackBase"* nonnull %95) #13
  call void @llvm.lifetime.end.p0i8(i64 8, i8* nonnull %72)
  %96 = getelementptr inbounds %"class.base::OnceCallback.201", %"class.base::OnceCallback.201"* %13, i64 0, i32 0
  call void @_ZN4base8internal12CallbackBaseD2Ev(%"class.base::internal::CallbackBase"* nonnull %96) #13
  call void @_ZN6device23CtapGetAssertionOptionsD1Ev(%"struct.device::CtapGetAssertionOptions"* nonnull %12) #13
  call void @_ZN6device23CtapGetAssertionRequestD1Ev(%"struct.device::CtapGetAssertionRequest"* nonnull %11) #13
  br label %97

97:                                               ; preds = %92, %53
  ret void
}

; Function Attrs: nounwind ssp uwtable
define hidden void @_ZN6device23FidoDeviceAuthenticator15GetEphemeralKeyEN4base12OnceCallbackIFvNS_22CtapDeviceResponseCodeEN4absl8optionalINS_3pin20KeyAgreementResponseEEEEEE(%"class.device::FidoDeviceAuthenticator"*, %"class.base::OnceCallback.202"* nocapture) local_unnamed_addr #0 align 2 {
  %3 = alloca %"class.base::OnceCallback.202", align 8
  %4 = alloca %"class.base::OnceCallback.271", align 8
  %5 = getelementptr inbounds %"class.device::FidoDeviceAuthenticator", %"class.device::FidoDeviceAuthenticator"* %0, i64 0, i32 5, i32 0, i32 0, i32 0, i32 0
  %6 = load i8, i8* %5, align 1, !range !2
  %7 = icmp eq i8 %6, 0
  br i1 %7, label %8, label %9, !prof !16

8:                                                ; preds = %2
  tail call void @llvm.trap() #13
  unreachable

9:                                                ; preds = %2
  %10 = getelementptr inbounds %"class.device::FidoDeviceAuthenticator", %"class.device::FidoDeviceAuthenticator"* %0, i64 0, i32 5, i32 0, i32 0, i32 0, i32 1, i32 0
  %11 = load i8, i8* %10, align 1
  %12 = getelementptr inbounds %"class.base::OnceCallback.202", %"class.base::OnceCallback.202"* %1, i64 0, i32 0, i32 0, i32 0
  %13 = bitcast %"class.base::OnceCallback.202"* %1 to i64*
  %14 = load i64, i64* %13, align 8
  %15 = bitcast %"class.base::OnceCallback.202"* %3 to i64*
  store i64 %14, i64* %15, align 8
  store %"class.base::internal::BindStateBase"* null, %"class.base::internal::BindStateBase"** %12, align 8
  %16 = tail call i8* @_Znwm(i64 48) #14, !noalias !38
  %17 = bitcast i8* %16 to %"class.base::internal::BindStateBase"*
  tail call void @_ZN4base8internal13BindStateBaseC2EPFvvEPFvPKS1_E(%"class.base::internal::BindStateBase"* nonnull %17, void ()* bitcast (void (%"class.absl::optional.189"*, %"class.base::internal::BindStateBase"*, %"class.absl::optional.221"*)* @_ZN4base8internal7InvokerINS0_9BindStateIPFN4absl8optionalIN6device3pin20KeyAgreementResponseEEERKNS4_IN4cbor5ValueEEEEJEEESE_E7RunOnceEPNS0_13BindStateBaseESD_ to void ()*), void (%"class.base::internal::BindStateBase"*)* nonnull @_ZN4base8internal9BindStateIPFN4absl8optionalIN6device3pin20KeyAgreementResponseEEERKNS3_IN4cbor5ValueEEEEJEE7DestroyEPKNS0_13BindStateBaseE) #13, !noalias !38
  %18 = getelementptr inbounds i8, i8* %16, i64 32
  %19 = bitcast i8* %18 to i64*
  store i64 ptrtoint (void (%"class.absl::optional.189"*, %"class.absl::optional.221"*)* @_ZN6device3pin20KeyAgreementResponse5ParseERKN4absl8optionalIN4cbor5ValueEEE to i64), i64* %19, align 8, !noalias !38
  %20 = bitcast %"class.base::OnceCallback.271"* %4 to i8**
  store i8* %16, i8** %20, align 8, !alias.scope !38
  call void @_ZN6device23FidoDeviceAuthenticator12RunOperationINS_3pin19KeyAgreementRequestENS2_20KeyAgreementResponseEEEvT_N4base12OnceCallbackIFvNS_22CtapDeviceResponseCodeEN4absl8optionalIT0_EEEEENS7_IFSC_RKNSA_IN4cbor5ValueEEEEEEPFbRKNSt3__16vectorIPKSG_NSM_9allocatorISP_EEEEE(%"class.device::FidoDeviceAuthenticator"* %0, i8 %11, %"class.base::OnceCallback.202"* nonnull %3, %"class.base::OnceCallback.271"* nonnull %4, i1 (%"class.std::__1::vector.257"*)* null)
  %21 = getelementptr inbounds %"class.base::OnceCallback.271", %"class.base::OnceCallback.271"* %4, i64 0, i32 0
  call void @_ZN4base8internal12CallbackBaseD2Ev(%"class.base::internal::CallbackBase"* nonnull %21) #13
  %22 = getelementptr inbounds %"class.base::OnceCallback.202", %"class.base::OnceCallback.202"* %3, i64 0, i32 0
  call void @_ZN4base8internal12CallbackBaseD2Ev(%"class.base::internal::CallbackBase"* nonnull %22) #13
  ret void
}

; Function Attrs: nounwind ssp uwtable
define hidden void @_ZN6device23FidoDeviceAuthenticator33OnHaveEphemeralKeyForGetAssertionENS_23CtapGetAssertionRequestENS_23CtapGetAssertionOptionsEN4base12OnceCallbackIFvNS_22CtapDeviceResponseCodeEN4absl8optionalINS_33AuthenticatorGetAssertionResponseEEEEEES5_NS7_INS_3pin20KeyAgreementResponseEEE(%"class.device::FidoDeviceAuthenticator"*, %"struct.device::CtapGetAssertionRequest"*, %"struct.device::CtapGetAssertionOptions"*, %"class.base::OnceCallback.201"* nocapture, i8 zeroext, %"class.absl::optional.189"* nocapture readonly byval(%"class.absl::optional.189") align 8) #0 align 2 {
  %7 = alloca %"class.base::OnceCallback.201", align 8
  %8 = alloca %"class.base::OnceCallback.201", align 8
  %9 = alloca %"class.absl::optional.203", align 8
  %10 = alloca %"struct.device::CtapGetAssertionRequest", align 8
  %11 = alloca %"struct.device::CtapGetAssertionOptions", align 8
  %12 = alloca %"class.base::OnceCallback.201", align 8
  %13 = icmp eq i8 %4, 0
  br i1 %13, label %31, label %14

14:                                               ; preds = %6
  %15 = getelementptr inbounds %"class.absl::optional.203", %"class.absl::optional.203"* %9, i64 0, i32 0, i32 0, i32 0, i32 0
  store i8 0, i8* %15, align 8
  %16 = getelementptr inbounds %"class.absl::optional.203", %"class.absl::optional.203"* %9, i64 0, i32 0, i32 0, i32 0, i32 2, i32 0, i32 0, i32 0, i32 0, i64 0
  call void @llvm.memset.p0i8.i64(i8* align 8 %16, i8 0, i64 576, i1 false) #13
  %17 = bitcast %"class.base::OnceCallback.201"* %7 to i8*
  call void @llvm.lifetime.start.p0i8(i64 8, i8* nonnull %17) #13
  %18 = getelementptr inbounds %"class.base::OnceCallback.201", %"class.base::OnceCallback.201"* %3, i64 0, i32 0, i32 0, i32 0
  %19 = bitcast %"class.base::OnceCallback.201"* %3 to i64*
  %20 = load i64, i64* %19, align 8
  %21 = bitcast %"class.base::OnceCallback.201"* %7 to i64*
  store i64 %20, i64* %21, align 8
  store %"class.base::internal::BindStateBase"* null, %"class.base::internal::BindStateBase"** %18, align 8
  %22 = getelementptr inbounds %"class.base::OnceCallback.201", %"class.base::OnceCallback.201"* %7, i64 0, i32 0
  %23 = inttoptr i64 %20 to %"class.base::internal::BindStateBase"*
  %24 = getelementptr inbounds %"class.base::internal::BindStateBase", %"class.base::internal::BindStateBase"* %23, i64 0, i32 1
  %25 = bitcast void ()** %24 to void (%"class.base::internal::BindStateBase"*, i8, %"class.absl::optional.203"*)**
  %26 = load void (%"class.base::internal::BindStateBase"*, i8, %"class.absl::optional.203"*)*, void (%"class.base::internal::BindStateBase"*, i8, %"class.absl::optional.203"*)** %25, align 8
  call void %26(%"class.base::internal::BindStateBase"* %23, i8 zeroext %4, %"class.absl::optional.203"* nonnull dereferenceable(584) %9) #13
  call void @_ZN4base8internal12CallbackBaseD2Ev(%"class.base::internal::CallbackBase"* nonnull %22) #13
  call void @llvm.lifetime.end.p0i8(i64 8, i8* nonnull %17) #13
  %27 = load i8, i8* %15, align 8, !range !2
  %28 = icmp eq i8 %27, 0
  br i1 %28, label %73, label %29

29:                                               ; preds = %14
  %30 = getelementptr inbounds %"class.absl::optional.203", %"class.absl::optional.203"* %9, i64 0, i32 0, i32 0, i32 0, i32 2, i32 0
  call void @_ZN6device33AuthenticatorGetAssertionResponseD1Ev(%"class.device::AuthenticatorGetAssertionResponse"* %30) #13
  store i8 0, i8* %15, align 8
  br label %73

31:                                               ; preds = %6
  %32 = getelementptr inbounds %"class.absl::optional.189", %"class.absl::optional.189"* %5, i64 0, i32 0, i32 0, i32 0, i32 0
  %33 = load i8, i8* %32, align 8, !range !2
  %34 = icmp eq i8 %33, 0
  br i1 %34, label %35, label %36, !prof !16

35:                                               ; preds = %31
  tail call void @llvm.trap() #13
  unreachable

36:                                               ; preds = %31
  %37 = getelementptr inbounds %"struct.device::CtapGetAssertionOptions", %"struct.device::CtapGetAssertionOptions"* %2, i64 0, i32 0, i32 0, i32 0, i32 0, i32 0
  %38 = load i8, i8* %37, align 1, !range !2
  %39 = icmp eq i8 %38, 0
  %40 = getelementptr inbounds %"struct.device::CtapGetAssertionOptions", %"struct.device::CtapGetAssertionOptions"* %2, i64 0, i32 0, i32 0, i32 0, i32 0, i32 1, i32 0, i32 0, i64 0
  %41 = getelementptr inbounds %"class.absl::optional.189", %"class.absl::optional.189"* %5, i64 0, i32 0, i32 0, i32 0, i32 1, i32 0, i32 0, i64 0
  call void @llvm.memcpy.p0i8.p0i8.i64(i8* align 1 %40, i8* align 1 %41, i64 64, i1 false) #13
  br i1 %39, label %42, label %43

42:                                               ; preds = %36
  store i8 1, i8* %37, align 1
  br label %43

43:                                               ; preds = %36, %42
  call void @_ZN6device23CtapGetAssertionRequestC1EOS0_(%"struct.device::CtapGetAssertionRequest"* nonnull %10, %"struct.device::CtapGetAssertionRequest"* dereferenceable(432) %1) #13
  call void @_ZN6device23CtapGetAssertionOptionsC1EOS0_(%"struct.device::CtapGetAssertionOptions"* nonnull %11, %"struct.device::CtapGetAssertionOptions"* dereferenceable(96) %2) #13
  %44 = getelementptr inbounds %"class.base::OnceCallback.201", %"class.base::OnceCallback.201"* %3, i64 0, i32 0, i32 0, i32 0
  %45 = bitcast %"class.base::OnceCallback.201"* %3 to i64*
  %46 = load i64, i64* %45, align 8
  %47 = bitcast %"class.base::OnceCallback.201"* %12 to i64*
  store i64 %46, i64* %47, align 8
  store %"class.base::internal::BindStateBase"* null, %"class.base::internal::BindStateBase"** %44, align 8
  %48 = bitcast %"class.base::OnceCallback.201"* %8 to i8*
  call void @llvm.lifetime.start.p0i8(i64 8, i8* nonnull %48)
  %49 = getelementptr inbounds %"struct.device::CtapGetAssertionRequest", %"struct.device::CtapGetAssertionRequest"* %10, i64 0, i32 7, i32 0, i32 0, i32 0, i32 0
  %50 = load i8, i8* %49, align 8, !range !2
  %51 = icmp eq i8 %50, 0
  br i1 %51, label %52, label %66

52:                                               ; preds = %43
  %53 = getelementptr inbounds %"class.device::FidoDeviceAuthenticator", %"class.device::FidoDeviceAuthenticator"* %0, i64 0, i32 2, i32 0, i32 0, i32 0, i32 0
  %54 = load i8, i8* %53, align 4, !range !2
  %55 = icmp eq i8 %54, 0
  br i1 %55, label %56, label %57, !prof !16

56:                                               ; preds = %52
  call void @llvm.trap() #13
  unreachable

57:                                               ; preds = %52
  %58 = getelementptr inbounds %"class.device::FidoDeviceAuthenticator", %"class.device::FidoDeviceAuthenticator"* %0, i64 0, i32 2, i32 0, i32 0, i32 0, i32 2, i32 0, i32 3
  %59 = load i32, i32* %58, align 4
  %60 = icmp eq i32 %59, 0
  br i1 %60, label %61, label %66

61:                                               ; preds = %57
  %62 = getelementptr inbounds %"struct.device::CtapGetAssertionRequest", %"struct.device::CtapGetAssertionRequest"* %10, i64 0, i32 3
  %63 = load i32, i32* %62, align 8
  %64 = icmp eq i32 %63, 2
  br i1 %64, label %66, label %65

65:                                               ; preds = %61
  store i32 0, i32* %62, align 8
  br label %68

66:                                               ; preds = %61, %57, %43
  %67 = getelementptr inbounds %"struct.device::CtapGetAssertionRequest", %"struct.device::CtapGetAssertionRequest"* %10, i64 0, i32 3
  store i32 2, i32* %67, align 8
  br label %68

68:                                               ; preds = %65, %66
  %69 = getelementptr inbounds %"class.base::OnceCallback.201", %"class.base::OnceCallback.201"* %12, i64 0, i32 0, i32 0, i32 0
  %70 = bitcast %"class.base::OnceCallback.201"* %8 to i64*
  store i64 %46, i64* %70, align 8
  store %"class.base::internal::BindStateBase"* null, %"class.base::internal::BindStateBase"** %69, align 8
  call void @_ZN6device23FidoDeviceAuthenticator7RunTaskINS_16GetAssertionTaskENS_33AuthenticatorGetAssertionResponseEJNS_23CtapGetAssertionRequestENS_23CtapGetAssertionOptionsEEEEvDpOT1_N4base12OnceCallbackIFvNS_22CtapDeviceResponseCodeEN4absl8optionalIT0_EEEEE(%"class.device::FidoDeviceAuthenticator"* %0, %"struct.device::CtapGetAssertionRequest"* nonnull dereferenceable(432) %10, %"struct.device::CtapGetAssertionOptions"* nonnull dereferenceable(96) %11, %"class.base::OnceCallback.201"* nonnull %8) #13
  %71 = getelementptr inbounds %"class.base::OnceCallback.201", %"class.base::OnceCallback.201"* %8, i64 0, i32 0
  call void @_ZN4base8internal12CallbackBaseD2Ev(%"class.base::internal::CallbackBase"* nonnull %71) #13
  call void @llvm.lifetime.end.p0i8(i64 8, i8* nonnull %48)
  %72 = getelementptr inbounds %"class.base::OnceCallback.201", %"class.base::OnceCallback.201"* %12, i64 0, i32 0
  call void @_ZN4base8internal12CallbackBaseD2Ev(%"class.base::internal::CallbackBase"* nonnull %72) #13
  call void @_ZN6device23CtapGetAssertionOptionsD1Ev(%"struct.device::CtapGetAssertionOptions"* nonnull %11) #13
  call void @_ZN6device23CtapGetAssertionRequestD1Ev(%"struct.device::CtapGetAssertionRequest"* nonnull %10) #13
  br label %73

73:                                               ; preds = %29, %14, %68
  ret void
}

; Function Attrs: nounwind ssp uwtable
define hidden void @_ZN6device23FidoDeviceAuthenticator14DoGetAssertionENS_23CtapGetAssertionRequestENS_23CtapGetAssertionOptionsEN4base12OnceCallbackIFvNS_22CtapDeviceResponseCodeEN4absl8optionalINS_33AuthenticatorGetAssertionResponseEEEEEE(%"class.device::FidoDeviceAuthenticator"*, %"struct.device::CtapGetAssertionRequest"*, %"struct.device::CtapGetAssertionOptions"*, %"class.base::OnceCallback.201"* nocapture) local_unnamed_addr #0 align 2 {
  %5 = alloca %"class.base::OnceCallback.201", align 8
  %6 = getelementptr inbounds %"struct.device::CtapGetAssertionRequest", %"struct.device::CtapGetAssertionRequest"* %1, i64 0, i32 7, i32 0, i32 0, i32 0, i32 0
  %7 = load i8, i8* %6, align 8, !range !2
  %8 = icmp eq i8 %7, 0
  br i1 %8, label %9, label %23

9:                                                ; preds = %4
  %10 = getelementptr inbounds %"class.device::FidoDeviceAuthenticator", %"class.device::FidoDeviceAuthenticator"* %0, i64 0, i32 2, i32 0, i32 0, i32 0, i32 0
  %11 = load i8, i8* %10, align 4, !range !2
  %12 = icmp eq i8 %11, 0
  br i1 %12, label %13, label %14, !prof !16

13:                                               ; preds = %9
  tail call void @llvm.trap() #13
  unreachable

14:                                               ; preds = %9
  %15 = getelementptr inbounds %"class.device::FidoDeviceAuthenticator", %"class.device::FidoDeviceAuthenticator"* %0, i64 0, i32 2, i32 0, i32 0, i32 0, i32 2, i32 0, i32 3
  %16 = load i32, i32* %15, align 4
  %17 = icmp eq i32 %16, 0
  br i1 %17, label %18, label %23

18:                                               ; preds = %14
  %19 = getelementptr inbounds %"struct.device::CtapGetAssertionRequest", %"struct.device::CtapGetAssertionRequest"* %1, i64 0, i32 3
  %20 = load i32, i32* %19, align 8
  %21 = icmp eq i32 %20, 2
  br i1 %21, label %23, label %22

22:                                               ; preds = %18
  store i32 0, i32* %19, align 8
  br label %25

23:                                               ; preds = %4, %18, %14
  %24 = getelementptr inbounds %"struct.device::CtapGetAssertionRequest", %"struct.device::CtapGetAssertionRequest"* %1, i64 0, i32 3
  store i32 2, i32* %24, align 8
  br label %25

25:                                               ; preds = %23, %22
  %26 = getelementptr inbounds %"class.base::OnceCallback.201", %"class.base::OnceCallback.201"* %3, i64 0, i32 0, i32 0, i32 0
  %27 = bitcast %"class.base::OnceCallback.201"* %3 to i64*
  %28 = load i64, i64* %27, align 8
  %29 = bitcast %"class.base::OnceCallback.201"* %5 to i64*
  store i64 %28, i64* %29, align 8
  store %"class.base::internal::BindStateBase"* null, %"class.base::internal::BindStateBase"** %26, align 8
  call void @_ZN6device23FidoDeviceAuthenticator7RunTaskINS_16GetAssertionTaskENS_33AuthenticatorGetAssertionResponseEJNS_23CtapGetAssertionRequestENS_23CtapGetAssertionOptionsEEEEvDpOT1_N4base12OnceCallbackIFvNS_22CtapDeviceResponseCodeEN4absl8optionalIT0_EEEEE(%"class.device::FidoDeviceAuthenticator"* %0, %"struct.device::CtapGetAssertionRequest"* dereferenceable(432) %1, %"struct.device::CtapGetAssertionOptions"* dereferenceable(96) %2, %"class.base::OnceCallback.201"* nonnull %5)
  %30 = getelementptr inbounds %"class.base::OnceCallback.201", %"class.base::OnceCallback.201"* %5, i64 0, i32 0
  call void @_ZN4base8internal12CallbackBaseD2Ev(%"class.base::internal::CallbackBase"* nonnull %30) #13
  ret void
}

declare void @_ZN6device23CtapGetAssertionRequestC1EOS0_(%"struct.device::CtapGetAssertionRequest"*, %"struct.device::CtapGetAssertionRequest"* dereferenceable(432)) unnamed_addr #2

declare void @_ZN6device23CtapGetAssertionOptionsC1EOS0_(%"struct.device::CtapGetAssertionOptions"*, %"struct.device::CtapGetAssertionOptions"* dereferenceable(96)) unnamed_addr #2

; Function Attrs: nounwind
declare void @_ZN6device23CtapGetAssertionOptionsD1Ev(%"struct.device::CtapGetAssertionOptions"*) unnamed_addr #4

; Function Attrs: nounwind
declare void @_ZN6device23CtapGetAssertionRequestD1Ev(%"struct.device::CtapGetAssertionRequest"*) unnamed_addr #4

; Function Attrs: nounwind ssp uwtable
define linkonce_odr hidden void @_ZN6device23FidoDeviceAuthenticator7RunTaskINS_16GetAssertionTaskENS_33AuthenticatorGetAssertionResponseEJNS_23CtapGetAssertionRequestENS_23CtapGetAssertionOptionsEEEEvDpOT1_N4base12OnceCallbackIFvNS_22CtapDeviceResponseCodeEN4absl8optionalIT0_EEEEE(%"class.device::FidoDeviceAuthenticator"*, %"struct.device::CtapGetAssertionRequest"* dereferenceable(432), %"struct.device::CtapGetAssertionOptions"* dereferenceable(96), %"class.base::OnceCallback.201"*) local_unnamed_addr #0 comdat align 2 {
  %5 = alloca %"class.base::internal::WeakReference", align 8
  %6 = alloca %"struct.device::CtapGetAssertionRequest", align 8
  %7 = alloca %"struct.device::CtapGetAssertionOptions", align 8
  %8 = alloca %"class.base::OnceCallback.201", align 8
  %9 = alloca %"class.base::OnceCallback.201", align 8
  %10 = alloca %"class.base::WeakPtr.98", align 8
  %11 = getelementptr inbounds %"class.device::FidoDeviceAuthenticator", %"class.device::FidoDeviceAuthenticator"* %0, i64 0, i32 1, i32 0, i32 0, i32 0
  %12 = load %"class.device::FidoDevice"*, %"class.device::FidoDevice"** %11, align 8
  %13 = bitcast %"class.base::OnceCallback.201"* %9 to i8*
  call void @llvm.lifetime.start.p0i8(i64 8, i8* nonnull %13) #13
  %14 = bitcast %"class.base::WeakPtr.98"* %10 to i8*
  call void @llvm.lifetime.start.p0i8(i64 16, i8* nonnull %14) #13
  %15 = bitcast %"class.base::internal::WeakReference"* %5 to i8*
  call void @llvm.lifetime.start.p0i8(i64 8, i8* nonnull %15) #13, !noalias !43
  %16 = getelementptr inbounds %"class.device::FidoDeviceAuthenticator", %"class.device::FidoDeviceAuthenticator"* %0, i64 0, i32 6, i32 0, i32 0
  call void @_ZNK4base8internal18WeakReferenceOwner6GetRefEv(%"class.base::internal::WeakReference"* nonnull sret %5, %"class.base::internal::WeakReferenceOwner"* %16) #13, !noalias !43
  %17 = getelementptr inbounds %"class.device::FidoDeviceAuthenticator", %"class.device::FidoDeviceAuthenticator"* %0, i64 0, i32 6, i32 0, i32 1
  %18 = load i64, i64* %17, align 8, !noalias !43
  %19 = getelementptr inbounds %"class.base::WeakPtr.98", %"class.base::WeakPtr.98"* %10, i64 0, i32 0
  call void @_ZN4base8internal11WeakPtrBaseC2ERKNS0_13WeakReferenceEm(%"class.base::internal::WeakPtrBase"* nonnull %19, %"class.base::internal::WeakReference"* nonnull dereferenceable(8) %5, i64 %18) #13
  call void @_ZN4base8internal13WeakReferenceD1Ev(%"class.base::internal::WeakReference"* nonnull %5) #13
  call void @llvm.lifetime.end.p0i8(i64 8, i8* nonnull %15) #13, !noalias !43
  %20 = call i8* @_Znwm(i64 72) #14, !noalias !46
  %21 = bitcast i8* %20 to %"class.base::internal::BindStateBase"*
  call void @_ZN4base8internal13BindStateBaseC2EPFvvEPFvPKS1_EPFbS5_NS1_21CancellationQueryModeEE(%"class.base::internal::BindStateBase"* nonnull %21, void ()* bitcast (void (%"class.base::internal::BindStateBase"*, i8, %"class.absl::optional.203"*)* @_ZN4base8internal7InvokerINS0_9BindStateIMN6device23FidoDeviceAuthenticatorEFvNS_12OnceCallbackIFvNS3_22CtapDeviceResponseCodeEN4absl8optionalINS3_33AuthenticatorGetAssertionResponseEEEEEES6_SA_EJNS_7WeakPtrIS4_EESC_EEESB_E7RunOnceEPNS0_13BindStateBaseES6_OSA_ to void ()*), void (%"class.base::internal::BindStateBase"*)* nonnull @_ZN4base8internal9BindStateIMN6device23FidoDeviceAuthenticatorEFvNS_12OnceCallbackIFvNS2_22CtapDeviceResponseCodeEN4absl8optionalINS2_33AuthenticatorGetAssertionResponseEEEEEES5_S9_EJNS_7WeakPtrIS3_EESB_EE7DestroyEPKNS0_13BindStateBaseE, i1 (%"class.base::internal::BindStateBase"*, i32)* nonnull @_ZN4base8internal23QueryCancellationTraitsINS0_9BindStateIMN6device23FidoDeviceAuthenticatorEFvNS_12OnceCallbackIFvNS3_22CtapDeviceResponseCodeEN4absl8optionalINS3_33AuthenticatorGetAssertionResponseEEEEEES6_SA_EJNS_7WeakPtrIS4_EESC_EEEEEbPKNS0_13BindStateBaseENSI_21CancellationQueryModeE) #13, !noalias !46
  %22 = getelementptr inbounds i8, i8* %20, i64 32
  %23 = bitcast i8* %22 to <2 x i64>*
  store <2 x i64> <i64 ptrtoint (void (%"class.device::FidoDeviceAuthenticator"*, %"class.base::OnceCallback.201"*, i8, %"class.absl::optional.203"*)* @_ZN6device23FidoDeviceAuthenticator14TaskClearProxyIJNS_22CtapDeviceResponseCodeEN4absl8optionalINS_33AuthenticatorGetAssertionResponseEEEEEEvN4base12OnceCallbackIFvDpT_EEESA_ to i64), i64 0>, <2 x i64>* %23, align 8, !noalias !46
  %24 = getelementptr inbounds i8, i8* %20, i64 48
  %25 = bitcast i8* %24 to %"class.base::internal::WeakReference"*
  %26 = getelementptr inbounds %"class.base::WeakPtr.98", %"class.base::WeakPtr.98"* %10, i64 0, i32 0, i32 0
  call void @_ZN4base8internal13WeakReferenceC1EOS1_(%"class.base::internal::WeakReference"* %25, %"class.base::internal::WeakReference"* nonnull dereferenceable(8) %26) #13, !noalias !46
  %27 = getelementptr inbounds i8, i8* %20, i64 56
  %28 = bitcast i8* %27 to i64*
  %29 = getelementptr inbounds %"class.base::WeakPtr.98", %"class.base::WeakPtr.98"* %10, i64 0, i32 0, i32 1
  %30 = load i64, i64* %29, align 8, !noalias !46
  store i64 %30, i64* %28, align 8, !noalias !46
  %31 = getelementptr inbounds i8, i8* %20, i64 64
  %32 = getelementptr inbounds %"class.base::OnceCallback.201", %"class.base::OnceCallback.201"* %3, i64 0, i32 0, i32 0, i32 0
  %33 = bitcast %"class.base::OnceCallback.201"* %3 to i64*
  %34 = load i64, i64* %33, align 8, !noalias !46
  %35 = bitcast i8* %31 to i64*
  store i64 %34, i64* %35, align 8, !noalias !46
  store %"class.base::internal::BindStateBase"* null, %"class.base::internal::BindStateBase"** %32, align 8, !noalias !46
  %36 = bitcast %"struct.device::CtapGetAssertionRequest"* %6 to i8*
  call void @llvm.lifetime.start.p0i8(i64 432, i8* nonnull %36)
  %37 = getelementptr inbounds %"struct.device::CtapGetAssertionOptions", %"struct.device::CtapGetAssertionOptions"* %7, i64 0, i32 0, i32 0, i32 0, i32 0, i32 0
  call void @llvm.lifetime.start.p0i8(i64 96, i8* nonnull %37)
  %38 = bitcast %"class.base::OnceCallback.201"* %8 to i8*
  call void @llvm.lifetime.start.p0i8(i64 8, i8* nonnull %38)
  %39 = call i8* @_Znwm(i64 648) #14
  %40 = bitcast i8* %39 to %"class.device::GetAssertionTask"*
  call void @_ZN6device23CtapGetAssertionRequestC1EOS0_(%"struct.device::CtapGetAssertionRequest"* nonnull %6, %"struct.device::CtapGetAssertionRequest"* dereferenceable(432) %1) #13
  call void @_ZN6device23CtapGetAssertionOptionsC1EOS0_(%"struct.device::CtapGetAssertionOptions"* nonnull %7, %"struct.device::CtapGetAssertionOptions"* dereferenceable(96) %2) #13
  %41 = getelementptr inbounds %"class.base::OnceCallback.201", %"class.base::OnceCallback.201"* %9, i64 0, i32 0, i32 0, i32 0
  %42 = ptrtoint i8* %20 to i64
  %43 = bitcast %"class.base::OnceCallback.201"* %8 to i64*
  store i64 %42, i64* %43, align 8
  store %"class.base::internal::BindStateBase"* null, %"class.base::internal::BindStateBase"** %41, align 8
  call void @_ZN6device16GetAssertionTaskC1EPNS_10FidoDeviceENS_23CtapGetAssertionRequestENS_23CtapGetAssertionOptionsEN4base12OnceCallbackIFvNS_22CtapDeviceResponseCodeEN4absl8optionalINS_33AuthenticatorGetAssertionResponseEEEEEE(%"class.device::GetAssertionTask"* nonnull %40, %"class.device::FidoDevice"* %12, %"struct.device::CtapGetAssertionRequest"* nonnull %6, %"struct.device::CtapGetAssertionOptions"* nonnull %7, %"class.base::OnceCallback.201"* nonnull %8) #13
  %44 = getelementptr inbounds %"class.base::OnceCallback.201", %"class.base::OnceCallback.201"* %8, i64 0, i32 0
  call void @_ZN4base8internal12CallbackBaseD2Ev(%"class.base::internal::CallbackBase"* nonnull %44) #13
  call void @_ZN6device23CtapGetAssertionOptionsD1Ev(%"struct.device::CtapGetAssertionOptions"* nonnull %7) #13
  call void @_ZN6device23CtapGetAssertionRequestD1Ev(%"struct.device::CtapGetAssertionRequest"* nonnull %6) #13
  call void @llvm.lifetime.end.p0i8(i64 432, i8* nonnull %36)
  call void @llvm.lifetime.end.p0i8(i64 96, i8* nonnull %37)
  call void @llvm.lifetime.end.p0i8(i64 8, i8* nonnull %38)
  %45 = getelementptr inbounds %"class.device::FidoDeviceAuthenticator", %"class.device::FidoDeviceAuthenticator"* %0, i64 0, i32 3, i32 0, i32 0, i32 0
  %46 = load %"class.device::FidoTask"*, %"class.device::FidoTask"** %45, align 8
  %47 = bitcast %"class.device::FidoTask"** %45 to i8**
  store i8* %39, i8** %47, align 8
  %48 = icmp eq %"class.device::FidoTask"* %46, null
  br i1 %48, label %54, label %49

49:                                               ; preds = %4
  %50 = bitcast %"class.device::FidoTask"* %46 to void (%"class.device::FidoTask"*)***
  %51 = load void (%"class.device::FidoTask"*)**, void (%"class.device::FidoTask"*)*** %50, align 8
  %52 = getelementptr inbounds void (%"class.device::FidoTask"*)*, void (%"class.device::FidoTask"*)** %51, i64 1
  %53 = load void (%"class.device::FidoTask"*)*, void (%"class.device::FidoTask"*)** %52, align 8
  call void %53(%"class.device::FidoTask"* nonnull %46) #13
  br label %54

54:                                               ; preds = %49, %4
  %55 = getelementptr inbounds %"class.base::OnceCallback.201", %"class.base::OnceCallback.201"* %9, i64 0, i32 0
  call void @_ZN4base8internal12CallbackBaseD2Ev(%"class.base::internal::CallbackBase"* nonnull %55) #13
  call void @_ZN4base8internal11WeakPtrBaseD2Ev(%"class.base::internal::WeakPtrBase"* nonnull %19) #13
  call void @llvm.lifetime.end.p0i8(i64 16, i8* nonnull %14) #13
  call void @llvm.lifetime.end.p0i8(i64 8, i8* nonnull %13) #13
  ret void
}

; Function Attrs: nounwind ssp uwtable
define hidden void @_ZN6device23FidoDeviceAuthenticator16GetNextAssertionEN4base12OnceCallbackIFvNS_22CtapDeviceResponseCodeEN4absl8optionalINS_33AuthenticatorGetAssertionResponseEEEEEE(%"class.device::FidoDeviceAuthenticator"*, %"class.base::OnceCallback.201"* nocapture) unnamed_addr #0 align 2 {
  %3 = alloca %"class.base::OnceCallback.201", align 8
  %4 = alloca %"class.base::OnceCallback.258", align 8
  %5 = getelementptr inbounds %"class.base::OnceCallback.201", %"class.base::OnceCallback.201"* %1, i64 0, i32 0, i32 0, i32 0
  %6 = bitcast %"class.base::OnceCallback.201"* %1 to i64*
  %7 = load i64, i64* %6, align 8
  %8 = bitcast %"class.base::OnceCallback.201"* %3 to i64*
  store i64 %7, i64* %8, align 8
  store %"class.base::internal::BindStateBase"* null, %"class.base::internal::BindStateBase"** %5, align 8
  %9 = tail call i8* @_Znwm(i64 48) #14, !noalias !51
  %10 = bitcast i8* %9 to %"class.base::internal::BindStateBase"*
  tail call void @_ZN4base8internal13BindStateBaseC2EPFvvEPFvPKS1_E(%"class.base::internal::BindStateBase"* nonnull %10, void ()* bitcast (void (%"class.absl::optional.203"*, %"class.base::internal::BindStateBase"*, %"class.absl::optional.221"*)* @_ZN4base8internal7InvokerINS0_9BindStateIPFN4absl8optionalIN6device33AuthenticatorGetAssertionResponseEEERKNS4_IN4cbor5ValueEEEEJEEESD_E7RunOnceEPNS0_13BindStateBaseESC_ to void ()*), void (%"class.base::internal::BindStateBase"*)* nonnull @_ZN4base8internal9BindStateIPFN4absl8optionalIN6device33AuthenticatorGetAssertionResponseEEERKNS3_IN4cbor5ValueEEEEJEE7DestroyEPKNS0_13BindStateBaseE) #13, !noalias !51
  %11 = getelementptr inbounds i8, i8* %9, i64 32
  %12 = bitcast i8* %11 to i64*
  store i64 ptrtoint (void (%"class.absl::optional.203"*, %"class.absl::optional.221"*)* @_ZN6device28ReadCTAPGetAssertionResponseERKN4absl8optionalIN4cbor5ValueEEE to i64), i64* %12, align 8, !noalias !51
  %13 = bitcast %"class.base::OnceCallback.258"* %4 to i8**
  store i8* %9, i8** %13, align 8, !alias.scope !51
  call void @_ZN6device23FidoDeviceAuthenticator12RunOperationINS_27CtapGetNextAssertionRequestENS_33AuthenticatorGetAssertionResponseEEEvT_N4base12OnceCallbackIFvNS_22CtapDeviceResponseCodeEN4absl8optionalIT0_EEEEENS6_IFSB_RKNS9_IN4cbor5ValueEEEEEEPFbRKNSt3__16vectorIPKSF_NSL_9allocatorISO_EEEEE(%"class.device::FidoDeviceAuthenticator"* %0, %"class.base::OnceCallback.201"* nonnull %3, %"class.base::OnceCallback.258"* nonnull %4, i1 (%"class.std::__1::vector.257"*)* nonnull @_ZN6device16GetAssertionTask20StringFixupPredicateERKNSt3__16vectorIPKN4cbor5ValueENS1_9allocatorIS6_EEEE)
  %14 = getelementptr inbounds %"class.base::OnceCallback.258", %"class.base::OnceCallback.258"* %4, i64 0, i32 0
  call void @_ZN4base8internal12CallbackBaseD2Ev(%"class.base::internal::CallbackBase"* nonnull %14) #13
  %15 = getelementptr inbounds %"class.base::OnceCallback.201", %"class.base::OnceCallback.201"* %3, i64 0, i32 0
  call void @_ZN4base8internal12CallbackBaseD2Ev(%"class.base::internal::CallbackBase"* nonnull %15) #13
  ret void
}

; Function Attrs: nounwind ssp uwtable
define linkonce_odr hidden void @_ZN6device23FidoDeviceAuthenticator12RunOperationINS_27CtapGetNextAssertionRequestENS_33AuthenticatorGetAssertionResponseEEEvT_N4base12OnceCallbackIFvNS_22CtapDeviceResponseCodeEN4absl8optionalIT0_EEEEENS6_IFSB_RKNS9_IN4cbor5ValueEEEEEEPFbRKNSt3__16vectorIPKSF_NSL_9allocatorISO_EEEEE(%"class.device::FidoDeviceAuthenticator"*, %"class.base::OnceCallback.201"*, %"class.base::OnceCallback.258"*, i1 (%"class.std::__1::vector.257"*)*) local_unnamed_addr #0 comdat align 2 {
  %5 = alloca %"class.base::OnceCallback.201", align 8
  %6 = alloca %"class.base::OnceCallback.201", align 8
  %7 = alloca %"class.base::OnceCallback.258", align 8
  %8 = alloca %"class.base::internal::WeakReference", align 8
  %9 = alloca %"class.base::OnceCallback.201", align 8
  %10 = alloca %"class.base::WeakPtr.98", align 8
  %11 = ptrtoint i1 (%"class.std::__1::vector.257"*)* %3 to i64
  %12 = getelementptr inbounds %"class.device::FidoDeviceAuthenticator", %"class.device::FidoDeviceAuthenticator"* %0, i64 0, i32 1, i32 0, i32 0, i32 0
  %13 = bitcast %"class.device::FidoDevice"** %12 to i64*
  %14 = load i64, i64* %13, align 8
  %15 = bitcast %"class.base::OnceCallback.201"* %9 to i8*
  call void @llvm.lifetime.start.p0i8(i64 8, i8* nonnull %15) #13
  %16 = bitcast %"class.base::WeakPtr.98"* %10 to i8*
  call void @llvm.lifetime.start.p0i8(i64 16, i8* nonnull %16) #13
  %17 = bitcast %"class.base::internal::WeakReference"* %8 to i8*
  call void @llvm.lifetime.start.p0i8(i64 8, i8* nonnull %17) #13, !noalias !56
  %18 = getelementptr inbounds %"class.device::FidoDeviceAuthenticator", %"class.device::FidoDeviceAuthenticator"* %0, i64 0, i32 6, i32 0, i32 0
  call void @_ZNK4base8internal18WeakReferenceOwner6GetRefEv(%"class.base::internal::WeakReference"* nonnull sret %8, %"class.base::internal::WeakReferenceOwner"* %18) #13, !noalias !56
  %19 = getelementptr inbounds %"class.device::FidoDeviceAuthenticator", %"class.device::FidoDeviceAuthenticator"* %0, i64 0, i32 6, i32 0, i32 1
  %20 = load i64, i64* %19, align 8, !noalias !56
  %21 = getelementptr inbounds %"class.base::WeakPtr.98", %"class.base::WeakPtr.98"* %10, i64 0, i32 0
  call void @_ZN4base8internal11WeakPtrBaseC2ERKNS0_13WeakReferenceEm(%"class.base::internal::WeakPtrBase"* nonnull %21, %"class.base::internal::WeakReference"* nonnull dereferenceable(8) %8, i64 %20) #13
  call void @_ZN4base8internal13WeakReferenceD1Ev(%"class.base::internal::WeakReference"* nonnull %8) #13
  call void @llvm.lifetime.end.p0i8(i64 8, i8* nonnull %17) #13, !noalias !56
  %22 = call i8* @_Znwm(i64 72) #14, !noalias !59
  %23 = bitcast i8* %22 to %"class.base::internal::BindStateBase"*
  call void @_ZN4base8internal13BindStateBaseC2EPFvvEPFvPKS1_EPFbS5_NS1_21CancellationQueryModeEE(%"class.base::internal::BindStateBase"* nonnull %23, void ()* bitcast (void (%"class.base::internal::BindStateBase"*, i8, %"class.absl::optional.203"*)* @_ZN4base8internal7InvokerINS0_9BindStateIMN6device23FidoDeviceAuthenticatorEFvNS_12OnceCallbackIFvNS3_22CtapDeviceResponseCodeEN4absl8optionalINS3_33AuthenticatorGetAssertionResponseEEEEEES6_SA_EJNS_7WeakPtrIS4_EESC_EEESB_E7RunOnceEPNS0_13BindStateBaseES6_OSA_ to void ()*), void (%"class.base::internal::BindStateBase"*)* nonnull @_ZN4base8internal9BindStateIMN6device23FidoDeviceAuthenticatorEFvNS_12OnceCallbackIFvNS2_22CtapDeviceResponseCodeEN4absl8optionalINS2_33AuthenticatorGetAssertionResponseEEEEEES5_S9_EJNS_7WeakPtrIS3_EESB_EE7DestroyEPKNS0_13BindStateBaseE, i1 (%"class.base::internal::BindStateBase"*, i32)* nonnull @_ZN4base8internal23QueryCancellationTraitsINS0_9BindStateIMN6device23FidoDeviceAuthenticatorEFvNS_12OnceCallbackIFvNS3_22CtapDeviceResponseCodeEN4absl8optionalINS3_33AuthenticatorGetAssertionResponseEEEEEES6_SA_EJNS_7WeakPtrIS4_EESC_EEEEEbPKNS0_13BindStateBaseENSI_21CancellationQueryModeE) #13, !noalias !59
  %24 = getelementptr inbounds i8, i8* %22, i64 32
  %25 = bitcast i8* %24 to <2 x i64>*
  store <2 x i64> <i64 ptrtoint (void (%"class.device::FidoDeviceAuthenticator"*, %"class.base::OnceCallback.201"*, i8, %"class.absl::optional.203"*)* @_ZN6device23FidoDeviceAuthenticator19OperationClearProxyIJNS_22CtapDeviceResponseCodeEN4absl8optionalINS_33AuthenticatorGetAssertionResponseEEEEEEvN4base12OnceCallbackIFvDpT_EEESA_ to i64), i64 0>, <2 x i64>* %25, align 8, !noalias !59
  %26 = getelementptr inbounds i8, i8* %22, i64 48
  %27 = bitcast i8* %26 to %"class.base::internal::WeakReference"*
  %28 = getelementptr inbounds %"class.base::WeakPtr.98", %"class.base::WeakPtr.98"* %10, i64 0, i32 0, i32 0
  call void @_ZN4base8internal13WeakReferenceC1EOS1_(%"class.base::internal::WeakReference"* %27, %"class.base::internal::WeakReference"* nonnull dereferenceable(8) %28) #13, !noalias !59
  %29 = getelementptr inbounds i8, i8* %22, i64 56
  %30 = bitcast i8* %29 to i64*
  %31 = getelementptr inbounds %"class.base::WeakPtr.98", %"class.base::WeakPtr.98"* %10, i64 0, i32 0, i32 1
  %32 = load i64, i64* %31, align 8, !noalias !59
  store i64 %32, i64* %30, align 8, !noalias !59
  %33 = getelementptr inbounds i8, i8* %22, i64 64
  %34 = getelementptr inbounds %"class.base::OnceCallback.201", %"class.base::OnceCallback.201"* %1, i64 0, i32 0, i32 0, i32 0
  %35 = bitcast %"class.base::OnceCallback.201"* %1 to i64*
  %36 = load i64, i64* %35, align 8, !noalias !59
  %37 = bitcast i8* %33 to i64*
  store i64 %36, i64* %37, align 8, !noalias !59
  store %"class.base::internal::BindStateBase"* null, %"class.base::internal::BindStateBase"** %34, align 8, !noalias !59
  %38 = bitcast %"class.base::OnceCallback.201"* %6 to i8*
  call void @llvm.lifetime.start.p0i8(i64 8, i8* nonnull %38)
  %39 = bitcast %"class.base::OnceCallback.258"* %7 to i8*
  call void @llvm.lifetime.start.p0i8(i64 8, i8* nonnull %39)
  %40 = call i8* @_Znwm(i64 72) #14
  %41 = getelementptr inbounds %"class.base::OnceCallback.201", %"class.base::OnceCallback.201"* %9, i64 0, i32 0, i32 0, i32 0
  %42 = ptrtoint i8* %22 to i64
  store %"class.base::internal::BindStateBase"* null, %"class.base::internal::BindStateBase"** %41, align 8
  %43 = getelementptr inbounds %"class.base::OnceCallback.258", %"class.base::OnceCallback.258"* %2, i64 0, i32 0, i32 0, i32 0
  %44 = bitcast %"class.base::OnceCallback.258"* %2 to i64*
  %45 = load i64, i64* %44, align 8
  store %"class.base::internal::BindStateBase"* null, %"class.base::internal::BindStateBase"** %43, align 8
  %46 = bitcast %"class.base::OnceCallback.201"* %5 to i8*
  call void @llvm.lifetime.start.p0i8(i64 8, i8* nonnull %46) #13
  %47 = getelementptr inbounds %"class.base::OnceCallback.201", %"class.base::OnceCallback.201"* %6, i64 0, i32 0, i32 0, i32 0
  store %"class.base::internal::BindStateBase"* null, %"class.base::internal::BindStateBase"** %47, align 8
  %48 = bitcast i8* %40 to i32 (...)***
  %49 = getelementptr inbounds i8, i8* %40, i64 8
  store i8 0, i8* %49, align 4
  %50 = getelementptr inbounds i8, i8* %40, i64 16
  %51 = bitcast i8* %50 to i64*
  store i64 %14, i64* %51, align 8
  %52 = getelementptr inbounds i8, i8* %40, i64 32
  %53 = getelementptr inbounds %"class.base::OnceCallback.201", %"class.base::OnceCallback.201"* %5, i64 0, i32 0, i32 0, i32 0
  %54 = bitcast i8* %52 to i64*
  store i64 %42, i64* %54, align 8
  store %"class.base::internal::BindStateBase"* null, %"class.base::internal::BindStateBase"** %53, align 8
  %55 = getelementptr inbounds %"class.base::OnceCallback.201", %"class.base::OnceCallback.201"* %5, i64 0, i32 0
  call void @_ZN4base8internal12CallbackBaseD2Ev(%"class.base::internal::CallbackBase"* nonnull %55) #13
  store i32 (...)** bitcast (i8** getelementptr inbounds ({ [6 x i8*] }, { [6 x i8*] }* @_ZTVN6device20Ctap2DeviceOperationINS_27CtapGetNextAssertionRequestENS_33AuthenticatorGetAssertionResponseEEE, i64 0, inrange i32 0, i64 2) to i32 (...)**), i32 (...)*** %48, align 8
  %56 = getelementptr inbounds i8, i8* %40, i64 40
  %57 = getelementptr inbounds %"class.base::OnceCallback.258", %"class.base::OnceCallback.258"* %7, i64 0, i32 0, i32 0, i32 0
  %58 = bitcast i8* %56 to i64*
  store i64 %45, i64* %58, align 8
  store %"class.base::internal::BindStateBase"* null, %"class.base::internal::BindStateBase"** %57, align 8
  %59 = getelementptr inbounds i8, i8* %40, i64 48
  %60 = bitcast i8* %59 to i64*
  store i64 %11, i64* %60, align 8
  %61 = getelementptr inbounds i8, i8* %40, i64 56
  %62 = bitcast i8* %61 to %"class.base::internal::WeakPtrFactoryBase"*
  %63 = ptrtoint i8* %40 to i64
  call void @_ZN4base8internal18WeakPtrFactoryBaseC2Em(%"class.base::internal::WeakPtrFactoryBase"* %62, i64 %63) #13
  call void @llvm.lifetime.end.p0i8(i64 8, i8* nonnull %46) #13
  %64 = getelementptr inbounds %"class.base::OnceCallback.258", %"class.base::OnceCallback.258"* %7, i64 0, i32 0
  call void @_ZN4base8internal12CallbackBaseD2Ev(%"class.base::internal::CallbackBase"* nonnull %64) #13
  %65 = getelementptr inbounds %"class.base::OnceCallback.201", %"class.base::OnceCallback.201"* %6, i64 0, i32 0
  call void @_ZN4base8internal12CallbackBaseD2Ev(%"class.base::internal::CallbackBase"* nonnull %65) #13
  call void @llvm.lifetime.end.p0i8(i64 8, i8* nonnull %38)
  call void @llvm.lifetime.end.p0i8(i64 8, i8* nonnull %39)
  %66 = getelementptr inbounds %"class.device::FidoDeviceAuthenticator", %"class.device::FidoDeviceAuthenticator"* %0, i64 0, i32 4, i32 0, i32 0, i32 0
  %67 = load %"class.device::GenericDeviceOperation"*, %"class.device::GenericDeviceOperation"** %66, align 8
  %68 = bitcast %"class.device::GenericDeviceOperation"** %66 to i8**
  store i8* %40, i8** %68, align 8
  %69 = icmp eq %"class.device::GenericDeviceOperation"* %67, null
  br i1 %69, label %75, label %70

70:                                               ; preds = %4
  %71 = bitcast %"class.device::GenericDeviceOperation"* %67 to void (%"class.device::GenericDeviceOperation"*)***
  %72 = load void (%"class.device::GenericDeviceOperation"*)**, void (%"class.device::GenericDeviceOperation"*)*** %71, align 8
  %73 = getelementptr inbounds void (%"class.device::GenericDeviceOperation"*)*, void (%"class.device::GenericDeviceOperation"*)** %72, i64 1
  %74 = load void (%"class.device::GenericDeviceOperation"*)*, void (%"class.device::GenericDeviceOperation"*)** %73, align 8
  call void %74(%"class.device::GenericDeviceOperation"* nonnull %67) #13
  br label %75

75:                                               ; preds = %70, %4
  %76 = getelementptr inbounds %"class.base::OnceCallback.201", %"class.base::OnceCallback.201"* %9, i64 0, i32 0
  call void @_ZN4base8internal12CallbackBaseD2Ev(%"class.base::internal::CallbackBase"* nonnull %76) #13
  call void @_ZN4base8internal11WeakPtrBaseD2Ev(%"class.base::internal::WeakPtrBase"* nonnull %21) #13
  call void @llvm.lifetime.end.p0i8(i64 16, i8* nonnull %16) #13
  call void @llvm.lifetime.end.p0i8(i64 8, i8* nonnull %15) #13
  %77 = load %"class.device::GenericDeviceOperation"*, %"class.device::GenericDeviceOperation"** %66, align 8
  %78 = bitcast %"class.device::GenericDeviceOperation"* %77 to void (%"class.device::GenericDeviceOperation"*)***
  %79 = load void (%"class.device::GenericDeviceOperation"*)**, void (%"class.device::GenericDeviceOperation"*)*** %78, align 8
  %80 = getelementptr inbounds void (%"class.device::GenericDeviceOperation"*)*, void (%"class.device::GenericDeviceOperation"*)** %79, i64 2
  %81 = load void (%"class.device::GenericDeviceOperation"*)*, void (%"class.device::GenericDeviceOperation"*)** %80, align 8
  call void %81(%"class.device::GenericDeviceOperation"* %77) #13
  ret void
}

declare void @_ZN6device28ReadCTAPGetAssertionResponseERKN4absl8optionalIN4cbor5ValueEEE(%"class.absl::optional.203"* sret, %"class.absl::optional.221"* dereferenceable(40)) #2

declare zeroext i1 @_ZN6device16GetAssertionTask20StringFixupPredicateERKNSt3__16vectorIPKN4cbor5ValueENS1_9allocatorIS6_EEEE(%"class.std::__1::vector.257"*) #2

; Function Attrs: nounwind ssp uwtable
define hidden void @_ZN6device23FidoDeviceAuthenticator8GetTouchEN4base12OnceCallbackIFvvEEE(%"class.device::FidoDeviceAuthenticator"*, %"class.base::OnceCallback"* nocapture) unnamed_addr #0 align 2 {
  %3 = alloca %"class.base::OnceCallback.259", align 8
  %4 = alloca %"class.std::__1::basic_string", align 8
  %5 = alloca %"class.base::OnceCallback.260", align 8
  %6 = alloca %"struct.device::CtapMakeCredentialRequest", align 8
  %7 = alloca %"class.base::OnceCallback.160", align 8
  %8 = alloca %"class.std::__1::basic_string", align 8
  %9 = getelementptr inbounds %"class.device::FidoDeviceAuthenticator", %"class.device::FidoDeviceAuthenticator"* %0, i64 0, i32 1, i32 0, i32 0, i32 0
  %10 = load %"class.device::FidoDevice"*, %"class.device::FidoDevice"** %9, align 8
  %11 = getelementptr inbounds %"class.device::FidoDevice", %"class.device::FidoDevice"* %10, i64 0, i32 3, i32 0, i32 0, i32 0, i32 0
  %12 = load i8, i8* %11, align 8, !range !2
  %13 = icmp eq i8 %12, 0
  br i1 %13, label %49, label %14

14:                                               ; preds = %2
  %15 = getelementptr inbounds %"class.device::FidoDevice", %"class.device::FidoDevice"* %10, i64 0, i32 3, i32 0, i32 0, i32 0, i32 1, i32 0
  %16 = tail call zeroext i1 @_ZNK6device28AuthenticatorGetInfoResponse15SupportsAtLeastENS_12Ctap2VersionE(%"struct.device::AuthenticatorGetInfoResponse"* %15, i32 1) #13
  br i1 %16, label %19, label %17

17:                                               ; preds = %14
  %18 = load %"class.device::FidoDevice"*, %"class.device::FidoDevice"** %9, align 8
  br label %49

19:                                               ; preds = %14
  %20 = bitcast %"class.std::__1::basic_string"* %4 to i8*
  call void @llvm.lifetime.start.p0i8(i64 24, i8* nonnull %20) #13
  %21 = bitcast %"class.device::FidoDeviceAuthenticator"* %0 to void (%"class.std::__1::basic_string"*, %"class.device::FidoDeviceAuthenticator"*)***
  %22 = load void (%"class.std::__1::basic_string"*, %"class.device::FidoDeviceAuthenticator"*)**, void (%"class.std::__1::basic_string"*, %"class.device::FidoDeviceAuthenticator"*)*** %21, align 8
  %23 = getelementptr inbounds void (%"class.std::__1::basic_string"*, %"class.device::FidoDeviceAuthenticator"*)*, void (%"class.std::__1::basic_string"*, %"class.device::FidoDeviceAuthenticator"*)** %22, i64 35
  %24 = load void (%"class.std::__1::basic_string"*, %"class.device::FidoDeviceAuthenticator"*)*, void (%"class.std::__1::basic_string"*, %"class.device::FidoDeviceAuthenticator"*)** %23, align 8
  call void %24(%"class.std::__1::basic_string"* nonnull sret %4, %"class.device::FidoDeviceAuthenticator"* %0) #13
  %25 = call i8* @_Znwm(i64 72) #14, !noalias !64
  %26 = bitcast i8* %25 to %"class.base::internal::BindStateBase"*
  call void @_ZN4base8internal13BindStateBaseC2EPFvvEPFvPKS1_E(%"class.base::internal::BindStateBase"* nonnull %26, void ()* bitcast (void (%"class.base::internal::BindStateBase"*, i8, %"class.absl::optional.261"*)* @"_ZN4base8internal7InvokerINS0_9BindStateIZN6device23FidoDeviceAuthenticator8GetTouchENS_12OnceCallbackIFvvEEEE3$_0JNSt3__112basic_stringIcNS9_11char_traitsIcEENS9_9allocatorIcEEEES7_EEEFvNS3_22CtapDeviceResponseCodeEN4absl8optionalINS3_3pin13EmptyResponseEEEEE7RunOnceEPNS0_13BindStateBaseESH_OSM_" to void ()*), void (%"class.base::internal::BindStateBase"*)* nonnull @"_ZN4base8internal9BindStateIZN6device23FidoDeviceAuthenticator8GetTouchENS_12OnceCallbackIFvvEEEE3$_0JNSt3__112basic_stringIcNS8_11char_traitsIcEENS8_9allocatorIcEEEES6_EE7DestroyEPKNS0_13BindStateBaseE") #13, !noalias !64
  %27 = getelementptr inbounds i8, i8* %25, i64 40
  call void @llvm.memcpy.p0i8.p0i8.i64(i8* align 8 %27, i8* nonnull align 8 %20, i64 24, i1 false) #13, !noalias !64
  call void @llvm.memset.p0i8.i64(i8* nonnull align 8 %20, i8 0, i64 24, i1 false) #13, !noalias !64
  %28 = getelementptr inbounds i8, i8* %25, i64 64
  %29 = getelementptr inbounds %"class.base::OnceCallback", %"class.base::OnceCallback"* %1, i64 0, i32 0, i32 0, i32 0
  %30 = bitcast %"class.base::OnceCallback"* %1 to i64*
  %31 = load i64, i64* %30, align 8, !noalias !64
  %32 = bitcast i8* %28 to i64*
  store i64 %31, i64* %32, align 8, !noalias !64
  store %"class.base::internal::BindStateBase"* null, %"class.base::internal::BindStateBase"** %29, align 8, !noalias !64
  %33 = bitcast %"class.base::OnceCallback.259"* %3 to i8**
  store i8* %25, i8** %33, align 8, !alias.scope !64
  %34 = call i8* @_Znwm(i64 48) #14, !noalias !69
  %35 = bitcast i8* %34 to %"class.base::internal::BindStateBase"*
  call void @_ZN4base8internal13BindStateBaseC2EPFvvEPFvPKS1_E(%"class.base::internal::BindStateBase"* nonnull %35, void ()* bitcast (i8 (%"class.base::internal::BindStateBase"*, %"class.absl::optional.221"*)* @_ZN4base8internal7InvokerINS0_9BindStateIPFN4absl8optionalIN6device3pin13EmptyResponseEEERKNS4_IN4cbor5ValueEEEEJEEESE_E7RunOnceEPNS0_13BindStateBaseESD_ to void ()*), void (%"class.base::internal::BindStateBase"*)* nonnull @_ZN4base8internal9BindStateIPFN4absl8optionalIN6device3pin13EmptyResponseEEERKNS3_IN4cbor5ValueEEEEJEE7DestroyEPKNS0_13BindStateBaseE) #13, !noalias !69
  %36 = getelementptr inbounds i8, i8* %34, i64 32
  %37 = bitcast i8* %36 to i64*
  store i64 ptrtoint (i8 (%"class.absl::optional.221"*)* @_ZN6device3pin13EmptyResponse5ParseERKN4absl8optionalIN4cbor5ValueEEE to i64), i64* %37, align 8, !noalias !69
  %38 = bitcast %"class.base::OnceCallback.260"* %5 to i8**
  store i8* %34, i8** %38, align 8, !alias.scope !69
  call void @_ZN6device23FidoDeviceAuthenticator12RunOperationINS_33CtapAuthenticatorSelectionRequestENS_3pin13EmptyResponseEEEvT_N4base12OnceCallbackIFvNS_22CtapDeviceResponseCodeEN4absl8optionalIT0_EEEEENS7_IFSC_RKNSA_IN4cbor5ValueEEEEEEPFbRKNSt3__16vectorIPKSG_NSM_9allocatorISP_EEEEE(%"class.device::FidoDeviceAuthenticator"* %0, %"class.base::OnceCallback.259"* nonnull %3, %"class.base::OnceCallback.260"* nonnull %5, i1 (%"class.std::__1::vector.257"*)* null)
  %39 = getelementptr inbounds %"class.base::OnceCallback.260", %"class.base::OnceCallback.260"* %5, i64 0, i32 0
  call void @_ZN4base8internal12CallbackBaseD2Ev(%"class.base::internal::CallbackBase"* nonnull %39) #13
  %40 = getelementptr inbounds %"class.base::OnceCallback.259", %"class.base::OnceCallback.259"* %3, i64 0, i32 0
  call void @_ZN4base8internal12CallbackBaseD2Ev(%"class.base::internal::CallbackBase"* nonnull %40) #13
  %41 = bitcast %"class.std::__1::basic_string"* %4 to %"struct.std::__1::basic_string<char, std::__1::char_traits<char>, std::__1::allocator<char> >::__short"*
  %42 = getelementptr inbounds %"struct.std::__1::basic_string<char, std::__1::char_traits<char>, std::__1::allocator<char> >::__short", %"struct.std::__1::basic_string<char, std::__1::char_traits<char>, std::__1::allocator<char> >::__short"* %41, i64 0, i32 1, i32 0
  %43 = load i8, i8* %42, align 1
  %44 = icmp slt i8 %43, 0
  br i1 %44, label %45, label %48

45:                                               ; preds = %19
  %46 = getelementptr inbounds %"class.std::__1::basic_string", %"class.std::__1::basic_string"* %4, i64 0, i32 0, i32 0, i32 0, i32 0, i32 0, i32 0
  %47 = load i8*, i8** %46, align 8
  call void @_ZdlPv(i8* %47) #14
  br label %48

48:                                               ; preds = %19, %45
  call void @llvm.lifetime.end.p0i8(i64 24, i8* nonnull %20) #13
  br label %78

49:                                               ; preds = %17, %2
  %50 = phi %"class.device::FidoDevice"* [ %18, %17 ], [ %10, %2 ]
  call void @_ZN6device18MakeCredentialTask15GetTouchRequestEPKNS_10FidoDeviceE(%"struct.device::CtapMakeCredentialRequest"* nonnull sret %6, %"class.device::FidoDevice"* %50) #13
  %51 = bitcast %"class.std::__1::basic_string"* %8 to i8*
  call void @llvm.lifetime.start.p0i8(i64 24, i8* nonnull %51) #13
  %52 = bitcast %"class.device::FidoDeviceAuthenticator"* %0 to void (%"class.std::__1::basic_string"*, %"class.device::FidoDeviceAuthenticator"*)***
  %53 = load void (%"class.std::__1::basic_string"*, %"class.device::FidoDeviceAuthenticator"*)**, void (%"class.std::__1::basic_string"*, %"class.device::FidoDeviceAuthenticator"*)*** %52, align 8
  %54 = getelementptr inbounds void (%"class.std::__1::basic_string"*, %"class.device::FidoDeviceAuthenticator"*)*, void (%"class.std::__1::basic_string"*, %"class.device::FidoDeviceAuthenticator"*)** %53, i64 35
  %55 = load void (%"class.std::__1::basic_string"*, %"class.device::FidoDeviceAuthenticator"*)*, void (%"class.std::__1::basic_string"*, %"class.device::FidoDeviceAuthenticator"*)** %54, align 8
  call void %55(%"class.std::__1::basic_string"* nonnull sret %8, %"class.device::FidoDeviceAuthenticator"* %0) #13
  %56 = call i8* @_Znwm(i64 72) #14, !noalias !74
  %57 = bitcast i8* %56 to %"class.base::internal::BindStateBase"*
  call void @_ZN4base8internal13BindStateBaseC2EPFvvEPFvPKS1_E(%"class.base::internal::BindStateBase"* nonnull %57, void ()* bitcast (void (%"class.base::internal::BindStateBase"*, i8, %"class.absl::optional.507"*)* @"_ZN4base8internal7InvokerINS0_9BindStateIZN6device23FidoDeviceAuthenticator8GetTouchENS_12OnceCallbackIFvvEEEE3$_1JNSt3__112basic_stringIcNS9_11char_traitsIcEENS9_9allocatorIcEEEES7_EEEFvNS3_22CtapDeviceResponseCodeEN4absl8optionalINS3_35AuthenticatorMakeCredentialResponseEEEEE7RunOnceEPNS0_13BindStateBaseESH_OSL_" to void ()*), void (%"class.base::internal::BindStateBase"*)* nonnull @"_ZN4base8internal9BindStateIZN6device23FidoDeviceAuthenticator8GetTouchENS_12OnceCallbackIFvvEEEE3$_1JNSt3__112basic_stringIcNS8_11char_traitsIcEENS8_9allocatorIcEEEES6_EE7DestroyEPKNS0_13BindStateBaseE") #13, !noalias !74
  %58 = getelementptr inbounds i8, i8* %56, i64 40
  call void @llvm.memcpy.p0i8.p0i8.i64(i8* align 8 %58, i8* nonnull align 8 %51, i64 24, i1 false) #13, !noalias !74
  call void @llvm.memset.p0i8.i64(i8* nonnull align 8 %51, i8 0, i64 24, i1 false) #13, !noalias !74
  %59 = getelementptr inbounds i8, i8* %56, i64 64
  %60 = getelementptr inbounds %"class.base::OnceCallback", %"class.base::OnceCallback"* %1, i64 0, i32 0, i32 0, i32 0
  %61 = bitcast %"class.base::OnceCallback"* %1 to i64*
  %62 = load i64, i64* %61, align 8, !noalias !74
  %63 = bitcast i8* %59 to i64*
  store i64 %62, i64* %63, align 8, !noalias !74
  store %"class.base::internal::BindStateBase"* null, %"class.base::internal::BindStateBase"** %60, align 8, !noalias !74
  %64 = bitcast %"class.base::OnceCallback.160"* %7 to i8**
  store i8* %56, i8** %64, align 8, !alias.scope !74
  %65 = bitcast %"class.device::FidoDeviceAuthenticator"* %0 to void (%"class.device::FidoDeviceAuthenticator"*, %"struct.device::CtapMakeCredentialRequest"*, %"class.base::OnceCallback.160"*)***
  %66 = load void (%"class.device::FidoDeviceAuthenticator"*, %"struct.device::CtapMakeCredentialRequest"*, %"class.base::OnceCallback.160"*)**, void (%"class.device::FidoDeviceAuthenticator"*, %"struct.device::CtapMakeCredentialRequest"*, %"class.base::OnceCallback.160"*)*** %65, align 8
  %67 = getelementptr inbounds void (%"class.device::FidoDeviceAuthenticator"*, %"struct.device::CtapMakeCredentialRequest"*, %"class.base::OnceCallback.160"*)*, void (%"class.device::FidoDeviceAuthenticator"*, %"struct.device::CtapMakeCredentialRequest"*, %"class.base::OnceCallback.160"*)** %66, i64 3
  %68 = load void (%"class.device::FidoDeviceAuthenticator"*, %"struct.device::CtapMakeCredentialRequest"*, %"class.base::OnceCallback.160"*)*, void (%"class.device::FidoDeviceAuthenticator"*, %"struct.device::CtapMakeCredentialRequest"*, %"class.base::OnceCallback.160"*)** %67, align 8
  call void %68(%"class.device::FidoDeviceAuthenticator"* %0, %"struct.device::CtapMakeCredentialRequest"* nonnull %6, %"class.base::OnceCallback.160"* nonnull %7) #13
  %69 = getelementptr inbounds %"class.base::OnceCallback.160", %"class.base::OnceCallback.160"* %7, i64 0, i32 0
  call void @_ZN4base8internal12CallbackBaseD2Ev(%"class.base::internal::CallbackBase"* nonnull %69) #13
  %70 = bitcast %"class.std::__1::basic_string"* %8 to %"struct.std::__1::basic_string<char, std::__1::char_traits<char>, std::__1::allocator<char> >::__short"*
  %71 = getelementptr inbounds %"struct.std::__1::basic_string<char, std::__1::char_traits<char>, std::__1::allocator<char> >::__short", %"struct.std::__1::basic_string<char, std::__1::char_traits<char>, std::__1::allocator<char> >::__short"* %70, i64 0, i32 1, i32 0
  %72 = load i8, i8* %71, align 1
  %73 = icmp slt i8 %72, 0
  br i1 %73, label %74, label %77

74:                                               ; preds = %49
  %75 = getelementptr inbounds %"class.std::__1::basic_string", %"class.std::__1::basic_string"* %8, i64 0, i32 0, i32 0, i32 0, i32 0, i32 0, i32 0
  %76 = load i8*, i8** %75, align 8
  call void @_ZdlPv(i8* %76) #14
  br label %77

77:                                               ; preds = %49, %74
  call void @llvm.lifetime.end.p0i8(i64 24, i8* nonnull %51) #13
  call void @_ZN6device25CtapMakeCredentialRequestD1Ev(%"struct.device::CtapMakeCredentialRequest"* nonnull %6) #13
  br label %78

78:                                               ; preds = %77, %48
  ret void
}

declare zeroext i1 @_ZNK6device28AuthenticatorGetInfoResponse15SupportsAtLeastENS_12Ctap2VersionE(%"struct.device::AuthenticatorGetInfoResponse"*, i32) local_unnamed_addr #2

; Function Attrs: nounwind ssp uwtable
define linkonce_odr hidden void @_ZN6device23FidoDeviceAuthenticator12RunOperationINS_33CtapAuthenticatorSelectionRequestENS_3pin13EmptyResponseEEEvT_N4base12OnceCallbackIFvNS_22CtapDeviceResponseCodeEN4absl8optionalIT0_EEEEENS7_IFSC_RKNSA_IN4cbor5ValueEEEEEEPFbRKNSt3__16vectorIPKSG_NSM_9allocatorISP_EEEEE(%"class.device::FidoDeviceAuthenticator"*, %"class.base::OnceCallback.259"*, %"class.base::OnceCallback.260"*, i1 (%"class.std::__1::vector.257"*)*) local_unnamed_addr #0 comdat align 2 {
  %5 = alloca %"class.base::OnceCallback.259", align 8
  %6 = alloca %"class.base::OnceCallback.259", align 8
  %7 = alloca %"class.base::OnceCallback.260", align 8
  %8 = alloca %"class.base::internal::WeakReference", align 8
  %9 = alloca %"class.base::OnceCallback.259", align 8
  %10 = alloca %"class.base::WeakPtr.98", align 8
  %11 = ptrtoint i1 (%"class.std::__1::vector.257"*)* %3 to i64
  %12 = getelementptr inbounds %"class.device::FidoDeviceAuthenticator", %"class.device::FidoDeviceAuthenticator"* %0, i64 0, i32 1, i32 0, i32 0, i32 0
  %13 = bitcast %"class.device::FidoDevice"** %12 to i64*
  %14 = load i64, i64* %13, align 8
  %15 = bitcast %"class.base::OnceCallback.259"* %9 to i8*
  call void @llvm.lifetime.start.p0i8(i64 8, i8* nonnull %15) #13
  %16 = bitcast %"class.base::WeakPtr.98"* %10 to i8*
  call void @llvm.lifetime.start.p0i8(i64 16, i8* nonnull %16) #13
  %17 = bitcast %"class.base::internal::WeakReference"* %8 to i8*
  call void @llvm.lifetime.start.p0i8(i64 8, i8* nonnull %17) #13, !noalias !79
  %18 = getelementptr inbounds %"class.device::FidoDeviceAuthenticator", %"class.device::FidoDeviceAuthenticator"* %0, i64 0, i32 6, i32 0, i32 0
  call void @_ZNK4base8internal18WeakReferenceOwner6GetRefEv(%"class.base::internal::WeakReference"* nonnull sret %8, %"class.base::internal::WeakReferenceOwner"* %18) #13, !noalias !79
  %19 = getelementptr inbounds %"class.device::FidoDeviceAuthenticator", %"class.device::FidoDeviceAuthenticator"* %0, i64 0, i32 6, i32 0, i32 1
  %20 = load i64, i64* %19, align 8, !noalias !79
  %21 = getelementptr inbounds %"class.base::WeakPtr.98", %"class.base::WeakPtr.98"* %10, i64 0, i32 0
  call void @_ZN4base8internal11WeakPtrBaseC2ERKNS0_13WeakReferenceEm(%"class.base::internal::WeakPtrBase"* nonnull %21, %"class.base::internal::WeakReference"* nonnull dereferenceable(8) %8, i64 %20) #13
  call void @_ZN4base8internal13WeakReferenceD1Ev(%"class.base::internal::WeakReference"* nonnull %8) #13
  call void @llvm.lifetime.end.p0i8(i64 8, i8* nonnull %17) #13, !noalias !79
  %22 = call i8* @_Znwm(i64 72) #14, !noalias !82
  %23 = bitcast i8* %22 to %"class.base::internal::BindStateBase"*
  call void @_ZN4base8internal13BindStateBaseC2EPFvvEPFvPKS1_EPFbS5_NS1_21CancellationQueryModeEE(%"class.base::internal::BindStateBase"* nonnull %23, void ()* bitcast (void (%"class.base::internal::BindStateBase"*, i8, %"class.absl::optional.261"*)* @_ZN4base8internal7InvokerINS0_9BindStateIMN6device23FidoDeviceAuthenticatorEFvNS_12OnceCallbackIFvNS3_22CtapDeviceResponseCodeEN4absl8optionalINS3_3pin13EmptyResponseEEEEEES6_SB_EJNS_7WeakPtrIS4_EESD_EEESC_E7RunOnceEPNS0_13BindStateBaseES6_OSB_ to void ()*), void (%"class.base::internal::BindStateBase"*)* nonnull @_ZN4base8internal9BindStateIMN6device23FidoDeviceAuthenticatorEFvNS_12OnceCallbackIFvNS2_22CtapDeviceResponseCodeEN4absl8optionalINS2_3pin13EmptyResponseEEEEEES5_SA_EJNS_7WeakPtrIS3_EESC_EE7DestroyEPKNS0_13BindStateBaseE, i1 (%"class.base::internal::BindStateBase"*, i32)* nonnull @_ZN4base8internal23QueryCancellationTraitsINS0_9BindStateIMN6device23FidoDeviceAuthenticatorEFvNS_12OnceCallbackIFvNS3_22CtapDeviceResponseCodeEN4absl8optionalINS3_3pin13EmptyResponseEEEEEES6_SB_EJNS_7WeakPtrIS4_EESD_EEEEEbPKNS0_13BindStateBaseENSJ_21CancellationQueryModeE) #13, !noalias !82
  %24 = getelementptr inbounds i8, i8* %22, i64 32
  %25 = bitcast i8* %24 to <2 x i64>*
  store <2 x i64> <i64 ptrtoint (void (%"class.device::FidoDeviceAuthenticator"*, %"class.base::OnceCallback.259"*, i8, i8)* @_ZN6device23FidoDeviceAuthenticator19OperationClearProxyIJNS_22CtapDeviceResponseCodeEN4absl8optionalINS_3pin13EmptyResponseEEEEEEvN4base12OnceCallbackIFvDpT_EEESB_ to i64), i64 0>, <2 x i64>* %25, align 8, !noalias !82
  %26 = getelementptr inbounds i8, i8* %22, i64 48
  %27 = bitcast i8* %26 to %"class.base::internal::WeakReference"*
  %28 = getelementptr inbounds %"class.base::WeakPtr.98", %"class.base::WeakPtr.98"* %10, i64 0, i32 0, i32 0
  call void @_ZN4base8internal13WeakReferenceC1EOS1_(%"class.base::internal::WeakReference"* %27, %"class.base::internal::WeakReference"* nonnull dereferenceable(8) %28) #13, !noalias !82
  %29 = getelementptr inbounds i8, i8* %22, i64 56
  %30 = bitcast i8* %29 to i64*
  %31 = getelementptr inbounds %"class.base::WeakPtr.98", %"class.base::WeakPtr.98"* %10, i64 0, i32 0, i32 1
  %32 = load i64, i64* %31, align 8, !noalias !82
  store i64 %32, i64* %30, align 8, !noalias !82
  %33 = getelementptr inbounds i8, i8* %22, i64 64
  %34 = getelementptr inbounds %"class.base::OnceCallback.259", %"class.base::OnceCallback.259"* %1, i64 0, i32 0, i32 0, i32 0
  %35 = bitcast %"class.base::OnceCallback.259"* %1 to i64*
  %36 = load i64, i64* %35, align 8, !noalias !82
  %37 = bitcast i8* %33 to i64*
  store i64 %36, i64* %37, align 8, !noalias !82
  store %"class.base::internal::BindStateBase"* null, %"class.base::internal::BindStateBase"** %34, align 8, !noalias !82
  %38 = bitcast %"class.base::OnceCallback.259"* %6 to i8*
  call void @llvm.lifetime.start.p0i8(i64 8, i8* nonnull %38)
  %39 = bitcast %"class.base::OnceCallback.260"* %7 to i8*
  call void @llvm.lifetime.start.p0i8(i64 8, i8* nonnull %39)
  %40 = call i8* @_Znwm(i64 72) #14
  %41 = getelementptr inbounds %"class.base::OnceCallback.259", %"class.base::OnceCallback.259"* %9, i64 0, i32 0, i32 0, i32 0
  %42 = ptrtoint i8* %22 to i64
  store %"class.base::internal::BindStateBase"* null, %"class.base::internal::BindStateBase"** %41, align 8
  %43 = getelementptr inbounds %"class.base::OnceCallback.260", %"class.base::OnceCallback.260"* %2, i64 0, i32 0, i32 0, i32 0
  %44 = bitcast %"class.base::OnceCallback.260"* %2 to i64*
  %45 = load i64, i64* %44, align 8
  store %"class.base::internal::BindStateBase"* null, %"class.base::internal::BindStateBase"** %43, align 8
  %46 = bitcast %"class.base::OnceCallback.259"* %5 to i8*
  call void @llvm.lifetime.start.p0i8(i64 8, i8* nonnull %46) #13
  %47 = getelementptr inbounds %"class.base::OnceCallback.259", %"class.base::OnceCallback.259"* %6, i64 0, i32 0, i32 0, i32 0
  store %"class.base::internal::BindStateBase"* null, %"class.base::internal::BindStateBase"** %47, align 8
  %48 = bitcast i8* %40 to i32 (...)***
  %49 = getelementptr inbounds i8, i8* %40, i64 8
  store i8 0, i8* %49, align 4
  %50 = getelementptr inbounds i8, i8* %40, i64 16
  %51 = bitcast i8* %50 to i64*
  store i64 %14, i64* %51, align 8
  %52 = getelementptr inbounds i8, i8* %40, i64 32
  %53 = getelementptr inbounds %"class.base::OnceCallback.259", %"class.base::OnceCallback.259"* %5, i64 0, i32 0, i32 0, i32 0
  %54 = bitcast i8* %52 to i64*
  store i64 %42, i64* %54, align 8
  store %"class.base::internal::BindStateBase"* null, %"class.base::internal::BindStateBase"** %53, align 8
  %55 = getelementptr inbounds %"class.base::OnceCallback.259", %"class.base::OnceCallback.259"* %5, i64 0, i32 0
  call void @_ZN4base8internal12CallbackBaseD2Ev(%"class.base::internal::CallbackBase"* nonnull %55) #13
  store i32 (...)** bitcast (i8** getelementptr inbounds ({ [6 x i8*] }, { [6 x i8*] }* @_ZTVN6device20Ctap2DeviceOperationINS_33CtapAuthenticatorSelectionRequestENS_3pin13EmptyResponseEEE, i64 0, inrange i32 0, i64 2) to i32 (...)**), i32 (...)*** %48, align 8
  %56 = getelementptr inbounds i8, i8* %40, i64 40
  %57 = getelementptr inbounds %"class.base::OnceCallback.260", %"class.base::OnceCallback.260"* %7, i64 0, i32 0, i32 0, i32 0
  %58 = bitcast i8* %56 to i64*
  store i64 %45, i64* %58, align 8
  store %"class.base::internal::BindStateBase"* null, %"class.base::internal::BindStateBase"** %57, align 8
  %59 = getelementptr inbounds i8, i8* %40, i64 48
  %60 = bitcast i8* %59 to i64*
  store i64 %11, i64* %60, align 8
  %61 = getelementptr inbounds i8, i8* %40, i64 56
  %62 = bitcast i8* %61 to %"class.base::internal::WeakPtrFactoryBase"*
  %63 = ptrtoint i8* %40 to i64
  call void @_ZN4base8internal18WeakPtrFactoryBaseC2Em(%"class.base::internal::WeakPtrFactoryBase"* %62, i64 %63) #13
  call void @llvm.lifetime.end.p0i8(i64 8, i8* nonnull %46) #13
  %64 = getelementptr inbounds %"class.base::OnceCallback.260", %"class.base::OnceCallback.260"* %7, i64 0, i32 0
  call void @_ZN4base8internal12CallbackBaseD2Ev(%"class.base::internal::CallbackBase"* nonnull %64) #13
  %65 = getelementptr inbounds %"class.base::OnceCallback.259", %"class.base::OnceCallback.259"* %6, i64 0, i32 0
  call void @_ZN4base8internal12CallbackBaseD2Ev(%"class.base::internal::CallbackBase"* nonnull %65) #13
  call void @llvm.lifetime.end.p0i8(i64 8, i8* nonnull %38)
  call void @llvm.lifetime.end.p0i8(i64 8, i8* nonnull %39)
  %66 = getelementptr inbounds %"class.device::FidoDeviceAuthenticator", %"class.device::FidoDeviceAuthenticator"* %0, i64 0, i32 4, i32 0, i32 0, i32 0
  %67 = load %"class.device::GenericDeviceOperation"*, %"class.device::GenericDeviceOperation"** %66, align 8
  %68 = bitcast %"class.device::GenericDeviceOperation"** %66 to i8**
  store i8* %40, i8** %68, align 8
  %69 = icmp eq %"class.device::GenericDeviceOperation"* %67, null
  br i1 %69, label %75, label %70

70:                                               ; preds = %4
  %71 = bitcast %"class.device::GenericDeviceOperation"* %67 to void (%"class.device::GenericDeviceOperation"*)***
  %72 = load void (%"class.device::GenericDeviceOperation"*)**, void (%"class.device::GenericDeviceOperation"*)*** %71, align 8
  %73 = getelementptr inbounds void (%"class.device::GenericDeviceOperation"*)*, void (%"class.device::GenericDeviceOperation"*)** %72, i64 1
  %74 = load void (%"class.device::GenericDeviceOperation"*)*, void (%"class.device::GenericDeviceOperation"*)** %73, align 8
  call void %74(%"class.device::GenericDeviceOperation"* nonnull %67) #13
  br label %75

75:                                               ; preds = %70, %4
  %76 = getelementptr inbounds %"class.base::OnceCallback.259", %"class.base::OnceCallback.259"* %9, i64 0, i32 0
  call void @_ZN4base8internal12CallbackBaseD2Ev(%"class.base::internal::CallbackBase"* nonnull %76) #13
  call void @_ZN4base8internal11WeakPtrBaseD2Ev(%"class.base::internal::WeakPtrBase"* nonnull %21) #13
  call void @llvm.lifetime.end.p0i8(i64 16, i8* nonnull %16) #13
  call void @llvm.lifetime.end.p0i8(i64 8, i8* nonnull %15) #13
  %77 = load %"class.device::GenericDeviceOperation"*, %"class.device::GenericDeviceOperation"** %66, align 8
  %78 = bitcast %"class.device::GenericDeviceOperation"* %77 to void (%"class.device::GenericDeviceOperation"*)***
  %79 = load void (%"class.device::GenericDeviceOperation"*)**, void (%"class.device::GenericDeviceOperation"*)*** %78, align 8
  %80 = getelementptr inbounds void (%"class.device::GenericDeviceOperation"*)*, void (%"class.device::GenericDeviceOperation"*)** %79, i64 2
  %81 = load void (%"class.device::GenericDeviceOperation"*)*, void (%"class.device::GenericDeviceOperation"*)** %80, align 8
  call void %81(%"class.device::GenericDeviceOperation"* %77) #13
  ret void
}

declare i8 @_ZN6device3pin13EmptyResponse5ParseERKN4absl8optionalIN4cbor5ValueEEE(%"class.absl::optional.221"* dereferenceable(40)) #2

declare void @_ZN6device18MakeCredentialTask15GetTouchRequestEPKNS_10FidoDeviceE(%"struct.device::CtapMakeCredentialRequest"* sret, %"class.device::FidoDevice"*) local_unnamed_addr #2

; Function Attrs: nounwind
declare void @_ZN6device25CtapMakeCredentialRequestD1Ev(%"struct.device::CtapMakeCredentialRequest"*) unnamed_addr #4

; Function Attrs: nounwind ssp uwtable
define hidden void @_ZN6device23FidoDeviceAuthenticator13GetPinRetriesEN4base12OnceCallbackIFvNS_22CtapDeviceResponseCodeEN4absl8optionalINS_3pin15RetriesResponseEEEEEE(%"class.device::FidoDeviceAuthenticator"*, %"class.base::OnceCallback.268"* nocapture) unnamed_addr #0 align 2 {
  %3 = alloca %"class.base::OnceCallback.268", align 8
  %4 = alloca %"class.base::OnceCallback.269", align 8
  %5 = getelementptr inbounds %"class.device::FidoDeviceAuthenticator", %"class.device::FidoDeviceAuthenticator"* %0, i64 0, i32 5, i32 0, i32 0, i32 0, i32 0
  %6 = load i8, i8* %5, align 1, !range !2
  %7 = icmp eq i8 %6, 0
  br i1 %7, label %8, label %9, !prof !16

8:                                                ; preds = %2
  tail call void @llvm.trap() #13
  unreachable

9:                                                ; preds = %2
  %10 = getelementptr inbounds %"class.device::FidoDeviceAuthenticator", %"class.device::FidoDeviceAuthenticator"* %0, i64 0, i32 5, i32 0, i32 0, i32 0, i32 1, i32 0
  %11 = load i8, i8* %10, align 1
  %12 = getelementptr inbounds %"class.base::OnceCallback.268", %"class.base::OnceCallback.268"* %1, i64 0, i32 0, i32 0, i32 0
  %13 = bitcast %"class.base::OnceCallback.268"* %1 to i64*
  %14 = load i64, i64* %13, align 8
  %15 = bitcast %"class.base::OnceCallback.268"* %3 to i64*
  store i64 %14, i64* %15, align 8
  store %"class.base::internal::BindStateBase"* null, %"class.base::internal::BindStateBase"** %12, align 8
  %16 = tail call i8* @_Znwm(i64 48) #14, !noalias !87
  %17 = bitcast i8* %16 to %"class.base::internal::BindStateBase"*
  tail call void @_ZN4base8internal13BindStateBaseC2EPFvvEPFvPKS1_E(%"class.base::internal::BindStateBase"* nonnull %17, void ()* bitcast (i64 (%"class.base::internal::BindStateBase"*, %"class.absl::optional.221"*)* @_ZN4base8internal7InvokerINS0_9BindStateIPFN4absl8optionalIN6device3pin15RetriesResponseEEERKNS4_IN4cbor5ValueEEEEJEEESE_E7RunOnceEPNS0_13BindStateBaseESD_ to void ()*), void (%"class.base::internal::BindStateBase"*)* nonnull @_ZN4base8internal9BindStateIPFN4absl8optionalIN6device3pin15RetriesResponseEEERKNS3_IN4cbor5ValueEEEEJEE7DestroyEPKNS0_13BindStateBaseE) #13, !noalias !87
  %18 = getelementptr inbounds i8, i8* %16, i64 32
  %19 = bitcast i8* %18 to i64*
  store i64 ptrtoint (void ()* @_ZN6device3pin15RetriesResponse15ParsePinRetriesERKN4absl8optionalIN4cbor5ValueEEE to i64), i64* %19, align 8, !noalias !87
  %20 = bitcast %"class.base::OnceCallback.269"* %4 to i8**
  store i8* %16, i8** %20, align 8, !alias.scope !87
  call void @_ZN6device23FidoDeviceAuthenticator12RunOperationINS_3pin17PinRetriesRequestENS2_15RetriesResponseEEEvT_N4base12OnceCallbackIFvNS_22CtapDeviceResponseCodeEN4absl8optionalIT0_EEEEENS7_IFSC_RKNSA_IN4cbor5ValueEEEEEEPFbRKNSt3__16vectorIPKSG_NSM_9allocatorISP_EEEEE(%"class.device::FidoDeviceAuthenticator"* %0, i8 %11, %"class.base::OnceCallback.268"* nonnull %3, %"class.base::OnceCallback.269"* nonnull %4, i1 (%"class.std::__1::vector.257"*)* null)
  %21 = getelementptr inbounds %"class.base::OnceCallback.269", %"class.base::OnceCallback.269"* %4, i64 0, i32 0
  call void @_ZN4base8internal12CallbackBaseD2Ev(%"class.base::internal::CallbackBase"* nonnull %21) #13
  %22 = getelementptr inbounds %"class.base::OnceCallback.268", %"class.base::OnceCallback.268"* %3, i64 0, i32 0
  call void @_ZN4base8internal12CallbackBaseD2Ev(%"class.base::internal::CallbackBase"* nonnull %22) #13
  ret void
}

; Function Attrs: nounwind ssp uwtable
define linkonce_odr hidden void @_ZN6device23FidoDeviceAuthenticator12RunOperationINS_3pin17PinRetriesRequestENS2_15RetriesResponseEEEvT_N4base12OnceCallbackIFvNS_22CtapDeviceResponseCodeEN4absl8optionalIT0_EEEEENS7_IFSC_RKNSA_IN4cbor5ValueEEEEEEPFbRKNSt3__16vectorIPKSG_NSM_9allocatorISP_EEEEE(%"class.device::FidoDeviceAuthenticator"*, i8, %"class.base::OnceCallback.268"*, %"class.base::OnceCallback.269"*, i1 (%"class.std::__1::vector.257"*)*) local_unnamed_addr #0 comdat align 2 {
  %6 = alloca %"class.base::OnceCallback.268", align 8
  %7 = alloca %"class.base::OnceCallback.268", align 8
  %8 = alloca %"class.base::OnceCallback.269", align 8
  %9 = alloca %"class.base::internal::WeakReference", align 8
  %10 = alloca %"class.base::OnceCallback.268", align 8
  %11 = alloca %"class.base::WeakPtr.98", align 8
  %12 = ptrtoint i1 (%"class.std::__1::vector.257"*)* %4 to i64
  %13 = getelementptr inbounds %"class.device::FidoDeviceAuthenticator", %"class.device::FidoDeviceAuthenticator"* %0, i64 0, i32 1, i32 0, i32 0, i32 0
  %14 = bitcast %"class.device::FidoDevice"** %13 to i64*
  %15 = load i64, i64* %14, align 8
  %16 = bitcast %"class.base::OnceCallback.268"* %10 to i8*
  call void @llvm.lifetime.start.p0i8(i64 8, i8* nonnull %16) #13
  %17 = bitcast %"class.base::WeakPtr.98"* %11 to i8*
  call void @llvm.lifetime.start.p0i8(i64 16, i8* nonnull %17) #13
  %18 = bitcast %"class.base::internal::WeakReference"* %9 to i8*
  call void @llvm.lifetime.start.p0i8(i64 8, i8* nonnull %18) #13, !noalias !92
  %19 = getelementptr inbounds %"class.device::FidoDeviceAuthenticator", %"class.device::FidoDeviceAuthenticator"* %0, i64 0, i32 6, i32 0, i32 0
  call void @_ZNK4base8internal18WeakReferenceOwner6GetRefEv(%"class.base::internal::WeakReference"* nonnull sret %9, %"class.base::internal::WeakReferenceOwner"* %19) #13, !noalias !92
  %20 = getelementptr inbounds %"class.device::FidoDeviceAuthenticator", %"class.device::FidoDeviceAuthenticator"* %0, i64 0, i32 6, i32 0, i32 1
  %21 = load i64, i64* %20, align 8, !noalias !92
  %22 = getelementptr inbounds %"class.base::WeakPtr.98", %"class.base::WeakPtr.98"* %11, i64 0, i32 0
  call void @_ZN4base8internal11WeakPtrBaseC2ERKNS0_13WeakReferenceEm(%"class.base::internal::WeakPtrBase"* nonnull %22, %"class.base::internal::WeakReference"* nonnull dereferenceable(8) %9, i64 %21) #13
  call void @_ZN4base8internal13WeakReferenceD1Ev(%"class.base::internal::WeakReference"* nonnull %9) #13
  call void @llvm.lifetime.end.p0i8(i64 8, i8* nonnull %18) #13, !noalias !92
  %23 = call i8* @_Znwm(i64 72) #14, !noalias !95
  %24 = bitcast i8* %23 to %"class.base::internal::BindStateBase"*
  call void @_ZN4base8internal13BindStateBaseC2EPFvvEPFvPKS1_EPFbS5_NS1_21CancellationQueryModeEE(%"class.base::internal::BindStateBase"* nonnull %24, void ()* bitcast (void (%"class.base::internal::BindStateBase"*, i8, %"class.absl::optional.270"*)* @_ZN4base8internal7InvokerINS0_9BindStateIMN6device23FidoDeviceAuthenticatorEFvNS_12OnceCallbackIFvNS3_22CtapDeviceResponseCodeEN4absl8optionalINS3_3pin15RetriesResponseEEEEEES6_SB_EJNS_7WeakPtrIS4_EESD_EEESC_E7RunOnceEPNS0_13BindStateBaseES6_OSB_ to void ()*), void (%"class.base::internal::BindStateBase"*)* nonnull @_ZN4base8internal9BindStateIMN6device23FidoDeviceAuthenticatorEFvNS_12OnceCallbackIFvNS2_22CtapDeviceResponseCodeEN4absl8optionalINS2_3pin15RetriesResponseEEEEEES5_SA_EJNS_7WeakPtrIS3_EESC_EE7DestroyEPKNS0_13BindStateBaseE, i1 (%"class.base::internal::BindStateBase"*, i32)* nonnull @_ZN4base8internal23QueryCancellationTraitsINS0_9BindStateIMN6device23FidoDeviceAuthenticatorEFvNS_12OnceCallbackIFvNS3_22CtapDeviceResponseCodeEN4absl8optionalINS3_3pin15RetriesResponseEEEEEES6_SB_EJNS_7WeakPtrIS4_EESD_EEEEEbPKNS0_13BindStateBaseENSJ_21CancellationQueryModeE) #13, !noalias !95
  %25 = getelementptr inbounds i8, i8* %23, i64 32
  %26 = bitcast i8* %25 to <2 x i64>*
  store <2 x i64> <i64 ptrtoint (void (%"class.device::FidoDeviceAuthenticator"*, %"class.base::OnceCallback.268"*, i8, i64)* @_ZN6device23FidoDeviceAuthenticator19OperationClearProxyIJNS_22CtapDeviceResponseCodeEN4absl8optionalINS_3pin15RetriesResponseEEEEEEvN4base12OnceCallbackIFvDpT_EEESB_ to i64), i64 0>, <2 x i64>* %26, align 8, !noalias !95
  %27 = getelementptr inbounds i8, i8* %23, i64 48
  %28 = bitcast i8* %27 to %"class.base::internal::WeakReference"*
  %29 = getelementptr inbounds %"class.base::WeakPtr.98", %"class.base::WeakPtr.98"* %11, i64 0, i32 0, i32 0
  call void @_ZN4base8internal13WeakReferenceC1EOS1_(%"class.base::internal::WeakReference"* %28, %"class.base::internal::WeakReference"* nonnull dereferenceable(8) %29) #13, !noalias !95
  %30 = getelementptr inbounds i8, i8* %23, i64 56
  %31 = bitcast i8* %30 to i64*
  %32 = getelementptr inbounds %"class.base::WeakPtr.98", %"class.base::WeakPtr.98"* %11, i64 0, i32 0, i32 1
  %33 = load i64, i64* %32, align 8, !noalias !95
  store i64 %33, i64* %31, align 8, !noalias !95
  %34 = getelementptr inbounds i8, i8* %23, i64 64
  %35 = getelementptr inbounds %"class.base::OnceCallback.268", %"class.base::OnceCallback.268"* %2, i64 0, i32 0, i32 0, i32 0
  %36 = bitcast %"class.base::OnceCallback.268"* %2 to i64*
  %37 = load i64, i64* %36, align 8, !noalias !95
  %38 = bitcast i8* %34 to i64*
  store i64 %37, i64* %38, align 8, !noalias !95
  store %"class.base::internal::BindStateBase"* null, %"class.base::internal::BindStateBase"** %35, align 8, !noalias !95
  %39 = bitcast %"class.base::OnceCallback.268"* %7 to i8*
  call void @llvm.lifetime.start.p0i8(i64 8, i8* nonnull %39)
  %40 = bitcast %"class.base::OnceCallback.269"* %8 to i8*
  call void @llvm.lifetime.start.p0i8(i64 8, i8* nonnull %40)
  %41 = call i8* @_Znwm(i64 72) #14
  %42 = getelementptr inbounds %"class.base::OnceCallback.268", %"class.base::OnceCallback.268"* %10, i64 0, i32 0, i32 0, i32 0
  %43 = ptrtoint i8* %23 to i64
  store %"class.base::internal::BindStateBase"* null, %"class.base::internal::BindStateBase"** %42, align 8
  %44 = getelementptr inbounds %"class.base::OnceCallback.269", %"class.base::OnceCallback.269"* %3, i64 0, i32 0, i32 0, i32 0
  %45 = bitcast %"class.base::OnceCallback.269"* %3 to i64*
  %46 = load i64, i64* %45, align 8
  store %"class.base::internal::BindStateBase"* null, %"class.base::internal::BindStateBase"** %44, align 8
  %47 = bitcast %"class.base::OnceCallback.268"* %6 to i8*
  call void @llvm.lifetime.start.p0i8(i64 8, i8* nonnull %47) #13
  %48 = getelementptr inbounds %"class.base::OnceCallback.268", %"class.base::OnceCallback.268"* %7, i64 0, i32 0, i32 0, i32 0
  store %"class.base::internal::BindStateBase"* null, %"class.base::internal::BindStateBase"** %48, align 8
  %49 = bitcast i8* %41 to i32 (...)***
  %50 = getelementptr inbounds i8, i8* %41, i64 8
  store i8 0, i8* %50, align 4
  %51 = getelementptr inbounds i8, i8* %41, i64 16
  %52 = bitcast i8* %51 to i64*
  store i64 %15, i64* %52, align 8
  %53 = getelementptr inbounds i8, i8* %41, i64 24
  store i8 %1, i8* %53, align 8
  %54 = getelementptr inbounds i8, i8* %41, i64 32
  %55 = getelementptr inbounds %"class.base::OnceCallback.268", %"class.base::OnceCallback.268"* %6, i64 0, i32 0, i32 0, i32 0
  %56 = bitcast i8* %54 to i64*
  store i64 %43, i64* %56, align 8
  store %"class.base::internal::BindStateBase"* null, %"class.base::internal::BindStateBase"** %55, align 8
  %57 = getelementptr inbounds %"class.base::OnceCallback.268", %"class.base::OnceCallback.268"* %6, i64 0, i32 0
  call void @_ZN4base8internal12CallbackBaseD2Ev(%"class.base::internal::CallbackBase"* nonnull %57) #13
  store i32 (...)** bitcast (i8** getelementptr inbounds ({ [6 x i8*] }, { [6 x i8*] }* @_ZTVN6device20Ctap2DeviceOperationINS_3pin17PinRetriesRequestENS1_15RetriesResponseEEE, i64 0, inrange i32 0, i64 2) to i32 (...)**), i32 (...)*** %49, align 8
  %58 = getelementptr inbounds i8, i8* %41, i64 40
  %59 = getelementptr inbounds %"class.base::OnceCallback.269", %"class.base::OnceCallback.269"* %8, i64 0, i32 0, i32 0, i32 0
  %60 = bitcast i8* %58 to i64*
  store i64 %46, i64* %60, align 8
  store %"class.base::internal::BindStateBase"* null, %"class.base::internal::BindStateBase"** %59, align 8
  %61 = getelementptr inbounds i8, i8* %41, i64 48
  %62 = bitcast i8* %61 to i64*
  store i64 %12, i64* %62, align 8
  %63 = getelementptr inbounds i8, i8* %41, i64 56
  %64 = bitcast i8* %63 to %"class.base::internal::WeakPtrFactoryBase"*
  %65 = ptrtoint i8* %41 to i64
  call void @_ZN4base8internal18WeakPtrFactoryBaseC2Em(%"class.base::internal::WeakPtrFactoryBase"* %64, i64 %65) #13
  call void @llvm.lifetime.end.p0i8(i64 8, i8* nonnull %47) #13
  %66 = getelementptr inbounds %"class.base::OnceCallback.269", %"class.base::OnceCallback.269"* %8, i64 0, i32 0
  call void @_ZN4base8internal12CallbackBaseD2Ev(%"class.base::internal::CallbackBase"* nonnull %66) #13
  %67 = getelementptr inbounds %"class.base::OnceCallback.268", %"class.base::OnceCallback.268"* %7, i64 0, i32 0
  call void @_ZN4base8internal12CallbackBaseD2Ev(%"class.base::internal::CallbackBase"* nonnull %67) #13
  call void @llvm.lifetime.end.p0i8(i64 8, i8* nonnull %39)
  call void @llvm.lifetime.end.p0i8(i64 8, i8* nonnull %40)
  %68 = getelementptr inbounds %"class.device::FidoDeviceAuthenticator", %"class.device::FidoDeviceAuthenticator"* %0, i64 0, i32 4, i32 0, i32 0, i32 0
  %69 = load %"class.device::GenericDeviceOperation"*, %"class.device::GenericDeviceOperation"** %68, align 8
  %70 = bitcast %"class.device::GenericDeviceOperation"** %68 to i8**
  store i8* %41, i8** %70, align 8
  %71 = icmp eq %"class.device::GenericDeviceOperation"* %69, null
  br i1 %71, label %77, label %72

72:                                               ; preds = %5
  %73 = bitcast %"class.device::GenericDeviceOperation"* %69 to void (%"class.device::GenericDeviceOperation"*)***
  %74 = load void (%"class.device::GenericDeviceOperation"*)**, void (%"class.device::GenericDeviceOperation"*)*** %73, align 8
  %75 = getelementptr inbounds void (%"class.device::GenericDeviceOperation"*)*, void (%"class.device::GenericDeviceOperation"*)** %74, i64 1
  %76 = load void (%"class.device::GenericDeviceOperation"*)*, void (%"class.device::GenericDeviceOperation"*)** %75, align 8
  call void %76(%"class.device::GenericDeviceOperation"* nonnull %69) #13
  br label %77

77:                                               ; preds = %72, %5
  %78 = getelementptr inbounds %"class.base::OnceCallback.268", %"class.base::OnceCallback.268"* %10, i64 0, i32 0
  call void @_ZN4base8internal12CallbackBaseD2Ev(%"class.base::internal::CallbackBase"* nonnull %78) #13
  call void @_ZN4base8internal11WeakPtrBaseD2Ev(%"class.base::internal::WeakPtrBase"* nonnull %22) #13
  call void @llvm.lifetime.end.p0i8(i64 16, i8* nonnull %17) #13
  call void @llvm.lifetime.end.p0i8(i64 8, i8* nonnull %16) #13
  %79 = load %"class.device::GenericDeviceOperation"*, %"class.device::GenericDeviceOperation"** %68, align 8
  %80 = bitcast %"class.device::GenericDeviceOperation"* %79 to void (%"class.device::GenericDeviceOperation"*)***
  %81 = load void (%"class.device::GenericDeviceOperation"*)**, void (%"class.device::GenericDeviceOperation"*)*** %80, align 8
  %82 = getelementptr inbounds void (%"class.device::GenericDeviceOperation"*)*, void (%"class.device::GenericDeviceOperation"*)** %81, i64 2
  %83 = load void (%"class.device::GenericDeviceOperation"*)*, void (%"class.device::GenericDeviceOperation"*)** %82, align 8
  call void %83(%"class.device::GenericDeviceOperation"* %79) #13
  ret void
}

declare void @_ZN6device3pin15RetriesResponse15ParsePinRetriesERKN4absl8optionalIN4cbor5ValueEEE()

; Function Attrs: nounwind
declare void @_ZN4base8internal12CallbackBaseD2Ev(%"class.base::internal::CallbackBase"*) unnamed_addr #4

; Function Attrs: nounwind ssp uwtable
define linkonce_odr hidden void @_ZN6device23FidoDeviceAuthenticator12RunOperationINS_3pin19KeyAgreementRequestENS2_20KeyAgreementResponseEEEvT_N4base12OnceCallbackIFvNS_22CtapDeviceResponseCodeEN4absl8optionalIT0_EEEEENS7_IFSC_RKNSA_IN4cbor5ValueEEEEEEPFbRKNSt3__16vectorIPKSG_NSM_9allocatorISP_EEEEE(%"class.device::FidoDeviceAuthenticator"*, i8, %"class.base::OnceCallback.202"*, %"class.base::OnceCallback.271"*, i1 (%"class.std::__1::vector.257"*)*) local_unnamed_addr #0 comdat align 2 {
  %6 = alloca %"class.base::OnceCallback.202", align 8
  %7 = alloca %"class.base::OnceCallback.202", align 8
  %8 = alloca %"class.base::OnceCallback.271", align 8
  %9 = alloca %"class.base::internal::WeakReference", align 8
  %10 = alloca %"class.base::OnceCallback.202", align 8
  %11 = alloca %"class.base::WeakPtr.98", align 8
  %12 = ptrtoint i1 (%"class.std::__1::vector.257"*)* %4 to i64
  %13 = getelementptr inbounds %"class.device::FidoDeviceAuthenticator", %"class.device::FidoDeviceAuthenticator"* %0, i64 0, i32 1, i32 0, i32 0, i32 0
  %14 = bitcast %"class.device::FidoDevice"** %13 to i64*
  %15 = load i64, i64* %14, align 8
  %16 = bitcast %"class.base::OnceCallback.202"* %10 to i8*
  call void @llvm.lifetime.start.p0i8(i64 8, i8* nonnull %16) #13
  %17 = bitcast %"class.base::WeakPtr.98"* %11 to i8*
  call void @llvm.lifetime.start.p0i8(i64 16, i8* nonnull %17) #13
  %18 = bitcast %"class.base::internal::WeakReference"* %9 to i8*
  call void @llvm.lifetime.start.p0i8(i64 8, i8* nonnull %18) #13, !noalias !100
  %19 = getelementptr inbounds %"class.device::FidoDeviceAuthenticator", %"class.device::FidoDeviceAuthenticator"* %0, i64 0, i32 6, i32 0, i32 0
  call void @_ZNK4base8internal18WeakReferenceOwner6GetRefEv(%"class.base::internal::WeakReference"* nonnull sret %9, %"class.base::internal::WeakReferenceOwner"* %19) #13, !noalias !100
  %20 = getelementptr inbounds %"class.device::FidoDeviceAuthenticator", %"class.device::FidoDeviceAuthenticator"* %0, i64 0, i32 6, i32 0, i32 1
  %21 = load i64, i64* %20, align 8, !noalias !100
  %22 = getelementptr inbounds %"class.base::WeakPtr.98", %"class.base::WeakPtr.98"* %11, i64 0, i32 0
  call void @_ZN4base8internal11WeakPtrBaseC2ERKNS0_13WeakReferenceEm(%"class.base::internal::WeakPtrBase"* nonnull %22, %"class.base::internal::WeakReference"* nonnull dereferenceable(8) %9, i64 %21) #13
  call void @_ZN4base8internal13WeakReferenceD1Ev(%"class.base::internal::WeakReference"* nonnull %9) #13
  call void @llvm.lifetime.end.p0i8(i64 8, i8* nonnull %18) #13, !noalias !100
  %23 = call i8* @_Znwm(i64 72) #14, !noalias !103
  %24 = bitcast i8* %23 to %"class.base::internal::BindStateBase"*
  call void @_ZN4base8internal13BindStateBaseC2EPFvvEPFvPKS1_EPFbS5_NS1_21CancellationQueryModeEE(%"class.base::internal::BindStateBase"* nonnull %24, void ()* bitcast (void (%"class.base::internal::BindStateBase"*, i8, %"class.absl::optional.189"*)* @_ZN4base8internal7InvokerINS0_9BindStateIMN6device23FidoDeviceAuthenticatorEFvNS_12OnceCallbackIFvNS3_22CtapDeviceResponseCodeEN4absl8optionalINS3_3pin20KeyAgreementResponseEEEEEES6_SB_EJNS_7WeakPtrIS4_EESD_EEESC_E7RunOnceEPNS0_13BindStateBaseES6_OSB_ to void ()*), void (%"class.base::internal::BindStateBase"*)* nonnull @_ZN4base8internal9BindStateIMN6device23FidoDeviceAuthenticatorEFvNS_12OnceCallbackIFvNS2_22CtapDeviceResponseCodeEN4absl8optionalINS2_3pin20KeyAgreementResponseEEEEEES5_SA_EJNS_7WeakPtrIS3_EESC_EE7DestroyEPKNS0_13BindStateBaseE, i1 (%"class.base::internal::BindStateBase"*, i32)* nonnull @_ZN4base8internal23QueryCancellationTraitsINS0_9BindStateIMN6device23FidoDeviceAuthenticatorEFvNS_12OnceCallbackIFvNS3_22CtapDeviceResponseCodeEN4absl8optionalINS3_3pin20KeyAgreementResponseEEEEEES6_SB_EJNS_7WeakPtrIS4_EESD_EEEEEbPKNS0_13BindStateBaseENSJ_21CancellationQueryModeE) #13, !noalias !103
  %25 = getelementptr inbounds i8, i8* %23, i64 32
  %26 = bitcast i8* %25 to <2 x i64>*
  store <2 x i64> <i64 ptrtoint (void (%"class.device::FidoDeviceAuthenticator"*, %"class.base::OnceCallback.202"*, i8, %"class.absl::optional.189"*)* @_ZN6device23FidoDeviceAuthenticator19OperationClearProxyIJNS_22CtapDeviceResponseCodeEN4absl8optionalINS_3pin20KeyAgreementResponseEEEEEEvN4base12OnceCallbackIFvDpT_EEESB_ to i64), i64 0>, <2 x i64>* %26, align 8, !noalias !103
  %27 = getelementptr inbounds i8, i8* %23, i64 48
  %28 = bitcast i8* %27 to %"class.base::internal::WeakReference"*
  %29 = getelementptr inbounds %"class.base::WeakPtr.98", %"class.base::WeakPtr.98"* %11, i64 0, i32 0, i32 0
  call void @_ZN4base8internal13WeakReferenceC1EOS1_(%"class.base::internal::WeakReference"* %28, %"class.base::internal::WeakReference"* nonnull dereferenceable(8) %29) #13, !noalias !103
  %30 = getelementptr inbounds i8, i8* %23, i64 56
  %31 = bitcast i8* %30 to i64*
  %32 = getelementptr inbounds %"class.base::WeakPtr.98", %"class.base::WeakPtr.98"* %11, i64 0, i32 0, i32 1
  %33 = load i64, i64* %32, align 8, !noalias !103
  store i64 %33, i64* %31, align 8, !noalias !103
  %34 = getelementptr inbounds i8, i8* %23, i64 64
  %35 = getelementptr inbounds %"class.base::OnceCallback.202", %"class.base::OnceCallback.202"* %2, i64 0, i32 0, i32 0, i32 0
  %36 = bitcast %"class.base::OnceCallback.202"* %2 to i64*
  %37 = load i64, i64* %36, align 8, !noalias !103
  %38 = bitcast i8* %34 to i64*
  store i64 %37, i64* %38, align 8, !noalias !103
  store %"class.base::internal::BindStateBase"* null, %"class.base::internal::BindStateBase"** %35, align 8, !noalias !103
  %39 = bitcast %"class.base::OnceCallback.202"* %7 to i8*
  call void @llvm.lifetime.start.p0i8(i64 8, i8* nonnull %39)
  %40 = bitcast %"class.base::OnceCallback.271"* %8 to i8*
  call void @llvm.lifetime.start.p0i8(i64 8, i8* nonnull %40)
  %41 = call i8* @_Znwm(i64 72) #14
  %42 = getelementptr inbounds %"class.base::OnceCallback.202", %"class.base::OnceCallback.202"* %10, i64 0, i32 0, i32 0, i32 0
  %43 = ptrtoint i8* %23 to i64
  store %"class.base::internal::BindStateBase"* null, %"class.base::internal::BindStateBase"** %42, align 8
  %44 = getelementptr inbounds %"class.base::OnceCallback.271", %"class.base::OnceCallback.271"* %3, i64 0, i32 0, i32 0, i32 0
  %45 = bitcast %"class.base::OnceCallback.271"* %3 to i64*
  %46 = load i64, i64* %45, align 8
  store %"class.base::internal::BindStateBase"* null, %"class.base::internal::BindStateBase"** %44, align 8
  %47 = bitcast %"class.base::OnceCallback.202"* %6 to i8*
  call void @llvm.lifetime.start.p0i8(i64 8, i8* nonnull %47) #13
  %48 = getelementptr inbounds %"class.base::OnceCallback.202", %"class.base::OnceCallback.202"* %7, i64 0, i32 0, i32 0, i32 0
  store %"class.base::internal::BindStateBase"* null, %"class.base::internal::BindStateBase"** %48, align 8
  %49 = bitcast i8* %41 to i32 (...)***
  %50 = getelementptr inbounds i8, i8* %41, i64 8
  store i8 0, i8* %50, align 4
  %51 = getelementptr inbounds i8, i8* %41, i64 16
  %52 = bitcast i8* %51 to i64*
  store i64 %15, i64* %52, align 8
  %53 = getelementptr inbounds i8, i8* %41, i64 24
  store i8 %1, i8* %53, align 8
  %54 = getelementptr inbounds i8, i8* %41, i64 32
  %55 = getelementptr inbounds %"class.base::OnceCallback.202", %"class.base::OnceCallback.202"* %6, i64 0, i32 0, i32 0, i32 0
  %56 = bitcast i8* %54 to i64*
  store i64 %43, i64* %56, align 8
  store %"class.base::internal::BindStateBase"* null, %"class.base::internal::BindStateBase"** %55, align 8
  %57 = getelementptr inbounds %"class.base::OnceCallback.202", %"class.base::OnceCallback.202"* %6, i64 0, i32 0
  call void @_ZN4base8internal12CallbackBaseD2Ev(%"class.base::internal::CallbackBase"* nonnull %57) #13
  store i32 (...)** bitcast (i8** getelementptr inbounds ({ [6 x i8*] }, { [6 x i8*] }* @_ZTVN6device20Ctap2DeviceOperationINS_3pin19KeyAgreementRequestENS1_20KeyAgreementResponseEEE, i64 0, inrange i32 0, i64 2) to i32 (...)**), i32 (...)*** %49, align 8
  %58 = getelementptr inbounds i8, i8* %41, i64 40
  %59 = getelementptr inbounds %"class.base::OnceCallback.271", %"class.base::OnceCallback.271"* %8, i64 0, i32 0, i32 0, i32 0
  %60 = bitcast i8* %58 to i64*
  store i64 %46, i64* %60, align 8
  store %"class.base::internal::BindStateBase"* null, %"class.base::internal::BindStateBase"** %59, align 8
  %61 = getelementptr inbounds i8, i8* %41, i64 48
  %62 = bitcast i8* %61 to i64*
  store i64 %12, i64* %62, align 8
  %63 = getelementptr inbounds i8, i8* %41, i64 56
  %64 = bitcast i8* %63 to %"class.base::internal::WeakPtrFactoryBase"*
  %65 = ptrtoint i8* %41 to i64
  call void @_ZN4base8internal18WeakPtrFactoryBaseC2Em(%"class.base::internal::WeakPtrFactoryBase"* %64, i64 %65) #13
  call void @llvm.lifetime.end.p0i8(i64 8, i8* nonnull %47) #13
  %66 = getelementptr inbounds %"class.base::OnceCallback.271", %"class.base::OnceCallback.271"* %8, i64 0, i32 0
  call void @_ZN4base8internal12CallbackBaseD2Ev(%"class.base::internal::CallbackBase"* nonnull %66) #13
  %67 = getelementptr inbounds %"class.base::OnceCallback.202", %"class.base::OnceCallback.202"* %7, i64 0, i32 0
  call void @_ZN4base8internal12CallbackBaseD2Ev(%"class.base::internal::CallbackBase"* nonnull %67) #13
  call void @llvm.lifetime.end.p0i8(i64 8, i8* nonnull %39)
  call void @llvm.lifetime.end.p0i8(i64 8, i8* nonnull %40)
  %68 = getelementptr inbounds %"class.device::FidoDeviceAuthenticator", %"class.device::FidoDeviceAuthenticator"* %0, i64 0, i32 4, i32 0, i32 0, i32 0
  %69 = load %"class.device::GenericDeviceOperation"*, %"class.device::GenericDeviceOperation"** %68, align 8
  %70 = bitcast %"class.device::GenericDeviceOperation"** %68 to i8**
  store i8* %41, i8** %70, align 8
  %71 = icmp eq %"class.device::GenericDeviceOperation"* %69, null
  br i1 %71, label %77, label %72

72:                                               ; preds = %5
  %73 = bitcast %"class.device::GenericDeviceOperation"* %69 to void (%"class.device::GenericDeviceOperation"*)***
  %74 = load void (%"class.device::GenericDeviceOperation"*)**, void (%"class.device::GenericDeviceOperation"*)*** %73, align 8
  %75 = getelementptr inbounds void (%"class.device::GenericDeviceOperation"*)*, void (%"class.device::GenericDeviceOperation"*)** %74, i64 1
  %76 = load void (%"class.device::GenericDeviceOperation"*)*, void (%"class.device::GenericDeviceOperation"*)** %75, align 8
  call void %76(%"class.device::GenericDeviceOperation"* nonnull %69) #13
  br label %77

77:                                               ; preds = %72, %5
  %78 = getelementptr inbounds %"class.base::OnceCallback.202", %"class.base::OnceCallback.202"* %10, i64 0, i32 0
  call void @_ZN4base8internal12CallbackBaseD2Ev(%"class.base::internal::CallbackBase"* nonnull %78) #13
  call void @_ZN4base8internal11WeakPtrBaseD2Ev(%"class.base::internal::WeakPtrBase"* nonnull %22) #13
  call void @llvm.lifetime.end.p0i8(i64 16, i8* nonnull %17) #13
  call void @llvm.lifetime.end.p0i8(i64 8, i8* nonnull %16) #13
  %79 = load %"class.device::GenericDeviceOperation"*, %"class.device::GenericDeviceOperation"** %68, align 8
  %80 = bitcast %"class.device::GenericDeviceOperation"* %79 to void (%"class.device::GenericDeviceOperation"*)***
  %81 = load void (%"class.device::GenericDeviceOperation"*)**, void (%"class.device::GenericDeviceOperation"*)*** %80, align 8
  %82 = getelementptr inbounds void (%"class.device::GenericDeviceOperation"*)*, void (%"class.device::GenericDeviceOperation"*)** %81, i64 2
  %83 = load void (%"class.device::GenericDeviceOperation"*)*, void (%"class.device::GenericDeviceOperation"*)** %82, align 8
  call void %83(%"class.device::GenericDeviceOperation"* %79) #13
  ret void
}

declare void @_ZN6device3pin20KeyAgreementResponse5ParseERKN4absl8optionalIN4cbor5ValueEEE(%"class.absl::optional.189"* sret, %"class.absl::optional.221"* dereferenceable(40)) #2

; Function Attrs: nounwind ssp uwtable
define hidden void @_ZN6device23FidoDeviceAuthenticator11GetPINTokenENSt3__112basic_stringIcNS1_11char_traitsIcEENS1_9allocatorIcEEEENS1_6vectorINS_3pin11PermissionsENS5_ISA_EEEEN4absl8optionalIS7_EEN4base12OnceCallbackIFvNS_22CtapDeviceResponseCodeENSE_INS9_13TokenResponseEEEEEE(%"class.device::FidoDeviceAuthenticator"*, %"class.std::__1::basic_string"* nocapture, %"class.std::__1::vector.272"* nocapture, %"class.absl::optional.100"* nocapture, %"class.base::OnceCallback.279"* nocapture) unnamed_addr #0 align 2 {
  %6 = alloca %"class.base::OnceCallback.202", align 8
  %7 = alloca %"class.base::OnceCallback.271", align 8
  %8 = alloca %"class.base::internal::WeakReference", align 8
  %9 = alloca %"class.base::OnceCallback.202", align 8
  %10 = alloca %"class.base::WeakPtr.98", align 8
  %11 = bitcast %"class.base::WeakPtr.98"* %10 to i8*
  call void @llvm.lifetime.start.p0i8(i64 16, i8* nonnull %11) #13
  %12 = bitcast %"class.base::internal::WeakReference"* %8 to i8*
  call void @llvm.lifetime.start.p0i8(i64 8, i8* nonnull %12) #13, !noalias !108
  %13 = getelementptr inbounds %"class.device::FidoDeviceAuthenticator", %"class.device::FidoDeviceAuthenticator"* %0, i64 0, i32 6, i32 0, i32 0
  call void @_ZNK4base8internal18WeakReferenceOwner6GetRefEv(%"class.base::internal::WeakReference"* nonnull sret %8, %"class.base::internal::WeakReferenceOwner"* %13) #13, !noalias !108
  %14 = getelementptr inbounds %"class.device::FidoDeviceAuthenticator", %"class.device::FidoDeviceAuthenticator"* %0, i64 0, i32 6, i32 0, i32 1
  %15 = load i64, i64* %14, align 8, !noalias !108
  %16 = getelementptr inbounds %"class.base::WeakPtr.98", %"class.base::WeakPtr.98"* %10, i64 0, i32 0
  call void @_ZN4base8internal11WeakPtrBaseC2ERKNS0_13WeakReferenceEm(%"class.base::internal::WeakPtrBase"* nonnull %16, %"class.base::internal::WeakReference"* nonnull dereferenceable(8) %8, i64 %15) #13
  call void @_ZN4base8internal13WeakReferenceD1Ev(%"class.base::internal::WeakReference"* nonnull %8) #13
  call void @llvm.lifetime.end.p0i8(i64 8, i8* nonnull %12) #13, !noalias !108
  %17 = call i8* @_Znwm(i64 152) #14, !noalias !111
  %18 = bitcast i8* %17 to %"class.base::internal::BindStateBase"*
  call void @_ZN4base8internal13BindStateBaseC2EPFvvEPFvPKS1_EPFbS5_NS1_21CancellationQueryModeEE(%"class.base::internal::BindStateBase"* nonnull %18, void ()* bitcast (void (%"class.base::internal::BindStateBase"*, i8, %"class.absl::optional.189"*)* @_ZN4base8internal7InvokerINS0_9BindStateIMN6device23FidoDeviceAuthenticatorEFvNSt3__112basic_stringIcNS5_11char_traitsIcEENS5_9allocatorIcEEEENS5_6vectorINS3_3pin11PermissionsENS9_ISE_EEEEN4absl8optionalISB_EENS_12OnceCallbackIFvNS3_22CtapDeviceResponseCodeENSI_INSD_13TokenResponseEEEEEESL_NSI_INSD_20KeyAgreementResponseEEEEJNS_7WeakPtrIS4_EESB_SG_SJ_SP_EEEFvSL_SR_EE7RunOnceEPNS0_13BindStateBaseESL_OSR_ to void ()*), void (%"class.base::internal::BindStateBase"*)* nonnull @_ZN4base8internal9BindStateIMN6device23FidoDeviceAuthenticatorEFvNSt3__112basic_stringIcNS4_11char_traitsIcEENS4_9allocatorIcEEEENS4_6vectorINS2_3pin11PermissionsENS8_ISD_EEEEN4absl8optionalISA_EENS_12OnceCallbackIFvNS2_22CtapDeviceResponseCodeENSH_INSC_13TokenResponseEEEEEESK_NSH_INSC_20KeyAgreementResponseEEEEJNS_7WeakPtrIS3_EESA_SF_SI_SO_EE7DestroyEPKNS0_13BindStateBaseE, i1 (%"class.base::internal::BindStateBase"*, i32)* nonnull @_ZN4base8internal23QueryCancellationTraitsINS0_9BindStateIMN6device23FidoDeviceAuthenticatorEFvNSt3__112basic_stringIcNS5_11char_traitsIcEENS5_9allocatorIcEEEENS5_6vectorINS3_3pin11PermissionsENS9_ISE_EEEEN4absl8optionalISB_EENS_12OnceCallbackIFvNS3_22CtapDeviceResponseCodeENSI_INSD_13TokenResponseEEEEEESL_NSI_INSD_20KeyAgreementResponseEEEEJNS_7WeakPtrIS4_EESB_SG_SJ_SP_EEEEEbPKNS0_13BindStateBaseENSX_21CancellationQueryModeE) #13, !noalias !111
  %19 = getelementptr inbounds i8, i8* %17, i64 32
  %20 = bitcast i8* %19 to <2 x i64>*
  store <2 x i64> <i64 ptrtoint (void (%"class.device::FidoDeviceAuthenticator"*, %"class.std::__1::basic_string"*, %"class.std::__1::vector.272"*, %"class.absl::optional.100"*, %"class.base::OnceCallback.279"*, i8, %"class.absl::optional.189"*)* @_ZN6device23FidoDeviceAuthenticator32OnHaveEphemeralKeyForGetPINTokenENSt3__112basic_stringIcNS1_11char_traitsIcEENS1_9allocatorIcEEEENS1_6vectorINS_3pin11PermissionsENS5_ISA_EEEEN4absl8optionalIS7_EEN4base12OnceCallbackIFvNS_22CtapDeviceResponseCodeENSE_INS9_13TokenResponseEEEEEESI_NSE_INS9_20KeyAgreementResponseEEE to i64), i64 0>, <2 x i64>* %20, align 8, !noalias !111
  %21 = getelementptr inbounds i8, i8* %17, i64 48
  %22 = bitcast i8* %21 to %"class.base::internal::WeakReference"*
  %23 = getelementptr inbounds %"class.base::WeakPtr.98", %"class.base::WeakPtr.98"* %10, i64 0, i32 0, i32 0
  call void @_ZN4base8internal13WeakReferenceC1EOS1_(%"class.base::internal::WeakReference"* %22, %"class.base::internal::WeakReference"* nonnull dereferenceable(8) %23) #13, !noalias !111
  %24 = getelementptr inbounds i8, i8* %17, i64 56
  %25 = bitcast i8* %24 to i64*
  %26 = getelementptr inbounds %"class.base::WeakPtr.98", %"class.base::WeakPtr.98"* %10, i64 0, i32 0, i32 1
  %27 = load i64, i64* %26, align 8, !noalias !111
  store i64 %27, i64* %25, align 8, !noalias !111
  %28 = getelementptr inbounds i8, i8* %17, i64 64
  %29 = bitcast %"class.std::__1::basic_string"* %1 to i8*
  call void @llvm.memcpy.p0i8.p0i8.i64(i8* align 8 %28, i8* align 8 %29, i64 24, i1 false) #13, !noalias !111
  call void @llvm.memset.p0i8.i64(i8* align 8 %29, i8 0, i64 24, i1 false) #13, !noalias !111
  %30 = getelementptr inbounds i8, i8* %17, i64 88
  %31 = bitcast %"class.std::__1::vector.272"* %2 to <2 x i64>*
  %32 = load <2 x i64>, <2 x i64>* %31, align 8, !noalias !111
  %33 = bitcast i8* %30 to <2 x i64>*
  store <2 x i64> %32, <2 x i64>* %33, align 8, !noalias !111
  %34 = getelementptr inbounds %"class.std::__1::vector.272", %"class.std::__1::vector.272"* %2, i64 0, i32 0, i32 2, i32 0, i32 0
  %35 = bitcast i8** %34 to i64*
  %36 = load i64, i64* %35, align 8, !noalias !111
  %37 = getelementptr inbounds i8, i8* %17, i64 104
  %38 = bitcast i8* %37 to i64*
  store i64 %36, i64* %38, align 8, !noalias !111
  %39 = bitcast %"class.std::__1::vector.272"* %2 to i8*
  call void @llvm.memset.p0i8.i64(i8* align 8 %39, i8 0, i64 24, i1 false) #13, !noalias !111
  %40 = getelementptr inbounds i8, i8* %17, i64 112
  %41 = getelementptr inbounds %"class.absl::optional.100", %"class.absl::optional.100"* %3, i64 0, i32 0, i32 0, i32 0, i32 0
  call void @llvm.memset.p0i8.i64(i8* align 8 %40, i8 0, i64 32, i1 false) #13, !noalias !111
  %42 = load i8, i8* %41, align 8, !range !2, !noalias !111
  %43 = icmp eq i8 %42, 0
  br i1 %43, label %48, label %44

44:                                               ; preds = %5
  %45 = getelementptr inbounds %"class.absl::optional.100", %"class.absl::optional.100"* %3, i64 0, i32 0, i32 0, i32 0, i32 1, i32 0
  %46 = getelementptr inbounds i8, i8* %17, i64 120
  %47 = bitcast %"class.std::__1::basic_string"* %45 to i8*
  call void @llvm.memcpy.p0i8.p0i8.i64(i8* align 8 %46, i8* align 8 %47, i64 24, i1 false) #13, !noalias !111
  call void @llvm.memset.p0i8.i64(i8* align 8 %47, i8 0, i64 24, i1 false) #13, !noalias !111
  store i8 1, i8* %40, align 8, !noalias !111
  br label %48

48:                                               ; preds = %5, %44
  %49 = getelementptr inbounds i8, i8* %17, i64 144
  %50 = getelementptr inbounds %"class.base::OnceCallback.279", %"class.base::OnceCallback.279"* %4, i64 0, i32 0, i32 0, i32 0
  %51 = bitcast %"class.base::OnceCallback.279"* %4 to i64*
  %52 = load i64, i64* %51, align 8, !noalias !111
  %53 = bitcast i8* %49 to i64*
  store i64 %52, i64* %53, align 8, !noalias !111
  store %"class.base::internal::BindStateBase"* null, %"class.base::internal::BindStateBase"** %50, align 8, !noalias !111
  %54 = bitcast %"class.base::OnceCallback.202"* %9 to i8**
  store i8* %17, i8** %54, align 8, !alias.scope !111
  %55 = bitcast %"class.base::OnceCallback.202"* %6 to i8*
  call void @llvm.lifetime.start.p0i8(i64 8, i8* nonnull %55)
  %56 = bitcast %"class.base::OnceCallback.271"* %7 to i8*
  call void @llvm.lifetime.start.p0i8(i64 8, i8* nonnull %56)
  %57 = getelementptr inbounds %"class.device::FidoDeviceAuthenticator", %"class.device::FidoDeviceAuthenticator"* %0, i64 0, i32 5, i32 0, i32 0, i32 0, i32 0
  %58 = load i8, i8* %57, align 1, !range !2
  %59 = icmp eq i8 %58, 0
  br i1 %59, label %60, label %61, !prof !16

60:                                               ; preds = %48
  call void @llvm.trap() #13
  unreachable

61:                                               ; preds = %48
  %62 = ptrtoint i8* %17 to i64
  %63 = getelementptr inbounds %"class.device::FidoDeviceAuthenticator", %"class.device::FidoDeviceAuthenticator"* %0, i64 0, i32 5, i32 0, i32 0, i32 0, i32 1, i32 0
  %64 = load i8, i8* %63, align 1
  %65 = getelementptr inbounds %"class.base::OnceCallback.202", %"class.base::OnceCallback.202"* %9, i64 0, i32 0, i32 0, i32 0
  %66 = bitcast %"class.base::OnceCallback.202"* %6 to i64*
  store i64 %62, i64* %66, align 8
  store %"class.base::internal::BindStateBase"* null, %"class.base::internal::BindStateBase"** %65, align 8
  %67 = call i8* @_Znwm(i64 48) #14, !noalias !116
  %68 = bitcast i8* %67 to %"class.base::internal::BindStateBase"*
  call void @_ZN4base8internal13BindStateBaseC2EPFvvEPFvPKS1_E(%"class.base::internal::BindStateBase"* nonnull %68, void ()* bitcast (void (%"class.absl::optional.189"*, %"class.base::internal::BindStateBase"*, %"class.absl::optional.221"*)* @_ZN4base8internal7InvokerINS0_9BindStateIPFN4absl8optionalIN6device3pin20KeyAgreementResponseEEERKNS4_IN4cbor5ValueEEEEJEEESE_E7RunOnceEPNS0_13BindStateBaseESD_ to void ()*), void (%"class.base::internal::BindStateBase"*)* nonnull @_ZN4base8internal9BindStateIPFN4absl8optionalIN6device3pin20KeyAgreementResponseEEERKNS3_IN4cbor5ValueEEEEJEE7DestroyEPKNS0_13BindStateBaseE) #13, !noalias !116
  %69 = getelementptr inbounds i8, i8* %67, i64 32
  %70 = bitcast i8* %69 to i64*
  store i64 ptrtoint (void (%"class.absl::optional.189"*, %"class.absl::optional.221"*)* @_ZN6device3pin20KeyAgreementResponse5ParseERKN4absl8optionalIN4cbor5ValueEEE to i64), i64* %70, align 8, !noalias !116
  %71 = bitcast %"class.base::OnceCallback.271"* %7 to i8**
  store i8* %67, i8** %71, align 8, !alias.scope !116
  call void @_ZN6device23FidoDeviceAuthenticator12RunOperationINS_3pin19KeyAgreementRequestENS2_20KeyAgreementResponseEEEvT_N4base12OnceCallbackIFvNS_22CtapDeviceResponseCodeEN4absl8optionalIT0_EEEEENS7_IFSC_RKNSA_IN4cbor5ValueEEEEEEPFbRKNSt3__16vectorIPKSG_NSM_9allocatorISP_EEEEE(%"class.device::FidoDeviceAuthenticator"* %0, i8 %64, %"class.base::OnceCallback.202"* nonnull %6, %"class.base::OnceCallback.271"* nonnull %7, i1 (%"class.std::__1::vector.257"*)* null) #13
  %72 = getelementptr inbounds %"class.base::OnceCallback.271", %"class.base::OnceCallback.271"* %7, i64 0, i32 0
  call void @_ZN4base8internal12CallbackBaseD2Ev(%"class.base::internal::CallbackBase"* nonnull %72) #13
  %73 = getelementptr inbounds %"class.base::OnceCallback.202", %"class.base::OnceCallback.202"* %6, i64 0, i32 0
  call void @_ZN4base8internal12CallbackBaseD2Ev(%"class.base::internal::CallbackBase"* nonnull %73) #13
  call void @llvm.lifetime.end.p0i8(i64 8, i8* nonnull %55)
  call void @llvm.lifetime.end.p0i8(i64 8, i8* nonnull %56)
  %74 = getelementptr inbounds %"class.base::OnceCallback.202", %"class.base::OnceCallback.202"* %9, i64 0, i32 0
  call void @_ZN4base8internal12CallbackBaseD2Ev(%"class.base::internal::CallbackBase"* nonnull %74) #13
  call void @_ZN4base8internal11WeakPtrBaseD2Ev(%"class.base::internal::WeakPtrBase"* nonnull %16) #13
  call void @llvm.lifetime.end.p0i8(i64 16, i8* nonnull %11) #13
  ret void
}

; Function Attrs: nounwind ssp uwtable
define hidden void @_ZN6device23FidoDeviceAuthenticator32OnHaveEphemeralKeyForGetPINTokenENSt3__112basic_stringIcNS1_11char_traitsIcEENS1_9allocatorIcEEEENS1_6vectorINS_3pin11PermissionsENS5_ISA_EEEEN4absl8optionalIS7_EEN4base12OnceCallbackIFvNS_22CtapDeviceResponseCodeENSE_INS9_13TokenResponseEEEEEESI_NSE_INS9_20KeyAgreementResponseEEE(%"class.device::FidoDeviceAuthenticator"*, %"class.std::__1::basic_string"*, %"class.std::__1::vector.272"* nocapture readonly, %"class.absl::optional.100"* nocapture readonly, %"class.base::OnceCallback.279"* nocapture, i8 zeroext, %"class.absl::optional.189"* byval(%"class.absl::optional.189") align 8) #0 align 2 {
  %8 = alloca %"class.base::OnceCallback.279", align 8
  %9 = alloca %"class.absl::optional.150", align 8
  %10 = alloca %"class.device::pin::PinTokenWithPermissionsRequest", align 8
  %11 = alloca %"class.absl::optional.100", align 8
  %12 = alloca %"class.std::__1::vector.116", align 16
  %13 = alloca %"class.device::pin::PinTokenWithPermissionsRequest", align 8
  %14 = alloca %"class.base::OnceCallback.279", align 8
  %15 = alloca %"class.base::OnceCallback.280", align 8
  %16 = alloca %"class.device::pin::PinTokenRequest", align 8
  %17 = alloca %"class.std::__1::vector.116", align 16
  %18 = alloca %"class.device::pin::PinTokenRequest", align 8
  %19 = alloca %"class.base::OnceCallback.279", align 8
  %20 = alloca %"class.base::OnceCallback.280", align 8
  %21 = icmp eq i8 %5, 0
  br i1 %21, label %39, label %22

22:                                               ; preds = %7
  %23 = getelementptr inbounds %"class.absl::optional.150", %"class.absl::optional.150"* %9, i64 0, i32 0, i32 0, i32 0, i32 0
  store i8 0, i8* %23, align 8
  %24 = getelementptr inbounds %"class.absl::optional.150", %"class.absl::optional.150"* %9, i64 0, i32 0, i32 0, i32 0, i32 1, i32 0, i32 0
  call void @llvm.memset.p0i8.i64(i8* align 8 %24, i8 0, i64 32, i1 false) #13
  %25 = bitcast %"class.base::OnceCallback.279"* %8 to i8*
  call void @llvm.lifetime.start.p0i8(i64 8, i8* nonnull %25) #13
  %26 = getelementptr inbounds %"class.base::OnceCallback.279", %"class.base::OnceCallback.279"* %4, i64 0, i32 0, i32 0, i32 0
  %27 = bitcast %"class.base::OnceCallback.279"* %4 to i64*
  %28 = load i64, i64* %27, align 8
  %29 = bitcast %"class.base::OnceCallback.279"* %8 to i64*
  store i64 %28, i64* %29, align 8
  store %"class.base::internal::BindStateBase"* null, %"class.base::internal::BindStateBase"** %26, align 8
  %30 = getelementptr inbounds %"class.base::OnceCallback.279", %"class.base::OnceCallback.279"* %8, i64 0, i32 0
  %31 = inttoptr i64 %28 to %"class.base::internal::BindStateBase"*
  %32 = getelementptr inbounds %"class.base::internal::BindStateBase", %"class.base::internal::BindStateBase"* %31, i64 0, i32 1
  %33 = bitcast void ()** %32 to void (%"class.base::internal::BindStateBase"*, i8, %"class.absl::optional.150"*)**
  %34 = load void (%"class.base::internal::BindStateBase"*, i8, %"class.absl::optional.150"*)*, void (%"class.base::internal::BindStateBase"*, i8, %"class.absl::optional.150"*)** %33, align 8
  call void %34(%"class.base::internal::BindStateBase"* %31, i8 zeroext %5, %"class.absl::optional.150"* nonnull dereferenceable(40) %9) #13
  call void @_ZN4base8internal12CallbackBaseD2Ev(%"class.base::internal::CallbackBase"* nonnull %30) #13
  call void @llvm.lifetime.end.p0i8(i64 8, i8* nonnull %25) #13
  %35 = load i8, i8* %23, align 8, !range !2
  %36 = icmp eq i8 %35, 0
  br i1 %36, label %256, label %37

37:                                               ; preds = %22
  %38 = getelementptr inbounds %"class.absl::optional.150", %"class.absl::optional.150"* %9, i64 0, i32 0, i32 0, i32 0, i32 1, i32 0
  call void @_ZN6device3pin13TokenResponseD1Ev(%"class.device::pin::TokenResponse"* %38) #13
  store i8 0, i8* %23, align 8
  br label %256

39:                                               ; preds = %7
  %40 = bitcast %"class.device::FidoDeviceAuthenticator"* %0 to %"class.absl::optional.64"* (%"class.device::FidoDeviceAuthenticator"*)***
  %41 = load %"class.absl::optional.64"* (%"class.device::FidoDeviceAuthenticator"*)**, %"class.absl::optional.64"* (%"class.device::FidoDeviceAuthenticator"*)*** %40, align 8
  %42 = getelementptr inbounds %"class.absl::optional.64"* (%"class.device::FidoDeviceAuthenticator"*)*, %"class.absl::optional.64"* (%"class.device::FidoDeviceAuthenticator"*)** %41, i64 42
  %43 = load %"class.absl::optional.64"* (%"class.device::FidoDeviceAuthenticator"*)*, %"class.absl::optional.64"* (%"class.device::FidoDeviceAuthenticator"*)** %42, align 8
  %44 = tail call dereferenceable(40) %"class.absl::optional.64"* %43(%"class.device::FidoDeviceAuthenticator"* %0) #13
  %45 = getelementptr inbounds %"class.absl::optional.64", %"class.absl::optional.64"* %44, i64 0, i32 0, i32 0, i32 0, i32 0
  %46 = load i8, i8* %45, align 4, !range !2
  %47 = icmp eq i8 %46, 0
  br i1 %47, label %48, label %49, !prof !16

48:                                               ; preds = %39
  tail call void @llvm.trap() #13
  unreachable

49:                                               ; preds = %39
  %50 = getelementptr inbounds %"class.absl::optional.64", %"class.absl::optional.64"* %44, i64 0, i32 0, i32 0, i32 0, i32 2, i32 0, i32 14
  %51 = load i8, i8* %50, align 4, !range !2
  %52 = icmp eq i8 %51, 0
  br i1 %52, label %175, label %53

53:                                               ; preds = %49
  %54 = bitcast %"class.device::pin::PinTokenWithPermissionsRequest"* %10 to i8*
  call void @llvm.lifetime.start.p0i8(i64 160, i8* nonnull %54) #13
  call void @llvm.memset.p0i8.i64(i8* nonnull align 8 %54, i8 -86, i64 160, i1 false)
  %55 = getelementptr inbounds %"class.device::FidoDeviceAuthenticator", %"class.device::FidoDeviceAuthenticator"* %0, i64 0, i32 5, i32 0, i32 0, i32 0, i32 0
  %56 = load i8, i8* %55, align 1, !range !2
  %57 = icmp eq i8 %56, 0
  br i1 %57, label %58, label %59, !prof !16

58:                                               ; preds = %53
  tail call void @llvm.trap() #13
  unreachable

59:                                               ; preds = %53
  %60 = getelementptr inbounds %"class.device::FidoDeviceAuthenticator", %"class.device::FidoDeviceAuthenticator"* %0, i64 0, i32 5, i32 0, i32 0, i32 0, i32 1, i32 0
  %61 = load i8, i8* %60, align 1
  %62 = getelementptr inbounds %"class.absl::optional.189", %"class.absl::optional.189"* %6, i64 0, i32 0, i32 0, i32 0, i32 0
  %63 = load i8, i8* %62, align 8, !range !2
  %64 = icmp eq i8 %63, 0
  br i1 %64, label %65, label %66, !prof !16

65:                                               ; preds = %59
  tail call void @llvm.trap() #13
  unreachable

66:                                               ; preds = %59
  %67 = getelementptr inbounds %"class.absl::optional.189", %"class.absl::optional.189"* %6, i64 0, i32 0, i32 0, i32 0, i32 1, i32 0
  %68 = bitcast %"class.std::__1::vector.272"* %2 to i64*
  %69 = load i64, i64* %68, align 8
  %70 = getelementptr inbounds %"class.std::__1::vector.272", %"class.std::__1::vector.272"* %2, i64 0, i32 0, i32 1
  %71 = bitcast i8** %70 to i64*
  %72 = load i64, i64* %71, align 8
  %73 = sub i64 %72, %69
  %74 = getelementptr inbounds %"class.absl::optional.100", %"class.absl::optional.100"* %11, i64 0, i32 0, i32 0, i32 0, i32 0
  %75 = getelementptr inbounds %"class.absl::optional.100", %"class.absl::optional.100"* %3, i64 0, i32 0, i32 0, i32 0, i32 0
  call void @llvm.memset.p0i8.i64(i8* nonnull align 8 %74, i8 0, i64 32, i1 false) #13
  %76 = load i8, i8* %75, align 8, !range !2
  %77 = icmp eq i8 %76, 0
  br i1 %77, label %94, label %78

78:                                               ; preds = %66
  %79 = getelementptr inbounds %"class.absl::optional.100", %"class.absl::optional.100"* %3, i64 0, i32 0, i32 0, i32 0, i32 1, i32 0
  %80 = getelementptr inbounds %"class.absl::optional.100", %"class.absl::optional.100"* %11, i64 0, i32 0, i32 0, i32 0, i32 1, i32 0
  %81 = bitcast %"class.std::__1::basic_string"* %79 to %"struct.std::__1::basic_string<char, std::__1::char_traits<char>, std::__1::allocator<char> >::__short"*
  %82 = getelementptr inbounds %"struct.std::__1::basic_string<char, std::__1::char_traits<char>, std::__1::allocator<char> >::__short", %"struct.std::__1::basic_string<char, std::__1::char_traits<char>, std::__1::allocator<char> >::__short"* %81, i64 0, i32 1, i32 0
  %83 = load i8, i8* %82, align 1
  %84 = icmp slt i8 %83, 0
  br i1 %84, label %88, label %85

85:                                               ; preds = %78
  %86 = bitcast %"class.std::__1::basic_string"* %80 to i8*
  %87 = bitcast %"class.std::__1::basic_string"* %79 to i8*
  call void @llvm.memcpy.p0i8.p0i8.i64(i8* align 8 %86, i8* align 8 %87, i64 24, i1 false) #13
  br label %93

88:                                               ; preds = %78
  %89 = getelementptr inbounds %"class.std::__1::basic_string", %"class.std::__1::basic_string"* %79, i64 0, i32 0, i32 0, i32 0, i32 0, i32 0, i32 0
  %90 = load i8*, i8** %89, align 8
  %91 = getelementptr inbounds %"class.absl::optional.100", %"class.absl::optional.100"* %3, i64 0, i32 0, i32 0, i32 0, i32 1, i32 0, i32 0, i32 0, i32 0, i32 0, i32 0, i32 1
  %92 = load i64, i64* %91, align 8
  call void @_ZNSt3__112basic_stringIcNS_11char_traitsIcEENS_9allocatorIcEEE25__init_copy_ctor_externalEPKcm(%"class.std::__1::basic_string"* %80, i8* %90, i64 %92) #13
  br label %93

93:                                               ; preds = %88, %85
  store i8 1, i8* %74, align 8
  br label %94

94:                                               ; preds = %66, %93
  %95 = inttoptr i64 %69 to i8*
  call void @_ZN6device3pin30PinTokenWithPermissionsRequestC1ENS_17PINUVAuthProtocolERKNSt3__112basic_stringIcNS3_11char_traitsIcEENS3_9allocatorIcEEEERKNS0_20KeyAgreementResponseEN4base4spanIKNS0_11PermissionsELm18446744073709551615EEEN4absl8optionalIS9_EE(%"class.device::pin::PinTokenWithPermissionsRequest"* nonnull %10, i8 zeroext %61, %"class.std::__1::basic_string"* dereferenceable(24) %1, %"struct.device::pin::KeyAgreementResponse"* dereferenceable(64) %67, i64 %73, i8* %95, %"class.absl::optional.100"* nonnull %11) #13
  %96 = load i8, i8* %74, align 8, !range !2
  %97 = icmp eq i8 %96, 0
  br i1 %97, label %108, label %98

98:                                               ; preds = %94
  %99 = getelementptr inbounds %"class.absl::optional.100", %"class.absl::optional.100"* %11, i64 0, i32 0, i32 0, i32 0, i32 1, i32 0
  %100 = bitcast %"class.std::__1::basic_string"* %99 to %"struct.std::__1::basic_string<char, std::__1::char_traits<char>, std::__1::allocator<char> >::__short"*
  %101 = getelementptr inbounds %"struct.std::__1::basic_string<char, std::__1::char_traits<char>, std::__1::allocator<char> >::__short", %"struct.std::__1::basic_string<char, std::__1::char_traits<char>, std::__1::allocator<char> >::__short"* %100, i64 0, i32 1, i32 0
  %102 = load i8, i8* %101, align 1
  %103 = icmp slt i8 %102, 0
  br i1 %103, label %104, label %107

104:                                              ; preds = %98
  %105 = getelementptr inbounds %"class.std::__1::basic_string", %"class.std::__1::basic_string"* %99, i64 0, i32 0, i32 0, i32 0, i32 0, i32 0, i32 0
  %106 = load i8*, i8** %105, align 8
  call void @_ZdlPv(i8* %106) #14
  br label %107

107:                                              ; preds = %104, %98
  store i8 0, i8* %74, align 8
  br label %108

108:                                              ; preds = %94, %107
  %109 = bitcast %"class.std::__1::vector.116"* %12 to i8*
  call void @llvm.lifetime.start.p0i8(i64 24, i8* nonnull %109) #13
  %110 = getelementptr inbounds %"class.std::__1::vector.116", %"class.std::__1::vector.116"* %12, i64 0, i32 0, i32 0
  %111 = getelementptr inbounds %"class.std::__1::vector.116", %"class.std::__1::vector.116"* %12, i64 0, i32 0, i32 1
  %112 = getelementptr inbounds %"class.std::__1::vector.116", %"class.std::__1::vector.116"* %12, i64 0, i32 0, i32 2, i32 0, i32 0
  %113 = getelementptr inbounds %"class.device::pin::PinTokenWithPermissionsRequest", %"class.device::pin::PinTokenWithPermissionsRequest"* %10, i64 0, i32 0, i32 1, i32 0
  %114 = bitcast i8* %113 to %"class.device::pin::TokenRequest"*
  %115 = bitcast %"class.std::__1::vector.116"* %12 to i8*
  call void @llvm.memset.p0i8.i64(i8* nonnull align 16 %115, i8 -86, i64 24, i1 false)
  %116 = call dereferenceable(24) %"class.std::__1::vector.116"* @_ZNK6device3pin12TokenRequest10shared_keyEv(%"class.device::pin::TokenRequest"* %114) #13
  call void @llvm.memset.p0i8.i64(i8* nonnull align 16 %109, i8 0, i64 24, i1 false) #13
  %117 = getelementptr inbounds %"class.std::__1::vector.116", %"class.std::__1::vector.116"* %116, i64 0, i32 0, i32 1
  %118 = bitcast i8** %117 to i64*
  %119 = load i64, i64* %118, align 8
  %120 = bitcast %"class.std::__1::vector.116"* %116 to i64*
  %121 = load i64, i64* %120, align 8
  %122 = sub i64 %119, %121
  %123 = icmp eq i64 %122, 0
  br i1 %123, label %143, label %124

124:                                              ; preds = %108
  %125 = icmp slt i64 %122, 0
  br i1 %125, label %126, label %128

126:                                              ; preds = %124
  %127 = bitcast %"class.std::__1::vector.116"* %12 to %"class.std::__1::__vector_base_common"*
  call void @_ZNKSt3__120__vector_base_commonILb1EE20__throw_length_errorEv(%"class.std::__1::__vector_base_common"* nonnull %127) #15
  unreachable

128:                                              ; preds = %124
  %129 = call i8* @_Znwm(i64 %122) #14
  store i8* %129, i8** %111, align 8
  store i8* %129, i8** %110, align 16
  %130 = getelementptr inbounds i8, i8* %129, i64 %122
  store i8* %130, i8** %112, align 16
  %131 = getelementptr inbounds %"class.std::__1::vector.116", %"class.std::__1::vector.116"* %116, i64 0, i32 0, i32 0
  %132 = load i8*, i8** %131, align 8
  %133 = load i64, i64* %118, align 8
  %134 = bitcast i8** %111 to i64*
  %135 = ptrtoint i8* %132 to i64
  %136 = sub i64 %133, %135
  %137 = icmp sgt i64 %136, 0
  br i1 %137, label %138, label %140

138:                                              ; preds = %128
  call void @llvm.memcpy.p0i8.p0i8.i64(i8* nonnull align 1 %129, i8* align 1 %132, i64 %136, i1 false) #13
  %139 = getelementptr inbounds i8, i8* %129, i64 %136
  br label %140

140:                                              ; preds = %138, %128
  %141 = phi i8* [ %139, %138 ], [ %129, %128 ]
  %142 = ptrtoint i8* %141 to i64
  store i64 %142, i64* %134, align 8
  br label %143

143:                                              ; preds = %108, %140
  call void @_ZN6device3pin30PinTokenWithPermissionsRequestC1EOS1_(%"class.device::pin::PinTokenWithPermissionsRequest"* nonnull %13, %"class.device::pin::PinTokenWithPermissionsRequest"* nonnull dereferenceable(160) %10) #13
  %144 = getelementptr inbounds %"class.base::OnceCallback.279", %"class.base::OnceCallback.279"* %4, i64 0, i32 0, i32 0, i32 0
  %145 = bitcast %"class.base::OnceCallback.279"* %4 to i64*
  %146 = load i64, i64* %145, align 8
  %147 = bitcast %"class.base::OnceCallback.279"* %14 to i64*
  store i64 %146, i64* %147, align 8
  store %"class.base::internal::BindStateBase"* null, %"class.base::internal::BindStateBase"** %144, align 8
  %148 = load i8, i8* %55, align 1, !range !2
  %149 = icmp eq i8 %148, 0
  br i1 %149, label %150, label %151, !prof !16

150:                                              ; preds = %143
  call void @llvm.trap() #13
  unreachable

151:                                              ; preds = %143
  %152 = call i8* @_Znwm(i64 72) #14, !noalias !121
  %153 = bitcast i8* %152 to %"class.base::internal::BindStateBase"*
  call void @_ZN4base8internal13BindStateBaseC2EPFvvEPFvPKS1_E(%"class.base::internal::BindStateBase"* nonnull %153, void ()* bitcast (void (%"class.absl::optional.150"*, %"class.base::internal::BindStateBase"*, %"class.absl::optional.221"*)* @_ZN4base8internal7InvokerINS0_9BindStateIPFN4absl8optionalIN6device3pin13TokenResponseEEENS5_17PINUVAuthProtocolENS_4spanIKhLm18446744073709551615EEERKNS4_IN4cbor5ValueEEEEJS9_NSt3__16vectorIhNSK_9allocatorIhEEEEEEEFS8_SH_EE7RunOnceEPNS0_13BindStateBaseESH_ to void ()*), void (%"class.base::internal::BindStateBase"*)* nonnull @_ZN4base8internal9BindStateIPFN4absl8optionalIN6device3pin13TokenResponseEEENS4_17PINUVAuthProtocolENS_4spanIKhLm18446744073709551615EEERKNS3_IN4cbor5ValueEEEEJS8_NSt3__16vectorIhNSJ_9allocatorIhEEEEEE7DestroyEPKNS0_13BindStateBaseE) #13, !noalias !121
  %154 = getelementptr inbounds i8, i8* %152, i64 32
  %155 = bitcast i8* %154 to i64*
  store i64 ptrtoint (void (%"class.absl::optional.150"*, i8, i64, i8*, %"class.absl::optional.221"*)* @_ZN6device3pin13TokenResponse5ParseENS_17PINUVAuthProtocolEN4base4spanIKhLm18446744073709551615EEERKN4absl8optionalIN4cbor5ValueEEE to i64), i64* %155, align 8, !noalias !121
  %156 = getelementptr inbounds i8, i8* %152, i64 40
  %157 = load i8, i8* %60, align 1, !noalias !121
  store i8 %157, i8* %156, align 1, !noalias !121
  %158 = getelementptr inbounds i8, i8* %152, i64 48
  %159 = bitcast %"class.std::__1::vector.116"* %12 to <2 x i64>*
  %160 = load <2 x i64>, <2 x i64>* %159, align 16, !noalias !121
  %161 = bitcast i8* %158 to <2 x i64>*
  store <2 x i64> %160, <2 x i64>* %161, align 8, !noalias !121
  %162 = bitcast i8** %112 to i64*
  %163 = load i64, i64* %162, align 16, !noalias !121
  %164 = getelementptr inbounds i8, i8* %152, i64 64
  %165 = bitcast i8* %164 to i64*
  store i64 %163, i64* %165, align 8, !noalias !121
  call void @llvm.memset.p0i8.i64(i8* nonnull align 16 %109, i8 0, i64 24, i1 false) #13, !noalias !121
  %166 = bitcast %"class.base::OnceCallback.280"* %15 to i8**
  store i8* %152, i8** %166, align 8, !alias.scope !121
  call void @_ZN6device23FidoDeviceAuthenticator12RunOperationINS_3pin30PinTokenWithPermissionsRequestENS2_13TokenResponseEEEvT_N4base12OnceCallbackIFvNS_22CtapDeviceResponseCodeEN4absl8optionalIT0_EEEEENS7_IFSC_RKNSA_IN4cbor5ValueEEEEEEPFbRKNSt3__16vectorIPKSG_NSM_9allocatorISP_EEEEE(%"class.device::FidoDeviceAuthenticator"* %0, %"class.device::pin::PinTokenWithPermissionsRequest"* nonnull %13, %"class.base::OnceCallback.279"* nonnull %14, %"class.base::OnceCallback.280"* nonnull %15, i1 (%"class.std::__1::vector.257"*)* null)
  %167 = getelementptr inbounds %"class.base::OnceCallback.280", %"class.base::OnceCallback.280"* %15, i64 0, i32 0
  call void @_ZN4base8internal12CallbackBaseD2Ev(%"class.base::internal::CallbackBase"* nonnull %167) #13
  %168 = getelementptr inbounds %"class.base::OnceCallback.279", %"class.base::OnceCallback.279"* %14, i64 0, i32 0
  call void @_ZN4base8internal12CallbackBaseD2Ev(%"class.base::internal::CallbackBase"* nonnull %168) #13
  call void @_ZN6device3pin30PinTokenWithPermissionsRequestD1Ev(%"class.device::pin::PinTokenWithPermissionsRequest"* nonnull %13) #13
  %169 = load i8*, i8** %110, align 16
  %170 = icmp eq i8* %169, null
  br i1 %170, label %174, label %171

171:                                              ; preds = %151
  %172 = bitcast i8** %111 to i64*
  %173 = ptrtoint i8* %169 to i64
  store i64 %173, i64* %172, align 8
  call void @_ZdlPv(i8* nonnull %169) #14
  br label %174

174:                                              ; preds = %151, %171
  call void @llvm.lifetime.end.p0i8(i64 24, i8* nonnull %109) #13
  call void @_ZN6device3pin30PinTokenWithPermissionsRequestD1Ev(%"class.device::pin::PinTokenWithPermissionsRequest"* nonnull %10) #13
  call void @llvm.lifetime.end.p0i8(i64 160, i8* nonnull %54) #13
  br label %256

175:                                              ; preds = %49
  %176 = bitcast %"class.device::pin::PinTokenRequest"* %16 to i8*
  call void @llvm.lifetime.start.p0i8(i64 128, i8* nonnull %176) #13
  call void @llvm.memset.p0i8.i64(i8* nonnull align 8 %176, i8 -86, i64 128, i1 false)
  %177 = getelementptr inbounds %"class.device::FidoDeviceAuthenticator", %"class.device::FidoDeviceAuthenticator"* %0, i64 0, i32 5, i32 0, i32 0, i32 0, i32 0
  %178 = load i8, i8* %177, align 1, !range !2
  %179 = icmp eq i8 %178, 0
  br i1 %179, label %180, label %181, !prof !16

180:                                              ; preds = %175
  tail call void @llvm.trap() #13
  unreachable

181:                                              ; preds = %175
  %182 = getelementptr inbounds %"class.device::FidoDeviceAuthenticator", %"class.device::FidoDeviceAuthenticator"* %0, i64 0, i32 5, i32 0, i32 0, i32 0, i32 1, i32 0
  %183 = getelementptr inbounds %"class.absl::optional.189", %"class.absl::optional.189"* %6, i64 0, i32 0, i32 0, i32 0, i32 0
  %184 = load i8, i8* %183, align 8, !range !2
  %185 = icmp eq i8 %184, 0
  br i1 %185, label %186, label %187, !prof !16

186:                                              ; preds = %181
  tail call void @llvm.trap() #13
  unreachable

187:                                              ; preds = %181
  %188 = load i8, i8* %182, align 1
  %189 = getelementptr inbounds %"class.absl::optional.189", %"class.absl::optional.189"* %6, i64 0, i32 0, i32 0, i32 0, i32 1, i32 0
  call void @_ZN6device3pin15PinTokenRequestC1ENS_17PINUVAuthProtocolERKNSt3__112basic_stringIcNS3_11char_traitsIcEENS3_9allocatorIcEEEERKNS0_20KeyAgreementResponseE(%"class.device::pin::PinTokenRequest"* nonnull %16, i8 zeroext %188, %"class.std::__1::basic_string"* dereferenceable(24) %1, %"struct.device::pin::KeyAgreementResponse"* dereferenceable(64) %189) #13
  %190 = bitcast %"class.std::__1::vector.116"* %17 to i8*
  call void @llvm.lifetime.start.p0i8(i64 24, i8* nonnull %190) #13
  %191 = getelementptr inbounds %"class.std::__1::vector.116", %"class.std::__1::vector.116"* %17, i64 0, i32 0, i32 0
  %192 = getelementptr inbounds %"class.std::__1::vector.116", %"class.std::__1::vector.116"* %17, i64 0, i32 0, i32 1
  %193 = getelementptr inbounds %"class.std::__1::vector.116", %"class.std::__1::vector.116"* %17, i64 0, i32 0, i32 2, i32 0, i32 0
  %194 = getelementptr inbounds %"class.device::pin::PinTokenRequest", %"class.device::pin::PinTokenRequest"* %16, i64 0, i32 1, i32 0
  %195 = bitcast i8* %194 to %"class.device::pin::TokenRequest"*
  %196 = bitcast %"class.std::__1::vector.116"* %17 to i8*
  call void @llvm.memset.p0i8.i64(i8* nonnull align 16 %196, i8 -86, i64 24, i1 false)
  %197 = call dereferenceable(24) %"class.std::__1::vector.116"* @_ZNK6device3pin12TokenRequest10shared_keyEv(%"class.device::pin::TokenRequest"* %195) #13
  call void @llvm.memset.p0i8.i64(i8* nonnull align 16 %190, i8 0, i64 24, i1 false) #13
  %198 = getelementptr inbounds %"class.std::__1::vector.116", %"class.std::__1::vector.116"* %197, i64 0, i32 0, i32 1
  %199 = bitcast i8** %198 to i64*
  %200 = load i64, i64* %199, align 8
  %201 = bitcast %"class.std::__1::vector.116"* %197 to i64*
  %202 = load i64, i64* %201, align 8
  %203 = sub i64 %200, %202
  %204 = icmp eq i64 %203, 0
  br i1 %204, label %224, label %205

205:                                              ; preds = %187
  %206 = icmp slt i64 %203, 0
  br i1 %206, label %207, label %209

207:                                              ; preds = %205
  %208 = bitcast %"class.std::__1::vector.116"* %17 to %"class.std::__1::__vector_base_common"*
  call void @_ZNKSt3__120__vector_base_commonILb1EE20__throw_length_errorEv(%"class.std::__1::__vector_base_common"* nonnull %208) #15
  unreachable

209:                                              ; preds = %205
  %210 = call i8* @_Znwm(i64 %203) #14
  store i8* %210, i8** %192, align 8
  store i8* %210, i8** %191, align 16
  %211 = getelementptr inbounds i8, i8* %210, i64 %203
  store i8* %211, i8** %193, align 16
  %212 = getelementptr inbounds %"class.std::__1::vector.116", %"class.std::__1::vector.116"* %197, i64 0, i32 0, i32 0
  %213 = load i8*, i8** %212, align 8
  %214 = load i64, i64* %199, align 8
  %215 = bitcast i8** %192 to i64*
  %216 = ptrtoint i8* %213 to i64
  %217 = sub i64 %214, %216
  %218 = icmp sgt i64 %217, 0
  br i1 %218, label %219, label %221

219:                                              ; preds = %209
  call void @llvm.memcpy.p0i8.p0i8.i64(i8* nonnull align 1 %210, i8* align 1 %213, i64 %217, i1 false) #13
  %220 = getelementptr inbounds i8, i8* %210, i64 %217
  br label %221

221:                                              ; preds = %219, %209
  %222 = phi i8* [ %220, %219 ], [ %210, %209 ]
  %223 = ptrtoint i8* %222 to i64
  store i64 %223, i64* %215, align 8
  br label %224

224:                                              ; preds = %187, %221
  call void @_ZN6device3pin15PinTokenRequestC1EOS1_(%"class.device::pin::PinTokenRequest"* nonnull %18, %"class.device::pin::PinTokenRequest"* nonnull dereferenceable(128) %16) #13
  %225 = getelementptr inbounds %"class.base::OnceCallback.279", %"class.base::OnceCallback.279"* %4, i64 0, i32 0, i32 0, i32 0
  %226 = bitcast %"class.base::OnceCallback.279"* %4 to i64*
  %227 = load i64, i64* %226, align 8
  %228 = bitcast %"class.base::OnceCallback.279"* %19 to i64*
  store i64 %227, i64* %228, align 8
  store %"class.base::internal::BindStateBase"* null, %"class.base::internal::BindStateBase"** %225, align 8
  %229 = load i8, i8* %177, align 1, !range !2
  %230 = icmp eq i8 %229, 0
  br i1 %230, label %231, label %232, !prof !16

231:                                              ; preds = %224
  call void @llvm.trap() #13
  unreachable

232:                                              ; preds = %224
  %233 = call i8* @_Znwm(i64 72) #14, !noalias !126
  %234 = bitcast i8* %233 to %"class.base::internal::BindStateBase"*
  call void @_ZN4base8internal13BindStateBaseC2EPFvvEPFvPKS1_E(%"class.base::internal::BindStateBase"* nonnull %234, void ()* bitcast (void (%"class.absl::optional.150"*, %"class.base::internal::BindStateBase"*, %"class.absl::optional.221"*)* @_ZN4base8internal7InvokerINS0_9BindStateIPFN4absl8optionalIN6device3pin13TokenResponseEEENS5_17PINUVAuthProtocolENS_4spanIKhLm18446744073709551615EEERKNS4_IN4cbor5ValueEEEEJS9_NSt3__16vectorIhNSK_9allocatorIhEEEEEEEFS8_SH_EE7RunOnceEPNS0_13BindStateBaseESH_ to void ()*), void (%"class.base::internal::BindStateBase"*)* nonnull @_ZN4base8internal9BindStateIPFN4absl8optionalIN6device3pin13TokenResponseEEENS4_17PINUVAuthProtocolENS_4spanIKhLm18446744073709551615EEERKNS3_IN4cbor5ValueEEEEJS8_NSt3__16vectorIhNSJ_9allocatorIhEEEEEE7DestroyEPKNS0_13BindStateBaseE) #13, !noalias !126
  %235 = getelementptr inbounds i8, i8* %233, i64 32
  %236 = bitcast i8* %235 to i64*
  store i64 ptrtoint (void (%"class.absl::optional.150"*, i8, i64, i8*, %"class.absl::optional.221"*)* @_ZN6device3pin13TokenResponse5ParseENS_17PINUVAuthProtocolEN4base4spanIKhLm18446744073709551615EEERKN4absl8optionalIN4cbor5ValueEEE to i64), i64* %236, align 8, !noalias !126
  %237 = getelementptr inbounds i8, i8* %233, i64 40
  %238 = load i8, i8* %182, align 1, !noalias !126
  store i8 %238, i8* %237, align 1, !noalias !126
  %239 = getelementptr inbounds i8, i8* %233, i64 48
  %240 = bitcast %"class.std::__1::vector.116"* %17 to <2 x i64>*
  %241 = load <2 x i64>, <2 x i64>* %240, align 16, !noalias !126
  %242 = bitcast i8* %239 to <2 x i64>*
  store <2 x i64> %241, <2 x i64>* %242, align 8, !noalias !126
  %243 = bitcast i8** %193 to i64*
  %244 = load i64, i64* %243, align 16, !noalias !126
  %245 = getelementptr inbounds i8, i8* %233, i64 64
  %246 = bitcast i8* %245 to i64*
  store i64 %244, i64* %246, align 8, !noalias !126
  call void @llvm.memset.p0i8.i64(i8* nonnull align 16 %190, i8 0, i64 24, i1 false) #13, !noalias !126
  %247 = bitcast %"class.base::OnceCallback.280"* %20 to i8**
  store i8* %233, i8** %247, align 8, !alias.scope !126
  call void @_ZN6device23FidoDeviceAuthenticator12RunOperationINS_3pin15PinTokenRequestENS2_13TokenResponseEEEvT_N4base12OnceCallbackIFvNS_22CtapDeviceResponseCodeEN4absl8optionalIT0_EEEEENS7_IFSC_RKNSA_IN4cbor5ValueEEEEEEPFbRKNSt3__16vectorIPKSG_NSM_9allocatorISP_EEEEE(%"class.device::FidoDeviceAuthenticator"* %0, %"class.device::pin::PinTokenRequest"* nonnull %18, %"class.base::OnceCallback.279"* nonnull %19, %"class.base::OnceCallback.280"* nonnull %20, i1 (%"class.std::__1::vector.257"*)* null)
  %248 = getelementptr inbounds %"class.base::OnceCallback.280", %"class.base::OnceCallback.280"* %20, i64 0, i32 0
  call void @_ZN4base8internal12CallbackBaseD2Ev(%"class.base::internal::CallbackBase"* nonnull %248) #13
  %249 = getelementptr inbounds %"class.base::OnceCallback.279", %"class.base::OnceCallback.279"* %19, i64 0, i32 0
  call void @_ZN4base8internal12CallbackBaseD2Ev(%"class.base::internal::CallbackBase"* nonnull %249) #13
  call void @_ZN6device3pin15PinTokenRequestD1Ev(%"class.device::pin::PinTokenRequest"* nonnull %18) #13
  %250 = load i8*, i8** %191, align 16
  %251 = icmp eq i8* %250, null
  br i1 %251, label %255, label %252

252:                                              ; preds = %232
  %253 = bitcast i8** %192 to i64*
  %254 = ptrtoint i8* %250 to i64
  store i64 %254, i64* %253, align 8
  call void @_ZdlPv(i8* nonnull %250) #14
  br label %255

255:                                              ; preds = %232, %252
  call void @llvm.lifetime.end.p0i8(i64 24, i8* nonnull %190) #13
  call void @_ZN6device3pin15PinTokenRequestD1Ev(%"class.device::pin::PinTokenRequest"* nonnull %16) #13
  call void @llvm.lifetime.end.p0i8(i64 128, i8* nonnull %176) #13
  br label %256

256:                                              ; preds = %37, %22, %255, %174
  ret void
}

; Function Attrs: argmemonly nounwind
declare void @llvm.memset.p0i8.i64(i8* nocapture writeonly, i8, i64, i1 immarg) #3

declare void @_ZN6device3pin30PinTokenWithPermissionsRequestC1ENS_17PINUVAuthProtocolERKNSt3__112basic_stringIcNS3_11char_traitsIcEENS3_9allocatorIcEEEERKNS0_20KeyAgreementResponseEN4base4spanIKNS0_11PermissionsELm18446744073709551615EEEN4absl8optionalIS9_EE(%"class.device::pin::PinTokenWithPermissionsRequest"*, i8 zeroext, %"class.std::__1::basic_string"* dereferenceable(24), %"struct.device::pin::KeyAgreementResponse"* dereferenceable(64), i64, i8*, %"class.absl::optional.100"*) unnamed_addr #2

declare dereferenceable(24) %"class.std::__1::vector.116"* @_ZNK6device3pin12TokenRequest10shared_keyEv(%"class.device::pin::TokenRequest"*) local_unnamed_addr #2

; Function Attrs: nounwind ssp uwtable
define linkonce_odr hidden void @_ZN6device23FidoDeviceAuthenticator12RunOperationINS_3pin30PinTokenWithPermissionsRequestENS2_13TokenResponseEEEvT_N4base12OnceCallbackIFvNS_22CtapDeviceResponseCodeEN4absl8optionalIT0_EEEEENS7_IFSC_RKNSA_IN4cbor5ValueEEEEEEPFbRKNSt3__16vectorIPKSG_NSM_9allocatorISP_EEEEE(%"class.device::FidoDeviceAuthenticator"*, %"class.device::pin::PinTokenWithPermissionsRequest"*, %"class.base::OnceCallback.279"*, %"class.base::OnceCallback.280"*, i1 (%"class.std::__1::vector.257"*)*) local_unnamed_addr #0 comdat align 2 {
  %6 = alloca %"class.device::pin::PinTokenWithPermissionsRequest", align 8
  %7 = alloca %"class.base::OnceCallback.279", align 8
  %8 = alloca %"class.device::pin::PinTokenWithPermissionsRequest", align 8
  %9 = alloca %"class.base::OnceCallback.279", align 8
  %10 = alloca %"class.base::OnceCallback.280", align 8
  %11 = alloca %"class.base::internal::WeakReference", align 8
  %12 = alloca %"class.base::OnceCallback.279", align 8
  %13 = alloca %"class.base::WeakPtr.98", align 8
  %14 = ptrtoint i1 (%"class.std::__1::vector.257"*)* %4 to i64
  %15 = getelementptr inbounds %"class.device::FidoDeviceAuthenticator", %"class.device::FidoDeviceAuthenticator"* %0, i64 0, i32 1, i32 0, i32 0, i32 0
  %16 = bitcast %"class.device::FidoDevice"** %15 to i64*
  %17 = load i64, i64* %16, align 8
  %18 = bitcast %"class.base::OnceCallback.279"* %12 to i8*
  call void @llvm.lifetime.start.p0i8(i64 8, i8* nonnull %18) #13
  %19 = bitcast %"class.base::WeakPtr.98"* %13 to i8*
  call void @llvm.lifetime.start.p0i8(i64 16, i8* nonnull %19) #13
  %20 = bitcast %"class.base::internal::WeakReference"* %11 to i8*
  call void @llvm.lifetime.start.p0i8(i64 8, i8* nonnull %20) #13, !noalias !131
  %21 = getelementptr inbounds %"class.device::FidoDeviceAuthenticator", %"class.device::FidoDeviceAuthenticator"* %0, i64 0, i32 6, i32 0, i32 0
  call void @_ZNK4base8internal18WeakReferenceOwner6GetRefEv(%"class.base::internal::WeakReference"* nonnull sret %11, %"class.base::internal::WeakReferenceOwner"* %21) #13, !noalias !131
  %22 = getelementptr inbounds %"class.device::FidoDeviceAuthenticator", %"class.device::FidoDeviceAuthenticator"* %0, i64 0, i32 6, i32 0, i32 1
  %23 = load i64, i64* %22, align 8, !noalias !131
  %24 = getelementptr inbounds %"class.base::WeakPtr.98", %"class.base::WeakPtr.98"* %13, i64 0, i32 0
  call void @_ZN4base8internal11WeakPtrBaseC2ERKNS0_13WeakReferenceEm(%"class.base::internal::WeakPtrBase"* nonnull %24, %"class.base::internal::WeakReference"* nonnull dereferenceable(8) %11, i64 %23) #13
  call void @_ZN4base8internal13WeakReferenceD1Ev(%"class.base::internal::WeakReference"* nonnull %11) #13
  call void @llvm.lifetime.end.p0i8(i64 8, i8* nonnull %20) #13, !noalias !131
  %25 = call i8* @_Znwm(i64 72) #14, !noalias !134
  %26 = bitcast i8* %25 to %"class.base::internal::BindStateBase"*
  call void @_ZN4base8internal13BindStateBaseC2EPFvvEPFvPKS1_EPFbS5_NS1_21CancellationQueryModeEE(%"class.base::internal::BindStateBase"* nonnull %26, void ()* bitcast (void (%"class.base::internal::BindStateBase"*, i8, %"class.absl::optional.150"*)* @_ZN4base8internal7InvokerINS0_9BindStateIMN6device23FidoDeviceAuthenticatorEFvNS_12OnceCallbackIFvNS3_22CtapDeviceResponseCodeEN4absl8optionalINS3_3pin13TokenResponseEEEEEES6_SB_EJNS_7WeakPtrIS4_EESD_EEESC_E7RunOnceEPNS0_13BindStateBaseES6_OSB_ to void ()*), void (%"class.base::internal::BindStateBase"*)* nonnull @_ZN4base8internal9BindStateIMN6device23FidoDeviceAuthenticatorEFvNS_12OnceCallbackIFvNS2_22CtapDeviceResponseCodeEN4absl8optionalINS2_3pin13TokenResponseEEEEEES5_SA_EJNS_7WeakPtrIS3_EESC_EE7DestroyEPKNS0_13BindStateBaseE, i1 (%"class.base::internal::BindStateBase"*, i32)* nonnull @_ZN4base8internal23QueryCancellationTraitsINS0_9BindStateIMN6device23FidoDeviceAuthenticatorEFvNS_12OnceCallbackIFvNS3_22CtapDeviceResponseCodeEN4absl8optionalINS3_3pin13TokenResponseEEEEEES6_SB_EJNS_7WeakPtrIS4_EESD_EEEEEbPKNS0_13BindStateBaseENSJ_21CancellationQueryModeE) #13, !noalias !134
  %27 = getelementptr inbounds i8, i8* %25, i64 32
  %28 = bitcast i8* %27 to <2 x i64>*
  store <2 x i64> <i64 ptrtoint (void (%"class.device::FidoDeviceAuthenticator"*, %"class.base::OnceCallback.279"*, i8, %"class.absl::optional.150"*)* @_ZN6device23FidoDeviceAuthenticator19OperationClearProxyIJNS_22CtapDeviceResponseCodeEN4absl8optionalINS_3pin13TokenResponseEEEEEEvN4base12OnceCallbackIFvDpT_EEESB_ to i64), i64 0>, <2 x i64>* %28, align 8, !noalias !134
  %29 = getelementptr inbounds i8, i8* %25, i64 48
  %30 = bitcast i8* %29 to %"class.base::internal::WeakReference"*
  %31 = getelementptr inbounds %"class.base::WeakPtr.98", %"class.base::WeakPtr.98"* %13, i64 0, i32 0, i32 0
  call void @_ZN4base8internal13WeakReferenceC1EOS1_(%"class.base::internal::WeakReference"* %30, %"class.base::internal::WeakReference"* nonnull dereferenceable(8) %31) #13, !noalias !134
  %32 = getelementptr inbounds i8, i8* %25, i64 56
  %33 = bitcast i8* %32 to i64*
  %34 = getelementptr inbounds %"class.base::WeakPtr.98", %"class.base::WeakPtr.98"* %13, i64 0, i32 0, i32 1
  %35 = load i64, i64* %34, align 8, !noalias !134
  store i64 %35, i64* %33, align 8, !noalias !134
  %36 = getelementptr inbounds i8, i8* %25, i64 64
  %37 = getelementptr inbounds %"class.base::OnceCallback.279", %"class.base::OnceCallback.279"* %2, i64 0, i32 0, i32 0, i32 0
  %38 = bitcast %"class.base::OnceCallback.279"* %2 to i64*
  %39 = load i64, i64* %38, align 8, !noalias !134
  %40 = bitcast i8* %36 to i64*
  store i64 %39, i64* %40, align 8, !noalias !134
  store %"class.base::internal::BindStateBase"* null, %"class.base::internal::BindStateBase"** %37, align 8, !noalias !134
  %41 = bitcast %"class.device::pin::PinTokenWithPermissionsRequest"* %8 to i8*
  call void @llvm.lifetime.start.p0i8(i64 160, i8* nonnull %41)
  %42 = bitcast %"class.base::OnceCallback.279"* %9 to i8*
  call void @llvm.lifetime.start.p0i8(i64 8, i8* nonnull %42)
  %43 = bitcast %"class.base::OnceCallback.280"* %10 to i8*
  call void @llvm.lifetime.start.p0i8(i64 8, i8* nonnull %43)
  %44 = call i8* @_Znwm(i64 224) #14
  call void @_ZN6device3pin30PinTokenWithPermissionsRequestC1EOS1_(%"class.device::pin::PinTokenWithPermissionsRequest"* nonnull %8, %"class.device::pin::PinTokenWithPermissionsRequest"* dereferenceable(160) %1) #13
  %45 = getelementptr inbounds %"class.base::OnceCallback.279", %"class.base::OnceCallback.279"* %12, i64 0, i32 0, i32 0, i32 0
  %46 = ptrtoint i8* %25 to i64
  store %"class.base::internal::BindStateBase"* null, %"class.base::internal::BindStateBase"** %45, align 8
  %47 = getelementptr inbounds %"class.base::OnceCallback.280", %"class.base::OnceCallback.280"* %3, i64 0, i32 0, i32 0, i32 0
  %48 = bitcast %"class.base::OnceCallback.280"* %3 to i64*
  %49 = load i64, i64* %48, align 8
  store %"class.base::internal::BindStateBase"* null, %"class.base::internal::BindStateBase"** %47, align 8
  %50 = bitcast %"class.device::pin::PinTokenWithPermissionsRequest"* %6 to i8*
  call void @llvm.lifetime.start.p0i8(i64 160, i8* nonnull %50) #13
  %51 = bitcast %"class.base::OnceCallback.279"* %7 to i8*
  call void @llvm.lifetime.start.p0i8(i64 8, i8* nonnull %51) #13
  call void @_ZN6device3pin30PinTokenWithPermissionsRequestC1EOS1_(%"class.device::pin::PinTokenWithPermissionsRequest"* nonnull %6, %"class.device::pin::PinTokenWithPermissionsRequest"* nonnull dereferenceable(160) %8) #13
  %52 = getelementptr inbounds %"class.base::OnceCallback.279", %"class.base::OnceCallback.279"* %9, i64 0, i32 0, i32 0, i32 0
  store %"class.base::internal::BindStateBase"* null, %"class.base::internal::BindStateBase"** %52, align 8
  %53 = bitcast i8* %44 to i32 (...)***
  store i32 (...)** bitcast (i8** getelementptr inbounds ({ [6 x i8*] }, { [6 x i8*] }* @_ZTVN6device15DeviceOperationINS_3pin30PinTokenWithPermissionsRequestENS1_13TokenResponseEEE, i64 0, inrange i32 0, i64 2) to i32 (...)**), i32 (...)*** %53, align 8
  %54 = getelementptr inbounds i8, i8* %44, i64 8
  store i8 0, i8* %54, align 4
  %55 = getelementptr inbounds i8, i8* %44, i64 16
  %56 = bitcast i8* %55 to i64*
  store i64 %17, i64* %56, align 8
  %57 = getelementptr inbounds i8, i8* %44, i64 24
  %58 = bitcast i8* %57 to %"class.device::pin::PinTokenWithPermissionsRequest"*
  call void @_ZN6device3pin30PinTokenWithPermissionsRequestC1EOS1_(%"class.device::pin::PinTokenWithPermissionsRequest"* %58, %"class.device::pin::PinTokenWithPermissionsRequest"* nonnull dereferenceable(160) %6) #13
  %59 = getelementptr inbounds i8, i8* %44, i64 184
  %60 = getelementptr inbounds %"class.base::OnceCallback.279", %"class.base::OnceCallback.279"* %7, i64 0, i32 0, i32 0, i32 0
  %61 = bitcast i8* %59 to i64*
  store i64 %46, i64* %61, align 8
  store %"class.base::internal::BindStateBase"* null, %"class.base::internal::BindStateBase"** %60, align 8
  %62 = getelementptr inbounds %"class.base::OnceCallback.279", %"class.base::OnceCallback.279"* %7, i64 0, i32 0
  call void @_ZN4base8internal12CallbackBaseD2Ev(%"class.base::internal::CallbackBase"* nonnull %62) #13
  call void @_ZN6device3pin30PinTokenWithPermissionsRequestD1Ev(%"class.device::pin::PinTokenWithPermissionsRequest"* nonnull %6) #13
  store i32 (...)** bitcast (i8** getelementptr inbounds ({ [6 x i8*] }, { [6 x i8*] }* @_ZTVN6device20Ctap2DeviceOperationINS_3pin30PinTokenWithPermissionsRequestENS1_13TokenResponseEEE, i64 0, inrange i32 0, i64 2) to i32 (...)**), i32 (...)*** %53, align 8
  %63 = getelementptr inbounds i8, i8* %44, i64 192
  %64 = getelementptr inbounds %"class.base::OnceCallback.280", %"class.base::OnceCallback.280"* %10, i64 0, i32 0, i32 0, i32 0
  %65 = bitcast i8* %63 to i64*
  store i64 %49, i64* %65, align 8
  store %"class.base::internal::BindStateBase"* null, %"class.base::internal::BindStateBase"** %64, align 8
  %66 = getelementptr inbounds i8, i8* %44, i64 200
  %67 = bitcast i8* %66 to i64*
  store i64 %14, i64* %67, align 8
  %68 = getelementptr inbounds i8, i8* %44, i64 208
  %69 = bitcast i8* %68 to %"class.base::internal::WeakPtrFactoryBase"*
  %70 = ptrtoint i8* %44 to i64
  call void @_ZN4base8internal18WeakPtrFactoryBaseC2Em(%"class.base::internal::WeakPtrFactoryBase"* %69, i64 %70) #13
  call void @llvm.lifetime.end.p0i8(i64 160, i8* nonnull %50) #13
  call void @llvm.lifetime.end.p0i8(i64 8, i8* nonnull %51) #13
  %71 = getelementptr inbounds %"class.base::OnceCallback.280", %"class.base::OnceCallback.280"* %10, i64 0, i32 0
  call void @_ZN4base8internal12CallbackBaseD2Ev(%"class.base::internal::CallbackBase"* nonnull %71) #13
  %72 = getelementptr inbounds %"class.base::OnceCallback.279", %"class.base::OnceCallback.279"* %9, i64 0, i32 0
  call void @_ZN4base8internal12CallbackBaseD2Ev(%"class.base::internal::CallbackBase"* nonnull %72) #13
  call void @_ZN6device3pin30PinTokenWithPermissionsRequestD1Ev(%"class.device::pin::PinTokenWithPermissionsRequest"* nonnull %8) #13
  call void @llvm.lifetime.end.p0i8(i64 160, i8* nonnull %41)
  call void @llvm.lifetime.end.p0i8(i64 8, i8* nonnull %42)
  call void @llvm.lifetime.end.p0i8(i64 8, i8* nonnull %43)
  %73 = getelementptr inbounds %"class.device::FidoDeviceAuthenticator", %"class.device::FidoDeviceAuthenticator"* %0, i64 0, i32 4, i32 0, i32 0, i32 0
  %74 = load %"class.device::GenericDeviceOperation"*, %"class.device::GenericDeviceOperation"** %73, align 8
  %75 = bitcast %"class.device::GenericDeviceOperation"** %73 to i8**
  store i8* %44, i8** %75, align 8
  %76 = icmp eq %"class.device::GenericDeviceOperation"* %74, null
  br i1 %76, label %82, label %77

77:                                               ; preds = %5
  %78 = bitcast %"class.device::GenericDeviceOperation"* %74 to void (%"class.device::GenericDeviceOperation"*)***
  %79 = load void (%"class.device::GenericDeviceOperation"*)**, void (%"class.device::GenericDeviceOperation"*)*** %78, align 8
  %80 = getelementptr inbounds void (%"class.device::GenericDeviceOperation"*)*, void (%"class.device::GenericDeviceOperation"*)** %79, i64 1
  %81 = load void (%"class.device::GenericDeviceOperation"*)*, void (%"class.device::GenericDeviceOperation"*)** %80, align 8
  call void %81(%"class.device::GenericDeviceOperation"* nonnull %74) #13
  br label %82

82:                                               ; preds = %77, %5
  %83 = getelementptr inbounds %"class.base::OnceCallback.279", %"class.base::OnceCallback.279"* %12, i64 0, i32 0
  call void @_ZN4base8internal12CallbackBaseD2Ev(%"class.base::internal::CallbackBase"* nonnull %83) #13
  call void @_ZN4base8internal11WeakPtrBaseD2Ev(%"class.base::internal::WeakPtrBase"* nonnull %24) #13
  call void @llvm.lifetime.end.p0i8(i64 16, i8* nonnull %19) #13
  call void @llvm.lifetime.end.p0i8(i64 8, i8* nonnull %18) #13
  %84 = load %"class.device::GenericDeviceOperation"*, %"class.device::GenericDeviceOperation"** %73, align 8
  %85 = bitcast %"class.device::GenericDeviceOperation"* %84 to void (%"class.device::GenericDeviceOperation"*)***
  %86 = load void (%"class.device::GenericDeviceOperation"*)**, void (%"class.device::GenericDeviceOperation"*)*** %85, align 8
  %87 = getelementptr inbounds void (%"class.device::GenericDeviceOperation"*)*, void (%"class.device::GenericDeviceOperation"*)** %86, i64 2
  %88 = load void (%"class.device::GenericDeviceOperation"*)*, void (%"class.device::GenericDeviceOperation"*)** %87, align 8
  call void %88(%"class.device::GenericDeviceOperation"* %84) #13
  ret void
}

declare void @_ZN6device3pin30PinTokenWithPermissionsRequestC1EOS1_(%"class.device::pin::PinTokenWithPermissionsRequest"*, %"class.device::pin::PinTokenWithPermissionsRequest"* dereferenceable(160)) unnamed_addr #2

declare void @_ZN6device3pin13TokenResponse5ParseENS_17PINUVAuthProtocolEN4base4spanIKhLm18446744073709551615EEERKN4absl8optionalIN4cbor5ValueEEE(%"class.absl::optional.150"* sret, i8 zeroext, i64, i8*, %"class.absl::optional.221"* dereferenceable(40)) #2

; Function Attrs: nounwind
declare void @_ZN6device3pin30PinTokenWithPermissionsRequestD1Ev(%"class.device::pin::PinTokenWithPermissionsRequest"*) unnamed_addr #4

declare void @_ZN6device3pin15PinTokenRequestC1ENS_17PINUVAuthProtocolERKNSt3__112basic_stringIcNS3_11char_traitsIcEENS3_9allocatorIcEEEERKNS0_20KeyAgreementResponseE(%"class.device::pin::PinTokenRequest"*, i8 zeroext, %"class.std::__1::basic_string"* dereferenceable(24), %"struct.device::pin::KeyAgreementResponse"* dereferenceable(64)) unnamed_addr #2

; Function Attrs: nounwind ssp uwtable
define linkonce_odr hidden void @_ZN6device23FidoDeviceAuthenticator12RunOperationINS_3pin15PinTokenRequestENS2_13TokenResponseEEEvT_N4base12OnceCallbackIFvNS_22CtapDeviceResponseCodeEN4absl8optionalIT0_EEEEENS7_IFSC_RKNSA_IN4cbor5ValueEEEEEEPFbRKNSt3__16vectorIPKSG_NSM_9allocatorISP_EEEEE(%"class.device::FidoDeviceAuthenticator"*, %"class.device::pin::PinTokenRequest"*, %"class.base::OnceCallback.279"*, %"class.base::OnceCallback.280"*, i1 (%"class.std::__1::vector.257"*)*) local_unnamed_addr #0 comdat align 2 {
  %6 = alloca %"class.device::pin::PinTokenRequest", align 8
  %7 = alloca %"class.base::OnceCallback.279", align 8
  %8 = alloca %"class.device::pin::PinTokenRequest", align 8
  %9 = alloca %"class.base::OnceCallback.279", align 8
  %10 = alloca %"class.base::OnceCallback.280", align 8
  %11 = alloca %"class.base::internal::WeakReference", align 8
  %12 = alloca %"class.base::OnceCallback.279", align 8
  %13 = alloca %"class.base::WeakPtr.98", align 8
  %14 = ptrtoint i1 (%"class.std::__1::vector.257"*)* %4 to i64
  %15 = getelementptr inbounds %"class.device::FidoDeviceAuthenticator", %"class.device::FidoDeviceAuthenticator"* %0, i64 0, i32 1, i32 0, i32 0, i32 0
  %16 = bitcast %"class.device::FidoDevice"** %15 to i64*
  %17 = load i64, i64* %16, align 8
  %18 = bitcast %"class.base::OnceCallback.279"* %12 to i8*
  call void @llvm.lifetime.start.p0i8(i64 8, i8* nonnull %18) #13
  %19 = bitcast %"class.base::WeakPtr.98"* %13 to i8*
  call void @llvm.lifetime.start.p0i8(i64 16, i8* nonnull %19) #13
  %20 = bitcast %"class.base::internal::WeakReference"* %11 to i8*
  call void @llvm.lifetime.start.p0i8(i64 8, i8* nonnull %20) #13, !noalias !139
  %21 = getelementptr inbounds %"class.device::FidoDeviceAuthenticator", %"class.device::FidoDeviceAuthenticator"* %0, i64 0, i32 6, i32 0, i32 0
  call void @_ZNK4base8internal18WeakReferenceOwner6GetRefEv(%"class.base::internal::WeakReference"* nonnull sret %11, %"class.base::internal::WeakReferenceOwner"* %21) #13, !noalias !139
  %22 = getelementptr inbounds %"class.device::FidoDeviceAuthenticator", %"class.device::FidoDeviceAuthenticator"* %0, i64 0, i32 6, i32 0, i32 1
  %23 = load i64, i64* %22, align 8, !noalias !139
  %24 = getelementptr inbounds %"class.base::WeakPtr.98", %"class.base::WeakPtr.98"* %13, i64 0, i32 0
  call void @_ZN4base8internal11WeakPtrBaseC2ERKNS0_13WeakReferenceEm(%"class.base::internal::WeakPtrBase"* nonnull %24, %"class.base::internal::WeakReference"* nonnull dereferenceable(8) %11, i64 %23) #13
  call void @_ZN4base8internal13WeakReferenceD1Ev(%"class.base::internal::WeakReference"* nonnull %11) #13
  call void @llvm.lifetime.end.p0i8(i64 8, i8* nonnull %20) #13, !noalias !139
  %25 = call i8* @_Znwm(i64 72) #14, !noalias !142
  %26 = bitcast i8* %25 to %"class.base::internal::BindStateBase"*
  call void @_ZN4base8internal13BindStateBaseC2EPFvvEPFvPKS1_EPFbS5_NS1_21CancellationQueryModeEE(%"class.base::internal::BindStateBase"* nonnull %26, void ()* bitcast (void (%"class.base::internal::BindStateBase"*, i8, %"class.absl::optional.150"*)* @_ZN4base8internal7InvokerINS0_9BindStateIMN6device23FidoDeviceAuthenticatorEFvNS_12OnceCallbackIFvNS3_22CtapDeviceResponseCodeEN4absl8optionalINS3_3pin13TokenResponseEEEEEES6_SB_EJNS_7WeakPtrIS4_EESD_EEESC_E7RunOnceEPNS0_13BindStateBaseES6_OSB_ to void ()*), void (%"class.base::internal::BindStateBase"*)* nonnull @_ZN4base8internal9BindStateIMN6device23FidoDeviceAuthenticatorEFvNS_12OnceCallbackIFvNS2_22CtapDeviceResponseCodeEN4absl8optionalINS2_3pin13TokenResponseEEEEEES5_SA_EJNS_7WeakPtrIS3_EESC_EE7DestroyEPKNS0_13BindStateBaseE, i1 (%"class.base::internal::BindStateBase"*, i32)* nonnull @_ZN4base8internal23QueryCancellationTraitsINS0_9BindStateIMN6device23FidoDeviceAuthenticatorEFvNS_12OnceCallbackIFvNS3_22CtapDeviceResponseCodeEN4absl8optionalINS3_3pin13TokenResponseEEEEEES6_SB_EJNS_7WeakPtrIS4_EESD_EEEEEbPKNS0_13BindStateBaseENSJ_21CancellationQueryModeE) #13, !noalias !142
  %27 = getelementptr inbounds i8, i8* %25, i64 32
  %28 = bitcast i8* %27 to <2 x i64>*
  store <2 x i64> <i64 ptrtoint (void (%"class.device::FidoDeviceAuthenticator"*, %"class.base::OnceCallback.279"*, i8, %"class.absl::optional.150"*)* @_ZN6device23FidoDeviceAuthenticator19OperationClearProxyIJNS_22CtapDeviceResponseCodeEN4absl8optionalINS_3pin13TokenResponseEEEEEEvN4base12OnceCallbackIFvDpT_EEESB_ to i64), i64 0>, <2 x i64>* %28, align 8, !noalias !142
  %29 = getelementptr inbounds i8, i8* %25, i64 48
  %30 = bitcast i8* %29 to %"class.base::internal::WeakReference"*
  %31 = getelementptr inbounds %"class.base::WeakPtr.98", %"class.base::WeakPtr.98"* %13, i64 0, i32 0, i32 0
  call void @_ZN4base8internal13WeakReferenceC1EOS1_(%"class.base::internal::WeakReference"* %30, %"class.base::internal::WeakReference"* nonnull dereferenceable(8) %31) #13, !noalias !142
  %32 = getelementptr inbounds i8, i8* %25, i64 56
  %33 = bitcast i8* %32 to i64*
  %34 = getelementptr inbounds %"class.base::WeakPtr.98", %"class.base::WeakPtr.98"* %13, i64 0, i32 0, i32 1
  %35 = load i64, i64* %34, align 8, !noalias !142
  store i64 %35, i64* %33, align 8, !noalias !142
  %36 = getelementptr inbounds i8, i8* %25, i64 64
  %37 = getelementptr inbounds %"class.base::OnceCallback.279", %"class.base::OnceCallback.279"* %2, i64 0, i32 0, i32 0, i32 0
  %38 = bitcast %"class.base::OnceCallback.279"* %2 to i64*
  %39 = load i64, i64* %38, align 8, !noalias !142
  %40 = bitcast i8* %36 to i64*
  store i64 %39, i64* %40, align 8, !noalias !142
  store %"class.base::internal::BindStateBase"* null, %"class.base::internal::BindStateBase"** %37, align 8, !noalias !142
  %41 = bitcast %"class.device::pin::PinTokenRequest"* %8 to i8*
  call void @llvm.lifetime.start.p0i8(i64 128, i8* nonnull %41)
  %42 = bitcast %"class.base::OnceCallback.279"* %9 to i8*
  call void @llvm.lifetime.start.p0i8(i64 8, i8* nonnull %42)
  %43 = bitcast %"class.base::OnceCallback.280"* %10 to i8*
  call void @llvm.lifetime.start.p0i8(i64 8, i8* nonnull %43)
  %44 = call i8* @_Znwm(i64 192) #14
  call void @_ZN6device3pin15PinTokenRequestC1EOS1_(%"class.device::pin::PinTokenRequest"* nonnull %8, %"class.device::pin::PinTokenRequest"* dereferenceable(128) %1) #13
  %45 = getelementptr inbounds %"class.base::OnceCallback.279", %"class.base::OnceCallback.279"* %12, i64 0, i32 0, i32 0, i32 0
  %46 = ptrtoint i8* %25 to i64
  store %"class.base::internal::BindStateBase"* null, %"class.base::internal::BindStateBase"** %45, align 8
  %47 = getelementptr inbounds %"class.base::OnceCallback.280", %"class.base::OnceCallback.280"* %3, i64 0, i32 0, i32 0, i32 0
  %48 = bitcast %"class.base::OnceCallback.280"* %3 to i64*
  %49 = load i64, i64* %48, align 8
  store %"class.base::internal::BindStateBase"* null, %"class.base::internal::BindStateBase"** %47, align 8
  %50 = bitcast %"class.device::pin::PinTokenRequest"* %6 to i8*
  call void @llvm.lifetime.start.p0i8(i64 128, i8* nonnull %50) #13
  %51 = bitcast %"class.base::OnceCallback.279"* %7 to i8*
  call void @llvm.lifetime.start.p0i8(i64 8, i8* nonnull %51) #13
  call void @_ZN6device3pin15PinTokenRequestC1EOS1_(%"class.device::pin::PinTokenRequest"* nonnull %6, %"class.device::pin::PinTokenRequest"* nonnull dereferenceable(128) %8) #13
  %52 = getelementptr inbounds %"class.base::OnceCallback.279", %"class.base::OnceCallback.279"* %9, i64 0, i32 0, i32 0, i32 0
  store %"class.base::internal::BindStateBase"* null, %"class.base::internal::BindStateBase"** %52, align 8
  %53 = bitcast i8* %44 to i32 (...)***
  store i32 (...)** bitcast (i8** getelementptr inbounds ({ [6 x i8*] }, { [6 x i8*] }* @_ZTVN6device15DeviceOperationINS_3pin15PinTokenRequestENS1_13TokenResponseEEE, i64 0, inrange i32 0, i64 2) to i32 (...)**), i32 (...)*** %53, align 8
  %54 = getelementptr inbounds i8, i8* %44, i64 8
  store i8 0, i8* %54, align 4
  %55 = getelementptr inbounds i8, i8* %44, i64 16
  %56 = bitcast i8* %55 to i64*
  store i64 %17, i64* %56, align 8
  %57 = getelementptr inbounds i8, i8* %44, i64 24
  %58 = bitcast i8* %57 to %"class.device::pin::PinTokenRequest"*
  call void @_ZN6device3pin15PinTokenRequestC1EOS1_(%"class.device::pin::PinTokenRequest"* %58, %"class.device::pin::PinTokenRequest"* nonnull dereferenceable(128) %6) #13
  %59 = getelementptr inbounds i8, i8* %44, i64 152
  %60 = getelementptr inbounds %"class.base::OnceCallback.279", %"class.base::OnceCallback.279"* %7, i64 0, i32 0, i32 0, i32 0
  %61 = bitcast i8* %59 to i64*
  store i64 %46, i64* %61, align 8
  store %"class.base::internal::BindStateBase"* null, %"class.base::internal::BindStateBase"** %60, align 8
  %62 = getelementptr inbounds %"class.base::OnceCallback.279", %"class.base::OnceCallback.279"* %7, i64 0, i32 0
  call void @_ZN4base8internal12CallbackBaseD2Ev(%"class.base::internal::CallbackBase"* nonnull %62) #13
  call void @_ZN6device3pin15PinTokenRequestD1Ev(%"class.device::pin::PinTokenRequest"* nonnull %6) #13
  store i32 (...)** bitcast (i8** getelementptr inbounds ({ [6 x i8*] }, { [6 x i8*] }* @_ZTVN6device20Ctap2DeviceOperationINS_3pin15PinTokenRequestENS1_13TokenResponseEEE, i64 0, inrange i32 0, i64 2) to i32 (...)**), i32 (...)*** %53, align 8
  %63 = getelementptr inbounds i8, i8* %44, i64 160
  %64 = getelementptr inbounds %"class.base::OnceCallback.280", %"class.base::OnceCallback.280"* %10, i64 0, i32 0, i32 0, i32 0
  %65 = bitcast i8* %63 to i64*
  store i64 %49, i64* %65, align 8
  store %"class.base::internal::BindStateBase"* null, %"class.base::internal::BindStateBase"** %64, align 8
  %66 = getelementptr inbounds i8, i8* %44, i64 168
  %67 = bitcast i8* %66 to i64*
  store i64 %14, i64* %67, align 8
  %68 = getelementptr inbounds i8, i8* %44, i64 176
  %69 = bitcast i8* %68 to %"class.base::internal::WeakPtrFactoryBase"*
  %70 = ptrtoint i8* %44 to i64
  call void @_ZN4base8internal18WeakPtrFactoryBaseC2Em(%"class.base::internal::WeakPtrFactoryBase"* %69, i64 %70) #13
  call void @llvm.lifetime.end.p0i8(i64 128, i8* nonnull %50) #13
  call void @llvm.lifetime.end.p0i8(i64 8, i8* nonnull %51) #13
  %71 = getelementptr inbounds %"class.base::OnceCallback.280", %"class.base::OnceCallback.280"* %10, i64 0, i32 0
  call void @_ZN4base8internal12CallbackBaseD2Ev(%"class.base::internal::CallbackBase"* nonnull %71) #13
  %72 = getelementptr inbounds %"class.base::OnceCallback.279", %"class.base::OnceCallback.279"* %9, i64 0, i32 0
  call void @_ZN4base8internal12CallbackBaseD2Ev(%"class.base::internal::CallbackBase"* nonnull %72) #13
  call void @_ZN6device3pin15PinTokenRequestD1Ev(%"class.device::pin::PinTokenRequest"* nonnull %8) #13
  call void @llvm.lifetime.end.p0i8(i64 128, i8* nonnull %41)
  call void @llvm.lifetime.end.p0i8(i64 8, i8* nonnull %42)
  call void @llvm.lifetime.end.p0i8(i64 8, i8* nonnull %43)
  %73 = getelementptr inbounds %"class.device::FidoDeviceAuthenticator", %"class.device::FidoDeviceAuthenticator"* %0, i64 0, i32 4, i32 0, i32 0, i32 0
  %74 = load %"class.device::GenericDeviceOperation"*, %"class.device::GenericDeviceOperation"** %73, align 8
  %75 = bitcast %"class.device::GenericDeviceOperation"** %73 to i8**
  store i8* %44, i8** %75, align 8
  %76 = icmp eq %"class.device::GenericDeviceOperation"* %74, null
  br i1 %76, label %82, label %77

77:                                               ; preds = %5
  %78 = bitcast %"class.device::GenericDeviceOperation"* %74 to void (%"class.device::GenericDeviceOperation"*)***
  %79 = load void (%"class.device::GenericDeviceOperation"*)**, void (%"class.device::GenericDeviceOperation"*)*** %78, align 8
  %80 = getelementptr inbounds void (%"class.device::GenericDeviceOperation"*)*, void (%"class.device::GenericDeviceOperation"*)** %79, i64 1
  %81 = load void (%"class.device::GenericDeviceOperation"*)*, void (%"class.device::GenericDeviceOperation"*)** %80, align 8
  call void %81(%"class.device::GenericDeviceOperation"* nonnull %74) #13
  br label %82

82:                                               ; preds = %77, %5
  %83 = getelementptr inbounds %"class.base::OnceCallback.279", %"class.base::OnceCallback.279"* %12, i64 0, i32 0
  call void @_ZN4base8internal12CallbackBaseD2Ev(%"class.base::internal::CallbackBase"* nonnull %83) #13
  call void @_ZN4base8internal11WeakPtrBaseD2Ev(%"class.base::internal::WeakPtrBase"* nonnull %24) #13
  call void @llvm.lifetime.end.p0i8(i64 16, i8* nonnull %19) #13
  call void @llvm.lifetime.end.p0i8(i64 8, i8* nonnull %18) #13
  %84 = load %"class.device::GenericDeviceOperation"*, %"class.device::GenericDeviceOperation"** %73, align 8
  %85 = bitcast %"class.device::GenericDeviceOperation"* %84 to void (%"class.device::GenericDeviceOperation"*)***
  %86 = load void (%"class.device::GenericDeviceOperation"*)**, void (%"class.device::GenericDeviceOperation"*)*** %85, align 8
  %87 = getelementptr inbounds void (%"class.device::GenericDeviceOperation"*)*, void (%"class.device::GenericDeviceOperation"*)** %86, i64 2
  %88 = load void (%"class.device::GenericDeviceOperation"*)*, void (%"class.device::GenericDeviceOperation"*)** %87, align 8
  call void %88(%"class.device::GenericDeviceOperation"* %84) #13
  ret void
}

declare void @_ZN6device3pin15PinTokenRequestC1EOS1_(%"class.device::pin::PinTokenRequest"*, %"class.device::pin::PinTokenRequest"* dereferenceable(128)) unnamed_addr #2

; Function Attrs: nounwind
declare void @_ZN6device3pin15PinTokenRequestD1Ev(%"class.device::pin::PinTokenRequest"*) unnamed_addr #4

; Function Attrs: nounwind ssp uwtable
define hidden void @_ZN6device23FidoDeviceAuthenticator6SetPINERKNSt3__112basic_stringIcNS1_11char_traitsIcEENS1_9allocatorIcEEEEN4base12OnceCallbackIFvNS_22CtapDeviceResponseCodeEN4absl8optionalINS_3pin13EmptyResponseEEEEEE(%"class.device::FidoDeviceAuthenticator"*, %"class.std::__1::basic_string"* nocapture readonly dereferenceable(24), %"class.base::OnceCallback.259"* nocapture) unnamed_addr #0 align 2 {
  %4 = alloca %"class.base::OnceCallback.202", align 8
  %5 = alloca %"class.base::OnceCallback.271", align 8
  %6 = alloca %"class.base::internal::WeakReference", align 8
  %7 = alloca %"class.base::OnceCallback.202", align 8
  %8 = alloca %"class.base::WeakPtr.98", align 8
  %9 = bitcast %"class.base::WeakPtr.98"* %8 to i8*
  call void @llvm.lifetime.start.p0i8(i64 16, i8* nonnull %9) #13
  %10 = bitcast %"class.base::internal::WeakReference"* %6 to i8*
  call void @llvm.lifetime.start.p0i8(i64 8, i8* nonnull %10) #13, !noalias !147
  %11 = getelementptr inbounds %"class.device::FidoDeviceAuthenticator", %"class.device::FidoDeviceAuthenticator"* %0, i64 0, i32 6, i32 0, i32 0
  call void @_ZNK4base8internal18WeakReferenceOwner6GetRefEv(%"class.base::internal::WeakReference"* nonnull sret %6, %"class.base::internal::WeakReferenceOwner"* %11) #13, !noalias !147
  %12 = getelementptr inbounds %"class.device::FidoDeviceAuthenticator", %"class.device::FidoDeviceAuthenticator"* %0, i64 0, i32 6, i32 0, i32 1
  %13 = load i64, i64* %12, align 8, !noalias !147
  %14 = getelementptr inbounds %"class.base::WeakPtr.98", %"class.base::WeakPtr.98"* %8, i64 0, i32 0
  call void @_ZN4base8internal11WeakPtrBaseC2ERKNS0_13WeakReferenceEm(%"class.base::internal::WeakPtrBase"* nonnull %14, %"class.base::internal::WeakReference"* nonnull dereferenceable(8) %6, i64 %13) #13
  call void @_ZN4base8internal13WeakReferenceD1Ev(%"class.base::internal::WeakReference"* nonnull %6) #13
  call void @llvm.lifetime.end.p0i8(i64 8, i8* nonnull %10) #13, !noalias !147
  %15 = call i8* @_Znwm(i64 96) #14, !noalias !150
  %16 = bitcast i8* %15 to %"class.base::internal::BindStateBase"*
  call void @_ZN4base8internal13BindStateBaseC2EPFvvEPFvPKS1_EPFbS5_NS1_21CancellationQueryModeEE(%"class.base::internal::BindStateBase"* nonnull %16, void ()* bitcast (void (%"class.base::internal::BindStateBase"*, i8, %"class.absl::optional.189"*)* @_ZN4base8internal7InvokerINS0_9BindStateIMN6device23FidoDeviceAuthenticatorEFvNSt3__112basic_stringIcNS5_11char_traitsIcEENS5_9allocatorIcEEEENS_12OnceCallbackIFvNS3_22CtapDeviceResponseCodeEN4absl8optionalINS3_3pin13EmptyResponseEEEEEESD_NSF_INSG_20KeyAgreementResponseEEEEJNS_7WeakPtrIS4_EESB_SK_EEEFvSD_SM_EE7RunOnceEPNS0_13BindStateBaseESD_OSM_ to void ()*), void (%"class.base::internal::BindStateBase"*)* nonnull @_ZN4base8internal9BindStateIMN6device23FidoDeviceAuthenticatorEFvNSt3__112basic_stringIcNS4_11char_traitsIcEENS4_9allocatorIcEEEENS_12OnceCallbackIFvNS2_22CtapDeviceResponseCodeEN4absl8optionalINS2_3pin13EmptyResponseEEEEEESC_NSE_INSF_20KeyAgreementResponseEEEEJNS_7WeakPtrIS3_EESA_SJ_EE7DestroyEPKNS0_13BindStateBaseE, i1 (%"class.base::internal::BindStateBase"*, i32)* nonnull @_ZN4base8internal23QueryCancellationTraitsINS0_9BindStateIMN6device23FidoDeviceAuthenticatorEFvNSt3__112basic_stringIcNS5_11char_traitsIcEENS5_9allocatorIcEEEENS_12OnceCallbackIFvNS3_22CtapDeviceResponseCodeEN4absl8optionalINS3_3pin13EmptyResponseEEEEEESD_NSF_INSG_20KeyAgreementResponseEEEEJNS_7WeakPtrIS4_EESB_SK_EEEEEbPKNS0_13BindStateBaseENSS_21CancellationQueryModeE) #13, !noalias !150
  %17 = getelementptr inbounds i8, i8* %15, i64 32
  %18 = bitcast i8* %17 to <2 x i64>*
  store <2 x i64> <i64 ptrtoint (void (%"class.device::FidoDeviceAuthenticator"*, %"class.std::__1::basic_string"*, %"class.base::OnceCallback.259"*, i8, %"class.absl::optional.189"*)* @_ZN6device23FidoDeviceAuthenticator27OnHaveEphemeralKeyForSetPINENSt3__112basic_stringIcNS1_11char_traitsIcEENS1_9allocatorIcEEEEN4base12OnceCallbackIFvNS_22CtapDeviceResponseCodeEN4absl8optionalINS_3pin13EmptyResponseEEEEEESA_NSC_INSD_20KeyAgreementResponseEEE to i64), i64 0>, <2 x i64>* %18, align 8, !noalias !150
  %19 = getelementptr inbounds i8, i8* %15, i64 48
  %20 = bitcast i8* %19 to %"class.base::internal::WeakReference"*
  %21 = getelementptr inbounds %"class.base::WeakPtr.98", %"class.base::WeakPtr.98"* %8, i64 0, i32 0, i32 0
  call void @_ZN4base8internal13WeakReferenceC1EOS1_(%"class.base::internal::WeakReference"* %20, %"class.base::internal::WeakReference"* nonnull dereferenceable(8) %21) #13, !noalias !150
  %22 = getelementptr inbounds i8, i8* %15, i64 56
  %23 = bitcast i8* %22 to i64*
  %24 = getelementptr inbounds %"class.base::WeakPtr.98", %"class.base::WeakPtr.98"* %8, i64 0, i32 0, i32 1
  %25 = load i64, i64* %24, align 8, !noalias !150
  store i64 %25, i64* %23, align 8, !noalias !150
  %26 = getelementptr inbounds i8, i8* %15, i64 64
  %27 = bitcast %"class.std::__1::basic_string"* %1 to %"struct.std::__1::basic_string<char, std::__1::char_traits<char>, std::__1::allocator<char> >::__short"*
  %28 = getelementptr inbounds %"struct.std::__1::basic_string<char, std::__1::char_traits<char>, std::__1::allocator<char> >::__short", %"struct.std::__1::basic_string<char, std::__1::char_traits<char>, std::__1::allocator<char> >::__short"* %27, i64 0, i32 1, i32 0
  %29 = load i8, i8* %28, align 1, !noalias !150
  %30 = icmp slt i8 %29, 0
  br i1 %30, label %33, label %31

31:                                               ; preds = %3
  %32 = bitcast %"class.std::__1::basic_string"* %1 to i8*
  call void @llvm.memcpy.p0i8.p0i8.i64(i8* align 8 %26, i8* align 8 %32, i64 24, i1 false) #13, !noalias !150
  br label %39

33:                                               ; preds = %3
  %34 = bitcast i8* %26 to %"class.std::__1::basic_string"*
  %35 = getelementptr inbounds %"class.std::__1::basic_string", %"class.std::__1::basic_string"* %1, i64 0, i32 0, i32 0, i32 0, i32 0, i32 0, i32 0
  %36 = load i8*, i8** %35, align 8, !noalias !150
  %37 = getelementptr inbounds %"class.std::__1::basic_string", %"class.std::__1::basic_string"* %1, i64 0, i32 0, i32 0, i32 0, i32 0, i32 0, i32 1
  %38 = load i64, i64* %37, align 8, !noalias !150
  call void @_ZNSt3__112basic_stringIcNS_11char_traitsIcEENS_9allocatorIcEEE25__init_copy_ctor_externalEPKcm(%"class.std::__1::basic_string"* %34, i8* %36, i64 %38) #13, !noalias !150
  br label %39

39:                                               ; preds = %31, %33
  %40 = getelementptr inbounds i8, i8* %15, i64 88
  %41 = getelementptr inbounds %"class.base::OnceCallback.259", %"class.base::OnceCallback.259"* %2, i64 0, i32 0, i32 0, i32 0
  %42 = bitcast %"class.base::OnceCallback.259"* %2 to i64*
  %43 = load i64, i64* %42, align 8, !noalias !150
  %44 = bitcast i8* %40 to i64*
  store i64 %43, i64* %44, align 8, !noalias !150
  store %"class.base::internal::BindStateBase"* null, %"class.base::internal::BindStateBase"** %41, align 8, !noalias !150
  %45 = bitcast %"class.base::OnceCallback.202"* %7 to i8**
  store i8* %15, i8** %45, align 8, !alias.scope !150
  %46 = bitcast %"class.base::OnceCallback.202"* %4 to i8*
  call void @llvm.lifetime.start.p0i8(i64 8, i8* nonnull %46)
  %47 = bitcast %"class.base::OnceCallback.271"* %5 to i8*
  call void @llvm.lifetime.start.p0i8(i64 8, i8* nonnull %47)
  %48 = getelementptr inbounds %"class.device::FidoDeviceAuthenticator", %"class.device::FidoDeviceAuthenticator"* %0, i64 0, i32 5, i32 0, i32 0, i32 0, i32 0
  %49 = load i8, i8* %48, align 1, !range !2
  %50 = icmp eq i8 %49, 0
  br i1 %50, label %51, label %52, !prof !16

51:                                               ; preds = %39
  call void @llvm.trap() #13
  unreachable

52:                                               ; preds = %39
  %53 = ptrtoint i8* %15 to i64
  %54 = getelementptr inbounds %"class.device::FidoDeviceAuthenticator", %"class.device::FidoDeviceAuthenticator"* %0, i64 0, i32 5, i32 0, i32 0, i32 0, i32 1, i32 0
  %55 = load i8, i8* %54, align 1
  %56 = getelementptr inbounds %"class.base::OnceCallback.202", %"class.base::OnceCallback.202"* %7, i64 0, i32 0, i32 0, i32 0
  %57 = bitcast %"class.base::OnceCallback.202"* %4 to i64*
  store i64 %53, i64* %57, align 8
  store %"class.base::internal::BindStateBase"* null, %"class.base::internal::BindStateBase"** %56, align 8
  %58 = call i8* @_Znwm(i64 48) #14, !noalias !155
  %59 = bitcast i8* %58 to %"class.base::internal::BindStateBase"*
  call void @_ZN4base8internal13BindStateBaseC2EPFvvEPFvPKS1_E(%"class.base::internal::BindStateBase"* nonnull %59, void ()* bitcast (void (%"class.absl::optional.189"*, %"class.base::internal::BindStateBase"*, %"class.absl::optional.221"*)* @_ZN4base8internal7InvokerINS0_9BindStateIPFN4absl8optionalIN6device3pin20KeyAgreementResponseEEERKNS4_IN4cbor5ValueEEEEJEEESE_E7RunOnceEPNS0_13BindStateBaseESD_ to void ()*), void (%"class.base::internal::BindStateBase"*)* nonnull @_ZN4base8internal9BindStateIPFN4absl8optionalIN6device3pin20KeyAgreementResponseEEERKNS3_IN4cbor5ValueEEEEJEE7DestroyEPKNS0_13BindStateBaseE) #13, !noalias !155
  %60 = getelementptr inbounds i8, i8* %58, i64 32
  %61 = bitcast i8* %60 to i64*
  store i64 ptrtoint (void (%"class.absl::optional.189"*, %"class.absl::optional.221"*)* @_ZN6device3pin20KeyAgreementResponse5ParseERKN4absl8optionalIN4cbor5ValueEEE to i64), i64* %61, align 8, !noalias !155
  %62 = bitcast %"class.base::OnceCallback.271"* %5 to i8**
  store i8* %58, i8** %62, align 8, !alias.scope !155
  call void @_ZN6device23FidoDeviceAuthenticator12RunOperationINS_3pin19KeyAgreementRequestENS2_20KeyAgreementResponseEEEvT_N4base12OnceCallbackIFvNS_22CtapDeviceResponseCodeEN4absl8optionalIT0_EEEEENS7_IFSC_RKNSA_IN4cbor5ValueEEEEEEPFbRKNSt3__16vectorIPKSG_NSM_9allocatorISP_EEEEE(%"class.device::FidoDeviceAuthenticator"* %0, i8 %55, %"class.base::OnceCallback.202"* nonnull %4, %"class.base::OnceCallback.271"* nonnull %5, i1 (%"class.std::__1::vector.257"*)* null) #13
  %63 = getelementptr inbounds %"class.base::OnceCallback.271", %"class.base::OnceCallback.271"* %5, i64 0, i32 0
  call void @_ZN4base8internal12CallbackBaseD2Ev(%"class.base::internal::CallbackBase"* nonnull %63) #13
  %64 = getelementptr inbounds %"class.base::OnceCallback.202", %"class.base::OnceCallback.202"* %4, i64 0, i32 0
  call void @_ZN4base8internal12CallbackBaseD2Ev(%"class.base::internal::CallbackBase"* nonnull %64) #13
  call void @llvm.lifetime.end.p0i8(i64 8, i8* nonnull %46)
  call void @llvm.lifetime.end.p0i8(i64 8, i8* nonnull %47)
  %65 = getelementptr inbounds %"class.base::OnceCallback.202", %"class.base::OnceCallback.202"* %7, i64 0, i32 0
  call void @_ZN4base8internal12CallbackBaseD2Ev(%"class.base::internal::CallbackBase"* nonnull %65) #13
  call void @_ZN4base8internal11WeakPtrBaseD2Ev(%"class.base::internal::WeakPtrBase"* nonnull %14) #13
  call void @llvm.lifetime.end.p0i8(i64 16, i8* nonnull %9) #13
  ret void
}

; Function Attrs: nounwind ssp uwtable
define hidden void @_ZN6device23FidoDeviceAuthenticator27OnHaveEphemeralKeyForSetPINENSt3__112basic_stringIcNS1_11char_traitsIcEENS1_9allocatorIcEEEEN4base12OnceCallbackIFvNS_22CtapDeviceResponseCodeEN4absl8optionalINS_3pin13EmptyResponseEEEEEESA_NSC_INSD_20KeyAgreementResponseEEE(%"class.device::FidoDeviceAuthenticator"*, %"class.std::__1::basic_string"*, %"class.base::OnceCallback.259"* nocapture, i8 zeroext, %"class.absl::optional.189"* byval(%"class.absl::optional.189") align 8) #0 align 2 {
  %6 = alloca %"class.absl::optional.261", align 1
  %7 = alloca %"class.base::OnceCallback.259", align 8
  %8 = alloca %"class.device::pin::SetRequest", align 8
  %9 = alloca %"class.base::OnceCallback.259", align 8
  %10 = alloca %"class.base::OnceCallback.260", align 8
  %11 = icmp eq i8 %3, 0
  br i1 %11, label %24, label %12

12:                                               ; preds = %5
  %13 = getelementptr inbounds %"class.absl::optional.261", %"class.absl::optional.261"* %6, i64 0, i32 0, i32 0, i32 0, i32 0
  call void @llvm.lifetime.start.p0i8(i64 2, i8* nonnull %13)
  store i8 0, i8* %13, align 1
  %14 = bitcast %"class.base::OnceCallback.259"* %7 to i8*
  call void @llvm.lifetime.start.p0i8(i64 8, i8* nonnull %14) #13
  %15 = getelementptr inbounds %"class.base::OnceCallback.259", %"class.base::OnceCallback.259"* %2, i64 0, i32 0, i32 0, i32 0
  %16 = bitcast %"class.base::OnceCallback.259"* %2 to i64*
  %17 = load i64, i64* %16, align 8
  %18 = bitcast %"class.base::OnceCallback.259"* %7 to i64*
  store i64 %17, i64* %18, align 8
  store %"class.base::internal::BindStateBase"* null, %"class.base::internal::BindStateBase"** %15, align 8
  %19 = getelementptr inbounds %"class.base::OnceCallback.259", %"class.base::OnceCallback.259"* %7, i64 0, i32 0
  %20 = inttoptr i64 %17 to %"class.base::internal::BindStateBase"*
  %21 = getelementptr inbounds %"class.base::internal::BindStateBase", %"class.base::internal::BindStateBase"* %20, i64 0, i32 1
  %22 = bitcast void ()** %21 to void (%"class.base::internal::BindStateBase"*, i8, %"class.absl::optional.261"*)**
  %23 = load void (%"class.base::internal::BindStateBase"*, i8, %"class.absl::optional.261"*)*, void (%"class.base::internal::BindStateBase"*, i8, %"class.absl::optional.261"*)** %22, align 8
  call void %23(%"class.base::internal::BindStateBase"* %20, i8 zeroext %3, %"class.absl::optional.261"* nonnull dereferenceable(2) %6) #13
  call void @_ZN4base8internal12CallbackBaseD2Ev(%"class.base::internal::CallbackBase"* nonnull %19) #13
  call void @llvm.lifetime.end.p0i8(i64 8, i8* nonnull %14) #13
  call void @llvm.lifetime.end.p0i8(i64 2, i8* nonnull %13)
  br label %49

24:                                               ; preds = %5
  %25 = getelementptr inbounds %"class.device::FidoDeviceAuthenticator", %"class.device::FidoDeviceAuthenticator"* %0, i64 0, i32 5, i32 0, i32 0, i32 0, i32 0
  %26 = load i8, i8* %25, align 1, !range !2
  %27 = icmp eq i8 %26, 0
  br i1 %27, label %28, label %29, !prof !16

28:                                               ; preds = %24
  tail call void @llvm.trap() #13
  unreachable

29:                                               ; preds = %24
  %30 = getelementptr inbounds %"class.absl::optional.189", %"class.absl::optional.189"* %4, i64 0, i32 0, i32 0, i32 0, i32 0
  %31 = load i8, i8* %30, align 8, !range !2
  %32 = icmp eq i8 %31, 0
  br i1 %32, label %33, label %34, !prof !16

33:                                               ; preds = %29
  tail call void @llvm.trap() #13
  unreachable

34:                                               ; preds = %29
  %35 = getelementptr inbounds %"class.device::FidoDeviceAuthenticator", %"class.device::FidoDeviceAuthenticator"* %0, i64 0, i32 5, i32 0, i32 0, i32 0, i32 1, i32 0
  %36 = load i8, i8* %35, align 1
  %37 = getelementptr inbounds %"class.absl::optional.189", %"class.absl::optional.189"* %4, i64 0, i32 0, i32 0, i32 0, i32 1, i32 0
  call void @_ZN6device3pin10SetRequestC1ENS_17PINUVAuthProtocolERKNSt3__112basic_stringIcNS3_11char_traitsIcEENS3_9allocatorIcEEEERKNS0_20KeyAgreementResponseE(%"class.device::pin::SetRequest"* nonnull %8, i8 zeroext %36, %"class.std::__1::basic_string"* dereferenceable(24) %1, %"struct.device::pin::KeyAgreementResponse"* dereferenceable(64) %37) #13
  %38 = getelementptr inbounds %"class.base::OnceCallback.259", %"class.base::OnceCallback.259"* %2, i64 0, i32 0, i32 0, i32 0
  %39 = bitcast %"class.base::OnceCallback.259"* %2 to i64*
  %40 = load i64, i64* %39, align 8
  %41 = bitcast %"class.base::OnceCallback.259"* %9 to i64*
  store i64 %40, i64* %41, align 8
  store %"class.base::internal::BindStateBase"* null, %"class.base::internal::BindStateBase"** %38, align 8
  %42 = call i8* @_Znwm(i64 48) #14, !noalias !160
  %43 = bitcast i8* %42 to %"class.base::internal::BindStateBase"*
  call void @_ZN4base8internal13BindStateBaseC2EPFvvEPFvPKS1_E(%"class.base::internal::BindStateBase"* nonnull %43, void ()* bitcast (i8 (%"class.base::internal::BindStateBase"*, %"class.absl::optional.221"*)* @_ZN4base8internal7InvokerINS0_9BindStateIPFN4absl8optionalIN6device3pin13EmptyResponseEEERKNS4_IN4cbor5ValueEEEEJEEESE_E7RunOnceEPNS0_13BindStateBaseESD_ to void ()*), void (%"class.base::internal::BindStateBase"*)* nonnull @_ZN4base8internal9BindStateIPFN4absl8optionalIN6device3pin13EmptyResponseEEERKNS3_IN4cbor5ValueEEEEJEE7DestroyEPKNS0_13BindStateBaseE) #13, !noalias !160
  %44 = getelementptr inbounds i8, i8* %42, i64 32
  %45 = bitcast i8* %44 to i64*
  store i64 ptrtoint (i8 (%"class.absl::optional.221"*)* @_ZN6device3pin13EmptyResponse5ParseERKN4absl8optionalIN4cbor5ValueEEE to i64), i64* %45, align 8, !noalias !160
  %46 = bitcast %"class.base::OnceCallback.260"* %10 to i8**
  store i8* %42, i8** %46, align 8, !alias.scope !160
  call void @_ZN6device23FidoDeviceAuthenticator12RunOperationINS_3pin10SetRequestENS2_13EmptyResponseEEEvT_N4base12OnceCallbackIFvNS_22CtapDeviceResponseCodeEN4absl8optionalIT0_EEEEENS7_IFSC_RKNSA_IN4cbor5ValueEEEEEEPFbRKNSt3__16vectorIPKSG_NSM_9allocatorISP_EEEEE(%"class.device::FidoDeviceAuthenticator"* %0, %"class.device::pin::SetRequest"* nonnull byval(%"class.device::pin::SetRequest") align 8 %8, %"class.base::OnceCallback.259"* nonnull %9, %"class.base::OnceCallback.260"* nonnull %10, i1 (%"class.std::__1::vector.257"*)* null)
  %47 = getelementptr inbounds %"class.base::OnceCallback.260", %"class.base::OnceCallback.260"* %10, i64 0, i32 0
  call void @_ZN4base8internal12CallbackBaseD2Ev(%"class.base::internal::CallbackBase"* nonnull %47) #13
  %48 = getelementptr inbounds %"class.base::OnceCallback.259", %"class.base::OnceCallback.259"* %9, i64 0, i32 0
  call void @_ZN4base8internal12CallbackBaseD2Ev(%"class.base::internal::CallbackBase"* nonnull %48) #13
  br label %49

49:                                               ; preds = %34, %12
  ret void
}

; Function Attrs: nounwind ssp uwtable
define linkonce_odr hidden void @_ZN6device23FidoDeviceAuthenticator12RunOperationINS_3pin10SetRequestENS2_13EmptyResponseEEEvT_N4base12OnceCallbackIFvNS_22CtapDeviceResponseCodeEN4absl8optionalIT0_EEEEENS7_IFSC_RKNSA_IN4cbor5ValueEEEEEEPFbRKNSt3__16vectorIPKSG_NSM_9allocatorISP_EEEEE(%"class.device::FidoDeviceAuthenticator"*, %"class.device::pin::SetRequest"* byval(%"class.device::pin::SetRequest") align 8, %"class.base::OnceCallback.259"*, %"class.base::OnceCallback.260"*, i1 (%"class.std::__1::vector.257"*)*) local_unnamed_addr #0 comdat align 2 {
  %6 = alloca %"class.base::OnceCallback.259", align 8
  %7 = alloca %"class.base::OnceCallback.259", align 8
  %8 = alloca %"class.base::OnceCallback.260", align 8
  %9 = alloca %"class.base::internal::WeakReference", align 8
  %10 = alloca %"class.base::OnceCallback.259", align 8
  %11 = alloca %"class.base::WeakPtr.98", align 8
  %12 = ptrtoint i1 (%"class.std::__1::vector.257"*)* %4 to i64
  %13 = getelementptr inbounds %"class.device::FidoDeviceAuthenticator", %"class.device::FidoDeviceAuthenticator"* %0, i64 0, i32 1, i32 0, i32 0, i32 0
  %14 = bitcast %"class.device::FidoDevice"** %13 to i64*
  %15 = load i64, i64* %14, align 8
  %16 = bitcast %"class.base::OnceCallback.259"* %10 to i8*
  call void @llvm.lifetime.start.p0i8(i64 8, i8* nonnull %16) #13
  %17 = bitcast %"class.base::WeakPtr.98"* %11 to i8*
  call void @llvm.lifetime.start.p0i8(i64 16, i8* nonnull %17) #13
  %18 = bitcast %"class.base::internal::WeakReference"* %9 to i8*
  call void @llvm.lifetime.start.p0i8(i64 8, i8* nonnull %18) #13, !noalias !165
  %19 = getelementptr inbounds %"class.device::FidoDeviceAuthenticator", %"class.device::FidoDeviceAuthenticator"* %0, i64 0, i32 6, i32 0, i32 0
  call void @_ZNK4base8internal18WeakReferenceOwner6GetRefEv(%"class.base::internal::WeakReference"* nonnull sret %9, %"class.base::internal::WeakReferenceOwner"* %19) #13, !noalias !165
  %20 = getelementptr inbounds %"class.device::FidoDeviceAuthenticator", %"class.device::FidoDeviceAuthenticator"* %0, i64 0, i32 6, i32 0, i32 1
  %21 = load i64, i64* %20, align 8, !noalias !165
  %22 = getelementptr inbounds %"class.base::WeakPtr.98", %"class.base::WeakPtr.98"* %11, i64 0, i32 0
  call void @_ZN4base8internal11WeakPtrBaseC2ERKNS0_13WeakReferenceEm(%"class.base::internal::WeakPtrBase"* nonnull %22, %"class.base::internal::WeakReference"* nonnull dereferenceable(8) %9, i64 %21) #13
  call void @_ZN4base8internal13WeakReferenceD1Ev(%"class.base::internal::WeakReference"* nonnull %9) #13
  call void @llvm.lifetime.end.p0i8(i64 8, i8* nonnull %18) #13, !noalias !165
  %23 = call i8* @_Znwm(i64 72) #14, !noalias !168
  %24 = bitcast i8* %23 to %"class.base::internal::BindStateBase"*
  call void @_ZN4base8internal13BindStateBaseC2EPFvvEPFvPKS1_EPFbS5_NS1_21CancellationQueryModeEE(%"class.base::internal::BindStateBase"* nonnull %24, void ()* bitcast (void (%"class.base::internal::BindStateBase"*, i8, %"class.absl::optional.261"*)* @_ZN4base8internal7InvokerINS0_9BindStateIMN6device23FidoDeviceAuthenticatorEFvNS_12OnceCallbackIFvNS3_22CtapDeviceResponseCodeEN4absl8optionalINS3_3pin13EmptyResponseEEEEEES6_SB_EJNS_7WeakPtrIS4_EESD_EEESC_E7RunOnceEPNS0_13BindStateBaseES6_OSB_ to void ()*), void (%"class.base::internal::BindStateBase"*)* nonnull @_ZN4base8internal9BindStateIMN6device23FidoDeviceAuthenticatorEFvNS_12OnceCallbackIFvNS2_22CtapDeviceResponseCodeEN4absl8optionalINS2_3pin13EmptyResponseEEEEEES5_SA_EJNS_7WeakPtrIS3_EESC_EE7DestroyEPKNS0_13BindStateBaseE, i1 (%"class.base::internal::BindStateBase"*, i32)* nonnull @_ZN4base8internal23QueryCancellationTraitsINS0_9BindStateIMN6device23FidoDeviceAuthenticatorEFvNS_12OnceCallbackIFvNS3_22CtapDeviceResponseCodeEN4absl8optionalINS3_3pin13EmptyResponseEEEEEES6_SB_EJNS_7WeakPtrIS4_EESD_EEEEEbPKNS0_13BindStateBaseENSJ_21CancellationQueryModeE) #13, !noalias !168
  %25 = getelementptr inbounds i8, i8* %23, i64 32
  %26 = bitcast i8* %25 to <2 x i64>*
  store <2 x i64> <i64 ptrtoint (void (%"class.device::FidoDeviceAuthenticator"*, %"class.base::OnceCallback.259"*, i8, i8)* @_ZN6device23FidoDeviceAuthenticator19OperationClearProxyIJNS_22CtapDeviceResponseCodeEN4absl8optionalINS_3pin13EmptyResponseEEEEEEvN4base12OnceCallbackIFvDpT_EEESB_ to i64), i64 0>, <2 x i64>* %26, align 8, !noalias !168
  %27 = getelementptr inbounds i8, i8* %23, i64 48
  %28 = bitcast i8* %27 to %"class.base::internal::WeakReference"*
  %29 = getelementptr inbounds %"class.base::WeakPtr.98", %"class.base::WeakPtr.98"* %11, i64 0, i32 0, i32 0
  call void @_ZN4base8internal13WeakReferenceC1EOS1_(%"class.base::internal::WeakReference"* %28, %"class.base::internal::WeakReference"* nonnull dereferenceable(8) %29) #13, !noalias !168
  %30 = getelementptr inbounds i8, i8* %23, i64 56
  %31 = bitcast i8* %30 to i64*
  %32 = getelementptr inbounds %"class.base::WeakPtr.98", %"class.base::WeakPtr.98"* %11, i64 0, i32 0, i32 1
  %33 = load i64, i64* %32, align 8, !noalias !168
  store i64 %33, i64* %31, align 8, !noalias !168
  %34 = getelementptr inbounds i8, i8* %23, i64 64
  %35 = getelementptr inbounds %"class.base::OnceCallback.259", %"class.base::OnceCallback.259"* %2, i64 0, i32 0, i32 0, i32 0
  %36 = bitcast %"class.base::OnceCallback.259"* %2 to i64*
  %37 = load i64, i64* %36, align 8, !noalias !168
  %38 = bitcast i8* %34 to i64*
  store i64 %37, i64* %38, align 8, !noalias !168
  store %"class.base::internal::BindStateBase"* null, %"class.base::internal::BindStateBase"** %35, align 8, !noalias !168
  %39 = bitcast %"class.base::OnceCallback.259"* %7 to i8*
  call void @llvm.lifetime.start.p0i8(i64 8, i8* nonnull %39)
  %40 = bitcast %"class.base::OnceCallback.260"* %8 to i8*
  call void @llvm.lifetime.start.p0i8(i64 8, i8* nonnull %40)
  %41 = call i8* @_Znwm(i64 200) #14
  %42 = getelementptr inbounds %"class.device::pin::SetRequest", %"class.device::pin::SetRequest"* %1, i64 0, i32 0
  %43 = getelementptr inbounds %"class.base::OnceCallback.259", %"class.base::OnceCallback.259"* %10, i64 0, i32 0, i32 0, i32 0
  %44 = ptrtoint i8* %23 to i64
  store %"class.base::internal::BindStateBase"* null, %"class.base::internal::BindStateBase"** %43, align 8
  %45 = getelementptr inbounds %"class.base::OnceCallback.260", %"class.base::OnceCallback.260"* %3, i64 0, i32 0, i32 0, i32 0
  %46 = bitcast %"class.base::OnceCallback.260"* %3 to i64*
  %47 = load i64, i64* %46, align 8
  store %"class.base::internal::BindStateBase"* null, %"class.base::internal::BindStateBase"** %45, align 8
  %48 = bitcast %"class.base::OnceCallback.259"* %6 to i8*
  call void @llvm.lifetime.start.p0i8(i64 8, i8* nonnull %48) #13
  %49 = getelementptr inbounds %"class.base::OnceCallback.259", %"class.base::OnceCallback.259"* %7, i64 0, i32 0, i32 0, i32 0
  store %"class.base::internal::BindStateBase"* null, %"class.base::internal::BindStateBase"** %49, align 8
  %50 = bitcast i8* %41 to i32 (...)***
  %51 = getelementptr inbounds i8, i8* %41, i64 8
  store i8 0, i8* %51, align 4
  %52 = getelementptr inbounds i8, i8* %41, i64 16
  %53 = bitcast i8* %52 to i64*
  store i64 %15, i64* %53, align 8
  %54 = getelementptr inbounds i8, i8* %41, i64 24
  call void @llvm.memcpy.p0i8.p0i8.i64(i8* align 8 %54, i8* nonnull align 8 %42, i64 129, i1 false)
  %55 = getelementptr inbounds i8, i8* %41, i64 160
  %56 = getelementptr inbounds %"class.base::OnceCallback.259", %"class.base::OnceCallback.259"* %6, i64 0, i32 0, i32 0, i32 0
  %57 = bitcast i8* %55 to i64*
  store i64 %44, i64* %57, align 8
  store %"class.base::internal::BindStateBase"* null, %"class.base::internal::BindStateBase"** %56, align 8
  %58 = getelementptr inbounds %"class.base::OnceCallback.259", %"class.base::OnceCallback.259"* %6, i64 0, i32 0
  call void @_ZN4base8internal12CallbackBaseD2Ev(%"class.base::internal::CallbackBase"* nonnull %58) #13
  store i32 (...)** bitcast (i8** getelementptr inbounds ({ [6 x i8*] }, { [6 x i8*] }* @_ZTVN6device20Ctap2DeviceOperationINS_3pin10SetRequestENS1_13EmptyResponseEEE, i64 0, inrange i32 0, i64 2) to i32 (...)**), i32 (...)*** %50, align 8
  %59 = getelementptr inbounds i8, i8* %41, i64 168
  %60 = getelementptr inbounds %"class.base::OnceCallback.260", %"class.base::OnceCallback.260"* %8, i64 0, i32 0, i32 0, i32 0
  %61 = bitcast i8* %59 to i64*
  store i64 %47, i64* %61, align 8
  store %"class.base::internal::BindStateBase"* null, %"class.base::internal::BindStateBase"** %60, align 8
  %62 = getelementptr inbounds i8, i8* %41, i64 176
  %63 = bitcast i8* %62 to i64*
  store i64 %12, i64* %63, align 8
  %64 = getelementptr inbounds i8, i8* %41, i64 184
  %65 = bitcast i8* %64 to %"class.base::internal::WeakPtrFactoryBase"*
  %66 = ptrtoint i8* %41 to i64
  call void @_ZN4base8internal18WeakPtrFactoryBaseC2Em(%"class.base::internal::WeakPtrFactoryBase"* %65, i64 %66) #13
  call void @llvm.lifetime.end.p0i8(i64 8, i8* nonnull %48) #13
  %67 = getelementptr inbounds %"class.base::OnceCallback.260", %"class.base::OnceCallback.260"* %8, i64 0, i32 0
  call void @_ZN4base8internal12CallbackBaseD2Ev(%"class.base::internal::CallbackBase"* nonnull %67) #13
  %68 = getelementptr inbounds %"class.base::OnceCallback.259", %"class.base::OnceCallback.259"* %7, i64 0, i32 0
  call void @_ZN4base8internal12CallbackBaseD2Ev(%"class.base::internal::CallbackBase"* nonnull %68) #13
  call void @llvm.lifetime.end.p0i8(i64 8, i8* nonnull %39)
  call void @llvm.lifetime.end.p0i8(i64 8, i8* nonnull %40)
  %69 = getelementptr inbounds %"class.device::FidoDeviceAuthenticator", %"class.device::FidoDeviceAuthenticator"* %0, i64 0, i32 4, i32 0, i32 0, i32 0
  %70 = load %"class.device::GenericDeviceOperation"*, %"class.device::GenericDeviceOperation"** %69, align 8
  %71 = bitcast %"class.device::GenericDeviceOperation"** %69 to i8**
  store i8* %41, i8** %71, align 8
  %72 = icmp eq %"class.device::GenericDeviceOperation"* %70, null
  br i1 %72, label %78, label %73

73:                                               ; preds = %5
  %74 = bitcast %"class.device::GenericDeviceOperation"* %70 to void (%"class.device::GenericDeviceOperation"*)***
  %75 = load void (%"class.device::GenericDeviceOperation"*)**, void (%"class.device::GenericDeviceOperation"*)*** %74, align 8
  %76 = getelementptr inbounds void (%"class.device::GenericDeviceOperation"*)*, void (%"class.device::GenericDeviceOperation"*)** %75, i64 1
  %77 = load void (%"class.device::GenericDeviceOperation"*)*, void (%"class.device::GenericDeviceOperation"*)** %76, align 8
  call void %77(%"class.device::GenericDeviceOperation"* nonnull %70) #13
  br label %78

78:                                               ; preds = %73, %5
  %79 = getelementptr inbounds %"class.base::OnceCallback.259", %"class.base::OnceCallback.259"* %10, i64 0, i32 0
  call void @_ZN4base8internal12CallbackBaseD2Ev(%"class.base::internal::CallbackBase"* nonnull %79) #13
  call void @_ZN4base8internal11WeakPtrBaseD2Ev(%"class.base::internal::WeakPtrBase"* nonnull %22) #13
  call void @llvm.lifetime.end.p0i8(i64 16, i8* nonnull %17) #13
  call void @llvm.lifetime.end.p0i8(i64 8, i8* nonnull %16) #13
  %80 = load %"class.device::GenericDeviceOperation"*, %"class.device::GenericDeviceOperation"** %69, align 8
  %81 = bitcast %"class.device::GenericDeviceOperation"* %80 to void (%"class.device::GenericDeviceOperation"*)***
  %82 = load void (%"class.device::GenericDeviceOperation"*)**, void (%"class.device::GenericDeviceOperation"*)*** %81, align 8
  %83 = getelementptr inbounds void (%"class.device::GenericDeviceOperation"*)*, void (%"class.device::GenericDeviceOperation"*)** %82, i64 2
  %84 = load void (%"class.device::GenericDeviceOperation"*)*, void (%"class.device::GenericDeviceOperation"*)** %83, align 8
  call void %84(%"class.device::GenericDeviceOperation"* %80) #13
  ret void
}

declare void @_ZN6device3pin10SetRequestC1ENS_17PINUVAuthProtocolERKNSt3__112basic_stringIcNS3_11char_traitsIcEENS3_9allocatorIcEEEERKNS0_20KeyAgreementResponseE(%"class.device::pin::SetRequest"*, i8 zeroext, %"class.std::__1::basic_string"* dereferenceable(24), %"struct.device::pin::KeyAgreementResponse"* dereferenceable(64)) unnamed_addr #2

; Function Attrs: nounwind ssp uwtable
define hidden void @_ZN6device23FidoDeviceAuthenticator9ChangePINERKNSt3__112basic_stringIcNS1_11char_traitsIcEENS1_9allocatorIcEEEES9_N4base12OnceCallbackIFvNS_22CtapDeviceResponseCodeEN4absl8optionalINS_3pin13EmptyResponseEEEEEE(%"class.device::FidoDeviceAuthenticator"*, %"class.std::__1::basic_string"* dereferenceable(24), %"class.std::__1::basic_string"* dereferenceable(24), %"class.base::OnceCallback.259"*) unnamed_addr #0 align 2 {
  %5 = alloca %"class.base::OnceCallback.202", align 8
  %6 = alloca %"class.base::OnceCallback.271", align 8
  %7 = alloca %"class.base::internal::WeakReference", align 8
  %8 = alloca %"class.base::OnceCallback.202", align 8
  %9 = alloca <2 x i64>, align 16
  %10 = bitcast <2 x i64>* %9 to { i64, i64 }*
  %11 = alloca %"class.base::WeakPtr.98", align 8
  %12 = bitcast <2 x i64>* %9 to i8*
  call void @llvm.lifetime.start.p0i8(i64 16, i8* nonnull %12) #13
  store <2 x i64> <i64 ptrtoint (void (%"class.device::FidoDeviceAuthenticator"*, %"class.std::__1::basic_string"*, %"class.std::__1::basic_string"*, %"class.base::OnceCallback.259"*, i8, %"class.absl::optional.189"*)* @_ZN6device23FidoDeviceAuthenticator30OnHaveEphemeralKeyForChangePINENSt3__112basic_stringIcNS1_11char_traitsIcEENS1_9allocatorIcEEEES7_N4base12OnceCallbackIFvNS_22CtapDeviceResponseCodeEN4absl8optionalINS_3pin13EmptyResponseEEEEEESA_NSC_INSD_20KeyAgreementResponseEEE to i64), i64 0>, <2 x i64>* %9, align 16
  %13 = bitcast %"class.base::WeakPtr.98"* %11 to i8*
  call void @llvm.lifetime.start.p0i8(i64 16, i8* nonnull %13) #13
  %14 = bitcast %"class.base::internal::WeakReference"* %7 to i8*
  call void @llvm.lifetime.start.p0i8(i64 8, i8* nonnull %14) #13, !noalias !173
  %15 = getelementptr inbounds %"class.device::FidoDeviceAuthenticator", %"class.device::FidoDeviceAuthenticator"* %0, i64 0, i32 6, i32 0, i32 0
  call void @_ZNK4base8internal18WeakReferenceOwner6GetRefEv(%"class.base::internal::WeakReference"* nonnull sret %7, %"class.base::internal::WeakReferenceOwner"* %15) #13, !noalias !173
  %16 = getelementptr inbounds %"class.device::FidoDeviceAuthenticator", %"class.device::FidoDeviceAuthenticator"* %0, i64 0, i32 6, i32 0, i32 1
  %17 = load i64, i64* %16, align 8, !noalias !173
  %18 = getelementptr inbounds %"class.base::WeakPtr.98", %"class.base::WeakPtr.98"* %11, i64 0, i32 0
  call void @_ZN4base8internal11WeakPtrBaseC2ERKNS0_13WeakReferenceEm(%"class.base::internal::WeakPtrBase"* nonnull %18, %"class.base::internal::WeakReference"* nonnull dereferenceable(8) %7, i64 %17) #13
  call void @_ZN4base8internal13WeakReferenceD1Ev(%"class.base::internal::WeakReference"* nonnull %7) #13
  call void @llvm.lifetime.end.p0i8(i64 8, i8* nonnull %14) #13, !noalias !173
  %19 = call %"struct.base::internal::BindState.728"* @_ZN4base8internal9BindStateIMN6device23FidoDeviceAuthenticatorEFvNSt3__112basic_stringIcNS4_11char_traitsIcEENS4_9allocatorIcEEEESA_NS_12OnceCallbackIFvNS2_22CtapDeviceResponseCodeEN4absl8optionalINS2_3pin13EmptyResponseEEEEEESC_NSE_INSF_20KeyAgreementResponseEEEEJNS_7WeakPtrIS3_EESA_SA_SJ_EE6CreateISN_JSP_KSA_SS_SJ_EEEPSQ_PFvvEOT_DpOT0_(void ()* bitcast (void (%"class.base::internal::BindStateBase"*, i8, %"class.absl::optional.189"*)* @_ZN4base8internal7InvokerINS0_9BindStateIMN6device23FidoDeviceAuthenticatorEFvNSt3__112basic_stringIcNS5_11char_traitsIcEENS5_9allocatorIcEEEESB_NS_12OnceCallbackIFvNS3_22CtapDeviceResponseCodeEN4absl8optionalINS3_3pin13EmptyResponseEEEEEESD_NSF_INSG_20KeyAgreementResponseEEEEJNS_7WeakPtrIS4_EESB_SB_SK_EEEFvSD_SM_EE7RunOnceEPNS0_13BindStateBaseESD_OSM_ to void ()*), { i64, i64 }* nonnull dereferenceable(16) %10, %"class.base::WeakPtr.98"* nonnull dereferenceable(16) %11, %"class.std::__1::basic_string"* dereferenceable(24) %1, %"class.std::__1::basic_string"* dereferenceable(24) %2, %"class.base::OnceCallback.259"* dereferenceable(8) %3) #13, !noalias !176
  %20 = getelementptr inbounds %"struct.base::internal::BindState.728", %"struct.base::internal::BindState.728"* %19, i64 0, i32 0
  %21 = getelementptr inbounds %"class.base::OnceCallback.202", %"class.base::OnceCallback.202"* %8, i64 0, i32 0, i32 0, i32 0
  store %"class.base::internal::BindStateBase"* %20, %"class.base::internal::BindStateBase"** %21, align 8, !alias.scope !176
  %22 = bitcast %"class.base::OnceCallback.202"* %5 to i8*
  call void @llvm.lifetime.start.p0i8(i64 8, i8* nonnull %22)
  %23 = bitcast %"class.base::OnceCallback.271"* %6 to i8*
  call void @llvm.lifetime.start.p0i8(i64 8, i8* nonnull %23)
  %24 = getelementptr inbounds %"class.device::FidoDeviceAuthenticator", %"class.device::FidoDeviceAuthenticator"* %0, i64 0, i32 5, i32 0, i32 0, i32 0, i32 0
  %25 = load i8, i8* %24, align 1, !range !2
  %26 = icmp eq i8 %25, 0
  br i1 %26, label %27, label %28, !prof !16

27:                                               ; preds = %4
  call void @llvm.trap() #13
  unreachable

28:                                               ; preds = %4
  %29 = ptrtoint %"struct.base::internal::BindState.728"* %19 to i64
  %30 = getelementptr inbounds %"class.device::FidoDeviceAuthenticator", %"class.device::FidoDeviceAuthenticator"* %0, i64 0, i32 5, i32 0, i32 0, i32 0, i32 1, i32 0
  %31 = load i8, i8* %30, align 1
  %32 = bitcast %"class.base::OnceCallback.202"* %5 to i64*
  store i64 %29, i64* %32, align 8
  store %"class.base::internal::BindStateBase"* null, %"class.base::internal::BindStateBase"** %21, align 8
  %33 = call i8* @_Znwm(i64 48) #14, !noalias !181
  %34 = bitcast i8* %33 to %"class.base::internal::BindStateBase"*
  call void @_ZN4base8internal13BindStateBaseC2EPFvvEPFvPKS1_E(%"class.base::internal::BindStateBase"* nonnull %34, void ()* bitcast (void (%"class.absl::optional.189"*, %"class.base::internal::BindStateBase"*, %"class.absl::optional.221"*)* @_ZN4base8internal7InvokerINS0_9BindStateIPFN4absl8optionalIN6device3pin20KeyAgreementResponseEEERKNS4_IN4cbor5ValueEEEEJEEESE_E7RunOnceEPNS0_13BindStateBaseESD_ to void ()*), void (%"class.base::internal::BindStateBase"*)* nonnull @_ZN4base8internal9BindStateIPFN4absl8optionalIN6device3pin20KeyAgreementResponseEEERKNS3_IN4cbor5ValueEEEEJEE7DestroyEPKNS0_13BindStateBaseE) #13, !noalias !181
  %35 = getelementptr inbounds i8, i8* %33, i64 32
  %36 = bitcast i8* %35 to i64*
  store i64 ptrtoint (void (%"class.absl::optional.189"*, %"class.absl::optional.221"*)* @_ZN6device3pin20KeyAgreementResponse5ParseERKN4absl8optionalIN4cbor5ValueEEE to i64), i64* %36, align 8, !noalias !181
  %37 = bitcast %"class.base::OnceCallback.271"* %6 to i8**
  store i8* %33, i8** %37, align 8, !alias.scope !181
  call void @_ZN6device23FidoDeviceAuthenticator12RunOperationINS_3pin19KeyAgreementRequestENS2_20KeyAgreementResponseEEEvT_N4base12OnceCallbackIFvNS_22CtapDeviceResponseCodeEN4absl8optionalIT0_EEEEENS7_IFSC_RKNSA_IN4cbor5ValueEEEEEEPFbRKNSt3__16vectorIPKSG_NSM_9allocatorISP_EEEEE(%"class.device::FidoDeviceAuthenticator"* %0, i8 %31, %"class.base::OnceCallback.202"* nonnull %5, %"class.base::OnceCallback.271"* nonnull %6, i1 (%"class.std::__1::vector.257"*)* null) #13
  %38 = getelementptr inbounds %"class.base::OnceCallback.271", %"class.base::OnceCallback.271"* %6, i64 0, i32 0
  call void @_ZN4base8internal12CallbackBaseD2Ev(%"class.base::internal::CallbackBase"* nonnull %38) #13
  %39 = getelementptr inbounds %"class.base::OnceCallback.202", %"class.base::OnceCallback.202"* %5, i64 0, i32 0
  call void @_ZN4base8internal12CallbackBaseD2Ev(%"class.base::internal::CallbackBase"* nonnull %39) #13
  call void @llvm.lifetime.end.p0i8(i64 8, i8* nonnull %22)
  call void @llvm.lifetime.end.p0i8(i64 8, i8* nonnull %23)
  %40 = getelementptr inbounds %"class.base::OnceCallback.202", %"class.base::OnceCallback.202"* %8, i64 0, i32 0
  call void @_ZN4base8internal12CallbackBaseD2Ev(%"class.base::internal::CallbackBase"* nonnull %40) #13
  call void @_ZN4base8internal11WeakPtrBaseD2Ev(%"class.base::internal::WeakPtrBase"* nonnull %18) #13
  call void @llvm.lifetime.end.p0i8(i64 16, i8* nonnull %13) #13
  call void @llvm.lifetime.end.p0i8(i64 16, i8* nonnull %12) #13
  ret void
}

; Function Attrs: nounwind ssp uwtable
define hidden void @_ZN6device23FidoDeviceAuthenticator30OnHaveEphemeralKeyForChangePINENSt3__112basic_stringIcNS1_11char_traitsIcEENS1_9allocatorIcEEEES7_N4base12OnceCallbackIFvNS_22CtapDeviceResponseCodeEN4absl8optionalINS_3pin13EmptyResponseEEEEEESA_NSC_INSD_20KeyAgreementResponseEEE(%"class.device::FidoDeviceAuthenticator"*, %"class.std::__1::basic_string"*, %"class.std::__1::basic_string"*, %"class.base::OnceCallback.259"* nocapture, i8 zeroext, %"class.absl::optional.189"* byval(%"class.absl::optional.189") align 8) #0 align 2 {
  %7 = alloca %"class.absl::optional.261", align 1
  %8 = alloca %"class.base::OnceCallback.259", align 8
  %9 = alloca %"class.device::pin::ChangeRequest", align 8
  %10 = alloca %"class.base::OnceCallback.259", align 8
  %11 = alloca %"class.base::OnceCallback.260", align 8
  %12 = icmp eq i8 %4, 0
  br i1 %12, label %25, label %13

13:                                               ; preds = %6
  %14 = getelementptr inbounds %"class.absl::optional.261", %"class.absl::optional.261"* %7, i64 0, i32 0, i32 0, i32 0, i32 0
  call void @llvm.lifetime.start.p0i8(i64 2, i8* nonnull %14)
  store i8 0, i8* %14, align 1
  %15 = bitcast %"class.base::OnceCallback.259"* %8 to i8*
  call void @llvm.lifetime.start.p0i8(i64 8, i8* nonnull %15) #13
  %16 = getelementptr inbounds %"class.base::OnceCallback.259", %"class.base::OnceCallback.259"* %3, i64 0, i32 0, i32 0, i32 0
  %17 = bitcast %"class.base::OnceCallback.259"* %3 to i64*
  %18 = load i64, i64* %17, align 8
  %19 = bitcast %"class.base::OnceCallback.259"* %8 to i64*
  store i64 %18, i64* %19, align 8
  store %"class.base::internal::BindStateBase"* null, %"class.base::internal::BindStateBase"** %16, align 8
  %20 = getelementptr inbounds %"class.base::OnceCallback.259", %"class.base::OnceCallback.259"* %8, i64 0, i32 0
  %21 = inttoptr i64 %18 to %"class.base::internal::BindStateBase"*
  %22 = getelementptr inbounds %"class.base::internal::BindStateBase", %"class.base::internal::BindStateBase"* %21, i64 0, i32 1
  %23 = bitcast void ()** %22 to void (%"class.base::internal::BindStateBase"*, i8, %"class.absl::optional.261"*)**
  %24 = load void (%"class.base::internal::BindStateBase"*, i8, %"class.absl::optional.261"*)*, void (%"class.base::internal::BindStateBase"*, i8, %"class.absl::optional.261"*)** %23, align 8
  call void %24(%"class.base::internal::BindStateBase"* %21, i8 zeroext %4, %"class.absl::optional.261"* nonnull dereferenceable(2) %7) #13
  call void @_ZN4base8internal12CallbackBaseD2Ev(%"class.base::internal::CallbackBase"* nonnull %20) #13
  call void @llvm.lifetime.end.p0i8(i64 8, i8* nonnull %15) #13
  call void @llvm.lifetime.end.p0i8(i64 2, i8* nonnull %14)
  br label %50

25:                                               ; preds = %6
  %26 = getelementptr inbounds %"class.device::FidoDeviceAuthenticator", %"class.device::FidoDeviceAuthenticator"* %0, i64 0, i32 5, i32 0, i32 0, i32 0, i32 0
  %27 = load i8, i8* %26, align 1, !range !2
  %28 = icmp eq i8 %27, 0
  br i1 %28, label %29, label %30, !prof !16

29:                                               ; preds = %25
  tail call void @llvm.trap() #13
  unreachable

30:                                               ; preds = %25
  %31 = getelementptr inbounds %"class.absl::optional.189", %"class.absl::optional.189"* %5, i64 0, i32 0, i32 0, i32 0, i32 0
  %32 = load i8, i8* %31, align 8, !range !2
  %33 = icmp eq i8 %32, 0
  br i1 %33, label %34, label %35, !prof !16

34:                                               ; preds = %30
  tail call void @llvm.trap() #13
  unreachable

35:                                               ; preds = %30
  %36 = getelementptr inbounds %"class.device::FidoDeviceAuthenticator", %"class.device::FidoDeviceAuthenticator"* %0, i64 0, i32 5, i32 0, i32 0, i32 0, i32 1, i32 0
  %37 = load i8, i8* %36, align 1
  %38 = getelementptr inbounds %"class.absl::optional.189", %"class.absl::optional.189"* %5, i64 0, i32 0, i32 0, i32 0, i32 1, i32 0
  call void @_ZN6device3pin13ChangeRequestC1ENS_17PINUVAuthProtocolERKNSt3__112basic_stringIcNS3_11char_traitsIcEENS3_9allocatorIcEEEESB_RKNS0_20KeyAgreementResponseE(%"class.device::pin::ChangeRequest"* nonnull %9, i8 zeroext %37, %"class.std::__1::basic_string"* dereferenceable(24) %1, %"class.std::__1::basic_string"* dereferenceable(24) %2, %"struct.device::pin::KeyAgreementResponse"* dereferenceable(64) %38) #13
  %39 = getelementptr inbounds %"class.base::OnceCallback.259", %"class.base::OnceCallback.259"* %3, i64 0, i32 0, i32 0, i32 0
  %40 = bitcast %"class.base::OnceCallback.259"* %3 to i64*
  %41 = load i64, i64* %40, align 8
  %42 = bitcast %"class.base::OnceCallback.259"* %10 to i64*
  store i64 %41, i64* %42, align 8
  store %"class.base::internal::BindStateBase"* null, %"class.base::internal::BindStateBase"** %39, align 8
  %43 = call i8* @_Znwm(i64 48) #14, !noalias !186
  %44 = bitcast i8* %43 to %"class.base::internal::BindStateBase"*
  call void @_ZN4base8internal13BindStateBaseC2EPFvvEPFvPKS1_E(%"class.base::internal::BindStateBase"* nonnull %44, void ()* bitcast (i8 (%"class.base::internal::BindStateBase"*, %"class.absl::optional.221"*)* @_ZN4base8internal7InvokerINS0_9BindStateIPFN4absl8optionalIN6device3pin13EmptyResponseEEERKNS4_IN4cbor5ValueEEEEJEEESE_E7RunOnceEPNS0_13BindStateBaseESD_ to void ()*), void (%"class.base::internal::BindStateBase"*)* nonnull @_ZN4base8internal9BindStateIPFN4absl8optionalIN6device3pin13EmptyResponseEEERKNS3_IN4cbor5ValueEEEEJEE7DestroyEPKNS0_13BindStateBaseE) #13, !noalias !186
  %45 = getelementptr inbounds i8, i8* %43, i64 32
  %46 = bitcast i8* %45 to i64*
  store i64 ptrtoint (i8 (%"class.absl::optional.221"*)* @_ZN6device3pin13EmptyResponse5ParseERKN4absl8optionalIN4cbor5ValueEEE to i64), i64* %46, align 8, !noalias !186
  %47 = bitcast %"class.base::OnceCallback.260"* %11 to i8**
  store i8* %43, i8** %47, align 8, !alias.scope !186
  call void @_ZN6device23FidoDeviceAuthenticator12RunOperationINS_3pin13ChangeRequestENS2_13EmptyResponseEEEvT_N4base12OnceCallbackIFvNS_22CtapDeviceResponseCodeEN4absl8optionalIT0_EEEEENS7_IFSC_RKNSA_IN4cbor5ValueEEEEEEPFbRKNSt3__16vectorIPKSG_NSM_9allocatorISP_EEEEE(%"class.device::FidoDeviceAuthenticator"* %0, %"class.device::pin::ChangeRequest"* nonnull byval(%"class.device::pin::ChangeRequest") align 8 %9, %"class.base::OnceCallback.259"* nonnull %10, %"class.base::OnceCallback.260"* nonnull %11, i1 (%"class.std::__1::vector.257"*)* null)
  %48 = getelementptr inbounds %"class.base::OnceCallback.260", %"class.base::OnceCallback.260"* %11, i64 0, i32 0
  call void @_ZN4base8internal12CallbackBaseD2Ev(%"class.base::internal::CallbackBase"* nonnull %48) #13
  %49 = getelementptr inbounds %"class.base::OnceCallback.259", %"class.base::OnceCallback.259"* %10, i64 0, i32 0
  call void @_ZN4base8internal12CallbackBaseD2Ev(%"class.base::internal::CallbackBase"* nonnull %49) #13
  br label %50

50:                                               ; preds = %35, %13
  ret void
}

; Function Attrs: nounwind ssp uwtable
define linkonce_odr hidden void @_ZN6device23FidoDeviceAuthenticator12RunOperationINS_3pin13ChangeRequestENS2_13EmptyResponseEEEvT_N4base12OnceCallbackIFvNS_22CtapDeviceResponseCodeEN4absl8optionalIT0_EEEEENS7_IFSC_RKNSA_IN4cbor5ValueEEEEEEPFbRKNSt3__16vectorIPKSG_NSM_9allocatorISP_EEEEE(%"class.device::FidoDeviceAuthenticator"*, %"class.device::pin::ChangeRequest"* byval(%"class.device::pin::ChangeRequest") align 8, %"class.base::OnceCallback.259"*, %"class.base::OnceCallback.260"*, i1 (%"class.std::__1::vector.257"*)*) local_unnamed_addr #0 comdat align 2 {
  %6 = alloca %"class.base::OnceCallback.259", align 8
  %7 = alloca %"class.base::OnceCallback.259", align 8
  %8 = alloca %"class.base::OnceCallback.260", align 8
  %9 = alloca %"class.base::internal::WeakReference", align 8
  %10 = alloca %"class.base::OnceCallback.259", align 8
  %11 = alloca %"class.base::WeakPtr.98", align 8
  %12 = ptrtoint i1 (%"class.std::__1::vector.257"*)* %4 to i64
  %13 = getelementptr inbounds %"class.device::FidoDeviceAuthenticator", %"class.device::FidoDeviceAuthenticator"* %0, i64 0, i32 1, i32 0, i32 0, i32 0
  %14 = bitcast %"class.device::FidoDevice"** %13 to i64*
  %15 = load i64, i64* %14, align 8
  %16 = bitcast %"class.base::OnceCallback.259"* %10 to i8*
  call void @llvm.lifetime.start.p0i8(i64 8, i8* nonnull %16) #13
  %17 = bitcast %"class.base::WeakPtr.98"* %11 to i8*
  call void @llvm.lifetime.start.p0i8(i64 16, i8* nonnull %17) #13
  %18 = bitcast %"class.base::internal::WeakReference"* %9 to i8*
  call void @llvm.lifetime.start.p0i8(i64 8, i8* nonnull %18) #13, !noalias !191
  %19 = getelementptr inbounds %"class.device::FidoDeviceAuthenticator", %"class.device::FidoDeviceAuthenticator"* %0, i64 0, i32 6, i32 0, i32 0
  call void @_ZNK4base8internal18WeakReferenceOwner6GetRefEv(%"class.base::internal::WeakReference"* nonnull sret %9, %"class.base::internal::WeakReferenceOwner"* %19) #13, !noalias !191
  %20 = getelementptr inbounds %"class.device::FidoDeviceAuthenticator", %"class.device::FidoDeviceAuthenticator"* %0, i64 0, i32 6, i32 0, i32 1
  %21 = load i64, i64* %20, align 8, !noalias !191
  %22 = getelementptr inbounds %"class.base::WeakPtr.98", %"class.base::WeakPtr.98"* %11, i64 0, i32 0
  call void @_ZN4base8internal11WeakPtrBaseC2ERKNS0_13WeakReferenceEm(%"class.base::internal::WeakPtrBase"* nonnull %22, %"class.base::internal::WeakReference"* nonnull dereferenceable(8) %9, i64 %21) #13
  call void @_ZN4base8internal13WeakReferenceD1Ev(%"class.base::internal::WeakReference"* nonnull %9) #13
  call void @llvm.lifetime.end.p0i8(i64 8, i8* nonnull %18) #13, !noalias !191
  %23 = call i8* @_Znwm(i64 72) #14, !noalias !194
  %24 = bitcast i8* %23 to %"class.base::internal::BindStateBase"*
  call void @_ZN4base8internal13BindStateBaseC2EPFvvEPFvPKS1_EPFbS5_NS1_21CancellationQueryModeEE(%"class.base::internal::BindStateBase"* nonnull %24, void ()* bitcast (void (%"class.base::internal::BindStateBase"*, i8, %"class.absl::optional.261"*)* @_ZN4base8internal7InvokerINS0_9BindStateIMN6device23FidoDeviceAuthenticatorEFvNS_12OnceCallbackIFvNS3_22CtapDeviceResponseCodeEN4absl8optionalINS3_3pin13EmptyResponseEEEEEES6_SB_EJNS_7WeakPtrIS4_EESD_EEESC_E7RunOnceEPNS0_13BindStateBaseES6_OSB_ to void ()*), void (%"class.base::internal::BindStateBase"*)* nonnull @_ZN4base8internal9BindStateIMN6device23FidoDeviceAuthenticatorEFvNS_12OnceCallbackIFvNS2_22CtapDeviceResponseCodeEN4absl8optionalINS2_3pin13EmptyResponseEEEEEES5_SA_EJNS_7WeakPtrIS3_EESC_EE7DestroyEPKNS0_13BindStateBaseE, i1 (%"class.base::internal::BindStateBase"*, i32)* nonnull @_ZN4base8internal23QueryCancellationTraitsINS0_9BindStateIMN6device23FidoDeviceAuthenticatorEFvNS_12OnceCallbackIFvNS3_22CtapDeviceResponseCodeEN4absl8optionalINS3_3pin13EmptyResponseEEEEEES6_SB_EJNS_7WeakPtrIS4_EESD_EEEEEbPKNS0_13BindStateBaseENSJ_21CancellationQueryModeE) #13, !noalias !194
  %25 = getelementptr inbounds i8, i8* %23, i64 32
  %26 = bitcast i8* %25 to <2 x i64>*
  store <2 x i64> <i64 ptrtoint (void (%"class.device::FidoDeviceAuthenticator"*, %"class.base::OnceCallback.259"*, i8, i8)* @_ZN6device23FidoDeviceAuthenticator19OperationClearProxyIJNS_22CtapDeviceResponseCodeEN4absl8optionalINS_3pin13EmptyResponseEEEEEEvN4base12OnceCallbackIFvDpT_EEESB_ to i64), i64 0>, <2 x i64>* %26, align 8, !noalias !194
  %27 = getelementptr inbounds i8, i8* %23, i64 48
  %28 = bitcast i8* %27 to %"class.base::internal::WeakReference"*
  %29 = getelementptr inbounds %"class.base::WeakPtr.98", %"class.base::WeakPtr.98"* %11, i64 0, i32 0, i32 0
  call void @_ZN4base8internal13WeakReferenceC1EOS1_(%"class.base::internal::WeakReference"* %28, %"class.base::internal::WeakReference"* nonnull dereferenceable(8) %29) #13, !noalias !194
  %30 = getelementptr inbounds i8, i8* %23, i64 56
  %31 = bitcast i8* %30 to i64*
  %32 = getelementptr inbounds %"class.base::WeakPtr.98", %"class.base::WeakPtr.98"* %11, i64 0, i32 0, i32 1
  %33 = load i64, i64* %32, align 8, !noalias !194
  store i64 %33, i64* %31, align 8, !noalias !194
  %34 = getelementptr inbounds i8, i8* %23, i64 64
  %35 = getelementptr inbounds %"class.base::OnceCallback.259", %"class.base::OnceCallback.259"* %2, i64 0, i32 0, i32 0, i32 0
  %36 = bitcast %"class.base::OnceCallback.259"* %2 to i64*
  %37 = load i64, i64* %36, align 8, !noalias !194
  %38 = bitcast i8* %34 to i64*
  store i64 %37, i64* %38, align 8, !noalias !194
  store %"class.base::internal::BindStateBase"* null, %"class.base::internal::BindStateBase"** %35, align 8, !noalias !194
  %39 = bitcast %"class.base::OnceCallback.259"* %7 to i8*
  call void @llvm.lifetime.start.p0i8(i64 8, i8* nonnull %39)
  %40 = bitcast %"class.base::OnceCallback.260"* %8 to i8*
  call void @llvm.lifetime.start.p0i8(i64 8, i8* nonnull %40)
  %41 = call i8* @_Znwm(i64 216) #14
  %42 = getelementptr inbounds %"class.device::pin::ChangeRequest", %"class.device::pin::ChangeRequest"* %1, i64 0, i32 0
  %43 = getelementptr inbounds %"class.base::OnceCallback.259", %"class.base::OnceCallback.259"* %10, i64 0, i32 0, i32 0, i32 0
  %44 = ptrtoint i8* %23 to i64
  store %"class.base::internal::BindStateBase"* null, %"class.base::internal::BindStateBase"** %43, align 8
  %45 = getelementptr inbounds %"class.base::OnceCallback.260", %"class.base::OnceCallback.260"* %3, i64 0, i32 0, i32 0, i32 0
  %46 = bitcast %"class.base::OnceCallback.260"* %3 to i64*
  %47 = load i64, i64* %46, align 8
  store %"class.base::internal::BindStateBase"* null, %"class.base::internal::BindStateBase"** %45, align 8
  %48 = bitcast %"class.base::OnceCallback.259"* %6 to i8*
  call void @llvm.lifetime.start.p0i8(i64 8, i8* nonnull %48) #13
  %49 = getelementptr inbounds %"class.base::OnceCallback.259", %"class.base::OnceCallback.259"* %7, i64 0, i32 0, i32 0, i32 0
  store %"class.base::internal::BindStateBase"* null, %"class.base::internal::BindStateBase"** %49, align 8
  %50 = bitcast i8* %41 to i32 (...)***
  %51 = getelementptr inbounds i8, i8* %41, i64 8
  store i8 0, i8* %51, align 4
  %52 = getelementptr inbounds i8, i8* %41, i64 16
  %53 = bitcast i8* %52 to i64*
  store i64 %15, i64* %53, align 8
  %54 = getelementptr inbounds i8, i8* %41, i64 24
  call void @llvm.memcpy.p0i8.p0i8.i64(i8* align 8 %54, i8* nonnull align 8 %42, i64 145, i1 false)
  %55 = getelementptr inbounds i8, i8* %41, i64 176
  %56 = getelementptr inbounds %"class.base::OnceCallback.259", %"class.base::OnceCallback.259"* %6, i64 0, i32 0, i32 0, i32 0
  %57 = bitcast i8* %55 to i64*
  store i64 %44, i64* %57, align 8
  store %"class.base::internal::BindStateBase"* null, %"class.base::internal::BindStateBase"** %56, align 8
  %58 = getelementptr inbounds %"class.base::OnceCallback.259", %"class.base::OnceCallback.259"* %6, i64 0, i32 0
  call void @_ZN4base8internal12CallbackBaseD2Ev(%"class.base::internal::CallbackBase"* nonnull %58) #13
  store i32 (...)** bitcast (i8** getelementptr inbounds ({ [6 x i8*] }, { [6 x i8*] }* @_ZTVN6device20Ctap2DeviceOperationINS_3pin13ChangeRequestENS1_13EmptyResponseEEE, i64 0, inrange i32 0, i64 2) to i32 (...)**), i32 (...)*** %50, align 8
  %59 = getelementptr inbounds i8, i8* %41, i64 184
  %60 = getelementptr inbounds %"class.base::OnceCallback.260", %"class.base::OnceCallback.260"* %8, i64 0, i32 0, i32 0, i32 0
  %61 = bitcast i8* %59 to i64*
  store i64 %47, i64* %61, align 8
  store %"class.base::internal::BindStateBase"* null, %"class.base::internal::BindStateBase"** %60, align 8
  %62 = getelementptr inbounds i8, i8* %41, i64 192
  %63 = bitcast i8* %62 to i64*
  store i64 %12, i64* %63, align 8
  %64 = getelementptr inbounds i8, i8* %41, i64 200
  %65 = bitcast i8* %64 to %"class.base::internal::WeakPtrFactoryBase"*
  %66 = ptrtoint i8* %41 to i64
  call void @_ZN4base8internal18WeakPtrFactoryBaseC2Em(%"class.base::internal::WeakPtrFactoryBase"* %65, i64 %66) #13
  call void @llvm.lifetime.end.p0i8(i64 8, i8* nonnull %48) #13
  %67 = getelementptr inbounds %"class.base::OnceCallback.260", %"class.base::OnceCallback.260"* %8, i64 0, i32 0
  call void @_ZN4base8internal12CallbackBaseD2Ev(%"class.base::internal::CallbackBase"* nonnull %67) #13
  %68 = getelementptr inbounds %"class.base::OnceCallback.259", %"class.base::OnceCallback.259"* %7, i64 0, i32 0
  call void @_ZN4base8internal12CallbackBaseD2Ev(%"class.base::internal::CallbackBase"* nonnull %68) #13
  call void @llvm.lifetime.end.p0i8(i64 8, i8* nonnull %39)
  call void @llvm.lifetime.end.p0i8(i64 8, i8* nonnull %40)
  %69 = getelementptr inbounds %"class.device::FidoDeviceAuthenticator", %"class.device::FidoDeviceAuthenticator"* %0, i64 0, i32 4, i32 0, i32 0, i32 0
  %70 = load %"class.device::GenericDeviceOperation"*, %"class.device::GenericDeviceOperation"** %69, align 8
  %71 = bitcast %"class.device::GenericDeviceOperation"** %69 to i8**
  store i8* %41, i8** %71, align 8
  %72 = icmp eq %"class.device::GenericDeviceOperation"* %70, null
  br i1 %72, label %78, label %73

73:                                               ; preds = %5
  %74 = bitcast %"class.device::GenericDeviceOperation"* %70 to void (%"class.device::GenericDeviceOperation"*)***
  %75 = load void (%"class.device::GenericDeviceOperation"*)**, void (%"class.device::GenericDeviceOperation"*)*** %74, align 8
  %76 = getelementptr inbounds void (%"class.device::GenericDeviceOperation"*)*, void (%"class.device::GenericDeviceOperation"*)** %75, i64 1
  %77 = load void (%"class.device::GenericDeviceOperation"*)*, void (%"class.device::GenericDeviceOperation"*)** %76, align 8
  call void %77(%"class.device::GenericDeviceOperation"* nonnull %70) #13
  br label %78

78:                                               ; preds = %73, %5
  %79 = getelementptr inbounds %"class.base::OnceCallback.259", %"class.base::OnceCallback.259"* %10, i64 0, i32 0
  call void @_ZN4base8internal12CallbackBaseD2Ev(%"class.base::internal::CallbackBase"* nonnull %79) #13
  call void @_ZN4base8internal11WeakPtrBaseD2Ev(%"class.base::internal::WeakPtrBase"* nonnull %22) #13
  call void @llvm.lifetime.end.p0i8(i64 16, i8* nonnull %17) #13
  call void @llvm.lifetime.end.p0i8(i64 8, i8* nonnull %16) #13
  %80 = load %"class.device::GenericDeviceOperation"*, %"class.device::GenericDeviceOperation"** %69, align 8
  %81 = bitcast %"class.device::GenericDeviceOperation"* %80 to void (%"class.device::GenericDeviceOperation"*)***
  %82 = load void (%"class.device::GenericDeviceOperation"*)**, void (%"class.device::GenericDeviceOperation"*)*** %81, align 8
  %83 = getelementptr inbounds void (%"class.device::GenericDeviceOperation"*)*, void (%"class.device::GenericDeviceOperation"*)** %82, i64 2
  %84 = load void (%"class.device::GenericDeviceOperation"*)*, void (%"class.device::GenericDeviceOperation"*)** %83, align 8
  call void %84(%"class.device::GenericDeviceOperation"* %80) #13
  ret void
}

declare void @_ZN6device3pin13ChangeRequestC1ENS_17PINUVAuthProtocolERKNSt3__112basic_stringIcNS3_11char_traitsIcEENS3_9allocatorIcEEEESB_RKNS0_20KeyAgreementResponseE(%"class.device::pin::ChangeRequest"*, i8 zeroext, %"class.std::__1::basic_string"* dereferenceable(24), %"class.std::__1::basic_string"* dereferenceable(24), %"struct.device::pin::KeyAgreementResponse"* dereferenceable(64)) unnamed_addr #2

; Function Attrs: nounwind ssp uwtable
define hidden i32 @_ZN6device23FidoDeviceAuthenticator33PINUVDispositionForMakeCredentialERKNS_25CtapMakeCredentialRequestEPKNS_22FidoRequestHandlerBase8ObserverE(%"class.device::FidoDeviceAuthenticator"*, %"struct.device::CtapMakeCredentialRequest"* dereferenceable(680), %"class.device::FidoRequestHandlerBase::Observer"*) unnamed_addr #0 align 2 {
  %4 = icmp eq %"class.device::FidoRequestHandlerBase::Observer"* %2, null
  br i1 %4, label %11, label %5

5:                                                ; preds = %3
  %6 = bitcast %"class.device::FidoRequestHandlerBase::Observer"* %2 to i1 (%"class.device::FidoRequestHandlerBase::Observer"*)***
  %7 = load i1 (%"class.device::FidoRequestHandlerBase::Observer"*)**, i1 (%"class.device::FidoRequestHandlerBase::Observer"*)*** %6, align 8
  %8 = getelementptr inbounds i1 (%"class.device::FidoRequestHandlerBase::Observer"*)*, i1 (%"class.device::FidoRequestHandlerBase::Observer"*)** %7, i64 7
  %9 = load i1 (%"class.device::FidoRequestHandlerBase::Observer"*)*, i1 (%"class.device::FidoRequestHandlerBase::Observer"*)** %8, align 8
  %10 = tail call zeroext i1 %9(%"class.device::FidoRequestHandlerBase::Observer"* nonnull %2) #13
  br label %11

11:                                               ; preds = %3, %5
  %12 = phi i1 [ false, %3 ], [ %10, %5 ]
  %13 = bitcast %"class.device::FidoDeviceAuthenticator"* %0 to %"class.absl::optional.64"* (%"class.device::FidoDeviceAuthenticator"*)***
  %14 = load %"class.absl::optional.64"* (%"class.device::FidoDeviceAuthenticator"*)**, %"class.absl::optional.64"* (%"class.device::FidoDeviceAuthenticator"*)*** %13, align 8
  %15 = getelementptr inbounds %"class.absl::optional.64"* (%"class.device::FidoDeviceAuthenticator"*)*, %"class.absl::optional.64"* (%"class.device::FidoDeviceAuthenticator"*)** %14, i64 42
  %16 = load %"class.absl::optional.64"* (%"class.device::FidoDeviceAuthenticator"*)*, %"class.absl::optional.64"* (%"class.device::FidoDeviceAuthenticator"*)** %15, align 8
  %17 = tail call dereferenceable(40) %"class.absl::optional.64"* %16(%"class.device::FidoDeviceAuthenticator"* %0) #13
  %18 = getelementptr inbounds %"class.absl::optional.64", %"class.absl::optional.64"* %17, i64 0, i32 0, i32 0, i32 0, i32 0
  %19 = load i8, i8* %18, align 4, !range !2
  %20 = icmp eq i8 %19, 0
  br i1 %20, label %21, label %22, !prof !16

21:                                               ; preds = %11
  tail call void @llvm.trap() #13
  unreachable

22:                                               ; preds = %11
  %23 = getelementptr inbounds %"class.absl::optional.64", %"class.absl::optional.64"* %17, i64 0, i32 0, i32 0, i32 0, i32 2, i32 0, i32 13
  %24 = load i32, i32* %23, align 4
  %25 = icmp ne i32 %24, 2
  %26 = load %"class.absl::optional.64"* (%"class.device::FidoDeviceAuthenticator"*)**, %"class.absl::optional.64"* (%"class.device::FidoDeviceAuthenticator"*)*** %13, align 8
  %27 = getelementptr inbounds %"class.absl::optional.64"* (%"class.device::FidoDeviceAuthenticator"*)*, %"class.absl::optional.64"* (%"class.device::FidoDeviceAuthenticator"*)** %26, i64 42
  %28 = load %"class.absl::optional.64"* (%"class.device::FidoDeviceAuthenticator"*)*, %"class.absl::optional.64"* (%"class.device::FidoDeviceAuthenticator"*)** %27, align 8
  %29 = tail call dereferenceable(40) %"class.absl::optional.64"* %28(%"class.device::FidoDeviceAuthenticator"* %0) #13
  %30 = getelementptr inbounds %"class.absl::optional.64", %"class.absl::optional.64"* %29, i64 0, i32 0, i32 0, i32 0, i32 0
  %31 = load i8, i8* %30, align 4, !range !2
  %32 = icmp eq i8 %31, 0
  br i1 %32, label %33, label %34, !prof !16

33:                                               ; preds = %22
  tail call void @llvm.trap() #13
  unreachable

34:                                               ; preds = %22
  %35 = getelementptr inbounds %"class.absl::optional.64", %"class.absl::optional.64"* %29, i64 0, i32 0, i32 0, i32 0, i32 2, i32 0, i32 13
  %36 = load i32, i32* %35, align 4
  %37 = icmp ne i32 %36, 0
  %38 = load %"class.absl::optional.64"* (%"class.device::FidoDeviceAuthenticator"*)**, %"class.absl::optional.64"* (%"class.device::FidoDeviceAuthenticator"*)*** %13, align 8
  %39 = getelementptr inbounds %"class.absl::optional.64"* (%"class.device::FidoDeviceAuthenticator"*)*, %"class.absl::optional.64"* (%"class.device::FidoDeviceAuthenticator"*)** %38, i64 42
  %40 = load %"class.absl::optional.64"* (%"class.device::FidoDeviceAuthenticator"*)*, %"class.absl::optional.64"* (%"class.device::FidoDeviceAuthenticator"*)** %39, align 8
  %41 = tail call dereferenceable(40) %"class.absl::optional.64"* %40(%"class.device::FidoDeviceAuthenticator"* %0) #13
  %42 = getelementptr inbounds %"class.absl::optional.64", %"class.absl::optional.64"* %41, i64 0, i32 0, i32 0, i32 0, i32 0
  %43 = load i8, i8* %42, align 4, !range !2
  %44 = icmp eq i8 %43, 0
  br i1 %44, label %45, label %46, !prof !16

45:                                               ; preds = %34
  tail call void @llvm.trap() #13
  unreachable

46:                                               ; preds = %34
  %47 = getelementptr inbounds %"class.absl::optional.64", %"class.absl::optional.64"* %41, i64 0, i32 0, i32 0, i32 0, i32 2, i32 0, i32 3
  %48 = load i32, i32* %47, align 4
  %49 = icmp eq i32 %48, 0
  %50 = getelementptr inbounds %"class.device::FidoDeviceAuthenticator", %"class.device::FidoDeviceAuthenticator"* %0, i64 0, i32 1, i32 0, i32 0, i32 0
  %51 = load %"class.device::FidoDevice"*, %"class.device::FidoDevice"** %50, align 8
  %52 = getelementptr inbounds %"class.device::FidoDevice", %"class.device::FidoDevice"* %51, i64 0, i32 3, i32 0, i32 0, i32 0, i32 0
  %53 = load i8, i8* %52, align 8, !range !2
  %54 = icmp eq i8 %53, 0
  br i1 %54, label %91, label %55

55:                                               ; preds = %46
  %56 = getelementptr inbounds %"class.device::FidoDevice", %"class.device::FidoDevice"* %51, i64 0, i32 3, i32 0, i32 0, i32 0, i32 1, i32 0, i32 0, i32 0, i32 0, i32 0
  %57 = load i32*, i32** %56, align 8
  %58 = getelementptr inbounds %"class.device::FidoDevice", %"class.device::FidoDevice"* %51, i64 0, i32 3, i32 0, i32 0, i32 0, i32 1, i32 0, i32 0, i32 0, i32 0, i32 1
  %59 = bitcast i32** %58 to i64*
  %60 = load i64, i64* %59, align 8
  %61 = ptrtoint i32* %57 to i64
  %62 = sub i64 %60, %61
  %63 = icmp eq i64 %62, 0
  %64 = inttoptr i64 %60 to i32*
  br i1 %63, label %80, label %65

65:                                               ; preds = %55
  %66 = ashr exact i64 %62, 2
  br label %67

67:                                               ; preds = %67, %65
  %68 = phi i32* [ %57, %65 ], [ %78, %67 ]
  %69 = phi i64 [ %66, %65 ], [ %77, %67 ]
  %70 = lshr i64 %69, 1
  %71 = getelementptr inbounds i32, i32* %68, i64 %70
  %72 = load i32, i32* %71, align 4
  %73 = icmp slt i32 %72, 1
  %74 = getelementptr inbounds i32, i32* %71, i64 1
  %75 = xor i64 %70, -1
  %76 = add i64 %69, %75
  %77 = select i1 %73, i64 %76, i64 %70
  %78 = select i1 %73, i32* %74, i32* %68
  %79 = icmp eq i64 %77, 0
  br i1 %79, label %80, label %67

80:                                               ; preds = %67, %55
  %81 = phi i32* [ %57, %55 ], [ %78, %67 ]
  %82 = icmp eq i32* %81, %64
  br i1 %82, label %91, label %83

83:                                               ; preds = %80
  %84 = load i32, i32* %81, align 4
  %85 = icmp slt i32 %84, 2
  br i1 %85, label %86, label %91

86:                                               ; preds = %83
  %87 = tail call zeroext i1 @_ZN6device33IsConvertibleToU2fRegisterCommandERKNS_25CtapMakeCredentialRequestE(%"struct.device::CtapMakeCredentialRequest"* dereferenceable(680) %1) #13
  br i1 %87, label %88, label %91

88:                                               ; preds = %86
  %89 = tail call zeroext i1 @_ZN6device34ShouldPreferCTAP2EvenIfItNeedsAPINERKNS_25CtapMakeCredentialRequestE(%"struct.device::CtapMakeCredentialRequest"* dereferenceable(680) %1) #13
  %90 = xor i1 %89, true
  br label %91

91:                                               ; preds = %46, %80, %88, %86, %83
  %92 = phi i1 [ false, %86 ], [ false, %83 ], [ false, %46 ], [ %90, %88 ], [ false, %80 ]
  %93 = getelementptr inbounds %"struct.device::CtapMakeCredentialRequest", %"struct.device::CtapMakeCredentialRequest"* %1, i64 0, i32 5
  %94 = load i32, i32* %93, align 8
  %95 = icmp eq i32 %94, 2
  br i1 %95, label %96, label %105

96:                                               ; preds = %91
  %97 = getelementptr inbounds %"class.device::FidoDeviceAuthenticator", %"class.device::FidoDeviceAuthenticator"* %0, i64 0, i32 2, i32 0, i32 0, i32 0, i32 0
  %98 = load i8, i8* %97, align 4, !range !2
  %99 = icmp eq i8 %98, 0
  br i1 %99, label %100, label %101, !prof !16

100:                                              ; preds = %96
  tail call void @llvm.trap() #13
  unreachable

101:                                              ; preds = %96
  %102 = getelementptr inbounds %"class.device::FidoDeviceAuthenticator", %"class.device::FidoDeviceAuthenticator"* %0, i64 0, i32 2, i32 0, i32 0, i32 0, i32 2, i32 0, i32 18
  %103 = load i8, i8* %102, align 4, !range !2
  %104 = icmp ne i8 %103, 0
  br label %105

105:                                              ; preds = %101, %91
  %106 = phi i1 [ false, %91 ], [ %104, %101 ]
  %107 = or i1 %37, %92
  %108 = or i1 %107, %106
  %109 = select i1 %108, i32 %94, i32 0
  switch i32 %109, label %114 [
    i32 2, label %133
    i32 1, label %110
  ]

110:                                              ; preds = %105
  %111 = xor i1 %37, true
  %112 = and i1 %12, %111
  %113 = or i1 %112, %49
  br i1 %113, label %114, label %133

114:                                              ; preds = %110, %105
  br i1 %49, label %115, label %124

115:                                              ; preds = %114
  %116 = bitcast %"class.device::FidoDeviceAuthenticator"* %0 to i1 (%"class.device::FidoDeviceAuthenticator"*)***
  %117 = load i1 (%"class.device::FidoDeviceAuthenticator"*)**, i1 (%"class.device::FidoDeviceAuthenticator"*)*** %116, align 8
  %118 = getelementptr inbounds i1 (%"class.device::FidoDeviceAuthenticator"*)*, i1 (%"class.device::FidoDeviceAuthenticator"*)** %117, i64 10
  %119 = load i1 (%"class.device::FidoDeviceAuthenticator"*)*, i1 (%"class.device::FidoDeviceAuthenticator"*)** %118, align 8
  %120 = tail call zeroext i1 %119(%"class.device::FidoDeviceAuthenticator"* %0) #13
  br i1 %120, label %124, label %121

121:                                              ; preds = %115
  %122 = and i1 %12, %25
  %123 = select i1 %122, i32 3, i32 2
  br label %133

124:                                              ; preds = %115, %114
  %125 = and i1 %12, %25
  br i1 %125, label %132, label %126

126:                                              ; preds = %124
  %127 = bitcast %"class.device::FidoDeviceAuthenticator"* %0 to i1 (%"class.device::FidoDeviceAuthenticator"*)***
  %128 = load i1 (%"class.device::FidoDeviceAuthenticator"*)**, i1 (%"class.device::FidoDeviceAuthenticator"*)*** %127, align 8
  %129 = getelementptr inbounds i1 (%"class.device::FidoDeviceAuthenticator"*)*, i1 (%"class.device::FidoDeviceAuthenticator"*)** %128, i64 10
  %130 = load i1 (%"class.device::FidoDeviceAuthenticator"*)*, i1 (%"class.device::FidoDeviceAuthenticator"*)** %129, align 8
  %131 = tail call zeroext i1 %130(%"class.device::FidoDeviceAuthenticator"* %0) #13
  br i1 %131, label %132, label %133

132:                                              ; preds = %124, %126
  br label %133

133:                                              ; preds = %132, %126, %105, %110, %121
  %134 = phi i32 [ %123, %121 ], [ 0, %110 ], [ 0, %105 ], [ 1, %132 ], [ 4, %126 ]
  ret i32 %134
}

declare zeroext i1 @_ZN6device33IsConvertibleToU2fRegisterCommandERKNS_25CtapMakeCredentialRequestE(%"struct.device::CtapMakeCredentialRequest"* dereferenceable(680)) local_unnamed_addr #2

declare zeroext i1 @_ZN6device34ShouldPreferCTAP2EvenIfItNeedsAPINERKNS_25CtapMakeCredentialRequestE(%"struct.device::CtapMakeCredentialRequest"* dereferenceable(680)) local_unnamed_addr #2

; Function Attrs: nounwind ssp uwtable
define hidden i32 @_ZN6device23FidoDeviceAuthenticator31PINUVDispositionForGetAssertionERKNS_23CtapGetAssertionRequestEPKNS_22FidoRequestHandlerBase8ObserverE(%"class.device::FidoDeviceAuthenticator"*, %"struct.device::CtapGetAssertionRequest"* nocapture readonly dereferenceable(432), %"class.device::FidoRequestHandlerBase::Observer"*) unnamed_addr #0 align 2 {
  %4 = icmp eq %"class.device::FidoRequestHandlerBase::Observer"* %2, null
  br i1 %4, label %11, label %5

5:                                                ; preds = %3
  %6 = bitcast %"class.device::FidoRequestHandlerBase::Observer"* %2 to i1 (%"class.device::FidoRequestHandlerBase::Observer"*)***
  %7 = load i1 (%"class.device::FidoRequestHandlerBase::Observer"*)**, i1 (%"class.device::FidoRequestHandlerBase::Observer"*)*** %6, align 8
  %8 = getelementptr inbounds i1 (%"class.device::FidoRequestHandlerBase::Observer"*)*, i1 (%"class.device::FidoRequestHandlerBase::Observer"*)** %7, i64 7
  %9 = load i1 (%"class.device::FidoRequestHandlerBase::Observer"*)*, i1 (%"class.device::FidoRequestHandlerBase::Observer"*)** %8, align 8
  %10 = tail call zeroext i1 %9(%"class.device::FidoRequestHandlerBase::Observer"* nonnull %2) #13
  br label %11

11:                                               ; preds = %3, %5
  %12 = phi i1 [ false, %3 ], [ %10, %5 ]
  %13 = bitcast %"class.device::FidoDeviceAuthenticator"* %0 to %"class.absl::optional.64"* (%"class.device::FidoDeviceAuthenticator"*)***
  %14 = load %"class.absl::optional.64"* (%"class.device::FidoDeviceAuthenticator"*)**, %"class.absl::optional.64"* (%"class.device::FidoDeviceAuthenticator"*)*** %13, align 8
  %15 = getelementptr inbounds %"class.absl::optional.64"* (%"class.device::FidoDeviceAuthenticator"*)*, %"class.absl::optional.64"* (%"class.device::FidoDeviceAuthenticator"*)** %14, i64 42
  %16 = load %"class.absl::optional.64"* (%"class.device::FidoDeviceAuthenticator"*)*, %"class.absl::optional.64"* (%"class.device::FidoDeviceAuthenticator"*)** %15, align 8
  %17 = tail call dereferenceable(40) %"class.absl::optional.64"* %16(%"class.device::FidoDeviceAuthenticator"* %0) #13
  %18 = getelementptr inbounds %"class.absl::optional.64", %"class.absl::optional.64"* %17, i64 0, i32 0, i32 0, i32 0, i32 0
  %19 = load i8, i8* %18, align 4, !range !2
  %20 = icmp eq i8 %19, 0
  br i1 %20, label %21, label %22, !prof !16

21:                                               ; preds = %11
  tail call void @llvm.trap() #13
  unreachable

22:                                               ; preds = %11
  %23 = getelementptr inbounds %"class.absl::optional.64", %"class.absl::optional.64"* %17, i64 0, i32 0, i32 0, i32 0, i32 2, i32 0, i32 13
  %24 = load i32, i32* %23, align 4
  %25 = icmp eq i32 %24, 0
  %26 = load %"class.absl::optional.64"* (%"class.device::FidoDeviceAuthenticator"*)**, %"class.absl::optional.64"* (%"class.device::FidoDeviceAuthenticator"*)*** %13, align 8
  %27 = getelementptr inbounds %"class.absl::optional.64"* (%"class.device::FidoDeviceAuthenticator"*)*, %"class.absl::optional.64"* (%"class.device::FidoDeviceAuthenticator"*)** %26, i64 42
  %28 = load %"class.absl::optional.64"* (%"class.device::FidoDeviceAuthenticator"*)*, %"class.absl::optional.64"* (%"class.device::FidoDeviceAuthenticator"*)** %27, align 8
  %29 = tail call dereferenceable(40) %"class.absl::optional.64"* %28(%"class.device::FidoDeviceAuthenticator"* %0) #13
  %30 = getelementptr inbounds %"class.absl::optional.64", %"class.absl::optional.64"* %29, i64 0, i32 0, i32 0, i32 0, i32 0
  %31 = load i8, i8* %30, align 4, !range !2
  %32 = icmp eq i8 %31, 0
  br i1 %32, label %33, label %34, !prof !16

33:                                               ; preds = %22
  tail call void @llvm.trap() #13
  unreachable

34:                                               ; preds = %22
  %35 = getelementptr inbounds %"class.absl::optional.64", %"class.absl::optional.64"* %29, i64 0, i32 0, i32 0, i32 0, i32 2, i32 0, i32 3
  %36 = load i32, i32* %35, align 4
  %37 = icmp eq i32 %36, 0
  %38 = getelementptr inbounds %"struct.device::CtapGetAssertionRequest", %"struct.device::CtapGetAssertionRequest"* %1, i64 0, i32 6, i32 0, i32 0
  %39 = load %"class.device::PublicKeyCredentialDescriptor"*, %"class.device::PublicKeyCredentialDescriptor"** %38, align 8
  %40 = getelementptr inbounds %"struct.device::CtapGetAssertionRequest", %"struct.device::CtapGetAssertionRequest"* %1, i64 0, i32 6, i32 0, i32 1
  %41 = load %"class.device::PublicKeyCredentialDescriptor"*, %"class.device::PublicKeyCredentialDescriptor"** %40, align 8
  %42 = icmp eq %"class.device::PublicKeyCredentialDescriptor"* %39, %41
  br i1 %42, label %49, label %43

43:                                               ; preds = %34
  %44 = getelementptr inbounds %"struct.device::CtapGetAssertionRequest", %"struct.device::CtapGetAssertionRequest"* %1, i64 0, i32 3
  %45 = load i32, i32* %44, align 8
  switch i32 %45, label %49 [
    i32 2, label %68
    i32 1, label %46
  ]

46:                                               ; preds = %43
  %47 = and i1 %12, %25
  %48 = or i1 %47, %37
  br i1 %48, label %49, label %68

49:                                               ; preds = %34, %46, %43
  br i1 %37, label %50, label %59

50:                                               ; preds = %49
  %51 = bitcast %"class.device::FidoDeviceAuthenticator"* %0 to i1 (%"class.device::FidoDeviceAuthenticator"*)***
  %52 = load i1 (%"class.device::FidoDeviceAuthenticator"*)**, i1 (%"class.device::FidoDeviceAuthenticator"*)*** %51, align 8
  %53 = getelementptr inbounds i1 (%"class.device::FidoDeviceAuthenticator"*)*, i1 (%"class.device::FidoDeviceAuthenticator"*)** %52, i64 10
  %54 = load i1 (%"class.device::FidoDeviceAuthenticator"*)*, i1 (%"class.device::FidoDeviceAuthenticator"*)** %53, align 8
  %55 = tail call zeroext i1 %54(%"class.device::FidoDeviceAuthenticator"* %0) #13
  br i1 %55, label %59, label %56

56:                                               ; preds = %50
  %57 = and i1 %12, %25
  %58 = select i1 %57, i32 3, i32 2
  br label %68

59:                                               ; preds = %50, %49
  %60 = and i1 %12, %25
  br i1 %60, label %68, label %61

61:                                               ; preds = %59
  %62 = bitcast %"class.device::FidoDeviceAuthenticator"* %0 to i1 (%"class.device::FidoDeviceAuthenticator"*)***
  %63 = load i1 (%"class.device::FidoDeviceAuthenticator"*)**, i1 (%"class.device::FidoDeviceAuthenticator"*)*** %62, align 8
  %64 = getelementptr inbounds i1 (%"class.device::FidoDeviceAuthenticator"*)*, i1 (%"class.device::FidoDeviceAuthenticator"*)** %63, i64 10
  %65 = load i1 (%"class.device::FidoDeviceAuthenticator"*)*, i1 (%"class.device::FidoDeviceAuthenticator"*)** %64, align 8
  %66 = tail call zeroext i1 %65(%"class.device::FidoDeviceAuthenticator"* %0) #13
  %67 = select i1 %66, i32 1, i32 4
  ret i32 %67

68:                                               ; preds = %59, %43, %46, %56
  %69 = phi i32 [ %58, %56 ], [ 0, %46 ], [ 0, %43 ], [ 1, %59 ]
  ret i32 %69
}

; Function Attrs: nounwind ssp uwtable
define hidden void @_ZN6device23FidoDeviceAuthenticator22GetCredentialsMetadataERKNS_3pin13TokenResponseEN4base12OnceCallbackIFvNS_22CtapDeviceResponseCodeEN4absl8optionalINS_27CredentialsMetadataResponseEEEEEE(%"class.device::FidoDeviceAuthenticator"*, %"class.device::pin::TokenResponse"* dereferenceable(32), %"class.base::OnceCallback.282"* nocapture) unnamed_addr #0 align 2 {
  %4 = alloca %"struct.device::CredentialManagementRequest", align 8
  %5 = alloca %"class.base::OnceCallback.282", align 8
  %6 = alloca %"class.base::OnceCallback.288", align 8
  %7 = bitcast %"class.device::FidoDeviceAuthenticator"* %0 to %"class.absl::optional.64"* (%"class.device::FidoDeviceAuthenticator"*)***
  %8 = load %"class.absl::optional.64"* (%"class.device::FidoDeviceAuthenticator"*)**, %"class.absl::optional.64"* (%"class.device::FidoDeviceAuthenticator"*)*** %7, align 8
  %9 = getelementptr inbounds %"class.absl::optional.64"* (%"class.device::FidoDeviceAuthenticator"*)*, %"class.absl::optional.64"* (%"class.device::FidoDeviceAuthenticator"*)** %8, i64 42
  %10 = load %"class.absl::optional.64"* (%"class.device::FidoDeviceAuthenticator"*)*, %"class.absl::optional.64"* (%"class.device::FidoDeviceAuthenticator"*)** %9, align 8
  %11 = tail call dereferenceable(40) %"class.absl::optional.64"* %10(%"class.device::FidoDeviceAuthenticator"* %0) #13
  %12 = getelementptr inbounds %"class.absl::optional.64", %"class.absl::optional.64"* %11, i64 0, i32 0, i32 0, i32 0, i32 0
  %13 = load i8, i8* %12, align 4, !range !2
  %14 = icmp eq i8 %13, 0
  br i1 %14, label %15, label %16, !prof !16

15:                                               ; preds = %3
  tail call void @llvm.trap() #13
  unreachable

16:                                               ; preds = %3
  %17 = getelementptr inbounds %"class.absl::optional.64", %"class.absl::optional.64"* %11, i64 0, i32 0, i32 0, i32 0, i32 2, i32 0, i32 5
  %18 = load i8, i8* %17, align 1, !range !2
  %19 = xor i8 %18, 1
  %20 = zext i8 %19 to i32
  call void @_ZN6device27CredentialManagementRequest19ForGetCredsMetadataENS0_7VersionERKNS_3pin13TokenResponseE(%"struct.device::CredentialManagementRequest"* nonnull sret %4, i32 %20, %"class.device::pin::TokenResponse"* dereferenceable(32) %1) #13
  %21 = getelementptr inbounds %"class.base::OnceCallback.282", %"class.base::OnceCallback.282"* %2, i64 0, i32 0, i32 0, i32 0
  %22 = bitcast %"class.base::OnceCallback.282"* %2 to i64*
  %23 = load i64, i64* %22, align 8
  %24 = bitcast %"class.base::OnceCallback.282"* %5 to i64*
  store i64 %23, i64* %24, align 8
  store %"class.base::internal::BindStateBase"* null, %"class.base::internal::BindStateBase"** %21, align 8
  %25 = call i8* @_Znwm(i64 48) #14, !noalias !199
  %26 = bitcast i8* %25 to %"class.base::internal::BindStateBase"*
  call void @_ZN4base8internal13BindStateBaseC2EPFvvEPFvPKS1_E(%"class.base::internal::BindStateBase"* nonnull %26, void ()* bitcast (void (%"class.absl::optional.289"*, %"class.base::internal::BindStateBase"*, %"class.absl::optional.221"*)* @_ZN4base8internal7InvokerINS0_9BindStateIPFN4absl8optionalIN6device27CredentialsMetadataResponseEEERKNS4_IN4cbor5ValueEEEEJEEESD_E7RunOnceEPNS0_13BindStateBaseESC_ to void ()*), void (%"class.base::internal::BindStateBase"*)* nonnull @_ZN4base8internal9BindStateIPFN4absl8optionalIN6device27CredentialsMetadataResponseEEERKNS3_IN4cbor5ValueEEEEJEE7DestroyEPKNS0_13BindStateBaseE) #13, !noalias !199
  %27 = getelementptr inbounds i8, i8* %25, i64 32
  %28 = bitcast i8* %27 to i64*
  store i64 ptrtoint (void ()* @_ZN6device27CredentialsMetadataResponse5ParseERKN4absl8optionalIN4cbor5ValueEEE to i64), i64* %28, align 8, !noalias !199
  %29 = bitcast %"class.base::OnceCallback.288"* %6 to i8**
  store i8* %25, i8** %29, align 8, !alias.scope !199
  call void @_ZN6device23FidoDeviceAuthenticator12RunOperationINS_27CredentialManagementRequestENS_27CredentialsMetadataResponseEEEvT_N4base12OnceCallbackIFvNS_22CtapDeviceResponseCodeEN4absl8optionalIT0_EEEEENS6_IFSB_RKNS9_IN4cbor5ValueEEEEEEPFbRKNSt3__16vectorIPKSF_NSL_9allocatorISO_EEEEE(%"class.device::FidoDeviceAuthenticator"* %0, %"struct.device::CredentialManagementRequest"* nonnull %4, %"class.base::OnceCallback.282"* nonnull %5, %"class.base::OnceCallback.288"* nonnull %6, i1 (%"class.std::__1::vector.257"*)* null)
  %30 = getelementptr inbounds %"class.base::OnceCallback.288", %"class.base::OnceCallback.288"* %6, i64 0, i32 0
  call void @_ZN4base8internal12CallbackBaseD2Ev(%"class.base::internal::CallbackBase"* nonnull %30) #13
  %31 = getelementptr inbounds %"class.base::OnceCallback.282", %"class.base::OnceCallback.282"* %5, i64 0, i32 0
  call void @_ZN4base8internal12CallbackBaseD2Ev(%"class.base::internal::CallbackBase"* nonnull %31) #13
  call void @_ZN6device27CredentialManagementRequestD1Ev(%"struct.device::CredentialManagementRequest"* nonnull %4) #13
  ret void
}

; Function Attrs: nounwind ssp uwtable
define linkonce_odr hidden void @_ZN6device23FidoDeviceAuthenticator12RunOperationINS_27CredentialManagementRequestENS_27CredentialsMetadataResponseEEEvT_N4base12OnceCallbackIFvNS_22CtapDeviceResponseCodeEN4absl8optionalIT0_EEEEENS6_IFSB_RKNS9_IN4cbor5ValueEEEEEEPFbRKNSt3__16vectorIPKSF_NSL_9allocatorISO_EEEEE(%"class.device::FidoDeviceAuthenticator"*, %"struct.device::CredentialManagementRequest"*, %"class.base::OnceCallback.282"*, %"class.base::OnceCallback.288"*, i1 (%"class.std::__1::vector.257"*)*) local_unnamed_addr #0 comdat align 2 {
  %6 = alloca %"struct.device::CredentialManagementRequest", align 8
  %7 = alloca %"class.base::OnceCallback.282", align 8
  %8 = alloca %"struct.device::CredentialManagementRequest", align 8
  %9 = alloca %"class.base::OnceCallback.282", align 8
  %10 = alloca %"class.base::OnceCallback.288", align 8
  %11 = alloca %"class.base::internal::WeakReference", align 8
  %12 = alloca %"class.base::OnceCallback.282", align 8
  %13 = alloca %"class.base::WeakPtr.98", align 8
  %14 = ptrtoint i1 (%"class.std::__1::vector.257"*)* %4 to i64
  %15 = getelementptr inbounds %"class.device::FidoDeviceAuthenticator", %"class.device::FidoDeviceAuthenticator"* %0, i64 0, i32 1, i32 0, i32 0, i32 0
  %16 = bitcast %"class.device::FidoDevice"** %15 to i64*
  %17 = load i64, i64* %16, align 8
  %18 = bitcast %"class.base::OnceCallback.282"* %12 to i8*
  call void @llvm.lifetime.start.p0i8(i64 8, i8* nonnull %18) #13
  %19 = bitcast %"class.base::WeakPtr.98"* %13 to i8*
  call void @llvm.lifetime.start.p0i8(i64 16, i8* nonnull %19) #13
  %20 = bitcast %"class.base::internal::WeakReference"* %11 to i8*
  call void @llvm.lifetime.start.p0i8(i64 8, i8* nonnull %20) #13, !noalias !204
  %21 = getelementptr inbounds %"class.device::FidoDeviceAuthenticator", %"class.device::FidoDeviceAuthenticator"* %0, i64 0, i32 6, i32 0, i32 0
  call void @_ZNK4base8internal18WeakReferenceOwner6GetRefEv(%"class.base::internal::WeakReference"* nonnull sret %11, %"class.base::internal::WeakReferenceOwner"* %21) #13, !noalias !204
  %22 = getelementptr inbounds %"class.device::FidoDeviceAuthenticator", %"class.device::FidoDeviceAuthenticator"* %0, i64 0, i32 6, i32 0, i32 1
  %23 = load i64, i64* %22, align 8, !noalias !204
  %24 = getelementptr inbounds %"class.base::WeakPtr.98", %"class.base::WeakPtr.98"* %13, i64 0, i32 0
  call void @_ZN4base8internal11WeakPtrBaseC2ERKNS0_13WeakReferenceEm(%"class.base::internal::WeakPtrBase"* nonnull %24, %"class.base::internal::WeakReference"* nonnull dereferenceable(8) %11, i64 %23) #13
  call void @_ZN4base8internal13WeakReferenceD1Ev(%"class.base::internal::WeakReference"* nonnull %11) #13
  call void @llvm.lifetime.end.p0i8(i64 8, i8* nonnull %20) #13, !noalias !204
  %25 = call i8* @_Znwm(i64 72) #14, !noalias !207
  %26 = bitcast i8* %25 to %"class.base::internal::BindStateBase"*
  call void @_ZN4base8internal13BindStateBaseC2EPFvvEPFvPKS1_EPFbS5_NS1_21CancellationQueryModeEE(%"class.base::internal::BindStateBase"* nonnull %26, void ()* bitcast (void (%"class.base::internal::BindStateBase"*, i8, %"class.absl::optional.289"*)* @_ZN4base8internal7InvokerINS0_9BindStateIMN6device23FidoDeviceAuthenticatorEFvNS_12OnceCallbackIFvNS3_22CtapDeviceResponseCodeEN4absl8optionalINS3_27CredentialsMetadataResponseEEEEEES6_SA_EJNS_7WeakPtrIS4_EESC_EEESB_E7RunOnceEPNS0_13BindStateBaseES6_OSA_ to void ()*), void (%"class.base::internal::BindStateBase"*)* nonnull @_ZN4base8internal9BindStateIMN6device23FidoDeviceAuthenticatorEFvNS_12OnceCallbackIFvNS2_22CtapDeviceResponseCodeEN4absl8optionalINS2_27CredentialsMetadataResponseEEEEEES5_S9_EJNS_7WeakPtrIS3_EESB_EE7DestroyEPKNS0_13BindStateBaseE, i1 (%"class.base::internal::BindStateBase"*, i32)* nonnull @_ZN4base8internal23QueryCancellationTraitsINS0_9BindStateIMN6device23FidoDeviceAuthenticatorEFvNS_12OnceCallbackIFvNS3_22CtapDeviceResponseCodeEN4absl8optionalINS3_27CredentialsMetadataResponseEEEEEES6_SA_EJNS_7WeakPtrIS4_EESC_EEEEEbPKNS0_13BindStateBaseENSI_21CancellationQueryModeE) #13, !noalias !207
  %27 = getelementptr inbounds i8, i8* %25, i64 32
  %28 = bitcast i8* %27 to <2 x i64>*
  store <2 x i64> <i64 ptrtoint (void (%"class.device::FidoDeviceAuthenticator"*, %"class.base::OnceCallback.282"*, i8, %"class.absl::optional.289"*)* @_ZN6device23FidoDeviceAuthenticator19OperationClearProxyIJNS_22CtapDeviceResponseCodeEN4absl8optionalINS_27CredentialsMetadataResponseEEEEEEvN4base12OnceCallbackIFvDpT_EEESA_ to i64), i64 0>, <2 x i64>* %28, align 8, !noalias !207
  %29 = getelementptr inbounds i8, i8* %25, i64 48
  %30 = bitcast i8* %29 to %"class.base::internal::WeakReference"*
  %31 = getelementptr inbounds %"class.base::WeakPtr.98", %"class.base::WeakPtr.98"* %13, i64 0, i32 0, i32 0
  call void @_ZN4base8internal13WeakReferenceC1EOS1_(%"class.base::internal::WeakReference"* %30, %"class.base::internal::WeakReference"* nonnull dereferenceable(8) %31) #13, !noalias !207
  %32 = getelementptr inbounds i8, i8* %25, i64 56
  %33 = bitcast i8* %32 to i64*
  %34 = getelementptr inbounds %"class.base::WeakPtr.98", %"class.base::WeakPtr.98"* %13, i64 0, i32 0, i32 1
  %35 = load i64, i64* %34, align 8, !noalias !207
  store i64 %35, i64* %33, align 8, !noalias !207
  %36 = getelementptr inbounds i8, i8* %25, i64 64
  %37 = getelementptr inbounds %"class.base::OnceCallback.282", %"class.base::OnceCallback.282"* %2, i64 0, i32 0, i32 0, i32 0
  %38 = bitcast %"class.base::OnceCallback.282"* %2 to i64*
  %39 = load i64, i64* %38, align 8, !noalias !207
  %40 = bitcast i8* %36 to i64*
  store i64 %39, i64* %40, align 8, !noalias !207
  store %"class.base::internal::BindStateBase"* null, %"class.base::internal::BindStateBase"** %37, align 8, !noalias !207
  %41 = bitcast %"struct.device::CredentialManagementRequest"* %8 to i8*
  call void @llvm.lifetime.start.p0i8(i64 80, i8* nonnull %41)
  %42 = bitcast %"class.base::OnceCallback.282"* %9 to i8*
  call void @llvm.lifetime.start.p0i8(i64 8, i8* nonnull %42)
  %43 = bitcast %"class.base::OnceCallback.288"* %10 to i8*
  call void @llvm.lifetime.start.p0i8(i64 8, i8* nonnull %43)
  %44 = call i8* @_Znwm(i64 144) #14
  call void @_ZN6device27CredentialManagementRequestC1EOS0_(%"struct.device::CredentialManagementRequest"* nonnull %8, %"struct.device::CredentialManagementRequest"* dereferenceable(80) %1) #13
  %45 = getelementptr inbounds %"class.base::OnceCallback.282", %"class.base::OnceCallback.282"* %12, i64 0, i32 0, i32 0, i32 0
  %46 = ptrtoint i8* %25 to i64
  store %"class.base::internal::BindStateBase"* null, %"class.base::internal::BindStateBase"** %45, align 8
  %47 = getelementptr inbounds %"class.base::OnceCallback.288", %"class.base::OnceCallback.288"* %3, i64 0, i32 0, i32 0, i32 0
  %48 = bitcast %"class.base::OnceCallback.288"* %3 to i64*
  %49 = load i64, i64* %48, align 8
  store %"class.base::internal::BindStateBase"* null, %"class.base::internal::BindStateBase"** %47, align 8
  %50 = bitcast %"struct.device::CredentialManagementRequest"* %6 to i8*
  call void @llvm.lifetime.start.p0i8(i64 80, i8* nonnull %50) #13
  %51 = bitcast %"class.base::OnceCallback.282"* %7 to i8*
  call void @llvm.lifetime.start.p0i8(i64 8, i8* nonnull %51) #13
  call void @_ZN6device27CredentialManagementRequestC1EOS0_(%"struct.device::CredentialManagementRequest"* nonnull %6, %"struct.device::CredentialManagementRequest"* nonnull dereferenceable(80) %8) #13
  %52 = getelementptr inbounds %"class.base::OnceCallback.282", %"class.base::OnceCallback.282"* %9, i64 0, i32 0, i32 0, i32 0
  store %"class.base::internal::BindStateBase"* null, %"class.base::internal::BindStateBase"** %52, align 8
  %53 = bitcast i8* %44 to i32 (...)***
  store i32 (...)** bitcast (i8** getelementptr inbounds ({ [6 x i8*] }, { [6 x i8*] }* @_ZTVN6device15DeviceOperationINS_27CredentialManagementRequestENS_27CredentialsMetadataResponseEEE, i64 0, inrange i32 0, i64 2) to i32 (...)**), i32 (...)*** %53, align 8
  %54 = getelementptr inbounds i8, i8* %44, i64 8
  store i8 0, i8* %54, align 4
  %55 = getelementptr inbounds i8, i8* %44, i64 16
  %56 = bitcast i8* %55 to i64*
  store i64 %17, i64* %56, align 8
  %57 = getelementptr inbounds i8, i8* %44, i64 24
  %58 = bitcast i8* %57 to %"struct.device::CredentialManagementRequest"*
  call void @_ZN6device27CredentialManagementRequestC1EOS0_(%"struct.device::CredentialManagementRequest"* %58, %"struct.device::CredentialManagementRequest"* nonnull dereferenceable(80) %6) #13
  %59 = getelementptr inbounds i8, i8* %44, i64 104
  %60 = getelementptr inbounds %"class.base::OnceCallback.282", %"class.base::OnceCallback.282"* %7, i64 0, i32 0, i32 0, i32 0
  %61 = bitcast i8* %59 to i64*
  store i64 %46, i64* %61, align 8
