; ModuleID = 'gen/third_party/blink/public/mojom/file_system_access/file_system_access_file_writer.mojom.cc'
source_filename = "gen/third_party/blink/public/mojom/file_system_access/file_system_access_file_writer.mojom.cc"
target datalayout = "e-m:e-i64:64-f80:128-n8:16:32:64-S128"
target triple = "x86_64-unknown-linux-gnu"

module asm ".symver exp, exp@GLIBC_2.2.5"
module asm ".symver exp2, exp2@GLIBC_2.2.5"
module asm ".symver exp2f, exp2f@GLIBC_2.2.5"
module asm ".symver expf, expf@GLIBC_2.2.5"
module asm ".symver lgamma, lgamma@GLIBC_2.2.5"
module asm ".symver lgammaf, lgammaf@GLIBC_2.2.5"
module asm ".symver lgammal, lgammal@GLIBC_2.2.5"
module asm ".symver log, log@GLIBC_2.2.5"
module asm ".symver log2, log2@GLIBC_2.2.5"
module asm ".symver log2f, log2f@GLIBC_2.2.5"
module asm ".symver logf, logf@GLIBC_2.2.5"
module asm ".symver pow, pow@GLIBC_2.2.5"
module asm ".symver powf, powf@GLIBC_2.2.5"

%"struct.mojo::internal::GenericValidationInfo" = type { i1 (i8*, %"class.mojo::internal::ValidationContext"*)*, i1 (i8*, %"class.mojo::internal::ValidationContext"*)* }
%"class.mojo::internal::ValidationContext" = type <{ %"class.mojo::Message"*, i8*, i32, [4 x i8], i64, i64, i32, i32, i32, i32, i32, [4 x i8] }>
%"class.mojo::Message" = type { %"class.mojo::ScopedHandleBase.1", %"class.mojo::internal::Buffer", %"class.std::__1::vector", %"class.std::__1::vector.4", %"class.mojo::ConnectionGroup::Ref"*, i8, i8, i8* }
%"class.mojo::ScopedHandleBase.1" = type { %"class.mojo::MessageHandle" }
%"class.mojo::MessageHandle" = type { i64 }
%"class.mojo::internal::Buffer" = type { %"class.mojo::MessageHandle", i64, i8*, i64, i64 }
%"class.std::__1::vector" = type { %"class.std::__1::__vector_base" }
%"class.std::__1::__vector_base" = type { %"class.mojo::ScopedHandleBase.2"*, %"class.mojo::ScopedHandleBase.2"*, %"class.std::__1::__compressed_pair" }
%"class.mojo::ScopedHandleBase.2" = type { %"class.mojo::Handle" }
%"class.mojo::Handle" = type { i32 }
%"class.std::__1::__compressed_pair" = type { %"struct.std::__1::__compressed_pair_elem" }
%"struct.std::__1::__compressed_pair_elem" = type { %"class.mojo::ScopedHandleBase.2"* }
%"class.std::__1::vector.4" = type { %"class.std::__1::__vector_base.5" }
%"class.std::__1::__vector_base.5" = type { %"class.mojo::ScopedInterfaceEndpointHandle"*, %"class.mojo::ScopedInterfaceEndpointHandle"*, %"class.std::__1::__compressed_pair.7" }
%"class.mojo::ScopedInterfaceEndpointHandle" = type { %class.scoped_refptr.6 }
%class.scoped_refptr.6 = type { %"class.mojo::ScopedInterfaceEndpointHandle::State"* }
%"class.mojo::ScopedInterfaceEndpointHandle::State" = type opaque
%"class.std::__1::__compressed_pair.7" = type { %"struct.std::__1::__compressed_pair_elem.8" }
%"struct.std::__1::__compressed_pair_elem.8" = type { %"class.mojo::ScopedInterfaceEndpointHandle"* }
%"class.mojo::ConnectionGroup::Ref" = type { i32, %class.scoped_refptr.12 }
%class.scoped_refptr.12 = type { %"class.mojo::ConnectionGroup"* }
%"class.mojo::ConnectionGroup" = type <{ i32 (...)**, %"class.base::RefCountedThreadSafe.13", [4 x i8], %"class.base::RepeatingCallback", %class.scoped_refptr.14, %"class.mojo::ConnectionGroup::Ref", %"struct.std::__1::atomic.16", [4 x i8] }>
%"class.base::RefCountedThreadSafe.13" = type { %"class.base::subtle::RefCountedThreadSafeBase" }
%"class.base::subtle::RefCountedThreadSafeBase" = type { %"class.base::AtomicRefCount" }
%"class.base::AtomicRefCount" = type { %"struct.std::__1::atomic" }
%"struct.std::__1::atomic" = type { %"struct.std::__1::__atomic_base" }
%"struct.std::__1::__atomic_base" = type { %"struct.std::__1::__atomic_base.0" }
%"struct.std::__1::__atomic_base.0" = type { %"struct.std::__1::__cxx_atomic_impl" }
%"struct.std::__1::__cxx_atomic_impl" = type { %"struct.std::__1::__cxx_atomic_base_impl" }
%"struct.std::__1::__cxx_atomic_base_impl" = type { i32 }
%"class.base::RepeatingCallback" = type { %"class.base::internal::CallbackBaseCopyable" }
%"class.base::internal::CallbackBaseCopyable" = type { %"class.base::internal::CallbackBase" }
%"class.base::internal::CallbackBase" = type { %class.scoped_refptr }
%class.scoped_refptr = type { %"class.base::internal::BindStateBase"* }
%"class.base::internal::BindStateBase" = type { %"class.base::RefCountedThreadSafe", void ()*, void (%"class.base::internal::BindStateBase"*)*, i1 (%"class.base::internal::BindStateBase"*, i32)* }
%"class.base::RefCountedThreadSafe" = type { %"class.base::subtle::RefCountedThreadSafeBase" }
%class.scoped_refptr.14 = type { %"class.base::SequencedTaskRunner"* }
%"class.base::SequencedTaskRunner" = type { %"class.base::TaskRunner.base", [4 x i8] }
%"class.base::TaskRunner.base" = type <{ i32 (...)**, %"class.base::RefCountedThreadSafe.15" }>
%"class.base::RefCountedThreadSafe.15" = type { %"class.base::subtle::RefCountedThreadSafeBase" }
%"struct.std::__1::atomic.16" = type { %"struct.std::__1::__atomic_base.17" }
%"struct.std::__1::__atomic_base.17" = type { %"struct.std::__1::__atomic_base.18" }
%"struct.std::__1::__atomic_base.18" = type { %"struct.std::__1::__cxx_atomic_impl.19" }
%"struct.std::__1::__cxx_atomic_impl.19" = type { %"struct.std::__1::__cxx_atomic_base_impl.20" }
%"struct.std::__1::__cxx_atomic_base_impl.20" = type { i32 }
%"class.blink::mojom::FileSystemAccessFileWriterProxy" = type { %"class.blink::mojom::FileSystemAccessFileWriter", %"class.mojo::MessageReceiverWithResponder"* }
%"class.blink::mojom::FileSystemAccessFileWriter" = type { i32 (...)** }
%"class.mojo::MessageReceiverWithResponder" = type { %"class.mojo::MessageReceiver" }
%"class.mojo::MessageReceiver" = type { i32 (...)** }
%"class.mojo::ScopedHandleBase" = type { %"class.mojo::DataPipeConsumerHandle" }
%"class.mojo::DataPipeConsumerHandle" = type { %"class.mojo::Handle" }
%"class.base::OnceCallback" = type { %"class.base::internal::CallbackBase" }
%"class.blink::mojom::internal::FileSystemAccessFileWriter_Write_Params_Data" = type { %"struct.mojo::internal::StructHeader", i64, %"struct.mojo::internal::Handle_Data", [4 x i8] }
%"struct.mojo::internal::StructHeader" = type { i32, i32 }
%"struct.mojo::internal::Handle_Data" = type { i32 }
%"class.base::OnceCallback.24" = type { %"class.base::internal::CallbackBase" }
%"class.blink::mojom::internal::FileSystemAccessFileWriter_Truncate_Params_Data" = type { %"struct.mojo::internal::StructHeader", i64 }
%"class.blink::mojom::internal::FileSystemAccessFileWriter_Close_Params_Data" = type { %"struct.mojo::internal::StructHeader" }
%"class.blink::mojom::internal::FileSystemAccessFileWriter_Abort_Params_Data" = type { %"struct.mojo::internal::StructHeader" }
%"class.blink::mojom::FileSystemAccessFileWriter_Write_ForwardToCallback" = type { %"class.mojo::MessageReceiver", %"class.base::OnceCallback" }
%"class.mojo::InlinedStructPtr" = type <{ %"class.blink::mojom::FileSystemAccessError", i32, [4 x i8] }>
%"class.blink::mojom::FileSystemAccessError" = type { i32, i32, %"class.std::__1::basic_string" }
%"class.std::__1::basic_string" = type { %"class.std::__1::__compressed_pair.28" }
%"class.std::__1::__compressed_pair.28" = type { %"struct.std::__1::__compressed_pair_elem.29" }
%"struct.std::__1::__compressed_pair_elem.29" = type { %"struct.std::__1::basic_string<char, std::__1::char_traits<char>, std::__1::allocator<char> >::__rep" }
%"struct.std::__1::basic_string<char, std::__1::char_traits<char>, std::__1::allocator<char> >::__rep" = type { %union.anon }
%union.anon = type { %"struct.std::__1::basic_string<char, std::__1::char_traits<char>, std::__1::allocator<char> >::__long" }
%"struct.std::__1::basic_string<char, std::__1::char_traits<char>, std::__1::allocator<char> >::__long" = type { i8*, i64, i64 }
%"class.blink::mojom::internal::FileSystemAccessError_Data" = type { %"struct.mojo::internal::StructHeader", i32, i32, %"struct.mojo::internal::Pointer.41" }
%"struct.mojo::internal::Pointer.41" = type { i64 }
%"class.blink::mojom::FileSystemAccessFileWriter_Write_ProxyToResponder" = type { i64, i8, %"class.std::__1::unique_ptr.33" }
%"class.std::__1::unique_ptr.33" = type { %"class.std::__1::__compressed_pair.34" }
%"class.std::__1::__compressed_pair.34" = type { %"struct.std::__1::__compressed_pair_elem.35" }
%"struct.std::__1::__compressed_pair_elem.35" = type { %"class.mojo::MessageReceiverWithStatus"* }
%"class.mojo::MessageReceiverWithStatus" = type { %"class.mojo::MessageReceiver" }
%"class.mojo::internal::MessageFragment.40" = type { %"class.mojo::Message"*, i64 }
%"class.blink::mojom::internal::FileSystemAccessFileWriter_Write_ResponseParams_Data" = type { %"struct.mojo::internal::StructHeader", %"struct.mojo::internal::Pointer", i64 }
%"struct.mojo::internal::Pointer" = type { i64 }
%"struct.mojo::internal::MessageHeaderV1" = type { %"struct.mojo::internal::MessageHeader", i64 }
%"struct.mojo::internal::MessageHeader" = type { %"struct.mojo::internal::StructHeader", i32, i32, i32, i32 }
%"class.blink::mojom::FileSystemAccessFileWriter_Truncate_ForwardToCallback" = type { %"class.mojo::MessageReceiver", %"class.base::OnceCallback.24" }
%"class.blink::mojom::FileSystemAccessFileWriter_Truncate_ProxyToResponder" = type { i64, i8, %"class.std::__1::unique_ptr.33" }
%"class.blink::mojom::internal::FileSystemAccessFileWriter_Truncate_ResponseParams_Data" = type { %"struct.mojo::internal::StructHeader", %"struct.mojo::internal::Pointer" }
%"class.blink::mojom::FileSystemAccessFileWriter_Close_ForwardToCallback" = type { %"class.mojo::MessageReceiver", %"class.base::OnceCallback.24" }
%"class.blink::mojom::FileSystemAccessFileWriter_Close_ProxyToResponder" = type { i64, i8, %"class.std::__1::unique_ptr.33" }
%"class.blink::mojom::internal::FileSystemAccessFileWriter_Close_ResponseParams_Data" = type { %"struct.mojo::internal::StructHeader", %"struct.mojo::internal::Pointer" }
%"class.blink::mojom::FileSystemAccessFileWriter_Abort_ForwardToCallback" = type { %"class.mojo::MessageReceiver", %"class.base::OnceCallback.24" }
%"class.blink::mojom::FileSystemAccessFileWriter_Abort_ProxyToResponder" = type { i64, i8, %"class.std::__1::unique_ptr.33" }
%"class.blink::mojom::internal::FileSystemAccessFileWriter_Abort_ResponseParams_Data" = type { %"struct.mojo::internal::StructHeader", %"struct.mojo::internal::Pointer" }
%"class.base::TaskAnnotator::ScopedSetIpcHash" = type { %"class.base::TaskAnnotator::ScopedSetIpcHash"*, i32, i8* }
%"class.blink::mojom::FileSystemAccessFileWriterRequestValidator" = type { %"class.mojo::MessageReceiver" }
%"class.blink::mojom::FileSystemAccessFileWriterResponseValidator" = type { %"class.mojo::MessageReceiver" }
%"struct.std::__1::basic_string<char, std::__1::char_traits<char>, std::__1::allocator<char> >::__short" = type { [23 x i8], %struct.anon }
%struct.anon = type { i8 }
%"class.mojo::internal::MessageFragment.87" = type { %"class.mojo::Message"*, i64 }
%"class.mojo::internal::Array_Data" = type { %"struct.mojo::internal::ArrayHeader" }
%"struct.mojo::internal::ArrayHeader" = type { i32, i32 }

$_ZN5blink5mojom50FileSystemAccessFileWriter_Write_ForwardToCallbackD2Ev = comdat any

$_ZN5blink5mojom50FileSystemAccessFileWriter_Write_ForwardToCallbackD0Ev = comdat any

$_ZN5blink5mojom53FileSystemAccessFileWriter_Truncate_ForwardToCallbackD2Ev = comdat any

$_ZN5blink5mojom53FileSystemAccessFileWriter_Truncate_ForwardToCallbackD0Ev = comdat any

$_ZN5blink5mojom50FileSystemAccessFileWriter_Close_ForwardToCallbackD2Ev = comdat any

$_ZN5blink5mojom50FileSystemAccessFileWriter_Close_ForwardToCallbackD0Ev = comdat any

$_ZN5blink5mojom50FileSystemAccessFileWriter_Abort_ForwardToCallbackD2Ev = comdat any

$_ZN5blink5mojom50FileSystemAccessFileWriter_Abort_ForwardToCallbackD0Ev = comdat any

$_ZN5blink5mojom31FileSystemAccessFileWriterProxyD0Ev = comdat any

$_ZN4mojo15MessageReceiverD2Ev = comdat any

$_ZN5blink5mojom42FileSystemAccessFileWriterRequestValidatorD0Ev = comdat any

$_ZN5blink5mojom43FileSystemAccessFileWriterResponseValidatorD0Ev = comdat any

$_ZN5blink5mojom26FileSystemAccessFileWriterD2Ev = comdat any

$_ZN4base8internal7InvokerINS0_9BindStateIMN5blink5mojom49FileSystemAccessFileWriter_Write_ProxyToResponderEFvN4mojo16InlinedStructPtrINS4_21FileSystemAccessErrorEEEmEJNSt3__110unique_ptrIS5_NSC_14default_deleteIS5_EEEEEEEFvS9_mEE7RunOnceEPNS0_13BindStateBaseEOS9_m = comdat any

$_ZN4base8internal9BindStateIMN5blink5mojom49FileSystemAccessFileWriter_Write_ProxyToResponderEFvN4mojo16InlinedStructPtrINS3_21FileSystemAccessErrorEEEmEJNSt3__110unique_ptrIS4_NSB_14default_deleteIS4_EEEEEE7DestroyEPKNS0_13BindStateBaseE = comdat any

$_ZN4base8internal7InvokerINS0_9BindStateIMN5blink5mojom52FileSystemAccessFileWriter_Truncate_ProxyToResponderEFvN4mojo16InlinedStructPtrINS4_21FileSystemAccessErrorEEEEJNSt3__110unique_ptrIS5_NSC_14default_deleteIS5_EEEEEEEFvS9_EE7RunOnceEPNS0_13BindStateBaseEOS9_ = comdat any

$_ZN4base8internal9BindStateIMN5blink5mojom52FileSystemAccessFileWriter_Truncate_ProxyToResponderEFvN4mojo16InlinedStructPtrINS3_21FileSystemAccessErrorEEEEJNSt3__110unique_ptrIS4_NSB_14default_deleteIS4_EEEEEE7DestroyEPKNS0_13BindStateBaseE = comdat any

$_ZN4base8internal7InvokerINS0_9BindStateIMN5blink5mojom49FileSystemAccessFileWriter_Close_ProxyToResponderEFvN4mojo16InlinedStructPtrINS4_21FileSystemAccessErrorEEEEJNSt3__110unique_ptrIS5_NSC_14default_deleteIS5_EEEEEEEFvS9_EE7RunOnceEPNS0_13BindStateBaseEOS9_ = comdat any

$_ZN4base8internal9BindStateIMN5blink5mojom49FileSystemAccessFileWriter_Close_ProxyToResponderEFvN4mojo16InlinedStructPtrINS3_21FileSystemAccessErrorEEEEJNSt3__110unique_ptrIS4_NSB_14default_deleteIS4_EEEEEE7DestroyEPKNS0_13BindStateBaseE = comdat any

$_ZN4base8internal7InvokerINS0_9BindStateIMN5blink5mojom49FileSystemAccessFileWriter_Abort_ProxyToResponderEFvN4mojo16InlinedStructPtrINS4_21FileSystemAccessErrorEEEEJNSt3__110unique_ptrIS5_NSC_14default_deleteIS5_EEEEEEEFvS9_EE7RunOnceEPNS0_13BindStateBaseEOS9_ = comdat any

$_ZN4base8internal9BindStateIMN5blink5mojom49FileSystemAccessFileWriter_Abort_ProxyToResponderEFvN4mojo16InlinedStructPtrINS3_21FileSystemAccessErrorEEEEJNSt3__110unique_ptrIS4_NSB_14default_deleteIS4_EEEEEE7DestroyEPKNS0_13BindStateBaseE = comdat any

$_ZNSt3__14swapIN5blink5mojom21FileSystemAccessErrorEEENS_9enable_ifIXaasr21is_move_constructibleIT_EE5valuesr18is_move_assignableIS5_EE5valueEvE4typeERS5_S8_ = comdat any

$_ZN4mojo8internal10SerializerIN5blink5mojom29FileSystemAccessErrorDataViewENS_16InlinedStructPtrINS3_21FileSystemAccessErrorEEEE9SerializeERS7_RNS0_15MessageFragmentINS3_8internal26FileSystemAccessError_DataEEE = comdat any

$_ZN4mojo8internal10SerializerINS_14StringDataViewEKNSt3__112basic_stringIcNS3_11char_traitsIcEENS3_9allocatorIcEEEEE9SerializeERSA_RNS0_15MessageFragmentINS0_10Array_DataIcEEEE = comdat any

@_ZN5blink5mojom26FileSystemAccessFileWriter5Name_E = hidden constant [39 x i8] c"blink.mojom.FileSystemAccessFileWriter\00", align 16
@_ZTVN5blink5mojom31FileSystemAccessFileWriterProxyE = hidden unnamed_addr constant { [8 x i8*] } { [8 x i8*] [i8* null, i8* null, i8* bitcast (void (%"class.blink::mojom::FileSystemAccessFileWriter"*)* @_ZN5blink5mojom26FileSystemAccessFileWriterD2Ev to i8*), i8* bitcast (void (%"class.blink::mojom::FileSystemAccessFileWriterProxy"*)* @_ZN5blink5mojom31FileSystemAccessFileWriterProxyD0Ev to i8*), i8* bitcast (void (%"class.blink::mojom::FileSystemAccessFileWriterProxy"*, i64, %"class.mojo::ScopedHandleBase"*, %"class.base::OnceCallback"*)* @_ZN5blink5mojom31FileSystemAccessFileWriterProxy5WriteEmN4mojo16ScopedHandleBaseINS2_22DataPipeConsumerHandleEEEN4base12OnceCallbackIFvNS2_16InlinedStructPtrINS0_21FileSystemAccessErrorEEEmEEE to i8*), i8* bitcast (void (%"class.blink::mojom::FileSystemAccessFileWriterProxy"*, i64, %"class.base::OnceCallback.24"*)* @_ZN5blink5mojom31FileSystemAccessFileWriterProxy8TruncateEmN4base12OnceCallbackIFvN4mojo16InlinedStructPtrINS0_21FileSystemAccessErrorEEEEEE to i8*), i8* bitcast (void (%"class.blink::mojom::FileSystemAccessFileWriterProxy"*, %"class.base::OnceCallback.24"*)* @_ZN5blink5mojom31FileSystemAccessFileWriterProxy5CloseEN4base12OnceCallbackIFvN4mojo16InlinedStructPtrINS0_21FileSystemAccessErrorEEEEEE to i8*), i8* bitcast (void (%"class.blink::mojom::FileSystemAccessFileWriterProxy"*, %"class.base::OnceCallback.24"*)* @_ZN5blink5mojom31FileSystemAccessFileWriterProxy5AbortEN4base12OnceCallbackIFvN4mojo16InlinedStructPtrINS0_21FileSystemAccessErrorEEEEEE to i8*)] }, align 8
@_ZN5blink5mojomL41kFileSystemAccessFileWriterValidationInfoE = internal constant [4 x %"struct.mojo::internal::GenericValidationInfo"] [%"struct.mojo::internal::GenericValidationInfo" { i1 (i8*, %"class.mojo::internal::ValidationContext"*)* @_ZN5blink5mojom8internal44FileSystemAccessFileWriter_Write_Params_Data8ValidateEPKvPN4mojo8internal17ValidationContextE, i1 (i8*, %"class.mojo::internal::ValidationContext"*)* @_ZN5blink5mojom8internal52FileSystemAccessFileWriter_Write_ResponseParams_Data8ValidateEPKvPN4mojo8internal17ValidationContextE }, %"struct.mojo::internal::GenericValidationInfo" { i1 (i8*, %"class.mojo::internal::ValidationContext"*)* @_ZN5blink5mojom8internal47FileSystemAccessFileWriter_Truncate_Params_Data8ValidateEPKvPN4mojo8internal17ValidationContextE, i1 (i8*, %"class.mojo::internal::ValidationContext"*)* @_ZN5blink5mojom8internal55FileSystemAccessFileWriter_Truncate_ResponseParams_Data8ValidateEPKvPN4mojo8internal17ValidationContextE }, %"struct.mojo::internal::GenericValidationInfo" { i1 (i8*, %"class.mojo::internal::ValidationContext"*)* @_ZN5blink5mojom8internal44FileSystemAccessFileWriter_Close_Params_Data8ValidateEPKvPN4mojo8internal17ValidationContextE, i1 (i8*, %"class.mojo::internal::ValidationContext"*)* @_ZN5blink5mojom8internal52FileSystemAccessFileWriter_Close_ResponseParams_Data8ValidateEPKvPN4mojo8internal17ValidationContextE }, %"struct.mojo::internal::GenericValidationInfo" { i1 (i8*, %"class.mojo::internal::ValidationContext"*)* @_ZN5blink5mojom8internal44FileSystemAccessFileWriter_Abort_Params_Data8ValidateEPKvPN4mojo8internal17ValidationContextE, i1 (i8*, %"class.mojo::internal::ValidationContext"*)* @_ZN5blink5mojom8internal52FileSystemAccessFileWriter_Abort_ResponseParams_Data8ValidateEPKvPN4mojo8internal17ValidationContextE }], align 16
@_ZTVN5blink5mojom50FileSystemAccessFileWriter_Write_ForwardToCallbackE = hidden unnamed_addr constant { [6 x i8*] } { [6 x i8*] [i8* null, i8* null, i8* bitcast (void (%"class.blink::mojom::FileSystemAccessFileWriter_Write_ForwardToCallback"*)* @_ZN5blink5mojom50FileSystemAccessFileWriter_Write_ForwardToCallbackD2Ev to i8*), i8* bitcast (void (%"class.blink::mojom::FileSystemAccessFileWriter_Write_ForwardToCallback"*)* @_ZN5blink5mojom50FileSystemAccessFileWriter_Write_ForwardToCallbackD0Ev to i8*), i8* bitcast (i1 (%"class.mojo::MessageReceiver"*)* @_ZN4mojo15MessageReceiver25PrefersSerializedMessagesEv to i8*), i8* bitcast (i1 (%"class.blink::mojom::FileSystemAccessFileWriter_Write_ForwardToCallback"*, %"class.mojo::Message"*)* @_ZN5blink5mojom50FileSystemAccessFileWriter_Write_ForwardToCallback6AcceptEPN4mojo7MessageE to i8*)] }, align 8
@_ZTVN5blink5mojom53FileSystemAccessFileWriter_Truncate_ForwardToCallbackE = hidden unnamed_addr constant { [6 x i8*] } { [6 x i8*] [i8* null, i8* null, i8* bitcast (void (%"class.blink::mojom::FileSystemAccessFileWriter_Truncate_ForwardToCallback"*)* @_ZN5blink5mojom53FileSystemAccessFileWriter_Truncate_ForwardToCallbackD2Ev to i8*), i8* bitcast (void (%"class.blink::mojom::FileSystemAccessFileWriter_Truncate_ForwardToCallback"*)* @_ZN5blink5mojom53FileSystemAccessFileWriter_Truncate_ForwardToCallbackD0Ev to i8*), i8* bitcast (i1 (%"class.mojo::MessageReceiver"*)* @_ZN4mojo15MessageReceiver25PrefersSerializedMessagesEv to i8*), i8* bitcast (i1 (%"class.blink::mojom::FileSystemAccessFileWriter_Truncate_ForwardToCallback"*, %"class.mojo::Message"*)* @_ZN5blink5mojom53FileSystemAccessFileWriter_Truncate_ForwardToCallback6AcceptEPN4mojo7MessageE to i8*)] }, align 8
@_ZTVN5blink5mojom50FileSystemAccessFileWriter_Close_ForwardToCallbackE = hidden unnamed_addr constant { [6 x i8*] } { [6 x i8*] [i8* null, i8* null, i8* bitcast (void (%"class.blink::mojom::FileSystemAccessFileWriter_Close_ForwardToCallback"*)* @_ZN5blink5mojom50FileSystemAccessFileWriter_Close_ForwardToCallbackD2Ev to i8*), i8* bitcast (void (%"class.blink::mojom::FileSystemAccessFileWriter_Close_ForwardToCallback"*)* @_ZN5blink5mojom50FileSystemAccessFileWriter_Close_ForwardToCallbackD0Ev to i8*), i8* bitcast (i1 (%"class.mojo::MessageReceiver"*)* @_ZN4mojo15MessageReceiver25PrefersSerializedMessagesEv to i8*), i8* bitcast (i1 (%"class.blink::mojom::FileSystemAccessFileWriter_Close_ForwardToCallback"*, %"class.mojo::Message"*)* @_ZN5blink5mojom50FileSystemAccessFileWriter_Close_ForwardToCallback6AcceptEPN4mojo7MessageE to i8*)] }, align 8
@_ZTVN5blink5mojom50FileSystemAccessFileWriter_Abort_ForwardToCallbackE = hidden unnamed_addr constant { [6 x i8*] } { [6 x i8*] [i8* null, i8* null, i8* bitcast (void (%"class.blink::mojom::FileSystemAccessFileWriter_Abort_ForwardToCallback"*)* @_ZN5blink5mojom50FileSystemAccessFileWriter_Abort_ForwardToCallbackD2Ev to i8*), i8* bitcast (void (%"class.blink::mojom::FileSystemAccessFileWriter_Abort_ForwardToCallback"*)* @_ZN5blink5mojom50FileSystemAccessFileWriter_Abort_ForwardToCallbackD0Ev to i8*), i8* bitcast (i1 (%"class.mojo::MessageReceiver"*)* @_ZN4mojo15MessageReceiver25PrefersSerializedMessagesEv to i8*), i8* bitcast (i1 (%"class.blink::mojom::FileSystemAccessFileWriter_Abort_ForwardToCallback"*, %"class.mojo::Message"*)* @_ZN5blink5mojom50FileSystemAccessFileWriter_Abort_ForwardToCallback6AcceptEPN4mojo7MessageE to i8*)] }, align 8
@_ZTVN5blink5mojom42FileSystemAccessFileWriterRequestValidatorE = hidden unnamed_addr constant { [6 x i8*] } { [6 x i8*] [i8* null, i8* null, i8* bitcast (void (%"class.mojo::MessageReceiver"*)* @_ZN4mojo15MessageReceiverD2Ev to i8*), i8* bitcast (void (%"class.blink::mojom::FileSystemAccessFileWriterRequestValidator"*)* @_ZN5blink5mojom42FileSystemAccessFileWriterRequestValidatorD0Ev to i8*), i8* bitcast (i1 (%"class.mojo::MessageReceiver"*)* @_ZN4mojo15MessageReceiver25PrefersSerializedMessagesEv to i8*), i8* bitcast (i1 (%"class.blink::mojom::FileSystemAccessFileWriterRequestValidator"*, %"class.mojo::Message"*)* @_ZN5blink5mojom42FileSystemAccessFileWriterRequestValidator6AcceptEPN4mojo7MessageE to i8*)] }, align 8
@_ZTVN5blink5mojom43FileSystemAccessFileWriterResponseValidatorE = hidden unnamed_addr constant { [6 x i8*] } { [6 x i8*] [i8* null, i8* null, i8* bitcast (void (%"class.mojo::MessageReceiver"*)* @_ZN4mojo15MessageReceiverD2Ev to i8*), i8* bitcast (void (%"class.blink::mojom::FileSystemAccessFileWriterResponseValidator"*)* @_ZN5blink5mojom43FileSystemAccessFileWriterResponseValidatorD0Ev to i8*), i8* bitcast (i1 (%"class.mojo::MessageReceiver"*)* @_ZN4mojo15MessageReceiver25PrefersSerializedMessagesEv to i8*), i8* bitcast (i1 (%"class.blink::mojom::FileSystemAccessFileWriterResponseValidator"*, %"class.mojo::Message"*)* @_ZN5blink5mojom43FileSystemAccessFileWriterResponseValidator6AcceptEPN4mojo7MessageE to i8*)] }, align 8
@switch.table._ZN4mojo8internal10SerializerIN5blink5mojom29FileSystemAccessErrorDataViewENS_16InlinedStructPtrINS3_21FileSystemAccessErrorEEEE9SerializeERS7_RNS0_15MessageFragmentINS3_8internal26FileSystemAccessError_DataEEE = private unnamed_addr constant [18 x i32] [i32 -1, i32 -16, i32 -15, i32 -14, i32 -13, i32 -12, i32 -11, i32 -10, i32 -9, i32 -8, i32 -7, i32 -6, i32 -5, i32 -4, i32 -3, i32 -2, i32 -1, i32 0], align 4

@_ZN5blink5mojom31FileSystemAccessFileWriterProxyC1EPN4mojo28MessageReceiverWithResponderE = hidden unnamed_addr alias void (%"class.blink::mojom::FileSystemAccessFileWriterProxy"*, %"class.mojo::MessageReceiverWithResponder"*), void (%"class.blink::mojom::FileSystemAccessFileWriterProxy"*, %"class.mojo::MessageReceiverWithResponder"*)* @_ZN5blink5mojom31FileSystemAccessFileWriterProxyC2EPN4mojo28MessageReceiverWithResponderE

; Function Attrs: nofree norecurse nounwind ssp uwtable writeonly
define hidden void @_ZN5blink5mojom31FileSystemAccessFileWriterProxyC2EPN4mojo28MessageReceiverWithResponderE(%"class.blink::mojom::FileSystemAccessFileWriterProxy"* nocapture, %"class.mojo::MessageReceiverWithResponder"*) unnamed_addr #0 align 2 {
  %3 = getelementptr inbounds %"class.blink::mojom::FileSystemAccessFileWriterProxy", %"class.blink::mojom::FileSystemAccessFileWriterProxy"* %0, i64 0, i32 0, i32 0
  store i32 (...)** bitcast (i8** getelementptr inbounds ({ [8 x i8*] }, { [8 x i8*] }* @_ZTVN5blink5mojom31FileSystemAccessFileWriterProxyE, i64 0, inrange i32 0, i64 2) to i32 (...)**), i32 (...)*** %3, align 8
  %4 = getelementptr inbounds %"class.blink::mojom::FileSystemAccessFileWriterProxy", %"class.blink::mojom::FileSystemAccessFileWriterProxy"* %0, i64 0, i32 1
  store %"class.mojo::MessageReceiverWithResponder"* %1, %"class.mojo::MessageReceiverWithResponder"** %4, align 8
  ret void
}

; Function Attrs: nounwind ssp uwtable
define hidden void @_ZN5blink5mojom31FileSystemAccessFileWriterProxy5WriteEmN4mojo16ScopedHandleBaseINS2_22DataPipeConsumerHandleEEEN4base12OnceCallbackIFvNS2_16InlinedStructPtrINS0_21FileSystemAccessErrorEEEmEEE(%"class.blink::mojom::FileSystemAccessFileWriterProxy"* nocapture readonly, i64, %"class.mojo::ScopedHandleBase"* nocapture, %"class.base::OnceCallback"* nocapture) unnamed_addr #1 align 2 {
  %5 = alloca %"class.mojo::ScopedHandleBase.2", align 4
  %6 = alloca %"class.mojo::Message", align 8
  %7 = alloca %"class.base::OnceCallback", align 8
  %8 = bitcast %"class.mojo::Message"* %6 to i8*
  call void @llvm.lifetime.start.p0i8(i64 120, i8* nonnull %8) #9
  call void @llvm.memset.p0i8.i64(i8* nonnull align 8 %8, i8 -86, i64 120, i1 false)
  call void @_ZN4mojo7MessageC1EjjmmPNSt3__16vectorINS_16ScopedHandleBaseINS_6HandleEEENS1_9allocatorIS5_EEEE(%"class.mojo::Message"* nonnull %6, i32 0, i32 1, i64 0, i64 0, %"class.std::__1::vector"* null) #9
  %9 = getelementptr inbounds %"class.mojo::Message", %"class.mojo::Message"* %6, i64 0, i32 1
  %10 = call i64 @_ZN4mojo8internal6Buffer8AllocateEm(%"class.mojo::internal::Buffer"* %9, i64 24) #9
  %11 = getelementptr inbounds %"class.mojo::Message", %"class.mojo::Message"* %6, i64 0, i32 1, i32 2
  %12 = load i8*, i8** %11, align 8
  %13 = getelementptr inbounds i8, i8* %12, i64 %10
  %14 = bitcast i8* %13 to %"class.blink::mojom::internal::FileSystemAccessFileWriter_Write_Params_Data"*
  call void @_ZN5blink5mojom8internal44FileSystemAccessFileWriter_Write_Params_DataC1Ev(%"class.blink::mojom::internal::FileSystemAccessFileWriter_Write_Params_Data"* %14) #9
  %15 = load i8*, i8** %11, align 8
  %16 = getelementptr inbounds i8, i8* %15, i64 %10
  %17 = getelementptr inbounds i8, i8* %16, i64 8
  %18 = bitcast i8* %17 to i64*
  store i64 %1, i64* %18, align 8
  %19 = load i8*, i8** %11, align 8
  %20 = getelementptr inbounds i8, i8* %19, i64 %10
  %21 = getelementptr inbounds i8, i8* %20, i64 16
  %22 = bitcast i8* %21 to %"struct.mojo::internal::Handle_Data"*
  %23 = bitcast %"class.mojo::ScopedHandleBase.2"* %5 to i8*
  call void @llvm.lifetime.start.p0i8(i64 4, i8* nonnull %23) #9
  %24 = getelementptr inbounds %"class.mojo::ScopedHandleBase", %"class.mojo::ScopedHandleBase"* %2, i64 0, i32 0, i32 0, i32 0
  %25 = load i32, i32* %24, align 4, !noalias !2
  store i32 0, i32* %24, align 4, !noalias !2
  %26 = getelementptr inbounds %"class.mojo::ScopedHandleBase.2", %"class.mojo::ScopedHandleBase.2"* %5, i64 0, i32 0, i32 0
  store i32 %25, i32* %26, align 4, !alias.scope !5
  call void @_ZN4mojo8internal15SerializeHandleENS_16ScopedHandleBaseINS_6HandleEEERNS_7MessageERNS0_11Handle_DataE(%"class.mojo::ScopedHandleBase.2"* nonnull %5, %"class.mojo::Message"* nonnull dereferenceable(120) %6, %"struct.mojo::internal::Handle_Data"* dereferenceable(4) %22) #9
  %27 = load i32, i32* %26, align 4
  %28 = icmp eq i32 %27, 0
  br i1 %28, label %31, label %29

29:                                               ; preds = %4
  %30 = call i32 @MojoClose(i32 %27) #9
  br label %31

31:                                               ; preds = %29, %4
  call void @llvm.lifetime.end.p0i8(i64 4, i8* nonnull %23) #9
  %32 = call i8* @_Znwm(i64 16) #10
  %33 = getelementptr inbounds %"class.base::OnceCallback", %"class.base::OnceCallback"* %3, i64 0, i32 0, i32 0, i32 0
  %34 = bitcast %"class.base::OnceCallback"* %3 to i64*
  %35 = load i64, i64* %34, align 8
  store %"class.base::internal::BindStateBase"* null, %"class.base::internal::BindStateBase"** %33, align 8
  %36 = bitcast i8* %32 to i32 (...)***
  store i32 (...)** bitcast (i8** getelementptr inbounds ({ [6 x i8*] }, { [6 x i8*] }* @_ZTVN5blink5mojom50FileSystemAccessFileWriter_Write_ForwardToCallbackE, i64 0, inrange i32 0, i64 2) to i32 (...)**), i32 (...)*** %36, align 8
  %37 = getelementptr inbounds i8, i8* %32, i64 8
  %38 = getelementptr inbounds %"class.base::OnceCallback", %"class.base::OnceCallback"* %7, i64 0, i32 0, i32 0, i32 0
  %39 = bitcast i8* %37 to i64*
  store i64 %35, i64* %39, align 8
  store %"class.base::internal::BindStateBase"* null, %"class.base::internal::BindStateBase"** %38, align 8
  %40 = bitcast i8* %32 to %"class.mojo::MessageReceiver"*
  %41 = getelementptr inbounds %"class.base::OnceCallback", %"class.base::OnceCallback"* %7, i64 0, i32 0
  call void @_ZN4base8internal12CallbackBaseD2Ev(%"class.base::internal::CallbackBase"* nonnull %41) #9
  %42 = getelementptr inbounds %"class.blink::mojom::FileSystemAccessFileWriterProxy", %"class.blink::mojom::FileSystemAccessFileWriterProxy"* %0, i64 0, i32 1
  %43 = load %"class.mojo::MessageReceiverWithResponder"*, %"class.mojo::MessageReceiverWithResponder"** %42, align 8
  %44 = bitcast %"class.mojo::MessageReceiverWithResponder"* %43 to i1 (%"class.mojo::MessageReceiverWithResponder"*, %"class.mojo::Message"*, %"class.mojo::MessageReceiver"*)***
  %45 = load i1 (%"class.mojo::MessageReceiverWithResponder"*, %"class.mojo::Message"*, %"class.mojo::MessageReceiver"*)**, i1 (%"class.mojo::MessageReceiverWithResponder"*, %"class.mojo::Message"*, %"class.mojo::MessageReceiver"*)*** %44, align 8
  %46 = getelementptr inbounds i1 (%"class.mojo::MessageReceiverWithResponder"*, %"class.mojo::Message"*, %"class.mojo::MessageReceiver"*)*, i1 (%"class.mojo::MessageReceiverWithResponder"*, %"class.mojo::Message"*, %"class.mojo::MessageReceiver"*)** %45, i64 4
  %47 = load i1 (%"class.mojo::MessageReceiverWithResponder"*, %"class.mojo::Message"*, %"class.mojo::MessageReceiver"*)*, i1 (%"class.mojo::MessageReceiverWithResponder"*, %"class.mojo::Message"*, %"class.mojo::MessageReceiver"*)** %46, align 8
  %48 = call zeroext i1 %47(%"class.mojo::MessageReceiverWithResponder"* %43, %"class.mojo::Message"* nonnull %6, %"class.mojo::MessageReceiver"* nonnull %40) #9
  call void @_ZN4mojo7MessageD1Ev(%"class.mojo::Message"* nonnull %6) #9
  call void @llvm.lifetime.end.p0i8(i64 120, i8* nonnull %8) #9
  ret void
}

; Function Attrs: argmemonly nounwind
declare void @llvm.lifetime.start.p0i8(i64 immarg, i8* nocapture) #2

; Function Attrs: argmemonly nounwind
declare void @llvm.memset.p0i8.i64(i8* nocapture writeonly, i8, i64, i1 immarg) #2

declare void @_ZN4mojo7MessageC1EjjmmPNSt3__16vectorINS_16ScopedHandleBaseINS_6HandleEEENS1_9allocatorIS5_EEEE(%"class.mojo::Message"*, i32, i32, i64, i64, %"class.std::__1::vector"*) unnamed_addr #3

; Function Attrs: argmemonly nounwind
declare void @llvm.lifetime.end.p0i8(i64 immarg, i8* nocapture) #2

; Function Attrs: nobuiltin nofree
declare noalias nonnull i8* @_Znwm(i64) local_unnamed_addr #4

; Function Attrs: nounwind
declare void @_ZN4mojo7MessageD1Ev(%"class.mojo::Message"*) unnamed_addr #5

; Function Attrs: nounwind ssp uwtable
define hidden void @_ZN5blink5mojom31FileSystemAccessFileWriterProxy8TruncateEmN4base12OnceCallbackIFvN4mojo16InlinedStructPtrINS0_21FileSystemAccessErrorEEEEEE(%"class.blink::mojom::FileSystemAccessFileWriterProxy"* nocapture readonly, i64, %"class.base::OnceCallback.24"* nocapture) unnamed_addr #1 align 2 {
  %4 = alloca %"class.mojo::Message", align 8
  %5 = alloca %"class.base::OnceCallback.24", align 8
  %6 = bitcast %"class.mojo::Message"* %4 to i8*
  call void @llvm.lifetime.start.p0i8(i64 120, i8* nonnull %6) #9
  call void @llvm.memset.p0i8.i64(i8* nonnull align 8 %6, i8 -86, i64 120, i1 false)
  call void @_ZN4mojo7MessageC1EjjmmPNSt3__16vectorINS_16ScopedHandleBaseINS_6HandleEEENS1_9allocatorIS5_EEEE(%"class.mojo::Message"* nonnull %4, i32 1, i32 1, i64 0, i64 0, %"class.std::__1::vector"* null) #9
  %7 = getelementptr inbounds %"class.mojo::Message", %"class.mojo::Message"* %4, i64 0, i32 1
  %8 = call i64 @_ZN4mojo8internal6Buffer8AllocateEm(%"class.mojo::internal::Buffer"* %7, i64 16) #9
  %9 = getelementptr inbounds %"class.mojo::Message", %"class.mojo::Message"* %4, i64 0, i32 1, i32 2
  %10 = load i8*, i8** %9, align 8
  %11 = getelementptr inbounds i8, i8* %10, i64 %8
  %12 = bitcast i8* %11 to %"class.blink::mojom::internal::FileSystemAccessFileWriter_Truncate_Params_Data"*
  call void @_ZN5blink5mojom8internal47FileSystemAccessFileWriter_Truncate_Params_DataC1Ev(%"class.blink::mojom::internal::FileSystemAccessFileWriter_Truncate_Params_Data"* %12) #9
  %13 = load i8*, i8** %9, align 8
  %14 = getelementptr inbounds i8, i8* %13, i64 %8
  %15 = getelementptr inbounds i8, i8* %14, i64 8
  %16 = bitcast i8* %15 to i64*
  store i64 %1, i64* %16, align 8
  %17 = call i8* @_Znwm(i64 16) #10
  %18 = getelementptr inbounds %"class.base::OnceCallback.24", %"class.base::OnceCallback.24"* %2, i64 0, i32 0, i32 0, i32 0
  %19 = bitcast %"class.base::OnceCallback.24"* %2 to i64*
  %20 = load i64, i64* %19, align 8
  store %"class.base::internal::BindStateBase"* null, %"class.base::internal::BindStateBase"** %18, align 8
  %21 = bitcast i8* %17 to i32 (...)***
  store i32 (...)** bitcast (i8** getelementptr inbounds ({ [6 x i8*] }, { [6 x i8*] }* @_ZTVN5blink5mojom53FileSystemAccessFileWriter_Truncate_ForwardToCallbackE, i64 0, inrange i32 0, i64 2) to i32 (...)**), i32 (...)*** %21, align 8
  %22 = getelementptr inbounds i8, i8* %17, i64 8
  %23 = getelementptr inbounds %"class.base::OnceCallback.24", %"class.base::OnceCallback.24"* %5, i64 0, i32 0, i32 0, i32 0
  %24 = bitcast i8* %22 to i64*
  store i64 %20, i64* %24, align 8
  store %"class.base::internal::BindStateBase"* null, %"class.base::internal::BindStateBase"** %23, align 8
  %25 = bitcast i8* %17 to %"class.mojo::MessageReceiver"*
  %26 = getelementptr inbounds %"class.base::OnceCallback.24", %"class.base::OnceCallback.24"* %5, i64 0, i32 0
  call void @_ZN4base8internal12CallbackBaseD2Ev(%"class.base::internal::CallbackBase"* nonnull %26) #9
  %27 = getelementptr inbounds %"class.blink::mojom::FileSystemAccessFileWriterProxy", %"class.blink::mojom::FileSystemAccessFileWriterProxy"* %0, i64 0, i32 1
  %28 = load %"class.mojo::MessageReceiverWithResponder"*, %"class.mojo::MessageReceiverWithResponder"** %27, align 8
  %29 = bitcast %"class.mojo::MessageReceiverWithResponder"* %28 to i1 (%"class.mojo::MessageReceiverWithResponder"*, %"class.mojo::Message"*, %"class.mojo::MessageReceiver"*)***
  %30 = load i1 (%"class.mojo::MessageReceiverWithResponder"*, %"class.mojo::Message"*, %"class.mojo::MessageReceiver"*)**, i1 (%"class.mojo::MessageReceiverWithResponder"*, %"class.mojo::Message"*, %"class.mojo::MessageReceiver"*)*** %29, align 8
  %31 = getelementptr inbounds i1 (%"class.mojo::MessageReceiverWithResponder"*, %"class.mojo::Message"*, %"class.mojo::MessageReceiver"*)*, i1 (%"class.mojo::MessageReceiverWithResponder"*, %"class.mojo::Message"*, %"class.mojo::MessageReceiver"*)** %30, i64 4
  %32 = load i1 (%"class.mojo::MessageReceiverWithResponder"*, %"class.mojo::Message"*, %"class.mojo::MessageReceiver"*)*, i1 (%"class.mojo::MessageReceiverWithResponder"*, %"class.mojo::Message"*, %"class.mojo::MessageReceiver"*)** %31, align 8
  %33 = call zeroext i1 %32(%"class.mojo::MessageReceiverWithResponder"* %28, %"class.mojo::Message"* nonnull %4, %"class.mojo::MessageReceiver"* nonnull %25) #9
  call void @_ZN4mojo7MessageD1Ev(%"class.mojo::Message"* nonnull %4) #9
  call void @llvm.lifetime.end.p0i8(i64 120, i8* nonnull %6) #9
  ret void
}

; Function Attrs: nounwind
declare void @_ZN4base8internal12CallbackBaseD2Ev(%"class.base::internal::CallbackBase"*) unnamed_addr #5

; Function Attrs: nounwind ssp uwtable
define hidden void @_ZN5blink5mojom31FileSystemAccessFileWriterProxy5CloseEN4base12OnceCallbackIFvN4mojo16InlinedStructPtrINS0_21FileSystemAccessErrorEEEEEE(%"class.blink::mojom::FileSystemAccessFileWriterProxy"* nocapture readonly, %"class.base::OnceCallback.24"* nocapture) unnamed_addr #1 align 2 {
  %3 = alloca %"class.mojo::Message", align 8
  %4 = alloca %"class.base::OnceCallback.24", align 8
  %5 = bitcast %"class.mojo::Message"* %3 to i8*
  call void @llvm.lifetime.start.p0i8(i64 120, i8* nonnull %5) #9
  call void @llvm.memset.p0i8.i64(i8* nonnull align 8 %5, i8 -86, i64 120, i1 false)
  call void @_ZN4mojo7MessageC1EjjmmPNSt3__16vectorINS_16ScopedHandleBaseINS_6HandleEEENS1_9allocatorIS5_EEEE(%"class.mojo::Message"* nonnull %3, i32 2, i32 1, i64 0, i64 0, %"class.std::__1::vector"* null) #9
  %6 = getelementptr inbounds %"class.mojo::Message", %"class.mojo::Message"* %3, i64 0, i32 1
  %7 = call i64 @_ZN4mojo8internal6Buffer8AllocateEm(%"class.mojo::internal::Buffer"* %6, i64 8) #9
  %8 = getelementptr inbounds %"class.mojo::Message", %"class.mojo::Message"* %3, i64 0, i32 1, i32 2
  %9 = load i8*, i8** %8, align 8
  %10 = getelementptr inbounds i8, i8* %9, i64 %7
  %11 = bitcast i8* %10 to %"class.blink::mojom::internal::FileSystemAccessFileWriter_Close_Params_Data"*
  call void @_ZN5blink5mojom8internal44FileSystemAccessFileWriter_Close_Params_DataC1Ev(%"class.blink::mojom::internal::FileSystemAccessFileWriter_Close_Params_Data"* %11) #9
  %12 = call i8* @_Znwm(i64 16) #10
  %13 = getelementptr inbounds %"class.base::OnceCallback.24", %"class.base::OnceCallback.24"* %1, i64 0, i32 0, i32 0, i32 0
  %14 = bitcast %"class.base::OnceCallback.24"* %1 to i64*
  %15 = load i64, i64* %14, align 8
  store %"class.base::internal::BindStateBase"* null, %"class.base::internal::BindStateBase"** %13, align 8
  %16 = bitcast i8* %12 to i32 (...)***
  store i32 (...)** bitcast (i8** getelementptr inbounds ({ [6 x i8*] }, { [6 x i8*] }* @_ZTVN5blink5mojom50FileSystemAccessFileWriter_Close_ForwardToCallbackE, i64 0, inrange i32 0, i64 2) to i32 (...)**), i32 (...)*** %16, align 8
  %17 = getelementptr inbounds i8, i8* %12, i64 8
  %18 = getelementptr inbounds %"class.base::OnceCallback.24", %"class.base::OnceCallback.24"* %4, i64 0, i32 0, i32 0, i32 0
  %19 = bitcast i8* %17 to i64*
  store i64 %15, i64* %19, align 8
  store %"class.base::internal::BindStateBase"* null, %"class.base::internal::BindStateBase"** %18, align 8
  %20 = bitcast i8* %12 to %"class.mojo::MessageReceiver"*
  %21 = getelementptr inbounds %"class.base::OnceCallback.24", %"class.base::OnceCallback.24"* %4, i64 0, i32 0
  call void @_ZN4base8internal12CallbackBaseD2Ev(%"class.base::internal::CallbackBase"* nonnull %21) #9
  %22 = getelementptr inbounds %"class.blink::mojom::FileSystemAccessFileWriterProxy", %"class.blink::mojom::FileSystemAccessFileWriterProxy"* %0, i64 0, i32 1
  %23 = load %"class.mojo::MessageReceiverWithResponder"*, %"class.mojo::MessageReceiverWithResponder"** %22, align 8
  %24 = bitcast %"class.mojo::MessageReceiverWithResponder"* %23 to i1 (%"class.mojo::MessageReceiverWithResponder"*, %"class.mojo::Message"*, %"class.mojo::MessageReceiver"*)***
  %25 = load i1 (%"class.mojo::MessageReceiverWithResponder"*, %"class.mojo::Message"*, %"class.mojo::MessageReceiver"*)**, i1 (%"class.mojo::MessageReceiverWithResponder"*, %"class.mojo::Message"*, %"class.mojo::MessageReceiver"*)*** %24, align 8
  %26 = getelementptr inbounds i1 (%"class.mojo::MessageReceiverWithResponder"*, %"class.mojo::Message"*, %"class.mojo::MessageReceiver"*)*, i1 (%"class.mojo::MessageReceiverWithResponder"*, %"class.mojo::Message"*, %"class.mojo::MessageReceiver"*)** %25, i64 4
  %27 = load i1 (%"class.mojo::MessageReceiverWithResponder"*, %"class.mojo::Message"*, %"class.mojo::MessageReceiver"*)*, i1 (%"class.mojo::MessageReceiverWithResponder"*, %"class.mojo::Message"*, %"class.mojo::MessageReceiver"*)** %26, align 8
  %28 = call zeroext i1 %27(%"class.mojo::MessageReceiverWithResponder"* %23, %"class.mojo::Message"* nonnull %3, %"class.mojo::MessageReceiver"* nonnull %20) #9
  call void @_ZN4mojo7MessageD1Ev(%"class.mojo::Message"* nonnull %3) #9
  call void @llvm.lifetime.end.p0i8(i64 120, i8* nonnull %5) #9
  ret void
}

; Function Attrs: nounwind ssp uwtable
define hidden void @_ZN5blink5mojom31FileSystemAccessFileWriterProxy5AbortEN4base12OnceCallbackIFvN4mojo16InlinedStructPtrINS0_21FileSystemAccessErrorEEEEEE(%"class.blink::mojom::FileSystemAccessFileWriterProxy"* nocapture readonly, %"class.base::OnceCallback.24"* nocapture) unnamed_addr #1 align 2 {
  %3 = alloca %"class.mojo::Message", align 8
  %4 = alloca %"class.base::OnceCallback.24", align 8
  %5 = bitcast %"class.mojo::Message"* %3 to i8*
  call void @llvm.lifetime.start.p0i8(i64 120, i8* nonnull %5) #9
  call void @llvm.memset.p0i8.i64(i8* nonnull align 8 %5, i8 -86, i64 120, i1 false)
  call void @_ZN4mojo7MessageC1EjjmmPNSt3__16vectorINS_16ScopedHandleBaseINS_6HandleEEENS1_9allocatorIS5_EEEE(%"class.mojo::Message"* nonnull %3, i32 3, i32 1, i64 0, i64 0, %"class.std::__1::vector"* null) #9
  %6 = getelementptr inbounds %"class.mojo::Message", %"class.mojo::Message"* %3, i64 0, i32 1
  %7 = call i64 @_ZN4mojo8internal6Buffer8AllocateEm(%"class.mojo::internal::Buffer"* %6, i64 8) #9
  %8 = getelementptr inbounds %"class.mojo::Message", %"class.mojo::Message"* %3, i64 0, i32 1, i32 2
  %9 = load i8*, i8** %8, align 8
  %10 = getelementptr inbounds i8, i8* %9, i64 %7
  %11 = bitcast i8* %10 to %"class.blink::mojom::internal::FileSystemAccessFileWriter_Abort_Params_Data"*
  call void @_ZN5blink5mojom8internal44FileSystemAccessFileWriter_Abort_Params_DataC1Ev(%"class.blink::mojom::internal::FileSystemAccessFileWriter_Abort_Params_Data"* %11) #9
  %12 = call i8* @_Znwm(i64 16) #10
  %13 = getelementptr inbounds %"class.base::OnceCallback.24", %"class.base::OnceCallback.24"* %1, i64 0, i32 0, i32 0, i32 0
  %14 = bitcast %"class.base::OnceCallback.24"* %1 to i64*
  %15 = load i64, i64* %14, align 8
  store %"class.base::internal::BindStateBase"* null, %"class.base::internal::BindStateBase"** %13, align 8
  %16 = bitcast i8* %12 to i32 (...)***
  store i32 (...)** bitcast (i8** getelementptr inbounds ({ [6 x i8*] }, { [6 x i8*] }* @_ZTVN5blink5mojom50FileSystemAccessFileWriter_Abort_ForwardToCallbackE, i64 0, inrange i32 0, i64 2) to i32 (...)**), i32 (...)*** %16, align 8
  %17 = getelementptr inbounds i8, i8* %12, i64 8
  %18 = getelementptr inbounds %"class.base::OnceCallback.24", %"class.base::OnceCallback.24"* %4, i64 0, i32 0, i32 0, i32 0
  %19 = bitcast i8* %17 to i64*
  store i64 %15, i64* %19, align 8
  store %"class.base::internal::BindStateBase"* null, %"class.base::internal::BindStateBase"** %18, align 8
  %20 = bitcast i8* %12 to %"class.mojo::MessageReceiver"*
  %21 = getelementptr inbounds %"class.base::OnceCallback.24", %"class.base::OnceCallback.24"* %4, i64 0, i32 0
  call void @_ZN4base8internal12CallbackBaseD2Ev(%"class.base::internal::CallbackBase"* nonnull %21) #9
  %22 = getelementptr inbounds %"class.blink::mojom::FileSystemAccessFileWriterProxy", %"class.blink::mojom::FileSystemAccessFileWriterProxy"* %0, i64 0, i32 1
  %23 = load %"class.mojo::MessageReceiverWithResponder"*, %"class.mojo::MessageReceiverWithResponder"** %22, align 8
  %24 = bitcast %"class.mojo::MessageReceiverWithResponder"* %23 to i1 (%"class.mojo::MessageReceiverWithResponder"*, %"class.mojo::Message"*, %"class.mojo::MessageReceiver"*)***
  %25 = load i1 (%"class.mojo::MessageReceiverWithResponder"*, %"class.mojo::Message"*, %"class.mojo::MessageReceiver"*)**, i1 (%"class.mojo::MessageReceiverWithResponder"*, %"class.mojo::Message"*, %"class.mojo::MessageReceiver"*)*** %24, align 8
  %26 = getelementptr inbounds i1 (%"class.mojo::MessageReceiverWithResponder"*, %"class.mojo::Message"*, %"class.mojo::MessageReceiver"*)*, i1 (%"class.mojo::MessageReceiverWithResponder"*, %"class.mojo::Message"*, %"class.mojo::MessageReceiver"*)** %25, i64 4
  %27 = load i1 (%"class.mojo::MessageReceiverWithResponder"*, %"class.mojo::Message"*, %"class.mojo::MessageReceiver"*)*, i1 (%"class.mojo::MessageReceiverWithResponder"*, %"class.mojo::Message"*, %"class.mojo::MessageReceiver"*)** %26, align 8
  %28 = call zeroext i1 %27(%"class.mojo::MessageReceiverWithResponder"* %23, %"class.mojo::Message"* nonnull %3, %"class.mojo::MessageReceiver"* nonnull %20) #9
  call void @_ZN4mojo7MessageD1Ev(%"class.mojo::Message"* nonnull %3) #9
  call void @llvm.lifetime.end.p0i8(i64 120, i8* nonnull %5) #9
  ret void
}

; Function Attrs: nounwind ssp uwtable
define hidden zeroext i1 @_ZN5blink5mojom50FileSystemAccessFileWriter_Write_ForwardToCallback6AcceptEPN4mojo7MessageE(%"class.blink::mojom::FileSystemAccessFileWriter_Write_ForwardToCallback"* nocapture, %"class.mojo::Message"*) unnamed_addr #1 align 2 {
  %3 = alloca %"class.base::OnceCallback", align 8
  %4 = alloca %"class.mojo::InlinedStructPtr", align 8
  %5 = alloca %"class.mojo::InlinedStructPtr", align 8
  %6 = tail call i8* @_ZNK4mojo7Message7payloadEv(%"class.mojo::Message"* %1) #9
  %7 = bitcast %"class.mojo::InlinedStructPtr"* %4 to i8*
  call void @llvm.lifetime.start.p0i8(i64 40, i8* nonnull %7) #9
  call void @llvm.memset.p0i8.i64(i8* nonnull align 8 %7, i8 0, i64 40, i1 false)
  %8 = getelementptr inbounds %"class.mojo::InlinedStructPtr", %"class.mojo::InlinedStructPtr"* %4, i64 0, i32 0
  call void @_ZN5blink5mojom21FileSystemAccessErrorC1Ev(%"class.blink::mojom::FileSystemAccessError"* nonnull %8) #9
  %9 = getelementptr inbounds %"class.mojo::InlinedStructPtr", %"class.mojo::InlinedStructPtr"* %4, i64 0, i32 1
  store i32 0, i32* %9, align 8
  %10 = getelementptr inbounds i8, i8* %6, i64 8
  %11 = bitcast i8* %10 to i64*
  %12 = load i64, i64* %11, align 8
  %13 = icmp eq i64 %12, 0
  br i1 %13, label %14, label %15

14:                                               ; preds = %2
  store i32 0, i32* %9, align 8
  call void @_ZN5blink5mojom21FileSystemAccessErrorD1Ev(%"class.blink::mojom::FileSystemAccessError"* nonnull %8) #9
  call void @_ZN5blink5mojom21FileSystemAccessErrorC1Ev(%"class.blink::mojom::FileSystemAccessError"* nonnull %8) #9
  br label %19

15:                                               ; preds = %2
  %16 = getelementptr inbounds i8, i8* %10, i64 %12
  %17 = bitcast i8* %16 to %"class.blink::mojom::internal::FileSystemAccessError_Data"*
  %18 = call zeroext i1 @_ZN4mojo12StructTraitsIN5blink5mojom29FileSystemAccessErrorDataViewENS_16InlinedStructPtrINS2_21FileSystemAccessErrorEEEE4ReadES3_PS6_(%"class.blink::mojom::internal::FileSystemAccessError_Data"* nonnull %17, %"class.mojo::Message"* %1, %"class.mojo::InlinedStructPtr"* nonnull %4) #9
  br i1 %18, label %19, label %24

19:                                               ; preds = %15, %14
  %20 = getelementptr inbounds %"class.blink::mojom::FileSystemAccessFileWriter_Write_ForwardToCallback", %"class.blink::mojom::FileSystemAccessFileWriter_Write_ForwardToCallback"* %0, i64 0, i32 1
  %21 = getelementptr inbounds %"class.base::OnceCallback", %"class.base::OnceCallback"* %20, i64 0, i32 0, i32 0, i32 0
  %22 = load %"class.base::internal::BindStateBase"*, %"class.base::internal::BindStateBase"** %21, align 8
  %23 = icmp eq %"class.base::internal::BindStateBase"* %22, null
  br i1 %23, label %42, label %25

24:                                               ; preds = %15
  call void @_ZN4mojo8internal31ReportValidationErrorForMessageEPNS_7MessageENS0_15ValidationErrorEPKcjb(%"class.mojo::Message"* %1, i32 17, i8* getelementptr inbounds ([39 x i8], [39 x i8]* @_ZN5blink5mojom26FileSystemAccessFileWriter5Name_E, i64 0, i64 0), i32 0, i1 zeroext true) #9
  br label %42

25:                                               ; preds = %19
  %26 = getelementptr inbounds i8, i8* %6, i64 16
  %27 = bitcast i8* %26 to i64*
  %28 = load i64, i64* %27, align 8
  %29 = getelementptr inbounds %"class.mojo::InlinedStructPtr", %"class.mojo::InlinedStructPtr"* %5, i64 0, i32 0
  call void @_ZN5blink5mojom21FileSystemAccessErrorC1Ev(%"class.blink::mojom::FileSystemAccessError"* nonnull %29) #9
  %30 = getelementptr inbounds %"class.mojo::InlinedStructPtr", %"class.mojo::InlinedStructPtr"* %5, i64 0, i32 1
  store i32 0, i32* %30, align 8
  call void @_ZN5blink5mojom21FileSystemAccessErrorD1Ev(%"class.blink::mojom::FileSystemAccessError"* nonnull %29) #9
  call void @_ZN5blink5mojom21FileSystemAccessErrorC1Ev(%"class.blink::mojom::FileSystemAccessError"* nonnull %29) #9
  call void @_ZNSt3__14swapIN5blink5mojom21FileSystemAccessErrorEEENS_9enable_ifIXaasr21is_move_constructibleIT_EE5valuesr18is_move_assignableIS5_EE5valueEvE4typeERS5_S8_(%"class.blink::mojom::FileSystemAccessError"* nonnull dereferenceable(32) %29, %"class.blink::mojom::FileSystemAccessError"* nonnull dereferenceable(32) %8) #9
  %31 = load i32, i32* %30, align 8
  %32 = load i32, i32* %9, align 8
  store i32 %32, i32* %30, align 8
  store i32 %31, i32* %9, align 8
  %33 = bitcast %"class.base::OnceCallback"* %3 to i8*
  call void @llvm.lifetime.start.p0i8(i64 8, i8* nonnull %33) #9
  %34 = bitcast %"class.base::OnceCallback"* %20 to i64*
  %35 = load i64, i64* %34, align 8
  %36 = bitcast %"class.base::OnceCallback"* %3 to i64*
  store i64 %35, i64* %36, align 8
  store %"class.base::internal::BindStateBase"* null, %"class.base::internal::BindStateBase"** %21, align 8
  %37 = getelementptr inbounds %"class.base::OnceCallback", %"class.base::OnceCallback"* %3, i64 0, i32 0
  %38 = inttoptr i64 %35 to %"class.base::internal::BindStateBase"*
  %39 = getelementptr inbounds %"class.base::internal::BindStateBase", %"class.base::internal::BindStateBase"* %38, i64 0, i32 1
  %40 = bitcast void ()** %39 to void (%"class.base::internal::BindStateBase"*, %"class.mojo::InlinedStructPtr"*, i64)**
  %41 = load void (%"class.base::internal::BindStateBase"*, %"class.mojo::InlinedStructPtr"*, i64)*, void (%"class.base::internal::BindStateBase"*, %"class.mojo::InlinedStructPtr"*, i64)** %40, align 8
  call void %41(%"class.base::internal::BindStateBase"* %38, %"class.mojo::InlinedStructPtr"* nonnull dereferenceable(40) %5, i64 %28) #9
  call void @_ZN4base8internal12CallbackBaseD2Ev(%"class.base::internal::CallbackBase"* nonnull %37) #9
  call void @llvm.lifetime.end.p0i8(i64 8, i8* nonnull %33) #9
  call void @_ZN5blink5mojom21FileSystemAccessErrorD1Ev(%"class.blink::mojom::FileSystemAccessError"* nonnull %29) #9
  br label %42

42:                                               ; preds = %19, %25, %24
  %43 = phi i1 [ false, %24 ], [ true, %25 ], [ true, %19 ]
  call void @_ZN5blink5mojom21FileSystemAccessErrorD1Ev(%"class.blink::mojom::FileSystemAccessError"* nonnull %8) #9
  call void @llvm.lifetime.end.p0i8(i64 40, i8* nonnull %7) #9
  ret i1 %43
}

declare void @_ZN4mojo8internal31ReportValidationErrorForMessageEPNS_7MessageENS0_15ValidationErrorEPKcjb(%"class.mojo::Message"*, i32, i8*, i32, i1 zeroext) local_unnamed_addr #3

; Function Attrs: nounwind ssp uwtable
define hidden void @_ZN5blink5mojom49FileSystemAccessFileWriter_Write_ProxyToResponder3RunEN4mojo16InlinedStructPtrINS0_21FileSystemAccessErrorEEEm(%"class.blink::mojom::FileSystemAccessFileWriter_Write_ProxyToResponder"* nocapture, %"class.mojo::InlinedStructPtr"*, i64) #1 align 2 {
  %4 = alloca %"class.mojo::Message", align 8
  %5 = alloca %"class.mojo::internal::MessageFragment.40", align 8
  %6 = getelementptr inbounds %"class.blink::mojom::FileSystemAccessFileWriter_Write_ProxyToResponder", %"class.blink::mojom::FileSystemAccessFileWriter_Write_ProxyToResponder"* %0, i64 0, i32 1
  %7 = load i8, i8* %6, align 8, !range !8
  %8 = icmp eq i8 %7, 0
  %9 = select i1 %8, i32 2, i32 6
  %10 = bitcast %"class.mojo::Message"* %4 to i8*
  call void @llvm.lifetime.start.p0i8(i64 120, i8* nonnull %10) #9
  call void @llvm.memset.p0i8.i64(i8* nonnull align 8 %10, i8 -86, i64 120, i1 false)
  call void @_ZN4mojo7MessageC1EjjmmPNSt3__16vectorINS_16ScopedHandleBaseINS_6HandleEEENS1_9allocatorIS5_EEEE(%"class.mojo::Message"* nonnull %4, i32 0, i32 %9, i64 0, i64 0, %"class.std::__1::vector"* null) #9
  %11 = getelementptr inbounds %"class.mojo::Message", %"class.mojo::Message"* %4, i64 0, i32 1
  %12 = call i64 @_ZN4mojo8internal6Buffer8AllocateEm(%"class.mojo::internal::Buffer"* %11, i64 24) #9
  %13 = getelementptr inbounds %"class.mojo::Message", %"class.mojo::Message"* %4, i64 0, i32 1, i32 2
  %14 = load i8*, i8** %13, align 8
  %15 = getelementptr inbounds i8, i8* %14, i64 %12
  %16 = bitcast i8* %15 to %"class.blink::mojom::internal::FileSystemAccessFileWriter_Write_ResponseParams_Data"*
  call void @_ZN5blink5mojom8internal52FileSystemAccessFileWriter_Write_ResponseParams_DataC1Ev(%"class.blink::mojom::internal::FileSystemAccessFileWriter_Write_ResponseParams_Data"* %16) #9
  %17 = bitcast %"class.mojo::internal::MessageFragment.40"* %5 to i8*
  call void @llvm.lifetime.start.p0i8(i64 16, i8* nonnull %17) #9
  %18 = getelementptr inbounds %"class.mojo::internal::MessageFragment.40", %"class.mojo::internal::MessageFragment.40"* %5, i64 0, i32 0
  %19 = getelementptr inbounds %"class.mojo::internal::MessageFragment.40", %"class.mojo::internal::MessageFragment.40"* %5, i64 0, i32 1
  store %"class.mojo::Message"* %4, %"class.mojo::Message"** %18, align 8
  store i64 -1, i64* %19, align 8
  call void @_ZN4mojo8internal10SerializerIN5blink5mojom29FileSystemAccessErrorDataViewENS_16InlinedStructPtrINS3_21FileSystemAccessErrorEEEE9SerializeERS7_RNS0_15MessageFragmentINS3_8internal26FileSystemAccessError_DataEEE(%"class.mojo::InlinedStructPtr"* dereferenceable(40) %1, %"class.mojo::internal::MessageFragment.40"* nonnull dereferenceable(16) %5) #9
  %20 = load i8*, i8** %13, align 8
  %21 = getelementptr inbounds i8, i8* %20, i64 %12
  %22 = getelementptr inbounds i8, i8* %21, i64 8
  %23 = load i64, i64* %19, align 8
  %24 = icmp eq i64 %23, -1
  br i1 %24, label %31, label %25

25:                                               ; preds = %3
  %26 = load %"class.mojo::Message"*, %"class.mojo::Message"** %18, align 8
  %27 = getelementptr inbounds %"class.mojo::Message", %"class.mojo::Message"* %26, i64 0, i32 1, i32 2
  %28 = load i8*, i8** %27, align 8
  %29 = getelementptr inbounds i8, i8* %28, i64 %23
  %30 = bitcast i8* %29 to %"class.blink::mojom::internal::FileSystemAccessError_Data"*
  br label %31

31:                                               ; preds = %3, %25
  %32 = phi %"class.blink::mojom::internal::FileSystemAccessError_Data"* [ %30, %25 ], [ null, %3 ]
  %33 = bitcast i8* %22 to i64*
  %34 = icmp eq %"class.blink::mojom::internal::FileSystemAccessError_Data"* %32, null
  %35 = ptrtoint %"class.blink::mojom::internal::FileSystemAccessError_Data"* %32 to i64
  %36 = ptrtoint i8* %22 to i64
  %37 = sub i64 %35, %36
  %38 = select i1 %34, i64 0, i64 %37
  store i64 %38, i64* %33, align 8
  %39 = load i8*, i8** %13, align 8
  %40 = getelementptr inbounds i8, i8* %39, i64 %12
  %41 = getelementptr inbounds i8, i8* %40, i64 16
  %42 = bitcast i8* %41 to i64*
  store i64 %2, i64* %42, align 8
  %43 = getelementptr inbounds %"class.blink::mojom::FileSystemAccessFileWriter_Write_ProxyToResponder", %"class.blink::mojom::FileSystemAccessFileWriter_Write_ProxyToResponder"* %0, i64 0, i32 0
  %44 = load i64, i64* %43, align 8
  %45 = bitcast i8** %13 to %"struct.mojo::internal::MessageHeaderV1"**
  %46 = load %"struct.mojo::internal::MessageHeaderV1"*, %"struct.mojo::internal::MessageHeaderV1"** %45, align 8
  %47 = getelementptr inbounds %"struct.mojo::internal::MessageHeaderV1", %"struct.mojo::internal::MessageHeaderV1"* %46, i64 0, i32 1
  store i64 %44, i64* %47, align 1
  %48 = getelementptr inbounds %"class.blink::mojom::FileSystemAccessFileWriter_Write_ProxyToResponder", %"class.blink::mojom::FileSystemAccessFileWriter_Write_ProxyToResponder"* %0, i64 0, i32 2, i32 0, i32 0, i32 0
  %49 = load %"class.mojo::MessageReceiverWithStatus"*, %"class.mojo::MessageReceiverWithStatus"** %48, align 8
  %50 = getelementptr inbounds %"class.mojo::MessageReceiverWithStatus", %"class.mojo::MessageReceiverWithStatus"* %49, i64 0, i32 0
  %51 = bitcast %"class.mojo::MessageReceiverWithStatus"* %49 to i1 (%"class.mojo::MessageReceiver"*, %"class.mojo::Message"*)***
  %52 = load i1 (%"class.mojo::MessageReceiver"*, %"class.mojo::Message"*)**, i1 (%"class.mojo::MessageReceiver"*, %"class.mojo::Message"*)*** %51, align 8
  %53 = getelementptr inbounds i1 (%"class.mojo::MessageReceiver"*, %"class.mojo::Message"*)*, i1 (%"class.mojo::MessageReceiver"*, %"class.mojo::Message"*)** %52, i64 3
  %54 = load i1 (%"class.mojo::MessageReceiver"*, %"class.mojo::Message"*)*, i1 (%"class.mojo::MessageReceiver"*, %"class.mojo::Message"*)** %53, align 8
  %55 = call zeroext i1 %54(%"class.mojo::MessageReceiver"* %50, %"class.mojo::Message"* nonnull %4) #9
  %56 = load %"class.mojo::MessageReceiverWithStatus"*, %"class.mojo::MessageReceiverWithStatus"** %48, align 8
  store %"class.mojo::MessageReceiverWithStatus"* null, %"class.mojo::MessageReceiverWithStatus"** %48, align 8
  %57 = icmp eq %"class.mojo::MessageReceiverWithStatus"* %56, null
  br i1 %57, label %63, label %58

58:                                               ; preds = %31
  %59 = bitcast %"class.mojo::MessageReceiverWithStatus"* %56 to void (%"class.mojo::MessageReceiverWithStatus"*)***
  %60 = load void (%"class.mojo::MessageReceiverWithStatus"*)**, void (%"class.mojo::MessageReceiverWithStatus"*)*** %59, align 8
  %61 = getelementptr inbounds void (%"class.mojo::MessageReceiverWithStatus"*)*, void (%"class.mojo::MessageReceiverWithStatus"*)** %60, i64 1
  %62 = load void (%"class.mojo::MessageReceiverWithStatus"*)*, void (%"class.mojo::MessageReceiverWithStatus"*)** %61, align 8
  call void %62(%"class.mojo::MessageReceiverWithStatus"* nonnull %56) #9
  br label %63

63:                                               ; preds = %31, %58
  call void @llvm.lifetime.end.p0i8(i64 16, i8* nonnull %17) #9
  call void @_ZN4mojo7MessageD1Ev(%"class.mojo::Message"* nonnull %4) #9
  call void @llvm.lifetime.end.p0i8(i64 120, i8* nonnull %10) #9
  ret void
}

; Function Attrs: nounwind ssp uwtable
define hidden zeroext i1 @_ZN5blink5mojom53FileSystemAccessFileWriter_Truncate_ForwardToCallback6AcceptEPN4mojo7MessageE(%"class.blink::mojom::FileSystemAccessFileWriter_Truncate_ForwardToCallback"* nocapture, %"class.mojo::Message"*) unnamed_addr #1 align 2 {
  %3 = alloca %"class.base::OnceCallback.24", align 8
  %4 = alloca %"class.mojo::InlinedStructPtr", align 8
  %5 = alloca %"class.mojo::InlinedStructPtr", align 8
  %6 = tail call i8* @_ZNK4mojo7Message7payloadEv(%"class.mojo::Message"* %1) #9
  %7 = bitcast %"class.mojo::InlinedStructPtr"* %4 to i8*
  call void @llvm.lifetime.start.p0i8(i64 40, i8* nonnull %7) #9
  call void @llvm.memset.p0i8.i64(i8* nonnull align 8 %7, i8 0, i64 40, i1 false)
  %8 = getelementptr inbounds %"class.mojo::InlinedStructPtr", %"class.mojo::InlinedStructPtr"* %4, i64 0, i32 0
  call void @_ZN5blink5mojom21FileSystemAccessErrorC1Ev(%"class.blink::mojom::FileSystemAccessError"* nonnull %8) #9
  %9 = getelementptr inbounds %"class.mojo::InlinedStructPtr", %"class.mojo::InlinedStructPtr"* %4, i64 0, i32 1
  store i32 0, i32* %9, align 8
  %10 = getelementptr inbounds i8, i8* %6, i64 8
  %11 = bitcast i8* %10 to i64*
  %12 = load i64, i64* %11, align 8
  %13 = icmp eq i64 %12, 0
  br i1 %13, label %14, label %15

14:                                               ; preds = %2
  store i32 0, i32* %9, align 8
  call void @_ZN5blink5mojom21FileSystemAccessErrorD1Ev(%"class.blink::mojom::FileSystemAccessError"* nonnull %8) #9
  call void @_ZN5blink5mojom21FileSystemAccessErrorC1Ev(%"class.blink::mojom::FileSystemAccessError"* nonnull %8) #9
  br label %20

15:                                               ; preds = %2
  %16 = getelementptr inbounds i8, i8* %10, i64 %12
  %17 = bitcast i8* %16 to %"class.blink::mojom::internal::FileSystemAccessError_Data"*
  %18 = call zeroext i1 @_ZN4mojo12StructTraitsIN5blink5mojom29FileSystemAccessErrorDataViewENS_16InlinedStructPtrINS2_21FileSystemAccessErrorEEEE4ReadES3_PS6_(%"class.blink::mojom::internal::FileSystemAccessError_Data"* nonnull %17, %"class.mojo::Message"* %1, %"class.mojo::InlinedStructPtr"* nonnull %4) #9
  br i1 %18, label %20, label %19

19:                                               ; preds = %15
  call void @_ZN4mojo8internal31ReportValidationErrorForMessageEPNS_7MessageENS0_15ValidationErrorEPKcjb(%"class.mojo::Message"* %1, i32 17, i8* getelementptr inbounds ([39 x i8], [39 x i8]* @_ZN5blink5mojom26FileSystemAccessFileWriter5Name_E, i64 0, i64 0), i32 1, i1 zeroext true) #9
  br label %39

20:                                               ; preds = %15, %14
  %21 = getelementptr inbounds %"class.blink::mojom::FileSystemAccessFileWriter_Truncate_ForwardToCallback", %"class.blink::mojom::FileSystemAccessFileWriter_Truncate_ForwardToCallback"* %0, i64 0, i32 1
  %22 = getelementptr inbounds %"class.base::OnceCallback.24", %"class.base::OnceCallback.24"* %21, i64 0, i32 0, i32 0, i32 0
  %23 = load %"class.base::internal::BindStateBase"*, %"class.base::internal::BindStateBase"** %22, align 8
  %24 = icmp eq %"class.base::internal::BindStateBase"* %23, null
  br i1 %24, label %39, label %25

25:                                               ; preds = %20
  %26 = getelementptr inbounds %"class.mojo::InlinedStructPtr", %"class.mojo::InlinedStructPtr"* %5, i64 0, i32 0
  call void @_ZN5blink5mojom21FileSystemAccessErrorC1Ev(%"class.blink::mojom::FileSystemAccessError"* nonnull %26) #9
  %27 = getelementptr inbounds %"class.mojo::InlinedStructPtr", %"class.mojo::InlinedStructPtr"* %5, i64 0, i32 1
  store i32 0, i32* %27, align 8
  call void @_ZN5blink5mojom21FileSystemAccessErrorD1Ev(%"class.blink::mojom::FileSystemAccessError"* nonnull %26) #9
  call void @_ZN5blink5mojom21FileSystemAccessErrorC1Ev(%"class.blink::mojom::FileSystemAccessError"* nonnull %26) #9
  call void @_ZNSt3__14swapIN5blink5mojom21FileSystemAccessErrorEEENS_9enable_ifIXaasr21is_move_constructibleIT_EE5valuesr18is_move_assignableIS5_EE5valueEvE4typeERS5_S8_(%"class.blink::mojom::FileSystemAccessError"* nonnull dereferenceable(32) %26, %"class.blink::mojom::FileSystemAccessError"* nonnull dereferenceable(32) %8) #9
  %28 = load i32, i32* %27, align 8
  %29 = load i32, i32* %9, align 8
  store i32 %29, i32* %27, align 8
  store i32 %28, i32* %9, align 8
  %30 = bitcast %"class.base::OnceCallback.24"* %3 to i8*
  call void @llvm.lifetime.start.p0i8(i64 8, i8* nonnull %30) #9
  %31 = bitcast %"class.base::OnceCallback.24"* %21 to i64*
  %32 = load i64, i64* %31, align 8
  %33 = bitcast %"class.base::OnceCallback.24"* %3 to i64*
  store i64 %32, i64* %33, align 8
  store %"class.base::internal::BindStateBase"* null, %"class.base::internal::BindStateBase"** %22, align 8
  %34 = getelementptr inbounds %"class.base::OnceCallback.24", %"class.base::OnceCallback.24"* %3, i64 0, i32 0
  %35 = inttoptr i64 %32 to %"class.base::internal::BindStateBase"*
  %36 = getelementptr inbounds %"class.base::internal::BindStateBase", %"class.base::internal::BindStateBase"* %35, i64 0, i32 1
  %37 = bitcast void ()** %36 to void (%"class.base::internal::BindStateBase"*, %"class.mojo::InlinedStructPtr"*)**
  %38 = load void (%"class.base::internal::BindStateBase"*, %"class.mojo::InlinedStructPtr"*)*, void (%"class.base::internal::BindStateBase"*, %"class.mojo::InlinedStructPtr"*)** %37, align 8
  call void %38(%"class.base::internal::BindStateBase"* %35, %"class.mojo::InlinedStructPtr"* nonnull dereferenceable(40) %5) #9
  call void @_ZN4base8internal12CallbackBaseD2Ev(%"class.base::internal::CallbackBase"* nonnull %34) #9
  call void @llvm.lifetime.end.p0i8(i64 8, i8* nonnull %30) #9
  call void @_ZN5blink5mojom21FileSystemAccessErrorD1Ev(%"class.blink::mojom::FileSystemAccessError"* nonnull %26) #9
  br label %39

39:                                               ; preds = %20, %25, %19
  %40 = phi i1 [ false, %19 ], [ true, %25 ], [ true, %20 ]
  call void @_ZN5blink5mojom21FileSystemAccessErrorD1Ev(%"class.blink::mojom::FileSystemAccessError"* nonnull %8) #9
  call void @llvm.lifetime.end.p0i8(i64 40, i8* nonnull %7) #9
  ret i1 %40
}

; Function Attrs: nounwind ssp uwtable
define hidden void @_ZN5blink5mojom52FileSystemAccessFileWriter_Truncate_ProxyToResponder3RunEN4mojo16InlinedStructPtrINS0_21FileSystemAccessErrorEEE(%"class.blink::mojom::FileSystemAccessFileWriter_Truncate_ProxyToResponder"* nocapture, %"class.mojo::InlinedStructPtr"*) #1 align 2 {
  %3 = alloca %"class.mojo::Message", align 8
  %4 = alloca %"class.mojo::internal::MessageFragment.40", align 8
  %5 = getelementptr inbounds %"class.blink::mojom::FileSystemAccessFileWriter_Truncate_ProxyToResponder", %"class.blink::mojom::FileSystemAccessFileWriter_Truncate_ProxyToResponder"* %0, i64 0, i32 1
  %6 = load i8, i8* %5, align 8, !range !8
  %7 = icmp eq i8 %6, 0
  %8 = select i1 %7, i32 2, i32 6
  %9 = bitcast %"class.mojo::Message"* %3 to i8*
  call void @llvm.lifetime.start.p0i8(i64 120, i8* nonnull %9) #9
  call void @llvm.memset.p0i8.i64(i8* nonnull align 8 %9, i8 -86, i64 120, i1 false)
  call void @_ZN4mojo7MessageC1EjjmmPNSt3__16vectorINS_16ScopedHandleBaseINS_6HandleEEENS1_9allocatorIS5_EEEE(%"class.mojo::Message"* nonnull %3, i32 1, i32 %8, i64 0, i64 0, %"class.std::__1::vector"* null) #9
  %10 = getelementptr inbounds %"class.mojo::Message", %"class.mojo::Message"* %3, i64 0, i32 1
  %11 = call i64 @_ZN4mojo8internal6Buffer8AllocateEm(%"class.mojo::internal::Buffer"* %10, i64 16) #9
  %12 = getelementptr inbounds %"class.mojo::Message", %"class.mojo::Message"* %3, i64 0, i32 1, i32 2
  %13 = load i8*, i8** %12, align 8
  %14 = getelementptr inbounds i8, i8* %13, i64 %11
  %15 = bitcast i8* %14 to %"class.blink::mojom::internal::FileSystemAccessFileWriter_Truncate_ResponseParams_Data"*
  call void @_ZN5blink5mojom8internal55FileSystemAccessFileWriter_Truncate_ResponseParams_DataC1Ev(%"class.blink::mojom::internal::FileSystemAccessFileWriter_Truncate_ResponseParams_Data"* %15) #9
  %16 = bitcast %"class.mojo::internal::MessageFragment.40"* %4 to i8*
  call void @llvm.lifetime.start.p0i8(i64 16, i8* nonnull %16) #9
  %17 = getelementptr inbounds %"class.mojo::internal::MessageFragment.40", %"class.mojo::internal::MessageFragment.40"* %4, i64 0, i32 0
  %18 = getelementptr inbounds %"class.mojo::internal::MessageFragment.40", %"class.mojo::internal::MessageFragment.40"* %4, i64 0, i32 1
  store %"class.mojo::Message"* %3, %"class.mojo::Message"** %17, align 8
  store i64 -1, i64* %18, align 8
  call void @_ZN4mojo8internal10SerializerIN5blink5mojom29FileSystemAccessErrorDataViewENS_16InlinedStructPtrINS3_21FileSystemAccessErrorEEEE9SerializeERS7_RNS0_15MessageFragmentINS3_8internal26FileSystemAccessError_DataEEE(%"class.mojo::InlinedStructPtr"* dereferenceable(40) %1, %"class.mojo::internal::MessageFragment.40"* nonnull dereferenceable(16) %4) #9
  %19 = load i8*, i8** %12, align 8
  %20 = getelementptr inbounds i8, i8* %19, i64 %11
  %21 = getelementptr inbounds i8, i8* %20, i64 8
  %22 = load i64, i64* %18, align 8
  %23 = icmp eq i64 %22, -1
  br i1 %23, label %30, label %24

24:                                               ; preds = %2
  %25 = load %"class.mojo::Message"*, %"class.mojo::Message"** %17, align 8
  %26 = getelementptr inbounds %"class.mojo::Message", %"class.mojo::Message"* %25, i64 0, i32 1, i32 2
  %27 = load i8*, i8** %26, align 8
  %28 = getelementptr inbounds i8, i8* %27, i64 %22
  %29 = bitcast i8* %28 to %"class.blink::mojom::internal::FileSystemAccessError_Data"*
  br label %30

30:                                               ; preds = %2, %24
  %31 = phi %"class.blink::mojom::internal::FileSystemAccessError_Data"* [ %29, %24 ], [ null, %2 ]
  %32 = bitcast i8* %21 to i64*
  %33 = icmp eq %"class.blink::mojom::internal::FileSystemAccessError_Data"* %31, null
  %34 = ptrtoint %"class.blink::mojom::internal::FileSystemAccessError_Data"* %31 to i64
  %35 = ptrtoint i8* %21 to i64
  %36 = sub i64 %34, %35
  %37 = select i1 %33, i64 0, i64 %36
  store i64 %37, i64* %32, align 8
  %38 = getelementptr inbounds %"class.blink::mojom::FileSystemAccessFileWriter_Truncate_ProxyToResponder", %"class.blink::mojom::FileSystemAccessFileWriter_Truncate_ProxyToResponder"* %0, i64 0, i32 0
  %39 = load i64, i64* %38, align 8
  %40 = bitcast i8** %12 to %"struct.mojo::internal::MessageHeaderV1"**
  %41 = load %"struct.mojo::internal::MessageHeaderV1"*, %"struct.mojo::internal::MessageHeaderV1"** %40, align 8
  %42 = getelementptr inbounds %"struct.mojo::internal::MessageHeaderV1", %"struct.mojo::internal::MessageHeaderV1"* %41, i64 0, i32 1
  store i64 %39, i64* %42, align 1
  %43 = getelementptr inbounds %"class.blink::mojom::FileSystemAccessFileWriter_Truncate_ProxyToResponder", %"class.blink::mojom::FileSystemAccessFileWriter_Truncate_ProxyToResponder"* %0, i64 0, i32 2, i32 0, i32 0, i32 0
  %44 = load %"class.mojo::MessageReceiverWithStatus"*, %"class.mojo::MessageReceiverWithStatus"** %43, align 8
  %45 = getelementptr inbounds %"class.mojo::MessageReceiverWithStatus", %"class.mojo::MessageReceiverWithStatus"* %44, i64 0, i32 0
  %46 = bitcast %"class.mojo::MessageReceiverWithStatus"* %44 to i1 (%"class.mojo::MessageReceiver"*, %"class.mojo::Message"*)***
  %47 = load i1 (%"class.mojo::MessageReceiver"*, %"class.mojo::Message"*)**, i1 (%"class.mojo::MessageReceiver"*, %"class.mojo::Message"*)*** %46, align 8
  %48 = getelementptr inbounds i1 (%"class.mojo::MessageReceiver"*, %"class.mojo::Message"*)*, i1 (%"class.mojo::MessageReceiver"*, %"class.mojo::Message"*)** %47, i64 3
  %49 = load i1 (%"class.mojo::MessageReceiver"*, %"class.mojo::Message"*)*, i1 (%"class.mojo::MessageReceiver"*, %"class.mojo::Message"*)** %48, align 8
  %50 = call zeroext i1 %49(%"class.mojo::MessageReceiver"* %45, %"class.mojo::Message"* nonnull %3) #9
  %51 = load %"class.mojo::MessageReceiverWithStatus"*, %"class.mojo::MessageReceiverWithStatus"** %43, align 8
  store %"class.mojo::MessageReceiverWithStatus"* null, %"class.mojo::MessageReceiverWithStatus"** %43, align 8
  %52 = icmp eq %"class.mojo::MessageReceiverWithStatus"* %51, null
  br i1 %52, label %58, label %53

53:                                               ; preds = %30
  %54 = bitcast %"class.mojo::MessageReceiverWithStatus"* %51 to void (%"class.mojo::MessageReceiverWithStatus"*)***
  %55 = load void (%"class.mojo::MessageReceiverWithStatus"*)**, void (%"class.mojo::MessageReceiverWithStatus"*)*** %54, align 8
  %56 = getelementptr inbounds void (%"class.mojo::MessageReceiverWithStatus"*)*, void (%"class.mojo::MessageReceiverWithStatus"*)** %55, i64 1
  %57 = load void (%"class.mojo::MessageReceiverWithStatus"*)*, void (%"class.mojo::MessageReceiverWithStatus"*)** %56, align 8
  call void %57(%"class.mojo::MessageReceiverWithStatus"* nonnull %51) #9
  br label %58

58:                                               ; preds = %30, %53
  call void @llvm.lifetime.end.p0i8(i64 16, i8* nonnull %16) #9
  call void @_ZN4mojo7MessageD1Ev(%"class.mojo::Message"* nonnull %3) #9
  call void @llvm.lifetime.end.p0i8(i64 120, i8* nonnull %9) #9
  ret void
}

; Function Attrs: nounwind ssp uwtable
define hidden zeroext i1 @_ZN5blink5mojom50FileSystemAccessFileWriter_Close_ForwardToCallback6AcceptEPN4mojo7MessageE(%"class.blink::mojom::FileSystemAccessFileWriter_Close_ForwardToCallback"* nocapture, %"class.mojo::Message"*) unnamed_addr #1 align 2 {
  %3 = alloca %"class.base::OnceCallback.24", align 8
  %4 = alloca %"class.mojo::InlinedStructPtr", align 8
  %5 = alloca %"class.mojo::InlinedStructPtr", align 8
  %6 = tail call i8* @_ZNK4mojo7Message7payloadEv(%"class.mojo::Message"* %1) #9
  %7 = bitcast %"class.mojo::InlinedStructPtr"* %4 to i8*
  call void @llvm.lifetime.start.p0i8(i64 40, i8* nonnull %7) #9
  call void @llvm.memset.p0i8.i64(i8* nonnull align 8 %7, i8 0, i64 40, i1 false)
  %8 = getelementptr inbounds %"class.mojo::InlinedStructPtr", %"class.mojo::InlinedStructPtr"* %4, i64 0, i32 0
  call void @_ZN5blink5mojom21FileSystemAccessErrorC1Ev(%"class.blink::mojom::FileSystemAccessError"* nonnull %8) #9
  %9 = getelementptr inbounds %"class.mojo::InlinedStructPtr", %"class.mojo::InlinedStructPtr"* %4, i64 0, i32 1
  store i32 0, i32* %9, align 8
  %10 = getelementptr inbounds i8, i8* %6, i64 8
  %11 = bitcast i8* %10 to i64*
  %12 = load i64, i64* %11, align 8
  %13 = icmp eq i64 %12, 0
  br i1 %13, label %14, label %15

14:                                               ; preds = %2
  store i32 0, i32* %9, align 8
  call void @_ZN5blink5mojom21FileSystemAccessErrorD1Ev(%"class.blink::mojom::FileSystemAccessError"* nonnull %8) #9
  call void @_ZN5blink5mojom21FileSystemAccessErrorC1Ev(%"class.blink::mojom::FileSystemAccessError"* nonnull %8) #9
  br label %20

15:                                               ; preds = %2
  %16 = getelementptr inbounds i8, i8* %10, i64 %12
  %17 = bitcast i8* %16 to %"class.blink::mojom::internal::FileSystemAccessError_Data"*
  %18 = call zeroext i1 @_ZN4mojo12StructTraitsIN5blink5mojom29FileSystemAccessErrorDataViewENS_16InlinedStructPtrINS2_21FileSystemAccessErrorEEEE4ReadES3_PS6_(%"class.blink::mojom::internal::FileSystemAccessError_Data"* nonnull %17, %"class.mojo::Message"* %1, %"class.mojo::InlinedStructPtr"* nonnull %4) #9
  br i1 %18, label %20, label %19

19:                                               ; preds = %15
  call void @_ZN4mojo8internal31ReportValidationErrorForMessageEPNS_7MessageENS0_15ValidationErrorEPKcjb(%"class.mojo::Message"* %1, i32 17, i8* getelementptr inbounds ([39 x i8], [39 x i8]* @_ZN5blink5mojom26FileSystemAccessFileWriter5Name_E, i64 0, i64 0), i32 2, i1 zeroext true) #9
  br label %39

20:                                               ; preds = %15, %14
  %21 = getelementptr inbounds %"class.blink::mojom::FileSystemAccessFileWriter_Close_ForwardToCallback", %"class.blink::mojom::FileSystemAccessFileWriter_Close_ForwardToCallback"* %0, i64 0, i32 1
  %22 = getelementptr inbounds %"class.base::OnceCallback.24", %"class.base::OnceCallback.24"* %21, i64 0, i32 0, i32 0, i32 0
  %23 = load %"class.base::internal::BindStateBase"*, %"class.base::internal::BindStateBase"** %22, align 8
  %24 = icmp eq %"class.base::internal::BindStateBase"* %23, null
  br i1 %24, label %39, label %25

25:                                               ; preds = %20
  %26 = getelementptr inbounds %"class.mojo::InlinedStructPtr", %"class.mojo::InlinedStructPtr"* %5, i64 0, i32 0
  call void @_ZN5blink5mojom21FileSystemAccessErrorC1Ev(%"class.blink::mojom::FileSystemAccessError"* nonnull %26) #9
  %27 = getelementptr inbounds %"class.mojo::InlinedStructPtr", %"class.mojo::InlinedStructPtr"* %5, i64 0, i32 1
  store i32 0, i32* %27, align 8
  call void @_ZN5blink5mojom21FileSystemAccessErrorD1Ev(%"class.blink::mojom::FileSystemAccessError"* nonnull %26) #9
  call void @_ZN5blink5mojom21FileSystemAccessErrorC1Ev(%"class.blink::mojom::FileSystemAccessError"* nonnull %26) #9
  call void @_ZNSt3__14swapIN5blink5mojom21FileSystemAccessErrorEEENS_9enable_ifIXaasr21is_move_constructibleIT_EE5valuesr18is_move_assignableIS5_EE5valueEvE4typeERS5_S8_(%"class.blink::mojom::FileSystemAccessError"* nonnull dereferenceable(32) %26, %"class.blink::mojom::FileSystemAccessError"* nonnull dereferenceable(32) %8) #9
  %28 = load i32, i32* %27, align 8
  %29 = load i32, i32* %9, align 8
  store i32 %29, i32* %27, align 8
  store i32 %28, i32* %9, align 8
  %30 = bitcast %"class.base::OnceCallback.24"* %3 to i8*
  call void @llvm.lifetime.start.p0i8(i64 8, i8* nonnull %30) #9
  %31 = bitcast %"class.base::OnceCallback.24"* %21 to i64*
  %32 = load i64, i64* %31, align 8
  %33 = bitcast %"class.base::OnceCallback.24"* %3 to i64*
  store i64 %32, i64* %33, align 8
  store %"class.base::internal::BindStateBase"* null, %"class.base::internal::BindStateBase"** %22, align 8
  %34 = getelementptr inbounds %"class.base::OnceCallback.24", %"class.base::OnceCallback.24"* %3, i64 0, i32 0
  %35 = inttoptr i64 %32 to %"class.base::internal::BindStateBase"*
  %36 = getelementptr inbounds %"class.base::internal::BindStateBase", %"class.base::internal::BindStateBase"* %35, i64 0, i32 1
  %37 = bitcast void ()** %36 to void (%"class.base::internal::BindStateBase"*, %"class.mojo::InlinedStructPtr"*)**
  %38 = load void (%"class.base::internal::BindStateBase"*, %"class.mojo::InlinedStructPtr"*)*, void (%"class.base::internal::BindStateBase"*, %"class.mojo::InlinedStructPtr"*)** %37, align 8
  call void %38(%"class.base::internal::BindStateBase"* %35, %"class.mojo::InlinedStructPtr"* nonnull dereferenceable(40) %5) #9
  call void @_ZN4base8internal12CallbackBaseD2Ev(%"class.base::internal::CallbackBase"* nonnull %34) #9
  call void @llvm.lifetime.end.p0i8(i64 8, i8* nonnull %30) #9
  call void @_ZN5blink5mojom21FileSystemAccessErrorD1Ev(%"class.blink::mojom::FileSystemAccessError"* nonnull %26) #9
  br label %39

39:                                               ; preds = %20, %25, %19
  %40 = phi i1 [ false, %19 ], [ true, %25 ], [ true, %20 ]
  call void @_ZN5blink5mojom21FileSystemAccessErrorD1Ev(%"class.blink::mojom::FileSystemAccessError"* nonnull %8) #9
  call void @llvm.lifetime.end.p0i8(i64 40, i8* nonnull %7) #9
  ret i1 %40
}

; Function Attrs: nounwind ssp uwtable
define hidden void @_ZN5blink5mojom49FileSystemAccessFileWriter_Close_ProxyToResponder3RunEN4mojo16InlinedStructPtrINS0_21FileSystemAccessErrorEEE(%"class.blink::mojom::FileSystemAccessFileWriter_Close_ProxyToResponder"* nocapture, %"class.mojo::InlinedStructPtr"*) #1 align 2 {
  %3 = alloca %"class.mojo::Message", align 8
  %4 = alloca %"class.mojo::internal::MessageFragment.40", align 8
  %5 = getelementptr inbounds %"class.blink::mojom::FileSystemAccessFileWriter_Close_ProxyToResponder", %"class.blink::mojom::FileSystemAccessFileWriter_Close_ProxyToResponder"* %0, i64 0, i32 1
  %6 = load i8, i8* %5, align 8, !range !8
  %7 = icmp eq i8 %6, 0
  %8 = select i1 %7, i32 2, i32 6
  %9 = bitcast %"class.mojo::Message"* %3 to i8*
  call void @llvm.lifetime.start.p0i8(i64 120, i8* nonnull %9) #9
  call void @llvm.memset.p0i8.i64(i8* nonnull align 8 %9, i8 -86, i64 120, i1 false)
  call void @_ZN4mojo7MessageC1EjjmmPNSt3__16vectorINS_16ScopedHandleBaseINS_6HandleEEENS1_9allocatorIS5_EEEE(%"class.mojo::Message"* nonnull %3, i32 2, i32 %8, i64 0, i64 0, %"class.std::__1::vector"* null) #9
  %10 = getelementptr inbounds %"class.mojo::Message", %"class.mojo::Message"* %3, i64 0, i32 1
  %11 = call i64 @_ZN4mojo8internal6Buffer8AllocateEm(%"class.mojo::internal::Buffer"* %10, i64 16) #9
  %12 = getelementptr inbounds %"class.mojo::Message", %"class.mojo::Message"* %3, i64 0, i32 1, i32 2
  %13 = load i8*, i8** %12, align 8
  %14 = getelementptr inbounds i8, i8* %13, i64 %11
  %15 = bitcast i8* %14 to %"class.blink::mojom::internal::FileSystemAccessFileWriter_Close_ResponseParams_Data"*
  call void @_ZN5blink5mojom8internal52FileSystemAccessFileWriter_Close_ResponseParams_DataC1Ev(%"class.blink::mojom::internal::FileSystemAccessFileWriter_Close_ResponseParams_Data"* %15) #9
  %16 = bitcast %"class.mojo::internal::MessageFragment.40"* %4 to i8*
  call void @llvm.lifetime.start.p0i8(i64 16, i8* nonnull %16) #9
  %17 = getelementptr inbounds %"class.mojo::internal::MessageFragment.40", %"class.mojo::internal::MessageFragment.40"* %4, i64 0, i32 0
  %18 = getelementptr inbounds %"class.mojo::internal::MessageFragment.40", %"class.mojo::internal::MessageFragment.40"* %4, i64 0, i32 1
  store %"class.mojo::Message"* %3, %"class.mojo::Message"** %17, align 8
  store i64 -1, i64* %18, align 8
  call void @_ZN4mojo8internal10SerializerIN5blink5mojom29FileSystemAccessErrorDataViewENS_16InlinedStructPtrINS3_21FileSystemAccessErrorEEEE9SerializeERS7_RNS0_15MessageFragmentINS3_8internal26FileSystemAccessError_DataEEE(%"class.mojo::InlinedStructPtr"* dereferenceable(40) %1, %"class.mojo::internal::MessageFragment.40"* nonnull dereferenceable(16) %4) #9
  %19 = load i8*, i8** %12, align 8
  %20 = getelementptr inbounds i8, i8* %19, i64 %11
  %21 = getelementptr inbounds i8, i8* %20, i64 8
  %22 = load i64, i64* %18, align 8
  %23 = icmp eq i64 %22, -1
  br i1 %23, label %30, label %24

24:                                               ; preds = %2
  %25 = load %"class.mojo::Message"*, %"class.mojo::Message"** %17, align 8
  %26 = getelementptr inbounds %"class.mojo::Message", %"class.mojo::Message"* %25, i64 0, i32 1, i32 2
  %27 = load i8*, i8** %26, align 8
  %28 = getelementptr inbounds i8, i8* %27, i64 %22
  %29 = bitcast i8* %28 to %"class.blink::mojom::internal::FileSystemAccessError_Data"*
  br label %30

30:                                               ; preds = %2, %24
  %31 = phi %"class.blink::mojom::internal::FileSystemAccessError_Data"* [ %29, %24 ], [ null, %2 ]
  %32 = bitcast i8* %21 to i64*
  %33 = icmp eq %"class.blink::mojom::internal::FileSystemAccessError_Data"* %31, null
  %34 = ptrtoint %"class.blink::mojom::internal::FileSystemAccessError_Data"* %31 to i64
  %35 = ptrtoint i8* %21 to i64
  %36 = sub i64 %34, %35
  %37 = select i1 %33, i64 0, i64 %36
  store i64 %37, i64* %32, align 8
  %38 = getelementptr inbounds %"class.blink::mojom::FileSystemAccessFileWriter_Close_ProxyToResponder", %"class.blink::mojom::FileSystemAccessFileWriter_Close_ProxyToResponder"* %0, i64 0, i32 0
  %39 = load i64, i64* %38, align 8
  %40 = bitcast i8** %12 to %"struct.mojo::internal::MessageHeaderV1"**
  %41 = load %"struct.mojo::internal::MessageHeaderV1"*, %"struct.mojo::internal::MessageHeaderV1"** %40, align 8
  %42 = getelementptr inbounds %"struct.mojo::internal::MessageHeaderV1", %"struct.mojo::internal::MessageHeaderV1"* %41, i64 0, i32 1
  store i64 %39, i64* %42, align 1
  %43 = getelementptr inbounds %"class.blink::mojom::FileSystemAccessFileWriter_Close_ProxyToResponder", %"class.blink::mojom::FileSystemAccessFileWriter_Close_ProxyToResponder"* %0, i64 0, i32 2, i32 0, i32 0, i32 0
  %44 = load %"class.mojo::MessageReceiverWithStatus"*, %"class.mojo::MessageReceiverWithStatus"** %43, align 8
  %45 = getelementptr inbounds %"class.mojo::MessageReceiverWithStatus", %"class.mojo::MessageReceiverWithStatus"* %44, i64 0, i32 0
  %46 = bitcast %"class.mojo::MessageReceiverWithStatus"* %44 to i1 (%"class.mojo::MessageReceiver"*, %"class.mojo::Message"*)***
  %47 = load i1 (%"class.mojo::MessageReceiver"*, %"class.mojo::Message"*)**, i1 (%"class.mojo::MessageReceiver"*, %"class.mojo::Message"*)*** %46, align 8
  %48 = getelementptr inbounds i1 (%"class.mojo::MessageReceiver"*, %"class.mojo::Message"*)*, i1 (%"class.mojo::MessageReceiver"*, %"class.mojo::Message"*)** %47, i64 3
  %49 = load i1 (%"class.mojo::MessageReceiver"*, %"class.mojo::Message"*)*, i1 (%"class.mojo::MessageReceiver"*, %"class.mojo::Message"*)** %48, align 8
  %50 = call zeroext i1 %49(%"class.mojo::MessageReceiver"* %45, %"class.mojo::Message"* nonnull %3) #9
  %51 = load %"class.mojo::MessageReceiverWithStatus"*, %"class.mojo::MessageReceiverWithStatus"** %43, align 8
  store %"class.mojo::MessageReceiverWithStatus"* null, %"class.mojo::MessageReceiverWithStatus"** %43, align 8
  %52 = icmp eq %"class.mojo::MessageReceiverWithStatus"* %51, null
  br i1 %52, label %58, label %53

53:                                               ; preds = %30
  %54 = bitcast %"class.mojo::MessageReceiverWithStatus"* %51 to void (%"class.mojo::MessageReceiverWithStatus"*)***
  %55 = load void (%"class.mojo::MessageReceiverWithStatus"*)**, void (%"class.mojo::MessageReceiverWithStatus"*)*** %54, align 8
  %56 = getelementptr inbounds void (%"class.mojo::MessageReceiverWithStatus"*)*, void (%"class.mojo::MessageReceiverWithStatus"*)** %55, i64 1
  %57 = load void (%"class.mojo::MessageReceiverWithStatus"*)*, void (%"class.mojo::MessageReceiverWithStatus"*)** %56, align 8
  call void %57(%"class.mojo::MessageReceiverWithStatus"* nonnull %51) #9
  br label %58

58:                                               ; preds = %30, %53
  call void @llvm.lifetime.end.p0i8(i64 16, i8* nonnull %16) #9
  call void @_ZN4mojo7MessageD1Ev(%"class.mojo::Message"* nonnull %3) #9
  call void @llvm.lifetime.end.p0i8(i64 120, i8* nonnull %9) #9
  ret void
}

; Function Attrs: nounwind ssp uwtable
define hidden zeroext i1 @_ZN5blink5mojom50FileSystemAccessFileWriter_Abort_ForwardToCallback6AcceptEPN4mojo7MessageE(%"class.blink::mojom::FileSystemAccessFileWriter_Abort_ForwardToCallback"* nocapture, %"class.mojo::Message"*) unnamed_addr #1 align 2 {
  %3 = alloca %"class.base::OnceCallback.24", align 8
  %4 = alloca %"class.mojo::InlinedStructPtr", align 8
  %5 = alloca %"class.mojo::InlinedStructPtr", align 8
  %6 = tail call i8* @_ZNK4mojo7Message7payloadEv(%"class.mojo::Message"* %1) #9
  %7 = bitcast %"class.mojo::InlinedStructPtr"* %4 to i8*
  call void @llvm.lifetime.start.p0i8(i64 40, i8* nonnull %7) #9
  call void @llvm.memset.p0i8.i64(i8* nonnull align 8 %7, i8 0, i64 40, i1 false)
  %8 = getelementptr inbounds %"class.mojo::InlinedStructPtr", %"class.mojo::InlinedStructPtr"* %4, i64 0, i32 0
  call void @_ZN5blink5mojom21FileSystemAccessErrorC1Ev(%"class.blink::mojom::FileSystemAccessError"* nonnull %8) #9
  %9 = getelementptr inbounds %"class.mojo::InlinedStructPtr", %"class.mojo::InlinedStructPtr"* %4, i64 0, i32 1
  store i32 0, i32* %9, align 8
  %10 = getelementptr inbounds i8, i8* %6, i64 8
  %11 = bitcast i8* %10 to i64*
  %12 = load i64, i64* %11, align 8
  %13 = icmp eq i64 %12, 0
  br i1 %13, label %14, label %15

14:                                               ; preds = %2
  store i32 0, i32* %9, align 8
  call void @_ZN5blink5mojom21FileSystemAccessErrorD1Ev(%"class.blink::mojom::FileSystemAccessError"* nonnull %8) #9
  call void @_ZN5blink5mojom21FileSystemAccessErrorC1Ev(%"class.blink::mojom::FileSystemAccessError"* nonnull %8) #9
  br label %20

15:                                               ; preds = %2
  %16 = getelementptr inbounds i8, i8* %10, i64 %12
  %17 = bitcast i8* %16 to %"class.blink::mojom::internal::FileSystemAccessError_Data"*
  %18 = call zeroext i1 @_ZN4mojo12StructTraitsIN5blink5mojom29FileSystemAccessErrorDataViewENS_16InlinedStructPtrINS2_21FileSystemAccessErrorEEEE4ReadES3_PS6_(%"class.blink::mojom::internal::FileSystemAccessError_Data"* nonnull %17, %"class.mojo::Message"* %1, %"class.mojo::InlinedStructPtr"* nonnull %4) #9
  br i1 %18, label %20, label %19

19:                                               ; preds = %15
  call void @_ZN4mojo8internal31ReportValidationErrorForMessageEPNS_7MessageENS0_15ValidationErrorEPKcjb(%"class.mojo::Message"* %1, i32 17, i8* getelementptr inbounds ([39 x i8], [39 x i8]* @_ZN5blink5mojom26FileSystemAccessFileWriter5Name_E, i64 0, i64 0), i32 3, i1 zeroext true) #9
  br label %39

20:                                               ; preds = %15, %14
  %21 = getelementptr inbounds %"class.blink::mojom::FileSystemAccessFileWriter_Abort_ForwardToCallback", %"class.blink::mojom::FileSystemAccessFileWriter_Abort_ForwardToCallback"* %0, i64 0, i32 1
  %22 = getelementptr inbounds %"class.base::OnceCallback.24", %"class.base::OnceCallback.24"* %21, i64 0, i32 0, i32 0, i32 0
  %23 = load %"class.base::internal::BindStateBase"*, %"class.base::internal::BindStateBase"** %22, align 8
  %24 = icmp eq %"class.base::internal::BindStateBase"* %23, null
  br i1 %24, label %39, label %25

25:                                               ; preds = %20
  %26 = getelementptr inbounds %"class.mojo::InlinedStructPtr", %"class.mojo::InlinedStructPtr"* %5, i64 0, i32 0
  call void @_ZN5blink5mojom21FileSystemAccessErrorC1Ev(%"class.blink::mojom::FileSystemAccessError"* nonnull %26) #9
  %27 = getelementptr inbounds %"class.mojo::InlinedStructPtr", %"class.mojo::InlinedStructPtr"* %5, i64 0, i32 1
  store i32 0, i32* %27, align 8
  call void @_ZN5blink5mojom21FileSystemAccessErrorD1Ev(%"class.blink::mojom::FileSystemAccessError"* nonnull %26) #9
  call void @_ZN5blink5mojom21FileSystemAccessErrorC1Ev(%"class.blink::mojom::FileSystemAccessError"* nonnull %26) #9
  call void @_ZNSt3__14swapIN5blink5mojom21FileSystemAccessErrorEEENS_9enable_ifIXaasr21is_move_constructibleIT_EE5valuesr18is_move_assignableIS5_EE5valueEvE4typeERS5_S8_(%"class.blink::mojom::FileSystemAccessError"* nonnull dereferenceable(32) %26, %"class.blink::mojom::FileSystemAccessError"* nonnull dereferenceable(32) %8) #9
  %28 = load i32, i32* %27, align 8
  %29 = load i32, i32* %9, align 8
  store i32 %29, i32* %27, align 8
  store i32 %28, i32* %9, align 8
  %30 = bitcast %"class.base::OnceCallback.24"* %3 to i8*
  call void @llvm.lifetime.start.p0i8(i64 8, i8* nonnull %30) #9
  %31 = bitcast %"class.base::OnceCallback.24"* %21 to i64*
  %32 = load i64, i64* %31, align 8
  %33 = bitcast %"class.base::OnceCallback.24"* %3 to i64*
  store i64 %32, i64* %33, align 8
  store %"class.base::internal::BindStateBase"* null, %"class.base::internal::BindStateBase"** %22, align 8
  %34 = getelementptr inbounds %"class.base::OnceCallback.24", %"class.base::OnceCallback.24"* %3, i64 0, i32 0
  %35 = inttoptr i64 %32 to %"class.base::internal::BindStateBase"*
  %36 = getelementptr inbounds %"class.base::internal::BindStateBase", %"class.base::internal::BindStateBase"* %35, i64 0, i32 1
  %37 = bitcast void ()** %36 to void (%"class.base::internal::BindStateBase"*, %"class.mojo::InlinedStructPtr"*)**
  %38 = load void (%"class.base::internal::BindStateBase"*, %"class.mojo::InlinedStructPtr"*)*, void (%"class.base::internal::BindStateBase"*, %"class.mojo::InlinedStructPtr"*)** %37, align 8
  call void %38(%"class.base::internal::BindStateBase"* %35, %"class.mojo::InlinedStructPtr"* nonnull dereferenceable(40) %5) #9
  call void @_ZN4base8internal12CallbackBaseD2Ev(%"class.base::internal::CallbackBase"* nonnull %34) #9
  call void @llvm.lifetime.end.p0i8(i64 8, i8* nonnull %30) #9
  call void @_ZN5blink5mojom21FileSystemAccessErrorD1Ev(%"class.blink::mojom::FileSystemAccessError"* nonnull %26) #9
  br label %39

39:                                               ; preds = %20, %25, %19
  %40 = phi i1 [ false, %19 ], [ true, %25 ], [ true, %20 ]
  call void @_ZN5blink5mojom21FileSystemAccessErrorD1Ev(%"class.blink::mojom::FileSystemAccessError"* nonnull %8) #9
  call void @llvm.lifetime.end.p0i8(i64 40, i8* nonnull %7) #9
  ret i1 %40
}

; Function Attrs: nounwind ssp uwtable
define hidden void @_ZN5blink5mojom49FileSystemAccessFileWriter_Abort_ProxyToResponder3RunEN4mojo16InlinedStructPtrINS0_21FileSystemAccessErrorEEE(%"class.blink::mojom::FileSystemAccessFileWriter_Abort_ProxyToResponder"* nocapture, %"class.mojo::InlinedStructPtr"*) #1 align 2 {
  %3 = alloca %"class.mojo::Message", align 8
  %4 = alloca %"class.mojo::internal::MessageFragment.40", align 8
  %5 = getelementptr inbounds %"class.blink::mojom::FileSystemAccessFileWriter_Abort_ProxyToResponder", %"class.blink::mojom::FileSystemAccessFileWriter_Abort_ProxyToResponder"* %0, i64 0, i32 1
  %6 = load i8, i8* %5, align 8, !range !8
  %7 = icmp eq i8 %6, 0
  %8 = select i1 %7, i32 2, i32 6
  %9 = bitcast %"class.mojo::Message"* %3 to i8*
  call void @llvm.lifetime.start.p0i8(i64 120, i8* nonnull %9) #9
  call void @llvm.memset.p0i8.i64(i8* nonnull align 8 %9, i8 -86, i64 120, i1 false)
  call void @_ZN4mojo7MessageC1EjjmmPNSt3__16vectorINS_16ScopedHandleBaseINS_6HandleEEENS1_9allocatorIS5_EEEE(%"class.mojo::Message"* nonnull %3, i32 3, i32 %8, i64 0, i64 0, %"class.std::__1::vector"* null) #9
  %10 = getelementptr inbounds %"class.mojo::Message", %"class.mojo::Message"* %3, i64 0, i32 1
  %11 = call i64 @_ZN4mojo8internal6Buffer8AllocateEm(%"class.mojo::internal::Buffer"* %10, i64 16) #9
  %12 = getelementptr inbounds %"class.mojo::Message", %"class.mojo::Message"* %3, i64 0, i32 1, i32 2
  %13 = load i8*, i8** %12, align 8
  %14 = getelementptr inbounds i8, i8* %13, i64 %11
  %15 = bitcast i8* %14 to %"class.blink::mojom::internal::FileSystemAccessFileWriter_Abort_ResponseParams_Data"*
  call void @_ZN5blink5mojom8internal52FileSystemAccessFileWriter_Abort_ResponseParams_DataC1Ev(%"class.blink::mojom::internal::FileSystemAccessFileWriter_Abort_ResponseParams_Data"* %15) #9
  %16 = bitcast %"class.mojo::internal::MessageFragment.40"* %4 to i8*
  call void @llvm.lifetime.start.p0i8(i64 16, i8* nonnull %16) #9
  %17 = getelementptr inbounds %"class.mojo::internal::MessageFragment.40", %"class.mojo::internal::MessageFragment.40"* %4, i64 0, i32 0
  %18 = getelementptr inbounds %"class.mojo::internal::MessageFragment.40", %"class.mojo::internal::MessageFragment.40"* %4, i64 0, i32 1
  store %"class.mojo::Message"* %3, %"class.mojo::Message"** %17, align 8
  store i64 -1, i64* %18, align 8
  call void @_ZN4mojo8internal10SerializerIN5blink5mojom29FileSystemAccessErrorDataViewENS_16InlinedStructPtrINS3_21FileSystemAccessErrorEEEE9SerializeERS7_RNS0_15MessageFragmentINS3_8internal26FileSystemAccessError_DataEEE(%"class.mojo::InlinedStructPtr"* dereferenceable(40) %1, %"class.mojo::internal::MessageFragment.40"* nonnull dereferenceable(16) %4) #9
  %19 = load i8*, i8** %12, align 8
  %20 = getelementptr inbounds i8, i8* %19, i64 %11
  %21 = getelementptr inbounds i8, i8* %20, i64 8
  %22 = load i64, i64* %18, align 8
  %23 = icmp eq i64 %22, -1
  br i1 %23, label %30, label %24

24:                                               ; preds = %2
  %25 = load %"class.mojo::Message"*, %"class.mojo::Message"** %17, align 8
  %26 = getelementptr inbounds %"class.mojo::Message", %"class.mojo::Message"* %25, i64 0, i32 1, i32 2
  %27 = load i8*, i8** %26, align 8
  %28 = getelementptr inbounds i8, i8* %27, i64 %22
  %29 = bitcast i8* %28 to %"class.blink::mojom::internal::FileSystemAccessError_Data"*
  br label %30

30:                                               ; preds = %2, %24
  %31 = phi %"class.blink::mojom::internal::FileSystemAccessError_Data"* [ %29, %24 ], [ null, %2 ]
  %32 = bitcast i8* %21 to i64*
  %33 = icmp eq %"class.blink::mojom::internal::FileSystemAccessError_Data"* %31, null
  %34 = ptrtoint %"class.blink::mojom::internal::FileSystemAccessError_Data"* %31 to i64
  %35 = ptrtoint i8* %21 to i64
  %36 = sub i64 %34, %35
  %37 = select i1 %33, i64 0, i64 %36
  store i64 %37, i64* %32, align 8
  %38 = getelementptr inbounds %"class.blink::mojom::FileSystemAccessFileWriter_Abort_ProxyToResponder", %"class.blink::mojom::FileSystemAccessFileWriter_Abort_ProxyToResponder"* %0, i64 0, i32 0
  %39 = load i64, i64* %38, align 8
  %40 = bitcast i8** %12 to %"struct.mojo::internal::MessageHeaderV1"**
  %41 = load %"struct.mojo::internal::MessageHeaderV1"*, %"struct.mojo::internal::MessageHeaderV1"** %40, align 8
  %42 = getelementptr inbounds %"struct.mojo::internal::MessageHeaderV1", %"struct.mojo::internal::MessageHeaderV1"* %41, i64 0, i32 1
  store i64 %39, i64* %42, align 1
  %43 = getelementptr inbounds %"class.blink::mojom::FileSystemAccessFileWriter_Abort_ProxyToResponder", %"class.blink::mojom::FileSystemAccessFileWriter_Abort_ProxyToResponder"* %0, i64 0, i32 2, i32 0, i32 0, i32 0
  %44 = load %"class.mojo::MessageReceiverWithStatus"*, %"class.mojo::MessageReceiverWithStatus"** %43, align 8
  %45 = getelementptr inbounds %"class.mojo::MessageReceiverWithStatus", %"class.mojo::MessageReceiverWithStatus"* %44, i64 0, i32 0
  %46 = bitcast %"class.mojo::MessageReceiverWithStatus"* %44 to i1 (%"class.mojo::MessageReceiver"*, %"class.mojo::Message"*)***
  %47 = load i1 (%"class.mojo::MessageReceiver"*, %"class.mojo::Message"*)**, i1 (%"class.mojo::MessageReceiver"*, %"class.mojo::Message"*)*** %46, align 8
  %48 = getelementptr inbounds i1 (%"class.mojo::MessageReceiver"*, %"class.mojo::Message"*)*, i1 (%"class.mojo::MessageReceiver"*, %"class.mojo::Message"*)** %47, i64 3
  %49 = load i1 (%"class.mojo::MessageReceiver"*, %"class.mojo::Message"*)*, i1 (%"class.mojo::MessageReceiver"*, %"class.mojo::Message"*)** %48, align 8
  %50 = call zeroext i1 %49(%"class.mojo::MessageReceiver"* %45, %"class.mojo::Message"* nonnull %3) #9
  %51 = load %"class.mojo::MessageReceiverWithStatus"*, %"class.mojo::MessageReceiverWithStatus"** %43, align 8
  store %"class.mojo::MessageReceiverWithStatus"* null, %"class.mojo::MessageReceiverWithStatus"** %43, align 8
  %52 = icmp eq %"class.mojo::MessageReceiverWithStatus"* %51, null
  br i1 %52, label %58, label %53

53:                                               ; preds = %30
  %54 = bitcast %"class.mojo::MessageReceiverWithStatus"* %51 to void (%"class.mojo::MessageReceiverWithStatus"*)***
  %55 = load void (%"class.mojo::MessageReceiverWithStatus"*)**, void (%"class.mojo::MessageReceiverWithStatus"*)*** %54, align 8
  %56 = getelementptr inbounds void (%"class.mojo::MessageReceiverWithStatus"*)*, void (%"class.mojo::MessageReceiverWithStatus"*)** %55, i64 1
  %57 = load void (%"class.mojo::MessageReceiverWithStatus"*)*, void (%"class.mojo::MessageReceiverWithStatus"*)** %56, align 8
  call void %57(%"class.mojo::MessageReceiverWithStatus"* nonnull %51) #9
  br label %58

58:                                               ; preds = %30, %53
  call void @llvm.lifetime.end.p0i8(i64 16, i8* nonnull %16) #9
  call void @_ZN4mojo7MessageD1Ev(%"class.mojo::Message"* nonnull %3) #9
  call void @llvm.lifetime.end.p0i8(i64 120, i8* nonnull %9) #9
  ret void
}

; Function Attrs: norecurse nounwind readonly ssp uwtable
define hidden zeroext i1 @_ZN5blink5mojom38FileSystemAccessFileWriterStubDispatch6AcceptEPNS0_26FileSystemAccessFileWriterEPN4mojo7MessageE(%"class.blink::mojom::FileSystemAccessFileWriter"* nocapture readnone, %"class.mojo::Message"* nocapture readonly) local_unnamed_addr #6 align 2 {
  ret i1 false
}

; Function Attrs: nounwind ssp uwtable
define hidden zeroext i1 @_ZN5blink5mojom38FileSystemAccessFileWriterStubDispatch19AcceptWithResponderEPNS0_26FileSystemAccessFileWriterEPN4mojo7MessageENSt3__110unique_ptrINS4_25MessageReceiverWithStatusENS7_14default_deleteIS9_EEEE(%"class.blink::mojom::FileSystemAccessFileWriter"*, %"class.mojo::Message"*, %"class.mojo::MessageReceiverWithStatus"*) local_unnamed_addr #1 align 2 {
  %4 = alloca %"class.mojo::ScopedHandleBase.2", align 4
  %5 = alloca %"class.base::TaskAnnotator::ScopedSetIpcHash", align 8
  %6 = alloca %"class.base::OnceCallback", align 8
  %7 = alloca %"class.mojo::ScopedHandleBase", align 4
  %8 = alloca %"class.base::OnceCallback", align 8
  %9 = alloca %"class.base::TaskAnnotator::ScopedSetIpcHash", align 8
  %10 = alloca %"class.base::OnceCallback.24", align 8
  %11 = alloca %"class.base::OnceCallback.24", align 8
  %12 = alloca %"class.base::TaskAnnotator::ScopedSetIpcHash", align 8
  %13 = alloca %"class.base::OnceCallback.24", align 8
  %14 = alloca %"class.base::OnceCallback.24", align 8
  %15 = alloca %"class.base::TaskAnnotator::ScopedSetIpcHash", align 8
  %16 = alloca %"class.base::OnceCallback.24", align 8
  %17 = alloca %"class.base::OnceCallback.24", align 8
  %18 = ptrtoint %"class.mojo::MessageReceiverWithStatus"* %2 to i64
  %19 = getelementptr inbounds %"class.mojo::Message", %"class.mojo::Message"* %1, i64 0, i32 1, i32 2
  %20 = bitcast i8** %19 to %"struct.mojo::internal::MessageHeader"**
  %21 = load %"struct.mojo::internal::MessageHeader"*, %"struct.mojo::internal::MessageHeader"** %20, align 8
  %22 = getelementptr inbounds %"struct.mojo::internal::MessageHeader", %"struct.mojo::internal::MessageHeader"* %21, i64 0, i32 3
  %23 = load i32, i32* %22, align 1
  %24 = and i32 %23, 4
  %25 = bitcast i8** %19 to %"struct.mojo::internal::MessageHeaderV1"**
  %26 = getelementptr inbounds %"struct.mojo::internal::MessageHeader", %"struct.mojo::internal::MessageHeader"* %21, i64 0, i32 2
  %27 = load i32, i32* %26, align 1
  switch i32 %27, label %165 [
    i32 0, label %28
    i32 1, label %72
    i32 2, label %105
    i32 3, label %135
  ]

28:                                               ; preds = %3
  %29 = bitcast %"class.base::TaskAnnotator::ScopedSetIpcHash"* %5 to i8*
  call void @llvm.lifetime.start.p0i8(i64 24, i8* nonnull %29) #9
  call void @llvm.memset.p0i8.i64(i8* nonnull align 8 %29, i8 -86, i64 24, i1 false)
  call void @_ZN4base13TaskAnnotator16ScopedSetIpcHashC1Ej(%"class.base::TaskAnnotator::ScopedSetIpcHash"* nonnull %5, i32 686631158) #9
  %30 = call i8* @_ZNK4mojo7Message7payloadEv(%"class.mojo::Message"* %1) #9
  %31 = getelementptr inbounds i8, i8* %30, i64 8
  %32 = bitcast i8* %31 to i64*
  %33 = load i64, i64* %32, align 8
  %34 = getelementptr inbounds i8, i8* %30, i64 16
  %35 = bitcast i8* %34 to %"struct.mojo::internal::Handle_Data"*
  %36 = bitcast %"class.mojo::ScopedHandleBase.2"* %4 to i8*
  call void @llvm.lifetime.start.p0i8(i64 4, i8* nonnull %36) #9, !noalias !9
  call void @_ZN4mojo8internal17DeserializeHandleERKNS0_11Handle_DataERNS_7MessageE(%"class.mojo::ScopedHandleBase.2"* nonnull sret %4, %"struct.mojo::internal::Handle_Data"* dereferenceable(4) %35, %"class.mojo::Message"* dereferenceable(120) %1) #9, !noalias !12
  %37 = getelementptr inbounds %"class.mojo::ScopedHandleBase.2", %"class.mojo::ScopedHandleBase.2"* %4, i64 0, i32 0, i32 0
  %38 = load i32, i32* %37, align 4, !noalias !15
  call void @llvm.lifetime.end.p0i8(i64 4, i8* nonnull %36) #9, !noalias !9
  %39 = bitcast %"class.base::OnceCallback"* %6 to i8*
  call void @llvm.lifetime.start.p0i8(i64 8, i8* nonnull %39) #9
  %40 = getelementptr inbounds %"class.base::OnceCallback", %"class.base::OnceCallback"* %6, i64 0, i32 0, i32 0, i32 0
  %41 = load %"struct.mojo::internal::MessageHeaderV1"*, %"struct.mojo::internal::MessageHeaderV1"** %25, align 8
  %42 = getelementptr inbounds %"struct.mojo::internal::MessageHeaderV1", %"struct.mojo::internal::MessageHeaderV1"* %41, i64 0, i32 1
  %43 = load i64, i64* %42, align 1
  %44 = call i8* @_Znwm(i64 24) #10, !noalias !20
  %45 = lshr exact i32 %24, 2
  %46 = trunc i32 %45 to i8
  %47 = bitcast i8* %44 to i64*
  store i64 %43, i64* %47, align 8, !noalias !20
  %48 = getelementptr inbounds i8, i8* %44, i64 8
  store i8 %46, i8* %48, align 8, !noalias !20
  %49 = getelementptr inbounds i8, i8* %44, i64 16
  %50 = bitcast i8* %49 to i64*
  store i64 %18, i64* %50, align 8, !noalias !20
  %51 = ptrtoint i8* %44 to i64
  %52 = call i8* @_Znwm(i64 56) #10, !noalias !23
  %53 = bitcast i8* %52 to %"class.base::internal::BindStateBase"*
  call void @_ZN4base8internal13BindStateBaseC2EPFvvEPFvPKS1_E(%"class.base::internal::BindStateBase"* nonnull %53, void ()* bitcast (void (%"class.base::internal::BindStateBase"*, %"class.mojo::InlinedStructPtr"*, i64)* @_ZN4base8internal7InvokerINS0_9BindStateIMN5blink5mojom49FileSystemAccessFileWriter_Write_ProxyToResponderEFvN4mojo16InlinedStructPtrINS4_21FileSystemAccessErrorEEEmEJNSt3__110unique_ptrIS5_NSC_14default_deleteIS5_EEEEEEEFvS9_mEE7RunOnceEPNS0_13BindStateBaseEOS9_m to void ()*), void (%"class.base::internal::BindStateBase"*)* nonnull @_ZN4base8internal9BindStateIMN5blink5mojom49FileSystemAccessFileWriter_Write_ProxyToResponderEFvN4mojo16InlinedStructPtrINS3_21FileSystemAccessErrorEEEmEJNSt3__110unique_ptrIS4_NSB_14default_deleteIS4_EEEEEE7DestroyEPKNS0_13BindStateBaseE) #9, !noalias !23
  %54 = getelementptr inbounds i8, i8* %52, i64 32
  %55 = bitcast i8* %54 to <2 x i64>*
  store <2 x i64> <i64 ptrtoint (void (%"class.blink::mojom::FileSystemAccessFileWriter_Write_ProxyToResponder"*, %"class.mojo::InlinedStructPtr"*, i64)* @_ZN5blink5mojom49FileSystemAccessFileWriter_Write_ProxyToResponder3RunEN4mojo16InlinedStructPtrINS0_21FileSystemAccessErrorEEEm to i64), i64 0>, <2 x i64>* %55, align 8, !noalias !23
  %56 = getelementptr inbounds i8, i8* %52, i64 48
  %57 = bitcast i8* %56 to i64*
  store i64 %51, i64* %57, align 8, !noalias !23
  %58 = getelementptr inbounds %"class.mojo::ScopedHandleBase", %"class.mojo::ScopedHandleBase"* %7, i64 0, i32 0, i32 0, i32 0
  store i32 %38, i32* %58, align 4, !alias.scope !28
  %59 = ptrtoint i8* %52 to i64
  %60 = bitcast %"class.base::OnceCallback"* %8 to i64*
  store i64 %59, i64* %60, align 8
  store %"class.base::internal::BindStateBase"* null, %"class.base::internal::BindStateBase"** %40, align 8
  %61 = bitcast %"class.blink::mojom::FileSystemAccessFileWriter"* %0 to void (%"class.blink::mojom::FileSystemAccessFileWriter"*, i64, %"class.mojo::ScopedHandleBase"*, %"class.base::OnceCallback"*)***
  %62 = load void (%"class.blink::mojom::FileSystemAccessFileWriter"*, i64, %"class.mojo::ScopedHandleBase"*, %"class.base::OnceCallback"*)**, void (%"class.blink::mojom::FileSystemAccessFileWriter"*, i64, %"class.mojo::ScopedHandleBase"*, %"class.base::OnceCallback"*)*** %61, align 8
  %63 = getelementptr inbounds void (%"class.blink::mojom::FileSystemAccessFileWriter"*, i64, %"class.mojo::ScopedHandleBase"*, %"class.base::OnceCallback"*)*, void (%"class.blink::mojom::FileSystemAccessFileWriter"*, i64, %"class.mojo::ScopedHandleBase"*, %"class.base::OnceCallback"*)** %62, i64 2
  %64 = load void (%"class.blink::mojom::FileSystemAccessFileWriter"*, i64, %"class.mojo::ScopedHandleBase"*, %"class.base::OnceCallback"*)*, void (%"class.blink::mojom::FileSystemAccessFileWriter"*, i64, %"class.mojo::ScopedHandleBase"*, %"class.base::OnceCallback"*)** %63, align 8
  call void %64(%"class.blink::mojom::FileSystemAccessFileWriter"* %0, i64 %33, %"class.mojo::ScopedHandleBase"* nonnull %7, %"class.base::OnceCallback"* nonnull %8) #9
  %65 = getelementptr inbounds %"class.base::OnceCallback", %"class.base::OnceCallback"* %8, i64 0, i32 0
  call void @_ZN4base8internal12CallbackBaseD2Ev(%"class.base::internal::CallbackBase"* nonnull %65) #9
  %66 = load i32, i32* %58, align 4
  %67 = icmp eq i32 %66, 0
  br i1 %67, label %70, label %68

68:                                               ; preds = %28
  %69 = call i32 @MojoClose(i32 %66) #9
  br label %70

70:                                               ; preds = %68, %28
  %71 = getelementptr inbounds %"class.base::OnceCallback", %"class.base::OnceCallback"* %6, i64 0, i32 0
  call void @_ZN4base8internal12CallbackBaseD2Ev(%"class.base::internal::CallbackBase"* nonnull %71) #9
  call void @llvm.lifetime.end.p0i8(i64 8, i8* nonnull %39) #9
  call void @_ZN4base13TaskAnnotator16ScopedSetIpcHashD1Ev(%"class.base::TaskAnnotator::ScopedSetIpcHash"* nonnull %5) #9
  call void @llvm.lifetime.end.p0i8(i64 24, i8* nonnull %29) #9
  br label %172

72:                                               ; preds = %3
  %73 = bitcast %"class.base::TaskAnnotator::ScopedSetIpcHash"* %9 to i8*
  call void @llvm.lifetime.start.p0i8(i64 24, i8* nonnull %73) #9
  call void @llvm.memset.p0i8.i64(i8* nonnull align 8 %73, i8 -86, i64 24, i1 false)
  call void @_ZN4base13TaskAnnotator16ScopedSetIpcHashC1Ej(%"class.base::TaskAnnotator::ScopedSetIpcHash"* nonnull %9, i32 -602503451) #9
  %74 = call i8* @_ZNK4mojo7Message7payloadEv(%"class.mojo::Message"* %1) #9
  %75 = getelementptr inbounds i8, i8* %74, i64 8
  %76 = bitcast i8* %75 to i64*
  %77 = load i64, i64* %76, align 8
  %78 = bitcast %"class.base::OnceCallback.24"* %10 to i8*
  call void @llvm.lifetime.start.p0i8(i64 8, i8* nonnull %78) #9
  %79 = getelementptr inbounds %"class.base::OnceCallback.24", %"class.base::OnceCallback.24"* %10, i64 0, i32 0, i32 0, i32 0
  %80 = load %"struct.mojo::internal::MessageHeaderV1"*, %"struct.mojo::internal::MessageHeaderV1"** %25, align 8
  %81 = getelementptr inbounds %"struct.mojo::internal::MessageHeaderV1", %"struct.mojo::internal::MessageHeaderV1"* %80, i64 0, i32 1
  %82 = load i64, i64* %81, align 1
  %83 = call i8* @_Znwm(i64 24) #10, !noalias !31
  %84 = lshr exact i32 %24, 2
  %85 = trunc i32 %84 to i8
  %86 = bitcast i8* %83 to i64*
  store i64 %82, i64* %86, align 8, !noalias !31
  %87 = getelementptr inbounds i8, i8* %83, i64 8
  store i8 %85, i8* %87, align 8, !noalias !31
  %88 = getelementptr inbounds i8, i8* %83, i64 16
  %89 = bitcast i8* %88 to i64*
  store i64 %18, i64* %89, align 8, !noalias !31
  %90 = ptrtoint i8* %83 to i64
  %91 = call i8* @_Znwm(i64 56) #10, !noalias !34
  %92 = bitcast i8* %91 to %"class.base::internal::BindStateBase"*
  call void @_ZN4base8internal13BindStateBaseC2EPFvvEPFvPKS1_E(%"class.base::internal::BindStateBase"* nonnull %92, void ()* bitcast (void (%"class.base::internal::BindStateBase"*, %"class.mojo::InlinedStructPtr"*)* @_ZN4base8internal7InvokerINS0_9BindStateIMN5blink5mojom52FileSystemAccessFileWriter_Truncate_ProxyToResponderEFvN4mojo16InlinedStructPtrINS4_21FileSystemAccessErrorEEEEJNSt3__110unique_ptrIS5_NSC_14default_deleteIS5_EEEEEEEFvS9_EE7RunOnceEPNS0_13BindStateBaseEOS9_ to void ()*), void (%"class.base::internal::BindStateBase"*)* nonnull @_ZN4base8internal9BindStateIMN5blink5mojom52FileSystemAccessFileWriter_Truncate_ProxyToResponderEFvN4mojo16InlinedStructPtrINS3_21FileSystemAccessErrorEEEEJNSt3__110unique_ptrIS4_NSB_14default_deleteIS4_EEEEEE7DestroyEPKNS0_13BindStateBaseE) #9, !noalias !34
  %93 = getelementptr inbounds i8, i8* %91, i64 32
  %94 = bitcast i8* %93 to <2 x i64>*
  store <2 x i64> <i64 ptrtoint (void (%"class.blink::mojom::FileSystemAccessFileWriter_Truncate_ProxyToResponder"*, %"class.mojo::InlinedStructPtr"*)* @_ZN5blink5mojom52FileSystemAccessFileWriter_Truncate_ProxyToResponder3RunEN4mojo16InlinedStructPtrINS0_21FileSystemAccessErrorEEE to i64), i64 0>, <2 x i64>* %94, align 8, !noalias !34
  %95 = getelementptr inbounds i8, i8* %91, i64 48
  %96 = bitcast i8* %95 to i64*
  store i64 %90, i64* %96, align 8, !noalias !34
  %97 = ptrtoint i8* %91 to i64
  %98 = bitcast %"class.base::OnceCallback.24"* %11 to i64*
  store i64 %97, i64* %98, align 8
  store %"class.base::internal::BindStateBase"* null, %"class.base::internal::BindStateBase"** %79, align 8
  %99 = bitcast %"class.blink::mojom::FileSystemAccessFileWriter"* %0 to void (%"class.blink::mojom::FileSystemAccessFileWriter"*, i64, %"class.base::OnceCallback.24"*)***
  %100 = load void (%"class.blink::mojom::FileSystemAccessFileWriter"*, i64, %"class.base::OnceCallback.24"*)**, void (%"class.blink::mojom::FileSystemAccessFileWriter"*, i64, %"class.base::OnceCallback.24"*)*** %99, align 8
  %101 = getelementptr inbounds void (%"class.blink::mojom::FileSystemAccessFileWriter"*, i64, %"class.base::OnceCallback.24"*)*, void (%"class.blink::mojom::FileSystemAccessFileWriter"*, i64, %"class.base::OnceCallback.24"*)** %100, i64 3
  %102 = load void (%"class.blink::mojom::FileSystemAccessFileWriter"*, i64, %"class.base::OnceCallback.24"*)*, void (%"class.blink::mojom::FileSystemAccessFileWriter"*, i64, %"class.base::OnceCallback.24"*)** %101, align 8
  call void %102(%"class.blink::mojom::FileSystemAccessFileWriter"* %0, i64 %77, %"class.base::OnceCallback.24"* nonnull %11) #9
  %103 = getelementptr inbounds %"class.base::OnceCallback.24", %"class.base::OnceCallback.24"* %11, i64 0, i32 0
  call void @_ZN4base8internal12CallbackBaseD2Ev(%"class.base::internal::CallbackBase"* nonnull %103) #9
  %104 = getelementptr inbounds %"class.base::OnceCallback.24", %"class.base::OnceCallback.24"* %10, i64 0, i32 0
  call void @_ZN4base8internal12CallbackBaseD2Ev(%"class.base::internal::CallbackBase"* nonnull %104) #9
  call void @llvm.lifetime.end.p0i8(i64 8, i8* nonnull %78) #9
  call void @_ZN4base13TaskAnnotator16ScopedSetIpcHashD1Ev(%"class.base::TaskAnnotator::ScopedSetIpcHash"* nonnull %9) #9
  call void @llvm.lifetime.end.p0i8(i64 24, i8* nonnull %73) #9
  br label %172

105:                                              ; preds = %3
  %106 = bitcast %"class.base::TaskAnnotator::ScopedSetIpcHash"* %12 to i8*
  call void @llvm.lifetime.start.p0i8(i64 24, i8* nonnull %106) #9
  call void @llvm.memset.p0i8.i64(i8* nonnull align 8 %106, i8 -86, i64 24, i1 false)
  call void @_ZN4base13TaskAnnotator16ScopedSetIpcHashC1Ej(%"class.base::TaskAnnotator::ScopedSetIpcHash"* nonnull %12, i32 490282388) #9
  %107 = call i8* @_ZNK4mojo7Message7payloadEv(%"class.mojo::Message"* %1) #9
  %108 = bitcast %"class.base::OnceCallback.24"* %13 to i8*
  call void @llvm.lifetime.start.p0i8(i64 8, i8* nonnull %108) #9
  %109 = getelementptr inbounds %"class.base::OnceCallback.24", %"class.base::OnceCallback.24"* %13, i64 0, i32 0, i32 0, i32 0
  %110 = load %"struct.mojo::internal::MessageHeaderV1"*, %"struct.mojo::internal::MessageHeaderV1"** %25, align 8
  %111 = getelementptr inbounds %"struct.mojo::internal::MessageHeaderV1", %"struct.mojo::internal::MessageHeaderV1"* %110, i64 0, i32 1
  %112 = load i64, i64* %111, align 1
  %113 = call i8* @_Znwm(i64 24) #10, !noalias !39
  %114 = lshr exact i32 %24, 2
  %115 = trunc i32 %114 to i8
  %116 = bitcast i8* %113 to i64*
  store i64 %112, i64* %116, align 8, !noalias !39
  %117 = getelementptr inbounds i8, i8* %113, i64 8
  store i8 %115, i8* %117, align 8, !noalias !39
  %118 = getelementptr inbounds i8, i8* %113, i64 16
  %119 = bitcast i8* %118 to i64*
  store i64 %18, i64* %119, align 8, !noalias !39
  %120 = ptrtoint i8* %113 to i64
  %121 = call i8* @_Znwm(i64 56) #10, !noalias !42
  %122 = bitcast i8* %121 to %"class.base::internal::BindStateBase"*
  call void @_ZN4base8internal13BindStateBaseC2EPFvvEPFvPKS1_E(%"class.base::internal::BindStateBase"* nonnull %122, void ()* bitcast (void (%"class.base::internal::BindStateBase"*, %"class.mojo::InlinedStructPtr"*)* @_ZN4base8internal7InvokerINS0_9BindStateIMN5blink5mojom49FileSystemAccessFileWriter_Close_ProxyToResponderEFvN4mojo16InlinedStructPtrINS4_21FileSystemAccessErrorEEEEJNSt3__110unique_ptrIS5_NSC_14default_deleteIS5_EEEEEEEFvS9_EE7RunOnceEPNS0_13BindStateBaseEOS9_ to void ()*), void (%"class.base::internal::BindStateBase"*)* nonnull @_ZN4base8internal9BindStateIMN5blink5mojom49FileSystemAccessFileWriter_Close_ProxyToResponderEFvN4mojo16InlinedStructPtrINS3_21FileSystemAccessErrorEEEEJNSt3__110unique_ptrIS4_NSB_14default_deleteIS4_EEEEEE7DestroyEPKNS0_13BindStateBaseE) #9, !noalias !42
  %123 = getelementptr inbounds i8, i8* %121, i64 32
  %124 = bitcast i8* %123 to <2 x i64>*
  store <2 x i64> <i64 ptrtoint (void (%"class.blink::mojom::FileSystemAccessFileWriter_Close_ProxyToResponder"*, %"class.mojo::InlinedStructPtr"*)* @_ZN5blink5mojom49FileSystemAccessFileWriter_Close_ProxyToResponder3RunEN4mojo16InlinedStructPtrINS0_21FileSystemAccessErrorEEE to i64), i64 0>, <2 x i64>* %124, align 8, !noalias !42
  %125 = getelementptr inbounds i8, i8* %121, i64 48
  %126 = bitcast i8* %125 to i64*
  store i64 %120, i64* %126, align 8, !noalias !42
  %127 = ptrtoint i8* %121 to i64
  %128 = bitcast %"class.base::OnceCallback.24"* %14 to i64*
  store i64 %127, i64* %128, align 8
  store %"class.base::internal::BindStateBase"* null, %"class.base::internal::BindStateBase"** %109, align 8
  %129 = bitcast %"class.blink::mojom::FileSystemAccessFileWriter"* %0 to void (%"class.blink::mojom::FileSystemAccessFileWriter"*, %"class.base::OnceCallback.24"*)***
  %130 = load void (%"class.blink::mojom::FileSystemAccessFileWriter"*, %"class.base::OnceCallback.24"*)**, void (%"class.blink::mojom::FileSystemAccessFileWriter"*, %"class.base::OnceCallback.24"*)*** %129, align 8
  %131 = getelementptr inbounds void (%"class.blink::mojom::FileSystemAccessFileWriter"*, %"class.base::OnceCallback.24"*)*, void (%"class.blink::mojom::FileSystemAccessFileWriter"*, %"class.base::OnceCallback.24"*)** %130, i64 4
  %132 = load void (%"class.blink::mojom::FileSystemAccessFileWriter"*, %"class.base::OnceCallback.24"*)*, void (%"class.blink::mojom::FileSystemAccessFileWriter"*, %"class.base::OnceCallback.24"*)** %131, align 8
  call void %132(%"class.blink::mojom::FileSystemAccessFileWriter"* %0, %"class.base::OnceCallback.24"* nonnull %14) #9
  %133 = getelementptr inbounds %"class.base::OnceCallback.24", %"class.base::OnceCallback.24"* %14, i64 0, i32 0
  call void @_ZN4base8internal12CallbackBaseD2Ev(%"class.base::internal::CallbackBase"* nonnull %133) #9
  %134 = getelementptr inbounds %"class.base::OnceCallback.24", %"class.base::OnceCallback.24"* %13, i64 0, i32 0
  call void @_ZN4base8internal12CallbackBaseD2Ev(%"class.base::internal::CallbackBase"* nonnull %134) #9
  call void @llvm.lifetime.end.p0i8(i64 8, i8* nonnull %108) #9
  call void @_ZN4base13TaskAnnotator16ScopedSetIpcHashD1Ev(%"class.base::TaskAnnotator::ScopedSetIpcHash"* nonnull %12) #9
  call void @llvm.lifetime.end.p0i8(i64 24, i8* nonnull %106) #9
  br label %172

135:                                              ; preds = %3
  %136 = bitcast %"class.base::TaskAnnotator::ScopedSetIpcHash"* %15 to i8*
  call void @llvm.lifetime.start.p0i8(i64 24, i8* nonnull %136) #9
  call void @llvm.memset.p0i8.i64(i8* nonnull align 8 %136, i8 -86, i64 24, i1 false)
  call void @_ZN4base13TaskAnnotator16ScopedSetIpcHashC1Ej(%"class.base::TaskAnnotator::ScopedSetIpcHash"* nonnull %15, i32 692214232) #9
  %137 = call i8* @_ZNK4mojo7Message7payloadEv(%"class.mojo::Message"* %1) #9
  %138 = bitcast %"class.base::OnceCallback.24"* %16 to i8*
  call void @llvm.lifetime.start.p0i8(i64 8, i8* nonnull %138) #9
  %139 = getelementptr inbounds %"class.base::OnceCallback.24", %"class.base::OnceCallback.24"* %16, i64 0, i32 0, i32 0, i32 0
  %140 = load %"struct.mojo::internal::MessageHeaderV1"*, %"struct.mojo::internal::MessageHeaderV1"** %25, align 8
  %141 = getelementptr inbounds %"struct.mojo::internal::MessageHeaderV1", %"struct.mojo::internal::MessageHeaderV1"* %140, i64 0, i32 1
  %142 = load i64, i64* %141, align 1
  %143 = call i8* @_Znwm(i64 24) #10, !noalias !47
  %144 = lshr exact i32 %24, 2
  %145 = trunc i32 %144 to i8
  %146 = bitcast i8* %143 to i64*
  store i64 %142, i64* %146, align 8, !noalias !47
  %147 = getelementptr inbounds i8, i8* %143, i64 8
  store i8 %145, i8* %147, align 8, !noalias !47
  %148 = getelementptr inbounds i8, i8* %143, i64 16
  %149 = bitcast i8* %148 to i64*
  store i64 %18, i64* %149, align 8, !noalias !47
  %150 = ptrtoint i8* %143 to i64
  %151 = call i8* @_Znwm(i64 56) #10, !noalias !50
  %152 = bitcast i8* %151 to %"class.base::internal::BindStateBase"*
  call void @_ZN4base8internal13BindStateBaseC2EPFvvEPFvPKS1_E(%"class.base::internal::BindStateBase"* nonnull %152, void ()* bitcast (void (%"class.base::internal::BindStateBase"*, %"class.mojo::InlinedStructPtr"*)* @_ZN4base8internal7InvokerINS0_9BindStateIMN5blink5mojom49FileSystemAccessFileWriter_Abort_ProxyToResponderEFvN4mojo16InlinedStructPtrINS4_21FileSystemAccessErrorEEEEJNSt3__110unique_ptrIS5_NSC_14default_deleteIS5_EEEEEEEFvS9_EE7RunOnceEPNS0_13BindStateBaseEOS9_ to void ()*), void (%"class.base::internal::BindStateBase"*)* nonnull @_ZN4base8internal9BindStateIMN5blink5mojom49FileSystemAccessFileWriter_Abort_ProxyToResponderEFvN4mojo16InlinedStructPtrINS3_21FileSystemAccessErrorEEEEJNSt3__110unique_ptrIS4_NSB_14default_deleteIS4_EEEEEE7DestroyEPKNS0_13BindStateBaseE) #9, !noalias !50
  %153 = getelementptr inbounds i8, i8* %151, i64 32
  %154 = bitcast i8* %153 to <2 x i64>*
  store <2 x i64> <i64 ptrtoint (void (%"class.blink::mojom::FileSystemAccessFileWriter_Abort_ProxyToResponder"*, %"class.mojo::InlinedStructPtr"*)* @_ZN5blink5mojom49FileSystemAccessFileWriter_Abort_ProxyToResponder3RunEN4mojo16InlinedStructPtrINS0_21FileSystemAccessErrorEEE to i64), i64 0>, <2 x i64>* %154, align 8, !noalias !50
  %155 = getelementptr inbounds i8, i8* %151, i64 48
  %156 = bitcast i8* %155 to i64*
  store i64 %150, i64* %156, align 8, !noalias !50
  %157 = ptrtoint i8* %151 to i64
  %158 = bitcast %"class.base::OnceCallback.24"* %17 to i64*
  store i64 %157, i64* %158, align 8
  store %"class.base::internal::BindStateBase"* null, %"class.base::internal::BindStateBase"** %139, align 8
  %159 = bitcast %"class.blink::mojom::FileSystemAccessFileWriter"* %0 to void (%"class.blink::mojom::FileSystemAccessFileWriter"*, %"class.base::OnceCallback.24"*)***
  %160 = load void (%"class.blink::mojom::FileSystemAccessFileWriter"*, %"class.base::OnceCallback.24"*)**, void (%"class.blink::mojom::FileSystemAccessFileWriter"*, %"class.base::OnceCallback.24"*)*** %159, align 8
  %161 = getelementptr inbounds void (%"class.blink::mojom::FileSystemAccessFileWriter"*, %"class.base::OnceCallback.24"*)*, void (%"class.blink::mojom::FileSystemAccessFileWriter"*, %"class.base::OnceCallback.24"*)** %160, i64 5
  %162 = load void (%"class.blink::mojom::FileSystemAccessFileWriter"*, %"class.base::OnceCallback.24"*)*, void (%"class.blink::mojom::FileSystemAccessFileWriter"*, %"class.base::OnceCallback.24"*)** %161, align 8
  call void %162(%"class.blink::mojom::FileSystemAccessFileWriter"* %0, %"class.base::OnceCallback.24"* nonnull %17) #9
  %163 = getelementptr inbounds %"class.base::OnceCallback.24", %"class.base::OnceCallback.24"* %17, i64 0, i32 0
  call void @_ZN4base8internal12CallbackBaseD2Ev(%"class.base::internal::CallbackBase"* nonnull %163) #9
  %164 = getelementptr inbounds %"class.base::OnceCallback.24", %"class.base::OnceCallback.24"* %16, i64 0, i32 0
  call void @_ZN4base8internal12CallbackBaseD2Ev(%"class.base::internal::CallbackBase"* nonnull %164) #9
  call void @llvm.lifetime.end.p0i8(i64 8, i8* nonnull %138) #9
  call void @_ZN4base13TaskAnnotator16ScopedSetIpcHashD1Ev(%"class.base::TaskAnnotator::ScopedSetIpcHash"* nonnull %15) #9
  call void @llvm.lifetime.end.p0i8(i64 24, i8* nonnull %136) #9
  br label %172

165:                                              ; preds = %3
  %166 = icmp eq %"class.mojo::MessageReceiverWithStatus"* %2, null
  br i1 %166, label %172, label %167

167:                                              ; preds = %165
  %168 = bitcast %"class.mojo::MessageReceiverWithStatus"* %2 to void (%"class.mojo::MessageReceiverWithStatus"*)***
  %169 = load void (%"class.mojo::MessageReceiverWithStatus"*)**, void (%"class.mojo::MessageReceiverWithStatus"*)*** %168, align 8
  %170 = getelementptr inbounds void (%"class.mojo::MessageReceiverWithStatus"*)*, void (%"class.mojo::MessageReceiverWithStatus"*)** %169, i64 1
  %171 = load void (%"class.mojo::MessageReceiverWithStatus"*)*, void (%"class.mojo::MessageReceiverWithStatus"*)** %170, align 8
  tail call void %171(%"class.mojo::MessageReceiverWithStatus"* nonnull %2) #9
  br label %172

172:                                              ; preds = %70, %72, %105, %135, %165, %167
  %173 = phi i1 [ false, %165 ], [ false, %167 ], [ true, %135 ], [ true, %105 ], [ true, %72 ], [ true, %70 ]
  ret i1 %173
}

; Function Attrs: argmemonly nounwind
declare void @llvm.memcpy.p0i8.p0i8.i64(i8* nocapture writeonly, i8* nocapture readonly, i64, i1 immarg) #2

declare void @_ZN4base13TaskAnnotator16ScopedSetIpcHashC1Ej(%"class.base::TaskAnnotator::ScopedSetIpcHash"*, i32) unnamed_addr #3

; Function Attrs: nounwind
declare void @_ZN4base13TaskAnnotator16ScopedSetIpcHashD1Ev(%"class.base::TaskAnnotator::ScopedSetIpcHash"*) unnamed_addr #5

; Function Attrs: nounwind ssp uwtable
define hidden zeroext i1 @_ZN5blink5mojom42FileSystemAccessFileWriterRequestValidator6AcceptEPN4mojo7MessageE(%"class.blink::mojom::FileSystemAccessFileWriterRequestValidator"* nocapture readnone, %"class.mojo::Message"*) unnamed_addr #1 align 2 {
  %3 = tail call zeroext i1 @_ZN4mojo8internal28ValidateRequestGenericPackedEPNS_7MessageEPKcN4base4spanIKNS0_21GenericValidationInfoELm18446744073709551615EEE(%"class.mojo::Message"* %1, i8* getelementptr inbounds ([39 x i8], [39 x i8]* @_ZN5blink5mojom26FileSystemAccessFileWriter5Name_E, i64 0, i64 0), i64 4, %"struct.mojo::internal::GenericValidationInfo"* getelementptr inbounds ([4 x %"struct.mojo::internal::GenericValidationInfo"], [4 x %"struct.mojo::internal::GenericValidationInfo"]* @_ZN5blink5mojomL41kFileSystemAccessFileWriterValidationInfoE, i64 0, i64 0)) #9
  ret i1 %3
}

declare zeroext i1 @_ZN4mojo8internal28ValidateRequestGenericPackedEPNS_7MessageEPKcN4base4spanIKNS0_21GenericValidationInfoELm18446744073709551615EEE(%"class.mojo::Message"*, i8*, i64, %"struct.mojo::internal::GenericValidationInfo"*) local_unnamed_addr #3

; Function Attrs: nounwind ssp uwtable
define hidden zeroext i1 @_ZN5blink5mojom43FileSystemAccessFileWriterResponseValidator6AcceptEPN4mojo7MessageE(%"class.blink::mojom::FileSystemAccessFileWriterResponseValidator"* nocapture readnone, %"class.mojo::Message"*) unnamed_addr #1 align 2 {
  %3 = tail call zeroext i1 @_ZN4mojo8internal29ValidateResponseGenericPackedEPNS_7MessageEPKcN4base4spanIKNS0_21GenericValidationInfoELm18446744073709551615EEE(%"class.mojo::Message"* %1, i8* getelementptr inbounds ([39 x i8], [39 x i8]* @_ZN5blink5mojom26FileSystemAccessFileWriter5Name_E, i64 0, i64 0), i64 4, %"struct.mojo::internal::GenericValidationInfo"* getelementptr inbounds ([4 x %"struct.mojo::internal::GenericValidationInfo"], [4 x %"struct.mojo::internal::GenericValidationInfo"]* @_ZN5blink5mojomL41kFileSystemAccessFileWriterValidationInfoE, i64 0, i64 0)) #9
  ret i1 %3
}

declare zeroext i1 @_ZN4mojo8internal29ValidateResponseGenericPackedEPNS_7MessageEPKcN4base4spanIKNS0_21GenericValidationInfoELm18446744073709551615EEE(%"class.mojo::Message"*, i8*, i64, %"struct.mojo::internal::GenericValidationInfo"*) local_unnamed_addr #3

; Function Attrs: inlinehint nounwind ssp uwtable
define linkonce_odr hidden void @_ZN5blink5mojom50FileSystemAccessFileWriter_Write_ForwardToCallbackD2Ev(%"class.blink::mojom::FileSystemAccessFileWriter_Write_ForwardToCallback"*) unnamed_addr #7 comdat align 2 {
  %2 = getelementptr inbounds %"class.blink::mojom::FileSystemAccessFileWriter_Write_ForwardToCallback", %"class.blink::mojom::FileSystemAccessFileWriter_Write_ForwardToCallback"* %0, i64 0, i32 0, i32 0
  store i32 (...)** bitcast (i8** getelementptr inbounds ({ [6 x i8*] }, { [6 x i8*] }* @_ZTVN5blink5mojom50FileSystemAccessFileWriter_Write_ForwardToCallbackE, i64 0, inrange i32 0, i64 2) to i32 (...)**), i32 (...)*** %2, align 8
  %3 = getelementptr inbounds %"class.blink::mojom::FileSystemAccessFileWriter_Write_ForwardToCallback", %"class.blink::mojom::FileSystemAccessFileWriter_Write_ForwardToCallback"* %0, i64 0, i32 1, i32 0
  tail call void @_ZN4base8internal12CallbackBaseD2Ev(%"class.base::internal::CallbackBase"* %3) #9
  ret void
}

; Function Attrs: inlinehint nounwind ssp uwtable
define linkonce_odr hidden void @_ZN5blink5mojom50FileSystemAccessFileWriter_Write_ForwardToCallbackD0Ev(%"class.blink::mojom::FileSystemAccessFileWriter_Write_ForwardToCallback"*) unnamed_addr #7 comdat align 2 {
  %2 = getelementptr inbounds %"class.blink::mojom::FileSystemAccessFileWriter_Write_ForwardToCallback", %"class.blink::mojom::FileSystemAccessFileWriter_Write_ForwardToCallback"* %0, i64 0, i32 0, i32 0
  store i32 (...)** bitcast (i8** getelementptr inbounds ({ [6 x i8*] }, { [6 x i8*] }* @_ZTVN5blink5mojom50FileSystemAccessFileWriter_Write_ForwardToCallbackE, i64 0, inrange i32 0, i64 2) to i32 (...)**), i32 (...)*** %2, align 8
  %3 = getelementptr inbounds %"class.blink::mojom::FileSystemAccessFileWriter_Write_ForwardToCallback", %"class.blink::mojom::FileSystemAccessFileWriter_Write_ForwardToCallback"* %0, i64 0, i32 1, i32 0
  tail call void @_ZN4base8internal12CallbackBaseD2Ev(%"class.base::internal::CallbackBase"* %3) #9
  %4 = bitcast %"class.blink::mojom::FileSystemAccessFileWriter_Write_ForwardToCallback"* %0 to i8*
  tail call void @_ZdlPv(i8* %4) #10
  ret void
}

declare zeroext i1 @_ZN4mojo15MessageReceiver25PrefersSerializedMessagesEv(%"class.mojo::MessageReceiver"*) unnamed_addr #3

; Function Attrs: inlinehint nounwind ssp uwtable
define linkonce_odr hidden void @_ZN5blink5mojom53FileSystemAccessFileWriter_Truncate_ForwardToCallbackD2Ev(%"class.blink::mojom::FileSystemAccessFileWriter_Truncate_ForwardToCallback"*) unnamed_addr #7 comdat align 2 {
  %2 = getelementptr inbounds %"class.blink::mojom::FileSystemAccessFileWriter_Truncate_ForwardToCallback", %"class.blink::mojom::FileSystemAccessFileWriter_Truncate_ForwardToCallback"* %0, i64 0, i32 0, i32 0
  store i32 (...)** bitcast (i8** getelementptr inbounds ({ [6 x i8*] }, { [6 x i8*] }* @_ZTVN5blink5mojom53FileSystemAccessFileWriter_Truncate_ForwardToCallbackE, i64 0, inrange i32 0, i64 2) to i32 (...)**), i32 (...)*** %2, align 8
  %3 = getelementptr inbounds %"class.blink::mojom::FileSystemAccessFileWriter_Truncate_ForwardToCallback", %"class.blink::mojom::FileSystemAccessFileWriter_Truncate_ForwardToCallback"* %0, i64 0, i32 1, i32 0
  tail call void @_ZN4base8internal12CallbackBaseD2Ev(%"class.base::internal::CallbackBase"* %3) #9
  ret void
}

; Function Attrs: inlinehint nounwind ssp uwtable
define linkonce_odr hidden void @_ZN5blink5mojom53FileSystemAccessFileWriter_Truncate_ForwardToCallbackD0Ev(%"class.blink::mojom::FileSystemAccessFileWriter_Truncate_ForwardToCallback"*) unnamed_addr #7 comdat align 2 {
  %2 = getelementptr inbounds %"class.blink::mojom::FileSystemAccessFileWriter_Truncate_ForwardToCallback", %"class.blink::mojom::FileSystemAccessFileWriter_Truncate_ForwardToCallback"* %0, i64 0, i32 0, i32 0
  store i32 (...)** bitcast (i8** getelementptr inbounds ({ [6 x i8*] }, { [6 x i8*] }* @_ZTVN5blink5mojom53FileSystemAccessFileWriter_Truncate_ForwardToCallbackE, i64 0, inrange i32 0, i64 2) to i32 (...)**), i32 (...)*** %2, align 8
  %3 = getelementptr inbounds %"class.blink::mojom::FileSystemAccessFileWriter_Truncate_ForwardToCallback", %"class.blink::mojom::FileSystemAccessFileWriter_Truncate_ForwardToCallback"* %0, i64 0, i32 1, i32 0
  tail call void @_ZN4base8internal12CallbackBaseD2Ev(%"class.base::internal::CallbackBase"* %3) #9
  %4 = bitcast %"class.blink::mojom::FileSystemAccessFileWriter_Truncate_ForwardToCallback"* %0 to i8*
  tail call void @_ZdlPv(i8* %4) #10
  ret void
}

; Function Attrs: inlinehint nounwind ssp uwtable
define linkonce_odr hidden void @_ZN5blink5mojom50FileSystemAccessFileWriter_Close_ForwardToCallbackD2Ev(%"class.blink::mojom::FileSystemAccessFileWriter_Close_ForwardToCallback"*) unnamed_addr #7 comdat align 2 {
  %2 = getelementptr inbounds %"class.blink::mojom::FileSystemAccessFileWriter_Close_ForwardToCallback", %"class.blink::mojom::FileSystemAccessFileWriter_Close_ForwardToCallback"* %0, i64 0, i32 0, i32 0
  store i32 (...)** bitcast (i8** getelementptr inbounds ({ [6 x i8*] }, { [6 x i8*] }* @_ZTVN5blink5mojom50FileSystemAccessFileWriter_Close_ForwardToCallbackE, i64 0, inrange i32 0, i64 2) to i32 (...)**), i32 (...)*** %2, align 8
  %3 = getelementptr inbounds %"class.blink::mojom::FileSystemAccessFileWriter_Close_ForwardToCallback", %"class.blink::mojom::FileSystemAccessFileWriter_Close_ForwardToCallback"* %0, i64 0, i32 1, i32 0
  tail call void @_ZN4base8internal12CallbackBaseD2Ev(%"class.base::internal::CallbackBase"* %3) #9
  ret void
}

; Function Attrs: inlinehint nounwind ssp uwtable
define linkonce_odr hidden void @_ZN5blink5mojom50FileSystemAccessFileWriter_Close_ForwardToCallbackD0Ev(%"class.blink::mojom::FileSystemAccessFileWriter_Close_ForwardToCallback"*) unnamed_addr #7 comdat align 2 {
  %2 = getelementptr inbounds %"class.blink::mojom::FileSystemAccessFileWriter_Close_ForwardToCallback", %"class.blink::mojom::FileSystemAccessFileWriter_Close_ForwardToCallback"* %0, i64 0, i32 0, i32 0
  store i32 (...)** bitcast (i8** getelementptr inbounds ({ [6 x i8*] }, { [6 x i8*] }* @_ZTVN5blink5mojom50FileSystemAccessFileWriter_Close_ForwardToCallbackE, i64 0, inrange i32 0, i64 2) to i32 (...)**), i32 (...)*** %2, align 8
  %3 = getelementptr inbounds %"class.blink::mojom::FileSystemAccessFileWriter_Close_ForwardToCallback", %"class.blink::mojom::FileSystemAccessFileWriter_Close_ForwardToCallback"* %0, i64 0, i32 1, i32 0
  tail call void @_ZN4base8internal12CallbackBaseD2Ev(%"class.base::internal::CallbackBase"* %3) #9
  %4 = bitcast %"class.blink::mojom::FileSystemAccessFileWriter_Close_ForwardToCallback"* %0 to i8*
  tail call void @_ZdlPv(i8* %4) #10
  ret void
}

; Function Attrs: inlinehint nounwind ssp uwtable
define linkonce_odr hidden void @_ZN5blink5mojom50FileSystemAccessFileWriter_Abort_ForwardToCallbackD2Ev(%"class.blink::mojom::FileSystemAccessFileWriter_Abort_ForwardToCallback"*) unnamed_addr #7 comdat align 2 {
  %2 = getelementptr inbounds %"class.blink::mojom::FileSystemAccessFileWriter_Abort_ForwardToCallback", %"class.blink::mojom::FileSystemAccessFileWriter_Abort_ForwardToCallback"* %0, i64 0, i32 0, i32 0
  store i32 (...)** bitcast (i8** getelementptr inbounds ({ [6 x i8*] }, { [6 x i8*] }* @_ZTVN5blink5mojom50FileSystemAccessFileWriter_Abort_ForwardToCallbackE, i64 0, inrange i32 0, i64 2) to i32 (...)**), i32 (...)*** %2, align 8
  %3 = getelementptr inbounds %"class.blink::mojom::FileSystemAccessFileWriter_Abort_ForwardToCallback", %"class.blink::mojom::FileSystemAccessFileWriter_Abort_ForwardToCallback"* %0, i64 0, i32 1, i32 0
  tail call void @_ZN4base8internal12CallbackBaseD2Ev(%"class.base::internal::CallbackBase"* %3) #9
  ret void
}

; Function Attrs: inlinehint nounwind ssp uwtable
define linkonce_odr hidden void @_ZN5blink5mojom50FileSystemAccessFileWriter_Abort_ForwardToCallbackD0Ev(%"class.blink::mojom::FileSystemAccessFileWriter_Abort_ForwardToCallback"*) unnamed_addr #7 comdat align 2 {
  %2 = getelementptr inbounds %"class.blink::mojom::FileSystemAccessFileWriter_Abort_ForwardToCallback", %"class.blink::mojom::FileSystemAccessFileWriter_Abort_ForwardToCallback"* %0, i64 0, i32 0, i32 0
  store i32 (...)** bitcast (i8** getelementptr inbounds ({ [6 x i8*] }, { [6 x i8*] }* @_ZTVN5blink5mojom50FileSystemAccessFileWriter_Abort_ForwardToCallbackE, i64 0, inrange i32 0, i64 2) to i32 (...)**), i32 (...)*** %2, align 8
  %3 = getelementptr inbounds %"class.blink::mojom::FileSystemAccessFileWriter_Abort_ForwardToCallback", %"class.blink::mojom::FileSystemAccessFileWriter_Abort_ForwardToCallback"* %0, i64 0, i32 1, i32 0
  tail call void @_ZN4base8internal12CallbackBaseD2Ev(%"class.base::internal::CallbackBase"* %3) #9
  %4 = bitcast %"class.blink::mojom::FileSystemAccessFileWriter_Abort_ForwardToCallback"* %0 to i8*
  tail call void @_ZdlPv(i8* %4) #10
  ret void
}

; Function Attrs: inlinehint nounwind ssp uwtable
define linkonce_odr hidden void @_ZN5blink5mojom31FileSystemAccessFileWriterProxyD0Ev(%"class.blink::mojom::FileSystemAccessFileWriterProxy"*) unnamed_addr #7 comdat align 2 {
  %2 = bitcast %"class.blink::mojom::FileSystemAccessFileWriterProxy"* %0 to i8*
  tail call void @_ZdlPv(i8* %2) #10
  ret void
}

; Function Attrs: nounwind ssp uwtable
define linkonce_odr hidden void @_ZN4mojo15MessageReceiverD2Ev(%"class.mojo::MessageReceiver"*) unnamed_addr #1 comdat align 2 {
  ret void
}

; Function Attrs: inlinehint nounwind ssp uwtable
define linkonce_odr hidden void @_ZN5blink5mojom42FileSystemAccessFileWriterRequestValidatorD0Ev(%"class.blink::mojom::FileSystemAccessFileWriterRequestValidator"*) unnamed_addr #7 comdat align 2 {
  %2 = bitcast %"class.blink::mojom::FileSystemAccessFileWriterRequestValidator"* %0 to i8*
  tail call void @_ZdlPv(i8* %2) #10
  ret void
}

; Function Attrs: inlinehint nounwind ssp uwtable
define linkonce_odr hidden void @_ZN5blink5mojom43FileSystemAccessFileWriterResponseValidatorD0Ev(%"class.blink::mojom::FileSystemAccessFileWriterResponseValidator"*) unnamed_addr #7 comdat align 2 {
  %2 = bitcast %"class.blink::mojom::FileSystemAccessFileWriterResponseValidator"* %0 to i8*
  tail call void @_ZdlPv(i8* %2) #10
  ret void
}

; Function Attrs: nounwind ssp uwtable
define linkonce_odr hidden void @_ZN5blink5mojom26FileSystemAccessFileWriterD2Ev(%"class.blink::mojom::FileSystemAccessFileWriter"*) unnamed_addr #1 comdat align 2 {
  ret void
}

declare i8* @_ZNK4mojo7Message7payloadEv(%"class.mojo::Message"*) local_unnamed_addr #3

declare void @_ZN5blink5mojom21FileSystemAccessErrorC1Ev(%"class.blink::mojom::FileSystemAccessError"*) unnamed_addr #3

; Function Attrs: nounwind
declare void @_ZN5blink5mojom21FileSystemAccessErrorD1Ev(%"class.blink::mojom::FileSystemAccessError"*) unnamed_addr #5

declare void @_ZN4mojo8internal17DeserializeHandleERKNS0_11Handle_DataERNS_7MessageE(%"class.mojo::ScopedHandleBase.2"* sret, %"struct.mojo::internal::Handle_Data"* dereferenceable(4), %"class.mojo::Message"* dereferenceable(120)) local_unnamed_addr #3

declare i32 @MojoClose(i32) local_unnamed_addr #3

; Function Attrs: nounwind ssp uwtable
define linkonce_odr hidden void @_ZN4base8internal7InvokerINS0_9BindStateIMN5blink5mojom49FileSystemAccessFileWriter_Write_ProxyToResponderEFvN4mojo16InlinedStructPtrINS4_21FileSystemAccessErrorEEEmEJNSt3__110unique_ptrIS5_NSC_14default_deleteIS5_EEEEEEEFvS9_mEE7RunOnceEPNS0_13BindStateBaseEOS9_m(%"class.base::internal::BindStateBase"*, %"class.mojo::InlinedStructPtr"* dereferenceable(40), i64) #1 comdat align 2 {
  %4 = alloca %"class.mojo::InlinedStructPtr", align 8
  %5 = getelementptr inbounds %"class.base::internal::BindStateBase", %"class.base::internal::BindStateBase"* %0, i64 1
  %6 = getelementptr inbounds %"class.base::internal::BindStateBase", %"class.base::internal::BindStateBase"* %0, i64 1, i32 2
  %7 = bitcast %"class.base::internal::BindStateBase"* %5 to i64*
  %8 = load i64, i64* %7, align 8
  %9 = getelementptr inbounds %"class.base::internal::BindStateBase", %"class.base::internal::BindStateBase"* %0, i64 1, i32 1
  %10 = bitcast void ()** %9 to i64*
  %11 = load i64, i64* %10, align 8
  %12 = bitcast %"class.mojo::InlinedStructPtr"* %4 to i8*
  call void @llvm.lifetime.start.p0i8(i64 40, i8* nonnull %12) #9
  %13 = bitcast void (%"class.base::internal::BindStateBase"*)** %6 to i8**
  %14 = load i8*, i8** %13, align 8
  %15 = getelementptr inbounds i8, i8* %14, i64 %11
  %16 = bitcast i8* %15 to %"class.blink::mojom::FileSystemAccessFileWriter_Write_ProxyToResponder"*
  %17 = and i64 %8, 1
  %18 = icmp eq i64 %17, 0
  br i1 %18, label %26, label %19

19:                                               ; preds = %3
  %20 = bitcast i8* %15 to i8**
  %21 = load i8*, i8** %20, align 8
  %22 = add i64 %8, -1
  %23 = getelementptr i8, i8* %21, i64 %22
  %24 = bitcast i8* %23 to void (%"class.blink::mojom::FileSystemAccessFileWriter_Write_ProxyToResponder"*, %"class.mojo::InlinedStructPtr"*, i64)**
  %25 = load void (%"class.blink::mojom::FileSystemAccessFileWriter_Write_ProxyToResponder"*, %"class.mojo::InlinedStructPtr"*, i64)*, void (%"class.blink::mojom::FileSystemAccessFileWriter_Write_ProxyToResponder"*, %"class.mojo::InlinedStructPtr"*, i64)** %24, align 8
  br label %28

26:                                               ; preds = %3
  %27 = inttoptr i64 %8 to void (%"class.blink::mojom::FileSystemAccessFileWriter_Write_ProxyToResponder"*, %"class.mojo::InlinedStructPtr"*, i64)*
  br label %28

28:                                               ; preds = %19, %26
  %29 = phi void (%"class.blink::mojom::FileSystemAccessFileWriter_Write_ProxyToResponder"*, %"class.mojo::InlinedStructPtr"*, i64)* [ %25, %19 ], [ %27, %26 ]
  %30 = getelementptr inbounds %"class.mojo::InlinedStructPtr", %"class.mojo::InlinedStructPtr"* %4, i64 0, i32 0
  call void @_ZN5blink5mojom21FileSystemAccessErrorC1Ev(%"class.blink::mojom::FileSystemAccessError"* nonnull %30) #9
  %31 = getelementptr inbounds %"class.mojo::InlinedStructPtr", %"class.mojo::InlinedStructPtr"* %4, i64 0, i32 1
  store i32 0, i32* %31, align 8
  call void @_ZN5blink5mojom21FileSystemAccessErrorD1Ev(%"class.blink::mojom::FileSystemAccessError"* nonnull %30) #9
  call void @_ZN5blink5mojom21FileSystemAccessErrorC1Ev(%"class.blink::mojom::FileSystemAccessError"* nonnull %30) #9
  %32 = getelementptr inbounds %"class.mojo::InlinedStructPtr", %"class.mojo::InlinedStructPtr"* %1, i64 0, i32 0
  call void @_ZNSt3__14swapIN5blink5mojom21FileSystemAccessErrorEEENS_9enable_ifIXaasr21is_move_constructibleIT_EE5valuesr18is_move_assignableIS5_EE5valueEvE4typeERS5_S8_(%"class.blink::mojom::FileSystemAccessError"* nonnull dereferenceable(32) %30, %"class.blink::mojom::FileSystemAccessError"* dereferenceable(32) %32) #9
  %33 = getelementptr inbounds %"class.mojo::InlinedStructPtr", %"class.mojo::InlinedStructPtr"* %1, i64 0, i32 1
  %34 = load i32, i32* %31, align 8
  %35 = load i32, i32* %33, align 4
  store i32 %35, i32* %31, align 8
  store i32 %34, i32* %33, align 4
  call void %29(%"class.blink::mojom::FileSystemAccessFileWriter_Write_ProxyToResponder"* %16, %"class.mojo::InlinedStructPtr"* nonnull %4, i64 %2) #9
  call void @_ZN5blink5mojom21FileSystemAccessErrorD1Ev(%"class.blink::mojom::FileSystemAccessError"* nonnull %30) #9
  call void @llvm.lifetime.end.p0i8(i64 40, i8* nonnull %12) #9
  ret void
}

; Function Attrs: nounwind ssp uwtable
define linkonce_odr hidden void @_ZN4base8internal9BindStateIMN5blink5mojom49FileSystemAccessFileWriter_Write_ProxyToResponderEFvN4mojo16InlinedStructPtrINS3_21FileSystemAccessErrorEEEmEJNSt3__110unique_ptrIS4_NSB_14default_deleteIS4_EEEEEE7DestroyEPKNS0_13BindStateBaseE(%"class.base::internal::BindStateBase"*) #1 comdat align 2 {
  %2 = icmp eq %"class.base::internal::BindStateBase"* %0, null
  br i1 %2, label %28, label %3

3:                                                ; preds = %1
  %4 = getelementptr inbounds %"class.base::internal::BindStateBase", %"class.base::internal::BindStateBase"* %0, i64 1, i32 2
  %5 = bitcast void (%"class.base::internal::BindStateBase"*)** %4 to %"class.blink::mojom::FileSystemAccessFileWriter_Write_ProxyToResponder"**
  %6 = load %"class.blink::mojom::FileSystemAccessFileWriter_Write_ProxyToResponder"*, %"class.blink::mojom::FileSystemAccessFileWriter_Write_ProxyToResponder"** %5, align 8
  store %"class.blink::mojom::FileSystemAccessFileWriter_Write_ProxyToResponder"* null, %"class.blink::mojom::FileSystemAccessFileWriter_Write_ProxyToResponder"** %5, align 8
  %7 = icmp eq %"class.blink::mojom::FileSystemAccessFileWriter_Write_ProxyToResponder"* %6, null
  br i1 %7, label %26, label %8

8:                                                ; preds = %3
  %9 = getelementptr inbounds %"class.blink::mojom::FileSystemAccessFileWriter_Write_ProxyToResponder", %"class.blink::mojom::FileSystemAccessFileWriter_Write_ProxyToResponder"* %6, i64 0, i32 2, i32 0, i32 0, i32 0
  %10 = load %"class.mojo::MessageReceiverWithStatus"*, %"class.mojo::MessageReceiverWithStatus"** %9, align 8
  store %"class.mojo::MessageReceiverWithStatus"* null, %"class.mojo::MessageReceiverWithStatus"** %9, align 8
  %11 = icmp eq %"class.mojo::MessageReceiverWithStatus"* %10, null
  br i1 %11, label %24, label %12

12:                                               ; preds = %8
  %13 = bitcast %"class.mojo::MessageReceiverWithStatus"* %10 to void (%"class.mojo::MessageReceiverWithStatus"*)***
  %14 = load void (%"class.mojo::MessageReceiverWithStatus"*)**, void (%"class.mojo::MessageReceiverWithStatus"*)*** %13, align 8
  %15 = getelementptr inbounds void (%"class.mojo::MessageReceiverWithStatus"*)*, void (%"class.mojo::MessageReceiverWithStatus"*)** %14, i64 1
  %16 = load void (%"class.mojo::MessageReceiverWithStatus"*)*, void (%"class.mojo::MessageReceiverWithStatus"*)** %15, align 8
  tail call void %16(%"class.mojo::MessageReceiverWithStatus"* nonnull %10) #9
  %17 = load %"class.mojo::MessageReceiverWithStatus"*, %"class.mojo::MessageReceiverWithStatus"** %9, align 8
  store %"class.mojo::MessageReceiverWithStatus"* null, %"class.mojo::MessageReceiverWithStatus"** %9, align 8
  %18 = icmp eq %"class.mojo::MessageReceiverWithStatus"* %17, null
  br i1 %18, label %24, label %19

19:                                               ; preds = %12
  %20 = bitcast %"class.mojo::MessageReceiverWithStatus"* %17 to void (%"class.mojo::MessageReceiverWithStatus"*)***
  %21 = load void (%"class.mojo::MessageReceiverWithStatus"*)**, void (%"class.mojo::MessageReceiverWithStatus"*)*** %20, align 8
  %22 = getelementptr inbounds void (%"class.mojo::MessageReceiverWithStatus"*)*, void (%"class.mojo::MessageReceiverWithStatus"*)** %21, i64 1
  %23 = load void (%"class.mojo::MessageReceiverWithStatus"*)*, void (%"class.mojo::MessageReceiverWithStatus"*)** %22, align 8
  tail call void %23(%"class.mojo::MessageReceiverWithStatus"* nonnull %17) #9
  br label %24

24:                                               ; preds = %19, %12, %8
  %25 = bitcast %"class.blink::mojom::FileSystemAccessFileWriter_Write_ProxyToResponder"* %6 to i8*
  tail call void @_ZdlPv(i8* %25) #10
  br label %26

26:                                               ; preds = %3, %24
  %27 = bitcast %"class.base::internal::BindStateBase"* %0 to i8*
  tail call void @_ZdlPv(i8* %27) #10
  br label %28

28:                                               ; preds = %26, %1
  ret void
}

declare void @_ZN4base8internal13BindStateBaseC2EPFvvEPFvPKS1_E(%"class.base::internal::BindStateBase"*, void ()*, void (%"class.base::internal::BindStateBase"*)*) unnamed_addr #3

; Function Attrs: nobuiltin nounwind
declare void @_ZdlPv(i8*) local_unnamed_addr #8

; Function Attrs: nounwind ssp uwtable
define linkonce_odr hidden void @_ZN4base8internal7InvokerINS0_9BindStateIMN5blink5mojom52FileSystemAccessFileWriter_Truncate_ProxyToResponderEFvN4mojo16InlinedStructPtrINS4_21FileSystemAccessErrorEEEEJNSt3__110unique_ptrIS5_NSC_14default_deleteIS5_EEEEEEEFvS9_EE7RunOnceEPNS0_13BindStateBaseEOS9_(%"class.base::internal::BindStateBase"*, %"class.mojo::InlinedStructPtr"* dereferenceable(40)) #1 comdat align 2 {
  %3 = alloca %"class.mojo::InlinedStructPtr", align 8
  %4 = getelementptr inbounds %"class.base::internal::BindStateBase", %"class.base::internal::BindStateBase"* %0, i64 1
  %5 = getelementptr inbounds %"class.base::internal::BindStateBase", %"class.base::internal::BindStateBase"* %0, i64 1, i32 2
  %6 = bitcast %"class.base::internal::BindStateBase"* %4 to i64*
  %7 = load i64, i64* %6, align 8
  %8 = getelementptr inbounds %"class.base::internal::BindStateBase", %"class.base::internal::BindStateBase"* %0, i64 1, i32 1
  %9 = bitcast void ()** %8 to i64*
  %10 = load i64, i64* %9, align 8
  %11 = bitcast %"class.mojo::InlinedStructPtr"* %3 to i8*
  call void @llvm.lifetime.start.p0i8(i64 40, i8* nonnull %11) #9
  %12 = bitcast void (%"class.base::internal::BindStateBase"*)** %5 to i8**
  %13 = load i8*, i8** %12, align 8
  %14 = getelementptr inbounds i8, i8* %13, i64 %10
  %15 = bitcast i8* %14 to %"class.blink::mojom::FileSystemAccessFileWriter_Truncate_ProxyToResponder"*
  %16 = and i64 %7, 1
  %17 = icmp eq i64 %16, 0
  br i1 %17, label %25, label %18

18:                                               ; preds = %2
  %19 = bitcast i8* %14 to i8**
  %20 = load i8*, i8** %19, align 8
  %21 = add i64 %7, -1
  %22 = getelementptr i8, i8* %20, i64 %21
  %23 = bitcast i8* %22 to void (%"class.blink::mojom::FileSystemAccessFileWriter_Truncate_ProxyToResponder"*, %"class.mojo::InlinedStructPtr"*)**
  %24 = load void (%"class.blink::mojom::FileSystemAccessFileWriter_Truncate_ProxyToResponder"*, %"class.mojo::InlinedStructPtr"*)*, void (%"class.blink::mojom::FileSystemAccessFileWriter_Truncate_ProxyToResponder"*, %"class.mojo::InlinedStructPtr"*)** %23, align 8
  br label %27

25:                                               ; preds = %2
  %26 = inttoptr i64 %7 to void (%"class.blink::mojom::FileSystemAccessFileWriter_Truncate_ProxyToResponder"*, %"class.mojo::InlinedStructPtr"*)*
  br label %27

27:                                               ; preds = %18, %25
  %28 = phi void (%"class.blink::mojom::FileSystemAccessFileWriter_Truncate_ProxyToResponder"*, %"class.mojo::InlinedStructPtr"*)* [ %24, %18 ], [ %26, %25 ]
  %29 = getelementptr inbounds %"class.mojo::InlinedStructPtr", %"class.mojo::InlinedStructPtr"* %3, i64 0, i32 0
  call void @_ZN5blink5mojom21FileSystemAccessErrorC1Ev(%"class.blink::mojom::FileSystemAccessError"* nonnull %29) #9
  %30 = getelementptr inbounds %"class.mojo::InlinedStructPtr", %"class.mojo::InlinedStructPtr"* %3, i64 0, i32 1
  store i32 0, i32* %30, align 8
  call void @_ZN5blink5mojom21FileSystemAccessErrorD1Ev(%"class.blink::mojom::FileSystemAccessError"* nonnull %29) #9
  call void @_ZN5blink5mojom21FileSystemAccessErrorC1Ev(%"class.blink::mojom::FileSystemAccessError"* nonnull %29) #9
  %31 = getelementptr inbounds %"class.mojo::InlinedStructPtr", %"class.mojo::InlinedStructPtr"* %1, i64 0, i32 0
  call void @_ZNSt3__14swapIN5blink5mojom21FileSystemAccessErrorEEENS_9enable_ifIXaasr21is_move_constructibleIT_EE5valuesr18is_move_assignableIS5_EE5valueEvE4typeERS5_S8_(%"class.blink::mojom::FileSystemAccessError"* nonnull dereferenceable(32) %29, %"class.blink::mojom::FileSystemAccessError"* dereferenceable(32) %31) #9
  %32 = getelementptr inbounds %"class.mojo::InlinedStructPtr", %"class.mojo::InlinedStructPtr"* %1, i64 0, i32 1
  %33 = load i32, i32* %30, align 8
  %34 = load i32, i32* %32, align 4
  store i32 %34, i32* %30, align 8
  store i32 %33, i32* %32, align 4
  call void %28(%"class.blink::mojom::FileSystemAccessFileWriter_Truncate_ProxyToResponder"* %15, %"class.mojo::InlinedStructPtr"* nonnull %3) #9
  call void @_ZN5blink5mojom21FileSystemAccessErrorD1Ev(%"class.blink::mojom::FileSystemAccessError"* nonnull %29) #9
  call void @llvm.lifetime.end.p0i8(i64 40, i8* nonnull %11) #9
  ret void
}

; Function Attrs: nounwind ssp uwtable
define linkonce_odr hidden void @_ZN4base8internal9BindStateIMN5blink5mojom52FileSystemAccessFileWriter_Truncate_ProxyToResponderEFvN4mojo16InlinedStructPtrINS3_21FileSystemAccessErrorEEEEJNSt3__110unique_ptrIS4_NSB_14default_deleteIS4_EEEEEE7DestroyEPKNS0_13BindStateBaseE(%"class.base::internal::BindStateBase"*) #1 comdat align 2 {
  %2 = icmp eq %"class.base::internal::BindStateBase"* %0, null
  br i1 %2, label %28, label %3

3:                                                ; preds = %1
  %4 = getelementptr inbounds %"class.base::internal::BindStateBase", %"class.base::internal::BindStateBase"* %0, i64 1, i32 2
  %5 = bitcast void (%"class.base::internal::BindStateBase"*)** %4 to %"class.blink::mojom::FileSystemAccessFileWriter_Truncate_ProxyToResponder"**
  %6 = load %"class.blink::mojom::FileSystemAccessFileWriter_Truncate_ProxyToResponder"*, %"class.blink::mojom::FileSystemAccessFileWriter_Truncate_ProxyToResponder"** %5, align 8
  store %"class.blink::mojom::FileSystemAccessFileWriter_Truncate_ProxyToResponder"* null, %"class.blink::mojom::FileSystemAccessFileWriter_Truncate_ProxyToResponder"** %5, align 8
  %7 = icmp eq %"class.blink::mojom::FileSystemAccessFileWriter_Truncate_ProxyToResponder"* %6, null
  br i1 %7, label %26, label %8

8:                                                ; preds = %3
  %9 = getelementptr inbounds %"class.blink::mojom::FileSystemAccessFileWriter_Truncate_ProxyToResponder", %"class.blink::mojom::FileSystemAccessFileWriter_Truncate_ProxyToResponder"* %6, i64 0, i32 2, i32 0, i32 0, i32 0
  %10 = load %"class.mojo::MessageReceiverWithStatus"*, %"class.mojo::MessageReceiverWithStatus"** %9, align 8
  store %"class.mojo::MessageReceiverWithStatus"* null, %"class.mojo::MessageReceiverWithStatus"** %9, align 8
  %11 = icmp eq %"class.mojo::MessageReceiverWithStatus"* %10, null
  br i1 %11, label %24, label %12

12:                                               ; preds = %8
  %13 = bitcast %"class.mojo::MessageReceiverWithStatus"* %10 to void (%"class.mojo::MessageReceiverWithStatus"*)***
  %14 = load void (%"class.mojo::MessageReceiverWithStatus"*)**, void (%"class.mojo::MessageReceiverWithStatus"*)*** %13, align 8
  %15 = getelementptr inbounds void (%"class.mojo::MessageReceiverWithStatus"*)*, void (%"class.mojo::MessageReceiverWithStatus"*)** %14, i64 1
  %16 = load void (%"class.mojo::MessageReceiverWithStatus"*)*, void (%"class.mojo::MessageReceiverWithStatus"*)** %15, align 8
  tail call void %16(%"class.mojo::MessageReceiverWithStatus"* nonnull %10) #9
  %17 = load %"class.mojo::MessageReceiverWithStatus"*, %"class.mojo::MessageReceiverWithStatus"** %9, align 8
  store %"class.mojo::MessageReceiverWithStatus"* null, %"class.mojo::MessageReceiverWithStatus"** %9, align 8
  %18 = icmp eq %"class.mojo::MessageReceiverWithStatus"* %17, null
  br i1 %18, label %24, label %19

19:                                               ; preds = %12
  %20 = bitcast %"class.mojo::MessageReceiverWithStatus"* %17 to void (%"class.mojo::MessageReceiverWithStatus"*)***
  %21 = load void (%"class.mojo::MessageReceiverWithStatus"*)**, void (%"class.mojo::MessageReceiverWithStatus"*)*** %20, align 8
  %22 = getelementptr inbounds void (%"class.mojo::MessageReceiverWithStatus"*)*, void (%"class.mojo::MessageReceiverWithStatus"*)** %21, i64 1
  %23 = load void (%"class.mojo::MessageReceiverWithStatus"*)*, void (%"class.mojo::MessageReceiverWithStatus"*)** %22, align 8
  tail call void %23(%"class.mojo::MessageReceiverWithStatus"* nonnull %17) #9
  br label %24

24:                                               ; preds = %19, %12, %8
  %25 = bitcast %"class.blink::mojom::FileSystemAccessFileWriter_Truncate_ProxyToResponder"* %6 to i8*
  tail call void @_ZdlPv(i8* %25) #10
  br label %26

26:                                               ; preds = %3, %24
  %27 = bitcast %"class.base::internal::BindStateBase"* %0 to i8*
  tail call void @_ZdlPv(i8* %27) #10
  br label %28

28:                                               ; preds = %26, %1
  ret void
}

; Function Attrs: nounwind ssp uwtable
define linkonce_odr hidden void @_ZN4base8internal7InvokerINS0_9BindStateIMN5blink5mojom49FileSystemAccessFileWriter_Close_ProxyToResponderEFvN4mojo16InlinedStructPtrINS4_21FileSystemAccessErrorEEEEJNSt3__110unique_ptrIS5_NSC_14default_deleteIS5_EEEEEEEFvS9_EE7RunOnceEPNS0_13BindStateBaseEOS9_(%"class.base::internal::BindStateBase"*, %"class.mojo::InlinedStructPtr"* dereferenceable(40)) #1 comdat align 2 {
  %3 = alloca %"class.mojo::InlinedStructPtr", align 8
  %4 = getelementptr inbounds %"class.base::internal::BindStateBase", %"class.base::internal::BindStateBase"* %0, i64 1
  %5 = getelementptr inbounds %"class.base::internal::BindStateBase", %"class.base::internal::BindStateBase"* %0, i64 1, i32 2
  %6 = bitcast %"class.base::internal::BindStateBase"* %4 to i64*
  %7 = load i64, i64* %6, align 8
  %8 = getelementptr inbounds %"class.base::internal::BindStateBase", %"class.base::internal::BindStateBase"* %0, i64 1, i32 1
  %9 = bitcast void ()** %8 to i64*
  %10 = load i64, i64* %9, align 8
  %11 = bitcast %"class.mojo::InlinedStructPtr"* %3 to i8*
  call void @llvm.lifetime.start.p0i8(i64 40, i8* nonnull %11) #9
  %12 = bitcast void (%"class.base::internal::BindStateBase"*)** %5 to i8**
  %13 = load i8*, i8** %12, align 8
  %14 = getelementptr inbounds i8, i8* %13, i64 %10
  %15 = bitcast i8* %14 to %"class.blink::mojom::FileSystemAccessFileWriter_Close_ProxyToResponder"*
  %16 = and i64 %7, 1
  %17 = icmp eq i64 %16, 0
  br i1 %17, label %25, label %18

18:                                               ; preds = %2
  %19 = bitcast i8* %14 to i8**
  %20 = load i8*, i8** %19, align 8
  %21 = add i64 %7, -1
  %22 = getelementptr i8, i8* %20, i64 %21
  %23 = bitcast i8* %22 to void (%"class.blink::mojom::FileSystemAccessFileWriter_Close_ProxyToResponder"*, %"class.mojo::InlinedStructPtr"*)**
  %24 = load void (%"class.blink::mojom::FileSystemAccessFileWriter_Close_ProxyToResponder"*, %"class.mojo::InlinedStructPtr"*)*, void (%"class.blink::mojom::FileSystemAccessFileWriter_Close_ProxyToResponder"*, %"class.mojo::InlinedStructPtr"*)** %23, align 8
  br label %27

25:                                               ; preds = %2
  %26 = inttoptr i64 %7 to void (%"class.blink::mojom::FileSystemAccessFileWriter_Close_ProxyToResponder"*, %"class.mojo::InlinedStructPtr"*)*
  br label %27

27:                                               ; preds = %18, %25
  %28 = phi void (%"class.blink::mojom::FileSystemAccessFileWriter_Close_ProxyToResponder"*, %"class.mojo::InlinedStructPtr"*)* [ %24, %18 ], [ %26, %25 ]
  %29 = getelementptr inbounds %"class.mojo::InlinedStructPtr", %"class.mojo::InlinedStructPtr"* %3, i64 0, i32 0
  call void @_ZN5blink5mojom21FileSystemAccessErrorC1Ev(%"class.blink::mojom::FileSystemAccessError"* nonnull %29) #9
  %30 = getelementptr inbounds %"class.mojo::InlinedStructPtr", %"class.mojo::InlinedStructPtr"* %3, i64 0, i32 1
  store i32 0, i32* %30, align 8
  call void @_ZN5blink5mojom21FileSystemAccessErrorD1Ev(%"class.blink::mojom::FileSystemAccessError"* nonnull %29) #9
  call void @_ZN5blink5mojom21FileSystemAccessErrorC1Ev(%"class.blink::mojom::FileSystemAccessError"* nonnull %29) #9
  %31 = getelementptr inbounds %"class.mojo::InlinedStructPtr", %"class.mojo::InlinedStructPtr"* %1, i64 0, i32 0
  call void @_ZNSt3__14swapIN5blink5mojom21FileSystemAccessErrorEEENS_9enable_ifIXaasr21is_move_constructibleIT_EE5valuesr18is_move_assignableIS5_EE5valueEvE4typeERS5_S8_(%"class.blink::mojom::FileSystemAccessError"* nonnull dereferenceable(32) %29, %"class.blink::mojom::FileSystemAccessError"* dereferenceable(32) %31) #9
  %32 = getelementptr inbounds %"class.mojo::InlinedStructPtr", %"class.mojo::InlinedStructPtr"* %1, i64 0, i32 1
  %33 = load i32, i32* %30, align 8
  %34 = load i32, i32* %32, align 4
  store i32 %34, i32* %30, align 8
  store i32 %33, i32* %32, align 4
  call void %28(%"class.blink::mojom::FileSystemAccessFileWriter_Close_ProxyToResponder"* %15, %"class.mojo::InlinedStructPtr"* nonnull %3) #9
  call void @_ZN5blink5mojom21FileSystemAccessErrorD1Ev(%"class.blink::mojom::FileSystemAccessError"* nonnull %29) #9
  call void @llvm.lifetime.end.p0i8(i64 40, i8* nonnull %11) #9
  ret void
}

; Function Attrs: nounwind ssp uwtable
define linkonce_odr hidden void @_ZN4base8internal9BindStateIMN5blink5mojom49FileSystemAccessFileWriter_Close_ProxyToResponderEFvN4mojo16InlinedStructPtrINS3_21FileSystemAccessErrorEEEEJNSt3__110unique_ptrIS4_NSB_14default_deleteIS4_EEEEEE7DestroyEPKNS0_13BindStateBaseE(%"class.base::internal::BindStateBase"*) #1 comdat align 2 {
  %2 = icmp eq %"class.base::internal::BindStateBase"* %0, null
  br i1 %2, label %28, label %3

3:                                                ; preds = %1
  %4 = getelementptr inbounds %"class.base::internal::BindStateBase", %"class.base::internal::BindStateBase"* %0, i64 1, i32 2
  %5 = bitcast void (%"class.base::internal::BindStateBase"*)** %4 to %"class.blink::mojom::FileSystemAccessFileWriter_Close_ProxyToResponder"**
  %6 = load %"class.blink::mojom::FileSystemAccessFileWriter_Close_ProxyToResponder"*, %"class.blink::mojom::FileSystemAccessFileWriter_Close_ProxyToResponder"** %5, align 8
  store %"class.blink::mojom::FileSystemAccessFileWriter_Close_ProxyToResponder"* null, %"class.blink::mojom::FileSystemAccessFileWriter_Close_ProxyToResponder"** %5, align 8
  %7 = icmp eq %"class.blink::mojom::FileSystemAccessFileWriter_Close_ProxyToResponder"* %6, null
  br i1 %7, label %26, label %8

8:                                                ; preds = %3
  %9 = getelementptr inbounds %"class.blink::mojom::FileSystemAccessFileWriter_Close_ProxyToResponder", %"class.blink::mojom::FileSystemAccessFileWriter_Close_ProxyToResponder"* %6, i64 0, i32 2, i32 0, i32 0, i32 0
  %10 = load %"class.mojo::MessageReceiverWithStatus"*, %"class.mojo::MessageReceiverWithStatus"** %9, align 8
  store %"class.mojo::MessageReceiverWithStatus"* null, %"class.mojo::MessageReceiverWithStatus"** %9, align 8
  %11 = icmp eq %"class.mojo::MessageReceiverWithStatus"* %10, null
  br i1 %11, label %24, label %12

12:                                               ; preds = %8
  %13 = bitcast %"class.mojo::MessageReceiverWithStatus"* %10 to void (%"class.mojo::MessageReceiverWithStatus"*)***
  %14 = load void (%"class.mojo::MessageReceiverWithStatus"*)**, void (%"class.mojo::MessageReceiverWithStatus"*)*** %13, align 8
  %15 = getelementptr inbounds void (%"class.mojo::MessageReceiverWithStatus"*)*, void (%"class.mojo::MessageReceiverWithStatus"*)** %14, i64 1
  %16 = load void (%"class.mojo::MessageReceiverWithStatus"*)*, void (%"class.mojo::MessageReceiverWithStatus"*)** %15, align 8
  tail call void %16(%"class.mojo::MessageReceiverWithStatus"* nonnull %10) #9
  %17 = load %"class.mojo::MessageReceiverWithStatus"*, %"class.mojo::MessageReceiverWithStatus"** %9, align 8
  store %"class.mojo::MessageReceiverWithStatus"* null, %"class.mojo::MessageReceiverWithStatus"** %9, align 8
  %18 = icmp eq %"class.mojo::MessageReceiverWithStatus"* %17, null
  br i1 %18, label %24, label %19

19:                                               ; preds = %12
  %20 = bitcast %"class.mojo::MessageReceiverWithStatus"* %17 to void (%"class.mojo::MessageReceiverWithStatus"*)***
  %21 = load void (%"class.mojo::MessageReceiverWithStatus"*)**, void (%"class.mojo::MessageReceiverWithStatus"*)*** %20, align 8
  %22 = getelementptr inbounds void (%"class.mojo::MessageReceiverWithStatus"*)*, void (%"class.mojo::MessageReceiverWithStatus"*)** %21, i64 1
  %23 = load void (%"class.mojo::MessageReceiverWithStatus"*)*, void (%"class.mojo::MessageReceiverWithStatus"*)** %22, align 8
  tail call void %23(%"class.mojo::MessageReceiverWithStatus"* nonnull %17) #9
  br label %24

24:                                               ; preds = %19, %12, %8
  %25 = bitcast %"class.blink::mojom::FileSystemAccessFileWriter_Close_ProxyToResponder"* %6 to i8*
  tail call void @_ZdlPv(i8* %25) #10
  br label %26

26:                                               ; preds = %3, %24
  %27 = bitcast %"class.base::internal::BindStateBase"* %0 to i8*
  tail call void @_ZdlPv(i8* %27) #10
  br label %28

28:                                               ; preds = %26, %1
  ret void
}

; Function Attrs: nounwind ssp uwtable
define linkonce_odr hidden void @_ZN4base8internal7InvokerINS0_9BindStateIMN5blink5mojom49FileSystemAccessFileWriter_Abort_ProxyToResponderEFvN4mojo16InlinedStructPtrINS4_21FileSystemAccessErrorEEEEJNSt3__110unique_ptrIS5_NSC_14default_deleteIS5_EEEEEEEFvS9_EE7RunOnceEPNS0_13BindStateBaseEOS9_(%"class.base::internal::BindStateBase"*, %"class.mojo::InlinedStructPtr"* dereferenceable(40)) #1 comdat align 2 {
  %3 = alloca %"class.mojo::InlinedStructPtr", align 8
  %4 = getelementptr inbounds %"class.base::internal::BindStateBase", %"class.base::internal::BindStateBase"* %0, i64 1
  %5 = getelementptr inbounds %"class.base::internal::BindStateBase", %"class.base::internal::BindStateBase"* %0, i64 1, i32 2
  %6 = bitcast %"class.base::internal::BindStateBase"* %4 to i64*
  %7 = load i64, i64* %6, align 8
  %8 = getelementptr inbounds %"class.base::internal::BindStateBase", %"class.base::internal::BindStateBase"* %0, i64 1, i32 1
  %9 = bitcast void ()** %8 to i64*
  %10 = load i64, i64* %9, align 8
  %11 = bitcast %"class.mojo::InlinedStructPtr"* %3 to i8*
  call void @llvm.lifetime.start.p0i8(i64 40, i8* nonnull %11) #9
  %12 = bitcast void (%"class.base::internal::BindStateBase"*)** %5 to i8**
  %13 = load i8*, i8** %12, align 8
  %14 = getelementptr inbounds i8, i8* %13, i64 %10
  %15 = bitcast i8* %14 to %"class.blink::mojom::FileSystemAccessFileWriter_Abort_ProxyToResponder"*
  %16 = and i64 %7, 1
  %17 = icmp eq i64 %16, 0
  br i1 %17, label %25, label %18

18:                                               ; preds = %2
  %19 = bitcast i8* %14 to i8**
  %20 = load i8*, i8** %19, align 8
  %21 = add i64 %7, -1
  %22 = getelementptr i8, i8* %20, i64 %21
  %23 = bitcast i8* %22 to void (%"class.blink::mojom::FileSystemAccessFileWriter_Abort_ProxyToResponder"*, %"class.mojo::InlinedStructPtr"*)**
  %24 = load void (%"class.blink::mojom::FileSystemAccessFileWriter_Abort_ProxyToResponder"*, %"class.mojo::InlinedStructPtr"*)*, void (%"class.blink::mojom::FileSystemAccessFileWriter_Abort_ProxyToResponder"*, %"class.mojo::InlinedStructPtr"*)** %23, align 8
  br label %27

25:                                               ; preds = %2
  %26 = inttoptr i64 %7 to void (%"class.blink::mojom::FileSystemAccessFileWriter_Abort_ProxyToResponder"*, %"class.mojo::InlinedStructPtr"*)*
  br label %27

27:                                               ; preds = %18, %25
  %28 = phi void (%"class.blink::mojom::FileSystemAccessFileWriter_Abort_ProxyToResponder"*, %"class.mojo::InlinedStructPtr"*)* [ %24, %18 ], [ %26, %25 ]
  %29 = getelementptr inbounds %"class.mojo::InlinedStructPtr", %"class.mojo::InlinedStructPtr"* %3, i64 0, i32 0
  call void @_ZN5blink5mojom21FileSystemAccessErrorC1Ev(%"class.blink::mojom::FileSystemAccessError"* nonnull %29) #9
  %30 = getelementptr inbounds %"class.mojo::InlinedStructPtr", %"class.mojo::InlinedStructPtr"* %3, i64 0, i32 1
  store i32 0, i32* %30, align 8
  call void @_ZN5blink5mojom21FileSystemAccessErrorD1Ev(%"class.blink::mojom::FileSystemAccessError"* nonnull %29) #9
  call void @_ZN5blink5mojom21FileSystemAccessErrorC1Ev(%"class.blink::mojom::FileSystemAccessError"* nonnull %29) #9
  %31 = getelementptr inbounds %"class.mojo::InlinedStructPtr", %"class.mojo::InlinedStructPtr"* %1, i64 0, i32 0
  call void @_ZNSt3__14swapIN5blink5mojom21FileSystemAccessErrorEEENS_9enable_ifIXaasr21is_move_constructibleIT_EE5valuesr18is_move_assignableIS5_EE5valueEvE4typeERS5_S8_(%"class.blink::mojom::FileSystemAccessError"* nonnull dereferenceable(32) %29, %"class.blink::mojom::FileSystemAccessError"* dereferenceable(32) %31) #9
  %32 = getelementptr inbounds %"class.mojo::InlinedStructPtr", %"class.mojo::InlinedStructPtr"* %1, i64 0, i32 1
  %33 = load i32, i32* %30, align 8
  %34 = load i32, i32* %32, align 4
  store i32 %34, i32* %30, align 8
  store i32 %33, i32* %32, align 4
  call void %28(%"class.blink::mojom::FileSystemAccessFileWriter_Abort_ProxyToResponder"* %15, %"class.mojo::InlinedStructPtr"* nonnull %3) #9
  call void @_ZN5blink5mojom21FileSystemAccessErrorD1Ev(%"class.blink::mojom::FileSystemAccessError"* nonnull %29) #9
  call void @llvm.lifetime.end.p0i8(i64 40, i8* nonnull %11) #9
  ret void
}

; Function Attrs: nounwind ssp uwtable
define linkonce_odr hidden void @_ZN4base8internal9BindStateIMN5blink5mojom49FileSystemAccessFileWriter_Abort_ProxyToResponderEFvN4mojo16InlinedStructPtrINS3_21FileSystemAccessErrorEEEEJNSt3__110unique_ptrIS4_NSB_14default_deleteIS4_EEEEEE7DestroyEPKNS0_13BindStateBaseE(%"class.base::internal::BindStateBase"*) #1 comdat align 2 {
  %2 = icmp eq %"class.base::internal::BindStateBase"* %0, null
  br i1 %2, label %28, label %3

3:                                                ; preds = %1
  %4 = getelementptr inbounds %"class.base::internal::BindStateBase", %"class.base::internal::BindStateBase"* %0, i64 1, i32 2
  %5 = bitcast void (%"class.base::internal::BindStateBase"*)** %4 to %"class.blink::mojom::FileSystemAccessFileWriter_Abort_ProxyToResponder"**
  %6 = load %"class.blink::mojom::FileSystemAccessFileWriter_Abort_ProxyToResponder"*, %"class.blink::mojom::FileSystemAccessFileWriter_Abort_ProxyToResponder"** %5, align 8
  store %"class.blink::mojom::FileSystemAccessFileWriter_Abort_ProxyToResponder"* null, %"class.blink::mojom::FileSystemAccessFileWriter_Abort_ProxyToResponder"** %5, align 8
  %7 = icmp eq %"class.blink::mojom::FileSystemAccessFileWriter_Abort_ProxyToResponder"* %6, null
  br i1 %7, label %26, label %8

8:                                                ; preds = %3
  %9 = getelementptr inbounds %"class.blink::mojom::FileSystemAccessFileWriter_Abort_ProxyToResponder", %"class.blink::mojom::FileSystemAccessFileWriter_Abort_ProxyToResponder"* %6, i64 0, i32 2, i32 0, i32 0, i32 0
  %10 = load %"class.mojo::MessageReceiverWithStatus"*, %"class.mojo::MessageReceiverWithStatus"** %9, align 8
  store %"class.mojo::MessageReceiverWithStatus"* null, %"class.mojo::MessageReceiverWithStatus"** %9, align 8
  %11 = icmp eq %"class.mojo::MessageReceiverWithStatus"* %10, null
  br i1 %11, label %24, label %12

12:                                               ; preds = %8
  %13 = bitcast %"class.mojo::MessageReceiverWithStatus"* %10 to void (%"class.mojo::MessageReceiverWithStatus"*)***
  %14 = load void (%"class.mojo::MessageReceiverWithStatus"*)**, void (%"class.mojo::MessageReceiverWithStatus"*)*** %13, align 8
  %15 = getelementptr inbounds void (%"class.mojo::MessageReceiverWithStatus"*)*, void (%"class.mojo::MessageReceiverWithStatus"*)** %14, i64 1
  %16 = load void (%"class.mojo::MessageReceiverWithStatus"*)*, void (%"class.mojo::MessageReceiverWithStatus"*)** %15, align 8
  tail call void %16(%"class.mojo::MessageReceiverWithStatus"* nonnull %10) #9
  %17 = load %"class.mojo::MessageReceiverWithStatus"*, %"class.mojo::MessageReceiverWithStatus"** %9, align 8
  store %"class.mojo::MessageReceiverWithStatus"* null, %"class.mojo::MessageReceiverWithStatus"** %9, align 8
  %18 = icmp eq %"class.mojo::MessageReceiverWithStatus"* %17, null
  br i1 %18, label %24, label %19

19:                                               ; preds = %12
  %20 = bitcast %"class.mojo::MessageReceiverWithStatus"* %17 to void (%"class.mojo::MessageReceiverWithStatus"*)***
  %21 = load void (%"class.mojo::MessageReceiverWithStatus"*)**, void (%"class.mojo::MessageReceiverWithStatus"*)*** %20, align 8
  %22 = getelementptr inbounds void (%"class.mojo::MessageReceiverWithStatus"*)*, void (%"class.mojo::MessageReceiverWithStatus"*)** %21, i64 1
  %23 = load void (%"class.mojo::MessageReceiverWithStatus"*)*, void (%"class.mojo::MessageReceiverWithStatus"*)** %22, align 8
  tail call void %23(%"class.mojo::MessageReceiverWithStatus"* nonnull %17) #9
  br label %24

24:                                               ; preds = %19, %12, %8
  %25 = bitcast %"class.blink::mojom::FileSystemAccessFileWriter_Abort_ProxyToResponder"* %6 to i8*
  tail call void @_ZdlPv(i8* %25) #10
  br label %26

26:                                               ; preds = %3, %24
  %27 = bitcast %"class.base::internal::BindStateBase"* %0 to i8*
  tail call void @_ZdlPv(i8* %27) #10
  br label %28

28:                                               ; preds = %26, %1
  ret void
}

declare zeroext i1 @_ZN5blink5mojom8internal44FileSystemAccessFileWriter_Write_Params_Data8ValidateEPKvPN4mojo8internal17ValidationContextE(i8*, %"class.mojo::internal::ValidationContext"*) #3

declare zeroext i1 @_ZN5blink5mojom8internal52FileSystemAccessFileWriter_Write_ResponseParams_Data8ValidateEPKvPN4mojo8internal17ValidationContextE(i8*, %"class.mojo::internal::ValidationContext"*) #3

declare zeroext i1 @_ZN5blink5mojom8internal47FileSystemAccessFileWriter_Truncate_Params_Data8ValidateEPKvPN4mojo8internal17ValidationContextE(i8*, %"class.mojo::internal::ValidationContext"*) #3

declare zeroext i1 @_ZN5blink5mojom8internal55FileSystemAccessFileWriter_Truncate_ResponseParams_Data8ValidateEPKvPN4mojo8internal17ValidationContextE(i8*, %"class.mojo::internal::ValidationContext"*) #3

declare zeroext i1 @_ZN5blink5mojom8internal44FileSystemAccessFileWriter_Close_Params_Data8ValidateEPKvPN4mojo8internal17ValidationContextE(i8*, %"class.mojo::internal::ValidationContext"*) #3

declare zeroext i1 @_ZN5blink5mojom8internal52FileSystemAccessFileWriter_Close_ResponseParams_Data8ValidateEPKvPN4mojo8internal17ValidationContextE(i8*, %"class.mojo::internal::ValidationContext"*) #3

declare zeroext i1 @_ZN5blink5mojom8internal44FileSystemAccessFileWriter_Abort_Params_Data8ValidateEPKvPN4mojo8internal17ValidationContextE(i8*, %"class.mojo::internal::ValidationContext"*) #3

declare zeroext i1 @_ZN5blink5mojom8internal52FileSystemAccessFileWriter_Abort_ResponseParams_Data8ValidateEPKvPN4mojo8internal17ValidationContextE(i8*, %"class.mojo::internal::ValidationContext"*) #3

declare i64 @_ZN4mojo8internal6Buffer8AllocateEm(%"class.mojo::internal::Buffer"*, i64) local_unnamed_addr #3

declare void @_ZN5blink5mojom8internal44FileSystemAccessFileWriter_Write_Params_DataC1Ev(%"class.blink::mojom::internal::FileSystemAccessFileWriter_Write_Params_Data"*) unnamed_addr #3

declare void @_ZN4mojo8internal15SerializeHandleENS_16ScopedHandleBaseINS_6HandleEEERNS_7MessageERNS0_11Handle_DataE(%"class.mojo::ScopedHandleBase.2"*, %"class.mojo::Message"* dereferenceable(120), %"struct.mojo::internal::Handle_Data"* dereferenceable(4)) local_unnamed_addr #3

declare void @_ZN5blink5mojom8internal47FileSystemAccessFileWriter_Truncate_Params_DataC1Ev(%"class.blink::mojom::internal::FileSystemAccessFileWriter_Truncate_Params_Data"*) unnamed_addr #3

declare void @_ZN5blink5mojom8internal44FileSystemAccessFileWriter_Close_Params_DataC1Ev(%"class.blink::mojom::internal::FileSystemAccessFileWriter_Close_Params_Data"*) unnamed_addr #3

declare void @_ZN5blink5mojom8internal44FileSystemAccessFileWriter_Abort_Params_DataC1Ev(%"class.blink::mojom::internal::FileSystemAccessFileWriter_Abort_Params_Data"*) unnamed_addr #3

declare zeroext i1 @_ZN4mojo12StructTraitsIN5blink5mojom29FileSystemAccessErrorDataViewENS_16InlinedStructPtrINS2_21FileSystemAccessErrorEEEE4ReadES3_PS6_(%"class.blink::mojom::internal::FileSystemAccessError_Data"*, %"class.mojo::Message"*, %"class.mojo::InlinedStructPtr"*) local_unnamed_addr #3

; Function Attrs: inlinehint nounwind ssp uwtable
define linkonce_odr hidden void @_ZNSt3__14swapIN5blink5mojom21FileSystemAccessErrorEEENS_9enable_ifIXaasr21is_move_constructibleIT_EE5valuesr18is_move_assignableIS5_EE5valueEvE4typeERS5_S8_(%"class.blink::mojom::FileSystemAccessError"* dereferenceable(32), %"class.blink::mojom::FileSystemAccessError"* dereferenceable(32)) local_unnamed_addr #7 comdat {
  %3 = alloca %"class.blink::mojom::FileSystemAccessError", align 8
  %4 = bitcast %"class.blink::mojom::FileSystemAccessError"* %3 to i8*
  call void @llvm.lifetime.start.p0i8(i64 32, i8* nonnull %4) #9
  %5 = getelementptr inbounds %"class.blink::mojom::FileSystemAccessError", %"class.blink::mojom::FileSystemAccessError"* %3, i64 0, i32 2, i32 0, i32 0, i32 0, i32 0, i32 0, i32 1
  %6 = bitcast %"class.blink::mojom::FileSystemAccessError"* %0 to i64*
  %7 = bitcast %"class.blink::mojom::FileSystemAccessError"* %3 to i64*
  %8 = getelementptr inbounds %"class.blink::mojom::FileSystemAccessError", %"class.blink::mojom::FileSystemAccessError"* %3, i64 0, i32 2
  %9 = bitcast %"class.std::__1::basic_string"* %8 to i8*
  call void @llvm.memset.p0i8.i64(i8* nonnull align 8 %9, i8 -86, i64 24, i1 false)
  %10 = load i64, i64* %6, align 8
  store i64 %10, i64* %7, align 8
  %11 = getelementptr inbounds %"class.blink::mojom::FileSystemAccessError", %"class.blink::mojom::FileSystemAccessError"* %3, i64 0, i32 2
  %12 = getelementptr inbounds %"class.blink::mojom::FileSystemAccessError", %"class.blink::mojom::FileSystemAccessError"* %0, i64 0, i32 2
  %13 = bitcast %"class.std::__1::basic_string"* %12 to %"struct.std::__1::basic_string<char, std::__1::char_traits<char>, std::__1::allocator<char> >::__short"*
  %14 = getelementptr inbounds %"struct.std::__1::basic_string<char, std::__1::char_traits<char>, std::__1::allocator<char> >::__short", %"struct.std::__1::basic_string<char, std::__1::char_traits<char>, std::__1::allocator<char> >::__short"* %13, i64 0, i32 1, i32 0
  %15 = load i8, i8* %14, align 1
  %16 = icmp slt i8 %15, 0
  br i1 %16, label %20, label %17

17:                                               ; preds = %2
  %18 = bitcast %"class.std::__1::basic_string"* %11 to i8*
  %19 = bitcast %"class.std::__1::basic_string"* %12 to i8*
  call void @llvm.memcpy.p0i8.p0i8.i64(i8* align 8 %18, i8* align 8 %19, i64 24, i1 false) #9
  br label %25

20:                                               ; preds = %2
  %21 = getelementptr inbounds %"class.std::__1::basic_string", %"class.std::__1::basic_string"* %12, i64 0, i32 0, i32 0, i32 0, i32 0, i32 0, i32 0
  %22 = load i8*, i8** %21, align 8
  %23 = getelementptr inbounds %"class.blink::mojom::FileSystemAccessError", %"class.blink::mojom::FileSystemAccessError"* %0, i64 0, i32 2, i32 0, i32 0, i32 0, i32 0, i32 0, i32 1
  %24 = load i64, i64* %23, align 8
  call void @_ZNSt3__112basic_stringIcNS_11char_traitsIcEENS_9allocatorIcEEE25__init_copy_ctor_externalEPKcm(%"class.std::__1::basic_string"* %11, i8* %22, i64 %24) #9
  br label %25

25:                                               ; preds = %17, %20
  %26 = bitcast %"class.blink::mojom::FileSystemAccessError"* %1 to i64*
  %27 = load i64, i64* %26, align 8
  store i64 %27, i64* %6, align 8
  %28 = getelementptr inbounds %"class.blink::mojom::FileSystemAccessError", %"class.blink::mojom::FileSystemAccessError"* %1, i64 0, i32 2
  %29 = icmp eq %"class.blink::mojom::FileSystemAccessError"* %0, %1
  br i1 %29, label %57, label %30

30:                                               ; preds = %25
  %31 = load i8, i8* %14, align 1
  %32 = icmp slt i8 %31, 0
  %33 = bitcast %"class.std::__1::basic_string"* %28 to %"struct.std::__1::basic_string<char, std::__1::char_traits<char>, std::__1::allocator<char> >::__short"*
  %34 = getelementptr inbounds %"struct.std::__1::basic_string<char, std::__1::char_traits<char>, std::__1::allocator<char> >::__short", %"struct.std::__1::basic_string<char, std::__1::char_traits<char>, std::__1::allocator<char> >::__short"* %33, i64 0, i32 1, i32 0
  %35 = load i8, i8* %34, align 1
  %36 = icmp slt i8 %35, 0
  br i1 %32, label %47, label %37

37:                                               ; preds = %30
  br i1 %36, label %41, label %38

38:                                               ; preds = %37
  %39 = bitcast %"class.std::__1::basic_string"* %12 to i8*
  %40 = bitcast %"class.std::__1::basic_string"* %28 to i8*
  call void @llvm.memcpy.p0i8.p0i8.i64(i8* align 8 %39, i8* align 8 %40, i64 24, i1 false) #9
  br label %57

41:                                               ; preds = %37
  %42 = getelementptr inbounds %"class.std::__1::basic_string", %"class.std::__1::basic_string"* %28, i64 0, i32 0, i32 0, i32 0, i32 0, i32 0, i32 0
  %43 = load i8*, i8** %42, align 8
  %44 = getelementptr inbounds %"class.blink::mojom::FileSystemAccessError", %"class.blink::mojom::FileSystemAccessError"* %1, i64 0, i32 2, i32 0, i32 0, i32 0, i32 0, i32 0, i32 1
  %45 = load i64, i64* %44, align 8
  %46 = call dereferenceable(24) %"class.std::__1::basic_string"* @_ZNSt3__112basic_stringIcNS_11char_traitsIcEENS_9allocatorIcEEE17__assign_no_aliasILb1EEERS5_PKcm(%"class.std::__1::basic_string"* %12, i8* %43, i64 %45) #9
  br label %57

47:                                               ; preds = %30
  %48 = getelementptr inbounds %"class.std::__1::basic_string", %"class.std::__1::basic_string"* %28, i64 0, i32 0, i32 0, i32 0, i32 0, i32 0, i32 0
  %49 = load i8*, i8** %48, align 8
  %50 = getelementptr inbounds %"class.blink::mojom::FileSystemAccessError", %"class.blink::mojom::FileSystemAccessError"* %1, i64 0, i32 2, i32 0, i32 0, i32 0, i32 0, i32 0, i32 1
  %51 = load i64, i64* %50, align 8
  %52 = bitcast %"class.std::__1::basic_string"* %28 to i8*
  %53 = zext i8 %35 to i64
  %54 = select i1 %36, i8* %49, i8* %52
  %55 = select i1 %36, i64 %51, i64 %53
  %56 = call dereferenceable(24) %"class.std::__1::basic_string"* @_ZNSt3__112basic_stringIcNS_11char_traitsIcEENS_9allocatorIcEEE17__assign_no_aliasILb0EEERS5_PKcm(%"class.std::__1::basic_string"* %12, i8* %54, i64 %55) #9
  br label %57

57:                                               ; preds = %25, %38, %41, %47
  %58 = load i64, i64* %7, align 8
  store i64 %58, i64* %26, align 8
  %59 = icmp eq %"class.blink::mojom::FileSystemAccessError"* %3, %1
  br i1 %59, label %87, label %60

60:                                               ; preds = %57
  %61 = bitcast %"class.std::__1::basic_string"* %28 to %"struct.std::__1::basic_string<char, std::__1::char_traits<char>, std::__1::allocator<char> >::__short"*
  %62 = getelementptr inbounds %"struct.std::__1::basic_string<char, std::__1::char_traits<char>, std::__1::allocator<char> >::__short", %"struct.std::__1::basic_string<char, std::__1::char_traits<char>, std::__1::allocator<char> >::__short"* %61, i64 0, i32 1, i32 0
  %63 = load i8, i8* %62, align 1
  %64 = icmp slt i8 %63, 0
  %65 = bitcast %"class.std::__1::basic_string"* %11 to %"struct.std::__1::basic_string<char, std::__1::char_traits<char>, std::__1::allocator<char> >::__short"*
  %66 = getelementptr inbounds %"struct.std::__1::basic_string<char, std::__1::char_traits<char>, std::__1::allocator<char> >::__short", %"struct.std::__1::basic_string<char, std::__1::char_traits<char>, std::__1::allocator<char> >::__short"* %65, i64 0, i32 1, i32 0
  %67 = load i8, i8* %66, align 1
  %68 = icmp slt i8 %67, 0
  br i1 %64, label %78, label %69

69:                                               ; preds = %60
  br i1 %68, label %73, label %70

70:                                               ; preds = %69
  %71 = bitcast %"class.std::__1::basic_string"* %28 to i8*
  %72 = bitcast %"class.std::__1::basic_string"* %11 to i8*
  call void @llvm.memcpy.p0i8.p0i8.i64(i8* align 8 %71, i8* align 8 %72, i64 24, i1 false) #9
  br label %87

73:                                               ; preds = %69
  %74 = getelementptr inbounds %"class.std::__1::basic_string", %"class.std::__1::basic_string"* %11, i64 0, i32 0, i32 0, i32 0, i32 0, i32 0, i32 0
  %75 = load i8*, i8** %74, align 8
  %76 = load i64, i64* %5, align 8
  %77 = call dereferenceable(24) %"class.std::__1::basic_string"* @_ZNSt3__112basic_stringIcNS_11char_traitsIcEENS_9allocatorIcEEE17__assign_no_aliasILb1EEERS5_PKcm(%"class.std::__1::basic_string"* %28, i8* %75, i64 %76) #9
  br label %87

78:                                               ; preds = %60
  %79 = getelementptr inbounds %"class.std::__1::basic_string", %"class.std::__1::basic_string"* %11, i64 0, i32 0, i32 0, i32 0, i32 0, i32 0, i32 0
  %80 = load i8*, i8** %79, align 8
  %81 = load i64, i64* %5, align 8
  %82 = bitcast %"class.std::__1::basic_string"* %11 to i8*
  %83 = zext i8 %67 to i64
  %84 = select i1 %68, i8* %80, i8* %82
  %85 = select i1 %68, i64 %81, i64 %83
  %86 = call dereferenceable(24) %"class.std::__1::basic_string"* @_ZNSt3__112basic_stringIcNS_11char_traitsIcEENS_9allocatorIcEEE17__assign_no_aliasILb0EEERS5_PKcm(%"class.std::__1::basic_string"* %28, i8* %84, i64 %85) #9
  br label %87

87:                                               ; preds = %57, %70, %73, %78
  call void @_ZN5blink5mojom21FileSystemAccessErrorD1Ev(%"class.blink::mojom::FileSystemAccessError"* nonnull %3) #9
  call void @llvm.lifetime.end.p0i8(i64 32, i8* nonnull %4) #9
  ret void
}

declare void @_ZNSt3__112basic_stringIcNS_11char_traitsIcEENS_9allocatorIcEEE25__init_copy_ctor_externalEPKcm(%"class.std::__1::basic_string"*, i8*, i64) local_unnamed_addr #3

declare dereferenceable(24) %"class.std::__1::basic_string"* @_ZNSt3__112basic_stringIcNS_11char_traitsIcEENS_9allocatorIcEEE17__assign_no_aliasILb1EEERS5_PKcm(%"class.std::__1::basic_string"*, i8*, i64) local_unnamed_addr #3

declare dereferenceable(24) %"class.std::__1::basic_string"* @_ZNSt3__112basic_stringIcNS_11char_traitsIcEENS_9allocatorIcEEE17__assign_no_aliasILb0EEERS5_PKcm(%"class.std::__1::basic_string"*, i8*, i64) local_unnamed_addr #3

declare void @_ZN5blink5mojom8internal52FileSystemAccessFileWriter_Write_ResponseParams_DataC1Ev(%"class.blink::mojom::internal::FileSystemAccessFileWriter_Write_ResponseParams_Data"*) unnamed_addr #3

; Function Attrs: nounwind ssp uwtable
define linkonce_odr hidden void @_ZN4mojo8internal10SerializerIN5blink5mojom29FileSystemAccessErrorDataViewENS_16InlinedStructPtrINS3_21FileSystemAccessErrorEEEE9SerializeERS7_RNS0_15MessageFragmentINS3_8internal26FileSystemAccessError_DataEEE(%"class.mojo::InlinedStructPtr"* dereferenceable(40), %"class.mojo::internal::MessageFragment.40"* dereferenceable(16)) local_unnamed_addr #1 comdat align 2 {
  %3 = alloca %"class.mojo::internal::MessageFragment.87", align 8
  %4 = getelementptr inbounds %"class.mojo::InlinedStructPtr", %"class.mojo::InlinedStructPtr"* %0, i64 0, i32 1
  %5 = load i32, i32* %4, align 8
  %6 = icmp eq i32 %5, 0
  br i1 %6, label %73, label %7

7:                                                ; preds = %2
  %8 = getelementptr inbounds %"class.mojo::internal::MessageFragment.40", %"class.mojo::internal::MessageFragment.40"* %1, i64 0, i32 0
  %9 = load %"class.mojo::Message"*, %"class.mojo::Message"** %8, align 8
  %10 = getelementptr inbounds %"class.mojo::Message", %"class.mojo::Message"* %9, i64 0, i32 1
  %11 = tail call i64 @_ZN4mojo8internal6Buffer8AllocateEm(%"class.mojo::internal::Buffer"* %10, i64 24) #9
  %12 = getelementptr inbounds %"class.mojo::internal::MessageFragment.40", %"class.mojo::internal::MessageFragment.40"* %1, i64 0, i32 1
  store i64 %11, i64* %12, align 8
  %13 = load %"class.mojo::Message"*, %"class.mojo::Message"** %8, align 8
  %14 = getelementptr inbounds %"class.mojo::Message", %"class.mojo::Message"* %13, i64 0, i32 1, i32 2
  %15 = load i8*, i8** %14, align 8
  %16 = getelementptr inbounds i8, i8* %15, i64 %11
  %17 = bitcast i8* %16 to %"class.blink::mojom::internal::FileSystemAccessError_Data"*
  tail call void @_ZN5blink5mojom8internal26FileSystemAccessError_DataC1Ev(%"class.blink::mojom::internal::FileSystemAccessError_Data"* %17) #9
  %18 = getelementptr inbounds %"class.mojo::InlinedStructPtr", %"class.mojo::InlinedStructPtr"* %0, i64 0, i32 0, i32 0
  %19 = load i32, i32* %18, align 8
  %20 = load %"class.mojo::Message"*, %"class.mojo::Message"** %8, align 8
  %21 = load i64, i64* %12, align 8
  %22 = getelementptr inbounds %"class.mojo::Message", %"class.mojo::Message"* %20, i64 0, i32 1, i32 2
  %23 = load i8*, i8** %22, align 8
  %24 = getelementptr inbounds i8, i8* %23, i64 %21
  %25 = getelementptr inbounds i8, i8* %24, i64 8
  %26 = bitcast i8* %25 to i32*
  store i32 %19, i32* %26, align 4
  %27 = getelementptr inbounds %"class.mojo::InlinedStructPtr", %"class.mojo::InlinedStructPtr"* %0, i64 0, i32 0, i32 1
  %28 = load i32, i32* %27, align 4
  %29 = load %"class.mojo::Message"*, %"class.mojo::Message"** %8, align 8
  %30 = load i64, i64* %12, align 8
  %31 = getelementptr inbounds %"class.mojo::Message", %"class.mojo::Message"* %29, i64 0, i32 1, i32 2
  %32 = load i8*, i8** %31, align 8
  %33 = getelementptr inbounds i8, i8* %32, i64 %30
  %34 = getelementptr inbounds i8, i8* %33, i64 12
  %35 = bitcast i8* %34 to i32*
  %36 = add i32 %28, 17
  %37 = icmp ult i32 %36, 18
  br i1 %37, label %38, label %42

38:                                               ; preds = %7
  %39 = sext i32 %36 to i64
  %40 = getelementptr inbounds [18 x i32], [18 x i32]* @switch.table._ZN4mojo8internal10SerializerIN5blink5mojom29FileSystemAccessErrorDataViewENS_16InlinedStructPtrINS3_21FileSystemAccessErrorEEEE9SerializeERS7_RNS0_15MessageFragmentINS3_8internal26FileSystemAccessError_DataEEE, i64 0, i64 %39
  %41 = load i32, i32* %40, align 4
  br label %42

42:                                               ; preds = %7, %38
  %43 = phi i32 [ %41, %38 ], [ -1, %7 ]
  store i32 %43, i32* %35, align 4
  %44 = getelementptr inbounds %"class.mojo::InlinedStructPtr", %"class.mojo::InlinedStructPtr"* %0, i64 0, i32 0, i32 2
  %45 = bitcast %"class.mojo::internal::MessageFragment.87"* %3 to i8*
  call void @llvm.lifetime.start.p0i8(i64 16, i8* nonnull %45) #9
  %46 = getelementptr inbounds %"class.mojo::internal::MessageFragment.87", %"class.mojo::internal::MessageFragment.87"* %3, i64 0, i32 1
  %47 = bitcast %"class.mojo::internal::MessageFragment.40"* %1 to i64*
  %48 = load i64, i64* %47, align 8
  %49 = bitcast %"class.mojo::internal::MessageFragment.87"* %3 to i64*
  store i64 %48, i64* %49, align 8
  store i64 -1, i64* %46, align 8
  call void @_ZN4mojo8internal10SerializerINS_14StringDataViewEKNSt3__112basic_stringIcNS3_11char_traitsIcEENS3_9allocatorIcEEEEE9SerializeERSA_RNS0_15MessageFragmentINS0_10Array_DataIcEEEE(%"class.std::__1::basic_string"* dereferenceable(24) %44, %"class.mojo::internal::MessageFragment.87"* nonnull dereferenceable(16) %3) #9
  %50 = load %"class.mojo::Message"*, %"class.mojo::Message"** %8, align 8
  %51 = load i64, i64* %12, align 8
  %52 = getelementptr inbounds %"class.mojo::Message", %"class.mojo::Message"* %50, i64 0, i32 1, i32 2
  %53 = load i8*, i8** %52, align 8
  %54 = getelementptr inbounds i8, i8* %53, i64 %51
  %55 = getelementptr inbounds i8, i8* %54, i64 16
  %56 = load i64, i64* %46, align 8
  %57 = icmp eq i64 %56, -1
  br i1 %57, label %65, label %58

58:                                               ; preds = %42
  %59 = getelementptr inbounds %"class.mojo::internal::MessageFragment.87", %"class.mojo::internal::MessageFragment.87"* %3, i64 0, i32 0
  %60 = load %"class.mojo::Message"*, %"class.mojo::Message"** %59, align 8
  %61 = getelementptr inbounds %"class.mojo::Message", %"class.mojo::Message"* %60, i64 0, i32 1, i32 2
  %62 = load i8*, i8** %61, align 8
  %63 = getelementptr inbounds i8, i8* %62, i64 %56
  %64 = bitcast i8* %63 to %"class.mojo::internal::Array_Data"*
  br label %65

65:                                               ; preds = %42, %58
  %66 = phi %"class.mojo::internal::Array_Data"* [ %64, %58 ], [ null, %42 ]
  %67 = bitcast i8* %55 to i64*
  %68 = icmp eq %"class.mojo::internal::Array_Data"* %66, null
  %69 = ptrtoint %"class.mojo::internal::Array_Data"* %66 to i64
  %70 = ptrtoint i8* %55 to i64
  %71 = sub i64 %69, %70
  %72 = select i1 %68, i64 0, i64 %71
  store i64 %72, i64* %67, align 8
  call void @llvm.lifetime.end.p0i8(i64 16, i8* nonnull %45) #9
  br label %73

73:                                               ; preds = %2, %65
  ret void
}

declare void @_ZN5blink5mojom8internal26FileSystemAccessError_DataC1Ev(%"class.blink::mojom::internal::FileSystemAccessError_Data"*) unnamed_addr #3

; Function Attrs: nounwind ssp uwtable
define linkonce_odr hidden void @_ZN4mojo8internal10SerializerINS_14StringDataViewEKNSt3__112basic_stringIcNS3_11char_traitsIcEENS3_9allocatorIcEEEEE9SerializeERSA_RNS0_15MessageFragmentINS0_10Array_DataIcEEEE(%"class.std::__1::basic_string"* dereferenceable(24), %"class.mojo::internal::MessageFragment.87"* dereferenceable(16)) local_unnamed_addr #1 comdat align 2 {
  %3 = alloca %"class.std::__1::basic_string", align 8
  %4 = bitcast %"class.std::__1::basic_string"* %3 to i8*
  call void @llvm.lifetime.start.p0i8(i64 24, i8* nonnull %4) #9
  %5 = getelementptr inbounds %"class.std::__1::basic_string", %"class.std::__1::basic_string"* %3, i64 0, i32 0, i32 0, i32 0, i32 0, i32 0, i32 0
  %6 = getelementptr inbounds %"class.std::__1::basic_string", %"class.std::__1::basic_string"* %3, i64 0, i32 0, i32 0, i32 0, i32 0, i32 0, i32 1
  %7 = bitcast %"class.std::__1::basic_string"* %0 to %"struct.std::__1::basic_string<char, std::__1::char_traits<char>, std::__1::allocator<char> >::__short"*
  %8 = getelementptr inbounds %"struct.std::__1::basic_string<char, std::__1::char_traits<char>, std::__1::allocator<char> >::__short", %"struct.std::__1::basic_string<char, std::__1::char_traits<char>, std::__1::allocator<char> >::__short"* %7, i64 0, i32 1, i32 0
  %9 = bitcast %"class.std::__1::basic_string"* %3 to i8*
  call void @llvm.memset.p0i8.i64(i8* nonnull align 8 %9, i8 -86, i64 24, i1 false)
  %10 = load i8, i8* %8, align 1
  %11 = icmp slt i8 %10, 0
  br i1 %11, label %14, label %12

12:                                               ; preds = %2
  %13 = bitcast %"class.std::__1::basic_string"* %0 to i8*
  call void @llvm.memcpy.p0i8.p0i8.i64(i8* nonnull align 8 %4, i8* align 8 %13, i64 24, i1 false) #9
  br label %19

14:                                               ; preds = %2
  %15 = getelementptr inbounds %"class.std::__1::basic_string", %"class.std::__1::basic_string"* %0, i64 0, i32 0, i32 0, i32 0, i32 0, i32 0, i32 0
  %16 = load i8*, i8** %15, align 8
  %17 = getelementptr inbounds %"class.std::__1::basic_string", %"class.std::__1::basic_string"* %0, i64 0, i32 0, i32 0, i32 0, i32 0, i32 0, i32 1
  %18 = load i64, i64* %17, align 8
  call void @_ZNSt3__112basic_stringIcNS_11char_traitsIcEENS_9allocatorIcEEE25__init_copy_ctor_externalEPKcm(%"class.std::__1::basic_string"* nonnull %3, i8* %16, i64 %18) #9
  br label %19

19:                                               ; preds = %12, %14
  %20 = bitcast %"class.std::__1::basic_string"* %3 to %"struct.std::__1::basic_string<char, std::__1::char_traits<char>, std::__1::allocator<char> >::__short"*
  %21 = getelementptr inbounds %"struct.std::__1::basic_string<char, std::__1::char_traits<char>, std::__1::allocator<char> >::__short", %"struct.std::__1::basic_string<char, std::__1::char_traits<char>, std::__1::allocator<char> >::__short"* %20, i64 0, i32 1, i32 0
  %22 = load i8, i8* %21, align 1
  %23 = icmp slt i8 %22, 0
  br i1 %23, label %26, label %24

24:                                               ; preds = %19
  %25 = zext i8 %22 to i64
  br label %29

26:                                               ; preds = %19
  %27 = load i64, i64* %6, align 8
  %28 = icmp ugt i64 %27, 4294967287
  br i1 %28, label %48, label %29

29:                                               ; preds = %24, %26
  %30 = phi i64 [ %25, %24 ], [ %27, %26 ]
  %31 = trunc i64 %30 to i32
  %32 = add nuw i32 %31, 8
  %33 = getelementptr inbounds %"class.mojo::internal::MessageFragment.87", %"class.mojo::internal::MessageFragment.87"* %1, i64 0, i32 0
  %34 = load %"class.mojo::Message"*, %"class.mojo::Message"** %33, align 8
  %35 = getelementptr inbounds %"class.mojo::Message", %"class.mojo::Message"* %34, i64 0, i32 1
  %36 = zext i32 %32 to i64
  %37 = call i64 @_ZN4mojo8internal6Buffer8AllocateEm(%"class.mojo::internal::Buffer"* %35, i64 %36) #9
  %38 = getelementptr inbounds %"class.mojo::internal::MessageFragment.87", %"class.mojo::internal::MessageFragment.87"* %1, i64 0, i32 1
  store i64 %37, i64* %38, align 8
  %39 = load %"class.mojo::Message"*, %"class.mojo::Message"** %33, align 8
  %40 = getelementptr inbounds %"class.mojo::Message", %"class.mojo::Message"* %39, i64 0, i32 1, i32 2
  %41 = load i8*, i8** %40, align 8
  %42 = getelementptr inbounds i8, i8* %41, i64 %37
  %43 = bitcast i8* %42 to i32*
  store i32 %32, i32* %43, align 1
  %44 = getelementptr inbounds i8, i8* %42, i64 4
  %45 = bitcast i8* %44 to i32*
  store i32 %31, i32* %45, align 1
  %46 = load i8, i8* %21, align 1
  %47 = load i64, i64* %6, align 8
  br label %48

48:                                               ; preds = %26, %29
  %49 = phi i64 [ %27, %26 ], [ %47, %29 ]
  %50 = phi i8 [ %22, %26 ], [ %46, %29 ]
  %51 = getelementptr inbounds %"class.mojo::internal::MessageFragment.87", %"class.mojo::internal::MessageFragment.87"* %1, i64 0, i32 0
  %52 = load %"class.mojo::Message"*, %"class.mojo::Message"** %51, align 8
  %53 = getelementptr inbounds %"class.mojo::internal::MessageFragment.87", %"class.mojo::internal::MessageFragment.87"* %1, i64 0, i32 1
  %54 = load i64, i64* %53, align 8
  %55 = getelementptr inbounds %"class.mojo::Message", %"class.mojo::Message"* %52, i64 0, i32 1, i32 2
  %56 = load i8*, i8** %55, align 8
  %57 = getelementptr inbounds i8, i8* %56, i64 %54
  %58 = getelementptr inbounds i8, i8* %57, i64 8
  %59 = icmp slt i8 %50, 0
  %60 = load i8*, i8** %5, align 8
  %61 = zext i8 %50 to i64
  %62 = select i1 %59, i8* %60, i8* %4
  %63 = select i1 %59, i64 %49, i64 %61
  call void @llvm.memcpy.p0i8.p0i8.i64(i8* align 1 %58, i8* align 1 %62, i64 %63, i1 false)
  %64 = load i8, i8* %21, align 1
  %65 = icmp slt i8 %64, 0
  br i1 %65, label %66, label %68

66:                                               ; preds = %48
  %67 = load i8*, i8** %5, align 8
  call void @_ZdlPv(i8* %67) #10
  br label %68

68:                                               ; preds = %66, %48
  call void @llvm.lifetime.end.p0i8(i64 24, i8* nonnull %4) #9
  ret void
}

declare void @_ZN5blink5mojom8internal55FileSystemAccessFileWriter_Truncate_ResponseParams_DataC1Ev(%"class.blink::mojom::internal::FileSystemAccessFileWriter_Truncate_ResponseParams_Data"*) unnamed_addr #3

declare void @_ZN5blink5mojom8internal52FileSystemAccessFileWriter_Close_ResponseParams_DataC1Ev(%"class.blink::mojom::internal::FileSystemAccessFileWriter_Close_ResponseParams_Data"*) unnamed_addr #3

declare void @_ZN5blink5mojom8internal52FileSystemAccessFileWriter_Abort_ResponseParams_DataC1Ev(%"class.blink::mojom::internal::FileSystemAccessFileWriter_Abort_ResponseParams_Data"*) unnamed_addr #3

attributes #0 = { nofree norecurse nounwind ssp uwtable writeonly "correctly-rounded-divide-sqrt-fp-math"="false" "disable-tail-calls"="false" "less-precise-fpmad"="false" "min-legal-vector-width"="0" "no-frame-pointer-elim"="false" "no-frame-pointer-elim-non-leaf" "no-infs-fp-math"="false" "no-jump-tables"="false" "no-nans-fp-math"="false" "no-signed-zeros-fp-math"="false" "no-trapping-math"="false" "null-pointer-is-valid"="true" "stack-protector-buffer-size"="4" "target-cpu"="x86-64" "target-features"="+cx8,+fxsr,+mmx,+sse,+sse2,+sse3,+x87" "unsafe-fp-math"="false" "use-soft-float"="false" }
attributes #1 = { nounwind ssp uwtable "correctly-rounded-divide-sqrt-fp-math"="false" "disable-tail-calls"="false" "less-precise-fpmad"="false" "min-legal-vector-width"="0" "no-frame-pointer-elim"="false" "no-frame-pointer-elim-non-leaf" "no-infs-fp-math"="false" "no-jump-tables"="false" "no-nans-fp-math"="false" "no-signed-zeros-fp-math"="false" "no-trapping-math"="false" "null-pointer-is-valid"="true" "stack-protector-buffer-size"="4" "target-cpu"="x86-64" "target-features"="+cx8,+fxsr,+mmx,+sse,+sse2,+sse3,+x87" "unsafe-fp-math"="false" "use-soft-float"="false" }
attributes #2 = { argmemonly nounwind }
attributes #3 = { "correctly-rounded-divide-sqrt-fp-math"="false" "disable-tail-calls"="false" "less-precise-fpmad"="false" "no-frame-pointer-elim"="false" "no-frame-pointer-elim-non-leaf" "no-infs-fp-math"="false" "no-nans-fp-math"="false" "no-signed-zeros-fp-math"="false" "no-trapping-math"="false" "null-pointer-is-valid"="true" "stack-protector-buffer-size"="4" "target-cpu"="x86-64" "target-features"="+cx8,+fxsr,+mmx,+sse,+sse2,+sse3,+x87" "unsafe-fp-math"="false" "use-soft-float"="false" }
attributes #4 = { nobuiltin nofree "correctly-rounded-divide-sqrt-fp-math"="false" "disable-tail-calls"="false" "less-precise-fpmad"="false" "no-frame-pointer-elim"="false" "no-frame-pointer-elim-non-leaf" "no-infs-fp-math"="false" "no-nans-fp-math"="false" "no-signed-zeros-fp-math"="false" "no-trapping-math"="false" "null-pointer-is-valid"="true" "stack-protector-buffer-size"="4" "target-cpu"="x86-64" "target-features"="+cx8,+fxsr,+mmx,+sse,+sse2,+sse3,+x87" "unsafe-fp-math"="false" "use-soft-float"="false" }
attributes #5 = { nounwind "correctly-rounded-divide-sqrt-fp-math"="false" "disable-tail-calls"="false" "less-precise-fpmad"="false" "no-frame-pointer-elim"="false" "no-frame-pointer-elim-non-leaf" "no-infs-fp-math"="false" "no-nans-fp-math"="false" "no-signed-zeros-fp-math"="false" "no-trapping-math"="false" "null-pointer-is-valid"="true" "stack-protector-buffer-size"="4" "target-cpu"="x86-64" "target-features"="+cx8,+fxsr,+mmx,+sse,+sse2,+sse3,+x87" "unsafe-fp-math"="false" "use-soft-float"="false" }
attributes #6 = { norecurse nounwind readonly ssp uwtable "correctly-rounded-divide-sqrt-fp-math"="false" "disable-tail-calls"="false" "less-precise-fpmad"="false" "min-legal-vector-width"="0" "no-frame-pointer-elim"="false" "no-frame-pointer-elim-non-leaf" "no-infs-fp-math"="false" "no-jump-tables"="false" "no-nans-fp-math"="false" "no-signed-zeros-fp-math"="false" "no-trapping-math"="false" "null-pointer-is-valid"="true" "stack-protector-buffer-size"="4" "target-cpu"="x86-64" "target-features"="+cx8,+fxsr,+mmx,+sse,+sse2,+sse3,+x87" "unsafe-fp-math"="false" "use-soft-float"="false" }
attributes #7 = { inlinehint nounwind ssp uwtable "correctly-rounded-divide-sqrt-fp-math"="false" "disable-tail-calls"="false" "less-precise-fpmad"="false" "min-legal-vector-width"="0" "no-frame-pointer-elim"="false" "no-frame-pointer-elim-non-leaf" "no-infs-fp-math"="false" "no-jump-tables"="false" "no-nans-fp-math"="false" "no-signed-zeros-fp-math"="false" "no-trapping-math"="false" "null-pointer-is-valid"="true" "stack-protector-buffer-size"="4" "target-cpu"="x86-64" "target-features"="+cx8,+fxsr,+mmx,+sse,+sse2,+sse3,+x87" "unsafe-fp-math"="false" "use-soft-float"="false" }
attributes #8 = { nobuiltin nounwind "correctly-rounded-divide-sqrt-fp-math"="false" "disable-tail-calls"="false" "less-precise-fpmad"="false" "no-frame-pointer-elim"="false" "no-frame-pointer-elim-non-leaf" "no-infs-fp-math"="false" "no-nans-fp-math"="false" "no-signed-zeros-fp-math"="false" "no-trapping-math"="false" "null-pointer-is-valid"="true" "stack-protector-buffer-size"="4" "target-cpu"="x86-64" "target-features"="+cx8,+fxsr,+mmx,+sse,+sse2,+sse3,+x87" "unsafe-fp-math"="false" "use-soft-float"="false" }
attributes #9 = { nounwind }
attributes #10 = { builtin nounwind }

!llvm.module.flags = !{!0, !1}

!0 = !{i32 1, !"wchar_size", i32 4}
!1 = !{i32 7, !"PIC Level", i32 2}
!2 = !{!3}
!3 = distinct !{!3, !4, !"_ZN4mojo16ScopedHandleBaseINS_22DataPipeConsumerHandleEE7releaseEv: argument 0"}
!4 = distinct !{!4, !"_ZN4mojo16ScopedHandleBaseINS_22DataPipeConsumerHandleEE7releaseEv"}
!5 = !{!6}
!6 = distinct !{!6, !7, !"_ZN4mojo16ScopedHandleBaseINS_6HandleEE4FromINS_22DataPipeConsumerHandleEEES2_NS0_IT_EE: argument 0"}
!7 = distinct !{!7, !"_ZN4mojo16ScopedHandleBaseINS_6HandleEE4FromINS_22DataPipeConsumerHandleEEES2_NS0_IT_EE"}
!8 = !{i8 0, i8 2}
!9 = !{!10}
!10 = distinct !{!10, !11, !"_ZN5blink5mojom47FileSystemAccessFileWriter_Write_ParamsDataView10TakeStreamEv: argument 0"}
!11 = distinct !{!11, !"_ZN5blink5mojom47FileSystemAccessFileWriter_Write_ParamsDataView10TakeStreamEv"}
!12 = !{!13, !10}
!13 = distinct !{!13, !14, !"_ZN4mojo8internal19DeserializeHandleAsINS_22DataPipeConsumerHandleEEENS_16ScopedHandleBaseIT_EERKNS0_11Handle_DataERNS_7MessageE: argument 0"}
!14 = distinct !{!14, !"_ZN4mojo8internal19DeserializeHandleAsINS_22DataPipeConsumerHandleEEENS_16ScopedHandleBaseIT_EERKNS0_11Handle_DataERNS_7MessageE"}
!15 = !{!16, !18, !13, !10}
!16 = distinct !{!16, !17, !"_ZN4mojo16ScopedHandleBaseINS_6HandleEE7releaseEv: argument 0"}
!17 = distinct !{!17, !"_ZN4mojo16ScopedHandleBaseINS_6HandleEE7releaseEv"}
!18 = distinct !{!18, !19, !"_ZN4mojo16ScopedHandleBaseINS_22DataPipeConsumerHandleEE4FromINS_6HandleEEES2_NS0_IT_EE: argument 0"}
!19 = distinct !{!19, !"_ZN4mojo16ScopedHandleBaseINS_22DataPipeConsumerHandleEE4FromINS_6HandleEEES2_NS0_IT_EE"}
!20 = !{!21}
!21 = distinct !{!21, !22, !"_ZN5blink5mojom49FileSystemAccessFileWriter_Write_ProxyToResponder14CreateCallbackEmbPNSt3__110unique_ptrIN4mojo25MessageReceiverWithStatusENS2_14default_deleteIS5_EEEE: argument 0"}
!22 = distinct !{!22, !"_ZN5blink5mojom49FileSystemAccessFileWriter_Write_ProxyToResponder14CreateCallbackEmbPNSt3__110unique_ptrIN4mojo25MessageReceiverWithStatusENS2_14default_deleteIS5_EEEE"}
!23 = !{!24, !26, !21}
!24 = distinct !{!24, !25, !"_ZN4base8internal8BindImplINS_12OnceCallbackEMN5blink5mojom49FileSystemAccessFileWriter_Write_ProxyToResponderEFvN4mojo16InlinedStructPtrINS4_21FileSystemAccessErrorEEEmEJNSt3__110unique_ptrIS5_NSC_14default_deleteIS5_EEEEEEEDcOT0_DpOT1_: argument 0"}
!25 = distinct !{!25, !"_ZN4base8internal8BindImplINS_12OnceCallbackEMN5blink5mojom49FileSystemAccessFileWriter_Write_ProxyToResponderEFvN4mojo16InlinedStructPtrINS4_21FileSystemAccessErrorEEEmEJNSt3__110unique_ptrIS5_NSC_14default_deleteIS5_EEEEEEEDcOT0_DpOT1_"}
!26 = distinct !{!26, !27, !"_ZN4base8BindOnceIMN5blink5mojom49FileSystemAccessFileWriter_Write_ProxyToResponderEFvN4mojo16InlinedStructPtrINS2_21FileSystemAccessErrorEEEmEJNSt3__110unique_ptrIS3_NSA_14default_deleteIS3_EEEEEEENS_12OnceCallbackINS_8internal14BindTypeHelperIT_JDpT0_EE14UnboundRunTypeEEEOSI_DpOSJ_: argument 0"}
!27 = distinct !{!27, !"_ZN4base8BindOnceIMN5blink5mojom49FileSystemAccessFileWriter_Write_ProxyToResponderEFvN4mojo16InlinedStructPtrINS2_21FileSystemAccessErrorEEEmEJNSt3__110unique_ptrIS3_NSA_14default_deleteIS3_EEEEEEENS_12OnceCallbackINS_8internal14BindTypeHelperIT_JDpT0_EE14UnboundRunTypeEEEOSI_DpOSJ_"}
!28 = !{!29}
!29 = distinct !{!29, !30, !"_ZN4mojo16ScopedHandleBaseINS_22DataPipeConsumerHandleEE7releaseEv: argument 0"}
!30 = distinct !{!30, !"_ZN4mojo16ScopedHandleBaseINS_22DataPipeConsumerHandleEE7releaseEv"}
!31 = !{!32}
!32 = distinct !{!32, !33, !"_ZN5blink5mojom52FileSystemAccessFileWriter_Truncate_ProxyToResponder14CreateCallbackEmbPNSt3__110unique_ptrIN4mojo25MessageReceiverWithStatusENS2_14default_deleteIS5_EEEE: argument 0"}
!33 = distinct !{!33, !"_ZN5blink5mojom52FileSystemAccessFileWriter_Truncate_ProxyToResponder14CreateCallbackEmbPNSt3__110unique_ptrIN4mojo25MessageReceiverWithStatusENS2_14default_deleteIS5_EEEE"}
!34 = !{!35, !37, !32}
!35 = distinct !{!35, !36, !"_ZN4base8internal8BindImplINS_12OnceCallbackEMN5blink5mojom52FileSystemAccessFileWriter_Truncate_ProxyToResponderEFvN4mojo16InlinedStructPtrINS4_21FileSystemAccessErrorEEEEJNSt3__110unique_ptrIS5_NSC_14default_deleteIS5_EEEEEEEDcOT0_DpOT1_: argument 0"}
!36 = distinct !{!36, !"_ZN4base8internal8BindImplINS_12OnceCallbackEMN5blink5mojom52FileSystemAccessFileWriter_Truncate_ProxyToResponderEFvN4mojo16InlinedStructPtrINS4_21FileSystemAccessErrorEEEEJNSt3__110unique_ptrIS5_NSC_14default_deleteIS5_EEEEEEEDcOT0_DpOT1_"}
!37 = distinct !{!37, !38, !"_ZN4base8BindOnceIMN5blink5mojom52FileSystemAccessFileWriter_Truncate_ProxyToResponderEFvN4mojo16InlinedStructPtrINS2_21FileSystemAccessErrorEEEEJNSt3__110unique_ptrIS3_NSA_14default_deleteIS3_EEEEEEENS_12OnceCallbackINS_8internal14BindTypeHelperIT_JDpT0_EE14UnboundRunTypeEEEOSI_DpOSJ_: argument 0"}
!38 = distinct !{!38, !"_ZN4base8BindOnceIMN5blink5mojom52FileSystemAccessFileWriter_Truncate_ProxyToResponderEFvN4mojo16InlinedStructPtrINS2_21FileSystemAccessErrorEEEEJNSt3__110unique_ptrIS3_NSA_14default_deleteIS3_EEEEEEENS_12OnceCallbackINS_8internal14BindTypeHelperIT_JDpT0_EE14UnboundRunTypeEEEOSI_DpOSJ_"}
!39 = !{!40}
!40 = distinct !{!40, !41, !"_ZN5blink5mojom49FileSystemAccessFileWriter_Close_ProxyToResponder14CreateCallbackEmbPNSt3__110unique_ptrIN4mojo25MessageReceiverWithStatusENS2_14default_deleteIS5_EEEE: argument 0"}
!41 = distinct !{!41, !"_ZN5blink5mojom49FileSystemAccessFileWriter_Close_ProxyToResponder14CreateCallbackEmbPNSt3__110unique_ptrIN4mojo25MessageReceiverWithStatusENS2_14default_deleteIS5_EEEE"}
!42 = !{!43, !45, !40}
!43 = distinct !{!43, !44, !"_ZN4base8internal8BindImplINS_12OnceCallbackEMN5blink5mojom49FileSystemAccessFileWriter_Close_ProxyToResponderEFvN4mojo16InlinedStructPtrINS4_21FileSystemAccessErrorEEEEJNSt3__110unique_ptrIS5_NSC_14default_deleteIS5_EEEEEEEDcOT0_DpOT1_: argument 0"}
!44 = distinct !{!44, !"_ZN4base8internal8BindImplINS_12OnceCallbackEMN5blink5mojom49FileSystemAccessFileWriter_Close_ProxyToResponderEFvN4mojo16InlinedStructPtrINS4_21FileSystemAccessErrorEEEEJNSt3__110unique_ptrIS5_NSC_14default_deleteIS5_EEEEEEEDcOT0_DpOT1_"}
!45 = distinct !{!45, !46, !"_ZN4base8BindOnceIMN5blink5mojom49FileSystemAccessFileWriter_Close_ProxyToResponderEFvN4mojo16InlinedStructPtrINS2_21FileSystemAccessErrorEEEEJNSt3__110unique_ptrIS3_NSA_14default_deleteIS3_EEEEEEENS_12OnceCallbackINS_8internal14BindTypeHelperIT_JDpT0_EE14UnboundRunTypeEEEOSI_DpOSJ_: argument 0"}
!46 = distinct !{!46, !"_ZN4base8BindOnceIMN5blink5mojom49FileSystemAccessFileWriter_Close_ProxyToResponderEFvN4mojo16InlinedStructPtrINS2_21FileSystemAccessErrorEEEEJNSt3__110unique_ptrIS3_NSA_14default_deleteIS3_EEEEEEENS_12OnceCallbackINS_8internal14BindTypeHelperIT_JDpT0_EE14UnboundRunTypeEEEOSI_DpOSJ_"}
!47 = !{!48}
!48 = distinct !{!48, !49, !"_ZN5blink5mojom49FileSystemAccessFileWriter_Abort_ProxyToResponder14CreateCallbackEmbPNSt3__110unique_ptrIN4mojo25MessageReceiverWithStatusENS2_14default_deleteIS5_EEEE: argument 0"}
!49 = distinct !{!49, !"_ZN5blink5mojom49FileSystemAccessFileWriter_Abort_ProxyToResponder14CreateCallbackEmbPNSt3__110unique_ptrIN4mojo25MessageReceiverWithStatusENS2_14default_deleteIS5_EEEE"}
!50 = !{!51, !53, !48}
!51 = distinct !{!51, !52, !"_ZN4base8internal8BindImplINS_12OnceCallbackEMN5blink5mojom49FileSystemAccessFileWriter_Abort_ProxyToResponderEFvN4mojo16InlinedStructPtrINS4_21FileSystemAccessErrorEEEEJNSt3__110unique_ptrIS5_NSC_14default_deleteIS5_EEEEEEEDcOT0_DpOT1_: argument 0"}
!52 = distinct !{!52, !"_ZN4base8internal8BindImplINS_12OnceCallbackEMN5blink5mojom49FileSystemAccessFileWriter_Abort_ProxyToResponderEFvN4mojo16InlinedStructPtrINS4_21FileSystemAccessErrorEEEEJNSt3__110unique_ptrIS5_NSC_14default_deleteIS5_EEEEEEEDcOT0_DpOT1_"}
!53 = distinct !{!53, !54, !"_ZN4base8BindOnceIMN5blink5mojom49FileSystemAccessFileWriter_Abort_ProxyToResponderEFvN4mojo16InlinedStructPtrINS2_21FileSystemAccessErrorEEEEJNSt3__110unique_ptrIS3_NSA_14default_deleteIS3_EEEEEEENS_12OnceCallbackINS_8internal14BindTypeHelperIT_JDpT0_EE14UnboundRunTypeEEEOSI_DpOSJ_: argument 0"}
!54 = distinct !{!54, !"_ZN4base8BindOnceIMN5blink5mojom49FileSystemAccessFileWriter_Abort_ProxyToResponderEFvN4mojo16InlinedStructPtrINS2_21FileSystemAccessErrorEEEEJNSt3__110unique_ptrIS3_NSA_14default_deleteIS3_EEEEEEENS_12OnceCallbackINS_8internal14BindTypeHelperIT_JDpT0_EE14UnboundRunTypeEEEOSI_DpOSJ_"}
