; ModuleID = 'gen/third_party/blink/public/mojom/filesystem/file_system.mojom-blink.cc'
source_filename = "gen/third_party/blink/public/mojom/filesystem/file_system.mojom-blink.cc"
target datalayout = "e-m:e-i64:64-f80:128-n8:16:32:64-S128"
target triple = "x86_64-unknown-linux-gnu"

module asm ".symver exp, exp@GLIBC_2.2.5"
module asm ".symver exp2, exp2@GLIBC_2.2.5"
module asm ".symver exp2f, exp2f@GLIBC_2.2.5"
module asm ".symver expf, expf@GLIBC_2.2.5"
module asm ".symver lgamma, lgamma@GLIBC_2.2.5"
module asm ".symver lgammaf, lgammaf@GLIBC_2.2.5"
module asm ".symver lgammal, lgammal@GLIBC_2.2.5"
module asm ".symver log, log@GLIBC_2.2.5"
module asm ".symver log2, log2@GLIBC_2.2.5"
module asm ".symver log2f, log2f@GLIBC_2.2.5"
module asm ".symver logf, logf@GLIBC_2.2.5"
module asm ".symver pow, pow@GLIBC_2.2.5"
module asm ".symver powf, powf@GLIBC_2.2.5"

%"struct.mojo::internal::GenericValidationInfo" = type { i1 (i8*, %"class.mojo::internal::ValidationContext"*)*, i1 (i8*, %"class.mojo::internal::ValidationContext"*)* }
%"class.mojo::internal::ValidationContext" = type <{ %"class.mojo::Message"*, i8*, i32, [4 x i8], i64, i64, i32, i32, i32, i32, i32, [4 x i8] }>
%"class.mojo::Message" = type { %"class.mojo::ScopedHandleBase", %"class.mojo::internal::Buffer", %"class.std::__1::vector", %"class.std::__1::vector.16", %"class.mojo::ConnectionGroup::Ref"*, i8, i8, i8* }
%"class.mojo::ScopedHandleBase" = type { %"class.mojo::MessageHandle" }
%"class.mojo::MessageHandle" = type { i64 }
%"class.mojo::internal::Buffer" = type { %"class.mojo::MessageHandle", i64, i8*, i64, i64 }
%"class.std::__1::vector" = type { %"class.std::__1::__vector_base" }
%"class.std::__1::__vector_base" = type { %"class.mojo::ScopedHandleBase.10"*, %"class.mojo::ScopedHandleBase.10"*, %"class.std::__1::__compressed_pair.11" }
%"class.mojo::ScopedHandleBase.10" = type { %"class.mojo::Handle" }
%"class.mojo::Handle" = type { i32 }
%"class.std::__1::__compressed_pair.11" = type { %"struct.std::__1::__compressed_pair_elem.12" }
%"struct.std::__1::__compressed_pair_elem.12" = type { %"class.mojo::ScopedHandleBase.10"* }
%"class.std::__1::vector.16" = type { %"class.std::__1::__vector_base.17" }
%"class.std::__1::__vector_base.17" = type { %"class.mojo::ScopedInterfaceEndpointHandle"*, %"class.mojo::ScopedInterfaceEndpointHandle"*, %"class.std::__1::__compressed_pair.19" }
%"class.mojo::ScopedInterfaceEndpointHandle" = type { %class.scoped_refptr.18 }
%class.scoped_refptr.18 = type { %"class.mojo::ScopedInterfaceEndpointHandle::State"* }
%"class.mojo::ScopedInterfaceEndpointHandle::State" = type opaque
%"class.std::__1::__compressed_pair.19" = type { %"struct.std::__1::__compressed_pair_elem.20" }
%"struct.std::__1::__compressed_pair_elem.20" = type { %"class.mojo::ScopedInterfaceEndpointHandle"* }
%"class.mojo::ConnectionGroup::Ref" = type { i32, %class.scoped_refptr.24 }
%class.scoped_refptr.24 = type { %"class.mojo::ConnectionGroup"* }
%"class.mojo::ConnectionGroup" = type <{ i32 (...)**, %"class.base::RefCountedThreadSafe", [4 x i8], %"class.base::RepeatingCallback", %class.scoped_refptr.32, %"class.mojo::ConnectionGroup::Ref", %"struct.std::__1::atomic", [4 x i8] }>
%"class.base::RefCountedThreadSafe" = type { %"class.base::subtle::RefCountedThreadSafeBase" }
%"class.base::subtle::RefCountedThreadSafeBase" = type { %"class.base::AtomicRefCount" }
%"class.base::AtomicRefCount" = type { %"struct.std::__1::atomic.25" }
%"struct.std::__1::atomic.25" = type { %"struct.std::__1::__atomic_base.26" }
%"struct.std::__1::__atomic_base.26" = type { %"struct.std::__1::__atomic_base.27" }
%"struct.std::__1::__atomic_base.27" = type { %"struct.std::__1::__cxx_atomic_impl.28" }
%"struct.std::__1::__cxx_atomic_impl.28" = type { %"struct.std::__1::__cxx_atomic_base_impl.29" }
%"struct.std::__1::__cxx_atomic_base_impl.29" = type { i32 }
%"class.base::RepeatingCallback" = type { %"class.base::internal::CallbackBaseCopyable" }
%"class.base::internal::CallbackBaseCopyable" = type { %"class.base::internal::CallbackBase" }
%"class.base::internal::CallbackBase" = type { %class.scoped_refptr.30 }
%class.scoped_refptr.30 = type { %"class.base::internal::BindStateBase"* }
%"class.base::internal::BindStateBase" = type { %"class.base::RefCountedThreadSafe.31", void ()*, void (%"class.base::internal::BindStateBase"*)*, i1 (%"class.base::internal::BindStateBase"*, i32)* }
%"class.base::RefCountedThreadSafe.31" = type { %"class.base::subtle::RefCountedThreadSafeBase" }
%class.scoped_refptr.32 = type { %"class.base::SequencedTaskRunner"* }
%"class.base::SequencedTaskRunner" = type { %"class.base::TaskRunner.base", [4 x i8] }
%"class.base::TaskRunner.base" = type <{ i32 (...)**, %"class.base::RefCountedThreadSafe.33" }>
%"class.base::RefCountedThreadSafe.33" = type { %"class.base::subtle::RefCountedThreadSafeBase" }
%"struct.std::__1::atomic" = type { %"struct.std::__1::__atomic_base" }
%"struct.std::__1::__atomic_base" = type { %"struct.std::__1::__atomic_base.0" }
%"struct.std::__1::__atomic_base.0" = type { %"struct.std::__1::__cxx_atomic_impl" }
%"struct.std::__1::__cxx_atomic_impl" = type { %"struct.std::__1::__cxx_atomic_base_impl" }
%"struct.std::__1::__cxx_atomic_base_impl" = type { i32 }
%"class.WTF::String" = type { %class.scoped_refptr }
%class.scoped_refptr = type { %"class.WTF::StringImpl"* }
%"class.WTF::StringImpl" = type { i32, i32, %"struct.std::__1::atomic" }
%"class.blink::mojom::blink::FileSystemInfo" = type <{ %"class.WTF::String", %"class.blink::KURL", i32, [4 x i8] }>
%"class.blink::KURL" = type { i8, i8, %"class.WTF::String", %"struct.url::Parsed", %"class.WTF::String", %"class.std::__1::unique_ptr" }
%"struct.url::Parsed" = type { %"struct.url::Component", %"struct.url::Component", %"struct.url::Component", %"struct.url::Component", %"struct.url::Component", %"struct.url::Component", %"struct.url::Component", %"struct.url::Component", i8, %"struct.url::Parsed"* }
%"struct.url::Component" = type { i32, i32 }
%"class.std::__1::unique_ptr" = type { %"class.std::__1::__compressed_pair" }
%"class.std::__1::__compressed_pair" = type { %"struct.std::__1::__compressed_pair_elem" }
%"struct.std::__1::__compressed_pair_elem" = type { %"class.blink::KURL"* }
%"class.blink::mojom::blink::FileSystemCancellableOperationProxy" = type { %"class.blink::mojom::blink::FileSystemCancellableOperation", %"class.mojo::MessageReceiverWithResponder"* }
%"class.blink::mojom::blink::FileSystemCancellableOperation" = type { i32 (...)** }
%"class.mojo::MessageReceiverWithResponder" = type { %"class.mojo::MessageReceiver" }
%"class.mojo::MessageReceiver" = type { i32 (...)** }
%"class.blink::mojom::blink::FileSystemOperationListenerProxy" = type { %"class.blink::mojom::blink::FileSystemOperationListener", %"class.mojo::MessageReceiverWithResponder"* }
%"class.blink::mojom::blink::FileSystemOperationListener" = type { i32 (...)** }
%"class.blink::mojom::blink::ReceivedSnapshotListenerProxy" = type { %"class.blink::mojom::blink::ReceivedSnapshotListener", %"class.mojo::MessageReceiverWithResponder"* }
%"class.blink::mojom::blink::ReceivedSnapshotListener" = type { i32 (...)** }
%"class.blink::mojom::blink::FileSystemManagerProxy" = type { %"class.blink::mojom::blink::FileSystemManager", %"class.mojo::MessageReceiverWithResponder"* }
%"class.blink::mojom::blink::FileSystemManager" = type { i32 (...)** }
%"class.perfetto::TracedValue" = type <{ %"class.perfetto::protos::pbzero::DebugAnnotation"*, %"class.perfetto::internal::CheckedScope", [7 x i8] }>
%"class.perfetto::protos::pbzero::DebugAnnotation" = type { %"class.protozero::Message.base", [7 x i8] }
%"class.protozero::Message.base" = type <{ %"class.protozero::ScatteredStreamWriter"*, %"class.protozero::MessageArena"*, %"class.protozero::Message"*, i8*, i32, i32, i8 }>
%"class.protozero::ScatteredStreamWriter" = type { %"class.protozero::ScatteredStreamWriter::Delegate"*, %"struct.protozero::ContiguousMemoryRange", i8*, i64 }
%"class.protozero::ScatteredStreamWriter::Delegate" = type { i32 (...)** }
%"struct.protozero::ContiguousMemoryRange" = type { i8*, i8* }
%"class.protozero::MessageArena" = type { %"class.std::__1::list" }
%"class.std::__1::list" = type { %"class.std::__1::__list_imp" }
%"class.std::__1::__list_imp" = type { %"struct.std::__1::__list_node_base", %"class.std::__1::__compressed_pair.2" }
%"struct.std::__1::__list_node_base" = type { %"struct.std::__1::__list_node_base"*, %"struct.std::__1::__list_node_base"* }
%"class.std::__1::__compressed_pair.2" = type { %"struct.std::__1::__compressed_pair_elem.3" }
%"struct.std::__1::__compressed_pair_elem.3" = type { i64 }
%"class.protozero::Message" = type <{ %"class.protozero::ScatteredStreamWriter"*, %"class.protozero::MessageArena"*, %"class.protozero::Message"*, i8*, i32, i32, i8, [7 x i8] }>
%"class.perfetto::internal::CheckedScope" = type { i8 }
%"class.perfetto::TracedDictionary" = type <{ %"class.protozero::Message"*, i32, %"class.perfetto::internal::CheckedScope", [3 x i8] }>
%"class.base::OnceCallback" = type { %"class.base::internal::CallbackBase" }
%"class.blink::mojom::internal::FileSystemCancellableOperation_Cancel_Params_Data" = type { %"struct.mojo::internal::StructHeader" }
%"struct.mojo::internal::StructHeader" = type { i32, i32 }
%"class.blink::mojom::blink::FileSystemCancellableOperation_Cancel_ForwardToCallback" = type { %"class.mojo::MessageReceiver", %"class.base::OnceCallback" }
%"class.blink::mojom::blink::FileSystemCancellableOperation_Cancel_ProxyToResponder" = type { i64, i8, %"class.std::__1::unique_ptr.40" }
%"class.std::__1::unique_ptr.40" = type { %"class.std::__1::__compressed_pair.41" }
%"class.std::__1::__compressed_pair.41" = type { %"struct.std::__1::__compressed_pair_elem.42" }
%"struct.std::__1::__compressed_pair_elem.42" = type { %"class.mojo::MessageReceiverWithStatus"* }
%"class.mojo::MessageReceiverWithStatus" = type { %"class.mojo::MessageReceiver" }
%"class.blink::mojom::internal::FileSystemCancellableOperation_Cancel_ResponseParams_Data" = type { %"struct.mojo::internal::StructHeader", i32, [4 x i8] }
%"struct.mojo::internal::MessageHeaderV1" = type { %"struct.mojo::internal::MessageHeader", i64 }
%"struct.mojo::internal::MessageHeader" = type { %"struct.mojo::internal::StructHeader", i32, i32, i32, i32 }
%"class.base::TaskAnnotator::ScopedSetIpcHash" = type { %"class.base::TaskAnnotator::ScopedSetIpcHash"*, i32, i8* }
%"class.blink::mojom::blink::FileSystemCancellableOperationRequestValidator" = type { %"class.mojo::MessageReceiver" }
%"class.blink::mojom::blink::FileSystemCancellableOperationResponseValidator" = type { %"class.mojo::MessageReceiver" }
%"class.WTF::Vector" = type { %"class.WTF::VectorBuffer" }
%"class.WTF::VectorBuffer" = type { %"class.WTF::VectorBufferBase" }
%"class.WTF::VectorBufferBase" = type { %"class.mojo::StructPtr"*, i32, i32 }
%"class.mojo::StructPtr" = type { %"class.std::__1::unique_ptr.47" }
%"class.std::__1::unique_ptr.47" = type { %"class.std::__1::__compressed_pair.48" }
%"class.std::__1::__compressed_pair.48" = type { %"struct.std::__1::__compressed_pair_elem.49" }
%"struct.std::__1::__compressed_pair_elem.49" = type { %"class.filesystem::mojom::blink::DirectoryEntry"* }
%"class.filesystem::mojom::blink::DirectoryEntry" = type <{ %"class.base::FilePath", i32, [4 x i8] }>
%"class.base::FilePath" = type { %"class.std::__1::basic_string" }
%"class.std::__1::basic_string" = type { %"class.std::__1::__compressed_pair.5" }
%"class.std::__1::__compressed_pair.5" = type { %"struct.std::__1::__compressed_pair_elem.6" }
%"struct.std::__1::__compressed_pair_elem.6" = type { %"struct.std::__1::basic_string<char, std::__1::char_traits<char>, std::__1::allocator<char> >::__rep" }
%"struct.std::__1::basic_string<char, std::__1::char_traits<char>, std::__1::allocator<char> >::__rep" = type { %union.anon }
%union.anon = type { %"struct.std::__1::basic_string<char, std::__1::char_traits<char>, std::__1::allocator<char> >::__long" }
%"struct.std::__1::basic_string<char, std::__1::char_traits<char>, std::__1::allocator<char> >::__long" = type { i8*, i64, i64 }
%"class.mojo::internal::MessageFragment.288" = type { %"class.mojo::Message"*, i64 }
%"class.mojo::internal::ContainerValidateParams" = type { i32, i8, %"class.mojo::internal::ContainerValidateParams"*, %"class.mojo::internal::ContainerValidateParams"*, i1 (i32, %"class.mojo::internal::ValidationContext"*)* }
%"class.blink::mojom::internal::FileSystemOperationListener_ResultsRetrieved_Params_Data" = type { %"struct.mojo::internal::StructHeader", %"struct.mojo::internal::Pointer", i8, [7 x i8] }
%"struct.mojo::internal::Pointer" = type { i64 }
%"class.mojo::internal::Array_Data" = type { %"struct.mojo::internal::ArrayHeader" }
%"struct.mojo::internal::ArrayHeader" = type { i32, i32 }
%"class.filesystem::mojom::internal::DirectoryEntry_Data" = type { %"struct.mojo::internal::StructHeader", %"struct.mojo::internal::Pointer.102", i32, [4 x i8] }
%"struct.mojo::internal::Pointer.102" = type { i64 }
%"class.blink::mojom::internal::FileSystemOperationListener_DidWrite_Params_Data" = type { %"struct.mojo::internal::StructHeader", i64, i8, [7 x i8] }
%"class.blink::mojom::internal::FileSystemOperationListener_ErrorOccurred_Params_Data" = type { %"struct.mojo::internal::StructHeader", i32, [4 x i8] }
%"class.blink::mojom::blink::FileSystemOperationListenerRequestValidator" = type { %"class.mojo::MessageReceiver" }
%"class.blink::mojom::internal::ReceivedSnapshotListener_DidReceiveSnapshotFile_Params_Data" = type { %"struct.mojo::internal::StructHeader" }
%"class.blink::mojom::blink::ReceivedSnapshotListenerRequestValidator" = type { %"class.mojo::MessageReceiver" }
%class.scoped_refptr.58 = type { %"class.blink::SecurityOrigin"* }
%"class.blink::SecurityOrigin" = type { %"class.WTF::RefCounted", %"class.WTF::String", %"class.WTF::String", %"class.WTF::String", i16, %"class.absl::optional", i8, i8, i8, i8, i8, i8, %"class.base::UnguessableToken", %class.scoped_refptr.58 }
%"class.WTF::RefCounted" = type { %"class.base::RefCounted" }
%"class.base::RefCounted" = type { %"class.base::subtle::RefCountedBase" }
%"class.base::subtle::RefCountedBase" = type { i32 }
%"class.absl::optional" = type { %"class.absl::optional_internal::optional_data" }
%"class.absl::optional_internal::optional_data" = type { %"class.absl::optional_internal::optional_data_base" }
%"class.absl::optional_internal::optional_data_base" = type { %"class.absl::optional_internal::optional_data_dtor_base" }
%"class.absl::optional_internal::optional_data_dtor_base" = type { i8, %union.anon.59 }
%union.anon.59 = type { %"class.url::Origin::Nonce" }
%"class.url::Origin::Nonce" = type { %"class.base::UnguessableToken" }
%"class.base::UnguessableToken" = type { %"class.base::Token" }
%"class.base::Token" = type { i64, i64 }
%"class.mojo::StructPtr.60" = type { %"class.std::__1::unique_ptr.61" }
%"class.std::__1::unique_ptr.61" = type { %"class.std::__1::__compressed_pair.62" }
%"class.std::__1::__compressed_pair.62" = type { %"struct.std::__1::__compressed_pair_elem.63" }
%"struct.std::__1::__compressed_pair_elem.63" = type { %"class.blink::mojom::blink::FileSystemInfo"* }
%"struct.base::File::Info" = type { i64, i8, i8, %"class.base::Time", %"class.base::Time", %"class.base::Time" }
%"class.base::Time" = type { %"class.base::time_internal::TimeBase" }
%"class.base::time_internal::TimeBase" = type { i64 }
%"class.mojo::PendingRemote" = type { %"struct.mojo::internal::PendingRemoteState" }
%"struct.mojo::internal::PendingRemoteState" = type { %"class.mojo::ScopedHandleBase.67", i32 }
%"class.mojo::ScopedHandleBase.67" = type { %"class.mojo::MessagePipeHandle" }
%"class.mojo::MessagePipeHandle" = type { %"class.mojo::Handle" }
%"class.mojo::internal::MessageFragment.69" = type { %"class.mojo::Message"*, i64 }
%"class.blink::mojom::internal::FileSystemManager_Open_Params_Data" = type { %"struct.mojo::internal::StructHeader", %"struct.mojo::internal::Pointer.70", i32, [4 x i8] }
%"struct.mojo::internal::Pointer.70" = type { i64 }
%"class.url::mojom::internal::Origin_Data" = type { %"struct.mojo::internal::StructHeader", %"struct.mojo::internal::Pointer.71", %"struct.mojo::internal::Pointer.71", i16, [6 x i8], %"struct.mojo::internal::Pointer.72" }
%"struct.mojo::internal::Pointer.71" = type { i64 }
%"struct.mojo::internal::Pointer.72" = type { i64 }
%"class.base::OnceCallback.73" = type { %"class.base::internal::CallbackBase" }
%"class.mojo::internal::MessageFragment.75" = type { %"class.mojo::Message"*, i64 }
%"class.blink::mojom::internal::FileSystemManager_ResolveURL_Params_Data" = type { %"struct.mojo::internal::StructHeader", %"struct.mojo::internal::Pointer.76" }
%"struct.mojo::internal::Pointer.76" = type { i64 }
%"class.url::mojom::internal::Url_Data" = type { %"struct.mojo::internal::StructHeader", %"struct.mojo::internal::Pointer.71" }
%"class.base::OnceCallback.77" = type { %"class.base::internal::CallbackBase" }
%"class.blink::mojom::internal::FileSystemManager_Move_Params_Data" = type { %"struct.mojo::internal::StructHeader", %"struct.mojo::internal::Pointer.76", %"struct.mojo::internal::Pointer.76" }
%"class.blink::mojom::internal::FileSystemManager_Copy_Params_Data" = type { %"struct.mojo::internal::StructHeader", %"struct.mojo::internal::Pointer.76", %"struct.mojo::internal::Pointer.76" }
%"class.blink::mojom::internal::FileSystemManager_Remove_Params_Data" = type { %"struct.mojo::internal::StructHeader", %"struct.mojo::internal::Pointer.76", i8, [7 x i8] }
%"class.blink::mojom::internal::FileSystemManager_ReadMetadata_Params_Data" = type { %"struct.mojo::internal::StructHeader", %"struct.mojo::internal::Pointer.76" }
%"class.base::OnceCallback.82" = type { %"class.base::internal::CallbackBase" }
%"class.blink::mojom::internal::FileSystemManager_Create_Params_Data" = type { %"struct.mojo::internal::StructHeader", %"struct.mojo::internal::Pointer.76", i8, [7 x i8] }
%"class.blink::mojom::internal::FileSystemManager_Exists_Params_Data" = type { %"struct.mojo::internal::StructHeader", %"struct.mojo::internal::Pointer.76", i8, [7 x i8] }
%"class.mojo::PendingRemote.85" = type { %"struct.mojo::internal::PendingRemoteState" }
%"class.blink::mojom::internal::FileSystemManager_ReadDirectory_Params_Data" = type { %"struct.mojo::internal::StructHeader", %"struct.mojo::internal::Pointer.76", %"struct.mojo::internal::Interface_Data" }
%"struct.mojo::internal::Interface_Data" = type { %"struct.mojo::internal::Handle_Data", i32 }
%"struct.mojo::internal::Handle_Data" = type { i32 }
%"class.blink::mojom::internal::FileSystemManager_ReadDirectorySync_Params_Data" = type { %"struct.mojo::internal::StructHeader", %"struct.mojo::internal::Pointer.76" }
%"class.base::OnceCallback.88" = type { %"class.base::internal::CallbackBase" }
%"class.mojo::PendingReceiver" = type { %"struct.mojo::internal::PendingReceiverState" }
%"struct.mojo::internal::PendingReceiverState" = type { %"class.mojo::ScopedHandleBase.67", %"class.mojo::ConnectionGroup::Ref" }
%"class.WTF::StringUTF8Adaptor" = type <{ %"class.std::__1::basic_string", i8*, i32, [4 x i8] }>
%"class.blink::mojom::internal::FileSystemManager_Write_Params_Data" = type { %"struct.mojo::internal::StructHeader", %"struct.mojo::internal::Pointer.76", %"struct.mojo::internal::Pointer.71", i64, %"struct.mojo::internal::Handle_Data", %"struct.mojo::internal::Interface_Data", [4 x i8] }
%"class.mojo::internal::Array_Data.91" = type { %"struct.mojo::internal::ArrayHeader" }
%"class.blink::mojom::internal::FileSystemManager_WriteSync_Params_Data" = type { %"struct.mojo::internal::StructHeader", %"struct.mojo::internal::Pointer.76", %"struct.mojo::internal::Pointer.71", i64 }
%"class.base::OnceCallback.93" = type { %"class.base::internal::CallbackBase" }
%"class.blink::mojom::internal::FileSystemManager_Truncate_Params_Data" = type { %"struct.mojo::internal::StructHeader", %"struct.mojo::internal::Pointer.76", i64, %"struct.mojo::internal::Handle_Data", [4 x i8] }
%"class.blink::mojom::internal::FileSystemManager_TruncateSync_Params_Data" = type { %"struct.mojo::internal::StructHeader", %"struct.mojo::internal::Pointer.76", i64 }
%"class.blink::mojom::internal::FileSystemManager_CreateSnapshotFile_Params_Data" = type { %"struct.mojo::internal::StructHeader", %"struct.mojo::internal::Pointer.76" }
%"class.base::OnceCallback.97" = type { %"class.base::internal::CallbackBase" }
%"class.blink::mojom::internal::FileSystemManager_GetPlatformPath_Params_Data" = type { %"struct.mojo::internal::StructHeader", %"struct.mojo::internal::Pointer.76" }
%"class.base::OnceCallback.99" = type { %"class.base::internal::CallbackBase" }
%"class.blink::mojom::blink::FileSystemManager_Open_ForwardToCallback" = type { %"class.mojo::MessageReceiver", %"class.base::OnceCallback.73" }
%"class.blink::mojom::blink::FileSystemManager_Open_ProxyToResponder" = type { i64, i8, %"class.std::__1::unique_ptr.40" }
%"class.blink::mojom::internal::FileSystemManager_Open_ResponseParams_Data" = type { %"struct.mojo::internal::StructHeader", %"struct.mojo::internal::Pointer.71", %"struct.mojo::internal::Pointer.76", i32, [4 x i8] }
%"class.blink::mojom::blink::FileSystemManager_Open_HandleSyncResponse" = type { %"class.mojo::MessageReceiver", i8*, %"class.WTF::String"*, %"class.blink::KURL"*, i32* }
%"class.blink::mojom::blink::FileSystemManager_ResolveURL_ForwardToCallback" = type { %"class.mojo::MessageReceiver", %"class.base::OnceCallback.77" }
%"class.blink::mojom::internal::FileSystemInfo_Data" = type { %"struct.mojo::internal::StructHeader", %"struct.mojo::internal::Pointer.71", %"struct.mojo::internal::Pointer.76", i32, [4 x i8] }
%"class.mojo_base::mojom::internal::FilePath_Data" = type { %"struct.mojo::internal::StructHeader", %"struct.mojo::internal::Pointer.71" }
%"class.blink::mojom::blink::FileSystemManager_ResolveURL_ProxyToResponder" = type { i64, i8, %"class.std::__1::unique_ptr.40" }
%"class.mojo::internal::MessageFragment.90" = type { %"class.mojo::Message"*, i64 }
%"class.mojo::internal::MessageFragment.104" = type { %"class.mojo::Message"*, i64 }
%"class.blink::mojom::internal::FileSystemManager_ResolveURL_ResponseParams_Data" = type { %"struct.mojo::internal::StructHeader", %"struct.mojo::internal::Pointer.101", %"struct.mojo::internal::Pointer.102", i8, [3 x i8], i32 }
%"struct.mojo::internal::Pointer.101" = type { i64 }
%"class.blink::mojom::blink::FileSystemManager_ResolveURL_HandleSyncResponse" = type { %"class.mojo::MessageReceiver", i8*, %"class.mojo::StructPtr.60"*, %"class.base::FilePath"*, i8*, i32* }
%"class.blink::mojom::blink::FileSystemManager_Move_ForwardToCallback" = type { %"class.mojo::MessageReceiver", %"class.base::OnceCallback" }
%"class.blink::mojom::blink::FileSystemManager_Move_ProxyToResponder" = type { i64, i8, %"class.std::__1::unique_ptr.40" }
%"class.blink::mojom::internal::FileSystemManager_Move_ResponseParams_Data" = type { %"struct.mojo::internal::StructHeader", i32, [4 x i8] }
%"class.blink::mojom::blink::FileSystemManager_Move_HandleSyncResponse" = type { %"class.mojo::MessageReceiver", i8*, i32* }
%"class.blink::mojom::blink::FileSystemManager_Copy_ForwardToCallback" = type { %"class.mojo::MessageReceiver", %"class.base::OnceCallback" }
%"class.blink::mojom::blink::FileSystemManager_Copy_ProxyToResponder" = type { i64, i8, %"class.std::__1::unique_ptr.40" }
%"class.blink::mojom::internal::FileSystemManager_Copy_ResponseParams_Data" = type { %"struct.mojo::internal::StructHeader", i32, [4 x i8] }
%"class.blink::mojom::blink::FileSystemManager_Copy_HandleSyncResponse" = type { %"class.mojo::MessageReceiver", i8*, i32* }
%"class.blink::mojom::blink::FileSystemManager_Remove_ForwardToCallback" = type { %"class.mojo::MessageReceiver", %"class.base::OnceCallback" }
%"class.blink::mojom::blink::FileSystemManager_Remove_ProxyToResponder" = type { i64, i8, %"class.std::__1::unique_ptr.40" }
%"class.blink::mojom::internal::FileSystemManager_Remove_ResponseParams_Data" = type { %"struct.mojo::internal::StructHeader", i32, [4 x i8] }
%"class.blink::mojom::blink::FileSystemManager_Remove_HandleSyncResponse" = type { %"class.mojo::MessageReceiver", i8*, i32* }
%"class.blink::mojom::blink::FileSystemManager_ReadMetadata_ForwardToCallback" = type { %"class.mojo::MessageReceiver", %"class.base::OnceCallback.82" }
%"class.mojo_base::mojom::internal::FileInfo_Data" = type { %"struct.mojo::internal::StructHeader", i64, i8, [7 x i8], %"struct.mojo::internal::Pointer.112", %"struct.mojo::internal::Pointer.112", %"struct.mojo::internal::Pointer.112" }
%"struct.mojo::internal::Pointer.112" = type { i64 }
%"class.blink::mojom::blink::FileSystemManager_ReadMetadata_ProxyToResponder" = type { i64, i8, %"class.std::__1::unique_ptr.40" }
%"class.mojo::internal::MessageFragment.111" = type { %"class.mojo::Message"*, i64 }
%"class.blink::mojom::internal::FileSystemManager_ReadMetadata_ResponseParams_Data" = type { %"struct.mojo::internal::StructHeader", %"struct.mojo::internal::Pointer.109", i32, [4 x i8] }
%"struct.mojo::internal::Pointer.109" = type { i64 }
%"class.blink::mojom::blink::FileSystemManager_ReadMetadata_HandleSyncResponse" = type { %"class.mojo::MessageReceiver", i8*, %"struct.base::File::Info"*, i32* }
%"class.blink::mojom::blink::FileSystemManager_Create_ForwardToCallback" = type { %"class.mojo::MessageReceiver", %"class.base::OnceCallback" }
%"class.blink::mojom::blink::FileSystemManager_Create_ProxyToResponder" = type { i64, i8, %"class.std::__1::unique_ptr.40" }
%"class.blink::mojom::internal::FileSystemManager_Create_ResponseParams_Data" = type { %"struct.mojo::internal::StructHeader", i32, [4 x i8] }
%"class.blink::mojom::blink::FileSystemManager_Create_HandleSyncResponse" = type { %"class.mojo::MessageReceiver", i8*, i32* }
%"class.blink::mojom::blink::FileSystemManager_Exists_ForwardToCallback" = type { %"class.mojo::MessageReceiver", %"class.base::OnceCallback" }
%"class.blink::mojom::blink::FileSystemManager_Exists_ProxyToResponder" = type { i64, i8, %"class.std::__1::unique_ptr.40" }
%"class.blink::mojom::internal::FileSystemManager_Exists_ResponseParams_Data" = type { %"struct.mojo::internal::StructHeader", i32, [4 x i8] }
%"class.blink::mojom::blink::FileSystemManager_Exists_HandleSyncResponse" = type { %"class.mojo::MessageReceiver", i8*, i32* }
%"class.blink::mojom::blink::FileSystemManager_ReadDirectorySync_ForwardToCallback" = type { %"class.mojo::MessageReceiver", %"class.base::OnceCallback.88" }
%"class.blink::mojom::blink::FileSystemManager_ReadDirectorySync_ProxyToResponder" = type { i64, i8, %"class.std::__1::unique_ptr.40" }
%"class.blink::mojom::internal::FileSystemManager_ReadDirectorySync_ResponseParams_Data" = type { %"struct.mojo::internal::StructHeader", %"struct.mojo::internal::Pointer", i32, [4 x i8] }
%"class.blink::mojom::blink::FileSystemManager_ReadDirectorySync_HandleSyncResponse" = type { %"class.mojo::MessageReceiver", i8*, %"class.WTF::Vector"*, i32* }
%"class.blink::mojom::blink::FileSystemManager_WriteSync_ForwardToCallback" = type { %"class.mojo::MessageReceiver", %"class.base::OnceCallback.93" }
%"class.blink::mojom::blink::FileSystemManager_WriteSync_ProxyToResponder" = type { i64, i8, %"class.std::__1::unique_ptr.40" }
%"class.blink::mojom::internal::FileSystemManager_WriteSync_ResponseParams_Data" = type { %"struct.mojo::internal::StructHeader", i64, i32, [4 x i8] }
%"class.blink::mojom::blink::FileSystemManager_WriteSync_HandleSyncResponse" = type { %"class.mojo::MessageReceiver", i8*, i64*, i32* }
%"class.blink::mojom::blink::FileSystemManager_Truncate_ForwardToCallback" = type { %"class.mojo::MessageReceiver", %"class.base::OnceCallback" }
%"class.blink::mojom::blink::FileSystemManager_Truncate_ProxyToResponder" = type { i64, i8, %"class.std::__1::unique_ptr.40" }
%"class.blink::mojom::internal::FileSystemManager_Truncate_ResponseParams_Data" = type { %"struct.mojo::internal::StructHeader", i32, [4 x i8] }
%"class.blink::mojom::blink::FileSystemManager_TruncateSync_ForwardToCallback" = type { %"class.mojo::MessageReceiver", %"class.base::OnceCallback" }
%"class.blink::mojom::blink::FileSystemManager_TruncateSync_ProxyToResponder" = type { i64, i8, %"class.std::__1::unique_ptr.40" }
%"class.blink::mojom::internal::FileSystemManager_TruncateSync_ResponseParams_Data" = type { %"struct.mojo::internal::StructHeader", i32, [4 x i8] }
%"class.blink::mojom::blink::FileSystemManager_TruncateSync_HandleSyncResponse" = type { %"class.mojo::MessageReceiver", i8*, i32* }
%"class.blink::mojom::blink::FileSystemManager_CreateSnapshotFile_ForwardToCallback" = type { %"class.mojo::MessageReceiver", %"class.base::OnceCallback.97" }
%"class.blink::mojom::FileSystemManager_CreateSnapshotFile_ResponseParamsDataView" = type { %"class.blink::mojom::internal::FileSystemManager_CreateSnapshotFile_ResponseParams_Data"*, %"class.mojo::Message"* }
%"class.blink::mojom::internal::FileSystemManager_CreateSnapshotFile_ResponseParams_Data" = type { %"struct.mojo::internal::StructHeader", %"struct.mojo::internal::Pointer.109", %"struct.mojo::internal::Pointer.102", i32, %"struct.mojo::internal::Interface_Data", [4 x i8] }
%"class.blink::mojom::blink::FileSystemManager_CreateSnapshotFile_ProxyToResponder" = type { i64, i8, %"class.std::__1::unique_ptr.40" }
%"class.blink::mojom::blink::FileSystemManager_CreateSnapshotFile_HandleSyncResponse" = type { %"class.mojo::MessageReceiver", i8*, %"struct.base::File::Info"*, %"class.base::FilePath"*, i32*, %"class.mojo::PendingRemote"* }
%"class.blink::mojom::blink::FileSystemManager_GetPlatformPath_ForwardToCallback" = type { %"class.mojo::MessageReceiver", %"class.base::OnceCallback.99" }
%"class.blink::mojom::blink::FileSystemManager_GetPlatformPath_ProxyToResponder" = type { i64, i8, %"class.std::__1::unique_ptr.40" }
%"class.blink::mojom::internal::FileSystemManager_GetPlatformPath_ResponseParams_Data" = type { %"struct.mojo::internal::StructHeader", %"struct.mojo::internal::Pointer.102" }
%"class.blink::mojom::blink::FileSystemManager_GetPlatformPath_HandleSyncResponse" = type { %"class.mojo::MessageReceiver", i8*, %"class.base::FilePath"* }
%"class.blink::mojom::FileSystemManager_ReadDirectory_ParamsDataView" = type { %"class.blink::mojom::internal::FileSystemManager_ReadDirectory_Params_Data"*, %"class.mojo::Message"* }
%"class.blink::mojom::FileSystemManager_Write_ParamsDataView" = type { %"class.blink::mojom::internal::FileSystemManager_Write_Params_Data"*, %"class.mojo::Message"* }
%"class.blink::mojom::blink::FileSystemManagerRequestValidator" = type { %"class.mojo::MessageReceiver" }
%"class.blink::mojom::blink::FileSystemManagerResponseValidator" = type { %"class.mojo::MessageReceiver" }
%"class.std::__1::unique_ptr.218" = type { %"class.std::__1::__compressed_pair.219" }
%"class.std::__1::__compressed_pair.219" = type { %"struct.std::__1::__compressed_pair_elem.220" }
%"struct.std::__1::__compressed_pair_elem.220" = type { %"class.blink::mojom::blink::FileSystemManager_ReadDirectorySync_ProxyToResponder"* }
%"class.logging::CheckOpResult" = type { i8* }
%"class.logging::CheckError" = type { %"class.logging::LogMessage"* }
%"class.logging::LogMessage" = type { i32 (...)**, i32, %"class.std::__1::basic_ostringstream", i64, i8*, i32, %"class.base::ScopedClearLastErrorBase" }
%"class.std::__1::basic_ostringstream" = type { %"class.std::__1::basic_ostream.base", %"class.std::__1::basic_stringbuf", %"class.std::__1::basic_ios.base" }
%"class.std::__1::basic_ostream.base" = type { i32 (...)** }
%"class.std::__1::basic_stringbuf" = type <{ %"class.std::__1::basic_streambuf", %"class.std::__1::basic_string", i8*, i32, [4 x i8] }>
%"class.std::__1::basic_streambuf" = type { i32 (...)**, %"class.std::__1::locale", i8*, i8*, i8*, i8*, i8*, i8* }
%"class.std::__1::locale" = type { %"class.std::__1::locale::__imp"* }
%"class.std::__1::locale::__imp" = type opaque
%"class.std::__1::basic_ios.base" = type <{ %"class.std::__1::ios_base", %"class.std::__1::basic_ostream"*, i32 }>
%"class.std::__1::ios_base" = type { i32 (...)**, i32, i64, i64, i32, i32, i8*, i8*, void (i32, %"class.std::__1::ios_base"*, i32)**, i32*, i64, i64, i64*, i64, i64, i8**, i64, i64 }
%"class.std::__1::basic_ostream" = type { i32 (...)**, %"class.std::__1::basic_ios.base" }
%"class.base::ScopedClearLastErrorBase" = type { i32 }
%"class.absl::optional.294" = type { %"class.absl::optional_internal::optional_data.295" }
%"class.absl::optional_internal::optional_data.295" = type { %"class.absl::optional_internal::optional_data_base.296" }
%"class.absl::optional_internal::optional_data_base.296" = type { %"class.absl::optional_internal::optional_data_dtor_base.297" }
%"class.absl::optional_internal::optional_data_dtor_base.297" = type { i8, %union.anon.298 }
%union.anon.298 = type { %"class.base::UnguessableToken" }
%"class.mojo_base::mojom::internal::UnguessableToken_Data" = type { %"struct.mojo::internal::StructHeader", i64, i64 }
%"struct.std::__1::basic_string<char, std::__1::char_traits<char>, std::__1::allocator<char> >::__short" = type { [23 x i8], %struct.anon }
%struct.anon = type { i8 }
%"class.mojo_base::mojom::internal::Time_Data" = type { %"struct.mojo::internal::StructHeader", i64 }
%"class.url::SchemeHostPort" = type <{ %"class.std::__1::basic_string", %"class.std::__1::basic_string", i16, [6 x i8] }>

$_ZN4mojo8internal23ContainerValidateParamsD2Ev = comdat any

$_ZN5blink5mojom59FileSystemManager_CreateSnapshotFile_ResponseParamsDataView20TakeSnapshotListenerIN4mojo13PendingRemoteINS0_5blink24ReceivedSnapshotListenerEEEEET_v = comdat any

$_ZN5blink5mojom46FileSystemManager_ReadDirectory_ParamsDataView12TakeListenerIN4mojo13PendingRemoteINS0_5blink27FileSystemOperationListenerEEEEET_v = comdat any

$_ZN5blink5mojom38FileSystemManager_Write_ParamsDataView12TakeListenerIN4mojo13PendingRemoteINS0_5blink27FileSystemOperationListenerEEEEET_v = comdat any

$_ZN5blink5mojom5blink55FileSystemCancellableOperation_Cancel_ForwardToCallbackD2Ev = comdat any

$_ZN5blink5mojom5blink55FileSystemCancellableOperation_Cancel_ForwardToCallbackD0Ev = comdat any

$_ZN5blink5mojom5blink35FileSystemCancellableOperationProxyD0Ev = comdat any

$_ZN5blink5mojom5blink46FileSystemCancellableOperationRequestValidatorD0Ev = comdat any

$_ZN5blink5mojom5blink47FileSystemCancellableOperationResponseValidatorD0Ev = comdat any

$_ZN5blink5mojom5blink32FileSystemOperationListenerProxyD0Ev = comdat any

$_ZN5blink5mojom5blink43FileSystemOperationListenerRequestValidatorD0Ev = comdat any

$_ZN5blink5mojom5blink24ReceivedSnapshotListenerD2Ev = comdat any

$_ZN5blink5mojom5blink29ReceivedSnapshotListenerProxyD0Ev = comdat any

$_ZN5blink5mojom5blink40ReceivedSnapshotListenerRequestValidatorD0Ev = comdat any

$_ZN5blink5mojom5blink17FileSystemManagerD2Ev = comdat any

$_ZN5blink5mojom5blink17FileSystemManagerD0Ev = comdat any

$_ZN5blink5mojom5blink41FileSystemManager_Open_HandleSyncResponseD0Ev = comdat any

$_ZN5blink5mojom5blink40FileSystemManager_Open_ForwardToCallbackD2Ev = comdat any

$_ZN5blink5mojom5blink40FileSystemManager_Open_ForwardToCallbackD0Ev = comdat any

$_ZN5blink5mojom5blink47FileSystemManager_ResolveURL_HandleSyncResponseD0Ev = comdat any

$_ZN5blink5mojom5blink46FileSystemManager_ResolveURL_ForwardToCallbackD2Ev = comdat any

$_ZN5blink5mojom5blink46FileSystemManager_ResolveURL_ForwardToCallbackD0Ev = comdat any

$_ZN5blink5mojom5blink41FileSystemManager_Move_HandleSyncResponseD0Ev = comdat any

$_ZN5blink5mojom5blink40FileSystemManager_Move_ForwardToCallbackD2Ev = comdat any

$_ZN5blink5mojom5blink40FileSystemManager_Move_ForwardToCallbackD0Ev = comdat any

$_ZN5blink5mojom5blink41FileSystemManager_Copy_HandleSyncResponseD0Ev = comdat any

$_ZN5blink5mojom5blink40FileSystemManager_Copy_ForwardToCallbackD2Ev = comdat any

$_ZN5blink5mojom5blink40FileSystemManager_Copy_ForwardToCallbackD0Ev = comdat any

$_ZN5blink5mojom5blink43FileSystemManager_Remove_HandleSyncResponseD0Ev = comdat any

$_ZN5blink5mojom5blink42FileSystemManager_Remove_ForwardToCallbackD2Ev = comdat any

$_ZN5blink5mojom5blink42FileSystemManager_Remove_ForwardToCallbackD0Ev = comdat any

$_ZN4mojo15MessageReceiverD2Ev = comdat any

$_ZN5blink5mojom5blink49FileSystemManager_ReadMetadata_HandleSyncResponseD0Ev = comdat any

$_ZN5blink5mojom5blink48FileSystemManager_ReadMetadata_ForwardToCallbackD2Ev = comdat any

$_ZN5blink5mojom5blink48FileSystemManager_ReadMetadata_ForwardToCallbackD0Ev = comdat any

$_ZN5blink5mojom5blink43FileSystemManager_Create_HandleSyncResponseD0Ev = comdat any

$_ZN5blink5mojom5blink42FileSystemManager_Create_ForwardToCallbackD2Ev = comdat any

$_ZN5blink5mojom5blink42FileSystemManager_Create_ForwardToCallbackD0Ev = comdat any

$_ZN5blink5mojom5blink43FileSystemManager_Exists_HandleSyncResponseD0Ev = comdat any

$_ZN5blink5mojom5blink42FileSystemManager_Exists_ForwardToCallbackD2Ev = comdat any

$_ZN5blink5mojom5blink42FileSystemManager_Exists_ForwardToCallbackD0Ev = comdat any

$_ZN5blink5mojom5blink54FileSystemManager_ReadDirectorySync_HandleSyncResponseD0Ev = comdat any

$_ZN5blink5mojom5blink53FileSystemManager_ReadDirectorySync_ForwardToCallbackD2Ev = comdat any

$_ZN5blink5mojom5blink53FileSystemManager_ReadDirectorySync_ForwardToCallbackD0Ev = comdat any

$_ZN5blink5mojom5blink46FileSystemManager_WriteSync_HandleSyncResponseD0Ev = comdat any

$_ZN5blink5mojom5blink45FileSystemManager_WriteSync_ForwardToCallbackD2Ev = comdat any

$_ZN5blink5mojom5blink45FileSystemManager_WriteSync_ForwardToCallbackD0Ev = comdat any

$_ZN5blink5mojom5blink44FileSystemManager_Truncate_ForwardToCallbackD2Ev = comdat any

$_ZN5blink5mojom5blink44FileSystemManager_Truncate_ForwardToCallbackD0Ev = comdat any

$_ZN5blink5mojom5blink49FileSystemManager_TruncateSync_HandleSyncResponseD0Ev = comdat any

$_ZN5blink5mojom5blink48FileSystemManager_TruncateSync_ForwardToCallbackD2Ev = comdat any

$_ZN5blink5mojom5blink48FileSystemManager_TruncateSync_ForwardToCallbackD0Ev = comdat any

$_ZN5blink5mojom5blink55FileSystemManager_CreateSnapshotFile_HandleSyncResponseD0Ev = comdat any

$_ZN5blink5mojom5blink54FileSystemManager_CreateSnapshotFile_ForwardToCallbackD2Ev = comdat any

$_ZN5blink5mojom5blink54FileSystemManager_CreateSnapshotFile_ForwardToCallbackD0Ev = comdat any

$_ZN5blink5mojom5blink52FileSystemManager_GetPlatformPath_HandleSyncResponseD0Ev = comdat any

$_ZN5blink5mojom5blink51FileSystemManager_GetPlatformPath_ForwardToCallbackD2Ev = comdat any

$_ZN5blink5mojom5blink51FileSystemManager_GetPlatformPath_ForwardToCallbackD0Ev = comdat any

$_ZN5blink5mojom5blink22FileSystemManagerProxyD0Ev = comdat any

$_ZN5blink5mojom5blink33FileSystemManagerRequestValidatorD0Ev = comdat any

$_ZN5blink5mojom5blink34FileSystemManagerResponseValidatorD0Ev = comdat any

$_ZN5blink5mojom5blink30FileSystemCancellableOperationD2Ev = comdat any

$_ZN4base8internal7InvokerINS0_9BindStateIMN5blink5mojom5blink54FileSystemCancellableOperation_Cancel_ProxyToResponderEFvNS_4File5ErrorEEJNSt3__110unique_ptrIS6_NSB_14default_deleteIS6_EEEEEEEFvS8_EE7RunOnceEPNS0_13BindStateBaseES8_ = comdat any

$_ZN4base8internal9BindStateIMN5blink5mojom5blink54FileSystemCancellableOperation_Cancel_ProxyToResponderEFvNS_4File5ErrorEEJNSt3__110unique_ptrIS5_NSA_14default_deleteIS5_EEEEEE7DestroyEPKNS0_13BindStateBaseE = comdat any

$_ZN5blink5mojom5blink27FileSystemOperationListenerD2Ev = comdat any

$_ZN4base8internal7InvokerINS0_9BindStateIMN5blink5mojom5blink39FileSystemManager_Open_ProxyToResponderEFvRKN3WTF6StringERKNS3_4KURLENS_4File5ErrorEEJNSt3__110unique_ptrIS6_NSI_14default_deleteIS6_EEEEEEEFvSA_SD_SF_EE7RunOnceEPNS0_13BindStateBaseESA_SD_SF_ = comdat any

$_ZN4base8internal9BindStateIMN5blink5mojom5blink39FileSystemManager_Open_ProxyToResponderEFvRKN3WTF6StringERKNS2_4KURLENS_4File5ErrorEEJNSt3__110unique_ptrIS5_NSH_14default_deleteIS5_EEEEEE7DestroyEPKNS0_13BindStateBaseE = comdat any

$_ZN4base8internal7InvokerINS0_9BindStateIMN5blink5mojom5blink45FileSystemManager_ResolveURL_ProxyToResponderEFvN4mojo9StructPtrINS5_14FileSystemInfoEEERKNS_8FilePathEbNS_4File5ErrorEEJNSt3__110unique_ptrIS6_NSI_14default_deleteIS6_EEEEEEEFvSA_SD_bSF_EE7RunOnceEPNS0_13BindStateBaseEOSA_SD_bSF_ = comdat any

$_ZN4base8internal9BindStateIMN5blink5mojom5blink45FileSystemManager_ResolveURL_ProxyToResponderEFvN4mojo9StructPtrINS4_14FileSystemInfoEEERKNS_8FilePathEbNS_4File5ErrorEEJNSt3__110unique_ptrIS5_NSH_14default_deleteIS5_EEEEEE7DestroyEPKNS0_13BindStateBaseE = comdat any

$_ZN4base8internal7InvokerINS0_9BindStateIMN5blink5mojom5blink39FileSystemManager_Move_ProxyToResponderEFvNS_4File5ErrorEEJNSt3__110unique_ptrIS6_NSB_14default_deleteIS6_EEEEEEEFvS8_EE7RunOnceEPNS0_13BindStateBaseES8_ = comdat any

$_ZN4base8internal9BindStateIMN5blink5mojom5blink39FileSystemManager_Move_ProxyToResponderEFvNS_4File5ErrorEEJNSt3__110unique_ptrIS5_NSA_14default_deleteIS5_EEEEEE7DestroyEPKNS0_13BindStateBaseE = comdat any

$_ZN4base8internal7InvokerINS0_9BindStateIMN5blink5mojom5blink39FileSystemManager_Copy_ProxyToResponderEFvNS_4File5ErrorEEJNSt3__110unique_ptrIS6_NSB_14default_deleteIS6_EEEEEEEFvS8_EE7RunOnceEPNS0_13BindStateBaseES8_ = comdat any

$_ZN4base8internal9BindStateIMN5blink5mojom5blink39FileSystemManager_Copy_ProxyToResponderEFvNS_4File5ErrorEEJNSt3__110unique_ptrIS5_NSA_14default_deleteIS5_EEEEEE7DestroyEPKNS0_13BindStateBaseE = comdat any

$_ZN4base8internal7InvokerINS0_9BindStateIMN5blink5mojom5blink41FileSystemManager_Remove_ProxyToResponderEFvNS_4File5ErrorEEJNSt3__110unique_ptrIS6_NSB_14default_deleteIS6_EEEEEEEFvS8_EE7RunOnceEPNS0_13BindStateBaseES8_ = comdat any

$_ZN4base8internal9BindStateIMN5blink5mojom5blink41FileSystemManager_Remove_ProxyToResponderEFvNS_4File5ErrorEEJNSt3__110unique_ptrIS5_NSA_14default_deleteIS5_EEEEEE7DestroyEPKNS0_13BindStateBaseE = comdat any

$_ZN4base8internal7InvokerINS0_9BindStateIMN5blink5mojom5blink47FileSystemManager_ReadMetadata_ProxyToResponderEFvRKNS_4File4InfoENS7_5ErrorEEJNSt3__110unique_ptrIS6_NSE_14default_deleteIS6_EEEEEEEFvSA_SB_EE7RunOnceEPNS0_13BindStateBaseESA_SB_ = comdat any

$_ZN4base8internal9BindStateIMN5blink5mojom5blink47FileSystemManager_ReadMetadata_ProxyToResponderEFvRKNS_4File4InfoENS6_5ErrorEEJNSt3__110unique_ptrIS5_NSD_14default_deleteIS5_EEEEEE7DestroyEPKNS0_13BindStateBaseE = comdat any

$_ZN4base8internal7InvokerINS0_9BindStateIMN5blink5mojom5blink41FileSystemManager_Create_ProxyToResponderEFvNS_4File5ErrorEEJNSt3__110unique_ptrIS6_NSB_14default_deleteIS6_EEEEEEEFvS8_EE7RunOnceEPNS0_13BindStateBaseES8_ = comdat any

$_ZN4base8internal9BindStateIMN5blink5mojom5blink41FileSystemManager_Create_ProxyToResponderEFvNS_4File5ErrorEEJNSt3__110unique_ptrIS5_NSA_14default_deleteIS5_EEEEEE7DestroyEPKNS0_13BindStateBaseE = comdat any

$_ZN4base8internal7InvokerINS0_9BindStateIMN5blink5mojom5blink41FileSystemManager_Exists_ProxyToResponderEFvNS_4File5ErrorEEJNSt3__110unique_ptrIS6_NSB_14default_deleteIS6_EEEEEEEFvS8_EE7RunOnceEPNS0_13BindStateBaseES8_ = comdat any

$_ZN4base8internal9BindStateIMN5blink5mojom5blink41FileSystemManager_Exists_ProxyToResponderEFvNS_4File5ErrorEEJNSt3__110unique_ptrIS5_NSA_14default_deleteIS5_EEEEEE7DestroyEPKNS0_13BindStateBaseE = comdat any

$_ZN4base8internal7InvokerINS0_9BindStateIMN5blink5mojom5blink52FileSystemManager_ReadDirectorySync_ProxyToResponderEFvN3WTF6VectorIN4mojo9StructPtrIN10filesystem5mojom5blink14DirectoryEntryEEELj0ENS7_18PartitionAllocatorEEENS_4File5ErrorEEJNSt3__110unique_ptrIS6_NSM_14default_deleteIS6_EEEEEEEFvSH_SJ_EE7RunOnceEPNS0_13BindStateBaseEOSH_SJ_ = comdat any

$_ZN4base8internal13FunctorTraitsIMN5blink5mojom5blink52FileSystemManager_ReadDirectorySync_ProxyToResponderEFvN3WTF6VectorIN4mojo9StructPtrIN10filesystem5mojom5blink14DirectoryEntryEEELj0ENS6_18PartitionAllocatorEEENS_4File5ErrorEEvE6InvokeISK_NSt3__110unique_ptrIS5_NSN_14default_deleteIS5_EEEEJSG_SI_EEEvT_OT0_DpOT1_ = comdat any

$_ZN4base8internal9BindStateIMN5blink5mojom5blink52FileSystemManager_ReadDirectorySync_ProxyToResponderEFvN3WTF6VectorIN4mojo9StructPtrIN10filesystem5mojom5blink14DirectoryEntryEEELj0ENS6_18PartitionAllocatorEEENS_4File5ErrorEEJNSt3__110unique_ptrIS5_NSL_14default_deleteIS5_EEEEEE7DestroyEPKNS0_13BindStateBaseE = comdat any

$_ZN4base8internal7InvokerINS0_9BindStateIMN5blink5mojom5blink44FileSystemManager_WriteSync_ProxyToResponderEFvlNS_4File5ErrorEEJNSt3__110unique_ptrIS6_NSB_14default_deleteIS6_EEEEEEEFvlS8_EE7RunOnceEPNS0_13BindStateBaseElS8_ = comdat any

$_ZN4base8internal9BindStateIMN5blink5mojom5blink44FileSystemManager_WriteSync_ProxyToResponderEFvlNS_4File5ErrorEEJNSt3__110unique_ptrIS5_NSA_14default_deleteIS5_EEEEEE7DestroyEPKNS0_13BindStateBaseE = comdat any

$_ZN4base8internal7InvokerINS0_9BindStateIMN5blink5mojom5blink43FileSystemManager_Truncate_ProxyToResponderEFvNS_4File5ErrorEEJNSt3__110unique_ptrIS6_NSB_14default_deleteIS6_EEEEEEEFvS8_EE7RunOnceEPNS0_13BindStateBaseES8_ = comdat any

$_ZN4base8internal9BindStateIMN5blink5mojom5blink43FileSystemManager_Truncate_ProxyToResponderEFvNS_4File5ErrorEEJNSt3__110unique_ptrIS5_NSA_14default_deleteIS5_EEEEEE7DestroyEPKNS0_13BindStateBaseE = comdat any

$_ZN4base8internal7InvokerINS0_9BindStateIMN5blink5mojom5blink47FileSystemManager_TruncateSync_ProxyToResponderEFvNS_4File5ErrorEEJNSt3__110unique_ptrIS6_NSB_14default_deleteIS6_EEEEEEEFvS8_EE7RunOnceEPNS0_13BindStateBaseES8_ = comdat any

$_ZN4base8internal9BindStateIMN5blink5mojom5blink47FileSystemManager_TruncateSync_ProxyToResponderEFvNS_4File5ErrorEEJNSt3__110unique_ptrIS5_NSA_14default_deleteIS5_EEEEEE7DestroyEPKNS0_13BindStateBaseE = comdat any

$_ZN4base8internal7InvokerINS0_9BindStateIMN5blink5mojom5blink53FileSystemManager_CreateSnapshotFile_ProxyToResponderEFvRKNS_4File4InfoERKNS_8FilePathENS7_5ErrorEN4mojo13PendingRemoteINS5_24ReceivedSnapshotListenerEEEEJNSt3__110unique_ptrIS6_NSL_14default_deleteIS6_EEEEEEEFvSA_SD_SE_SI_EE7RunOnceEPNS0_13BindStateBaseESA_SD_SE_OSI_ = comdat any

$_ZN4base8internal9BindStateIMN5blink5mojom5blink53FileSystemManager_CreateSnapshotFile_ProxyToResponderEFvRKNS_4File4InfoERKNS_8FilePathENS6_5ErrorEN4mojo13PendingRemoteINS4_24ReceivedSnapshotListenerEEEEJNSt3__110unique_ptrIS5_NSK_14default_deleteIS5_EEEEEE7DestroyEPKNS0_13BindStateBaseE = comdat any

$_ZN4base8internal7InvokerINS0_9BindStateIMN5blink5mojom5blink50FileSystemManager_GetPlatformPath_ProxyToResponderEFvRKNS_8FilePathEEJNSt3__110unique_ptrIS6_NSC_14default_deleteIS6_EEEEEEEFvS9_EE7RunOnceEPNS0_13BindStateBaseES9_ = comdat any

$_ZN4base8internal9BindStateIMN5blink5mojom5blink50FileSystemManager_GetPlatformPath_ProxyToResponderEFvRKNS_8FilePathEEJNSt3__110unique_ptrIS5_NSB_14default_deleteIS5_EEEEEE7DestroyEPKNS0_13BindStateBaseE = comdat any

$_ZN5blink14SecurityOriginD2Ev = comdat any

$_ZN3WTF6VectorIN4mojo9StructPtrIN10filesystem5mojom5blink14DirectoryEntryEEELj0ENS_18PartitionAllocatorEE2atEj = comdat any

$_ZN4mojo8internal10SerializerIN10filesystem5mojom22DirectoryEntryDataViewENS_9StructPtrINS3_5blink14DirectoryEntryEEEE9SerializeERS8_RNS0_15MessageFragmentINS3_8internal19DirectoryEntry_DataEEE = comdat any

$_ZN4mojo8internal15ArraySerializerINS_13ArrayDataViewIN10filesystem5mojom22DirectoryEntryDataViewEEEN3WTF6VectorINS_9StructPtrINS4_5blink14DirectoryEntryEEELj0ENS7_18PartitionAllocatorEEENS0_13ArrayIteratorINS_11ArrayTraitsISE_EESE_Lb0EEEvE19DeserializeElementsEPNS0_10Array_DataINS0_7PointerINS4_8internal19DirectoryEntry_DataEEEEEPSE_PNS_7MessageE = comdat any

$_ZN3WTF6VectorIN4mojo9StructPtrIN10filesystem5mojom5blink14DirectoryEntryEEELj0ENS_18PartitionAllocatorEE16ReallocateBufferEj = comdat any

$_ZN3WTF18PartitionAllocator13QuantizedSizeIN4mojo9StructPtrIN10filesystem5mojom5blink14DirectoryEntryEEEEEmm = comdat any

$_ZN3WTF6VectorIN4mojo9StructPtrIN10filesystem5mojom5blink14DirectoryEntryEEELj0ENS_18PartitionAllocatorEE6resizeEj = comdat any

$_ZN4mojo8internal10SerializerIN3url5mojom14OriginDataViewEK13scoped_refptrIKN5blink14SecurityOriginEEE9SerializeERSA_RNS0_15MessageFragmentINS3_8internal11Origin_DataEEE = comdat any

$_ZN4mojo8internal10SerializerIN3url5mojom11UrlDataViewEKN5blink4KURLEE9SerializeERS7_RNS0_15MessageFragmentINS3_8internal8Url_DataEEE = comdat any

$_ZN4mojo12StructTraitsIN3url5mojom11UrlDataViewEN5blink4KURLEE4ReadES3_PS5_ = comdat any

$_ZN4mojo8internal10SerializerIN5blink5mojom22FileSystemInfoDataViewENS_9StructPtrINS3_5blink14FileSystemInfoEEEE9SerializeERS8_RNS0_15MessageFragmentINS3_8internal19FileSystemInfo_DataEEE = comdat any

$_ZN4mojo8internal10SerializerINS_14StringDataViewEKNSt3__112basic_stringIcNS3_11char_traitsIcEENS3_9allocatorIcEEEEE9SerializeERSA_RNS0_15MessageFragmentINS0_10Array_DataIcEEEE = comdat any

$_ZN4mojo8internal10SerializerIN9mojo_base5mojom16FileInfoDataViewEKN4base4File4InfoEE9SerializeERS8_RNS0_15MessageFragmentINS3_8internal13FileInfo_DataEEE = comdat any

$_ZN4mojo12StructTraitsIN3url5mojom14OriginDataViewE13scoped_refptrIKN5blink14SecurityOriginEEE4ReadES3_PS8_ = comdat any

$_ZN4mojo16UrlOriginAdapter20CreateSecurityOriginERKN3url14SchemeHostPortERKN4absl8optionalIN4base16UnguessableTokenEEE = comdat any

@.str = private unnamed_addr constant [5 x i8] c"name\00", align 1
@.str.2 = private unnamed_addr constant [9 x i8] c"root_url\00", align 1
@.str.3 = private unnamed_addr constant [11 x i8] c"mount_type\00", align 1
@_ZN5blink5mojom5blink30FileSystemCancellableOperation5Name_E = hidden constant [43 x i8] c"blink.mojom.FileSystemCancellableOperation\00", align 16
@_ZTVN5blink5mojom5blink35FileSystemCancellableOperationProxyE = hidden unnamed_addr constant { [5 x i8*] } { [5 x i8*] [i8* null, i8* null, i8* bitcast (void (%"class.blink::mojom::blink::FileSystemCancellableOperation"*)* @_ZN5blink5mojom5blink30FileSystemCancellableOperationD2Ev to i8*), i8* bitcast (void (%"class.blink::mojom::blink::FileSystemCancellableOperationProxy"*)* @_ZN5blink5mojom5blink35FileSystemCancellableOperationProxyD0Ev to i8*), i8* bitcast (void (%"class.blink::mojom::blink::FileSystemCancellableOperationProxy"*, %"class.base::OnceCallback"*)* @_ZN5blink5mojom5blink35FileSystemCancellableOperationProxy6CancelEN4base12OnceCallbackIFvNS3_4File5ErrorEEEE to i8*)] }, align 8
@_ZN5blink5mojom5blinkL45kFileSystemCancellableOperationValidationInfoE = internal constant [1 x %"struct.mojo::internal::GenericValidationInfo"] [%"struct.mojo::internal::GenericValidationInfo" { i1 (i8*, %"class.mojo::internal::ValidationContext"*)* @_ZN5blink5mojom8internal49FileSystemCancellableOperation_Cancel_Params_Data8ValidateEPKvPN4mojo8internal17ValidationContextE, i1 (i8*, %"class.mojo::internal::ValidationContext"*)* @_ZN5blink5mojom8internal57FileSystemCancellableOperation_Cancel_ResponseParams_Data8ValidateEPKvPN4mojo8internal17ValidationContextE }], align 16
@_ZN5blink5mojom5blink27FileSystemOperationListener5Name_E = hidden constant [40 x i8] c"blink.mojom.FileSystemOperationListener\00", align 16
@_ZTVN5blink5mojom5blink32FileSystemOperationListenerProxyE = hidden unnamed_addr constant { [7 x i8*] } { [7 x i8*] [i8* null, i8* null, i8* bitcast (void (%"class.blink::mojom::blink::FileSystemOperationListener"*)* @_ZN5blink5mojom5blink27FileSystemOperationListenerD2Ev to i8*), i8* bitcast (void (%"class.blink::mojom::blink::FileSystemOperationListenerProxy"*)* @_ZN5blink5mojom5blink32FileSystemOperationListenerProxyD0Ev to i8*), i8* bitcast (void (%"class.blink::mojom::blink::FileSystemOperationListenerProxy"*, %"class.WTF::Vector"*, i1)* @_ZN5blink5mojom5blink32FileSystemOperationListenerProxy16ResultsRetrievedEN3WTF6VectorIN4mojo9StructPtrIN10filesystem5mojom5blink14DirectoryEntryEEELj0ENS3_18PartitionAllocatorEEEb to i8*), i8* bitcast (void (%"class.blink::mojom::blink::FileSystemOperationListenerProxy"*, i64, i1)* @_ZN5blink5mojom5blink32FileSystemOperationListenerProxy8DidWriteElb to i8*), i8* bitcast (void (%"class.blink::mojom::blink::FileSystemOperationListenerProxy"*, i32)* @_ZN5blink5mojom5blink32FileSystemOperationListenerProxy13ErrorOccurredEN4base4File5ErrorE to i8*)] }, align 8
@_ZN5blink5mojom5blinkL42kFileSystemOperationListenerValidationInfoE = internal constant [3 x %"struct.mojo::internal::GenericValidationInfo"] [%"struct.mojo::internal::GenericValidationInfo" { i1 (i8*, %"class.mojo::internal::ValidationContext"*)* @_ZN5blink5mojom8internal56FileSystemOperationListener_ResultsRetrieved_Params_Data8ValidateEPKvPN4mojo8internal17ValidationContextE, i1 (i8*, %"class.mojo::internal::ValidationContext"*)* null }, %"struct.mojo::internal::GenericValidationInfo" { i1 (i8*, %"class.mojo::internal::ValidationContext"*)* @_ZN5blink5mojom8internal48FileSystemOperationListener_DidWrite_Params_Data8ValidateEPKvPN4mojo8internal17ValidationContextE, i1 (i8*, %"class.mojo::internal::ValidationContext"*)* null }, %"struct.mojo::internal::GenericValidationInfo" { i1 (i8*, %"class.mojo::internal::ValidationContext"*)* @_ZN5blink5mojom8internal53FileSystemOperationListener_ErrorOccurred_Params_Data8ValidateEPKvPN4mojo8internal17ValidationContextE, i1 (i8*, %"class.mojo::internal::ValidationContext"*)* null }], align 16
@_ZN5blink5mojom5blink24ReceivedSnapshotListener5Name_E = hidden constant [37 x i8] c"blink.mojom.ReceivedSnapshotListener\00", align 16
@_ZTVN5blink5mojom5blink29ReceivedSnapshotListenerProxyE = hidden unnamed_addr constant { [5 x i8*] } { [5 x i8*] [i8* null, i8* null, i8* bitcast (void (%"class.blink::mojom::blink::ReceivedSnapshotListener"*)* @_ZN5blink5mojom5blink24ReceivedSnapshotListenerD2Ev to i8*), i8* bitcast (void (%"class.blink::mojom::blink::ReceivedSnapshotListenerProxy"*)* @_ZN5blink5mojom5blink29ReceivedSnapshotListenerProxyD0Ev to i8*), i8* bitcast (void (%"class.blink::mojom::blink::ReceivedSnapshotListenerProxy"*)* @_ZN5blink5mojom5blink29ReceivedSnapshotListenerProxy22DidReceiveSnapshotFileEv to i8*)] }, align 8
@_ZN5blink5mojom5blinkL39kReceivedSnapshotListenerValidationInfoE = internal constant [1 x %"struct.mojo::internal::GenericValidationInfo"] [%"struct.mojo::internal::GenericValidationInfo" { i1 (i8*, %"class.mojo::internal::ValidationContext"*)* @_ZN5blink5mojom8internal59ReceivedSnapshotListener_DidReceiveSnapshotFile_Params_Data8ValidateEPKvPN4mojo8internal17ValidationContextE, i1 (i8*, %"class.mojo::internal::ValidationContext"*)* null }], align 16
@_ZN5blink5mojom5blink17FileSystemManager5Name_E = hidden constant [30 x i8] c"blink.mojom.FileSystemManager\00", align 16
@_ZTVN5blink5mojom5blink22FileSystemManagerProxyE = hidden unnamed_addr constant { [33 x i8*] } { [33 x i8*] [i8* null, i8* null, i8* bitcast (void (%"class.blink::mojom::blink::FileSystemManager"*)* @_ZN5blink5mojom5blink17FileSystemManagerD2Ev to i8*), i8* bitcast (void (%"class.blink::mojom::blink::FileSystemManagerProxy"*)* @_ZN5blink5mojom5blink22FileSystemManagerProxyD0Ev to i8*), i8* bitcast (i1 (%"class.blink::mojom::blink::FileSystemManagerProxy"*, %class.scoped_refptr.58*, i32, %"class.WTF::String"*, %"class.blink::KURL"*, i32*)* @_ZN5blink5mojom5blink22FileSystemManagerProxy4OpenERK13scoped_refptrIKNS_14SecurityOriginEENS0_14FileSystemTypeEPN3WTF6StringEPNS_4KURLEPN4base4File5ErrorE to i8*), i8* bitcast (void (%"class.blink::mojom::blink::FileSystemManagerProxy"*, %class.scoped_refptr.58*, i32, %"class.base::OnceCallback.73"*)* @_ZN5blink5mojom5blink22FileSystemManagerProxy4OpenERK13scoped_refptrIKNS_14SecurityOriginEENS0_14FileSystemTypeEN4base12OnceCallbackIFvRKN3WTF6StringERKNS_4KURLENSA_4File5ErrorEEEE to i8*), i8* bitcast (i1 (%"class.blink::mojom::blink::FileSystemManagerProxy"*, %"class.blink::KURL"*, %"class.mojo::StructPtr.60"*, %"class.base::FilePath"*, i8*, i32*)* @_ZN5blink5mojom5blink22FileSystemManagerProxy10ResolveURLERKNS_4KURLEPN4mojo9StructPtrINS1_14FileSystemInfoEEEPN4base8FilePathEPbPNSB_4File5ErrorE to i8*), i8* bitcast (void (%"class.blink::mojom::blink::FileSystemManagerProxy"*, %"class.blink::KURL"*, %"class.base::OnceCallback.77"*)* @_ZN5blink5mojom5blink22FileSystemManagerProxy10ResolveURLERKNS_4KURLEN4base12OnceCallbackIFvN4mojo9StructPtrINS1_14FileSystemInfoEEERKNS6_8FilePathEbNS6_4File5ErrorEEEE to i8*), i8* bitcast (i1 (%"class.blink::mojom::blink::FileSystemManagerProxy"*, %"class.blink::KURL"*, %"class.blink::KURL"*, i32*)* @_ZN5blink5mojom5blink22FileSystemManagerProxy4MoveERKNS_4KURLES5_PN4base4File5ErrorE to i8*), i8* bitcast (void (%"class.blink::mojom::blink::FileSystemManagerProxy"*, %"class.blink::KURL"*, %"class.blink::KURL"*, %"class.base::OnceCallback"*)* @_ZN5blink5mojom5blink22FileSystemManagerProxy4MoveERKNS_4KURLES5_N4base12OnceCallbackIFvNS6_4File5ErrorEEEE to i8*), i8* bitcast (i1 (%"class.blink::mojom::blink::FileSystemManagerProxy"*, %"class.blink::KURL"*, %"class.blink::KURL"*, i32*)* @_ZN5blink5mojom5blink22FileSystemManagerProxy4CopyERKNS_4KURLES5_PN4base4File5ErrorE to i8*), i8* bitcast (void (%"class.blink::mojom::blink::FileSystemManagerProxy"*, %"class.blink::KURL"*, %"class.blink::KURL"*, %"class.base::OnceCallback"*)* @_ZN5blink5mojom5blink22FileSystemManagerProxy4CopyERKNS_4KURLES5_N4base12OnceCallbackIFvNS6_4File5ErrorEEEE to i8*), i8* bitcast (i1 (%"class.blink::mojom::blink::FileSystemManagerProxy"*, %"class.blink::KURL"*, i1, i32*)* @_ZN5blink5mojom5blink22FileSystemManagerProxy6RemoveERKNS_4KURLEbPN4base4File5ErrorE to i8*), i8* bitcast (void (%"class.blink::mojom::blink::FileSystemManagerProxy"*, %"class.blink::KURL"*, i1, %"class.base::OnceCallback"*)* @_ZN5blink5mojom5blink22FileSystemManagerProxy6RemoveERKNS_4KURLEbN4base12OnceCallbackIFvNS6_4File5ErrorEEEE to i8*), i8* bitcast (i1 (%"class.blink::mojom::blink::FileSystemManagerProxy"*, %"class.blink::KURL"*, %"struct.base::File::Info"*, i32*)* @_ZN5blink5mojom5blink22FileSystemManagerProxy12ReadMetadataERKNS_4KURLEPN4base4File4InfoEPNS7_5ErrorE to i8*), i8* bitcast (void (%"class.blink::mojom::blink::FileSystemManagerProxy"*, %"class.blink::KURL"*, %"class.base::OnceCallback.82"*)* @_ZN5blink5mojom5blink22FileSystemManagerProxy12ReadMetadataERKNS_4KURLEN4base12OnceCallbackIFvRKNS6_4File4InfoENS8_5ErrorEEEE to i8*), i8* bitcast (i1 (%"class.blink::mojom::blink::FileSystemManagerProxy"*, %"class.blink::KURL"*, i1, i1, i1, i32*)* @_ZN5blink5mojom5blink22FileSystemManagerProxy6CreateERKNS_4KURLEbbbPN4base4File5ErrorE to i8*), i8* bitcast (void (%"class.blink::mojom::blink::FileSystemManagerProxy"*, %"class.blink::KURL"*, i1, i1, i1, %"class.base::OnceCallback"*)* @_ZN5blink5mojom5blink22FileSystemManagerProxy6CreateERKNS_4KURLEbbbN4base12OnceCallbackIFvNS6_4File5ErrorEEEE to i8*), i8* bitcast (i1 (%"class.blink::mojom::blink::FileSystemManagerProxy"*, %"class.blink::KURL"*, i1, i32*)* @_ZN5blink5mojom5blink22FileSystemManagerProxy6ExistsERKNS_4KURLEbPN4base4File5ErrorE to i8*), i8* bitcast (void (%"class.blink::mojom::blink::FileSystemManagerProxy"*, %"class.blink::KURL"*, i1, %"class.base::OnceCallback"*)* @_ZN5blink5mojom5blink22FileSystemManagerProxy6ExistsERKNS_4KURLEbN4base12OnceCallbackIFvNS6_4File5ErrorEEEE to i8*), i8* bitcast (void (%"class.blink::mojom::blink::FileSystemManagerProxy"*, %"class.blink::KURL"*, %"class.mojo::PendingRemote.85"*)* @_ZN5blink5mojom5blink22FileSystemManagerProxy13ReadDirectoryERKNS_4KURLEN4mojo13PendingRemoteINS1_27FileSystemOperationListenerEEE to i8*), i8* bitcast (i1 (%"class.blink::mojom::blink::FileSystemManagerProxy"*, %"class.blink::KURL"*, %"class.WTF::Vector"*, i32*)* @_ZN5blink5mojom5blink22FileSystemManagerProxy17ReadDirectorySyncERKNS_4KURLEPN3WTF6VectorIN4mojo9StructPtrIN10filesystem5mojom5blink14DirectoryEntryEEELj0ENS6_18PartitionAllocatorEEEPN4base4File5ErrorE to i8*), i8* bitcast (void (%"class.blink::mojom::blink::FileSystemManagerProxy"*, %"class.blink::KURL"*, %"class.base::OnceCallback.88"*)* @_ZN5blink5mojom5blink22FileSystemManagerProxy17ReadDirectorySyncERKNS_4KURLEN4base12OnceCallbackIFvN3WTF6VectorIN4mojo9StructPtrIN10filesystem5mojom5blink14DirectoryEntryEEELj0ENS8_18PartitionAllocatorEEENS6_4File5ErrorEEEE to i8*), i8* bitcast (void (%"class.blink::mojom::blink::FileSystemManagerProxy"*, %"class.blink::KURL"*, %"class.WTF::String"*, i64, %"class.mojo::PendingReceiver"*, %"class.mojo::PendingRemote.85"*)* @_ZN5blink5mojom5blink22FileSystemManagerProxy5WriteERKNS_4KURLERKN3WTF6StringElN4mojo15PendingReceiverINS1_30FileSystemCancellableOperationEEENSA_13PendingRemoteINS1_27FileSystemOperationListenerEEE to i8*), i8* bitcast (i1 (%"class.blink::mojom::blink::FileSystemManagerProxy"*, %"class.blink::KURL"*, %"class.WTF::String"*, i64, i64*, i32*)* @_ZN5blink5mojom5blink22FileSystemManagerProxy9WriteSyncERKNS_4KURLERKN3WTF6StringElPlPN4base4File5ErrorE to i8*), i8* bitcast (void (%"class.blink::mojom::blink::FileSystemManagerProxy"*, %"class.blink::KURL"*, %"class.WTF::String"*, i64, %"class.base::OnceCallback.93"*)* @_ZN5blink5mojom5blink22FileSystemManagerProxy9WriteSyncERKNS_4KURLERKN3WTF6StringElN4base12OnceCallbackIFvlNSA_4File5ErrorEEEE to i8*), i8* bitcast (void (%"class.blink::mojom::blink::FileSystemManagerProxy"*, %"class.blink::KURL"*, i64, %"class.mojo::PendingReceiver"*, %"class.base::OnceCallback"*)* @_ZN5blink5mojom5blink22FileSystemManagerProxy8TruncateERKNS_4KURLElN4mojo15PendingReceiverINS1_30FileSystemCancellableOperationEEEN4base12OnceCallbackIFvNSA_4File5ErrorEEEE to i8*), i8* bitcast (i1 (%"class.blink::mojom::blink::FileSystemManagerProxy"*, %"class.blink::KURL"*, i64, i32*)* @_ZN5blink5mojom5blink22FileSystemManagerProxy12TruncateSyncERKNS_4KURLElPN4base4File5ErrorE to i8*), i8* bitcast (void (%"class.blink::mojom::blink::FileSystemManagerProxy"*, %"class.blink::KURL"*, i64, %"class.base::OnceCallback"*)* @_ZN5blink5mojom5blink22FileSystemManagerProxy12TruncateSyncERKNS_4KURLElN4base12OnceCallbackIFvNS6_4File5ErrorEEEE to i8*), i8* bitcast (i1 (%"class.blink::mojom::blink::FileSystemManagerProxy"*, %"class.blink::KURL"*, %"struct.base::File::Info"*, %"class.base::FilePath"*, i32*, %"class.mojo::PendingRemote"*)* @_ZN5blink5mojom5blink22FileSystemManagerProxy18CreateSnapshotFileERKNS_4KURLEPN4base4File4InfoEPNS6_8FilePathEPNS7_5ErrorEPN4mojo13PendingRemoteINS1_24ReceivedSnapshotListenerEEE to i8*), i8* bitcast (void (%"class.blink::mojom::blink::FileSystemManagerProxy"*, %"class.blink::KURL"*, %"class.base::OnceCallback.97"*)* @_ZN5blink5mojom5blink22FileSystemManagerProxy18CreateSnapshotFileERKNS_4KURLEN4base12OnceCallbackIFvRKNS6_4File4InfoERKNS6_8FilePathENS8_5ErrorEN4mojo13PendingRemoteINS1_24ReceivedSnapshotListenerEEEEEE to i8*), i8* bitcast (i1 (%"class.blink::mojom::blink::FileSystemManagerProxy"*, %"class.blink::KURL"*, %"class.base::FilePath"*)* @_ZN5blink5mojom5blink22FileSystemManagerProxy15GetPlatformPathERKNS_4KURLEPN4base8FilePathE to i8*), i8* bitcast (void (%"class.blink::mojom::blink::FileSystemManagerProxy"*, %"class.blink::KURL"*, %"class.base::OnceCallback.99"*)* @_ZN5blink5mojom5blink22FileSystemManagerProxy15GetPlatformPathERKNS_4KURLEN4base12OnceCallbackIFvRKNS6_8FilePathEEEE to i8*)] }, align 8
@_ZN5blink5mojom5blinkL32kFileSystemManagerValidationInfoE = internal constant [16 x %"struct.mojo::internal::GenericValidationInfo"] [%"struct.mojo::internal::GenericValidationInfo" { i1 (i8*, %"class.mojo::internal::ValidationContext"*)* @_ZN5blink5mojom8internal34FileSystemManager_Open_Params_Data8ValidateEPKvPN4mojo8internal17ValidationContextE, i1 (i8*, %"class.mojo::internal::ValidationContext"*)* @_ZN5blink5mojom8internal42FileSystemManager_Open_ResponseParams_Data8ValidateEPKvPN4mojo8internal17ValidationContextE }, %"struct.mojo::internal::GenericValidationInfo" { i1 (i8*, %"class.mojo::internal::ValidationContext"*)* @_ZN5blink5mojom8internal40FileSystemManager_ResolveURL_Params_Data8ValidateEPKvPN4mojo8internal17ValidationContextE, i1 (i8*, %"class.mojo::internal::ValidationContext"*)* @_ZN5blink5mojom8internal48FileSystemManager_ResolveURL_ResponseParams_Data8ValidateEPKvPN4mojo8internal17ValidationContextE }, %"struct.mojo::internal::GenericValidationInfo" { i1 (i8*, %"class.mojo::internal::ValidationContext"*)* @_ZN5blink5mojom8internal34FileSystemManager_Move_Params_Data8ValidateEPKvPN4mojo8internal17ValidationContextE, i1 (i8*, %"class.mojo::internal::ValidationContext"*)* @_ZN5blink5mojom8internal42FileSystemManager_Move_ResponseParams_Data8ValidateEPKvPN4mojo8internal17ValidationContextE }, %"struct.mojo::internal::GenericValidationInfo" { i1 (i8*, %"class.mojo::internal::ValidationContext"*)* @_ZN5blink5mojom8internal34FileSystemManager_Copy_Params_Data8ValidateEPKvPN4mojo8internal17ValidationContextE, i1 (i8*, %"class.mojo::internal::ValidationContext"*)* @_ZN5blink5mojom8internal42FileSystemManager_Copy_ResponseParams_Data8ValidateEPKvPN4mojo8internal17ValidationContextE }, %"struct.mojo::internal::GenericValidationInfo" { i1 (i8*, %"class.mojo::internal::ValidationContext"*)* @_ZN5blink5mojom8internal36FileSystemManager_Remove_Params_Data8ValidateEPKvPN4mojo8internal17ValidationContextE, i1 (i8*, %"class.mojo::internal::ValidationContext"*)* @_ZN5blink5mojom8internal44FileSystemManager_Remove_ResponseParams_Data8ValidateEPKvPN4mojo8internal17ValidationContextE }, %"struct.mojo::internal::GenericValidationInfo" { i1 (i8*, %"class.mojo::internal::ValidationContext"*)* @_ZN5blink5mojom8internal42FileSystemManager_ReadMetadata_Params_Data8ValidateEPKvPN4mojo8internal17ValidationContextE, i1 (i8*, %"class.mojo::internal::ValidationContext"*)* @_ZN5blink5mojom8internal50FileSystemManager_ReadMetadata_ResponseParams_Data8ValidateEPKvPN4mojo8internal17ValidationContextE }, %"struct.mojo::internal::GenericValidationInfo" { i1 (i8*, %"class.mojo::internal::ValidationContext"*)* @_ZN5blink5mojom8internal36FileSystemManager_Create_Params_Data8ValidateEPKvPN4mojo8internal17ValidationContextE, i1 (i8*, %"class.mojo::internal::ValidationContext"*)* @_ZN5blink5mojom8internal44FileSystemManager_Create_ResponseParams_Data8ValidateEPKvPN4mojo8internal17ValidationContextE }, %"struct.mojo::internal::GenericValidationInfo" { i1 (i8*, %"class.mojo::internal::ValidationContext"*)* @_ZN5blink5mojom8internal36FileSystemManager_Exists_Params_Data8ValidateEPKvPN4mojo8internal17ValidationContextE, i1 (i8*, %"class.mojo::internal::ValidationContext"*)* @_ZN5blink5mojom8internal44FileSystemManager_Exists_ResponseParams_Data8ValidateEPKvPN4mojo8internal17ValidationContextE }, %"struct.mojo::internal::GenericValidationInfo" { i1 (i8*, %"class.mojo::internal::ValidationContext"*)* @_ZN5blink5mojom8internal43FileSystemManager_ReadDirectory_Params_Data8ValidateEPKvPN4mojo8internal17ValidationContextE, i1 (i8*, %"class.mojo::internal::ValidationContext"*)* null }, %"struct.mojo::internal::GenericValidationInfo" { i1 (i8*, %"class.mojo::internal::ValidationContext"*)* @_ZN5blink5mojom8internal47FileSystemManager_ReadDirectorySync_Params_Data8ValidateEPKvPN4mojo8internal17ValidationContextE, i1 (i8*, %"class.mojo::internal::ValidationContext"*)* @_ZN5blink5mojom8internal55FileSystemManager_ReadDirectorySync_ResponseParams_Data8ValidateEPKvPN4mojo8internal17ValidationContextE }, %"struct.mojo::internal::GenericValidationInfo" { i1 (i8*, %"class.mojo::internal::ValidationContext"*)* @_ZN5blink5mojom8internal35FileSystemManager_Write_Params_Data8ValidateEPKvPN4mojo8internal17ValidationContextE, i1 (i8*, %"class.mojo::internal::ValidationContext"*)* null }, %"struct.mojo::internal::GenericValidationInfo" { i1 (i8*, %"class.mojo::internal::ValidationContext"*)* @_ZN5blink5mojom8internal39FileSystemManager_WriteSync_Params_Data8ValidateEPKvPN4mojo8internal17ValidationContextE, i1 (i8*, %"class.mojo::internal::ValidationContext"*)* @_ZN5blink5mojom8internal47FileSystemManager_WriteSync_ResponseParams_Data8ValidateEPKvPN4mojo8internal17ValidationContextE }, %"struct.mojo::internal::GenericValidationInfo" { i1 (i8*, %"class.mojo::internal::ValidationContext"*)* @_ZN5blink5mojom8internal38FileSystemManager_Truncate_Params_Data8ValidateEPKvPN4mojo8internal17ValidationContextE, i1 (i8*, %"class.mojo::internal::ValidationContext"*)* @_ZN5blink5mojom8internal46FileSystemManager_Truncate_ResponseParams_Data8ValidateEPKvPN4mojo8internal17ValidationContextE }, %"struct.mojo::internal::GenericValidationInfo" { i1 (i8*, %"class.mojo::internal::ValidationContext"*)* @_ZN5blink5mojom8internal42FileSystemManager_TruncateSync_Params_Data8ValidateEPKvPN4mojo8internal17ValidationContextE, i1 (i8*, %"class.mojo::internal::ValidationContext"*)* @_ZN5blink5mojom8internal50FileSystemManager_TruncateSync_ResponseParams_Data8ValidateEPKvPN4mojo8internal17ValidationContextE }, %"struct.mojo::internal::GenericValidationInfo" { i1 (i8*, %"class.mojo::internal::ValidationContext"*)* @_ZN5blink5mojom8internal48FileSystemManager_CreateSnapshotFile_Params_Data8ValidateEPKvPN4mojo8internal17ValidationContextE, i1 (i8*, %"class.mojo::internal::ValidationContext"*)* @_ZN5blink5mojom8internal56FileSystemManager_CreateSnapshotFile_ResponseParams_Data8ValidateEPKvPN4mojo8internal17ValidationContextE }, %"struct.mojo::internal::GenericValidationInfo" { i1 (i8*, %"class.mojo::internal::ValidationContext"*)* @_ZN5blink5mojom8internal45FileSystemManager_GetPlatformPath_Params_Data8ValidateEPKvPN4mojo8internal17ValidationContextE, i1 (i8*, %"class.mojo::internal::ValidationContext"*)* @_ZN5blink5mojom8internal53FileSystemManager_GetPlatformPath_ResponseParams_Data8ValidateEPKvPN4mojo8internal17ValidationContextE }], align 16
@_ZTVN5blink5mojom5blink55FileSystemCancellableOperation_Cancel_ForwardToCallbackE = hidden unnamed_addr constant { [6 x i8*] } { [6 x i8*] [i8* null, i8* null, i8* bitcast (void (%"class.blink::mojom::blink::FileSystemCancellableOperation_Cancel_ForwardToCallback"*)* @_ZN5blink5mojom5blink55FileSystemCancellableOperation_Cancel_ForwardToCallbackD2Ev to i8*), i8* bitcast (void (%"class.blink::mojom::blink::FileSystemCancellableOperation_Cancel_ForwardToCallback"*)* @_ZN5blink5mojom5blink55FileSystemCancellableOperation_Cancel_ForwardToCallbackD0Ev to i8*), i8* bitcast (i1 (%"class.mojo::MessageReceiver"*)* @_ZN4mojo15MessageReceiver25PrefersSerializedMessagesEv to i8*), i8* bitcast (i1 (%"class.blink::mojom::blink::FileSystemCancellableOperation_Cancel_ForwardToCallback"*, %"class.mojo::Message"*)* @_ZN5blink5mojom5blink55FileSystemCancellableOperation_Cancel_ForwardToCallback6AcceptEPN4mojo7MessageE to i8*)] }, align 8
@_ZTVN5blink5mojom5blink46FileSystemCancellableOperationRequestValidatorE = hidden unnamed_addr constant { [6 x i8*] } { [6 x i8*] [i8* null, i8* null, i8* bitcast (void (%"class.mojo::MessageReceiver"*)* @_ZN4mojo15MessageReceiverD2Ev to i8*), i8* bitcast (void (%"class.blink::mojom::blink::FileSystemCancellableOperationRequestValidator"*)* @_ZN5blink5mojom5blink46FileSystemCancellableOperationRequestValidatorD0Ev to i8*), i8* bitcast (i1 (%"class.mojo::MessageReceiver"*)* @_ZN4mojo15MessageReceiver25PrefersSerializedMessagesEv to i8*), i8* bitcast (i1 (%"class.blink::mojom::blink::FileSystemCancellableOperationRequestValidator"*, %"class.mojo::Message"*)* @_ZN5blink5mojom5blink46FileSystemCancellableOperationRequestValidator6AcceptEPN4mojo7MessageE to i8*)] }, align 8
@_ZTVN5blink5mojom5blink47FileSystemCancellableOperationResponseValidatorE = hidden unnamed_addr constant { [6 x i8*] } { [6 x i8*] [i8* null, i8* null, i8* bitcast (void (%"class.mojo::MessageReceiver"*)* @_ZN4mojo15MessageReceiverD2Ev to i8*), i8* bitcast (void (%"class.blink::mojom::blink::FileSystemCancellableOperationResponseValidator"*)* @_ZN5blink5mojom5blink47FileSystemCancellableOperationResponseValidatorD0Ev to i8*), i8* bitcast (i1 (%"class.mojo::MessageReceiver"*)* @_ZN4mojo15MessageReceiver25PrefersSerializedMessagesEv to i8*), i8* bitcast (i1 (%"class.blink::mojom::blink::FileSystemCancellableOperationResponseValidator"*, %"class.mojo::Message"*)* @_ZN5blink5mojom5blink47FileSystemCancellableOperationResponseValidator6AcceptEPN4mojo7MessageE to i8*)] }, align 8
@_ZTVN5blink5mojom5blink43FileSystemOperationListenerRequestValidatorE = hidden unnamed_addr constant { [6 x i8*] } { [6 x i8*] [i8* null, i8* null, i8* bitcast (void (%"class.mojo::MessageReceiver"*)* @_ZN4mojo15MessageReceiverD2Ev to i8*), i8* bitcast (void (%"class.blink::mojom::blink::FileSystemOperationListenerRequestValidator"*)* @_ZN5blink5mojom5blink43FileSystemOperationListenerRequestValidatorD0Ev to i8*), i8* bitcast (i1 (%"class.mojo::MessageReceiver"*)* @_ZN4mojo15MessageReceiver25PrefersSerializedMessagesEv to i8*), i8* bitcast (i1 (%"class.blink::mojom::blink::FileSystemOperationListenerRequestValidator"*, %"class.mojo::Message"*)* @_ZN5blink5mojom5blink43FileSystemOperationListenerRequestValidator6AcceptEPN4mojo7MessageE to i8*)] }, align 8
@_ZTVN5blink5mojom5blink40ReceivedSnapshotListenerRequestValidatorE = hidden unnamed_addr constant { [6 x i8*] } { [6 x i8*] [i8* null, i8* null, i8* bitcast (void (%"class.mojo::MessageReceiver"*)* @_ZN4mojo15MessageReceiverD2Ev to i8*), i8* bitcast (void (%"class.blink::mojom::blink::ReceivedSnapshotListenerRequestValidator"*)* @_ZN5blink5mojom5blink40ReceivedSnapshotListenerRequestValidatorD0Ev to i8*), i8* bitcast (i1 (%"class.mojo::MessageReceiver"*)* @_ZN4mojo15MessageReceiver25PrefersSerializedMessagesEv to i8*), i8* bitcast (i1 (%"class.blink::mojom::blink::ReceivedSnapshotListenerRequestValidator"*, %"class.mojo::Message"*)* @_ZN5blink5mojom5blink40ReceivedSnapshotListenerRequestValidator6AcceptEPN4mojo7MessageE to i8*)] }, align 8
@_ZTVN5blink5mojom5blink17FileSystemManagerE = hidden unnamed_addr constant { [33 x i8*] } { [33 x i8*] [i8* null, i8* null, i8* bitcast (void (%"class.blink::mojom::blink::FileSystemManager"*)* @_ZN5blink5mojom5blink17FileSystemManagerD2Ev to i8*), i8* bitcast (void (%"class.blink::mojom::blink::FileSystemManager"*)* @_ZN5blink5mojom5blink17FileSystemManagerD0Ev to i8*), i8* bitcast (i1 (%"class.blink::mojom::blink::FileSystemManager"*, %class.scoped_refptr.58*, i32, %"class.WTF::String"*, %"class.blink::KURL"*, i32*)* @_ZN5blink5mojom5blink17FileSystemManager4OpenERK13scoped_refptrIKNS_14SecurityOriginEENS0_14FileSystemTypeEPN3WTF6StringEPNS_4KURLEPN4base4File5ErrorE to i8*), i8* bitcast (void ()* @__cxa_pure_virtual to i8*), i8* bitcast (i1 (%"class.blink::mojom::blink::FileSystemManager"*, %"class.blink::KURL"*, %"class.mojo::StructPtr.60"*, %"class.base::FilePath"*, i8*, i32*)* @_ZN5blink5mojom5blink17FileSystemManager10ResolveURLERKNS_4KURLEPN4mojo9StructPtrINS1_14FileSystemInfoEEEPN4base8FilePathEPbPNSB_4File5ErrorE to i8*), i8* bitcast (void ()* @__cxa_pure_virtual to i8*), i8* bitcast (i1 (%"class.blink::mojom::blink::FileSystemManager"*, %"class.blink::KURL"*, %"class.blink::KURL"*, i32*)* @_ZN5blink5mojom5blink17FileSystemManager4MoveERKNS_4KURLES5_PN4base4File5ErrorE to i8*), i8* bitcast (void ()* @__cxa_pure_virtual to i8*), i8* bitcast (i1 (%"class.blink::mojom::blink::FileSystemManager"*, %"class.blink::KURL"*, %"class.blink::KURL"*, i32*)* @_ZN5blink5mojom5blink17FileSystemManager4CopyERKNS_4KURLES5_PN4base4File5ErrorE to i8*), i8* bitcast (void ()* @__cxa_pure_virtual to i8*), i8* bitcast (i1 (%"class.blink::mojom::blink::FileSystemManager"*, %"class.blink::KURL"*, i1, i32*)* @_ZN5blink5mojom5blink17FileSystemManager6RemoveERKNS_4KURLEbPN4base4File5ErrorE to i8*), i8* bitcast (void ()* @__cxa_pure_virtual to i8*), i8* bitcast (i1 (%"class.blink::mojom::blink::FileSystemManager"*, %"class.blink::KURL"*, %"struct.base::File::Info"*, i32*)* @_ZN5blink5mojom5blink17FileSystemManager12ReadMetadataERKNS_4KURLEPN4base4File4InfoEPNS7_5ErrorE to i8*), i8* bitcast (void ()* @__cxa_pure_virtual to i8*), i8* bitcast (i1 (%"class.blink::mojom::blink::FileSystemManager"*, %"class.blink::KURL"*, i1, i1, i1, i32*)* @_ZN5blink5mojom5blink17FileSystemManager6CreateERKNS_4KURLEbbbPN4base4File5ErrorE to i8*), i8* bitcast (void ()* @__cxa_pure_virtual to i8*), i8* bitcast (i1 (%"class.blink::mojom::blink::FileSystemManager"*, %"class.blink::KURL"*, i1, i32*)* @_ZN5blink5mojom5blink17FileSystemManager6ExistsERKNS_4KURLEbPN4base4File5ErrorE to i8*), i8* bitcast (void ()* @__cxa_pure_virtual to i8*), i8* bitcast (void ()* @__cxa_pure_virtual to i8*), i8* bitcast (i1 (%"class.blink::mojom::blink::FileSystemManager"*, %"class.blink::KURL"*, %"class.WTF::Vector"*, i32*)* @_ZN5blink5mojom5blink17FileSystemManager17ReadDirectorySyncERKNS_4KURLEPN3WTF6VectorIN4mojo9StructPtrIN10filesystem5mojom5blink14DirectoryEntryEEELj0ENS6_18PartitionAllocatorEEEPN4base4File5ErrorE to i8*), i8* bitcast (void ()* @__cxa_pure_virtual to i8*), i8* bitcast (void ()* @__cxa_pure_virtual to i8*), i8* bitcast (i1 (%"class.blink::mojom::blink::FileSystemManager"*, %"class.blink::KURL"*, %"class.WTF::String"*, i64, i64*, i32*)* @_ZN5blink5mojom5blink17FileSystemManager9WriteSyncERKNS_4KURLERKN3WTF6StringElPlPN4base4File5ErrorE to i8*), i8* bitcast (void ()* @__cxa_pure_virtual to i8*), i8* bitcast (void ()* @__cxa_pure_virtual to i8*), i8* bitcast (i1 (%"class.blink::mojom::blink::FileSystemManager"*, %"class.blink::KURL"*, i64, i32*)* @_ZN5blink5mojom5blink17FileSystemManager12TruncateSyncERKNS_4KURLElPN4base4File5ErrorE to i8*), i8* bitcast (void ()* @__cxa_pure_virtual to i8*), i8* bitcast (i1 (%"class.blink::mojom::blink::FileSystemManager"*, %"class.blink::KURL"*, %"struct.base::File::Info"*, %"class.base::FilePath"*, i32*, %"class.mojo::PendingRemote"*)* @_ZN5blink5mojom5blink17FileSystemManager18CreateSnapshotFileERKNS_4KURLEPN4base4File4InfoEPNS6_8FilePathEPNS7_5ErrorEPN4mojo13PendingRemoteINS1_24ReceivedSnapshotListenerEEE to i8*), i8* bitcast (void ()* @__cxa_pure_virtual to i8*), i8* bitcast (i1 (%"class.blink::mojom::blink::FileSystemManager"*, %"class.blink::KURL"*, %"class.base::FilePath"*)* @_ZN5blink5mojom5blink17FileSystemManager15GetPlatformPathERKNS_4KURLEPN4base8FilePathE to i8*), i8* bitcast (void ()* @__cxa_pure_virtual to i8*)] }, align 8
@_ZTVN5blink5mojom5blink41FileSystemManager_Open_HandleSyncResponseE = hidden unnamed_addr constant { [6 x i8*] } { [6 x i8*] [i8* null, i8* null, i8* bitcast (void (%"class.mojo::MessageReceiver"*)* @_ZN4mojo15MessageReceiverD2Ev to i8*), i8* bitcast (void (%"class.blink::mojom::blink::FileSystemManager_Open_HandleSyncResponse"*)* @_ZN5blink5mojom5blink41FileSystemManager_Open_HandleSyncResponseD0Ev to i8*), i8* bitcast (i1 (%"class.mojo::MessageReceiver"*)* @_ZN4mojo15MessageReceiver25PrefersSerializedMessagesEv to i8*), i8* bitcast (i1 (%"class.blink::mojom::blink::FileSystemManager_Open_HandleSyncResponse"*, %"class.mojo::Message"*)* @_ZN5blink5mojom5blink41FileSystemManager_Open_HandleSyncResponse6AcceptEPN4mojo7MessageE to i8*)] }, align 8
@_ZTVN5blink5mojom5blink40FileSystemManager_Open_ForwardToCallbackE = hidden unnamed_addr constant { [6 x i8*] } { [6 x i8*] [i8* null, i8* null, i8* bitcast (void (%"class.blink::mojom::blink::FileSystemManager_Open_ForwardToCallback"*)* @_ZN5blink5mojom5blink40FileSystemManager_Open_ForwardToCallbackD2Ev to i8*), i8* bitcast (void (%"class.blink::mojom::blink::FileSystemManager_Open_ForwardToCallback"*)* @_ZN5blink5mojom5blink40FileSystemManager_Open_ForwardToCallbackD0Ev to i8*), i8* bitcast (i1 (%"class.mojo::MessageReceiver"*)* @_ZN4mojo15MessageReceiver25PrefersSerializedMessagesEv to i8*), i8* bitcast (i1 (%"class.blink::mojom::blink::FileSystemManager_Open_ForwardToCallback"*, %"class.mojo::Message"*)* @_ZN5blink5mojom5blink40FileSystemManager_Open_ForwardToCallback6AcceptEPN4mojo7MessageE to i8*)] }, align 8
@_ZTVN5blink5mojom5blink47FileSystemManager_ResolveURL_HandleSyncResponseE = hidden unnamed_addr constant { [6 x i8*] } { [6 x i8*] [i8* null, i8* null, i8* bitcast (void (%"class.mojo::MessageReceiver"*)* @_ZN4mojo15MessageReceiverD2Ev to i8*), i8* bitcast (void (%"class.blink::mojom::blink::FileSystemManager_ResolveURL_HandleSyncResponse"*)* @_ZN5blink5mojom5blink47FileSystemManager_ResolveURL_HandleSyncResponseD0Ev to i8*), i8* bitcast (i1 (%"class.mojo::MessageReceiver"*)* @_ZN4mojo15MessageReceiver25PrefersSerializedMessagesEv to i8*), i8* bitcast (i1 (%"class.blink::mojom::blink::FileSystemManager_ResolveURL_HandleSyncResponse"*, %"class.mojo::Message"*)* @_ZN5blink5mojom5blink47FileSystemManager_ResolveURL_HandleSyncResponse6AcceptEPN4mojo7MessageE to i8*)] }, align 8
@_ZTVN5blink5mojom5blink46FileSystemManager_ResolveURL_ForwardToCallbackE = hidden unnamed_addr constant { [6 x i8*] } { [6 x i8*] [i8* null, i8* null, i8* bitcast (void (%"class.blink::mojom::blink::FileSystemManager_ResolveURL_ForwardToCallback"*)* @_ZN5blink5mojom5blink46FileSystemManager_ResolveURL_ForwardToCallbackD2Ev to i8*), i8* bitcast (void (%"class.blink::mojom::blink::FileSystemManager_ResolveURL_ForwardToCallback"*)* @_ZN5blink5mojom5blink46FileSystemManager_ResolveURL_ForwardToCallbackD0Ev to i8*), i8* bitcast (i1 (%"class.mojo::MessageReceiver"*)* @_ZN4mojo15MessageReceiver25PrefersSerializedMessagesEv to i8*), i8* bitcast (i1 (%"class.blink::mojom::blink::FileSystemManager_ResolveURL_ForwardToCallback"*, %"class.mojo::Message"*)* @_ZN5blink5mojom5blink46FileSystemManager_ResolveURL_ForwardToCallback6AcceptEPN4mojo7MessageE to i8*)] }, align 8
@_ZTVN5blink5mojom5blink41FileSystemManager_Move_HandleSyncResponseE = hidden unnamed_addr constant { [6 x i8*] } { [6 x i8*] [i8* null, i8* null, i8* bitcast (void (%"class.mojo::MessageReceiver"*)* @_ZN4mojo15MessageReceiverD2Ev to i8*), i8* bitcast (void (%"class.blink::mojom::blink::FileSystemManager_Move_HandleSyncResponse"*)* @_ZN5blink5mojom5blink41FileSystemManager_Move_HandleSyncResponseD0Ev to i8*), i8* bitcast (i1 (%"class.mojo::MessageReceiver"*)* @_ZN4mojo15MessageReceiver25PrefersSerializedMessagesEv to i8*), i8* bitcast (i1 (%"class.blink::mojom::blink::FileSystemManager_Move_HandleSyncResponse"*, %"class.mojo::Message"*)* @_ZN5blink5mojom5blink41FileSystemManager_Move_HandleSyncResponse6AcceptEPN4mojo7MessageE to i8*)] }, align 8
@_ZTVN5blink5mojom5blink40FileSystemManager_Move_ForwardToCallbackE = hidden unnamed_addr constant { [6 x i8*] } { [6 x i8*] [i8* null, i8* null, i8* bitcast (void (%"class.blink::mojom::blink::FileSystemManager_Move_ForwardToCallback"*)* @_ZN5blink5mojom5blink40FileSystemManager_Move_ForwardToCallbackD2Ev to i8*), i8* bitcast (void (%"class.blink::mojom::blink::FileSystemManager_Move_ForwardToCallback"*)* @_ZN5blink5mojom5blink40FileSystemManager_Move_ForwardToCallbackD0Ev to i8*), i8* bitcast (i1 (%"class.mojo::MessageReceiver"*)* @_ZN4mojo15MessageReceiver25PrefersSerializedMessagesEv to i8*), i8* bitcast (i1 (%"class.blink::mojom::blink::FileSystemManager_Move_ForwardToCallback"*, %"class.mojo::Message"*)* @_ZN5blink5mojom5blink40FileSystemManager_Move_ForwardToCallback6AcceptEPN4mojo7MessageE to i8*)] }, align 8
@_ZTVN5blink5mojom5blink41FileSystemManager_Copy_HandleSyncResponseE = hidden unnamed_addr constant { [6 x i8*] } { [6 x i8*] [i8* null, i8* null, i8* bitcast (void (%"class.mojo::MessageReceiver"*)* @_ZN4mojo15MessageReceiverD2Ev to i8*), i8* bitcast (void (%"class.blink::mojom::blink::FileSystemManager_Copy_HandleSyncResponse"*)* @_ZN5blink5mojom5blink41FileSystemManager_Copy_HandleSyncResponseD0Ev to i8*), i8* bitcast (i1 (%"class.mojo::MessageReceiver"*)* @_ZN4mojo15MessageReceiver25PrefersSerializedMessagesEv to i8*), i8* bitcast (i1 (%"class.blink::mojom::blink::FileSystemManager_Copy_HandleSyncResponse"*, %"class.mojo::Message"*)* @_ZN5blink5mojom5blink41FileSystemManager_Copy_HandleSyncResponse6AcceptEPN4mojo7MessageE to i8*)] }, align 8
@_ZTVN5blink5mojom5blink40FileSystemManager_Copy_ForwardToCallbackE = hidden unnamed_addr constant { [6 x i8*] } { [6 x i8*] [i8* null, i8* null, i8* bitcast (void (%"class.blink::mojom::blink::FileSystemManager_Copy_ForwardToCallback"*)* @_ZN5blink5mojom5blink40FileSystemManager_Copy_ForwardToCallbackD2Ev to i8*), i8* bitcast (void (%"class.blink::mojom::blink::FileSystemManager_Copy_ForwardToCallback"*)* @_ZN5blink5mojom5blink40FileSystemManager_Copy_ForwardToCallbackD0Ev to i8*), i8* bitcast (i1 (%"class.mojo::MessageReceiver"*)* @_ZN4mojo15MessageReceiver25PrefersSerializedMessagesEv to i8*), i8* bitcast (i1 (%"class.blink::mojom::blink::FileSystemManager_Copy_ForwardToCallback"*, %"class.mojo::Message"*)* @_ZN5blink5mojom5blink40FileSystemManager_Copy_ForwardToCallback6AcceptEPN4mojo7MessageE to i8*)] }, align 8
@_ZTVN5blink5mojom5blink43FileSystemManager_Remove_HandleSyncResponseE = hidden unnamed_addr constant { [6 x i8*] } { [6 x i8*] [i8* null, i8* null, i8* bitcast (void (%"class.mojo::MessageReceiver"*)* @_ZN4mojo15MessageReceiverD2Ev to i8*), i8* bitcast (void (%"class.blink::mojom::blink::FileSystemManager_Remove_HandleSyncResponse"*)* @_ZN5blink5mojom5blink43FileSystemManager_Remove_HandleSyncResponseD0Ev to i8*), i8* bitcast (i1 (%"class.mojo::MessageReceiver"*)* @_ZN4mojo15MessageReceiver25PrefersSerializedMessagesEv to i8*), i8* bitcast (i1 (%"class.blink::mojom::blink::FileSystemManager_Remove_HandleSyncResponse"*, %"class.mojo::Message"*)* @_ZN5blink5mojom5blink43FileSystemManager_Remove_HandleSyncResponse6AcceptEPN4mojo7MessageE to i8*)] }, align 8
@_ZTVN5blink5mojom5blink42FileSystemManager_Remove_ForwardToCallbackE = hidden unnamed_addr constant { [6 x i8*] } { [6 x i8*] [i8* null, i8* null, i8* bitcast (void (%"class.blink::mojom::blink::FileSystemManager_Remove_ForwardToCallback"*)* @_ZN5blink5mojom5blink42FileSystemManager_Remove_ForwardToCallbackD2Ev to i8*), i8* bitcast (void (%"class.blink::mojom::blink::FileSystemManager_Remove_ForwardToCallback"*)* @_ZN5blink5mojom5blink42FileSystemManager_Remove_ForwardToCallbackD0Ev to i8*), i8* bitcast (i1 (%"class.mojo::MessageReceiver"*)* @_ZN4mojo15MessageReceiver25PrefersSerializedMessagesEv to i8*), i8* bitcast (i1 (%"class.blink::mojom::blink::FileSystemManager_Remove_ForwardToCallback"*, %"class.mojo::Message"*)* @_ZN5blink5mojom5blink42FileSystemManager_Remove_ForwardToCallback6AcceptEPN4mojo7MessageE to i8*)] }, align 8
@_ZTVN5blink5mojom5blink49FileSystemManager_ReadMetadata_HandleSyncResponseE = hidden unnamed_addr constant { [6 x i8*] } { [6 x i8*] [i8* null, i8* null, i8* bitcast (void (%"class.mojo::MessageReceiver"*)* @_ZN4mojo15MessageReceiverD2Ev to i8*), i8* bitcast (void (%"class.blink::mojom::blink::FileSystemManager_ReadMetadata_HandleSyncResponse"*)* @_ZN5blink5mojom5blink49FileSystemManager_ReadMetadata_HandleSyncResponseD0Ev to i8*), i8* bitcast (i1 (%"class.mojo::MessageReceiver"*)* @_ZN4mojo15MessageReceiver25PrefersSerializedMessagesEv to i8*), i8* bitcast (i1 (%"class.blink::mojom::blink::FileSystemManager_ReadMetadata_HandleSyncResponse"*, %"class.mojo::Message"*)* @_ZN5blink5mojom5blink49FileSystemManager_ReadMetadata_HandleSyncResponse6AcceptEPN4mojo7MessageE to i8*)] }, align 8
@_ZTVN5blink5mojom5blink48FileSystemManager_ReadMetadata_ForwardToCallbackE = hidden unnamed_addr constant { [6 x i8*] } { [6 x i8*] [i8* null, i8* null, i8* bitcast (void (%"class.blink::mojom::blink::FileSystemManager_ReadMetadata_ForwardToCallback"*)* @_ZN5blink5mojom5blink48FileSystemManager_ReadMetadata_ForwardToCallbackD2Ev to i8*), i8* bitcast (void (%"class.blink::mojom::blink::FileSystemManager_ReadMetadata_ForwardToCallback"*)* @_ZN5blink5mojom5blink48FileSystemManager_ReadMetadata_ForwardToCallbackD0Ev to i8*), i8* bitcast (i1 (%"class.mojo::MessageReceiver"*)* @_ZN4mojo15MessageReceiver25PrefersSerializedMessagesEv to i8*), i8* bitcast (i1 (%"class.blink::mojom::blink::FileSystemManager_ReadMetadata_ForwardToCallback"*, %"class.mojo::Message"*)* @_ZN5blink5mojom5blink48FileSystemManager_ReadMetadata_ForwardToCallback6AcceptEPN4mojo7MessageE to i8*)] }, align 8
@_ZTVN5blink5mojom5blink43FileSystemManager_Create_HandleSyncResponseE = hidden unnamed_addr constant { [6 x i8*] } { [6 x i8*] [i8* null, i8* null, i8* bitcast (void (%"class.mojo::MessageReceiver"*)* @_ZN4mojo15MessageReceiverD2Ev to i8*), i8* bitcast (void (%"class.blink::mojom::blink::FileSystemManager_Create_HandleSyncResponse"*)* @_ZN5blink5mojom5blink43FileSystemManager_Create_HandleSyncResponseD0Ev to i8*), i8* bitcast (i1 (%"class.mojo::MessageReceiver"*)* @_ZN4mojo15MessageReceiver25PrefersSerializedMessagesEv to i8*), i8* bitcast (i1 (%"class.blink::mojom::blink::FileSystemManager_Create_HandleSyncResponse"*, %"class.mojo::Message"*)* @_ZN5blink5mojom5blink43FileSystemManager_Create_HandleSyncResponse6AcceptEPN4mojo7MessageE to i8*)] }, align 8
@_ZTVN5blink5mojom5blink42FileSystemManager_Create_ForwardToCallbackE = hidden unnamed_addr constant { [6 x i8*] } { [6 x i8*] [i8* null, i8* null, i8* bitcast (void (%"class.blink::mojom::blink::FileSystemManager_Create_ForwardToCallback"*)* @_ZN5blink5mojom5blink42FileSystemManager_Create_ForwardToCallbackD2Ev to i8*), i8* bitcast (void (%"class.blink::mojom::blink::FileSystemManager_Create_ForwardToCallback"*)* @_ZN5blink5mojom5blink42FileSystemManager_Create_ForwardToCallbackD0Ev to i8*), i8* bitcast (i1 (%"class.mojo::MessageReceiver"*)* @_ZN4mojo15MessageReceiver25PrefersSerializedMessagesEv to i8*), i8* bitcast (i1 (%"class.blink::mojom::blink::FileSystemManager_Create_ForwardToCallback"*, %"class.mojo::Message"*)* @_ZN5blink5mojom5blink42FileSystemManager_Create_ForwardToCallback6AcceptEPN4mojo7MessageE to i8*)] }, align 8
@_ZTVN5blink5mojom5blink43FileSystemManager_Exists_HandleSyncResponseE = hidden unnamed_addr constant { [6 x i8*] } { [6 x i8*] [i8* null, i8* null, i8* bitcast (void (%"class.mojo::MessageReceiver"*)* @_ZN4mojo15MessageReceiverD2Ev to i8*), i8* bitcast (void (%"class.blink::mojom::blink::FileSystemManager_Exists_HandleSyncResponse"*)* @_ZN5blink5mojom5blink43FileSystemManager_Exists_HandleSyncResponseD0Ev to i8*), i8* bitcast (i1 (%"class.mojo::MessageReceiver"*)* @_ZN4mojo15MessageReceiver25PrefersSerializedMessagesEv to i8*), i8* bitcast (i1 (%"class.blink::mojom::blink::FileSystemManager_Exists_HandleSyncResponse"*, %"class.mojo::Message"*)* @_ZN5blink5mojom5blink43FileSystemManager_Exists_HandleSyncResponse6AcceptEPN4mojo7MessageE to i8*)] }, align 8
@_ZTVN5blink5mojom5blink42FileSystemManager_Exists_ForwardToCallbackE = hidden unnamed_addr constant { [6 x i8*] } { [6 x i8*] [i8* null, i8* null, i8* bitcast (void (%"class.blink::mojom::blink::FileSystemManager_Exists_ForwardToCallback"*)* @_ZN5blink5mojom5blink42FileSystemManager_Exists_ForwardToCallbackD2Ev to i8*), i8* bitcast (void (%"class.blink::mojom::blink::FileSystemManager_Exists_ForwardToCallback"*)* @_ZN5blink5mojom5blink42FileSystemManager_Exists_ForwardToCallbackD0Ev to i8*), i8* bitcast (i1 (%"class.mojo::MessageReceiver"*)* @_ZN4mojo15MessageReceiver25PrefersSerializedMessagesEv to i8*), i8* bitcast (i1 (%"class.blink::mojom::blink::FileSystemManager_Exists_ForwardToCallback"*, %"class.mojo::Message"*)* @_ZN5blink5mojom5blink42FileSystemManager_Exists_ForwardToCallback6AcceptEPN4mojo7MessageE to i8*)] }, align 8
@_ZTVN5blink5mojom5blink54FileSystemManager_ReadDirectorySync_HandleSyncResponseE = hidden unnamed_addr constant { [6 x i8*] } { [6 x i8*] [i8* null, i8* null, i8* bitcast (void (%"class.mojo::MessageReceiver"*)* @_ZN4mojo15MessageReceiverD2Ev to i8*), i8* bitcast (void (%"class.blink::mojom::blink::FileSystemManager_ReadDirectorySync_HandleSyncResponse"*)* @_ZN5blink5mojom5blink54FileSystemManager_ReadDirectorySync_HandleSyncResponseD0Ev to i8*), i8* bitcast (i1 (%"class.mojo::MessageReceiver"*)* @_ZN4mojo15MessageReceiver25PrefersSerializedMessagesEv to i8*), i8* bitcast (i1 (%"class.blink::mojom::blink::FileSystemManager_ReadDirectorySync_HandleSyncResponse"*, %"class.mojo::Message"*)* @_ZN5blink5mojom5blink54FileSystemManager_ReadDirectorySync_HandleSyncResponse6AcceptEPN4mojo7MessageE to i8*)] }, align 8
@_ZTVN5blink5mojom5blink53FileSystemManager_ReadDirectorySync_ForwardToCallbackE = hidden unnamed_addr constant { [6 x i8*] } { [6 x i8*] [i8* null, i8* null, i8* bitcast (void (%"class.blink::mojom::blink::FileSystemManager_ReadDirectorySync_ForwardToCallback"*)* @_ZN5blink5mojom5blink53FileSystemManager_ReadDirectorySync_ForwardToCallbackD2Ev to i8*), i8* bitcast (void (%"class.blink::mojom::blink::FileSystemManager_ReadDirectorySync_ForwardToCallback"*)* @_ZN5blink5mojom5blink53FileSystemManager_ReadDirectorySync_ForwardToCallbackD0Ev to i8*), i8* bitcast (i1 (%"class.mojo::MessageReceiver"*)* @_ZN4mojo15MessageReceiver25PrefersSerializedMessagesEv to i8*), i8* bitcast (i1 (%"class.blink::mojom::blink::FileSystemManager_ReadDirectorySync_ForwardToCallback"*, %"class.mojo::Message"*)* @_ZN5blink5mojom5blink53FileSystemManager_ReadDirectorySync_ForwardToCallback6AcceptEPN4mojo7MessageE to i8*)] }, align 8
@_ZTVN5blink5mojom5blink46FileSystemManager_WriteSync_HandleSyncResponseE = hidden unnamed_addr constant { [6 x i8*] } { [6 x i8*] [i8* null, i8* null, i8* bitcast (void (%"class.mojo::MessageReceiver"*)* @_ZN4mojo15MessageReceiverD2Ev to i8*), i8* bitcast (void (%"class.blink::mojom::blink::FileSystemManager_WriteSync_HandleSyncResponse"*)* @_ZN5blink5mojom5blink46FileSystemManager_WriteSync_HandleSyncResponseD0Ev to i8*), i8* bitcast (i1 (%"class.mojo::MessageReceiver"*)* @_ZN4mojo15MessageReceiver25PrefersSerializedMessagesEv to i8*), i8* bitcast (i1 (%"class.blink::mojom::blink::FileSystemManager_WriteSync_HandleSyncResponse"*, %"class.mojo::Message"*)* @_ZN5blink5mojom5blink46FileSystemManager_WriteSync_HandleSyncResponse6AcceptEPN4mojo7MessageE to i8*)] }, align 8
@_ZTVN5blink5mojom5blink45FileSystemManager_WriteSync_ForwardToCallbackE = hidden unnamed_addr constant { [6 x i8*] } { [6 x i8*] [i8* null, i8* null, i8* bitcast (void (%"class.blink::mojom::blink::FileSystemManager_WriteSync_ForwardToCallback"*)* @_ZN5blink5mojom5blink45FileSystemManager_WriteSync_ForwardToCallbackD2Ev to i8*), i8* bitcast (void (%"class.blink::mojom::blink::FileSystemManager_WriteSync_ForwardToCallback"*)* @_ZN5blink5mojom5blink45FileSystemManager_WriteSync_ForwardToCallbackD0Ev to i8*), i8* bitcast (i1 (%"class.mojo::MessageReceiver"*)* @_ZN4mojo15MessageReceiver25PrefersSerializedMessagesEv to i8*), i8* bitcast (i1 (%"class.blink::mojom::blink::FileSystemManager_WriteSync_ForwardToCallback"*, %"class.mojo::Message"*)* @_ZN5blink5mojom5blink45FileSystemManager_WriteSync_ForwardToCallback6AcceptEPN4mojo7MessageE to i8*)] }, align 8
@_ZTVN5blink5mojom5blink44FileSystemManager_Truncate_ForwardToCallbackE = hidden unnamed_addr constant { [6 x i8*] } { [6 x i8*] [i8* null, i8* null, i8* bitcast (void (%"class.blink::mojom::blink::FileSystemManager_Truncate_ForwardToCallback"*)* @_ZN5blink5mojom5blink44FileSystemManager_Truncate_ForwardToCallbackD2Ev to i8*), i8* bitcast (void (%"class.blink::mojom::blink::FileSystemManager_Truncate_ForwardToCallback"*)* @_ZN5blink5mojom5blink44FileSystemManager_Truncate_ForwardToCallbackD0Ev to i8*), i8* bitcast (i1 (%"class.mojo::MessageReceiver"*)* @_ZN4mojo15MessageReceiver25PrefersSerializedMessagesEv to i8*), i8* bitcast (i1 (%"class.blink::mojom::blink::FileSystemManager_Truncate_ForwardToCallback"*, %"class.mojo::Message"*)* @_ZN5blink5mojom5blink44FileSystemManager_Truncate_ForwardToCallback6AcceptEPN4mojo7MessageE to i8*)] }, align 8
@_ZTVN5blink5mojom5blink49FileSystemManager_TruncateSync_HandleSyncResponseE = hidden unnamed_addr constant { [6 x i8*] } { [6 x i8*] [i8* null, i8* null, i8* bitcast (void (%"class.mojo::MessageReceiver"*)* @_ZN4mojo15MessageReceiverD2Ev to i8*), i8* bitcast (void (%"class.blink::mojom::blink::FileSystemManager_TruncateSync_HandleSyncResponse"*)* @_ZN5blink5mojom5blink49FileSystemManager_TruncateSync_HandleSyncResponseD0Ev to i8*), i8* bitcast (i1 (%"class.mojo::MessageReceiver"*)* @_ZN4mojo15MessageReceiver25PrefersSerializedMessagesEv to i8*), i8* bitcast (i1 (%"class.blink::mojom::blink::FileSystemManager_TruncateSync_HandleSyncResponse"*, %"class.mojo::Message"*)* @_ZN5blink5mojom5blink49FileSystemManager_TruncateSync_HandleSyncResponse6AcceptEPN4mojo7MessageE to i8*)] }, align 8
@_ZTVN5blink5mojom5blink48FileSystemManager_TruncateSync_ForwardToCallbackE = hidden unnamed_addr constant { [6 x i8*] } { [6 x i8*] [i8* null, i8* null, i8* bitcast (void (%"class.blink::mojom::blink::FileSystemManager_TruncateSync_ForwardToCallback"*)* @_ZN5blink5mojom5blink48FileSystemManager_TruncateSync_ForwardToCallbackD2Ev to i8*), i8* bitcast (void (%"class.blink::mojom::blink::FileSystemManager_TruncateSync_ForwardToCallback"*)* @_ZN5blink5mojom5blink48FileSystemManager_TruncateSync_ForwardToCallbackD0Ev to i8*), i8* bitcast (i1 (%"class.mojo::MessageReceiver"*)* @_ZN4mojo15MessageReceiver25PrefersSerializedMessagesEv to i8*), i8* bitcast (i1 (%"class.blink::mojom::blink::FileSystemManager_TruncateSync_ForwardToCallback"*, %"class.mojo::Message"*)* @_ZN5blink5mojom5blink48FileSystemManager_TruncateSync_ForwardToCallback6AcceptEPN4mojo7MessageE to i8*)] }, align 8
@_ZTVN5blink5mojom5blink55FileSystemManager_CreateSnapshotFile_HandleSyncResponseE = hidden unnamed_addr constant { [6 x i8*] } { [6 x i8*] [i8* null, i8* null, i8* bitcast (void (%"class.mojo::MessageReceiver"*)* @_ZN4mojo15MessageReceiverD2Ev to i8*), i8* bitcast (void (%"class.blink::mojom::blink::FileSystemManager_CreateSnapshotFile_HandleSyncResponse"*)* @_ZN5blink5mojom5blink55FileSystemManager_CreateSnapshotFile_HandleSyncResponseD0Ev to i8*), i8* bitcast (i1 (%"class.mojo::MessageReceiver"*)* @_ZN4mojo15MessageReceiver25PrefersSerializedMessagesEv to i8*), i8* bitcast (i1 (%"class.blink::mojom::blink::FileSystemManager_CreateSnapshotFile_HandleSyncResponse"*, %"class.mojo::Message"*)* @_ZN5blink5mojom5blink55FileSystemManager_CreateSnapshotFile_HandleSyncResponse6AcceptEPN4mojo7MessageE to i8*)] }, align 8
@_ZTVN5blink5mojom5blink54FileSystemManager_CreateSnapshotFile_ForwardToCallbackE = hidden unnamed_addr constant { [6 x i8*] } { [6 x i8*] [i8* null, i8* null, i8* bitcast (void (%"class.blink::mojom::blink::FileSystemManager_CreateSnapshotFile_ForwardToCallback"*)* @_ZN5blink5mojom5blink54FileSystemManager_CreateSnapshotFile_ForwardToCallbackD2Ev to i8*), i8* bitcast (void (%"class.blink::mojom::blink::FileSystemManager_CreateSnapshotFile_ForwardToCallback"*)* @_ZN5blink5mojom5blink54FileSystemManager_CreateSnapshotFile_ForwardToCallbackD0Ev to i8*), i8* bitcast (i1 (%"class.mojo::MessageReceiver"*)* @_ZN4mojo15MessageReceiver25PrefersSerializedMessagesEv to i8*), i8* bitcast (i1 (%"class.blink::mojom::blink::FileSystemManager_CreateSnapshotFile_ForwardToCallback"*, %"class.mojo::Message"*)* @_ZN5blink5mojom5blink54FileSystemManager_CreateSnapshotFile_ForwardToCallback6AcceptEPN4mojo7MessageE to i8*)] }, align 8
@_ZTVN5blink5mojom5blink52FileSystemManager_GetPlatformPath_HandleSyncResponseE = hidden unnamed_addr constant { [6 x i8*] } { [6 x i8*] [i8* null, i8* null, i8* bitcast (void (%"class.mojo::MessageReceiver"*)* @_ZN4mojo15MessageReceiverD2Ev to i8*), i8* bitcast (void (%"class.blink::mojom::blink::FileSystemManager_GetPlatformPath_HandleSyncResponse"*)* @_ZN5blink5mojom5blink52FileSystemManager_GetPlatformPath_HandleSyncResponseD0Ev to i8*), i8* bitcast (i1 (%"class.mojo::MessageReceiver"*)* @_ZN4mojo15MessageReceiver25PrefersSerializedMessagesEv to i8*), i8* bitcast (i1 (%"class.blink::mojom::blink::FileSystemManager_GetPlatformPath_HandleSyncResponse"*, %"class.mojo::Message"*)* @_ZN5blink5mojom5blink52FileSystemManager_GetPlatformPath_HandleSyncResponse6AcceptEPN4mojo7MessageE to i8*)] }, align 8
@_ZTVN5blink5mojom5blink51FileSystemManager_GetPlatformPath_ForwardToCallbackE = hidden unnamed_addr constant { [6 x i8*] } { [6 x i8*] [i8* null, i8* null, i8* bitcast (void (%"class.blink::mojom::blink::FileSystemManager_GetPlatformPath_ForwardToCallback"*)* @_ZN5blink5mojom5blink51FileSystemManager_GetPlatformPath_ForwardToCallbackD2Ev to i8*), i8* bitcast (void (%"class.blink::mojom::blink::FileSystemManager_GetPlatformPath_ForwardToCallback"*)* @_ZN5blink5mojom5blink51FileSystemManager_GetPlatformPath_ForwardToCallbackD0Ev to i8*), i8* bitcast (i1 (%"class.mojo::MessageReceiver"*)* @_ZN4mojo15MessageReceiver25PrefersSerializedMessagesEv to i8*), i8* bitcast (i1 (%"class.blink::mojom::blink::FileSystemManager_GetPlatformPath_ForwardToCallback"*, %"class.mojo::Message"*)* @_ZN5blink5mojom5blink51FileSystemManager_GetPlatformPath_ForwardToCallback6AcceptEPN4mojo7MessageE to i8*)] }, align 8
@_ZTVN5blink5mojom5blink33FileSystemManagerRequestValidatorE = hidden unnamed_addr constant { [6 x i8*] } { [6 x i8*] [i8* null, i8* null, i8* bitcast (void (%"class.mojo::MessageReceiver"*)* @_ZN4mojo15MessageReceiverD2Ev to i8*), i8* bitcast (void (%"class.blink::mojom::blink::FileSystemManagerRequestValidator"*)* @_ZN5blink5mojom5blink33FileSystemManagerRequestValidatorD0Ev to i8*), i8* bitcast (i1 (%"class.mojo::MessageReceiver"*)* @_ZN4mojo15MessageReceiver25PrefersSerializedMessagesEv to i8*), i8* bitcast (i1 (%"class.blink::mojom::blink::FileSystemManagerRequestValidator"*, %"class.mojo::Message"*)* @_ZN5blink5mojom5blink33FileSystemManagerRequestValidator6AcceptEPN4mojo7MessageE to i8*)] }, align 8
@_ZTVN5blink5mojom5blink34FileSystemManagerResponseValidatorE = hidden unnamed_addr constant { [6 x i8*] } { [6 x i8*] [i8* null, i8* null, i8* bitcast (void (%"class.mojo::MessageReceiver"*)* @_ZN4mojo15MessageReceiverD2Ev to i8*), i8* bitcast (void (%"class.blink::mojom::blink::FileSystemManagerResponseValidator"*)* @_ZN5blink5mojom5blink34FileSystemManagerResponseValidatorD0Ev to i8*), i8* bitcast (i1 (%"class.mojo::MessageReceiver"*)* @_ZN4mojo15MessageReceiver25PrefersSerializedMessagesEv to i8*), i8* bitcast (i1 (%"class.blink::mojom::blink::FileSystemManagerResponseValidator"*, %"class.mojo::Message"*)* @_ZN5blink5mojom5blink34FileSystemManagerResponseValidator6AcceptEPN4mojo7MessageE to i8*)] }, align 8
@.str.21 = private unnamed_addr constant [11 x i8] c"i < size()\00", align 1
@.str.22 = private unnamed_addr constant [55 x i8] c"../../third_party/blink/renderer/platform/wtf/vector.h\00", align 1
@.str.23 = private unnamed_addr constant [44 x i8] c"count <= MaxElementCountInBackingStore<T>()\00", align 1
@.str.24 = private unnamed_addr constant [78 x i8] c"../../third_party/blink/renderer/platform/wtf/allocator/partition_allocator.h\00", align 1
@__PRETTY_FUNCTION__._ZN3WTF21GetStringWithTypeNameIN4mojo9StructPtrIN10filesystem5mojom5blink14DirectoryEntryEEEEEPKcv = private unnamed_addr constant [105 x i8] c"const char *WTF::GetStringWithTypeName() [T = mojo::StructPtr<filesystem::mojom::blink::DirectoryEntry>]\00", align 1
@_ZN3url12kMaxURLCharsE = external local_unnamed_addr constant i64, align 8
@_ZN3WTF14g_empty_stringE = external local_unnamed_addr constant %"class.WTF::String"*, align 8
@switch.table._ZN5blink5mojom5blink53FileSystemManager_CreateSnapshotFile_ProxyToResponder3RunERKN4base4File4InfoERKNS3_8FilePathENS4_5ErrorEN4mojo13PendingRemoteINS1_24ReceivedSnapshotListenerEEE = private unnamed_addr constant [18 x i32] [i32 -1, i32 -16, i32 -15, i32 -14, i32 -13, i32 -12, i32 -11, i32 -10, i32 -9, i32 -8, i32 -7, i32 -6, i32 -5, i32 -4, i32 -3, i32 -2, i32 -1, i32 0], align 4

@_ZN5blink5mojom5blink14FileSystemInfoC1Ev = hidden unnamed_addr alias void (%"class.blink::mojom::blink::FileSystemInfo"*), void (%"class.blink::mojom::blink::FileSystemInfo"*)* @_ZN5blink5mojom5blink14FileSystemInfoC2Ev
@_ZN5blink5mojom5blink14FileSystemInfoC1ERKN3WTF6StringERKNS_4KURLENS0_14FileSystemTypeE = hidden unnamed_addr alias void (%"class.blink::mojom::blink::FileSystemInfo"*, %"class.WTF::String"*, %"class.blink::KURL"*, i32), void (%"class.blink::mojom::blink::FileSystemInfo"*, %"class.WTF::String"*, %"class.blink::KURL"*, i32)* @_ZN5blink5mojom5blink14FileSystemInfoC2ERKN3WTF6StringERKNS_4KURLENS0_14FileSystemTypeE
@_ZN5blink5mojom5blink14FileSystemInfoD1Ev = hidden unnamed_addr alias void (%"class.blink::mojom::blink::FileSystemInfo"*), void (%"class.blink::mojom::blink::FileSystemInfo"*)* @_ZN5blink5mojom5blink14FileSystemInfoD2Ev
@_ZN5blink5mojom5blink35FileSystemCancellableOperationProxyC1EPN4mojo28MessageReceiverWithResponderE = hidden unnamed_addr alias void (%"class.blink::mojom::blink::FileSystemCancellableOperationProxy"*, %"class.mojo::MessageReceiverWithResponder"*), void (%"class.blink::mojom::blink::FileSystemCancellableOperationProxy"*, %"class.mojo::MessageReceiverWithResponder"*)* @_ZN5blink5mojom5blink35FileSystemCancellableOperationProxyC2EPN4mojo28MessageReceiverWithResponderE
@_ZN5blink5mojom5blink32FileSystemOperationListenerProxyC1EPN4mojo28MessageReceiverWithResponderE = hidden unnamed_addr alias void (%"class.blink::mojom::blink::FileSystemOperationListenerProxy"*, %"class.mojo::MessageReceiverWithResponder"*), void (%"class.blink::mojom::blink::FileSystemOperationListenerProxy"*, %"class.mojo::MessageReceiverWithResponder"*)* @_ZN5blink5mojom5blink32FileSystemOperationListenerProxyC2EPN4mojo28MessageReceiverWithResponderE
@_ZN5blink5mojom5blink29ReceivedSnapshotListenerProxyC1EPN4mojo28MessageReceiverWithResponderE = hidden unnamed_addr alias void (%"class.blink::mojom::blink::ReceivedSnapshotListenerProxy"*, %"class.mojo::MessageReceiverWithResponder"*), void (%"class.blink::mojom::blink::ReceivedSnapshotListenerProxy"*, %"class.mojo::MessageReceiverWithResponder"*)* @_ZN5blink5mojom5blink29ReceivedSnapshotListenerProxyC2EPN4mojo28MessageReceiverWithResponderE
@_ZN5blink5mojom5blink22FileSystemManagerProxyC1EPN4mojo28MessageReceiverWithResponderE = hidden unnamed_addr alias void (%"class.blink::mojom::blink::FileSystemManagerProxy"*, %"class.mojo::MessageReceiverWithResponder"*), void (%"class.blink::mojom::blink::FileSystemManagerProxy"*, %"class.mojo::MessageReceiverWithResponder"*)* @_ZN5blink5mojom5blink22FileSystemManagerProxyC2EPN4mojo28MessageReceiverWithResponderE

; Function Attrs: nounwind ssp uwtable
define hidden void @_ZN5blink5mojom5blink14FileSystemInfoC2Ev(%"class.blink::mojom::blink::FileSystemInfo"*) unnamed_addr #0 align 2 {
  %2 = getelementptr inbounds %"class.blink::mojom::blink::FileSystemInfo", %"class.blink::mojom::blink::FileSystemInfo"* %0, i64 0, i32 0, i32 0, i32 0
  store %"class.WTF::StringImpl"* null, %"class.WTF::StringImpl"** %2, align 8
  %3 = getelementptr inbounds %"class.blink::mojom::blink::FileSystemInfo", %"class.blink::mojom::blink::FileSystemInfo"* %0, i64 0, i32 1
  tail call void @_ZN5blink4KURLC1Ev(%"class.blink::KURL"* %3) #12
  %4 = getelementptr inbounds %"class.blink::mojom::blink::FileSystemInfo", %"class.blink::mojom::blink::FileSystemInfo"* %0, i64 0, i32 2
  store i32 0, i32* %4, align 8
  ret void
}

; Function Attrs: argmemonly nounwind
declare void @llvm.memset.p0i8.i64(i8* nocapture writeonly, i8, i64, i1 immarg) #1

declare void @_ZN5blink4KURLC1Ev(%"class.blink::KURL"*) unnamed_addr #2

; Function Attrs: nounwind ssp uwtable
define hidden void @_ZN5blink5mojom5blink14FileSystemInfoC2ERKN3WTF6StringERKNS_4KURLENS0_14FileSystemTypeE(%"class.blink::mojom::blink::FileSystemInfo"*, %"class.WTF::String"* nocapture readonly dereferenceable(8), %"class.blink::KURL"* dereferenceable(112), i32) unnamed_addr #0 align 2 {
  %5 = getelementptr inbounds %"class.WTF::String", %"class.WTF::String"* %1, i64 0, i32 0, i32 0
  %6 = load %"class.WTF::StringImpl"*, %"class.WTF::StringImpl"** %5, align 8
  %7 = getelementptr inbounds %"class.blink::mojom::blink::FileSystemInfo", %"class.blink::mojom::blink::FileSystemInfo"* %0, i64 0, i32 0, i32 0, i32 0
  store %"class.WTF::StringImpl"* %6, %"class.WTF::StringImpl"** %7, align 8
  %8 = icmp eq %"class.WTF::StringImpl"* %6, null
  br i1 %8, label %26, label %9

9:                                                ; preds = %4
  %10 = getelementptr inbounds %"class.WTF::StringImpl", %"class.WTF::StringImpl"* %6, i64 0, i32 2, i32 0, i32 0, i32 0, i32 0, i32 0
  %11 = load atomic i32, i32* %10 monotonic, align 4
  %12 = and i32 %11, 2
  %13 = icmp eq i32 %12, 0
  br i1 %13, label %14, label %26

14:                                               ; preds = %9
  %15 = getelementptr inbounds %"class.WTF::StringImpl", %"class.WTF::StringImpl"* %6, i64 0, i32 0
  %16 = load i32, i32* %15, align 4
  %17 = zext i32 %16 to i33
  %18 = tail call { i33, i1 } @llvm.sadd.with.overflow.i33(i33 %17, i33 1) #12
  %19 = extractvalue { i33, i1 } %18, 1
  %20 = extractvalue { i33, i1 } %18, 0
  %21 = icmp slt i33 %20, 0
  %22 = or i1 %19, %21
  br i1 %22, label %23, label %24, !prof !2

23:                                               ; preds = %14
  tail call void @llvm.trap() #12
  unreachable

24:                                               ; preds = %14
  %25 = trunc i33 %20 to i32
  store i32 %25, i32* %15, align 4
  br label %26

26:                                               ; preds = %4, %9, %24
  %27 = getelementptr inbounds %"class.blink::mojom::blink::FileSystemInfo", %"class.blink::mojom::blink::FileSystemInfo"* %0, i64 0, i32 1
  tail call void @_ZN5blink4KURLC1ERKS0_(%"class.blink::KURL"* %27, %"class.blink::KURL"* dereferenceable(112) %2) #12
  %28 = getelementptr inbounds %"class.blink::mojom::blink::FileSystemInfo", %"class.blink::mojom::blink::FileSystemInfo"* %0, i64 0, i32 2
  store i32 %3, i32* %28, align 8
  ret void
}

declare void @_ZN5blink4KURLC1ERKS0_(%"class.blink::KURL"*, %"class.blink::KURL"* dereferenceable(112)) unnamed_addr #2

; Function Attrs: nounwind ssp uwtable
define hidden void @_ZN5blink5mojom5blink14FileSystemInfoD2Ev(%"class.blink::mojom::blink::FileSystemInfo"*) unnamed_addr #0 align 2 {
  %2 = getelementptr inbounds %"class.blink::mojom::blink::FileSystemInfo", %"class.blink::mojom::blink::FileSystemInfo"* %0, i64 0, i32 1
  tail call void @_ZN5blink4KURLD1Ev(%"class.blink::KURL"* %2) #12
  %3 = getelementptr inbounds %"class.blink::mojom::blink::FileSystemInfo", %"class.blink::mojom::blink::FileSystemInfo"* %0, i64 0, i32 0, i32 0, i32 0
  %4 = load %"class.WTF::StringImpl"*, %"class.WTF::StringImpl"** %3, align 8
  %5 = icmp eq %"class.WTF::StringImpl"* %4, null
  br i1 %5, label %19, label %6

6:                                                ; preds = %1
  %7 = getelementptr inbounds %"class.WTF::StringImpl", %"class.WTF::StringImpl"* %4, i64 0, i32 2, i32 0, i32 0, i32 0, i32 0, i32 0
  %8 = load atomic i32, i32* %7 monotonic, align 4
  %9 = and i32 %8, 2
  %10 = icmp eq i32 %9, 0
  %11 = getelementptr inbounds %"class.WTF::StringImpl", %"class.WTF::StringImpl"* %4, i64 0, i32 0
  %12 = load i32, i32* %11, align 4
  br i1 %10, label %13, label %15

13:                                               ; preds = %6
  %14 = add i32 %12, -1
  store i32 %14, i32* %11, align 4
  br label %15

15:                                               ; preds = %13, %6
  %16 = phi i32 [ %14, %13 ], [ %12, %6 ]
  %17 = icmp eq i32 %16, 0
  br i1 %17, label %18, label %19

18:                                               ; preds = %15
  tail call void @_ZNK3WTF10StringImpl18DestroyIfNotStaticEv(%"class.WTF::StringImpl"* nonnull %4) #12
  br label %19

19:                                               ; preds = %1, %15, %18
  ret void
}

; Function Attrs: nounwind
declare void @_ZN5blink4KURLD1Ev(%"class.blink::KURL"*) unnamed_addr #3

; Function Attrs: nounwind ssp uwtable
define hidden void @_ZNK5blink5mojom5blink14FileSystemInfo14WriteIntoTraceEN8perfetto11TracedValueE(%"class.blink::mojom::blink::FileSystemInfo"*, %"class.perfetto::TracedValue"*) local_unnamed_addr #0 align 2 {
  %3 = alloca %"class.perfetto::TracedValue", align 8
  %4 = alloca %"class.perfetto::TracedValue", align 8
  %5 = alloca %"class.perfetto::TracedValue", align 8
  %6 = alloca %"class.perfetto::TracedDictionary", align 8
  %7 = alloca %"class.perfetto::TracedValue", align 8
  %8 = alloca %"class.perfetto::TracedValue", align 8
  %9 = alloca %"class.perfetto::TracedValue", align 8
  %10 = bitcast %"class.perfetto::TracedDictionary"* %6 to i8*
  call void @llvm.lifetime.start.p0i8(i64 16, i8* nonnull %10) #12
  %11 = bitcast %"class.perfetto::TracedDictionary"* %6 to i8*
  call void @llvm.memset.p0i8.i64(i8* nonnull align 8 %11, i8 -86, i64 16, i1 false)
  call void @_ZNO8perfetto11TracedValue15WriteDictionaryEv(%"class.perfetto::TracedDictionary"* nonnull sret %6, %"class.perfetto::TracedValue"* %1) #12
  call void @_ZN8perfetto16TracedDictionary7AddItemENS_12StaticStringE(%"class.perfetto::TracedValue"* nonnull sret %7, %"class.perfetto::TracedDictionary"* nonnull %6, i8* getelementptr inbounds ([5 x i8], [5 x i8]* @.str, i64 0, i64 0)) #12
  %12 = getelementptr inbounds %"class.blink::mojom::blink::FileSystemInfo", %"class.blink::mojom::blink::FileSystemInfo"* %0, i64 0, i32 0
  %13 = bitcast %"class.perfetto::TracedValue"* %7 to i8*
  %14 = bitcast %"class.perfetto::TracedValue"* %4 to i8*
  call void @llvm.lifetime.start.p0i8(i64 16, i8* nonnull %14) #12
  call void @llvm.memcpy.p0i8.p0i8.i64(i8* nonnull align 8 %14, i8* nonnull align 8 %13, i64 16, i1 false) #12
  call void @_ZNK3WTF6String14WriteIntoTraceEN8perfetto11TracedValueE(%"class.WTF::String"* %12, %"class.perfetto::TracedValue"* nonnull %4) #12
  call void @llvm.lifetime.end.p0i8(i64 16, i8* nonnull %14) #12
  call void @_ZN8perfetto16TracedDictionary7AddItemENS_12StaticStringE(%"class.perfetto::TracedValue"* nonnull sret %8, %"class.perfetto::TracedDictionary"* nonnull %6, i8* getelementptr inbounds ([9 x i8], [9 x i8]* @.str.2, i64 0, i64 0)) #12
  %15 = getelementptr inbounds %"class.blink::mojom::blink::FileSystemInfo", %"class.blink::mojom::blink::FileSystemInfo"* %0, i64 0, i32 1
  %16 = bitcast %"class.perfetto::TracedValue"* %8 to i8*
  %17 = bitcast %"class.perfetto::TracedValue"* %3 to i8*
  call void @llvm.lifetime.start.p0i8(i64 16, i8* nonnull %17) #12
  call void @llvm.memcpy.p0i8.p0i8.i64(i8* nonnull align 8 %17, i8* nonnull align 8 %16, i64 16, i1 false) #12
  call void @_ZNK5blink4KURL14WriteIntoTraceEN8perfetto11TracedValueE(%"class.blink::KURL"* %15, %"class.perfetto::TracedValue"* nonnull %3) #12
  call void @llvm.lifetime.end.p0i8(i64 16, i8* nonnull %17) #12
  call void @_ZN8perfetto16TracedDictionary7AddItemENS_12StaticStringE(%"class.perfetto::TracedValue"* nonnull sret %9, %"class.perfetto::TracedDictionary"* nonnull %6, i8* getelementptr inbounds ([11 x i8], [11 x i8]* @.str.3, i64 0, i64 0)) #12
  %18 = getelementptr inbounds %"class.blink::mojom::blink::FileSystemInfo", %"class.blink::mojom::blink::FileSystemInfo"* %0, i64 0, i32 2
  %19 = bitcast %"class.perfetto::TracedValue"* %9 to i8*
  %20 = bitcast %"class.perfetto::TracedValue"* %5 to i8*
  call void @llvm.lifetime.start.p0i8(i64 16, i8* nonnull %20) #12
  call void @llvm.memcpy.p0i8.p0i8.i64(i8* nonnull align 8 %20, i8* nonnull align 8 %19, i64 16, i1 false) #12
  %21 = load i32, i32* %18, align 4
  call void @_ZN8perfetto17TraceFormatTraitsIN5blink5mojom14FileSystemTypeEvE14WriteIntoTraceENS_11TracedValueES3_(%"class.perfetto::TracedValue"* nonnull %5, i32 %21) #12
  call void @llvm.lifetime.end.p0i8(i64 16, i8* nonnull %20) #12
  call void @llvm.lifetime.end.p0i8(i64 16, i8* nonnull %10) #12
  ret void
}

; Function Attrs: argmemonly nounwind
declare void @llvm.lifetime.start.p0i8(i64 immarg, i8* nocapture) #1

declare void @_ZNO8perfetto11TracedValue15WriteDictionaryEv(%"class.perfetto::TracedDictionary"* sret, %"class.perfetto::TracedValue"*) local_unnamed_addr #2

declare void @_ZN8perfetto16TracedDictionary7AddItemENS_12StaticStringE(%"class.perfetto::TracedValue"* sret, %"class.perfetto::TracedDictionary"*, i8*) local_unnamed_addr #2

; Function Attrs: argmemonly nounwind
declare void @llvm.lifetime.end.p0i8(i64 immarg, i8* nocapture) #1

; Function Attrs: nounwind ssp uwtable
define hidden zeroext i1 @_ZN5blink5mojom5blink14FileSystemInfo8ValidateEPKvPN4mojo8internal17ValidationContextE(i8*, %"class.mojo::internal::ValidationContext"*) local_unnamed_addr #0 align 2 {
  %3 = tail call zeroext i1 @_ZN5blink5mojom8internal19FileSystemInfo_Data8ValidateEPKvPN4mojo8internal17ValidationContextE(i8* %0, %"class.mojo::internal::ValidationContext"* %1) #12
  ret i1 %3
}

declare zeroext i1 @_ZN5blink5mojom8internal19FileSystemInfo_Data8ValidateEPKvPN4mojo8internal17ValidationContextE(i8*, %"class.mojo::internal::ValidationContext"*) local_unnamed_addr #2

; Function Attrs: nofree norecurse nounwind ssp uwtable writeonly
define hidden void @_ZN5blink5mojom5blink35FileSystemCancellableOperationProxyC2EPN4mojo28MessageReceiverWithResponderE(%"class.blink::mojom::blink::FileSystemCancellableOperationProxy"* nocapture, %"class.mojo::MessageReceiverWithResponder"*) unnamed_addr #4 align 2 {
  %3 = getelementptr inbounds %"class.blink::mojom::blink::FileSystemCancellableOperationProxy", %"class.blink::mojom::blink::FileSystemCancellableOperationProxy"* %0, i64 0, i32 0, i32 0
  store i32 (...)** bitcast (i8** getelementptr inbounds ({ [5 x i8*] }, { [5 x i8*] }* @_ZTVN5blink5mojom5blink35FileSystemCancellableOperationProxyE, i64 0, inrange i32 0, i64 2) to i32 (...)**), i32 (...)*** %3, align 8
  %4 = getelementptr inbounds %"class.blink::mojom::blink::FileSystemCancellableOperationProxy", %"class.blink::mojom::blink::FileSystemCancellableOperationProxy"* %0, i64 0, i32 1
  store %"class.mojo::MessageReceiverWithResponder"* %1, %"class.mojo::MessageReceiverWithResponder"** %4, align 8
  ret void
}

; Function Attrs: nounwind ssp uwtable
define hidden void @_ZN5blink5mojom5blink35FileSystemCancellableOperationProxy6CancelEN4base12OnceCallbackIFvNS3_4File5ErrorEEEE(%"class.blink::mojom::blink::FileSystemCancellableOperationProxy"* nocapture readonly, %"class.base::OnceCallback"* nocapture) unnamed_addr #0 align 2 {
  %3 = alloca %"class.mojo::Message", align 8
  %4 = alloca %"class.base::OnceCallback", align 8
  %5 = bitcast %"class.mojo::Message"* %3 to i8*
  call void @llvm.lifetime.start.p0i8(i64 120, i8* nonnull %5) #12
  call void @llvm.memset.p0i8.i64(i8* nonnull align 8 %5, i8 -86, i64 120, i1 false)
  call void @_ZN4mojo7MessageC1EjjmmPNSt3__16vectorINS_16ScopedHandleBaseINS_6HandleEEENS1_9allocatorIS5_EEEE(%"class.mojo::Message"* nonnull %3, i32 0, i32 1, i64 0, i64 0, %"class.std::__1::vector"* null) #12
  %6 = getelementptr inbounds %"class.mojo::Message", %"class.mojo::Message"* %3, i64 0, i32 1
  %7 = call i64 @_ZN4mojo8internal6Buffer8AllocateEm(%"class.mojo::internal::Buffer"* %6, i64 8) #12
  %8 = getelementptr inbounds %"class.mojo::Message", %"class.mojo::Message"* %3, i64 0, i32 1, i32 2
  %9 = load i8*, i8** %8, align 8
  %10 = getelementptr inbounds i8, i8* %9, i64 %7
  %11 = bitcast i8* %10 to %"class.blink::mojom::internal::FileSystemCancellableOperation_Cancel_Params_Data"*
  call void @_ZN5blink5mojom8internal49FileSystemCancellableOperation_Cancel_Params_DataC1Ev(%"class.blink::mojom::internal::FileSystemCancellableOperation_Cancel_Params_Data"* %11) #12
  %12 = call i8* @_Znwm(i64 16) #13
  %13 = getelementptr inbounds %"class.base::OnceCallback", %"class.base::OnceCallback"* %1, i64 0, i32 0, i32 0, i32 0
  %14 = bitcast %"class.base::OnceCallback"* %1 to i64*
  %15 = load i64, i64* %14, align 8
  store %"class.base::internal::BindStateBase"* null, %"class.base::internal::BindStateBase"** %13, align 8
  %16 = bitcast i8* %12 to i32 (...)***
  store i32 (...)** bitcast (i8** getelementptr inbounds ({ [6 x i8*] }, { [6 x i8*] }* @_ZTVN5blink5mojom5blink55FileSystemCancellableOperation_Cancel_ForwardToCallbackE, i64 0, inrange i32 0, i64 2) to i32 (...)**), i32 (...)*** %16, align 8
  %17 = getelementptr inbounds i8, i8* %12, i64 8
  %18 = getelementptr inbounds %"class.base::OnceCallback", %"class.base::OnceCallback"* %4, i64 0, i32 0, i32 0, i32 0
  %19 = bitcast i8* %17 to i64*
  store i64 %15, i64* %19, align 8
  store %"class.base::internal::BindStateBase"* null, %"class.base::internal::BindStateBase"** %18, align 8
  %20 = bitcast i8* %12 to %"class.mojo::MessageReceiver"*
  %21 = getelementptr inbounds %"class.base::OnceCallback", %"class.base::OnceCallback"* %4, i64 0, i32 0
  call void @_ZN4base8internal12CallbackBaseD2Ev(%"class.base::internal::CallbackBase"* nonnull %21) #12
  %22 = getelementptr inbounds %"class.blink::mojom::blink::FileSystemCancellableOperationProxy", %"class.blink::mojom::blink::FileSystemCancellableOperationProxy"* %0, i64 0, i32 1
  %23 = load %"class.mojo::MessageReceiverWithResponder"*, %"class.mojo::MessageReceiverWithResponder"** %22, align 8
  %24 = bitcast %"class.mojo::MessageReceiverWithResponder"* %23 to i1 (%"class.mojo::MessageReceiverWithResponder"*, %"class.mojo::Message"*, %"class.mojo::MessageReceiver"*)***
  %25 = load i1 (%"class.mojo::MessageReceiverWithResponder"*, %"class.mojo::Message"*, %"class.mojo::MessageReceiver"*)**, i1 (%"class.mojo::MessageReceiverWithResponder"*, %"class.mojo::Message"*, %"class.mojo::MessageReceiver"*)*** %24, align 8
  %26 = getelementptr inbounds i1 (%"class.mojo::MessageReceiverWithResponder"*, %"class.mojo::Message"*, %"class.mojo::MessageReceiver"*)*, i1 (%"class.mojo::MessageReceiverWithResponder"*, %"class.mojo::Message"*, %"class.mojo::MessageReceiver"*)** %25, i64 4
  %27 = load i1 (%"class.mojo::MessageReceiverWithResponder"*, %"class.mojo::Message"*, %"class.mojo::MessageReceiver"*)*, i1 (%"class.mojo::MessageReceiverWithResponder"*, %"class.mojo::Message"*, %"class.mojo::MessageReceiver"*)** %26, align 8
  %28 = call zeroext i1 %27(%"class.mojo::MessageReceiverWithResponder"* %23, %"class.mojo::Message"* nonnull %3, %"class.mojo::MessageReceiver"* nonnull %20) #12
  call void @_ZN4mojo7MessageD1Ev(%"class.mojo::Message"* nonnull %3) #12
  call void @llvm.lifetime.end.p0i8(i64 120, i8* nonnull %5) #12
  ret void
}

declare void @_ZN4mojo7MessageC1EjjmmPNSt3__16vectorINS_16ScopedHandleBaseINS_6HandleEEENS1_9allocatorIS5_EEEE(%"class.mojo::Message"*, i32, i32, i64, i64, %"class.std::__1::vector"*) unnamed_addr #2

; Function Attrs: nobuiltin nofree
declare noalias nonnull i8* @_Znwm(i64) local_unnamed_addr #5

; Function Attrs: nounwind
declare void @_ZN4mojo7MessageD1Ev(%"class.mojo::Message"*) unnamed_addr #3

; Function Attrs: nounwind ssp uwtable
define hidden zeroext i1 @_ZN5blink5mojom5blink55FileSystemCancellableOperation_Cancel_ForwardToCallback6AcceptEPN4mojo7MessageE(%"class.blink::mojom::blink::FileSystemCancellableOperation_Cancel_ForwardToCallback"* nocapture, %"class.mojo::Message"*) unnamed_addr #0 align 2 {
  %3 = alloca %"class.base::OnceCallback", align 8
  %4 = tail call i8* @_ZNK4mojo7Message7payloadEv(%"class.mojo::Message"* %1) #12
  %5 = getelementptr inbounds i8, i8* %4, i64 8
  %6 = bitcast i8* %5 to i32*
  %7 = load i32, i32* %6, align 4
  %8 = add i32 %7, 16
  %9 = icmp ult i32 %8, 17
  br i1 %9, label %11, label %10

10:                                               ; preds = %2
  tail call void @_ZN4mojo8internal31ReportValidationErrorForMessageEPNS_7MessageENS0_15ValidationErrorEPKcjb(%"class.mojo::Message"* %1, i32 17, i8* getelementptr inbounds ([43 x i8], [43 x i8]* @_ZN5blink5mojom5blink30FileSystemCancellableOperation5Name_E, i64 0, i64 0), i32 0, i1 zeroext true) #12
  br label %23

11:                                               ; preds = %2
  %12 = getelementptr inbounds %"class.blink::mojom::blink::FileSystemCancellableOperation_Cancel_ForwardToCallback", %"class.blink::mojom::blink::FileSystemCancellableOperation_Cancel_ForwardToCallback"* %0, i64 0, i32 1, i32 0, i32 0, i32 0
  %13 = load %"class.base::internal::BindStateBase"*, %"class.base::internal::BindStateBase"** %12, align 8
  %14 = icmp eq %"class.base::internal::BindStateBase"* %13, null
  br i1 %14, label %23, label %15

15:                                               ; preds = %11
  %16 = ptrtoint %"class.base::internal::BindStateBase"* %13 to i64
  %17 = bitcast %"class.base::OnceCallback"* %3 to i8*
  call void @llvm.lifetime.start.p0i8(i64 8, i8* nonnull %17) #12
  %18 = bitcast %"class.base::OnceCallback"* %3 to i64*
  store i64 %16, i64* %18, align 8
  store %"class.base::internal::BindStateBase"* null, %"class.base::internal::BindStateBase"** %12, align 8
  %19 = getelementptr inbounds %"class.base::OnceCallback", %"class.base::OnceCallback"* %3, i64 0, i32 0
  %20 = getelementptr inbounds %"class.base::internal::BindStateBase", %"class.base::internal::BindStateBase"* %13, i64 0, i32 1
  %21 = bitcast void ()** %20 to void (%"class.base::internal::BindStateBase"*, i32)**
  %22 = load void (%"class.base::internal::BindStateBase"*, i32)*, void (%"class.base::internal::BindStateBase"*, i32)** %21, align 8
  tail call void %22(%"class.base::internal::BindStateBase"* nonnull %13, i32 %7) #12
  call void @_ZN4base8internal12CallbackBaseD2Ev(%"class.base::internal::CallbackBase"* nonnull %19) #12
  call void @llvm.lifetime.end.p0i8(i64 8, i8* nonnull %17) #12
  br label %23

23:                                               ; preds = %11, %15, %10
  %24 = phi i1 [ false, %10 ], [ true, %15 ], [ true, %11 ]
  ret i1 %24
}

declare void @_ZN4mojo8internal31ReportValidationErrorForMessageEPNS_7MessageENS0_15ValidationErrorEPKcjb(%"class.mojo::Message"*, i32, i8*, i32, i1 zeroext) local_unnamed_addr #2

; Function Attrs: nounwind ssp uwtable
define hidden void @_ZN5blink5mojom5blink54FileSystemCancellableOperation_Cancel_ProxyToResponder3RunEN4base4File5ErrorE(%"class.blink::mojom::blink::FileSystemCancellableOperation_Cancel_ProxyToResponder"* nocapture, i32) #0 align 2 {
  %3 = alloca %"class.mojo::Message", align 8
  %4 = getelementptr inbounds %"class.blink::mojom::blink::FileSystemCancellableOperation_Cancel_ProxyToResponder", %"class.blink::mojom::blink::FileSystemCancellableOperation_Cancel_ProxyToResponder"* %0, i64 0, i32 1
  %5 = load i8, i8* %4, align 8, !range !3
  %6 = icmp eq i8 %5, 0
  %7 = select i1 %6, i32 2, i32 6
  %8 = bitcast %"class.mojo::Message"* %3 to i8*
  call void @llvm.lifetime.start.p0i8(i64 120, i8* nonnull %8) #12
  call void @llvm.memset.p0i8.i64(i8* nonnull align 8 %8, i8 -86, i64 120, i1 false)
  call void @_ZN4mojo7MessageC1EjjmmPNSt3__16vectorINS_16ScopedHandleBaseINS_6HandleEEENS1_9allocatorIS5_EEEE(%"class.mojo::Message"* nonnull %3, i32 0, i32 %7, i64 0, i64 0, %"class.std::__1::vector"* null) #12
  %9 = getelementptr inbounds %"class.mojo::Message", %"class.mojo::Message"* %3, i64 0, i32 1
  %10 = call i64 @_ZN4mojo8internal6Buffer8AllocateEm(%"class.mojo::internal::Buffer"* %9, i64 16) #12
  %11 = getelementptr inbounds %"class.mojo::Message", %"class.mojo::Message"* %3, i64 0, i32 1, i32 2
  %12 = load i8*, i8** %11, align 8
  %13 = getelementptr inbounds i8, i8* %12, i64 %10
  %14 = bitcast i8* %13 to %"class.blink::mojom::internal::FileSystemCancellableOperation_Cancel_ResponseParams_Data"*
  call void @_ZN5blink5mojom8internal57FileSystemCancellableOperation_Cancel_ResponseParams_DataC1Ev(%"class.blink::mojom::internal::FileSystemCancellableOperation_Cancel_ResponseParams_Data"* %14) #12
  %15 = load i8*, i8** %11, align 8
  %16 = getelementptr inbounds i8, i8* %15, i64 %10
  %17 = getelementptr inbounds i8, i8* %16, i64 8
  %18 = bitcast i8* %17 to i32*
  %19 = add i32 %1, 17
  %20 = icmp ult i32 %19, 18
  br i1 %20, label %21, label %25

21:                                               ; preds = %2
  %22 = sext i32 %19 to i64
  %23 = getelementptr inbounds [18 x i32], [18 x i32]* @switch.table._ZN5blink5mojom5blink53FileSystemManager_CreateSnapshotFile_ProxyToResponder3RunERKN4base4File4InfoERKNS3_8FilePathENS4_5ErrorEN4mojo13PendingRemoteINS1_24ReceivedSnapshotListenerEEE, i64 0, i64 %22
  %24 = load i32, i32* %23, align 4
  br label %25

25:                                               ; preds = %2, %21
  %26 = phi i32 [ %24, %21 ], [ -1, %2 ]
  store i32 %26, i32* %18, align 4
  %27 = getelementptr inbounds %"class.blink::mojom::blink::FileSystemCancellableOperation_Cancel_ProxyToResponder", %"class.blink::mojom::blink::FileSystemCancellableOperation_Cancel_ProxyToResponder"* %0, i64 0, i32 0
  %28 = load i64, i64* %27, align 8
  %29 = bitcast i8** %11 to %"struct.mojo::internal::MessageHeaderV1"**
  %30 = load %"struct.mojo::internal::MessageHeaderV1"*, %"struct.mojo::internal::MessageHeaderV1"** %29, align 8
  %31 = getelementptr inbounds %"struct.mojo::internal::MessageHeaderV1", %"struct.mojo::internal::MessageHeaderV1"* %30, i64 0, i32 1
  store i64 %28, i64* %31, align 1
  %32 = getelementptr inbounds %"class.blink::mojom::blink::FileSystemCancellableOperation_Cancel_ProxyToResponder", %"class.blink::mojom::blink::FileSystemCancellableOperation_Cancel_ProxyToResponder"* %0, i64 0, i32 2, i32 0, i32 0, i32 0
  %33 = load %"class.mojo::MessageReceiverWithStatus"*, %"class.mojo::MessageReceiverWithStatus"** %32, align 8
  %34 = getelementptr inbounds %"class.mojo::MessageReceiverWithStatus", %"class.mojo::MessageReceiverWithStatus"* %33, i64 0, i32 0
  %35 = bitcast %"class.mojo::MessageReceiverWithStatus"* %33 to i1 (%"class.mojo::MessageReceiver"*, %"class.mojo::Message"*)***
  %36 = load i1 (%"class.mojo::MessageReceiver"*, %"class.mojo::Message"*)**, i1 (%"class.mojo::MessageReceiver"*, %"class.mojo::Message"*)*** %35, align 8
  %37 = getelementptr inbounds i1 (%"class.mojo::MessageReceiver"*, %"class.mojo::Message"*)*, i1 (%"class.mojo::MessageReceiver"*, %"class.mojo::Message"*)** %36, i64 3
  %38 = load i1 (%"class.mojo::MessageReceiver"*, %"class.mojo::Message"*)*, i1 (%"class.mojo::MessageReceiver"*, %"class.mojo::Message"*)** %37, align 8
  %39 = call zeroext i1 %38(%"class.mojo::MessageReceiver"* %34, %"class.mojo::Message"* nonnull %3) #12
  %40 = load %"class.mojo::MessageReceiverWithStatus"*, %"class.mojo::MessageReceiverWithStatus"** %32, align 8
  store %"class.mojo::MessageReceiverWithStatus"* null, %"class.mojo::MessageReceiverWithStatus"** %32, align 8
  %41 = icmp eq %"class.mojo::MessageReceiverWithStatus"* %40, null
  br i1 %41, label %47, label %42

42:                                               ; preds = %25
  %43 = bitcast %"class.mojo::MessageReceiverWithStatus"* %40 to void (%"class.mojo::MessageReceiverWithStatus"*)***
  %44 = load void (%"class.mojo::MessageReceiverWithStatus"*)**, void (%"class.mojo::MessageReceiverWithStatus"*)*** %43, align 8
  %45 = getelementptr inbounds void (%"class.mojo::MessageReceiverWithStatus"*)*, void (%"class.mojo::MessageReceiverWithStatus"*)** %44, i64 1
  %46 = load void (%"class.mojo::MessageReceiverWithStatus"*)*, void (%"class.mojo::MessageReceiverWithStatus"*)** %45, align 8
  call void %46(%"class.mojo::MessageReceiverWithStatus"* nonnull %40) #12
  br label %47

47:                                               ; preds = %25, %42
  call void @_ZN4mojo7MessageD1Ev(%"class.mojo::Message"* nonnull %3) #12
  call void @llvm.lifetime.end.p0i8(i64 120, i8* nonnull %8) #12
  ret void
}

; Function Attrs: norecurse nounwind readonly ssp uwtable
define hidden zeroext i1 @_ZN5blink5mojom5blink42FileSystemCancellableOperationStubDispatch6AcceptEPNS1_30FileSystemCancellableOperationEPN4mojo7MessageE(%"class.blink::mojom::blink::FileSystemCancellableOperation"* nocapture readnone, %"class.mojo::Message"* nocapture readonly) local_unnamed_addr #6 align 2 {
  ret i1 false
}

; Function Attrs: nounwind ssp uwtable
define hidden zeroext i1 @_ZN5blink5mojom5blink42FileSystemCancellableOperationStubDispatch19AcceptWithResponderEPNS1_30FileSystemCancellableOperationEPN4mojo7MessageENSt3__110unique_ptrINS5_25MessageReceiverWithStatusENS8_14default_deleteISA_EEEE(%"class.blink::mojom::blink::FileSystemCancellableOperation"*, %"class.mojo::Message"*, %"class.mojo::MessageReceiverWithStatus"*) local_unnamed_addr #0 align 2 {
  %4 = alloca %"class.base::TaskAnnotator::ScopedSetIpcHash", align 8
  %5 = alloca %"class.base::OnceCallback", align 8
  %6 = alloca %"class.base::OnceCallback", align 8
  %7 = getelementptr inbounds %"class.mojo::Message", %"class.mojo::Message"* %1, i64 0, i32 1, i32 2
  %8 = bitcast i8** %7 to %"struct.mojo::internal::MessageHeader"**
  %9 = load %"struct.mojo::internal::MessageHeader"*, %"struct.mojo::internal::MessageHeader"** %8, align 8
  %10 = getelementptr inbounds %"struct.mojo::internal::MessageHeader", %"struct.mojo::internal::MessageHeader"* %9, i64 0, i32 2
  %11 = load i32, i32* %10, align 1
  %12 = icmp eq i32 %11, 0
  br i1 %12, label %13, label %48

13:                                               ; preds = %3
  %14 = ptrtoint %"class.mojo::MessageReceiverWithStatus"* %2 to i64
  %15 = bitcast i8** %7 to %"struct.mojo::internal::MessageHeaderV1"**
  %16 = getelementptr inbounds %"struct.mojo::internal::MessageHeader", %"struct.mojo::internal::MessageHeader"* %9, i64 0, i32 3
  %17 = load i32, i32* %16, align 1
  %18 = bitcast %"class.base::TaskAnnotator::ScopedSetIpcHash"* %4 to i8*
  call void @llvm.lifetime.start.p0i8(i64 24, i8* nonnull %18) #12
  call void @llvm.memset.p0i8.i64(i8* nonnull align 8 %18, i8 -86, i64 24, i1 false)
  call void @_ZN4base13TaskAnnotator16ScopedSetIpcHashC1Ej(%"class.base::TaskAnnotator::ScopedSetIpcHash"* nonnull %4, i32 1341459348) #12
  %19 = call i8* @_ZNK4mojo7Message7payloadEv(%"class.mojo::Message"* %1) #12
  %20 = bitcast %"class.base::OnceCallback"* %5 to i8*
  call void @llvm.lifetime.start.p0i8(i64 8, i8* nonnull %20) #12
  %21 = getelementptr inbounds %"class.base::OnceCallback", %"class.base::OnceCallback"* %5, i64 0, i32 0, i32 0, i32 0
  %22 = load %"struct.mojo::internal::MessageHeaderV1"*, %"struct.mojo::internal::MessageHeaderV1"** %15, align 8
  %23 = getelementptr inbounds %"struct.mojo::internal::MessageHeaderV1", %"struct.mojo::internal::MessageHeaderV1"* %22, i64 0, i32 1
  %24 = load i64, i64* %23, align 1
  %25 = call i8* @_Znwm(i64 24) #13, !noalias !4
  %26 = lshr i32 %17, 2
  %27 = trunc i32 %26 to i8
  %28 = and i8 %27, 1
  %29 = bitcast i8* %25 to i64*
  store i64 %24, i64* %29, align 8, !noalias !4
  %30 = getelementptr inbounds i8, i8* %25, i64 8
  store i8 %28, i8* %30, align 8, !noalias !4
  %31 = getelementptr inbounds i8, i8* %25, i64 16
  %32 = bitcast i8* %31 to i64*
  store i64 %14, i64* %32, align 8, !noalias !4
  %33 = ptrtoint i8* %25 to i64
  %34 = call i8* @_Znwm(i64 56) #13, !noalias !7
  %35 = bitcast i8* %34 to %"class.base::internal::BindStateBase"*
  call void @_ZN4base8internal13BindStateBaseC2EPFvvEPFvPKS1_E(%"class.base::internal::BindStateBase"* nonnull %35, void ()* bitcast (void (%"class.base::internal::BindStateBase"*, i32)* @_ZN4base8internal7InvokerINS0_9BindStateIMN5blink5mojom5blink54FileSystemCancellableOperation_Cancel_ProxyToResponderEFvNS_4File5ErrorEEJNSt3__110unique_ptrIS6_NSB_14default_deleteIS6_EEEEEEEFvS8_EE7RunOnceEPNS0_13BindStateBaseES8_ to void ()*), void (%"class.base::internal::BindStateBase"*)* nonnull @_ZN4base8internal9BindStateIMN5blink5mojom5blink54FileSystemCancellableOperation_Cancel_ProxyToResponderEFvNS_4File5ErrorEEJNSt3__110unique_ptrIS5_NSA_14default_deleteIS5_EEEEEE7DestroyEPKNS0_13BindStateBaseE) #12, !noalias !7
  %36 = getelementptr inbounds i8, i8* %34, i64 32
  %37 = bitcast i8* %36 to <2 x i64>*
  store <2 x i64> <i64 ptrtoint (void (%"class.blink::mojom::blink::FileSystemCancellableOperation_Cancel_ProxyToResponder"*, i32)* @_ZN5blink5mojom5blink54FileSystemCancellableOperation_Cancel_ProxyToResponder3RunEN4base4File5ErrorE to i64), i64 0>, <2 x i64>* %37, align 8, !noalias !7
  %38 = getelementptr inbounds i8, i8* %34, i64 48
  %39 = bitcast i8* %38 to i64*
  store i64 %33, i64* %39, align 8, !noalias !7
  %40 = ptrtoint i8* %34 to i64
  %41 = bitcast %"class.base::OnceCallback"* %6 to i64*
  store i64 %40, i64* %41, align 8
  store %"class.base::internal::BindStateBase"* null, %"class.base::internal::BindStateBase"** %21, align 8
  %42 = bitcast %"class.blink::mojom::blink::FileSystemCancellableOperation"* %0 to void (%"class.blink::mojom::blink::FileSystemCancellableOperation"*, %"class.base::OnceCallback"*)***
  %43 = load void (%"class.blink::mojom::blink::FileSystemCancellableOperation"*, %"class.base::OnceCallback"*)**, void (%"class.blink::mojom::blink::FileSystemCancellableOperation"*, %"class.base::OnceCallback"*)*** %42, align 8
  %44 = getelementptr inbounds void (%"class.blink::mojom::blink::FileSystemCancellableOperation"*, %"class.base::OnceCallback"*)*, void (%"class.blink::mojom::blink::FileSystemCancellableOperation"*, %"class.base::OnceCallback"*)** %43, i64 2
  %45 = load void (%"class.blink::mojom::blink::FileSystemCancellableOperation"*, %"class.base::OnceCallback"*)*, void (%"class.blink::mojom::blink::FileSystemCancellableOperation"*, %"class.base::OnceCallback"*)** %44, align 8
  call void %45(%"class.blink::mojom::blink::FileSystemCancellableOperation"* %0, %"class.base::OnceCallback"* nonnull %6) #12
  %46 = getelementptr inbounds %"class.base::OnceCallback", %"class.base::OnceCallback"* %6, i64 0, i32 0
  call void @_ZN4base8internal12CallbackBaseD2Ev(%"class.base::internal::CallbackBase"* nonnull %46) #12
  %47 = getelementptr inbounds %"class.base::OnceCallback", %"class.base::OnceCallback"* %5, i64 0, i32 0
  call void @_ZN4base8internal12CallbackBaseD2Ev(%"class.base::internal::CallbackBase"* nonnull %47) #12
  call void @llvm.lifetime.end.p0i8(i64 8, i8* nonnull %20) #12
  call void @_ZN4base13TaskAnnotator16ScopedSetIpcHashD1Ev(%"class.base::TaskAnnotator::ScopedSetIpcHash"* nonnull %4) #12
  call void @llvm.lifetime.end.p0i8(i64 24, i8* nonnull %18) #12
  br label %55

48:                                               ; preds = %3
  %49 = icmp eq %"class.mojo::MessageReceiverWithStatus"* %2, null
  br i1 %49, label %55, label %50

50:                                               ; preds = %48
  %51 = bitcast %"class.mojo::MessageReceiverWithStatus"* %2 to void (%"class.mojo::MessageReceiverWithStatus"*)***
  %52 = load void (%"class.mojo::MessageReceiverWithStatus"*)**, void (%"class.mojo::MessageReceiverWithStatus"*)*** %51, align 8
  %53 = getelementptr inbounds void (%"class.mojo::MessageReceiverWithStatus"*)*, void (%"class.mojo::MessageReceiverWithStatus"*)** %52, i64 1
  %54 = load void (%"class.mojo::MessageReceiverWithStatus"*)*, void (%"class.mojo::MessageReceiverWithStatus"*)** %53, align 8
  tail call void %54(%"class.mojo::MessageReceiverWithStatus"* nonnull %2) #12
  br label %55

55:                                               ; preds = %13, %48, %50
  %56 = phi i1 [ true, %13 ], [ false, %48 ], [ false, %50 ]
  ret i1 %56
}

; Function Attrs: argmemonly nounwind
declare void @llvm.memcpy.p0i8.p0i8.i64(i8* nocapture writeonly, i8* nocapture readonly, i64, i1 immarg) #1

declare void @_ZN4base13TaskAnnotator16ScopedSetIpcHashC1Ej(%"class.base::TaskAnnotator::ScopedSetIpcHash"*, i32) unnamed_addr #2

; Function Attrs: nounwind
declare void @_ZN4base13TaskAnnotator16ScopedSetIpcHashD1Ev(%"class.base::TaskAnnotator::ScopedSetIpcHash"*) unnamed_addr #3

; Function Attrs: nounwind ssp uwtable
define hidden zeroext i1 @_ZN5blink5mojom5blink46FileSystemCancellableOperationRequestValidator6AcceptEPN4mojo7MessageE(%"class.blink::mojom::blink::FileSystemCancellableOperationRequestValidator"* nocapture readnone, %"class.mojo::Message"*) unnamed_addr #0 align 2 {
  %3 = tail call zeroext i1 @_ZN4mojo8internal28ValidateRequestGenericPackedEPNS_7MessageEPKcN4base4spanIKNS0_21GenericValidationInfoELm18446744073709551615EEE(%"class.mojo::Message"* %1, i8* getelementptr inbounds ([43 x i8], [43 x i8]* @_ZN5blink5mojom5blink30FileSystemCancellableOperation5Name_E, i64 0, i64 0), i64 1, %"struct.mojo::internal::GenericValidationInfo"* getelementptr inbounds ([1 x %"struct.mojo::internal::GenericValidationInfo"], [1 x %"struct.mojo::internal::GenericValidationInfo"]* @_ZN5blink5mojom5blinkL45kFileSystemCancellableOperationValidationInfoE, i64 0, i64 0)) #12
  ret i1 %3
}

declare zeroext i1 @_ZN4mojo8internal28ValidateRequestGenericPackedEPNS_7MessageEPKcN4base4spanIKNS0_21GenericValidationInfoELm18446744073709551615EEE(%"class.mojo::Message"*, i8*, i64, %"struct.mojo::internal::GenericValidationInfo"*) local_unnamed_addr #2

; Function Attrs: nounwind ssp uwtable
define hidden zeroext i1 @_ZN5blink5mojom5blink47FileSystemCancellableOperationResponseValidator6AcceptEPN4mojo7MessageE(%"class.blink::mojom::blink::FileSystemCancellableOperationResponseValidator"* nocapture readnone, %"class.mojo::Message"*) unnamed_addr #0 align 2 {
  %3 = tail call zeroext i1 @_ZN4mojo8internal29ValidateResponseGenericPackedEPNS_7MessageEPKcN4base4spanIKNS0_21GenericValidationInfoELm18446744073709551615EEE(%"class.mojo::Message"* %1, i8* getelementptr inbounds ([43 x i8], [43 x i8]* @_ZN5blink5mojom5blink30FileSystemCancellableOperation5Name_E, i64 0, i64 0), i64 1, %"struct.mojo::internal::GenericValidationInfo"* getelementptr inbounds ([1 x %"struct.mojo::internal::GenericValidationInfo"], [1 x %"struct.mojo::internal::GenericValidationInfo"]* @_ZN5blink5mojom5blinkL45kFileSystemCancellableOperationValidationInfoE, i64 0, i64 0)) #12
  ret i1 %3
}

declare zeroext i1 @_ZN4mojo8internal29ValidateResponseGenericPackedEPNS_7MessageEPKcN4base4spanIKNS0_21GenericValidationInfoELm18446744073709551615EEE(%"class.mojo::Message"*, i8*, i64, %"struct.mojo::internal::GenericValidationInfo"*) local_unnamed_addr #2

; Function Attrs: nofree norecurse nounwind ssp uwtable writeonly
define hidden void @_ZN5blink5mojom5blink32FileSystemOperationListenerProxyC2EPN4mojo28MessageReceiverWithResponderE(%"class.blink::mojom::blink::FileSystemOperationListenerProxy"* nocapture, %"class.mojo::MessageReceiverWithResponder"*) unnamed_addr #4 align 2 {
  %3 = getelementptr inbounds %"class.blink::mojom::blink::FileSystemOperationListenerProxy", %"class.blink::mojom::blink::FileSystemOperationListenerProxy"* %0, i64 0, i32 0, i32 0
  store i32 (...)** bitcast (i8** getelementptr inbounds ({ [7 x i8*] }, { [7 x i8*] }* @_ZTVN5blink5mojom5blink32FileSystemOperationListenerProxyE, i64 0, inrange i32 0, i64 2) to i32 (...)**), i32 (...)*** %3, align 8
  %4 = getelementptr inbounds %"class.blink::mojom::blink::FileSystemOperationListenerProxy", %"class.blink::mojom::blink::FileSystemOperationListenerProxy"* %0, i64 0, i32 1
  store %"class.mojo::MessageReceiverWithResponder"* %1, %"class.mojo::MessageReceiverWithResponder"** %4, align 8
  ret void
}

; Function Attrs: nounwind ssp uwtable
define hidden void @_ZN5blink5mojom5blink32FileSystemOperationListenerProxy16ResultsRetrievedEN3WTF6VectorIN4mojo9StructPtrIN10filesystem5mojom5blink14DirectoryEntryEEELj0ENS3_18PartitionAllocatorEEEb(%"class.blink::mojom::blink::FileSystemOperationListenerProxy"* nocapture readonly, %"class.WTF::Vector"*, i1 zeroext) unnamed_addr #0 align 2 {
  %4 = alloca %"class.mojo::internal::MessageFragment.288", align 8
  %5 = alloca %"class.mojo::Message", align 8
  %6 = alloca %"class.mojo::internal::ContainerValidateParams", align 8
  %7 = zext i1 %2 to i8
  %8 = bitcast %"class.mojo::Message"* %5 to i8*
  call void @llvm.lifetime.start.p0i8(i64 120, i8* nonnull %8) #12
  call void @llvm.memset.p0i8.i64(i8* nonnull align 8 %8, i8 -86, i64 120, i1 false)
  call void @_ZN4mojo7MessageC1EjjmmPNSt3__16vectorINS_16ScopedHandleBaseINS_6HandleEEENS1_9allocatorIS5_EEEE(%"class.mojo::Message"* nonnull %5, i32 0, i32 0, i64 0, i64 0, %"class.std::__1::vector"* null) #12
  %9 = getelementptr inbounds %"class.mojo::Message", %"class.mojo::Message"* %5, i64 0, i32 1
  %10 = call i64 @_ZN4mojo8internal6Buffer8AllocateEm(%"class.mojo::internal::Buffer"* %9, i64 24) #12
  %11 = getelementptr inbounds %"class.mojo::Message", %"class.mojo::Message"* %5, i64 0, i32 1, i32 2
  %12 = load i8*, i8** %11, align 8
  %13 = getelementptr inbounds i8, i8* %12, i64 %10
  %14 = bitcast i8* %13 to %"class.blink::mojom::internal::FileSystemOperationListener_ResultsRetrieved_Params_Data"*
  call void @_ZN5blink5mojom8internal56FileSystemOperationListener_ResultsRetrieved_Params_DataC1Ev(%"class.blink::mojom::internal::FileSystemOperationListener_ResultsRetrieved_Params_Data"* %14) #12
  %15 = ptrtoint %"class.mojo::Message"* %5 to i64
  %16 = bitcast %"class.mojo::internal::ContainerValidateParams"* %6 to i8*
  call void @llvm.lifetime.start.p0i8(i64 32, i8* nonnull %16) #12
  %17 = bitcast %"class.mojo::internal::ContainerValidateParams"* %6 to i64*
  store i64 -6148914691236517206, i64* %17, align 8
  %18 = getelementptr inbounds %"class.mojo::internal::ContainerValidateParams", %"class.mojo::internal::ContainerValidateParams"* %6, i64 0, i32 0
  store i32 0, i32* %18, align 8
  %19 = getelementptr inbounds %"class.mojo::internal::ContainerValidateParams", %"class.mojo::internal::ContainerValidateParams"* %6, i64 0, i32 1
  store i8 0, i8* %19, align 4
  %20 = getelementptr inbounds %"class.mojo::internal::ContainerValidateParams", %"class.mojo::internal::ContainerValidateParams"* %6, i64 0, i32 2
  %21 = getelementptr inbounds %"class.WTF::Vector", %"class.WTF::Vector"* %1, i64 0, i32 0, i32 0, i32 2
  %22 = bitcast %"class.mojo::internal::ContainerValidateParams"** %20 to i8*
  call void @llvm.memset.p0i8.i64(i8* align 8 %22, i8 0, i64 24, i1 false)
  %23 = load i32, i32* %21, align 4
  %24 = icmp ugt i32 %23, 536870910
  br i1 %24, label %37, label %25

25:                                               ; preds = %3
  %26 = shl i32 %23, 3
  %27 = add nuw i32 %26, 8
  %28 = zext i32 %27 to i64
  %29 = call i64 @_ZN4mojo8internal6Buffer8AllocateEm(%"class.mojo::internal::Buffer"* %9, i64 %28) #12
  %30 = load i8*, i8** %11, align 8
  %31 = getelementptr inbounds i8, i8* %30, i64 %29
  %32 = bitcast i8* %31 to i32*
  store i32 %27, i32* %32, align 1
  %33 = getelementptr inbounds i8, i8* %31, i64 4
  %34 = bitcast i8* %33 to i32*
  store i32 %23, i32* %34, align 1
  %35 = load i32, i32* %21, align 4
  %36 = icmp eq i32 %35, 0
  br i1 %36, label %72, label %37

37:                                               ; preds = %25, %3
  %38 = phi i64 [ -1, %3 ], [ %29, %25 ]
  %39 = phi i32 [ %23, %3 ], [ %35, %25 ]
  %40 = zext i32 %39 to i64
  %41 = bitcast %"class.mojo::internal::MessageFragment.288"* %4 to i8*
  %42 = getelementptr inbounds %"class.mojo::internal::MessageFragment.288", %"class.mojo::internal::MessageFragment.288"* %4, i64 0, i32 0
  %43 = getelementptr inbounds %"class.mojo::internal::MessageFragment.288", %"class.mojo::internal::MessageFragment.288"* %4, i64 0, i32 1
  %44 = bitcast %"class.mojo::internal::MessageFragment.288"* %4 to i64*
  br label %45

45:                                               ; preds = %63, %37
  %46 = phi i64 [ 0, %37 ], [ %47, %63 ]
  call void @llvm.lifetime.start.p0i8(i64 16, i8* nonnull %41) #12
  store i64 %15, i64* %44, align 8
  store i64 -1, i64* %43, align 8
  %47 = add nuw i64 %46, 1
  %48 = trunc i64 %46 to i32
  %49 = call dereferenceable(8) %"class.mojo::StructPtr"* @_ZN3WTF6VectorIN4mojo9StructPtrIN10filesystem5mojom5blink14DirectoryEntryEEELj0ENS_18PartitionAllocatorEE2atEj(%"class.WTF::Vector"* %1, i32 %48) #12
  call void @_ZN4mojo8internal10SerializerIN10filesystem5mojom22DirectoryEntryDataViewENS_9StructPtrINS3_5blink14DirectoryEntryEEEE9SerializeERS8_RNS0_15MessageFragmentINS3_8internal19DirectoryEntry_DataEEE(%"class.mojo::StructPtr"* dereferenceable(8) %49, %"class.mojo::internal::MessageFragment.288"* nonnull dereferenceable(16) %4) #12
  %50 = load i8*, i8** %11, align 8
  %51 = getelementptr inbounds i8, i8* %50, i64 8
  %52 = getelementptr inbounds i8, i8* %51, i64 %38
  %53 = bitcast i8* %52 to %"class.mojo::internal::Array_Data"*
  %54 = getelementptr inbounds %"class.mojo::internal::Array_Data", %"class.mojo::internal::Array_Data"* %53, i64 %46
  %55 = load i64, i64* %43, align 8
  %56 = icmp eq i64 %55, -1
  br i1 %56, label %63, label %57

57:                                               ; preds = %45
  %58 = load %"class.mojo::Message"*, %"class.mojo::Message"** %42, align 8
  %59 = getelementptr inbounds %"class.mojo::Message", %"class.mojo::Message"* %58, i64 0, i32 1, i32 2
  %60 = load i8*, i8** %59, align 8
  %61 = getelementptr inbounds i8, i8* %60, i64 %55
  %62 = bitcast i8* %61 to %"class.filesystem::mojom::internal::DirectoryEntry_Data"*
  br label %63

63:                                               ; preds = %57, %45
  %64 = phi %"class.filesystem::mojom::internal::DirectoryEntry_Data"* [ %62, %57 ], [ null, %45 ]
  %65 = bitcast %"class.mojo::internal::Array_Data"* %54 to i64*
  %66 = icmp eq %"class.filesystem::mojom::internal::DirectoryEntry_Data"* %64, null
  %67 = ptrtoint %"class.filesystem::mojom::internal::DirectoryEntry_Data"* %64 to i64
  %68 = ptrtoint %"class.mojo::internal::Array_Data"* %54 to i64
  %69 = sub i64 %67, %68
  %70 = select i1 %66, i64 0, i64 %69
  store i64 %70, i64* %65, align 8
  call void @llvm.lifetime.end.p0i8(i64 16, i8* nonnull %41) #12
  %71 = icmp eq i64 %47, %40
  br i1 %71, label %72, label %45

72:                                               ; preds = %63, %25
  %73 = phi i64 [ %29, %25 ], [ %38, %63 ]
  %74 = load i8*, i8** %11, align 8
  %75 = getelementptr inbounds i8, i8* %74, i64 %10
  %76 = getelementptr inbounds i8, i8* %75, i64 8
  %77 = icmp eq i64 %73, -1
  %78 = getelementptr inbounds i8, i8* %74, i64 %73
  %79 = bitcast i8* %78 to %"class.mojo::internal::Array_Data"*
  %80 = select i1 %77, %"class.mojo::internal::Array_Data"* null, %"class.mojo::internal::Array_Data"* %79
  %81 = bitcast i8* %76 to i64*
  %82 = icmp eq %"class.mojo::internal::Array_Data"* %80, null
  %83 = ptrtoint %"class.mojo::internal::Array_Data"* %80 to i64
  %84 = ptrtoint i8* %76 to i64
  %85 = sub i64 %83, %84
  %86 = select i1 %82, i64 0, i64 %85
  store i64 %86, i64* %81, align 8
  %87 = load i8*, i8** %11, align 8
  %88 = getelementptr inbounds i8, i8* %87, i64 %10
  %89 = getelementptr inbounds i8, i8* %88, i64 16
  %90 = load i8, i8* %89, align 1
  %91 = and i8 %90, -2
  %92 = or i8 %91, %7
  store i8 %92, i8* %89, align 1
  %93 = getelementptr inbounds %"class.blink::mojom::blink::FileSystemOperationListenerProxy", %"class.blink::mojom::blink::FileSystemOperationListenerProxy"* %0, i64 0, i32 1
  %94 = bitcast %"class.mojo::MessageReceiverWithResponder"** %93 to %"class.mojo::MessageReceiver"**
  %95 = load %"class.mojo::MessageReceiver"*, %"class.mojo::MessageReceiver"** %94, align 8
  %96 = bitcast %"class.mojo::MessageReceiver"* %95 to i1 (%"class.mojo::MessageReceiver"*, %"class.mojo::Message"*)***
  %97 = load i1 (%"class.mojo::MessageReceiver"*, %"class.mojo::Message"*)**, i1 (%"class.mojo::MessageReceiver"*, %"class.mojo::Message"*)*** %96, align 8
  %98 = getelementptr inbounds i1 (%"class.mojo::MessageReceiver"*, %"class.mojo::Message"*)*, i1 (%"class.mojo::MessageReceiver"*, %"class.mojo::Message"*)** %97, i64 3
  %99 = load i1 (%"class.mojo::MessageReceiver"*, %"class.mojo::Message"*)*, i1 (%"class.mojo::MessageReceiver"*, %"class.mojo::Message"*)** %98, align 8
  %100 = call zeroext i1 %99(%"class.mojo::MessageReceiver"* %95, %"class.mojo::Message"* nonnull %5) #12
  call void @_ZN4mojo8internal23ContainerValidateParamsD2Ev(%"class.mojo::internal::ContainerValidateParams"* nonnull %6) #12
  call void @llvm.lifetime.end.p0i8(i64 32, i8* nonnull %16) #12
  call void @_ZN4mojo7MessageD1Ev(%"class.mojo::Message"* nonnull %5) #12
  call void @llvm.lifetime.end.p0i8(i64 120, i8* nonnull %8) #12
  ret void
}

; Function Attrs: nounwind ssp uwtable
define linkonce_odr hidden void @_ZN4mojo8internal23ContainerValidateParamsD2Ev(%"class.mojo::internal::ContainerValidateParams"*) unnamed_addr #0 comdat align 2 {
  %2 = getelementptr inbounds %"class.mojo::internal::ContainerValidateParams", %"class.mojo::internal::ContainerValidateParams"* %0, i64 0, i32 3
  %3 = load %"class.mojo::internal::ContainerValidateParams"*, %"class.mojo::internal::ContainerValidateParams"** %2, align 8
  %4 = icmp eq %"class.mojo::internal::ContainerValidateParams"* %3, null
  br i1 %4, label %7, label %5

5:                                                ; preds = %1
  tail call void @_ZN4mojo8internal23ContainerValidateParamsD2Ev(%"class.mojo::internal::ContainerValidateParams"* nonnull %3) #12
  %6 = bitcast %"class.mojo::internal::ContainerValidateParams"* %3 to i8*
  tail call void @_ZdlPv(i8* %6) #13
  br label %7

7:                                                ; preds = %1, %5
  %8 = getelementptr inbounds %"class.mojo::internal::ContainerValidateParams", %"class.mojo::internal::ContainerValidateParams"* %0, i64 0, i32 2
  %9 = load %"class.mojo::internal::ContainerValidateParams"*, %"class.mojo::internal::ContainerValidateParams"** %8, align 8
  %10 = icmp eq %"class.mojo::internal::ContainerValidateParams"* %9, null
  br i1 %10, label %13, label %11

11:                                               ; preds = %7
  tail call void @_ZN4mojo8internal23ContainerValidateParamsD2Ev(%"class.mojo::internal::ContainerValidateParams"* nonnull %9) #12
  %12 = bitcast %"class.mojo::internal::ContainerValidateParams"* %9 to i8*
  tail call void @_ZdlPv(i8* %12) #13
  ret void

13:                                               ; preds = %7
  ret void
}

; Function Attrs: nounwind ssp uwtable
define hidden void @_ZN5blink5mojom5blink32FileSystemOperationListenerProxy8DidWriteElb(%"class.blink::mojom::blink::FileSystemOperationListenerProxy"* nocapture readonly, i64, i1 zeroext) unnamed_addr #0 align 2 {
  %4 = alloca %"class.mojo::Message", align 8
  %5 = zext i1 %2 to i8
  %6 = bitcast %"class.mojo::Message"* %4 to i8*
  call void @llvm.lifetime.start.p0i8(i64 120, i8* nonnull %6) #12
  call void @llvm.memset.p0i8.i64(i8* nonnull align 8 %6, i8 -86, i64 120, i1 false)
  call void @_ZN4mojo7MessageC1EjjmmPNSt3__16vectorINS_16ScopedHandleBaseINS_6HandleEEENS1_9allocatorIS5_EEEE(%"class.mojo::Message"* nonnull %4, i32 1, i32 0, i64 0, i64 0, %"class.std::__1::vector"* null) #12
  %7 = getelementptr inbounds %"class.mojo::Message", %"class.mojo::Message"* %4, i64 0, i32 1
  %8 = call i64 @_ZN4mojo8internal6Buffer8AllocateEm(%"class.mojo::internal::Buffer"* %7, i64 24) #12
  %9 = getelementptr inbounds %"class.mojo::Message", %"class.mojo::Message"* %4, i64 0, i32 1, i32 2
  %10 = load i8*, i8** %9, align 8
  %11 = getelementptr inbounds i8, i8* %10, i64 %8
  %12 = bitcast i8* %11 to %"class.blink::mojom::internal::FileSystemOperationListener_DidWrite_Params_Data"*
  call void @_ZN5blink5mojom8internal48FileSystemOperationListener_DidWrite_Params_DataC1Ev(%"class.blink::mojom::internal::FileSystemOperationListener_DidWrite_Params_Data"* %12) #12
  %13 = load i8*, i8** %9, align 8
  %14 = getelementptr inbounds i8, i8* %13, i64 %8
  %15 = getelementptr inbounds i8, i8* %14, i64 8
  %16 = bitcast i8* %15 to i64*
  store i64 %1, i64* %16, align 8
  %17 = load i8*, i8** %9, align 8
  %18 = getelementptr inbounds i8, i8* %17, i64 %8
  %19 = getelementptr inbounds i8, i8* %18, i64 16
  %20 = load i8, i8* %19, align 8
  %21 = and i8 %20, -2
  %22 = or i8 %21, %5
  store i8 %22, i8* %19, align 8
  %23 = getelementptr inbounds %"class.blink::mojom::blink::FileSystemOperationListenerProxy", %"class.blink::mojom::blink::FileSystemOperationListenerProxy"* %0, i64 0, i32 1
  %24 = bitcast %"class.mojo::MessageReceiverWithResponder"** %23 to %"class.mojo::MessageReceiver"**
  %25 = load %"class.mojo::MessageReceiver"*, %"class.mojo::MessageReceiver"** %24, align 8
  %26 = bitcast %"class.mojo::MessageReceiver"* %25 to i1 (%"class.mojo::MessageReceiver"*, %"class.mojo::Message"*)***
  %27 = load i1 (%"class.mojo::MessageReceiver"*, %"class.mojo::Message"*)**, i1 (%"class.mojo::MessageReceiver"*, %"class.mojo::Message"*)*** %26, align 8
  %28 = getelementptr inbounds i1 (%"class.mojo::MessageReceiver"*, %"class.mojo::Message"*)*, i1 (%"class.mojo::MessageReceiver"*, %"class.mojo::Message"*)** %27, i64 3
  %29 = load i1 (%"class.mojo::MessageReceiver"*, %"class.mojo::Message"*)*, i1 (%"class.mojo::MessageReceiver"*, %"class.mojo::Message"*)** %28, align 8
  %30 = call zeroext i1 %29(%"class.mojo::MessageReceiver"* %25, %"class.mojo::Message"* nonnull %4) #12
  call void @_ZN4mojo7MessageD1Ev(%"class.mojo::Message"* nonnull %4) #12
  call void @llvm.lifetime.end.p0i8(i64 120, i8* nonnull %6) #12
  ret void
}

; Function Attrs: nounwind ssp uwtable
define hidden void @_ZN5blink5mojom5blink32FileSystemOperationListenerProxy13ErrorOccurredEN4base4File5ErrorE(%"class.blink::mojom::blink::FileSystemOperationListenerProxy"* nocapture readonly, i32) unnamed_addr #0 align 2 {
  %3 = alloca %"class.mojo::Message", align 8
  %4 = bitcast %"class.mojo::Message"* %3 to i8*
  call void @llvm.lifetime.start.p0i8(i64 120, i8* nonnull %4) #12
  call void @llvm.memset.p0i8.i64(i8* nonnull align 8 %4, i8 -86, i64 120, i1 false)
  call void @_ZN4mojo7MessageC1EjjmmPNSt3__16vectorINS_16ScopedHandleBaseINS_6HandleEEENS1_9allocatorIS5_EEEE(%"class.mojo::Message"* nonnull %3, i32 2, i32 0, i64 0, i64 0, %"class.std::__1::vector"* null) #12
  %5 = getelementptr inbounds %"class.mojo::Message", %"class.mojo::Message"* %3, i64 0, i32 1
  %6 = call i64 @_ZN4mojo8internal6Buffer8AllocateEm(%"class.mojo::internal::Buffer"* %5, i64 16) #12
  %7 = getelementptr inbounds %"class.mojo::Message", %"class.mojo::Message"* %3, i64 0, i32 1, i32 2
  %8 = load i8*, i8** %7, align 8
  %9 = getelementptr inbounds i8, i8* %8, i64 %6
  %10 = bitcast i8* %9 to %"class.blink::mojom::internal::FileSystemOperationListener_ErrorOccurred_Params_Data"*
  call void @_ZN5blink5mojom8internal53FileSystemOperationListener_ErrorOccurred_Params_DataC1Ev(%"class.blink::mojom::internal::FileSystemOperationListener_ErrorOccurred_Params_Data"* %10) #12
  %11 = load i8*, i8** %7, align 8
  %12 = getelementptr inbounds i8, i8* %11, i64 %6
  %13 = getelementptr inbounds i8, i8* %12, i64 8
  %14 = bitcast i8* %13 to i32*
  %15 = add i32 %1, 17
  %16 = icmp ult i32 %15, 18
  br i1 %16, label %17, label %21

17:                                               ; preds = %2
  %18 = sext i32 %15 to i64
  %19 = getelementptr inbounds [18 x i32], [18 x i32]* @switch.table._ZN5blink5mojom5blink53FileSystemManager_CreateSnapshotFile_ProxyToResponder3RunERKN4base4File4InfoERKNS3_8FilePathENS4_5ErrorEN4mojo13PendingRemoteINS1_24ReceivedSnapshotListenerEEE, i64 0, i64 %18
  %20 = load i32, i32* %19, align 4
  br label %21

21:                                               ; preds = %2, %17
  %22 = phi i32 [ %20, %17 ], [ -1, %2 ]
  store i32 %22, i32* %14, align 4
  %23 = getelementptr inbounds %"class.blink::mojom::blink::FileSystemOperationListenerProxy", %"class.blink::mojom::blink::FileSystemOperationListenerProxy"* %0, i64 0, i32 1
  %24 = bitcast %"class.mojo::MessageReceiverWithResponder"** %23 to %"class.mojo::MessageReceiver"**
  %25 = load %"class.mojo::MessageReceiver"*, %"class.mojo::MessageReceiver"** %24, align 8
  %26 = bitcast %"class.mojo::MessageReceiver"* %25 to i1 (%"class.mojo::MessageReceiver"*, %"class.mojo::Message"*)***
  %27 = load i1 (%"class.mojo::MessageReceiver"*, %"class.mojo::Message"*)**, i1 (%"class.mojo::MessageReceiver"*, %"class.mojo::Message"*)*** %26, align 8
  %28 = getelementptr inbounds i1 (%"class.mojo::MessageReceiver"*, %"class.mojo::Message"*)*, i1 (%"class.mojo::MessageReceiver"*, %"class.mojo::Message"*)** %27, i64 3
  %29 = load i1 (%"class.mojo::MessageReceiver"*, %"class.mojo::Message"*)*, i1 (%"class.mojo::MessageReceiver"*, %"class.mojo::Message"*)** %28, align 8
  %30 = call zeroext i1 %29(%"class.mojo::MessageReceiver"* %25, %"class.mojo::Message"* nonnull %3) #12
  call void @_ZN4mojo7MessageD1Ev(%"class.mojo::Message"* nonnull %3) #12
  call void @llvm.lifetime.end.p0i8(i64 120, i8* nonnull %4) #12
  ret void
}

; Function Attrs: nounwind ssp uwtable
define hidden zeroext i1 @_ZN5blink5mojom5blink39FileSystemOperationListenerStubDispatch6AcceptEPNS1_27FileSystemOperationListenerEPN4mojo7MessageE(%"class.blink::mojom::blink::FileSystemOperationListener"*, %"class.mojo::Message"*) local_unnamed_addr #0 align 2 {
  %3 = alloca %"class.base::TaskAnnotator::ScopedSetIpcHash", align 8
  %4 = alloca %"class.WTF::Vector", align 8
  %5 = alloca %"class.WTF::Vector", align 8
  %6 = alloca %"class.base::TaskAnnotator::ScopedSetIpcHash", align 8
  %7 = alloca %"class.base::TaskAnnotator::ScopedSetIpcHash", align 8
  %8 = getelementptr inbounds %"class.mojo::Message", %"class.mojo::Message"* %1, i64 0, i32 1, i32 2
  %9 = bitcast i8** %8 to %"struct.mojo::internal::MessageHeader"**
  %10 = load %"struct.mojo::internal::MessageHeader"*, %"struct.mojo::internal::MessageHeader"** %9, align 8
  %11 = getelementptr inbounds %"struct.mojo::internal::MessageHeader", %"struct.mojo::internal::MessageHeader"* %10, i64 0, i32 2
  %12 = load i32, i32* %11, align 1
  switch i32 %12, label %137 [
    i32 0, label %13
    i32 1, label %105
    i32 2, label %119
  ]

13:                                               ; preds = %2
  %14 = bitcast %"class.base::TaskAnnotator::ScopedSetIpcHash"* %3 to i8*
  call void @llvm.lifetime.start.p0i8(i64 24, i8* nonnull %14) #12
  call void @llvm.memset.p0i8.i64(i8* nonnull align 8 %14, i8 -86, i64 24, i1 false)
  call void @_ZN4base13TaskAnnotator16ScopedSetIpcHashC1Ej(%"class.base::TaskAnnotator::ScopedSetIpcHash"* nonnull %3, i32 -2076597314) #12
  %15 = call i8* @_ZNK4mojo7Message7payloadEv(%"class.mojo::Message"* %1) #12
  %16 = bitcast %"class.WTF::Vector"* %4 to i8*
  call void @llvm.lifetime.start.p0i8(i64 16, i8* nonnull %16) #12
  %17 = getelementptr inbounds %"class.WTF::Vector", %"class.WTF::Vector"* %4, i64 0, i32 0, i32 0, i32 0
  %18 = getelementptr inbounds %"class.WTF::Vector", %"class.WTF::Vector"* %4, i64 0, i32 0, i32 0, i32 1
  %19 = getelementptr inbounds %"class.WTF::Vector", %"class.WTF::Vector"* %4, i64 0, i32 0, i32 0, i32 2
  call void @llvm.memset.p0i8.i64(i8* nonnull align 8 %16, i8 0, i64 16, i1 false) #12
  %20 = getelementptr inbounds i8, i8* %15, i64 8
  %21 = bitcast i8* %20 to i64*
  %22 = load i64, i64* %21, align 8
  %23 = icmp eq i64 %22, 0
  br i1 %23, label %24, label %26

24:                                               ; preds = %13
  %25 = bitcast %"class.WTF::Vector"* %4 to i64*
  br label %35

26:                                               ; preds = %13
  %27 = getelementptr inbounds i8, i8* %20, i64 %22
  %28 = bitcast i8* %27 to %"class.mojo::internal::Array_Data"*
  %29 = call zeroext i1 @_ZN4mojo8internal15ArraySerializerINS_13ArrayDataViewIN10filesystem5mojom22DirectoryEntryDataViewEEEN3WTF6VectorINS_9StructPtrINS4_5blink14DirectoryEntryEEELj0ENS7_18PartitionAllocatorEEENS0_13ArrayIteratorINS_11ArrayTraitsISE_EESE_Lb0EEEvE19DeserializeElementsEPNS0_10Array_DataINS0_7PointerINS4_8internal19DirectoryEntry_DataEEEEEPSE_PNS_7MessageE(%"class.mojo::internal::Array_Data"* nonnull %28, %"class.WTF::Vector"* nonnull %4, %"class.mojo::Message"* %1) #12
  br i1 %29, label %30, label %77

30:                                               ; preds = %26
  %31 = bitcast %"class.WTF::Vector"* %4 to i64*
  %32 = load i64, i64* %31, align 8
  %33 = load i32, i32* %18, align 8
  %34 = load i32, i32* %19, align 4
  br label %35

35:                                               ; preds = %24, %30
  %36 = phi i64* [ %25, %24 ], [ %31, %30 ]
  %37 = phi i32 [ 0, %24 ], [ %34, %30 ]
  %38 = phi i32 [ 0, %24 ], [ %33, %30 ]
  %39 = phi i64 [ 0, %24 ], [ %32, %30 ]
  %40 = getelementptr inbounds i8, i8* %15, i64 16
  %41 = load i8, i8* %40, align 1
  %42 = and i8 %41, 1
  %43 = icmp ne i8 %42, 0
  %44 = getelementptr inbounds %"class.WTF::Vector", %"class.WTF::Vector"* %5, i64 0, i32 0, i32 0, i32 1
  %45 = getelementptr inbounds %"class.WTF::Vector", %"class.WTF::Vector"* %5, i64 0, i32 0, i32 0, i32 2
  %46 = bitcast %"class.WTF::Vector"* %5 to i64*
  store i64 0, i64* %46, align 8
  %47 = bitcast %"class.WTF::Vector"* %5 to i64*
  store atomic i64 0, i64* %36 monotonic, align 8
  store atomic i64 %39, i64* %47 monotonic, align 8
  store i32 %38, i32* %44, align 8
  store i32 0, i32* %18, align 8
  store i32 %37, i32* %45, align 4
  store i32 0, i32* %19, align 4
  %48 = bitcast %"class.blink::mojom::blink::FileSystemOperationListener"* %0 to void (%"class.blink::mojom::blink::FileSystemOperationListener"*, %"class.WTF::Vector"*, i1)***
  %49 = load void (%"class.blink::mojom::blink::FileSystemOperationListener"*, %"class.WTF::Vector"*, i1)**, void (%"class.blink::mojom::blink::FileSystemOperationListener"*, %"class.WTF::Vector"*, i1)*** %48, align 8
  %50 = getelementptr inbounds void (%"class.blink::mojom::blink::FileSystemOperationListener"*, %"class.WTF::Vector"*, i1)*, void (%"class.blink::mojom::blink::FileSystemOperationListener"*, %"class.WTF::Vector"*, i1)** %49, i64 2
  %51 = load void (%"class.blink::mojom::blink::FileSystemOperationListener"*, %"class.WTF::Vector"*, i1)*, void (%"class.blink::mojom::blink::FileSystemOperationListener"*, %"class.WTF::Vector"*, i1)** %50, align 8
  call void %51(%"class.blink::mojom::blink::FileSystemOperationListener"* %0, %"class.WTF::Vector"* nonnull %5, i1 zeroext %43) #12
  %52 = getelementptr inbounds %"class.WTF::Vector", %"class.WTF::Vector"* %5, i64 0, i32 0, i32 0, i32 0
  %53 = load %"class.mojo::StructPtr"*, %"class.mojo::StructPtr"** %52, align 8
  %54 = icmp eq %"class.mojo::StructPtr"* %53, null
  br i1 %54, label %78, label %55, !prof !12

55:                                               ; preds = %35
  %56 = bitcast %"class.mojo::StructPtr"* %53 to i8*
  %57 = load i32, i32* %45, align 4
  %58 = icmp eq i32 %57, 0
  br i1 %58, label %75, label %59, !prof !2

59:                                               ; preds = %55
  %60 = zext i32 %57 to i64
  %61 = getelementptr inbounds %"class.mojo::StructPtr", %"class.mojo::StructPtr"* %53, i64 %60
  br label %62

62:                                               ; preds = %69, %59
  %63 = phi %"class.mojo::StructPtr"* [ %70, %69 ], [ %53, %59 ]
  %64 = getelementptr inbounds %"class.mojo::StructPtr", %"class.mojo::StructPtr"* %63, i64 0, i32 0, i32 0, i32 0, i32 0
  %65 = load %"class.filesystem::mojom::blink::DirectoryEntry"*, %"class.filesystem::mojom::blink::DirectoryEntry"** %64, align 8
  store %"class.filesystem::mojom::blink::DirectoryEntry"* null, %"class.filesystem::mojom::blink::DirectoryEntry"** %64, align 8
  %66 = icmp eq %"class.filesystem::mojom::blink::DirectoryEntry"* %65, null
  br i1 %66, label %69, label %67

67:                                               ; preds = %62
  call void @_ZN10filesystem5mojom5blink14DirectoryEntryD1Ev(%"class.filesystem::mojom::blink::DirectoryEntry"* nonnull %65) #12
  %68 = bitcast %"class.filesystem::mojom::blink::DirectoryEntry"* %65 to i8*
  call void @_ZdlPv(i8* %68) #13
  br label %69

69:                                               ; preds = %67, %62
  %70 = getelementptr inbounds %"class.mojo::StructPtr", %"class.mojo::StructPtr"* %63, i64 1
  %71 = icmp eq %"class.mojo::StructPtr"* %70, %61
  br i1 %71, label %72, label %62

72:                                               ; preds = %69
  store i32 0, i32* %45, align 4
  %73 = bitcast %"class.WTF::Vector"* %5 to i8**
  %74 = load i8*, i8** %73, align 8
  br label %75

75:                                               ; preds = %72, %55
  %76 = phi i8* [ %74, %72 ], [ %56, %55 ]
  call void @_ZN3WTF18PartitionAllocator11FreeBackingEPv(i8* %76) #12
  store %"class.mojo::StructPtr"* null, %"class.mojo::StructPtr"** %52, align 8
  br label %78

77:                                               ; preds = %26
  call void @_ZN4mojo8internal31ReportValidationErrorForMessageEPNS_7MessageENS0_15ValidationErrorEPKcjb(%"class.mojo::Message"* %1, i32 17, i8* getelementptr inbounds ([40 x i8], [40 x i8]* @_ZN5blink5mojom5blink27FileSystemOperationListener5Name_E, i64 0, i64 0), i32 0, i1 zeroext false) #12
  br label %78

78:                                               ; preds = %75, %35, %77
  %79 = phi i1 [ false, %77 ], [ true, %35 ], [ true, %75 ]
  %80 = load %"class.mojo::StructPtr"*, %"class.mojo::StructPtr"** %17, align 8
  %81 = icmp eq %"class.mojo::StructPtr"* %80, null
  br i1 %81, label %104, label %82, !prof !12

82:                                               ; preds = %78
  %83 = bitcast %"class.mojo::StructPtr"* %80 to i8*
  %84 = load i32, i32* %19, align 4
  %85 = icmp eq i32 %84, 0
  br i1 %85, label %102, label %86, !prof !2

86:                                               ; preds = %82
  %87 = zext i32 %84 to i64
  %88 = getelementptr inbounds %"class.mojo::StructPtr", %"class.mojo::StructPtr"* %80, i64 %87
  br label %89

89:                                               ; preds = %96, %86
  %90 = phi %"class.mojo::StructPtr"* [ %97, %96 ], [ %80, %86 ]
  %91 = getelementptr inbounds %"class.mojo::StructPtr", %"class.mojo::StructPtr"* %90, i64 0, i32 0, i32 0, i32 0, i32 0
  %92 = load %"class.filesystem::mojom::blink::DirectoryEntry"*, %"class.filesystem::mojom::blink::DirectoryEntry"** %91, align 8
  store %"class.filesystem::mojom::blink::DirectoryEntry"* null, %"class.filesystem::mojom::blink::DirectoryEntry"** %91, align 8
  %93 = icmp eq %"class.filesystem::mojom::blink::DirectoryEntry"* %92, null
  br i1 %93, label %96, label %94

94:                                               ; preds = %89
  call void @_ZN10filesystem5mojom5blink14DirectoryEntryD1Ev(%"class.filesystem::mojom::blink::DirectoryEntry"* nonnull %92) #12
  %95 = bitcast %"class.filesystem::mojom::blink::DirectoryEntry"* %92 to i8*
  call void @_ZdlPv(i8* %95) #13
  br label %96

96:                                               ; preds = %94, %89
  %97 = getelementptr inbounds %"class.mojo::StructPtr", %"class.mojo::StructPtr"* %90, i64 1
  %98 = icmp eq %"class.mojo::StructPtr"* %97, %88
  br i1 %98, label %99, label %89

99:                                               ; preds = %96
  store i32 0, i32* %19, align 4
  %100 = bitcast %"class.WTF::Vector"* %4 to i8**
  %101 = load i8*, i8** %100, align 8
  br label %102

102:                                              ; preds = %99, %82
  %103 = phi i8* [ %101, %99 ], [ %83, %82 ]
  call void @_ZN3WTF18PartitionAllocator11FreeBackingEPv(i8* %103) #12
  store %"class.mojo::StructPtr"* null, %"class.mojo::StructPtr"** %17, align 8
  br label %104

104:                                              ; preds = %78, %102
  call void @llvm.lifetime.end.p0i8(i64 16, i8* nonnull %16) #12
  br label %133

105:                                              ; preds = %2
  %106 = bitcast %"class.base::TaskAnnotator::ScopedSetIpcHash"* %6 to i8*
  call void @llvm.lifetime.start.p0i8(i64 24, i8* nonnull %106) #12
  call void @llvm.memset.p0i8.i64(i8* nonnull align 8 %106, i8 -86, i64 24, i1 false)
  call void @_ZN4base13TaskAnnotator16ScopedSetIpcHashC1Ej(%"class.base::TaskAnnotator::ScopedSetIpcHash"* nonnull %6, i32 1969836462) #12
  %107 = call i8* @_ZNK4mojo7Message7payloadEv(%"class.mojo::Message"* %1) #12
  %108 = getelementptr inbounds i8, i8* %107, i64 8
  %109 = bitcast i8* %108 to i64*
  %110 = load i64, i64* %109, align 8
  %111 = getelementptr inbounds i8, i8* %107, i64 16
  %112 = load i8, i8* %111, align 8
  %113 = and i8 %112, 1
  %114 = icmp ne i8 %113, 0
  %115 = bitcast %"class.blink::mojom::blink::FileSystemOperationListener"* %0 to void (%"class.blink::mojom::blink::FileSystemOperationListener"*, i64, i1)***
  %116 = load void (%"class.blink::mojom::blink::FileSystemOperationListener"*, i64, i1)**, void (%"class.blink::mojom::blink::FileSystemOperationListener"*, i64, i1)*** %115, align 8
  %117 = getelementptr inbounds void (%"class.blink::mojom::blink::FileSystemOperationListener"*, i64, i1)*, void (%"class.blink::mojom::blink::FileSystemOperationListener"*, i64, i1)** %116, i64 3
  %118 = load void (%"class.blink::mojom::blink::FileSystemOperationListener"*, i64, i1)*, void (%"class.blink::mojom::blink::FileSystemOperationListener"*, i64, i1)** %117, align 8
  call void %118(%"class.blink::mojom::blink::FileSystemOperationListener"* %0, i64 %110, i1 zeroext %114) #12
  br label %133

119:                                              ; preds = %2
  %120 = bitcast %"class.base::TaskAnnotator::ScopedSetIpcHash"* %7 to i8*
  call void @llvm.lifetime.start.p0i8(i64 24, i8* nonnull %120) #12
  call void @llvm.memset.p0i8.i64(i8* nonnull align 8 %120, i8 -86, i64 24, i1 false)
  call void @_ZN4base13TaskAnnotator16ScopedSetIpcHashC1Ej(%"class.base::TaskAnnotator::ScopedSetIpcHash"* nonnull %7, i32 555233909) #12
  %121 = call i8* @_ZNK4mojo7Message7payloadEv(%"class.mojo::Message"* %1) #12
  %122 = getelementptr inbounds i8, i8* %121, i64 8
  %123 = bitcast i8* %122 to i32*
  %124 = load i32, i32* %123, align 4
  %125 = add i32 %124, 16
  %126 = icmp ult i32 %125, 17
  br i1 %126, label %128, label %127

127:                                              ; preds = %119
  call void @_ZN4mojo8internal31ReportValidationErrorForMessageEPNS_7MessageENS0_15ValidationErrorEPKcjb(%"class.mojo::Message"* %1, i32 17, i8* getelementptr inbounds ([40 x i8], [40 x i8]* @_ZN5blink5mojom5blink27FileSystemOperationListener5Name_E, i64 0, i64 0), i32 2, i1 zeroext false) #12
  br label %133

128:                                              ; preds = %119
  %129 = bitcast %"class.blink::mojom::blink::FileSystemOperationListener"* %0 to void (%"class.blink::mojom::blink::FileSystemOperationListener"*, i32)***
  %130 = load void (%"class.blink::mojom::blink::FileSystemOperationListener"*, i32)**, void (%"class.blink::mojom::blink::FileSystemOperationListener"*, i32)*** %129, align 8
  %131 = getelementptr inbounds void (%"class.blink::mojom::blink::FileSystemOperationListener"*, i32)*, void (%"class.blink::mojom::blink::FileSystemOperationListener"*, i32)** %130, i64 4
  %132 = load void (%"class.blink::mojom::blink::FileSystemOperationListener"*, i32)*, void (%"class.blink::mojom::blink::FileSystemOperationListener"*, i32)** %131, align 8
  call void %132(%"class.blink::mojom::blink::FileSystemOperationListener"* %0, i32 %124) #12
  br label %133

133:                                              ; preds = %127, %128, %104, %105
  %134 = phi %"class.base::TaskAnnotator::ScopedSetIpcHash"* [ %6, %105 ], [ %3, %104 ], [ %7, %128 ], [ %7, %127 ]
  %135 = phi i8* [ %106, %105 ], [ %14, %104 ], [ %120, %128 ], [ %120, %127 ]
  %136 = phi i1 [ true, %105 ], [ %79, %104 ], [ true, %128 ], [ false, %127 ]
  call void @_ZN4base13TaskAnnotator16ScopedSetIpcHashD1Ev(%"class.base::TaskAnnotator::ScopedSetIpcHash"* nonnull %134) #12
  call void @llvm.lifetime.end.p0i8(i64 24, i8* nonnull %135) #12
  br label %137

137:                                              ; preds = %133, %2
  %138 = phi i1 [ false, %2 ], [ %136, %133 ]
  ret i1 %138
}

; Function Attrs: nounwind ssp uwtable
define hidden zeroext i1 @_ZN5blink5mojom5blink39FileSystemOperationListenerStubDispatch19AcceptWithResponderEPNS1_27FileSystemOperationListenerEPN4mojo7MessageENSt3__110unique_ptrINS5_25MessageReceiverWithStatusENS8_14default_deleteISA_EEEE(%"class.blink::mojom::blink::FileSystemOperationListener"* nocapture readnone, %"class.mojo::Message"* nocapture readonly, %"class.mojo::MessageReceiverWithStatus"*) local_unnamed_addr #0 align 2 {
  %4 = icmp eq %"class.mojo::MessageReceiverWithStatus"* %2, null
  br i1 %4, label %10, label %5

5:                                                ; preds = %3
  %6 = bitcast %"class.mojo::MessageReceiverWithStatus"* %2 to void (%"class.mojo::MessageReceiverWithStatus"*)***
  %7 = load void (%"class.mojo::MessageReceiverWithStatus"*)**, void (%"class.mojo::MessageReceiverWithStatus"*)*** %6, align 8
  %8 = getelementptr inbounds void (%"class.mojo::MessageReceiverWithStatus"*)*, void (%"class.mojo::MessageReceiverWithStatus"*)** %7, i64 1
  %9 = load void (%"class.mojo::MessageReceiverWithStatus"*)*, void (%"class.mojo::MessageReceiverWithStatus"*)** %8, align 8
  tail call void %9(%"class.mojo::MessageReceiverWithStatus"* nonnull %2) #12
  br label %10

10:                                               ; preds = %3, %5
  ret i1 false
}

; Function Attrs: nounwind ssp uwtable
define hidden zeroext i1 @_ZN5blink5mojom5blink43FileSystemOperationListenerRequestValidator6AcceptEPN4mojo7MessageE(%"class.blink::mojom::blink::FileSystemOperationListenerRequestValidator"* nocapture readnone, %"class.mojo::Message"*) unnamed_addr #0 align 2 {
  %3 = tail call zeroext i1 @_ZN4mojo8internal28ValidateRequestGenericPackedEPNS_7MessageEPKcN4base4spanIKNS0_21GenericValidationInfoELm18446744073709551615EEE(%"class.mojo::Message"* %1, i8* getelementptr inbounds ([40 x i8], [40 x i8]* @_ZN5blink5mojom5blink27FileSystemOperationListener5Name_E, i64 0, i64 0), i64 3, %"struct.mojo::internal::GenericValidationInfo"* getelementptr inbounds ([3 x %"struct.mojo::internal::GenericValidationInfo"], [3 x %"struct.mojo::internal::GenericValidationInfo"]* @_ZN5blink5mojom5blinkL42kFileSystemOperationListenerValidationInfoE, i64 0, i64 0)) #12
  ret i1 %3
}

; Function Attrs: nofree norecurse nounwind ssp uwtable writeonly
define hidden void @_ZN5blink5mojom5blink29ReceivedSnapshotListenerProxyC2EPN4mojo28MessageReceiverWithResponderE(%"class.blink::mojom::blink::ReceivedSnapshotListenerProxy"* nocapture, %"class.mojo::MessageReceiverWithResponder"*) unnamed_addr #4 align 2 {
  %3 = getelementptr inbounds %"class.blink::mojom::blink::ReceivedSnapshotListenerProxy", %"class.blink::mojom::blink::ReceivedSnapshotListenerProxy"* %0, i64 0, i32 0, i32 0
  store i32 (...)** bitcast (i8** getelementptr inbounds ({ [5 x i8*] }, { [5 x i8*] }* @_ZTVN5blink5mojom5blink29ReceivedSnapshotListenerProxyE, i64 0, inrange i32 0, i64 2) to i32 (...)**), i32 (...)*** %3, align 8
  %4 = getelementptr inbounds %"class.blink::mojom::blink::ReceivedSnapshotListenerProxy", %"class.blink::mojom::blink::ReceivedSnapshotListenerProxy"* %0, i64 0, i32 1
  store %"class.mojo::MessageReceiverWithResponder"* %1, %"class.mojo::MessageReceiverWithResponder"** %4, align 8
  ret void
}

; Function Attrs: nounwind ssp uwtable
define hidden void @_ZN5blink5mojom5blink29ReceivedSnapshotListenerProxy22DidReceiveSnapshotFileEv(%"class.blink::mojom::blink::ReceivedSnapshotListenerProxy"* nocapture readonly) unnamed_addr #0 align 2 {
  %2 = alloca %"class.mojo::Message", align 8
  %3 = bitcast %"class.mojo::Message"* %2 to i8*
  call void @llvm.lifetime.start.p0i8(i64 120, i8* nonnull %3) #12
  call void @llvm.memset.p0i8.i64(i8* nonnull align 8 %3, i8 -86, i64 120, i1 false)
  call void @_ZN4mojo7MessageC1EjjmmPNSt3__16vectorINS_16ScopedHandleBaseINS_6HandleEEENS1_9allocatorIS5_EEEE(%"class.mojo::Message"* nonnull %2, i32 0, i32 0, i64 0, i64 0, %"class.std::__1::vector"* null) #12
  %4 = getelementptr inbounds %"class.mojo::Message", %"class.mojo::Message"* %2, i64 0, i32 1
  %5 = call i64 @_ZN4mojo8internal6Buffer8AllocateEm(%"class.mojo::internal::Buffer"* %4, i64 8) #12
  %6 = getelementptr inbounds %"class.mojo::Message", %"class.mojo::Message"* %2, i64 0, i32 1, i32 2
  %7 = load i8*, i8** %6, align 8
  %8 = getelementptr inbounds i8, i8* %7, i64 %5
  %9 = bitcast i8* %8 to %"class.blink::mojom::internal::ReceivedSnapshotListener_DidReceiveSnapshotFile_Params_Data"*
  call void @_ZN5blink5mojom8internal59ReceivedSnapshotListener_DidReceiveSnapshotFile_Params_DataC1Ev(%"class.blink::mojom::internal::ReceivedSnapshotListener_DidReceiveSnapshotFile_Params_Data"* %9) #12
  %10 = getelementptr inbounds %"class.blink::mojom::blink::ReceivedSnapshotListenerProxy", %"class.blink::mojom::blink::ReceivedSnapshotListenerProxy"* %0, i64 0, i32 1
  %11 = bitcast %"class.mojo::MessageReceiverWithResponder"** %10 to %"class.mojo::MessageReceiver"**
  %12 = load %"class.mojo::MessageReceiver"*, %"class.mojo::MessageReceiver"** %11, align 8
  %13 = bitcast %"class.mojo::MessageReceiver"* %12 to i1 (%"class.mojo::MessageReceiver"*, %"class.mojo::Message"*)***
  %14 = load i1 (%"class.mojo::MessageReceiver"*, %"class.mojo::Message"*)**, i1 (%"class.mojo::MessageReceiver"*, %"class.mojo::Message"*)*** %13, align 8
  %15 = getelementptr inbounds i1 (%"class.mojo::MessageReceiver"*, %"class.mojo::Message"*)*, i1 (%"class.mojo::MessageReceiver"*, %"class.mojo::Message"*)** %14, i64 3
  %16 = load i1 (%"class.mojo::MessageReceiver"*, %"class.mojo::Message"*)*, i1 (%"class.mojo::MessageReceiver"*, %"class.mojo::Message"*)** %15, align 8
  %17 = call zeroext i1 %16(%"class.mojo::MessageReceiver"* %12, %"class.mojo::Message"* nonnull %2) #12
  call void @_ZN4mojo7MessageD1Ev(%"class.mojo::Message"* nonnull %2) #12
  call void @llvm.lifetime.end.p0i8(i64 120, i8* nonnull %3) #12
  ret void
}

; Function Attrs: nounwind ssp uwtable
define hidden zeroext i1 @_ZN5blink5mojom5blink36ReceivedSnapshotListenerStubDispatch6AcceptEPNS1_24ReceivedSnapshotListenerEPN4mojo7MessageE(%"class.blink::mojom::blink::ReceivedSnapshotListener"*, %"class.mojo::Message"*) local_unnamed_addr #0 align 2 {
  %3 = alloca %"class.base::TaskAnnotator::ScopedSetIpcHash", align 8
  %4 = getelementptr inbounds %"class.mojo::Message", %"class.mojo::Message"* %1, i64 0, i32 1, i32 2
  %5 = bitcast i8** %4 to %"struct.mojo::internal::MessageHeader"**
  %6 = load %"struct.mojo::internal::MessageHeader"*, %"struct.mojo::internal::MessageHeader"** %5, align 8
  %7 = getelementptr inbounds %"struct.mojo::internal::MessageHeader", %"struct.mojo::internal::MessageHeader"* %6, i64 0, i32 2
  %8 = load i32, i32* %7, align 1
  %9 = icmp eq i32 %8, 0
  br i1 %9, label %10, label %17

10:                                               ; preds = %2
  %11 = bitcast %"class.base::TaskAnnotator::ScopedSetIpcHash"* %3 to i8*
  call void @llvm.lifetime.start.p0i8(i64 24, i8* nonnull %11) #12
  call void @llvm.memset.p0i8.i64(i8* nonnull align 8 %11, i8 -86, i64 24, i1 false)
  call void @_ZN4base13TaskAnnotator16ScopedSetIpcHashC1Ej(%"class.base::TaskAnnotator::ScopedSetIpcHash"* nonnull %3, i32 1371607226) #12
  %12 = call i8* @_ZNK4mojo7Message7payloadEv(%"class.mojo::Message"* %1) #12
  %13 = bitcast %"class.blink::mojom::blink::ReceivedSnapshotListener"* %0 to void (%"class.blink::mojom::blink::ReceivedSnapshotListener"*)***
  %14 = load void (%"class.blink::mojom::blink::ReceivedSnapshotListener"*)**, void (%"class.blink::mojom::blink::ReceivedSnapshotListener"*)*** %13, align 8
  %15 = getelementptr inbounds void (%"class.blink::mojom::blink::ReceivedSnapshotListener"*)*, void (%"class.blink::mojom::blink::ReceivedSnapshotListener"*)** %14, i64 2
  %16 = load void (%"class.blink::mojom::blink::ReceivedSnapshotListener"*)*, void (%"class.blink::mojom::blink::ReceivedSnapshotListener"*)** %15, align 8
  call void %16(%"class.blink::mojom::blink::ReceivedSnapshotListener"* %0) #12
  call void @_ZN4base13TaskAnnotator16ScopedSetIpcHashD1Ev(%"class.base::TaskAnnotator::ScopedSetIpcHash"* nonnull %3) #12
  call void @llvm.lifetime.end.p0i8(i64 24, i8* nonnull %11) #12
  br label %17

17:                                               ; preds = %2, %10
  %18 = phi i1 [ true, %10 ], [ false, %2 ]
  ret i1 %18
}

; Function Attrs: nounwind ssp uwtable
define hidden zeroext i1 @_ZN5blink5mojom5blink36ReceivedSnapshotListenerStubDispatch19AcceptWithResponderEPNS1_24ReceivedSnapshotListenerEPN4mojo7MessageENSt3__110unique_ptrINS5_25MessageReceiverWithStatusENS8_14default_deleteISA_EEEE(%"class.blink::mojom::blink::ReceivedSnapshotListener"* nocapture readnone, %"class.mojo::Message"* nocapture readonly, %"class.mojo::MessageReceiverWithStatus"*) local_unnamed_addr #0 align 2 {
  %4 = icmp eq %"class.mojo::MessageReceiverWithStatus"* %2, null
  br i1 %4, label %10, label %5

5:                                                ; preds = %3
  %6 = bitcast %"class.mojo::MessageReceiverWithStatus"* %2 to void (%"class.mojo::MessageReceiverWithStatus"*)***
  %7 = load void (%"class.mojo::MessageReceiverWithStatus"*)**, void (%"class.mojo::MessageReceiverWithStatus"*)*** %6, align 8
  %8 = getelementptr inbounds void (%"class.mojo::MessageReceiverWithStatus"*)*, void (%"class.mojo::MessageReceiverWithStatus"*)** %7, i64 1
  %9 = load void (%"class.mojo::MessageReceiverWithStatus"*)*, void (%"class.mojo::MessageReceiverWithStatus"*)** %8, align 8
  tail call void %9(%"class.mojo::MessageReceiverWithStatus"* nonnull %2) #12
  br label %10

10:                                               ; preds = %3, %5
  ret i1 false
}

; Function Attrs: nounwind ssp uwtable
define hidden zeroext i1 @_ZN5blink5mojom5blink40ReceivedSnapshotListenerRequestValidator6AcceptEPN4mojo7MessageE(%"class.blink::mojom::blink::ReceivedSnapshotListenerRequestValidator"* nocapture readnone, %"class.mojo::Message"*) unnamed_addr #0 align 2 {
  %3 = tail call zeroext i1 @_ZN4mojo8internal28ValidateRequestGenericPackedEPNS_7MessageEPKcN4base4spanIKNS0_21GenericValidationInfoELm18446744073709551615EEE(%"class.mojo::Message"* %1, i8* getelementptr inbounds ([37 x i8], [37 x i8]* @_ZN5blink5mojom5blink24ReceivedSnapshotListener5Name_E, i64 0, i64 0), i64 1, %"struct.mojo::internal::GenericValidationInfo"* getelementptr inbounds ([1 x %"struct.mojo::internal::GenericValidationInfo"], [1 x %"struct.mojo::internal::GenericValidationInfo"]* @_ZN5blink5mojom5blinkL39kReceivedSnapshotListenerValidationInfoE, i64 0, i64 0)) #12
  ret i1 %3
}

; Function Attrs: norecurse nounwind readnone ssp uwtable
define hidden zeroext i1 @_ZN5blink5mojom5blink17FileSystemManager4OpenERK13scoped_refptrIKNS_14SecurityOriginEENS0_14FileSystemTypeEPN3WTF6StringEPNS_4KURLEPN4base4File5ErrorE(%"class.blink::mojom::blink::FileSystemManager"* nocapture readnone, %class.scoped_refptr.58* nocapture readnone dereferenceable(8), i32, %"class.WTF::String"* nocapture readnone, %"class.blink::KURL"* nocapture readnone, i32* nocapture readnone) unnamed_addr #7 align 2 {
  ret i1 false
}

; Function Attrs: norecurse nounwind readnone ssp uwtable
define hidden zeroext i1 @_ZN5blink5mojom5blink17FileSystemManager10ResolveURLERKNS_4KURLEPN4mojo9StructPtrINS1_14FileSystemInfoEEEPN4base8FilePathEPbPNSB_4File5ErrorE(%"class.blink::mojom::blink::FileSystemManager"* nocapture readnone, %"class.blink::KURL"* nocapture readnone dereferenceable(112), %"class.mojo::StructPtr.60"* nocapture readnone, %"class.base::FilePath"* nocapture readnone, i8* nocapture readnone, i32* nocapture readnone) unnamed_addr #7 align 2 {
  ret i1 false
}

; Function Attrs: norecurse nounwind readnone ssp uwtable
define hidden zeroext i1 @_ZN5blink5mojom5blink17FileSystemManager4MoveERKNS_4KURLES5_PN4base4File5ErrorE(%"class.blink::mojom::blink::FileSystemManager"* nocapture readnone, %"class.blink::KURL"* nocapture readnone dereferenceable(112), %"class.blink::KURL"* nocapture readnone dereferenceable(112), i32* nocapture readnone) unnamed_addr #7 align 2 {
  ret i1 false
}

; Function Attrs: norecurse nounwind readnone ssp uwtable
define hidden zeroext i1 @_ZN5blink5mojom5blink17FileSystemManager4CopyERKNS_4KURLES5_PN4base4File5ErrorE(%"class.blink::mojom::blink::FileSystemManager"* nocapture readnone, %"class.blink::KURL"* nocapture readnone dereferenceable(112), %"class.blink::KURL"* nocapture readnone dereferenceable(112), i32* nocapture readnone) unnamed_addr #7 align 2 {
  ret i1 false
}

; Function Attrs: norecurse nounwind readnone ssp uwtable
define hidden zeroext i1 @_ZN5blink5mojom5blink17FileSystemManager6RemoveERKNS_4KURLEbPN4base4File5ErrorE(%"class.blink::mojom::blink::FileSystemManager"* nocapture readnone, %"class.blink::KURL"* nocapture readnone dereferenceable(112), i1 zeroext, i32* nocapture readnone) unnamed_addr #7 align 2 {
  ret i1 false
}

; Function Attrs: norecurse nounwind readnone ssp uwtable
define hidden zeroext i1 @_ZN5blink5mojom5blink17FileSystemManager12ReadMetadataERKNS_4KURLEPN4base4File4InfoEPNS7_5ErrorE(%"class.blink::mojom::blink::FileSystemManager"* nocapture readnone, %"class.blink::KURL"* nocapture readnone dereferenceable(112), %"struct.base::File::Info"* nocapture readnone, i32* nocapture readnone) unnamed_addr #7 align 2 {
  ret i1 false
}

; Function Attrs: norecurse nounwind readnone ssp uwtable
define hidden zeroext i1 @_ZN5blink5mojom5blink17FileSystemManager6CreateERKNS_4KURLEbbbPN4base4File5ErrorE(%"class.blink::mojom::blink::FileSystemManager"* nocapture readnone, %"class.blink::KURL"* nocapture readnone dereferenceable(112), i1 zeroext, i1 zeroext, i1 zeroext, i32* nocapture readnone) unnamed_addr #7 align 2 {
  ret i1 false
}

; Function Attrs: norecurse nounwind readnone ssp uwtable
define hidden zeroext i1 @_ZN5blink5mojom5blink17FileSystemManager6ExistsERKNS_4KURLEbPN4base4File5ErrorE(%"class.blink::mojom::blink::FileSystemManager"* nocapture readnone, %"class.blink::KURL"* nocapture readnone dereferenceable(112), i1 zeroext, i32* nocapture readnone) unnamed_addr #7 align 2 {
  ret i1 false
}

; Function Attrs: norecurse nounwind readnone ssp uwtable
define hidden zeroext i1 @_ZN5blink5mojom5blink17FileSystemManager17ReadDirectorySyncERKNS_4KURLEPN3WTF6VectorIN4mojo9StructPtrIN10filesystem5mojom5blink14DirectoryEntryEEELj0ENS6_18PartitionAllocatorEEEPN4base4File5ErrorE(%"class.blink::mojom::blink::FileSystemManager"* nocapture readnone, %"class.blink::KURL"* nocapture readnone dereferenceable(112), %"class.WTF::Vector"* nocapture readnone, i32* nocapture readnone) unnamed_addr #7 align 2 {
  ret i1 false
}

; Function Attrs: norecurse nounwind readnone ssp uwtable
define hidden zeroext i1 @_ZN5blink5mojom5blink17FileSystemManager9WriteSyncERKNS_4KURLERKN3WTF6StringElPlPN4base4File5ErrorE(%"class.blink::mojom::blink::FileSystemManager"* nocapture readnone, %"class.blink::KURL"* nocapture readnone dereferenceable(112), %"class.WTF::String"* nocapture readnone dereferenceable(8), i64, i64* nocapture readnone, i32* nocapture readnone) unnamed_addr #7 align 2 {
  ret i1 false
}

; Function Attrs: norecurse nounwind readnone ssp uwtable
define hidden zeroext i1 @_ZN5blink5mojom5blink17FileSystemManager12TruncateSyncERKNS_4KURLElPN4base4File5ErrorE(%"class.blink::mojom::blink::FileSystemManager"* nocapture readnone, %"class.blink::KURL"* nocapture readnone dereferenceable(112), i64, i32* nocapture readnone) unnamed_addr #7 align 2 {
  ret i1 false
}

; Function Attrs: norecurse nounwind readnone ssp uwtable
define hidden zeroext i1 @_ZN5blink5mojom5blink17FileSystemManager18CreateSnapshotFileERKNS_4KURLEPN4base4File4InfoEPNS6_8FilePathEPNS7_5ErrorEPN4mojo13PendingRemoteINS1_24ReceivedSnapshotListenerEEE(%"class.blink::mojom::blink::FileSystemManager"* nocapture readnone, %"class.blink::KURL"* nocapture readnone dereferenceable(112), %"struct.base::File::Info"* nocapture readnone, %"class.base::FilePath"* nocapture readnone, i32* nocapture readnone, %"class.mojo::PendingRemote"* nocapture readnone) unnamed_addr #7 align 2 {
  ret i1 false
}

; Function Attrs: norecurse nounwind readnone ssp uwtable
define hidden zeroext i1 @_ZN5blink5mojom5blink17FileSystemManager15GetPlatformPathERKNS_4KURLEPN4base8FilePathE(%"class.blink::mojom::blink::FileSystemManager"* nocapture readnone, %"class.blink::KURL"* nocapture readnone dereferenceable(112), %"class.base::FilePath"* nocapture readnone) unnamed_addr #7 align 2 {
  ret i1 false
}

; Function Attrs: nofree norecurse nounwind ssp uwtable writeonly
define hidden void @_ZN5blink5mojom5blink22FileSystemManagerProxyC2EPN4mojo28MessageReceiverWithResponderE(%"class.blink::mojom::blink::FileSystemManagerProxy"* nocapture, %"class.mojo::MessageReceiverWithResponder"*) unnamed_addr #4 align 2 {
  %3 = getelementptr inbounds %"class.blink::mojom::blink::FileSystemManagerProxy", %"class.blink::mojom::blink::FileSystemManagerProxy"* %0, i64 0, i32 0, i32 0
  store i32 (...)** bitcast (i8** getelementptr inbounds ({ [33 x i8*] }, { [33 x i8*] }* @_ZTVN5blink5mojom5blink22FileSystemManagerProxyE, i64 0, inrange i32 0, i64 2) to i32 (...)**), i32 (...)*** %3, align 8
  %4 = getelementptr inbounds %"class.blink::mojom::blink::FileSystemManagerProxy", %"class.blink::mojom::blink::FileSystemManagerProxy"* %0, i64 0, i32 1
  store %"class.mojo::MessageReceiverWithResponder"* %1, %"class.mojo::MessageReceiverWithResponder"** %4, align 8
  ret void
}

; Function Attrs: nounwind ssp uwtable
define hidden zeroext i1 @_ZN5blink5mojom5blink22FileSystemManagerProxy4OpenERK13scoped_refptrIKNS_14SecurityOriginEENS0_14FileSystemTypeEPN3WTF6StringEPNS_4KURLEPN4base4File5ErrorE(%"class.blink::mojom::blink::FileSystemManagerProxy"* nocapture readonly, %class.scoped_refptr.58* dereferenceable(8), i32, %"class.WTF::String"*, %"class.blink::KURL"*, i32*) unnamed_addr #0 align 2 {
  %7 = alloca %"class.mojo::Message", align 8
  %8 = alloca %"class.mojo::internal::MessageFragment.69", align 8
  %9 = alloca i8, align 1
  %10 = bitcast %"class.mojo::Message"* %7 to i8*
  call void @llvm.lifetime.start.p0i8(i64 120, i8* nonnull %10) #12
  call void @llvm.memset.p0i8.i64(i8* nonnull align 8 %10, i8 -86, i64 120, i1 false)
  call void @_ZN4mojo7MessageC1EjjmmPNSt3__16vectorINS_16ScopedHandleBaseINS_6HandleEEENS1_9allocatorIS5_EEEE(%"class.mojo::Message"* nonnull %7, i32 0, i32 5, i64 0, i64 0, %"class.std::__1::vector"* null) #12
  %11 = getelementptr inbounds %"class.mojo::Message", %"class.mojo::Message"* %7, i64 0, i32 1
  %12 = call i64 @_ZN4mojo8internal6Buffer8AllocateEm(%"class.mojo::internal::Buffer"* %11, i64 24) #12
  %13 = getelementptr inbounds %"class.mojo::Message", %"class.mojo::Message"* %7, i64 0, i32 1, i32 2
  %14 = load i8*, i8** %13, align 8
  %15 = getelementptr inbounds i8, i8* %14, i64 %12
  %16 = bitcast i8* %15 to %"class.blink::mojom::internal::FileSystemManager_Open_Params_Data"*
  call void @_ZN5blink5mojom8internal34FileSystemManager_Open_Params_DataC1Ev(%"class.blink::mojom::internal::FileSystemManager_Open_Params_Data"* %16) #12
  %17 = bitcast %"class.mojo::internal::MessageFragment.69"* %8 to i8*
  call void @llvm.lifetime.start.p0i8(i64 16, i8* nonnull %17) #12
  %18 = getelementptr inbounds %"class.mojo::internal::MessageFragment.69", %"class.mojo::internal::MessageFragment.69"* %8, i64 0, i32 0
  %19 = getelementptr inbounds %"class.mojo::internal::MessageFragment.69", %"class.mojo::internal::MessageFragment.69"* %8, i64 0, i32 1
  store %"class.mojo::Message"* %7, %"class.mojo::Message"** %18, align 8
  store i64 -1, i64* %19, align 8
  call void @_ZN4mojo8internal10SerializerIN3url5mojom14OriginDataViewEK13scoped_refptrIKN5blink14SecurityOriginEEE9SerializeERSA_RNS0_15MessageFragmentINS3_8internal11Origin_DataEEE(%class.scoped_refptr.58* dereferenceable(8) %1, %"class.mojo::internal::MessageFragment.69"* nonnull dereferenceable(16) %8) #12
  %20 = load i8*, i8** %13, align 8
  %21 = getelementptr inbounds i8, i8* %20, i64 %12
  %22 = getelementptr inbounds i8, i8* %21, i64 8
  %23 = load i64, i64* %19, align 8
  %24 = icmp eq i64 %23, -1
  br i1 %24, label %31, label %25

25:                                               ; preds = %6
  %26 = load %"class.mojo::Message"*, %"class.mojo::Message"** %18, align 8
  %27 = getelementptr inbounds %"class.mojo::Message", %"class.mojo::Message"* %26, i64 0, i32 1, i32 2
  %28 = load i8*, i8** %27, align 8
  %29 = getelementptr inbounds i8, i8* %28, i64 %23
  %30 = bitcast i8* %29 to %"class.url::mojom::internal::Origin_Data"*
  br label %31

31:                                               ; preds = %25, %6
  %32 = phi %"class.url::mojom::internal::Origin_Data"* [ %30, %25 ], [ null, %6 ]
  %33 = bitcast i8* %22 to i64*
  %34 = icmp eq %"class.url::mojom::internal::Origin_Data"* %32, null
  %35 = ptrtoint %"class.url::mojom::internal::Origin_Data"* %32 to i64
  %36 = ptrtoint i8* %22 to i64
  %37 = sub i64 %35, %36
  %38 = select i1 %34, i64 0, i64 %37
  store i64 %38, i64* %33, align 8
  %39 = load i8*, i8** %13, align 8
  %40 = getelementptr inbounds i8, i8* %39, i64 %12
  %41 = getelementptr inbounds i8, i8* %40, i64 16
  %42 = bitcast i8* %41 to i32*
  store i32 %2, i32* %42, align 4
  call void @llvm.lifetime.start.p0i8(i64 1, i8* nonnull %9) #12
  store i8 0, i8* %9, align 1
  %43 = call i8* @_Znwm(i64 40) #13
  %44 = bitcast i8* %43 to i32 (...)***
  store i32 (...)** bitcast (i8** getelementptr inbounds ({ [6 x i8*] }, { [6 x i8*] }* @_ZTVN5blink5mojom5blink41FileSystemManager_Open_HandleSyncResponseE, i64 0, inrange i32 0, i64 2) to i32 (...)**), i32 (...)*** %44, align 8
  %45 = getelementptr inbounds i8, i8* %43, i64 8
  %46 = bitcast i8* %45 to i8**
  store i8* %9, i8** %46, align 8
  %47 = getelementptr inbounds i8, i8* %43, i64 16
  %48 = bitcast i8* %47 to %"class.WTF::String"**
  store %"class.WTF::String"* %3, %"class.WTF::String"** %48, align 8
  %49 = getelementptr inbounds i8, i8* %43, i64 24
  %50 = bitcast i8* %49 to %"class.blink::KURL"**
  store %"class.blink::KURL"* %4, %"class.blink::KURL"** %50, align 8
  %51 = getelementptr inbounds i8, i8* %43, i64 32
  %52 = bitcast i8* %51 to i32**
  store i32* %5, i32** %52, align 8
  %53 = bitcast i8* %43 to %"class.mojo::MessageReceiver"*
  %54 = getelementptr inbounds %"class.blink::mojom::blink::FileSystemManagerProxy", %"class.blink::mojom::blink::FileSystemManagerProxy"* %0, i64 0, i32 1
  %55 = load %"class.mojo::MessageReceiverWithResponder"*, %"class.mojo::MessageReceiverWithResponder"** %54, align 8
  %56 = bitcast %"class.mojo::MessageReceiverWithResponder"* %55 to i1 (%"class.mojo::MessageReceiverWithResponder"*, %"class.mojo::Message"*, %"class.mojo::MessageReceiver"*)***
  %57 = load i1 (%"class.mojo::MessageReceiverWithResponder"*, %"class.mojo::Message"*, %"class.mojo::MessageReceiver"*)**, i1 (%"class.mojo::MessageReceiverWithResponder"*, %"class.mojo::Message"*, %"class.mojo::MessageReceiver"*)*** %56, align 8
  %58 = getelementptr inbounds i1 (%"class.mojo::MessageReceiverWithResponder"*, %"class.mojo::Message"*, %"class.mojo::MessageReceiver"*)*, i1 (%"class.mojo::MessageReceiverWithResponder"*, %"class.mojo::Message"*, %"class.mojo::MessageReceiver"*)** %57, i64 4
  %59 = load i1 (%"class.mojo::MessageReceiverWithResponder"*, %"class.mojo::Message"*, %"class.mojo::MessageReceiver"*)*, i1 (%"class.mojo::MessageReceiverWithResponder"*, %"class.mojo::Message"*, %"class.mojo::MessageReceiver"*)** %58, align 8
  %60 = call zeroext i1 %59(%"class.mojo::MessageReceiverWithResponder"* %55, %"class.mojo::Message"* nonnull %7, %"class.mojo::MessageReceiver"* nonnull %53) #12
  %61 = load i8, i8* %9, align 1, !range !3
  %62 = icmp ne i8 %61, 0
  call void @llvm.lifetime.end.p0i8(i64 1, i8* nonnull %9) #12
  call void @llvm.lifetime.end.p0i8(i64 16, i8* nonnull %17) #12
  call void @_ZN4mojo7MessageD1Ev(%"class.mojo::Message"* nonnull %7) #12
  call void @llvm.lifetime.end.p0i8(i64 120, i8* nonnull %10) #12
  ret i1 %62
}

; Function Attrs: nounwind ssp uwtable
define hidden void @_ZN5blink5mojom5blink22FileSystemManagerProxy4OpenERK13scoped_refptrIKNS_14SecurityOriginEENS0_14FileSystemTypeEN4base12OnceCallbackIFvRKN3WTF6StringERKNS_4KURLENSA_4File5ErrorEEEE(%"class.blink::mojom::blink::FileSystemManagerProxy"* nocapture readonly, %class.scoped_refptr.58* dereferenceable(8), i32, %"class.base::OnceCallback.73"* nocapture) unnamed_addr #0 align 2 {
  %5 = alloca %"class.mojo::Message", align 8
  %6 = alloca %"class.mojo::internal::MessageFragment.69", align 8
  %7 = alloca %"class.base::OnceCallback.73", align 8
  %8 = bitcast %"class.mojo::Message"* %5 to i8*
  call void @llvm.lifetime.start.p0i8(i64 120, i8* nonnull %8) #12
  call void @llvm.memset.p0i8.i64(i8* nonnull align 8 %8, i8 -86, i64 120, i1 false)
  call void @_ZN4mojo7MessageC1EjjmmPNSt3__16vectorINS_16ScopedHandleBaseINS_6HandleEEENS1_9allocatorIS5_EEEE(%"class.mojo::Message"* nonnull %5, i32 0, i32 1, i64 0, i64 0, %"class.std::__1::vector"* null) #12
  %9 = getelementptr inbounds %"class.mojo::Message", %"class.mojo::Message"* %5, i64 0, i32 1
  %10 = call i64 @_ZN4mojo8internal6Buffer8AllocateEm(%"class.mojo::internal::Buffer"* %9, i64 24) #12
  %11 = getelementptr inbounds %"class.mojo::Message", %"class.mojo::Message"* %5, i64 0, i32 1, i32 2
  %12 = load i8*, i8** %11, align 8
  %13 = getelementptr inbounds i8, i8* %12, i64 %10
  %14 = bitcast i8* %13 to %"class.blink::mojom::internal::FileSystemManager_Open_Params_Data"*
  call void @_ZN5blink5mojom8internal34FileSystemManager_Open_Params_DataC1Ev(%"class.blink::mojom::internal::FileSystemManager_Open_Params_Data"* %14) #12
  %15 = bitcast %"class.mojo::internal::MessageFragment.69"* %6 to i8*
  call void @llvm.lifetime.start.p0i8(i64 16, i8* nonnull %15) #12
  %16 = getelementptr inbounds %"class.mojo::internal::MessageFragment.69", %"class.mojo::internal::MessageFragment.69"* %6, i64 0, i32 0
  %17 = getelementptr inbounds %"class.mojo::internal::MessageFragment.69", %"class.mojo::internal::MessageFragment.69"* %6, i64 0, i32 1
  store %"class.mojo::Message"* %5, %"class.mojo::Message"** %16, align 8
  store i64 -1, i64* %17, align 8
  call void @_ZN4mojo8internal10SerializerIN3url5mojom14OriginDataViewEK13scoped_refptrIKN5blink14SecurityOriginEEE9SerializeERSA_RNS0_15MessageFragmentINS3_8internal11Origin_DataEEE(%class.scoped_refptr.58* dereferenceable(8) %1, %"class.mojo::internal::MessageFragment.69"* nonnull dereferenceable(16) %6) #12
  %18 = load i8*, i8** %11, align 8
  %19 = getelementptr inbounds i8, i8* %18, i64 %10
  %20 = getelementptr inbounds i8, i8* %19, i64 8
  %21 = load i64, i64* %17, align 8
  %22 = icmp eq i64 %21, -1
  br i1 %22, label %29, label %23

23:                                               ; preds = %4
  %24 = load %"class.mojo::Message"*, %"class.mojo::Message"** %16, align 8
  %25 = getelementptr inbounds %"class.mojo::Message", %"class.mojo::Message"* %24, i64 0, i32 1, i32 2
  %26 = load i8*, i8** %25, align 8
  %27 = getelementptr inbounds i8, i8* %26, i64 %21
  %28 = bitcast i8* %27 to %"class.url::mojom::internal::Origin_Data"*
  br label %29

29:                                               ; preds = %23, %4
  %30 = phi %"class.url::mojom::internal::Origin_Data"* [ %28, %23 ], [ null, %4 ]
  %31 = bitcast i8* %20 to i64*
  %32 = icmp eq %"class.url::mojom::internal::Origin_Data"* %30, null
  %33 = ptrtoint %"class.url::mojom::internal::Origin_Data"* %30 to i64
  %34 = ptrtoint i8* %20 to i64
  %35 = sub i64 %33, %34
  %36 = select i1 %32, i64 0, i64 %35
  store i64 %36, i64* %31, align 8
  %37 = load i8*, i8** %11, align 8
  %38 = getelementptr inbounds i8, i8* %37, i64 %10
  %39 = getelementptr inbounds i8, i8* %38, i64 16
  %40 = bitcast i8* %39 to i32*
  store i32 %2, i32* %40, align 4
  %41 = call i8* @_Znwm(i64 16) #13
  %42 = getelementptr inbounds %"class.base::OnceCallback.73", %"class.base::OnceCallback.73"* %3, i64 0, i32 0, i32 0, i32 0
  %43 = bitcast %"class.base::OnceCallback.73"* %3 to i64*
  %44 = load i64, i64* %43, align 8
  store %"class.base::internal::BindStateBase"* null, %"class.base::internal::BindStateBase"** %42, align 8
  %45 = bitcast i8* %41 to i32 (...)***
  store i32 (...)** bitcast (i8** getelementptr inbounds ({ [6 x i8*] }, { [6 x i8*] }* @_ZTVN5blink5mojom5blink40FileSystemManager_Open_ForwardToCallbackE, i64 0, inrange i32 0, i64 2) to i32 (...)**), i32 (...)*** %45, align 8
  %46 = getelementptr inbounds i8, i8* %41, i64 8
  %47 = getelementptr inbounds %"class.base::OnceCallback.73", %"class.base::OnceCallback.73"* %7, i64 0, i32 0, i32 0, i32 0
  %48 = bitcast i8* %46 to i64*
  store i64 %44, i64* %48, align 8
  store %"class.base::internal::BindStateBase"* null, %"class.base::internal::BindStateBase"** %47, align 8
  %49 = bitcast i8* %41 to %"class.mojo::MessageReceiver"*
  %50 = getelementptr inbounds %"class.base::OnceCallback.73", %"class.base::OnceCallback.73"* %7, i64 0, i32 0
  call void @_ZN4base8internal12CallbackBaseD2Ev(%"class.base::internal::CallbackBase"* nonnull %50) #12
  %51 = getelementptr inbounds %"class.blink::mojom::blink::FileSystemManagerProxy", %"class.blink::mojom::blink::FileSystemManagerProxy"* %0, i64 0, i32 1
  %52 = load %"class.mojo::MessageReceiverWithResponder"*, %"class.mojo::MessageReceiverWithResponder"** %51, align 8
  %53 = bitcast %"class.mojo::MessageReceiverWithResponder"* %52 to i1 (%"class.mojo::MessageReceiverWithResponder"*, %"class.mojo::Message"*, %"class.mojo::MessageReceiver"*)***
  %54 = load i1 (%"class.mojo::MessageReceiverWithResponder"*, %"class.mojo::Message"*, %"class.mojo::MessageReceiver"*)**, i1 (%"class.mojo::MessageReceiverWithResponder"*, %"class.mojo::Message"*, %"class.mojo::MessageReceiver"*)*** %53, align 8
  %55 = getelementptr inbounds i1 (%"class.mojo::MessageReceiverWithResponder"*, %"class.mojo::Message"*, %"class.mojo::MessageReceiver"*)*, i1 (%"class.mojo::MessageReceiverWithResponder"*, %"class.mojo::Message"*, %"class.mojo::MessageReceiver"*)** %54, i64 4
  %56 = load i1 (%"class.mojo::MessageReceiverWithResponder"*, %"class.mojo::Message"*, %"class.mojo::MessageReceiver"*)*, i1 (%"class.mojo::MessageReceiverWithResponder"*, %"class.mojo::Message"*, %"class.mojo::MessageReceiver"*)** %55, align 8
  %57 = call zeroext i1 %56(%"class.mojo::MessageReceiverWithResponder"* %52, %"class.mojo::Message"* nonnull %5, %"class.mojo::MessageReceiver"* nonnull %49) #12
  call void @llvm.lifetime.end.p0i8(i64 16, i8* nonnull %15) #12
  call void @_ZN4mojo7MessageD1Ev(%"class.mojo::Message"* nonnull %5) #12
  call void @llvm.lifetime.end.p0i8(i64 120, i8* nonnull %8) #12
  ret void
}

; Function Attrs: nounwind ssp uwtable
define hidden zeroext i1 @_ZN5blink5mojom5blink22FileSystemManagerProxy10ResolveURLERKNS_4KURLEPN4mojo9StructPtrINS1_14FileSystemInfoEEEPN4base8FilePathEPbPNSB_4File5ErrorE(%"class.blink::mojom::blink::FileSystemManagerProxy"* nocapture readonly, %"class.blink::KURL"* dereferenceable(112), %"class.mojo::StructPtr.60"*, %"class.base::FilePath"*, i8*, i32*) unnamed_addr #0 align 2 {
  %7 = alloca %"class.mojo::Message", align 8
  %8 = alloca %"class.mojo::internal::MessageFragment.75", align 8
  %9 = alloca i8, align 1
  %10 = bitcast %"class.mojo::Message"* %7 to i8*
  call void @llvm.lifetime.start.p0i8(i64 120, i8* nonnull %10) #12
  call void @llvm.memset.p0i8.i64(i8* nonnull align 8 %10, i8 -86, i64 120, i1 false)
  call void @_ZN4mojo7MessageC1EjjmmPNSt3__16vectorINS_16ScopedHandleBaseINS_6HandleEEENS1_9allocatorIS5_EEEE(%"class.mojo::Message"* nonnull %7, i32 1, i32 5, i64 0, i64 0, %"class.std::__1::vector"* null) #12
  %11 = getelementptr inbounds %"class.mojo::Message", %"class.mojo::Message"* %7, i64 0, i32 1
  %12 = call i64 @_ZN4mojo8internal6Buffer8AllocateEm(%"class.mojo::internal::Buffer"* %11, i64 16) #12
  %13 = getelementptr inbounds %"class.mojo::Message", %"class.mojo::Message"* %7, i64 0, i32 1, i32 2
  %14 = load i8*, i8** %13, align 8
  %15 = getelementptr inbounds i8, i8* %14, i64 %12
  %16 = bitcast i8* %15 to %"class.blink::mojom::internal::FileSystemManager_ResolveURL_Params_Data"*
  call void @_ZN5blink5mojom8internal40FileSystemManager_ResolveURL_Params_DataC1Ev(%"class.blink::mojom::internal::FileSystemManager_ResolveURL_Params_Data"* %16) #12
  %17 = bitcast %"class.mojo::internal::MessageFragment.75"* %8 to i8*
  call void @llvm.lifetime.start.p0i8(i64 16, i8* nonnull %17) #12
  %18 = getelementptr inbounds %"class.mojo::internal::MessageFragment.75", %"class.mojo::internal::MessageFragment.75"* %8, i64 0, i32 0
  %19 = getelementptr inbounds %"class.mojo::internal::MessageFragment.75", %"class.mojo::internal::MessageFragment.75"* %8, i64 0, i32 1
  store %"class.mojo::Message"* %7, %"class.mojo::Message"** %18, align 8
  store i64 -1, i64* %19, align 8
  call void @_ZN4mojo8internal10SerializerIN3url5mojom11UrlDataViewEKN5blink4KURLEE9SerializeERS7_RNS0_15MessageFragmentINS3_8internal8Url_DataEEE(%"class.blink::KURL"* dereferenceable(112) %1, %"class.mojo::internal::MessageFragment.75"* nonnull dereferenceable(16) %8) #12
  %20 = load i8*, i8** %13, align 8
  %21 = getelementptr inbounds i8, i8* %20, i64 %12
  %22 = getelementptr inbounds i8, i8* %21, i64 8
  %23 = load i64, i64* %19, align 8
  %24 = icmp eq i64 %23, -1
  br i1 %24, label %31, label %25

25:                                               ; preds = %6
  %26 = load %"class.mojo::Message"*, %"class.mojo::Message"** %18, align 8
  %27 = getelementptr inbounds %"class.mojo::Message", %"class.mojo::Message"* %26, i64 0, i32 1, i32 2
  %28 = load i8*, i8** %27, align 8
  %29 = getelementptr inbounds i8, i8* %28, i64 %23
  %30 = bitcast i8* %29 to %"class.url::mojom::internal::Url_Data"*
  br label %31

31:                                               ; preds = %25, %6
  %32 = phi %"class.url::mojom::internal::Url_Data"* [ %30, %25 ], [ null, %6 ]
  %33 = bitcast i8* %22 to i64*
  %34 = icmp eq %"class.url::mojom::internal::Url_Data"* %32, null
  %35 = ptrtoint %"class.url::mojom::internal::Url_Data"* %32 to i64
  %36 = ptrtoint i8* %22 to i64
  %37 = sub i64 %35, %36
  %38 = select i1 %34, i64 0, i64 %37
  store i64 %38, i64* %33, align 8
  call void @llvm.lifetime.start.p0i8(i64 1, i8* nonnull %9) #12
  store i8 0, i8* %9, align 1
  %39 = call i8* @_Znwm(i64 48) #13
  %40 = bitcast i8* %39 to i32 (...)***
  store i32 (...)** bitcast (i8** getelementptr inbounds ({ [6 x i8*] }, { [6 x i8*] }* @_ZTVN5blink5mojom5blink47FileSystemManager_ResolveURL_HandleSyncResponseE, i64 0, inrange i32 0, i64 2) to i32 (...)**), i32 (...)*** %40, align 8
  %41 = getelementptr inbounds i8, i8* %39, i64 8
  %42 = bitcast i8* %41 to i8**
  store i8* %9, i8** %42, align 8
  %43 = getelementptr inbounds i8, i8* %39, i64 16
  %44 = bitcast i8* %43 to %"class.mojo::StructPtr.60"**
  store %"class.mojo::StructPtr.60"* %2, %"class.mojo::StructPtr.60"** %44, align 8
  %45 = getelementptr inbounds i8, i8* %39, i64 24
  %46 = bitcast i8* %45 to %"class.base::FilePath"**
  store %"class.base::FilePath"* %3, %"class.base::FilePath"** %46, align 8
  %47 = getelementptr inbounds i8, i8* %39, i64 32
  %48 = bitcast i8* %47 to i8**
  store i8* %4, i8** %48, align 8
  %49 = getelementptr inbounds i8, i8* %39, i64 40
  %50 = bitcast i8* %49 to i32**
  store i32* %5, i32** %50, align 8
  %51 = bitcast i8* %39 to %"class.mojo::MessageReceiver"*
  %52 = getelementptr inbounds %"class.blink::mojom::blink::FileSystemManagerProxy", %"class.blink::mojom::blink::FileSystemManagerProxy"* %0, i64 0, i32 1
  %53 = load %"class.mojo::MessageReceiverWithResponder"*, %"class.mojo::MessageReceiverWithResponder"** %52, align 8
  %54 = bitcast %"class.mojo::MessageReceiverWithResponder"* %53 to i1 (%"class.mojo::MessageReceiverWithResponder"*, %"class.mojo::Message"*, %"class.mojo::MessageReceiver"*)***
  %55 = load i1 (%"class.mojo::MessageReceiverWithResponder"*, %"class.mojo::Message"*, %"class.mojo::MessageReceiver"*)**, i1 (%"class.mojo::MessageReceiverWithResponder"*, %"class.mojo::Message"*, %"class.mojo::MessageReceiver"*)*** %54, align 8
  %56 = getelementptr inbounds i1 (%"class.mojo::MessageReceiverWithResponder"*, %"class.mojo::Message"*, %"class.mojo::MessageReceiver"*)*, i1 (%"class.mojo::MessageReceiverWithResponder"*, %"class.mojo::Message"*, %"class.mojo::MessageReceiver"*)** %55, i64 4
  %57 = load i1 (%"class.mojo::MessageReceiverWithResponder"*, %"class.mojo::Message"*, %"class.mojo::MessageReceiver"*)*, i1 (%"class.mojo::MessageReceiverWithResponder"*, %"class.mojo::Message"*, %"class.mojo::MessageReceiver"*)** %56, align 8
  %58 = call zeroext i1 %57(%"class.mojo::MessageReceiverWithResponder"* %53, %"class.mojo::Message"* nonnull %7, %"class.mojo::MessageReceiver"* nonnull %51) #12
  %59 = load i8, i8* %9, align 1, !range !3
  %60 = icmp ne i8 %59, 0
  call void @llvm.lifetime.end.p0i8(i64 1, i8* nonnull %9) #12
  call void @llvm.lifetime.end.p0i8(i64 16, i8* nonnull %17) #12
  call void @_ZN4mojo7MessageD1Ev(%"class.mojo::Message"* nonnull %7) #12
  call void @llvm.lifetime.end.p0i8(i64 120, i8* nonnull %10) #12
  ret i1 %60
}

; Function Attrs: nounwind ssp uwtable
define hidden void @_ZN5blink5mojom5blink22FileSystemManagerProxy10ResolveURLERKNS_4KURLEN4base12OnceCallbackIFvN4mojo9StructPtrINS1_14FileSystemInfoEEERKNS6_8FilePathEbNS6_4File5ErrorEEEE(%"class.blink::mojom::blink::FileSystemManagerProxy"* nocapture readonly, %"class.blink::KURL"* dereferenceable(112), %"class.base::OnceCallback.77"* nocapture) unnamed_addr #0 align 2 {
  %4 = alloca %"class.mojo::Message", align 8
  %5 = alloca %"class.mojo::internal::MessageFragment.75", align 8
  %6 = alloca %"class.base::OnceCallback.77", align 8
  %7 = bitcast %"class.mojo::Message"* %4 to i8*
  call void @llvm.lifetime.start.p0i8(i64 120, i8* nonnull %7) #12
  call void @llvm.memset.p0i8.i64(i8* nonnull align 8 %7, i8 -86, i64 120, i1 false)
  call void @_ZN4mojo7MessageC1EjjmmPNSt3__16vectorINS_16ScopedHandleBaseINS_6HandleEEENS1_9allocatorIS5_EEEE(%"class.mojo::Message"* nonnull %4, i32 1, i32 1, i64 0, i64 0, %"class.std::__1::vector"* null) #12
  %8 = getelementptr inbounds %"class.mojo::Message", %"class.mojo::Message"* %4, i64 0, i32 1
  %9 = call i64 @_ZN4mojo8internal6Buffer8AllocateEm(%"class.mojo::internal::Buffer"* %8, i64 16) #12
  %10 = getelementptr inbounds %"class.mojo::Message", %"class.mojo::Message"* %4, i64 0, i32 1, i32 2
  %11 = load i8*, i8** %10, align 8
  %12 = getelementptr inbounds i8, i8* %11, i64 %9
  %13 = bitcast i8* %12 to %"class.blink::mojom::internal::FileSystemManager_ResolveURL_Params_Data"*
  call void @_ZN5blink5mojom8internal40FileSystemManager_ResolveURL_Params_DataC1Ev(%"class.blink::mojom::internal::FileSystemManager_ResolveURL_Params_Data"* %13) #12
  %14 = bitcast %"class.mojo::internal::MessageFragment.75"* %5 to i8*
  call void @llvm.lifetime.start.p0i8(i64 16, i8* nonnull %14) #12
  %15 = getelementptr inbounds %"class.mojo::internal::MessageFragment.75", %"class.mojo::internal::MessageFragment.75"* %5, i64 0, i32 0
  %16 = getelementptr inbounds %"class.mojo::internal::MessageFragment.75", %"class.mojo::internal::MessageFragment.75"* %5, i64 0, i32 1
  store %"class.mojo::Message"* %4, %"class.mojo::Message"** %15, align 8
  store i64 -1, i64* %16, align 8
  call void @_ZN4mojo8internal10SerializerIN3url5mojom11UrlDataViewEKN5blink4KURLEE9SerializeERS7_RNS0_15MessageFragmentINS3_8internal8Url_DataEEE(%"class.blink::KURL"* dereferenceable(112) %1, %"class.mojo::internal::MessageFragment.75"* nonnull dereferenceable(16) %5) #12
  %17 = load i8*, i8** %10, align 8
  %18 = getelementptr inbounds i8, i8* %17, i64 %9
  %19 = getelementptr inbounds i8, i8* %18, i64 8
  %20 = load i64, i64* %16, align 8
  %21 = icmp eq i64 %20, -1
  br i1 %21, label %28, label %22

22:                                               ; preds = %3
  %23 = load %"class.mojo::Message"*, %"class.mojo::Message"** %15, align 8
  %24 = getelementptr inbounds %"class.mojo::Message", %"class.mojo::Message"* %23, i64 0, i32 1, i32 2
  %25 = load i8*, i8** %24, align 8
  %26 = getelementptr inbounds i8, i8* %25, i64 %20
  %27 = bitcast i8* %26 to %"class.url::mojom::internal::Url_Data"*
  br label %28

28:                                               ; preds = %22, %3
  %29 = phi %"class.url::mojom::internal::Url_Data"* [ %27, %22 ], [ null, %3 ]
  %30 = bitcast i8* %19 to i64*
  %31 = icmp eq %"class.url::mojom::internal::Url_Data"* %29, null
  %32 = ptrtoint %"class.url::mojom::internal::Url_Data"* %29 to i64
  %33 = ptrtoint i8* %19 to i64
  %34 = sub i64 %32, %33
  %35 = select i1 %31, i64 0, i64 %34
  store i64 %35, i64* %30, align 8
  %36 = call i8* @_Znwm(i64 16) #13
  %37 = getelementptr inbounds %"class.base::OnceCallback.77", %"class.base::OnceCallback.77"* %2, i64 0, i32 0, i32 0, i32 0
  %38 = bitcast %"class.base::OnceCallback.77"* %2 to i64*
  %39 = load i64, i64* %38, align 8
  store %"class.base::internal::BindStateBase"* null, %"class.base::internal::BindStateBase"** %37, align 8
  %40 = bitcast i8* %36 to i32 (...)***
  store i32 (...)** bitcast (i8** getelementptr inbounds ({ [6 x i8*] }, { [6 x i8*] }* @_ZTVN5blink5mojom5blink46FileSystemManager_ResolveURL_ForwardToCallbackE, i64 0, inrange i32 0, i64 2) to i32 (...)**), i32 (...)*** %40, align 8
  %41 = getelementptr inbounds i8, i8* %36, i64 8
  %42 = getelementptr inbounds %"class.base::OnceCallback.77", %"class.base::OnceCallback.77"* %6, i64 0, i32 0, i32 0, i32 0
  %43 = bitcast i8* %41 to i64*
  store i64 %39, i64* %43, align 8
  store %"class.base::internal::BindStateBase"* null, %"class.base::internal::BindStateBase"** %42, align 8
  %44 = bitcast i8* %36 to %"class.mojo::MessageReceiver"*
  %45 = getelementptr inbounds %"class.base::OnceCallback.77", %"class.base::OnceCallback.77"* %6, i64 0, i32 0
  call void @_ZN4base8internal12CallbackBaseD2Ev(%"class.base::internal::CallbackBase"* nonnull %45) #12
  %46 = getelementptr inbounds %"class.blink::mojom::blink::FileSystemManagerProxy", %"class.blink::mojom::blink::FileSystemManagerProxy"* %0, i64 0, i32 1
  %47 = load %"class.mojo::MessageReceiverWithResponder"*, %"class.mojo::MessageReceiverWithResponder"** %46, align 8
  %48 = bitcast %"class.mojo::MessageReceiverWithResponder"* %47 to i1 (%"class.mojo::MessageReceiverWithResponder"*, %"class.mojo::Message"*, %"class.mojo::MessageReceiver"*)***
  %49 = load i1 (%"class.mojo::MessageReceiverWithResponder"*, %"class.mojo::Message"*, %"class.mojo::MessageReceiver"*)**, i1 (%"class.mojo::MessageReceiverWithResponder"*, %"class.mojo::Message"*, %"class.mojo::MessageReceiver"*)*** %48, align 8
  %50 = getelementptr inbounds i1 (%"class.mojo::MessageReceiverWithResponder"*, %"class.mojo::Message"*, %"class.mojo::MessageReceiver"*)*, i1 (%"class.mojo::MessageReceiverWithResponder"*, %"class.mojo::Message"*, %"class.mojo::MessageReceiver"*)** %49, i64 4
  %51 = load i1 (%"class.mojo::MessageReceiverWithResponder"*, %"class.mojo::Message"*, %"class.mojo::MessageReceiver"*)*, i1 (%"class.mojo::MessageReceiverWithResponder"*, %"class.mojo::Message"*, %"class.mojo::MessageReceiver"*)** %50, align 8
  %52 = call zeroext i1 %51(%"class.mojo::MessageReceiverWithResponder"* %47, %"class.mojo::Message"* nonnull %4, %"class.mojo::MessageReceiver"* nonnull %44) #12
  call void @llvm.lifetime.end.p0i8(i64 16, i8* nonnull %14) #12
  call void @_ZN4mojo7MessageD1Ev(%"class.mojo::Message"* nonnull %4) #12
  call void @llvm.lifetime.end.p0i8(i64 120, i8* nonnull %7) #12
  ret void
}

; Function Attrs: nounwind ssp uwtable
define hidden zeroext i1 @_ZN5blink5mojom5blink22FileSystemManagerProxy4MoveERKNS_4KURLES5_PN4base4File5ErrorE(%"class.blink::mojom::blink::FileSystemManagerProxy"* nocapture readonly, %"class.blink::KURL"* dereferenceable(112), %"class.blink::KURL"* dereferenceable(112), i32*) unnamed_addr #0 align 2 {
  %5 = alloca %"class.mojo::Message", align 8
  %6 = alloca %"class.mojo::internal::MessageFragment.75", align 8
  %7 = alloca %"class.mojo::internal::MessageFragment.75", align 8
  %8 = alloca i8, align 1
  %9 = bitcast %"class.mojo::Message"* %5 to i8*
  call void @llvm.lifetime.start.p0i8(i64 120, i8* nonnull %9) #12
  call void @llvm.memset.p0i8.i64(i8* nonnull align 8 %9, i8 -86, i64 120, i1 false)
  call void @_ZN4mojo7MessageC1EjjmmPNSt3__16vectorINS_16ScopedHandleBaseINS_6HandleEEENS1_9allocatorIS5_EEEE(%"class.mojo::Message"* nonnull %5, i32 2, i32 5, i64 0, i64 0, %"class.std::__1::vector"* null) #12
  %10 = getelementptr inbounds %"class.mojo::Message", %"class.mojo::Message"* %5, i64 0, i32 1
  %11 = call i64 @_ZN4mojo8internal6Buffer8AllocateEm(%"class.mojo::internal::Buffer"* %10, i64 24) #12
  %12 = getelementptr inbounds %"class.mojo::Message", %"class.mojo::Message"* %5, i64 0, i32 1, i32 2
  %13 = load i8*, i8** %12, align 8
  %14 = getelementptr inbounds i8, i8* %13, i64 %11
  %15 = bitcast i8* %14 to %"class.blink::mojom::internal::FileSystemManager_Move_Params_Data"*
  call void @_ZN5blink5mojom8internal34FileSystemManager_Move_Params_DataC1Ev(%"class.blink::mojom::internal::FileSystemManager_Move_Params_Data"* %15) #12
  %16 = bitcast %"class.mojo::internal::MessageFragment.75"* %6 to i8*
  call void @llvm.lifetime.start.p0i8(i64 16, i8* nonnull %16) #12
  %17 = getelementptr inbounds %"class.mojo::internal::MessageFragment.75", %"class.mojo::internal::MessageFragment.75"* %6, i64 0, i32 0
  %18 = getelementptr inbounds %"class.mojo::internal::MessageFragment.75", %"class.mojo::internal::MessageFragment.75"* %6, i64 0, i32 1
  store %"class.mojo::Message"* %5, %"class.mojo::Message"** %17, align 8
  store i64 -1, i64* %18, align 8
  call void @_ZN4mojo8internal10SerializerIN3url5mojom11UrlDataViewEKN5blink4KURLEE9SerializeERS7_RNS0_15MessageFragmentINS3_8internal8Url_DataEEE(%"class.blink::KURL"* dereferenceable(112) %1, %"class.mojo::internal::MessageFragment.75"* nonnull dereferenceable(16) %6) #12
  %19 = load i8*, i8** %12, align 8
  %20 = getelementptr inbounds i8, i8* %19, i64 %11
  %21 = getelementptr inbounds i8, i8* %20, i64 8
  %22 = load i64, i64* %18, align 8
  %23 = icmp eq i64 %22, -1
  br i1 %23, label %30, label %24

24:                                               ; preds = %4
  %25 = load %"class.mojo::Message"*, %"class.mojo::Message"** %17, align 8
  %26 = getelementptr inbounds %"class.mojo::Message", %"class.mojo::Message"* %25, i64 0, i32 1, i32 2
  %27 = load i8*, i8** %26, align 8
  %28 = getelementptr inbounds i8, i8* %27, i64 %22
  %29 = bitcast i8* %28 to %"class.url::mojom::internal::Url_Data"*
  br label %30

30:                                               ; preds = %4, %24
  %31 = phi %"class.url::mojom::internal::Url_Data"* [ %29, %24 ], [ null, %4 ]
  %32 = bitcast i8* %21 to i64*
  %33 = icmp eq %"class.url::mojom::internal::Url_Data"* %31, null
  %34 = ptrtoint %"class.url::mojom::internal::Url_Data"* %31 to i64
  %35 = ptrtoint i8* %21 to i64
  %36 = sub i64 %34, %35
  %37 = select i1 %33, i64 0, i64 %36
  store i64 %37, i64* %32, align 8
  %38 = bitcast %"class.mojo::internal::MessageFragment.75"* %7 to i8*
  call void @llvm.lifetime.start.p0i8(i64 16, i8* nonnull %38) #12
  %39 = getelementptr inbounds %"class.mojo::internal::MessageFragment.75", %"class.mojo::internal::MessageFragment.75"* %7, i64 0, i32 0
  %40 = getelementptr inbounds %"class.mojo::internal::MessageFragment.75", %"class.mojo::internal::MessageFragment.75"* %7, i64 0, i32 1
  store %"class.mojo::Message"* %5, %"class.mojo::Message"** %39, align 8
  store i64 -1, i64* %40, align 8
  call void @_ZN4mojo8internal10SerializerIN3url5mojom11UrlDataViewEKN5blink4KURLEE9SerializeERS7_RNS0_15MessageFragmentINS3_8internal8Url_DataEEE(%"class.blink::KURL"* dereferenceable(112) %2, %"class.mojo::internal::MessageFragment.75"* nonnull dereferenceable(16) %7) #12
  %41 = load i8*, i8** %12, align 8
  %42 = getelementptr inbounds i8, i8* %41, i64 %11
  %43 = getelementptr inbounds i8, i8* %42, i64 16
  %44 = load i64, i64* %40, align 8
  %45 = icmp eq i64 %44, -1
  br i1 %45, label %52, label %46

46:                                               ; preds = %30
  %47 = load %"class.mojo::Message"*, %"class.mojo::Message"** %39, align 8
  %48 = getelementptr inbounds %"class.mojo::Message", %"class.mojo::Message"* %47, i64 0, i32 1, i32 2
  %49 = load i8*, i8** %48, align 8
  %50 = getelementptr inbounds i8, i8* %49, i64 %44
  %51 = bitcast i8* %50 to %"class.url::mojom::internal::Url_Data"*
  br label %52

52:                                               ; preds = %46, %30
  %53 = phi %"class.url::mojom::internal::Url_Data"* [ %51, %46 ], [ null, %30 ]
  %54 = bitcast i8* %43 to i64*
  %55 = icmp eq %"class.url::mojom::internal::Url_Data"* %53, null
  %56 = ptrtoint %"class.url::mojom::internal::Url_Data"* %53 to i64
  %57 = ptrtoint i8* %43 to i64
  %58 = sub i64 %56, %57
  %59 = select i1 %55, i64 0, i64 %58
  store i64 %59, i64* %54, align 8
  call void @llvm.lifetime.start.p0i8(i64 1, i8* nonnull %8) #12
  store i8 0, i8* %8, align 1
  %60 = call i8* @_Znwm(i64 24) #13
  %61 = bitcast i8* %60 to i32 (...)***
  store i32 (...)** bitcast (i8** getelementptr inbounds ({ [6 x i8*] }, { [6 x i8*] }* @_ZTVN5blink5mojom5blink41FileSystemManager_Move_HandleSyncResponseE, i64 0, inrange i32 0, i64 2) to i32 (...)**), i32 (...)*** %61, align 8
  %62 = getelementptr inbounds i8, i8* %60, i64 8
  %63 = bitcast i8* %62 to i8**
  store i8* %8, i8** %63, align 8
  %64 = getelementptr inbounds i8, i8* %60, i64 16
  %65 = bitcast i8* %64 to i32**
  store i32* %3, i32** %65, align 8
  %66 = bitcast i8* %60 to %"class.mojo::MessageReceiver"*
  %67 = getelementptr inbounds %"class.blink::mojom::blink::FileSystemManagerProxy", %"class.blink::mojom::blink::FileSystemManagerProxy"* %0, i64 0, i32 1
  %68 = load %"class.mojo::MessageReceiverWithResponder"*, %"class.mojo::MessageReceiverWithResponder"** %67, align 8
  %69 = bitcast %"class.mojo::MessageReceiverWithResponder"* %68 to i1 (%"class.mojo::MessageReceiverWithResponder"*, %"class.mojo::Message"*, %"class.mojo::MessageReceiver"*)***
  %70 = load i1 (%"class.mojo::MessageReceiverWithResponder"*, %"class.mojo::Message"*, %"class.mojo::MessageReceiver"*)**, i1 (%"class.mojo::MessageReceiverWithResponder"*, %"class.mojo::Message"*, %"class.mojo::MessageReceiver"*)*** %69, align 8
  %71 = getelementptr inbounds i1 (%"class.mojo::MessageReceiverWithResponder"*, %"class.mojo::Message"*, %"class.mojo::MessageReceiver"*)*, i1 (%"class.mojo::MessageReceiverWithResponder"*, %"class.mojo::Message"*, %"class.mojo::MessageReceiver"*)** %70, i64 4
  %72 = load i1 (%"class.mojo::MessageReceiverWithResponder"*, %"class.mojo::Message"*, %"class.mojo::MessageReceiver"*)*, i1 (%"class.mojo::MessageReceiverWithResponder"*, %"class.mojo::Message"*, %"class.mojo::MessageReceiver"*)** %71, align 8
  %73 = call zeroext i1 %72(%"class.mojo::MessageReceiverWithResponder"* %68, %"class.mojo::Message"* nonnull %5, %"class.mojo::MessageReceiver"* nonnull %66) #12
  %74 = load i8, i8* %8, align 1, !range !3
  %75 = icmp ne i8 %74, 0
  call void @llvm.lifetime.end.p0i8(i64 1, i8* nonnull %8) #12
  call void @llvm.lifetime.end.p0i8(i64 16, i8* nonnull %38) #12
  call void @llvm.lifetime.end.p0i8(i64 16, i8* nonnull %16) #12
  call void @_ZN4mojo7MessageD1Ev(%"class.mojo::Message"* nonnull %5) #12
  call void @llvm.lifetime.end.p0i8(i64 120, i8* nonnull %9) #12
  ret i1 %75
}

; Function Attrs: nounwind ssp uwtable
define hidden void @_ZN5blink5mojom5blink22FileSystemManagerProxy4MoveERKNS_4KURLES5_N4base12OnceCallbackIFvNS6_4File5ErrorEEEE(%"class.blink::mojom::blink::FileSystemManagerProxy"* nocapture readonly, %"class.blink::KURL"* dereferenceable(112), %"class.blink::KURL"* dereferenceable(112), %"class.base::OnceCallback"* nocapture) unnamed_addr #0 align 2 {
  %5 = alloca %"class.mojo::Message", align 8
  %6 = alloca %"class.mojo::internal::MessageFragment.75", align 8
  %7 = alloca %"class.mojo::internal::MessageFragment.75", align 8
  %8 = alloca %"class.base::OnceCallback", align 8
  %9 = bitcast %"class.mojo::Message"* %5 to i8*
  call void @llvm.lifetime.start.p0i8(i64 120, i8* nonnull %9) #12
  call void @llvm.memset.p0i8.i64(i8* nonnull align 8 %9, i8 -86, i64 120, i1 false)
  call void @_ZN4mojo7MessageC1EjjmmPNSt3__16vectorINS_16ScopedHandleBaseINS_6HandleEEENS1_9allocatorIS5_EEEE(%"class.mojo::Message"* nonnull %5, i32 2, i32 1, i64 0, i64 0, %"class.std::__1::vector"* null) #12
  %10 = getelementptr inbounds %"class.mojo::Message", %"class.mojo::Message"* %5, i64 0, i32 1
  %11 = call i64 @_ZN4mojo8internal6Buffer8AllocateEm(%"class.mojo::internal::Buffer"* %10, i64 24) #12
  %12 = getelementptr inbounds %"class.mojo::Message", %"class.mojo::Message"* %5, i64 0, i32 1, i32 2
  %13 = load i8*, i8** %12, align 8
  %14 = getelementptr inbounds i8, i8* %13, i64 %11
  %15 = bitcast i8* %14 to %"class.blink::mojom::internal::FileSystemManager_Move_Params_Data"*
  call void @_ZN5blink5mojom8internal34FileSystemManager_Move_Params_DataC1Ev(%"class.blink::mojom::internal::FileSystemManager_Move_Params_Data"* %15) #12
  %16 = bitcast %"class.mojo::internal::MessageFragment.75"* %6 to i8*
  call void @llvm.lifetime.start.p0i8(i64 16, i8* nonnull %16) #12
  %17 = getelementptr inbounds %"class.mojo::internal::MessageFragment.75", %"class.mojo::internal::MessageFragment.75"* %6, i64 0, i32 0
  %18 = getelementptr inbounds %"class.mojo::internal::MessageFragment.75", %"class.mojo::internal::MessageFragment.75"* %6, i64 0, i32 1
  store %"class.mojo::Message"* %5, %"class.mojo::Message"** %17, align 8
  store i64 -1, i64* %18, align 8
  call void @_ZN4mojo8internal10SerializerIN3url5mojom11UrlDataViewEKN5blink4KURLEE9SerializeERS7_RNS0_15MessageFragmentINS3_8internal8Url_DataEEE(%"class.blink::KURL"* dereferenceable(112) %1, %"class.mojo::internal::MessageFragment.75"* nonnull dereferenceable(16) %6) #12
  %19 = load i8*, i8** %12, align 8
  %20 = getelementptr inbounds i8, i8* %19, i64 %11
  %21 = getelementptr inbounds i8, i8* %20, i64 8
  %22 = load i64, i64* %18, align 8
  %23 = icmp eq i64 %22, -1
  br i1 %23, label %30, label %24

24:                                               ; preds = %4
  %25 = load %"class.mojo::Message"*, %"class.mojo::Message"** %17, align 8
  %26 = getelementptr inbounds %"class.mojo::Message", %"class.mojo::Message"* %25, i64 0, i32 1, i32 2
  %27 = load i8*, i8** %26, align 8
  %28 = getelementptr inbounds i8, i8* %27, i64 %22
  %29 = bitcast i8* %28 to %"class.url::mojom::internal::Url_Data"*
  br label %30

30:                                               ; preds = %4, %24
  %31 = phi %"class.url::mojom::internal::Url_Data"* [ %29, %24 ], [ null, %4 ]
  %32 = bitcast i8* %21 to i64*
  %33 = icmp eq %"class.url::mojom::internal::Url_Data"* %31, null
  %34 = ptrtoint %"class.url::mojom::internal::Url_Data"* %31 to i64
  %35 = ptrtoint i8* %21 to i64
  %36 = sub i64 %34, %35
  %37 = select i1 %33, i64 0, i64 %36
  store i64 %37, i64* %32, align 8
  %38 = bitcast %"class.mojo::internal::MessageFragment.75"* %7 to i8*
  call void @llvm.lifetime.start.p0i8(i64 16, i8* nonnull %38) #12
  %39 = getelementptr inbounds %"class.mojo::internal::MessageFragment.75", %"class.mojo::internal::MessageFragment.75"* %7, i64 0, i32 0
  %40 = getelementptr inbounds %"class.mojo::internal::MessageFragment.75", %"class.mojo::internal::MessageFragment.75"* %7, i64 0, i32 1
  store %"class.mojo::Message"* %5, %"class.mojo::Message"** %39, align 8
  store i64 -1, i64* %40, align 8
  call void @_ZN4mojo8internal10SerializerIN3url5mojom11UrlDataViewEKN5blink4KURLEE9SerializeERS7_RNS0_15MessageFragmentINS3_8internal8Url_DataEEE(%"class.blink::KURL"* dereferenceable(112) %2, %"class.mojo::internal::MessageFragment.75"* nonnull dereferenceable(16) %7) #12
  %41 = load i8*, i8** %12, align 8
  %42 = getelementptr inbounds i8, i8* %41, i64 %11
  %43 = getelementptr inbounds i8, i8* %42, i64 16
  %44 = load i64, i64* %40, align 8
  %45 = icmp eq i64 %44, -1
  br i1 %45, label %52, label %46

46:                                               ; preds = %30
  %47 = load %"class.mojo::Message"*, %"class.mojo::Message"** %39, align 8
  %48 = getelementptr inbounds %"class.mojo::Message", %"class.mojo::Message"* %47, i64 0, i32 1, i32 2
  %49 = load i8*, i8** %48, align 8
  %50 = getelementptr inbounds i8, i8* %49, i64 %44
  %51 = bitcast i8* %50 to %"class.url::mojom::internal::Url_Data"*
  br label %52

52:                                               ; preds = %46, %30
  %53 = phi %"class.url::mojom::internal::Url_Data"* [ %51, %46 ], [ null, %30 ]
  %54 = bitcast i8* %43 to i64*
  %55 = icmp eq %"class.url::mojom::internal::Url_Data"* %53, null
  %56 = ptrtoint %"class.url::mojom::internal::Url_Data"* %53 to i64
  %57 = ptrtoint i8* %43 to i64
  %58 = sub i64 %56, %57
  %59 = select i1 %55, i64 0, i64 %58
  store i64 %59, i64* %54, align 8
  %60 = call i8* @_Znwm(i64 16) #13
  %61 = getelementptr inbounds %"class.base::OnceCallback", %"class.base::OnceCallback"* %3, i64 0, i32 0, i32 0, i32 0
  %62 = bitcast %"class.base::OnceCallback"* %3 to i64*
  %63 = load i64, i64* %62, align 8
  store %"class.base::internal::BindStateBase"* null, %"class.base::internal::BindStateBase"** %61, align 8
  %64 = bitcast i8* %60 to i32 (...)***
  store i32 (...)** bitcast (i8** getelementptr inbounds ({ [6 x i8*] }, { [6 x i8*] }* @_ZTVN5blink5mojom5blink40FileSystemManager_Move_ForwardToCallbackE, i64 0, inrange i32 0, i64 2) to i32 (...)**), i32 (...)*** %64, align 8
  %65 = getelementptr inbounds i8, i8* %60, i64 8
  %66 = getelementptr inbounds %"class.base::OnceCallback", %"class.base::OnceCallback"* %8, i64 0, i32 0, i32 0, i32 0
  %67 = bitcast i8* %65 to i64*
  store i64 %63, i64* %67, align 8
  store %"class.base::internal::BindStateBase"* null, %"class.base::internal::BindStateBase"** %66, align 8
  %68 = bitcast i8* %60 to %"class.mojo::MessageReceiver"*
  %69 = getelementptr inbounds %"class.base::OnceCallback", %"class.base::OnceCallback"* %8, i64 0, i32 0
  call void @_ZN4base8internal12CallbackBaseD2Ev(%"class.base::internal::CallbackBase"* nonnull %69) #12
  %70 = getelementptr inbounds %"class.blink::mojom::blink::FileSystemManagerProxy", %"class.blink::mojom::blink::FileSystemManagerProxy"* %0, i64 0, i32 1
  %71 = load %"class.mojo::MessageReceiverWithResponder"*, %"class.mojo::MessageReceiverWithResponder"** %70, align 8
  %72 = bitcast %"class.mojo::MessageReceiverWithResponder"* %71 to i1 (%"class.mojo::MessageReceiverWithResponder"*, %"class.mojo::Message"*, %"class.mojo::MessageReceiver"*)***
  %73 = load i1 (%"class.mojo::MessageReceiverWithResponder"*, %"class.mojo::Message"*, %"class.mojo::MessageReceiver"*)**, i1 (%"class.mojo::MessageReceiverWithResponder"*, %"class.mojo::Message"*, %"class.mojo::MessageReceiver"*)*** %72, align 8
  %74 = getelementptr inbounds i1 (%"class.mojo::MessageReceiverWithResponder"*, %"class.mojo::Message"*, %"class.mojo::MessageReceiver"*)*, i1 (%"class.mojo::MessageReceiverWithResponder"*, %"class.mojo::Message"*, %"class.mojo::MessageReceiver"*)** %73, i64 4
  %75 = load i1 (%"class.mojo::MessageReceiverWithResponder"*, %"class.mojo::Message"*, %"class.mojo::MessageReceiver"*)*, i1 (%"class.mojo::MessageReceiverWithResponder"*, %"class.mojo::Message"*, %"class.mojo::MessageReceiver"*)** %74, align 8
  %76 = call zeroext i1 %75(%"class.mojo::MessageReceiverWithResponder"* %71, %"class.mojo::Message"* nonnull %5, %"class.mojo::MessageReceiver"* nonnull %68) #12
  call void @llvm.lifetime.end.p0i8(i64 16, i8* nonnull %38) #12
  call void @llvm.lifetime.end.p0i8(i64 16, i8* nonnull %16) #12
  call void @_ZN4mojo7MessageD1Ev(%"class.mojo::Message"* nonnull %5) #12
  call void @llvm.lifetime.end.p0i8(i64 120, i8* nonnull %9) #12
  ret void
}

; Function Attrs: nounwind ssp uwtable
define hidden zeroext i1 @_ZN5blink5mojom5blink22FileSystemManagerProxy4CopyERKNS_4KURLES5_PN4base4File5ErrorE(%"class.blink::mojom::blink::FileSystemManagerProxy"* nocapture readonly, %"class.blink::KURL"* dereferenceable(112), %"class.blink::KURL"* dereferenceable(112), i32*) unnamed_addr #0 align 2 {
  %5 = alloca %"class.mojo::Message", align 8
  %6 = alloca %"class.mojo::internal::MessageFragment.75", align 8
  %7 = alloca %"class.mojo::internal::MessageFragment.75", align 8
  %8 = alloca i8, align 1
  %9 = bitcast %"class.mojo::Message"* %5 to i8*
  call void @llvm.lifetime.start.p0i8(i64 120, i8* nonnull %9) #12
  call void @llvm.memset.p0i8.i64(i8* nonnull align 8 %9, i8 -86, i64 120, i1 false)
  call void @_ZN4mojo7MessageC1EjjmmPNSt3__16vectorINS_16ScopedHandleBaseINS_6HandleEEENS1_9allocatorIS5_EEEE(%"class.mojo::Message"* nonnull %5, i32 3, i32 5, i64 0, i64 0, %"class.std::__1::vector"* null) #12
  %10 = getelementptr inbounds %"class.mojo::Message", %"class.mojo::Message"* %5, i64 0, i32 1
  %11 = call i64 @_ZN4mojo8internal6Buffer8AllocateEm(%"class.mojo::internal::Buffer"* %10, i64 24) #12
  %12 = getelementptr inbounds %"class.mojo::Message", %"class.mojo::Message"* %5, i64 0, i32 1, i32 2
  %13 = load i8*, i8** %12, align 8
  %14 = getelementptr inbounds i8, i8* %13, i64 %11
  %15 = bitcast i8* %14 to %"class.blink::mojom::internal::FileSystemManager_Copy_Params_Data"*
  call void @_ZN5blink5mojom8internal34FileSystemManager_Copy_Params_DataC1Ev(%"class.blink::mojom::internal::FileSystemManager_Copy_Params_Data"* %15) #12
  %16 = bitcast %"class.mojo::internal::MessageFragment.75"* %6 to i8*
  call void @llvm.lifetime.start.p0i8(i64 16, i8* nonnull %16) #12
  %17 = getelementptr inbounds %"class.mojo::internal::MessageFragment.75", %"class.mojo::internal::MessageFragment.75"* %6, i64 0, i32 0
  %18 = getelementptr inbounds %"class.mojo::internal::MessageFragment.75", %"class.mojo::internal::MessageFragment.75"* %6, i64 0, i32 1
  store %"class.mojo::Message"* %5, %"class.mojo::Message"** %17, align 8
  store i64 -1, i64* %18, align 8
  call void @_ZN4mojo8internal10SerializerIN3url5mojom11UrlDataViewEKN5blink4KURLEE9SerializeERS7_RNS0_15MessageFragmentINS3_8internal8Url_DataEEE(%"class.blink::KURL"* dereferenceable(112) %1, %"class.mojo::internal::MessageFragment.75"* nonnull dereferenceable(16) %6) #12
  %19 = load i8*, i8** %12, align 8
  %20 = getelementptr inbounds i8, i8* %19, i64 %11
  %21 = getelementptr inbounds i8, i8* %20, i64 8
  %22 = load i64, i64* %18, align 8
  %23 = icmp eq i64 %22, -1
  br i1 %23, label %30, label %24

24:                                               ; preds = %4
  %25 = load %"class.mojo::Message"*, %"class.mojo::Message"** %17, align 8
  %26 = getelementptr inbounds %"class.mojo::Message", %"class.mojo::Message"* %25, i64 0, i32 1, i32 2
  %27 = load i8*, i8** %26, align 8
  %28 = getelementptr inbounds i8, i8* %27, i64 %22
  %29 = bitcast i8* %28 to %"class.url::mojom::internal::Url_Data"*
  br label %30

30:                                               ; preds = %4, %24
  %31 = phi %"class.url::mojom::internal::Url_Data"* [ %29, %24 ], [ null, %4 ]
  %32 = bitcast i8* %21 to i64*
  %33 = icmp eq %"class.url::mojom::internal::Url_Data"* %31, null
  %34 = ptrtoint %"class.url::mojom::internal::Url_Data"* %31 to i64
  %35 = ptrtoint i8* %21 to i64
  %36 = sub i64 %34, %35
  %37 = select i1 %33, i64 0, i64 %36
  store i64 %37, i64* %32, align 8
  %38 = bitcast %"class.mojo::internal::MessageFragment.75"* %7 to i8*
  call void @llvm.lifetime.start.p0i8(i64 16, i8* nonnull %38) #12
  %39 = getelementptr inbounds %"class.mojo::internal::MessageFragment.75", %"class.mojo::internal::MessageFragment.75"* %7, i64 0, i32 0
  %40 = getelementptr inbounds %"class.mojo::internal::MessageFragment.75", %"class.mojo::internal::MessageFragment.75"* %7, i64 0, i32 1
  store %"class.mojo::Message"* %5, %"class.mojo::Message"** %39, align 8
  store i64 -1, i64* %40, align 8
  call void @_ZN4mojo8internal10SerializerIN3url5mojom11UrlDataViewEKN5blink4KURLEE9SerializeERS7_RNS0_15MessageFragmentINS3_8internal8Url_DataEEE(%"class.blink::KURL"* dereferenceable(112) %2, %"class.mojo::internal::MessageFragment.75"* nonnull dereferenceable(16) %7) #12
  %41 = load i8*, i8** %12, align 8
  %42 = getelementptr inbounds i8, i8* %41, i64 %11
  %43 = getelementptr inbounds i8, i8* %42, i64 16
  %44 = load i64, i64* %40, align 8
  %45 = icmp eq i64 %44, -1
  br i1 %45, label %52, label %46

46:                                               ; preds = %30
  %47 = load %"class.mojo::Message"*, %"class.mojo::Message"** %39, align 8
  %48 = getelementptr inbounds %"class.mojo::Message", %"class.mojo::Message"* %47, i64 0, i32 1, i32 2
  %49 = load i8*, i8** %48, align 8
  %50 = getelementptr inbounds i8, i8* %49, i64 %44
  %51 = bitcast i8* %50 to %"class.url::mojom::internal::Url_Data"*
  br label %52

52:                                               ; preds = %46, %30
  %53 = phi %"class.url::mojom::internal::Url_Data"* [ %51, %46 ], [ null, %30 ]
  %54 = bitcast i8* %43 to i64*
  %55 = icmp eq %"class.url::mojom::internal::Url_Data"* %53, null
  %56 = ptrtoint %"class.url::mojom::internal::Url_Data"* %53 to i64
  %57 = ptrtoint i8* %43 to i64
  %58 = sub i64 %56, %57
  %59 = select i1 %55, i64 0, i64 %58
  store i64 %59, i64* %54, align 8
  call void @llvm.lifetime.start.p0i8(i64 1, i8* nonnull %8) #12
  store i8 0, i8* %8, align 1
  %60 = call i8* @_Znwm(i64 24) #13
  %61 = bitcast i8* %60 to i32 (...)***
  store i32 (...)** bitcast (i8** getelementptr inbounds ({ [6 x i8*] }, { [6 x i8*] }* @_ZTVN5blink5mojom5blink41FileSystemManager_Copy_HandleSyncResponseE, i64 0, inrange i32 0, i64 2) to i32 (...)**), i32 (...)*** %61, align 8
  %62 = getelementptr inbounds i8, i8* %60, i64 8
  %63 = bitcast i8* %62 to i8**
  store i8* %8, i8** %63, align 8
  %64 = getelementptr inbounds i8, i8* %60, i64 16
  %65 = bitcast i8* %64 to i32**
  store i32* %3, i32** %65, align 8
  %66 = bitcast i8* %60 to %"class.mojo::MessageReceiver"*
  %67 = getelementptr inbounds %"class.blink::mojom::blink::FileSystemManagerProxy", %"class.blink::mojom::blink::FileSystemManagerProxy"* %0, i64 0, i32 1
  %68 = load %"class.mojo::MessageReceiverWithResponder"*, %"class.mojo::MessageReceiverWithResponder"** %67, align 8
  %69 = bitcast %"class.mojo::MessageReceiverWithResponder"* %68 to i1 (%"class.mojo::MessageReceiverWithResponder"*, %"class.mojo::Message"*, %"class.mojo::MessageReceiver"*)***
  %70 = load i1 (%"class.mojo::MessageReceiverWithResponder"*, %"class.mojo::Message"*, %"class.mojo::MessageReceiver"*)**, i1 (%"class.mojo::MessageReceiverWithResponder"*, %"class.mojo::Message"*, %"class.mojo::MessageReceiver"*)*** %69, align 8
  %71 = getelementptr inbounds i1 (%"class.mojo::MessageReceiverWithResponder"*, %"class.mojo::Message"*, %"class.mojo::MessageReceiver"*)*, i1 (%"class.mojo::MessageReceiverWithResponder"*, %"class.mojo::Message"*, %"class.mojo::MessageReceiver"*)** %70, i64 4
  %72 = load i1 (%"class.mojo::MessageReceiverWithResponder"*, %"class.mojo::Message"*, %"class.mojo::MessageReceiver"*)*, i1 (%"class.mojo::MessageReceiverWithResponder"*, %"class.mojo::Message"*, %"class.mojo::MessageReceiver"*)** %71, align 8
  %73 = call zeroext i1 %72(%"class.mojo::MessageReceiverWithResponder"* %68, %"class.mojo::Message"* nonnull %5, %"class.mojo::MessageReceiver"* nonnull %66) #12
  %74 = load i8, i8* %8, align 1, !range !3
  %75 = icmp ne i8 %74, 0
  call void @llvm.lifetime.end.p0i8(i64 1, i8* nonnull %8) #12
  call void @llvm.lifetime.end.p0i8(i64 16, i8* nonnull %38) #12
  call void @llvm.lifetime.end.p0i8(i64 16, i8* nonnull %16) #12
  call void @_ZN4mojo7MessageD1Ev(%"class.mojo::Message"* nonnull %5) #12
  call void @llvm.lifetime.end.p0i8(i64 120, i8* nonnull %9) #12
  ret i1 %75
}

; Function Attrs: nounwind ssp uwtable
define hidden void @_ZN5blink5mojom5blink22FileSystemManagerProxy4CopyERKNS_4KURLES5_N4base12OnceCallbackIFvNS6_4File5ErrorEEEE(%"class.blink::mojom::blink::FileSystemManagerProxy"* nocapture readonly, %"class.blink::KURL"* dereferenceable(112), %"class.blink::KURL"* dereferenceable(112), %"class.base::OnceCallback"* nocapture) unnamed_addr #0 align 2 {
  %5 = alloca %"class.mojo::Message", align 8
  %6 = alloca %"class.mojo::internal::MessageFragment.75", align 8
  %7 = alloca %"class.mojo::internal::MessageFragment.75", align 8
  %8 = alloca %"class.base::OnceCallback", align 8
  %9 = bitcast %"class.mojo::Message"* %5 to i8*
  call void @llvm.lifetime.start.p0i8(i64 120, i8* nonnull %9) #12
  call void @llvm.memset.p0i8.i64(i8* nonnull align 8 %9, i8 -86, i64 120, i1 false)
  call void @_ZN4mojo7MessageC1EjjmmPNSt3__16vectorINS_16ScopedHandleBaseINS_6HandleEEENS1_9allocatorIS5_EEEE(%"class.mojo::Message"* nonnull %5, i32 3, i32 1, i64 0, i64 0, %"class.std::__1::vector"* null) #12
  %10 = getelementptr inbounds %"class.mojo::Message", %"class.mojo::Message"* %5, i64 0, i32 1
  %11 = call i64 @_ZN4mojo8internal6Buffer8AllocateEm(%"class.mojo::internal::Buffer"* %10, i64 24) #12
  %12 = getelementptr inbounds %"class.mojo::Message", %"class.mojo::Message"* %5, i64 0, i32 1, i32 2
  %13 = load i8*, i8** %12, align 8
  %14 = getelementptr inbounds i8, i8* %13, i64 %11
  %15 = bitcast i8* %14 to %"class.blink::mojom::internal::FileSystemManager_Copy_Params_Data"*
  call void @_ZN5blink5mojom8internal34FileSystemManager_Copy_Params_DataC1Ev(%"class.blink::mojom::internal::FileSystemManager_Copy_Params_Data"* %15) #12
  %16 = bitcast %"class.mojo::internal::MessageFragment.75"* %6 to i8*
  call void @llvm.lifetime.start.p0i8(i64 16, i8* nonnull %16) #12
  %17 = getelementptr inbounds %"class.mojo::internal::MessageFragment.75", %"class.mojo::internal::MessageFragment.75"* %6, i64 0, i32 0
  %18 = getelementptr inbounds %"class.mojo::internal::MessageFragment.75", %"class.mojo::internal::MessageFragment.75"* %6, i64 0, i32 1
  store %"class.mojo::Message"* %5, %"class.mojo::Message"** %17, align 8
  store i64 -1, i64* %18, align 8
  call void @_ZN4mojo8internal10SerializerIN3url5mojom11UrlDataViewEKN5blink4KURLEE9SerializeERS7_RNS0_15MessageFragmentINS3_8internal8Url_DataEEE(%"class.blink::KURL"* dereferenceable(112) %1, %"class.mojo::internal::MessageFragment.75"* nonnull dereferenceable(16) %6) #12
  %19 = load i8*, i8** %12, align 8
  %20 = getelementptr inbounds i8, i8* %19, i64 %11
  %21 = getelementptr inbounds i8, i8* %20, i64 8
  %22 = load i64, i64* %18, align 8
  %23 = icmp eq i64 %22, -1
  br i1 %23, label %30, label %24

24:                                               ; preds = %4
  %25 = load %"class.mojo::Message"*, %"class.mojo::Message"** %17, align 8
  %26 = getelementptr inbounds %"class.mojo::Message", %"class.mojo::Message"* %25, i64 0, i32 1, i32 2
  %27 = load i8*, i8** %26, align 8
  %28 = getelementptr inbounds i8, i8* %27, i64 %22
  %29 = bitcast i8* %28 to %"class.url::mojom::internal::Url_Data"*
  br label %30

30:                                               ; preds = %4, %24
  %31 = phi %"class.url::mojom::internal::Url_Data"* [ %29, %24 ], [ null, %4 ]
  %32 = bitcast i8* %21 to i64*
  %33 = icmp eq %"class.url::mojom::internal::Url_Data"* %31, null
  %34 = ptrtoint %"class.url::mojom::internal::Url_Data"* %31 to i64
  %35 = ptrtoint i8* %21 to i64
  %36 = sub i64 %34, %35
  %37 = select i1 %33, i64 0, i64 %36
  store i64 %37, i64* %32, align 8
  %38 = bitcast %"class.mojo::internal::MessageFragment.75"* %7 to i8*
  call void @llvm.lifetime.start.p0i8(i64 16, i8* nonnull %38) #12
  %39 = getelementptr inbounds %"class.mojo::internal::MessageFragment.75", %"class.mojo::internal::MessageFragment.75"* %7, i64 0, i32 0
  %40 = getelementptr inbounds %"class.mojo::internal::MessageFragment.75", %"class.mojo::internal::MessageFragment.75"* %7, i64 0, i32 1
  store %"class.mojo::Message"* %5, %"class.mojo::Message"** %39, align 8
  store i64 -1, i64* %40, align 8
  call void @_ZN4mojo8internal10SerializerIN3url5mojom11UrlDataViewEKN5blink4KURLEE9SerializeERS7_RNS0_15MessageFragmentINS3_8internal8Url_DataEEE(%"class.blink::KURL"* dereferenceable(112) %2, %"class.mojo::internal::MessageFragment.75"* nonnull dereferenceable(16) %7) #12
  %41 = load i8*, i8** %12, align 8
  %42 = getelementptr inbounds i8, i8* %41, i64 %11
  %43 = getelementptr inbounds i8, i8* %42, i64 16
  %44 = load i64, i64* %40, align 8
  %45 = icmp eq i64 %44, -1
  br i1 %45, label %52, label %46

46:                                               ; preds = %30
  %47 = load %"class.mojo::Message"*, %"class.mojo::Message"** %39, align 8
  %48 = getelementptr inbounds %"class.mojo::Message", %"class.mojo::Message"* %47, i64 0, i32 1, i32 2
  %49 = load i8*, i8** %48, align 8
  %50 = getelementptr inbounds i8, i8* %49, i64 %44
  %51 = bitcast i8* %50 to %"class.url::mojom::internal::Url_Data"*
  br label %52

52:                                               ; preds = %46, %30
  %53 = phi %"class.url::mojom::internal::Url_Data"* [ %51, %46 ], [ null, %30 ]
  %54 = bitcast i8* %43 to i64*
  %55 = icmp eq %"class.url::mojom::internal::Url_Data"* %53, null
  %56 = ptrtoint %"class.url::mojom::internal::Url_Data"* %53 to i64
  %57 = ptrtoint i8* %43 to i64
  %58 = sub i64 %56, %57
  %59 = select i1 %55, i64 0, i64 %58
  store i64 %59, i64* %54, align 8
  %60 = call i8* @_Znwm(i64 16) #13
  %61 = getelementptr inbounds %"class.base::OnceCallback", %"class.base::OnceCallback"* %3, i64 0, i32 0, i32 0, i32 0
  %62 = bitcast %"class.base::OnceCallback"* %3 to i64*
  %63 = load i64, i64* %62, align 8
  store %"class.base::internal::BindStateBase"* null, %"class.base::internal::BindStateBase"** %61, align 8
  %64 = bitcast i8* %60 to i32 (...)***
  store i32 (...)** bitcast (i8** getelementptr inbounds ({ [6 x i8*] }, { [6 x i8*] }* @_ZTVN5blink5mojom5blink40FileSystemManager_Copy_ForwardToCallbackE, i64 0, inrange i32 0, i64 2) to i32 (...)**), i32 (...)*** %64, align 8
  %65 = getelementptr inbounds i8, i8* %60, i64 8
  %66 = getelementptr inbounds %"class.base::OnceCallback", %"class.base::OnceCallback"* %8, i64 0, i32 0, i32 0, i32 0
  %67 = bitcast i8* %65 to i64*
  store i64 %63, i64* %67, align 8
  store %"class.base::internal::BindStateBase"* null, %"class.base::internal::BindStateBase"** %66, align 8
  %68 = bitcast i8* %60 to %"class.mojo::MessageReceiver"*
  %69 = getelementptr inbounds %"class.base::OnceCallback", %"class.base::OnceCallback"* %8, i64 0, i32 0
  call void @_ZN4base8internal12CallbackBaseD2Ev(%"class.base::internal::CallbackBase"* nonnull %69) #12
  %70 = getelementptr inbounds %"class.blink::mojom::blink::FileSystemManagerProxy", %"class.blink::mojom::blink::FileSystemManagerProxy"* %0, i64 0, i32 1
  %71 = load %"class.mojo::MessageReceiverWithResponder"*, %"class.mojo::MessageReceiverWithResponder"** %70, align 8
  %72 = bitcast %"class.mojo::MessageReceiverWithResponder"* %71 to i1 (%"class.mojo::MessageReceiverWithResponder"*, %"class.mojo::Message"*, %"class.mojo::MessageReceiver"*)***
  %73 = load i1 (%"class.mojo::MessageReceiverWithResponder"*, %"class.mojo::Message"*, %"class.mojo::MessageReceiver"*)**, i1 (%"class.mojo::MessageReceiverWithResponder"*, %"class.mojo::Message"*, %"class.mojo::MessageReceiver"*)*** %72, align 8
  %74 = getelementptr inbounds i1 (%"class.mojo::MessageReceiverWithResponder"*, %"class.mojo::Message"*, %"class.mojo::MessageReceiver"*)*, i1 (%"class.mojo::MessageReceiverWithResponder"*, %"class.mojo::Message"*, %"class.mojo::MessageReceiver"*)** %73, i64 4
  %75 = load i1 (%"class.mojo::MessageReceiverWithResponder"*, %"class.mojo::Message"*, %"class.mojo::MessageReceiver"*)*, i1 (%"class.mojo::MessageReceiverWithResponder"*, %"class.mojo::Message"*, %"class.mojo::MessageReceiver"*)** %74, align 8
  %76 = call zeroext i1 %75(%"class.mojo::MessageReceiverWithResponder"* %71, %"class.mojo::Message"* nonnull %5, %"class.mojo::MessageReceiver"* nonnull %68) #12
  call void @llvm.lifetime.end.p0i8(i64 16, i8* nonnull %38) #12
  call void @llvm.lifetime.end.p0i8(i64 16, i8* nonnull %16) #12
  call void @_ZN4mojo7MessageD1Ev(%"class.mojo::Message"* nonnull %5) #12
  call void @llvm.lifetime.end.p0i8(i64 120, i8* nonnull %9) #12
  ret void
}

; Function Attrs: nounwind ssp uwtable
define hidden zeroext i1 @_ZN5blink5mojom5blink22FileSystemManagerProxy6RemoveERKNS_4KURLEbPN4base4File5ErrorE(%"class.blink::mojom::blink::FileSystemManagerProxy"* nocapture readonly, %"class.blink::KURL"* dereferenceable(112), i1 zeroext, i32*) unnamed_addr #0 align 2 {
  %5 = alloca %"class.mojo::Message", align 8
  %6 = alloca %"class.mojo::internal::MessageFragment.75", align 8
  %7 = alloca i8, align 1
  %8 = zext i1 %2 to i8
  %9 = bitcast %"class.mojo::Message"* %5 to i8*
  call void @llvm.lifetime.start.p0i8(i64 120, i8* nonnull %9) #12
  call void @llvm.memset.p0i8.i64(i8* nonnull align 8 %9, i8 -86, i64 120, i1 false)
  call void @_ZN4mojo7MessageC1EjjmmPNSt3__16vectorINS_16ScopedHandleBaseINS_6HandleEEENS1_9allocatorIS5_EEEE(%"class.mojo::Message"* nonnull %5, i32 4, i32 5, i64 0, i64 0, %"class.std::__1::vector"* null) #12
  %10 = getelementptr inbounds %"class.mojo::Message", %"class.mojo::Message"* %5, i64 0, i32 1
  %11 = call i64 @_ZN4mojo8internal6Buffer8AllocateEm(%"class.mojo::internal::Buffer"* %10, i64 24) #12
  %12 = getelementptr inbounds %"class.mojo::Message", %"class.mojo::Message"* %5, i64 0, i32 1, i32 2
  %13 = load i8*, i8** %12, align 8
  %14 = getelementptr inbounds i8, i8* %13, i64 %11
  %15 = bitcast i8* %14 to %"class.blink::mojom::internal::FileSystemManager_Remove_Params_Data"*
  call void @_ZN5blink5mojom8internal36FileSystemManager_Remove_Params_DataC1Ev(%"class.blink::mojom::internal::FileSystemManager_Remove_Params_Data"* %15) #12
  %16 = bitcast %"class.mojo::internal::MessageFragment.75"* %6 to i8*
  call void @llvm.lifetime.start.p0i8(i64 16, i8* nonnull %16) #12
  %17 = getelementptr inbounds %"class.mojo::internal::MessageFragment.75", %"class.mojo::internal::MessageFragment.75"* %6, i64 0, i32 0
  %18 = getelementptr inbounds %"class.mojo::internal::MessageFragment.75", %"class.mojo::internal::MessageFragment.75"* %6, i64 0, i32 1
  store %"class.mojo::Message"* %5, %"class.mojo::Message"** %17, align 8
  store i64 -1, i64* %18, align 8
  call void @_ZN4mojo8internal10SerializerIN3url5mojom11UrlDataViewEKN5blink4KURLEE9SerializeERS7_RNS0_15MessageFragmentINS3_8internal8Url_DataEEE(%"class.blink::KURL"* dereferenceable(112) %1, %"class.mojo::internal::MessageFragment.75"* nonnull dereferenceable(16) %6) #12
  %19 = load i8*, i8** %12, align 8
  %20 = getelementptr inbounds i8, i8* %19, i64 %11
  %21 = getelementptr inbounds i8, i8* %20, i64 8
  %22 = load i64, i64* %18, align 8
  %23 = icmp eq i64 %22, -1
  br i1 %23, label %30, label %24

24:                                               ; preds = %4
  %25 = load %"class.mojo::Message"*, %"class.mojo::Message"** %17, align 8
  %26 = getelementptr inbounds %"class.mojo::Message", %"class.mojo::Message"* %25, i64 0, i32 1, i32 2
  %27 = load i8*, i8** %26, align 8
  %28 = getelementptr inbounds i8, i8* %27, i64 %22
  %29 = bitcast i8* %28 to %"class.url::mojom::internal::Url_Data"*
  br label %30

30:                                               ; preds = %24, %4
  %31 = phi %"class.url::mojom::internal::Url_Data"* [ %29, %24 ], [ null, %4 ]
  %32 = bitcast i8* %21 to i64*
  %33 = icmp eq %"class.url::mojom::internal::Url_Data"* %31, null
  %34 = ptrtoint %"class.url::mojom::internal::Url_Data"* %31 to i64
  %35 = ptrtoint i8* %21 to i64
  %36 = sub i64 %34, %35
  %37 = select i1 %33, i64 0, i64 %36
  store i64 %37, i64* %32, align 8
  %38 = load i8*, i8** %12, align 8
  %39 = getelementptr inbounds i8, i8* %38, i64 %11
  %40 = getelementptr inbounds i8, i8* %39, i64 16
  %41 = load i8, i8* %40, align 1
  %42 = and i8 %41, -2
  %43 = or i8 %42, %8
  store i8 %43, i8* %40, align 1
  call void @llvm.lifetime.start.p0i8(i64 1, i8* nonnull %7) #12
  store i8 0, i8* %7, align 1
  %44 = call i8* @_Znwm(i64 24) #13
  %45 = bitcast i8* %44 to i32 (...)***
  store i32 (...)** bitcast (i8** getelementptr inbounds ({ [6 x i8*] }, { [6 x i8*] }* @_ZTVN5blink5mojom5blink43FileSystemManager_Remove_HandleSyncResponseE, i64 0, inrange i32 0, i64 2) to i32 (...)**), i32 (...)*** %45, align 8
  %46 = getelementptr inbounds i8, i8* %44, i64 8
  %47 = bitcast i8* %46 to i8**
  store i8* %7, i8** %47, align 8
  %48 = getelementptr inbounds i8, i8* %44, i64 16
  %49 = bitcast i8* %48 to i32**
  store i32* %3, i32** %49, align 8
  %50 = bitcast i8* %44 to %"class.mojo::MessageReceiver"*
  %51 = getelementptr inbounds %"class.blink::mojom::blink::FileSystemManagerProxy", %"class.blink::mojom::blink::FileSystemManagerProxy"* %0, i64 0, i32 1
  %52 = load %"class.mojo::MessageReceiverWithResponder"*, %"class.mojo::MessageReceiverWithResponder"** %51, align 8
  %53 = bitcast %"class.mojo::MessageReceiverWithResponder"* %52 to i1 (%"class.mojo::MessageReceiverWithResponder"*, %"class.mojo::Message"*, %"class.mojo::MessageReceiver"*)***
  %54 = load i1 (%"class.mojo::MessageReceiverWithResponder"*, %"class.mojo::Message"*, %"class.mojo::MessageReceiver"*)**, i1 (%"class.mojo::MessageReceiverWithResponder"*, %"class.mojo::Message"*, %"class.mojo::MessageReceiver"*)*** %53, align 8
  %55 = getelementptr inbounds i1 (%"class.mojo::MessageReceiverWithResponder"*, %"class.mojo::Message"*, %"class.mojo::MessageReceiver"*)*, i1 (%"class.mojo::MessageReceiverWithResponder"*, %"class.mojo::Message"*, %"class.mojo::MessageReceiver"*)** %54, i64 4
  %56 = load i1 (%"class.mojo::MessageReceiverWithResponder"*, %"class.mojo::Message"*, %"class.mojo::MessageReceiver"*)*, i1 (%"class.mojo::MessageReceiverWithResponder"*, %"class.mojo::Message"*, %"class.mojo::MessageReceiver"*)** %55, align 8
  %57 = call zeroext i1 %56(%"class.mojo::MessageReceiverWithResponder"* %52, %"class.mojo::Message"* nonnull %5, %"class.mojo::MessageReceiver"* nonnull %50) #12
  %58 = load i8, i8* %7, align 1, !range !3
  %59 = icmp ne i8 %58, 0
  call void @llvm.lifetime.end.p0i8(i64 1, i8* nonnull %7) #12
  call void @llvm.lifetime.end.p0i8(i64 16, i8* nonnull %16) #12
  call void @_ZN4mojo7MessageD1Ev(%"class.mojo::Message"* nonnull %5) #12
  call void @llvm.lifetime.end.p0i8(i64 120, i8* nonnull %9) #12
  ret i1 %59
}

; Function Attrs: nounwind ssp uwtable
define hidden void @_ZN5blink5mojom5blink22FileSystemManagerProxy6RemoveERKNS_4KURLEbN4base12OnceCallbackIFvNS6_4File5ErrorEEEE(%"class.blink::mojom::blink::FileSystemManagerProxy"* nocapture readonly, %"class.blink::KURL"* dereferenceable(112), i1 zeroext, %"class.base::OnceCallback"* nocapture) unnamed_addr #0 align 2 {
  %5 = alloca %"class.mojo::Message", align 8
  %6 = alloca %"class.mojo::internal::MessageFragment.75", align 8
  %7 = alloca %"class.base::OnceCallback", align 8
  %8 = zext i1 %2 to i8
  %9 = bitcast %"class.mojo::Message"* %5 to i8*
  call void @llvm.lifetime.start.p0i8(i64 120, i8* nonnull %9) #12
  call void @llvm.memset.p0i8.i64(i8* nonnull align 8 %9, i8 -86, i64 120, i1 false)
  call void @_ZN4mojo7MessageC1EjjmmPNSt3__16vectorINS_16ScopedHandleBaseINS_6HandleEEENS1_9allocatorIS5_EEEE(%"class.mojo::Message"* nonnull %5, i32 4, i32 1, i64 0, i64 0, %"class.std::__1::vector"* null) #12
  %10 = getelementptr inbounds %"class.mojo::Message", %"class.mojo::Message"* %5, i64 0, i32 1
  %11 = call i64 @_ZN4mojo8internal6Buffer8AllocateEm(%"class.mojo::internal::Buffer"* %10, i64 24) #12
  %12 = getelementptr inbounds %"class.mojo::Message", %"class.mojo::Message"* %5, i64 0, i32 1, i32 2
  %13 = load i8*, i8** %12, align 8
  %14 = getelementptr inbounds i8, i8* %13, i64 %11
  %15 = bitcast i8* %14 to %"class.blink::mojom::internal::FileSystemManager_Remove_Params_Data"*
  call void @_ZN5blink5mojom8internal36FileSystemManager_Remove_Params_DataC1Ev(%"class.blink::mojom::internal::FileSystemManager_Remove_Params_Data"* %15) #12
  %16 = bitcast %"class.mojo::internal::MessageFragment.75"* %6 to i8*
  call void @llvm.lifetime.start.p0i8(i64 16, i8* nonnull %16) #12
  %17 = getelementptr inbounds %"class.mojo::internal::MessageFragment.75", %"class.mojo::internal::MessageFragment.75"* %6, i64 0, i32 0
  %18 = getelementptr inbounds %"class.mojo::internal::MessageFragment.75", %"class.mojo::internal::MessageFragment.75"* %6, i64 0, i32 1
  store %"class.mojo::Message"* %5, %"class.mojo::Message"** %17, align 8
  store i64 -1, i64* %18, align 8
  call void @_ZN4mojo8internal10SerializerIN3url5mojom11UrlDataViewEKN5blink4KURLEE9SerializeERS7_RNS0_15MessageFragmentINS3_8internal8Url_DataEEE(%"class.blink::KURL"* dereferenceable(112) %1, %"class.mojo::internal::MessageFragment.75"* nonnull dereferenceable(16) %6) #12
  %19 = load i8*, i8** %12, align 8
  %20 = getelementptr inbounds i8, i8* %19, i64 %11
  %21 = getelementptr inbounds i8, i8* %20, i64 8
  %22 = load i64, i64* %18, align 8
  %23 = icmp eq i64 %22, -1
  br i1 %23, label %30, label %24

24:                                               ; preds = %4
  %25 = load %"class.mojo::Message"*, %"class.mojo::Message"** %17, align 8
  %26 = getelementptr inbounds %"class.mojo::Message", %"class.mojo::Message"* %25, i64 0, i32 1, i32 2
  %27 = load i8*, i8** %26, align 8
  %28 = getelementptr inbounds i8, i8* %27, i64 %22
  %29 = bitcast i8* %28 to %"class.url::mojom::internal::Url_Data"*
  br label %30

30:                                               ; preds = %24, %4
  %31 = phi %"class.url::mojom::internal::Url_Data"* [ %29, %24 ], [ null, %4 ]
  %32 = bitcast i8* %21 to i64*
  %33 = icmp eq %"class.url::mojom::internal::Url_Data"* %31, null
  %34 = ptrtoint %"class.url::mojom::internal::Url_Data"* %31 to i64
  %35 = ptrtoint i8* %21 to i64
  %36 = sub i64 %34, %35
  %37 = select i1 %33, i64 0, i64 %36
  store i64 %37, i64* %32, align 8
  %38 = load i8*, i8** %12, align 8
  %39 = getelementptr inbounds i8, i8* %38, i64 %11
  %40 = getelementptr inbounds i8, i8* %39, i64 16
  %41 = load i8, i8* %40, align 1
  %42 = and i8 %41, -2
  %43 = or i8 %42, %8
  store i8 %43, i8* %40, align 1
  %44 = call i8* @_Znwm(i64 16) #13
  %45 = getelementptr inbounds %"class.base::OnceCallback", %"class.base::OnceCallback"* %3, i64 0, i32 0, i32 0, i32 0
  %46 = bitcast %"class.base::OnceCallback"* %3 to i64*
  %47 = load i64, i64* %46, align 8
  store %"class.base::internal::BindStateBase"* null, %"class.base::internal::BindStateBase"** %45, align 8
  %48 = bitcast i8* %44 to i32 (...)***
  store i32 (...)** bitcast (i8** getelementptr inbounds ({ [6 x i8*] }, { [6 x i8*] }* @_ZTVN5blink5mojom5blink42FileSystemManager_Remove_ForwardToCallbackE, i64 0, inrange i32 0, i64 2) to i32 (...)**), i32 (...)*** %48, align 8
  %49 = getelementptr inbounds i8, i8* %44, i64 8
  %50 = getelementptr inbounds %"class.base::OnceCallback", %"class.base::OnceCallback"* %7, i64 0, i32 0, i32 0, i32 0
  %51 = bitcast i8* %49 to i64*
  store i64 %47, i64* %51, align 8
  store %"class.base::internal::BindStateBase"* null, %"class.base::internal::BindStateBase"** %50, align 8
  %52 = bitcast i8* %44 to %"class.mojo::MessageReceiver"*
  %53 = getelementptr inbounds %"class.base::OnceCallback", %"class.base::OnceCallback"* %7, i64 0, i32 0
  call void @_ZN4base8internal12CallbackBaseD2Ev(%"class.base::internal::CallbackBase"* nonnull %53) #12
  %54 = getelementptr inbounds %"class.blink::mojom::blink::FileSystemManagerProxy", %"class.blink::mojom::blink::FileSystemManagerProxy"* %0, i64 0, i32 1
  %55 = load %"class.mojo::MessageReceiverWithResponder"*, %"class.mojo::MessageReceiverWithResponder"** %54, align 8
  %56 = bitcast %"class.mojo::MessageReceiverWithResponder"* %55 to i1 (%"class.mojo::MessageReceiverWithResponder"*, %"class.mojo::Message"*, %"class.mojo::MessageReceiver"*)***
  %57 = load i1 (%"class.mojo::MessageReceiverWithResponder"*, %"class.mojo::Message"*, %"class.mojo::MessageReceiver"*)**, i1 (%"class.mojo::MessageReceiverWithResponder"*, %"class.mojo::Message"*, %"class.mojo::MessageReceiver"*)*** %56, align 8
  %58 = getelementptr inbounds i1 (%"class.mojo::MessageReceiverWithResponder"*, %"class.mojo::Message"*, %"class.mojo::MessageReceiver"*)*, i1 (%"class.mojo::MessageReceiverWithResponder"*, %"class.mojo::Message"*, %"class.mojo::MessageReceiver"*)** %57, i64 4
  %59 = load i1 (%"class.mojo::MessageReceiverWithResponder"*, %"class.mojo::Message"*, %"class.mojo::MessageReceiver"*)*, i1 (%"class.mojo::MessageReceiverWithResponder"*, %"class.mojo::Message"*, %"class.mojo::MessageReceiver"*)** %58, align 8
  %60 = call zeroext i1 %59(%"class.mojo::MessageReceiverWithResponder"* %55, %"class.mojo::Message"* nonnull %5, %"class.mojo::MessageReceiver"* nonnull %52) #12
  call void @llvm.lifetime.end.p0i8(i64 16, i8* nonnull %16) #12
  call void @_ZN4mojo7MessageD1Ev(%"class.mojo::Message"* nonnull %5) #12
  call void @llvm.lifetime.end.p0i8(i64 120, i8* nonnull %9) #12
  ret void
}

; Function Attrs: nounwind ssp uwtable
define hidden zeroext i1 @_ZN5blink5mojom5blink22FileSystemManagerProxy12ReadMetadataERKNS_4KURLEPN4base4File4InfoEPNS7_5ErrorE(%"class.blink::mojom::blink::FileSystemManagerProxy"* nocapture readonly, %"class.blink::KURL"* dereferenceable(112), %"struct.base::File::Info"*, i32*) unnamed_addr #0 align 2 {
  %5 = alloca %"class.mojo::Message", align 8
  %6 = alloca %"class.mojo::internal::MessageFragment.75", align 8
  %7 = alloca i8, align 1
  %8 = bitcast %"class.mojo::Message"* %5 to i8*
  call void @llvm.lifetime.start.p0i8(i64 120, i8* nonnull %8) #12
  call void @llvm.memset.p0i8.i64(i8* nonnull align 8 %8, i8 -86, i64 120, i1 false)
  call void @_ZN4mojo7MessageC1EjjmmPNSt3__16vectorINS_16ScopedHandleBaseINS_6HandleEEENS1_9allocatorIS5_EEEE(%"class.mojo::Message"* nonnull %5, i32 5, i32 5, i64 0, i64 0, %"class.std::__1::vector"* null) #12
  %9 = getelementptr inbounds %"class.mojo::Message", %"class.mojo::Message"* %5, i64 0, i32 1
  %10 = call i64 @_ZN4mojo8internal6Buffer8AllocateEm(%"class.mojo::internal::Buffer"* %9, i64 16) #12
  %11 = getelementptr inbounds %"class.mojo::Message", %"class.mojo::Message"* %5, i64 0, i32 1, i32 2
  %12 = load i8*, i8** %11, align 8
  %13 = getelementptr inbounds i8, i8* %12, i64 %10
  %14 = bitcast i8* %13 to %"class.blink::mojom::internal::FileSystemManager_ReadMetadata_Params_Data"*
  call void @_ZN5blink5mojom8internal42FileSystemManager_ReadMetadata_Params_DataC1Ev(%"class.blink::mojom::internal::FileSystemManager_ReadMetadata_Params_Data"* %14) #12
  %15 = bitcast %"class.mojo::internal::MessageFragment.75"* %6 to i8*
  call void @llvm.lifetime.start.p0i8(i64 16, i8* nonnull %15) #12
  %16 = getelementptr inbounds %"class.mojo::internal::MessageFragment.75", %"class.mojo::internal::MessageFragment.75"* %6, i64 0, i32 0
  %17 = getelementptr inbounds %"class.mojo::internal::MessageFragment.75", %"class.mojo::internal::MessageFragment.75"* %6, i64 0, i32 1
  store %"class.mojo::Message"* %5, %"class.mojo::Message"** %16, align 8
  store i64 -1, i64* %17, align 8
  call void @_ZN4mojo8internal10SerializerIN3url5mojom11UrlDataViewEKN5blink4KURLEE9SerializeERS7_RNS0_15MessageFragmentINS3_8internal8Url_DataEEE(%"class.blink::KURL"* dereferenceable(112) %1, %"class.mojo::internal::MessageFragment.75"* nonnull dereferenceable(16) %6) #12
  %18 = load i8*, i8** %11, align 8
  %19 = getelementptr inbounds i8, i8* %18, i64 %10
  %20 = getelementptr inbounds i8, i8* %19, i64 8
  %21 = load i64, i64* %17, align 8
  %22 = icmp eq i64 %21, -1
  br i1 %22, label %29, label %23

23:                                               ; preds = %4
  %24 = load %"class.mojo::Message"*, %"class.mojo::Message"** %16, align 8
  %25 = getelementptr inbounds %"class.mojo::Message", %"class.mojo::Message"* %24, i64 0, i32 1, i32 2
  %26 = load i8*, i8** %25, align 8
  %27 = getelementptr inbounds i8, i8* %26, i64 %21
  %28 = bitcast i8* %27 to %"class.url::mojom::internal::Url_Data"*
  br label %29

29:                                               ; preds = %23, %4
  %30 = phi %"class.url::mojom::internal::Url_Data"* [ %28, %23 ], [ null, %4 ]
  %31 = bitcast i8* %20 to i64*
  %32 = icmp eq %"class.url::mojom::internal::Url_Data"* %30, null
  %33 = ptrtoint %"class.url::mojom::internal::Url_Data"* %30 to i64
  %34 = ptrtoint i8* %20 to i64
  %35 = sub i64 %33, %34
  %36 = select i1 %32, i64 0, i64 %35
  store i64 %36, i64* %31, align 8
  call void @llvm.lifetime.start.p0i8(i64 1, i8* nonnull %7) #12
  store i8 0, i8* %7, align 1
  %37 = call i8* @_Znwm(i64 32) #13
  %38 = bitcast i8* %37 to i32 (...)***
  store i32 (...)** bitcast (i8** getelementptr inbounds ({ [6 x i8*] }, { [6 x i8*] }* @_ZTVN5blink5mojom5blink49FileSystemManager_ReadMetadata_HandleSyncResponseE, i64 0, inrange i32 0, i64 2) to i32 (...)**), i32 (...)*** %38, align 8
  %39 = getelementptr inbounds i8, i8* %37, i64 8
  %40 = bitcast i8* %39 to i8**
  store i8* %7, i8** %40, align 8
  %41 = getelementptr inbounds i8, i8* %37, i64 16
  %42 = bitcast i8* %41 to %"struct.base::File::Info"**
  store %"struct.base::File::Info"* %2, %"struct.base::File::Info"** %42, align 8
  %43 = getelementptr inbounds i8, i8* %37, i64 24
  %44 = bitcast i8* %43 to i32**
  store i32* %3, i32** %44, align 8
  %45 = bitcast i8* %37 to %"class.mojo::MessageReceiver"*
  %46 = getelementptr inbounds %"class.blink::mojom::blink::FileSystemManagerProxy", %"class.blink::mojom::blink::FileSystemManagerProxy"* %0, i64 0, i32 1
  %47 = load %"class.mojo::MessageReceiverWithResponder"*, %"class.mojo::MessageReceiverWithResponder"** %46, align 8
  %48 = bitcast %"class.mojo::MessageReceiverWithResponder"* %47 to i1 (%"class.mojo::MessageReceiverWithResponder"*, %"class.mojo::Message"*, %"class.mojo::MessageReceiver"*)***
  %49 = load i1 (%"class.mojo::MessageReceiverWithResponder"*, %"class.mojo::Message"*, %"class.mojo::MessageReceiver"*)**, i1 (%"class.mojo::MessageReceiverWithResponder"*, %"class.mojo::Message"*, %"class.mojo::MessageReceiver"*)*** %48, align 8
  %50 = getelementptr inbounds i1 (%"class.mojo::MessageReceiverWithResponder"*, %"class.mojo::Message"*, %"class.mojo::MessageReceiver"*)*, i1 (%"class.mojo::MessageReceiverWithResponder"*, %"class.mojo::Message"*, %"class.mojo::MessageReceiver"*)** %49, i64 4
  %51 = load i1 (%"class.mojo::MessageReceiverWithResponder"*, %"class.mojo::Message"*, %"class.mojo::MessageReceiver"*)*, i1 (%"class.mojo::MessageReceiverWithResponder"*, %"class.mojo::Message"*, %"class.mojo::MessageReceiver"*)** %50, align 8
  %52 = call zeroext i1 %51(%"class.mojo::MessageReceiverWithResponder"* %47, %"class.mojo::Message"* nonnull %5, %"class.mojo::MessageReceiver"* nonnull %45) #12
  %53 = load i8, i8* %7, align 1, !range !3
  %54 = icmp ne i8 %53, 0
  call void @llvm.lifetime.end.p0i8(i64 1, i8* nonnull %7) #12
  call void @llvm.lifetime.end.p0i8(i64 16, i8* nonnull %15) #12
  call void @_ZN4mojo7MessageD1Ev(%"class.mojo::Message"* nonnull %5) #12
  call void @llvm.lifetime.end.p0i8(i64 120, i8* nonnull %8) #12
  ret i1 %54
}

; Function Attrs: nounwind ssp uwtable
define hidden void @_ZN5blink5mojom5blink22FileSystemManagerProxy12ReadMetadataERKNS_4KURLEN4base12OnceCallbackIFvRKNS6_4File4InfoENS8_5ErrorEEEE(%"class.blink::mojom::blink::FileSystemManagerProxy"* nocapture readonly, %"class.blink::KURL"* dereferenceable(112), %"class.base::OnceCallback.82"* nocapture) unnamed_addr #0 align 2 {
  %4 = alloca %"class.mojo::Message", align 8
  %5 = alloca %"class.mojo::internal::MessageFragment.75", align 8
  %6 = alloca %"class.base::OnceCallback.82", align 8
  %7 = bitcast %"class.mojo::Message"* %4 to i8*
  call void @llvm.lifetime.start.p0i8(i64 120, i8* nonnull %7) #12
  call void @llvm.memset.p0i8.i64(i8* nonnull align 8 %7, i8 -86, i64 120, i1 false)
  call void @_ZN4mojo7MessageC1EjjmmPNSt3__16vectorINS_16ScopedHandleBaseINS_6HandleEEENS1_9allocatorIS5_EEEE(%"class.mojo::Message"* nonnull %4, i32 5, i32 1, i64 0, i64 0, %"class.std::__1::vector"* null) #12
  %8 = getelementptr inbounds %"class.mojo::Message", %"class.mojo::Message"* %4, i64 0, i32 1
  %9 = call i64 @_ZN4mojo8internal6Buffer8AllocateEm(%"class.mojo::internal::Buffer"* %8, i64 16) #12
  %10 = getelementptr inbounds %"class.mojo::Message", %"class.mojo::Message"* %4, i64 0, i32 1, i32 2
  %11 = load i8*, i8** %10, align 8
  %12 = getelementptr inbounds i8, i8* %11, i64 %9
  %13 = bitcast i8* %12 to %"class.blink::mojom::internal::FileSystemManager_ReadMetadata_Params_Data"*
  call void @_ZN5blink5mojom8internal42FileSystemManager_ReadMetadata_Params_DataC1Ev(%"class.blink::mojom::internal::FileSystemManager_ReadMetadata_Params_Data"* %13) #12
  %14 = bitcast %"class.mojo::internal::MessageFragment.75"* %5 to i8*
  call void @llvm.lifetime.start.p0i8(i64 16, i8* nonnull %14) #12
  %15 = getelementptr inbounds %"class.mojo::internal::MessageFragment.75", %"class.mojo::internal::MessageFragment.75"* %5, i64 0, i32 0
  %16 = getelementptr inbounds %"class.mojo::internal::MessageFragment.75", %"class.mojo::internal::MessageFragment.75"* %5, i64 0, i32 1
  store %"class.mojo::Message"* %4, %"class.mojo::Message"** %15, align 8
  store i64 -1, i64* %16, align 8
  call void @_ZN4mojo8internal10SerializerIN3url5mojom11UrlDataViewEKN5blink4KURLEE9SerializeERS7_RNS0_15MessageFragmentINS3_8internal8Url_DataEEE(%"class.blink::KURL"* dereferenceable(112) %1, %"class.mojo::internal::MessageFragment.75"* nonnull dereferenceable(16) %5) #12
  %17 = load i8*, i8** %10, align 8
  %18 = getelementptr inbounds i8, i8* %17, i64 %9
  %19 = getelementptr inbounds i8, i8* %18, i64 8
  %20 = load i64, i64* %16, align 8
  %21 = icmp eq i64 %20, -1
  br i1 %21, label %28, label %22

22:                                               ; preds = %3
  %23 = load %"class.mojo::Message"*, %"class.mojo::Message"** %15, align 8
  %24 = getelementptr inbounds %"class.mojo::Message", %"class.mojo::Message"* %23, i64 0, i32 1, i32 2
  %25 = load i8*, i8** %24, align 8
  %26 = getelementptr inbounds i8, i8* %25, i64 %20
  %27 = bitcast i8* %26 to %"class.url::mojom::internal::Url_Data"*
  br label %28

28:                                               ; preds = %22, %3
  %29 = phi %"class.url::mojom::internal::Url_Data"* [ %27, %22 ], [ null, %3 ]
  %30 = bitcast i8* %19 to i64*
  %31 = icmp eq %"class.url::mojom::internal::Url_Data"* %29, null
  %32 = ptrtoint %"class.url::mojom::internal::Url_Data"* %29 to i64
  %33 = ptrtoint i8* %19 to i64
  %34 = sub i64 %32, %33
  %35 = select i1 %31, i64 0, i64 %34
  store i64 %35, i64* %30, align 8
  %36 = call i8* @_Znwm(i64 16) #13
  %37 = getelementptr inbounds %"class.base::OnceCallback.82", %"class.base::OnceCallback.82"* %2, i64 0, i32 0, i32 0, i32 0
  %38 = bitcast %"class.base::OnceCallback.82"* %2 to i64*
  %39 = load i64, i64* %38, align 8
  store %"class.base::internal::BindStateBase"* null, %"class.base::internal::BindStateBase"** %37, align 8
  %40 = bitcast i8* %36 to i32 (...)***
  store i32 (...)** bitcast (i8** getelementptr inbounds ({ [6 x i8*] }, { [6 x i8*] }* @_ZTVN5blink5mojom5blink48FileSystemManager_ReadMetadata_ForwardToCallbackE, i64 0, inrange i32 0, i64 2) to i32 (...)**), i32 (...)*** %40, align 8
  %41 = getelementptr inbounds i8, i8* %36, i64 8
  %42 = getelementptr inbounds %"class.base::OnceCallback.82", %"class.base::OnceCallback.82"* %6, i64 0, i32 0, i32 0, i32 0
  %43 = bitcast i8* %41 to i64*
  store i64 %39, i64* %43, align 8
  store %"class.base::internal::BindStateBase"* null, %"class.base::internal::BindStateBase"** %42, align 8
  %44 = bitcast i8* %36 to %"class.mojo::MessageReceiver"*
  %45 = getelementptr inbounds %"class.base::OnceCallback.82", %"class.base::OnceCallback.82"* %6, i64 0, i32 0
  call void @_ZN4base8internal12CallbackBaseD2Ev(%"class.base::internal::CallbackBase"* nonnull %45) #12
  %46 = getelementptr inbounds %"class.blink::mojom::blink::FileSystemManagerProxy", %"class.blink::mojom::blink::FileSystemManagerProxy"* %0, i64 0, i32 1
  %47 = load %"class.mojo::MessageReceiverWithResponder"*, %"class.mojo::MessageReceiverWithResponder"** %46, align 8
  %48 = bitcast %"class.mojo::MessageReceiverWithResponder"* %47 to i1 (%"class.mojo::MessageReceiverWithResponder"*, %"class.mojo::Message"*, %"class.mojo::MessageReceiver"*)***
  %49 = load i1 (%"class.mojo::MessageReceiverWithResponder"*, %"class.mojo::Message"*, %"class.mojo::MessageReceiver"*)**, i1 (%"class.mojo::MessageReceiverWithResponder"*, %"class.mojo::Message"*, %"class.mojo::MessageReceiver"*)*** %48, align 8
  %50 = getelementptr inbounds i1 (%"class.mojo::MessageReceiverWithResponder"*, %"class.mojo::Message"*, %"class.mojo::MessageReceiver"*)*, i1 (%"class.mojo::MessageReceiverWithResponder"*, %"class.mojo::Message"*, %"class.mojo::MessageReceiver"*)** %49, i64 4
  %51 = load i1 (%"class.mojo::MessageReceiverWithResponder"*, %"class.mojo::Message"*, %"class.mojo::MessageReceiver"*)*, i1 (%"class.mojo::MessageReceiverWithResponder"*, %"class.mojo::Message"*, %"class.mojo::MessageReceiver"*)** %50, align 8
  %52 = call zeroext i1 %51(%"class.mojo::MessageReceiverWithResponder"* %47, %"class.mojo::Message"* nonnull %4, %"class.mojo::MessageReceiver"* nonnull %44) #12
  call void @llvm.lifetime.end.p0i8(i64 16, i8* nonnull %14) #12
  call void @_ZN4mojo7MessageD1Ev(%"class.mojo::Message"* nonnull %4) #12
  call void @llvm.lifetime.end.p0i8(i64 120, i8* nonnull %7) #12
  ret void
}

; Function Attrs: nounwind ssp uwtable
define hidden zeroext i1 @_ZN5blink5mojom5blink22FileSystemManagerProxy6CreateERKNS_4KURLEbbbPN4base4File5ErrorE(%"class.blink::mojom::blink::FileSystemManagerProxy"* nocapture readonly, %"class.blink::KURL"* dereferenceable(112), i1 zeroext, i1 zeroext, i1 zeroext, i32*) unnamed_addr #0 align 2 {
  %7 = alloca %"class.mojo::Message", align 8
  %8 = alloca %"class.mojo::internal::MessageFragment.75", align 8
  %9 = alloca i8, align 1
  %10 = zext i1 %2 to i8
  %11 = zext i1 %3 to i8
  %12 = zext i1 %4 to i8
  %13 = bitcast %"class.mojo::Message"* %7 to i8*
  call void @llvm.lifetime.start.p0i8(i64 120, i8* nonnull %13) #12
  call void @llvm.memset.p0i8.i64(i8* nonnull align 8 %13, i8 -86, i64 120, i1 false)
  call void @_ZN4mojo7MessageC1EjjmmPNSt3__16vectorINS_16ScopedHandleBaseINS_6HandleEEENS1_9allocatorIS5_EEEE(%"class.mojo::Message"* nonnull %7, i32 6, i32 5, i64 0, i64 0, %"class.std::__1::vector"* null) #12
  %14 = getelementptr inbounds %"class.mojo::Message", %"class.mojo::Message"* %7, i64 0, i32 1
  %15 = call i64 @_ZN4mojo8internal6Buffer8AllocateEm(%"class.mojo::internal::Buffer"* %14, i64 24) #12
  %16 = getelementptr inbounds %"class.mojo::Message", %"class.mojo::Message"* %7, i64 0, i32 1, i32 2
  %17 = load i8*, i8** %16, align 8
  %18 = getelementptr inbounds i8, i8* %17, i64 %15
  %19 = bitcast i8* %18 to %"class.blink::mojom::internal::FileSystemManager_Create_Params_Data"*
  call void @_ZN5blink5mojom8internal36FileSystemManager_Create_Params_DataC1Ev(%"class.blink::mojom::internal::FileSystemManager_Create_Params_Data"* %19) #12
  %20 = bitcast %"class.mojo::internal::MessageFragment.75"* %8 to i8*
  call void @llvm.lifetime.start.p0i8(i64 16, i8* nonnull %20) #12
  %21 = getelementptr inbounds %"class.mojo::internal::MessageFragment.75", %"class.mojo::internal::MessageFragment.75"* %8, i64 0, i32 0
  %22 = getelementptr inbounds %"class.mojo::internal::MessageFragment.75", %"class.mojo::internal::MessageFragment.75"* %8, i64 0, i32 1
  store %"class.mojo::Message"* %7, %"class.mojo::Message"** %21, align 8
  store i64 -1, i64* %22, align 8
  call void @_ZN4mojo8internal10SerializerIN3url5mojom11UrlDataViewEKN5blink4KURLEE9SerializeERS7_RNS0_15MessageFragmentINS3_8internal8Url_DataEEE(%"class.blink::KURL"* dereferenceable(112) %1, %"class.mojo::internal::MessageFragment.75"* nonnull dereferenceable(16) %8) #12
  %23 = load i8*, i8** %16, align 8
  %24 = getelementptr inbounds i8, i8* %23, i64 %15
  %25 = getelementptr inbounds i8, i8* %24, i64 8
  %26 = load i64, i64* %22, align 8
  %27 = icmp eq i64 %26, -1
  br i1 %27, label %34, label %28

28:                                               ; preds = %6
  %29 = load %"class.mojo::Message"*, %"class.mojo::Message"** %21, align 8
  %30 = getelementptr inbounds %"class.mojo::Message", %"class.mojo::Message"* %29, i64 0, i32 1, i32 2
  %31 = load i8*, i8** %30, align 8
  %32 = getelementptr inbounds i8, i8* %31, i64 %26
  %33 = bitcast i8* %32 to %"class.url::mojom::internal::Url_Data"*
  br label %34

34:                                               ; preds = %28, %6
  %35 = phi %"class.url::mojom::internal::Url_Data"* [ %33, %28 ], [ null, %6 ]
  %36 = bitcast i8* %25 to i64*
  %37 = icmp eq %"class.url::mojom::internal::Url_Data"* %35, null
  %38 = ptrtoint %"class.url::mojom::internal::Url_Data"* %35 to i64
  %39 = ptrtoint i8* %25 to i64
  %40 = sub i64 %38, %39
  %41 = select i1 %37, i64 0, i64 %40
  store i64 %41, i64* %36, align 8
  %42 = load i8*, i8** %16, align 8
  %43 = getelementptr inbounds i8, i8* %42, i64 %15
  %44 = getelementptr inbounds i8, i8* %43, i64 16
  %45 = load i8, i8* %44, align 1
  %46 = and i8 %45, -2
  %47 = or i8 %46, %10
  store i8 %47, i8* %44, align 1
  %48 = load i8*, i8** %16, align 8
  %49 = getelementptr inbounds i8, i8* %48, i64 %15
  %50 = getelementptr inbounds i8, i8* %49, i64 16
  %51 = load i8, i8* %50, align 1
  %52 = shl nuw nsw i8 %11, 1
  %53 = and i8 %51, -3
  %54 = or i8 %53, %52
  store i8 %54, i8* %50, align 1
  %55 = load i8*, i8** %16, align 8
  %56 = getelementptr inbounds i8, i8* %55, i64 %15
  %57 = getelementptr inbounds i8, i8* %56, i64 16
  %58 = load i8, i8* %57, align 1
  %59 = shl nuw nsw i8 %12, 2
  %60 = and i8 %58, -5
  %61 = or i8 %60, %59
  store i8 %61, i8* %57, align 1
  call void @llvm.lifetime.start.p0i8(i64 1, i8* nonnull %9) #12
  store i8 0, i8* %9, align 1
  %62 = call i8* @_Znwm(i64 24) #13
  %63 = bitcast i8* %62 to i32 (...)***
  store i32 (...)** bitcast (i8** getelementptr inbounds ({ [6 x i8*] }, { [6 x i8*] }* @_ZTVN5blink5mojom5blink43FileSystemManager_Create_HandleSyncResponseE, i64 0, inrange i32 0, i64 2) to i32 (...)**), i32 (...)*** %63, align 8
  %64 = getelementptr inbounds i8, i8* %62, i64 8
  %65 = bitcast i8* %64 to i8**
  store i8* %9, i8** %65, align 8
  %66 = getelementptr inbounds i8, i8* %62, i64 16
  %67 = bitcast i8* %66 to i32**
  store i32* %5, i32** %67, align 8
  %68 = bitcast i8* %62 to %"class.mojo::MessageReceiver"*
  %69 = getelementptr inbounds %"class.blink::mojom::blink::FileSystemManagerProxy", %"class.blink::mojom::blink::FileSystemManagerProxy"* %0, i64 0, i32 1
  %70 = load %"class.mojo::MessageReceiverWithResponder"*, %"class.mojo::MessageReceiverWithResponder"** %69, align 8
  %71 = bitcast %"class.mojo::MessageReceiverWithResponder"* %70 to i1 (%"class.mojo::MessageReceiverWithResponder"*, %"class.mojo::Message"*, %"class.mojo::MessageReceiver"*)***
  %72 = load i1 (%"class.mojo::MessageReceiverWithResponder"*, %"class.mojo::Message"*, %"class.mojo::MessageReceiver"*)**, i1 (%"class.mojo::MessageReceiverWithResponder"*, %"class.mojo::Message"*, %"class.mojo::MessageReceiver"*)*** %71, align 8
  %73 = getelementptr inbounds i1 (%"class.mojo::MessageReceiverWithResponder"*, %"class.mojo::Message"*, %"class.mojo::MessageReceiver"*)*, i1 (%"class.mojo::MessageReceiverWithResponder"*, %"class.mojo::Message"*, %"class.mojo::MessageReceiver"*)** %72, i64 4
  %74 = load i1 (%"class.mojo::MessageReceiverWithResponder"*, %"class.mojo::Message"*, %"class.mojo::MessageReceiver"*)*, i1 (%"class.mojo::MessageReceiverWithResponder"*, %"class.mojo::Message"*, %"class.mojo::MessageReceiver"*)** %73, align 8
  %75 = call zeroext i1 %74(%"class.mojo::MessageReceiverWithResponder"* %70, %"class.mojo::Message"* nonnull %7, %"class.mojo::MessageReceiver"* nonnull %68) #12
  %76 = load i8, i8* %9, align 1, !range !3
  %77 = icmp ne i8 %76, 0
  call void @llvm.lifetime.end.p0i8(i64 1, i8* nonnull %9) #12
  call void @llvm.lifetime.end.p0i8(i64 16, i8* nonnull %20) #12
  call void @_ZN4mojo7MessageD1Ev(%"class.mojo::Message"* nonnull %7) #12
  call void @llvm.lifetime.end.p0i8(i64 120, i8* nonnull %13) #12
  ret i1 %77
}

; Function Attrs: nounwind ssp uwtable
define hidden void @_ZN5blink5mojom5blink22FileSystemManagerProxy6CreateERKNS_4KURLEbbbN4base12OnceCallbackIFvNS6_4File5ErrorEEEE(%"class.blink::mojom::blink::FileSystemManagerProxy"* nocapture readonly, %"class.blink::KURL"* dereferenceable(112), i1 zeroext, i1 zeroext, i1 zeroext, %"class.base::OnceCallback"* nocapture) unnamed_addr #0 align 2 {
  %7 = alloca %"class.mojo::Message", align 8
  %8 = alloca %"class.mojo::internal::MessageFragment.75", align 8
  %9 = alloca %"class.base::OnceCallback", align 8
  %10 = zext i1 %2 to i8
  %11 = zext i1 %3 to i8
  %12 = zext i1 %4 to i8
  %13 = bitcast %"class.mojo::Message"* %7 to i8*
  call void @llvm.lifetime.start.p0i8(i64 120, i8* nonnull %13) #12
  call void @llvm.memset.p0i8.i64(i8* nonnull align 8 %13, i8 -86, i64 120, i1 false)
  call void @_ZN4mojo7MessageC1EjjmmPNSt3__16vectorINS_16ScopedHandleBaseINS_6HandleEEENS1_9allocatorIS5_EEEE(%"class.mojo::Message"* nonnull %7, i32 6, i32 1, i64 0, i64 0, %"class.std::__1::vector"* null) #12
  %14 = getelementptr inbounds %"class.mojo::Message", %"class.mojo::Message"* %7, i64 0, i32 1
  %15 = call i64 @_ZN4mojo8internal6Buffer8AllocateEm(%"class.mojo::internal::Buffer"* %14, i64 24) #12
  %16 = getelementptr inbounds %"class.mojo::Message", %"class.mojo::Message"* %7, i64 0, i32 1, i32 2
  %17 = load i8*, i8** %16, align 8
  %18 = getelementptr inbounds i8, i8* %17, i64 %15
  %19 = bitcast i8* %18 to %"class.blink::mojom::internal::FileSystemManager_Create_Params_Data"*
  call void @_ZN5blink5mojom8internal36FileSystemManager_Create_Params_DataC1Ev(%"class.blink::mojom::internal::FileSystemManager_Create_Params_Data"* %19) #12
  %20 = bitcast %"class.mojo::internal::MessageFragment.75"* %8 to i8*
  call void @llvm.lifetime.start.p0i8(i64 16, i8* nonnull %20) #12
  %21 = getelementptr inbounds %"class.mojo::internal::MessageFragment.75", %"class.mojo::internal::MessageFragment.75"* %8, i64 0, i32 0
  %22 = getelementptr inbounds %"class.mojo::internal::MessageFragment.75", %"class.mojo::internal::MessageFragment.75"* %8, i64 0, i32 1
  store %"class.mojo::Message"* %7, %"class.mojo::Message"** %21, align 8
  store i64 -1, i64* %22, align 8
  call void @_ZN4mojo8internal10SerializerIN3url5mojom11UrlDataViewEKN5blink4KURLEE9SerializeERS7_RNS0_15MessageFragmentINS3_8internal8Url_DataEEE(%"class.blink::KURL"* dereferenceable(112) %1, %"class.mojo::internal::MessageFragment.75"* nonnull dereferenceable(16) %8) #12
  %23 = load i8*, i8** %16, align 8
  %24 = getelementptr inbounds i8, i8* %23, i64 %15
  %25 = getelementptr inbounds i8, i8* %24, i64 8
  %26 = load i64, i64* %22, align 8
  %27 = icmp eq i64 %26, -1
  br i1 %27, label %34, label %28

28:                                               ; preds = %6
  %29 = load %"class.mojo::Message"*, %"class.mojo::Message"** %21, align 8
  %30 = getelementptr inbounds %"class.mojo::Message", %"class.mojo::Message"* %29, i64 0, i32 1, i32 2
  %31 = load i8*, i8** %30, align 8
  %32 = getelementptr inbounds i8, i8* %31, i64 %26
  %33 = bitcast i8* %32 to %"class.url::mojom::internal::Url_Data"*
  br label %34

34:                                               ; preds = %28, %6
  %35 = phi %"class.url::mojom::internal::Url_Data"* [ %33, %28 ], [ null, %6 ]
  %36 = bitcast i8* %25 to i64*
  %37 = icmp eq %"class.url::mojom::internal::Url_Data"* %35, null
  %38 = ptrtoint %"class.url::mojom::internal::Url_Data"* %35 to i64
  %39 = ptrtoint i8* %25 to i64
  %40 = sub i64 %38, %39
  %41 = select i1 %37, i64 0, i64 %40
  store i64 %41, i64* %36, align 8
  %42 = load i8*, i8** %16, align 8
  %43 = getelementptr inbounds i8, i8* %42, i64 %15
  %44 = getelementptr inbounds i8, i8* %43, i64 16
  %45 = load i8, i8* %44, align 1
  %46 = and i8 %45, -2
  %47 = or i8 %46, %10
  store i8 %47, i8* %44, align 1
  %48 = load i8*, i8** %16, align 8
  %49 = getelementptr inbounds i8, i8* %48, i64 %15
  %50 = getelementptr inbounds i8, i8* %49, i64 16
  %51 = load i8, i8* %50, align 1
  %52 = shl nuw nsw i8 %11, 1
  %53 = and i8 %51, -3
  %54 = or i8 %53, %52
  store i8 %54, i8* %50, align 1
  %55 = load i8*, i8** %16, align 8
  %56 = getelementptr inbounds i8, i8* %55, i64 %15
  %57 = getelementptr inbounds i8, i8* %56, i64 16
  %58 = load i8, i8* %57, align 1
  %59 = shl nuw nsw i8 %12, 2
  %60 = and i8 %58, -5
  %61 = or i8 %60, %59
  store i8 %61, i8* %57, align 1
  %62 = call i8* @_Znwm(i64 16) #13
  %63 = getelementptr inbounds %"class.base::OnceCallback", %"class.base::OnceCallback"* %5, i64 0, i32 0, i32 0, i32 0
  %64 = bitcast %"class.base::OnceCallback"* %5 to i64*
  %65 = load i64, i64* %64, align 8
  store %"class.base::internal::BindStateBase"* null, %"class.base::internal::BindStateBase"** %63, align 8
  %66 = bitcast i8* %62 to i32 (...)***
  store i32 (...)** bitcast (i8** getelementptr inbounds ({ [6 x i8*] }, { [6 x i8*] }* @_ZTVN5blink5mojom5blink42FileSystemManager_Create_ForwardToCallbackE, i64 0, inrange i32 0, i64 2) to i32 (...)**), i32 (...)*** %66, align 8
  %67 = getelementptr inbounds i8, i8* %62, i64 8
  %68 = getelementptr inbounds %"class.base::OnceCallback", %"class.base::OnceCallback"* %9, i64 0, i32 0, i32 0, i32 0
  %69 = bitcast i8* %67 to i64*
  store i64 %65, i64* %69, align 8
  store %"class.base::internal::BindStateBase"* null, %"class.base::internal::BindStateBase"** %68, align 8
  %70 = bitcast i8* %62 to %"class.mojo::MessageReceiver"*
  %71 = getelementptr inbounds %"class.base::OnceCallback", %"class.base::OnceCallback"* %9, i64 0, i32 0
  call void @_ZN4base8internal12CallbackBaseD2Ev(%"class.base::internal::CallbackBase"* nonnull %71) #12
  %72 = getelementptr inbounds %"class.blink::mojom::blink::FileSystemManagerProxy", %"class.blink::mojom::blink::FileSystemManagerProxy"* %0, i64 0, i32 1
  %73 = load %"class.mojo::MessageReceiverWithResponder"*, %"class.mojo::MessageReceiverWithResponder"** %72, align 8
  %74 = bitcast %"class.mojo::MessageReceiverWithResponder"* %73 to i1 (%"class.mojo::MessageReceiverWithResponder"*, %"class.mojo::Message"*, %"class.mojo::MessageReceiver"*)***
  %75 = load i1 (%"class.mojo::MessageReceiverWithResponder"*, %"class.mojo::Message"*, %"class.mojo::MessageReceiver"*)**, i1 (%"class.mojo::MessageReceiverWithResponder"*, %"class.mojo::Message"*, %"class.mojo::MessageReceiver"*)*** %74, align 8
  %76 = getelementptr inbounds i1 (%"class.mojo::MessageReceiverWithResponder"*, %"class.mojo::Message"*, %"class.mojo::MessageReceiver"*)*, i1 (%"class.mojo::MessageReceiverWithResponder"*, %"class.mojo::Message"*, %"class.mojo::MessageReceiver"*)** %75, i64 4
  %77 = load i1 (%"class.mojo::MessageReceiverWithResponder"*, %"class.mojo::Message"*, %"class.mojo::MessageReceiver"*)*, i1 (%"class.mojo::MessageReceiverWithResponder"*, %"class.mojo::Message"*, %"class.mojo::MessageReceiver"*)** %76, align 8
  %78 = call zeroext i1 %77(%"class.mojo::MessageReceiverWithResponder"* %73, %"class.mojo::Message"* nonnull %7, %"class.mojo::MessageReceiver"* nonnull %70) #12
  call void @llvm.lifetime.end.p0i8(i64 16, i8* nonnull %20) #12
  call void @_ZN4mojo7MessageD1Ev(%"class.mojo::Message"* nonnull %7) #12
  call void @llvm.lifetime.end.p0i8(i64 120, i8* nonnull %13) #12
  ret void
}

; Function Attrs: nounwind ssp uwtable
define hidden zeroext i1 @_ZN5blink5mojom5blink22FileSystemManagerProxy6ExistsERKNS_4KURLEbPN4base4File5ErrorE(%"class.blink::mojom::blink::FileSystemManagerProxy"* nocapture readonly, %"class.blink::KURL"* dereferenceable(112), i1 zeroext, i32*) unnamed_addr #0 align 2 {
  %5 = alloca %"class.mojo::Message", align 8
  %6 = alloca %"class.mojo::internal::MessageFragment.75", align 8
  %7 = alloca i8, align 1
  %8 = zext i1 %2 to i8
  %9 = bitcast %"class.mojo::Message"* %5 to i8*
  call void @llvm.lifetime.start.p0i8(i64 120, i8* nonnull %9) #12
  call void @llvm.memset.p0i8.i64(i8* nonnull align 8 %9, i8 -86, i64 120, i1 false)
  call void @_ZN4mojo7MessageC1EjjmmPNSt3__16vectorINS_16ScopedHandleBaseINS_6HandleEEENS1_9allocatorIS5_EEEE(%"class.mojo::Message"* nonnull %5, i32 7, i32 5, i64 0, i64 0, %"class.std::__1::vector"* null) #12
  %10 = getelementptr inbounds %"class.mojo::Message", %"class.mojo::Message"* %5, i64 0, i32 1
  %11 = call i64 @_ZN4mojo8internal6Buffer8AllocateEm(%"class.mojo::internal::Buffer"* %10, i64 24) #12
  %12 = getelementptr inbounds %"class.mojo::Message", %"class.mojo::Message"* %5, i64 0, i32 1, i32 2
  %13 = load i8*, i8** %12, align 8
  %14 = getelementptr inbounds i8, i8* %13, i64 %11
  %15 = bitcast i8* %14 to %"class.blink::mojom::internal::FileSystemManager_Exists_Params_Data"*
  call void @_ZN5blink5mojom8internal36FileSystemManager_Exists_Params_DataC1Ev(%"class.blink::mojom::internal::FileSystemManager_Exists_Params_Data"* %15) #12
  %16 = bitcast %"class.mojo::internal::MessageFragment.75"* %6 to i8*
  call void @llvm.lifetime.start.p0i8(i64 16, i8* nonnull %16) #12
  %17 = getelementptr inbounds %"class.mojo::internal::MessageFragment.75", %"class.mojo::internal::MessageFragment.75"* %6, i64 0, i32 0
  %18 = getelementptr inbounds %"class.mojo::internal::MessageFragment.75", %"class.mojo::internal::MessageFragment.75"* %6, i64 0, i32 1
  store %"class.mojo::Message"* %5, %"class.mojo::Message"** %17, align 8
  store i64 -1, i64* %18, align 8
  call void @_ZN4mojo8internal10SerializerIN3url5mojom11UrlDataViewEKN5blink4KURLEE9SerializeERS7_RNS0_15MessageFragmentINS3_8internal8Url_DataEEE(%"class.blink::KURL"* dereferenceable(112) %1, %"class.mojo::internal::MessageFragment.75"* nonnull dereferenceable(16) %6) #12
  %19 = load i8*, i8** %12, align 8
  %20 = getelementptr inbounds i8, i8* %19, i64 %11
  %21 = getelementptr inbounds i8, i8* %20, i64 8
  %22 = load i64, i64* %18, align 8
  %23 = icmp eq i64 %22, -1
  br i1 %23, label %30, label %24

24:                                               ; preds = %4
  %25 = load %"class.mojo::Message"*, %"class.mojo::Message"** %17, align 8
  %26 = getelementptr inbounds %"class.mojo::Message", %"class.mojo::Message"* %25, i64 0, i32 1, i32 2
  %27 = load i8*, i8** %26, align 8
  %28 = getelementptr inbounds i8, i8* %27, i64 %22
  %29 = bitcast i8* %28 to %"class.url::mojom::internal::Url_Data"*
  br label %30

30:                                               ; preds = %24, %4
  %31 = phi %"class.url::mojom::internal::Url_Data"* [ %29, %24 ], [ null, %4 ]
  %32 = bitcast i8* %21 to i64*
  %33 = icmp eq %"class.url::mojom::internal::Url_Data"* %31, null
  %34 = ptrtoint %"class.url::mojom::internal::Url_Data"* %31 to i64
  %35 = ptrtoint i8* %21 to i64
  %36 = sub i64 %34, %35
  %37 = select i1 %33, i64 0, i64 %36
  store i64 %37, i64* %32, align 8
  %38 = load i8*, i8** %12, align 8
  %39 = getelementptr inbounds i8, i8* %38, i64 %11
  %40 = getelementptr inbounds i8, i8* %39, i64 16
  %41 = load i8, i8* %40, align 1
  %42 = and i8 %41, -2
  %43 = or i8 %42, %8
  store i8 %43, i8* %40, align 1
  call void @llvm.lifetime.start.p0i8(i64 1, i8* nonnull %7) #12
  store i8 0, i8* %7, align 1
  %44 = call i8* @_Znwm(i64 24) #13
  %45 = bitcast i8* %44 to i32 (...)***
  store i32 (...)** bitcast (i8** getelementptr inbounds ({ [6 x i8*] }, { [6 x i8*] }* @_ZTVN5blink5mojom5blink43FileSystemManager_Exists_HandleSyncResponseE, i64 0, inrange i32 0, i64 2) to i32 (...)**), i32 (...)*** %45, align 8
  %46 = getelementptr inbounds i8, i8* %44, i64 8
  %47 = bitcast i8* %46 to i8**
  store i8* %7, i8** %47, align 8
  %48 = getelementptr inbounds i8, i8* %44, i64 16
  %49 = bitcast i8* %48 to i32**
  store i32* %3, i32** %49, align 8
  %50 = bitcast i8* %44 to %"class.mojo::MessageReceiver"*
  %51 = getelementptr inbounds %"class.blink::mojom::blink::FileSystemManagerProxy", %"class.blink::mojom::blink::FileSystemManagerProxy"* %0, i64 0, i32 1
  %52 = load %"class.mojo::MessageReceiverWithResponder"*, %"class.mojo::MessageReceiverWithResponder"** %51, align 8
  %53 = bitcast %"class.mojo::MessageReceiverWithResponder"* %52 to i1 (%"class.mojo::MessageReceiverWithResponder"*, %"class.mojo::Message"*, %"class.mojo::MessageReceiver"*)***
  %54 = load i1 (%"class.mojo::MessageReceiverWithResponder"*, %"class.mojo::Message"*, %"class.mojo::MessageReceiver"*)**, i1 (%"class.mojo::MessageReceiverWithResponder"*, %"class.mojo::Message"*, %"class.mojo::MessageReceiver"*)*** %53, align 8
  %55 = getelementptr inbounds i1 (%"class.mojo::MessageReceiverWithResponder"*, %"class.mojo::Message"*, %"class.mojo::MessageReceiver"*)*, i1 (%"class.mojo::MessageReceiverWithResponder"*, %"class.mojo::Message"*, %"class.mojo::MessageReceiver"*)** %54, i64 4
  %56 = load i1 (%"class.mojo::MessageReceiverWithResponder"*, %"class.mojo::Message"*, %"class.mojo::MessageReceiver"*)*, i1 (%"class.mojo::MessageReceiverWithResponder"*, %"class.mojo::Message"*, %"class.mojo::MessageReceiver"*)** %55, align 8
  %57 = call zeroext i1 %56(%"class.mojo::MessageReceiverWithResponder"* %52, %"class.mojo::Message"* nonnull %5, %"class.mojo::MessageReceiver"* nonnull %50) #12
  %58 = load i8, i8* %7, align 1, !range !3
  %59 = icmp ne i8 %58, 0
  call void @llvm.lifetime.end.p0i8(i64 1, i8* nonnull %7) #12
  call void @llvm.lifetime.end.p0i8(i64 16, i8* nonnull %16) #12
  call void @_ZN4mojo7MessageD1Ev(%"class.mojo::Message"* nonnull %5) #12
  call void @llvm.lifetime.end.p0i8(i64 120, i8* nonnull %9) #12
  ret i1 %59
}

; Function Attrs: nounwind ssp uwtable
define hidden void @_ZN5blink5mojom5blink22FileSystemManagerProxy6ExistsERKNS_4KURLEbN4base12OnceCallbackIFvNS6_4File5ErrorEEEE(%"class.blink::mojom::blink::FileSystemManagerProxy"* nocapture readonly, %"class.blink::KURL"* dereferenceable(112), i1 zeroext, %"class.base::OnceCallback"* nocapture) unnamed_addr #0 align 2 {
  %5 = alloca %"class.mojo::Message", align 8
  %6 = alloca %"class.mojo::internal::MessageFragment.75", align 8
  %7 = alloca %"class.base::OnceCallback", align 8
  %8 = zext i1 %2 to i8
  %9 = bitcast %"class.mojo::Message"* %5 to i8*
  call void @llvm.lifetime.start.p0i8(i64 120, i8* nonnull %9) #12
  call void @llvm.memset.p0i8.i64(i8* nonnull align 8 %9, i8 -86, i64 120, i1 false)
  call void @_ZN4mojo7MessageC1EjjmmPNSt3__16vectorINS_16ScopedHandleBaseINS_6HandleEEENS1_9allocatorIS5_EEEE(%"class.mojo::Message"* nonnull %5, i32 7, i32 1, i64 0, i64 0, %"class.std::__1::vector"* null) #12
  %10 = getelementptr inbounds %"class.mojo::Message", %"class.mojo::Message"* %5, i64 0, i32 1
  %11 = call i64 @_ZN4mojo8internal6Buffer8AllocateEm(%"class.mojo::internal::Buffer"* %10, i64 24) #12
  %12 = getelementptr inbounds %"class.mojo::Message", %"class.mojo::Message"* %5, i64 0, i32 1, i32 2
  %13 = load i8*, i8** %12, align 8
  %14 = getelementptr inbounds i8, i8* %13, i64 %11
  %15 = bitcast i8* %14 to %"class.blink::mojom::internal::FileSystemManager_Exists_Params_Data"*
  call void @_ZN5blink5mojom8internal36FileSystemManager_Exists_Params_DataC1Ev(%"class.blink::mojom::internal::FileSystemManager_Exists_Params_Data"* %15) #12
  %16 = bitcast %"class.mojo::internal::MessageFragment.75"* %6 to i8*
  call void @llvm.lifetime.start.p0i8(i64 16, i8* nonnull %16) #12
  %17 = getelementptr inbounds %"class.mojo::internal::MessageFragment.75", %"class.mojo::internal::MessageFragment.75"* %6, i64 0, i32 0
  %18 = getelementptr inbounds %"class.mojo::internal::MessageFragment.75", %"class.mojo::internal::MessageFragment.75"* %6, i64 0, i32 1
  store %"class.mojo::Message"* %5, %"class.mojo::Message"** %17, align 8
  store i64 -1, i64* %18, align 8
  call void @_ZN4mojo8internal10SerializerIN3url5mojom11UrlDataViewEKN5blink4KURLEE9SerializeERS7_RNS0_15MessageFragmentINS3_8internal8Url_DataEEE(%"class.blink::KURL"* dereferenceable(112) %1, %"class.mojo::internal::MessageFragment.75"* nonnull dereferenceable(16) %6) #12
  %19 = load i8*, i8** %12, align 8
  %20 = getelementptr inbounds i8, i8* %19, i64 %11
  %21 = getelementptr inbounds i8, i8* %20, i64 8
  %22 = load i64, i64* %18, align 8
  %23 = icmp eq i64 %22, -1
  br i1 %23, label %30, label %24

24:                                               ; preds = %4
  %25 = load %"class.mojo::Message"*, %"class.mojo::Message"** %17, align 8
  %26 = getelementptr inbounds %"class.mojo::Message", %"class.mojo::Message"* %25, i64 0, i32 1, i32 2
  %27 = load i8*, i8** %26, align 8
  %28 = getelementptr inbounds i8, i8* %27, i64 %22
  %29 = bitcast i8* %28 to %"class.url::mojom::internal::Url_Data"*
  br label %30

30:                                               ; preds = %24, %4
  %31 = phi %"class.url::mojom::internal::Url_Data"* [ %29, %24 ], [ null, %4 ]
  %32 = bitcast i8* %21 to i64*
  %33 = icmp eq %"class.url::mojom::internal::Url_Data"* %31, null
  %34 = ptrtoint %"class.url::mojom::internal::Url_Data"* %31 to i64
  %35 = ptrtoint i8* %21 to i64
  %36 = sub i64 %34, %35
  %37 = select i1 %33, i64 0, i64 %36
  store i64 %37, i64* %32, align 8
  %38 = load i8*, i8** %12, align 8
  %39 = getelementptr inbounds i8, i8* %38, i64 %11
  %40 = getelementptr inbounds i8, i8* %39, i64 16
  %41 = load i8, i8* %40, align 1
  %42 = and i8 %41, -2
  %43 = or i8 %42, %8
  store i8 %43, i8* %40, align 1
  %44 = call i8* @_Znwm(i64 16) #13
  %45 = getelementptr inbounds %"class.base::OnceCallback", %"class.base::OnceCallback"* %3, i64 0, i32 0, i32 0, i32 0
  %46 = bitcast %"class.base::OnceCallback"* %3 to i64*
  %47 = load i64, i64* %46, align 8
  store %"class.base::internal::BindStateBase"* null, %"class.base::internal::BindStateBase"** %45, align 8
  %48 = bitcast i8* %44 to i32 (...)***
  store i32 (...)** bitcast (i8** getelementptr inbounds ({ [6 x i8*] }, { [6 x i8*] }* @_ZTVN5blink5mojom5blink42FileSystemManager_Exists_ForwardToCallbackE, i64 0, inrange i32 0, i64 2) to i32 (...)**), i32 (...)*** %48, align 8
  %49 = getelementptr inbounds i8, i8* %44, i64 8
  %50 = getelementptr inbounds %"class.base::OnceCallback", %"class.base::OnceCallback"* %7, i64 0, i32 0, i32 0, i32 0
  %51 = bitcast i8* %49 to i64*
  store i64 %47, i64* %51, align 8
  store %"class.base::internal::BindStateBase"* null, %"class.base::internal::BindStateBase"** %50, align 8
  %52 = bitcast i8* %44 to %"class.mojo::MessageReceiver"*
  %53 = getelementptr inbounds %"class.base::OnceCallback", %"class.base::OnceCallback"* %7, i64 0, i32 0
  call void @_ZN4base8internal12CallbackBaseD2Ev(%"class.base::internal::CallbackBase"* nonnull %53) #12
  %54 = getelementptr inbounds %"class.blink::mojom::blink::FileSystemManagerProxy", %"class.blink::mojom::blink::FileSystemManagerProxy"* %0, i64 0, i32 1
  %55 = load %"class.mojo::MessageReceiverWithResponder"*, %"class.mojo::MessageReceiverWithResponder"** %54, align 8
  %56 = bitcast %"class.mojo::MessageReceiverWithResponder"* %55 to i1 (%"class.mojo::MessageReceiverWithResponder"*, %"class.mojo::Message"*, %"class.mojo::MessageReceiver"*)***
  %57 = load i1 (%"class.mojo::MessageReceiverWithResponder"*, %"class.mojo::Message"*, %"class.mojo::MessageReceiver"*)**, i1 (%"class.mojo::MessageReceiverWithResponder"*, %"class.mojo::Message"*, %"class.mojo::MessageReceiver"*)*** %56, align 8
  %58 = getelementptr inbounds i1 (%"class.mojo::MessageReceiverWithResponder"*, %"class.mojo::Message"*, %"class.mojo::MessageReceiver"*)*, i1 (%"class.mojo::MessageReceiverWithResponder"*, %"class.mojo::Message"*, %"class.mojo::MessageReceiver"*)** %57, i64 4
  %59 = load i1 (%"class.mojo::MessageReceiverWithResponder"*, %"class.mojo::Message"*, %"class.mojo::MessageReceiver"*)*, i1 (%"class.mojo::MessageReceiverWithResponder"*, %"class.mojo::Message"*, %"class.mojo::MessageReceiver"*)** %58, align 8
  %60 = call zeroext i1 %59(%"class.mojo::MessageReceiverWithResponder"* %55, %"class.mojo::Message"* nonnull %5, %"class.mojo::MessageReceiver"* nonnull %52) #12
  call void @llvm.lifetime.end.p0i8(i64 16, i8* nonnull %16) #12
  call void @_ZN4mojo7MessageD1Ev(%"class.mojo::Message"* nonnull %5) #12
  call void @llvm.lifetime.end.p0i8(i64 120, i8* nonnull %9) #12
  ret void
}

; Function Attrs: nounwind ssp uwtable
define hidden void @_ZN5blink5mojom5blink22FileSystemManagerProxy13ReadDirectoryERKNS_4KURLEN4mojo13PendingRemoteINS1_27FileSystemOperationListenerEEE(%"class.blink::mojom::blink::FileSystemManagerProxy"* nocapture readonly, %"class.blink::KURL"* dereferenceable(112), %"class.mojo::PendingRemote.85"* nocapture) unnamed_addr #0 align 2 {
  %4 = alloca %"class.mojo::ScopedHandleBase.67", align 4
  %5 = alloca %"class.mojo::Message", align 8
  %6 = alloca %"class.mojo::internal::MessageFragment.75", align 8
  %7 = bitcast %"class.mojo::Message"* %5 to i8*
  call void @llvm.lifetime.start.p0i8(i64 120, i8* nonnull %7) #12
  call void @llvm.memset.p0i8.i64(i8* nonnull align 8 %7, i8 -86, i64 120, i1 false)
  call void @_ZN4mojo7MessageC1EjjmmPNSt3__16vectorINS_16ScopedHandleBaseINS_6HandleEEENS1_9allocatorIS5_EEEE(%"class.mojo::Message"* nonnull %5, i32 8, i32 0, i64 0, i64 0, %"class.std::__1::vector"* null) #12
  %8 = getelementptr inbounds %"class.mojo::Message", %"class.mojo::Message"* %5, i64 0, i32 1
  %9 = call i64 @_ZN4mojo8internal6Buffer8AllocateEm(%"class.mojo::internal::Buffer"* %8, i64 24) #12
  %10 = getelementptr inbounds %"class.mojo::Message", %"class.mojo::Message"* %5, i64 0, i32 1, i32 2
  %11 = load i8*, i8** %10, align 8
  %12 = getelementptr inbounds i8, i8* %11, i64 %9
  %13 = bitcast i8* %12 to %"class.blink::mojom::internal::FileSystemManager_ReadDirectory_Params_Data"*
  call void @_ZN5blink5mojom8internal43FileSystemManager_ReadDirectory_Params_DataC1Ev(%"class.blink::mojom::internal::FileSystemManager_ReadDirectory_Params_Data"* %13) #12
  %14 = bitcast %"class.mojo::internal::MessageFragment.75"* %6 to i8*
  call void @llvm.lifetime.start.p0i8(i64 16, i8* nonnull %14) #12
  %15 = getelementptr inbounds %"class.mojo::internal::MessageFragment.75", %"class.mojo::internal::MessageFragment.75"* %6, i64 0, i32 0
  %16 = getelementptr inbounds %"class.mojo::internal::MessageFragment.75", %"class.mojo::internal::MessageFragment.75"* %6, i64 0, i32 1
  store %"class.mojo::Message"* %5, %"class.mojo::Message"** %15, align 8
  store i64 -1, i64* %16, align 8
  call void @_ZN4mojo8internal10SerializerIN3url5mojom11UrlDataViewEKN5blink4KURLEE9SerializeERS7_RNS0_15MessageFragmentINS3_8internal8Url_DataEEE(%"class.blink::KURL"* dereferenceable(112) %1, %"class.mojo::internal::MessageFragment.75"* nonnull dereferenceable(16) %6) #12
  %17 = load i8*, i8** %10, align 8
  %18 = getelementptr inbounds i8, i8* %17, i64 %9
  %19 = getelementptr inbounds i8, i8* %18, i64 8
  %20 = load i64, i64* %16, align 8
  %21 = icmp eq i64 %20, -1
  br i1 %21, label %28, label %22

22:                                               ; preds = %3
  %23 = load %"class.mojo::Message"*, %"class.mojo::Message"** %15, align 8
  %24 = getelementptr inbounds %"class.mojo::Message", %"class.mojo::Message"* %23, i64 0, i32 1, i32 2
  %25 = load i8*, i8** %24, align 8
  %26 = getelementptr inbounds i8, i8* %25, i64 %20
  %27 = bitcast i8* %26 to %"class.url::mojom::internal::Url_Data"*
  br label %28

28:                                               ; preds = %3, %22
  %29 = phi %"class.url::mojom::internal::Url_Data"* [ %27, %22 ], [ null, %3 ]
  %30 = bitcast i8* %19 to i64*
  %31 = icmp eq %"class.url::mojom::internal::Url_Data"* %29, null
  %32 = ptrtoint %"class.url::mojom::internal::Url_Data"* %29 to i64
  %33 = ptrtoint i8* %19 to i64
  %34 = sub i64 %32, %33
  %35 = select i1 %31, i64 0, i64 %34
  store i64 %35, i64* %30, align 8
  %36 = load i8*, i8** %10, align 8
  %37 = getelementptr inbounds i8, i8* %36, i64 %9
  %38 = getelementptr inbounds i8, i8* %37, i64 16
  %39 = bitcast i8* %38 to %"struct.mojo::internal::Interface_Data"*
  %40 = bitcast %"class.mojo::ScopedHandleBase.67"* %4 to i8*
  call void @llvm.lifetime.start.p0i8(i64 4, i8* nonnull %40) #12
  %41 = getelementptr inbounds %"class.mojo::PendingRemote.85", %"class.mojo::PendingRemote.85"* %2, i64 0, i32 0, i32 1
  %42 = load i32, i32* %41, align 4
  store i32 0, i32* %41, align 4, !noalias !13
  %43 = getelementptr inbounds %"class.mojo::ScopedHandleBase.67", %"class.mojo::ScopedHandleBase.67"* %4, i64 0, i32 0, i32 0, i32 0
  %44 = getelementptr inbounds %"class.mojo::PendingRemote.85", %"class.mojo::PendingRemote.85"* %2, i64 0, i32 0, i32 0, i32 0, i32 0, i32 0
  %45 = load i32, i32* %44, align 4, !noalias !16
  store i32 %45, i32* %43, align 4, !alias.scope !16
  store i32 0, i32* %44, align 4, !noalias !16
  call void @_ZN4mojo8internal22SerializeInterfaceInfoENS_16ScopedHandleBaseINS_17MessagePipeHandleEEEjRNS_7MessageERNS0_14Interface_DataE(%"class.mojo::ScopedHandleBase.67"* nonnull %4, i32 %42, %"class.mojo::Message"* nonnull dereferenceable(120) %5, %"struct.mojo::internal::Interface_Data"* dereferenceable(8) %39) #12
  %46 = load i32, i32* %43, align 4
  %47 = icmp eq i32 %46, 0
  br i1 %47, label %50, label %48

48:                                               ; preds = %28
  %49 = call i32 @MojoClose(i32 %46) #12
  br label %50

50:                                               ; preds = %28, %48
  call void @llvm.lifetime.end.p0i8(i64 4, i8* nonnull %40) #12
  %51 = getelementptr inbounds %"class.blink::mojom::blink::FileSystemManagerProxy", %"class.blink::mojom::blink::FileSystemManagerProxy"* %0, i64 0, i32 1
  %52 = bitcast %"class.mojo::MessageReceiverWithResponder"** %51 to %"class.mojo::MessageReceiver"**
  %53 = load %"class.mojo::MessageReceiver"*, %"class.mojo::MessageReceiver"** %52, align 8
  %54 = bitcast %"class.mojo::MessageReceiver"* %53 to i1 (%"class.mojo::MessageReceiver"*, %"class.mojo::Message"*)***
  %55 = load i1 (%"class.mojo::MessageReceiver"*, %"class.mojo::Message"*)**, i1 (%"class.mojo::MessageReceiver"*, %"class.mojo::Message"*)*** %54, align 8
  %56 = getelementptr inbounds i1 (%"class.mojo::MessageReceiver"*, %"class.mojo::Message"*)*, i1 (%"class.mojo::MessageReceiver"*, %"class.mojo::Message"*)** %55, i64 3
  %57 = load i1 (%"class.mojo::MessageReceiver"*, %"class.mojo::Message"*)*, i1 (%"class.mojo::MessageReceiver"*, %"class.mojo::Message"*)** %56, align 8
  %58 = call zeroext i1 %57(%"class.mojo::MessageReceiver"* %53, %"class.mojo::Message"* nonnull %5) #12
  call void @llvm.lifetime.end.p0i8(i64 16, i8* nonnull %14) #12
  call void @_ZN4mojo7MessageD1Ev(%"class.mojo::Message"* nonnull %5) #12
  call void @llvm.lifetime.end.p0i8(i64 120, i8* nonnull %7) #12
  ret void
}

; Function Attrs: nounwind ssp uwtable
define hidden zeroext i1 @_ZN5blink5mojom5blink22FileSystemManagerProxy17ReadDirectorySyncERKNS_4KURLEPN3WTF6VectorIN4mojo9StructPtrIN10filesystem5mojom5blink14DirectoryEntryEEELj0ENS6_18PartitionAllocatorEEEPN4base4File5ErrorE(%"class.blink::mojom::blink::FileSystemManagerProxy"* nocapture readonly, %"class.blink::KURL"* dereferenceable(112), %"class.WTF::Vector"*, i32*) unnamed_addr #0 align 2 {
  %5 = alloca %"class.mojo::Message", align 8
  %6 = alloca %"class.mojo::internal::MessageFragment.75", align 8
  %7 = alloca i8, align 1
  %8 = bitcast %"class.mojo::Message"* %5 to i8*
  call void @llvm.lifetime.start.p0i8(i64 120, i8* nonnull %8) #12
  call void @llvm.memset.p0i8.i64(i8* nonnull align 8 %8, i8 -86, i64 120, i1 false)
  call void @_ZN4mojo7MessageC1EjjmmPNSt3__16vectorINS_16ScopedHandleBaseINS_6HandleEEENS1_9allocatorIS5_EEEE(%"class.mojo::Message"* nonnull %5, i32 9, i32 5, i64 0, i64 0, %"class.std::__1::vector"* null) #12
  %9 = getelementptr inbounds %"class.mojo::Message", %"class.mojo::Message"* %5, i64 0, i32 1
  %10 = call i64 @_ZN4mojo8internal6Buffer8AllocateEm(%"class.mojo::internal::Buffer"* %9, i64 16) #12
  %11 = getelementptr inbounds %"class.mojo::Message", %"class.mojo::Message"* %5, i64 0, i32 1, i32 2
  %12 = load i8*, i8** %11, align 8
  %13 = getelementptr inbounds i8, i8* %12, i64 %10
  %14 = bitcast i8* %13 to %"class.blink::mojom::internal::FileSystemManager_ReadDirectorySync_Params_Data"*
  call void @_ZN5blink5mojom8internal47FileSystemManager_ReadDirectorySync_Params_DataC1Ev(%"class.blink::mojom::internal::FileSystemManager_ReadDirectorySync_Params_Data"* %14) #12
  %15 = bitcast %"class.mojo::internal::MessageFragment.75"* %6 to i8*
  call void @llvm.lifetime.start.p0i8(i64 16, i8* nonnull %15) #12
  %16 = getelementptr inbounds %"class.mojo::internal::MessageFragment.75", %"class.mojo::internal::MessageFragment.75"* %6, i64 0, i32 0
  %17 = getelementptr inbounds %"class.mojo::internal::MessageFragment.75", %"class.mojo::internal::MessageFragment.75"* %6, i64 0, i32 1
  store %"class.mojo::Message"* %5, %"class.mojo::Message"** %16, align 8
  store i64 -1, i64* %17, align 8
  call void @_ZN4mojo8internal10SerializerIN3url5mojom11UrlDataViewEKN5blink4KURLEE9SerializeERS7_RNS0_15MessageFragmentINS3_8internal8Url_DataEEE(%"class.blink::KURL"* dereferenceable(112) %1, %"class.mojo::internal::MessageFragment.75"* nonnull dereferenceable(16) %6) #12
  %18 = load i8*, i8** %11, align 8
  %19 = getelementptr inbounds i8, i8* %18, i64 %10
  %20 = getelementptr inbounds i8, i8* %19, i64 8
  %21 = load i64, i64* %17, align 8
  %22 = icmp eq i64 %21, -1
  br i1 %22, label %29, label %23

23:                                               ; preds = %4
  %24 = load %"class.mojo::Message"*, %"class.mojo::Message"** %16, align 8
  %25 = getelementptr inbounds %"class.mojo::Message", %"class.mojo::Message"* %24, i64 0, i32 1, i32 2
  %26 = load i8*, i8** %25, align 8
  %27 = getelementptr inbounds i8, i8* %26, i64 %21
  %28 = bitcast i8* %27 to %"class.url::mojom::internal::Url_Data"*
  br label %29

29:                                               ; preds = %23, %4
  %30 = phi %"class.url::mojom::internal::Url_Data"* [ %28, %23 ], [ null, %4 ]
  %31 = bitcast i8* %20 to i64*
  %32 = icmp eq %"class.url::mojom::internal::Url_Data"* %30, null
  %33 = ptrtoint %"class.url::mojom::internal::Url_Data"* %30 to i64
  %34 = ptrtoint i8* %20 to i64
  %35 = sub i64 %33, %34
  %36 = select i1 %32, i64 0, i64 %35
  store i64 %36, i64* %31, align 8
  call void @llvm.lifetime.start.p0i8(i64 1, i8* nonnull %7) #12
  store i8 0, i8* %7, align 1
  %37 = call i8* @_Znwm(i64 32) #13
  %38 = bitcast i8* %37 to i32 (...)***
  store i32 (...)** bitcast (i8** getelementptr inbounds ({ [6 x i8*] }, { [6 x i8*] }* @_ZTVN5blink5mojom5blink54FileSystemManager_ReadDirectorySync_HandleSyncResponseE, i64 0, inrange i32 0, i64 2) to i32 (...)**), i32 (...)*** %38, align 8
  %39 = getelementptr inbounds i8, i8* %37, i64 8
  %40 = bitcast i8* %39 to i8**
  store i8* %7, i8** %40, align 8
  %41 = getelementptr inbounds i8, i8* %37, i64 16
  %42 = bitcast i8* %41 to %"class.WTF::Vector"**
  store %"class.WTF::Vector"* %2, %"class.WTF::Vector"** %42, align 8
  %43 = getelementptr inbounds i8, i8* %37, i64 24
  %44 = bitcast i8* %43 to i32**
  store i32* %3, i32** %44, align 8
  %45 = bitcast i8* %37 to %"class.mojo::MessageReceiver"*
  %46 = getelementptr inbounds %"class.blink::mojom::blink::FileSystemManagerProxy", %"class.blink::mojom::blink::FileSystemManagerProxy"* %0, i64 0, i32 1
  %47 = load %"class.mojo::MessageReceiverWithResponder"*, %"class.mojo::MessageReceiverWithResponder"** %46, align 8
  %48 = bitcast %"class.mojo::MessageReceiverWithResponder"* %47 to i1 (%"class.mojo::MessageReceiverWithResponder"*, %"class.mojo::Message"*, %"class.mojo::MessageReceiver"*)***
  %49 = load i1 (%"class.mojo::MessageReceiverWithResponder"*, %"class.mojo::Message"*, %"class.mojo::MessageReceiver"*)**, i1 (%"class.mojo::MessageReceiverWithResponder"*, %"class.mojo::Message"*, %"class.mojo::MessageReceiver"*)*** %48, align 8
  %50 = getelementptr inbounds i1 (%"class.mojo::MessageReceiverWithResponder"*, %"class.mojo::Message"*, %"class.mojo::MessageReceiver"*)*, i1 (%"class.mojo::MessageReceiverWithResponder"*, %"class.mojo::Message"*, %"class.mojo::MessageReceiver"*)** %49, i64 4
  %51 = load i1 (%"class.mojo::MessageReceiverWithResponder"*, %"class.mojo::Message"*, %"class.mojo::MessageReceiver"*)*, i1 (%"class.mojo::MessageReceiverWithResponder"*, %"class.mojo::Message"*, %"class.mojo::MessageReceiver"*)** %50, align 8
  %52 = call zeroext i1 %51(%"class.mojo::MessageReceiverWithResponder"* %47, %"class.mojo::Message"* nonnull %5, %"class.mojo::MessageReceiver"* nonnull %45) #12
  %53 = load i8, i8* %7, align 1, !range !3
  %54 = icmp ne i8 %53, 0
  call void @llvm.lifetime.end.p0i8(i64 1, i8* nonnull %7) #12
  call void @llvm.lifetime.end.p0i8(i64 16, i8* nonnull %15) #12
  call void @_ZN4mojo7MessageD1Ev(%"class.mojo::Message"* nonnull %5) #12
  call void @llvm.lifetime.end.p0i8(i64 120, i8* nonnull %8) #12
  ret i1 %54
}

; Function Attrs: nounwind ssp uwtable
define hidden void @_ZN5blink5mojom5blink22FileSystemManagerProxy17ReadDirectorySyncERKNS_4KURLEN4base12OnceCallbackIFvN3WTF6VectorIN4mojo9StructPtrIN10filesystem5mojom5blink14DirectoryEntryEEELj0ENS8_18PartitionAllocatorEEENS6_4File5ErrorEEEE(%"class.blink::mojom::blink::FileSystemManagerProxy"* nocapture readonly, %"class.blink::KURL"* dereferenceable(112), %"class.base::OnceCallback.88"* nocapture) unnamed_addr #0 align 2 {
  %4 = alloca %"class.mojo::Message", align 8
  %5 = alloca %"class.mojo::internal::MessageFragment.75", align 8
  %6 = alloca %"class.base::OnceCallback.88", align 8
  %7 = bitcast %"class.mojo::Message"* %4 to i8*
  call void @llvm.lifetime.start.p0i8(i64 120, i8* nonnull %7) #12
  call void @llvm.memset.p0i8.i64(i8* nonnull align 8 %7, i8 -86, i64 120, i1 false)
  call void @_ZN4mojo7MessageC1EjjmmPNSt3__16vectorINS_16ScopedHandleBaseINS_6HandleEEENS1_9allocatorIS5_EEEE(%"class.mojo::Message"* nonnull %4, i32 9, i32 1, i64 0, i64 0, %"class.std::__1::vector"* null) #12
  %8 = getelementptr inbounds %"class.mojo::Message", %"class.mojo::Message"* %4, i64 0, i32 1
  %9 = call i64 @_ZN4mojo8internal6Buffer8AllocateEm(%"class.mojo::internal::Buffer"* %8, i64 16) #12
  %10 = getelementptr inbounds %"class.mojo::Message", %"class.mojo::Message"* %4, i64 0, i32 1, i32 2
  %11 = load i8*, i8** %10, align 8
  %12 = getelementptr inbounds i8, i8* %11, i64 %9
  %13 = bitcast i8* %12 to %"class.blink::mojom::internal::FileSystemManager_ReadDirectorySync_Params_Data"*
  call void @_ZN5blink5mojom8internal47FileSystemManager_ReadDirectorySync_Params_DataC1Ev(%"class.blink::mojom::internal::FileSystemManager_ReadDirectorySync_Params_Data"* %13) #12
  %14 = bitcast %"class.mojo::internal::MessageFragment.75"* %5 to i8*
  call void @llvm.lifetime.start.p0i8(i64 16, i8* nonnull %14) #12
  %15 = getelementptr inbounds %"class.mojo::internal::MessageFragment.75", %"class.mojo::internal::MessageFragment.75"* %5, i64 0, i32 0
  %16 = getelementptr inbounds %"class.mojo::internal::MessageFragment.75", %"class.mojo::internal::MessageFragment.75"* %5, i64 0, i32 1
  store %"class.mojo::Message"* %4, %"class.mojo::Message"** %15, align 8
  store i64 -1, i64* %16, align 8
  call void @_ZN4mojo8internal10SerializerIN3url5mojom11UrlDataViewEKN5blink4KURLEE9SerializeERS7_RNS0_15MessageFragmentINS3_8internal8Url_DataEEE(%"class.blink::KURL"* dereferenceable(112) %1, %"class.mojo::internal::MessageFragment.75"* nonnull dereferenceable(16) %5) #12
  %17 = load i8*, i8** %10, align 8
  %18 = getelementptr inbounds i8, i8* %17, i64 %9
  %19 = getelementptr inbounds i8, i8* %18, i64 8
  %20 = load i64, i64* %16, align 8
  %21 = icmp eq i64 %20, -1
  br i1 %21, label %28, label %22

22:                                               ; preds = %3
  %23 = load %"class.mojo::Message"*, %"class.mojo::Message"** %15, align 8
  %24 = getelementptr inbounds %"class.mojo::Message", %"class.mojo::Message"* %23, i64 0, i32 1, i32 2
  %25 = load i8*, i8** %24, align 8
  %26 = getelementptr inbounds i8, i8* %25, i64 %20
  %27 = bitcast i8* %26 to %"class.url::mojom::internal::Url_Data"*
  br label %28

28:                                               ; preds = %22, %3
  %29 = phi %"class.url::mojom::internal::Url_Data"* [ %27, %22 ], [ null, %3 ]
  %30 = bitcast i8* %19 to i64*
  %31 = icmp eq %"class.url::mojom::internal::Url_Data"* %29, null
  %32 = ptrtoint %"class.url::mojom::internal::Url_Data"* %29 to i64
  %33 = ptrtoint i8* %19 to i64
  %34 = sub i64 %32, %33
  %35 = select i1 %31, i64 0, i64 %34
  store i64 %35, i64* %30, align 8
  %36 = call i8* @_Znwm(i64 16) #13
  %37 = getelementptr inbounds %"class.base::OnceCallback.88", %"class.base::OnceCallback.88"* %2, i64 0, i32 0, i32 0, i32 0
  %38 = bitcast %"class.base::OnceCallback.88"* %2 to i64*
  %39 = load i64, i64* %38, align 8
  store %"class.base::internal::BindStateBase"* null, %"class.base::internal::BindStateBase"** %37, align 8
  %40 = bitcast i8* %36 to i32 (...)***
  store i32 (...)** bitcast (i8** getelementptr inbounds ({ [6 x i8*] }, { [6 x i8*] }* @_ZTVN5blink5mojom5blink53FileSystemManager_ReadDirectorySync_ForwardToCallbackE, i64 0, inrange i32 0, i64 2) to i32 (...)**), i32 (...)*** %40, align 8
  %41 = getelementptr inbounds i8, i8* %36, i64 8
  %42 = getelementptr inbounds %"class.base::OnceCallback.88", %"class.base::OnceCallback.88"* %6, i64 0, i32 0, i32 0, i32 0
  %43 = bitcast i8* %41 to i64*
  store i64 %39, i64* %43, align 8
  store %"class.base::internal::BindStateBase"* null, %"class.base::internal::BindStateBase"** %42, align 8
  %44 = bitcast i8* %36 to %"class.mojo::MessageReceiver"*
  %45 = getelementptr inbounds %"class.base::OnceCallback.88", %"class.base::OnceCallback.88"* %6, i64 0, i32 0
  call void @_ZN4base8internal12CallbackBaseD2Ev(%"class.base::internal::CallbackBase"* nonnull %45) #12
  %46 = getelementptr inbounds %"class.blink::mojom::blink::FileSystemManagerProxy", %"class.blink::mojom::blink::FileSystemManagerProxy"* %0, i64 0, i32 1
  %47 = load %"class.mojo::MessageReceiverWithResponder"*, %"class.mojo::MessageReceiverWithResponder"** %46, align 8
  %48 = bitcast %"class.mojo::MessageReceiverWithResponder"* %47 to i1 (%"class.mojo::MessageReceiverWithResponder"*, %"class.mojo::Message"*, %"class.mojo::MessageReceiver"*)***
  %49 = load i1 (%"class.mojo::MessageReceiverWithResponder"*, %"class.mojo::Message"*, %"class.mojo::MessageReceiver"*)**, i1 (%"class.mojo::MessageReceiverWithResponder"*, %"class.mojo::Message"*, %"class.mojo::MessageReceiver"*)*** %48, align 8
  %50 = getelementptr inbounds i1 (%"class.mojo::MessageReceiverWithResponder"*, %"class.mojo::Message"*, %"class.mojo::MessageReceiver"*)*, i1 (%"class.mojo::MessageReceiverWithResponder"*, %"class.mojo::Message"*, %"class.mojo::MessageReceiver"*)** %49, i64 4
  %51 = load i1 (%"class.mojo::MessageReceiverWithResponder"*, %"class.mojo::Message"*, %"class.mojo::MessageReceiver"*)*, i1 (%"class.mojo::MessageReceiverWithResponder"*, %"class.mojo::Message"*, %"class.mojo::MessageReceiver"*)** %50, align 8
  %52 = call zeroext i1 %51(%"class.mojo::MessageReceiverWithResponder"* %47, %"class.mojo::Message"* nonnull %4, %"class.mojo::MessageReceiver"* nonnull %44) #12
  call void @llvm.lifetime.end.p0i8(i64 16, i8* nonnull %14) #12
  call void @_ZN4mojo7MessageD1Ev(%"class.mojo::Message"* nonnull %4) #12
  call void @llvm.lifetime.end.p0i8(i64 120, i8* nonnull %7) #12
  ret void
}

; Function Attrs: nounwind ssp uwtable
define hidden void @_ZN5blink5mojom5blink22FileSystemManagerProxy5WriteERKNS_4KURLERKN3WTF6StringElN4mojo15PendingReceiverINS1_30FileSystemCancellableOperationEEENSA_13PendingRemoteINS1_27FileSystemOperationListenerEEE(%"class.blink::mojom::blink::FileSystemManagerProxy"* nocapture readonly, %"class.blink::KURL"* dereferenceable(112), %"class.WTF::String"* dereferenceable(8), i64, %"class.mojo::PendingReceiver"* nocapture, %"class.mojo::PendingRemote.85"* nocapture) unnamed_addr #0 align 2 {
  %7 = alloca %"class.WTF::StringUTF8Adaptor", align 8
  %8 = alloca %"class.mojo::ScopedHandleBase.10", align 4
  %9 = alloca %"class.mojo::ScopedHandleBase.67", align 4
  %10 = alloca %"class.mojo::Message", align 8
  %11 = alloca %"class.mojo::internal::MessageFragment.75", align 8
  %12 = bitcast %"class.mojo::Message"* %10 to i8*
  call void @llvm.lifetime.start.p0i8(i64 120, i8* nonnull %12) #12
  call void @llvm.memset.p0i8.i64(i8* nonnull align 8 %12, i8 -86, i64 120, i1 false)
  call void @_ZN4mojo7MessageC1EjjmmPNSt3__16vectorINS_16ScopedHandleBaseINS_6HandleEEENS1_9allocatorIS5_EEEE(%"class.mojo::Message"* nonnull %10, i32 10, i32 0, i64 0, i64 0, %"class.std::__1::vector"* null) #12
  %13 = getelementptr inbounds %"class.mojo::Message", %"class.mojo::Message"* %10, i64 0, i32 1
  %14 = call i64 @_ZN4mojo8internal6Buffer8AllocateEm(%"class.mojo::internal::Buffer"* %13, i64 48) #12
  %15 = getelementptr inbounds %"class.mojo::Message", %"class.mojo::Message"* %10, i64 0, i32 1, i32 2
  %16 = load i8*, i8** %15, align 8
  %17 = getelementptr inbounds i8, i8* %16, i64 %14
  %18 = bitcast i8* %17 to %"class.blink::mojom::internal::FileSystemManager_Write_Params_Data"*
  call void @_ZN5blink5mojom8internal35FileSystemManager_Write_Params_DataC1Ev(%"class.blink::mojom::internal::FileSystemManager_Write_Params_Data"* %18) #12
  %19 = bitcast %"class.mojo::internal::MessageFragment.75"* %11 to i8*
  call void @llvm.lifetime.start.p0i8(i64 16, i8* nonnull %19) #12
  %20 = getelementptr inbounds %"class.mojo::internal::MessageFragment.75", %"class.mojo::internal::MessageFragment.75"* %11, i64 0, i32 0
  %21 = getelementptr inbounds %"class.mojo::internal::MessageFragment.75", %"class.mojo::internal::MessageFragment.75"* %11, i64 0, i32 1
  store %"class.mojo::Message"* %10, %"class.mojo::Message"** %20, align 8
  store i64 -1, i64* %21, align 8
  call void @_ZN4mojo8internal10SerializerIN3url5mojom11UrlDataViewEKN5blink4KURLEE9SerializeERS7_RNS0_15MessageFragmentINS3_8internal8Url_DataEEE(%"class.blink::KURL"* dereferenceable(112) %1, %"class.mojo::internal::MessageFragment.75"* nonnull dereferenceable(16) %11) #12
  %22 = load i8*, i8** %15, align 8
  %23 = getelementptr inbounds i8, i8* %22, i64 %14
  %24 = getelementptr inbounds i8, i8* %23, i64 8
  %25 = load i64, i64* %21, align 8
  %26 = icmp eq i64 %25, -1
  br i1 %26, label %33, label %27

27:                                               ; preds = %6
  %28 = load %"class.mojo::Message"*, %"class.mojo::Message"** %20, align 8
  %29 = getelementptr inbounds %"class.mojo::Message", %"class.mojo::Message"* %28, i64 0, i32 1, i32 2
  %30 = load i8*, i8** %29, align 8
  %31 = getelementptr inbounds i8, i8* %30, i64 %25
  %32 = bitcast i8* %31 to %"class.url::mojom::internal::Url_Data"*
  br label %33

33:                                               ; preds = %6, %27
  %34 = phi %"class.url::mojom::internal::Url_Data"* [ %32, %27 ], [ null, %6 ]
  %35 = bitcast i8* %24 to i64*
  %36 = icmp eq %"class.url::mojom::internal::Url_Data"* %34, null
  %37 = ptrtoint %"class.url::mojom::internal::Url_Data"* %34 to i64
  %38 = ptrtoint i8* %24 to i64
  %39 = sub i64 %37, %38
  %40 = select i1 %36, i64 0, i64 %39
  store i64 %40, i64* %35, align 8
  %41 = getelementptr inbounds %"class.WTF::String", %"class.WTF::String"* %2, i64 0, i32 0, i32 0
  %42 = load %"class.WTF::StringImpl"*, %"class.WTF::StringImpl"** %41, align 8
  %43 = icmp eq %"class.WTF::StringImpl"* %42, null
  br i1 %43, label %44, label %49

44:                                               ; preds = %33
  %45 = load i8*, i8** %15, align 8
  %46 = getelementptr inbounds i8, i8* %45, i64 %14
  %47 = getelementptr inbounds i8, i8* %46, i64 16
  %48 = bitcast i8* %47 to %"struct.mojo::internal::Pointer.71"*
  br label %81

49:                                               ; preds = %33
  %50 = bitcast %"class.WTF::StringUTF8Adaptor"* %7 to i8*
  call void @llvm.lifetime.start.p0i8(i64 40, i8* nonnull %50) #12
  call void @llvm.memset.p0i8.i64(i8* nonnull align 8 %50, i8 -86, i64 40, i1 false) #12
  call void @_ZN4mojo12StringTraitsIN3WTF6StringEE7GetUTF8ERKS2_(%"class.WTF::StringUTF8Adaptor"* nonnull sret %7, %"class.WTF::String"* dereferenceable(8) %2) #12
  %51 = getelementptr inbounds %"class.WTF::StringUTF8Adaptor", %"class.WTF::StringUTF8Adaptor"* %7, i64 0, i32 2
  %52 = load i32, i32* %51, align 8
  %53 = icmp ugt i32 %52, -9
  br i1 %53, label %64, label %54

54:                                               ; preds = %49
  %55 = add nuw i32 %52, 8
  %56 = zext i32 %55 to i64
  %57 = call i64 @_ZN4mojo8internal6Buffer8AllocateEm(%"class.mojo::internal::Buffer"* %13, i64 %56) #12
  %58 = load i8*, i8** %15, align 8
  %59 = getelementptr inbounds i8, i8* %58, i64 %57
  %60 = bitcast i8* %59 to i32*
  store i32 %55, i32* %60, align 1
  %61 = getelementptr inbounds i8, i8* %59, i64 4
  %62 = bitcast i8* %61 to i32*
  store i32 %52, i32* %62, align 1
  %63 = load i32, i32* %51, align 8
  br label %64

64:                                               ; preds = %49, %54
  %65 = phi i64 [ -1, %49 ], [ %57, %54 ]
  %66 = phi i32 [ %52, %49 ], [ %63, %54 ]
  %67 = load i8*, i8** %15, align 8
  %68 = getelementptr inbounds i8, i8* %67, i64 %65
  %69 = getelementptr inbounds i8, i8* %68, i64 8
  %70 = getelementptr inbounds %"class.WTF::StringUTF8Adaptor", %"class.WTF::StringUTF8Adaptor"* %7, i64 0, i32 1
  %71 = load i8*, i8** %70, align 8
  %72 = zext i32 %66 to i64
  call void @llvm.memcpy.p0i8.p0i8.i64(i8* align 1 %69, i8* align 1 %71, i64 %72, i1 false) #12
  call void @_ZN3WTF17StringUTF8AdaptorD1Ev(%"class.WTF::StringUTF8Adaptor"* nonnull %7) #12
  call void @llvm.lifetime.end.p0i8(i64 40, i8* nonnull %50) #12
  %73 = load i8*, i8** %15, align 8
  %74 = getelementptr inbounds i8, i8* %73, i64 %14
  %75 = getelementptr inbounds i8, i8* %74, i64 16
  %76 = bitcast i8* %75 to %"struct.mojo::internal::Pointer.71"*
  %77 = icmp eq i64 %65, -1
  br i1 %77, label %81, label %78

78:                                               ; preds = %64
  %79 = getelementptr inbounds i8, i8* %73, i64 %65
  %80 = bitcast i8* %79 to %"class.mojo::internal::Array_Data.91"*
  br label %81

81:                                               ; preds = %44, %64, %78
  %82 = phi %"struct.mojo::internal::Pointer.71"* [ %76, %78 ], [ %76, %64 ], [ %48, %44 ]
  %83 = phi %"class.mojo::internal::Array_Data.91"* [ %80, %78 ], [ null, %64 ], [ null, %44 ]
  %84 = getelementptr inbounds %"struct.mojo::internal::Pointer.71", %"struct.mojo::internal::Pointer.71"* %82, i64 0, i32 0
  %85 = icmp eq %"class.mojo::internal::Array_Data.91"* %83, null
  %86 = ptrtoint %"class.mojo::internal::Array_Data.91"* %83 to i64
  %87 = ptrtoint %"struct.mojo::internal::Pointer.71"* %82 to i64
  %88 = sub i64 %86, %87
  %89 = select i1 %85, i64 0, i64 %88
  store i64 %89, i64* %84, align 8
  %90 = load i8*, i8** %15, align 8
  %91 = getelementptr inbounds i8, i8* %90, i64 %14
  %92 = getelementptr inbounds i8, i8* %91, i64 24
  %93 = bitcast i8* %92 to i64*
  store i64 %3, i64* %93, align 8
  %94 = load i8*, i8** %15, align 8
  %95 = getelementptr inbounds i8, i8* %94, i64 %14
  %96 = getelementptr inbounds i8, i8* %95, i64 32
  %97 = bitcast i8* %96 to %"struct.mojo::internal::Handle_Data"*
  %98 = bitcast %"class.mojo::ScopedHandleBase.10"* %8 to i8*
  call void @llvm.lifetime.start.p0i8(i64 4, i8* nonnull %98) #12
  %99 = getelementptr inbounds %"class.mojo::PendingReceiver", %"class.mojo::PendingReceiver"* %4, i64 0, i32 0, i32 0, i32 0, i32 0, i32 0
  %100 = load i32, i32* %99, align 4, !noalias !19
  store i32 0, i32* %99, align 4, !noalias !19
  %101 = getelementptr inbounds %"class.mojo::ScopedHandleBase.10", %"class.mojo::ScopedHandleBase.10"* %8, i64 0, i32 0, i32 0
  store i32 %100, i32* %101, align 4, !alias.scope !24
  call void @_ZN4mojo8internal15SerializeHandleENS_16ScopedHandleBaseINS_6HandleEEERNS_7MessageERNS0_11Handle_DataE(%"class.mojo::ScopedHandleBase.10"* nonnull %8, %"class.mojo::Message"* nonnull dereferenceable(120) %10, %"struct.mojo::internal::Handle_Data"* dereferenceable(4) %97) #12
  %102 = load i32, i32* %101, align 4
  %103 = icmp eq i32 %102, 0
  br i1 %103, label %106, label %104

104:                                              ; preds = %81
  %105 = call i32 @MojoClose(i32 %102) #12
  br label %106

106:                                              ; preds = %81, %104
  call void @llvm.lifetime.end.p0i8(i64 4, i8* nonnull %98) #12
  %107 = load i8*, i8** %15, align 8
  %108 = getelementptr inbounds i8, i8* %107, i64 %14
  %109 = getelementptr inbounds i8, i8* %108, i64 36
  %110 = bitcast i8* %109 to %"struct.mojo::internal::Interface_Data"*
  %111 = bitcast %"class.mojo::ScopedHandleBase.67"* %9 to i8*
  call void @llvm.lifetime.start.p0i8(i64 4, i8* nonnull %111) #12
  %112 = getelementptr inbounds %"class.mojo::PendingRemote.85", %"class.mojo::PendingRemote.85"* %5, i64 0, i32 0, i32 1
  %113 = load i32, i32* %112, align 4
  store i32 0, i32* %112, align 4, !noalias !27
  %114 = getelementptr inbounds %"class.mojo::ScopedHandleBase.67", %"class.mojo::ScopedHandleBase.67"* %9, i64 0, i32 0, i32 0, i32 0
  %115 = getelementptr inbounds %"class.mojo::PendingRemote.85", %"class.mojo::PendingRemote.85"* %5, i64 0, i32 0, i32 0, i32 0, i32 0, i32 0
  %116 = load i32, i32* %115, align 4, !noalias !30
  store i32 %116, i32* %114, align 4, !alias.scope !30
  store i32 0, i32* %115, align 4, !noalias !30
  call void @_ZN4mojo8internal22SerializeInterfaceInfoENS_16ScopedHandleBaseINS_17MessagePipeHandleEEEjRNS_7MessageERNS0_14Interface_DataE(%"class.mojo::ScopedHandleBase.67"* nonnull %9, i32 %113, %"class.mojo::Message"* nonnull dereferenceable(120) %10, %"struct.mojo::internal::Interface_Data"* dereferenceable(8) %110) #12
  %117 = load i32, i32* %114, align 4
  %118 = icmp eq i32 %117, 0
  br i1 %118, label %121, label %119

119:                                              ; preds = %106
  %120 = call i32 @MojoClose(i32 %117) #12
  br label %121

121:                                              ; preds = %106, %119
  call void @llvm.lifetime.end.p0i8(i64 4, i8* nonnull %111) #12
  %122 = getelementptr inbounds %"class.blink::mojom::blink::FileSystemManagerProxy", %"class.blink::mojom::blink::FileSystemManagerProxy"* %0, i64 0, i32 1
  %123 = bitcast %"class.mojo::MessageReceiverWithResponder"** %122 to %"class.mojo::MessageReceiver"**
  %124 = load %"class.mojo::MessageReceiver"*, %"class.mojo::MessageReceiver"** %123, align 8
  %125 = bitcast %"class.mojo::MessageReceiver"* %124 to i1 (%"class.mojo::MessageReceiver"*, %"class.mojo::Message"*)***
  %126 = load i1 (%"class.mojo::MessageReceiver"*, %"class.mojo::Message"*)**, i1 (%"class.mojo::MessageReceiver"*, %"class.mojo::Message"*)*** %125, align 8
  %127 = getelementptr inbounds i1 (%"class.mojo::MessageReceiver"*, %"class.mojo::Message"*)*, i1 (%"class.mojo::MessageReceiver"*, %"class.mojo::Message"*)** %126, i64 3
  %128 = load i1 (%"class.mojo::MessageReceiver"*, %"class.mojo::Message"*)*, i1 (%"class.mojo::MessageReceiver"*, %"class.mojo::Message"*)** %127, align 8
  %129 = call zeroext i1 %128(%"class.mojo::MessageReceiver"* %124, %"class.mojo::Message"* nonnull %10) #12
  call void @llvm.lifetime.end.p0i8(i64 16, i8* nonnull %19) #12
  call void @_ZN4mojo7MessageD1Ev(%"class.mojo::Message"* nonnull %10) #12
  call void @llvm.lifetime.end.p0i8(i64 120, i8* nonnull %12) #12
  ret void
}

; Function Attrs: nounwind ssp uwtable
define hidden zeroext i1 @_ZN5blink5mojom5blink22FileSystemManagerProxy9WriteSyncERKNS_4KURLERKN3WTF6StringElPlPN4base4File5ErrorE(%"class.blink::mojom::blink::FileSystemManagerProxy"* nocapture readonly, %"class.blink::KURL"* dereferenceable(112), %"class.WTF::String"* dereferenceable(8), i64, i64*, i32*) unnamed_addr #0 align 2 {
  %7 = alloca %"class.WTF::StringUTF8Adaptor", align 8
  %8 = alloca %"class.mojo::Message", align 8
  %9 = alloca %"class.mojo::internal::MessageFragment.75", align 8
  %10 = alloca i8, align 1
  %11 = bitcast %"class.mojo::Message"* %8 to i8*
  call void @llvm.lifetime.start.p0i8(i64 120, i8* nonnull %11) #12
  call void @llvm.memset.p0i8.i64(i8* nonnull align 8 %11, i8 -86, i64 120, i1 false)
  call void @_ZN4mojo7MessageC1EjjmmPNSt3__16vectorINS_16ScopedHandleBaseINS_6HandleEEENS1_9allocatorIS5_EEEE(%"class.mojo::Message"* nonnull %8, i32 11, i32 5, i64 0, i64 0, %"class.std::__1::vector"* null) #12
  %12 = getelementptr inbounds %"class.mojo::Message", %"class.mojo::Message"* %8, i64 0, i32 1
  %13 = call i64 @_ZN4mojo8internal6Buffer8AllocateEm(%"class.mojo::internal::Buffer"* %12, i64 32) #12
  %14 = getelementptr inbounds %"class.mojo::Message", %"class.mojo::Message"* %8, i64 0, i32 1, i32 2
  %15 = load i8*, i8** %14, align 8
  %16 = getelementptr inbounds i8, i8* %15, i64 %13
  %17 = bitcast i8* %16 to %"class.blink::mojom::internal::FileSystemManager_WriteSync_Params_Data"*
  call void @_ZN5blink5mojom8internal39FileSystemManager_WriteSync_Params_DataC1Ev(%"class.blink::mojom::internal::FileSystemManager_WriteSync_Params_Data"* %17) #12
  %18 = bitcast %"class.mojo::internal::MessageFragment.75"* %9 to i8*
  call void @llvm.lifetime.start.p0i8(i64 16, i8* nonnull %18) #12
  %19 = getelementptr inbounds %"class.mojo::internal::MessageFragment.75", %"class.mojo::internal::MessageFragment.75"* %9, i64 0, i32 0
  %20 = getelementptr inbounds %"class.mojo::internal::MessageFragment.75", %"class.mojo::internal::MessageFragment.75"* %9, i64 0, i32 1
  store %"class.mojo::Message"* %8, %"class.mojo::Message"** %19, align 8
  store i64 -1, i64* %20, align 8
  call void @_ZN4mojo8internal10SerializerIN3url5mojom11UrlDataViewEKN5blink4KURLEE9SerializeERS7_RNS0_15MessageFragmentINS3_8internal8Url_DataEEE(%"class.blink::KURL"* dereferenceable(112) %1, %"class.mojo::internal::MessageFragment.75"* nonnull dereferenceable(16) %9) #12
  %21 = load i8*, i8** %14, align 8
  %22 = getelementptr inbounds i8, i8* %21, i64 %13
  %23 = getelementptr inbounds i8, i8* %22, i64 8
  %24 = load i64, i64* %20, align 8
  %25 = icmp eq i64 %24, -1
  br i1 %25, label %32, label %26

26:                                               ; preds = %6
  %27 = load %"class.mojo::Message"*, %"class.mojo::Message"** %19, align 8
  %28 = getelementptr inbounds %"class.mojo::Message", %"class.mojo::Message"* %27, i64 0, i32 1, i32 2
  %29 = load i8*, i8** %28, align 8
  %30 = getelementptr inbounds i8, i8* %29, i64 %24
  %31 = bitcast i8* %30 to %"class.url::mojom::internal::Url_Data"*
  br label %32

32:                                               ; preds = %6, %26
  %33 = phi %"class.url::mojom::internal::Url_Data"* [ %31, %26 ], [ null, %6 ]
  %34 = bitcast i8* %23 to i64*
  %35 = icmp eq %"class.url::mojom::internal::Url_Data"* %33, null
  %36 = ptrtoint %"class.url::mojom::internal::Url_Data"* %33 to i64
  %37 = ptrtoint i8* %23 to i64
  %38 = sub i64 %36, %37
  %39 = select i1 %35, i64 0, i64 %38
  store i64 %39, i64* %34, align 8
  %40 = getelementptr inbounds %"class.WTF::String", %"class.WTF::String"* %2, i64 0, i32 0, i32 0
  %41 = load %"class.WTF::StringImpl"*, %"class.WTF::StringImpl"** %40, align 8
  %42 = icmp eq %"class.WTF::StringImpl"* %41, null
  br i1 %42, label %43, label %48

43:                                               ; preds = %32
  %44 = load i8*, i8** %14, align 8
  %45 = getelementptr inbounds i8, i8* %44, i64 %13
  %46 = getelementptr inbounds i8, i8* %45, i64 16
  %47 = bitcast i8* %46 to %"struct.mojo::internal::Pointer.71"*
  br label %80

48:                                               ; preds = %32
  %49 = bitcast %"class.WTF::StringUTF8Adaptor"* %7 to i8*
  call void @llvm.lifetime.start.p0i8(i64 40, i8* nonnull %49) #12
  call void @llvm.memset.p0i8.i64(i8* nonnull align 8 %49, i8 -86, i64 40, i1 false) #12
  call void @_ZN4mojo12StringTraitsIN3WTF6StringEE7GetUTF8ERKS2_(%"class.WTF::StringUTF8Adaptor"* nonnull sret %7, %"class.WTF::String"* dereferenceable(8) %2) #12
  %50 = getelementptr inbounds %"class.WTF::StringUTF8Adaptor", %"class.WTF::StringUTF8Adaptor"* %7, i64 0, i32 2
  %51 = load i32, i32* %50, align 8
  %52 = icmp ugt i32 %51, -9
  br i1 %52, label %63, label %53

53:                                               ; preds = %48
  %54 = add nuw i32 %51, 8
  %55 = zext i32 %54 to i64
  %56 = call i64 @_ZN4mojo8internal6Buffer8AllocateEm(%"class.mojo::internal::Buffer"* %12, i64 %55) #12
  %57 = load i8*, i8** %14, align 8
  %58 = getelementptr inbounds i8, i8* %57, i64 %56
  %59 = bitcast i8* %58 to i32*
  store i32 %54, i32* %59, align 1
  %60 = getelementptr inbounds i8, i8* %58, i64 4
  %61 = bitcast i8* %60 to i32*
  store i32 %51, i32* %61, align 1
  %62 = load i32, i32* %50, align 8
  br label %63

63:                                               ; preds = %48, %53
  %64 = phi i64 [ -1, %48 ], [ %56, %53 ]
  %65 = phi i32 [ %51, %48 ], [ %62, %53 ]
  %66 = load i8*, i8** %14, align 8
  %67 = getelementptr inbounds i8, i8* %66, i64 %64
  %68 = getelementptr inbounds i8, i8* %67, i64 8
  %69 = getelementptr inbounds %"class.WTF::StringUTF8Adaptor", %"class.WTF::StringUTF8Adaptor"* %7, i64 0, i32 1
  %70 = load i8*, i8** %69, align 8
  %71 = zext i32 %65 to i64
  call void @llvm.memcpy.p0i8.p0i8.i64(i8* align 1 %68, i8* align 1 %70, i64 %71, i1 false) #12
  call void @_ZN3WTF17StringUTF8AdaptorD1Ev(%"class.WTF::StringUTF8Adaptor"* nonnull %7) #12
  call void @llvm.lifetime.end.p0i8(i64 40, i8* nonnull %49) #12
  %72 = load i8*, i8** %14, align 8
  %73 = getelementptr inbounds i8, i8* %72, i64 %13
  %74 = getelementptr inbounds i8, i8* %73, i64 16
  %75 = bitcast i8* %74 to %"struct.mojo::internal::Pointer.71"*
  %76 = icmp eq i64 %64, -1
  br i1 %76, label %80, label %77

77:                                               ; preds = %63
  %78 = getelementptr inbounds i8, i8* %72, i64 %64
  %79 = bitcast i8* %78 to %"class.mojo::internal::Array_Data.91"*
  br label %80

80:                                               ; preds = %77, %63, %43
  %81 = phi %"struct.mojo::internal::Pointer.71"* [ %75, %77 ], [ %75, %63 ], [ %47, %43 ]
  %82 = phi %"class.mojo::internal::Array_Data.91"* [ %79, %77 ], [ null, %63 ], [ null, %43 ]
  %83 = getelementptr inbounds %"struct.mojo::internal::Pointer.71", %"struct.mojo::internal::Pointer.71"* %81, i64 0, i32 0
  %84 = icmp eq %"class.mojo::internal::Array_Data.91"* %82, null
  %85 = ptrtoint %"class.mojo::internal::Array_Data.91"* %82 to i64
  %86 = ptrtoint %"struct.mojo::internal::Pointer.71"* %81 to i64
  %87 = sub i64 %85, %86
  %88 = select i1 %84, i64 0, i64 %87
  store i64 %88, i64* %83, align 8
  %89 = load i8*, i8** %14, align 8
  %90 = getelementptr inbounds i8, i8* %89, i64 %13
  %91 = getelementptr inbounds i8, i8* %90, i64 24
  %92 = bitcast i8* %91 to i64*
  store i64 %3, i64* %92, align 8
  call void @llvm.lifetime.start.p0i8(i64 1, i8* nonnull %10) #12
  store i8 0, i8* %10, align 1
  %93 = call i8* @_Znwm(i64 32) #13
  %94 = bitcast i8* %93 to i32 (...)***
  store i32 (...)** bitcast (i8** getelementptr inbounds ({ [6 x i8*] }, { [6 x i8*] }* @_ZTVN5blink5mojom5blink46FileSystemManager_WriteSync_HandleSyncResponseE, i64 0, inrange i32 0, i64 2) to i32 (...)**), i32 (...)*** %94, align 8
  %95 = getelementptr inbounds i8, i8* %93, i64 8
  %96 = bitcast i8* %95 to i8**
  store i8* %10, i8** %96, align 8
  %97 = getelementptr inbounds i8, i8* %93, i64 16
  %98 = bitcast i8* %97 to i64**
  store i64* %4, i64** %98, align 8
  %99 = getelementptr inbounds i8, i8* %93, i64 24
  %100 = bitcast i8* %99 to i32**
  store i32* %5, i32** %100, align 8
  %101 = bitcast i8* %93 to %"class.mojo::MessageReceiver"*
  %102 = getelementptr inbounds %"class.blink::mojom::blink::FileSystemManagerProxy", %"class.blink::mojom::blink::FileSystemManagerProxy"* %0, i64 0, i32 1
  %103 = load %"class.mojo::MessageReceiverWithResponder"*, %"class.mojo::MessageReceiverWithResponder"** %102, align 8
  %104 = bitcast %"class.mojo::MessageReceiverWithResponder"* %103 to i1 (%"class.mojo::MessageReceiverWithResponder"*, %"class.mojo::Message"*, %"class.mojo::MessageReceiver"*)***
  %105 = load i1 (%"class.mojo::MessageReceiverWithResponder"*, %"class.mojo::Message"*, %"class.mojo::MessageReceiver"*)**, i1 (%"class.mojo::MessageReceiverWithResponder"*, %"class.mojo::Message"*, %"class.mojo::MessageReceiver"*)*** %104, align 8
  %106 = getelementptr inbounds i1 (%"class.mojo::MessageReceiverWithResponder"*, %"class.mojo::Message"*, %"class.mojo::MessageReceiver"*)*, i1 (%"class.mojo::MessageReceiverWithResponder"*, %"class.mojo::Message"*, %"class.mojo::MessageReceiver"*)** %105, i64 4
  %107 = load i1 (%"class.mojo::MessageReceiverWithResponder"*, %"class.mojo::Message"*, %"class.mojo::MessageReceiver"*)*, i1 (%"class.mojo::MessageReceiverWithResponder"*, %"class.mojo::Message"*, %"class.mojo::MessageReceiver"*)** %106, align 8
  %108 = call zeroext i1 %107(%"class.mojo::MessageReceiverWithResponder"* %103, %"class.mojo::Message"* nonnull %8, %"class.mojo::MessageReceiver"* nonnull %101) #12
  %109 = load i8, i8* %10, align 1, !range !3
  %110 = icmp ne i8 %109, 0
  call void @llvm.lifetime.end.p0i8(i64 1, i8* nonnull %10) #12
  call void @llvm.lifetime.end.p0i8(i64 16, i8* nonnull %18) #12
  call void @_ZN4mojo7MessageD1Ev(%"class.mojo::Message"* nonnull %8) #12
  call void @llvm.lifetime.end.p0i8(i64 120, i8* nonnull %11) #12
  ret i1 %110
}

; Function Attrs: nounwind ssp uwtable
define hidden void @_ZN5blink5mojom5blink22FileSystemManagerProxy9WriteSyncERKNS_4KURLERKN3WTF6StringElN4base12OnceCallbackIFvlNSA_4File5ErrorEEEE(%"class.blink::mojom::blink::FileSystemManagerProxy"* nocapture readonly, %"class.blink::KURL"* dereferenceable(112), %"class.WTF::String"* dereferenceable(8), i64, %"class.base::OnceCallback.93"* nocapture) unnamed_addr #0 align 2 {
  %6 = alloca %"class.WTF::StringUTF8Adaptor", align 8
  %7 = alloca %"class.mojo::Message", align 8
  %8 = alloca %"class.mojo::internal::MessageFragment.75", align 8
  %9 = alloca %"class.base::OnceCallback.93", align 8
  %10 = bitcast %"class.mojo::Message"* %7 to i8*
  call void @llvm.lifetime.start.p0i8(i64 120, i8* nonnull %10) #12
  call void @llvm.memset.p0i8.i64(i8* nonnull align 8 %10, i8 -86, i64 120, i1 false)
  call void @_ZN4mojo7MessageC1EjjmmPNSt3__16vectorINS_16ScopedHandleBaseINS_6HandleEEENS1_9allocatorIS5_EEEE(%"class.mojo::Message"* nonnull %7, i32 11, i32 1, i64 0, i64 0, %"class.std::__1::vector"* null) #12
  %11 = getelementptr inbounds %"class.mojo::Message", %"class.mojo::Message"* %7, i64 0, i32 1
  %12 = call i64 @_ZN4mojo8internal6Buffer8AllocateEm(%"class.mojo::internal::Buffer"* %11, i64 32) #12
  %13 = getelementptr inbounds %"class.mojo::Message", %"class.mojo::Message"* %7, i64 0, i32 1, i32 2
  %14 = load i8*, i8** %13, align 8
  %15 = getelementptr inbounds i8, i8* %14, i64 %12
  %16 = bitcast i8* %15 to %"class.blink::mojom::internal::FileSystemManager_WriteSync_Params_Data"*
  call void @_ZN5blink5mojom8internal39FileSystemManager_WriteSync_Params_DataC1Ev(%"class.blink::mojom::internal::FileSystemManager_WriteSync_Params_Data"* %16) #12
  %17 = bitcast %"class.mojo::internal::MessageFragment.75"* %8 to i8*
  call void @llvm.lifetime.start.p0i8(i64 16, i8* nonnull %17) #12
  %18 = getelementptr inbounds %"class.mojo::internal::MessageFragment.75", %"class.mojo::internal::MessageFragment.75"* %8, i64 0, i32 0
  %19 = getelementptr inbounds %"class.mojo::internal::MessageFragment.75", %"class.mojo::internal::MessageFragment.75"* %8, i64 0, i32 1
  store %"class.mojo::Message"* %7, %"class.mojo::Message"** %18, align 8
  store i64 -1, i64* %19, align 8
  call void @_ZN4mojo8internal10SerializerIN3url5mojom11UrlDataViewEKN5blink4KURLEE9SerializeERS7_RNS0_15MessageFragmentINS3_8internal8Url_DataEEE(%"class.blink::KURL"* dereferenceable(112) %1, %"class.mojo::internal::MessageFragment.75"* nonnull dereferenceable(16) %8) #12
  %20 = load i8*, i8** %13, align 8
  %21 = getelementptr inbounds i8, i8* %20, i64 %12
  %22 = getelementptr inbounds i8, i8* %21, i64 8
  %23 = load i64, i64* %19, align 8
  %24 = icmp eq i64 %23, -1
  br i1 %24, label %31, label %25

25:                                               ; preds = %5
  %26 = load %"class.mojo::Message"*, %"class.mojo::Message"** %18, align 8
  %27 = getelementptr inbounds %"class.mojo::Message", %"class.mojo::Message"* %26, i64 0, i32 1, i32 2
  %28 = load i8*, i8** %27, align 8
  %29 = getelementptr inbounds i8, i8* %28, i64 %23
  %30 = bitcast i8* %29 to %"class.url::mojom::internal::Url_Data"*
  br label %31

31:                                               ; preds = %5, %25
  %32 = phi %"class.url::mojom::internal::Url_Data"* [ %30, %25 ], [ null, %5 ]
  %33 = bitcast i8* %22 to i64*
  %34 = icmp eq %"class.url::mojom::internal::Url_Data"* %32, null
  %35 = ptrtoint %"class.url::mojom::internal::Url_Data"* %32 to i64
  %36 = ptrtoint i8* %22 to i64
  %37 = sub i64 %35, %36
  %38 = select i1 %34, i64 0, i64 %37
  store i64 %38, i64* %33, align 8
  %39 = getelementptr inbounds %"class.WTF::String", %"class.WTF::String"* %2, i64 0, i32 0, i32 0
  %40 = load %"class.WTF::StringImpl"*, %"class.WTF::StringImpl"** %39, align 8
  %41 = icmp eq %"class.WTF::StringImpl"* %40, null
  br i1 %41, label %42, label %47

42:                                               ; preds = %31
  %43 = load i8*, i8** %13, align 8
  %44 = getelementptr inbounds i8, i8* %43, i64 %12
  %45 = getelementptr inbounds i8, i8* %44, i64 16
  %46 = bitcast i8* %45 to %"struct.mojo::internal::Pointer.71"*
  br label %79

47:                                               ; preds = %31
  %48 = bitcast %"class.WTF::StringUTF8Adaptor"* %6 to i8*
  call void @llvm.lifetime.start.p0i8(i64 40, i8* nonnull %48) #12
  call void @llvm.memset.p0i8.i64(i8* nonnull align 8 %48, i8 -86, i64 40, i1 false) #12
  call void @_ZN4mojo12StringTraitsIN3WTF6StringEE7GetUTF8ERKS2_(%"class.WTF::StringUTF8Adaptor"* nonnull sret %6, %"class.WTF::String"* dereferenceable(8) %2) #12
  %49 = getelementptr inbounds %"class.WTF::StringUTF8Adaptor", %"class.WTF::StringUTF8Adaptor"* %6, i64 0, i32 2
  %50 = load i32, i32* %49, align 8
  %51 = icmp ugt i32 %50, -9
  br i1 %51, label %62, label %52

52:                                               ; preds = %47
  %53 = add nuw i32 %50, 8
  %54 = zext i32 %53 to i64
  %55 = call i64 @_ZN4mojo8internal6Buffer8AllocateEm(%"class.mojo::internal::Buffer"* %11, i64 %54) #12
  %56 = load i8*, i8** %13, align 8
  %57 = getelementptr inbounds i8, i8* %56, i64 %55
  %58 = bitcast i8* %57 to i32*
  store i32 %53, i32* %58, align 1
  %59 = getelementptr inbounds i8, i8* %57, i64 4
  %60 = bitcast i8* %59 to i32*
  store i32 %50, i32* %60, align 1
  %61 = load i32, i32* %49, align 8
  br label %62

62:                                               ; preds = %47, %52
  %63 = phi i64 [ -1, %47 ], [ %55, %52 ]
  %64 = phi i32 [ %50, %47 ], [ %61, %52 ]
  %65 = load i8*, i8** %13, align 8
  %66 = getelementptr inbounds i8, i8* %65, i64 %63
  %67 = getelementptr inbounds i8, i8* %66, i64 8
  %68 = getelementptr inbounds %"class.WTF::StringUTF8Adaptor", %"class.WTF::StringUTF8Adaptor"* %6, i64 0, i32 1
  %69 = load i8*, i8** %68, align 8
  %70 = zext i32 %64 to i64
  call void @llvm.memcpy.p0i8.p0i8.i64(i8* align 1 %67, i8* align 1 %69, i64 %70, i1 false) #12
  call void @_ZN3WTF17StringUTF8AdaptorD1Ev(%"class.WTF::StringUTF8Adaptor"* nonnull %6) #12
  call void @llvm.lifetime.end.p0i8(i64 40, i8* nonnull %48) #12
  %71 = load i8*, i8** %13, align 8
  %72 = getelementptr inbounds i8, i8* %71, i64 %12
  %73 = getelementptr inbounds i8, i8* %72, i64 16
  %74 = bitcast i8* %73 to %"struct.mojo::internal::Pointer.71"*
  %75 = icmp eq i64 %63, -1
  br i1 %75, label %79, label %76

76:                                               ; preds = %62
  %77 = getelementptr inbounds i8, i8* %71, i64 %63
  %78 = bitcast i8* %77 to %"class.mojo::internal::Array_Data.91"*
  br label %79

79:                                               ; preds = %76, %62, %42
  %80 = phi %"struct.mojo::internal::Pointer.71"* [ %74, %76 ], [ %74, %62 ], [ %46, %42 ]
  %81 = phi %"class.mojo::internal::Array_Data.91"* [ %78, %76 ], [ null, %62 ], [ null, %42 ]
  %82 = getelementptr inbounds %"struct.mojo::internal::Pointer.71", %"struct.mojo::internal::Pointer.71"* %80, i64 0, i32 0
  %83 = icmp eq %"class.mojo::internal::Array_Data.91"* %81, null
  %84 = ptrtoint %"class.mojo::internal::Array_Data.91"* %81 to i64
  %85 = ptrtoint %"struct.mojo::internal::Pointer.71"* %80 to i64
  %86 = sub i64 %84, %85
  %87 = select i1 %83, i64 0, i64 %86
  store i64 %87, i64* %82, align 8
  %88 = load i8*, i8** %13, align 8
  %89 = getelementptr inbounds i8, i8* %88, i64 %12
  %90 = getelementptr inbounds i8, i8* %89, i64 24
  %91 = bitcast i8* %90 to i64*
  store i64 %3, i64* %91, align 8
  %92 = call i8* @_Znwm(i64 16) #13
  %93 = getelementptr inbounds %"class.base::OnceCallback.93", %"class.base::OnceCallback.93"* %4, i64 0, i32 0, i32 0, i32 0
  %94 = bitcast %"class.base::OnceCallback.93"* %4 to i64*
  %95 = load i64, i64* %94, align 8
  store %"class.base::internal::BindStateBase"* null, %"class.base::internal::BindStateBase"** %93, align 8
  %96 = bitcast i8* %92 to i32 (...)***
  store i32 (...)** bitcast (i8** getelementptr inbounds ({ [6 x i8*] }, { [6 x i8*] }* @_ZTVN5blink5mojom5blink45FileSystemManager_WriteSync_ForwardToCallbackE, i64 0, inrange i32 0, i64 2) to i32 (...)**), i32 (...)*** %96, align 8
  %97 = getelementptr inbounds i8, i8* %92, i64 8
  %98 = getelementptr inbounds %"class.base::OnceCallback.93", %"class.base::OnceCallback.93"* %9, i64 0, i32 0, i32 0, i32 0
  %99 = bitcast i8* %97 to i64*
  store i64 %95, i64* %99, align 8
  store %"class.base::internal::BindStateBase"* null, %"class.base::internal::BindStateBase"** %98, align 8
  %100 = bitcast i8* %92 to %"class.mojo::MessageReceiver"*
  %101 = getelementptr inbounds %"class.base::OnceCallback.93", %"class.base::OnceCallback.93"* %9, i64 0, i32 0
  call void @_ZN4base8internal12CallbackBaseD2Ev(%"class.base::internal::CallbackBase"* nonnull %101) #12
  %102 = getelementptr inbounds %"class.blink::mojom::blink::FileSystemManagerProxy", %"class.blink::mojom::blink::FileSystemManagerProxy"* %0, i64 0, i32 1
  %103 = load %"class.mojo::MessageReceiverWithResponder"*, %"class.mojo::MessageReceiverWithResponder"** %102, align 8
  %104 = bitcast %"class.mojo::MessageReceiverWithResponder"* %103 to i1 (%"class.mojo::MessageReceiverWithResponder"*, %"class.mojo::Message"*, %"class.mojo::MessageReceiver"*)***
  %105 = load i1 (%"class.mojo::MessageReceiverWithResponder"*, %"class.mojo::Message"*, %"class.mojo::MessageReceiver"*)**, i1 (%"class.mojo::MessageReceiverWithResponder"*, %"class.mojo::Message"*, %"class.mojo::MessageReceiver"*)*** %104, align 8
  %106 = getelementptr inbounds i1 (%"class.mojo::MessageReceiverWithResponder"*, %"class.mojo::Message"*, %"class.mojo::MessageReceiver"*)*, i1 (%"class.mojo::MessageReceiverWithResponder"*, %"class.mojo::Message"*, %"class.mojo::MessageReceiver"*)** %105, i64 4
  %107 = load i1 (%"class.mojo::MessageReceiverWithResponder"*, %"class.mojo::Message"*, %"class.mojo::MessageReceiver"*)*, i1 (%"class.mojo::MessageReceiverWithResponder"*, %"class.mojo::Message"*, %"class.mojo::MessageReceiver"*)** %106, align 8
  %108 = call zeroext i1 %107(%"class.mojo::MessageReceiverWithResponder"* %103, %"class.mojo::Message"* nonnull %7, %"class.mojo::MessageReceiver"* nonnull %100) #12
  call void @llvm.lifetime.end.p0i8(i64 16, i8* nonnull %17) #12
  call void @_ZN4mojo7MessageD1Ev(%"class.mojo::Message"* nonnull %7) #12
  call void @llvm.lifetime.end.p0i8(i64 120, i8* nonnull %10) #12
  ret void
}

; Function Attrs: nounwind
declare void @_ZN4base8internal12CallbackBaseD2Ev(%"class.base::internal::CallbackBase"*) unnamed_addr #3

; Function Attrs: nounwind ssp uwtable
define hidden void @_ZN5blink5mojom5blink22FileSystemManagerProxy8TruncateERKNS_4KURLElN4mojo15PendingReceiverINS1_30FileSystemCancellableOperationEEEN4base12OnceCallbackIFvNSA_4File5ErrorEEEE(%"class.blink::mojom::blink::FileSystemManagerProxy"* nocapture readonly, %"class.blink::KURL"* dereferenceable(112), i64, %"class.mojo::PendingReceiver"* nocapture, %"class.base::OnceCallback"* nocapture) unnamed_addr #0 align 2 {
  %6 = alloca %"class.mojo::ScopedHandleBase.10", align 4
  %7 = alloca %"class.mojo::Message", align 8
  %8 = alloca %"class.mojo::internal::MessageFragment.75", align 8
  %9 = alloca %"class.base::OnceCallback", align 8
  %10 = bitcast %"class.mojo::Message"* %7 to i8*
  call void @llvm.lifetime.start.p0i8(i64 120, i8* nonnull %10) #12
  call void @llvm.memset.p0i8.i64(i8* nonnull align 8 %10, i8 -86, i64 120, i1 false)
  call void @_ZN4mojo7MessageC1EjjmmPNSt3__16vectorINS_16ScopedHandleBaseINS_6HandleEEENS1_9allocatorIS5_EEEE(%"class.mojo::Message"* nonnull %7, i32 12, i32 1, i64 0, i64 0, %"class.std::__1::vector"* null) #12
  %11 = getelementptr inbounds %"class.mojo::Message", %"class.mojo::Message"* %7, i64 0, i32 1
  %12 = call i64 @_ZN4mojo8internal6Buffer8AllocateEm(%"class.mojo::internal::Buffer"* %11, i64 32) #12
  %13 = getelementptr inbounds %"class.mojo::Message", %"class.mojo::Message"* %7, i64 0, i32 1, i32 2
  %14 = load i8*, i8** %13, align 8
  %15 = getelementptr inbounds i8, i8* %14, i64 %12
  %16 = bitcast i8* %15 to %"class.blink::mojom::internal::FileSystemManager_Truncate_Params_Data"*
  call void @_ZN5blink5mojom8internal38FileSystemManager_Truncate_Params_DataC1Ev(%"class.blink::mojom::internal::FileSystemManager_Truncate_Params_Data"* %16) #12
  %17 = bitcast %"class.mojo::internal::MessageFragment.75"* %8 to i8*
  call void @llvm.lifetime.start.p0i8(i64 16, i8* nonnull %17) #12
  %18 = getelementptr inbounds %"class.mojo::internal::MessageFragment.75", %"class.mojo::internal::MessageFragment.75"* %8, i64 0, i32 0
  %19 = getelementptr inbounds %"class.mojo::internal::MessageFragment.75", %"class.mojo::internal::MessageFragment.75"* %8, i64 0, i32 1
  store %"class.mojo::Message"* %7, %"class.mojo::Message"** %18, align 8
  store i64 -1, i64* %19, align 8
  call void @_ZN4mojo8internal10SerializerIN3url5mojom11UrlDataViewEKN5blink4KURLEE9SerializeERS7_RNS0_15MessageFragmentINS3_8internal8Url_DataEEE(%"class.blink::KURL"* dereferenceable(112) %1, %"class.mojo::internal::MessageFragment.75"* nonnull dereferenceable(16) %8) #12
  %20 = load i8*, i8** %13, align 8
  %21 = getelementptr inbounds i8, i8* %20, i64 %12
  %22 = getelementptr inbounds i8, i8* %21, i64 8
  %23 = load i64, i64* %19, align 8
  %24 = icmp eq i64 %23, -1
  br i1 %24, label %31, label %25

25:                                               ; preds = %5
  %26 = load %"class.mojo::Message"*, %"class.mojo::Message"** %18, align 8
  %27 = getelementptr inbounds %"class.mojo::Message", %"class.mojo::Message"* %26, i64 0, i32 1, i32 2
  %28 = load i8*, i8** %27, align 8
  %29 = getelementptr inbounds i8, i8* %28, i64 %23
  %30 = bitcast i8* %29 to %"class.url::mojom::internal::Url_Data"*
  br label %31

31:                                               ; preds = %5, %25
  %32 = phi %"class.url::mojom::internal::Url_Data"* [ %30, %25 ], [ null, %5 ]
  %33 = bitcast i8* %22 to i64*
  %34 = icmp eq %"class.url::mojom::internal::Url_Data"* %32, null
  %35 = ptrtoint %"class.url::mojom::internal::Url_Data"* %32 to i64
  %36 = ptrtoint i8* %22 to i64
  %37 = sub i64 %35, %36
  %38 = select i1 %34, i64 0, i64 %37
  store i64 %38, i64* %33, align 8
  %39 = load i8*, i8** %13, align 8
  %40 = getelementptr inbounds i8, i8* %39, i64 %12
  %41 = getelementptr inbounds i8, i8* %40, i64 16
  %42 = bitcast i8* %41 to i64*
  store i64 %2, i64* %42, align 8
  %43 = load i8*, i8** %13, align 8
  %44 = getelementptr inbounds i8, i8* %43, i64 %12
  %45 = getelementptr inbounds i8, i8* %44, i64 24
  %46 = bitcast i8* %45 to %"struct.mojo::internal::Handle_Data"*
  %47 = bitcast %"class.mojo::ScopedHandleBase.10"* %6 to i8*
  call void @llvm.lifetime.start.p0i8(i64 4, i8* nonnull %47) #12
  %48 = getelementptr inbounds %"class.mojo::PendingReceiver", %"class.mojo::PendingReceiver"* %3, i64 0, i32 0, i32 0, i32 0, i32 0, i32 0
  %49 = load i32, i32* %48, align 4, !noalias !33
  store i32 0, i32* %48, align 4, !noalias !33
  %50 = getelementptr inbounds %"class.mojo::ScopedHandleBase.10", %"class.mojo::ScopedHandleBase.10"* %6, i64 0, i32 0, i32 0
  store i32 %49, i32* %50, align 4, !alias.scope !38
  call void @_ZN4mojo8internal15SerializeHandleENS_16ScopedHandleBaseINS_6HandleEEERNS_7MessageERNS0_11Handle_DataE(%"class.mojo::ScopedHandleBase.10"* nonnull %6, %"class.mojo::Message"* nonnull dereferenceable(120) %7, %"struct.mojo::internal::Handle_Data"* dereferenceable(4) %46) #12
  %51 = load i32, i32* %50, align 4
  %52 = icmp eq i32 %51, 0
  br i1 %52, label %55, label %53

53:                                               ; preds = %31
  %54 = call i32 @MojoClose(i32 %51) #12
  br label %55

55:                                               ; preds = %53, %31
  call void @llvm.lifetime.end.p0i8(i64 4, i8* nonnull %47) #12
  %56 = call i8* @_Znwm(i64 16) #13
  %57 = getelementptr inbounds %"class.base::OnceCallback", %"class.base::OnceCallback"* %4, i64 0, i32 0, i32 0, i32 0
  %58 = bitcast %"class.base::OnceCallback"* %4 to i64*
  %59 = load i64, i64* %58, align 8
  store %"class.base::internal::BindStateBase"* null, %"class.base::internal::BindStateBase"** %57, align 8
  %60 = bitcast i8* %56 to i32 (...)***
  store i32 (...)** bitcast (i8** getelementptr inbounds ({ [6 x i8*] }, { [6 x i8*] }* @_ZTVN5blink5mojom5blink44FileSystemManager_Truncate_ForwardToCallbackE, i64 0, inrange i32 0, i64 2) to i32 (...)**), i32 (...)*** %60, align 8
  %61 = getelementptr inbounds i8, i8* %56, i64 8
  %62 = getelementptr inbounds %"class.base::OnceCallback", %"class.base::OnceCallback"* %9, i64 0, i32 0, i32 0, i32 0
  %63 = bitcast i8* %61 to i64*
  store i64 %59, i64* %63, align 8
  store %"class.base::internal::BindStateBase"* null, %"class.base::internal::BindStateBase"** %62, align 8
  %64 = bitcast i8* %56 to %"class.mojo::MessageReceiver"*
  %65 = getelementptr inbounds %"class.base::OnceCallback", %"class.base::OnceCallback"* %9, i64 0, i32 0
  call void @_ZN4base8internal12CallbackBaseD2Ev(%"class.base::internal::CallbackBase"* nonnull %65) #12
  %66 = getelementptr inbounds %"class.blink::mojom::blink::FileSystemManagerProxy", %"class.blink::mojom::blink::FileSystemManagerProxy"* %0, i64 0, i32 1
  %67 = load %"class.mojo::MessageReceiverWithResponder"*, %"class.mojo::MessageReceiverWithResponder"** %66, align 8
  %68 = bitcast %"class.mojo::MessageReceiverWithResponder"* %67 to i1 (%"class.mojo::MessageReceiverWithResponder"*, %"class.mojo::Message"*, %"class.mojo::MessageReceiver"*)***
  %69 = load i1 (%"class.mojo::MessageReceiverWithResponder"*, %"class.mojo::Message"*, %"class.mojo::MessageReceiver"*)**, i1 (%"class.mojo::MessageReceiverWithResponder"*, %"class.mojo::Message"*, %"class.mojo::MessageReceiver"*)*** %68, align 8
  %70 = getelementptr inbounds i1 (%"class.mojo::MessageReceiverWithResponder"*, %"class.mojo::Message"*, %"class.mojo::MessageReceiver"*)*, i1 (%"class.mojo::MessageReceiverWithResponder"*, %"class.mojo::Message"*, %"class.mojo::MessageReceiver"*)** %69, i64 4
  %71 = load i1 (%"class.mojo::MessageReceiverWithResponder"*, %"class.mojo::Message"*, %"class.mojo::MessageReceiver"*)*, i1 (%"class.mojo::MessageReceiverWithResponder"*, %"class.mojo::Message"*, %"class.mojo::MessageReceiver"*)** %70, align 8
  %72 = call zeroext i1 %71(%"class.mojo::MessageReceiverWithResponder"* %67, %"class.mojo::Message"* nonnull %7, %"class.mojo::MessageReceiver"* nonnull %64) #12
  call void @llvm.lifetime.end.p0i8(i64 16, i8* nonnull %17) #12
  call void @_ZN4mojo7MessageD1Ev(%"class.mojo::Message"* nonnull %7) #12
  call void @llvm.lifetime.end.p0i8(i64 120, i8* nonnull %10) #12
  ret void
}

; Function Attrs: nounwind ssp uwtable
define hidden zeroext i1 @_ZN5blink5mojom5blink22FileSystemManagerProxy12TruncateSyncERKNS_4KURLElPN4base4File5ErrorE(%"class.blink::mojom::blink::FileSystemManagerProxy"* nocapture readonly, %"class.blink::KURL"* dereferenceable(112), i64, i32*) unnamed_addr #0 align 2 {
  %5 = alloca %"class.mojo::Message", align 8
  %6 = alloca %"class.mojo::internal::MessageFragment.75", align 8
  %7 = alloca i8, align 1
  %8 = bitcast %"class.mojo::Message"* %5 to i8*
  call void @llvm.lifetime.start.p0i8(i64 120, i8* nonnull %8) #12
  call void @llvm.memset.p0i8.i64(i8* nonnull align 8 %8, i8 -86, i64 120, i1 false)
  call void @_ZN4mojo7MessageC1EjjmmPNSt3__16vectorINS_16ScopedHandleBaseINS_6HandleEEENS1_9allocatorIS5_EEEE(%"class.mojo::Message"* nonnull %5, i32 13, i32 5, i64 0, i64 0, %"class.std::__1::vector"* null) #12
  %9 = getelementptr inbounds %"class.mojo::Message", %"class.mojo::Message"* %5, i64 0, i32 1
  %10 = call i64 @_ZN4mojo8internal6Buffer8AllocateEm(%"class.mojo::internal::Buffer"* %9, i64 24) #12
  %11 = getelementptr inbounds %"class.mojo::Message", %"class.mojo::Message"* %5, i64 0, i32 1, i32 2
  %12 = load i8*, i8** %11, align 8
  %13 = getelementptr inbounds i8, i8* %12, i64 %10
  %14 = bitcast i8* %13 to %"class.blink::mojom::internal::FileSystemManager_TruncateSync_Params_Data"*
  call void @_ZN5blink5mojom8internal42FileSystemManager_TruncateSync_Params_DataC1Ev(%"class.blink::mojom::internal::FileSystemManager_TruncateSync_Params_Data"* %14) #12
  %15 = bitcast %"class.mojo::internal::MessageFragment.75"* %6 to i8*
  call void @llvm.lifetime.start.p0i8(i64 16, i8* nonnull %15) #12
  %16 = getelementptr inbounds %"class.mojo::internal::MessageFragment.75", %"class.mojo::internal::MessageFragment.75"* %6, i64 0, i32 0
  %17 = getelementptr inbounds %"class.mojo::internal::MessageFragment.75", %"class.mojo::internal::MessageFragment.75"* %6, i64 0, i32 1
  store %"class.mojo::Message"* %5, %"class.mojo::Message"** %16, align 8
  store i64 -1, i64* %17, align 8
  call void @_ZN4mojo8internal10SerializerIN3url5mojom11UrlDataViewEKN5blink4KURLEE9SerializeERS7_RNS0_15MessageFragmentINS3_8internal8Url_DataEEE(%"class.blink::KURL"* dereferenceable(112) %1, %"class.mojo::internal::MessageFragment.75"* nonnull dereferenceable(16) %6) #12
  %18 = load i8*, i8** %11, align 8
  %19 = getelementptr inbounds i8, i8* %18, i64 %10
  %20 = getelementptr inbounds i8, i8* %19, i64 8
  %21 = load i64, i64* %17, align 8
  %22 = icmp eq i64 %21, -1
  br i1 %22, label %29, label %23

23:                                               ; preds = %4
  %24 = load %"class.mojo::Message"*, %"class.mojo::Message"** %16, align 8
  %25 = getelementptr inbounds %"class.mojo::Message", %"class.mojo::Message"* %24, i64 0, i32 1, i32 2
  %26 = load i8*, i8** %25, align 8
  %27 = getelementptr inbounds i8, i8* %26, i64 %21
  %28 = bitcast i8* %27 to %"class.url::mojom::internal::Url_Data"*
  br label %29

29:                                               ; preds = %23, %4
  %30 = phi %"class.url::mojom::internal::Url_Data"* [ %28, %23 ], [ null, %4 ]
  %31 = bitcast i8* %20 to i64*
  %32 = icmp eq %"class.url::mojom::internal::Url_Data"* %30, null
  %33 = ptrtoint %"class.url::mojom::internal::Url_Data"* %30 to i64
  %34 = ptrtoint i8* %20 to i64
  %35 = sub i64 %33, %34
  %36 = select i1 %32, i64 0, i64 %35
  store i64 %36, i64* %31, align 8
  %37 = load i8*, i8** %11, align 8
  %38 = getelementptr inbounds i8, i8* %37, i64 %10
  %39 = getelementptr inbounds i8, i8* %38, i64 16
  %40 = bitcast i8* %39 to i64*
  store i64 %2, i64* %40, align 8
  call void @llvm.lifetime.start.p0i8(i64 1, i8* nonnull %7) #12
  store i8 0, i8* %7, align 1
  %41 = call i8* @_Znwm(i64 24) #13
  %42 = bitcast i8* %41 to i32 (...)***
  store i32 (...)** bitcast (i8** getelementptr inbounds ({ [6 x i8*] }, { [6 x i8*] }* @_ZTVN5blink5mojom5blink49FileSystemManager_TruncateSync_HandleSyncResponseE, i64 0, inrange i32 0, i64 2) to i32 (...)**), i32 (...)*** %42, align 8
  %43 = getelementptr inbounds i8, i8* %41, i64 8
  %44 = bitcast i8* %43 to i8**
  store i8* %7, i8** %44, align 8
  %45 = getelementptr inbounds i8, i8* %41, i64 16
  %46 = bitcast i8* %45 to i32**
  store i32* %3, i32** %46, align 8
  %47 = bitcast i8* %41 to %"class.mojo::MessageReceiver"*
  %48 = getelementptr inbounds %"class.blink::mojom::blink::FileSystemManagerProxy", %"class.blink::mojom::blink::FileSystemManagerProxy"* %0, i64 0, i32 1
  %49 = load %"class.mojo::MessageReceiverWithResponder"*, %"class.mojo::MessageReceiverWithResponder"** %48, align 8
  %50 = bitcast %"class.mojo::MessageReceiverWithResponder"* %49 to i1 (%"class.mojo::MessageReceiverWithResponder"*, %"class.mojo::Message"*, %"class.mojo::MessageReceiver"*)***
  %51 = load i1 (%"class.mojo::MessageReceiverWithResponder"*, %"class.mojo::Message"*, %"class.mojo::MessageReceiver"*)**, i1 (%"class.mojo::MessageReceiverWithResponder"*, %"class.mojo::Message"*, %"class.mojo::MessageReceiver"*)*** %50, align 8
  %52 = getelementptr inbounds i1 (%"class.mojo::MessageReceiverWithResponder"*, %"class.mojo::Message"*, %"class.mojo::MessageReceiver"*)*, i1 (%"class.mojo::MessageReceiverWithResponder"*, %"class.mojo::Message"*, %"class.mojo::MessageReceiver"*)** %51, i64 4
  %53 = load i1 (%"class.mojo::MessageReceiverWithResponder"*, %"class.mojo::Message"*, %"class.mojo::MessageReceiver"*)*, i1 (%"class.mojo::MessageReceiverWithResponder"*, %"class.mojo::Message"*, %"class.mojo::MessageReceiver"*)** %52, align 8
  %54 = call zeroext i1 %53(%"class.mojo::MessageReceiverWithResponder"* %49, %"class.mojo::Message"* nonnull %5, %"class.mojo::MessageReceiver"* nonnull %47) #12
  %55 = load i8, i8* %7, align 1, !range !3
  %56 = icmp ne i8 %55, 0
  call void @llvm.lifetime.end.p0i8(i64 1, i8* nonnull %7) #12
  call void @llvm.lifetime.end.p0i8(i64 16, i8* nonnull %15) #12
  call void @_ZN4mojo7MessageD1Ev(%"class.mojo::Message"* nonnull %5) #12
  call void @llvm.lifetime.end.p0i8(i64 120, i8* nonnull %8) #12
  ret i1 %56
}

; Function Attrs: nounwind ssp uwtable
define hidden void @_ZN5blink5mojom5blink22FileSystemManagerProxy12TruncateSyncERKNS_4KURLElN4base12OnceCallbackIFvNS6_4File5ErrorEEEE(%"class.blink::mojom::blink::FileSystemManagerProxy"* nocapture readonly, %"class.blink::KURL"* dereferenceable(112), i64, %"class.base::OnceCallback"* nocapture) unnamed_addr #0 align 2 {
  %5 = alloca %"class.mojo::Message", align 8
  %6 = alloca %"class.mojo::internal::MessageFragment.75", align 8
  %7 = alloca %"class.base::OnceCallback", align 8
  %8 = bitcast %"class.mojo::Message"* %5 to i8*
  call void @llvm.lifetime.start.p0i8(i64 120, i8* nonnull %8) #12
  call void @llvm.memset.p0i8.i64(i8* nonnull align 8 %8, i8 -86, i64 120, i1 false)
  call void @_ZN4mojo7MessageC1EjjmmPNSt3__16vectorINS_16ScopedHandleBaseINS_6HandleEEENS1_9allocatorIS5_EEEE(%"class.mojo::Message"* nonnull %5, i32 13, i32 1, i64 0, i64 0, %"class.std::__1::vector"* null) #12
  %9 = getelementptr inbounds %"class.mojo::Message", %"class.mojo::Message"* %5, i64 0, i32 1
  %10 = call i64 @_ZN4mojo8internal6Buffer8AllocateEm(%"class.mojo::internal::Buffer"* %9, i64 24) #12
  %11 = getelementptr inbounds %"class.mojo::Message", %"class.mojo::Message"* %5, i64 0, i32 1, i32 2
  %12 = load i8*, i8** %11, align 8
  %13 = getelementptr inbounds i8, i8* %12, i64 %10
  %14 = bitcast i8* %13 to %"class.blink::mojom::internal::FileSystemManager_TruncateSync_Params_Data"*
  call void @_ZN5blink5mojom8internal42FileSystemManager_TruncateSync_Params_DataC1Ev(%"class.blink::mojom::internal::FileSystemManager_TruncateSync_Params_Data"* %14) #12
  %15 = bitcast %"class.mojo::internal::MessageFragment.75"* %6 to i8*
  call void @llvm.lifetime.start.p0i8(i64 16, i8* nonnull %15) #12
  %16 = getelementptr inbounds %"class.mojo::internal::MessageFragment.75", %"class.mojo::internal::MessageFragment.75"* %6, i64 0, i32 0
  %17 = getelementptr inbounds %"class.mojo::internal::MessageFragment.75", %"class.mojo::internal::MessageFragment.75"* %6, i64 0, i32 1
  store %"class.mojo::Message"* %5, %"class.mojo::Message"** %16, align 8
  store i64 -1, i64* %17, align 8
  call void @_ZN4mojo8internal10SerializerIN3url5mojom11UrlDataViewEKN5blink4KURLEE9SerializeERS7_RNS0_15MessageFragmentINS3_8internal8Url_DataEEE(%"class.blink::KURL"* dereferenceable(112) %1, %"class.mojo::internal::MessageFragment.75"* nonnull dereferenceable(16) %6) #12
  %18 = load i8*, i8** %11, align 8
  %19 = getelementptr inbounds i8, i8* %18, i64 %10
  %20 = getelementptr inbounds i8, i8* %19, i64 8
  %21 = load i64, i64* %17, align 8
  %22 = icmp eq i64 %21, -1
  br i1 %22, label %29, label %23

23:                                               ; preds = %4
  %24 = load %"class.mojo::Message"*, %"class.mojo::Message"** %16, align 8
  %25 = getelementptr inbounds %"class.mojo::Message", %"class.mojo::Message"* %24, i64 0, i32 1, i32 2
  %26 = load i8*, i8** %25, align 8
  %27 = getelementptr inbounds i8, i8* %26, i64 %21
  %28 = bitcast i8* %27 to %"class.url::mojom::internal::Url_Data"*
  br label %29

29:                                               ; preds = %23, %4
  %30 = phi %"class.url::mojom::internal::Url_Data"* [ %28, %23 ], [ null, %4 ]
  %31 = bitcast i8* %20 to i64*
  %32 = icmp eq %"class.url::mojom::internal::Url_Data"* %30, null
  %33 = ptrtoint %"class.url::mojom::internal::Url_Data"* %30 to i64
  %34 = ptrtoint i8* %20 to i64
  %35 = sub i64 %33, %34
  %36 = select i1 %32, i64 0, i64 %35
  store i64 %36, i64* %31, align 8
  %37 = load i8*, i8** %11, align 8
  %38 = getelementptr inbounds i8, i8* %37, i64 %10
  %39 = getelementptr inbounds i8, i8* %38, i64 16
  %40 = bitcast i8* %39 to i64*
  store i64 %2, i64* %40, align 8
  %41 = call i8* @_Znwm(i64 16) #13
  %42 = getelementptr inbounds %"class.base::OnceCallback", %"class.base::OnceCallback"* %3, i64 0, i32 0, i32 0, i32 0
  %43 = bitcast %"class.base::OnceCallback"* %3 to i64*
  %44 = load i64, i64* %43, align 8
  store %"class.base::internal::BindStateBase"* null, %"class.base::internal::BindStateBase"** %42, align 8
  %45 = bitcast i8* %41 to i32 (...)***
  store i32 (...)** bitcast (i8** getelementptr inbounds ({ [6 x i8*] }, { [6 x i8*] }* @_ZTVN5blink5mojom5blink48FileSystemManager_TruncateSync_ForwardToCallbackE, i64 0, inrange i32 0, i64 2) to i32 (...)**), i32 (...)*** %45, align 8
  %46 = getelementptr inbounds i8, i8* %41, i64 8
  %47 = getelementptr inbounds %"class.base::OnceCallback", %"class.base::OnceCallback"* %7, i64 0, i32 0, i32 0, i32 0
  %48 = bitcast i8* %46 to i64*
  store i64 %44, i64* %48, align 8
  store %"class.base::internal::BindStateBase"* null, %"class.base::internal::BindStateBase"** %47, align 8
  %49 = bitcast i8* %41 to %"class.mojo::MessageReceiver"*
  %50 = getelementptr inbounds %"class.base::OnceCallback", %"class.base::OnceCallback"* %7, i64 0, i32 0
  call void @_ZN4base8internal12CallbackBaseD2Ev(%"class.base::internal::CallbackBase"* nonnull %50) #12
  %51 = getelementptr inbounds %"class.blink::mojom::blink::FileSystemManagerProxy", %"class.blink::mojom::blink::FileSystemManagerProxy"* %0, i64 0, i32 1
  %52 = load %"class.mojo::MessageReceiverWithResponder"*, %"class.mojo::MessageReceiverWithResponder"** %51, align 8
  %53 = bitcast %"class.mojo::MessageReceiverWithResponder"* %52 to i1 (%"class.mojo::MessageReceiverWithResponder"*, %"class.mojo::Message"*, %"class.mojo::MessageReceiver"*)***
  %54 = load i1 (%"class.mojo::MessageReceiverWithResponder"*, %"class.mojo::Message"*, %"class.mojo::MessageReceiver"*)**, i1 (%"class.mojo::MessageReceiverWithResponder"*, %"class.mojo::Message"*, %"class.mojo::MessageReceiver"*)*** %53, align 8
  %55 = getelementptr inbounds i1 (%"class.mojo::MessageReceiverWithResponder"*, %"class.mojo::Message"*, %"class.mojo::MessageReceiver"*)*, i1 (%"class.mojo::MessageReceiverWithResponder"*, %"class.mojo::Message"*, %"class.mojo::MessageReceiver"*)** %54, i64 4
  %56 = load i1 (%"class.mojo::MessageReceiverWithResponder"*, %"class.mojo::Message"*, %"class.mojo::MessageReceiver"*)*, i1 (%"class.mojo::MessageReceiverWithResponder"*, %"class.mojo::Message"*, %"class.mojo::MessageReceiver"*)** %55, align 8
  %57 = call zeroext i1 %56(%"class.mojo::MessageReceiverWithResponder"* %52, %"class.mojo::Message"* nonnull %5, %"class.mojo::MessageReceiver"* nonnull %49) #12
  call void @llvm.lifetime.end.p0i8(i64 16, i8* nonnull %15) #12
  call void @_ZN4mojo7MessageD1Ev(%"class.mojo::Message"* nonnull %5) #12
  call void @llvm.lifetime.end.p0i8(i64 120, i8* nonnull %8) #12
  ret void
}

; Function Attrs: nounwind ssp uwtable
define hidden zeroext i1 @_ZN5blink5mojom5blink22FileSystemManagerProxy18CreateSnapshotFileERKNS_4KURLEPN4base4File4InfoEPNS6_8FilePathEPNS7_5ErrorEPN4mojo13PendingRemoteINS1_24ReceivedSnapshotListenerEEE(%"class.blink::mojom::blink::FileSystemManagerProxy"* nocapture readonly, %"class.blink::KURL"* dereferenceable(112), %"struct.base::File::Info"*, %"class.base::FilePath"*, i32*, %"class.mojo::PendingRemote"*) unnamed_addr #0 align 2 {
  %7 = alloca %"class.mojo::Message", align 8
  %8 = alloca %"class.mojo::internal::MessageFragment.75", align 8
  %9 = alloca i8, align 1
  %10 = bitcast %"class.mojo::Message"* %7 to i8*
  call void @llvm.lifetime.start.p0i8(i64 120, i8* nonnull %10) #12
  call void @llvm.memset.p0i8.i64(i8* nonnull align 8 %10, i8 -86, i64 120, i1 false)
  call void @_ZN4mojo7MessageC1EjjmmPNSt3__16vectorINS_16ScopedHandleBaseINS_6HandleEEENS1_9allocatorIS5_EEEE(%"class.mojo::Message"* nonnull %7, i32 14, i32 5, i64 0, i64 0, %"class.std::__1::vector"* null) #12
  %11 = getelementptr inbounds %"class.mojo::Message", %"class.mojo::Message"* %7, i64 0, i32 1
  %12 = call i64 @_ZN4mojo8internal6Buffer8AllocateEm(%"class.mojo::internal::Buffer"* %11, i64 16) #12
  %13 = getelementptr inbounds %"class.mojo::Message", %"class.mojo::Message"* %7, i64 0, i32 1, i32 2
  %14 = load i8*, i8** %13, align 8
  %15 = getelementptr inbounds i8, i8* %14, i64 %12
  %16 = bitcast i8* %15 to %"class.blink::mojom::internal::FileSystemManager_CreateSnapshotFile_Params_Data"*
  call void @_ZN5blink5mojom8internal48FileSystemManager_CreateSnapshotFile_Params_DataC1Ev(%"class.blink::mojom::internal::FileSystemManager_CreateSnapshotFile_Params_Data"* %16) #12
  %17 = bitcast %"class.mojo::internal::MessageFragment.75"* %8 to i8*
  call void @llvm.lifetime.start.p0i8(i64 16, i8* nonnull %17) #12
  %18 = getelementptr inbounds %"class.mojo::internal::MessageFragment.75", %"class.mojo::internal::MessageFragment.75"* %8, i64 0, i32 0
  %19 = getelementptr inbounds %"class.mojo::internal::MessageFragment.75", %"class.mojo::internal::MessageFragment.75"* %8, i64 0, i32 1
  store %"class.mojo::Message"* %7, %"class.mojo::Message"** %18, align 8
  store i64 -1, i64* %19, align 8
  call void @_ZN4mojo8internal10SerializerIN3url5mojom11UrlDataViewEKN5blink4KURLEE9SerializeERS7_RNS0_15MessageFragmentINS3_8internal8Url_DataEEE(%"class.blink::KURL"* dereferenceable(112) %1, %"class.mojo::internal::MessageFragment.75"* nonnull dereferenceable(16) %8) #12
  %20 = load i8*, i8** %13, align 8
  %21 = getelementptr inbounds i8, i8* %20, i64 %12
  %22 = getelementptr inbounds i8, i8* %21, i64 8
  %23 = load i64, i64* %19, align 8
  %24 = icmp eq i64 %23, -1
  br i1 %24, label %31, label %25

25:                                               ; preds = %6
  %26 = load %"class.mojo::Message"*, %"class.mojo::Message"** %18, align 8
  %27 = getelementptr inbounds %"class.mojo::Message", %"class.mojo::Message"* %26, i64 0, i32 1, i32 2
  %28 = load i8*, i8** %27, align 8
  %29 = getelementptr inbounds i8, i8* %28, i64 %23
  %30 = bitcast i8* %29 to %"class.url::mojom::internal::Url_Data"*
  br label %31

31:                                               ; preds = %25, %6
  %32 = phi %"class.url::mojom::internal::Url_Data"* [ %30, %25 ], [ null, %6 ]
  %33 = bitcast i8* %22 to i64*
  %34 = icmp eq %"class.url::mojom::internal::Url_Data"* %32, null
  %35 = ptrtoint %"class.url::mojom::internal::Url_Data"* %32 to i64
  %36 = ptrtoint i8* %22 to i64
  %37 = sub i64 %35, %36
  %38 = select i1 %34, i64 0, i64 %37
  store i64 %38, i64* %33, align 8
  call void @llvm.lifetime.start.p0i8(i64 1, i8* nonnull %9) #12
  store i8 0, i8* %9, align 1
  %39 = call i8* @_Znwm(i64 48) #13
  %40 = bitcast i8* %39 to i32 (...)***
  store i32 (...)** bitcast (i8** getelementptr inbounds ({ [6 x i8*] }, { [6 x i8*] }* @_ZTVN5blink5mojom5blink55FileSystemManager_CreateSnapshotFile_HandleSyncResponseE, i64 0, inrange i32 0, i64 2) to i32 (...)**), i32 (...)*** %40, align 8
  %41 = getelementptr inbounds i8, i8* %39, i64 8
  %42 = bitcast i8* %41 to i8**
  store i8* %9, i8** %42, align 8
  %43 = getelementptr inbounds i8, i8* %39, i64 16
  %44 = bitcast i8* %43 to %"struct.base::File::Info"**
  store %"struct.base::File::Info"* %2, %"struct.base::File::Info"** %44, align 8
  %45 = getelementptr inbounds i8, i8* %39, i64 24
  %46 = bitcast i8* %45 to %"class.base::FilePath"**
  store %"class.base::FilePath"* %3, %"class.base::FilePath"** %46, align 8
  %47 = getelementptr inbounds i8, i8* %39, i64 32
  %48 = bitcast i8* %47 to i32**
  store i32* %4, i32** %48, align 8
  %49 = getelementptr inbounds i8, i8* %39, i64 40
  %50 = bitcast i8* %49 to %"class.mojo::PendingRemote"**
  store %"class.mojo::PendingRemote"* %5, %"class.mojo::PendingRemote"** %50, align 8
  %51 = bitcast i8* %39 to %"class.mojo::MessageReceiver"*
  %52 = getelementptr inbounds %"class.blink::mojom::blink::FileSystemManagerProxy", %"class.blink::mojom::blink::FileSystemManagerProxy"* %0, i64 0, i32 1
  %53 = load %"class.mojo::MessageReceiverWithResponder"*, %"class.mojo::MessageReceiverWithResponder"** %52, align 8
  %54 = bitcast %"class.mojo::MessageReceiverWithResponder"* %53 to i1 (%"class.mojo::MessageReceiverWithResponder"*, %"class.mojo::Message"*, %"class.mojo::MessageReceiver"*)***
  %55 = load i1 (%"class.mojo::MessageReceiverWithResponder"*, %"class.mojo::Message"*, %"class.mojo::MessageReceiver"*)**, i1 (%"class.mojo::MessageReceiverWithResponder"*, %"class.mojo::Message"*, %"class.mojo::MessageReceiver"*)*** %54, align 8
  %56 = getelementptr inbounds i1 (%"class.mojo::MessageReceiverWithResponder"*, %"class.mojo::Message"*, %"class.mojo::MessageReceiver"*)*, i1 (%"class.mojo::MessageReceiverWithResponder"*, %"class.mojo::Message"*, %"class.mojo::MessageReceiver"*)** %55, i64 4
  %57 = load i1 (%"class.mojo::MessageReceiverWithResponder"*, %"class.mojo::Message"*, %"class.mojo::MessageReceiver"*)*, i1 (%"class.mojo::MessageReceiverWithResponder"*, %"class.mojo::Message"*, %"class.mojo::MessageReceiver"*)** %56, align 8
  %58 = call zeroext i1 %57(%"class.mojo::MessageReceiverWithResponder"* %53, %"class.mojo::Message"* nonnull %7, %"class.mojo::MessageReceiver"* nonnull %51) #12
  %59 = load i8, i8* %9, align 1, !range !3
  %60 = icmp ne i8 %59, 0
  call void @llvm.lifetime.end.p0i8(i64 1, i8* nonnull %9) #12
  call void @llvm.lifetime.end.p0i8(i64 16, i8* nonnull %17) #12
  call void @_ZN4mojo7MessageD1Ev(%"class.mojo::Message"* nonnull %7) #12
  call void @llvm.lifetime.end.p0i8(i64 120, i8* nonnull %10) #12
  ret i1 %60
}

; Function Attrs: nounwind ssp uwtable
define hidden void @_ZN5blink5mojom5blink22FileSystemManagerProxy18CreateSnapshotFileERKNS_4KURLEN4base12OnceCallbackIFvRKNS6_4File4InfoERKNS6_8FilePathENS8_5ErrorEN4mojo13PendingRemoteINS1_24ReceivedSnapshotListenerEEEEEE(%"class.blink::mojom::blink::FileSystemManagerProxy"* nocapture readonly, %"class.blink::KURL"* dereferenceable(112), %"class.base::OnceCallback.97"* nocapture) unnamed_addr #0 align 2 {
  %4 = alloca %"class.mojo::Message", align 8
  %5 = alloca %"class.mojo::internal::MessageFragment.75", align 8
  %6 = alloca %"class.base::OnceCallback.97", align 8
  %7 = bitcast %"class.mojo::Message"* %4 to i8*
  call void @llvm.lifetime.start.p0i8(i64 120, i8* nonnull %7) #12
  call void @llvm.memset.p0i8.i64(i8* nonnull align 8 %7, i8 -86, i64 120, i1 false)
  call void @_ZN4mojo7MessageC1EjjmmPNSt3__16vectorINS_16ScopedHandleBaseINS_6HandleEEENS1_9allocatorIS5_EEEE(%"class.mojo::Message"* nonnull %4, i32 14, i32 1, i64 0, i64 0, %"class.std::__1::vector"* null) #12
  %8 = getelementptr inbounds %"class.mojo::Message", %"class.mojo::Message"* %4, i64 0, i32 1
  %9 = call i64 @_ZN4mojo8internal6Buffer8AllocateEm(%"class.mojo::internal::Buffer"* %8, i64 16) #12
  %10 = getelementptr inbounds %"class.mojo::Message", %"class.mojo::Message"* %4, i64 0, i32 1, i32 2
  %11 = load i8*, i8** %10, align 8
  %12 = getelementptr inbounds i8, i8* %11, i64 %9
  %13 = bitcast i8* %12 to %"class.blink::mojom::internal::FileSystemManager_CreateSnapshotFile_Params_Data"*
  call void @_ZN5blink5mojom8internal48FileSystemManager_CreateSnapshotFile_Params_DataC1Ev(%"class.blink::mojom::internal::FileSystemManager_CreateSnapshotFile_Params_Data"* %13) #12
  %14 = bitcast %"class.mojo::internal::MessageFragment.75"* %5 to i8*
  call void @llvm.lifetime.start.p0i8(i64 16, i8* nonnull %14) #12
  %15 = getelementptr inbounds %"class.mojo::internal::MessageFragment.75", %"class.mojo::internal::MessageFragment.75"* %5, i64 0, i32 0
  %16 = getelementptr inbounds %"class.mojo::internal::MessageFragment.75", %"class.mojo::internal::MessageFragment.75"* %5, i64 0, i32 1
  store %"class.mojo::Message"* %4, %"class.mojo::Message"** %15, align 8
  store i64 -1, i64* %16, align 8
  call void @_ZN4mojo8internal10SerializerIN3url5mojom11UrlDataViewEKN5blink4KURLEE9SerializeERS7_RNS0_15MessageFragmentINS3_8internal8Url_DataEEE(%"class.blink::KURL"* dereferenceable(112) %1, %"class.mojo::internal::MessageFragment.75"* nonnull dereferenceable(16) %5) #12
  %17 = load i8*, i8** %10, align 8
  %18 = getelementptr inbounds i8, i8* %17, i64 %9
  %19 = getelementptr inbounds i8, i8* %18, i64 8
  %20 = load i64, i64* %16, align 8
  %21 = icmp eq i64 %20, -1
  br i1 %21, label %28, label %22

22:                                               ; preds = %3
  %23 = load %"class.mojo::Message"*, %"class.mojo::Message"** %15, align 8
  %24 = getelementptr inbounds %"class.mojo::Message", %"class.mojo::Message"* %23, i64 0, i32 1, i32 2
  %25 = load i8*, i8** %24, align 8
  %26 = getelementptr inbounds i8, i8* %25, i64 %20
  %27 = bitcast i8* %26 to %"class.url::mojom::internal::Url_Data"*
  br label %28

28:                                               ; preds = %22, %3
  %29 = phi %"class.url::mojom::internal::Url_Data"* [ %27, %22 ], [ null, %3 ]
  %30 = bitcast i8* %19 to i64*
  %31 = icmp eq %"class.url::mojom::internal::Url_Data"* %29, null
  %32 = ptrtoint %"class.url::mojom::internal::Url_Data"* %29 to i64
  %33 = ptrtoint i8* %19 to i64
  %34 = sub i64 %32, %33
  %35 = select i1 %31, i64 0, i64 %34
  store i64 %35, i64* %30, align 8
  %36 = call i8* @_Znwm(i64 16) #13
  %37 = getelementptr inbounds %"class.base::OnceCallback.97", %"class.base::OnceCallback.97"* %2, i64 0, i32 0, i32 0, i32 0
  %38 = bitcast %"class.base::OnceCallback.97"* %2 to i64*
  %39 = load i64, i64* %38, align 8
  store %"class.base::internal::BindStateBase"* null, %"class.base::internal::BindStateBase"** %37, align 8
  %40 = bitcast i8* %36 to i32 (...)***
  store i32 (...)** bitcast (i8** getelementptr inbounds ({ [6 x i8*] }, { [6 x i8*] }* @_ZTVN5blink5mojom5blink54FileSystemManager_CreateSnapshotFile_ForwardToCallbackE, i64 0, inrange i32 0, i64 2) to i32 (...)**), i32 (...)*** %40, align 8
  %41 = getelementptr inbounds i8, i8* %36, i64 8
  %42 = getelementptr inbounds %"class.base::OnceCallback.97", %"class.base::OnceCallback.97"* %6, i64 0, i32 0, i32 0, i32 0
  %43 = bitcast i8* %41 to i64*
  store i64 %39, i64* %43, align 8
  store %"class.base::internal::BindStateBase"* null, %"class.base::internal::BindStateBase"** %42, align 8
  %44 = bitcast i8* %36 to %"class.mojo::MessageReceiver"*
  %45 = getelementptr inbounds %"class.base::OnceCallback.97", %"class.base::OnceCallback.97"* %6, i64 0, i32 0
  call void @_ZN4base8internal12CallbackBaseD2Ev(%"class.base::internal::CallbackBase"* nonnull %45) #12
  %46 = getelementptr inbounds %"class.blink::mojom::blink::FileSystemManagerProxy", %"class.blink::mojom::blink::FileSystemManagerProxy"* %0, i64 0, i32 1
  %47 = load %"class.mojo::MessageReceiverWithResponder"*, %"class.mojo::MessageReceiverWithResponder"** %46, align 8
  %48 = bitcast %"class.mojo::MessageReceiverWithResponder"* %47 to i1 (%"class.mojo::MessageReceiverWithResponder"*, %"class.mojo::Message"*, %"class.mojo::MessageReceiver"*)***
  %49 = load i1 (%"class.mojo::MessageReceiverWithResponder"*, %"class.mojo::Message"*, %"class.mojo::MessageReceiver"*)**, i1 (%"class.mojo::MessageReceiverWithResponder"*, %"class.mojo::Message"*, %"class.mojo::MessageReceiver"*)*** %48, align 8
  %50 = getelementptr inbounds i1 (%"class.mojo::MessageReceiverWithResponder"*, %"class.mojo::Message"*, %"class.mojo::MessageReceiver"*)*, i1 (%"class.mojo::MessageReceiverWithResponder"*, %"class.mojo::Message"*, %"class.mojo::MessageReceiver"*)** %49, i64 4
  %51 = load i1 (%"class.mojo::MessageReceiverWithResponder"*, %"class.mojo::Message"*, %"class.mojo::MessageReceiver"*)*, i1 (%"class.mojo::MessageReceiverWithResponder"*, %"class.mojo::Message"*, %"class.mojo::MessageReceiver"*)** %50, align 8
  %52 = call zeroext i1 %51(%"class.mojo::MessageReceiverWithResponder"* %47, %"class.mojo::Message"* nonnull %4, %"class.mojo::MessageReceiver"* nonnull %44) #12
  call void @llvm.lifetime.end.p0i8(i64 16, i8* nonnull %14) #12
  call void @_ZN4mojo7MessageD1Ev(%"class.mojo::Message"* nonnull %4) #12
  call void @llvm.lifetime.end.p0i8(i64 120, i8* nonnull %7) #12
  ret void
}

; Function Attrs: nounwind ssp uwtable
define hidden zeroext i1 @_ZN5blink5mojom5blink22FileSystemManagerProxy15GetPlatformPathERKNS_4KURLEPN4base8FilePathE(%"class.blink::mojom::blink::FileSystemManagerProxy"* nocapture readonly, %"class.blink::KURL"* dereferenceable(112), %"class.base::FilePath"*) unnamed_addr #0 align 2 {
  %4 = alloca %"class.mojo::Message", align 8
  %5 = alloca %"class.mojo::internal::MessageFragment.75", align 8
  %6 = alloca i8, align 1
  %7 = bitcast %"class.mojo::Message"* %4 to i8*
  call void @llvm.lifetime.start.p0i8(i64 120, i8* nonnull %7) #12
  call void @llvm.memset.p0i8.i64(i8* nonnull align 8 %7, i8 -86, i64 120, i1 false)
  call void @_ZN4mojo7MessageC1EjjmmPNSt3__16vectorINS_16ScopedHandleBaseINS_6HandleEEENS1_9allocatorIS5_EEEE(%"class.mojo::Message"* nonnull %4, i32 15, i32 5, i64 0, i64 0, %"class.std::__1::vector"* null) #12
  %8 = getelementptr inbounds %"class.mojo::Message", %"class.mojo::Message"* %4, i64 0, i32 1
  %9 = call i64 @_ZN4mojo8internal6Buffer8AllocateEm(%"class.mojo::internal::Buffer"* %8, i64 16) #12
  %10 = getelementptr inbounds %"class.mojo::Message", %"class.mojo::Message"* %4, i64 0, i32 1, i32 2
  %11 = load i8*, i8** %10, align 8
  %12 = getelementptr inbounds i8, i8* %11, i64 %9
  %13 = bitcast i8* %12 to %"class.blink::mojom::internal::FileSystemManager_GetPlatformPath_Params_Data"*
  call void @_ZN5blink5mojom8internal45FileSystemManager_GetPlatformPath_Params_DataC1Ev(%"class.blink::mojom::internal::FileSystemManager_GetPlatformPath_Params_Data"* %13) #12
  %14 = bitcast %"class.mojo::internal::MessageFragment.75"* %5 to i8*
  call void @llvm.lifetime.start.p0i8(i64 16, i8* nonnull %14) #12
  %15 = getelementptr inbounds %"class.mojo::internal::MessageFragment.75", %"class.mojo::internal::MessageFragment.75"* %5, i64 0, i32 0
  %16 = getelementptr inbounds %"class.mojo::internal::MessageFragment.75", %"class.mojo::internal::MessageFragment.75"* %5, i64 0, i32 1
  store %"class.mojo::Message"* %4, %"class.mojo::Message"** %15, align 8
  store i64 -1, i64* %16, align 8
  call void @_ZN4mojo8internal10SerializerIN3url5mojom11UrlDataViewEKN5blink4KURLEE9SerializeERS7_RNS0_15MessageFragmentINS3_8internal8Url_DataEEE(%"class.blink::KURL"* dereferenceable(112) %1, %"class.mojo::internal::MessageFragment.75"* nonnull dereferenceable(16) %5) #12
  %17 = load i8*, i8** %10, align 8
  %18 = getelementptr inbounds i8, i8* %17, i64 %9
  %19 = getelementptr inbounds i8, i8* %18, i64 8
  %20 = load i64, i64* %16, align 8
  %21 = icmp eq i64 %20, -1
  br i1 %21, label %28, label %22

22:                                               ; preds = %3
  %23 = load %"class.mojo::Message"*, %"class.mojo::Message"** %15, align 8
  %24 = getelementptr inbounds %"class.mojo::Message", %"class.mojo::Message"* %23, i64 0, i32 1, i32 2
  %25 = load i8*, i8** %24, align 8
  %26 = getelementptr inbounds i8, i8* %25, i64 %20
  %27 = bitcast i8* %26 to %"class.url::mojom::internal::Url_Data"*
  br label %28

28:                                               ; preds = %22, %3
  %29 = phi %"class.url::mojom::internal::Url_Data"* [ %27, %22 ], [ null, %3 ]
  %30 = bitcast i8* %19 to i64*
  %31 = icmp eq %"class.url::mojom::internal::Url_Data"* %29, null
  %32 = ptrtoint %"class.url::mojom::internal::Url_Data"* %29 to i64
  %33 = ptrtoint i8* %19 to i64
  %34 = sub i64 %32, %33
  %35 = select i1 %31, i64 0, i64 %34
  store i64 %35, i64* %30, align 8
  call void @llvm.lifetime.start.p0i8(i64 1, i8* nonnull %6) #12
  store i8 0, i8* %6, align 1
  %36 = call i8* @_Znwm(i64 24) #13
  %37 = bitcast i8* %36 to i32 (...)***
  store i32 (...)** bitcast (i8** getelementptr inbounds ({ [6 x i8*] }, { [6 x i8*] }* @_ZTVN5blink5mojom5blink52FileSystemManager_GetPlatformPath_HandleSyncResponseE, i64 0, inrange i32 0, i64 2) to i32 (...)**), i32 (...)*** %37, align 8
  %38 = getelementptr inbounds i8, i8* %36, i64 8
  %39 = bitcast i8* %38 to i8**
  store i8* %6, i8** %39, align 8
  %40 = getelementptr inbounds i8, i8* %36, i64 16
  %41 = bitcast i8* %40 to %"class.base::FilePath"**
  store %"class.base::FilePath"* %2, %"class.base::FilePath"** %41, align 8
  %42 = bitcast i8* %36 to %"class.mojo::MessageReceiver"*
  %43 = getelementptr inbounds %"class.blink::mojom::blink::FileSystemManagerProxy", %"class.blink::mojom::blink::FileSystemManagerProxy"* %0, i64 0, i32 1
  %44 = load %"class.mojo::MessageReceiverWithResponder"*, %"class.mojo::MessageReceiverWithResponder"** %43, align 8
  %45 = bitcast %"class.mojo::MessageReceiverWithResponder"* %44 to i1 (%"class.mojo::MessageReceiverWithResponder"*, %"class.mojo::Message"*, %"class.mojo::MessageReceiver"*)***
  %46 = load i1 (%"class.mojo::MessageReceiverWithResponder"*, %"class.mojo::Message"*, %"class.mojo::MessageReceiver"*)**, i1 (%"class.mojo::MessageReceiverWithResponder"*, %"class.mojo::Message"*, %"class.mojo::MessageReceiver"*)*** %45, align 8
  %47 = getelementptr inbounds i1 (%"class.mojo::MessageReceiverWithResponder"*, %"class.mojo::Message"*, %"class.mojo::MessageReceiver"*)*, i1 (%"class.mojo::MessageReceiverWithResponder"*, %"class.mojo::Message"*, %"class.mojo::MessageReceiver"*)** %46, i64 4
  %48 = load i1 (%"class.mojo::MessageReceiverWithResponder"*, %"class.mojo::Message"*, %"class.mojo::MessageReceiver"*)*, i1 (%"class.mojo::MessageReceiverWithResponder"*, %"class.mojo::Message"*, %"class.mojo::MessageReceiver"*)** %47, align 8
  %49 = call zeroext i1 %48(%"class.mojo::MessageReceiverWithResponder"* %44, %"class.mojo::Message"* nonnull %4, %"class.mojo::MessageReceiver"* nonnull %42) #12
  %50 = load i8, i8* %6, align 1, !range !3
  %51 = icmp ne i8 %50, 0
  call void @llvm.lifetime.end.p0i8(i64 1, i8* nonnull %6) #12
  call void @llvm.lifetime.end.p0i8(i64 16, i8* nonnull %14) #12
  call void @_ZN4mojo7MessageD1Ev(%"class.mojo::Message"* nonnull %4) #12
  call void @llvm.lifetime.end.p0i8(i64 120, i8* nonnull %7) #12
  ret i1 %51
}

; Function Attrs: nounwind ssp uwtable
define hidden void @_ZN5blink5mojom5blink22FileSystemManagerProxy15GetPlatformPathERKNS_4KURLEN4base12OnceCallbackIFvRKNS6_8FilePathEEEE(%"class.blink::mojom::blink::FileSystemManagerProxy"* nocapture readonly, %"class.blink::KURL"* dereferenceable(112), %"class.base::OnceCallback.99"* nocapture) unnamed_addr #0 align 2 {
  %4 = alloca %"class.mojo::Message", align 8
  %5 = alloca %"class.mojo::internal::MessageFragment.75", align 8
  %6 = alloca %"class.base::OnceCallback.99", align 8
  %7 = bitcast %"class.mojo::Message"* %4 to i8*
  call void @llvm.lifetime.start.p0i8(i64 120, i8* nonnull %7) #12
  call void @llvm.memset.p0i8.i64(i8* nonnull align 8 %7, i8 -86, i64 120, i1 false)
  call void @_ZN4mojo7MessageC1EjjmmPNSt3__16vectorINS_16ScopedHandleBaseINS_6HandleEEENS1_9allocatorIS5_EEEE(%"class.mojo::Message"* nonnull %4, i32 15, i32 1, i64 0, i64 0, %"class.std::__1::vector"* null) #12
  %8 = getelementptr inbounds %"class.mojo::Message", %"class.mojo::Message"* %4, i64 0, i32 1
  %9 = call i64 @_ZN4mojo8internal6Buffer8AllocateEm(%"class.mojo::internal::Buffer"* %8, i64 16) #12
  %10 = getelementptr inbounds %"class.mojo::Message", %"class.mojo::Message"* %4, i64 0, i32 1, i32 2
  %11 = load i8*, i8** %10, align 8
  %12 = getelementptr inbounds i8, i8* %11, i64 %9
  %13 = bitcast i8* %12 to %"class.blink::mojom::internal::FileSystemManager_GetPlatformPath_Params_Data"*
  call void @_ZN5blink5mojom8internal45FileSystemManager_GetPlatformPath_Params_DataC1Ev(%"class.blink::mojom::internal::FileSystemManager_GetPlatformPath_Params_Data"* %13) #12
  %14 = bitcast %"class.mojo::internal::MessageFragment.75"* %5 to i8*
  call void @llvm.lifetime.start.p0i8(i64 16, i8* nonnull %14) #12
  %15 = getelementptr inbounds %"class.mojo::internal::MessageFragment.75", %"class.mojo::internal::MessageFragment.75"* %5, i64 0, i32 0
  %16 = getelementptr inbounds %"class.mojo::internal::MessageFragment.75", %"class.mojo::internal::MessageFragment.75"* %5, i64 0, i32 1
  store %"class.mojo::Message"* %4, %"class.mojo::Message"** %15, align 8
  store i64 -1, i64* %16, align 8
  call void @_ZN4mojo8internal10SerializerIN3url5mojom11UrlDataViewEKN5blink4KURLEE9SerializeERS7_RNS0_15MessageFragmentINS3_8internal8Url_DataEEE(%"class.blink::KURL"* dereferenceable(112) %1, %"class.mojo::internal::MessageFragment.75"* nonnull dereferenceable(16) %5) #12
  %17 = load i8*, i8** %10, align 8
  %18 = getelementptr inbounds i8, i8* %17, i64 %9
  %19 = getelementptr inbounds i8, i8* %18, i64 8
  %20 = load i64, i64* %16, align 8
  %21 = icmp eq i64 %20, -1
  br i1 %21, label %28, label %22

22:                                               ; preds = %3
  %23 = load %"class.mojo::Message"*, %"class.mojo::Message"** %15, align 8
  %24 = getelementptr inbounds %"class.mojo::Message", %"class.mojo::Message"* %23, i64 0, i32 1, i32 2
  %25 = load i8*, i8** %24, align 8
  %26 = getelementptr inbounds i8, i8* %25, i64 %20
  %27 = bitcast i8* %26 to %"class.url::mojom::internal::Url_Data"*
  br label %28

28:                                               ; preds = %22, %3
  %29 = phi %"class.url::mojom::internal::Url_Data"* [ %27, %22 ], [ null, %3 ]
  %30 = bitcast i8* %19 to i64*
  %31 = icmp eq %"class.url::mojom::internal::Url_Data"* %29, null
  %32 = ptrtoint %"class.url::mojom::internal::Url_Data"* %29 to i64
  %33 = ptrtoint i8* %19 to i64
  %34 = sub i64 %32, %33
  %35 = select i1 %31, i64 0, i64 %34
  store i64 %35, i64* %30, align 8
  %36 = call i8* @_Znwm(i64 16) #13
  %37 = getelementptr inbounds %"class.base::OnceCallback.99", %"class.base::OnceCallback.99"* %2, i64 0, i32 0, i32 0, i32 0
  %38 = bitcast %"class.base::OnceCallback.99"* %2 to i64*
  %39 = load i64, i64* %38, align 8
  store %"class.base::internal::BindStateBase"* null, %"class.base::internal::BindStateBase"** %37, align 8
  %40 = bitcast i8* %36 to i32 (...)***
  store i32 (...)** bitcast (i8** getelementptr inbounds ({ [6 x i8*] }, { [6 x i8*] }* @_ZTVN5blink5mojom5blink51FileSystemManager_GetPlatformPath_ForwardToCallbackE, i64 0, inrange i32 0, i64 2) to i32 (...)**), i32 (...)*** %40, align 8
  %41 = getelementptr inbounds i8, i8* %36, i64 8
  %42 = getelementptr inbounds %"class.base::OnceCallback.99", %"class.base::OnceCallback.99"* %6, i64 0, i32 0, i32 0, i32 0
  %43 = bitcast i8* %41 to i64*
  store i64 %39, i64* %43, align 8
  store %"class.base::internal::BindStateBase"* null, %"class.base::internal::BindStateBase"** %42, align 8
  %44 = bitcast i8* %36 to %"class.mojo::MessageReceiver"*
  %45 = getelementptr inbounds %"class.base::OnceCallback.99", %"class.base::OnceCallback.99"* %6, i64 0, i32 0
  call void @_ZN4base8internal12CallbackBaseD2Ev(%"class.base::internal::CallbackBase"* nonnull %45) #12
  %46 = getelementptr inbounds %"class.blink::mojom::blink::FileSystemManagerProxy", %"class.blink::mojom::blink::FileSystemManagerProxy"* %0, i64 0, i32 1
  %47 = load %"class.mojo::MessageReceiverWithResponder"*, %"class.mojo::MessageReceiverWithResponder"** %46, align 8
  %48 = bitcast %"class.mojo::MessageReceiverWithResponder"* %47 to i1 (%"class.mojo::MessageReceiverWithResponder"*, %"class.mojo::Message"*, %"class.mojo::MessageReceiver"*)***
  %49 = load i1 (%"class.mojo::MessageReceiverWithResponder"*, %"class.mojo::Message"*, %"class.mojo::MessageReceiver"*)**, i1 (%"class.mojo::MessageReceiverWithResponder"*, %"class.mojo::Message"*, %"class.mojo::MessageReceiver"*)*** %48, align 8
  %50 = getelementptr inbounds i1 (%"class.mojo::MessageReceiverWithResponder"*, %"class.mojo::Message"*, %"class.mojo::MessageReceiver"*)*, i1 (%"class.mojo::MessageReceiverWithResponder"*, %"class.mojo::Message"*, %"class.mojo::MessageReceiver"*)** %49, i64 4
  %51 = load i1 (%"class.mojo::MessageReceiverWithResponder"*, %"class.mojo::Message"*, %"class.mojo::MessageReceiver"*)*, i1 (%"class.mojo::MessageReceiverWithResponder"*, %"class.mojo::Message"*, %"class.mojo::MessageReceiver"*)** %50, align 8
  %52 = call zeroext i1 %51(%"class.mojo::MessageReceiverWithResponder"* %47, %"class.mojo::Message"* nonnull %4, %"class.mojo::MessageReceiver"* nonnull %44) #12
  call void @llvm.lifetime.end.p0i8(i64 16, i8* nonnull %14) #12
  call void @_ZN4mojo7MessageD1Ev(%"class.mojo::Message"* nonnull %4) #12
  call void @llvm.lifetime.end.p0i8(i64 120, i8* nonnull %7) #12
  ret void
}

; Function Attrs: nounwind ssp uwtable
define hidden zeroext i1 @_ZN5blink5mojom5blink40FileSystemManager_Open_ForwardToCallback6AcceptEPN4mojo7MessageE(%"class.blink::mojom::blink::FileSystemManager_Open_ForwardToCallback"* nocapture, %"class.mojo::Message"*) unnamed_addr #0 align 2 {
  %3 = alloca %"class.base::OnceCallback.73", align 8
  %4 = alloca %"class.WTF::String", align 8
  %5 = alloca %"class.blink::KURL", align 8
  %6 = tail call i8* @_ZNK4mojo7Message7payloadEv(%"class.mojo::Message"* %1) #12
  %7 = bitcast %"class.WTF::String"* %4 to i8*
  call void @llvm.lifetime.start.p0i8(i64 8, i8* nonnull %7) #12
  %8 = getelementptr inbounds %"class.WTF::String", %"class.WTF::String"* %4, i64 0, i32 0, i32 0
  store %"class.WTF::StringImpl"* null, %"class.WTF::StringImpl"** %8, align 8
  %9 = getelementptr inbounds %"class.blink::KURL", %"class.blink::KURL"* %5, i64 0, i32 0
  call void @llvm.lifetime.start.p0i8(i64 112, i8* nonnull %9) #12
  call void @llvm.memset.p0i8.i64(i8* nonnull align 8 %9, i8 -86, i64 112, i1 false)
  call void @_ZN5blink4KURLC1Ev(%"class.blink::KURL"* nonnull %5) #12
  %10 = getelementptr inbounds i8, i8* %6, i64 8
  %11 = bitcast i8* %10 to i64*
  %12 = load i64, i64* %11, align 8
  %13 = icmp eq i64 %12, 0
  br i1 %13, label %14, label %15

14:                                               ; preds = %2
  call void @_ZN4mojo12StringTraitsIN3WTF6StringEE9SetToNullEPS2_(%"class.WTF::String"* nonnull %4) #12
  br label %22

15:                                               ; preds = %2
  %16 = getelementptr inbounds i8, i8* %10, i64 %12
  %17 = bitcast i8* %16 to %"class.mojo::internal::Array_Data.91"*
  %18 = call zeroext i1 @_ZN4mojo12StringTraitsIN3WTF6StringEE4ReadENS_14StringDataViewEPS2_(%"class.mojo::internal::Array_Data.91"* nonnull %17, %"class.WTF::String"* nonnull %4) #12
  br i1 %18, label %19, label %37

19:                                               ; preds = %15
  %20 = call zeroext i1 @_ZN4mojo12StringTraitsIN3WTF6StringEE11IsValidUTF8ERKS2_(%"class.WTF::String"* nonnull dereferenceable(8) %4) #12
  br i1 %20, label %22, label %21

21:                                               ; preds = %19
  call void @_ZN4mojo8internal34RecordInvalidStringDeserializationEv() #12
  br label %22

22:                                               ; preds = %14, %21, %19
  %23 = getelementptr inbounds i8, i8* %6, i64 16
  %24 = bitcast i8* %23 to i64*
  %25 = load i64, i64* %24, align 8
  %26 = icmp eq i64 %25, 0
  br i1 %26, label %31, label %27

27:                                               ; preds = %22
  %28 = getelementptr inbounds i8, i8* %23, i64 %25
  %29 = bitcast i8* %28 to %"class.url::mojom::internal::Url_Data"*
  %30 = call zeroext i1 @_ZN4mojo12StructTraitsIN3url5mojom11UrlDataViewEN5blink4KURLEE4ReadES3_PS5_(%"class.url::mojom::internal::Url_Data"* nonnull %29, %"class.mojo::Message"* %1, %"class.blink::KURL"* nonnull %5) #12
  br i1 %30, label %31, label %37

31:                                               ; preds = %22, %27
  %32 = getelementptr inbounds i8, i8* %6, i64 24
  %33 = bitcast i8* %32 to i32*
  %34 = load i32, i32* %33, align 4
  %35 = add i32 %34, 16
  %36 = icmp ult i32 %35, 17
  br i1 %36, label %38, label %37

37:                                               ; preds = %31, %27, %15
  call void @_ZN4mojo8internal31ReportValidationErrorForMessageEPNS_7MessageENS0_15ValidationErrorEPKcjb(%"class.mojo::Message"* %1, i32 17, i8* getelementptr inbounds ([30 x i8], [30 x i8]* @_ZN5blink5mojom5blink17FileSystemManager5Name_E, i64 0, i64 0), i32 0, i1 zeroext true) #12
  br label %50

38:                                               ; preds = %31
  %39 = getelementptr inbounds %"class.blink::mojom::blink::FileSystemManager_Open_ForwardToCallback", %"class.blink::mojom::blink::FileSystemManager_Open_ForwardToCallback"* %0, i64 0, i32 1, i32 0, i32 0, i32 0
  %40 = load %"class.base::internal::BindStateBase"*, %"class.base::internal::BindStateBase"** %39, align 8
  %41 = icmp eq %"class.base::internal::BindStateBase"* %40, null
  br i1 %41, label %50, label %42

42:                                               ; preds = %38
  %43 = ptrtoint %"class.base::internal::BindStateBase"* %40 to i64
  %44 = bitcast %"class.base::OnceCallback.73"* %3 to i8*
  call void @llvm.lifetime.start.p0i8(i64 8, i8* nonnull %44) #12
  %45 = bitcast %"class.base::OnceCallback.73"* %3 to i64*
  store i64 %43, i64* %45, align 8
  store %"class.base::internal::BindStateBase"* null, %"class.base::internal::BindStateBase"** %39, align 8
  %46 = getelementptr inbounds %"class.base::OnceCallback.73", %"class.base::OnceCallback.73"* %3, i64 0, i32 0
  %47 = getelementptr inbounds %"class.base::internal::BindStateBase", %"class.base::internal::BindStateBase"* %40, i64 0, i32 1
  %48 = bitcast void ()** %47 to void (%"class.base::internal::BindStateBase"*, %"class.WTF::String"*, %"class.blink::KURL"*, i32)**
  %49 = load void (%"class.base::internal::BindStateBase"*, %"class.WTF::String"*, %"class.blink::KURL"*, i32)*, void (%"class.base::internal::BindStateBase"*, %"class.WTF::String"*, %"class.blink::KURL"*, i32)** %48, align 8
  call void %49(%"class.base::internal::BindStateBase"* nonnull %40, %"class.WTF::String"* nonnull dereferenceable(8) %4, %"class.blink::KURL"* nonnull dereferenceable(112) %5, i32 %34) #12
  call void @_ZN4base8internal12CallbackBaseD2Ev(%"class.base::internal::CallbackBase"* nonnull %46) #12
  call void @llvm.lifetime.end.p0i8(i64 8, i8* nonnull %44) #12
  br label %50

50:                                               ; preds = %38, %42, %37
  %51 = phi i1 [ false, %37 ], [ true, %42 ], [ true, %38 ]
  call void @_ZN5blink4KURLD1Ev(%"class.blink::KURL"* nonnull %5) #12
  call void @llvm.lifetime.end.p0i8(i64 112, i8* nonnull %9) #12
  %52 = load %"class.WTF::StringImpl"*, %"class.WTF::StringImpl"** %8, align 8
  %53 = icmp eq %"class.WTF::StringImpl"* %52, null
  br i1 %53, label %67, label %54

54:                                               ; preds = %50
  %55 = getelementptr inbounds %"class.WTF::StringImpl", %"class.WTF::StringImpl"* %52, i64 0, i32 2, i32 0, i32 0, i32 0, i32 0, i32 0
  %56 = load atomic i32, i32* %55 monotonic, align 4
  %57 = and i32 %56, 2
  %58 = icmp eq i32 %57, 0
  %59 = getelementptr inbounds %"class.WTF::StringImpl", %"class.WTF::StringImpl"* %52, i64 0, i32 0
  %60 = load i32, i32* %59, align 4
  br i1 %58, label %61, label %63

61:                                               ; preds = %54
  %62 = add i32 %60, -1
  store i32 %62, i32* %59, align 4
  br label %63

63:                                               ; preds = %61, %54
  %64 = phi i32 [ %62, %61 ], [ %60, %54 ]
  %65 = icmp eq i32 %64, 0
  br i1 %65, label %66, label %67

66:                                               ; preds = %63
  call void @_ZNK3WTF10StringImpl18DestroyIfNotStaticEv(%"class.WTF::StringImpl"* nonnull %52) #12
  br label %67

67:                                               ; preds = %50, %63, %66
  call void @llvm.lifetime.end.p0i8(i64 8, i8* nonnull %7) #12
  ret i1 %51
}

; Function Attrs: nounwind ssp uwtable
define hidden void @_ZN5blink5mojom5blink39FileSystemManager_Open_ProxyToResponder3RunERKN3WTF6StringERKNS_4KURLEN4base4File5ErrorE(%"class.blink::mojom::blink::FileSystemManager_Open_ProxyToResponder"* nocapture, %"class.WTF::String"* dereferenceable(8), %"class.blink::KURL"* dereferenceable(112), i32) #0 align 2 {
  %5 = alloca %"class.WTF::StringUTF8Adaptor", align 8
  %6 = alloca %"class.mojo::Message", align 8
  %7 = alloca %"class.mojo::internal::MessageFragment.75", align 8
  %8 = getelementptr inbounds %"class.blink::mojom::blink::FileSystemManager_Open_ProxyToResponder", %"class.blink::mojom::blink::FileSystemManager_Open_ProxyToResponder"* %0, i64 0, i32 1
  %9 = load i8, i8* %8, align 8, !range !3
  %10 = icmp eq i8 %9, 0
  %11 = select i1 %10, i32 2, i32 6
  %12 = bitcast %"class.mojo::Message"* %6 to i8*
  call void @llvm.lifetime.start.p0i8(i64 120, i8* nonnull %12) #12
  call void @llvm.memset.p0i8.i64(i8* nonnull align 8 %12, i8 -86, i64 120, i1 false)
  call void @_ZN4mojo7MessageC1EjjmmPNSt3__16vectorINS_16ScopedHandleBaseINS_6HandleEEENS1_9allocatorIS5_EEEE(%"class.mojo::Message"* nonnull %6, i32 0, i32 %11, i64 0, i64 0, %"class.std::__1::vector"* null) #12
  %13 = getelementptr inbounds %"class.mojo::Message", %"class.mojo::Message"* %6, i64 0, i32 1
  %14 = call i64 @_ZN4mojo8internal6Buffer8AllocateEm(%"class.mojo::internal::Buffer"* %13, i64 32) #12
  %15 = getelementptr inbounds %"class.mojo::Message", %"class.mojo::Message"* %6, i64 0, i32 1, i32 2
  %16 = load i8*, i8** %15, align 8
  %17 = getelementptr inbounds i8, i8* %16, i64 %14
  %18 = bitcast i8* %17 to %"class.blink::mojom::internal::FileSystemManager_Open_ResponseParams_Data"*
  call void @_ZN5blink5mojom8internal42FileSystemManager_Open_ResponseParams_DataC1Ev(%"class.blink::mojom::internal::FileSystemManager_Open_ResponseParams_Data"* %18) #12
  %19 = getelementptr inbounds %"class.WTF::String", %"class.WTF::String"* %1, i64 0, i32 0, i32 0
  %20 = load %"class.WTF::StringImpl"*, %"class.WTF::StringImpl"** %19, align 8
  %21 = icmp eq %"class.WTF::StringImpl"* %20, null
  br i1 %21, label %22, label %27

22:                                               ; preds = %4
  %23 = load i8*, i8** %15, align 8
  %24 = getelementptr inbounds i8, i8* %23, i64 %14
  %25 = getelementptr inbounds i8, i8* %24, i64 8
  %26 = bitcast i8* %25 to %"struct.mojo::internal::Pointer.71"*
  br label %59

27:                                               ; preds = %4
  %28 = bitcast %"class.WTF::StringUTF8Adaptor"* %5 to i8*
  call void @llvm.lifetime.start.p0i8(i64 40, i8* nonnull %28) #12
  call void @llvm.memset.p0i8.i64(i8* nonnull align 8 %28, i8 -86, i64 40, i1 false) #12
  call void @_ZN4mojo12StringTraitsIN3WTF6StringEE7GetUTF8ERKS2_(%"class.WTF::StringUTF8Adaptor"* nonnull sret %5, %"class.WTF::String"* dereferenceable(8) %1) #12
  %29 = getelementptr inbounds %"class.WTF::StringUTF8Adaptor", %"class.WTF::StringUTF8Adaptor"* %5, i64 0, i32 2
  %30 = load i32, i32* %29, align 8
  %31 = icmp ugt i32 %30, -9
  br i1 %31, label %42, label %32

32:                                               ; preds = %27
  %33 = add nuw i32 %30, 8
  %34 = zext i32 %33 to i64
  %35 = call i64 @_ZN4mojo8internal6Buffer8AllocateEm(%"class.mojo::internal::Buffer"* %13, i64 %34) #12
  %36 = load i8*, i8** %15, align 8
  %37 = getelementptr inbounds i8, i8* %36, i64 %35
  %38 = bitcast i8* %37 to i32*
  store i32 %33, i32* %38, align 1
  %39 = getelementptr inbounds i8, i8* %37, i64 4
  %40 = bitcast i8* %39 to i32*
  store i32 %30, i32* %40, align 1
  %41 = load i32, i32* %29, align 8
  br label %42

42:                                               ; preds = %27, %32
  %43 = phi i64 [ -1, %27 ], [ %35, %32 ]
  %44 = phi i32 [ %30, %27 ], [ %41, %32 ]
  %45 = load i8*, i8** %15, align 8
  %46 = getelementptr inbounds i8, i8* %45, i64 %43
  %47 = getelementptr inbounds i8, i8* %46, i64 8
  %48 = getelementptr inbounds %"class.WTF::StringUTF8Adaptor", %"class.WTF::StringUTF8Adaptor"* %5, i64 0, i32 1
  %49 = load i8*, i8** %48, align 8
  %50 = zext i32 %44 to i64
  call void @llvm.memcpy.p0i8.p0i8.i64(i8* align 1 %47, i8* align 1 %49, i64 %50, i1 false) #12
  call void @_ZN3WTF17StringUTF8AdaptorD1Ev(%"class.WTF::StringUTF8Adaptor"* nonnull %5) #12
  call void @llvm.lifetime.end.p0i8(i64 40, i8* nonnull %28) #12
  %51 = load i8*, i8** %15, align 8
  %52 = getelementptr inbounds i8, i8* %51, i64 %14
  %53 = getelementptr inbounds i8, i8* %52, i64 8
  %54 = bitcast i8* %53 to %"struct.mojo::internal::Pointer.71"*
  %55 = icmp eq i64 %43, -1
  br i1 %55, label %59, label %56

56:                                               ; preds = %42
  %57 = getelementptr inbounds i8, i8* %51, i64 %43
  %58 = bitcast i8* %57 to %"class.mojo::internal::Array_Data.91"*
  br label %59

59:                                               ; preds = %22, %42, %56
  %60 = phi %"struct.mojo::internal::Pointer.71"* [ %54, %56 ], [ %54, %42 ], [ %26, %22 ]
  %61 = phi %"class.mojo::internal::Array_Data.91"* [ %58, %56 ], [ null, %42 ], [ null, %22 ]
  %62 = getelementptr inbounds %"struct.mojo::internal::Pointer.71", %"struct.mojo::internal::Pointer.71"* %60, i64 0, i32 0
  %63 = icmp eq %"class.mojo::internal::Array_Data.91"* %61, null
  %64 = ptrtoint %"class.mojo::internal::Array_Data.91"* %61 to i64
  %65 = ptrtoint %"struct.mojo::internal::Pointer.71"* %60 to i64
  %66 = sub i64 %64, %65
  %67 = select i1 %63, i64 0, i64 %66
  store i64 %67, i64* %62, align 8
  %68 = bitcast %"class.mojo::internal::MessageFragment.75"* %7 to i8*
  call void @llvm.lifetime.start.p0i8(i64 16, i8* nonnull %68) #12
  %69 = getelementptr inbounds %"class.mojo::internal::MessageFragment.75", %"class.mojo::internal::MessageFragment.75"* %7, i64 0, i32 0
  %70 = getelementptr inbounds %"class.mojo::internal::MessageFragment.75", %"class.mojo::internal::MessageFragment.75"* %7, i64 0, i32 1
  store %"class.mojo::Message"* %6, %"class.mojo::Message"** %69, align 8
  store i64 -1, i64* %70, align 8
  call void @_ZN4mojo8internal10SerializerIN3url5mojom11UrlDataViewEKN5blink4KURLEE9SerializeERS7_RNS0_15MessageFragmentINS3_8internal8Url_DataEEE(%"class.blink::KURL"* dereferenceable(112) %2, %"class.mojo::internal::MessageFragment.75"* nonnull dereferenceable(16) %7) #12
  %71 = load i8*, i8** %15, align 8
  %72 = getelementptr inbounds i8, i8* %71, i64 %14
  %73 = getelementptr inbounds i8, i8* %72, i64 16
  %74 = load i64, i64* %70, align 8
  %75 = icmp eq i64 %74, -1
  br i1 %75, label %82, label %76

76:                                               ; preds = %59
  %77 = load %"class.mojo::Message"*, %"class.mojo::Message"** %69, align 8
  %78 = getelementptr inbounds %"class.mojo::Message", %"class.mojo::Message"* %77, i64 0, i32 1, i32 2
  %79 = load i8*, i8** %78, align 8
  %80 = getelementptr inbounds i8, i8* %79, i64 %74
  %81 = bitcast i8* %80 to %"class.url::mojom::internal::Url_Data"*
  br label %82

82:                                               ; preds = %59, %76
  %83 = phi %"class.url::mojom::internal::Url_Data"* [ %81, %76 ], [ null, %59 ]
  %84 = bitcast i8* %73 to i64*
  %85 = icmp eq %"class.url::mojom::internal::Url_Data"* %83, null
  %86 = ptrtoint %"class.url::mojom::internal::Url_Data"* %83 to i64
  %87 = ptrtoint i8* %73 to i64
  %88 = sub i64 %86, %87
  %89 = select i1 %85, i64 0, i64 %88
  store i64 %89, i64* %84, align 8
  %90 = load i8*, i8** %15, align 8
  %91 = getelementptr inbounds i8, i8* %90, i64 %14
  %92 = getelementptr inbounds i8, i8* %91, i64 24
  %93 = bitcast i8* %92 to i32*
  %94 = add i32 %3, 17
  %95 = icmp ult i32 %94, 18
  br i1 %95, label %96, label %100

96:                                               ; preds = %82
  %97 = sext i32 %94 to i64
  %98 = getelementptr inbounds [18 x i32], [18 x i32]* @switch.table._ZN5blink5mojom5blink53FileSystemManager_CreateSnapshotFile_ProxyToResponder3RunERKN4base4File4InfoERKNS3_8FilePathENS4_5ErrorEN4mojo13PendingRemoteINS1_24ReceivedSnapshotListenerEEE, i64 0, i64 %97
  %99 = load i32, i32* %98, align 4
  br label %100

100:                                              ; preds = %82, %96
  %101 = phi i32 [ %99, %96 ], [ -1, %82 ]
  store i32 %101, i32* %93, align 4
  %102 = getelementptr inbounds %"class.blink::mojom::blink::FileSystemManager_Open_ProxyToResponder", %"class.blink::mojom::blink::FileSystemManager_Open_ProxyToResponder"* %0, i64 0, i32 0
  %103 = load i64, i64* %102, align 8
  %104 = bitcast i8** %15 to %"struct.mojo::internal::MessageHeaderV1"**
  %105 = load %"struct.mojo::internal::MessageHeaderV1"*, %"struct.mojo::internal::MessageHeaderV1"** %104, align 8
  %106 = getelementptr inbounds %"struct.mojo::internal::MessageHeaderV1", %"struct.mojo::internal::MessageHeaderV1"* %105, i64 0, i32 1
  store i64 %103, i64* %106, align 1
  %107 = getelementptr inbounds %"class.blink::mojom::blink::FileSystemManager_Open_ProxyToResponder", %"class.blink::mojom::blink::FileSystemManager_Open_ProxyToResponder"* %0, i64 0, i32 2, i32 0, i32 0, i32 0
  %108 = load %"class.mojo::MessageReceiverWithStatus"*, %"class.mojo::MessageReceiverWithStatus"** %107, align 8
  %109 = getelementptr inbounds %"class.mojo::MessageReceiverWithStatus", %"class.mojo::MessageReceiverWithStatus"* %108, i64 0, i32 0
  %110 = bitcast %"class.mojo::MessageReceiverWithStatus"* %108 to i1 (%"class.mojo::MessageReceiver"*, %"class.mojo::Message"*)***
  %111 = load i1 (%"class.mojo::MessageReceiver"*, %"class.mojo::Message"*)**, i1 (%"class.mojo::MessageReceiver"*, %"class.mojo::Message"*)*** %110, align 8
  %112 = getelementptr inbounds i1 (%"class.mojo::MessageReceiver"*, %"class.mojo::Message"*)*, i1 (%"class.mojo::MessageReceiver"*, %"class.mojo::Message"*)** %111, i64 3
  %113 = load i1 (%"class.mojo::MessageReceiver"*, %"class.mojo::Message"*)*, i1 (%"class.mojo::MessageReceiver"*, %"class.mojo::Message"*)** %112, align 8
  %114 = call zeroext i1 %113(%"class.mojo::MessageReceiver"* %109, %"class.mojo::Message"* nonnull %6) #12
  %115 = load %"class.mojo::MessageReceiverWithStatus"*, %"class.mojo::MessageReceiverWithStatus"** %107, align 8
  store %"class.mojo::MessageReceiverWithStatus"* null, %"class.mojo::MessageReceiverWithStatus"** %107, align 8
  %116 = icmp eq %"class.mojo::MessageReceiverWithStatus"* %115, null
  br i1 %116, label %122, label %117

117:                                              ; preds = %100
  %118 = bitcast %"class.mojo::MessageReceiverWithStatus"* %115 to void (%"class.mojo::MessageReceiverWithStatus"*)***
  %119 = load void (%"class.mojo::MessageReceiverWithStatus"*)**, void (%"class.mojo::MessageReceiverWithStatus"*)*** %118, align 8
  %120 = getelementptr inbounds void (%"class.mojo::MessageReceiverWithStatus"*)*, void (%"class.mojo::MessageReceiverWithStatus"*)** %119, i64 1
  %121 = load void (%"class.mojo::MessageReceiverWithStatus"*)*, void (%"class.mojo::MessageReceiverWithStatus"*)** %120, align 8
  call void %121(%"class.mojo::MessageReceiverWithStatus"* nonnull %115) #12
  br label %122

122:                                              ; preds = %100, %117
  call void @llvm.lifetime.end.p0i8(i64 16, i8* nonnull %68) #12
  call void @_ZN4mojo7MessageD1Ev(%"class.mojo::Message"* nonnull %6) #12
  call void @llvm.lifetime.end.p0i8(i64 120, i8* nonnull %12) #12
  ret void
}

; Function Attrs: nounwind ssp uwtable
define hidden zeroext i1 @_ZN5blink5mojom5blink41FileSystemManager_Open_HandleSyncResponse6AcceptEPN4mojo7MessageE(%"class.blink::mojom::blink::FileSystemManager_Open_HandleSyncResponse"* nocapture readonly, %"class.mojo::Message"*) unnamed_addr #0 align 2 {
  %3 = alloca %"class.WTF::String", align 8
  %4 = alloca %"class.blink::KURL", align 8
  %5 = tail call i8* @_ZNK4mojo7Message7payloadEv(%"class.mojo::Message"* %1) #12
  %6 = bitcast %"class.WTF::String"* %3 to i8*
  call void @llvm.lifetime.start.p0i8(i64 8, i8* nonnull %6) #12
  %7 = getelementptr inbounds %"class.WTF::String", %"class.WTF::String"* %3, i64 0, i32 0, i32 0
  %8 = bitcast %"class.WTF::String"* %3 to i64*
  store %"class.WTF::StringImpl"* null, %"class.WTF::StringImpl"** %7, align 8
  %9 = getelementptr inbounds %"class.blink::KURL", %"class.blink::KURL"* %4, i64 0, i32 0
  call void @llvm.lifetime.start.p0i8(i64 112, i8* nonnull %9) #12
  call void @llvm.memset.p0i8.i64(i8* nonnull align 8 %9, i8 -86, i64 112, i1 false)
  call void @_ZN5blink4KURLC1Ev(%"class.blink::KURL"* nonnull %4) #12
  %10 = getelementptr inbounds i8, i8* %5, i64 8
  %11 = bitcast i8* %10 to i64*
  %12 = load i64, i64* %11, align 8
  %13 = icmp eq i64 %12, 0
  br i1 %13, label %14, label %15

14:                                               ; preds = %2
  call void @_ZN4mojo12StringTraitsIN3WTF6StringEE9SetToNullEPS2_(%"class.WTF::String"* nonnull %3) #12
  br label %22

15:                                               ; preds = %2
  %16 = getelementptr inbounds i8, i8* %10, i64 %12
  %17 = bitcast i8* %16 to %"class.mojo::internal::Array_Data.91"*
  %18 = call zeroext i1 @_ZN4mojo12StringTraitsIN3WTF6StringEE4ReadENS_14StringDataViewEPS2_(%"class.mojo::internal::Array_Data.91"* nonnull %17, %"class.WTF::String"* nonnull %3) #12
  br i1 %18, label %19, label %37

19:                                               ; preds = %15
  %20 = call zeroext i1 @_ZN4mojo12StringTraitsIN3WTF6StringEE11IsValidUTF8ERKS2_(%"class.WTF::String"* nonnull dereferenceable(8) %3) #12
  br i1 %20, label %22, label %21

21:                                               ; preds = %19
  call void @_ZN4mojo8internal34RecordInvalidStringDeserializationEv() #12
  br label %22

22:                                               ; preds = %14, %21, %19
  %23 = getelementptr inbounds i8, i8* %5, i64 16
  %24 = bitcast i8* %23 to i64*
  %25 = load i64, i64* %24, align 8
  %26 = icmp eq i64 %25, 0
  br i1 %26, label %31, label %27

27:                                               ; preds = %22
  %28 = getelementptr inbounds i8, i8* %23, i64 %25
  %29 = bitcast i8* %28 to %"class.url::mojom::internal::Url_Data"*
  %30 = call zeroext i1 @_ZN4mojo12StructTraitsIN3url5mojom11UrlDataViewEN5blink4KURLEE4ReadES3_PS5_(%"class.url::mojom::internal::Url_Data"* nonnull %29, %"class.mojo::Message"* %1, %"class.blink::KURL"* nonnull %4) #12
  br i1 %30, label %31, label %37

31:                                               ; preds = %22, %27
  %32 = getelementptr inbounds i8, i8* %5, i64 24
  %33 = bitcast i8* %32 to i32*
  %34 = load i32, i32* %33, align 4
  %35 = add i32 %34, 16
  %36 = icmp ult i32 %35, 17
  br i1 %36, label %38, label %37

37:                                               ; preds = %31, %27, %15
  call void @_ZN4mojo8internal31ReportValidationErrorForMessageEPNS_7MessageENS0_15ValidationErrorEPKcjb(%"class.mojo::Message"* %1, i32 17, i8* getelementptr inbounds ([30 x i8], [30 x i8]* @_ZN5blink5mojom5blink17FileSystemManager5Name_E, i64 0, i64 0), i32 0, i1 zeroext true) #12
  br label %67

38:                                               ; preds = %31
  %39 = getelementptr inbounds %"class.blink::mojom::blink::FileSystemManager_Open_HandleSyncResponse", %"class.blink::mojom::blink::FileSystemManager_Open_HandleSyncResponse"* %0, i64 0, i32 2
  %40 = load %"class.WTF::String"*, %"class.WTF::String"** %39, align 8
  %41 = load i64, i64* %8, align 8
  store %"class.WTF::StringImpl"* null, %"class.WTF::StringImpl"** %7, align 8
  %42 = bitcast %"class.WTF::String"* %40 to i64*
  %43 = getelementptr inbounds %"class.WTF::String", %"class.WTF::String"* %40, i64 0, i32 0, i32 0
  %44 = load %"class.WTF::StringImpl"*, %"class.WTF::StringImpl"** %43, align 8
  store i64 %41, i64* %42, align 8
  %45 = icmp eq %"class.WTF::StringImpl"* %44, null
  br i1 %45, label %59, label %46

46:                                               ; preds = %38
  %47 = getelementptr inbounds %"class.WTF::StringImpl", %"class.WTF::StringImpl"* %44, i64 0, i32 2, i32 0, i32 0, i32 0, i32 0, i32 0
  %48 = load atomic i32, i32* %47 monotonic, align 4
  %49 = and i32 %48, 2
  %50 = icmp eq i32 %49, 0
  %51 = getelementptr inbounds %"class.WTF::StringImpl", %"class.WTF::StringImpl"* %44, i64 0, i32 0
  %52 = load i32, i32* %51, align 4
  br i1 %50, label %53, label %55

53:                                               ; preds = %46
  %54 = add i32 %52, -1
  store i32 %54, i32* %51, align 4
  br label %55

55:                                               ; preds = %53, %46
  %56 = phi i32 [ %54, %53 ], [ %52, %46 ]
  %57 = icmp eq i32 %56, 0
  br i1 %57, label %58, label %59

58:                                               ; preds = %55
  call void @_ZNK3WTF10StringImpl18DestroyIfNotStaticEv(%"class.WTF::StringImpl"* nonnull %44) #12
  br label %59

59:                                               ; preds = %38, %55, %58
  %60 = getelementptr inbounds %"class.blink::mojom::blink::FileSystemManager_Open_HandleSyncResponse", %"class.blink::mojom::blink::FileSystemManager_Open_HandleSyncResponse"* %0, i64 0, i32 3
  %61 = load %"class.blink::KURL"*, %"class.blink::KURL"** %60, align 8
  %62 = call dereferenceable(112) %"class.blink::KURL"* @_ZN5blink4KURLaSERKS0_(%"class.blink::KURL"* %61, %"class.blink::KURL"* nonnull dereferenceable(112) %4) #12
  %63 = getelementptr inbounds %"class.blink::mojom::blink::FileSystemManager_Open_HandleSyncResponse", %"class.blink::mojom::blink::FileSystemManager_Open_HandleSyncResponse"* %0, i64 0, i32 4
  %64 = load i32*, i32** %63, align 8
  store i32 %34, i32* %64, align 4
  %65 = getelementptr inbounds %"class.blink::mojom::blink::FileSystemManager_Open_HandleSyncResponse", %"class.blink::mojom::blink::FileSystemManager_Open_HandleSyncResponse"* %0, i64 0, i32 1
  %66 = load i8*, i8** %65, align 8
  store i8 1, i8* %66, align 1
  br label %67

67:                                               ; preds = %59, %37
  %68 = phi i1 [ true, %59 ], [ false, %37 ]
  call void @_ZN5blink4KURLD1Ev(%"class.blink::KURL"* nonnull %4) #12
  call void @llvm.lifetime.end.p0i8(i64 112, i8* nonnull %9) #12
  %69 = load %"class.WTF::StringImpl"*, %"class.WTF::StringImpl"** %7, align 8
  %70 = icmp eq %"class.WTF::StringImpl"* %69, null
  br i1 %70, label %84, label %71

71:                                               ; preds = %67
  %72 = getelementptr inbounds %"class.WTF::StringImpl", %"class.WTF::StringImpl"* %69, i64 0, i32 2, i32 0, i32 0, i32 0, i32 0, i32 0
  %73 = load atomic i32, i32* %72 monotonic, align 4
  %74 = and i32 %73, 2
  %75 = icmp eq i32 %74, 0
  %76 = getelementptr inbounds %"class.WTF::StringImpl", %"class.WTF::StringImpl"* %69, i64 0, i32 0
  %77 = load i32, i32* %76, align 4
  br i1 %75, label %78, label %80

78:                                               ; preds = %71
  %79 = add i32 %77, -1
  store i32 %79, i32* %76, align 4
  br label %80

80:                                               ; preds = %78, %71
  %81 = phi i32 [ %79, %78 ], [ %77, %71 ]
  %82 = icmp eq i32 %81, 0
  br i1 %82, label %83, label %84

83:                                               ; preds = %80
  call void @_ZNK3WTF10StringImpl18DestroyIfNotStaticEv(%"class.WTF::StringImpl"* nonnull %69) #12
  br label %84

84:                                               ; preds = %67, %80, %83
  call void @llvm.lifetime.end.p0i8(i64 8, i8* nonnull %6) #12
  ret i1 %68
}

declare dereferenceable(112) %"class.blink::KURL"* @_ZN5blink4KURLaSERKS0_(%"class.blink::KURL"*, %"class.blink::KURL"* dereferenceable(112)) local_unnamed_addr #2

; Function Attrs: nounwind ssp uwtable
define hidden zeroext i1 @_ZN5blink5mojom5blink46FileSystemManager_ResolveURL_ForwardToCallback6AcceptEPN4mojo7MessageE(%"class.blink::mojom::blink::FileSystemManager_ResolveURL_ForwardToCallback"* nocapture, %"class.mojo::Message"*) unnamed_addr #0 align 2 {
  %3 = alloca %"class.base::OnceCallback.77", align 8
  %4 = alloca %"class.mojo::StructPtr.60", align 8
  %5 = alloca %"class.base::FilePath", align 8
  %6 = alloca %"class.mojo::StructPtr.60", align 8
  %7 = tail call i8* @_ZNK4mojo7Message7payloadEv(%"class.mojo::Message"* %1) #12
  %8 = bitcast %"class.mojo::StructPtr.60"* %4 to i8*
  call void @llvm.lifetime.start.p0i8(i64 8, i8* nonnull %8) #12
  %9 = getelementptr inbounds %"class.mojo::StructPtr.60", %"class.mojo::StructPtr.60"* %4, i64 0, i32 0, i32 0, i32 0, i32 0
  %10 = bitcast %"class.mojo::StructPtr.60"* %4 to i64*
  store i64 0, i64* %10, align 8
  %11 = bitcast %"class.base::FilePath"* %5 to i8*
  call void @llvm.lifetime.start.p0i8(i64 24, i8* nonnull %11) #12
  %12 = bitcast %"class.base::FilePath"* %5 to i8*
  call void @llvm.memset.p0i8.i64(i8* nonnull align 8 %12, i8 -86, i64 24, i1 false)
  call void @_ZN4base8FilePathC1Ev(%"class.base::FilePath"* nonnull %5) #12
  %13 = getelementptr inbounds i8, i8* %7, i64 8
  %14 = bitcast i8* %13 to i64*
  %15 = load i64, i64* %14, align 8
  %16 = icmp eq i64 %15, 0
  br i1 %16, label %17, label %18

17:                                               ; preds = %2
  store %"class.blink::mojom::blink::FileSystemInfo"* null, %"class.blink::mojom::blink::FileSystemInfo"** %9, align 8
  br label %22

18:                                               ; preds = %2
  %19 = getelementptr inbounds i8, i8* %13, i64 %15
  %20 = bitcast i8* %19 to %"class.blink::mojom::internal::FileSystemInfo_Data"*
  %21 = call zeroext i1 @_ZN4mojo12StructTraitsIN5blink5mojom22FileSystemInfoDataViewENS_9StructPtrINS2_5blink14FileSystemInfoEEEE4ReadES3_PS7_(%"class.blink::mojom::internal::FileSystemInfo_Data"* nonnull %20, %"class.mojo::Message"* %1, %"class.mojo::StructPtr.60"* nonnull %4) #12
  br i1 %21, label %22, label %40

22:                                               ; preds = %17, %18
  %23 = getelementptr inbounds i8, i8* %7, i64 16
  %24 = bitcast i8* %23 to i64*
  %25 = load i64, i64* %24, align 8
  %26 = icmp eq i64 %25, 0
  br i1 %26, label %31, label %27

27:                                               ; preds = %22
  %28 = getelementptr inbounds i8, i8* %23, i64 %25
  %29 = bitcast i8* %28 to %"class.mojo_base::mojom::internal::FilePath_Data"*
  %30 = call zeroext i1 @_ZN4mojo12StructTraitsIN9mojo_base5mojom16FilePathDataViewEN4base8FilePathEE4ReadES3_PS5_(%"class.mojo_base::mojom::internal::FilePath_Data"* nonnull %29, %"class.mojo::Message"* %1, %"class.base::FilePath"* nonnull %5) #12
  br i1 %30, label %31, label %40

31:                                               ; preds = %22, %27
  %32 = getelementptr inbounds i8, i8* %7, i64 24
  %33 = load i8, i8* %32, align 4
  %34 = and i8 %33, 1
  %35 = getelementptr inbounds i8, i8* %7, i64 28
  %36 = bitcast i8* %35 to i32*
  %37 = load i32, i32* %36, align 4
  %38 = add i32 %37, 16
  %39 = icmp ult i32 %38, 17
  br i1 %39, label %41, label %40

40:                                               ; preds = %31, %18, %27
  call void @_ZN4mojo8internal31ReportValidationErrorForMessageEPNS_7MessageENS0_15ValidationErrorEPKcjb(%"class.mojo::Message"* %1, i32 17, i8* getelementptr inbounds ([30 x i8], [30 x i8]* @_ZN5blink5mojom5blink17FileSystemManager5Name_E, i64 0, i64 0), i32 1, i1 zeroext true) #12
  br label %79

41:                                               ; preds = %31
  %42 = getelementptr inbounds %"class.blink::mojom::blink::FileSystemManager_ResolveURL_ForwardToCallback", %"class.blink::mojom::blink::FileSystemManager_ResolveURL_ForwardToCallback"* %0, i64 0, i32 1, i32 0, i32 0, i32 0
  %43 = load %"class.base::internal::BindStateBase"*, %"class.base::internal::BindStateBase"** %42, align 8
  %44 = icmp eq %"class.base::internal::BindStateBase"* %43, null
  br i1 %44, label %79, label %45

45:                                               ; preds = %41
  %46 = ptrtoint %"class.base::internal::BindStateBase"* %43 to i64
  %47 = bitcast %"class.mojo::StructPtr.60"* %6 to i64*
  %48 = getelementptr inbounds %"class.mojo::StructPtr.60", %"class.mojo::StructPtr.60"* %6, i64 0, i32 0, i32 0, i32 0, i32 0
  %49 = load i64, i64* %10, align 8
  store i64 %49, i64* %47, align 8
  store i64 0, i64* %10, align 8
  %50 = icmp ne i8 %34, 0
  %51 = bitcast %"class.base::OnceCallback.77"* %3 to i8*
  call void @llvm.lifetime.start.p0i8(i64 8, i8* nonnull %51) #12
  %52 = bitcast %"class.base::OnceCallback.77"* %3 to i64*
  store i64 %46, i64* %52, align 8
  store %"class.base::internal::BindStateBase"* null, %"class.base::internal::BindStateBase"** %42, align 8
  %53 = getelementptr inbounds %"class.base::OnceCallback.77", %"class.base::OnceCallback.77"* %3, i64 0, i32 0
  %54 = getelementptr inbounds %"class.base::internal::BindStateBase", %"class.base::internal::BindStateBase"* %43, i64 0, i32 1
  %55 = bitcast void ()** %54 to void (%"class.base::internal::BindStateBase"*, %"class.mojo::StructPtr.60"*, %"class.base::FilePath"*, i1, i32)**
  %56 = load void (%"class.base::internal::BindStateBase"*, %"class.mojo::StructPtr.60"*, %"class.base::FilePath"*, i1, i32)*, void (%"class.base::internal::BindStateBase"*, %"class.mojo::StructPtr.60"*, %"class.base::FilePath"*, i1, i32)** %55, align 8
  call void %56(%"class.base::internal::BindStateBase"* nonnull %43, %"class.mojo::StructPtr.60"* nonnull dereferenceable(8) %6, %"class.base::FilePath"* nonnull dereferenceable(24) %5, i1 zeroext %50, i32 %37) #12
  call void @_ZN4base8internal12CallbackBaseD2Ev(%"class.base::internal::CallbackBase"* nonnull %53) #12
  call void @llvm.lifetime.end.p0i8(i64 8, i8* nonnull %51) #12
  %57 = load %"class.blink::mojom::blink::FileSystemInfo"*, %"class.blink::mojom::blink::FileSystemInfo"** %48, align 8
  store %"class.blink::mojom::blink::FileSystemInfo"* null, %"class.blink::mojom::blink::FileSystemInfo"** %48, align 8
  %58 = icmp eq %"class.blink::mojom::blink::FileSystemInfo"* %57, null
  br i1 %58, label %79, label %59

59:                                               ; preds = %45
  %60 = getelementptr inbounds %"class.blink::mojom::blink::FileSystemInfo", %"class.blink::mojom::blink::FileSystemInfo"* %57, i64 0, i32 1
  call void @_ZN5blink4KURLD1Ev(%"class.blink::KURL"* %60) #12
  %61 = getelementptr inbounds %"class.blink::mojom::blink::FileSystemInfo", %"class.blink::mojom::blink::FileSystemInfo"* %57, i64 0, i32 0, i32 0, i32 0
  %62 = load %"class.WTF::StringImpl"*, %"class.WTF::StringImpl"** %61, align 8
  %63 = icmp eq %"class.WTF::StringImpl"* %62, null
  br i1 %63, label %77, label %64

64:                                               ; preds = %59
  %65 = getelementptr inbounds %"class.WTF::StringImpl", %"class.WTF::StringImpl"* %62, i64 0, i32 2, i32 0, i32 0, i32 0, i32 0, i32 0
  %66 = load atomic i32, i32* %65 monotonic, align 4
  %67 = and i32 %66, 2
  %68 = icmp eq i32 %67, 0
  %69 = getelementptr inbounds %"class.WTF::StringImpl", %"class.WTF::StringImpl"* %62, i64 0, i32 0
  %70 = load i32, i32* %69, align 4
  br i1 %68, label %71, label %73

71:                                               ; preds = %64
  %72 = add i32 %70, -1
  store i32 %72, i32* %69, align 4
  br label %73

73:                                               ; preds = %71, %64
  %74 = phi i32 [ %72, %71 ], [ %70, %64 ]
  %75 = icmp eq i32 %74, 0
  br i1 %75, label %76, label %77

76:                                               ; preds = %73
  call void @_ZNK3WTF10StringImpl18DestroyIfNotStaticEv(%"class.WTF::StringImpl"* nonnull %62) #12
  br label %77

77:                                               ; preds = %76, %73, %59
  %78 = bitcast %"class.blink::mojom::blink::FileSystemInfo"* %57 to i8*
  call void @_ZdlPv(i8* %78) #13
  br label %79

79:                                               ; preds = %77, %45, %41, %40
  %80 = phi i1 [ false, %40 ], [ true, %41 ], [ true, %45 ], [ true, %77 ]
  call void @_ZN4base8FilePathD1Ev(%"class.base::FilePath"* nonnull %5) #12
  call void @llvm.lifetime.end.p0i8(i64 24, i8* nonnull %11) #12
  %81 = load %"class.blink::mojom::blink::FileSystemInfo"*, %"class.blink::mojom::blink::FileSystemInfo"** %9, align 8
  store %"class.blink::mojom::blink::FileSystemInfo"* null, %"class.blink::mojom::blink::FileSystemInfo"** %9, align 8
  %82 = icmp eq %"class.blink::mojom::blink::FileSystemInfo"* %81, null
  br i1 %82, label %103, label %83

83:                                               ; preds = %79
  %84 = getelementptr inbounds %"class.blink::mojom::blink::FileSystemInfo", %"class.blink::mojom::blink::FileSystemInfo"* %81, i64 0, i32 1
  call void @_ZN5blink4KURLD1Ev(%"class.blink::KURL"* %84) #12
  %85 = getelementptr inbounds %"class.blink::mojom::blink::FileSystemInfo", %"class.blink::mojom::blink::FileSystemInfo"* %81, i64 0, i32 0, i32 0, i32 0
  %86 = load %"class.WTF::StringImpl"*, %"class.WTF::StringImpl"** %85, align 8
  %87 = icmp eq %"class.WTF::StringImpl"* %86, null
  br i1 %87, label %101, label %88

88:                                               ; preds = %83
  %89 = getelementptr inbounds %"class.WTF::StringImpl", %"class.WTF::StringImpl"* %86, i64 0, i32 2, i32 0, i32 0, i32 0, i32 0, i32 0
  %90 = load atomic i32, i32* %89 monotonic, align 4
  %91 = and i32 %90, 2
  %92 = icmp eq i32 %91, 0
  %93 = getelementptr inbounds %"class.WTF::StringImpl", %"class.WTF::StringImpl"* %86, i64 0, i32 0
  %94 = load i32, i32* %93, align 4
  br i1 %92, label %95, label %97

95:                                               ; preds = %88
  %96 = add i32 %94, -1
  store i32 %96, i32* %93, align 4
  br label %97

97:                                               ; preds = %95, %88
  %98 = phi i32 [ %96, %95 ], [ %94, %88 ]
  %99 = icmp eq i32 %98, 0
  br i1 %99, label %100, label %101

100:                                              ; preds = %97
  call void @_ZNK3WTF10StringImpl18DestroyIfNotStaticEv(%"class.WTF::StringImpl"* nonnull %86) #12
  br label %101

101:                                              ; preds = %100, %97, %83
  %102 = bitcast %"class.blink::mojom::blink::FileSystemInfo"* %81 to i8*
  call void @_ZdlPv(i8* %102) #13
  br label %103

103:                                              ; preds = %79, %101
  call void @llvm.lifetime.end.p0i8(i64 8, i8* nonnull %8) #12
  ret i1 %80
}

declare void @_ZN4base8FilePathC1Ev(%"class.base::FilePath"*) unnamed_addr #2

; Function Attrs: nounwind
declare void @_ZN4base8FilePathD1Ev(%"class.base::FilePath"*) unnamed_addr #3

; Function Attrs: nounwind ssp uwtable
define hidden void @_ZN5blink5mojom5blink45FileSystemManager_ResolveURL_ProxyToResponder3RunEN4mojo9StructPtrINS1_14FileSystemInfoEEERKN4base8FilePathEbNS7_4File5ErrorE(%"class.blink::mojom::blink::FileSystemManager_ResolveURL_ProxyToResponder"* nocapture, %"class.mojo::StructPtr.60"*, %"class.base::FilePath"* dereferenceable(24), i1 zeroext, i32) #0 align 2 {
  %6 = alloca %"class.mojo::internal::MessageFragment.90", align 8
  %7 = alloca %"class.mojo::Message", align 8
  %8 = alloca %"class.mojo::internal::MessageFragment.104", align 8
  %9 = zext i1 %3 to i8
  %10 = getelementptr inbounds %"class.blink::mojom::blink::FileSystemManager_ResolveURL_ProxyToResponder", %"class.blink::mojom::blink::FileSystemManager_ResolveURL_ProxyToResponder"* %0, i64 0, i32 1
  %11 = load i8, i8* %10, align 8, !range !3
  %12 = icmp eq i8 %11, 0
  %13 = select i1 %12, i32 2, i32 6
  %14 = bitcast %"class.mojo::Message"* %7 to i8*
  call void @llvm.lifetime.start.p0i8(i64 120, i8* nonnull %14) #12
  call void @llvm.memset.p0i8.i64(i8* nonnull align 8 %14, i8 -86, i64 120, i1 false)
  call void @_ZN4mojo7MessageC1EjjmmPNSt3__16vectorINS_16ScopedHandleBaseINS_6HandleEEENS1_9allocatorIS5_EEEE(%"class.mojo::Message"* nonnull %7, i32 1, i32 %13, i64 0, i64 0, %"class.std::__1::vector"* null) #12
  %15 = getelementptr inbounds %"class.mojo::Message", %"class.mojo::Message"* %7, i64 0, i32 1
  %16 = call i64 @_ZN4mojo8internal6Buffer8AllocateEm(%"class.mojo::internal::Buffer"* %15, i64 32) #12
  %17 = getelementptr inbounds %"class.mojo::Message", %"class.mojo::Message"* %7, i64 0, i32 1, i32 2
  %18 = load i8*, i8** %17, align 8
  %19 = getelementptr inbounds i8, i8* %18, i64 %16
  %20 = bitcast i8* %19 to %"class.blink::mojom::internal::FileSystemManager_ResolveURL_ResponseParams_Data"*
  call void @_ZN5blink5mojom8internal48FileSystemManager_ResolveURL_ResponseParams_DataC1Ev(%"class.blink::mojom::internal::FileSystemManager_ResolveURL_ResponseParams_Data"* %20) #12
  %21 = bitcast %"class.mojo::internal::MessageFragment.104"* %8 to i8*
  call void @llvm.lifetime.start.p0i8(i64 16, i8* nonnull %21) #12
  %22 = getelementptr inbounds %"class.mojo::internal::MessageFragment.104", %"class.mojo::internal::MessageFragment.104"* %8, i64 0, i32 0
  %23 = getelementptr inbounds %"class.mojo::internal::MessageFragment.104", %"class.mojo::internal::MessageFragment.104"* %8, i64 0, i32 1
  store %"class.mojo::Message"* %7, %"class.mojo::Message"** %22, align 8
  store i64 -1, i64* %23, align 8
  call void @_ZN4mojo8internal10SerializerIN5blink5mojom22FileSystemInfoDataViewENS_9StructPtrINS3_5blink14FileSystemInfoEEEE9SerializeERS8_RNS0_15MessageFragmentINS3_8internal19FileSystemInfo_DataEEE(%"class.mojo::StructPtr.60"* dereferenceable(8) %1, %"class.mojo::internal::MessageFragment.104"* nonnull dereferenceable(16) %8) #12
  %24 = load i8*, i8** %17, align 8
  %25 = getelementptr inbounds i8, i8* %24, i64 %16
  %26 = getelementptr inbounds i8, i8* %25, i64 8
  %27 = load i64, i64* %23, align 8
  %28 = icmp eq i64 %27, -1
  br i1 %28, label %35, label %29

29:                                               ; preds = %5
  %30 = load %"class.mojo::Message"*, %"class.mojo::Message"** %22, align 8
  %31 = getelementptr inbounds %"class.mojo::Message", %"class.mojo::Message"* %30, i64 0, i32 1, i32 2
  %32 = load i8*, i8** %31, align 8
  %33 = getelementptr inbounds i8, i8* %32, i64 %27
  %34 = bitcast i8* %33 to %"class.blink::mojom::internal::FileSystemInfo_Data"*
  br label %35

35:                                               ; preds = %5, %29
  %36 = phi %"class.blink::mojom::internal::FileSystemInfo_Data"* [ %34, %29 ], [ null, %5 ]
  %37 = bitcast i8* %26 to i64*
  %38 = icmp eq %"class.blink::mojom::internal::FileSystemInfo_Data"* %36, null
  %39 = ptrtoint %"class.blink::mojom::internal::FileSystemInfo_Data"* %36 to i64
  %40 = ptrtoint i8* %26 to i64
  %41 = sub i64 %39, %40
  %42 = select i1 %38, i64 0, i64 %41
  store i64 %42, i64* %37, align 8
  %43 = ptrtoint %"class.mojo::Message"* %7 to i64
  %44 = call i64 @_ZN4mojo8internal6Buffer8AllocateEm(%"class.mojo::internal::Buffer"* %15, i64 16) #12
  %45 = load i8*, i8** %17, align 8
  %46 = getelementptr inbounds i8, i8* %45, i64 %44
  %47 = bitcast i8* %46 to %"class.mojo_base::mojom::internal::FilePath_Data"*
  call void @_ZN9mojo_base5mojom8internal13FilePath_DataC1Ev(%"class.mojo_base::mojom::internal::FilePath_Data"* %47) #12
  %48 = getelementptr inbounds %"class.base::FilePath", %"class.base::FilePath"* %2, i64 0, i32 0
  %49 = bitcast %"class.mojo::internal::MessageFragment.90"* %6 to i8*
  call void @llvm.lifetime.start.p0i8(i64 16, i8* nonnull %49) #12
  %50 = getelementptr inbounds %"class.mojo::internal::MessageFragment.90", %"class.mojo::internal::MessageFragment.90"* %6, i64 0, i32 1
  %51 = bitcast %"class.mojo::internal::MessageFragment.90"* %6 to i64*
  store i64 %43, i64* %51, align 8
  store i64 -1, i64* %50, align 8
  call void @_ZN4mojo8internal10SerializerINS_14StringDataViewEKNSt3__112basic_stringIcNS3_11char_traitsIcEENS3_9allocatorIcEEEEE9SerializeERSA_RNS0_15MessageFragmentINS0_10Array_DataIcEEEE(%"class.std::__1::basic_string"* dereferenceable(24) %48, %"class.mojo::internal::MessageFragment.90"* nonnull dereferenceable(16) %6) #12
  %52 = load i8*, i8** %17, align 8
  %53 = getelementptr inbounds i8, i8* %52, i64 %44
  %54 = getelementptr inbounds i8, i8* %53, i64 8
  %55 = load i64, i64* %50, align 8
  %56 = icmp eq i64 %55, -1
  br i1 %56, label %64, label %57

57:                                               ; preds = %35
  %58 = getelementptr inbounds %"class.mojo::internal::MessageFragment.90", %"class.mojo::internal::MessageFragment.90"* %6, i64 0, i32 0
  %59 = load %"class.mojo::Message"*, %"class.mojo::Message"** %58, align 8
  %60 = getelementptr inbounds %"class.mojo::Message", %"class.mojo::Message"* %59, i64 0, i32 1, i32 2
  %61 = load i8*, i8** %60, align 8
  %62 = getelementptr inbounds i8, i8* %61, i64 %55
  %63 = bitcast i8* %62 to %"class.mojo::internal::Array_Data.91"*
  br label %64

64:                                               ; preds = %35, %57
  %65 = phi %"class.mojo::internal::Array_Data.91"* [ %63, %57 ], [ null, %35 ]
  %66 = bitcast i8* %54 to i64*
  %67 = icmp eq %"class.mojo::internal::Array_Data.91"* %65, null
  %68 = ptrtoint %"class.mojo::internal::Array_Data.91"* %65 to i64
  %69 = ptrtoint i8* %54 to i64
  %70 = sub i64 %68, %69
  %71 = select i1 %67, i64 0, i64 %70
  store i64 %71, i64* %66, align 8
  call void @llvm.lifetime.end.p0i8(i64 16, i8* nonnull %49) #12
  %72 = load i8*, i8** %17, align 8
  %73 = getelementptr inbounds i8, i8* %72, i64 %16
  %74 = getelementptr inbounds i8, i8* %73, i64 16
  %75 = icmp eq i64 %44, -1
  %76 = getelementptr inbounds i8, i8* %72, i64 %44
  %77 = bitcast i8* %76 to %"class.mojo_base::mojom::internal::FilePath_Data"*
  %78 = select i1 %75, %"class.mojo_base::mojom::internal::FilePath_Data"* null, %"class.mojo_base::mojom::internal::FilePath_Data"* %77
  %79 = bitcast i8* %74 to i64*
  %80 = icmp eq %"class.mojo_base::mojom::internal::FilePath_Data"* %78, null
  %81 = ptrtoint %"class.mojo_base::mojom::internal::FilePath_Data"* %78 to i64
  %82 = ptrtoint i8* %74 to i64
  %83 = sub i64 %81, %82
  %84 = select i1 %80, i64 0, i64 %83
  store i64 %84, i64* %79, align 8
  %85 = load i8*, i8** %17, align 8
  %86 = getelementptr inbounds i8, i8* %85, i64 %16
  %87 = getelementptr inbounds i8, i8* %86, i64 24
  %88 = load i8, i8* %87, align 4
  %89 = and i8 %88, -2
  %90 = or i8 %89, %9
  store i8 %90, i8* %87, align 4
  %91 = load i8*, i8** %17, align 8
  %92 = getelementptr inbounds i8, i8* %91, i64 %16
  %93 = getelementptr inbounds i8, i8* %92, i64 28
  %94 = bitcast i8* %93 to i32*
  %95 = add i32 %4, 17
  %96 = icmp ult i32 %95, 18
  br i1 %96, label %97, label %101

97:                                               ; preds = %64
  %98 = sext i32 %95 to i64
  %99 = getelementptr inbounds [18 x i32], [18 x i32]* @switch.table._ZN5blink5mojom5blink53FileSystemManager_CreateSnapshotFile_ProxyToResponder3RunERKN4base4File4InfoERKNS3_8FilePathENS4_5ErrorEN4mojo13PendingRemoteINS1_24ReceivedSnapshotListenerEEE, i64 0, i64 %98
  %100 = load i32, i32* %99, align 4
  br label %101

101:                                              ; preds = %64, %97
  %102 = phi i32 [ %100, %97 ], [ -1, %64 ]
  store i32 %102, i32* %94, align 4
  %103 = getelementptr inbounds %"class.blink::mojom::blink::FileSystemManager_ResolveURL_ProxyToResponder", %"class.blink::mojom::blink::FileSystemManager_ResolveURL_ProxyToResponder"* %0, i64 0, i32 0
  %104 = load i64, i64* %103, align 8
  %105 = bitcast i8** %17 to %"struct.mojo::internal::MessageHeaderV1"**
  %106 = load %"struct.mojo::internal::MessageHeaderV1"*, %"struct.mojo::internal::MessageHeaderV1"** %105, align 8
  %107 = getelementptr inbounds %"struct.mojo::internal::MessageHeaderV1", %"struct.mojo::internal::MessageHeaderV1"* %106, i64 0, i32 1
  store i64 %104, i64* %107, align 1
  %108 = getelementptr inbounds %"class.blink::mojom::blink::FileSystemManager_ResolveURL_ProxyToResponder", %"class.blink::mojom::blink::FileSystemManager_ResolveURL_ProxyToResponder"* %0, i64 0, i32 2, i32 0, i32 0, i32 0
  %109 = load %"class.mojo::MessageReceiverWithStatus"*, %"class.mojo::MessageReceiverWithStatus"** %108, align 8
  %110 = getelementptr inbounds %"class.mojo::MessageReceiverWithStatus", %"class.mojo::MessageReceiverWithStatus"* %109, i64 0, i32 0
  %111 = bitcast %"class.mojo::MessageReceiverWithStatus"* %109 to i1 (%"class.mojo::MessageReceiver"*, %"class.mojo::Message"*)***
  %112 = load i1 (%"class.mojo::MessageReceiver"*, %"class.mojo::Message"*)**, i1 (%"class.mojo::MessageReceiver"*, %"class.mojo::Message"*)*** %111, align 8
  %113 = getelementptr inbounds i1 (%"class.mojo::MessageReceiver"*, %"class.mojo::Message"*)*, i1 (%"class.mojo::MessageReceiver"*, %"class.mojo::Message"*)** %112, i64 3
  %114 = load i1 (%"class.mojo::MessageReceiver"*, %"class.mojo::Message"*)*, i1 (%"class.mojo::MessageReceiver"*, %"class.mojo::Message"*)** %113, align 8
  %115 = call zeroext i1 %114(%"class.mojo::MessageReceiver"* %110, %"class.mojo::Message"* nonnull %7) #12
  %116 = load %"class.mojo::MessageReceiverWithStatus"*, %"class.mojo::MessageReceiverWithStatus"** %108, align 8
  store %"class.mojo::MessageReceiverWithStatus"* null, %"class.mojo::MessageReceiverWithStatus"** %108, align 8
  %117 = icmp eq %"class.mojo::MessageReceiverWithStatus"* %116, null
  br i1 %117, label %123, label %118

118:                                              ; preds = %101
  %119 = bitcast %"class.mojo::MessageReceiverWithStatus"* %116 to void (%"class.mojo::MessageReceiverWithStatus"*)***
  %120 = load void (%"class.mojo::MessageReceiverWithStatus"*)**, void (%"class.mojo::MessageReceiverWithStatus"*)*** %119, align 8
  %121 = getelementptr inbounds void (%"class.mojo::MessageReceiverWithStatus"*)*, void (%"class.mojo::MessageReceiverWithStatus"*)** %120, i64 1
  %122 = load void (%"class.mojo::MessageReceiverWithStatus"*)*, void (%"class.mojo::MessageReceiverWithStatus"*)** %121, align 8
  call void %122(%"class.mojo::MessageReceiverWithStatus"* nonnull %116) #12
  br label %123

123:                                              ; preds = %101, %118
  call void @llvm.lifetime.end.p0i8(i64 16, i8* nonnull %21) #12
  call void @_ZN4mojo7MessageD1Ev(%"class.mojo::Message"* nonnull %7) #12
  call void @llvm.lifetime.end.p0i8(i64 120, i8* nonnull %14) #12
  ret void
}

; Function Attrs: nounwind ssp uwtable
define hidden zeroext i1 @_ZN5blink5mojom5blink47FileSystemManager_ResolveURL_HandleSyncResponse6AcceptEPN4mojo7MessageE(%"class.blink::mojom::blink::FileSystemManager_ResolveURL_HandleSyncResponse"* nocapture readonly, %"class.mojo::Message"*) unnamed_addr #0 align 2 {
  %3 = alloca %"class.mojo::StructPtr.60", align 8
  %4 = alloca %"class.base::FilePath", align 8
  %5 = tail call i8* @_ZNK4mojo7Message7payloadEv(%"class.mojo::Message"* %1) #12
  %6 = bitcast %"class.mojo::StructPtr.60"* %3 to i8*
  call void @llvm.lifetime.start.p0i8(i64 8, i8* nonnull %6) #12
  %7 = getelementptr inbounds %"class.mojo::StructPtr.60", %"class.mojo::StructPtr.60"* %3, i64 0, i32 0, i32 0, i32 0, i32 0
  %8 = bitcast %"class.mojo::StructPtr.60"* %3 to i64*
  store i64 0, i64* %8, align 8
  %9 = bitcast %"class.base::FilePath"* %4 to i8*
  call void @llvm.lifetime.start.p0i8(i64 24, i8* nonnull %9) #12
  %10 = bitcast %"class.base::FilePath"* %4 to i8*
  call void @llvm.memset.p0i8.i64(i8* nonnull align 8 %10, i8 -86, i64 24, i1 false)
  call void @_ZN4base8FilePathC1Ev(%"class.base::FilePath"* nonnull %4) #12
  %11 = getelementptr inbounds i8, i8* %5, i64 8
  %12 = bitcast i8* %11 to i64*
  %13 = load i64, i64* %12, align 8
  %14 = icmp eq i64 %13, 0
  br i1 %14, label %15, label %16

15:                                               ; preds = %2
  store %"class.blink::mojom::blink::FileSystemInfo"* null, %"class.blink::mojom::blink::FileSystemInfo"** %7, align 8
  br label %20

16:                                               ; preds = %2
  %17 = getelementptr inbounds i8, i8* %11, i64 %13
  %18 = bitcast i8* %17 to %"class.blink::mojom::internal::FileSystemInfo_Data"*
  %19 = call zeroext i1 @_ZN4mojo12StructTraitsIN5blink5mojom22FileSystemInfoDataViewENS_9StructPtrINS2_5blink14FileSystemInfoEEEE4ReadES3_PS7_(%"class.blink::mojom::internal::FileSystemInfo_Data"* nonnull %18, %"class.mojo::Message"* %1, %"class.mojo::StructPtr.60"* nonnull %3) #12
  br i1 %19, label %20, label %38

20:                                               ; preds = %15, %16
  %21 = getelementptr inbounds i8, i8* %5, i64 16
  %22 = bitcast i8* %21 to i64*
  %23 = load i64, i64* %22, align 8
  %24 = icmp eq i64 %23, 0
  br i1 %24, label %29, label %25

25:                                               ; preds = %20
  %26 = getelementptr inbounds i8, i8* %21, i64 %23
  %27 = bitcast i8* %26 to %"class.mojo_base::mojom::internal::FilePath_Data"*
  %28 = call zeroext i1 @_ZN4mojo12StructTraitsIN9mojo_base5mojom16FilePathDataViewEN4base8FilePathEE4ReadES3_PS5_(%"class.mojo_base::mojom::internal::FilePath_Data"* nonnull %27, %"class.mojo::Message"* %1, %"class.base::FilePath"* nonnull %4) #12
  br i1 %28, label %29, label %38

29:                                               ; preds = %20, %25
  %30 = getelementptr inbounds i8, i8* %5, i64 24
  %31 = load i8, i8* %30, align 4
  %32 = and i8 %31, 1
  %33 = getelementptr inbounds i8, i8* %5, i64 28
  %34 = bitcast i8* %33 to i32*
  %35 = load i32, i32* %34, align 4
  %36 = add i32 %35, 16
  %37 = icmp ult i32 %36, 17
  br i1 %37, label %40, label %38

38:                                               ; preds = %29, %16, %25
  call void @_ZN4mojo8internal31ReportValidationErrorForMessageEPNS_7MessageENS0_15ValidationErrorEPKcjb(%"class.mojo::Message"* %1, i32 17, i8* getelementptr inbounds ([30 x i8], [30 x i8]* @_ZN5blink5mojom5blink17FileSystemManager5Name_E, i64 0, i64 0), i32 1, i1 zeroext true) #12
  %39 = load %"class.blink::mojom::blink::FileSystemInfo"*, %"class.blink::mojom::blink::FileSystemInfo"** %7, align 8
  br label %84

40:                                               ; preds = %29
  %41 = getelementptr inbounds %"class.blink::mojom::blink::FileSystemManager_ResolveURL_HandleSyncResponse", %"class.blink::mojom::blink::FileSystemManager_ResolveURL_HandleSyncResponse"* %0, i64 0, i32 2
  %42 = load %"class.mojo::StructPtr.60"*, %"class.mojo::StructPtr.60"** %41, align 8
  %43 = getelementptr inbounds %"class.mojo::StructPtr.60", %"class.mojo::StructPtr.60"* %42, i64 0, i32 0, i32 0, i32 0, i32 0
  %44 = load %"class.blink::mojom::blink::FileSystemInfo"*, %"class.blink::mojom::blink::FileSystemInfo"** %43, align 8
  store %"class.blink::mojom::blink::FileSystemInfo"* null, %"class.blink::mojom::blink::FileSystemInfo"** %43, align 8
  %45 = icmp eq %"class.blink::mojom::blink::FileSystemInfo"* %44, null
  br i1 %45, label %46, label %48

46:                                               ; preds = %40
  %47 = bitcast %"class.mojo::StructPtr.60"* %42 to i64*
  br label %70

48:                                               ; preds = %40
  %49 = getelementptr inbounds %"class.blink::mojom::blink::FileSystemInfo", %"class.blink::mojom::blink::FileSystemInfo"* %44, i64 0, i32 1
  call void @_ZN5blink4KURLD1Ev(%"class.blink::KURL"* %49) #12
  %50 = getelementptr inbounds %"class.blink::mojom::blink::FileSystemInfo", %"class.blink::mojom::blink::FileSystemInfo"* %44, i64 0, i32 0, i32 0, i32 0
  %51 = load %"class.WTF::StringImpl"*, %"class.WTF::StringImpl"** %50, align 8
  %52 = icmp eq %"class.WTF::StringImpl"* %51, null
  br i1 %52, label %66, label %53

53:                                               ; preds = %48
  %54 = getelementptr inbounds %"class.WTF::StringImpl", %"class.WTF::StringImpl"* %51, i64 0, i32 2, i32 0, i32 0, i32 0, i32 0, i32 0
  %55 = load atomic i32, i32* %54 monotonic, align 4
  %56 = and i32 %55, 2
  %57 = icmp eq i32 %56, 0
  %58 = getelementptr inbounds %"class.WTF::StringImpl", %"class.WTF::StringImpl"* %51, i64 0, i32 0
  %59 = load i32, i32* %58, align 4
  br i1 %57, label %60, label %62

60:                                               ; preds = %53
  %61 = add i32 %59, -1
  store i32 %61, i32* %58, align 4
  br label %62

62:                                               ; preds = %60, %53
  %63 = phi i32 [ %61, %60 ], [ %59, %53 ]
  %64 = icmp eq i32 %63, 0
  br i1 %64, label %65, label %66

65:                                               ; preds = %62
  call void @_ZNK3WTF10StringImpl18DestroyIfNotStaticEv(%"class.WTF::StringImpl"* nonnull %51) #12
  br label %66

66:                                               ; preds = %65, %62, %48
  %67 = bitcast %"class.blink::mojom::blink::FileSystemInfo"* %44 to i8*
  call void @_ZdlPv(i8* %67) #13
  %68 = bitcast %"class.mojo::StructPtr.60"* %42 to i64*
  %69 = load i64, i64* %68, align 8
  br label %70

70:                                               ; preds = %46, %66
  %71 = phi i64* [ %47, %46 ], [ %68, %66 ]
  %72 = phi i64 [ 0, %46 ], [ %69, %66 ]
  %73 = load i64, i64* %8, align 8
  store i64 %73, i64* %71, align 8
  store i64 %72, i64* %8, align 8
  %74 = getelementptr inbounds %"class.blink::mojom::blink::FileSystemManager_ResolveURL_HandleSyncResponse", %"class.blink::mojom::blink::FileSystemManager_ResolveURL_HandleSyncResponse"* %0, i64 0, i32 3
  %75 = load %"class.base::FilePath"*, %"class.base::FilePath"** %74, align 8
  %76 = call dereferenceable(24) %"class.base::FilePath"* @_ZN4base8FilePathaSEOS0_(%"class.base::FilePath"* %75, %"class.base::FilePath"* nonnull dereferenceable(24) %4) #12
  %77 = getelementptr inbounds %"class.blink::mojom::blink::FileSystemManager_ResolveURL_HandleSyncResponse", %"class.blink::mojom::blink::FileSystemManager_ResolveURL_HandleSyncResponse"* %0, i64 0, i32 4
  %78 = load i8*, i8** %77, align 8
  store i8 %32, i8* %78, align 1
  %79 = getelementptr inbounds %"class.blink::mojom::blink::FileSystemManager_ResolveURL_HandleSyncResponse", %"class.blink::mojom::blink::FileSystemManager_ResolveURL_HandleSyncResponse"* %0, i64 0, i32 5
  %80 = load i32*, i32** %79, align 8
  store i32 %35, i32* %80, align 4
  %81 = getelementptr inbounds %"class.blink::mojom::blink::FileSystemManager_ResolveURL_HandleSyncResponse", %"class.blink::mojom::blink::FileSystemManager_ResolveURL_HandleSyncResponse"* %0, i64 0, i32 1
  %82 = load i8*, i8** %81, align 8
  store i8 1, i8* %82, align 1
  %83 = inttoptr i64 %72 to %"class.blink::mojom::blink::FileSystemInfo"*
  br label %84

84:                                               ; preds = %70, %38
  %85 = phi %"class.blink::mojom::blink::FileSystemInfo"* [ %83, %70 ], [ %39, %38 ]
  %86 = phi i1 [ true, %70 ], [ false, %38 ]
  call void @_ZN4base8FilePathD1Ev(%"class.base::FilePath"* nonnull %4) #12
  call void @llvm.lifetime.end.p0i8(i64 24, i8* nonnull %9) #12
  store %"class.blink::mojom::blink::FileSystemInfo"* null, %"class.blink::mojom::blink::FileSystemInfo"** %7, align 8
  %87 = icmp eq %"class.blink::mojom::blink::FileSystemInfo"* %85, null
  br i1 %87, label %108, label %88

88:                                               ; preds = %84
  %89 = getelementptr inbounds %"class.blink::mojom::blink::FileSystemInfo", %"class.blink::mojom::blink::FileSystemInfo"* %85, i64 0, i32 1
  call void @_ZN5blink4KURLD1Ev(%"class.blink::KURL"* %89) #12
  %90 = getelementptr inbounds %"class.blink::mojom::blink::FileSystemInfo", %"class.blink::mojom::blink::FileSystemInfo"* %85, i64 0, i32 0, i32 0, i32 0
  %91 = load %"class.WTF::StringImpl"*, %"class.WTF::StringImpl"** %90, align 8
  %92 = icmp eq %"class.WTF::StringImpl"* %91, null
  br i1 %92, label %106, label %93

93:                                               ; preds = %88
  %94 = getelementptr inbounds %"class.WTF::StringImpl", %"class.WTF::StringImpl"* %91, i64 0, i32 2, i32 0, i32 0, i32 0, i32 0, i32 0
  %95 = load atomic i32, i32* %94 monotonic, align 4
  %96 = and i32 %95, 2
  %97 = icmp eq i32 %96, 0
  %98 = getelementptr inbounds %"class.WTF::StringImpl", %"class.WTF::StringImpl"* %91, i64 0, i32 0
  %99 = load i32, i32* %98, align 4
  br i1 %97, label %100, label %102

100:                                              ; preds = %93
  %101 = add i32 %99, -1
  store i32 %101, i32* %98, align 4
  br label %102

102:                                              ; preds = %100, %93
  %103 = phi i32 [ %101, %100 ], [ %99, %93 ]
  %104 = icmp eq i32 %103, 0
  br i1 %104, label %105, label %106

105:                                              ; preds = %102
  call void @_ZNK3WTF10StringImpl18DestroyIfNotStaticEv(%"class.WTF::StringImpl"* nonnull %91) #12
  br label %106

106:                                              ; preds = %105, %102, %88
  %107 = bitcast %"class.blink::mojom::blink::FileSystemInfo"* %85 to i8*
  call void @_ZdlPv(i8* %107) #13
  br label %108

108:                                              ; preds = %84, %106
  call void @llvm.lifetime.end.p0i8(i64 8, i8* nonnull %6) #12
  ret i1 %86
}

; Function Attrs: nounwind
declare dereferenceable(24) %"class.base::FilePath"* @_ZN4base8FilePathaSEOS0_(%"class.base::FilePath"*, %"class.base::FilePath"* dereferenceable(24)) local_unnamed_addr #3

; Function Attrs: nounwind ssp uwtable
define hidden zeroext i1 @_ZN5blink5mojom5blink40FileSystemManager_Move_ForwardToCallback6AcceptEPN4mojo7MessageE(%"class.blink::mojom::blink::FileSystemManager_Move_ForwardToCallback"* nocapture, %"class.mojo::Message"*) unnamed_addr #0 align 2 {
  %3 = alloca %"class.base::OnceCallback", align 8
  %4 = tail call i8* @_ZNK4mojo7Message7payloadEv(%"class.mojo::Message"* %1) #12
  %5 = getelementptr inbounds i8, i8* %4, i64 8
  %6 = bitcast i8* %5 to i32*
  %7 = load i32, i32* %6, align 4
  %8 = add i32 %7, 16
  %9 = icmp ult i32 %8, 17
  br i1 %9, label %11, label %10

10:                                               ; preds = %2
  tail call void @_ZN4mojo8internal31ReportValidationErrorForMessageEPNS_7MessageENS0_15ValidationErrorEPKcjb(%"class.mojo::Message"* %1, i32 17, i8* getelementptr inbounds ([30 x i8], [30 x i8]* @_ZN5blink5mojom5blink17FileSystemManager5Name_E, i64 0, i64 0), i32 2, i1 zeroext true) #12
  br label %23

11:                                               ; preds = %2
  %12 = getelementptr inbounds %"class.blink::mojom::blink::FileSystemManager_Move_ForwardToCallback", %"class.blink::mojom::blink::FileSystemManager_Move_ForwardToCallback"* %0, i64 0, i32 1, i32 0, i32 0, i32 0
  %13 = load %"class.base::internal::BindStateBase"*, %"class.base::internal::BindStateBase"** %12, align 8
  %14 = icmp eq %"class.base::internal::BindStateBase"* %13, null
  br i1 %14, label %23, label %15

15:                                               ; preds = %11
  %16 = ptrtoint %"class.base::internal::BindStateBase"* %13 to i64
  %17 = bitcast %"class.base::OnceCallback"* %3 to i8*
  call void @llvm.lifetime.start.p0i8(i64 8, i8* nonnull %17) #12
  %18 = bitcast %"class.base::OnceCallback"* %3 to i64*
  store i64 %16, i64* %18, align 8
  store %"class.base::internal::BindStateBase"* null, %"class.base::internal::BindStateBase"** %12, align 8
  %19 = getelementptr inbounds %"class.base::OnceCallback", %"class.base::OnceCallback"* %3, i64 0, i32 0
  %20 = getelementptr inbounds %"class.base::internal::BindStateBase", %"class.base::internal::BindStateBase"* %13, i64 0, i32 1
  %21 = bitcast void ()** %20 to void (%"class.base::internal::BindStateBase"*, i32)**
  %22 = load void (%"class.base::internal::BindStateBase"*, i32)*, void (%"class.base::internal::BindStateBase"*, i32)** %21, align 8
  tail call void %22(%"class.base::internal::BindStateBase"* nonnull %13, i32 %7) #12
  call void @_ZN4base8internal12CallbackBaseD2Ev(%"class.base::internal::CallbackBase"* nonnull %19) #12
  call void @llvm.lifetime.end.p0i8(i64 8, i8* nonnull %17) #12
  br label %23

23:                                               ; preds = %11, %15, %10
  %24 = phi i1 [ false, %10 ], [ true, %15 ], [ true, %11 ]
  ret i1 %24
}

; Function Attrs: nounwind ssp uwtable
define hidden void @_ZN5blink5mojom5blink39FileSystemManager_Move_ProxyToResponder3RunEN4base4File5ErrorE(%"class.blink::mojom::blink::FileSystemManager_Move_ProxyToResponder"* nocapture, i32) #0 align 2 {
  %3 = alloca %"class.mojo::Message", align 8
  %4 = getelementptr inbounds %"class.blink::mojom::blink::FileSystemManager_Move_ProxyToResponder", %"class.blink::mojom::blink::FileSystemManager_Move_ProxyToResponder"* %0, i64 0, i32 1
  %5 = load i8, i8* %4, align 8, !range !3
  %6 = icmp eq i8 %5, 0
  %7 = select i1 %6, i32 2, i32 6
  %8 = bitcast %"class.mojo::Message"* %3 to i8*
  call void @llvm.lifetime.start.p0i8(i64 120, i8* nonnull %8) #12
  call void @llvm.memset.p0i8.i64(i8* nonnull align 8 %8, i8 -86, i64 120, i1 false)
  call void @_ZN4mojo7MessageC1EjjmmPNSt3__16vectorINS_16ScopedHandleBaseINS_6HandleEEENS1_9allocatorIS5_EEEE(%"class.mojo::Message"* nonnull %3, i32 2, i32 %7, i64 0, i64 0, %"class.std::__1::vector"* null) #12
  %9 = getelementptr inbounds %"class.mojo::Message", %"class.mojo::Message"* %3, i64 0, i32 1
  %10 = call i64 @_ZN4mojo8internal6Buffer8AllocateEm(%"class.mojo::internal::Buffer"* %9, i64 16) #12
  %11 = getelementptr inbounds %"class.mojo::Message", %"class.mojo::Message"* %3, i64 0, i32 1, i32 2
  %12 = load i8*, i8** %11, align 8
  %13 = getelementptr inbounds i8, i8* %12, i64 %10
  %14 = bitcast i8* %13 to %"class.blink::mojom::internal::FileSystemManager_Move_ResponseParams_Data"*
  call void @_ZN5blink5mojom8internal42FileSystemManager_Move_ResponseParams_DataC1Ev(%"class.blink::mojom::internal::FileSystemManager_Move_ResponseParams_Data"* %14) #12
  %15 = load i8*, i8** %11, align 8
  %16 = getelementptr inbounds i8, i8* %15, i64 %10
  %17 = getelementptr inbounds i8, i8* %16, i64 8
  %18 = bitcast i8* %17 to i32*
  %19 = add i32 %1, 17
  %20 = icmp ult i32 %19, 18
  br i1 %20, label %21, label %25

21:                                               ; preds = %2
  %22 = sext i32 %19 to i64
  %23 = getelementptr inbounds [18 x i32], [18 x i32]* @switch.table._ZN5blink5mojom5blink53FileSystemManager_CreateSnapshotFile_ProxyToResponder3RunERKN4base4File4InfoERKNS3_8FilePathENS4_5ErrorEN4mojo13PendingRemoteINS1_24ReceivedSnapshotListenerEEE, i64 0, i64 %22
  %24 = load i32, i32* %23, align 4
  br label %25

25:                                               ; preds = %2, %21
  %26 = phi i32 [ %24, %21 ], [ -1, %2 ]
  store i32 %26, i32* %18, align 4
  %27 = getelementptr inbounds %"class.blink::mojom::blink::FileSystemManager_Move_ProxyToResponder", %"class.blink::mojom::blink::FileSystemManager_Move_ProxyToResponder"* %0, i64 0, i32 0
  %28 = load i64, i64* %27, align 8
  %29 = bitcast i8** %11 to %"struct.mojo::internal::MessageHeaderV1"**
  %30 = load %"struct.mojo::internal::MessageHeaderV1"*, %"struct.mojo::internal::MessageHeaderV1"** %29, align 8
  %31 = getelementptr inbounds %"struct.mojo::internal::MessageHeaderV1", %"struct.mojo::internal::MessageHeaderV1"* %30, i64 0, i32 1
  store i64 %28, i64* %31, align 1
  %32 = getelementptr inbounds %"class.blink::mojom::blink::FileSystemManager_Move_ProxyToResponder", %"class.blink::mojom::blink::FileSystemManager_Move_ProxyToResponder"* %0, i64 0, i32 2, i32 0, i32 0, i32 0
  %33 = load %"class.mojo::MessageReceiverWithStatus"*, %"class.mojo::MessageReceiverWithStatus"** %32, align 8
  %34 = getelementptr inbounds %"class.mojo::MessageReceiverWithStatus", %"class.mojo::MessageReceiverWithStatus"* %33, i64 0, i32 0
  %35 = bitcast %"class.mojo::MessageReceiverWithStatus"* %33 to i1 (%"class.mojo::MessageReceiver"*, %"class.mojo::Message"*)***
  %36 = load i1 (%"class.mojo::MessageReceiver"*, %"class.mojo::Message"*)**, i1 (%"class.mojo::MessageReceiver"*, %"class.mojo::Message"*)*** %35, align 8
  %37 = getelementptr inbounds i1 (%"class.mojo::MessageReceiver"*, %"class.mojo::Message"*)*, i1 (%"class.mojo::MessageReceiver"*, %"class.mojo::Message"*)** %36, i64 3
  %38 = load i1 (%"class.mojo::MessageReceiver"*, %"class.mojo::Message"*)*, i1 (%"class.mojo::MessageReceiver"*, %"class.mojo::Message"*)** %37, align 8
  %39 = call zeroext i1 %38(%"class.mojo::MessageReceiver"* %34, %"class.mojo::Message"* nonnull %3) #12
  %40 = load %"class.mojo::MessageReceiverWithStatus"*, %"class.mojo::MessageReceiverWithStatus"** %32, align 8
  store %"class.mojo::MessageReceiverWithStatus"* null, %"class.mojo::MessageReceiverWithStatus"** %32, align 8
  %41 = icmp eq %"class.mojo::MessageReceiverWithStatus"* %40, null
  br i1 %41, label %47, label %42

42:                                               ; preds = %25
  %43 = bitcast %"class.mojo::MessageReceiverWithStatus"* %40 to void (%"class.mojo::MessageReceiverWithStatus"*)***
  %44 = load void (%"class.mojo::MessageReceiverWithStatus"*)**, void (%"class.mojo::MessageReceiverWithStatus"*)*** %43, align 8
  %45 = getelementptr inbounds void (%"class.mojo::MessageReceiverWithStatus"*)*, void (%"class.mojo::MessageReceiverWithStatus"*)** %44, i64 1
  %46 = load void (%"class.mojo::MessageReceiverWithStatus"*)*, void (%"class.mojo::MessageReceiverWithStatus"*)** %45, align 8
  call void %46(%"class.mojo::MessageReceiverWithStatus"* nonnull %40) #12
  br label %47

47:                                               ; preds = %25, %42
  call void @_ZN4mojo7MessageD1Ev(%"class.mojo::Message"* nonnull %3) #12
  call void @llvm.lifetime.end.p0i8(i64 120, i8* nonnull %8) #12
  ret void
}

; Function Attrs: nounwind ssp uwtable
define hidden zeroext i1 @_ZN5blink5mojom5blink41FileSystemManager_Move_HandleSyncResponse6AcceptEPN4mojo7MessageE(%"class.blink::mojom::blink::FileSystemManager_Move_HandleSyncResponse"* nocapture readonly, %"class.mojo::Message"*) unnamed_addr #0 align 2 {
  %3 = tail call i8* @_ZNK4mojo7Message7payloadEv(%"class.mojo::Message"* %1) #12
  %4 = getelementptr inbounds i8, i8* %3, i64 8
  %5 = bitcast i8* %4 to i32*
  %6 = load i32, i32* %5, align 4
  %7 = add i32 %6, 16
  %8 = icmp ult i32 %7, 17
  br i1 %8, label %10, label %9

9:                                                ; preds = %2
  tail call void @_ZN4mojo8internal31ReportValidationErrorForMessageEPNS_7MessageENS0_15ValidationErrorEPKcjb(%"class.mojo::Message"* %1, i32 17, i8* getelementptr inbounds ([30 x i8], [30 x i8]* @_ZN5blink5mojom5blink17FileSystemManager5Name_E, i64 0, i64 0), i32 2, i1 zeroext true) #12
  br label %15

10:                                               ; preds = %2
  %11 = getelementptr inbounds %"class.blink::mojom::blink::FileSystemManager_Move_HandleSyncResponse", %"class.blink::mojom::blink::FileSystemManager_Move_HandleSyncResponse"* %0, i64 0, i32 2
  %12 = load i32*, i32** %11, align 8
  store i32 %6, i32* %12, align 4
  %13 = getelementptr inbounds %"class.blink::mojom::blink::FileSystemManager_Move_HandleSyncResponse", %"class.blink::mojom::blink::FileSystemManager_Move_HandleSyncResponse"* %0, i64 0, i32 1
  %14 = load i8*, i8** %13, align 8
  store i8 1, i8* %14, align 1
  br label %15

15:                                               ; preds = %10, %9
  %16 = phi i1 [ true, %10 ], [ false, %9 ]
  ret i1 %16
}

; Function Attrs: nounwind ssp uwtable
define hidden zeroext i1 @_ZN5blink5mojom5blink40FileSystemManager_Copy_ForwardToCallback6AcceptEPN4mojo7MessageE(%"class.blink::mojom::blink::FileSystemManager_Copy_ForwardToCallback"* nocapture, %"class.mojo::Message"*) unnamed_addr #0 align 2 {
  %3 = alloca %"class.base::OnceCallback", align 8
  %4 = tail call i8* @_ZNK4mojo7Message7payloadEv(%"class.mojo::Message"* %1) #12
  %5 = getelementptr inbounds i8, i8* %4, i64 8
  %6 = bitcast i8* %5 to i32*
  %7 = load i32, i32* %6, align 4
  %8 = add i32 %7, 16
  %9 = icmp ult i32 %8, 17
  br i1 %9, label %11, label %10

10:                                               ; preds = %2
  tail call void @_ZN4mojo8internal31ReportValidationErrorForMessageEPNS_7MessageENS0_15ValidationErrorEPKcjb(%"class.mojo::Message"* %1, i32 17, i8* getelementptr inbounds ([30 x i8], [30 x i8]* @_ZN5blink5mojom5blink17FileSystemManager5Name_E, i64 0, i64 0), i32 3, i1 zeroext true) #12
  br label %23

11:                                               ; preds = %2
  %12 = getelementptr inbounds %"class.blink::mojom::blink::FileSystemManager_Copy_ForwardToCallback", %"class.blink::mojom::blink::FileSystemManager_Copy_ForwardToCallback"* %0, i64 0, i32 1, i32 0, i32 0, i32 0
  %13 = load %"class.base::internal::BindStateBase"*, %"class.base::internal::BindStateBase"** %12, align 8
  %14 = icmp eq %"class.base::internal::BindStateBase"* %13, null
  br i1 %14, label %23, label %15

15:                                               ; preds = %11
  %16 = ptrtoint %"class.base::internal::BindStateBase"* %13 to i64
  %17 = bitcast %"class.base::OnceCallback"* %3 to i8*
  call void @llvm.lifetime.start.p0i8(i64 8, i8* nonnull %17) #12
  %18 = bitcast %"class.base::OnceCallback"* %3 to i64*
  store i64 %16, i64* %18, align 8
  store %"class.base::internal::BindStateBase"* null, %"class.base::internal::BindStateBase"** %12, align 8
  %19 = getelementptr inbounds %"class.base::OnceCallback", %"class.base::OnceCallback"* %3, i64 0, i32 0
  %20 = getelementptr inbounds %"class.base::internal::BindStateBase", %"class.base::internal::BindStateBase"* %13, i64 0, i32 1
  %21 = bitcast void ()** %20 to void (%"class.base::internal::BindStateBase"*, i32)**
  %22 = load void (%"class.base::internal::BindStateBase"*, i32)*, void (%"class.base::internal::BindStateBase"*, i32)** %21, align 8
  tail call void %22(%"class.base::internal::BindStateBase"* nonnull %13, i32 %7) #12
  call void @_ZN4base8internal12CallbackBaseD2Ev(%"class.base::internal::CallbackBase"* nonnull %19) #12
  call void @llvm.lifetime.end.p0i8(i64 8, i8* nonnull %17) #12
  br label %23

23:                                               ; preds = %11, %15, %10
  %24 = phi i1 [ false, %10 ], [ true, %15 ], [ true, %11 ]
  ret i1 %24
}

; Function Attrs: nounwind ssp uwtable
define hidden void @_ZN5blink5mojom5blink39FileSystemManager_Copy_ProxyToResponder3RunEN4base4File5ErrorE(%"class.blink::mojom::blink::FileSystemManager_Copy_ProxyToResponder"* nocapture, i32) #0 align 2 {
  %3 = alloca %"class.mojo::Message", align 8
  %4 = getelementptr inbounds %"class.blink::mojom::blink::FileSystemManager_Copy_ProxyToResponder", %"class.blink::mojom::blink::FileSystemManager_Copy_ProxyToResponder"* %0, i64 0, i32 1
  %5 = load i8, i8* %4, align 8, !range !3
  %6 = icmp eq i8 %5, 0
  %7 = select i1 %6, i32 2, i32 6
  %8 = bitcast %"class.mojo::Message"* %3 to i8*
  call void @llvm.lifetime.start.p0i8(i64 120, i8* nonnull %8) #12
  call void @llvm.memset.p0i8.i64(i8* nonnull align 8 %8, i8 -86, i64 120, i1 false)
  call void @_ZN4mojo7MessageC1EjjmmPNSt3__16vectorINS_16ScopedHandleBaseINS_6HandleEEENS1_9allocatorIS5_EEEE(%"class.mojo::Message"* nonnull %3, i32 3, i32 %7, i64 0, i64 0, %"class.std::__1::vector"* null) #12
  %9 = getelementptr inbounds %"class.mojo::Message", %"class.mojo::Message"* %3, i64 0, i32 1
  %10 = call i64 @_ZN4mojo8internal6Buffer8AllocateEm(%"class.mojo::internal::Buffer"* %9, i64 16) #12
  %11 = getelementptr inbounds %"class.mojo::Message", %"class.mojo::Message"* %3, i64 0, i32 1, i32 2
  %12 = load i8*, i8** %11, align 8
  %13 = getelementptr inbounds i8, i8* %12, i64 %10
  %14 = bitcast i8* %13 to %"class.blink::mojom::internal::FileSystemManager_Copy_ResponseParams_Data"*
  call void @_ZN5blink5mojom8internal42FileSystemManager_Copy_ResponseParams_DataC1Ev(%"class.blink::mojom::internal::FileSystemManager_Copy_ResponseParams_Data"* %14) #12
  %15 = load i8*, i8** %11, align 8
  %16 = getelementptr inbounds i8, i8* %15, i64 %10
  %17 = getelementptr inbounds i8, i8* %16, i64 8
  %18 = bitcast i8* %17 to i32*
  %19 = add i32 %1, 17
  %20 = icmp ult i32 %19, 18
  br i1 %20, label %21, label %25

21:                                               ; preds = %2
  %22 = sext i32 %19 to i64
  %23 = getelementptr inbounds [18 x i32], [18 x i32]* @switch.table._ZN5blink5mojom5blink53FileSystemManager_CreateSnapshotFile_ProxyToResponder3RunERKN4base4File4InfoERKNS3_8FilePathENS4_5ErrorEN4mojo13PendingRemoteINS1_24ReceivedSnapshotListenerEEE, i64 0, i64 %22
  %24 = load i32, i32* %23, align 4
  br label %25

25:                                               ; preds = %2, %21
  %26 = phi i32 [ %24, %21 ], [ -1, %2 ]
  store i32 %26, i32* %18, align 4
  %27 = getelementptr inbounds %"class.blink::mojom::blink::FileSystemManager_Copy_ProxyToResponder", %"class.blink::mojom::blink::FileSystemManager_Copy_ProxyToResponder"* %0, i64 0, i32 0
  %28 = load i64, i64* %27, align 8
  %29 = bitcast i8** %11 to %"struct.mojo::internal::MessageHeaderV1"**
  %30 = load %"struct.mojo::internal::MessageHeaderV1"*, %"struct.mojo::internal::MessageHeaderV1"** %29, align 8
  %31 = getelementptr inbounds %"struct.mojo::internal::MessageHeaderV1", %"struct.mojo::internal::MessageHeaderV1"* %30, i64 0, i32 1
  store i64 %28, i64* %31, align 1
  %32 = getelementptr inbounds %"class.blink::mojom::blink::FileSystemManager_Copy_ProxyToResponder", %"class.blink::mojom::blink::FileSystemManager_Copy_ProxyToResponder"* %0, i64 0, i32 2, i32 0, i32 0, i32 0
  %33 = load %"class.mojo::MessageReceiverWithStatus"*, %"class.mojo::MessageReceiverWithStatus"** %32, align 8
  %34 = getelementptr inbounds %"class.mojo::MessageReceiverWithStatus", %"class.mojo::MessageReceiverWithStatus"* %33, i64 0, i32 0
  %35 = bitcast %"class.mojo::MessageReceiverWithStatus"* %33 to i1 (%"class.mojo::MessageReceiver"*, %"class.mojo::Message"*)***
  %36 = load i1 (%"class.mojo::MessageReceiver"*, %"class.mojo::Message"*)**, i1 (%"class.mojo::MessageReceiver"*, %"class.mojo::Message"*)*** %35, align 8
  %37 = getelementptr inbounds i1 (%"class.mojo::MessageReceiver"*, %"class.mojo::Message"*)*, i1 (%"class.mojo::MessageReceiver"*, %"class.mojo::Message"*)** %36, i64 3
  %38 = load i1 (%"class.mojo::MessageReceiver"*, %"class.mojo::Message"*)*, i1 (%"class.mojo::MessageReceiver"*, %"class.mojo::Message"*)** %37, align 8
  %39 = call zeroext i1 %38(%"class.mojo::MessageReceiver"* %34, %"class.mojo::Message"* nonnull %3) #12
  %40 = load %"class.mojo::MessageReceiverWithStatus"*, %"class.mojo::MessageReceiverWithStatus"** %32, align 8
  store %"class.mojo::MessageReceiverWithStatus"* null, %"class.mojo::MessageReceiverWithStatus"** %32, align 8
  %41 = icmp eq %"class.mojo::MessageReceiverWithStatus"* %40, null
  br i1 %41, label %47, label %42

42:                                               ; preds = %25
  %43 = bitcast %"class.mojo::MessageReceiverWithStatus"* %40 to void (%"class.mojo::MessageReceiverWithStatus"*)***
  %44 = load void (%"class.mojo::MessageReceiverWithStatus"*)**, void (%"class.mojo::MessageReceiverWithStatus"*)*** %43, align 8
  %45 = getelementptr inbounds void (%"class.mojo::MessageReceiverWithStatus"*)*, void (%"class.mojo::MessageReceiverWithStatus"*)** %44, i64 1
  %46 = load void (%"class.mojo::MessageReceiverWithStatus"*)*, void (%"class.mojo::MessageReceiverWithStatus"*)** %45, align 8
  call void %46(%"class.mojo::MessageReceiverWithStatus"* nonnull %40) #12
  br label %47

47:                                               ; preds = %25, %42
  call void @_ZN4mojo7MessageD1Ev(%"class.mojo::Message"* nonnull %3) #12
  call void @llvm.lifetime.end.p0i8(i64 120, i8* nonnull %8) #12
  ret void
}

; Function Attrs: nounwind ssp uwtable
define hidden zeroext i1 @_ZN5blink5mojom5blink41FileSystemManager_Copy_HandleSyncResponse6AcceptEPN4mojo7MessageE(%"class.blink::mojom::blink::FileSystemManager_Copy_HandleSyncResponse"* nocapture readonly, %"class.mojo::Message"*) unnamed_addr #0 align 2 {
  %3 = tail call i8* @_ZNK4mojo7Message7payloadEv(%"class.mojo::Message"* %1) #12
  %4 = getelementptr inbounds i8, i8* %3, i64 8
  %5 = bitcast i8* %4 to i32*
  %6 = load i32, i32* %5, align 4
  %7 = add i32 %6, 16
  %8 = icmp ult i32 %7, 17
  br i1 %8, label %10, label %9

9:                                                ; preds = %2
  tail call void @_ZN4mojo8internal31ReportValidationErrorForMessageEPNS_7MessageENS0_15ValidationErrorEPKcjb(%"class.mojo::Message"* %1, i32 17, i8* getelementptr inbounds ([30 x i8], [30 x i8]* @_ZN5blink5mojom5blink17FileSystemManager5Name_E, i64 0, i64 0), i32 3, i1 zeroext true) #12
  br label %15

10:                                               ; preds = %2
  %11 = getelementptr inbounds %"class.blink::mojom::blink::FileSystemManager_Copy_HandleSyncResponse", %"class.blink::mojom::blink::FileSystemManager_Copy_HandleSyncResponse"* %0, i64 0, i32 2
  %12 = load i32*, i32** %11, align 8
  store i32 %6, i32* %12, align 4
  %13 = getelementptr inbounds %"class.blink::mojom::blink::FileSystemManager_Copy_HandleSyncResponse", %"class.blink::mojom::blink::FileSystemManager_Copy_HandleSyncResponse"* %0, i64 0, i32 1
  %14 = load i8*, i8** %13, align 8
  store i8 1, i8* %14, align 1
  br label %15

15:                                               ; preds = %10, %9
  %16 = phi i1 [ true, %10 ], [ false, %9 ]
  ret i1 %16
}

; Function Attrs: nounwind ssp uwtable
define hidden zeroext i1 @_ZN5blink5mojom5blink42FileSystemManager_Remove_ForwardToCallback6AcceptEPN4mojo7MessageE(%"class.blink::mojom::blink::FileSystemManager_Remove_ForwardToCallback"* nocapture, %"class.mojo::Message"*) unnamed_addr #0 align 2 {
  %3 = alloca %"class.base::OnceCallback", align 8
  %4 = tail call i8* @_ZNK4mojo7Message7payloadEv(%"class.mojo::Message"* %1) #12
  %5 = getelementptr inbounds i8, i8* %4, i64 8
  %6 = bitcast i8* %5 to i32*
  %7 = load i32, i32* %6, align 4
  %8 = add i32 %7, 16
  %9 = icmp ult i32 %8, 17
  br i1 %9, label %11, label %10

10:                                               ; preds = %2
  tail call void @_ZN4mojo8internal31ReportValidationErrorForMessageEPNS_7MessageENS0_15ValidationErrorEPKcjb(%"class.mojo::Message"* %1, i32 17, i8* getelementptr inbounds ([30 x i8], [30 x i8]* @_ZN5blink5mojom5blink17FileSystemManager5Name_E, i64 0, i64 0), i32 4, i1 zeroext true) #12
  br label %23

11:                                               ; preds = %2
  %12 = getelementptr inbounds %"class.blink::mojom::blink::FileSystemManager_Remove_ForwardToCallback", %"class.blink::mojom::blink::FileSystemManager_Remove_ForwardToCallback"* %0, i64 0, i32 1, i32 0, i32 0, i32 0
  %13 = load %"class.base::internal::BindStateBase"*, %"class.base::internal::BindStateBase"** %12, align 8
  %14 = icmp eq %"class.base::internal::BindStateBase"* %13, null
  br i1 %14, label %23, label %15

15:                                               ; preds = %11
  %16 = ptrtoint %"class.base::internal::BindStateBase"* %13 to i64
  %17 = bitcast %"class.base::OnceCallback"* %3 to i8*
  call void @llvm.lifetime.start.p0i8(i64 8, i8* nonnull %17) #12
  %18 = bitcast %"class.base::OnceCallback"* %3 to i64*
  store i64 %16, i64* %18, align 8
  store %"class.base::internal::BindStateBase"* null, %"class.base::internal::BindStateBase"** %12, align 8
  %19 = getelementptr inbounds %"class.base::OnceCallback", %"class.base::OnceCallback"* %3, i64 0, i32 0
  %20 = getelementptr inbounds %"class.base::internal::BindStateBase", %"class.base::internal::BindStateBase"* %13, i64 0, i32 1
  %21 = bitcast void ()** %20 to void (%"class.base::internal::BindStateBase"*, i32)**
  %22 = load void (%"class.base::internal::BindStateBase"*, i32)*, void (%"class.base::internal::BindStateBase"*, i32)** %21, align 8
  tail call void %22(%"class.base::internal::BindStateBase"* nonnull %13, i32 %7) #12
  call void @_ZN4base8internal12CallbackBaseD2Ev(%"class.base::internal::CallbackBase"* nonnull %19) #12
  call void @llvm.lifetime.end.p0i8(i64 8, i8* nonnull %17) #12
  br label %23

23:                                               ; preds = %11, %15, %10
  %24 = phi i1 [ false, %10 ], [ true, %15 ], [ true, %11 ]
  ret i1 %24
}

; Function Attrs: nounwind ssp uwtable
define hidden void @_ZN5blink5mojom5blink41FileSystemManager_Remove_ProxyToResponder3RunEN4base4File5ErrorE(%"class.blink::mojom::blink::FileSystemManager_Remove_ProxyToResponder"* nocapture, i32) #0 align 2 {
  %3 = alloca %"class.mojo::Message", align 8
  %4 = getelementptr inbounds %"class.blink::mojom::blink::FileSystemManager_Remove_ProxyToResponder", %"class.blink::mojom::blink::FileSystemManager_Remove_ProxyToResponder"* %0, i64 0, i32 1
  %5 = load i8, i8* %4, align 8, !range !3
  %6 = icmp eq i8 %5, 0
  %7 = select i1 %6, i32 2, i32 6
  %8 = bitcast %"class.mojo::Message"* %3 to i8*
  call void @llvm.lifetime.start.p0i8(i64 120, i8* nonnull %8) #12
  call void @llvm.memset.p0i8.i64(i8* nonnull align 8 %8, i8 -86, i64 120, i1 false)
  call void @_ZN4mojo7MessageC1EjjmmPNSt3__16vectorINS_16ScopedHandleBaseINS_6HandleEEENS1_9allocatorIS5_EEEE(%"class.mojo::Message"* nonnull %3, i32 4, i32 %7, i64 0, i64 0, %"class.std::__1::vector"* null) #12
  %9 = getelementptr inbounds %"class.mojo::Message", %"class.mojo::Message"* %3, i64 0, i32 1
  %10 = call i64 @_ZN4mojo8internal6Buffer8AllocateEm(%"class.mojo::internal::Buffer"* %9, i64 16) #12
  %11 = getelementptr inbounds %"class.mojo::Message", %"class.mojo::Message"* %3, i64 0, i32 1, i32 2
  %12 = load i8*, i8** %11, align 8
  %13 = getelementptr inbounds i8, i8* %12, i64 %10
  %14 = bitcast i8* %13 to %"class.blink::mojom::internal::FileSystemManager_Remove_ResponseParams_Data"*
  call void @_ZN5blink5mojom8internal44FileSystemManager_Remove_ResponseParams_DataC1Ev(%"class.blink::mojom::internal::FileSystemManager_Remove_ResponseParams_Data"* %14) #12
  %15 = load i8*, i8** %11, align 8
  %16 = getelementptr inbounds i8, i8* %15, i64 %10
  %17 = getelementptr inbounds i8, i8* %16, i64 8
  %18 = bitcast i8* %17 to i32*
  %19 = add i32 %1, 17
  %20 = icmp ult i32 %19, 18
  br i1 %20, label %21, label %25

21:                                               ; preds = %2
  %22 = sext i32 %19 to i64
  %23 = getelementptr inbounds [18 x i32], [18 x i32]* @switch.table._ZN5blink5mojom5blink53FileSystemManager_CreateSnapshotFile_ProxyToResponder3RunERKN4base4File4InfoERKNS3_8FilePathENS4_5ErrorEN4mojo13PendingRemoteINS1_24ReceivedSnapshotListenerEEE, i64 0, i64 %22
  %24 = load i32, i32* %23, align 4
  br label %25

25:                                               ; preds = %2, %21
  %26 = phi i32 [ %24, %21 ], [ -1, %2 ]
  store i32 %26, i32* %18, align 4
  %27 = getelementptr inbounds %"class.blink::mojom::blink::FileSystemManager_Remove_ProxyToResponder", %"class.blink::mojom::blink::FileSystemManager_Remove_ProxyToResponder"* %0, i64 0, i32 0
  %28 = load i64, i64* %27, align 8
  %29 = bitcast i8** %11 to %"struct.mojo::internal::MessageHeaderV1"**
  %30 = load %"struct.mojo::internal::MessageHeaderV1"*, %"struct.mojo::internal::MessageHeaderV1"** %29, align 8
  %31 = getelementptr inbounds %"struct.mojo::internal::MessageHeaderV1", %"struct.mojo::internal::MessageHeaderV1"* %30, i64 0, i32 1
  store i64 %28, i64* %31, align 1
  %32 = getelementptr inbounds %"class.blink::mojom::blink::FileSystemManager_Remove_ProxyToResponder", %"class.blink::mojom::blink::FileSystemManager_Remove_ProxyToResponder"* %0, i64 0, i32 2, i32 0, i32 0, i32 0
  %33 = load %"class.mojo::MessageReceiverWithStatus"*, %"class.mojo::MessageReceiverWithStatus"** %32, align 8
  %34 = getelementptr inbounds %"class.mojo::MessageReceiverWithStatus", %"class.mojo::MessageReceiverWithStatus"* %33, i64 0, i32 0
  %35 = bitcast %"class.mojo::MessageReceiverWithStatus"* %33 to i1 (%"class.mojo::MessageReceiver"*, %"class.mojo::Message"*)***
  %36 = load i1 (%"class.mojo::MessageReceiver"*, %"class.mojo::Message"*)**, i1 (%"class.mojo::MessageReceiver"*, %"class.mojo::Message"*)*** %35, align 8
  %37 = getelementptr inbounds i1 (%"class.mojo::MessageReceiver"*, %"class.mojo::Message"*)*, i1 (%"class.mojo::MessageReceiver"*, %"class.mojo::Message"*)** %36, i64 3
  %38 = load i1 (%"class.mojo::MessageReceiver"*, %"class.mojo::Message"*)*, i1 (%"class.mojo::MessageReceiver"*, %"class.mojo::Message"*)** %37, align 8
  %39 = call zeroext i1 %38(%"class.mojo::MessageReceiver"* %34, %"class.mojo::Message"* nonnull %3) #12
  %40 = load %"class.mojo::MessageReceiverWithStatus"*, %"class.mojo::MessageReceiverWithStatus"** %32, align 8
  store %"class.mojo::MessageReceiverWithStatus"* null, %"class.mojo::MessageReceiverWithStatus"** %32, align 8
  %41 = icmp eq %"class.mojo::MessageReceiverWithStatus"* %40, null
  br i1 %41, label %47, label %42

42:                                               ; preds = %25
  %43 = bitcast %"class.mojo::MessageReceiverWithStatus"* %40 to void (%"class.mojo::MessageReceiverWithStatus"*)***
  %44 = load void (%"class.mojo::MessageReceiverWithStatus"*)**, void (%"class.mojo::MessageReceiverWithStatus"*)*** %43, align 8
  %45 = getelementptr inbounds void (%"class.mojo::MessageReceiverWithStatus"*)*, void (%"class.mojo::MessageReceiverWithStatus"*)** %44, i64 1
  %46 = load void (%"class.mojo::MessageReceiverWithStatus"*)*, void (%"class.mojo::MessageReceiverWithStatus"*)** %45, align 8
  call void %46(%"class.mojo::MessageReceiverWithStatus"* nonnull %40) #12
  br label %47

47:                                               ; preds = %25, %42
  call void @_ZN4mojo7MessageD1Ev(%"class.mojo::Message"* nonnull %3) #12
  call void @llvm.lifetime.end.p0i8(i64 120, i8* nonnull %8) #12
  ret void
}

; Function Attrs: nounwind ssp uwtable
define hidden zeroext i1 @_ZN5blink5mojom5blink43FileSystemManager_Remove_HandleSyncResponse6AcceptEPN4mojo7MessageE(%"class.blink::mojom::blink::FileSystemManager_Remove_HandleSyncResponse"* nocapture readonly, %"class.mojo::Message"*) unnamed_addr #0 align 2 {
  %3 = tail call i8* @_ZNK4mojo7Message7payloadEv(%"class.mojo::Message"* %1) #12
  %4 = getelementptr inbounds i8, i8* %3, i64 8
  %5 = bitcast i8* %4 to i32*
  %6 = load i32, i32* %5, align 4
  %7 = add i32 %6, 16
  %8 = icmp ult i32 %7, 17
  br i1 %8, label %10, label %9

9:                                                ; preds = %2
  tail call void @_ZN4mojo8internal31ReportValidationErrorForMessageEPNS_7MessageENS0_15ValidationErrorEPKcjb(%"class.mojo::Message"* %1, i32 17, i8* getelementptr inbounds ([30 x i8], [30 x i8]* @_ZN5blink5mojom5blink17FileSystemManager5Name_E, i64 0, i64 0), i32 4, i1 zeroext true) #12
  br label %15

10:                                               ; preds = %2
  %11 = getelementptr inbounds %"class.blink::mojom::blink::FileSystemManager_Remove_HandleSyncResponse", %"class.blink::mojom::blink::FileSystemManager_Remove_HandleSyncResponse"* %0, i64 0, i32 2
  %12 = load i32*, i32** %11, align 8
  store i32 %6, i32* %12, align 4
  %13 = getelementptr inbounds %"class.blink::mojom::blink::FileSystemManager_Remove_HandleSyncResponse", %"class.blink::mojom::blink::FileSystemManager_Remove_HandleSyncResponse"* %0, i64 0, i32 1
  %14 = load i8*, i8** %13, align 8
  store i8 1, i8* %14, align 1
  br label %15

15:                                               ; preds = %10, %9
  %16 = phi i1 [ true, %10 ], [ false, %9 ]
  ret i1 %16
}

; Function Attrs: nounwind ssp uwtable
define hidden zeroext i1 @_ZN5blink5mojom5blink48FileSystemManager_ReadMetadata_ForwardToCallback6AcceptEPN4mojo7MessageE(%"class.blink::mojom::blink::FileSystemManager_ReadMetadata_ForwardToCallback"* nocapture, %"class.mojo::Message"*) unnamed_addr #0 align 2 {
  %3 = alloca %"class.base::OnceCallback.82", align 8
  %4 = alloca %"struct.base::File::Info", align 8
  %5 = tail call i8* @_ZNK4mojo7Message7payloadEv(%"class.mojo::Message"* %1) #12
  %6 = bitcast %"struct.base::File::Info"* %4 to i8*
  call void @llvm.lifetime.start.p0i8(i64 40, i8* nonnull %6) #12
  call void @llvm.memset.p0i8.i64(i8* nonnull align 8 %6, i8 -86, i64 40, i1 false)
  call void @_ZN4base4File4InfoC1Ev(%"struct.base::File::Info"* nonnull %4) #12
  %7 = getelementptr inbounds i8, i8* %5, i64 8
  %8 = bitcast i8* %7 to i64*
  %9 = load i64, i64* %8, align 8
  %10 = icmp eq i64 %9, 0
  br i1 %10, label %15, label %11

11:                                               ; preds = %2
  %12 = getelementptr inbounds i8, i8* %7, i64 %9
  %13 = bitcast i8* %12 to %"class.mojo_base::mojom::internal::FileInfo_Data"*
  %14 = call zeroext i1 @_ZN4mojo12StructTraitsIN9mojo_base5mojom16FileInfoDataViewEN4base4File4InfoEE4ReadES3_PS6_(%"class.mojo_base::mojom::internal::FileInfo_Data"* nonnull %13, %"class.mojo::Message"* %1, %"struct.base::File::Info"* nonnull %4) #12
  br i1 %14, label %15, label %21

15:                                               ; preds = %2, %11
  %16 = getelementptr inbounds i8, i8* %5, i64 16
  %17 = bitcast i8* %16 to i32*
  %18 = load i32, i32* %17, align 4
  %19 = add i32 %18, 16
  %20 = icmp ult i32 %19, 17
  br i1 %20, label %22, label %21

21:                                               ; preds = %15, %11
  call void @_ZN4mojo8internal31ReportValidationErrorForMessageEPNS_7MessageENS0_15ValidationErrorEPKcjb(%"class.mojo::Message"* %1, i32 17, i8* getelementptr inbounds ([30 x i8], [30 x i8]* @_ZN5blink5mojom5blink17FileSystemManager5Name_E, i64 0, i64 0), i32 5, i1 zeroext true) #12
  br label %34

22:                                               ; preds = %15
  %23 = getelementptr inbounds %"class.blink::mojom::blink::FileSystemManager_ReadMetadata_ForwardToCallback", %"class.blink::mojom::blink::FileSystemManager_ReadMetadata_ForwardToCallback"* %0, i64 0, i32 1, i32 0, i32 0, i32 0
  %24 = load %"class.base::internal::BindStateBase"*, %"class.base::internal::BindStateBase"** %23, align 8
  %25 = icmp eq %"class.base::internal::BindStateBase"* %24, null
  br i1 %25, label %34, label %26

26:                                               ; preds = %22
  %27 = ptrtoint %"class.base::internal::BindStateBase"* %24 to i64
  %28 = bitcast %"class.base::OnceCallback.82"* %3 to i8*
  call void @llvm.lifetime.start.p0i8(i64 8, i8* nonnull %28) #12
  %29 = bitcast %"class.base::OnceCallback.82"* %3 to i64*
  store i64 %27, i64* %29, align 8
  store %"class.base::internal::BindStateBase"* null, %"class.base::internal::BindStateBase"** %23, align 8
  %30 = getelementptr inbounds %"class.base::OnceCallback.82", %"class.base::OnceCallback.82"* %3, i64 0, i32 0
  %31 = getelementptr inbounds %"class.base::internal::BindStateBase", %"class.base::internal::BindStateBase"* %24, i64 0, i32 1
  %32 = bitcast void ()** %31 to void (%"class.base::internal::BindStateBase"*, %"struct.base::File::Info"*, i32)**
  %33 = load void (%"class.base::internal::BindStateBase"*, %"struct.base::File::Info"*, i32)*, void (%"class.base::internal::BindStateBase"*, %"struct.base::File::Info"*, i32)** %32, align 8
  call void %33(%"class.base::internal::BindStateBase"* nonnull %24, %"struct.base::File::Info"* nonnull dereferenceable(40) %4, i32 %18) #12
  call void @_ZN4base8internal12CallbackBaseD2Ev(%"class.base::internal::CallbackBase"* nonnull %30) #12
  call void @llvm.lifetime.end.p0i8(i64 8, i8* nonnull %28) #12
  br label %34

34:                                               ; preds = %22, %26, %21
  %35 = phi i1 [ false, %21 ], [ true, %26 ], [ true, %22 ]
  call void @_ZN4base4File4InfoD1Ev(%"struct.base::File::Info"* nonnull %4) #12
  call void @llvm.lifetime.end.p0i8(i64 40, i8* nonnull %6) #12
  ret i1 %35
}

declare void @_ZN4base4File4InfoC1Ev(%"struct.base::File::Info"*) unnamed_addr #2

; Function Attrs: nounwind
declare void @_ZN4base4File4InfoD1Ev(%"struct.base::File::Info"*) unnamed_addr #3

; Function Attrs: nounwind ssp uwtable
define hidden void @_ZN5blink5mojom5blink47FileSystemManager_ReadMetadata_ProxyToResponder3RunERKN4base4File4InfoENS4_5ErrorE(%"class.blink::mojom::blink::FileSystemManager_ReadMetadata_ProxyToResponder"* nocapture, %"struct.base::File::Info"* dereferenceable(40), i32) #0 align 2 {
  %4 = alloca %"class.mojo::Message", align 8
  %5 = alloca %"class.mojo::internal::MessageFragment.111", align 8
  %6 = getelementptr inbounds %"class.blink::mojom::blink::FileSystemManager_ReadMetadata_ProxyToResponder", %"class.blink::mojom::blink::FileSystemManager_ReadMetadata_ProxyToResponder"* %0, i64 0, i32 1
  %7 = load i8, i8* %6, align 8, !range !3
  %8 = icmp eq i8 %7, 0
  %9 = select i1 %8, i32 2, i32 6
  %10 = bitcast %"class.mojo::Message"* %4 to i8*
  call void @llvm.lifetime.start.p0i8(i64 120, i8* nonnull %10) #12
  call void @llvm.memset.p0i8.i64(i8* nonnull align 8 %10, i8 -86, i64 120, i1 false)
  call void @_ZN4mojo7MessageC1EjjmmPNSt3__16vectorINS_16ScopedHandleBaseINS_6HandleEEENS1_9allocatorIS5_EEEE(%"class.mojo::Message"* nonnull %4, i32 5, i32 %9, i64 0, i64 0, %"class.std::__1::vector"* null) #12
  %11 = getelementptr inbounds %"class.mojo::Message", %"class.mojo::Message"* %4, i64 0, i32 1
  %12 = call i64 @_ZN4mojo8internal6Buffer8AllocateEm(%"class.mojo::internal::Buffer"* %11, i64 24) #12
  %13 = getelementptr inbounds %"class.mojo::Message", %"class.mojo::Message"* %4, i64 0, i32 1, i32 2
  %14 = load i8*, i8** %13, align 8
  %15 = getelementptr inbounds i8, i8* %14, i64 %12
  %16 = bitcast i8* %15 to %"class.blink::mojom::internal::FileSystemManager_ReadMetadata_ResponseParams_Data"*
  call void @_ZN5blink5mojom8internal50FileSystemManager_ReadMetadata_ResponseParams_DataC1Ev(%"class.blink::mojom::internal::FileSystemManager_ReadMetadata_ResponseParams_Data"* %16) #12
  %17 = bitcast %"class.mojo::internal::MessageFragment.111"* %5 to i8*
  call void @llvm.lifetime.start.p0i8(i64 16, i8* nonnull %17) #12
  %18 = getelementptr inbounds %"class.mojo::internal::MessageFragment.111", %"class.mojo::internal::MessageFragment.111"* %5, i64 0, i32 0
  %19 = getelementptr inbounds %"class.mojo::internal::MessageFragment.111", %"class.mojo::internal::MessageFragment.111"* %5, i64 0, i32 1
  store %"class.mojo::Message"* %4, %"class.mojo::Message"** %18, align 8
  store i64 -1, i64* %19, align 8
  call void @_ZN4mojo8internal10SerializerIN9mojo_base5mojom16FileInfoDataViewEKN4base4File4InfoEE9SerializeERS8_RNS0_15MessageFragmentINS3_8internal13FileInfo_DataEEE(%"struct.base::File::Info"* dereferenceable(40) %1, %"class.mojo::internal::MessageFragment.111"* nonnull dereferenceable(16) %5) #12
  %20 = load i8*, i8** %13, align 8
  %21 = getelementptr inbounds i8, i8* %20, i64 %12
  %22 = getelementptr inbounds i8, i8* %21, i64 8
  %23 = load i64, i64* %19, align 8
  %24 = icmp eq i64 %23, -1
  br i1 %24, label %31, label %25

25:                                               ; preds = %3
  %26 = load %"class.mojo::Message"*, %"class.mojo::Message"** %18, align 8
  %27 = getelementptr inbounds %"class.mojo::Message", %"class.mojo::Message"* %26, i64 0, i32 1, i32 2
  %28 = load i8*, i8** %27, align 8
  %29 = getelementptr inbounds i8, i8* %28, i64 %23
  %30 = bitcast i8* %29 to %"class.mojo_base::mojom::internal::FileInfo_Data"*
  br label %31

31:                                               ; preds = %3, %25
  %32 = phi %"class.mojo_base::mojom::internal::FileInfo_Data"* [ %30, %25 ], [ null, %3 ]
  %33 = bitcast i8* %22 to i64*
  %34 = icmp eq %"class.mojo_base::mojom::internal::FileInfo_Data"* %32, null
  %35 = ptrtoint %"class.mojo_base::mojom::internal::FileInfo_Data"* %32 to i64
  %36 = ptrtoint i8* %22 to i64
  %37 = sub i64 %35, %36
  %38 = select i1 %34, i64 0, i64 %37
  store i64 %38, i64* %33, align 8
  %39 = load i8*, i8** %13, align 8
  %40 = getelementptr inbounds i8, i8* %39, i64 %12
  %41 = getelementptr inbounds i8, i8* %40, i64 16
  %42 = bitcast i8* %41 to i32*
  %43 = add i32 %2, 17
  %44 = icmp ult i32 %43, 18
  br i1 %44, label %45, label %49

45:                                               ; preds = %31
  %46 = sext i32 %43 to i64
  %47 = getelementptr inbounds [18 x i32], [18 x i32]* @switch.table._ZN5blink5mojom5blink53FileSystemManager_CreateSnapshotFile_ProxyToResponder3RunERKN4base4File4InfoERKNS3_8FilePathENS4_5ErrorEN4mojo13PendingRemoteINS1_24ReceivedSnapshotListenerEEE, i64 0, i64 %46
  %48 = load i32, i32* %47, align 4
  br label %49

49:                                               ; preds = %31, %45
  %50 = phi i32 [ %48, %45 ], [ -1, %31 ]
  store i32 %50, i32* %42, align 4
  %51 = getelementptr inbounds %"class.blink::mojom::blink::FileSystemManager_ReadMetadata_ProxyToResponder", %"class.blink::mojom::blink::FileSystemManager_ReadMetadata_ProxyToResponder"* %0, i64 0, i32 0
  %52 = load i64, i64* %51, align 8
  %53 = bitcast i8** %13 to %"struct.mojo::internal::MessageHeaderV1"**
  %54 = load %"struct.mojo::internal::MessageHeaderV1"*, %"struct.mojo::internal::MessageHeaderV1"** %53, align 8
  %55 = getelementptr inbounds %"struct.mojo::internal::MessageHeaderV1", %"struct.mojo::internal::MessageHeaderV1"* %54, i64 0, i32 1
  store i64 %52, i64* %55, align 1
  %56 = getelementptr inbounds %"class.blink::mojom::blink::FileSystemManager_ReadMetadata_ProxyToResponder", %"class.blink::mojom::blink::FileSystemManager_ReadMetadata_ProxyToResponder"* %0, i64 0, i32 2, i32 0, i32 0, i32 0
  %57 = load %"class.mojo::MessageReceiverWithStatus"*, %"class.mojo::MessageReceiverWithStatus"** %56, align 8
  %58 = getelementptr inbounds %"class.mojo::MessageReceiverWithStatus", %"class.mojo::MessageReceiverWithStatus"* %57, i64 0, i32 0
  %59 = bitcast %"class.mojo::MessageReceiverWithStatus"* %57 to i1 (%"class.mojo::MessageReceiver"*, %"class.mojo::Message"*)***
  %60 = load i1 (%"class.mojo::MessageReceiver"*, %"class.mojo::Message"*)**, i1 (%"class.mojo::MessageReceiver"*, %"class.mojo::Message"*)*** %59, align 8
  %61 = getelementptr inbounds i1 (%"class.mojo::MessageReceiver"*, %"class.mojo::Message"*)*, i1 (%"class.mojo::MessageReceiver"*, %"class.mojo::Message"*)** %60, i64 3
  %62 = load i1 (%"class.mojo::MessageReceiver"*, %"class.mojo::Message"*)*, i1 (%"class.mojo::MessageReceiver"*, %"class.mojo::Message"*)** %61, align 8
  %63 = call zeroext i1 %62(%"class.mojo::MessageReceiver"* %58, %"class.mojo::Message"* nonnull %4) #12
  %64 = load %"class.mojo::MessageReceiverWithStatus"*, %"class.mojo::MessageReceiverWithStatus"** %56, align 8
  store %"class.mojo::MessageReceiverWithStatus"* null, %"class.mojo::MessageReceiverWithStatus"** %56, align 8
  %65 = icmp eq %"class.mojo::MessageReceiverWithStatus"* %64, null
  br i1 %65, label %71, label %66

66:                                               ; preds = %49
  %67 = bitcast %"class.mojo::MessageReceiverWithStatus"* %64 to void (%"class.mojo::MessageReceiverWithStatus"*)***
