; ModuleID = '../../storage/browser/file_system/file_system_operation_runner.cc'
source_filename = "../../storage/browser/file_system/file_system_operation_runner.cc"
target datalayout = "e-m:e-i64:64-f80:128-n8:16:32:64-S128"
target triple = "x86_64-unknown-linux-gnu"

module asm ".symver exp, exp@GLIBC_2.2.5"
module asm ".symver exp2, exp2@GLIBC_2.2.5"
module asm ".symver exp2f, exp2f@GLIBC_2.2.5"
module asm ".symver expf, expf@GLIBC_2.2.5"
module asm ".symver lgamma, lgamma@GLIBC_2.2.5"
module asm ".symver lgammaf, lgammaf@GLIBC_2.2.5"
module asm ".symver lgammal, lgammal@GLIBC_2.2.5"
module asm ".symver log, log@GLIBC_2.2.5"
module asm ".symver log2, log2@GLIBC_2.2.5"
module asm ".symver log2f, log2f@GLIBC_2.2.5"
module asm ".symver logf, logf@GLIBC_2.2.5"
module asm ".symver pow, pow@GLIBC_2.2.5"
module asm ".symver powf, powf@GLIBC_2.2.5"

%"class.storage::FileSystemOperationRunner" = type { i32 (...)**, %"class.storage::FileSystemContext"*, i64, %"class.std::__1::map.152", i8, %"class.std::__1::map.163", %"class.std::__1::set.172", %"class.std::__1::map.180", %"class.base::WeakPtr", %"class.base::WeakPtrFactory.190" }
%"class.storage::FileSystemContext" = type { %"class.base::RefCountedDeleteOnSequence", %"class.std::__1::unique_ptr", %class.scoped_refptr.2, %class.scoped_refptr, %class.scoped_refptr.3, %"class.std::__1::unique_ptr.4", %"class.std::__1::unique_ptr.95", %"class.std::__1::unique_ptr.101", %"class.std::__1::unique_ptr.107", %"class.std::__1::vector.114", %"class.std::__1::vector.122", %"class.std::__1::map.129", %class.scoped_refptr.138, %"class.std::__1::vector.139", %"class.base::FilePath", i8, %"class.std::__1::unique_ptr.146" }
%"class.base::RefCountedDeleteOnSequence" = type { %"class.base::subtle::RefCountedThreadSafeBase", %class.scoped_refptr }
%"class.base::subtle::RefCountedThreadSafeBase" = type { %"class.base::AtomicRefCount" }
%"class.base::AtomicRefCount" = type { %"struct.std::__1::atomic" }
%"struct.std::__1::atomic" = type { %"struct.std::__1::__atomic_base" }
%"struct.std::__1::__atomic_base" = type { %"struct.std::__1::__atomic_base.0" }
%"struct.std::__1::__atomic_base.0" = type { %"struct.std::__1::__cxx_atomic_impl" }
%"struct.std::__1::__cxx_atomic_impl" = type { %"struct.std::__1::__cxx_atomic_base_impl" }
%"struct.std::__1::__cxx_atomic_base_impl" = type { i32 }
%"class.std::__1::unique_ptr" = type { %"class.std::__1::__compressed_pair" }
%"class.std::__1::__compressed_pair" = type { %"struct.std::__1::__compressed_pair_elem" }
%"struct.std::__1::__compressed_pair_elem" = type { %"class.leveldb::Env"* }
%"class.leveldb::Env" = type opaque
%class.scoped_refptr.2 = type { %"class.base::SingleThreadTaskRunner"* }
%"class.base::SingleThreadTaskRunner" = type { %"class.base::SequencedTaskRunner.base", [4 x i8] }
%"class.base::SequencedTaskRunner.base" = type { %"class.base::TaskRunner.base" }
%"class.base::TaskRunner.base" = type <{ i32 (...)**, %"class.base::RefCountedThreadSafe" }>
%"class.base::RefCountedThreadSafe" = type { %"class.base::subtle::RefCountedThreadSafeBase" }
%class.scoped_refptr = type { %"class.base::SequencedTaskRunner"* }
%"class.base::SequencedTaskRunner" = type { %"class.base::TaskRunner.base", [4 x i8] }
%class.scoped_refptr.3 = type { %"class.storage::QuotaManagerProxy"* }
%"class.storage::QuotaManagerProxy" = type opaque
%"class.std::__1::unique_ptr.4" = type { %"class.std::__1::__compressed_pair.5" }
%"class.std::__1::__compressed_pair.5" = type { %"struct.std::__1::__compressed_pair_elem.6" }
%"struct.std::__1::__compressed_pair_elem.6" = type { %"class.storage::SandboxFileSystemBackendDelegate"* }
%"class.storage::SandboxFileSystemBackendDelegate" = type { %"class.storage::FileSystemQuotaUtil", %class.scoped_refptr, %class.scoped_refptr.3, %"class.std::__1::unique_ptr.7", %"class.std::__1::unique_ptr.13", %"class.std::__1::unique_ptr.19", %"class.std::__1::unique_ptr.25", %class.scoped_refptr.31, %"class.storage::FileSystemOptions", i8, %"class.std::__1::set", %"class.std::__1::set.48", %"class.std::__1::map", %"class.std::__1::map.67", %"class.std::__1::map.76", %"class.base::Time", %"class.base::WeakPtrFactory" }
%"class.storage::FileSystemQuotaUtil" = type { i32 (...)** }
%"class.std::__1::unique_ptr.7" = type { %"class.std::__1::__compressed_pair.8" }
%"class.std::__1::__compressed_pair.8" = type { %"struct.std::__1::__compressed_pair_elem.9" }
%"struct.std::__1::__compressed_pair_elem.9" = type { %"class.storage::AsyncFileUtil"* }
%"class.storage::AsyncFileUtil" = type opaque
%"class.std::__1::unique_ptr.13" = type { %"class.std::__1::__compressed_pair.14" }
%"class.std::__1::__compressed_pair.14" = type { %"struct.std::__1::__compressed_pair_elem.15" }
%"struct.std::__1::__compressed_pair_elem.15" = type { %"class.storage::FileSystemUsageCache"* }
%"class.storage::FileSystemUsageCache" = type opaque
%"class.std::__1::unique_ptr.19" = type { %"class.std::__1::__compressed_pair.20" }
%"class.std::__1::__compressed_pair.20" = type { %"struct.std::__1::__compressed_pair_elem.21" }
%"struct.std::__1::__compressed_pair_elem.21" = type { %"class.storage::SandboxQuotaObserver"* }
%"class.storage::SandboxQuotaObserver" = type opaque
%"class.std::__1::unique_ptr.25" = type { %"class.std::__1::__compressed_pair.26" }
%"class.std::__1::__compressed_pair.26" = type { %"struct.std::__1::__compressed_pair_elem.27" }
%"struct.std::__1::__compressed_pair_elem.27" = type { %"class.storage::QuotaReservationManager"* }
%"class.storage::QuotaReservationManager" = type opaque
%class.scoped_refptr.31 = type { %"class.storage::SpecialStoragePolicy"* }
%"class.storage::SpecialStoragePolicy" = type opaque
%"class.storage::FileSystemOptions" = type { i32, i8, %"class.std::__1::vector" }
%"class.std::__1::vector" = type { %"class.std::__1::__vector_base" }
%"class.std::__1::__vector_base" = type { %"class.std::__1::basic_string"*, %"class.std::__1::basic_string"*, %"class.std::__1::__compressed_pair.35" }
%"class.std::__1::basic_string" = type { %"class.std::__1::__compressed_pair.32" }
%"class.std::__1::__compressed_pair.32" = type { %"struct.std::__1::__compressed_pair_elem.33" }
%"struct.std::__1::__compressed_pair_elem.33" = type { %"struct.std::__1::basic_string<char, std::__1::char_traits<char>, std::__1::allocator<char> >::__rep" }
%"struct.std::__1::basic_string<char, std::__1::char_traits<char>, std::__1::allocator<char> >::__rep" = type { %union.anon }
%union.anon = type { %"struct.std::__1::basic_string<char, std::__1::char_traits<char>, std::__1::allocator<char> >::__long" }
%"struct.std::__1::basic_string<char, std::__1::char_traits<char>, std::__1::allocator<char> >::__long" = type { i8*, i64, i64 }
%"class.std::__1::__compressed_pair.35" = type { %"struct.std::__1::__compressed_pair_elem.36" }
%"struct.std::__1::__compressed_pair_elem.36" = type { %"class.std::__1::basic_string"* }
%"class.std::__1::set" = type { %"class.std::__1::__tree" }
%"class.std::__1::__tree" = type { %"class.std::__1::__tree_end_node"*, %"class.std::__1::__compressed_pair.40", %"class.std::__1::__compressed_pair.45" }
%"class.std::__1::__tree_end_node" = type { %"class.std::__1::__tree_node_base"* }
%"class.std::__1::__tree_node_base" = type <{ %"class.std::__1::__tree_end_node", %"class.std::__1::__tree_node_base"*, %"class.std::__1::__tree_end_node"*, i8, [7 x i8] }>
%"class.std::__1::__compressed_pair.40" = type { %"struct.std::__1::__compressed_pair_elem.41" }
%"struct.std::__1::__compressed_pair_elem.41" = type { %"class.std::__1::__tree_end_node" }
%"class.std::__1::__compressed_pair.45" = type { %"struct.std::__1::__compressed_pair_elem.46" }
%"struct.std::__1::__compressed_pair_elem.46" = type { i64 }
%"class.std::__1::set.48" = type { %"class.std::__1::__tree.49" }
%"class.std::__1::__tree.49" = type { %"class.std::__1::__tree_end_node"*, %"class.std::__1::__compressed_pair.50", %"class.std::__1::__compressed_pair.54" }
%"class.std::__1::__compressed_pair.50" = type { %"struct.std::__1::__compressed_pair_elem.41" }
%"class.std::__1::__compressed_pair.54" = type { %"struct.std::__1::__compressed_pair_elem.46" }
%"class.std::__1::map" = type { %"class.std::__1::__tree.58" }
%"class.std::__1::__tree.58" = type { %"class.std::__1::__tree_end_node"*, %"class.std::__1::__compressed_pair.59", %"class.std::__1::__compressed_pair.63" }
%"class.std::__1::__compressed_pair.59" = type { %"struct.std::__1::__compressed_pair_elem.41" }
%"class.std::__1::__compressed_pair.63" = type { %"struct.std::__1::__compressed_pair_elem.46" }
%"class.std::__1::map.67" = type { %"class.std::__1::__tree.68" }
%"class.std::__1::__tree.68" = type { %"class.std::__1::__tree_end_node"*, %"class.std::__1::__compressed_pair.69", %"class.std::__1::__compressed_pair.73" }
%"class.std::__1::__compressed_pair.69" = type { %"struct.std::__1::__compressed_pair_elem.41" }
%"class.std::__1::__compressed_pair.73" = type { %"struct.std::__1::__compressed_pair_elem.46" }
%"class.std::__1::map.76" = type { %"class.std::__1::__tree.77" }
%"class.std::__1::__tree.77" = type { %"class.std::__1::__tree_end_node"*, %"class.std::__1::__compressed_pair.78", %"class.std::__1::__compressed_pair.82" }
%"class.std::__1::__compressed_pair.78" = type { %"struct.std::__1::__compressed_pair_elem.41" }
%"class.std::__1::__compressed_pair.82" = type { %"struct.std::__1::__compressed_pair_elem.46" }
%"class.base::Time" = type { %"class.base::time_internal::TimeBase" }
%"class.base::time_internal::TimeBase" = type { i64 }
%"class.base::WeakPtrFactory" = type { %"class.base::internal::WeakPtrFactoryBase" }
%"class.base::internal::WeakPtrFactoryBase" = type { %"class.base::internal::WeakReferenceOwner", i64 }
%"class.base::internal::WeakReferenceOwner" = type { %class.scoped_refptr.85 }
%class.scoped_refptr.85 = type { %"class.base::internal::WeakReference::Flag"* }
%"class.base::internal::WeakReference::Flag" = type <{ %"class.base::RefCountedThreadSafe.86", %"class.base::AtomicFlag", [3 x i8] }>
%"class.base::RefCountedThreadSafe.86" = type { %"class.base::subtle::RefCountedThreadSafeBase" }
%"class.base::AtomicFlag" = type { %"struct.std::__1::atomic.87" }
%"struct.std::__1::atomic.87" = type { %"struct.std::__1::__atomic_base.88" }
%"struct.std::__1::__atomic_base.88" = type { %"struct.std::__1::__atomic_base.89" }
%"struct.std::__1::__atomic_base.89" = type { %"struct.std::__1::__cxx_atomic_impl.90" }
%"struct.std::__1::__cxx_atomic_impl.90" = type { %"struct.std::__1::__cxx_atomic_base_impl.91" }
%"struct.std::__1::__cxx_atomic_base_impl.91" = type { i8 }
%"class.std::__1::unique_ptr.95" = type { %"class.std::__1::__compressed_pair.96" }
%"class.std::__1::__compressed_pair.96" = type { %"struct.std::__1::__compressed_pair_elem.97" }
%"struct.std::__1::__compressed_pair_elem.97" = type { %"class.storage::SandboxFileSystemBackend"* }
%"class.storage::SandboxFileSystemBackend" = type opaque
%"class.std::__1::unique_ptr.101" = type { %"class.std::__1::__compressed_pair.102" }
%"class.std::__1::__compressed_pair.102" = type { %"struct.std::__1::__compressed_pair_elem.103" }
%"struct.std::__1::__compressed_pair_elem.103" = type { %"class.storage::IsolatedFileSystemBackend"* }
%"class.storage::IsolatedFileSystemBackend" = type opaque
%"class.std::__1::unique_ptr.107" = type { %"class.std::__1::__compressed_pair.108" }
%"class.std::__1::__compressed_pair.108" = type { %"struct.std::__1::__compressed_pair_elem.109" }
%"struct.std::__1::__compressed_pair_elem.109" = type { %"class.storage::PluginPrivateFileSystemBackend"* }
%"class.storage::PluginPrivateFileSystemBackend" = type { %"class.storage::FileSystemBackend", %"class.storage::FileSystemQuotaUtil", %class.scoped_refptr, %"class.storage::FileSystemOptions", %"class.base::FilePath", %"class.std::__1::unique_ptr.7", %"class.storage::PluginPrivateFileSystemBackend::FileSystemIDToPluginMap"*, %"class.base::WeakPtrFactory.110" }
%"class.storage::FileSystemBackend" = type { i32 (...)** }
%"class.storage::PluginPrivateFileSystemBackend::FileSystemIDToPluginMap" = type opaque
%"class.base::WeakPtrFactory.110" = type { %"class.base::internal::WeakPtrFactoryBase" }
%"class.std::__1::vector.114" = type { %"class.std::__1::__vector_base.115" }
%"class.std::__1::__vector_base.115" = type { %"class.std::__1::unique_ptr.116"*, %"class.std::__1::unique_ptr.116"*, %"class.std::__1::__compressed_pair.117" }
%"class.std::__1::unique_ptr.116" = type opaque
%"class.std::__1::__compressed_pair.117" = type { %"struct.std::__1::__compressed_pair_elem.118" }
%"struct.std::__1::__compressed_pair_elem.118" = type { %"class.std::__1::unique_ptr.116"* }
%"class.std::__1::vector.122" = type { %"class.std::__1::__vector_base.123" }
%"class.std::__1::__vector_base.123" = type { %"class.base::RepeatingCallback"*, %"class.base::RepeatingCallback"*, %"class.std::__1::__compressed_pair.124" }
%"class.base::RepeatingCallback" = type opaque
%"class.std::__1::__compressed_pair.124" = type { %"struct.std::__1::__compressed_pair_elem.125" }
%"struct.std::__1::__compressed_pair_elem.125" = type { %"class.base::RepeatingCallback"* }
%"class.std::__1::map.129" = type { %"class.std::__1::__tree.130" }
%"class.std::__1::__tree.130" = type { %"class.std::__1::__tree_end_node"*, %"class.std::__1::__compressed_pair.131", %"class.std::__1::__compressed_pair.135" }
%"class.std::__1::__compressed_pair.131" = type { %"struct.std::__1::__compressed_pair_elem.41" }
%"class.std::__1::__compressed_pair.135" = type { %"struct.std::__1::__compressed_pair_elem.46" }
%class.scoped_refptr.138 = type { %"class.storage::ExternalMountPoints"* }
%"class.storage::ExternalMountPoints" = type opaque
%"class.std::__1::vector.139" = type { %"class.std::__1::__vector_base.140" }
%"class.std::__1::__vector_base.140" = type { %"class.storage::MountPoints"**, %"class.storage::MountPoints"**, %"class.std::__1::__compressed_pair.141" }
%"class.storage::MountPoints" = type opaque
%"class.std::__1::__compressed_pair.141" = type { %"struct.std::__1::__compressed_pair_elem.142" }
%"struct.std::__1::__compressed_pair_elem.142" = type { %"class.storage::MountPoints"** }
%"class.base::FilePath" = type { %"class.std::__1::basic_string" }
%"class.std::__1::unique_ptr.146" = type { %"class.std::__1::__compressed_pair.147" }
%"class.std::__1::__compressed_pair.147" = type { %"struct.std::__1::__compressed_pair_elem.148" }
%"struct.std::__1::__compressed_pair_elem.148" = type { %"class.storage::FileSystemOperationRunner"* }
%"class.std::__1::map.152" = type { %"class.std::__1::__tree.153" }
%"class.std::__1::__tree.153" = type { %"class.std::__1::__tree_end_node"*, %"class.std::__1::__compressed_pair.154", %"class.std::__1::__compressed_pair.158" }
%"class.std::__1::__compressed_pair.154" = type { %"struct.std::__1::__compressed_pair_elem.41" }
%"class.std::__1::__compressed_pair.158" = type { %"struct.std::__1::__compressed_pair_elem.46" }
%"class.std::__1::map.163" = type { %"class.std::__1::__tree.164" }
%"class.std::__1::__tree.164" = type { %"class.std::__1::__tree_end_node"*, %"class.std::__1::__compressed_pair.165", %"class.std::__1::__compressed_pair.169" }
%"class.std::__1::__compressed_pair.165" = type { %"struct.std::__1::__compressed_pair_elem.41" }
%"class.std::__1::__compressed_pair.169" = type { %"struct.std::__1::__compressed_pair_elem.46" }
%"class.std::__1::set.172" = type { %"class.std::__1::__tree.173" }
%"class.std::__1::__tree.173" = type { %"class.std::__1::__tree_end_node"*, %"class.std::__1::__compressed_pair.174", %"class.std::__1::__compressed_pair.178" }
%"class.std::__1::__compressed_pair.174" = type { %"struct.std::__1::__compressed_pair_elem.41" }
%"class.std::__1::__compressed_pair.178" = type { %"struct.std::__1::__compressed_pair_elem.46" }
%"class.std::__1::map.180" = type { %"class.std::__1::__tree.181" }
%"class.std::__1::__tree.181" = type { %"class.std::__1::__tree_end_node"*, %"class.std::__1::__compressed_pair.182", %"class.std::__1::__compressed_pair.186" }
%"class.std::__1::__compressed_pair.182" = type { %"struct.std::__1::__compressed_pair_elem.41" }
%"class.std::__1::__compressed_pair.186" = type { %"struct.std::__1::__compressed_pair_elem.46" }
%"class.base::WeakPtr" = type { %"class.base::internal::WeakPtrBase" }
%"class.base::internal::WeakPtrBase" = type { %"class.base::internal::WeakReference", i64 }
%"class.base::internal::WeakReference" = type { %class.scoped_refptr.189 }
%class.scoped_refptr.189 = type { %"class.base::internal::WeakReference::Flag"* }
%"class.base::WeakPtrFactory.190" = type { %"class.base::internal::WeakPtrFactoryBase" }
%class.scoped_refptr.191 = type { %"class.storage::FileSystemContext"* }
%"class.std::__1::__tree_node.374" = type { %"class.std::__1::__tree_node_base.base", %"struct.std::__1::__value_type.375" }
%"class.std::__1::__tree_node_base.base" = type <{ %"class.std::__1::__tree_end_node", %"class.std::__1::__tree_node_base"*, %"class.std::__1::__tree_end_node"*, i8 }>
%"struct.std::__1::__value_type.375" = type { %"struct.std::__1::pair.367" }
%"struct.std::__1::pair.367" = type { i64, %"class.base::OnceCallback" }
%"class.base::OnceCallback" = type { %"class.base::internal::CallbackBase" }
%"class.base::internal::CallbackBase" = type { %class.scoped_refptr.193 }
%class.scoped_refptr.193 = type { %"class.base::internal::BindStateBase"* }
%"class.base::internal::BindStateBase" = type { %"class.base::RefCountedThreadSafe.194", void ()*, void (%"class.base::internal::BindStateBase"*)*, i1 (%"class.base::internal::BindStateBase"*, i32)* }
%"class.base::RefCountedThreadSafe.194" = type { %"class.base::subtle::RefCountedThreadSafeBase" }
%"class.std::__1::__tree_node" = type { %"class.std::__1::__tree_node_base.base", i64 }
%"class.std::__1::__tree_node.371" = type { %"class.std::__1::__tree_node_base.base", %"struct.std::__1::__value_type.372" }
%"struct.std::__1::__value_type.372" = type { %"struct.std::__1::pair.364" }
%"struct.std::__1::pair.364" = type { i64, %"class.std::__1::set.339" }
%"class.std::__1::set.339" = type { %"class.std::__1::__tree.340" }
%"class.std::__1::__tree.340" = type { %"class.std::__1::__tree_end_node"*, %"class.std::__1::__compressed_pair.341", %"class.std::__1::__compressed_pair.345" }
%"class.std::__1::__compressed_pair.341" = type { %"struct.std::__1::__compressed_pair_elem.41" }
%"class.std::__1::__compressed_pair.345" = type { %"struct.std::__1::__compressed_pair_elem.46" }
%"class.std::__1::__tree_node.370" = type { %"class.std::__1::__tree_node_base.base", %"struct.std::__1::__value_type" }
%"struct.std::__1::__value_type" = type { %"struct.std::__1::pair" }
%"struct.std::__1::pair" = type { i64, %"class.std::__1::unique_ptr.195" }
%"class.std::__1::unique_ptr.195" = type { %"class.std::__1::__compressed_pair.196" }
%"class.std::__1::__compressed_pair.196" = type { %"struct.std::__1::__compressed_pair_elem.197" }
%"struct.std::__1::__compressed_pair_elem.197" = type { %"class.storage::FileSystemOperation"* }
%"class.storage::FileSystemOperation" = type { i32 (...)** }
%"class.storage::FileSystemURL" = type <{ i8, i8, [6 x i8], %"class.url::Origin", i32, [4 x i8], %"class.base::FilePath", %"class.std::__1::basic_string", i32, [4 x i8], %"class.base::FilePath", %"class.std::__1::basic_string", %"class.storage::FileSystemMountOption", [4 x i8] }>
%"class.url::Origin" = type { %"class.url::SchemeHostPort", %"class.absl::optional" }
%"class.url::SchemeHostPort" = type <{ %"class.std::__1::basic_string", %"class.std::__1::basic_string", i16, [6 x i8] }>
%"class.absl::optional" = type { %"class.absl::optional_internal::optional_data" }
%"class.absl::optional_internal::optional_data" = type { %"class.absl::optional_internal::optional_data_base" }
%"class.absl::optional_internal::optional_data_base" = type { %"class.absl::optional_internal::optional_data_dtor_base" }
%"class.absl::optional_internal::optional_data_dtor_base" = type { i8, %union.anon.192 }
%union.anon.192 = type { %"class.url::Origin::Nonce" }
%"class.url::Origin::Nonce" = type { %"class.base::UnguessableToken" }
%"class.base::UnguessableToken" = type { %"class.base::Token" }
%"class.base::Token" = type { i64, i64 }
%"class.storage::FileSystemMountOption" = type { i32 }
%"class.base::Location" = type { i8*, i8*, i32, i8* }
%"class.base::OnceCallback.315" = type { %"class.base::internal::CallbackBase" }
%"class.base::TaskRunner" = type <{ i32 (...)**, %"class.base::RefCountedThreadSafe", [4 x i8] }>
%"class.storage::TaskRunnerBoundObserverList" = type { i32 (...)**, %"class.std::__1::map.328" }
%"class.std::__1::map.328" = type { %"class.std::__1::__tree.329" }
%"class.std::__1::__tree.329" = type { %"class.std::__1::__tree_end_node"*, %"class.std::__1::__compressed_pair.330", %"class.std::__1::__compressed_pair.334" }
%"class.std::__1::__compressed_pair.330" = type { %"struct.std::__1::__compressed_pair_elem.41" }
%"class.std::__1::__compressed_pair.334" = type { %"struct.std::__1::__compressed_pair_elem.46" }
%"class.base::RepeatingCallback.201" = type { %"class.base::internal::CallbackBaseCopyable" }
%"class.base::internal::CallbackBaseCopyable" = type { %"class.base::internal::CallbackBase" }
%"class.storage::TaskRunnerBoundObserverList.350" = type { i32 (...)**, %"class.std::__1::map.351" }
%"class.std::__1::map.351" = type { %"class.std::__1::__tree.352" }
%"class.std::__1::__tree.352" = type { %"class.std::__1::__tree_end_node"*, %"class.std::__1::__compressed_pair.353", %"class.std::__1::__compressed_pair.357" }
%"class.std::__1::__compressed_pair.353" = type { %"struct.std::__1::__compressed_pair_elem.41" }
%"class.std::__1::__compressed_pair.357" = type { %"struct.std::__1::__compressed_pair_elem.46" }
%"class.base::OnceCallback.202" = type { %"class.base::internal::CallbackBase" }
%"struct.base::File::Info" = type { i64, i8, i8, %"class.base::Time", %"class.base::Time", %"class.base::Time" }
%"class.base::RepeatingCallback.203" = type { %"class.base::internal::CallbackBaseCopyable" }
%"class.std::__1::vector.204" = type { %"class.std::__1::__vector_base.205" }
%"class.std::__1::__vector_base.205" = type { %"class.filesystem::mojom::DirectoryEntry"*, %"class.filesystem::mojom::DirectoryEntry"*, %"class.std::__1::__compressed_pair.206" }
%"class.filesystem::mojom::DirectoryEntry" = type <{ %"class.base::FilePath", i32, [4 x i8] }>
%"class.std::__1::__compressed_pair.206" = type { %"struct.std::__1::__compressed_pair_elem.207" }
%"struct.std::__1::__compressed_pair_elem.207" = type { %"class.filesystem::mojom::DirectoryEntry"* }
%"class.storage::BlobDataHandle" = type { %"class.base::SupportsUserData::Data", %class.scoped_refptr, %class.scoped_refptr.214 }
%"class.base::SupportsUserData::Data" = type { i32 (...)** }
%class.scoped_refptr.214 = type { %"class.storage::BlobDataHandle::BlobDataHandleShared"* }
%"class.storage::BlobDataHandle::BlobDataHandleShared" = type { i32 (...)**, %"class.base::RefCountedThreadSafe.215", %"class.std::__1::basic_string", %"class.std::__1::basic_string", %"class.std::__1::basic_string", i64, %"class.base::WeakPtr.216" }
%"class.base::RefCountedThreadSafe.215" = type { %"class.base::subtle::RefCountedThreadSafeBase" }
%"class.base::WeakPtr.216" = type { %"class.base::internal::WeakPtrBase" }
%"class.base::RepeatingCallback.220" = type { %"class.base::internal::CallbackBaseCopyable" }
%"class.storage::FileStreamWriter" = type { i32 (...)** }
%"class.storage::FileWriterDelegate" = type { i32 (...)**, %"class.base::RepeatingCallback.230", %"class.std::__1::unique_ptr.221", %"class.base::Time", i8, i32, i32, i32, i32, i8, i32, %class.scoped_refptr.231, %class.scoped_refptr.233, %"class.std::__1::unique_ptr.235", %"class.mojo::ScopedHandleBase.305", %"class.mojo::SimpleWatcher", %"class.base::WeakPtrFactory.310" }
%"class.base::RepeatingCallback.230" = type { %"class.base::internal::CallbackBaseCopyable" }
%"class.std::__1::unique_ptr.221" = type { %"class.std::__1::__compressed_pair.222" }
%"class.std::__1::__compressed_pair.222" = type { %"struct.std::__1::__compressed_pair_elem.223" }
%"struct.std::__1::__compressed_pair_elem.223" = type { %"class.storage::FileStreamWriter"* }
%class.scoped_refptr.231 = type { %"class.net::IOBufferWithSize"* }
%"class.net::IOBufferWithSize" = type <{ %"class.net::IOBuffer", i32, [4 x i8] }>
%"class.net::IOBuffer" = type { i32 (...)**, %"class.base::RefCountedThreadSafe.232", i8* }
%"class.base::RefCountedThreadSafe.232" = type { %"class.base::subtle::RefCountedThreadSafeBase" }
%class.scoped_refptr.233 = type { %"class.net::DrainableIOBuffer"* }
%"class.net::DrainableIOBuffer" = type { %"class.net::IOBuffer", %class.scoped_refptr.234, i32, i32 }
%class.scoped_refptr.234 = type { %"class.net::IOBuffer"* }
%"class.std::__1::unique_ptr.235" = type { %"class.std::__1::__compressed_pair.236" }
%"class.std::__1::__compressed_pair.236" = type { %"struct.std::__1::__compressed_pair_elem.237" }
%"struct.std::__1::__compressed_pair_elem.237" = type { %"class.storage::BlobReader"* }
%"class.storage::BlobReader" = type { i32 (...)**, %"class.std::__1::unique_ptr.211", %"class.std::__1::unique_ptr.238", %"class.std::__1::unique_ptr.244", %class.scoped_refptr.250, %"class.absl::optional.251", i32, i8, %"class.std::__1::vector.275", %class.scoped_refptr.233, i8, i64, i64, i64, %"class.std::__1::map.282", %"class.std::__1::map.291", i64, i64, i8, %"class.base::OnceCallback.300", %"class.base::OnceCallback.300", %"class.base::WeakPtrFactory.301" }
%"class.std::__1::unique_ptr.211" = type { %"class.std::__1::__compressed_pair.212" }
%"class.std::__1::__compressed_pair.212" = type { %"struct.std::__1::__compressed_pair_elem.213" }
%"struct.std::__1::__compressed_pair_elem.213" = type { %"class.storage::BlobDataHandle"* }
%"class.std::__1::unique_ptr.238" = type { %"class.std::__1::__compressed_pair.239" }
%"class.std::__1::__compressed_pair.239" = type { %"struct.std::__1::__compressed_pair_elem.240" }
%"struct.std::__1::__compressed_pair_elem.240" = type { %"class.storage::BlobDataSnapshot"* }
%"class.storage::BlobDataSnapshot" = type opaque
%"class.std::__1::unique_ptr.244" = type { %"class.std::__1::__compressed_pair.245" }
%"class.std::__1::__compressed_pair.245" = type { %"struct.std::__1::__compressed_pair_elem.246" }
%"struct.std::__1::__compressed_pair_elem.246" = type { %"class.storage::BlobReader::FileStreamReaderProvider"* }
%"class.storage::BlobReader::FileStreamReaderProvider" = type { i32 (...)** }
%class.scoped_refptr.250 = type { %"class.base::TaskRunner"* }
%"class.absl::optional.251" = type { %"class.absl::optional_internal::optional_data.252" }
%"class.absl::optional_internal::optional_data.252" = type { %"class.absl::optional_internal::optional_data_base.253" }
%"class.absl::optional_internal::optional_data_base.253" = type { %"class.absl::optional_internal::optional_data_dtor_base.254" }
%"class.absl::optional_internal::optional_data_dtor_base.254" = type { i8, %union.anon.255 }
%union.anon.255 = type { %"class.mojo_base::BigBuffer" }
%"class.mojo_base::BigBuffer" = type { i32, %"class.std::__1::unique_ptr.256", i64, %"class.absl::optional.262" }
%"class.std::__1::unique_ptr.256" = type { %"class.std::__1::__compressed_pair.257" }
%"class.std::__1::__compressed_pair.257" = type { %"struct.std::__1::__compressed_pair_elem.258" }
%"struct.std::__1::__compressed_pair_elem.258" = type { i8* }
%"class.absl::optional.262" = type { %"class.absl::optional_internal::optional_data.263" }
%"class.absl::optional_internal::optional_data.263" = type { %"class.absl::optional_internal::optional_data_base.264" }
%"class.absl::optional_internal::optional_data_base.264" = type { %"class.absl::optional_internal::optional_data_dtor_base.265" }
%"class.absl::optional_internal::optional_data_dtor_base.265" = type { i8, %union.anon.266 }
%union.anon.266 = type { %"class.mojo_base::internal::BigBufferSharedMemoryRegion" }
%"class.mojo_base::internal::BigBufferSharedMemoryRegion" = type { i64, %"class.mojo::ScopedHandleBase", %"class.std::__1::unique_ptr.267" }
%"class.mojo::ScopedHandleBase" = type { %"class.mojo::SharedBufferHandle" }
%"class.mojo::SharedBufferHandle" = type { %"class.mojo::Handle" }
%"class.mojo::Handle" = type { i32 }
%"class.std::__1::unique_ptr.267" = type { %"class.std::__1::__compressed_pair.268" }
%"class.std::__1::__compressed_pair.268" = type { %"struct.std::__1::__compressed_pair_elem.269" }
%"struct.std::__1::__compressed_pair_elem.269" = type { i8* }
%"class.std::__1::vector.275" = type { %"class.std::__1::__vector_base.276" }
%"class.std::__1::__vector_base.276" = type { i64*, i64*, %"class.std::__1::__compressed_pair.277" }
%"class.std::__1::__compressed_pair.277" = type { %"struct.std::__1::__compressed_pair_elem.278" }
%"struct.std::__1::__compressed_pair_elem.278" = type { i64* }
%"class.std::__1::map.282" = type { %"class.std::__1::__tree.283" }
%"class.std::__1::__tree.283" = type { %"class.std::__1::__tree_end_node"*, %"class.std::__1::__compressed_pair.284", %"class.std::__1::__compressed_pair.288" }
%"class.std::__1::__compressed_pair.284" = type { %"struct.std::__1::__compressed_pair_elem.41" }
%"class.std::__1::__compressed_pair.288" = type { %"struct.std::__1::__compressed_pair_elem.46" }
%"class.std::__1::map.291" = type { %"class.std::__1::__tree.292" }
%"class.std::__1::__tree.292" = type { %"class.std::__1::__tree_end_node"*, %"class.std::__1::__compressed_pair.293", %"class.std::__1::__compressed_pair.297" }
%"class.std::__1::__compressed_pair.293" = type { %"struct.std::__1::__compressed_pair_elem.41" }
%"class.std::__1::__compressed_pair.297" = type { %"struct.std::__1::__compressed_pair_elem.46" }
%"class.base::OnceCallback.300" = type { %"class.base::internal::CallbackBase" }
%"class.base::WeakPtrFactory.301" = type { %"class.base::internal::WeakPtrFactoryBase" }
%"class.mojo::ScopedHandleBase.305" = type { %"class.mojo::DataPipeConsumerHandle" }
%"class.mojo::DataPipeConsumerHandle" = type { %"class.mojo::Handle" }
%"class.mojo::SimpleWatcher" = type { i32, %class.scoped_refptr, i8, %"class.mojo::ScopedHandleBase.306", %class.scoped_refptr.307, %"class.mojo::Handle", i32, %"class.base::RepeatingCallback.308", i8*, %"class.base::WeakPtrFactory.309" }
%"class.mojo::ScopedHandleBase.306" = type { %"class.mojo::TrapHandle" }
%"class.mojo::TrapHandle" = type { %"class.mojo::Handle" }
%class.scoped_refptr.307 = type { %"class.mojo::SimpleWatcher::Context"* }
%"class.mojo::SimpleWatcher::Context" = type opaque
%"class.base::RepeatingCallback.308" = type { %"class.base::internal::CallbackBaseCopyable" }
%"class.base::WeakPtrFactory.309" = type { %"class.base::internal::WeakPtrFactoryBase" }
%"class.base::WeakPtrFactory.310" = type { %"class.base::internal::WeakPtrFactoryBase" }
%"class.base::OnceCallback.314" = type { %"class.base::internal::CallbackBase" }
%"class.base::File" = type <{ %"class.base::ScopedGeneric", %"class.base::FilePath", %"class.base::FileTracing::ScopedEnabler", [3 x i8], i32, i8, i8, [6 x i8] }>
%"class.base::ScopedGeneric" = type <{ i32 (...)**, %"struct.base::ScopedGeneric<int, base::internal::ScopedFDCloseTraits>::Data", i8, [3 x i8] }>
%"struct.base::ScopedGeneric<int, base::internal::ScopedFDCloseTraits>::Data" = type { i32 }
%"class.base::FileTracing::ScopedEnabler" = type { i8 }
%"class.base::OnceCallback.316" = type { %"class.base::internal::CallbackBase" }
%class.scoped_refptr.317 = type { %"class.storage::ShareableFileReference"* }
%"class.storage::ShareableFileReference" = type { %"class.base::RefCounted", %"class.storage::ScopedFile" }
%"class.base::RefCounted" = type { %"class.base::subtle::RefCountedBase" }
%"class.base::subtle::RefCountedBase" = type { i32 }
%"class.storage::ScopedFile" = type { %"class.base::FilePath", i32, %class.scoped_refptr.250, %"class.std::__1::vector.318" }
%"class.std::__1::vector.318" = type { %"class.std::__1::__vector_base.319" }
%"class.std::__1::__vector_base.319" = type { %"struct.std::__1::pair.320"*, %"struct.std::__1::pair.320"*, %"class.std::__1::__compressed_pair.321" }
%"struct.std::__1::pair.320" = type opaque
%"class.std::__1::__compressed_pair.321" = type { %"struct.std::__1::__compressed_pair_elem.322" }
%"struct.std::__1::__compressed_pair_elem.322" = type { %"struct.std::__1::pair.320"* }
%"class.base::RepeatingCallback.326" = type opaque
%"class.std::__1::__tree_node.373" = type { %"class.std::__1::__tree_node_base.base", [7 x i8], %"class.storage::FileSystemURL" }
%"class.storage::FileUpdateObserver" = type { i32 (...)** }
%"class.storage::FileAccessObserver" = type { i32 (...)** }
%"class.logging::CheckError" = type { %"class.logging::LogMessage"* }
%"class.logging::LogMessage" = type { i32 (...)**, i32, %"class.std::__1::basic_ostringstream", i64, i8*, i32, %"class.base::ScopedClearLastErrorBase" }
%"class.std::__1::basic_ostringstream" = type { %"class.std::__1::basic_ostream.base", %"class.std::__1::basic_stringbuf", %"class.std::__1::basic_ios.base" }
%"class.std::__1::basic_ostream.base" = type { i32 (...)** }
%"class.std::__1::basic_stringbuf" = type <{ %"class.std::__1::basic_streambuf", %"class.std::__1::basic_string", i8*, i32, [4 x i8] }>
%"class.std::__1::basic_streambuf" = type { i32 (...)**, %"class.std::__1::locale", i8*, i8*, i8*, i8*, i8*, i8* }
%"class.std::__1::locale" = type { %"class.std::__1::locale::__imp"* }
%"class.std::__1::locale::__imp" = type opaque
%"class.std::__1::basic_ios.base" = type <{ %"class.std::__1::ios_base", %"class.std::__1::basic_ostream"*, i32 }>
%"class.std::__1::ios_base" = type { i32 (...)**, i32, i64, i64, i32, i32, i8*, i8*, void (i32, %"class.std::__1::ios_base"*, i32)**, i32*, i64, i64, i64*, i64, i64, i8**, i64, i64 }
%"class.std::__1::basic_ostream" = type { i32 (...)**, %"class.std::__1::basic_ios.base" }
%"class.base::ScopedClearLastErrorBase" = type { i32 }
%"struct.base::internal::BindState.467" = type { %"class.base::internal::BindStateBase", { i64, i64 }, %"class.std::__1::tuple.468" }
%"class.std::__1::tuple.468" = type { %"struct.std::__1::__tuple_impl.469" }
%"struct.std::__1::__tuple_impl.469" = type { %"class.std::__1::__tuple_leaf", %"class.std::__1::__tuple_leaf.376", %"class.std::__1::__tuple_leaf.421", %"class.std::__1::__tuple_leaf.435", %"class.std::__1::__tuple_leaf.442", %"class.std::__1::__tuple_leaf.470", %"class.std::__1::__tuple_leaf.471" }
%"class.std::__1::__tuple_leaf" = type { %"class.base::WeakPtr" }
%"class.std::__1::__tuple_leaf.376" = type { i64 }
%"class.std::__1::__tuple_leaf.421" = type { %"class.base::OnceCallback.316" }
%"class.std::__1::__tuple_leaf.435" = type { i32 }
%"class.std::__1::__tuple_leaf.442" = type { %"struct.base::File::Info" }
%"class.std::__1::__tuple_leaf.470" = type { %"class.base::FilePath" }
%"class.std::__1::__tuple_leaf.471" = type { %class.scoped_refptr.317 }
%"struct.storage::FileSystemURL::Comparator" = type { i8 }

$_ZNK7storage27TaskRunnerBoundObserverListINS_18FileUpdateObserverEE6NotifyIMS1_FvRKNS_13FileSystemURLEEJS6_EEEvT_DpOT0_ = comdat any

$_ZNK7storage27TaskRunnerBoundObserverListINS_18FileAccessObserverEE6NotifyIMS1_FvRKNS_13FileSystemURLEEJS6_EEEvT_DpOT0_ = comdat any

$_ZNSt3__16__treeINS_12__value_typeImNS_10unique_ptrIN7storage19FileSystemOperationENS_14default_deleteIS4_EEEEEENS_19__map_value_compareImS8_NS_4lessImEELb1EEENS_9allocatorIS8_EEE7destroyEPNS_11__tree_nodeIS8_PvEE = comdat any

$_ZNSt3__16__treeINS_12__value_typeImNS_3setIN7storage13FileSystemURLENS4_10ComparatorENS_9allocatorIS4_EEEEEENS_19__map_value_compareImS9_NS_4lessImEELb1EEENS6_IS9_EEE7destroyEPNS_11__tree_nodeIS9_PvEE = comdat any

$_ZNSt3__16__treeIN7storage13FileSystemURLENS2_10ComparatorENS_9allocatorIS2_EEE7destroyEPNS_11__tree_nodeIS2_PvEE = comdat any

$_ZNSt3__16__treeImNS_4lessImEENS_9allocatorImEEE7destroyEPNS_11__tree_nodeImPvEE = comdat any

$_ZNSt3__16__treeINS_12__value_typeImN4base12OnceCallbackIFvNS2_4File5ErrorEEEEEENS_19__map_value_compareImS8_NS_4lessImEELb1EEENS_9allocatorIS8_EEE7destroyEPNS_11__tree_nodeIS8_PvEE = comdat any

$_ZN4base8internal7InvokerINS0_9BindStateIMN7storage25FileSystemOperationRunnerEFvmNS_12OnceCallbackIFvNS_4File5ErrorEEEES7_EJNS_7WeakPtrIS4_EEmS9_EEES8_E7RunOnceEPNS0_13BindStateBaseES7_ = comdat any

$_ZN4base8internal13FunctorTraitsIMN7storage25FileSystemOperationRunnerEFvmNS_12OnceCallbackIFvNS_4File5ErrorEEEES6_EvE6InvokeISA_NS_7WeakPtrIS3_EEJmS8_S6_EEEvT_OT0_DpOT1_ = comdat any

$_ZN4base8internal9BindStateIMN7storage25FileSystemOperationRunnerEFvmNS_12OnceCallbackIFvNS_4File5ErrorEEEES6_EJNS_7WeakPtrIS3_EEmS8_EE7DestroyEPKNS0_13BindStateBaseE = comdat any

$_ZN4base8internal23QueryCancellationTraitsINS0_9BindStateIMN7storage25FileSystemOperationRunnerEFvmNS_12OnceCallbackIFvNS_4File5ErrorEEEES7_EJNS_7WeakPtrIS4_EEmS9_EEEEEbPKNS0_13BindStateBaseENSF_21CancellationQueryModeE = comdat any

$_ZN4base8internal7InvokerINS0_9BindStateIMN7storage25FileSystemOperationRunnerEFvmRKNS_17RepeatingCallbackIFvNS3_19FileSystemOperation22CopyOrMoveProgressTypeERKNS3_13FileSystemURLESA_lEEES7_SA_SA_lEJNS_7WeakPtrIS4_EEmSC_EEESB_E3RunEPNS0_13BindStateBaseES7_SA_SA_l = comdat any

$_ZN4base8internal9BindStateIMN7storage25FileSystemOperationRunnerEFvmRKNS_17RepeatingCallbackIFvNS2_19FileSystemOperation22CopyOrMoveProgressTypeERKNS2_13FileSystemURLES9_lEEES6_S9_S9_lEJNS_7WeakPtrIS3_EEmSB_EE7DestroyEPKNS0_13BindStateBaseE = comdat any

$_ZN4base8internal23QueryCancellationTraitsINS0_9BindStateIMN7storage25FileSystemOperationRunnerEFvmRKNS_17RepeatingCallbackIFvNS3_19FileSystemOperation22CopyOrMoveProgressTypeERKNS3_13FileSystemURLESA_lEEES7_SA_SA_lEJNS_7WeakPtrIS4_EEmSC_EEEEEbPKNS0_13BindStateBaseENSK_21CancellationQueryModeE = comdat any

$_ZN4base8internal7InvokerINS0_9BindStateIMN7storage25FileSystemOperationRunnerEFvmNS_12OnceCallbackIFvNS_4File5ErrorERKNS6_4InfoEEEES7_SA_EJNS_7WeakPtrIS4_EEmSC_EEESB_E7RunOnceEPNS0_13BindStateBaseES7_SA_ = comdat any

$_ZN4base8internal13FunctorTraitsIMN7storage25FileSystemOperationRunnerEFvmNS_12OnceCallbackIFvNS_4File5ErrorERKNS5_4InfoEEEES6_S9_EvE6InvokeISD_NS_7WeakPtrIS3_EEJmSB_S6_S9_EEEvT_OT0_DpOT1_ = comdat any

$_ZN4base8internal9BindStateIMN7storage25FileSystemOperationRunnerEFvmNS_12OnceCallbackIFvNS_4File5ErrorERKNS5_4InfoEEEES6_S9_EJNS_7WeakPtrIS3_EEmSB_EE7DestroyEPKNS0_13BindStateBaseE = comdat any

$_ZN4base8internal23QueryCancellationTraitsINS0_9BindStateIMN7storage25FileSystemOperationRunnerEFvmNS_12OnceCallbackIFvNS_4File5ErrorERKNS6_4InfoEEEES7_SA_EJNS_7WeakPtrIS4_EEmSC_EEEEEbPKNS0_13BindStateBaseENSI_21CancellationQueryModeE = comdat any

$_ZN4base8internal7InvokerINS0_9BindStateIMN7storage25FileSystemOperationRunnerEFvmRKNS_17RepeatingCallbackIFvNS_4File5ErrorENSt3__16vectorIN10filesystem5mojom14DirectoryEntryENS8_9allocatorISC_EEEEbEEES7_SF_bEJNS_7WeakPtrIS4_EEmSH_EEESG_E3RunEPNS0_13BindStateBaseES7_OSF_b = comdat any

$_ZN4base8internal13FunctorTraitsIMN7storage25FileSystemOperationRunnerEFvmRKNS_17RepeatingCallbackIFvNS_4File5ErrorENSt3__16vectorIN10filesystem5mojom14DirectoryEntryENS7_9allocatorISB_EEEEbEEES6_SE_bEvE6InvokeISK_RKNS_7WeakPtrIS3_EEJRKmSI_S6_SE_bEEEvT_OT0_DpOT1_ = comdat any

$_ZN4base8internal9BindStateIMN7storage25FileSystemOperationRunnerEFvmRKNS_17RepeatingCallbackIFvNS_4File5ErrorENSt3__16vectorIN10filesystem5mojom14DirectoryEntryENS7_9allocatorISB_EEEEbEEES6_SE_bEJNS_7WeakPtrIS3_EEmSG_EE7DestroyEPKNS0_13BindStateBaseE = comdat any

$_ZN4base8internal23QueryCancellationTraitsINS0_9BindStateIMN7storage25FileSystemOperationRunnerEFvmRKNS_17RepeatingCallbackIFvNS_4File5ErrorENSt3__16vectorIN10filesystem5mojom14DirectoryEntryENS8_9allocatorISC_EEEEbEEES7_SF_bEJNS_7WeakPtrIS4_EEmSH_EEEEEbPKNS0_13BindStateBaseENSP_21CancellationQueryModeE = comdat any

$_ZN4base8internal7InvokerINS0_9BindStateIMN7storage25FileSystemOperationRunnerEFvmRKNS_17RepeatingCallbackIFvNS_4File5ErrorElbEEES7_lbEJNS_7WeakPtrIS4_EEmS9_EEES8_E3RunEPNS0_13BindStateBaseES7_lb = comdat any

$_ZN4base8internal9BindStateIMN7storage25FileSystemOperationRunnerEFvmRKNS_17RepeatingCallbackIFvNS_4File5ErrorElbEEES6_lbEJNS_7WeakPtrIS3_EEmS8_EE7DestroyEPKNS0_13BindStateBaseE = comdat any

$_ZN4base8internal23QueryCancellationTraitsINS0_9BindStateIMN7storage25FileSystemOperationRunnerEFvmRKNS_17RepeatingCallbackIFvNS_4File5ErrorElbEEES7_lbEJNS_7WeakPtrIS4_EEmS9_EEEEEbPKNS0_13BindStateBaseENSH_21CancellationQueryModeE = comdat any

$_ZNSt3__127__tree_balance_after_insertIPNS_16__tree_node_baseIPvEEEEvT_S5_ = comdat any

$_ZN4base8internal7InvokerINS0_9BindStateIMN7storage25FileSystemOperationRunnerEFvmNS_12OnceCallbackIFvNS_4FileENS5_IFvvEEEEEES6_S8_EJNS_7WeakPtrIS4_EEmSA_EEES9_E7RunOnceEPNS0_13BindStateBaseEOS6_OS8_ = comdat any

$_ZN4base8internal13FunctorTraitsIMN7storage25FileSystemOperationRunnerEFvmNS_12OnceCallbackIFvNS_4FileENS4_IFvvEEEEEES5_S7_EvE6InvokeISB_NS_7WeakPtrIS3_EEJmS9_S5_S7_EEEvT_OT0_DpOT1_ = comdat any

$_ZN4base8internal9BindStateIMN7storage25FileSystemOperationRunnerEFvmNS_12OnceCallbackIFvNS_4FileENS4_IFvvEEEEEES5_S7_EJNS_7WeakPtrIS3_EEmS9_EE7DestroyEPKNS0_13BindStateBaseE = comdat any

$_ZN4base8internal23QueryCancellationTraitsINS0_9BindStateIMN7storage25FileSystemOperationRunnerEFvmNS_12OnceCallbackIFvNS_4FileENS5_IFvvEEEEEES6_S8_EJNS_7WeakPtrIS4_EEmSA_EEEEEbPKNS0_13BindStateBaseENSG_21CancellationQueryModeE = comdat any

$_ZN4base8internal7InvokerINS0_9BindStateIMN7storage25FileSystemOperationRunnerEFvmNS_12OnceCallbackIFvNS_4File5ErrorERKNS6_4InfoERKNS_8FilePathE13scoped_refptrINS3_22ShareableFileReferenceEEEEES7_SA_SD_SG_EJNS_7WeakPtrIS4_EEmSI_EEESH_E7RunOnceEPNS0_13BindStateBaseES7_SA_SD_OSG_ = comdat any

$_ZN4base8internal13FunctorTraitsIMN7storage25FileSystemOperationRunnerEFvmNS_12OnceCallbackIFvNS_4File5ErrorERKNS5_4InfoERKNS_8FilePathE13scoped_refptrINS2_22ShareableFileReferenceEEEEES6_S9_SC_SF_EvE6InvokeISJ_NS_7WeakPtrIS3_EEJmSH_S6_S9_SC_SF_EEEvT_OT0_DpOT1_ = comdat any

$_ZN4base8internal9BindStateIMN7storage25FileSystemOperationRunnerEFvmNS_12OnceCallbackIFvNS_4File5ErrorERKNS5_4InfoERKNS_8FilePathE13scoped_refptrINS2_22ShareableFileReferenceEEEEES6_S9_SC_SF_EJNS_7WeakPtrIS3_EEmSH_EE7DestroyEPKNS0_13BindStateBaseE = comdat any

$_ZN4base8internal23QueryCancellationTraitsINS0_9BindStateIMN7storage25FileSystemOperationRunnerEFvmNS_12OnceCallbackIFvNS_4File5ErrorERKNS6_4InfoERKNS_8FilePathE13scoped_refptrINS3_22ShareableFileReferenceEEEEES7_SA_SD_SG_EJNS_7WeakPtrIS4_EEmSI_EEEEEbPKNS0_13BindStateBaseENSO_21CancellationQueryModeE = comdat any

$_ZN4base12DeleteHelperIN7storage17FileSystemContextEE8DoDeleteEPKv = comdat any

$_ZN4base8internal7InvokerINS0_9BindStateIMN7storage25FileSystemOperationRunnerEFvmNS_12OnceCallbackIFvNS_4File5ErrorEEEES7_EJNS_7WeakPtrIS4_EEmS9_S7_EEEFvvEE7RunOnceEPNS0_13BindStateBaseE = comdat any

$_ZN4base8internal9BindStateIMN7storage25FileSystemOperationRunnerEFvmNS_12OnceCallbackIFvNS_4File5ErrorEEEES6_EJNS_7WeakPtrIS3_EEmS8_S6_EE7DestroyEPKNS0_13BindStateBaseE = comdat any

$_ZN4base8internal23QueryCancellationTraitsINS0_9BindStateIMN7storage25FileSystemOperationRunnerEFvmNS_12OnceCallbackIFvNS_4File5ErrorEEEES7_EJNS_7WeakPtrIS4_EEmS9_S7_EEEEEbPKNS0_13BindStateBaseENSF_21CancellationQueryModeE = comdat any

$_ZN4base8internal7InvokerINS0_9BindStateIMN7storage25FileSystemOperationRunnerEFvmNS_12OnceCallbackIFvNS_4File5ErrorERKNS6_4InfoEEEES7_SA_EJNS_7WeakPtrIS4_EEmSC_S7_S8_EEEFvvEE7RunOnceEPNS0_13BindStateBaseE = comdat any

$_ZN4base8internal13FunctorTraitsIMN7storage25FileSystemOperationRunnerEFvmNS_12OnceCallbackIFvNS_4File5ErrorERKNS5_4InfoEEEES6_S9_EvE6InvokeISD_NS_7WeakPtrIS3_EEJmSB_S6_S7_EEEvT_OT0_DpOT1_ = comdat any

$_ZN4base8internal9BindStateIMN7storage25FileSystemOperationRunnerEFvmNS_12OnceCallbackIFvNS_4File5ErrorERKNS5_4InfoEEEES6_S9_EJNS_7WeakPtrIS3_EEmSB_S6_S7_EE7DestroyEPKNS0_13BindStateBaseE = comdat any

$_ZN4base8internal23QueryCancellationTraitsINS0_9BindStateIMN7storage25FileSystemOperationRunnerEFvmNS_12OnceCallbackIFvNS_4File5ErrorERKNS6_4InfoEEEES7_SA_EJNS_7WeakPtrIS4_EEmSC_S7_S8_EEEEEbPKNS0_13BindStateBaseENSI_21CancellationQueryModeE = comdat any

$_ZN4base8internal7InvokerINS0_9BindStateIMN7storage25FileSystemOperationRunnerEFvmRKNS_17RepeatingCallbackIFvNS_4File5ErrorENSt3__16vectorIN10filesystem5mojom14DirectoryEntryENS8_9allocatorISC_EEEEbEEES7_SF_bEJNS_7WeakPtrIS4_EEmSH_S7_SF_bEEEFvvEE7RunOnceEPNS0_13BindStateBaseE = comdat any

$_ZN4base8internal13FunctorTraitsIMN7storage25FileSystemOperationRunnerEFvmRKNS_17RepeatingCallbackIFvNS_4File5ErrorENSt3__16vectorIN10filesystem5mojom14DirectoryEntryENS7_9allocatorISB_EEEEbEEES6_SE_bEvE6InvokeISK_NS_7WeakPtrIS3_EEJmSG_S6_SE_bEEEvT_OT0_DpOT1_ = comdat any

$_ZN4base8internal9BindStateIMN7storage25FileSystemOperationRunnerEFvmRKNS_17RepeatingCallbackIFvNS_4File5ErrorENSt3__16vectorIN10filesystem5mojom14DirectoryEntryENS7_9allocatorISB_EEEEbEEES6_SE_bEJNS_7WeakPtrIS3_EEmSG_S6_SE_bEE7DestroyEPKNS0_13BindStateBaseE = comdat any

$_ZN4base8internal23QueryCancellationTraitsINS0_9BindStateIMN7storage25FileSystemOperationRunnerEFvmRKNS_17RepeatingCallbackIFvNS_4File5ErrorENSt3__16vectorIN10filesystem5mojom14DirectoryEntryENS8_9allocatorISC_EEEEbEEES7_SF_bEJNS_7WeakPtrIS4_EEmSH_S7_SF_bEEEEEbPKNS0_13BindStateBaseENSP_21CancellationQueryModeE = comdat any

$_ZN4base8internal7InvokerINS0_9BindStateIMN7storage25FileSystemOperationRunnerEFvmRKNS_17RepeatingCallbackIFvNS_4File5ErrorElbEEES7_lbEJNS_7WeakPtrIS4_EEmS9_S7_lbEEEFvvEE7RunOnceEPNS0_13BindStateBaseE = comdat any

$_ZN4base8internal13FunctorTraitsIMN7storage25FileSystemOperationRunnerEFvmRKNS_17RepeatingCallbackIFvNS_4File5ErrorElbEEES6_lbEvE6InvokeISC_NS_7WeakPtrIS3_EEJmS8_S6_lbEEEvT_OT0_DpOT1_ = comdat any

$_ZN4base8internal9BindStateIMN7storage25FileSystemOperationRunnerEFvmRKNS_17RepeatingCallbackIFvNS_4File5ErrorElbEEES6_lbEJNS_7WeakPtrIS3_EEmS8_S6_lbEE7DestroyEPKNS0_13BindStateBaseE = comdat any

$_ZN4base8internal23QueryCancellationTraitsINS0_9BindStateIMN7storage25FileSystemOperationRunnerEFvmRKNS_17RepeatingCallbackIFvNS_4File5ErrorElbEEES7_lbEJNS_7WeakPtrIS4_EEmS9_S7_lbEEEEEbPKNS0_13BindStateBaseENSH_21CancellationQueryModeE = comdat any

$_ZN4base8internal7InvokerINS0_9BindStateIMN7storage25FileSystemOperationRunnerEFvmNS_12OnceCallbackIFvNS_4FileENS5_IFvvEEEEEES6_S8_EJNS_7WeakPtrIS4_EEmSA_S6_S8_EEES7_E7RunOnceEPNS0_13BindStateBaseE = comdat any

$_ZN4base8internal9BindStateIMN7storage25FileSystemOperationRunnerEFvmNS_12OnceCallbackIFvNS_4FileENS4_IFvvEEEEEES5_S7_EJNS_7WeakPtrIS3_EEmS9_S5_S7_EE7DestroyEPKNS0_13BindStateBaseE = comdat any

$_ZN4base8internal23QueryCancellationTraitsINS0_9BindStateIMN7storage25FileSystemOperationRunnerEFvmNS_12OnceCallbackIFvNS_4FileENS5_IFvvEEEEEES6_S8_EJNS_7WeakPtrIS4_EEmSA_S6_S8_EEEEEbPKNS0_13BindStateBaseENSG_21CancellationQueryModeE = comdat any

$_ZN4base8internal7InvokerINS0_9BindStateIMN7storage25FileSystemOperationRunnerEFvmNS_12OnceCallbackIFvNS_4File5ErrorERKNS6_4InfoERKNS_8FilePathE13scoped_refptrINS3_22ShareableFileReferenceEEEEES7_SA_SD_SG_EJNS_7WeakPtrIS4_EEmSI_S7_S8_SB_SG_EEEFvvEE7RunOnceEPNS0_13BindStateBaseE = comdat any

$_ZN4base8internal13FunctorTraitsIMN7storage25FileSystemOperationRunnerEFvmNS_12OnceCallbackIFvNS_4File5ErrorERKNS5_4InfoERKNS_8FilePathE13scoped_refptrINS2_22ShareableFileReferenceEEEEES6_S9_SC_SF_EvE6InvokeISJ_NS_7WeakPtrIS3_EEJmSH_S6_S7_SA_SF_EEEvT_OT0_DpOT1_ = comdat any

$_ZN4base8internal9BindStateIMN7storage25FileSystemOperationRunnerEFvmNS_12OnceCallbackIFvNS_4File5ErrorERKNS5_4InfoERKNS_8FilePathE13scoped_refptrINS2_22ShareableFileReferenceEEEEES6_S9_SC_SF_EJNS_7WeakPtrIS3_EEmSH_S6_S7_SA_SF_EE7DestroyEPKNS0_13BindStateBaseE = comdat any

$_ZN4base8internal23QueryCancellationTraitsINS0_9BindStateIMN7storage25FileSystemOperationRunnerEFvmNS_12OnceCallbackIFvNS_4File5ErrorERKNS6_4InfoERKNS_8FilePathE13scoped_refptrINS3_22ShareableFileReferenceEEEEES7_SA_SD_SG_EJNS_7WeakPtrIS4_EEmSI_S7_S8_SB_SG_EEEEEbPKNS0_13BindStateBaseENSO_21CancellationQueryModeE = comdat any

$_ZN4base8internal9BindStateIMN7storage25FileSystemOperationRunnerEFvmNS_12OnceCallbackIFvNS_4File5ErrorERKNS5_4InfoERKNS_8FilePathE13scoped_refptrINS2_22ShareableFileReferenceEEEEES6_S9_SC_SF_EJNS_7WeakPtrIS3_EEmSH_S6_S7_SA_SF_EED2Ev = comdat any

$_ZN4base8internal7InvokerINS0_9BindStateIMN7storage25FileSystemOperationRunnerEFvmRKNS_17RepeatingCallbackIFvNS3_19FileSystemOperation22CopyOrMoveProgressTypeERKNS3_13FileSystemURLESA_lEEES7_SA_SA_lEJNS_7WeakPtrIS4_EEmSC_S7_S8_S8_lEEEFvvEE7RunOnceEPNS0_13BindStateBaseE = comdat any

$_ZN4base8internal9BindStateIMN7storage25FileSystemOperationRunnerEFvmRKNS_17RepeatingCallbackIFvNS2_19FileSystemOperation22CopyOrMoveProgressTypeERKNS2_13FileSystemURLES9_lEEES6_S9_S9_lEJNS_7WeakPtrIS3_EEmSB_S6_S7_S7_lEE7DestroyEPKNS0_13BindStateBaseE = comdat any

$_ZN4base8internal23QueryCancellationTraitsINS0_9BindStateIMN7storage25FileSystemOperationRunnerEFvmRKNS_17RepeatingCallbackIFvNS3_19FileSystemOperation22CopyOrMoveProgressTypeERKNS3_13FileSystemURLESA_lEEES7_SA_SA_lEJNS_7WeakPtrIS4_EEmSC_S7_S8_S8_lEEEEEbPKNS0_13BindStateBaseENSK_21CancellationQueryModeE = comdat any

$_ZN4base8internal7InvokerINS0_9BindStateIMN7storage18FileUpdateObserverEFvRKNS3_13FileSystemURLEEJNS0_17UnretainedWrapperIS4_EES5_EEEFvvEE7RunOnceEPNS0_13BindStateBaseE = comdat any

$_ZN4base8internal9BindStateIMN7storage18FileUpdateObserverEFvRKNS2_13FileSystemURLEEJNS0_17UnretainedWrapperIS3_EES4_EE7DestroyEPKNS0_13BindStateBaseE = comdat any

$_ZNSt3__16__treeIN7storage13FileSystemURLENS2_10ComparatorENS_9allocatorIS2_EEE25__emplace_unique_key_argsIS2_JRKS2_EEENS_4pairINS_15__tree_iteratorIS2_PNS_11__tree_nodeIS2_PvEElEEbEERKT_DpOT0_ = comdat any

$_ZN4base8internal7InvokerINS0_9BindStateIMN7storage18FileAccessObserverEFvRKNS3_13FileSystemURLEEJNS0_17UnretainedWrapperIS4_EES5_EEEFvvEE7RunOnceEPNS0_13BindStateBaseE = comdat any

$_ZN4base8internal9BindStateIMN7storage18FileAccessObserverEFvRKNS2_13FileSystemURLEEJNS0_17UnretainedWrapperIS3_EES4_EE7DestroyEPKNS0_13BindStateBaseE = comdat any

$_ZNSt3__113__tree_removeIPNS_16__tree_node_baseIPvEEEEvT_S5_ = comdat any

$_ZNSt3__16__treeINS_12__value_typeImNS_10unique_ptrIN7storage19FileSystemOperationENS_14default_deleteIS4_EEEEEENS_19__map_value_compareImS8_NS_4lessImEELb1EEENS_9allocatorIS8_EEE14__erase_uniqueImEEmRKT_ = comdat any

@_ZTVN7storage25FileSystemOperationRunnerE = hidden unnamed_addr constant { [4 x i8*] } { [4 x i8*] [i8* null, i8* null, i8* bitcast (void (%"class.storage::FileSystemOperationRunner"*)* @_ZN7storage25FileSystemOperationRunnerD2Ev to i8*), i8* bitcast (void (%"class.storage::FileSystemOperationRunner"*)* @_ZN7storage25FileSystemOperationRunnerD0Ev to i8*)] }, align 8
@.str = private unnamed_addr constant [10 x i8] c"DidFinish\00", align 1
@.str.1 = private unnamed_addr constant [66 x i8] c"../../storage/browser/file_system/file_system_operation_runner.cc\00", align 1
@.str.2 = private unnamed_addr constant [15 x i8] c"DidGetMetadata\00", align 1
@.str.3 = private unnamed_addr constant [17 x i8] c"DidReadDirectory\00", align 1
@.str.4 = private unnamed_addr constant [9 x i8] c"DidWrite\00", align 1
@.str.5 = private unnamed_addr constant [12 x i8] c"DidOpenFile\00", align 1
@.str.6 = private unnamed_addr constant [18 x i8] c"DidCreateSnapshot\00", align 1
@.str.7 = private unnamed_addr constant [15 x i8] c"OnCopyProgress\00", align 1
@.str.8 = private unnamed_addr constant [29 x i8] c"../../base/memory/weak_ptr.h\00", align 1
@.str.9 = private unnamed_addr constant [15 x i8] c"ref_.IsValid()\00", align 1
@.str.11 = private unnamed_addr constant [19 x i8] c"DestructOnSequence\00", align 1
@.str.12 = private unnamed_addr constant [51 x i8] c"../../base/memory/ref_counted_delete_on_sequence.h\00", align 1
@.str.13 = private unnamed_addr constant [7 x i8] c"Notify\00", align 1
@.str.14 = private unnamed_addr constant [68 x i8] c"../../storage/browser/file_system/task_runner_bound_observer_list.h\00", align 1

@_ZN7storage25FileSystemOperationRunnerC1EN4base7PassKeyINS_17FileSystemContextEEERK13scoped_refptrIS3_E = hidden unnamed_addr alias void (%"class.storage::FileSystemOperationRunner"*, %class.scoped_refptr.191*), void (%"class.storage::FileSystemOperationRunner"*, %class.scoped_refptr.191*)* @_ZN7storage25FileSystemOperationRunnerC2EN4base7PassKeyINS_17FileSystemContextEEERK13scoped_refptrIS3_E
@_ZN7storage25FileSystemOperationRunnerC1EN4base7PassKeyINS_17FileSystemContextEEEPS3_ = hidden unnamed_addr alias void (%"class.storage::FileSystemOperationRunner"*, %"class.storage::FileSystemContext"*), void (%"class.storage::FileSystemOperationRunner"*, %"class.storage::FileSystemContext"*)* @_ZN7storage25FileSystemOperationRunnerC2EN4base7PassKeyINS_17FileSystemContextEEEPS3_
@_ZN7storage25FileSystemOperationRunnerD1Ev = hidden unnamed_addr alias void (%"class.storage::FileSystemOperationRunner"*), void (%"class.storage::FileSystemOperationRunner"*)* @_ZN7storage25FileSystemOperationRunnerD2Ev
@_ZN7storage25FileSystemOperationRunnerC1EPNS_17FileSystemContextE = hidden unnamed_addr alias void (%"class.storage::FileSystemOperationRunner"*, %"class.storage::FileSystemContext"*), void (%"class.storage::FileSystemOperationRunner"*, %"class.storage::FileSystemContext"*)* @_ZN7storage25FileSystemOperationRunnerC2EPNS_17FileSystemContextE

; Function Attrs: nounwind ssp uwtable
define hidden void @_ZN7storage25FileSystemOperationRunnerC2EN4base7PassKeyINS_17FileSystemContextEEERK13scoped_refptrIS3_E(%"class.storage::FileSystemOperationRunner"*, %class.scoped_refptr.191* nocapture readonly dereferenceable(8)) unnamed_addr #0 align 2 {
  %3 = getelementptr inbounds %class.scoped_refptr.191, %class.scoped_refptr.191* %1, i64 0, i32 0
  %4 = load %"class.storage::FileSystemContext"*, %"class.storage::FileSystemContext"** %3, align 8
  tail call void @_ZN7storage25FileSystemOperationRunnerC2EPNS_17FileSystemContextE(%"class.storage::FileSystemOperationRunner"* %0, %"class.storage::FileSystemContext"* %4)
  ret void
}

; Function Attrs: nounwind ssp uwtable
define hidden void @_ZN7storage25FileSystemOperationRunnerC2EPNS_17FileSystemContextE(%"class.storage::FileSystemOperationRunner"*, %"class.storage::FileSystemContext"*) unnamed_addr #0 align 2 {
  %3 = alloca %"class.base::internal::WeakReference", align 8
  %4 = alloca %"class.base::WeakPtr", align 8
  %5 = getelementptr inbounds %"class.storage::FileSystemOperationRunner", %"class.storage::FileSystemOperationRunner"* %0, i64 0, i32 0
  store i32 (...)** bitcast (i8** getelementptr inbounds ({ [4 x i8*] }, { [4 x i8*] }* @_ZTVN7storage25FileSystemOperationRunnerE, i64 0, inrange i32 0, i64 2) to i32 (...)**), i32 (...)*** %5, align 8
  %6 = getelementptr inbounds %"class.storage::FileSystemOperationRunner", %"class.storage::FileSystemOperationRunner"* %0, i64 0, i32 1
  store %"class.storage::FileSystemContext"* %1, %"class.storage::FileSystemContext"** %6, align 8
  %7 = getelementptr inbounds %"class.storage::FileSystemOperationRunner", %"class.storage::FileSystemOperationRunner"* %0, i64 0, i32 2
  store i64 1, i64* %7, align 8
  %8 = getelementptr inbounds %"class.storage::FileSystemOperationRunner", %"class.storage::FileSystemOperationRunner"* %0, i64 0, i32 3, i32 0, i32 1, i32 0, i32 0, i32 0
  %9 = getelementptr inbounds %"class.storage::FileSystemOperationRunner", %"class.storage::FileSystemOperationRunner"* %0, i64 0, i32 3, i32 0, i32 1, i32 0, i32 0
  %10 = getelementptr inbounds %"class.storage::FileSystemOperationRunner", %"class.storage::FileSystemOperationRunner"* %0, i64 0, i32 3, i32 0, i32 0
  %11 = bitcast %"class.std::__1::__tree_node_base"** %8 to i8*
  tail call void @llvm.memset.p0i8.i64(i8* align 8 %11, i8 0, i64 16, i1 false) #6
  store %"class.std::__1::__tree_end_node"* %9, %"class.std::__1::__tree_end_node"** %10, align 8
  %12 = getelementptr inbounds %"class.storage::FileSystemOperationRunner", %"class.storage::FileSystemOperationRunner"* %0, i64 0, i32 4
  store i8 0, i8* %12, align 8
  %13 = getelementptr inbounds %"class.storage::FileSystemOperationRunner", %"class.storage::FileSystemOperationRunner"* %0, i64 0, i32 5, i32 0, i32 1, i32 0, i32 0, i32 0
  %14 = getelementptr inbounds %"class.storage::FileSystemOperationRunner", %"class.storage::FileSystemOperationRunner"* %0, i64 0, i32 5, i32 0, i32 1, i32 0, i32 0
  %15 = getelementptr inbounds %"class.storage::FileSystemOperationRunner", %"class.storage::FileSystemOperationRunner"* %0, i64 0, i32 5, i32 0, i32 0
  %16 = bitcast %"class.std::__1::__tree_node_base"** %13 to i8*
  tail call void @llvm.memset.p0i8.i64(i8* align 8 %16, i8 0, i64 16, i1 false) #6
  store %"class.std::__1::__tree_end_node"* %14, %"class.std::__1::__tree_end_node"** %15, align 8
  %17 = getelementptr inbounds %"class.storage::FileSystemOperationRunner", %"class.storage::FileSystemOperationRunner"* %0, i64 0, i32 6, i32 0, i32 1, i32 0, i32 0, i32 0
  %18 = getelementptr inbounds %"class.storage::FileSystemOperationRunner", %"class.storage::FileSystemOperationRunner"* %0, i64 0, i32 6, i32 0, i32 1, i32 0, i32 0
  %19 = getelementptr inbounds %"class.storage::FileSystemOperationRunner", %"class.storage::FileSystemOperationRunner"* %0, i64 0, i32 6, i32 0, i32 0
  %20 = bitcast %"class.std::__1::__tree_node_base"** %17 to i8*
  tail call void @llvm.memset.p0i8.i64(i8* align 8 %20, i8 0, i64 16, i1 false) #6
  store %"class.std::__1::__tree_end_node"* %18, %"class.std::__1::__tree_end_node"** %19, align 8
  %21 = getelementptr inbounds %"class.storage::FileSystemOperationRunner", %"class.storage::FileSystemOperationRunner"* %0, i64 0, i32 7, i32 0, i32 1, i32 0, i32 0, i32 0
  %22 = getelementptr inbounds %"class.storage::FileSystemOperationRunner", %"class.storage::FileSystemOperationRunner"* %0, i64 0, i32 7, i32 0, i32 1, i32 0, i32 0
  %23 = getelementptr inbounds %"class.storage::FileSystemOperationRunner", %"class.storage::FileSystemOperationRunner"* %0, i64 0, i32 7, i32 0, i32 0
  %24 = bitcast %"class.std::__1::__tree_node_base"** %21 to i8*
  tail call void @llvm.memset.p0i8.i64(i8* align 8 %24, i8 0, i64 16, i1 false) #6
  store %"class.std::__1::__tree_end_node"* %22, %"class.std::__1::__tree_end_node"** %23, align 8
  %25 = getelementptr inbounds %"class.storage::FileSystemOperationRunner", %"class.storage::FileSystemOperationRunner"* %0, i64 0, i32 8
  %26 = getelementptr inbounds %"class.base::WeakPtr", %"class.base::WeakPtr"* %25, i64 0, i32 0
  tail call void @_ZN4base8internal11WeakPtrBaseC2Ev(%"class.base::internal::WeakPtrBase"* %26) #6
  %27 = getelementptr inbounds %"class.storage::FileSystemOperationRunner", %"class.storage::FileSystemOperationRunner"* %0, i64 0, i32 9
  %28 = getelementptr inbounds %"class.base::WeakPtrFactory.190", %"class.base::WeakPtrFactory.190"* %27, i64 0, i32 0
  %29 = ptrtoint %"class.storage::FileSystemOperationRunner"* %0 to i64
  tail call void @_ZN4base8internal18WeakPtrFactoryBaseC2Em(%"class.base::internal::WeakPtrFactoryBase"* %28, i64 %29) #6
  %30 = bitcast %"class.base::WeakPtr"* %4 to i8*
  call void @llvm.lifetime.start.p0i8(i64 16, i8* nonnull %30) #6
  %31 = bitcast %"class.base::internal::WeakReference"* %3 to i8*
  call void @llvm.lifetime.start.p0i8(i64 8, i8* nonnull %31) #6, !noalias !2
  %32 = getelementptr inbounds %"class.base::WeakPtrFactory.190", %"class.base::WeakPtrFactory.190"* %27, i64 0, i32 0, i32 0
  call void @_ZNK4base8internal18WeakReferenceOwner6GetRefEv(%"class.base::internal::WeakReference"* nonnull sret %3, %"class.base::internal::WeakReferenceOwner"* %32) #6, !noalias !2
  %33 = getelementptr inbounds %"class.storage::FileSystemOperationRunner", %"class.storage::FileSystemOperationRunner"* %0, i64 0, i32 9, i32 0, i32 1
  %34 = load i64, i64* %33, align 8, !noalias !2
  %35 = getelementptr inbounds %"class.base::WeakPtr", %"class.base::WeakPtr"* %4, i64 0, i32 0
  call void @_ZN4base8internal11WeakPtrBaseC2ERKNS0_13WeakReferenceEm(%"class.base::internal::WeakPtrBase"* nonnull %35, %"class.base::internal::WeakReference"* nonnull dereferenceable(8) %3, i64 %34) #6
  call void @_ZN4base8internal13WeakReferenceD1Ev(%"class.base::internal::WeakReference"* nonnull %3) #6
  call void @llvm.lifetime.end.p0i8(i64 8, i8* nonnull %31) #6, !noalias !2
  %36 = getelementptr inbounds %"class.base::WeakPtr", %"class.base::WeakPtr"* %4, i64 0, i32 0, i32 0, i32 0, i32 0
  %37 = bitcast %"class.base::WeakPtr"* %4 to i64*
  %38 = load i64, i64* %37, align 8
  store %"class.base::internal::WeakReference::Flag"* null, %"class.base::internal::WeakReference::Flag"** %36, align 8
  %39 = bitcast %"class.base::WeakPtr"* %25 to i64*
  %40 = getelementptr inbounds %"class.base::WeakPtr", %"class.base::WeakPtr"* %25, i64 0, i32 0, i32 0, i32 0, i32 0
  %41 = load %"class.base::internal::WeakReference::Flag"*, %"class.base::internal::WeakReference::Flag"** %40, align 8
  store i64 %38, i64* %39, align 8
  %42 = icmp eq %"class.base::internal::WeakReference::Flag"* %41, null
  br i1 %42, label %49, label %43

43:                                               ; preds = %2
  %44 = getelementptr inbounds %"class.base::internal::WeakReference::Flag", %"class.base::internal::WeakReference::Flag"* %41, i64 0, i32 0, i32 0, i32 0, i32 0, i32 0, i32 0, i32 0, i32 0, i32 0
  %45 = atomicrmw sub i32* %44, i32 1 acq_rel
  %46 = icmp eq i32 %45, 1
  br i1 %46, label %47, label %49

47:                                               ; preds = %43
  call void @_ZN4base8internal13WeakReference4FlagD1Ev(%"class.base::internal::WeakReference::Flag"* nonnull %41) #6
  %48 = bitcast %"class.base::internal::WeakReference::Flag"* %41 to i8*
  call void @_ZdlPv(i8* %48) #7
  br label %49

49:                                               ; preds = %2, %43, %47
  %50 = getelementptr inbounds %"class.base::WeakPtr", %"class.base::WeakPtr"* %4, i64 0, i32 0, i32 1
  %51 = load i64, i64* %50, align 8
  %52 = getelementptr inbounds %"class.storage::FileSystemOperationRunner", %"class.storage::FileSystemOperationRunner"* %0, i64 0, i32 8, i32 0, i32 1
  store i64 %51, i64* %52, align 8
  call void @_ZN4base8internal11WeakPtrBaseD2Ev(%"class.base::internal::WeakPtrBase"* nonnull %35) #6
  call void @llvm.lifetime.end.p0i8(i64 16, i8* nonnull %30) #6
  ret void
}

; Function Attrs: nounwind ssp uwtable
define hidden void @_ZN7storage25FileSystemOperationRunnerC2EN4base7PassKeyINS_17FileSystemContextEEEPS3_(%"class.storage::FileSystemOperationRunner"*, %"class.storage::FileSystemContext"*) unnamed_addr #0 align 2 {
  tail call void @_ZN7storage25FileSystemOperationRunnerC2EPNS_17FileSystemContextE(%"class.storage::FileSystemOperationRunner"* %0, %"class.storage::FileSystemContext"* %1)
  ret void
}

; Function Attrs: nounwind ssp uwtable
define hidden void @_ZN7storage25FileSystemOperationRunnerD2Ev(%"class.storage::FileSystemOperationRunner"*) unnamed_addr #0 align 2 {
  %2 = getelementptr inbounds %"class.storage::FileSystemOperationRunner", %"class.storage::FileSystemOperationRunner"* %0, i64 0, i32 0
  store i32 (...)** bitcast (i8** getelementptr inbounds ({ [4 x i8*] }, { [4 x i8*] }* @_ZTVN7storage25FileSystemOperationRunnerE, i64 0, inrange i32 0, i64 2) to i32 (...)**), i32 (...)*** %2, align 8
  %3 = getelementptr inbounds %"class.storage::FileSystemOperationRunner", %"class.storage::FileSystemOperationRunner"* %0, i64 0, i32 9, i32 0
  tail call void @_ZN4base8internal18WeakPtrFactoryBaseD2Ev(%"class.base::internal::WeakPtrFactoryBase"* %3) #6
  %4 = getelementptr inbounds %"class.storage::FileSystemOperationRunner", %"class.storage::FileSystemOperationRunner"* %0, i64 0, i32 8, i32 0
  tail call void @_ZN4base8internal11WeakPtrBaseD2Ev(%"class.base::internal::WeakPtrBase"* %4) #6
  %5 = getelementptr inbounds %"class.storage::FileSystemOperationRunner", %"class.storage::FileSystemOperationRunner"* %0, i64 0, i32 7, i32 0
  %6 = getelementptr inbounds %"class.storage::FileSystemOperationRunner", %"class.storage::FileSystemOperationRunner"* %0, i64 0, i32 7, i32 0, i32 1, i32 0, i32 0
  %7 = bitcast %"class.std::__1::__tree_end_node"* %6 to %"class.std::__1::__tree_node.374"**
  %8 = load %"class.std::__1::__tree_node.374"*, %"class.std::__1::__tree_node.374"** %7, align 8
  tail call void @_ZNSt3__16__treeINS_12__value_typeImN4base12OnceCallbackIFvNS2_4File5ErrorEEEEEENS_19__map_value_compareImS8_NS_4lessImEELb1EEENS_9allocatorIS8_EEE7destroyEPNS_11__tree_nodeIS8_PvEE(%"class.std::__1::__tree.181"* %5, %"class.std::__1::__tree_node.374"* %8) #6
  %9 = getelementptr inbounds %"class.storage::FileSystemOperationRunner", %"class.storage::FileSystemOperationRunner"* %0, i64 0, i32 6, i32 0
  %10 = getelementptr inbounds %"class.storage::FileSystemOperationRunner", %"class.storage::FileSystemOperationRunner"* %0, i64 0, i32 6, i32 0, i32 1, i32 0, i32 0
  %11 = bitcast %"class.std::__1::__tree_end_node"* %10 to %"class.std::__1::__tree_node"**
  %12 = load %"class.std::__1::__tree_node"*, %"class.std::__1::__tree_node"** %11, align 8
  tail call void @_ZNSt3__16__treeImNS_4lessImEENS_9allocatorImEEE7destroyEPNS_11__tree_nodeImPvEE(%"class.std::__1::__tree.173"* %9, %"class.std::__1::__tree_node"* %12) #6
  %13 = getelementptr inbounds %"class.storage::FileSystemOperationRunner", %"class.storage::FileSystemOperationRunner"* %0, i64 0, i32 5, i32 0
  %14 = getelementptr inbounds %"class.storage::FileSystemOperationRunner", %"class.storage::FileSystemOperationRunner"* %0, i64 0, i32 5, i32 0, i32 1, i32 0, i32 0
  %15 = bitcast %"class.std::__1::__tree_end_node"* %14 to %"class.std::__1::__tree_node.371"**
  %16 = load %"class.std::__1::__tree_node.371"*, %"class.std::__1::__tree_node.371"** %15, align 8
  tail call void @_ZNSt3__16__treeINS_12__value_typeImNS_3setIN7storage13FileSystemURLENS4_10ComparatorENS_9allocatorIS4_EEEEEENS_19__map_value_compareImS9_NS_4lessImEELb1EEENS6_IS9_EEE7destroyEPNS_11__tree_nodeIS9_PvEE(%"class.std::__1::__tree.164"* %13, %"class.std::__1::__tree_node.371"* %16) #6
  %17 = getelementptr inbounds %"class.storage::FileSystemOperationRunner", %"class.storage::FileSystemOperationRunner"* %0, i64 0, i32 3, i32 0
  %18 = getelementptr inbounds %"class.storage::FileSystemOperationRunner", %"class.storage::FileSystemOperationRunner"* %0, i64 0, i32 3, i32 0, i32 1, i32 0, i32 0
  %19 = bitcast %"class.std::__1::__tree_end_node"* %18 to %"class.std::__1::__tree_node.370"**
  %20 = load %"class.std::__1::__tree_node.370"*, %"class.std::__1::__tree_node.370"** %19, align 8
  tail call void @_ZNSt3__16__treeINS_12__value_typeImNS_10unique_ptrIN7storage19FileSystemOperationENS_14default_deleteIS4_EEEEEENS_19__map_value_compareImS8_NS_4lessImEELb1EEENS_9allocatorIS8_EEE7destroyEPNS_11__tree_nodeIS8_PvEE(%"class.std::__1::__tree.153"* %17, %"class.std::__1::__tree_node.370"* %20) #6
  ret void
}

; Function Attrs: nounwind
declare void @_ZN4base8internal18WeakPtrFactoryBaseD2Ev(%"class.base::internal::WeakPtrFactoryBase"*) unnamed_addr #1

; Function Attrs: nounwind
declare void @_ZN4base8internal11WeakPtrBaseD2Ev(%"class.base::internal::WeakPtrBase"*) unnamed_addr #1

; Function Attrs: nounwind ssp uwtable
define hidden void @_ZN7storage25FileSystemOperationRunnerD0Ev(%"class.storage::FileSystemOperationRunner"*) unnamed_addr #0 align 2 {
  %2 = getelementptr inbounds %"class.storage::FileSystemOperationRunner", %"class.storage::FileSystemOperationRunner"* %0, i64 0, i32 0
  store i32 (...)** bitcast (i8** getelementptr inbounds ({ [4 x i8*] }, { [4 x i8*] }* @_ZTVN7storage25FileSystemOperationRunnerE, i64 0, inrange i32 0, i64 2) to i32 (...)**), i32 (...)*** %2, align 8
  %3 = getelementptr inbounds %"class.storage::FileSystemOperationRunner", %"class.storage::FileSystemOperationRunner"* %0, i64 0, i32 9, i32 0
  tail call void @_ZN4base8internal18WeakPtrFactoryBaseD2Ev(%"class.base::internal::WeakPtrFactoryBase"* %3) #6
  %4 = getelementptr inbounds %"class.storage::FileSystemOperationRunner", %"class.storage::FileSystemOperationRunner"* %0, i64 0, i32 8, i32 0
  tail call void @_ZN4base8internal11WeakPtrBaseD2Ev(%"class.base::internal::WeakPtrBase"* %4) #6
  %5 = getelementptr inbounds %"class.storage::FileSystemOperationRunner", %"class.storage::FileSystemOperationRunner"* %0, i64 0, i32 7, i32 0
  %6 = getelementptr inbounds %"class.storage::FileSystemOperationRunner", %"class.storage::FileSystemOperationRunner"* %0, i64 0, i32 7, i32 0, i32 1, i32 0, i32 0
  %7 = bitcast %"class.std::__1::__tree_end_node"* %6 to %"class.std::__1::__tree_node.374"**
  %8 = load %"class.std::__1::__tree_node.374"*, %"class.std::__1::__tree_node.374"** %7, align 8
  tail call void @_ZNSt3__16__treeINS_12__value_typeImN4base12OnceCallbackIFvNS2_4File5ErrorEEEEEENS_19__map_value_compareImS8_NS_4lessImEELb1EEENS_9allocatorIS8_EEE7destroyEPNS_11__tree_nodeIS8_PvEE(%"class.std::__1::__tree.181"* %5, %"class.std::__1::__tree_node.374"* %8) #6
  %9 = getelementptr inbounds %"class.storage::FileSystemOperationRunner", %"class.storage::FileSystemOperationRunner"* %0, i64 0, i32 6, i32 0
  %10 = getelementptr inbounds %"class.storage::FileSystemOperationRunner", %"class.storage::FileSystemOperationRunner"* %0, i64 0, i32 6, i32 0, i32 1, i32 0, i32 0
  %11 = bitcast %"class.std::__1::__tree_end_node"* %10 to %"class.std::__1::__tree_node"**
  %12 = load %"class.std::__1::__tree_node"*, %"class.std::__1::__tree_node"** %11, align 8
  tail call void @_ZNSt3__16__treeImNS_4lessImEENS_9allocatorImEEE7destroyEPNS_11__tree_nodeImPvEE(%"class.std::__1::__tree.173"* %9, %"class.std::__1::__tree_node"* %12) #6
  %13 = getelementptr inbounds %"class.storage::FileSystemOperationRunner", %"class.storage::FileSystemOperationRunner"* %0, i64 0, i32 5, i32 0
  %14 = getelementptr inbounds %"class.storage::FileSystemOperationRunner", %"class.storage::FileSystemOperationRunner"* %0, i64 0, i32 5, i32 0, i32 1, i32 0, i32 0
  %15 = bitcast %"class.std::__1::__tree_end_node"* %14 to %"class.std::__1::__tree_node.371"**
  %16 = load %"class.std::__1::__tree_node.371"*, %"class.std::__1::__tree_node.371"** %15, align 8
  tail call void @_ZNSt3__16__treeINS_12__value_typeImNS_3setIN7storage13FileSystemURLENS4_10ComparatorENS_9allocatorIS4_EEEEEENS_19__map_value_compareImS9_NS_4lessImEELb1EEENS6_IS9_EEE7destroyEPNS_11__tree_nodeIS9_PvEE(%"class.std::__1::__tree.164"* %13, %"class.std::__1::__tree_node.371"* %16) #6
  %17 = getelementptr inbounds %"class.storage::FileSystemOperationRunner", %"class.storage::FileSystemOperationRunner"* %0, i64 0, i32 3, i32 0
  %18 = getelementptr inbounds %"class.storage::FileSystemOperationRunner", %"class.storage::FileSystemOperationRunner"* %0, i64 0, i32 3, i32 0, i32 1, i32 0, i32 0
  %19 = bitcast %"class.std::__1::__tree_end_node"* %18 to %"class.std::__1::__tree_node.370"**
  %20 = load %"class.std::__1::__tree_node.370"*, %"class.std::__1::__tree_node.370"** %19, align 8
  tail call void @_ZNSt3__16__treeINS_12__value_typeImNS_10unique_ptrIN7storage19FileSystemOperationENS_14default_deleteIS4_EEEEEENS_19__map_value_compareImS8_NS_4lessImEELb1EEENS_9allocatorIS8_EEE7destroyEPNS_11__tree_nodeIS8_PvEE(%"class.std::__1::__tree.153"* %17, %"class.std::__1::__tree_node.370"* %20) #6
  %21 = bitcast %"class.storage::FileSystemOperationRunner"* %0 to i8*
  tail call void @_ZdlPv(i8* %21) #7
  ret void
}

; Function Attrs: nobuiltin nounwind
declare void @_ZdlPv(i8*) local_unnamed_addr #2

; Function Attrs: nounwind ssp uwtable
define hidden void @_ZN7storage25FileSystemOperationRunner8ShutdownEv(%"class.storage::FileSystemOperationRunner"*) local_unnamed_addr #0 align 2 {
  %2 = getelementptr inbounds %"class.storage::FileSystemOperationRunner", %"class.storage::FileSystemOperationRunner"* %0, i64 0, i32 3
  %3 = getelementptr inbounds %"class.std::__1::map.152", %"class.std::__1::map.152"* %2, i64 0, i32 0
  %4 = getelementptr inbounds %"class.storage::FileSystemOperationRunner", %"class.storage::FileSystemOperationRunner"* %0, i64 0, i32 3, i32 0, i32 1, i32 0, i32 0
  %5 = bitcast %"class.std::__1::__tree_end_node"* %4 to %"class.std::__1::__tree_node.370"**
  %6 = load %"class.std::__1::__tree_node.370"*, %"class.std::__1::__tree_node.370"** %5, align 8
  tail call void @_ZNSt3__16__treeINS_12__value_typeImNS_10unique_ptrIN7storage19FileSystemOperationENS_14default_deleteIS4_EEEEEENS_19__map_value_compareImS8_NS_4lessImEELb1EEENS_9allocatorIS8_EEE7destroyEPNS_11__tree_nodeIS8_PvEE(%"class.std::__1::__tree.153"* %3, %"class.std::__1::__tree_node.370"* %6) #6
  %7 = getelementptr inbounds %"class.storage::FileSystemOperationRunner", %"class.storage::FileSystemOperationRunner"* %0, i64 0, i32 3, i32 0, i32 2, i32 0, i32 0
  store i64 0, i64* %7, align 8
  %8 = getelementptr inbounds %"class.std::__1::map.152", %"class.std::__1::map.152"* %2, i64 0, i32 0, i32 0
  store %"class.std::__1::__tree_end_node"* %4, %"class.std::__1::__tree_end_node"** %8, align 8
  %9 = getelementptr inbounds %"class.std::__1::__tree_end_node", %"class.std::__1::__tree_end_node"* %4, i64 0, i32 0
  store %"class.std::__1::__tree_node_base"* null, %"class.std::__1::__tree_node_base"** %9, align 8
  ret void
}

; Function Attrs: nounwind ssp uwtable
define hidden i64 @_ZN7storage25FileSystemOperationRunner10CreateFileERKNS_13FileSystemURLEbN4base12OnceCallbackIFvNS4_4File5ErrorEEEE(%"class.storage::FileSystemOperationRunner"*, %"class.storage::FileSystemURL"* dereferenceable(208), i1 zeroext, %"class.base::OnceCallback"* nocapture) local_unnamed_addr #0 align 2 {
  %5 = alloca i32, align 4
  %6 = alloca %"class.base::OnceCallback", align 8
  %7 = alloca %"class.base::OnceCallback", align 8
  %8 = bitcast i32* %5 to i8*
  call void @llvm.lifetime.start.p0i8(i64 4, i8* nonnull %8) #6
  store i32 0, i32* %5, align 4
  %9 = getelementptr inbounds %"class.storage::FileSystemOperationRunner", %"class.storage::FileSystemOperationRunner"* %0, i64 0, i32 1
  %10 = load %"class.storage::FileSystemContext"*, %"class.storage::FileSystemContext"** %9, align 8
  %11 = call %"class.storage::FileSystemOperation"* @_ZN7storage17FileSystemContext25CreateFileSystemOperationERKNS_13FileSystemURLEPN4base4File5ErrorE(%"class.storage::FileSystemContext"* %10, %"class.storage::FileSystemURL"* dereferenceable(208) %1, i32* nonnull %5) #6
  %12 = call i64 @_ZN7storage25FileSystemOperationRunner14BeginOperationENSt3__110unique_ptrINS_19FileSystemOperationENS1_14default_deleteIS3_EEEE(%"class.storage::FileSystemOperationRunner"* %0, %"class.storage::FileSystemOperation"* %11)
  %13 = getelementptr inbounds %"class.storage::FileSystemOperationRunner", %"class.storage::FileSystemOperationRunner"* %0, i64 0, i32 4
  %14 = load i8, i8* %13, align 1, !range !5
  store i8 1, i8* %13, align 1
  %15 = icmp eq %"class.storage::FileSystemOperation"* %11, null
  br i1 %15, label %16, label %22

16:                                               ; preds = %4
  %17 = getelementptr inbounds %"class.base::OnceCallback", %"class.base::OnceCallback"* %3, i64 0, i32 0, i32 0, i32 0
  %18 = bitcast %"class.base::OnceCallback"* %3 to i64*
  %19 = load i64, i64* %18, align 8
  %20 = bitcast %"class.base::OnceCallback"* %6 to i64*
  store i64 %19, i64* %20, align 8
  store %"class.base::internal::BindStateBase"* null, %"class.base::internal::BindStateBase"** %17, align 8
  %21 = load i32, i32* %5, align 4
  call void @_ZN7storage25FileSystemOperationRunner9DidFinishEmN4base12OnceCallbackIFvNS1_4File5ErrorEEEES4_(%"class.storage::FileSystemOperationRunner"* %0, i64 %12, %"class.base::OnceCallback"* nonnull %6, i32 %21)
  br label %46

22:                                               ; preds = %4
  call void @_ZN7storage25FileSystemOperationRunner15PrepareForWriteEmRKNS_13FileSystemURLE(%"class.storage::FileSystemOperationRunner"* %0, i64 %12, %"class.storage::FileSystemURL"* dereferenceable(208) %1)
  %23 = call i8* @_Znwm(i64 80) #7, !noalias !6
  %24 = bitcast i8* %23 to %"class.base::internal::BindStateBase"*
  call void @_ZN4base8internal13BindStateBaseC2EPFvvEPFvPKS1_EPFbS5_NS1_21CancellationQueryModeEE(%"class.base::internal::BindStateBase"* nonnull %24, void ()* bitcast (void (%"class.base::internal::BindStateBase"*, i32)* @_ZN4base8internal7InvokerINS0_9BindStateIMN7storage25FileSystemOperationRunnerEFvmNS_12OnceCallbackIFvNS_4File5ErrorEEEES7_EJNS_7WeakPtrIS4_EEmS9_EEES8_E7RunOnceEPNS0_13BindStateBaseES7_ to void ()*), void (%"class.base::internal::BindStateBase"*)* nonnull @_ZN4base8internal9BindStateIMN7storage25FileSystemOperationRunnerEFvmNS_12OnceCallbackIFvNS_4File5ErrorEEEES6_EJNS_7WeakPtrIS3_EEmS8_EE7DestroyEPKNS0_13BindStateBaseE, i1 (%"class.base::internal::BindStateBase"*, i32)* nonnull @_ZN4base8internal23QueryCancellationTraitsINS0_9BindStateIMN7storage25FileSystemOperationRunnerEFvmNS_12OnceCallbackIFvNS_4File5ErrorEEEES7_EJNS_7WeakPtrIS4_EEmS9_EEEEEbPKNS0_13BindStateBaseENSF_21CancellationQueryModeE) #6, !noalias !6
  %25 = getelementptr inbounds i8, i8* %23, i64 32
  %26 = bitcast i8* %25 to <2 x i64>*
  store <2 x i64> <i64 ptrtoint (void (%"class.storage::FileSystemOperationRunner"*, i64, %"class.base::OnceCallback"*, i32)* @_ZN7storage25FileSystemOperationRunner9DidFinishEmN4base12OnceCallbackIFvNS1_4File5ErrorEEEES4_ to i64), i64 0>, <2 x i64>* %26, align 8, !noalias !6
  %27 = getelementptr inbounds i8, i8* %23, i64 48
  %28 = bitcast i8* %27 to %"class.base::internal::WeakReference"*
  %29 = getelementptr inbounds %"class.storage::FileSystemOperationRunner", %"class.storage::FileSystemOperationRunner"* %0, i64 0, i32 8, i32 0, i32 0
  call void @_ZN4base8internal13WeakReferenceC1ERKS1_(%"class.base::internal::WeakReference"* %28, %"class.base::internal::WeakReference"* dereferenceable(8) %29) #6, !noalias !6
  %30 = getelementptr inbounds i8, i8* %23, i64 56
  %31 = bitcast i8* %30 to i64*
  %32 = getelementptr inbounds %"class.storage::FileSystemOperationRunner", %"class.storage::FileSystemOperationRunner"* %0, i64 0, i32 8, i32 0, i32 1
  %33 = load i64, i64* %32, align 8, !noalias !6
  store i64 %33, i64* %31, align 8, !noalias !6
  %34 = getelementptr inbounds i8, i8* %23, i64 64
  %35 = bitcast i8* %34 to i64*
  store i64 %12, i64* %35, align 8, !noalias !6
  %36 = getelementptr inbounds i8, i8* %23, i64 72
  %37 = getelementptr inbounds %"class.base::OnceCallback", %"class.base::OnceCallback"* %3, i64 0, i32 0, i32 0, i32 0
  %38 = bitcast %"class.base::OnceCallback"* %3 to i64*
  %39 = load i64, i64* %38, align 8, !noalias !6
  %40 = bitcast i8* %36 to i64*
  store i64 %39, i64* %40, align 8, !noalias !6
  store %"class.base::internal::BindStateBase"* null, %"class.base::internal::BindStateBase"** %37, align 8, !noalias !6
  %41 = bitcast %"class.base::OnceCallback"* %7 to i8**
  store i8* %23, i8** %41, align 8, !alias.scope !6
  %42 = bitcast %"class.storage::FileSystemOperation"* %11 to void (%"class.storage::FileSystemOperation"*, %"class.storage::FileSystemURL"*, i1, %"class.base::OnceCallback"*)***
  %43 = load void (%"class.storage::FileSystemOperation"*, %"class.storage::FileSystemURL"*, i1, %"class.base::OnceCallback"*)**, void (%"class.storage::FileSystemOperation"*, %"class.storage::FileSystemURL"*, i1, %"class.base::OnceCallback"*)*** %42, align 8
  %44 = getelementptr inbounds void (%"class.storage::FileSystemOperation"*, %"class.storage::FileSystemURL"*, i1, %"class.base::OnceCallback"*)*, void (%"class.storage::FileSystemOperation"*, %"class.storage::FileSystemURL"*, i1, %"class.base::OnceCallback"*)** %43, i64 2
  %45 = load void (%"class.storage::FileSystemOperation"*, %"class.storage::FileSystemURL"*, i1, %"class.base::OnceCallback"*)*, void (%"class.storage::FileSystemOperation"*, %"class.storage::FileSystemURL"*, i1, %"class.base::OnceCallback"*)** %44, align 8
  call void %45(%"class.storage::FileSystemOperation"* nonnull %11, %"class.storage::FileSystemURL"* dereferenceable(208) %1, i1 zeroext %2, %"class.base::OnceCallback"* nonnull %7) #6
  br label %46

46:                                               ; preds = %22, %16
  %47 = phi %"class.base::OnceCallback"* [ %7, %22 ], [ %6, %16 ]
  %48 = getelementptr inbounds %"class.base::OnceCallback", %"class.base::OnceCallback"* %47, i64 0, i32 0
  call void @_ZN4base8internal12CallbackBaseD2Ev(%"class.base::internal::CallbackBase"* nonnull %48) #6
  %49 = icmp eq i8* %13, null
  br i1 %49, label %51, label %50

50:                                               ; preds = %46
  store i8 %14, i8* %13, align 1
  br label %51

51:                                               ; preds = %50, %46
  call void @llvm.lifetime.end.p0i8(i64 4, i8* nonnull %8) #6
  ret i64 %12
}

; Function Attrs: argmemonly nounwind
declare void @llvm.lifetime.start.p0i8(i64 immarg, i8* nocapture) #3

declare %"class.storage::FileSystemOperation"* @_ZN7storage17FileSystemContext25CreateFileSystemOperationERKNS_13FileSystemURLEPN4base4File5ErrorE(%"class.storage::FileSystemContext"*, %"class.storage::FileSystemURL"* dereferenceable(208), i32*) local_unnamed_addr #4

; Function Attrs: nounwind ssp uwtable
define hidden i64 @_ZN7storage25FileSystemOperationRunner14BeginOperationENSt3__110unique_ptrINS_19FileSystemOperationENS1_14default_deleteIS3_EEEE(%"class.storage::FileSystemOperationRunner"*, %"class.storage::FileSystemOperation"*) local_unnamed_addr #0 align 2 {
  %3 = ptrtoint %"class.storage::FileSystemOperation"* %1 to i64
  %4 = getelementptr inbounds %"class.storage::FileSystemOperationRunner", %"class.storage::FileSystemOperationRunner"* %0, i64 0, i32 2
  %5 = load i64, i64* %4, align 8
  %6 = add i64 %5, 1
  store i64 %6, i64* %4, align 8
  %7 = getelementptr inbounds %"class.storage::FileSystemOperationRunner", %"class.storage::FileSystemOperationRunner"* %0, i64 0, i32 3
  %8 = getelementptr inbounds %"class.storage::FileSystemOperationRunner", %"class.storage::FileSystemOperationRunner"* %0, i64 0, i32 3, i32 0, i32 1, i32 0, i32 0
  %9 = bitcast %"class.std::__1::__tree_end_node"* %8 to %"class.std::__1::__tree_node.370"**
  %10 = load %"class.std::__1::__tree_node.370"*, %"class.std::__1::__tree_node.370"** %9, align 8
  %11 = icmp eq %"class.std::__1::__tree_node.370"* %10, null
  br i1 %11, label %40, label %12

12:                                               ; preds = %2
  %13 = getelementptr inbounds %"class.storage::FileSystemOperationRunner", %"class.storage::FileSystemOperationRunner"* %0, i64 0, i32 3, i32 0, i32 1, i32 0, i32 0, i32 0
  br label %14

14:                                               ; preds = %36, %12
  %15 = phi %"class.std::__1::__tree_node.370"* [ %39, %36 ], [ %10, %12 ]
  %16 = phi %"class.std::__1::__tree_node_base"** [ %38, %36 ], [ %13, %12 ]
  %17 = getelementptr inbounds %"class.std::__1::__tree_node.370", %"class.std::__1::__tree_node.370"* %15, i64 0, i32 1, i32 0, i32 0
  %18 = load i64, i64* %17, align 8
  %19 = icmp ult i64 %5, %18
  br i1 %19, label %20, label %26

20:                                               ; preds = %14
  %21 = getelementptr inbounds %"class.std::__1::__tree_node.370", %"class.std::__1::__tree_node.370"* %15, i64 0, i32 0, i32 0, i32 0
  %22 = load %"class.std::__1::__tree_node_base"*, %"class.std::__1::__tree_node_base"** %21, align 8
  %23 = icmp eq %"class.std::__1::__tree_node_base"* %22, null
  br i1 %23, label %24, label %36

24:                                               ; preds = %20
  %25 = getelementptr inbounds %"class.std::__1::__tree_node.370", %"class.std::__1::__tree_node.370"* %15, i64 0, i32 0, i32 0
  br label %42

26:                                               ; preds = %14
  %27 = icmp ult i64 %18, %5
  br i1 %27, label %28, label %34

28:                                               ; preds = %26
  %29 = getelementptr inbounds %"class.std::__1::__tree_node.370", %"class.std::__1::__tree_node.370"* %15, i64 0, i32 0, i32 1
  %30 = load %"class.std::__1::__tree_node_base"*, %"class.std::__1::__tree_node_base"** %29, align 8
  %31 = icmp eq %"class.std::__1::__tree_node_base"* %30, null
  br i1 %31, label %32, label %36

32:                                               ; preds = %28
  %33 = getelementptr inbounds %"class.std::__1::__tree_node.370", %"class.std::__1::__tree_node.370"* %15, i64 0, i32 0, i32 0
  br label %42

34:                                               ; preds = %26
  %35 = getelementptr inbounds %"class.std::__1::__tree_node.370", %"class.std::__1::__tree_node.370"* %15, i64 0, i32 0, i32 0
  br label %42

36:                                               ; preds = %28, %20
  %37 = phi %"class.std::__1::__tree_node_base"* [ %22, %20 ], [ %30, %28 ]
  %38 = phi %"class.std::__1::__tree_node_base"** [ %21, %20 ], [ %29, %28 ]
  %39 = bitcast %"class.std::__1::__tree_node_base"* %37 to %"class.std::__1::__tree_node.370"*
  br label %14

40:                                               ; preds = %2
  %41 = getelementptr inbounds %"class.std::__1::__tree_end_node", %"class.std::__1::__tree_end_node"* %8, i64 0, i32 0
  br label %42

42:                                               ; preds = %40, %34, %32, %24
  %43 = phi %"class.std::__1::__tree_end_node"* [ %8, %40 ], [ %25, %24 ], [ %33, %32 ], [ %35, %34 ]
  %44 = phi %"class.std::__1::__tree_node_base"** [ %41, %40 ], [ %21, %24 ], [ %29, %32 ], [ %16, %34 ]
  %45 = bitcast %"class.std::__1::__tree_node_base"** %44 to %"class.std::__1::__tree_node.370"**
  %46 = load %"class.std::__1::__tree_node.370"*, %"class.std::__1::__tree_node.370"** %45, align 8
  %47 = icmp eq %"class.std::__1::__tree_node.370"* %46, null
  br i1 %47, label %48, label %75

48:                                               ; preds = %42
  %49 = tail call i8* @_Znwm(i64 48) #7, !noalias !11
  %50 = getelementptr inbounds i8, i8* %49, i64 32
  %51 = bitcast i8* %50 to i64*
  store i64 %5, i64* %51, align 8, !noalias !11
  %52 = getelementptr inbounds i8, i8* %49, i64 40
  %53 = bitcast i8* %52 to i64*
  store i64 0, i64* %53, align 8, !noalias !11
  %54 = bitcast i8* %49 to %"class.std::__1::__tree_node.370"*
  %55 = bitcast i8* %49 to %"class.std::__1::__tree_node_base"*
  %56 = getelementptr inbounds i8, i8* %49, i64 16
  %57 = bitcast i8* %56 to %"class.std::__1::__tree_end_node"**
  tail call void @llvm.memset.p0i8.i64(i8* nonnull align 8 %49, i8 0, i64 16, i1 false) #6
  store %"class.std::__1::__tree_end_node"* %43, %"class.std::__1::__tree_end_node"** %57, align 8
  %58 = bitcast %"class.std::__1::__tree_node_base"** %44 to i8**
  store i8* %49, i8** %58, align 8
  %59 = getelementptr inbounds %"class.std::__1::map.152", %"class.std::__1::map.152"* %7, i64 0, i32 0, i32 0
  %60 = load %"class.std::__1::__tree_end_node"*, %"class.std::__1::__tree_end_node"** %59, align 8
  %61 = getelementptr inbounds %"class.std::__1::__tree_end_node", %"class.std::__1::__tree_end_node"* %60, i64 0, i32 0
  %62 = load %"class.std::__1::__tree_node_base"*, %"class.std::__1::__tree_node_base"** %61, align 8
  %63 = icmp eq %"class.std::__1::__tree_node_base"* %62, null
  br i1 %63, label %68, label %64

64:                                               ; preds = %48
  %65 = ptrtoint %"class.std::__1::__tree_node_base"* %62 to i64
  %66 = bitcast %"class.std::__1::map.152"* %7 to i64*
  store i64 %65, i64* %66, align 8
  %67 = load %"class.std::__1::__tree_node_base"*, %"class.std::__1::__tree_node_base"** %44, align 8
  br label %68

68:                                               ; preds = %64, %48
  %69 = phi %"class.std::__1::__tree_node_base"* [ %55, %48 ], [ %67, %64 ]
  %70 = getelementptr inbounds %"class.storage::FileSystemOperationRunner", %"class.storage::FileSystemOperationRunner"* %0, i64 0, i32 3, i32 0, i32 1, i32 0, i32 0, i32 0
  %71 = load %"class.std::__1::__tree_node_base"*, %"class.std::__1::__tree_node_base"** %70, align 8
  tail call void @_ZNSt3__127__tree_balance_after_insertIPNS_16__tree_node_baseIPvEEEEvT_S5_(%"class.std::__1::__tree_node_base"* %71, %"class.std::__1::__tree_node_base"* %69) #6
  %72 = getelementptr inbounds %"class.storage::FileSystemOperationRunner", %"class.storage::FileSystemOperationRunner"* %0, i64 0, i32 3, i32 0, i32 2, i32 0, i32 0
  %73 = load i64, i64* %72, align 8
  %74 = add i64 %73, 1
  store i64 %74, i64* %72, align 8
  br label %75

75:                                               ; preds = %42, %68
  %76 = phi %"class.std::__1::__tree_node.370"* [ %54, %68 ], [ %46, %42 ]
  %77 = getelementptr inbounds %"class.std::__1::__tree_node.370", %"class.std::__1::__tree_node.370"* %76, i64 0, i32 1, i32 0, i32 1
  %78 = getelementptr inbounds %"class.std::__1::unique_ptr.195", %"class.std::__1::unique_ptr.195"* %77, i64 0, i32 0, i32 0, i32 0
  %79 = load %"class.storage::FileSystemOperation"*, %"class.storage::FileSystemOperation"** %78, align 8
  %80 = bitcast %"class.std::__1::unique_ptr.195"* %77 to i64*
  store i64 %3, i64* %80, align 8
  %81 = icmp eq %"class.storage::FileSystemOperation"* %79, null
  br i1 %81, label %87, label %82

82:                                               ; preds = %75
  %83 = bitcast %"class.storage::FileSystemOperation"* %79 to void (%"class.storage::FileSystemOperation"*)***
  %84 = load void (%"class.storage::FileSystemOperation"*)**, void (%"class.storage::FileSystemOperation"*)*** %83, align 8
  %85 = getelementptr inbounds void (%"class.storage::FileSystemOperation"*)*, void (%"class.storage::FileSystemOperation"*)** %84, i64 1
  %86 = load void (%"class.storage::FileSystemOperation"*)*, void (%"class.storage::FileSystemOperation"*)** %85, align 8
  tail call void %86(%"class.storage::FileSystemOperation"* nonnull %79) #6
  br label %87

87:                                               ; preds = %82, %75
  ret i64 %5
}

; Function Attrs: argmemonly nounwind
declare void @llvm.lifetime.end.p0i8(i64 immarg, i8* nocapture) #3

; Function Attrs: nounwind ssp uwtable
define hidden void @_ZN7storage25FileSystemOperationRunner9DidFinishEmN4base12OnceCallbackIFvNS1_4File5ErrorEEEES4_(%"class.storage::FileSystemOperationRunner"*, i64, %"class.base::OnceCallback"* nocapture, i32) #0 align 2 {
  %5 = alloca %"class.base::OnceCallback", align 8
  %6 = alloca %"class.base::Location", align 8
  %7 = alloca %"class.base::Location", align 8
  %8 = alloca %"class.base::OnceCallback.315", align 8
  %9 = getelementptr inbounds %"class.storage::FileSystemOperationRunner", %"class.storage::FileSystemOperationRunner"* %0, i64 0, i32 1
  %10 = load %"class.storage::FileSystemContext"*, %"class.storage::FileSystemContext"** %9, align 8
  %11 = icmp eq %"class.storage::FileSystemContext"* %10, null
  br i1 %11, label %15, label %12

12:                                               ; preds = %4
  %13 = getelementptr inbounds %"class.storage::FileSystemContext", %"class.storage::FileSystemContext"* %10, i64 0, i32 0, i32 0, i32 0, i32 0, i32 0, i32 0, i32 0, i32 0, i32 0
  %14 = atomicrmw add i32* %13, i32 1 monotonic
  br label %15

15:                                               ; preds = %4, %12
  %16 = getelementptr inbounds %"class.storage::FileSystemOperationRunner", %"class.storage::FileSystemOperationRunner"* %0, i64 0, i32 4
  %17 = load i8, i8* %16, align 8, !range !5
  %18 = icmp eq i8 %17, 0
  br i1 %18, label %113, label %19

19:                                               ; preds = %15
  %20 = getelementptr inbounds %"class.storage::FileSystemOperationRunner", %"class.storage::FileSystemOperationRunner"* %0, i64 0, i32 6
  %21 = getelementptr inbounds %"class.storage::FileSystemOperationRunner", %"class.storage::FileSystemOperationRunner"* %0, i64 0, i32 6, i32 0, i32 1, i32 0, i32 0
  %22 = bitcast %"class.std::__1::__tree_end_node"* %21 to %"class.std::__1::__tree_node"**
  %23 = load %"class.std::__1::__tree_node"*, %"class.std::__1::__tree_node"** %22, align 8
  %24 = icmp eq %"class.std::__1::__tree_node"* %23, null
  br i1 %24, label %53, label %25

25:                                               ; preds = %19
  %26 = getelementptr inbounds %"class.storage::FileSystemOperationRunner", %"class.storage::FileSystemOperationRunner"* %0, i64 0, i32 6, i32 0, i32 1, i32 0, i32 0, i32 0
  br label %27

27:                                               ; preds = %49, %25
  %28 = phi %"class.std::__1::__tree_node"* [ %52, %49 ], [ %23, %25 ]
  %29 = phi %"class.std::__1::__tree_node_base"** [ %51, %49 ], [ %26, %25 ]
  %30 = getelementptr inbounds %"class.std::__1::__tree_node", %"class.std::__1::__tree_node"* %28, i64 0, i32 1
  %31 = load i64, i64* %30, align 8
  %32 = icmp ugt i64 %31, %1
  br i1 %32, label %33, label %39

33:                                               ; preds = %27
  %34 = getelementptr inbounds %"class.std::__1::__tree_node", %"class.std::__1::__tree_node"* %28, i64 0, i32 0, i32 0, i32 0
  %35 = load %"class.std::__1::__tree_node_base"*, %"class.std::__1::__tree_node_base"** %34, align 8
  %36 = icmp eq %"class.std::__1::__tree_node_base"* %35, null
  br i1 %36, label %37, label %49

37:                                               ; preds = %33
  %38 = getelementptr inbounds %"class.std::__1::__tree_node", %"class.std::__1::__tree_node"* %28, i64 0, i32 0, i32 0
  br label %55

39:                                               ; preds = %27
  %40 = icmp ult i64 %31, %1
  br i1 %40, label %41, label %47

41:                                               ; preds = %39
  %42 = getelementptr inbounds %"class.std::__1::__tree_node", %"class.std::__1::__tree_node"* %28, i64 0, i32 0, i32 1
  %43 = load %"class.std::__1::__tree_node_base"*, %"class.std::__1::__tree_node_base"** %42, align 8
  %44 = icmp eq %"class.std::__1::__tree_node_base"* %43, null
  br i1 %44, label %45, label %49

45:                                               ; preds = %41
  %46 = getelementptr inbounds %"class.std::__1::__tree_node", %"class.std::__1::__tree_node"* %28, i64 0, i32 0, i32 0
  br label %55

47:                                               ; preds = %39
  %48 = getelementptr inbounds %"class.std::__1::__tree_node", %"class.std::__1::__tree_node"* %28, i64 0, i32 0, i32 0
  br label %55

49:                                               ; preds = %41, %33
  %50 = phi %"class.std::__1::__tree_node_base"* [ %35, %33 ], [ %43, %41 ]
  %51 = phi %"class.std::__1::__tree_node_base"** [ %34, %33 ], [ %42, %41 ]
  %52 = bitcast %"class.std::__1::__tree_node_base"* %50 to %"class.std::__1::__tree_node"*
  br label %27

53:                                               ; preds = %19
  %54 = getelementptr inbounds %"class.std::__1::__tree_end_node", %"class.std::__1::__tree_end_node"* %21, i64 0, i32 0
  br label %55

55:                                               ; preds = %53, %47, %45, %37
  %56 = phi %"class.std::__1::__tree_end_node"* [ %21, %53 ], [ %38, %37 ], [ %46, %45 ], [ %48, %47 ]
  %57 = phi %"class.std::__1::__tree_node_base"** [ %54, %53 ], [ %34, %37 ], [ %42, %45 ], [ %29, %47 ]
  %58 = bitcast %"class.std::__1::__tree_node_base"** %57 to %"class.std::__1::__tree_node"**
  %59 = load %"class.std::__1::__tree_node"*, %"class.std::__1::__tree_node"** %58, align 8
  %60 = icmp eq %"class.std::__1::__tree_node"* %59, null
  br i1 %60, label %61, label %85

61:                                               ; preds = %55
  %62 = tail call i8* @_Znwm(i64 40) #7, !noalias !14
  %63 = getelementptr inbounds i8, i8* %62, i64 32
  %64 = bitcast i8* %63 to i64*
  store i64 %1, i64* %64, align 8, !noalias !14
  %65 = bitcast i8* %62 to %"class.std::__1::__tree_node_base"*
  %66 = getelementptr inbounds i8, i8* %62, i64 16
  %67 = bitcast i8* %66 to %"class.std::__1::__tree_end_node"**
  tail call void @llvm.memset.p0i8.i64(i8* nonnull align 8 %62, i8 0, i64 16, i1 false) #6
  store %"class.std::__1::__tree_end_node"* %56, %"class.std::__1::__tree_end_node"** %67, align 8
  %68 = bitcast %"class.std::__1::__tree_node_base"** %57 to i8**
  store i8* %62, i8** %68, align 8
  %69 = getelementptr inbounds %"class.std::__1::set.172", %"class.std::__1::set.172"* %20, i64 0, i32 0, i32 0
  %70 = load %"class.std::__1::__tree_end_node"*, %"class.std::__1::__tree_end_node"** %69, align 8
  %71 = getelementptr inbounds %"class.std::__1::__tree_end_node", %"class.std::__1::__tree_end_node"* %70, i64 0, i32 0
  %72 = load %"class.std::__1::__tree_node_base"*, %"class.std::__1::__tree_node_base"** %71, align 8
  %73 = icmp eq %"class.std::__1::__tree_node_base"* %72, null
  br i1 %73, label %78, label %74

74:                                               ; preds = %61
  %75 = ptrtoint %"class.std::__1::__tree_node_base"* %72 to i64
  %76 = bitcast %"class.std::__1::set.172"* %20 to i64*
  store i64 %75, i64* %76, align 8
  %77 = load %"class.std::__1::__tree_node_base"*, %"class.std::__1::__tree_node_base"** %57, align 8
  br label %78

78:                                               ; preds = %74, %61
  %79 = phi %"class.std::__1::__tree_node_base"* [ %65, %61 ], [ %77, %74 ]
  %80 = getelementptr inbounds %"class.storage::FileSystemOperationRunner", %"class.storage::FileSystemOperationRunner"* %0, i64 0, i32 6, i32 0, i32 1, i32 0, i32 0, i32 0
  %81 = load %"class.std::__1::__tree_node_base"*, %"class.std::__1::__tree_node_base"** %80, align 8
  tail call void @_ZNSt3__127__tree_balance_after_insertIPNS_16__tree_node_baseIPvEEEEvT_S5_(%"class.std::__1::__tree_node_base"* %81, %"class.std::__1::__tree_node_base"* %79) #6
  %82 = getelementptr inbounds %"class.storage::FileSystemOperationRunner", %"class.storage::FileSystemOperationRunner"* %0, i64 0, i32 6, i32 0, i32 2, i32 0, i32 0
  %83 = load i64, i64* %82, align 8
  %84 = add i64 %83, 1
  store i64 %84, i64* %82, align 8
  br label %85

85:                                               ; preds = %55, %78
  %86 = tail call dereferenceable(8) %class.scoped_refptr.2* @_ZN4base22ThreadTaskRunnerHandle3GetEv() #6
  %87 = bitcast %class.scoped_refptr.2* %86 to %"class.base::TaskRunner"**
  %88 = load %"class.base::TaskRunner"*, %"class.base::TaskRunner"** %87, align 8
  %89 = bitcast %"class.base::Location"* %7 to i8*
  call void @llvm.lifetime.start.p0i8(i64 32, i8* nonnull %89) #6
  call void @_ZN4base8Location7CurrentEPKcS2_i(%"class.base::Location"* nonnull sret %7, i8* getelementptr inbounds ([10 x i8], [10 x i8]* @.str, i64 0, i64 0), i8* getelementptr inbounds ([66 x i8], [66 x i8]* @.str.1, i64 0, i64 0), i32 575) #6
  %90 = call i8* @_Znwm(i64 88) #7, !noalias !17
  %91 = bitcast i8* %90 to %"class.base::internal::BindStateBase"*
  call void @_ZN4base8internal13BindStateBaseC2EPFvvEPFvPKS1_EPFbS5_NS1_21CancellationQueryModeEE(%"class.base::internal::BindStateBase"* nonnull %91, void ()* bitcast (void (%"class.base::internal::BindStateBase"*)* @_ZN4base8internal7InvokerINS0_9BindStateIMN7storage25FileSystemOperationRunnerEFvmNS_12OnceCallbackIFvNS_4File5ErrorEEEES7_EJNS_7WeakPtrIS4_EEmS9_S7_EEEFvvEE7RunOnceEPNS0_13BindStateBaseE to void ()*), void (%"class.base::internal::BindStateBase"*)* nonnull @_ZN4base8internal9BindStateIMN7storage25FileSystemOperationRunnerEFvmNS_12OnceCallbackIFvNS_4File5ErrorEEEES6_EJNS_7WeakPtrIS3_EEmS8_S6_EE7DestroyEPKNS0_13BindStateBaseE, i1 (%"class.base::internal::BindStateBase"*, i32)* nonnull @_ZN4base8internal23QueryCancellationTraitsINS0_9BindStateIMN7storage25FileSystemOperationRunnerEFvmNS_12OnceCallbackIFvNS_4File5ErrorEEEES7_EJNS_7WeakPtrIS4_EEmS9_S7_EEEEEbPKNS0_13BindStateBaseENSF_21CancellationQueryModeE) #6, !noalias !17
  %92 = getelementptr inbounds i8, i8* %90, i64 32
  %93 = bitcast i8* %92 to <2 x i64>*
  store <2 x i64> <i64 ptrtoint (void (%"class.storage::FileSystemOperationRunner"*, i64, %"class.base::OnceCallback"*, i32)* @_ZN7storage25FileSystemOperationRunner9DidFinishEmN4base12OnceCallbackIFvNS1_4File5ErrorEEEES4_ to i64), i64 0>, <2 x i64>* %93, align 8, !noalias !17
  %94 = getelementptr inbounds i8, i8* %90, i64 48
  %95 = bitcast i8* %94 to %"class.base::internal::WeakReference"*
  %96 = getelementptr inbounds %"class.storage::FileSystemOperationRunner", %"class.storage::FileSystemOperationRunner"* %0, i64 0, i32 8, i32 0, i32 0
  call void @_ZN4base8internal13WeakReferenceC1ERKS1_(%"class.base::internal::WeakReference"* %95, %"class.base::internal::WeakReference"* dereferenceable(8) %96) #6, !noalias !17
  %97 = getelementptr inbounds i8, i8* %90, i64 56
  %98 = bitcast i8* %97 to i64*
  %99 = getelementptr inbounds %"class.storage::FileSystemOperationRunner", %"class.storage::FileSystemOperationRunner"* %0, i64 0, i32 8, i32 0, i32 1
  %100 = load i64, i64* %99, align 8, !noalias !17
  store i64 %100, i64* %98, align 8, !noalias !17
  %101 = getelementptr inbounds i8, i8* %90, i64 64
  %102 = bitcast i8* %101 to i64*
  store i64 %1, i64* %102, align 8, !noalias !17
  %103 = getelementptr inbounds i8, i8* %90, i64 72
  %104 = getelementptr inbounds %"class.base::OnceCallback", %"class.base::OnceCallback"* %2, i64 0, i32 0, i32 0, i32 0
  %105 = bitcast %"class.base::OnceCallback"* %2 to i64*
  %106 = load i64, i64* %105, align 8, !noalias !17
  %107 = bitcast i8* %103 to i64*
  store i64 %106, i64* %107, align 8, !noalias !17
  store %"class.base::internal::BindStateBase"* null, %"class.base::internal::BindStateBase"** %104, align 8, !noalias !17
  %108 = getelementptr inbounds i8, i8* %90, i64 80
  %109 = bitcast i8* %108 to i32*
  store i32 %3, i32* %109, align 4, !noalias !17
  %110 = bitcast %"class.base::OnceCallback.315"* %8 to i8**
  store i8* %90, i8** %110, align 8, !alias.scope !17
  %111 = call zeroext i1 @_ZN4base10TaskRunner8PostTaskERKNS_8LocationENS_12OnceCallbackIFvvEEE(%"class.base::TaskRunner"* %88, %"class.base::Location"* nonnull dereferenceable(32) %7, %"class.base::OnceCallback.315"* nonnull %8) #6
  %112 = getelementptr inbounds %"class.base::OnceCallback.315", %"class.base::OnceCallback.315"* %8, i64 0, i32 0
  call void @_ZN4base8internal12CallbackBaseD2Ev(%"class.base::internal::CallbackBase"* nonnull %112) #6
  call void @llvm.lifetime.end.p0i8(i64 32, i8* nonnull %89) #6
  br label %124

113:                                              ; preds = %15
  %114 = bitcast %"class.base::OnceCallback"* %5 to i8*
  call void @llvm.lifetime.start.p0i8(i64 8, i8* nonnull %114) #6
  %115 = getelementptr inbounds %"class.base::OnceCallback", %"class.base::OnceCallback"* %2, i64 0, i32 0, i32 0, i32 0
  %116 = bitcast %"class.base::OnceCallback"* %2 to i64*
  %117 = load i64, i64* %116, align 8
  %118 = bitcast %"class.base::OnceCallback"* %5 to i64*
  store i64 %117, i64* %118, align 8
  store %"class.base::internal::BindStateBase"* null, %"class.base::internal::BindStateBase"** %115, align 8
  %119 = getelementptr inbounds %"class.base::OnceCallback", %"class.base::OnceCallback"* %5, i64 0, i32 0
  %120 = inttoptr i64 %117 to %"class.base::internal::BindStateBase"*
  %121 = getelementptr inbounds %"class.base::internal::BindStateBase", %"class.base::internal::BindStateBase"* %120, i64 0, i32 1
  %122 = bitcast void ()** %121 to void (%"class.base::internal::BindStateBase"*, i32)**
  %123 = load void (%"class.base::internal::BindStateBase"*, i32)*, void (%"class.base::internal::BindStateBase"*, i32)** %122, align 8
  tail call void %123(%"class.base::internal::BindStateBase"* %120, i32 %3) #6
  call void @_ZN4base8internal12CallbackBaseD2Ev(%"class.base::internal::CallbackBase"* nonnull %119) #6
  call void @llvm.lifetime.end.p0i8(i64 8, i8* nonnull %114) #6
  call void @_ZN7storage25FileSystemOperationRunner15FinishOperationEm(%"class.storage::FileSystemOperationRunner"* %0, i64 %1)
  br label %124

124:                                              ; preds = %113, %85
  br i1 %11, label %144, label %125

125:                                              ; preds = %124
  %126 = getelementptr inbounds %"class.storage::FileSystemContext", %"class.storage::FileSystemContext"* %10, i64 0, i32 0, i32 0, i32 0, i32 0, i32 0, i32 0, i32 0, i32 0, i32 0
  %127 = atomicrmw sub i32* %126, i32 1 acq_rel
  %128 = icmp eq i32 %127, 1
  br i1 %128, label %129, label %144

129:                                              ; preds = %125
  %130 = getelementptr inbounds %"class.storage::FileSystemContext", %"class.storage::FileSystemContext"* %10, i64 0, i32 0, i32 1, i32 0
  %131 = load %"class.base::SequencedTaskRunner"*, %"class.base::SequencedTaskRunner"** %130, align 8
  %132 = bitcast %"class.base::SequencedTaskRunner"* %131 to i1 (%"class.base::SequencedTaskRunner"*)***
  %133 = load i1 (%"class.base::SequencedTaskRunner"*)**, i1 (%"class.base::SequencedTaskRunner"*)*** %132, align 8
  %134 = getelementptr inbounds i1 (%"class.base::SequencedTaskRunner"*)*, i1 (%"class.base::SequencedTaskRunner"*)** %133, i64 5
  %135 = load i1 (%"class.base::SequencedTaskRunner"*)*, i1 (%"class.base::SequencedTaskRunner"*)** %134, align 8
  %136 = call zeroext i1 %135(%"class.base::SequencedTaskRunner"* %131) #6
  br i1 %136, label %137, label %139

137:                                              ; preds = %129
  call void @_ZN7storage17FileSystemContextD1Ev(%"class.storage::FileSystemContext"* nonnull %10) #6
  %138 = bitcast %"class.storage::FileSystemContext"* %10 to i8*
  call void @_ZdlPv(i8* %138) #7
  br label %144

139:                                              ; preds = %129
  %140 = load %"class.base::SequencedTaskRunner"*, %"class.base::SequencedTaskRunner"** %130, align 8
  %141 = bitcast %"class.base::Location"* %6 to i8*
  call void @llvm.lifetime.start.p0i8(i64 32, i8* nonnull %141) #6
  call void @_ZN4base8Location7CurrentEPKcS2_i(%"class.base::Location"* nonnull sret %6, i8* getelementptr inbounds ([19 x i8], [19 x i8]* @.str.11, i64 0, i64 0), i8* getelementptr inbounds ([51 x i8], [51 x i8]* @.str.12, i64 0, i64 0), i32 72) #6
  %142 = bitcast %"class.storage::FileSystemContext"* %10 to i8*
  %143 = call zeroext i1 @_ZN4base19SequencedTaskRunner27DeleteOrReleaseSoonInternalERKNS_8LocationEPFvPKvES5_(%"class.base::SequencedTaskRunner"* %140, %"class.base::Location"* nonnull dereferenceable(32) %6, void (i8*)* nonnull @_ZN4base12DeleteHelperIN7storage17FileSystemContextEE8DoDeleteEPKv, i8* nonnull %142) #6
  call void @llvm.lifetime.end.p0i8(i64 32, i8* nonnull %141) #6
  br label %144

144:                                              ; preds = %124, %125, %137, %139
  ret void
}

; Function Attrs: nounwind ssp uwtable
define hidden void @_ZN7storage25FileSystemOperationRunner15PrepareForWriteEmRKNS_13FileSystemURLE(%"class.storage::FileSystemOperationRunner"*, i64, %"class.storage::FileSystemURL"* dereferenceable(208)) local_unnamed_addr #0 align 2 {
  %4 = getelementptr inbounds %"class.storage::FileSystemOperationRunner", %"class.storage::FileSystemOperationRunner"* %0, i64 0, i32 1
  %5 = load %"class.storage::FileSystemContext"*, %"class.storage::FileSystemContext"** %4, align 8
  %6 = getelementptr inbounds %"class.storage::FileSystemURL", %"class.storage::FileSystemURL"* %2, i64 0, i32 8
  %7 = load i32, i32* %6, align 8
  %8 = tail call %"class.storage::TaskRunnerBoundObserverList"* @_ZNK7storage17FileSystemContext18GetUpdateObserversENS_14FileSystemTypeE(%"class.storage::FileSystemContext"* %5, i32 %7) #6
  %9 = icmp eq %"class.storage::TaskRunnerBoundObserverList"* %8, null
  br i1 %9, label %14, label %10

10:                                               ; preds = %3
  %11 = load %"class.storage::FileSystemContext"*, %"class.storage::FileSystemContext"** %4, align 8
  %12 = load i32, i32* %6, align 8
  %13 = tail call %"class.storage::TaskRunnerBoundObserverList"* @_ZNK7storage17FileSystemContext18GetUpdateObserversENS_14FileSystemTypeE(%"class.storage::FileSystemContext"* %11, i32 %12) #6
  tail call void @_ZNK7storage27TaskRunnerBoundObserverListINS_18FileUpdateObserverEE6NotifyIMS1_FvRKNS_13FileSystemURLEEJS6_EEEvT_DpOT0_(%"class.storage::TaskRunnerBoundObserverList"* %13, i64 17, i64 0, %"class.storage::FileSystemURL"* dereferenceable(208) %2)
  br label %14

14:                                               ; preds = %3, %10
  %15 = getelementptr inbounds %"class.storage::FileSystemOperationRunner", %"class.storage::FileSystemOperationRunner"* %0, i64 0, i32 5
  %16 = getelementptr inbounds %"class.storage::FileSystemOperationRunner", %"class.storage::FileSystemOperationRunner"* %0, i64 0, i32 5, i32 0, i32 1, i32 0, i32 0
  %17 = bitcast %"class.std::__1::__tree_end_node"* %16 to %"class.std::__1::__tree_node.371"**
  %18 = load %"class.std::__1::__tree_node.371"*, %"class.std::__1::__tree_node.371"** %17, align 8
  %19 = icmp eq %"class.std::__1::__tree_node.371"* %18, null
  br i1 %19, label %48, label %20

20:                                               ; preds = %14
  %21 = getelementptr inbounds %"class.storage::FileSystemOperationRunner", %"class.storage::FileSystemOperationRunner"* %0, i64 0, i32 5, i32 0, i32 1, i32 0, i32 0, i32 0
  br label %22

22:                                               ; preds = %44, %20
  %23 = phi %"class.std::__1::__tree_node.371"* [ %47, %44 ], [ %18, %20 ]
  %24 = phi %"class.std::__1::__tree_node_base"** [ %46, %44 ], [ %21, %20 ]
  %25 = getelementptr inbounds %"class.std::__1::__tree_node.371", %"class.std::__1::__tree_node.371"* %23, i64 0, i32 1, i32 0, i32 0
  %26 = load i64, i64* %25, align 8
  %27 = icmp ugt i64 %26, %1
  br i1 %27, label %28, label %34

28:                                               ; preds = %22
  %29 = getelementptr inbounds %"class.std::__1::__tree_node.371", %"class.std::__1::__tree_node.371"* %23, i64 0, i32 0, i32 0, i32 0
  %30 = load %"class.std::__1::__tree_node_base"*, %"class.std::__1::__tree_node_base"** %29, align 8
  %31 = icmp eq %"class.std::__1::__tree_node_base"* %30, null
  br i1 %31, label %32, label %44

32:                                               ; preds = %28
  %33 = getelementptr inbounds %"class.std::__1::__tree_node.371", %"class.std::__1::__tree_node.371"* %23, i64 0, i32 0, i32 0
  br label %50

34:                                               ; preds = %22
  %35 = icmp ult i64 %26, %1
  br i1 %35, label %36, label %42

36:                                               ; preds = %34
  %37 = getelementptr inbounds %"class.std::__1::__tree_node.371", %"class.std::__1::__tree_node.371"* %23, i64 0, i32 0, i32 1
  %38 = load %"class.std::__1::__tree_node_base"*, %"class.std::__1::__tree_node_base"** %37, align 8
  %39 = icmp eq %"class.std::__1::__tree_node_base"* %38, null
  br i1 %39, label %40, label %44

40:                                               ; preds = %36
  %41 = getelementptr inbounds %"class.std::__1::__tree_node.371", %"class.std::__1::__tree_node.371"* %23, i64 0, i32 0, i32 0
  br label %50

42:                                               ; preds = %34
  %43 = getelementptr inbounds %"class.std::__1::__tree_node.371", %"class.std::__1::__tree_node.371"* %23, i64 0, i32 0, i32 0
  br label %50

44:                                               ; preds = %36, %28
  %45 = phi %"class.std::__1::__tree_node_base"* [ %30, %28 ], [ %38, %36 ]
  %46 = phi %"class.std::__1::__tree_node_base"** [ %29, %28 ], [ %37, %36 ]
  %47 = bitcast %"class.std::__1::__tree_node_base"* %45 to %"class.std::__1::__tree_node.371"*
  br label %22

48:                                               ; preds = %14
  %49 = getelementptr inbounds %"class.std::__1::__tree_end_node", %"class.std::__1::__tree_end_node"* %16, i64 0, i32 0
  br label %50

50:                                               ; preds = %48, %42, %40, %32
  %51 = phi %"class.std::__1::__tree_end_node"* [ %16, %48 ], [ %33, %32 ], [ %41, %40 ], [ %43, %42 ]
  %52 = phi %"class.std::__1::__tree_node_base"** [ %49, %48 ], [ %29, %32 ], [ %37, %40 ], [ %24, %42 ]
  %53 = bitcast %"class.std::__1::__tree_node_base"** %52 to %"class.std::__1::__tree_node.371"**
  %54 = load %"class.std::__1::__tree_node.371"*, %"class.std::__1::__tree_node.371"** %53, align 8
  %55 = icmp eq %"class.std::__1::__tree_node.371"* %54, null
  br i1 %55, label %56, label %84

56:                                               ; preds = %50
  %57 = tail call i8* @_Znwm(i64 64) #7, !noalias !22
  %58 = getelementptr inbounds i8, i8* %57, i64 32
  %59 = bitcast i8* %58 to i64*
  store i64 %1, i64* %59, align 8, !noalias !22
  %60 = getelementptr inbounds i8, i8* %57, i64 48
  %61 = getelementptr inbounds i8, i8* %57, i64 40
  tail call void @llvm.memset.p0i8.i64(i8* align 8 %60, i8 0, i64 16, i1 false) #6, !noalias !22
  %62 = bitcast i8* %61 to i8**
  store i8* %60, i8** %62, align 8, !noalias !22
  %63 = bitcast i8* %57 to %"class.std::__1::__tree_node.371"*
  %64 = bitcast i8* %57 to %"class.std::__1::__tree_node_base"*
  %65 = getelementptr inbounds i8, i8* %57, i64 16
  %66 = bitcast i8* %65 to %"class.std::__1::__tree_end_node"**
  tail call void @llvm.memset.p0i8.i64(i8* nonnull align 8 %57, i8 0, i64 16, i1 false) #6
  store %"class.std::__1::__tree_end_node"* %51, %"class.std::__1::__tree_end_node"** %66, align 8
  %67 = bitcast %"class.std::__1::__tree_node_base"** %52 to i8**
  store i8* %57, i8** %67, align 8
  %68 = getelementptr inbounds %"class.std::__1::map.163", %"class.std::__1::map.163"* %15, i64 0, i32 0, i32 0
  %69 = load %"class.std::__1::__tree_end_node"*, %"class.std::__1::__tree_end_node"** %68, align 8
  %70 = getelementptr inbounds %"class.std::__1::__tree_end_node", %"class.std::__1::__tree_end_node"* %69, i64 0, i32 0
  %71 = load %"class.std::__1::__tree_node_base"*, %"class.std::__1::__tree_node_base"** %70, align 8
  %72 = icmp eq %"class.std::__1::__tree_node_base"* %71, null
  br i1 %72, label %77, label %73

73:                                               ; preds = %56
  %74 = ptrtoint %"class.std::__1::__tree_node_base"* %71 to i64
  %75 = bitcast %"class.std::__1::map.163"* %15 to i64*
  store i64 %74, i64* %75, align 8
  %76 = load %"class.std::__1::__tree_node_base"*, %"class.std::__1::__tree_node_base"** %52, align 8
  br label %77

77:                                               ; preds = %73, %56
  %78 = phi %"class.std::__1::__tree_node_base"* [ %64, %56 ], [ %76, %73 ]
  %79 = getelementptr inbounds %"class.storage::FileSystemOperationRunner", %"class.storage::FileSystemOperationRunner"* %0, i64 0, i32 5, i32 0, i32 1, i32 0, i32 0, i32 0
  %80 = load %"class.std::__1::__tree_node_base"*, %"class.std::__1::__tree_node_base"** %79, align 8
  tail call void @_ZNSt3__127__tree_balance_after_insertIPNS_16__tree_node_baseIPvEEEEvT_S5_(%"class.std::__1::__tree_node_base"* %80, %"class.std::__1::__tree_node_base"* %78) #6
  %81 = getelementptr inbounds %"class.storage::FileSystemOperationRunner", %"class.storage::FileSystemOperationRunner"* %0, i64 0, i32 5, i32 0, i32 2, i32 0, i32 0
  %82 = load i64, i64* %81, align 8
  %83 = add i64 %82, 1
  store i64 %83, i64* %81, align 8
  br label %84

84:                                               ; preds = %50, %77
  %85 = phi %"class.std::__1::__tree_node.371"* [ %63, %77 ], [ %54, %50 ]
  %86 = getelementptr inbounds %"class.std::__1::__tree_node.371", %"class.std::__1::__tree_node.371"* %85, i64 0, i32 1, i32 0, i32 1, i32 0
  %87 = tail call { %"class.std::__1::__tree_end_node"*, i8 } @_ZNSt3__16__treeIN7storage13FileSystemURLENS2_10ComparatorENS_9allocatorIS2_EEE25__emplace_unique_key_argsIS2_JRKS2_EEENS_4pairINS_15__tree_iteratorIS2_PNS_11__tree_nodeIS2_PvEElEEbEERKT_DpOT0_(%"class.std::__1::__tree.340"* %86, %"class.storage::FileSystemURL"* dereferenceable(208) %2, %"class.storage::FileSystemURL"* dereferenceable(208) %2) #6
  ret void
}

; Function Attrs: nounwind ssp uwtable
define hidden i64 @_ZN7storage25FileSystemOperationRunner15CreateDirectoryERKNS_13FileSystemURLEbbN4base12OnceCallbackIFvNS4_4File5ErrorEEEE(%"class.storage::FileSystemOperationRunner"*, %"class.storage::FileSystemURL"* dereferenceable(208), i1 zeroext, i1 zeroext, %"class.base::OnceCallback"* nocapture) local_unnamed_addr #0 align 2 {
  %6 = alloca i32, align 4
  %7 = alloca %"class.base::OnceCallback", align 8
  %8 = alloca %"class.base::OnceCallback", align 8
  %9 = bitcast i32* %6 to i8*
  call void @llvm.lifetime.start.p0i8(i64 4, i8* nonnull %9) #6
  store i32 0, i32* %6, align 4
  %10 = getelementptr inbounds %"class.storage::FileSystemOperationRunner", %"class.storage::FileSystemOperationRunner"* %0, i64 0, i32 1
  %11 = load %"class.storage::FileSystemContext"*, %"class.storage::FileSystemContext"** %10, align 8
  %12 = call %"class.storage::FileSystemOperation"* @_ZN7storage17FileSystemContext25CreateFileSystemOperationERKNS_13FileSystemURLEPN4base4File5ErrorE(%"class.storage::FileSystemContext"* %11, %"class.storage::FileSystemURL"* dereferenceable(208) %1, i32* nonnull %6) #6
  %13 = call i64 @_ZN7storage25FileSystemOperationRunner14BeginOperationENSt3__110unique_ptrINS_19FileSystemOperationENS1_14default_deleteIS3_EEEE(%"class.storage::FileSystemOperationRunner"* %0, %"class.storage::FileSystemOperation"* %12)
  %14 = getelementptr inbounds %"class.storage::FileSystemOperationRunner", %"class.storage::FileSystemOperationRunner"* %0, i64 0, i32 4
  %15 = load i8, i8* %14, align 1, !range !5
  store i8 1, i8* %14, align 1
  %16 = icmp eq %"class.storage::FileSystemOperation"* %12, null
  br i1 %16, label %17, label %23

17:                                               ; preds = %5
  %18 = getelementptr inbounds %"class.base::OnceCallback", %"class.base::OnceCallback"* %4, i64 0, i32 0, i32 0, i32 0
  %19 = bitcast %"class.base::OnceCallback"* %4 to i64*
  %20 = load i64, i64* %19, align 8
  %21 = bitcast %"class.base::OnceCallback"* %7 to i64*
  store i64 %20, i64* %21, align 8
  store %"class.base::internal::BindStateBase"* null, %"class.base::internal::BindStateBase"** %18, align 8
  %22 = load i32, i32* %6, align 4
  call void @_ZN7storage25FileSystemOperationRunner9DidFinishEmN4base12OnceCallbackIFvNS1_4File5ErrorEEEES4_(%"class.storage::FileSystemOperationRunner"* %0, i64 %13, %"class.base::OnceCallback"* nonnull %7, i32 %22)
  br label %47

23:                                               ; preds = %5
  call void @_ZN7storage25FileSystemOperationRunner15PrepareForWriteEmRKNS_13FileSystemURLE(%"class.storage::FileSystemOperationRunner"* %0, i64 %13, %"class.storage::FileSystemURL"* dereferenceable(208) %1)
  %24 = call i8* @_Znwm(i64 80) #7, !noalias !25
  %25 = bitcast i8* %24 to %"class.base::internal::BindStateBase"*
  call void @_ZN4base8internal13BindStateBaseC2EPFvvEPFvPKS1_EPFbS5_NS1_21CancellationQueryModeEE(%"class.base::internal::BindStateBase"* nonnull %25, void ()* bitcast (void (%"class.base::internal::BindStateBase"*, i32)* @_ZN4base8internal7InvokerINS0_9BindStateIMN7storage25FileSystemOperationRunnerEFvmNS_12OnceCallbackIFvNS_4File5ErrorEEEES7_EJNS_7WeakPtrIS4_EEmS9_EEES8_E7RunOnceEPNS0_13BindStateBaseES7_ to void ()*), void (%"class.base::internal::BindStateBase"*)* nonnull @_ZN4base8internal9BindStateIMN7storage25FileSystemOperationRunnerEFvmNS_12OnceCallbackIFvNS_4File5ErrorEEEES6_EJNS_7WeakPtrIS3_EEmS8_EE7DestroyEPKNS0_13BindStateBaseE, i1 (%"class.base::internal::BindStateBase"*, i32)* nonnull @_ZN4base8internal23QueryCancellationTraitsINS0_9BindStateIMN7storage25FileSystemOperationRunnerEFvmNS_12OnceCallbackIFvNS_4File5ErrorEEEES7_EJNS_7WeakPtrIS4_EEmS9_EEEEEbPKNS0_13BindStateBaseENSF_21CancellationQueryModeE) #6, !noalias !25
  %26 = getelementptr inbounds i8, i8* %24, i64 32
  %27 = bitcast i8* %26 to <2 x i64>*
  store <2 x i64> <i64 ptrtoint (void (%"class.storage::FileSystemOperationRunner"*, i64, %"class.base::OnceCallback"*, i32)* @_ZN7storage25FileSystemOperationRunner9DidFinishEmN4base12OnceCallbackIFvNS1_4File5ErrorEEEES4_ to i64), i64 0>, <2 x i64>* %27, align 8, !noalias !25
  %28 = getelementptr inbounds i8, i8* %24, i64 48
  %29 = bitcast i8* %28 to %"class.base::internal::WeakReference"*
  %30 = getelementptr inbounds %"class.storage::FileSystemOperationRunner", %"class.storage::FileSystemOperationRunner"* %0, i64 0, i32 8, i32 0, i32 0
  call void @_ZN4base8internal13WeakReferenceC1ERKS1_(%"class.base::internal::WeakReference"* %29, %"class.base::internal::WeakReference"* dereferenceable(8) %30) #6, !noalias !25
  %31 = getelementptr inbounds i8, i8* %24, i64 56
  %32 = bitcast i8* %31 to i64*
  %33 = getelementptr inbounds %"class.storage::FileSystemOperationRunner", %"class.storage::FileSystemOperationRunner"* %0, i64 0, i32 8, i32 0, i32 1
  %34 = load i64, i64* %33, align 8, !noalias !25
  store i64 %34, i64* %32, align 8, !noalias !25
  %35 = getelementptr inbounds i8, i8* %24, i64 64
  %36 = bitcast i8* %35 to i64*
  store i64 %13, i64* %36, align 8, !noalias !25
  %37 = getelementptr inbounds i8, i8* %24, i64 72
  %38 = getelementptr inbounds %"class.base::OnceCallback", %"class.base::OnceCallback"* %4, i64 0, i32 0, i32 0, i32 0
  %39 = bitcast %"class.base::OnceCallback"* %4 to i64*
  %40 = load i64, i64* %39, align 8, !noalias !25
  %41 = bitcast i8* %37 to i64*
  store i64 %40, i64* %41, align 8, !noalias !25
  store %"class.base::internal::BindStateBase"* null, %"class.base::internal::BindStateBase"** %38, align 8, !noalias !25
  %42 = bitcast %"class.base::OnceCallback"* %8 to i8**
  store i8* %24, i8** %42, align 8, !alias.scope !25
  %43 = bitcast %"class.storage::FileSystemOperation"* %12 to void (%"class.storage::FileSystemOperation"*, %"class.storage::FileSystemURL"*, i1, i1, %"class.base::OnceCallback"*)***
  %44 = load void (%"class.storage::FileSystemOperation"*, %"class.storage::FileSystemURL"*, i1, i1, %"class.base::OnceCallback"*)**, void (%"class.storage::FileSystemOperation"*, %"class.storage::FileSystemURL"*, i1, i1, %"class.base::OnceCallback"*)*** %43, align 8
  %45 = getelementptr inbounds void (%"class.storage::FileSystemOperation"*, %"class.storage::FileSystemURL"*, i1, i1, %"class.base::OnceCallback"*)*, void (%"class.storage::FileSystemOperation"*, %"class.storage::FileSystemURL"*, i1, i1, %"class.base::OnceCallback"*)** %44, i64 3
  %46 = load void (%"class.storage::FileSystemOperation"*, %"class.storage::FileSystemURL"*, i1, i1, %"class.base::OnceCallback"*)*, void (%"class.storage::FileSystemOperation"*, %"class.storage::FileSystemURL"*, i1, i1, %"class.base::OnceCallback"*)** %45, align 8
  call void %46(%"class.storage::FileSystemOperation"* nonnull %12, %"class.storage::FileSystemURL"* dereferenceable(208) %1, i1 zeroext %2, i1 zeroext %3, %"class.base::OnceCallback"* nonnull %8) #6
  br label %47

47:                                               ; preds = %23, %17
  %48 = phi %"class.base::OnceCallback"* [ %8, %23 ], [ %7, %17 ]
  %49 = getelementptr inbounds %"class.base::OnceCallback", %"class.base::OnceCallback"* %48, i64 0, i32 0
  call void @_ZN4base8internal12CallbackBaseD2Ev(%"class.base::internal::CallbackBase"* nonnull %49) #6
  %50 = icmp eq i8* %14, null
  br i1 %50, label %52, label %51

51:                                               ; preds = %47
  store i8 %15, i8* %14, align 1
  br label %52

52:                                               ; preds = %51, %47
  call void @llvm.lifetime.end.p0i8(i64 4, i8* nonnull %9) #6
  ret i64 %13
}

; Function Attrs: nounwind ssp uwtable
define hidden i64 @_ZN7storage25FileSystemOperationRunner4CopyERKNS_13FileSystemURLES3_NS_19FileSystemOperation16CopyOrMoveOptionENS4_13ErrorBehaviorERKN4base17RepeatingCallbackIFvNS4_22CopyOrMoveProgressTypeES3_S3_lEEENS7_12OnceCallbackIFvNS7_4File5ErrorEEEE(%"class.storage::FileSystemOperationRunner"*, %"class.storage::FileSystemURL"* dereferenceable(208), %"class.storage::FileSystemURL"* dereferenceable(208), i32, i32, %"class.base::RepeatingCallback.201"* dereferenceable(8), %"class.base::OnceCallback"* nocapture) local_unnamed_addr #0 align 2 {
  %8 = alloca i32, align 4
  %9 = alloca %"class.base::OnceCallback", align 8
  %10 = alloca %"class.base::RepeatingCallback.201", align 8
  %11 = alloca %"class.base::OnceCallback", align 8
  %12 = bitcast i32* %8 to i8*
  call void @llvm.lifetime.start.p0i8(i64 4, i8* nonnull %12) #6
  store i32 0, i32* %8, align 4
  %13 = getelementptr inbounds %"class.storage::FileSystemOperationRunner", %"class.storage::FileSystemOperationRunner"* %0, i64 0, i32 1
  %14 = load %"class.storage::FileSystemContext"*, %"class.storage::FileSystemContext"** %13, align 8
  %15 = call %"class.storage::FileSystemOperation"* @_ZN7storage17FileSystemContext25CreateFileSystemOperationERKNS_13FileSystemURLEPN4base4File5ErrorE(%"class.storage::FileSystemContext"* %14, %"class.storage::FileSystemURL"* dereferenceable(208) %2, i32* nonnull %8) #6
  %16 = call i64 @_ZN7storage25FileSystemOperationRunner14BeginOperationENSt3__110unique_ptrINS_19FileSystemOperationENS1_14default_deleteIS3_EEEE(%"class.storage::FileSystemOperationRunner"* %0, %"class.storage::FileSystemOperation"* %15)
  %17 = getelementptr inbounds %"class.storage::FileSystemOperationRunner", %"class.storage::FileSystemOperationRunner"* %0, i64 0, i32 4
  %18 = load i8, i8* %17, align 1, !range !5
  store i8 1, i8* %17, align 1
  %19 = icmp eq %"class.storage::FileSystemOperation"* %15, null
  br i1 %19, label %20, label %27

20:                                               ; preds = %7
  %21 = getelementptr inbounds %"class.base::OnceCallback", %"class.base::OnceCallback"* %6, i64 0, i32 0, i32 0, i32 0
  %22 = bitcast %"class.base::OnceCallback"* %6 to i64*
  %23 = load i64, i64* %22, align 8
  %24 = bitcast %"class.base::OnceCallback"* %9 to i64*
  store i64 %23, i64* %24, align 8
  store %"class.base::internal::BindStateBase"* null, %"class.base::internal::BindStateBase"** %21, align 8
  %25 = load i32, i32* %8, align 4
  call void @_ZN7storage25FileSystemOperationRunner9DidFinishEmN4base12OnceCallbackIFvNS1_4File5ErrorEEEES4_(%"class.storage::FileSystemOperationRunner"* %0, i64 %16, %"class.base::OnceCallback"* nonnull %9, i32 %25)
  %26 = getelementptr inbounds %"class.base::OnceCallback", %"class.base::OnceCallback"* %9, i64 0, i32 0
  call void @_ZN4base8internal12CallbackBaseD2Ev(%"class.base::internal::CallbackBase"* nonnull %26) #6
  br label %88

27:                                               ; preds = %7
  call void @_ZN7storage25FileSystemOperationRunner15PrepareForWriteEmRKNS_13FileSystemURLE(%"class.storage::FileSystemOperationRunner"* %0, i64 %16, %"class.storage::FileSystemURL"* dereferenceable(208) %2)
  %28 = load %"class.storage::FileSystemContext"*, %"class.storage::FileSystemContext"** %13, align 8
  %29 = getelementptr inbounds %"class.storage::FileSystemURL", %"class.storage::FileSystemURL"* %1, i64 0, i32 8
  %30 = load i32, i32* %29, align 8
  %31 = call %"class.storage::TaskRunnerBoundObserverList.350"* @_ZNK7storage17FileSystemContext18GetAccessObserversENS_14FileSystemTypeE(%"class.storage::FileSystemContext"* %28, i32 %30) #6
  %32 = icmp eq %"class.storage::TaskRunnerBoundObserverList.350"* %31, null
  br i1 %32, label %37, label %33

33:                                               ; preds = %27
  %34 = load %"class.storage::FileSystemContext"*, %"class.storage::FileSystemContext"** %13, align 8
  %35 = load i32, i32* %29, align 8
  %36 = call %"class.storage::TaskRunnerBoundObserverList.350"* @_ZNK7storage17FileSystemContext18GetAccessObserversENS_14FileSystemTypeE(%"class.storage::FileSystemContext"* %34, i32 %35) #6
  call void @_ZNK7storage27TaskRunnerBoundObserverListINS_18FileAccessObserverEE6NotifyIMS1_FvRKNS_13FileSystemURLEEJS6_EEEvT_DpOT0_(%"class.storage::TaskRunnerBoundObserverList.350"* %36, i64 17, i64 0, %"class.storage::FileSystemURL"* dereferenceable(208) %1) #6
  br label %37

37:                                               ; preds = %27, %33
  %38 = bitcast %"class.base::RepeatingCallback.201"* %10 to i8*
  call void @llvm.lifetime.start.p0i8(i64 8, i8* nonnull %38) #6
  %39 = getelementptr inbounds %"class.base::RepeatingCallback.201", %"class.base::RepeatingCallback.201"* %5, i64 0, i32 0, i32 0, i32 0, i32 0
  %40 = load %"class.base::internal::BindStateBase"*, %"class.base::internal::BindStateBase"** %39, align 8
  %41 = icmp eq %"class.base::internal::BindStateBase"* %40, null
  br i1 %41, label %42, label %44

42:                                               ; preds = %37
  %43 = getelementptr inbounds %"class.base::RepeatingCallback.201", %"class.base::RepeatingCallback.201"* %10, i64 0, i32 0, i32 0, i32 0, i32 0
  store %"class.base::internal::BindStateBase"* null, %"class.base::internal::BindStateBase"** %43, align 8
  br label %62

44:                                               ; preds = %37
  %45 = call i8* @_Znwm(i64 80) #7, !noalias !30
  %46 = bitcast i8* %45 to %"class.base::internal::BindStateBase"*
  call void @_ZN4base8internal13BindStateBaseC2EPFvvEPFvPKS1_EPFbS5_NS1_21CancellationQueryModeEE(%"class.base::internal::BindStateBase"* nonnull %46, void ()* bitcast (void (%"class.base::internal::BindStateBase"*, i32, %"class.storage::FileSystemURL"*, %"class.storage::FileSystemURL"*, i64)* @_ZN4base8internal7InvokerINS0_9BindStateIMN7storage25FileSystemOperationRunnerEFvmRKNS_17RepeatingCallbackIFvNS3_19FileSystemOperation22CopyOrMoveProgressTypeERKNS3_13FileSystemURLESA_lEEES7_SA_SA_lEJNS_7WeakPtrIS4_EEmSC_EEESB_E3RunEPNS0_13BindStateBaseES7_SA_SA_l to void ()*), void (%"class.base::internal::BindStateBase"*)* nonnull @_ZN4base8internal9BindStateIMN7storage25FileSystemOperationRunnerEFvmRKNS_17RepeatingCallbackIFvNS2_19FileSystemOperation22CopyOrMoveProgressTypeERKNS2_13FileSystemURLES9_lEEES6_S9_S9_lEJNS_7WeakPtrIS3_EEmSB_EE7DestroyEPKNS0_13BindStateBaseE, i1 (%"class.base::internal::BindStateBase"*, i32)* nonnull @_ZN4base8internal23QueryCancellationTraitsINS0_9BindStateIMN7storage25FileSystemOperationRunnerEFvmRKNS_17RepeatingCallbackIFvNS3_19FileSystemOperation22CopyOrMoveProgressTypeERKNS3_13FileSystemURLESA_lEEES7_SA_SA_lEJNS_7WeakPtrIS4_EEmSC_EEEEEbPKNS0_13BindStateBaseENSK_21CancellationQueryModeE) #6, !noalias !30
  %47 = getelementptr inbounds i8, i8* %45, i64 32
  %48 = bitcast i8* %47 to <2 x i64>*
  store <2 x i64> <i64 ptrtoint (void (%"class.storage::FileSystemOperationRunner"*, i64, %"class.base::RepeatingCallback.201"*, i32, %"class.storage::FileSystemURL"*, %"class.storage::FileSystemURL"*, i64)* @_ZN7storage25FileSystemOperationRunner14OnCopyProgressEmRKN4base17RepeatingCallbackIFvNS_19FileSystemOperation22CopyOrMoveProgressTypeERKNS_13FileSystemURLES7_lEEES4_S7_S7_l to i64), i64 0>, <2 x i64>* %48, align 8, !noalias !30
  %49 = getelementptr inbounds i8, i8* %45, i64 48
  %50 = bitcast i8* %49 to %"class.base::internal::WeakReference"*
  %51 = getelementptr inbounds %"class.storage::FileSystemOperationRunner", %"class.storage::FileSystemOperationRunner"* %0, i64 0, i32 8, i32 0, i32 0
  call void @_ZN4base8internal13WeakReferenceC1ERKS1_(%"class.base::internal::WeakReference"* %50, %"class.base::internal::WeakReference"* dereferenceable(8) %51) #6, !noalias !30
  %52 = getelementptr inbounds i8, i8* %45, i64 56
  %53 = bitcast i8* %52 to i64*
  %54 = getelementptr inbounds %"class.storage::FileSystemOperationRunner", %"class.storage::FileSystemOperationRunner"* %0, i64 0, i32 8, i32 0, i32 1
  %55 = load i64, i64* %54, align 8, !noalias !30
  store i64 %55, i64* %53, align 8, !noalias !30
  %56 = getelementptr inbounds i8, i8* %45, i64 64
  %57 = bitcast i8* %56 to i64*
  store i64 %16, i64* %57, align 8, !noalias !30
  %58 = getelementptr inbounds i8, i8* %45, i64 72
  %59 = bitcast i8* %58 to %"class.base::internal::CallbackBaseCopyable"*
  %60 = getelementptr inbounds %"class.base::RepeatingCallback.201", %"class.base::RepeatingCallback.201"* %5, i64 0, i32 0
  call void @_ZN4base8internal20CallbackBaseCopyableC2ERKS1_(%"class.base::internal::CallbackBaseCopyable"* %59, %"class.base::internal::CallbackBaseCopyable"* dereferenceable(8) %60) #6, !noalias !30
  %61 = bitcast %"class.base::RepeatingCallback.201"* %10 to i8**
  store i8* %45, i8** %61, align 8, !alias.scope !30
  br label %62

62:                                               ; preds = %44, %42
  %63 = call i8* @_Znwm(i64 80) #7, !noalias !35
  %64 = bitcast i8* %63 to %"class.base::internal::BindStateBase"*
  call void @_ZN4base8internal13BindStateBaseC2EPFvvEPFvPKS1_EPFbS5_NS1_21CancellationQueryModeEE(%"class.base::internal::BindStateBase"* nonnull %64, void ()* bitcast (void (%"class.base::internal::BindStateBase"*, i32)* @_ZN4base8internal7InvokerINS0_9BindStateIMN7storage25FileSystemOperationRunnerEFvmNS_12OnceCallbackIFvNS_4File5ErrorEEEES7_EJNS_7WeakPtrIS4_EEmS9_EEES8_E7RunOnceEPNS0_13BindStateBaseES7_ to void ()*), void (%"class.base::internal::BindStateBase"*)* nonnull @_ZN4base8internal9BindStateIMN7storage25FileSystemOperationRunnerEFvmNS_12OnceCallbackIFvNS_4File5ErrorEEEES6_EJNS_7WeakPtrIS3_EEmS8_EE7DestroyEPKNS0_13BindStateBaseE, i1 (%"class.base::internal::BindStateBase"*, i32)* nonnull @_ZN4base8internal23QueryCancellationTraitsINS0_9BindStateIMN7storage25FileSystemOperationRunnerEFvmNS_12OnceCallbackIFvNS_4File5ErrorEEEES7_EJNS_7WeakPtrIS4_EEmS9_EEEEEbPKNS0_13BindStateBaseENSF_21CancellationQueryModeE) #6, !noalias !35
  %65 = getelementptr inbounds i8, i8* %63, i64 32
  %66 = bitcast i8* %65 to <2 x i64>*
  store <2 x i64> <i64 ptrtoint (void (%"class.storage::FileSystemOperationRunner"*, i64, %"class.base::OnceCallback"*, i32)* @_ZN7storage25FileSystemOperationRunner9DidFinishEmN4base12OnceCallbackIFvNS1_4File5ErrorEEEES4_ to i64), i64 0>, <2 x i64>* %66, align 8, !noalias !35
  %67 = getelementptr inbounds i8, i8* %63, i64 48
  %68 = bitcast i8* %67 to %"class.base::internal::WeakReference"*
  %69 = getelementptr inbounds %"class.storage::FileSystemOperationRunner", %"class.storage::FileSystemOperationRunner"* %0, i64 0, i32 8, i32 0, i32 0
  call void @_ZN4base8internal13WeakReferenceC1ERKS1_(%"class.base::internal::WeakReference"* %68, %"class.base::internal::WeakReference"* dereferenceable(8) %69) #6, !noalias !35
  %70 = getelementptr inbounds i8, i8* %63, i64 56
  %71 = bitcast i8* %70 to i64*
  %72 = getelementptr inbounds %"class.storage::FileSystemOperationRunner", %"class.storage::FileSystemOperationRunner"* %0, i64 0, i32 8, i32 0, i32 1
  %73 = load i64, i64* %72, align 8, !noalias !35
  store i64 %73, i64* %71, align 8, !noalias !35
  %74 = getelementptr inbounds i8, i8* %63, i64 64
  %75 = bitcast i8* %74 to i64*
  store i64 %16, i64* %75, align 8, !noalias !35
  %76 = getelementptr inbounds i8, i8* %63, i64 72
  %77 = getelementptr inbounds %"class.base::OnceCallback", %"class.base::OnceCallback"* %6, i64 0, i32 0, i32 0, i32 0
  %78 = bitcast %"class.base::OnceCallback"* %6 to i64*
  %79 = load i64, i64* %78, align 8, !noalias !35
  %80 = bitcast i8* %76 to i64*
  store i64 %79, i64* %80, align 8, !noalias !35
  store %"class.base::internal::BindStateBase"* null, %"class.base::internal::BindStateBase"** %77, align 8, !noalias !35
  %81 = bitcast %"class.base::OnceCallback"* %11 to i8**
  store i8* %63, i8** %81, align 8, !alias.scope !35
  %82 = bitcast %"class.storage::FileSystemOperation"* %15 to void (%"class.storage::FileSystemOperation"*, %"class.storage::FileSystemURL"*, %"class.storage::FileSystemURL"*, i32, i32, %"class.base::RepeatingCallback.201"*, %"class.base::OnceCallback"*)***
  %83 = load void (%"class.storage::FileSystemOperation"*, %"class.storage::FileSystemURL"*, %"class.storage::FileSystemURL"*, i32, i32, %"class.base::RepeatingCallback.201"*, %"class.base::OnceCallback"*)**, void (%"class.storage::FileSystemOperation"*, %"class.storage::FileSystemURL"*, %"class.storage::FileSystemURL"*, i32, i32, %"class.base::RepeatingCallback.201"*, %"class.base::OnceCallback"*)*** %82, align 8
  %84 = getelementptr inbounds void (%"class.storage::FileSystemOperation"*, %"class.storage::FileSystemURL"*, %"class.storage::FileSystemURL"*, i32, i32, %"class.base::RepeatingCallback.201"*, %"class.base::OnceCallback"*)*, void (%"class.storage::FileSystemOperation"*, %"class.storage::FileSystemURL"*, %"class.storage::FileSystemURL"*, i32, i32, %"class.base::RepeatingCallback.201"*, %"class.base::OnceCallback"*)** %83, i64 4
  %85 = load void (%"class.storage::FileSystemOperation"*, %"class.storage::FileSystemURL"*, %"class.storage::FileSystemURL"*, i32, i32, %"class.base::RepeatingCallback.201"*, %"class.base::OnceCallback"*)*, void (%"class.storage::FileSystemOperation"*, %"class.storage::FileSystemURL"*, %"class.storage::FileSystemURL"*, i32, i32, %"class.base::RepeatingCallback.201"*, %"class.base::OnceCallback"*)** %84, align 8
  call void %85(%"class.storage::FileSystemOperation"* nonnull %15, %"class.storage::FileSystemURL"* dereferenceable(208) %1, %"class.storage::FileSystemURL"* dereferenceable(208) %2, i32 %3, i32 %4, %"class.base::RepeatingCallback.201"* nonnull dereferenceable(8) %10, %"class.base::OnceCallback"* nonnull %11) #6
  %86 = getelementptr inbounds %"class.base::OnceCallback", %"class.base::OnceCallback"* %11, i64 0, i32 0
  call void @_ZN4base8internal12CallbackBaseD2Ev(%"class.base::internal::CallbackBase"* nonnull %86) #6
  %87 = getelementptr inbounds %"class.base::RepeatingCallback.201", %"class.base::RepeatingCallback.201"* %10, i64 0, i32 0, i32 0
  call void @_ZN4base8internal12CallbackBaseD2Ev(%"class.base::internal::CallbackBase"* nonnull %87) #6
  call void @llvm.lifetime.end.p0i8(i64 8, i8* nonnull %38) #6
  br label %88

88:                                               ; preds = %62, %20
  %89 = icmp eq i8* %17, null
  br i1 %89, label %91, label %90

90:                                               ; preds = %88
  store i8 %18, i8* %17, align 1
  br label %91

91:                                               ; preds = %90, %88
  call void @llvm.lifetime.end.p0i8(i64 4, i8* nonnull %12) #6
  ret i64 %16
}

; Function Attrs: nounwind ssp uwtable
define hidden void @_ZN7storage25FileSystemOperationRunner14PrepareForReadEmRKNS_13FileSystemURLE(%"class.storage::FileSystemOperationRunner"* nocapture readonly, i64, %"class.storage::FileSystemURL"* dereferenceable(208)) local_unnamed_addr #0 align 2 {
  %4 = getelementptr inbounds %"class.storage::FileSystemOperationRunner", %"class.storage::FileSystemOperationRunner"* %0, i64 0, i32 1
  %5 = load %"class.storage::FileSystemContext"*, %"class.storage::FileSystemContext"** %4, align 8
  %6 = getelementptr inbounds %"class.storage::FileSystemURL", %"class.storage::FileSystemURL"* %2, i64 0, i32 8
  %7 = load i32, i32* %6, align 8
  %8 = tail call %"class.storage::TaskRunnerBoundObserverList.350"* @_ZNK7storage17FileSystemContext18GetAccessObserversENS_14FileSystemTypeE(%"class.storage::FileSystemContext"* %5, i32 %7) #6
  %9 = icmp eq %"class.storage::TaskRunnerBoundObserverList.350"* %8, null
  br i1 %9, label %14, label %10

10:                                               ; preds = %3
  %11 = load %"class.storage::FileSystemContext"*, %"class.storage::FileSystemContext"** %4, align 8
  %12 = load i32, i32* %6, align 8
  %13 = tail call %"class.storage::TaskRunnerBoundObserverList.350"* @_ZNK7storage17FileSystemContext18GetAccessObserversENS_14FileSystemTypeE(%"class.storage::FileSystemContext"* %11, i32 %12) #6
  tail call void @_ZNK7storage27TaskRunnerBoundObserverListINS_18FileAccessObserverEE6NotifyIMS1_FvRKNS_13FileSystemURLEEJS6_EEEvT_DpOT0_(%"class.storage::TaskRunnerBoundObserverList.350"* %13, i64 17, i64 0, %"class.storage::FileSystemURL"* dereferenceable(208) %2)
  br label %14

14:                                               ; preds = %3, %10
  ret void
}

; Function Attrs: argmemonly nounwind
declare void @llvm.memset.p0i8.i64(i8* nocapture writeonly, i8, i64, i1 immarg) #3

; Function Attrs: nounwind ssp uwtable
define hidden void @_ZN7storage25FileSystemOperationRunner14OnCopyProgressEmRKN4base17RepeatingCallbackIFvNS_19FileSystemOperation22CopyOrMoveProgressTypeERKNS_13FileSystemURLES7_lEEES4_S7_S7_l(%"class.storage::FileSystemOperationRunner"*, i64, %"class.base::RepeatingCallback.201"* dereferenceable(8), i32, %"class.storage::FileSystemURL"* dereferenceable(208), %"class.storage::FileSystemURL"* dereferenceable(208), i64) #0 align 2 {
  %8 = alloca %"class.base::Location", align 8
  %9 = alloca %"class.base::OnceCallback.315", align 8
  %10 = getelementptr inbounds %"class.storage::FileSystemOperationRunner", %"class.storage::FileSystemOperationRunner"* %0, i64 0, i32 4
  %11 = load i8, i8* %10, align 8, !range !5
  %12 = icmp eq i8 %11, 0
  br i1 %12, label %45, label %13

13:                                               ; preds = %7
  %14 = tail call dereferenceable(8) %class.scoped_refptr.2* @_ZN4base22ThreadTaskRunnerHandle3GetEv() #6
  %15 = bitcast %class.scoped_refptr.2* %14 to %"class.base::TaskRunner"**
  %16 = load %"class.base::TaskRunner"*, %"class.base::TaskRunner"** %15, align 8
  %17 = bitcast %"class.base::Location"* %8 to i8*
  call void @llvm.lifetime.start.p0i8(i64 32, i8* nonnull %17) #6
  call void @_ZN4base8Location7CurrentEPKcS2_i(%"class.base::Location"* nonnull sret %8, i8* getelementptr inbounds ([15 x i8], [15 x i8]* @.str.7, i64 0, i64 0), i8* getelementptr inbounds ([66 x i8], [66 x i8]* @.str.1, i64 0, i64 0), i32 709) #6
  %18 = call i8* @_Znwm(i64 512) #7, !noalias !40
  %19 = bitcast i8* %18 to %"class.base::internal::BindStateBase"*
  call void @_ZN4base8internal13BindStateBaseC2EPFvvEPFvPKS1_EPFbS5_NS1_21CancellationQueryModeEE(%"class.base::internal::BindStateBase"* nonnull %19, void ()* bitcast (void (%"class.base::internal::BindStateBase"*)* @_ZN4base8internal7InvokerINS0_9BindStateIMN7storage25FileSystemOperationRunnerEFvmRKNS_17RepeatingCallbackIFvNS3_19FileSystemOperation22CopyOrMoveProgressTypeERKNS3_13FileSystemURLESA_lEEES7_SA_SA_lEJNS_7WeakPtrIS4_EEmSC_S7_S8_S8_lEEEFvvEE7RunOnceEPNS0_13BindStateBaseE to void ()*), void (%"class.base::internal::BindStateBase"*)* nonnull @_ZN4base8internal9BindStateIMN7storage25FileSystemOperationRunnerEFvmRKNS_17RepeatingCallbackIFvNS2_19FileSystemOperation22CopyOrMoveProgressTypeERKNS2_13FileSystemURLES9_lEEES6_S9_S9_lEJNS_7WeakPtrIS3_EEmSB_S6_S7_S7_lEE7DestroyEPKNS0_13BindStateBaseE, i1 (%"class.base::internal::BindStateBase"*, i32)* nonnull @_ZN4base8internal23QueryCancellationTraitsINS0_9BindStateIMN7storage25FileSystemOperationRunnerEFvmRKNS_17RepeatingCallbackIFvNS3_19FileSystemOperation22CopyOrMoveProgressTypeERKNS3_13FileSystemURLESA_lEEES7_SA_SA_lEJNS_7WeakPtrIS4_EEmSC_S7_S8_S8_lEEEEEbPKNS0_13BindStateBaseENSK_21CancellationQueryModeE) #6, !noalias !40
  %20 = getelementptr inbounds i8, i8* %18, i64 32
  %21 = bitcast i8* %20 to <2 x i64>*
  store <2 x i64> <i64 ptrtoint (void (%"class.storage::FileSystemOperationRunner"*, i64, %"class.base::RepeatingCallback.201"*, i32, %"class.storage::FileSystemURL"*, %"class.storage::FileSystemURL"*, i64)* @_ZN7storage25FileSystemOperationRunner14OnCopyProgressEmRKN4base17RepeatingCallbackIFvNS_19FileSystemOperation22CopyOrMoveProgressTypeERKNS_13FileSystemURLES7_lEEES4_S7_S7_l to i64), i64 0>, <2 x i64>* %21, align 8, !noalias !40
  %22 = getelementptr inbounds i8, i8* %18, i64 48
  %23 = bitcast i8* %22 to %"class.base::internal::WeakReference"*
  %24 = getelementptr inbounds %"class.storage::FileSystemOperationRunner", %"class.storage::FileSystemOperationRunner"* %0, i64 0, i32 8, i32 0, i32 0
  call void @_ZN4base8internal13WeakReferenceC1ERKS1_(%"class.base::internal::WeakReference"* %23, %"class.base::internal::WeakReference"* dereferenceable(8) %24) #6, !noalias !40
  %25 = getelementptr inbounds i8, i8* %18, i64 56
  %26 = bitcast i8* %25 to i64*
  %27 = getelementptr inbounds %"class.storage::FileSystemOperationRunner", %"class.storage::FileSystemOperationRunner"* %0, i64 0, i32 8, i32 0, i32 1
  %28 = load i64, i64* %27, align 8, !noalias !40
  store i64 %28, i64* %26, align 8, !noalias !40
  %29 = getelementptr inbounds i8, i8* %18, i64 64
  %30 = bitcast i8* %29 to i64*
  store i64 %1, i64* %30, align 8, !noalias !40
  %31 = getelementptr inbounds i8, i8* %18, i64 72
  %32 = bitcast i8* %31 to %"class.base::internal::CallbackBaseCopyable"*
  %33 = getelementptr inbounds %"class.base::RepeatingCallback.201", %"class.base::RepeatingCallback.201"* %2, i64 0, i32 0
  call void @_ZN4base8internal20CallbackBaseCopyableC2ERKS1_(%"class.base::internal::CallbackBaseCopyable"* %32, %"class.base::internal::CallbackBaseCopyable"* dereferenceable(8) %33) #6, !noalias !40
  %34 = getelementptr inbounds i8, i8* %18, i64 80
  %35 = bitcast i8* %34 to i32*
  store i32 %3, i32* %35, align 4, !noalias !40
  %36 = getelementptr inbounds i8, i8* %18, i64 88
  %37 = bitcast i8* %36 to %"class.storage::FileSystemURL"*
  call void @_ZN7storage13FileSystemURLC1ERKS0_(%"class.storage::FileSystemURL"* %37, %"class.storage::FileSystemURL"* dereferenceable(208) %4) #6, !noalias !40
  %38 = getelementptr inbounds i8, i8* %18, i64 296
  %39 = bitcast i8* %38 to %"class.storage::FileSystemURL"*
  call void @_ZN7storage13FileSystemURLC1ERKS0_(%"class.storage::FileSystemURL"* %39, %"class.storage::FileSystemURL"* dereferenceable(208) %5) #6, !noalias !40
  %40 = getelementptr inbounds i8, i8* %18, i64 504
  %41 = bitcast i8* %40 to i64*
  store i64 %6, i64* %41, align 8, !noalias !40
  %42 = bitcast %"class.base::OnceCallback.315"* %9 to i8**
  store i8* %18, i8** %42, align 8, !alias.scope !40
  %43 = call zeroext i1 @_ZN4base10TaskRunner8PostTaskERKNS_8LocationENS_12OnceCallbackIFvvEEE(%"class.base::TaskRunner"* %16, %"class.base::Location"* nonnull dereferenceable(32) %8, %"class.base::OnceCallback.315"* nonnull %9) #6
  %44 = getelementptr inbounds %"class.base::OnceCallback.315", %"class.base::OnceCallback.315"* %9, i64 0, i32 0
  call void @_ZN4base8internal12CallbackBaseD2Ev(%"class.base::internal::CallbackBase"* nonnull %44) #6
  call void @llvm.lifetime.end.p0i8(i64 32, i8* nonnull %17) #6
  br label %51

45:                                               ; preds = %7
  %46 = getelementptr inbounds %"class.base::RepeatingCallback.201", %"class.base::RepeatingCallback.201"* %2, i64 0, i32 0, i32 0, i32 0, i32 0
  %47 = load %"class.base::internal::BindStateBase"*, %"class.base::internal::BindStateBase"** %46, align 8
  %48 = getelementptr inbounds %"class.base::internal::BindStateBase", %"class.base::internal::BindStateBase"* %47, i64 0, i32 1
  %49 = bitcast void ()** %48 to void (%"class.base::internal::BindStateBase"*, i32, %"class.storage::FileSystemURL"*, %"class.storage::FileSystemURL"*, i64)**
  %50 = load void (%"class.base::internal::BindStateBase"*, i32, %"class.storage::FileSystemURL"*, %"class.storage::FileSystemURL"*, i64)*, void (%"class.base::internal::BindStateBase"*, i32, %"class.storage::FileSystemURL"*, %"class.storage::FileSystemURL"*, i64)** %49, align 8
  tail call void %50(%"class.base::internal::BindStateBase"* %47, i32 %3, %"class.storage::FileSystemURL"* dereferenceable(208) %4, %"class.storage::FileSystemURL"* dereferenceable(208) %5, i64 %6) #6
  br label %51

51:                                               ; preds = %45, %13
  ret void
}

; Function Attrs: nounwind ssp uwtable
define hidden i64 @_ZN7storage25FileSystemOperationRunner4MoveERKNS_13FileSystemURLES3_NS_19FileSystemOperation16CopyOrMoveOptionENS4_13ErrorBehaviorERKN4base17RepeatingCallbackIFvNS4_22CopyOrMoveProgressTypeES3_S3_lEEENS7_12OnceCallbackIFvNS7_4File5ErrorEEEE(%"class.storage::FileSystemOperationRunner"*, %"class.storage::FileSystemURL"* dereferenceable(208), %"class.storage::FileSystemURL"* dereferenceable(208), i32, i32, %"class.base::RepeatingCallback.201"* dereferenceable(8), %"class.base::OnceCallback"* nocapture) local_unnamed_addr #0 align 2 {
  %8 = alloca i32, align 4
  %9 = alloca %"class.base::OnceCallback", align 8
  %10 = alloca %"class.base::RepeatingCallback.201", align 8
  %11 = alloca %"class.base::OnceCallback", align 8
  %12 = bitcast i32* %8 to i8*
  call void @llvm.lifetime.start.p0i8(i64 4, i8* nonnull %12) #6
  store i32 0, i32* %8, align 4
  %13 = getelementptr inbounds %"class.storage::FileSystemOperationRunner", %"class.storage::FileSystemOperationRunner"* %0, i64 0, i32 1
  %14 = load %"class.storage::FileSystemContext"*, %"class.storage::FileSystemContext"** %13, align 8
  %15 = call %"class.storage::FileSystemOperation"* @_ZN7storage17FileSystemContext25CreateFileSystemOperationERKNS_13FileSystemURLEPN4base4File5ErrorE(%"class.storage::FileSystemContext"* %14, %"class.storage::FileSystemURL"* dereferenceable(208) %2, i32* nonnull %8) #6
  %16 = call i64 @_ZN7storage25FileSystemOperationRunner14BeginOperationENSt3__110unique_ptrINS_19FileSystemOperationENS1_14default_deleteIS3_EEEE(%"class.storage::FileSystemOperationRunner"* %0, %"class.storage::FileSystemOperation"* %15)
  %17 = getelementptr inbounds %"class.storage::FileSystemOperationRunner", %"class.storage::FileSystemOperationRunner"* %0, i64 0, i32 4
  %18 = load i8, i8* %17, align 1, !range !5
  store i8 1, i8* %17, align 1
  %19 = icmp eq %"class.storage::FileSystemOperation"* %15, null
  br i1 %19, label %20, label %27

20:                                               ; preds = %7
  %21 = getelementptr inbounds %"class.base::OnceCallback", %"class.base::OnceCallback"* %6, i64 0, i32 0, i32 0, i32 0
  %22 = bitcast %"class.base::OnceCallback"* %6 to i64*
  %23 = load i64, i64* %22, align 8
  %24 = bitcast %"class.base::OnceCallback"* %9 to i64*
  store i64 %23, i64* %24, align 8
  store %"class.base::internal::BindStateBase"* null, %"class.base::internal::BindStateBase"** %21, align 8
  %25 = load i32, i32* %8, align 4
  call void @_ZN7storage25FileSystemOperationRunner9DidFinishEmN4base12OnceCallbackIFvNS1_4File5ErrorEEEES4_(%"class.storage::FileSystemOperationRunner"* %0, i64 %16, %"class.base::OnceCallback"* nonnull %9, i32 %25)
  %26 = getelementptr inbounds %"class.base::OnceCallback", %"class.base::OnceCallback"* %9, i64 0, i32 0
  call void @_ZN4base8internal12CallbackBaseD2Ev(%"class.base::internal::CallbackBase"* nonnull %26) #6
  br label %78

27:                                               ; preds = %7
  call void @_ZN7storage25FileSystemOperationRunner15PrepareForWriteEmRKNS_13FileSystemURLE(%"class.storage::FileSystemOperationRunner"* %0, i64 %16, %"class.storage::FileSystemURL"* dereferenceable(208) %2)
  call void @_ZN7storage25FileSystemOperationRunner15PrepareForWriteEmRKNS_13FileSystemURLE(%"class.storage::FileSystemOperationRunner"* %0, i64 %16, %"class.storage::FileSystemURL"* dereferenceable(208) %1)
  %28 = bitcast %"class.base::RepeatingCallback.201"* %10 to i8*
  call void @llvm.lifetime.start.p0i8(i64 8, i8* nonnull %28) #6
  %29 = getelementptr inbounds %"class.base::RepeatingCallback.201", %"class.base::RepeatingCallback.201"* %5, i64 0, i32 0, i32 0, i32 0, i32 0
  %30 = load %"class.base::internal::BindStateBase"*, %"class.base::internal::BindStateBase"** %29, align 8
  %31 = icmp eq %"class.base::internal::BindStateBase"* %30, null
  br i1 %31, label %32, label %34

32:                                               ; preds = %27
  %33 = getelementptr inbounds %"class.base::RepeatingCallback.201", %"class.base::RepeatingCallback.201"* %10, i64 0, i32 0, i32 0, i32 0, i32 0
  store %"class.base::internal::BindStateBase"* null, %"class.base::internal::BindStateBase"** %33, align 8
  br label %52

34:                                               ; preds = %27
  %35 = call i8* @_Znwm(i64 80) #7, !noalias !45
  %36 = bitcast i8* %35 to %"class.base::internal::BindStateBase"*
  call void @_ZN4base8internal13BindStateBaseC2EPFvvEPFvPKS1_EPFbS5_NS1_21CancellationQueryModeEE(%"class.base::internal::BindStateBase"* nonnull %36, void ()* bitcast (void (%"class.base::internal::BindStateBase"*, i32, %"class.storage::FileSystemURL"*, %"class.storage::FileSystemURL"*, i64)* @_ZN4base8internal7InvokerINS0_9BindStateIMN7storage25FileSystemOperationRunnerEFvmRKNS_17RepeatingCallbackIFvNS3_19FileSystemOperation22CopyOrMoveProgressTypeERKNS3_13FileSystemURLESA_lEEES7_SA_SA_lEJNS_7WeakPtrIS4_EEmSC_EEESB_E3RunEPNS0_13BindStateBaseES7_SA_SA_l to void ()*), void (%"class.base::internal::BindStateBase"*)* nonnull @_ZN4base8internal9BindStateIMN7storage25FileSystemOperationRunnerEFvmRKNS_17RepeatingCallbackIFvNS2_19FileSystemOperation22CopyOrMoveProgressTypeERKNS2_13FileSystemURLES9_lEEES6_S9_S9_lEJNS_7WeakPtrIS3_EEmSB_EE7DestroyEPKNS0_13BindStateBaseE, i1 (%"class.base::internal::BindStateBase"*, i32)* nonnull @_ZN4base8internal23QueryCancellationTraitsINS0_9BindStateIMN7storage25FileSystemOperationRunnerEFvmRKNS_17RepeatingCallbackIFvNS3_19FileSystemOperation22CopyOrMoveProgressTypeERKNS3_13FileSystemURLESA_lEEES7_SA_SA_lEJNS_7WeakPtrIS4_EEmSC_EEEEEbPKNS0_13BindStateBaseENSK_21CancellationQueryModeE) #6, !noalias !45
  %37 = getelementptr inbounds i8, i8* %35, i64 32
  %38 = bitcast i8* %37 to <2 x i64>*
  store <2 x i64> <i64 ptrtoint (void (%"class.storage::FileSystemOperationRunner"*, i64, %"class.base::RepeatingCallback.201"*, i32, %"class.storage::FileSystemURL"*, %"class.storage::FileSystemURL"*, i64)* @_ZN7storage25FileSystemOperationRunner14OnCopyProgressEmRKN4base17RepeatingCallbackIFvNS_19FileSystemOperation22CopyOrMoveProgressTypeERKNS_13FileSystemURLES7_lEEES4_S7_S7_l to i64), i64 0>, <2 x i64>* %38, align 8, !noalias !45
  %39 = getelementptr inbounds i8, i8* %35, i64 48
  %40 = bitcast i8* %39 to %"class.base::internal::WeakReference"*
  %41 = getelementptr inbounds %"class.storage::FileSystemOperationRunner", %"class.storage::FileSystemOperationRunner"* %0, i64 0, i32 8, i32 0, i32 0
  call void @_ZN4base8internal13WeakReferenceC1ERKS1_(%"class.base::internal::WeakReference"* %40, %"class.base::internal::WeakReference"* dereferenceable(8) %41) #6, !noalias !45
  %42 = getelementptr inbounds i8, i8* %35, i64 56
  %43 = bitcast i8* %42 to i64*
  %44 = getelementptr inbounds %"class.storage::FileSystemOperationRunner", %"class.storage::FileSystemOperationRunner"* %0, i64 0, i32 8, i32 0, i32 1
  %45 = load i64, i64* %44, align 8, !noalias !45
  store i64 %45, i64* %43, align 8, !noalias !45
  %46 = getelementptr inbounds i8, i8* %35, i64 64
  %47 = bitcast i8* %46 to i64*
  store i64 %16, i64* %47, align 8, !noalias !45
  %48 = getelementptr inbounds i8, i8* %35, i64 72
  %49 = bitcast i8* %48 to %"class.base::internal::CallbackBaseCopyable"*
  %50 = getelementptr inbounds %"class.base::RepeatingCallback.201", %"class.base::RepeatingCallback.201"* %5, i64 0, i32 0
  call void @_ZN4base8internal20CallbackBaseCopyableC2ERKS1_(%"class.base::internal::CallbackBaseCopyable"* %49, %"class.base::internal::CallbackBaseCopyable"* dereferenceable(8) %50) #6, !noalias !45
  %51 = bitcast %"class.base::RepeatingCallback.201"* %10 to i8**
  store i8* %35, i8** %51, align 8, !alias.scope !45
  br label %52

52:                                               ; preds = %34, %32
  %53 = call i8* @_Znwm(i64 80) #7, !noalias !50
  %54 = bitcast i8* %53 to %"class.base::internal::BindStateBase"*
  call void @_ZN4base8internal13BindStateBaseC2EPFvvEPFvPKS1_EPFbS5_NS1_21CancellationQueryModeEE(%"class.base::internal::BindStateBase"* nonnull %54, void ()* bitcast (void (%"class.base::internal::BindStateBase"*, i32)* @_ZN4base8internal7InvokerINS0_9BindStateIMN7storage25FileSystemOperationRunnerEFvmNS_12OnceCallbackIFvNS_4File5ErrorEEEES7_EJNS_7WeakPtrIS4_EEmS9_EEES8_E7RunOnceEPNS0_13BindStateBaseES7_ to void ()*), void (%"class.base::internal::BindStateBase"*)* nonnull @_ZN4base8internal9BindStateIMN7storage25FileSystemOperationRunnerEFvmNS_12OnceCallbackIFvNS_4File5ErrorEEEES6_EJNS_7WeakPtrIS3_EEmS8_EE7DestroyEPKNS0_13BindStateBaseE, i1 (%"class.base::internal::BindStateBase"*, i32)* nonnull @_ZN4base8internal23QueryCancellationTraitsINS0_9BindStateIMN7storage25FileSystemOperationRunnerEFvmNS_12OnceCallbackIFvNS_4File5ErrorEEEES7_EJNS_7WeakPtrIS4_EEmS9_EEEEEbPKNS0_13BindStateBaseENSF_21CancellationQueryModeE) #6, !noalias !50
  %55 = getelementptr inbounds i8, i8* %53, i64 32
  %56 = bitcast i8* %55 to <2 x i64>*
  store <2 x i64> <i64 ptrtoint (void (%"class.storage::FileSystemOperationRunner"*, i64, %"class.base::OnceCallback"*, i32)* @_ZN7storage25FileSystemOperationRunner9DidFinishEmN4base12OnceCallbackIFvNS1_4File5ErrorEEEES4_ to i64), i64 0>, <2 x i64>* %56, align 8, !noalias !50
  %57 = getelementptr inbounds i8, i8* %53, i64 48
  %58 = bitcast i8* %57 to %"class.base::internal::WeakReference"*
  %59 = getelementptr inbounds %"class.storage::FileSystemOperationRunner", %"class.storage::FileSystemOperationRunner"* %0, i64 0, i32 8, i32 0, i32 0
  call void @_ZN4base8internal13WeakReferenceC1ERKS1_(%"class.base::internal::WeakReference"* %58, %"class.base::internal::WeakReference"* dereferenceable(8) %59) #6, !noalias !50
  %60 = getelementptr inbounds i8, i8* %53, i64 56
  %61 = bitcast i8* %60 to i64*
  %62 = getelementptr inbounds %"class.storage::FileSystemOperationRunner", %"class.storage::FileSystemOperationRunner"* %0, i64 0, i32 8, i32 0, i32 1
  %63 = load i64, i64* %62, align 8, !noalias !50
  store i64 %63, i64* %61, align 8, !noalias !50
  %64 = getelementptr inbounds i8, i8* %53, i64 64
  %65 = bitcast i8* %64 to i64*
  store i64 %16, i64* %65, align 8, !noalias !50
  %66 = getelementptr inbounds i8, i8* %53, i64 72
  %67 = getelementptr inbounds %"class.base::OnceCallback", %"class.base::OnceCallback"* %6, i64 0, i32 0, i32 0, i32 0
  %68 = bitcast %"class.base::OnceCallback"* %6 to i64*
  %69 = load i64, i64* %68, align 8, !noalias !50
  %70 = bitcast i8* %66 to i64*
  store i64 %69, i64* %70, align 8, !noalias !50
  store %"class.base::internal::BindStateBase"* null, %"class.base::internal::BindStateBase"** %67, align 8, !noalias !50
  %71 = bitcast %"class.base::OnceCallback"* %11 to i8**
  store i8* %53, i8** %71, align 8, !alias.scope !50
  %72 = bitcast %"class.storage::FileSystemOperation"* %15 to void (%"class.storage::FileSystemOperation"*, %"class.storage::FileSystemURL"*, %"class.storage::FileSystemURL"*, i32, i32, %"class.base::RepeatingCallback.201"*, %"class.base::OnceCallback"*)***
  %73 = load void (%"class.storage::FileSystemOperation"*, %"class.storage::FileSystemURL"*, %"class.storage::FileSystemURL"*, i32, i32, %"class.base::RepeatingCallback.201"*, %"class.base::OnceCallback"*)**, void (%"class.storage::FileSystemOperation"*, %"class.storage::FileSystemURL"*, %"class.storage::FileSystemURL"*, i32, i32, %"class.base::RepeatingCallback.201"*, %"class.base::OnceCallback"*)*** %72, align 8
  %74 = getelementptr inbounds void (%"class.storage::FileSystemOperation"*, %"class.storage::FileSystemURL"*, %"class.storage::FileSystemURL"*, i32, i32, %"class.base::RepeatingCallback.201"*, %"class.base::OnceCallback"*)*, void (%"class.storage::FileSystemOperation"*, %"class.storage::FileSystemURL"*, %"class.storage::FileSystemURL"*, i32, i32, %"class.base::RepeatingCallback.201"*, %"class.base::OnceCallback"*)** %73, i64 5
  %75 = load void (%"class.storage::FileSystemOperation"*, %"class.storage::FileSystemURL"*, %"class.storage::FileSystemURL"*, i32, i32, %"class.base::RepeatingCallback.201"*, %"class.base::OnceCallback"*)*, void (%"class.storage::FileSystemOperation"*, %"class.storage::FileSystemURL"*, %"class.storage::FileSystemURL"*, i32, i32, %"class.base::RepeatingCallback.201"*, %"class.base::OnceCallback"*)** %74, align 8
  call void %75(%"class.storage::FileSystemOperation"* nonnull %15, %"class.storage::FileSystemURL"* dereferenceable(208) %1, %"class.storage::FileSystemURL"* dereferenceable(208) %2, i32 %3, i32 %4, %"class.base::RepeatingCallback.201"* nonnull dereferenceable(8) %10, %"class.base::OnceCallback"* nonnull %11) #6
  %76 = getelementptr inbounds %"class.base::OnceCallback", %"class.base::OnceCallback"* %11, i64 0, i32 0
  call void @_ZN4base8internal12CallbackBaseD2Ev(%"class.base::internal::CallbackBase"* nonnull %76) #6
  %77 = getelementptr inbounds %"class.base::RepeatingCallback.201", %"class.base::RepeatingCallback.201"* %10, i64 0, i32 0, i32 0
  call void @_ZN4base8internal12CallbackBaseD2Ev(%"class.base::internal::CallbackBase"* nonnull %77) #6
  call void @llvm.lifetime.end.p0i8(i64 8, i8* nonnull %28) #6
  br label %78

78:                                               ; preds = %52, %20
  %79 = icmp eq i8* %17, null
  br i1 %79, label %81, label %80

80:                                               ; preds = %78
  store i8 %18, i8* %17, align 1
  br label %81

81:                                               ; preds = %80, %78
  call void @llvm.lifetime.end.p0i8(i64 4, i8* nonnull %12) #6
  ret i64 %16
}

; Function Attrs: nounwind ssp uwtable
define hidden i64 @_ZN7storage25FileSystemOperationRunner15DirectoryExistsERKNS_13FileSystemURLEN4base12OnceCallbackIFvNS4_4File5ErrorEEEE(%"class.storage::FileSystemOperationRunner"*, %"class.storage::FileSystemURL"* dereferenceable(208), %"class.base::OnceCallback"* nocapture) local_unnamed_addr #0 align 2 {
  %4 = alloca i32, align 4
  %5 = alloca %"class.base::OnceCallback", align 8
  %6 = alloca %"class.base::OnceCallback", align 8
  %7 = bitcast i32* %4 to i8*
  call void @llvm.lifetime.start.p0i8(i64 4, i8* nonnull %7) #6
  store i32 0, i32* %4, align 4
  %8 = getelementptr inbounds %"class.storage::FileSystemOperationRunner", %"class.storage::FileSystemOperationRunner"* %0, i64 0, i32 1
  %9 = load %"class.storage::FileSystemContext"*, %"class.storage::FileSystemContext"** %8, align 8
  %10 = call %"class.storage::FileSystemOperation"* @_ZN7storage17FileSystemContext25CreateFileSystemOperationERKNS_13FileSystemURLEPN4base4File5ErrorE(%"class.storage::FileSystemContext"* %9, %"class.storage::FileSystemURL"* dereferenceable(208) %1, i32* nonnull %4) #6
  %11 = call i64 @_ZN7storage25FileSystemOperationRunner14BeginOperationENSt3__110unique_ptrINS_19FileSystemOperationENS1_14default_deleteIS3_EEEE(%"class.storage::FileSystemOperationRunner"* %0, %"class.storage::FileSystemOperation"* %10)
  %12 = getelementptr inbounds %"class.storage::FileSystemOperationRunner", %"class.storage::FileSystemOperationRunner"* %0, i64 0, i32 4
  %13 = load i8, i8* %12, align 1, !range !5
  store i8 1, i8* %12, align 1
  %14 = icmp eq %"class.storage::FileSystemOperation"* %10, null
  br i1 %14, label %15, label %21

15:                                               ; preds = %3
  %16 = getelementptr inbounds %"class.base::OnceCallback", %"class.base::OnceCallback"* %2, i64 0, i32 0, i32 0, i32 0
  %17 = bitcast %"class.base::OnceCallback"* %2 to i64*
  %18 = load i64, i64* %17, align 8
  %19 = bitcast %"class.base::OnceCallback"* %5 to i64*
  store i64 %18, i64* %19, align 8
  store %"class.base::internal::BindStateBase"* null, %"class.base::internal::BindStateBase"** %16, align 8
  %20 = load i32, i32* %4, align 4
  call void @_ZN7storage25FileSystemOperationRunner9DidFinishEmN4base12OnceCallbackIFvNS1_4File5ErrorEEEES4_(%"class.storage::FileSystemOperationRunner"* %0, i64 %11, %"class.base::OnceCallback"* nonnull %5, i32 %20)
  br label %55

21:                                               ; preds = %3
  %22 = load %"class.storage::FileSystemContext"*, %"class.storage::FileSystemContext"** %8, align 8
  %23 = getelementptr inbounds %"class.storage::FileSystemURL", %"class.storage::FileSystemURL"* %1, i64 0, i32 8
  %24 = load i32, i32* %23, align 8
  %25 = call %"class.storage::TaskRunnerBoundObserverList.350"* @_ZNK7storage17FileSystemContext18GetAccessObserversENS_14FileSystemTypeE(%"class.storage::FileSystemContext"* %22, i32 %24) #6
  %26 = icmp eq %"class.storage::TaskRunnerBoundObserverList.350"* %25, null
  br i1 %26, label %31, label %27

27:                                               ; preds = %21
  %28 = load %"class.storage::FileSystemContext"*, %"class.storage::FileSystemContext"** %8, align 8
  %29 = load i32, i32* %23, align 8
  %30 = call %"class.storage::TaskRunnerBoundObserverList.350"* @_ZNK7storage17FileSystemContext18GetAccessObserversENS_14FileSystemTypeE(%"class.storage::FileSystemContext"* %28, i32 %29) #6
  call void @_ZNK7storage27TaskRunnerBoundObserverListINS_18FileAccessObserverEE6NotifyIMS1_FvRKNS_13FileSystemURLEEJS6_EEEvT_DpOT0_(%"class.storage::TaskRunnerBoundObserverList.350"* %30, i64 17, i64 0, %"class.storage::FileSystemURL"* dereferenceable(208) %1) #6
  br label %31

31:                                               ; preds = %21, %27
  %32 = call i8* @_Znwm(i64 80) #7, !noalias !55
  %33 = bitcast i8* %32 to %"class.base::internal::BindStateBase"*
  call void @_ZN4base8internal13BindStateBaseC2EPFvvEPFvPKS1_EPFbS5_NS1_21CancellationQueryModeEE(%"class.base::internal::BindStateBase"* nonnull %33, void ()* bitcast (void (%"class.base::internal::BindStateBase"*, i32)* @_ZN4base8internal7InvokerINS0_9BindStateIMN7storage25FileSystemOperationRunnerEFvmNS_12OnceCallbackIFvNS_4File5ErrorEEEES7_EJNS_7WeakPtrIS4_EEmS9_EEES8_E7RunOnceEPNS0_13BindStateBaseES7_ to void ()*), void (%"class.base::internal::BindStateBase"*)* nonnull @_ZN4base8internal9BindStateIMN7storage25FileSystemOperationRunnerEFvmNS_12OnceCallbackIFvNS_4File5ErrorEEEES6_EJNS_7WeakPtrIS3_EEmS8_EE7DestroyEPKNS0_13BindStateBaseE, i1 (%"class.base::internal::BindStateBase"*, i32)* nonnull @_ZN4base8internal23QueryCancellationTraitsINS0_9BindStateIMN7storage25FileSystemOperationRunnerEFvmNS_12OnceCallbackIFvNS_4File5ErrorEEEES7_EJNS_7WeakPtrIS4_EEmS9_EEEEEbPKNS0_13BindStateBaseENSF_21CancellationQueryModeE) #6, !noalias !55
  %34 = getelementptr inbounds i8, i8* %32, i64 32
  %35 = bitcast i8* %34 to <2 x i64>*
  store <2 x i64> <i64 ptrtoint (void (%"class.storage::FileSystemOperationRunner"*, i64, %"class.base::OnceCallback"*, i32)* @_ZN7storage25FileSystemOperationRunner9DidFinishEmN4base12OnceCallbackIFvNS1_4File5ErrorEEEES4_ to i64), i64 0>, <2 x i64>* %35, align 8, !noalias !55
  %36 = getelementptr inbounds i8, i8* %32, i64 48
  %37 = bitcast i8* %36 to %"class.base::internal::WeakReference"*
  %38 = getelementptr inbounds %"class.storage::FileSystemOperationRunner", %"class.storage::FileSystemOperationRunner"* %0, i64 0, i32 8, i32 0, i32 0
  call void @_ZN4base8internal13WeakReferenceC1ERKS1_(%"class.base::internal::WeakReference"* %37, %"class.base::internal::WeakReference"* dereferenceable(8) %38) #6, !noalias !55
  %39 = getelementptr inbounds i8, i8* %32, i64 56
  %40 = bitcast i8* %39 to i64*
  %41 = getelementptr inbounds %"class.storage::FileSystemOperationRunner", %"class.storage::FileSystemOperationRunner"* %0, i64 0, i32 8, i32 0, i32 1
  %42 = load i64, i64* %41, align 8, !noalias !55
  store i64 %42, i64* %40, align 8, !noalias !55
  %43 = getelementptr inbounds i8, i8* %32, i64 64
  %44 = bitcast i8* %43 to i64*
  store i64 %11, i64* %44, align 8, !noalias !55
  %45 = getelementptr inbounds i8, i8* %32, i64 72
  %46 = getelementptr inbounds %"class.base::OnceCallback", %"class.base::OnceCallback"* %2, i64 0, i32 0, i32 0, i32 0
  %47 = bitcast %"class.base::OnceCallback"* %2 to i64*
  %48 = load i64, i64* %47, align 8, !noalias !55
  %49 = bitcast i8* %45 to i64*
  store i64 %48, i64* %49, align 8, !noalias !55
  store %"class.base::internal::BindStateBase"* null, %"class.base::internal::BindStateBase"** %46, align 8, !noalias !55
  %50 = bitcast %"class.base::OnceCallback"* %6 to i8**
  store i8* %32, i8** %50, align 8, !alias.scope !55
  %51 = bitcast %"class.storage::FileSystemOperation"* %10 to void (%"class.storage::FileSystemOperation"*, %"class.storage::FileSystemURL"*, %"class.base::OnceCallback"*)***
  %52 = load void (%"class.storage::FileSystemOperation"*, %"class.storage::FileSystemURL"*, %"class.base::OnceCallback"*)**, void (%"class.storage::FileSystemOperation"*, %"class.storage::FileSystemURL"*, %"class.base::OnceCallback"*)*** %51, align 8
  %53 = getelementptr inbounds void (%"class.storage::FileSystemOperation"*, %"class.storage::FileSystemURL"*, %"class.base::OnceCallback"*)*, void (%"class.storage::FileSystemOperation"*, %"class.storage::FileSystemURL"*, %"class.base::OnceCallback"*)** %52, i64 6
  %54 = load void (%"class.storage::FileSystemOperation"*, %"class.storage::FileSystemURL"*, %"class.base::OnceCallback"*)*, void (%"class.storage::FileSystemOperation"*, %"class.storage::FileSystemURL"*, %"class.base::OnceCallback"*)** %53, align 8
  call void %54(%"class.storage::FileSystemOperation"* nonnull %10, %"class.storage::FileSystemURL"* dereferenceable(208) %1, %"class.base::OnceCallback"* nonnull %6) #6
  br label %55

55:                                               ; preds = %31, %15
  %56 = phi %"class.base::OnceCallback"* [ %6, %31 ], [ %5, %15 ]
  %57 = getelementptr inbounds %"class.base::OnceCallback", %"class.base::OnceCallback"* %56, i64 0, i32 0
  call void @_ZN4base8internal12CallbackBaseD2Ev(%"class.base::internal::CallbackBase"* nonnull %57) #6
  %58 = icmp eq i8* %12, null
  br i1 %58, label %60, label %59

59:                                               ; preds = %55
  store i8 %13, i8* %12, align 1
  br label %60

60:                                               ; preds = %59, %55
  call void @llvm.lifetime.end.p0i8(i64 4, i8* nonnull %7) #6
  ret i64 %11
}

; Function Attrs: nounwind ssp uwtable
define hidden i64 @_ZN7storage25FileSystemOperationRunner10FileExistsERKNS_13FileSystemURLEN4base12OnceCallbackIFvNS4_4File5ErrorEEEE(%"class.storage::FileSystemOperationRunner"*, %"class.storage::FileSystemURL"* dereferenceable(208), %"class.base::OnceCallback"* nocapture) local_unnamed_addr #0 align 2 {
  %4 = alloca i32, align 4
  %5 = alloca %"class.base::OnceCallback", align 8
  %6 = alloca %"class.base::OnceCallback", align 8
  %7 = bitcast i32* %4 to i8*
  call void @llvm.lifetime.start.p0i8(i64 4, i8* nonnull %7) #6
  store i32 0, i32* %4, align 4
  %8 = getelementptr inbounds %"class.storage::FileSystemOperationRunner", %"class.storage::FileSystemOperationRunner"* %0, i64 0, i32 1
  %9 = load %"class.storage::FileSystemContext"*, %"class.storage::FileSystemContext"** %8, align 8
  %10 = call %"class.storage::FileSystemOperation"* @_ZN7storage17FileSystemContext25CreateFileSystemOperationERKNS_13FileSystemURLEPN4base4File5ErrorE(%"class.storage::FileSystemContext"* %9, %"class.storage::FileSystemURL"* dereferenceable(208) %1, i32* nonnull %4) #6
  %11 = call i64 @_ZN7storage25FileSystemOperationRunner14BeginOperationENSt3__110unique_ptrINS_19FileSystemOperationENS1_14default_deleteIS3_EEEE(%"class.storage::FileSystemOperationRunner"* %0, %"class.storage::FileSystemOperation"* %10)
  %12 = getelementptr inbounds %"class.storage::FileSystemOperationRunner", %"class.storage::FileSystemOperationRunner"* %0, i64 0, i32 4
  %13 = load i8, i8* %12, align 1, !range !5
  store i8 1, i8* %12, align 1
  %14 = icmp eq %"class.storage::FileSystemOperation"* %10, null
  br i1 %14, label %15, label %21

15:                                               ; preds = %3
  %16 = getelementptr inbounds %"class.base::OnceCallback", %"class.base::OnceCallback"* %2, i64 0, i32 0, i32 0, i32 0
  %17 = bitcast %"class.base::OnceCallback"* %2 to i64*
  %18 = load i64, i64* %17, align 8
  %19 = bitcast %"class.base::OnceCallback"* %5 to i64*
  store i64 %18, i64* %19, align 8
  store %"class.base::internal::BindStateBase"* null, %"class.base::internal::BindStateBase"** %16, align 8
  %20 = load i32, i32* %4, align 4
  call void @_ZN7storage25FileSystemOperationRunner9DidFinishEmN4base12OnceCallbackIFvNS1_4File5ErrorEEEES4_(%"class.storage::FileSystemOperationRunner"* %0, i64 %11, %"class.base::OnceCallback"* nonnull %5, i32 %20)
  br label %55

21:                                               ; preds = %3
  %22 = load %"class.storage::FileSystemContext"*, %"class.storage::FileSystemContext"** %8, align 8
  %23 = getelementptr inbounds %"class.storage::FileSystemURL", %"class.storage::FileSystemURL"* %1, i64 0, i32 8
  %24 = load i32, i32* %23, align 8
  %25 = call %"class.storage::TaskRunnerBoundObserverList.350"* @_ZNK7storage17FileSystemContext18GetAccessObserversENS_14FileSystemTypeE(%"class.storage::FileSystemContext"* %22, i32 %24) #6
  %26 = icmp eq %"class.storage::TaskRunnerBoundObserverList.350"* %25, null
  br i1 %26, label %31, label %27

27:                                               ; preds = %21
  %28 = load %"class.storage::FileSystemContext"*, %"class.storage::FileSystemContext"** %8, align 8
  %29 = load i32, i32* %23, align 8
  %30 = call %"class.storage::TaskRunnerBoundObserverList.350"* @_ZNK7storage17FileSystemContext18GetAccessObserversENS_14FileSystemTypeE(%"class.storage::FileSystemContext"* %28, i32 %29) #6
  call void @_ZNK7storage27TaskRunnerBoundObserverListINS_18FileAccessObserverEE6NotifyIMS1_FvRKNS_13FileSystemURLEEJS6_EEEvT_DpOT0_(%"class.storage::TaskRunnerBoundObserverList.350"* %30, i64 17, i64 0, %"class.storage::FileSystemURL"* dereferenceable(208) %1) #6
  br label %31

31:                                               ; preds = %21, %27
  %32 = call i8* @_Znwm(i64 80) #7, !noalias !60
  %33 = bitcast i8* %32 to %"class.base::internal::BindStateBase"*
  call void @_ZN4base8internal13BindStateBaseC2EPFvvEPFvPKS1_EPFbS5_NS1_21CancellationQueryModeEE(%"class.base::internal::BindStateBase"* nonnull %33, void ()* bitcast (void (%"class.base::internal::BindStateBase"*, i32)* @_ZN4base8internal7InvokerINS0_9BindStateIMN7storage25FileSystemOperationRunnerEFvmNS_12OnceCallbackIFvNS_4File5ErrorEEEES7_EJNS_7WeakPtrIS4_EEmS9_EEES8_E7RunOnceEPNS0_13BindStateBaseES7_ to void ()*), void (%"class.base::internal::BindStateBase"*)* nonnull @_ZN4base8internal9BindStateIMN7storage25FileSystemOperationRunnerEFvmNS_12OnceCallbackIFvNS_4File5ErrorEEEES6_EJNS_7WeakPtrIS3_EEmS8_EE7DestroyEPKNS0_13BindStateBaseE, i1 (%"class.base::internal::BindStateBase"*, i32)* nonnull @_ZN4base8internal23QueryCancellationTraitsINS0_9BindStateIMN7storage25FileSystemOperationRunnerEFvmNS_12OnceCallbackIFvNS_4File5ErrorEEEES7_EJNS_7WeakPtrIS4_EEmS9_EEEEEbPKNS0_13BindStateBaseENSF_21CancellationQueryModeE) #6, !noalias !60
  %34 = getelementptr inbounds i8, i8* %32, i64 32
  %35 = bitcast i8* %34 to <2 x i64>*
  store <2 x i64> <i64 ptrtoint (void (%"class.storage::FileSystemOperationRunner"*, i64, %"class.base::OnceCallback"*, i32)* @_ZN7storage25FileSystemOperationRunner9DidFinishEmN4base12OnceCallbackIFvNS1_4File5ErrorEEEES4_ to i64), i64 0>, <2 x i64>* %35, align 8, !noalias !60
  %36 = getelementptr inbounds i8, i8* %32, i64 48
  %37 = bitcast i8* %36 to %"class.base::internal::WeakReference"*
  %38 = getelementptr inbounds %"class.storage::FileSystemOperationRunner", %"class.storage::FileSystemOperationRunner"* %0, i64 0, i32 8, i32 0, i32 0
  call void @_ZN4base8internal13WeakReferenceC1ERKS1_(%"class.base::internal::WeakReference"* %37, %"class.base::internal::WeakReference"* dereferenceable(8) %38) #6, !noalias !60
  %39 = getelementptr inbounds i8, i8* %32, i64 56
  %40 = bitcast i8* %39 to i64*
  %41 = getelementptr inbounds %"class.storage::FileSystemOperationRunner", %"class.storage::FileSystemOperationRunner"* %0, i64 0, i32 8, i32 0, i32 1
  %42 = load i64, i64* %41, align 8, !noalias !60
  store i64 %42, i64* %40, align 8, !noalias !60
  %43 = getelementptr inbounds i8, i8* %32, i64 64
  %44 = bitcast i8* %43 to i64*
  store i64 %11, i64* %44, align 8, !noalias !60
  %45 = getelementptr inbounds i8, i8* %32, i64 72
  %46 = getelementptr inbounds %"class.base::OnceCallback", %"class.base::OnceCallback"* %2, i64 0, i32 0, i32 0, i32 0
  %47 = bitcast %"class.base::OnceCallback"* %2 to i64*
  %48 = load i64, i64* %47, align 8, !noalias !60
  %49 = bitcast i8* %45 to i64*
  store i64 %48, i64* %49, align 8, !noalias !60
  store %"class.base::internal::BindStateBase"* null, %"class.base::internal::BindStateBase"** %46, align 8, !noalias !60
  %50 = bitcast %"class.base::OnceCallback"* %6 to i8**
  store i8* %32, i8** %50, align 8, !alias.scope !60
  %51 = bitcast %"class.storage::FileSystemOperation"* %10 to void (%"class.storage::FileSystemOperation"*, %"class.storage::FileSystemURL"*, %"class.base::OnceCallback"*)***
  %52 = load void (%"class.storage::FileSystemOperation"*, %"class.storage::FileSystemURL"*, %"class.base::OnceCallback"*)**, void (%"class.storage::FileSystemOperation"*, %"class.storage::FileSystemURL"*, %"class.base::OnceCallback"*)*** %51, align 8
  %53 = getelementptr inbounds void (%"class.storage::FileSystemOperation"*, %"class.storage::FileSystemURL"*, %"class.base::OnceCallback"*)*, void (%"class.storage::FileSystemOperation"*, %"class.storage::FileSystemURL"*, %"class.base::OnceCallback"*)** %52, i64 7
  %54 = load void (%"class.storage::FileSystemOperation"*, %"class.storage::FileSystemURL"*, %"class.base::OnceCallback"*)*, void (%"class.storage::FileSystemOperation"*, %"class.storage::FileSystemURL"*, %"class.base::OnceCallback"*)** %53, align 8
  call void %54(%"class.storage::FileSystemOperation"* nonnull %10, %"class.storage::FileSystemURL"* dereferenceable(208) %1, %"class.base::OnceCallback"* nonnull %6) #6
  br label %55

55:                                               ; preds = %31, %15
  %56 = phi %"class.base::OnceCallback"* [ %6, %31 ], [ %5, %15 ]
  %57 = getelementptr inbounds %"class.base::OnceCallback", %"class.base::OnceCallback"* %56, i64 0, i32 0
  call void @_ZN4base8internal12CallbackBaseD2Ev(%"class.base::internal::CallbackBase"* nonnull %57) #6
  %58 = icmp eq i8* %12, null
  br i1 %58, label %60, label %59

59:                                               ; preds = %55
  store i8 %13, i8* %12, align 1
  br label %60

60:                                               ; preds = %59, %55
  call void @llvm.lifetime.end.p0i8(i64 4, i8* nonnull %7) #6
  ret i64 %11
}

; Function Attrs: nounwind ssp uwtable
define hidden i64 @_ZN7storage25FileSystemOperationRunner11GetMetadataERKNS_13FileSystemURLEiN4base12OnceCallbackIFvNS4_4File5ErrorERKNS6_4InfoEEEE(%"class.storage::FileSystemOperationRunner"*, %"class.storage::FileSystemURL"* dereferenceable(208), i32, %"class.base::OnceCallback.202"* nocapture) local_unnamed_addr #0 align 2 {
  %5 = alloca i32, align 4
  %6 = alloca %"class.base::OnceCallback.202", align 8
  %7 = alloca %"struct.base::File::Info", align 8
  %8 = alloca %"class.base::OnceCallback.202", align 8
  %9 = bitcast i32* %5 to i8*
  call void @llvm.lifetime.start.p0i8(i64 4, i8* nonnull %9) #6
  store i32 0, i32* %5, align 4
  %10 = getelementptr inbounds %"class.storage::FileSystemOperationRunner", %"class.storage::FileSystemOperationRunner"* %0, i64 0, i32 1
  %11 = load %"class.storage::FileSystemContext"*, %"class.storage::FileSystemContext"** %10, align 8
  %12 = call %"class.storage::FileSystemOperation"* @_ZN7storage17FileSystemContext25CreateFileSystemOperationERKNS_13FileSystemURLEPN4base4File5ErrorE(%"class.storage::FileSystemContext"* %11, %"class.storage::FileSystemURL"* dereferenceable(208) %1, i32* nonnull %5) #6
  %13 = call i64 @_ZN7storage25FileSystemOperationRunner14BeginOperationENSt3__110unique_ptrINS_19FileSystemOperationENS1_14default_deleteIS3_EEEE(%"class.storage::FileSystemOperationRunner"* %0, %"class.storage::FileSystemOperation"* %12)
  %14 = getelementptr inbounds %"class.storage::FileSystemOperationRunner", %"class.storage::FileSystemOperationRunner"* %0, i64 0, i32 4
  %15 = load i8, i8* %14, align 1, !range !5
  store i8 1, i8* %14, align 1
  %16 = icmp eq %"class.storage::FileSystemOperation"* %12, null
  br i1 %16, label %17, label %24

17:                                               ; preds = %4
  %18 = getelementptr inbounds %"class.base::OnceCallback.202", %"class.base::OnceCallback.202"* %3, i64 0, i32 0, i32 0, i32 0
  %19 = bitcast %"class.base::OnceCallback.202"* %3 to i64*
  %20 = load i64, i64* %19, align 8
  %21 = bitcast %"class.base::OnceCallback.202"* %6 to i64*
  store i64 %20, i64* %21, align 8
  store %"class.base::internal::BindStateBase"* null, %"class.base::internal::BindStateBase"** %18, align 8
  %22 = load i32, i32* %5, align 4
  %23 = bitcast %"struct.base::File::Info"* %7 to i8*
  call void @llvm.lifetime.start.p0i8(i64 40, i8* nonnull %23) #6
  call void @_ZN4base4File4InfoC1Ev(%"struct.base::File::Info"* nonnull %7) #6
  call void @_ZN7storage25FileSystemOperationRunner14DidGetMetadataEmN4base12OnceCallbackIFvNS1_4File5ErrorERKNS3_4InfoEEEES4_S7_(%"class.storage::FileSystemOperationRunner"* %0, i64 %13, %"class.base::OnceCallback.202"* nonnull %6, i32 %22, %"struct.base::File::Info"* nonnull dereferenceable(40) %7)
  call void @_ZN4base4File4InfoD1Ev(%"struct.base::File::Info"* nonnull %7) #6
  call void @llvm.lifetime.end.p0i8(i64 40, i8* nonnull %23) #6
  br label %58

24:                                               ; preds = %4
  %25 = load %"class.storage::FileSystemContext"*, %"class.storage::FileSystemContext"** %10, align 8
  %26 = getelementptr inbounds %"class.storage::FileSystemURL", %"class.storage::FileSystemURL"* %1, i64 0, i32 8
  %27 = load i32, i32* %26, align 8
  %28 = call %"class.storage::TaskRunnerBoundObserverList.350"* @_ZNK7storage17FileSystemContext18GetAccessObserversENS_14FileSystemTypeE(%"class.storage::FileSystemContext"* %25, i32 %27) #6
  %29 = icmp eq %"class.storage::TaskRunnerBoundObserverList.350"* %28, null
  br i1 %29, label %34, label %30

30:                                               ; preds = %24
  %31 = load %"class.storage::FileSystemContext"*, %"class.storage::FileSystemContext"** %10, align 8
  %32 = load i32, i32* %26, align 8
  %33 = call %"class.storage::TaskRunnerBoundObserverList.350"* @_ZNK7storage17FileSystemContext18GetAccessObserversENS_14FileSystemTypeE(%"class.storage::FileSystemContext"* %31, i32 %32) #6
  call void @_ZNK7storage27TaskRunnerBoundObserverListINS_18FileAccessObserverEE6NotifyIMS1_FvRKNS_13FileSystemURLEEJS6_EEEvT_DpOT0_(%"class.storage::TaskRunnerBoundObserverList.350"* %33, i64 17, i64 0, %"class.storage::FileSystemURL"* dereferenceable(208) %1) #6
  br label %34

34:                                               ; preds = %24, %30
  %35 = call i8* @_Znwm(i64 80) #7, !noalias !65
  %36 = bitcast i8* %35 to %"class.base::internal::BindStateBase"*
  call void @_ZN4base8internal13BindStateBaseC2EPFvvEPFvPKS1_EPFbS5_NS1_21CancellationQueryModeEE(%"class.base::internal::BindStateBase"* nonnull %36, void ()* bitcast (void (%"class.base::internal::BindStateBase"*, i32, %"struct.base::File::Info"*)* @_ZN4base8internal7InvokerINS0_9BindStateIMN7storage25FileSystemOperationRunnerEFvmNS_12OnceCallbackIFvNS_4File5ErrorERKNS6_4InfoEEEES7_SA_EJNS_7WeakPtrIS4_EEmSC_EEESB_E7RunOnceEPNS0_13BindStateBaseES7_SA_ to void ()*), void (%"class.base::internal::BindStateBase"*)* nonnull @_ZN4base8internal9BindStateIMN7storage25FileSystemOperationRunnerEFvmNS_12OnceCallbackIFvNS_4File5ErrorERKNS5_4InfoEEEES6_S9_EJNS_7WeakPtrIS3_EEmSB_EE7DestroyEPKNS0_13BindStateBaseE, i1 (%"class.base::internal::BindStateBase"*, i32)* nonnull @_ZN4base8internal23QueryCancellationTraitsINS0_9BindStateIMN7storage25FileSystemOperationRunnerEFvmNS_12OnceCallbackIFvNS_4File5ErrorERKNS6_4InfoEEEES7_SA_EJNS_7WeakPtrIS4_EEmSC_EEEEEbPKNS0_13BindStateBaseENSI_21CancellationQueryModeE) #6, !noalias !65
  %37 = getelementptr inbounds i8, i8* %35, i64 32
  %38 = bitcast i8* %37 to <2 x i64>*
  store <2 x i64> <i64 ptrtoint (void (%"class.storage::FileSystemOperationRunner"*, i64, %"class.base::OnceCallback.202"*, i32, %"struct.base::File::Info"*)* @_ZN7storage25FileSystemOperationRunner14DidGetMetadataEmN4base12OnceCallbackIFvNS1_4File5ErrorERKNS3_4InfoEEEES4_S7_ to i64), i64 0>, <2 x i64>* %38, align 8, !noalias !65
  %39 = getelementptr inbounds i8, i8* %35, i64 48
  %40 = bitcast i8* %39 to %"class.base::internal::WeakReference"*
  %41 = getelementptr inbounds %"class.storage::FileSystemOperationRunner", %"class.storage::FileSystemOperationRunner"* %0, i64 0, i32 8, i32 0, i32 0
  call void @_ZN4base8internal13WeakReferenceC1ERKS1_(%"class.base::internal::WeakReference"* %40, %"class.base::internal::WeakReference"* dereferenceable(8) %41) #6, !noalias !65
  %42 = getelementptr inbounds i8, i8* %35, i64 56
  %43 = bitcast i8* %42 to i64*
  %44 = getelementptr inbounds %"class.storage::FileSystemOperationRunner", %"class.storage::FileSystemOperationRunner"* %0, i64 0, i32 8, i32 0, i32 1
  %45 = load i64, i64* %44, align 8, !noalias !65
  store i64 %45, i64* %43, align 8, !noalias !65
  %46 = getelementptr inbounds i8, i8* %35, i64 64
  %47 = bitcast i8* %46 to i64*
  store i64 %13, i64* %47, align 8, !noalias !65
  %48 = getelementptr inbounds i8, i8* %35, i64 72
  %49 = getelementptr inbounds %"class.base::OnceCallback.202", %"class.base::OnceCallback.202"* %3, i64 0, i32 0, i32 0, i32 0
  %50 = bitcast %"class.base::OnceCallback.202"* %3 to i64*
  %51 = load i64, i64* %50, align 8, !noalias !65
  %52 = bitcast i8* %48 to i64*
  store i64 %51, i64* %52, align 8, !noalias !65
  store %"class.base::internal::BindStateBase"* null, %"class.base::internal::BindStateBase"** %49, align 8, !noalias !65
  %53 = bitcast %"class.base::OnceCallback.202"* %8 to i8**
  store i8* %35, i8** %53, align 8, !alias.scope !65
  %54 = bitcast %"class.storage::FileSystemOperation"* %12 to void (%"class.storage::FileSystemOperation"*, %"class.storage::FileSystemURL"*, i32, %"class.base::OnceCallback.202"*)***
  %55 = load void (%"class.storage::FileSystemOperation"*, %"class.storage::FileSystemURL"*, i32, %"class.base::OnceCallback.202"*)**, void (%"class.storage::FileSystemOperation"*, %"class.storage::FileSystemURL"*, i32, %"class.base::OnceCallback.202"*)*** %54, align 8
  %56 = getelementptr inbounds void (%"class.storage::FileSystemOperation"*, %"class.storage::FileSystemURL"*, i32, %"class.base::OnceCallback.202"*)*, void (%"class.storage::FileSystemOperation"*, %"class.storage::FileSystemURL"*, i32, %"class.base::OnceCallback.202"*)** %55, i64 8
  %57 = load void (%"class.storage::FileSystemOperation"*, %"class.storage::FileSystemURL"*, i32, %"class.base::OnceCallback.202"*)*, void (%"class.storage::FileSystemOperation"*, %"class.storage::FileSystemURL"*, i32, %"class.base::OnceCallback.202"*)** %56, align 8
  call void %57(%"class.storage::FileSystemOperation"* nonnull %12, %"class.storage::FileSystemURL"* dereferenceable(208) %1, i32 %2, %"class.base::OnceCallback.202"* nonnull %8) #6
  br label %58

58:                                               ; preds = %34, %17
  %59 = phi %"class.base::OnceCallback.202"* [ %8, %34 ], [ %6, %17 ]
  %60 = getelementptr inbounds %"class.base::OnceCallback.202", %"class.base::OnceCallback.202"* %59, i64 0, i32 0
  call void @_ZN4base8internal12CallbackBaseD2Ev(%"class.base::internal::CallbackBase"* nonnull %60) #6
  %61 = icmp eq i8* %14, null
  br i1 %61, label %63, label %62

62:                                               ; preds = %58
  store i8 %15, i8* %14, align 1
  br label %63

63:                                               ; preds = %62, %58
  call void @llvm.lifetime.end.p0i8(i64 4, i8* nonnull %9) #6
  ret i64 %13
}

; Function Attrs: nounwind ssp uwtable
define hidden void @_ZN7storage25FileSystemOperationRunner14DidGetMetadataEmN4base12OnceCallbackIFvNS1_4File5ErrorERKNS3_4InfoEEEES4_S7_(%"class.storage::FileSystemOperationRunner"*, i64, %"class.base::OnceCallback.202"* nocapture, i32, %"struct.base::File::Info"* dereferenceable(40)) #0 align 2 {
  %6 = alloca %"class.base::OnceCallback.202", align 8
  %7 = alloca %"class.base::Location", align 8
  %8 = alloca %"class.base::Location", align 8
  %9 = alloca %"class.base::OnceCallback.315", align 8
  %10 = getelementptr inbounds %"class.storage::FileSystemOperationRunner", %"class.storage::FileSystemOperationRunner"* %0, i64 0, i32 1
  %11 = load %"class.storage::FileSystemContext"*, %"class.storage::FileSystemContext"** %10, align 8
  %12 = icmp eq %"class.storage::FileSystemContext"* %11, null
  br i1 %12, label %16, label %13

13:                                               ; preds = %5
  %14 = getelementptr inbounds %"class.storage::FileSystemContext", %"class.storage::FileSystemContext"* %11, i64 0, i32 0, i32 0, i32 0, i32 0, i32 0, i32 0, i32 0, i32 0, i32 0
  %15 = atomicrmw add i32* %14, i32 1 monotonic
  br label %16

16:                                               ; preds = %5, %13
  %17 = getelementptr inbounds %"class.storage::FileSystemOperationRunner", %"class.storage::FileSystemOperationRunner"* %0, i64 0, i32 4
  %18 = load i8, i8* %17, align 8, !range !5
  %19 = icmp eq i8 %18, 0
  br i1 %19, label %116, label %20

20:                                               ; preds = %16
  %21 = getelementptr inbounds %"class.storage::FileSystemOperationRunner", %"class.storage::FileSystemOperationRunner"* %0, i64 0, i32 6
  %22 = getelementptr inbounds %"class.storage::FileSystemOperationRunner", %"class.storage::FileSystemOperationRunner"* %0, i64 0, i32 6, i32 0, i32 1, i32 0, i32 0
  %23 = bitcast %"class.std::__1::__tree_end_node"* %22 to %"class.std::__1::__tree_node"**
  %24 = load %"class.std::__1::__tree_node"*, %"class.std::__1::__tree_node"** %23, align 8
  %25 = icmp eq %"class.std::__1::__tree_node"* %24, null
  br i1 %25, label %54, label %26

26:                                               ; preds = %20
  %27 = getelementptr inbounds %"class.storage::FileSystemOperationRunner", %"class.storage::FileSystemOperationRunner"* %0, i64 0, i32 6, i32 0, i32 1, i32 0, i32 0, i32 0
  br label %28

28:                                               ; preds = %50, %26
  %29 = phi %"class.std::__1::__tree_node"* [ %53, %50 ], [ %24, %26 ]
  %30 = phi %"class.std::__1::__tree_node_base"** [ %52, %50 ], [ %27, %26 ]
  %31 = getelementptr inbounds %"class.std::__1::__tree_node", %"class.std::__1::__tree_node"* %29, i64 0, i32 1
  %32 = load i64, i64* %31, align 8
  %33 = icmp ugt i64 %32, %1
  br i1 %33, label %34, label %40

34:                                               ; preds = %28
  %35 = getelementptr inbounds %"class.std::__1::__tree_node", %"class.std::__1::__tree_node"* %29, i64 0, i32 0, i32 0, i32 0
  %36 = load %"class.std::__1::__tree_node_base"*, %"class.std::__1::__tree_node_base"** %35, align 8
  %37 = icmp eq %"class.std::__1::__tree_node_base"* %36, null
  br i1 %37, label %38, label %50

38:                                               ; preds = %34
  %39 = getelementptr inbounds %"class.std::__1::__tree_node", %"class.std::__1::__tree_node"* %29, i64 0, i32 0, i32 0
  br label %56

40:                                               ; preds = %28
  %41 = icmp ult i64 %32, %1
  br i1 %41, label %42, label %48

42:                                               ; preds = %40
  %43 = getelementptr inbounds %"class.std::__1::__tree_node", %"class.std::__1::__tree_node"* %29, i64 0, i32 0, i32 1
  %44 = load %"class.std::__1::__tree_node_base"*, %"class.std::__1::__tree_node_base"** %43, align 8
  %45 = icmp eq %"class.std::__1::__tree_node_base"* %44, null
  br i1 %45, label %46, label %50

46:                                               ; preds = %42
  %47 = getelementptr inbounds %"class.std::__1::__tree_node", %"class.std::__1::__tree_node"* %29, i64 0, i32 0, i32 0
  br label %56

48:                                               ; preds = %40
  %49 = getelementptr inbounds %"class.std::__1::__tree_node", %"class.std::__1::__tree_node"* %29, i64 0, i32 0, i32 0
  br label %56

50:                                               ; preds = %42, %34
  %51 = phi %"class.std::__1::__tree_node_base"* [ %36, %34 ], [ %44, %42 ]
  %52 = phi %"class.std::__1::__tree_node_base"** [ %35, %34 ], [ %43, %42 ]
  %53 = bitcast %"class.std::__1::__tree_node_base"* %51 to %"class.std::__1::__tree_node"*
  br label %28

54:                                               ; preds = %20
  %55 = getelementptr inbounds %"class.std::__1::__tree_end_node", %"class.std::__1::__tree_end_node"* %22, i64 0, i32 0
  br label %56

56:                                               ; preds = %54, %48, %46, %38
  %57 = phi %"class.std::__1::__tree_end_node"* [ %22, %54 ], [ %39, %38 ], [ %47, %46 ], [ %49, %48 ]
  %58 = phi %"class.std::__1::__tree_node_base"** [ %55, %54 ], [ %35, %38 ], [ %43, %46 ], [ %30, %48 ]
  %59 = bitcast %"class.std::__1::__tree_node_base"** %58 to %"class.std::__1::__tree_node"**
  %60 = load %"class.std::__1::__tree_node"*, %"class.std::__1::__tree_node"** %59, align 8
  %61 = icmp eq %"class.std::__1::__tree_node"* %60, null
  br i1 %61, label %62, label %86

62:                                               ; preds = %56
  %63 = tail call i8* @_Znwm(i64 40) #7, !noalias !70
  %64 = getelementptr inbounds i8, i8* %63, i64 32
  %65 = bitcast i8* %64 to i64*
  store i64 %1, i64* %65, align 8, !noalias !70
  %66 = bitcast i8* %63 to %"class.std::__1::__tree_node_base"*
  %67 = getelementptr inbounds i8, i8* %63, i64 16
  %68 = bitcast i8* %67 to %"class.std::__1::__tree_end_node"**
  tail call void @llvm.memset.p0i8.i64(i8* nonnull align 8 %63, i8 0, i64 16, i1 false) #6
  store %"class.std::__1::__tree_end_node"* %57, %"class.std::__1::__tree_end_node"** %68, align 8
  %69 = bitcast %"class.std::__1::__tree_node_base"** %58 to i8**
  store i8* %63, i8** %69, align 8
  %70 = getelementptr inbounds %"class.std::__1::set.172", %"class.std::__1::set.172"* %21, i64 0, i32 0, i32 0
  %71 = load %"class.std::__1::__tree_end_node"*, %"class.std::__1::__tree_end_node"** %70, align 8
  %72 = getelementptr inbounds %"class.std::__1::__tree_end_node", %"class.std::__1::__tree_end_node"* %71, i64 0, i32 0
  %73 = load %"class.std::__1::__tree_node_base"*, %"class.std::__1::__tree_node_base"** %72, align 8
  %74 = icmp eq %"class.std::__1::__tree_node_base"* %73, null
  br i1 %74, label %79, label %75

75:                                               ; preds = %62
  %76 = ptrtoint %"class.std::__1::__tree_node_base"* %73 to i64
  %77 = bitcast %"class.std::__1::set.172"* %21 to i64*
  store i64 %76, i64* %77, align 8
  %78 = load %"class.std::__1::__tree_node_base"*, %"class.std::__1::__tree_node_base"** %58, align 8
  br label %79

79:                                               ; preds = %75, %62
  %80 = phi %"class.std::__1::__tree_node_base"* [ %66, %62 ], [ %78, %75 ]
  %81 = getelementptr inbounds %"class.storage::FileSystemOperationRunner", %"class.storage::FileSystemOperationRunner"* %0, i64 0, i32 6, i32 0, i32 1, i32 0, i32 0, i32 0
  %82 = load %"class.std::__1::__tree_node_base"*, %"class.std::__1::__tree_node_base"** %81, align 8
  tail call void @_ZNSt3__127__tree_balance_after_insertIPNS_16__tree_node_baseIPvEEEEvT_S5_(%"class.std::__1::__tree_node_base"* %82, %"class.std::__1::__tree_node_base"* %80) #6
  %83 = getelementptr inbounds %"class.storage::FileSystemOperationRunner", %"class.storage::FileSystemOperationRunner"* %0, i64 0, i32 6, i32 0, i32 2, i32 0, i32 0
  %84 = load i64, i64* %83, align 8
  %85 = add i64 %84, 1
  store i64 %85, i64* %83, align 8
  br label %86

86:                                               ; preds = %56, %79
  %87 = tail call dereferenceable(8) %class.scoped_refptr.2* @_ZN4base22ThreadTaskRunnerHandle3GetEv() #6
  %88 = bitcast %class.scoped_refptr.2* %87 to %"class.base::TaskRunner"**
  %89 = load %"class.base::TaskRunner"*, %"class.base::TaskRunner"** %88, align 8
  %90 = bitcast %"class.base::Location"* %8 to i8*
  call void @llvm.lifetime.start.p0i8(i64 32, i8* nonnull %90) #6
  call void @_ZN4base8Location7CurrentEPKcS2_i(%"class.base::Location"* nonnull sret %8, i8* getelementptr inbounds ([15 x i8], [15 x i8]* @.str.2, i64 0, i64 0), i8* getelementptr inbounds ([66 x i8], [66 x i8]* @.str.1, i64 0, i64 0), i32 596) #6
  %91 = call i8* @_Znwm(i64 128) #7, !noalias !73
  %92 = bitcast i8* %91 to %"class.base::internal::BindStateBase"*
  call void @_ZN4base8internal13BindStateBaseC2EPFvvEPFvPKS1_EPFbS5_NS1_21CancellationQueryModeEE(%"class.base::internal::BindStateBase"* nonnull %92, void ()* bitcast (void (%"class.base::internal::BindStateBase"*)* @_ZN4base8internal7InvokerINS0_9BindStateIMN7storage25FileSystemOperationRunnerEFvmNS_12OnceCallbackIFvNS_4File5ErrorERKNS6_4InfoEEEES7_SA_EJNS_7WeakPtrIS4_EEmSC_S7_S8_EEEFvvEE7RunOnceEPNS0_13BindStateBaseE to void ()*), void (%"class.base::internal::BindStateBase"*)* nonnull @_ZN4base8internal9BindStateIMN7storage25FileSystemOperationRunnerEFvmNS_12OnceCallbackIFvNS_4File5ErrorERKNS5_4InfoEEEES6_S9_EJNS_7WeakPtrIS3_EEmSB_S6_S7_EE7DestroyEPKNS0_13BindStateBaseE, i1 (%"class.base::internal::BindStateBase"*, i32)* nonnull @_ZN4base8internal23QueryCancellationTraitsINS0_9BindStateIMN7storage25FileSystemOperationRunnerEFvmNS_12OnceCallbackIFvNS_4File5ErrorERKNS6_4InfoEEEES7_SA_EJNS_7WeakPtrIS4_EEmSC_S7_S8_EEEEEbPKNS0_13BindStateBaseENSI_21CancellationQueryModeE) #6, !noalias !73
  %93 = getelementptr inbounds i8, i8* %91, i64 32
  %94 = bitcast i8* %93 to <2 x i64>*
  store <2 x i64> <i64 ptrtoint (void (%"class.storage::FileSystemOperationRunner"*, i64, %"class.base::OnceCallback.202"*, i32, %"struct.base::File::Info"*)* @_ZN7storage25FileSystemOperationRunner14DidGetMetadataEmN4base12OnceCallbackIFvNS1_4File5ErrorERKNS3_4InfoEEEES4_S7_ to i64), i64 0>, <2 x i64>* %94, align 8, !noalias !73
  %95 = getelementptr inbounds i8, i8* %91, i64 48
  %96 = bitcast i8* %95 to %"class.base::internal::WeakReference"*
  %97 = getelementptr inbounds %"class.storage::FileSystemOperationRunner", %"class.storage::FileSystemOperationRunner"* %0, i64 0, i32 8, i32 0, i32 0
  call void @_ZN4base8internal13WeakReferenceC1ERKS1_(%"class.base::internal::WeakReference"* %96, %"class.base::internal::WeakReference"* dereferenceable(8) %97) #6, !noalias !73
  %98 = getelementptr inbounds i8, i8* %91, i64 56
  %99 = bitcast i8* %98 to i64*
  %100 = getelementptr inbounds %"class.storage::FileSystemOperationRunner", %"class.storage::FileSystemOperationRunner"* %0, i64 0, i32 8, i32 0, i32 1
  %101 = load i64, i64* %100, align 8, !noalias !73
  store i64 %101, i64* %99, align 8, !noalias !73
  %102 = getelementptr inbounds i8, i8* %91, i64 64
  %103 = bitcast i8* %102 to i64*
  store i64 %1, i64* %103, align 8, !noalias !73
  %104 = getelementptr inbounds i8, i8* %91, i64 72
  %105 = getelementptr inbounds %"class.base::OnceCallback.202", %"class.base::OnceCallback.202"* %2, i64 0, i32 0, i32 0, i32 0
  %106 = bitcast %"class.base::OnceCallback.202"* %2 to i64*
  %107 = load i64, i64* %106, align 8, !noalias !73
  %108 = bitcast i8* %104 to i64*
  store i64 %107, i64* %108, align 8, !noalias !73
  store %"class.base::internal::BindStateBase"* null, %"class.base::internal::BindStateBase"** %105, align 8, !noalias !73
  %109 = getelementptr inbounds i8, i8* %91, i64 80
  %110 = bitcast i8* %109 to i32*
  store i32 %3, i32* %110, align 4, !noalias !73
  %111 = getelementptr inbounds i8, i8* %91, i64 88
  %112 = bitcast %"struct.base::File::Info"* %4 to i8*
  call void @llvm.memcpy.p0i8.p0i8.i64(i8* align 8 %111, i8* align 8 %112, i64 40, i1 false) #6, !noalias !73
  %113 = bitcast %"class.base::OnceCallback.315"* %9 to i8**
  store i8* %91, i8** %113, align 8, !alias.scope !73
  %114 = call zeroext i1 @_ZN4base10TaskRunner8PostTaskERKNS_8LocationENS_12OnceCallbackIFvvEEE(%"class.base::TaskRunner"* %89, %"class.base::Location"* nonnull dereferenceable(32) %8, %"class.base::OnceCallback.315"* nonnull %9) #6
  %115 = getelementptr inbounds %"class.base::OnceCallback.315", %"class.base::OnceCallback.315"* %9, i64 0, i32 0
  call void @_ZN4base8internal12CallbackBaseD2Ev(%"class.base::internal::CallbackBase"* nonnull %115) #6
  call void @llvm.lifetime.end.p0i8(i64 32, i8* nonnull %90) #6
  br label %127

116:                                              ; preds = %16
  %117 = bitcast %"class.base::OnceCallback.202"* %6 to i8*
  call void @llvm.lifetime.start.p0i8(i64 8, i8* nonnull %117) #6
  %118 = getelementptr inbounds %"class.base::OnceCallback.202", %"class.base::OnceCallback.202"* %2, i64 0, i32 0, i32 0, i32 0
  %119 = bitcast %"class.base::OnceCallback.202"* %2 to i64*
  %120 = load i64, i64* %119, align 8
  %121 = bitcast %"class.base::OnceCallback.202"* %6 to i64*
  store i64 %120, i64* %121, align 8
  store %"class.base::internal::BindStateBase"* null, %"class.base::internal::BindStateBase"** %118, align 8
  %122 = getelementptr inbounds %"class.base::OnceCallback.202", %"class.base::OnceCallback.202"* %6, i64 0, i32 0
  %123 = inttoptr i64 %120 to %"class.base::internal::BindStateBase"*
  %124 = getelementptr inbounds %"class.base::internal::BindStateBase", %"class.base::internal::BindStateBase"* %123, i64 0, i32 1
  %125 = bitcast void ()** %124 to void (%"class.base::internal::BindStateBase"*, i32, %"struct.base::File::Info"*)**
  %126 = load void (%"class.base::internal::BindStateBase"*, i32, %"struct.base::File::Info"*)*, void (%"class.base::internal::BindStateBase"*, i32, %"struct.base::File::Info"*)** %125, align 8
  tail call void %126(%"class.base::internal::BindStateBase"* %123, i32 %3, %"struct.base::File::Info"* dereferenceable(40) %4) #6
  call void @_ZN4base8internal12CallbackBaseD2Ev(%"class.base::internal::CallbackBase"* nonnull %122) #6
  call void @llvm.lifetime.end.p0i8(i64 8, i8* nonnull %117) #6
  call void @_ZN7storage25FileSystemOperationRunner15FinishOperationEm(%"class.storage::FileSystemOperationRunner"* %0, i64 %1)
  br label %127

127:                                              ; preds = %116, %86
  br i1 %12, label %147, label %128

128:                                              ; preds = %127
  %129 = getelementptr inbounds %"class.storage::FileSystemContext", %"class.storage::FileSystemContext"* %11, i64 0, i32 0, i32 0, i32 0, i32 0, i32 0, i32 0, i32 0, i32 0, i32 0
  %130 = atomicrmw sub i32* %129, i32 1 acq_rel
  %131 = icmp eq i32 %130, 1
  br i1 %131, label %132, label %147

132:                                              ; preds = %128
  %133 = getelementptr inbounds %"class.storage::FileSystemContext", %"class.storage::FileSystemContext"* %11, i64 0, i32 0, i32 1, i32 0
  %134 = load %"class.base::SequencedTaskRunner"*, %"class.base::SequencedTaskRunner"** %133, align 8
  %135 = bitcast %"class.base::SequencedTaskRunner"* %134 to i1 (%"class.base::SequencedTaskRunner"*)***
  %136 = load i1 (%"class.base::SequencedTaskRunner"*)**, i1 (%"class.base::SequencedTaskRunner"*)*** %135, align 8
  %137 = getelementptr inbounds i1 (%"class.base::SequencedTaskRunner"*)*, i1 (%"class.base::SequencedTaskRunner"*)** %136, i64 5
  %138 = load i1 (%"class.base::SequencedTaskRunner"*)*, i1 (%"class.base::SequencedTaskRunner"*)** %137, align 8
  %139 = call zeroext i1 %138(%"class.base::SequencedTaskRunner"* %134) #6
  br i1 %139, label %140, label %142

140:                                              ; preds = %132
  call void @_ZN7storage17FileSystemContextD1Ev(%"class.storage::FileSystemContext"* nonnull %11) #6
  %141 = bitcast %"class.storage::FileSystemContext"* %11 to i8*
  call void @_ZdlPv(i8* %141) #7
  br label %147

142:                                              ; preds = %132
  %143 = load %"class.base::SequencedTaskRunner"*, %"class.base::SequencedTaskRunner"** %133, align 8
  %144 = bitcast %"class.base::Location"* %7 to i8*
  call void @llvm.lifetime.start.p0i8(i64 32, i8* nonnull %144) #6
  call void @_ZN4base8Location7CurrentEPKcS2_i(%"class.base::Location"* nonnull sret %7, i8* getelementptr inbounds ([19 x i8], [19 x i8]* @.str.11, i64 0, i64 0), i8* getelementptr inbounds ([51 x i8], [51 x i8]* @.str.12, i64 0, i64 0), i32 72) #6
  %145 = bitcast %"class.storage::FileSystemContext"* %11 to i8*
  %146 = call zeroext i1 @_ZN4base19SequencedTaskRunner27DeleteOrReleaseSoonInternalERKNS_8LocationEPFvPKvES5_(%"class.base::SequencedTaskRunner"* %143, %"class.base::Location"* nonnull dereferenceable(32) %7, void (i8*)* nonnull @_ZN4base12DeleteHelperIN7storage17FileSystemContextEE8DoDeleteEPKv, i8* nonnull %145) #6
  call void @llvm.lifetime.end.p0i8(i64 32, i8* nonnull %144) #6
  br label %147

147:                                              ; preds = %127, %128, %140, %142
  ret void
}

declare void @_ZN4base4File4InfoC1Ev(%"struct.base::File::Info"*) unnamed_addr #4

; Function Attrs: nounwind
declare void @_ZN4base4File4InfoD1Ev(%"struct.base::File::Info"*) unnamed_addr #1

; Function Attrs: nounwind ssp uwtable
define hidden i64 @_ZN7storage25FileSystemOperationRunner13ReadDirectoryERKNS_13FileSystemURLERKN4base17RepeatingCallbackIFvNS4_4File5ErrorENSt3__16vectorIN10filesystem5mojom14DirectoryEntryENS8_9allocatorISC_EEEEbEEE(%"class.storage::FileSystemOperationRunner"*, %"class.storage::FileSystemURL"* dereferenceable(208), %"class.base::RepeatingCallback.203"* dereferenceable(8)) local_unnamed_addr #0 align 2 {
  %4 = alloca i32, align 4
  %5 = alloca %"class.std::__1::vector.204", align 8
  %6 = alloca %"class.base::RepeatingCallback.203", align 8
  %7 = bitcast i32* %4 to i8*
  call void @llvm.lifetime.start.p0i8(i64 4, i8* nonnull %7) #6
  store i32 0, i32* %4, align 4
  %8 = getelementptr inbounds %"class.storage::FileSystemOperationRunner", %"class.storage::FileSystemOperationRunner"* %0, i64 0, i32 1
  %9 = load %"class.storage::FileSystemContext"*, %"class.storage::FileSystemContext"** %8, align 8
  %10 = call %"class.storage::FileSystemOperation"* @_ZN7storage17FileSystemContext25CreateFileSystemOperationERKNS_13FileSystemURLEPN4base4File5ErrorE(%"class.storage::FileSystemContext"* %9, %"class.storage::FileSystemURL"* dereferenceable(208) %1, i32* nonnull %4) #6
  %11 = call i64 @_ZN7storage25FileSystemOperationRunner14BeginOperationENSt3__110unique_ptrINS_19FileSystemOperationENS1_14default_deleteIS3_EEEE(%"class.storage::FileSystemOperationRunner"* %0, %"class.storage::FileSystemOperation"* %10)
  %12 = getelementptr inbounds %"class.storage::FileSystemOperationRunner", %"class.storage::FileSystemOperationRunner"* %0, i64 0, i32 4
  %13 = load i8, i8* %12, align 1, !range !5
  store i8 1, i8* %12, align 1
  %14 = icmp eq %"class.storage::FileSystemOperation"* %10, null
  br i1 %14, label %15, label %31

15:                                               ; preds = %3
  %16 = load i32, i32* %4, align 4
  %17 = bitcast %"class.std::__1::vector.204"* %5 to i8*
  call void @llvm.memset.p0i8.i64(i8* nonnull align 8 %17, i8 0, i64 24, i1 false) #6
  call void @_ZN7storage25FileSystemOperationRunner16DidReadDirectoryEmRKN4base17RepeatingCallbackIFvNS1_4File5ErrorENSt3__16vectorIN10filesystem5mojom14DirectoryEntryENS5_9allocatorIS9_EEEEbEEES4_SC_b(%"class.storage::FileSystemOperationRunner"* %0, i64 %11, %"class.base::RepeatingCallback.203"* dereferenceable(8) %2, i32 %16, %"class.std::__1::vector.204"* nonnull %5, i1 zeroext false)
  %18 = getelementptr inbounds %"class.std::__1::vector.204", %"class.std::__1::vector.204"* %5, i64 0, i32 0, i32 0
  %19 = load %"class.filesystem::mojom::DirectoryEntry"*, %"class.filesystem::mojom::DirectoryEntry"** %18, align 8
  %20 = icmp eq %"class.filesystem::mojom::DirectoryEntry"* %19, null
  %21 = bitcast %"class.filesystem::mojom::DirectoryEntry"* %19 to i8*
  br i1 %20, label %65, label %22

22:                                               ; preds = %15
  %23 = getelementptr inbounds %"class.std::__1::vector.204", %"class.std::__1::vector.204"* %5, i64 0, i32 0, i32 1
  %24 = load %"class.filesystem::mojom::DirectoryEntry"*, %"class.filesystem::mojom::DirectoryEntry"** %23, align 8
  %25 = icmp eq %"class.filesystem::mojom::DirectoryEntry"* %24, %19
  br i1 %25, label %30, label %26

26:                                               ; preds = %22, %26
  %27 = phi %"class.filesystem::mojom::DirectoryEntry"* [ %28, %26 ], [ %24, %22 ]
  %28 = getelementptr inbounds %"class.filesystem::mojom::DirectoryEntry", %"class.filesystem::mojom::DirectoryEntry"* %27, i64 -1
  call void @_ZN10filesystem5mojom14DirectoryEntryD1Ev(%"class.filesystem::mojom::DirectoryEntry"* %28) #6
  %29 = icmp eq %"class.filesystem::mojom::DirectoryEntry"* %28, %19
  br i1 %29, label %30, label %26

30:                                               ; preds = %26, %22
  store %"class.filesystem::mojom::DirectoryEntry"* %19, %"class.filesystem::mojom::DirectoryEntry"** %23, align 8
  call void @_ZdlPv(i8* %21) #7
  br label %65

31:                                               ; preds = %3
  %32 = load %"class.storage::FileSystemContext"*, %"class.storage::FileSystemContext"** %8, align 8
  %33 = getelementptr inbounds %"class.storage::FileSystemURL", %"class.storage::FileSystemURL"* %1, i64 0, i32 8
  %34 = load i32, i32* %33, align 8
  %35 = call %"class.storage::TaskRunnerBoundObserverList.350"* @_ZNK7storage17FileSystemContext18GetAccessObserversENS_14FileSystemTypeE(%"class.storage::FileSystemContext"* %32, i32 %34) #6
  %36 = icmp eq %"class.storage::TaskRunnerBoundObserverList.350"* %35, null
  br i1 %36, label %41, label %37

37:                                               ; preds = %31
  %38 = load %"class.storage::FileSystemContext"*, %"class.storage::FileSystemContext"** %8, align 8
  %39 = load i32, i32* %33, align 8
  %40 = call %"class.storage::TaskRunnerBoundObserverList.350"* @_ZNK7storage17FileSystemContext18GetAccessObserversENS_14FileSystemTypeE(%"class.storage::FileSystemContext"* %38, i32 %39) #6
  call void @_ZNK7storage27TaskRunnerBoundObserverListINS_18FileAccessObserverEE6NotifyIMS1_FvRKNS_13FileSystemURLEEJS6_EEEvT_DpOT0_(%"class.storage::TaskRunnerBoundObserverList.350"* %40, i64 17, i64 0, %"class.storage::FileSystemURL"* dereferenceable(208) %1) #6
  br label %41

41:                                               ; preds = %31, %37
  %42 = bitcast %"class.base::RepeatingCallback.203"* %6 to i8*
  call void @llvm.lifetime.start.p0i8(i64 8, i8* nonnull %42) #6
  %43 = call i8* @_Znwm(i64 80) #7, !noalias !78
  %44 = bitcast i8* %43 to %"class.base::internal::BindStateBase"*
  call void @_ZN4base8internal13BindStateBaseC2EPFvvEPFvPKS1_EPFbS5_NS1_21CancellationQueryModeEE(%"class.base::internal::BindStateBase"* nonnull %44, void ()* bitcast (void (%"class.base::internal::BindStateBase"*, i32, %"class.std::__1::vector.204"*, i1)* @_ZN4base8internal7InvokerINS0_9BindStateIMN7storage25FileSystemOperationRunnerEFvmRKNS_17RepeatingCallbackIFvNS_4File5ErrorENSt3__16vectorIN10filesystem5mojom14DirectoryEntryENS8_9allocatorISC_EEEEbEEES7_SF_bEJNS_7WeakPtrIS4_EEmSH_EEESG_E3RunEPNS0_13BindStateBaseES7_OSF_b to void ()*), void (%"class.base::internal::BindStateBase"*)* nonnull @_ZN4base8internal9BindStateIMN7storage25FileSystemOperationRunnerEFvmRKNS_17RepeatingCallbackIFvNS_4File5ErrorENSt3__16vectorIN10filesystem5mojom14DirectoryEntryENS7_9allocatorISB_EEEEbEEES6_SE_bEJNS_7WeakPtrIS3_EEmSG_EE7DestroyEPKNS0_13BindStateBaseE, i1 (%"class.base::internal::BindStateBase"*, i32)* nonnull @_ZN4base8internal23QueryCancellationTraitsINS0_9BindStateIMN7storage25FileSystemOperationRunnerEFvmRKNS_17RepeatingCallbackIFvNS_4File5ErrorENSt3__16vectorIN10filesystem5mojom14DirectoryEntryENS8_9allocatorISC_EEEEbEEES7_SF_bEJNS_7WeakPtrIS4_EEmSH_EEEEEbPKNS0_13BindStateBaseENSP_21CancellationQueryModeE) #6, !noalias !78
  %45 = getelementptr inbounds i8, i8* %43, i64 32
  %46 = bitcast i8* %45 to <2 x i64>*
  store <2 x i64> <i64 ptrtoint (void (%"class.storage::FileSystemOperationRunner"*, i64, %"class.base::RepeatingCallback.203"*, i32, %"class.std::__1::vector.204"*, i1)* @_ZN7storage25FileSystemOperationRunner16DidReadDirectoryEmRKN4base17RepeatingCallbackIFvNS1_4File5ErrorENSt3__16vectorIN10filesystem5mojom14DirectoryEntryENS5_9allocatorIS9_EEEEbEEES4_SC_b to i64), i64 0>, <2 x i64>* %46, align 8, !noalias !78
  %47 = getelementptr inbounds i8, i8* %43, i64 48
  %48 = bitcast i8* %47 to %"class.base::internal::WeakReference"*
  %49 = getelementptr inbounds %"class.storage::FileSystemOperationRunner", %"class.storage::FileSystemOperationRunner"* %0, i64 0, i32 8, i32 0, i32 0
  call void @_ZN4base8internal13WeakReferenceC1ERKS1_(%"class.base::internal::WeakReference"* %48, %"class.base::internal::WeakReference"* dereferenceable(8) %49) #6, !noalias !78
  %50 = getelementptr inbounds i8, i8* %43, i64 56
  %51 = bitcast i8* %50 to i64*
  %52 = getelementptr inbounds %"class.storage::FileSystemOperationRunner", %"class.storage::FileSystemOperationRunner"* %0, i64 0, i32 8, i32 0, i32 1
  %53 = load i64, i64* %52, align 8, !noalias !78
  store i64 %53, i64* %51, align 8, !noalias !78
  %54 = getelementptr inbounds i8, i8* %43, i64 64
  %55 = bitcast i8* %54 to i64*
  store i64 %11, i64* %55, align 8, !noalias !78
  %56 = getelementptr inbounds i8, i8* %43, i64 72
  %57 = bitcast i8* %56 to %"class.base::internal::CallbackBaseCopyable"*
  %58 = getelementptr inbounds %"class.base::RepeatingCallback.203", %"class.base::RepeatingCallback.203"* %2, i64 0, i32 0
  call void @_ZN4base8internal20CallbackBaseCopyableC2ERKS1_(%"class.base::internal::CallbackBaseCopyable"* %57, %"class.base::internal::CallbackBaseCopyable"* dereferenceable(8) %58) #6, !noalias !78
  %59 = bitcast %"class.base::RepeatingCallback.203"* %6 to i8**
  store i8* %43, i8** %59, align 8, !alias.scope !78
  %60 = bitcast %"class.storage::FileSystemOperation"* %10 to void (%"class.storage::FileSystemOperation"*, %"class.storage::FileSystemURL"*, %"class.base::RepeatingCallback.203"*)***
  %61 = load void (%"class.storage::FileSystemOperation"*, %"class.storage::FileSystemURL"*, %"class.base::RepeatingCallback.203"*)**, void (%"class.storage::FileSystemOperation"*, %"class.storage::FileSystemURL"*, %"class.base::RepeatingCallback.203"*)*** %60, align 8
  %62 = getelementptr inbounds void (%"class.storage::FileSystemOperation"*, %"class.storage::FileSystemURL"*, %"class.base::RepeatingCallback.203"*)*, void (%"class.storage::FileSystemOperation"*, %"class.storage::FileSystemURL"*, %"class.base::RepeatingCallback.203"*)** %61, i64 9
  %63 = load void (%"class.storage::FileSystemOperation"*, %"class.storage::FileSystemURL"*, %"class.base::RepeatingCallback.203"*)*, void (%"class.storage::FileSystemOperation"*, %"class.storage::FileSystemURL"*, %"class.base::RepeatingCallback.203"*)** %62, align 8
  call void %63(%"class.storage::FileSystemOperation"* nonnull %10, %"class.storage::FileSystemURL"* dereferenceable(208) %1, %"class.base::RepeatingCallback.203"* nonnull dereferenceable(8) %6) #6
  %64 = getelementptr inbounds %"class.base::RepeatingCallback.203", %"class.base::RepeatingCallback.203"* %6, i64 0, i32 0, i32 0
  call void @_ZN4base8internal12CallbackBaseD2Ev(%"class.base::internal::CallbackBase"* nonnull %64) #6
  call void @llvm.lifetime.end.p0i8(i64 8, i8* nonnull %42) #6
  br label %65

65:                                               ; preds = %30, %15, %41
  %66 = icmp eq i8* %12, null
  br i1 %66, label %68, label %67

67:                                               ; preds = %65
  store i8 %13, i8* %12, align 1
  br label %68

68:                                               ; preds = %67, %65
  call void @llvm.lifetime.end.p0i8(i64 4, i8* nonnull %7) #6
  ret i64 %11
}

; Function Attrs: nounwind ssp uwtable
define hidden void @_ZN7storage25FileSystemOperationRunner16DidReadDirectoryEmRKN4base17RepeatingCallbackIFvNS1_4File5ErrorENSt3__16vectorIN10filesystem5mojom14DirectoryEntryENS5_9allocatorIS9_EEEEbEEES4_SC_b(%"class.storage::FileSystemOperationRunner"*, i64, %"class.base::RepeatingCallback.203"* dereferenceable(8), i32, %"class.std::__1::vector.204"* nocapture, i1 zeroext) #0 align 2 {
  %7 = alloca %"class.base::Location", align 8
  %8 = alloca %"class.base::Location", align 8
  %9 = alloca %"class.base::OnceCallback.315", align 8
  %10 = alloca %"class.std::__1::vector.204", align 16
  %11 = zext i1 %5 to i8
  %12 = getelementptr inbounds %"class.storage::FileSystemOperationRunner", %"class.storage::FileSystemOperationRunner"* %0, i64 0, i32 1
  %13 = load %"class.storage::FileSystemContext"*, %"class.storage::FileSystemContext"** %12, align 8
  %14 = icmp eq %"class.storage::FileSystemContext"* %13, null
  br i1 %14, label %18, label %15

15:                                               ; preds = %6
  %16 = getelementptr inbounds %"class.storage::FileSystemContext", %"class.storage::FileSystemContext"* %13, i64 0, i32 0, i32 0, i32 0, i32 0, i32 0, i32 0, i32 0, i32 0, i32 0
  %17 = atomicrmw add i32* %16, i32 1 monotonic
  br label %18

18:                                               ; preds = %6, %15
  %19 = getelementptr inbounds %"class.storage::FileSystemOperationRunner", %"class.storage::FileSystemOperationRunner"* %0, i64 0, i32 4
  %20 = load i8, i8* %19, align 8, !range !5
  %21 = icmp eq i8 %20, 0
  br i1 %21, label %125, label %22

22:                                               ; preds = %18
  %23 = getelementptr inbounds %"class.storage::FileSystemOperationRunner", %"class.storage::FileSystemOperationRunner"* %0, i64 0, i32 6
  %24 = getelementptr inbounds %"class.storage::FileSystemOperationRunner", %"class.storage::FileSystemOperationRunner"* %0, i64 0, i32 6, i32 0, i32 1, i32 0, i32 0
  %25 = bitcast %"class.std::__1::__tree_end_node"* %24 to %"class.std::__1::__tree_node"**
  %26 = load %"class.std::__1::__tree_node"*, %"class.std::__1::__tree_node"** %25, align 8
  %27 = icmp eq %"class.std::__1::__tree_node"* %26, null
  br i1 %27, label %56, label %28

28:                                               ; preds = %22
  %29 = getelementptr inbounds %"class.storage::FileSystemOperationRunner", %"class.storage::FileSystemOperationRunner"* %0, i64 0, i32 6, i32 0, i32 1, i32 0, i32 0, i32 0
  br label %30

30:                                               ; preds = %52, %28
  %31 = phi %"class.std::__1::__tree_node"* [ %55, %52 ], [ %26, %28 ]
  %32 = phi %"class.std::__1::__tree_node_base"** [ %54, %52 ], [ %29, %28 ]
  %33 = getelementptr inbounds %"class.std::__1::__tree_node", %"class.std::__1::__tree_node"* %31, i64 0, i32 1
  %34 = load i64, i64* %33, align 8
  %35 = icmp ugt i64 %34, %1
  br i1 %35, label %36, label %42

36:                                               ; preds = %30
  %37 = getelementptr inbounds %"class.std::__1::__tree_node", %"class.std::__1::__tree_node"* %31, i64 0, i32 0, i32 0, i32 0
  %38 = load %"class.std::__1::__tree_node_base"*, %"class.std::__1::__tree_node_base"** %37, align 8
  %39 = icmp eq %"class.std::__1::__tree_node_base"* %38, null
  br i1 %39, label %40, label %52

40:                                               ; preds = %36
  %41 = getelementptr inbounds %"class.std::__1::__tree_node", %"class.std::__1::__tree_node"* %31, i64 0, i32 0, i32 0
  br label %58

42:                                               ; preds = %30
  %43 = icmp ult i64 %34, %1
  br i1 %43, label %44, label %50

44:                                               ; preds = %42
  %45 = getelementptr inbounds %"class.std::__1::__tree_node", %"class.std::__1::__tree_node"* %31, i64 0, i32 0, i32 1
  %46 = load %"class.std::__1::__tree_node_base"*, %"class.std::__1::__tree_node_base"** %45, align 8
  %47 = icmp eq %"class.std::__1::__tree_node_base"* %46, null
  br i1 %47, label %48, label %52

48:                                               ; preds = %44
  %49 = getelementptr inbounds %"class.std::__1::__tree_node", %"class.std::__1::__tree_node"* %31, i64 0, i32 0, i32 0
  br label %58

50:                                               ; preds = %42
  %51 = getelementptr inbounds %"class.std::__1::__tree_node", %"class.std::__1::__tree_node"* %31, i64 0, i32 0, i32 0
  br label %58

52:                                               ; preds = %44, %36
  %53 = phi %"class.std::__1::__tree_node_base"* [ %38, %36 ], [ %46, %44 ]
  %54 = phi %"class.std::__1::__tree_node_base"** [ %37, %36 ], [ %45, %44 ]
  %55 = bitcast %"class.std::__1::__tree_node_base"* %53 to %"class.std::__1::__tree_node"*
  br label %30

56:                                               ; preds = %22
  %57 = getelementptr inbounds %"class.std::__1::__tree_end_node", %"class.std::__1::__tree_end_node"* %24, i64 0, i32 0
  br label %58

58:                                               ; preds = %56, %50, %48, %40
  %59 = phi %"class.std::__1::__tree_end_node"* [ %24, %56 ], [ %41, %40 ], [ %49, %48 ], [ %51, %50 ]
  %60 = phi %"class.std::__1::__tree_node_base"** [ %57, %56 ], [ %37, %40 ], [ %45, %48 ], [ %32, %50 ]
  %61 = bitcast %"class.std::__1::__tree_node_base"** %60 to %"class.std::__1::__tree_node"**
  %62 = load %"class.std::__1::__tree_node"*, %"class.std::__1::__tree_node"** %61, align 8
  %63 = icmp eq %"class.std::__1::__tree_node"* %62, null
  br i1 %63, label %64, label %88

64:                                               ; preds = %58
  %65 = tail call i8* @_Znwm(i64 40) #7, !noalias !83
  %66 = getelementptr inbounds i8, i8* %65, i64 32
  %67 = bitcast i8* %66 to i64*
  store i64 %1, i64* %67, align 8, !noalias !83
  %68 = bitcast i8* %65 to %"class.std::__1::__tree_node_base"*
  %69 = getelementptr inbounds i8, i8* %65, i64 16
  %70 = bitcast i8* %69 to %"class.std::__1::__tree_end_node"**
  tail call void @llvm.memset.p0i8.i64(i8* nonnull align 8 %65, i8 0, i64 16, i1 false) #6
  store %"class.std::__1::__tree_end_node"* %59, %"class.std::__1::__tree_end_node"** %70, align 8
  %71 = bitcast %"class.std::__1::__tree_node_base"** %60 to i8**
  store i8* %65, i8** %71, align 8
  %72 = getelementptr inbounds %"class.std::__1::set.172", %"class.std::__1::set.172"* %23, i64 0, i32 0, i32 0
  %73 = load %"class.std::__1::__tree_end_node"*, %"class.std::__1::__tree_end_node"** %72, align 8
  %74 = getelementptr inbounds %"class.std::__1::__tree_end_node", %"class.std::__1::__tree_end_node"* %73, i64 0, i32 0
  %75 = load %"class.std::__1::__tree_node_base"*, %"class.std::__1::__tree_node_base"** %74, align 8
  %76 = icmp eq %"class.std::__1::__tree_node_base"* %75, null
  br i1 %76, label %81, label %77

77:                                               ; preds = %64
  %78 = ptrtoint %"class.std::__1::__tree_node_base"* %75 to i64
  %79 = bitcast %"class.std::__1::set.172"* %23 to i64*
  store i64 %78, i64* %79, align 8
  %80 = load %"class.std::__1::__tree_node_base"*, %"class.std::__1::__tree_node_base"** %60, align 8
  br label %81

81:                                               ; preds = %77, %64
  %82 = phi %"class.std::__1::__tree_node_base"* [ %68, %64 ], [ %80, %77 ]
  %83 = getelementptr inbounds %"class.storage::FileSystemOperationRunner", %"class.storage::FileSystemOperationRunner"* %0, i64 0, i32 6, i32 0, i32 1, i32 0, i32 0, i32 0
  %84 = load %"class.std::__1::__tree_node_base"*, %"class.std::__1::__tree_node_base"** %83, align 8
  tail call void @_ZNSt3__127__tree_balance_after_insertIPNS_16__tree_node_baseIPvEEEEvT_S5_(%"class.std::__1::__tree_node_base"* %84, %"class.std::__1::__tree_node_base"* %82) #6
  %85 = getelementptr inbounds %"class.storage::FileSystemOperationRunner", %"class.storage::FileSystemOperationRunner"* %0, i64 0, i32 6, i32 0, i32 2, i32 0, i32 0
  %86 = load i64, i64* %85, align 8
  %87 = add i64 %86, 1
  store i64 %87, i64* %85, align 8
  br label %88

88:                                               ; preds = %58, %81
  %89 = tail call dereferenceable(8) %class.scoped_refptr.2* @_ZN4base22ThreadTaskRunnerHandle3GetEv() #6
  %90 = bitcast %class.scoped_refptr.2* %89 to %"class.base::TaskRunner"**
  %91 = load %"class.base::TaskRunner"*, %"class.base::TaskRunner"** %90, align 8
  %92 = bitcast %"class.base::Location"* %8 to i8*
  call void @llvm.lifetime.start.p0i8(i64 32, i8* nonnull %92) #6
  call void @_ZN4base8Location7CurrentEPKcS2_i(%"class.base::Location"* nonnull sret %8, i8* getelementptr inbounds ([17 x i8], [17 x i8]* @.str.3, i64 0, i64 0), i8* getelementptr inbounds ([66 x i8], [66 x i8]* @.str.1, i64 0, i64 0), i32 619) #6
  %93 = call i8* @_Znwm(i64 120) #7, !noalias !86
  %94 = bitcast i8* %93 to %"class.base::internal::BindStateBase"*
  call void @_ZN4base8internal13BindStateBaseC2EPFvvEPFvPKS1_EPFbS5_NS1_21CancellationQueryModeEE(%"class.base::internal::BindStateBase"* nonnull %94, void ()* bitcast (void (%"class.base::internal::BindStateBase"*)* @_ZN4base8internal7InvokerINS0_9BindStateIMN7storage25FileSystemOperationRunnerEFvmRKNS_17RepeatingCallbackIFvNS_4File5ErrorENSt3__16vectorIN10filesystem5mojom14DirectoryEntryENS8_9allocatorISC_EEEEbEEES7_SF_bEJNS_7WeakPtrIS4_EEmSH_S7_SF_bEEEFvvEE7RunOnceEPNS0_13BindStateBaseE to void ()*), void (%"class.base::internal::BindStateBase"*)* nonnull @_ZN4base8internal9BindStateIMN7storage25FileSystemOperationRunnerEFvmRKNS_17RepeatingCallbackIFvNS_4File5ErrorENSt3__16vectorIN10filesystem5mojom14DirectoryEntryENS7_9allocatorISB_EEEEbEEES6_SE_bEJNS_7WeakPtrIS3_EEmSG_S6_SE_bEE7DestroyEPKNS0_13BindStateBaseE, i1 (%"class.base::internal::BindStateBase"*, i32)* nonnull @_ZN4base8internal23QueryCancellationTraitsINS0_9BindStateIMN7storage25FileSystemOperationRunnerEFvmRKNS_17RepeatingCallbackIFvNS_4File5ErrorENSt3__16vectorIN10filesystem5mojom14DirectoryEntryENS8_9allocatorISC_EEEEbEEES7_SF_bEJNS_7WeakPtrIS4_EEmSH_S7_SF_bEEEEEbPKNS0_13BindStateBaseENSP_21CancellationQueryModeE) #6, !noalias !86
  %95 = getelementptr inbounds i8, i8* %93, i64 32
  %96 = bitcast i8* %95 to <2 x i64>*
  store <2 x i64> <i64 ptrtoint (void (%"class.storage::FileSystemOperationRunner"*, i64, %"class.base::RepeatingCallback.203"*, i32, %"class.std::__1::vector.204"*, i1)* @_ZN7storage25FileSystemOperationRunner16DidReadDirectoryEmRKN4base17RepeatingCallbackIFvNS1_4File5ErrorENSt3__16vectorIN10filesystem5mojom14DirectoryEntryENS5_9allocatorIS9_EEEEbEEES4_SC_b to i64), i64 0>, <2 x i64>* %96, align 8, !noalias !86
  %97 = getelementptr inbounds i8, i8* %93, i64 48
  %98 = bitcast i8* %97 to %"class.base::internal::WeakReference"*
  %99 = getelementptr inbounds %"class.storage::FileSystemOperationRunner", %"class.storage::FileSystemOperationRunner"* %0, i64 0, i32 8, i32 0, i32 0
  call void @_ZN4base8internal13WeakReferenceC1ERKS1_(%"class.base::internal::WeakReference"* %98, %"class.base::internal::WeakReference"* dereferenceable(8) %99) #6, !noalias !86
  %100 = getelementptr inbounds i8, i8* %93, i64 56
  %101 = bitcast i8* %100 to i64*
  %102 = getelementptr inbounds %"class.storage::FileSystemOperationRunner", %"class.storage::FileSystemOperationRunner"* %0, i64 0, i32 8, i32 0, i32 1
  %103 = load i64, i64* %102, align 8, !noalias !86
  store i64 %103, i64* %101, align 8, !noalias !86
  %104 = getelementptr inbounds i8, i8* %93, i64 64
  %105 = bitcast i8* %104 to i64*
  store i64 %1, i64* %105, align 8, !noalias !86
  %106 = getelementptr inbounds i8, i8* %93, i64 72
  %107 = bitcast i8* %106 to %"class.base::internal::CallbackBaseCopyable"*
  %108 = getelementptr inbounds %"class.base::RepeatingCallback.203", %"class.base::RepeatingCallback.203"* %2, i64 0, i32 0
  call void @_ZN4base8internal20CallbackBaseCopyableC2ERKS1_(%"class.base::internal::CallbackBaseCopyable"* %107, %"class.base::internal::CallbackBaseCopyable"* dereferenceable(8) %108) #6, !noalias !86
  %109 = getelementptr inbounds i8, i8* %93, i64 80
  %110 = bitcast i8* %109 to i32*
  store i32 %3, i32* %110, align 4, !noalias !86
  %111 = getelementptr inbounds i8, i8* %93, i64 88
  %112 = bitcast %"class.std::__1::vector.204"* %4 to <2 x i64>*
  %113 = load <2 x i64>, <2 x i64>* %112, align 8, !noalias !86
  %114 = bitcast i8* %111 to <2 x i64>*
  store <2 x i64> %113, <2 x i64>* %114, align 8, !noalias !86
  %115 = getelementptr inbounds %"class.std::__1::vector.204", %"class.std::__1::vector.204"* %4, i64 0, i32 0, i32 2, i32 0, i32 0
  %116 = bitcast %"class.filesystem::mojom::DirectoryEntry"** %115 to i64*
  %117 = load i64, i64* %116, align 8, !noalias !86
  %118 = getelementptr inbounds i8, i8* %93, i64 104
  %119 = bitcast i8* %118 to i64*
  store i64 %117, i64* %119, align 8, !noalias !86
  %120 = bitcast %"class.std::__1::vector.204"* %4 to i8*
  call void @llvm.memset.p0i8.i64(i8* align 8 %120, i8 0, i64 24, i1 false) #6, !noalias !86
  %121 = getelementptr inbounds i8, i8* %93, i64 112
  store i8 %11, i8* %121, align 1, !noalias !86
  %122 = bitcast %"class.base::OnceCallback.315"* %9 to i8**
  store i8* %93, i8** %122, align 8, !alias.scope !86
  %123 = call zeroext i1 @_ZN4base10TaskRunner8PostTaskERKNS_8LocationENS_12OnceCallbackIFvvEEE(%"class.base::TaskRunner"* %91, %"class.base::Location"* nonnull dereferenceable(32) %8, %"class.base::OnceCallback.315"* nonnull %9) #6
  %124 = getelementptr inbounds %"class.base::OnceCallback.315", %"class.base::OnceCallback.315"* %9, i64 0, i32 0
  call void @_ZN4base8internal12CallbackBaseD2Ev(%"class.base::internal::CallbackBase"* nonnull %124) #6
  call void @llvm.lifetime.end.p0i8(i64 32, i8* nonnull %92) #6
  br label %162

125:                                              ; preds = %18
  %126 = bitcast %"class.std::__1::vector.204"* %4 to <2 x i64>*
  %127 = load <2 x i64>, <2 x i64>* %126, align 8
  %128 = getelementptr inbounds %"class.std::__1::vector.204", %"class.std::__1::vector.204"* %10, i64 0, i32 0, i32 1
  %129 = bitcast %"class.std::__1::vector.204"* %10 to <2 x i64>*
  store <2 x i64> %127, <2 x i64>* %129, align 16
  %130 = getelementptr inbounds %"class.std::__1::vector.204", %"class.std::__1::vector.204"* %4, i64 0, i32 0, i32 2, i32 0, i32 0
  %131 = bitcast %"class.filesystem::mojom::DirectoryEntry"** %130 to i64*
  %132 = load i64, i64* %131, align 8
  %133 = getelementptr inbounds %"class.std::__1::vector.204", %"class.std::__1::vector.204"* %10, i64 0, i32 0, i32 2, i32 0, i32 0
  %134 = bitcast %"class.filesystem::mojom::DirectoryEntry"** %133 to i64*
  store i64 %132, i64* %134, align 16
  %135 = bitcast %"class.std::__1::vector.204"* %4 to i8*
  tail call void @llvm.memset.p0i8.i64(i8* align 8 %135, i8 0, i64 24, i1 false) #6
  %136 = getelementptr inbounds %"class.base::RepeatingCallback.203", %"class.base::RepeatingCallback.203"* %2, i64 0, i32 0, i32 0, i32 0, i32 0
  %137 = load %"class.base::internal::BindStateBase"*, %"class.base::internal::BindStateBase"** %136, align 8
  %138 = getelementptr inbounds %"class.base::internal::BindStateBase", %"class.base::internal::BindStateBase"* %137, i64 0, i32 1
  %139 = bitcast void ()** %138 to void (%"class.base::internal::BindStateBase"*, i32, %"class.std::__1::vector.204"*, i1)**
  %140 = load void (%"class.base::internal::BindStateBase"*, i32, %"class.std::__1::vector.204"*, i1)*, void (%"class.base::internal::BindStateBase"*, i32, %"class.std::__1::vector.204"*, i1)** %139, align 8
  call void %140(%"class.base::internal::BindStateBase"* %137, i32 %3, %"class.std::__1::vector.204"* nonnull dereferenceable(24) %10, i1 zeroext %5) #6
  %141 = getelementptr inbounds %"class.std::__1::vector.204", %"class.std::__1::vector.204"* %10, i64 0, i32 0, i32 0
  %142 = load %"class.filesystem::mojom::DirectoryEntry"*, %"class.filesystem::mojom::DirectoryEntry"** %141, align 16
  %143 = icmp eq %"class.filesystem::mojom::DirectoryEntry"* %142, null
  br i1 %143, label %157, label %144

144:                                              ; preds = %125
  %145 = bitcast %"class.filesystem::mojom::DirectoryEntry"* %142 to i8*
  %146 = load %"class.filesystem::mojom::DirectoryEntry"*, %"class.filesystem::mojom::DirectoryEntry"** %128, align 8
  %147 = icmp eq %"class.filesystem::mojom::DirectoryEntry"* %146, %142
  br i1 %147, label %155, label %148

148:                                              ; preds = %144, %148
  %149 = phi %"class.filesystem::mojom::DirectoryEntry"* [ %150, %148 ], [ %146, %144 ]
  %150 = getelementptr inbounds %"class.filesystem::mojom::DirectoryEntry", %"class.filesystem::mojom::DirectoryEntry"* %149, i64 -1
  call void @_ZN10filesystem5mojom14DirectoryEntryD1Ev(%"class.filesystem::mojom::DirectoryEntry"* %150) #6
  %151 = icmp eq %"class.filesystem::mojom::DirectoryEntry"* %150, %142
  br i1 %151, label %152, label %148

152:                                              ; preds = %148
  %153 = bitcast %"class.std::__1::vector.204"* %10 to i8**
  %154 = load i8*, i8** %153, align 16
  br label %155

155:                                              ; preds = %152, %144
  %156 = phi i8* [ %154, %152 ], [ %145, %144 ]
  store %"class.filesystem::mojom::DirectoryEntry"* %142, %"class.filesystem::mojom::DirectoryEntry"** %128, align 8
  call void @_ZdlPv(i8* %156) #7
  br label %157

157:                                              ; preds = %125, %155
  %158 = icmp ne i32 %3, 0
  %159 = xor i1 %5, true
  %160 = or i1 %158, %159
  br i1 %160, label %161, label %162

161:                                              ; preds = %157
  call void @_ZN7storage25FileSystemOperationRunner15FinishOperationEm(%"class.storage::FileSystemOperationRunner"* %0, i64 %1)
  br label %162

162:                                              ; preds = %161, %157, %88
  br i1 %14, label %182, label %163

163:                                              ; preds = %162
  %164 = getelementptr inbounds %"class.storage::FileSystemContext", %"class.storage::FileSystemContext"* %13, i64 0, i32 0, i32 0, i32 0, i32 0, i32 0, i32 0, i32 0, i32 0, i32 0
  %165 = atomicrmw sub i32* %164, i32 1 acq_rel
  %166 = icmp eq i32 %165, 1
  br i1 %166, label %167, label %182

167:                                              ; preds = %163
  %168 = getelementptr inbounds %"class.storage::FileSystemContext", %"class.storage::FileSystemContext"* %13, i64 0, i32 0, i32 1, i32 0
  %169 = load %"class.base::SequencedTaskRunner"*, %"class.base::SequencedTaskRunner"** %168, align 8
  %170 = bitcast %"class.base::SequencedTaskRunner"* %169 to i1 (%"class.base::SequencedTaskRunner"*)***
  %171 = load i1 (%"class.base::SequencedTaskRunner"*)**, i1 (%"class.base::SequencedTaskRunner"*)*** %170, align 8
  %172 = getelementptr inbounds i1 (%"class.base::SequencedTaskRunner"*)*, i1 (%"class.base::SequencedTaskRunner"*)** %171, i64 5
  %173 = load i1 (%"class.base::SequencedTaskRunner"*)*, i1 (%"class.base::SequencedTaskRunner"*)** %172, align 8
  %174 = call zeroext i1 %173(%"class.base::SequencedTaskRunner"* %169) #6
  br i1 %174, label %175, label %177

175:                                              ; preds = %167
  call void @_ZN7storage17FileSystemContextD1Ev(%"class.storage::FileSystemContext"* nonnull %13) #6
  %176 = bitcast %"class.storage::FileSystemContext"* %13 to i8*
  call void @_ZdlPv(i8* %176) #7
  br label %182

177:                                              ; preds = %167
  %178 = load %"class.base::SequencedTaskRunner"*, %"class.base::SequencedTaskRunner"** %168, align 8
  %179 = bitcast %"class.base::Location"* %7 to i8*
  call void @llvm.lifetime.start.p0i8(i64 32, i8* nonnull %179) #6
  call void @_ZN4base8Location7CurrentEPKcS2_i(%"class.base::Location"* nonnull sret %7, i8* getelementptr inbounds ([19 x i8], [19 x i8]* @.str.11, i64 0, i64 0), i8* getelementptr inbounds ([51 x i8], [51 x i8]* @.str.12, i64 0, i64 0), i32 72) #6
  %180 = bitcast %"class.storage::FileSystemContext"* %13 to i8*
  %181 = call zeroext i1 @_ZN4base19SequencedTaskRunner27DeleteOrReleaseSoonInternalERKNS_8LocationEPFvPKvES5_(%"class.base::SequencedTaskRunner"* %178, %"class.base::Location"* nonnull dereferenceable(32) %7, void (i8*)* nonnull @_ZN4base12DeleteHelperIN7storage17FileSystemContextEE8DoDeleteEPKv, i8* nonnull %180) #6
  call void @llvm.lifetime.end.p0i8(i64 32, i8* nonnull %179) #6
  br label %182

182:                                              ; preds = %162, %163, %175, %177
  ret void
}

; Function Attrs: nounwind ssp uwtable
define hidden i64 @_ZN7storage25FileSystemOperationRunner6RemoveERKNS_13FileSystemURLEbN4base12OnceCallbackIFvNS4_4File5ErrorEEEE(%"class.storage::FileSystemOperationRunner"*, %"class.storage::FileSystemURL"* dereferenceable(208), i1 zeroext, %"class.base::OnceCallback"* nocapture) local_unnamed_addr #0 align 2 {
  %5 = alloca i32, align 4
  %6 = alloca %"class.base::OnceCallback", align 8
  %7 = alloca %"class.base::OnceCallback", align 8
  %8 = bitcast i32* %5 to i8*
  call void @llvm.lifetime.start.p0i8(i64 4, i8* nonnull %8) #6
  store i32 0, i32* %5, align 4
  %9 = getelementptr inbounds %"class.storage::FileSystemOperationRunner", %"class.storage::FileSystemOperationRunner"* %0, i64 0, i32 1
  %10 = load %"class.storage::FileSystemContext"*, %"class.storage::FileSystemContext"** %9, align 8
  %11 = call %"class.storage::FileSystemOperation"* @_ZN7storage17FileSystemContext25CreateFileSystemOperationERKNS_13FileSystemURLEPN4base4File5ErrorE(%"class.storage::FileSystemContext"* %10, %"class.storage::FileSystemURL"* dereferenceable(208) %1, i32* nonnull %5) #6
  %12 = call i64 @_ZN7storage25FileSystemOperationRunner14BeginOperationENSt3__110unique_ptrINS_19FileSystemOperationENS1_14default_deleteIS3_EEEE(%"class.storage::FileSystemOperationRunner"* %0, %"class.storage::FileSystemOperation"* %11)
  %13 = getelementptr inbounds %"class.storage::FileSystemOperationRunner", %"class.storage::FileSystemOperationRunner"* %0, i64 0, i32 4
  %14 = load i8, i8* %13, align 1, !range !5
  store i8 1, i8* %13, align 1
  %15 = icmp eq %"class.storage::FileSystemOperation"* %11, null
  br i1 %15, label %16, label %22

16:                                               ; preds = %4
  %17 = getelementptr inbounds %"class.base::OnceCallback", %"class.base::OnceCallback"* %3, i64 0, i32 0, i32 0, i32 0
  %18 = bitcast %"class.base::OnceCallback"* %3 to i64*
  %19 = load i64, i64* %18, align 8
  %20 = bitcast %"class.base::OnceCallback"* %6 to i64*
  store i64 %19, i64* %20, align 8
  store %"class.base::internal::BindStateBase"* null, %"class.base::internal::BindStateBase"** %17, align 8
  %21 = load i32, i32* %5, align 4
  call void @_ZN7storage25FileSystemOperationRunner9DidFinishEmN4base12OnceCallbackIFvNS1_4File5ErrorEEEES4_(%"class.storage::FileSystemOperationRunner"* %0, i64 %12, %"class.base::OnceCallback"* nonnull %6, i32 %21)
  br label %46

22:                                               ; preds = %4
  call void @_ZN7storage25FileSystemOperationRunner15PrepareForWriteEmRKNS_13FileSystemURLE(%"class.storage::FileSystemOperationRunner"* %0, i64 %12, %"class.storage::FileSystemURL"* dereferenceable(208) %1)
  %23 = call i8* @_Znwm(i64 80) #7, !noalias !91
  %24 = bitcast i8* %23 to %"class.base::internal::BindStateBase"*
  call void @_ZN4base8internal13BindStateBaseC2EPFvvEPFvPKS1_EPFbS5_NS1_21CancellationQueryModeEE(%"class.base::internal::BindStateBase"* nonnull %24, void ()* bitcast (void (%"class.base::internal::BindStateBase"*, i32)* @_ZN4base8internal7InvokerINS0_9BindStateIMN7storage25FileSystemOperationRunnerEFvmNS_12OnceCallbackIFvNS_4File5ErrorEEEES7_EJNS_7WeakPtrIS4_EEmS9_EEES8_E7RunOnceEPNS0_13BindStateBaseES7_ to void ()*), void (%"class.base::internal::BindStateBase"*)* nonnull @_ZN4base8internal9BindStateIMN7storage25FileSystemOperationRunnerEFvmNS_12OnceCallbackIFvNS_4File5ErrorEEEES6_EJNS_7WeakPtrIS3_EEmS8_EE7DestroyEPKNS0_13BindStateBaseE, i1 (%"class.base::internal::BindStateBase"*, i32)* nonnull @_ZN4base8internal23QueryCancellationTraitsINS0_9BindStateIMN7storage25FileSystemOperationRunnerEFvmNS_12OnceCallbackIFvNS_4File5ErrorEEEES7_EJNS_7WeakPtrIS4_EEmS9_EEEEEbPKNS0_13BindStateBaseENSF_21CancellationQueryModeE) #6, !noalias !91
  %25 = getelementptr inbounds i8, i8* %23, i64 32
  %26 = bitcast i8* %25 to <2 x i64>*
  store <2 x i64> <i64 ptrtoint (void (%"class.storage::FileSystemOperationRunner"*, i64, %"class.base::OnceCallback"*, i32)* @_ZN7storage25FileSystemOperationRunner9DidFinishEmN4base12OnceCallbackIFvNS1_4File5ErrorEEEES4_ to i64), i64 0>, <2 x i64>* %26, align 8, !noalias !91
  %27 = getelementptr inbounds i8, i8* %23, i64 48
  %28 = bitcast i8* %27 to %"class.base::internal::WeakReference"*
  %29 = getelementptr inbounds %"class.storage::FileSystemOperationRunner", %"class.storage::FileSystemOperationRunner"* %0, i64 0, i32 8, i32 0, i32 0
  call void @_ZN4base8internal13WeakReferenceC1ERKS1_(%"class.base::internal::WeakReference"* %28, %"class.base::internal::WeakReference"* dereferenceable(8) %29) #6, !noalias !91
  %30 = getelementptr inbounds i8, i8* %23, i64 56
  %31 = bitcast i8* %30 to i64*
  %32 = getelementptr inbounds %"class.storage::FileSystemOperationRunner", %"class.storage::FileSystemOperationRunner"* %0, i64 0, i32 8, i32 0, i32 1
  %33 = load i64, i64* %32, align 8, !noalias !91
  store i64 %33, i64* %31, align 8, !noalias !91
  %34 = getelementptr inbounds i8, i8* %23, i64 64
  %35 = bitcast i8* %34 to i64*
  store i64 %12, i64* %35, align 8, !noalias !91
  %36 = getelementptr inbounds i8, i8* %23, i64 72
  %37 = getelementptr inbounds %"class.base::OnceCallback", %"class.base::OnceCallback"* %3, i64 0, i32 0, i32 0, i32 0
  %38 = bitcast %"class.base::OnceCallback"* %3 to i64*
  %39 = load i64, i64* %38, align 8, !noalias !91
  %40 = bitcast i8* %36 to i64*
  store i64 %39, i64* %40, align 8, !noalias !91
  store %"class.base::internal::BindStateBase"* null, %"class.base::internal::BindStateBase"** %37, align 8, !noalias !91
  %41 = bitcast %"class.base::OnceCallback"* %7 to i8**
  store i8* %23, i8** %41, align 8, !alias.scope !91
  %42 = bitcast %"class.storage::FileSystemOperation"* %11 to void (%"class.storage::FileSystemOperation"*, %"class.storage::FileSystemURL"*, i1, %"class.base::OnceCallback"*)***
  %43 = load void (%"class.storage::FileSystemOperation"*, %"class.storage::FileSystemURL"*, i1, %"class.base::OnceCallback"*)**, void (%"class.storage::FileSystemOperation"*, %"class.storage::FileSystemURL"*, i1, %"class.base::OnceCallback"*)*** %42, align 8
  %44 = getelementptr inbounds void (%"class.storage::FileSystemOperation"*, %"class.storage::FileSystemURL"*, i1, %"class.base::OnceCallback"*)*, void (%"class.storage::FileSystemOperation"*, %"class.storage::FileSystemURL"*, i1, %"class.base::OnceCallback"*)** %43, i64 10
  %45 = load void (%"class.storage::FileSystemOperation"*, %"class.storage::FileSystemURL"*, i1, %"class.base::OnceCallback"*)*, void (%"class.storage::FileSystemOperation"*, %"class.storage::FileSystemURL"*, i1, %"class.base::OnceCallback"*)** %44, align 8
  call void %45(%"class.storage::FileSystemOperation"* nonnull %11, %"class.storage::FileSystemURL"* dereferenceable(208) %1, i1 zeroext %2, %"class.base::OnceCallback"* nonnull %7) #6
  br label %46

46:                                               ; preds = %22, %16
  %47 = phi %"class.base::OnceCallback"* [ %7, %22 ], [ %6, %16 ]
  %48 = getelementptr inbounds %"class.base::OnceCallback", %"class.base::OnceCallback"* %47, i64 0, i32 0
  call void @_ZN4base8internal12CallbackBaseD2Ev(%"class.base::internal::CallbackBase"* nonnull %48) #6
  %49 = icmp eq i8* %13, null
  br i1 %49, label %51, label %50

50:                                               ; preds = %46
  store i8 %14, i8* %13, align 1
  br label %51

51:                                               ; preds = %50, %46
  call void @llvm.lifetime.end.p0i8(i64 4, i8* nonnull %8) #6
  ret i64 %12
}

; Function Attrs: nounwind ssp uwtable
define hidden i64 @_ZN7storage25FileSystemOperationRunner5WriteERKNS_13FileSystemURLENSt3__110unique_ptrINS_14BlobDataHandleENS4_14default_deleteIS6_EEEElRKN4base17RepeatingCallbackIFvNSA_4File5ErrorElbEEE(%"class.storage::FileSystemOperationRunner"*, %"class.storage::FileSystemURL"* dereferenceable(208), %"class.storage::BlobDataHandle"*, i64, %"class.base::RepeatingCallback.220"* dereferenceable(8)) local_unnamed_addr #0 align 2 {
  %6 = alloca i32, align 4
  %7 = alloca %"class.base::RepeatingCallback.220", align 8
  %8 = bitcast i32* %6 to i8*
  call void @llvm.lifetime.start.p0i8(i64 4, i8* nonnull %8) #6
  store i32 0, i32* %6, align 4
  %9 = getelementptr inbounds %"class.storage::FileSystemOperationRunner", %"class.storage::FileSystemOperationRunner"* %0, i64 0, i32 1
  %10 = load %"class.storage::FileSystemContext"*, %"class.storage::FileSystemContext"** %9, align 8
  %11 = call %"class.storage::FileSystemOperation"* @_ZN7storage17FileSystemContext25CreateFileSystemOperationERKNS_13FileSystemURLEPN4base4File5ErrorE(%"class.storage::FileSystemContext"* %10, %"class.storage::FileSystemURL"* dereferenceable(208) %1, i32* nonnull %6) #6
  %12 = call i64 @_ZN7storage25FileSystemOperationRunner14BeginOperationENSt3__110unique_ptrINS_19FileSystemOperationENS1_14default_deleteIS3_EEEE(%"class.storage::FileSystemOperationRunner"* %0, %"class.storage::FileSystemOperation"* %11)
  %13 = getelementptr inbounds %"class.storage::FileSystemOperationRunner", %"class.storage::FileSystemOperationRunner"* %0, i64 0, i32 4
  %14 = load i8, i8* %13, align 1, !range !5
  store i8 1, i8* %13, align 1
  %15 = icmp eq %"class.storage::FileSystemOperation"* %11, null
  br i1 %15, label %16, label %18

16:                                               ; preds = %5
  %17 = load i32, i32* %6, align 4
  call void @_ZN7storage25FileSystemOperationRunner8DidWriteEmRKN4base17RepeatingCallbackIFvNS1_4File5ErrorElbEEES4_lb(%"class.storage::FileSystemOperationRunner"* %0, i64 %12, %"class.base::RepeatingCallback.220"* dereferenceable(8) %4, i32 %17, i64 0, i1 zeroext true)
  br label %56

18:                                               ; preds = %5
  %19 = load %"class.storage::FileSystemContext"*, %"class.storage::FileSystemContext"** %9, align 8
  %20 = call %"class.storage::FileStreamWriter"* @_ZN7storage17FileSystemContext22CreateFileStreamWriterERKNS_13FileSystemURLEl(%"class.storage::FileSystemContext"* %19, %"class.storage::FileSystemURL"* dereferenceable(208) %1, i64 %3) #6
  %21 = icmp eq %"class.storage::FileStreamWriter"* %20, null
  br i1 %21, label %22, label %23

22:                                               ; preds = %18
  call void @_ZN7storage25FileSystemOperationRunner8DidWriteEmRKN4base17RepeatingCallbackIFvNS1_4File5ErrorElbEEES4_lb(%"class.storage::FileSystemOperationRunner"* %0, i64 %12, %"class.base::RepeatingCallback.220"* dereferenceable(8) %4, i32 -11, i64 0, i1 zeroext true)
  br label %56

23:                                               ; preds = %18
  %24 = getelementptr inbounds %"class.storage::FileSystemURL", %"class.storage::FileSystemURL"* %1, i64 0, i32 12, i32 0
  %25 = load i32, i32* %24, align 4
  %26 = call i8* @_Znwm(i64 184) #7
  %27 = bitcast i8* %26 to %"class.storage::FileWriterDelegate"*
  call void @_ZN7storage18FileWriterDelegateC1ENSt3__110unique_ptrINS_16FileStreamWriterENS1_14default_deleteIS3_EEEENS_11FlushPolicyE(%"class.storage::FileWriterDelegate"* nonnull %27, %"class.storage::FileStreamWriter"* nonnull %20, i32 %25) #6
  %28 = icmp eq %"class.storage::BlobDataHandle"* %2, null
  br i1 %28, label %31, label %29

29:                                               ; preds = %23
  %30 = call %"class.storage::BlobReader"* @_ZNK7storage14BlobDataHandle12CreateReaderEv(%"class.storage::BlobDataHandle"* nonnull %2) #6
  br label %31

31:                                               ; preds = %23, %29
  %32 = phi %"class.storage::BlobReader"* [ %30, %29 ], [ null, %23 ]
  call void @_ZN7storage25FileSystemOperationRunner15PrepareForWriteEmRKNS_13FileSystemURLE(%"class.storage::FileSystemOperationRunner"* %0, i64 %12, %"class.storage::FileSystemURL"* dereferenceable(208) %1)
  %33 = bitcast %"class.base::RepeatingCallback.220"* %7 to i8*
  call void @llvm.lifetime.start.p0i8(i64 8, i8* nonnull %33) #6
  %34 = call i8* @_Znwm(i64 80) #7, !noalias !96
  %35 = bitcast i8* %34 to %"class.base::internal::BindStateBase"*
  call void @_ZN4base8internal13BindStateBaseC2EPFvvEPFvPKS1_EPFbS5_NS1_21CancellationQueryModeEE(%"class.base::internal::BindStateBase"* nonnull %35, void ()* bitcast (void (%"class.base::internal::BindStateBase"*, i32, i64, i1)* @_ZN4base8internal7InvokerINS0_9BindStateIMN7storage25FileSystemOperationRunnerEFvmRKNS_17RepeatingCallbackIFvNS_4File5ErrorElbEEES7_lbEJNS_7WeakPtrIS4_EEmS9_EEES8_E3RunEPNS0_13BindStateBaseES7_lb to void ()*), void (%"class.base::internal::BindStateBase"*)* nonnull @_ZN4base8internal9BindStateIMN7storage25FileSystemOperationRunnerEFvmRKNS_17RepeatingCallbackIFvNS_4File5ErrorElbEEES6_lbEJNS_7WeakPtrIS3_EEmS8_EE7DestroyEPKNS0_13BindStateBaseE, i1 (%"class.base::internal::BindStateBase"*, i32)* nonnull @_ZN4base8internal23QueryCancellationTraitsINS0_9BindStateIMN7storage25FileSystemOperationRunnerEFvmRKNS_17RepeatingCallbackIFvNS_4File5ErrorElbEEES7_lbEJNS_7WeakPtrIS4_EEmS9_EEEEEbPKNS0_13BindStateBaseENSH_21CancellationQueryModeE) #6, !noalias !96
  %36 = getelementptr inbounds i8, i8* %34, i64 32
  %37 = bitcast i8* %36 to <2 x i64>*
  store <2 x i64> <i64 ptrtoint (void (%"class.storage::FileSystemOperationRunner"*, i64, %"class.base::RepeatingCallback.220"*, i32, i64, i1)* @_ZN7storage25FileSystemOperationRunner8DidWriteEmRKN4base17RepeatingCallbackIFvNS1_4File5ErrorElbEEES4_lb to i64), i64 0>, <2 x i64>* %37, align 8, !noalias !96
  %38 = getelementptr inbounds i8, i8* %34, i64 48
  %39 = bitcast i8* %38 to %"class.base::internal::WeakReference"*
  %40 = getelementptr inbounds %"class.storage::FileSystemOperationRunner", %"class.storage::FileSystemOperationRunner"* %0, i64 0, i32 8, i32 0, i32 0
  call void @_ZN4base8internal13WeakReferenceC1ERKS1_(%"class.base::internal::WeakReference"* %39, %"class.base::internal::WeakReference"* dereferenceable(8) %40) #6, !noalias !96
  %41 = getelementptr inbounds i8, i8* %34, i64 56
  %42 = bitcast i8* %41 to i64*
  %43 = getelementptr inbounds %"class.storage::FileSystemOperationRunner", %"class.storage::FileSystemOperationRunner"* %0, i64 0, i32 8, i32 0, i32 1
  %44 = load i64, i64* %43, align 8, !noalias !96
  store i64 %44, i64* %42, align 8, !noalias !96
  %45 = getelementptr inbounds i8, i8* %34, i64 64
  %46 = bitcast i8* %45 to i64*
  store i64 %12, i64* %46, align 8, !noalias !96
  %47 = getelementptr inbounds i8, i8* %34, i64 72
  %48 = bitcast i8* %47 to %"class.base::internal::CallbackBaseCopyable"*
  %49 = getelementptr inbounds %"class.base::RepeatingCallback.220", %"class.base::RepeatingCallback.220"* %4, i64 0, i32 0
  call void @_ZN4base8internal20CallbackBaseCopyableC2ERKS1_(%"class.base::internal::CallbackBaseCopyable"* %48, %"class.base::internal::CallbackBaseCopyable"* dereferenceable(8) %49) #6, !noalias !96
  %50 = bitcast %"class.base::RepeatingCallback.220"* %7 to i8**
  store i8* %34, i8** %50, align 8, !alias.scope !96
  %51 = bitcast %"class.storage::FileSystemOperation"* %11 to void (%"class.storage::FileSystemOperation"*, %"class.storage::FileSystemURL"*, %"class.storage::FileWriterDelegate"*, %"class.storage::BlobReader"*, %"class.base::RepeatingCallback.220"*)***
  %52 = load void (%"class.storage::FileSystemOperation"*, %"class.storage::FileSystemURL"*, %"class.storage::FileWriterDelegate"*, %"class.storage::BlobReader"*, %"class.base::RepeatingCallback.220"*)**, void (%"class.storage::FileSystemOperation"*, %"class.storage::FileSystemURL"*, %"class.storage::FileWriterDelegate"*, %"class.storage::BlobReader"*, %"class.base::RepeatingCallback.220"*)*** %51, align 8
