; ModuleID = '../../chrome/browser/flag_descriptions.cc'
source_filename = "../../chrome/browser/flag_descriptions.cc"
target datalayout = "e-m:e-i64:64-f80:128-n8:16:32:64-S128"
target triple = "x86_64-unknown-linux-gnu"

@_ZN17flag_descriptions24kAccelerated2dCanvasNameE = hidden local_unnamed_addr constant [22 x i8] c"Accelerated 2D canvas\00", align 16
@_ZN17flag_descriptions31kAccelerated2dCanvasDescriptionE = hidden local_unnamed_addr constant [95 x i8] c"Enables the use of the GPU to perform 2d canvas rendering instead of using software rendering.\00", align 16
@_ZN17flag_descriptions27kAcceleratedVideoDecodeNameE = hidden local_unnamed_addr constant [34 x i8] c"Hardware-accelerated video decode\00", align 16
@_ZN17flag_descriptions34kAcceleratedVideoDecodeDescriptionE = hidden local_unnamed_addr constant [51 x i8] c"Hardware-accelerated video decode where available.\00", align 16
@_ZN17flag_descriptions27kAcceleratedVideoEncodeNameE = hidden local_unnamed_addr constant [34 x i8] c"Hardware-accelerated video encode\00", align 16
@_ZN17flag_descriptions34kAcceleratedVideoEncodeDescriptionE = hidden local_unnamed_addr constant [51 x i8] c"Hardware-accelerated video encode where available.\00", align 16
@_ZN17flag_descriptions25kEnableMediaInternalsNameE = hidden local_unnamed_addr constant [21 x i8] c"Media-internals page\00", align 16
@_ZN17flag_descriptions32kEnableMediaInternalsDescriptionE = hidden local_unnamed_addr constant [49 x i8] c"Enables the chrome://media-internals debug page.\00", align 16
@_ZN17flag_descriptions22kAccessiblePDFFormNameE = hidden local_unnamed_addr constant [21 x i8] c"Accessible PDF Forms\00", align 16
@_ZN17flag_descriptions29kAccessiblePDFFormDescriptionE = hidden local_unnamed_addr constant [45 x i8] c"Enables accessibility support for PDF forms.\00", align 16
@_ZN17flag_descriptions23kAccountIdMigrationNameE = hidden local_unnamed_addr constant [21 x i8] c"Account ID migration\00", align 16
@_ZN17flag_descriptions30kAccountIdMigrationDescriptionE = hidden local_unnamed_addr constant [95 x i8] c"Migrate to use Gaia ID instead of the email as the account identifer for the Identity Manager.\00", align 16
@_ZN17flag_descriptions43kAlignFontDisplayAutoTimeoutWithLCPGoalNameE = hidden local_unnamed_addr constant [49 x i8] c"Align 'font-display: auto' timeout with LCP goal\00", align 16
@_ZN17flag_descriptions50kAlignFontDisplayAutoTimeoutWithLCPGoalDescriptionE = hidden local_unnamed_addr constant [210 x i8] c"Make pending 'display: auto' web fonts enter the swap or failure period immediately before reaching the LCP time limit (~2500ms), so that web fonts do not become a source of bad LCP (Largest Contentful Paint).\00", align 16
@_ZN17flag_descriptions27kAllowInsecureLocalhostNameE = hidden local_unnamed_addr constant [64 x i8] c"Allow invalid certificates for resources loaded from localhost.\00", align 16
@_ZN17flag_descriptions34kAllowInsecureLocalhostDescriptionE = hidden local_unnamed_addr constant [87 x i8] c"Allows requests to localhost over HTTPS even when an invalid certificate is presented.\00", align 16
@_ZN17flag_descriptions32kAllowSyncXHRInPageDismissalNameE = hidden local_unnamed_addr constant [50 x i8] c"Allows synchronous XHR requests in page dismissal\00", align 16
@_ZN17flag_descriptions39kAllowSyncXHRInPageDismissalDescriptionE = hidden local_unnamed_addr constant [115 x i8] c"Allows synchronous XHR requests during page dismissal when the page is being navigated away or closed by the user.\00", align 16
@_ZN17flag_descriptions24kWindowsFollowCursorNameE = hidden local_unnamed_addr constant [44 x i8] c"Windows open on the display with the cursor\00", align 16
@_ZN17flag_descriptions31kWindowsFollowCursorDescriptionE = hidden local_unnamed_addr constant [87 x i8] c"When there are multiple displays, windows open on the display where cursor is located.\00", align 16
@_ZN17flag_descriptions24kAnimatedImageResumeNameE = hidden local_unnamed_addr constant [35 x i8] c"Use animated image resume behavior\00", align 16
@_ZN17flag_descriptions31kAnimatedImageResumeDescriptionE = hidden local_unnamed_addr constant [139 x i8] c"Resumes animated images from the last frame drawn rather than attempt to catch up to the frame that should be drawn based on current time.\00", align 16
@_ZN17flag_descriptions26kAriaElementReflectionNameE = hidden local_unnamed_addr constant [31 x i8] c"Enable ARIA element reflection\00", align 16
@_ZN17flag_descriptions33kAriaElementReflectionDescriptionE = hidden local_unnamed_addr constant [100 x i8] c"Enable setting ARIA relationship attributes that reference other elements directly without an IDREF\00", align 16
@_ZN17flag_descriptions16kCOLRV1FontsNameE = hidden local_unnamed_addr constant [14 x i8] c"COLR v1 Fonts\00", align 1
@_ZN17flag_descriptions23kCOLRV1FontsDescriptionE = hidden local_unnamed_addr constant [45 x i8] c"Display COLR v1 color gradient vector fonts.\00", align 16
@_ZN17flag_descriptions24kCSSContainerQueriesNameE = hidden local_unnamed_addr constant [29 x i8] c"Enable CSS Container Queries\00", align 16
@_ZN17flag_descriptions31kCSSContainerQueriesDescriptionE = hidden local_unnamed_addr constant [130 x i8] c"Enables support for @container, inline-size and block-size values for the contain property, and the LayoutNG Grid implementation.\00", align 16
@_ZN17flag_descriptions31kConditionalTabStripAndroidNameE = hidden local_unnamed_addr constant [22 x i8] c"Conditional Tab Strip\00", align 16
@_ZN17flag_descriptions38kConditionalTabStripAndroidDescriptionE = hidden local_unnamed_addr constant [46 x i8] c"Allows users to access conditional tab strip.\00", align 16
@_ZN17flag_descriptions37kContentLanguagesInLanguagePickerNameE = hidden local_unnamed_addr constant [37 x i8] c"Content languages in language picker\00", align 16
@_ZN17flag_descriptions44kContentLanguagesInLanguagePickerDescriptionE = hidden local_unnamed_addr constant [134 x i8] c"Enables bringing user's content languages that are translatable to the top of the list with all languages shown in the translate menu\00", align 16
@_ZN17flag_descriptions29kConversionMeasurementApiNameE = hidden local_unnamed_addr constant [27 x i8] c"Conversion Measurement API\00", align 16
@_ZN17flag_descriptions36kConversionMeasurementApiDescriptionE = hidden local_unnamed_addr constant [116 x i8] c"Enables usage of the Conversion Measurement API. Requires #enable-experimental-web-platform-features to be enabled.\00", align 16
@_ZN17flag_descriptions35kConversionMeasurementDebugModeNameE = hidden local_unnamed_addr constant [34 x i8] c"Conversion Measurement Debug Mode\00", align 16
@_ZN17flag_descriptions42kConversionMeasurementDebugModeDescriptionE = hidden local_unnamed_addr constant [165 x i8] c"Enables debug mode for the Conversion Measurement API. This removes all reporting delays and noise. Only works if the Conversion Measurement API is already enabled.\00", align 16
@_ZN17flag_descriptions26kDeprecateMenagerieAPINameE = hidden local_unnamed_addr constant [35 x i8] c"Deprecate Menagerie API on Android\00", align 16
@_ZN17flag_descriptions33kDeprecateMenagerieAPIDescriptionE = hidden local_unnamed_addr constant [102 x i8] c"If enabled, the legacy Menagerie API for profile data will be replaced by the new profile data source\00", align 16
@_ZN17flag_descriptions33kDetectedSourceLanguageOptionNameE = hidden local_unnamed_addr constant [52 x i8] c"Use Detected Language string on Desktop and Android\00", align 16
@_ZN17flag_descriptions40kDetectedSourceLanguageOptionDescriptionE = hidden local_unnamed_addr constant [137 x i8] c"Renames the 'Unknown' source language option to 'Detected Language' and enables translation of unknown source language pages on Android.\00", align 16
@_ZN17flag_descriptions36kDetectFormSubmissionOnFormClearNameE = hidden local_unnamed_addr constant [49 x i8] c"Detect form submission when the form is cleared.\00", align 16
@_ZN17flag_descriptions43kDetectFormSubmissionOnFormClearDescriptionE = hidden local_unnamed_addr constant [98 x i8] c"Detect form submissions for change password forms that are cleared and not removed from the page.\00", align 16
@_ZN17flag_descriptions28kEditPasswordsInSettingsNameE = hidden local_unnamed_addr constant [27 x i8] c"Edit passwords in settings\00", align 16
@_ZN17flag_descriptions35kEditPasswordsInSettingsDescriptionE = hidden local_unnamed_addr constant [38 x i8] c"Enables password editing in settings.\00", align 16
@_ZN17flag_descriptions48kEnableBluetoothSerialPortProfileInSerialApiNameE = hidden local_unnamed_addr constant [51 x i8] c"Enable Bluetooth Serial Port Profile in Serial API\00", align 16
@_ZN17flag_descriptions55kEnableBluetoothSerialPortProfileInSerialApiDescriptionE = hidden local_unnamed_addr constant [100 x i8] c"When enabled, Bluetooth Serial Port Profile devices will be enumerated for use with the Serial API.\00", align 16
@_ZN17flag_descriptions14kEnableFtpNameE = hidden local_unnamed_addr constant [28 x i8] c"Enable support for FTP URLs\00", align 16
@_ZN17flag_descriptions21kEnableFtpDescriptionE = hidden local_unnamed_addr constant [277 x i8] c"When enabled, the browser will handle navigations to ftp:// URLs by either showing a directory listing or downloading the resource over FTP. When disabled, the browser has no special handling for ftp:// URLs and by default defer handling of the URL to the underlying platform.\00", align 16
@_ZN17flag_descriptions56kEnablePolicyBlocklistThrottleRequiresPoliciesLoadedNameE = hidden local_unnamed_addr constant [54 x i8] c"Url blocklist throttle wait for policies to be loaded\00", align 16
@_ZN17flag_descriptions63kEnablePolicyBlocklistThrottleRequiresPoliciesLoadedDescriptionE = hidden local_unnamed_addr constant [78 x i8] c"Enables behaviour for Url blocklist throttle to wait for all policies to load\00", align 16
@_ZN17flag_descriptions44kEnableSignedExchangeSubresourcePrefetchNameE = hidden local_unnamed_addr constant [47 x i8] c"Enable Signed Exchange subresource prefetching\00", align 16
@_ZN17flag_descriptions51kEnableSignedExchangeSubresourcePrefetchDescriptionE = hidden local_unnamed_addr constant [372 x i8] c"When enabled, the distributors of signed exchanges can let Chrome know alternative signed exchange subresources by setting \22alternate\22 link header. Chrome will prefetch the alternate signed exchange subresources and will load them if the publisher of the main signed exchange has set \22allowed-alt-sxg\22 link header in the signed inner response of the main signed exchange.\00", align 16
@_ZN17flag_descriptions52kEnableSignedExchangePrefetchCacheForNavigationsNameE = hidden local_unnamed_addr constant [54 x i8] c"Enable Signed Exchange prefetch cache for navigations\00", align 16
@_ZN17flag_descriptions59kEnableSignedExchangePrefetchCacheForNavigationsDescriptionE = hidden local_unnamed_addr constant [244 x i8] c"When enabled, the prefetched signed exchanges is stored to a prefetch cache attached to the frame. The body of the inner response is stored as a blob and the verification process of the signed exchange is skipped for the succeeding navigation.\00", align 16
@_ZN17flag_descriptions32kUpdatedCellularActivationUiNameE = hidden local_unnamed_addr constant [31 x i8] c"Updated Cellular Activation UI\00", align 16
@_ZN17flag_descriptions39kUpdatedCellularActivationUiDescriptionE = hidden local_unnamed_addr constant [44 x i8] c"Enables the updated cellular activation UI.\00", align 16
@_ZN17flag_descriptions42kUseLookalikesForNavigationSuggestionsNameE = hidden local_unnamed_addr constant [57 x i8] c"Use lookalike URL suggestions for navigation suggestions\00", align 16
@_ZN17flag_descriptions49kUseLookalikesForNavigationSuggestionsDescriptionE = hidden local_unnamed_addr constant [95 x i8] c"Use lookalike URL suggestions to suggest navigations to users who face domain not found error.\00", align 16
@_ZN17flag_descriptions27kUseWallpaperStagingUrlNameE = hidden local_unnamed_addr constant [26 x i8] c"Use Wallpaper staging URL\00", align 16
@_ZN17flag_descriptions34kUseWallpaperStagingUrlDescriptionE = hidden local_unnamed_addr constant [96 x i8] c"Use the staging server as part of the Wallpaper App to verify additions/removals of wallpapers.\00", align 16
@_ZN17flag_descriptions26kUseMessagesStagingUrlNameE = hidden local_unnamed_addr constant [25 x i8] c"Use Messages staging URL\00", align 16
@_ZN17flag_descriptions33kUseMessagesStagingUrlDescriptionE = hidden local_unnamed_addr constant [93 x i8] c"Use the staging server as part of the \22Messages\22 feature under \22Connected Devices\22 settings.\00", align 16
@_ZN17flag_descriptions28kUseCustomMessagesDomainNameE = hidden local_unnamed_addr constant [27 x i8] c"Use custom Messages domain\00", align 16
@_ZN17flag_descriptions35kUseCustomMessagesDomainDescriptionE = hidden local_unnamed_addr constant [87 x i8] c"Use a custom URL as part of the \22Messages\22 feature under \22Connected Devices\22 settings.\00", align 16
@_ZN17flag_descriptions31kAndroidPictureInPictureAPINameE = hidden local_unnamed_addr constant [39 x i8] c"Picture-in-Picture Web API for Android\00", align 16
@_ZN17flag_descriptions38kAndroidPictureInPictureAPIDescriptionE = hidden local_unnamed_addr constant [46 x i8] c"Enable Picture-in-Picture Web API for Android\00", align 16
@_ZN17flag_descriptions13kAppCacheNameE = hidden local_unnamed_addr constant [37 x i8] c"AppCache web API and browser backend\00", align 16
@_ZN17flag_descriptions20kAppCacheDescriptionE = hidden local_unnamed_addr constant [228 x i8] c"When disabled, turns off all AppCache code so that developers can test that their code works properly in the future when AppCache has been removed.  If disabled, this will also delete any AppCache data from profile directories.\00", align 16
@_ZN17flag_descriptions16kDnsHttpssvcNameE = hidden local_unnamed_addr constant [37 x i8] c"Support for HTTPSSVC records in DNS.\00", align 16
@_ZN17flag_descriptions23kDnsHttpssvcDescriptionE = hidden local_unnamed_addr constant [243 x i8] c"When enabled, Chrome may query a configured DoH server for HTTPSSVC records. If any HTTPSSVC records are returned, Chrome may upgrade the URL to HTTPS. If the records indicate support for QUIC, Chrome may attempt QUIC on the first connection.\00", align 16
@_ZN17flag_descriptions25kEnableFirstPartySetsNameE = hidden local_unnamed_addr constant [24 x i8] c"Enable First-Party Sets\00", align 16
@_ZN17flag_descriptions32kEnableFirstPartySetsDescriptionE = hidden local_unnamed_addr constant [101 x i8] c"When enabled, Chrome will apply First-Party Sets to features such as the SameParty cookie attribute.\00", align 16
@_ZN17flag_descriptions17kDnsOverHttpsNameE = hidden local_unnamed_addr constant [19 x i8] c"Secure DNS lookups\00", align 16
@_ZN17flag_descriptions24kDnsOverHttpsDescriptionE = hidden local_unnamed_addr constant [170 x i8] c"Enables DNS over HTTPS. When this feature is enabled, your browser may try to use a secure HTTPS connection to look up the addresses of websites and other web resources.\00", align 16
@_ZN17flag_descriptions43kAutofillAlwaysReturnCloudTokenizedCardNameE = hidden local_unnamed_addr constant [65 x i8] c"Return cloud token details for server credit cards when possible\00", align 16
@_ZN17flag_descriptions50kAutofillAlwaysReturnCloudTokenizedCardDescriptionE = hidden local_unnamed_addr constant [217 x i8] c"When enabled and where available, forms filled using Google Payments server cards are populated with cloud token details, including CPAN (cloud tokenized version of the Primary Account Number) and dCVV (dynamic CVV).\00", align 16
@_ZN17flag_descriptions33kAutofillAssistantChromeEntryNameE = hidden local_unnamed_addr constant [29 x i8] c"AutofillAssistantChromeEntry\00", align 16
@_ZN17flag_descriptions40kAutofillAssistantChromeEntryDescriptionE = hidden local_unnamed_addr constant [48 x i8] c"Initiate autofill assistant from within Chrome.\00", align 16
@_ZN17flag_descriptions46kAutofillAutoTriggerManualFallbackForCardsNameE = hidden local_unnamed_addr constant [72 x i8] c"Auto trigger manual fallback for credit card form-filling failure cases\00", align 16
@_ZN17flag_descriptions53kAutofillAutoTriggerManualFallbackForCardsDescriptionE = hidden local_unnamed_addr constant [146 x i8] c"When enabled, manual fallback will be auto-triggered on form interaction in the case where autofill failed to fill a credit card form accurately.\00", align 16
@_ZN17flag_descriptions35kAutofillEnableGoogleIssuedCardNameE = hidden local_unnamed_addr constant [35 x i8] c"Enable Autofill Google-issued card\00", align 16
@_ZN17flag_descriptions42kAutofillEnableGoogleIssuedCardDescriptionE = hidden local_unnamed_addr constant [81 x i8] c"When enabled, Google-issued cards will be available in the autofill suggestions.\00", align 16
@_ZN17flag_descriptions44kAutofillEnableMerchantBoundVirtualCardsNameE = hidden local_unnamed_addr constant [47 x i8] c"Offer merchant bound virtual cards in Autofill\00", align 16
@_ZN17flag_descriptions51kAutofillEnableMerchantBoundVirtualCardsDescriptionE = hidden local_unnamed_addr constant [88 x i8] c"When enabled, Autofill will offer to use merchant bound virtual cards in payment forms.\00", align 16
@_ZN17flag_descriptions36kAutofillEnableOfferNotificationNameE = hidden local_unnamed_addr constant [48 x i8] c"Enable Autofill offers and rewards notification\00", align 16
@_ZN17flag_descriptions43kAutofillEnableOfferNotificationDescriptionE = hidden local_unnamed_addr constant [132 x i8] c"When enabled, a notification will be displayed on page navigation if the domain has an eligible credit card linked offer or reward.\00", align 16
@_ZN17flag_descriptions52kAutofillEnableOfferNotificationCrossTabTrackingNameE = hidden local_unnamed_addr constant [65 x i8] c"Enable cross tab status tracking for Autofill offer notification\00", align 16
@_ZN17flag_descriptions59kAutofillEnableOfferNotificationCrossTabTrackingDescriptionE = hidden local_unnamed_addr constant [135 x i8] c"When enabled, the offer notification showing will be tracked cross-tab, and on one merchant, the notification will only be shown once.\00", align 16
@_ZN17flag_descriptions49kAutofillEnableOffersInClankKeyboardAccessoryNameE = hidden local_unnamed_addr constant [45 x i8] c"Enable Autofill offers in keyboard accessory\00", align 16
@_ZN17flag_descriptions56kAutofillEnableOffersInClankKeyboardAccessoryDescriptionE = hidden local_unnamed_addr constant [81 x i8] c"When enabled, offers will be displayed in the keyboard accessory when available.\00", align 16
@_ZN17flag_descriptions37kAutofillEnableOffersInDownstreamNameE = hidden local_unnamed_addr constant [37 x i8] c"Enable Autofill offers in downstream\00", align 16
@_ZN17flag_descriptions44kAutofillEnableOffersInDownstreamDescriptionE = hidden local_unnamed_addr constant [93 x i8] c"When enabled, offer data will be retrieved during downstream and shown in the dropdown list.\00", align 16
@_ZN17flag_descriptions47kAutofillEnableStickyManualFallbackForCardsNameE = hidden local_unnamed_addr constant [45 x i8] c"Make manual fallback sticky for credit cards\00", align 16
@_ZN17flag_descriptions54kAutofillEnableStickyManualFallbackForCardsDescriptionE = hidden local_unnamed_addr constant [124 x i8] c"When enabled, if the user interacts with the manual fallback bottom sheet, it'll remain sticky until the user dismisses it.\00", align 16
@_ZN17flag_descriptions36kAutofillEnableToolbarStatusChipNameE = hidden local_unnamed_addr constant [60 x i8] c"Move Autofill omnibox icons next to the profile avatar icon\00", align 16
@_ZN17flag_descriptions43kAutofillEnableToolbarStatusChipDescriptionE = hidden local_unnamed_addr constant [122 x i8] c"When enabled, Autofill data related icon will be shown in the status chip next to the profile avatar icon in the toolbar.\00", align 16
@_ZN17flag_descriptions30kAutofillEnableVirtualCardNameE = hidden local_unnamed_addr constant [50 x i8] c"Offer to use cloud token virtual card in Autofill\00", align 16
@_ZN17flag_descriptions37kAutofillEnableVirtualCardDescriptionE = hidden local_unnamed_addr constant [108 x i8] c"When enabled, if all requirements are met, Autofill will offer to use virtual credit cards in form filling.\00", align 16
@_ZN17flag_descriptions32kAutofillFixOfferInIncognitoNameE = hidden local_unnamed_addr constant [52 x i8] c"Enable the fix for Autofill offer in Incognito mode\00", align 16
@_ZN17flag_descriptions39kAutofillFixOfferInIncognitoDescriptionE = hidden local_unnamed_addr constant [90 x i8] c"When enabled, the fix will be enabled and offers should work correctly in Incognito mode.\00", align 16
@_ZN17flag_descriptions41kAutofillParseMerchantPromoCodeFieldsNameE = hidden local_unnamed_addr constant [33 x i8] c"Parse promo code fields in forms\00", align 16
@_ZN17flag_descriptions48kAutofillParseMerchantPromoCodeFieldsDescriptionE = hidden local_unnamed_addr constant [103 x i8] c"When enabled, Autofill will attempt to find merchant promo/coupon/gift code fields when parsing forms.\00", align 16
@_ZN17flag_descriptions36kAutofillProfileClientValidationNameE = hidden local_unnamed_addr constant [38 x i8] c"Autofill Validates Profiles By Client\00", align 16
@_ZN17flag_descriptions43kAutofillProfileClientValidationDescriptionE = hidden local_unnamed_addr constant [56 x i8] c"Allows autofill to validate profiles on the client side\00", align 16
@_ZN17flag_descriptions36kAutofillProfileServerValidationNameE = hidden local_unnamed_addr constant [32 x i8] c"Autofill Uses Server Validation\00", align 16
@_ZN17flag_descriptions43kAutofillProfileServerValidationDescriptionE = hidden local_unnamed_addr constant [46 x i8] c"Allows autofill to use server side validation\00", align 16
@_ZN17flag_descriptions29kAutofillPruneSuggestionsNameE = hidden local_unnamed_addr constant [27 x i8] c"Autofill Prune Suggestions\00", align 16
@_ZN17flag_descriptions36kAutofillPruneSuggestionsDescriptionE = hidden local_unnamed_addr constant [67 x i8] c"Further limits the number of suggestions in the Autofill dropdown.\00", align 16
@_ZN17flag_descriptions27kAutofillSaveAndFillVPANameE = hidden local_unnamed_addr constant [42 x i8] c"Offer save and autofill of UPI/VPA values\00", align 16
@_ZN17flag_descriptions34kAutofillSaveAndFillVPADescriptionE = hidden local_unnamed_addr constant [169 x i8] c"If enabled, when autofill recognizes a UPI/VPA value in a payment form, it will offer to save it. If saved, it will be offered for filling in fields which expect a VPA.\00", align 16
@_ZN17flag_descriptions55kAutofillSuggestVirtualCardsOnlyOnFullFormDetectionNameE = hidden local_unnamed_addr constant [60 x i8] c"Autofill suggests virtual cards only on full form detection\00", align 16
@_ZN17flag_descriptions62kAutofillSuggestVirtualCardsOnlyOnFullFormDetectionDescriptionE = hidden local_unnamed_addr constant [149 x i8] c"When enabled, merchant bound virtual cards will be suggested only if all of the card number, exp date and CVC fields are detected in a payment form.\00", align 16
@_ZN17flag_descriptions43kAutofillUseImprovedLabelDisambiguationNameE = hidden local_unnamed_addr constant [44 x i8] c"Autofill Uses Improved Label Disambiguation\00", align 16
@_ZN17flag_descriptions50kAutofillUseImprovedLabelDisambiguationDescriptionE = hidden local_unnamed_addr constant [114 x i8] c"When enabled, the Autofill dropdown's suggestions' labels are displayed using the improved disambiguation format.\00", align 16
@_ZN17flag_descriptions25kAutoScreenBrightnessNameE = hidden local_unnamed_addr constant [29 x i8] c"Auto Screen Brightness model\00", align 16
@_ZN17flag_descriptions32kAutoScreenBrightnessDescriptionE = hidden local_unnamed_addr constant [251 x i8] c"Uses Auto Screen Brightness ML model (if it exists) to adjust screen brightness based on ambient light. If disabled, screen brightness will be controlled by the heuristic model provided by powerd (and only on devices that have ambient light sensors).\00", align 16
@_ZN17flag_descriptions24kAvatarToolbarButtonNameE = hidden local_unnamed_addr constant [22 x i8] c"Avatar Toolbar Button\00", align 16
@_ZN17flag_descriptions31kAvatarToolbarButtonDescriptionE = hidden local_unnamed_addr constant [58 x i8] c"Enables the avatar toolbar button and the associated menu\00", align 16
@_ZN17flag_descriptions21kBackForwardCacheNameE = hidden local_unnamed_addr constant [19 x i8] c"Back-forward cache\00", align 16
@_ZN17flag_descriptions28kBackForwardCacheDescriptionE = hidden local_unnamed_addr constant [153 x i8] c"If enabled, caches eligible pages after cross-site navigations.To enable caching pages on same-site navigations too, choose 'enabled same-site support'.\00", align 16
@_ZN17flag_descriptions38kBiometricReauthForPasswordFillingNameE = hidden local_unnamed_addr constant [38 x i8] c"Biometric reauth for password filling\00", align 16
@_ZN17flag_descriptions45kBiometricReauthForPasswordFillingDescriptionE = hidden local_unnamed_addr constant [59 x i8] c"Enables biometricre-authentication before password filling\00", align 16
@_ZN17flag_descriptions36kBypassAppBannerEngagementChecksNameE = hidden local_unnamed_addr constant [30 x i8] c"Bypass user engagement checks\00", align 16
@_ZN17flag_descriptions43kBypassAppBannerEngagementChecksDescriptionE = hidden local_unnamed_addr constant [294 x i8] c"Bypasses user engagement checks for displaying app banners, such as requiring that users have visited the site before and that the banner hasn't been shown recently. This allows developers to test that other eligibility requirements for showing app banners, such as having a manifest, are met.\00", align 16
@_ZN17flag_descriptions34kChangePasswordAffiliationInfoNameE = hidden local_unnamed_addr constant [51 x i8] c"Using Affiliation Service for Change Password URLs\00", align 16
@_ZN17flag_descriptions41kChangePasswordAffiliationInfoDescriptionE = hidden local_unnamed_addr constant [114 x i8] c"In case site doesn't support /.well-known/change-password Chrome will try to obtain it using Affiliation Service.\00", align 16
@_ZN17flag_descriptions27kCheckOfflineCapabilityNameE = hidden local_unnamed_addr constant [34 x i8] c"Check offline capability for PWAs\00", align 16
@_ZN17flag_descriptions34kCheckOfflineCapabilityDescriptionE = hidden local_unnamed_addr constant [103 x i8] c"Use advanced offline capability check to decide whether the browser displays install prompts for PWAs.\00", align 16
@_ZN17flag_descriptions15kChromeLabsNameE = hidden local_unnamed_addr constant [12 x i8] c"Chrome Labs\00", align 1
@_ZN17flag_descriptions22kChromeLabsDescriptionE = hidden local_unnamed_addr constant [95 x i8] c"Access Chrome Labs through the toolbar menu to see featured user-facing experimental features.\00", align 16
@_ZN17flag_descriptions24kCompositeAfterPaintNameE = hidden local_unnamed_addr constant [22 x i8] c"Composite after paint\00", align 16
@_ZN17flag_descriptions31kCompositeAfterPaintDescriptionE = hidden local_unnamed_addr constant [87 x i8] c"A new algorithm to create compositing layers. See http://bit.ly/composite-after-paint.\00", align 16
@_ZN17flag_descriptions30kContextMenuGoogleLensChipNameE = hidden local_unnamed_addr constant [80 x i8] c"Google Lens powered image search for surfaced as a chip below the context menu.\00", align 16
@_ZN17flag_descriptions37kContextMenuGoogleLensChipDescriptionE = hidden local_unnamed_addr constant [70 x i8] c"Enable a chip for a Shopping intent into Google Lens when supported. \00", align 16
@_ZN17flag_descriptions36kContextMenuSearchWithGoogleLensNameE = hidden local_unnamed_addr constant [54 x i8] c"Google Lens powered image search in the context menu.\00", align 16
@_ZN17flag_descriptions43kContextMenuSearchWithGoogleLensDescriptionE = hidden local_unnamed_addr constant [76 x i8] c"Replaces default image search with an intent to Google Lens when supported.\00", align 16
@_ZN17flag_descriptions34kContextMenuShopWithGoogleLensNameE = hidden local_unnamed_addr constant [75 x i8] c"Google Lens powered image search for shoppable images in the context menu.\00", align 16
@_ZN17flag_descriptions41kContextMenuShopWithGoogleLensDescriptionE = hidden local_unnamed_addr constant [130 x i8] c"Enable a menu item for a Shopping intent into Google Lens when supported. By default replaces the Search with Google Lens option.\00", align 16
@_ZN17flag_descriptions43kContextMenuSearchAndShopWithGoogleLensNameE = hidden local_unnamed_addr constant [92 x i8] c"Additional menu item for Google Lens image search for shoppable images in the context menu.\00", align 16
@_ZN17flag_descriptions50kContextMenuSearchAndShopWithGoogleLensDescriptionE = hidden local_unnamed_addr constant [137 x i8] c"Display an additional menu item for a Shopping intent to Google Lens below Search with Google Lens when Lens shopping feature is enabled\00", align 16
@_ZN17flag_descriptions39kContextMenuTranslateWithGoogleLensNameE = hidden local_unnamed_addr constant [100 x i8] c"Google Lens powered image search for translatable images surfaced as a chip under the context menu.\00", align 16
@_ZN17flag_descriptions46kContextMenuTranslateWithGoogleLensDescriptionE = hidden local_unnamed_addr constant [70 x i8] c"Enable a chip for a Translate intent into Google Lens when supported.\00", align 16
@_ZN17flag_descriptions19kClickToOpenPDFNameE = hidden local_unnamed_addr constant [28 x i8] c"Click to open embedded PDFs\00", align 16
@_ZN17flag_descriptions26kClickToOpenPDFDescriptionE = hidden local_unnamed_addr constant [88 x i8] c"When the PDF plugin is unavailable, show a click-to-open placeholder for embedded PDFs.\00", align 16
@_ZN17flag_descriptions39kClientStorageAccessContextAuditingNameE = hidden local_unnamed_addr constant [40 x i8] c"Access contexts for client-side storage\00", align 16
@_ZN17flag_descriptions46kClientStorageAccessContextAuditingDescriptionE = hidden local_unnamed_addr constant [74 x i8] c"Record the first-party contexts in which client-side storage was accessed\00", align 16
@_ZN17flag_descriptions23kClipboardFilenamesNameE = hidden local_unnamed_addr constant [20 x i8] c"Clipboard filenames\00", align 16
@_ZN17flag_descriptions30kClipboardFilenamesDescriptionE = hidden local_unnamed_addr constant [48 x i8] c"Support reading files in clipboard DataTransfer\00", align 16
@_ZN17flag_descriptions54kClearCrossSiteCrossBrowsingContextGroupWindowNameNameE = hidden local_unnamed_addr constant [82 x i8] c"Clear window name in top-level cross-site cross-browsing-context-group navigation\00", align 16
@_ZN17flag_descriptions61kClearCrossSiteCrossBrowsingContextGroupWindowNameDescriptionE = hidden local_unnamed_addr constant [118 x i8] c"Clear the preserved window.name property when it's a top-level cross-site navigation that swaps BrowsingContextGroup.\00", align 16
@_ZN17flag_descriptions27kCompositingBasedThrottlingE = hidden local_unnamed_addr constant [29 x i8] c"Compositing-based Throttling\00", align 16
@_ZN17flag_descriptions38kCompositingBasedThrottlingDescriptionE = hidden local_unnamed_addr constant [119 x i8] c"Enables compositing-based throttling to throttle appropriate frame sinks that do not need to be refreshed at high fps.\00", align 16
@_ZN17flag_descriptions18kDarkLightTestNameE = hidden local_unnamed_addr constant [29 x i8] c"Dark/light mode of system UI\00", align 16
@_ZN17flag_descriptions25kDarkLightTestDescriptionE = hidden local_unnamed_addr constant [91 x i8] c"Enables the dark/light mode of system UI, which includes shelf, launcher, system tray etc.\00", align 16
@_ZN17flag_descriptions29kDecodeJpeg420ImagesToYUVNameE = hidden local_unnamed_addr constant [22 x i8] c"YUV decoding for JPEG\00", align 16
@_ZN17flag_descriptions36kDecodeJpeg420ImagesToYUVDescriptionE = hidden local_unnamed_addr constant [137 x i8] c"Decode and render 4:2:0 formatted jpeg images from YUV instead of RGB.This feature requires GPU or OOP rasterization to also be enabled.\00", align 16
@_ZN17flag_descriptions31kDecodeLossyWebPImagesToYUVNameE = hidden local_unnamed_addr constant [22 x i8] c"YUV Decoding for WebP\00", align 16
@_ZN17flag_descriptions38kDecodeLossyWebPImagesToYUVDescriptionE = hidden local_unnamed_addr constant [120 x i8] c"Decode and render lossy WebP images from YUV instead of RGB. You must also have GPU rasterization or OOP rasterization.\00", align 16
@_ZN17flag_descriptions28kDoubleBufferCompositingNameE = hidden local_unnamed_addr constant [28 x i8] c"Double buffered compositing\00", align 16
@_ZN17flag_descriptions35kDoubleBufferCompositingDescriptionE = hidden local_unnamed_addr constant [159 x i8] c"Use double buffer for compositing (instead of triple-buffering). Latency should be reduced in some cases. On the other hand, more skipped frames are expected.\00", align 16
@_ZN17flag_descriptions34kEnablePasswordsAccountStorageNameE = hidden local_unnamed_addr constant [46 x i8] c"Enable the account data storage for passwords\00", align 16
@_ZN17flag_descriptions41kEnablePasswordsAccountStorageDescriptionE = hidden local_unnamed_addr constant [103 x i8] c"Enables storing passwords in a second, Gaia-account-scoped storage for signed-in but not syncing users\00", align 16
@_ZN17flag_descriptions37kEnablePasswordsAccountStorageIPHNameE = hidden local_unnamed_addr constant [54 x i8] c"Enable IPH for the account data storage for passwords\00", align 16
@_ZN17flag_descriptions44kEnablePasswordsAccountStorageIPHDescriptionE = hidden local_unnamed_addr constant [133 x i8] c"Enables in-product help bubbles about storing passwords in a second, Gaia-account-scoped storage for signed-in but not syncing users\00", align 16
@_ZN17flag_descriptions10kFocusModeE = hidden local_unnamed_addr constant [11 x i8] c"Focus Mode\00", align 1
@_ZN17flag_descriptions21kFocusModeDescriptionE = hidden local_unnamed_addr constant [52 x i8] c"If enabled, allows the user to switch to Focus Mode\00", align 16
@_ZN17flag_descriptions18kFontAccessAPINameE = hidden local_unnamed_addr constant [17 x i8] c"Font Access APIs\00", align 16
@_ZN17flag_descriptions25kFontAccessAPIDescriptionE = hidden local_unnamed_addr constant [120 x i8] c"Enables the experimental Font Access APIs, giving websites access to enumerate local fonts and access their table data.\00", align 16
@_ZN17flag_descriptions25kFontAccessPersistentNameE = hidden local_unnamed_addr constant [48 x i8] c"Enable persistent access to the Font Access API\00", align 16
@_ZN17flag_descriptions32kFontAccessPersistentDescriptionE = hidden local_unnamed_addr constant [132 x i8] c"Enables persistent access to the Font Access API, giving websites access to enumerate local fonts after being granted a permission.\00", align 16
@_ZN17flag_descriptions22kForceColorProfileSRGBE = hidden local_unnamed_addr constant [5 x i8] c"sRGB\00", align 1
@_ZN17flag_descriptions20kForceColorProfileP3E = hidden local_unnamed_addr constant [15 x i8] c"Display P3 D65\00", align 1
@_ZN17flag_descriptions27kForceColorProfileColorSpinE = hidden local_unnamed_addr constant [26 x i8] c"Color spin with gamma 2.4\00", align 16
@_ZN17flag_descriptions29kForceColorProfileSCRGBLinearE = hidden local_unnamed_addr constant [35 x i8] c"scRGB linear (HDR where available)\00", align 16
@_ZN17flag_descriptions23kForceColorProfileHDR10E = hidden local_unnamed_addr constant [28 x i8] c"HDR10 (HDR where available)\00", align 16
@_ZN17flag_descriptions22kForceColorProfileNameE = hidden local_unnamed_addr constant [20 x i8] c"Force color profile\00", align 16
@_ZN17flag_descriptions29kForceColorProfileDescriptionE = hidden local_unnamed_addr constant [138 x i8] c"Forces Chrome to use a specific color profile instead of the color of the window's current monitor, as specified by the operating system.\00", align 16
@_ZN17flag_descriptions22kDynamicColorGamutNameE = hidden local_unnamed_addr constant [20 x i8] c"Dynamic color gamut\00", align 16
@_ZN17flag_descriptions29kDynamicColorGamutDescriptionE = hidden local_unnamed_addr constant [93 x i8] c"Displays in wide color when the content is wide. When the content is not wide, displays sRGB\00", align 16
@_ZN17flag_descriptions26kCooperativeSchedulingNameE = hidden local_unnamed_addr constant [23 x i8] c"Cooperative Scheduling\00", align 16
@_ZN17flag_descriptions33kCooperativeSchedulingDescriptionE = hidden local_unnamed_addr constant [41 x i8] c"Enables cooperative scheduling in Blink.\00", align 16
@_ZN17flag_descriptions21kCreditCardAssistNameE = hidden local_unnamed_addr constant [29 x i8] c"Credit Card Assisted Filling\00", align 16
@_ZN17flag_descriptions28kCreditCardAssistDescriptionE = hidden local_unnamed_addr constant [54 x i8] c"Enable assisted credit card filling on certain sites.\00", align 16
@_ZN17flag_descriptions42kDarkenWebsitesCheckboxInThemesSettingNameE = hidden local_unnamed_addr constant [43 x i8] c"Darken websites checkbox in themes setting\00", align 16
@_ZN17flag_descriptions49kDarkenWebsitesCheckboxInThemesSettingDescriptionE = hidden local_unnamed_addr constant [156 x i8] c"Show a darken websites checkbox in themes settings when system default or dark is selected. The checkbox can toggle the auto-darkening web contents feature\00", align 16
@_ZN17flag_descriptions19kDebugPackedAppNameE = hidden local_unnamed_addr constant [26 x i8] c"Debugging for packed apps\00", align 16
@_ZN17flag_descriptions26kDebugPackedAppDescriptionE = hidden local_unnamed_addr constant [88 x i8] c"Enables debugging context menu options such as Inspect Element for packed applications.\00", align 16
@_ZN17flag_descriptions19kDebugShortcutsNameE = hidden local_unnamed_addr constant [29 x i8] c"Debugging keyboard shortcuts\00", align 16
@_ZN17flag_descriptions26kDebugShortcutsDescriptionE = hidden local_unnamed_addr constant [73 x i8] c"Enables additional keyboard shortcuts that are useful for debugging Ash.\00", align 16
@_ZN17flag_descriptions36kDetectTargetEmbeddingLookalikesNameE = hidden local_unnamed_addr constant [47 x i8] c"Detect target embedding domains as lookalikes.\00", align 16
@_ZN17flag_descriptions43kDetectTargetEmbeddingLookalikesDescriptionE = hidden local_unnamed_addr constant [105 x i8] c"Shows a lookalike interstitial when navigating to target embedding domains(e.g. google.com.example.com).\00", align 16
@_ZN17flag_descriptions33kDeviceDiscoveryNotificationsNameE = hidden local_unnamed_addr constant [31 x i8] c"Device Discovery Notifications\00", align 16
@_ZN17flag_descriptions40kDeviceDiscoveryNotificationsDescriptionE = hidden local_unnamed_addr constant [49 x i8] c"Device discovery notifications on local network.\00", align 16
@_ZN17flag_descriptions32kDisallowDocWrittenScriptsUiNameE = hidden local_unnamed_addr constant [40 x i8] c"Block scripts loaded via document.write\00", align 16
@_ZN17flag_descriptions39kDisallowDocWrittenScriptsUiDescriptionE = hidden local_unnamed_addr constant [107 x i8] c"Disallows fetches for third-party parser-blocking scripts inserted into the main frame via document.write.\00", align 16
@_ZN17flag_descriptions23kDocumentTransitionNameE = hidden local_unnamed_addr constant [23 x i8] c"documentTransition API\00", align 16
@_ZN17flag_descriptions30kDocumentTransitionDescriptionE = hidden local_unnamed_addr constant [68 x i8] c"Controls the availability of the documentTransition JavaScript API.\00", align 16
@_ZN17flag_descriptions35kEnableAccessibilityObjectModelNameE = hidden local_unnamed_addr constant [43 x i8] c"Accessibility Object Model v0 (deprecated)\00", align 16
@_ZN17flag_descriptions42kEnableAccessibilityObjectModelDescriptionE = hidden local_unnamed_addr constant [111 x i8] c"Enables experimental support for an earlier version of AccessibilityObject Model APIs that are now deprecated.\00", align 16
@_ZN17flag_descriptions32kEnableAudioFocusEnforcementNameE = hidden local_unnamed_addr constant [24 x i8] c"Audio Focus Enforcement\00", align 16
@_ZN17flag_descriptions39kEnableAudioFocusEnforcementDescriptionE = hidden local_unnamed_addr constant [140 x i8] c"Enables enforcement of a single media session having audio focus at any one time. Requires #enable-media-session-service to be enabled too.\00", align 16
@_ZN17flag_descriptions39kEnableAutofillAccountWalletStorageNameE = hidden local_unnamed_addr constant [45 x i8] c"Enable the account data storage for autofill\00", align 16
@_ZN17flag_descriptions46kEnableAutofillAccountWalletStorageDescriptionE = hidden local_unnamed_addr constant [60 x i8] c"Enable the ephemeral storage for account data for autofill.\00", align 16
@_ZN17flag_descriptions36kEnableAutofillAddressSavePromptNameE = hidden local_unnamed_addr constant [30 x i8] c"Autofill Address Save Prompts\00", align 16
@_ZN17flag_descriptions43kEnableAutofillAddressSavePromptDescriptionE = hidden local_unnamed_addr constant [42 x i8] c"Enable the Autofill address save prompts.\00", align 16
@_ZN17flag_descriptions43kEnableAutofillCreditCardAuthenticationNameE = hidden local_unnamed_addr constant [61 x i8] c"Allow using platform authenticators to retrieve server cards\00", align 16
@_ZN17flag_descriptions50kEnableAutofillCreditCardAuthenticationDescriptionE = hidden local_unnamed_addr constant [168 x i8] c"When enabled, users will be given the option to use a platform authenticator (if available) to verify card ownership when retrieving credit cards from Google Payments.\00", align 16
@_ZN17flag_descriptions70kEnableAutofillInfoBarAccountIndicationFooterForSingleAccountUsersNameE = hidden local_unnamed_addr constant [85 x i8] c"Display InfoBar footers with account indication information for single account users\00", align 16
@_ZN17flag_descriptions77kEnableAutofillInfoBarAccountIndicationFooterForSingleAccountUsersDescriptionE = hidden local_unnamed_addr constant [183 x i8] c"When enabled and user has single account, a footer indicating user's e-mail address  will appear at the bottom of InfoBars which has corresponding account indication footer flags on.\00", align 16
@_ZN17flag_descriptions61kEnableAutofillInfoBarAccountIndicationFooterForSyncUsersNameE = hidden local_unnamed_addr constant [75 x i8] c"Display InfoBar footers with account indication information for sync users\00", align 16
@_ZN17flag_descriptions68kEnableAutofillInfoBarAccountIndicationFooterForSyncUsersDescriptionE = hidden local_unnamed_addr constant [177 x i8] c"When enabled and user is signed in, a footer indicating user's e-mail address  will appear at the bottom of InfoBars which has corresponding account indication footer flags on.\00", align 16
@_ZN17flag_descriptions57kEnableAutofillPasswordInfoBarAccountIndicationFooterNameE = hidden local_unnamed_addr constant [69 x i8] c"Display password InfoBar footers with account indication information\00", align 16
@_ZN17flag_descriptions64kEnableAutofillPasswordInfoBarAccountIndicationFooterDescriptionE = hidden local_unnamed_addr constant [118 x i8] c"When enabled, a footer indicating user's e-mail address will appear at the bottom of corresponding password InfoBars.\00", align 16
@_ZN17flag_descriptions57kEnableAutofillSaveCardInfoBarAccountIndicationFooterNameE = hidden local_unnamed_addr constant [67 x i8] c"Display SaveCardInfoBar footer with account indication information\00", align 16
@_ZN17flag_descriptions64kEnableAutofillSaveCardInfoBarAccountIndicationFooterDescriptionE = hidden local_unnamed_addr constant [102 x i8] c"When enabled, a footer indicating user's e-mail address will appear at the bottom of SaveCardInfoBar.\00", align 16
@_ZN17flag_descriptions43kEnableAutofillCreditCardUploadFeedbackNameE = hidden local_unnamed_addr constant [44 x i8] c"Enable feedback for credit card upload flow\00", align 16
@_ZN17flag_descriptions50kEnableAutofillCreditCardUploadFeedbackDescriptionE = hidden local_unnamed_addr constant [188 x i8] c"When enabled, if credit card upload succeeds, the avatar button will show a highlight, otherwise the icon will be updated and if it is clicked, the save card failure bubble will be shown.\00", align 16
@_ZN17flag_descriptions37kEnableExperimentalCookieFeaturesNameE = hidden local_unnamed_addr constant [36 x i8] c"Enable experimental cookie features\00", align 16
@_ZN17flag_descriptions44kEnableExperimentalCookieFeaturesDescriptionE = hidden local_unnamed_addr constant [128 x i8] c"Enable new features that affect setting, sending, and managing cookies. The enabled features are subject to change at any time.\00", align 16
@_ZN17flag_descriptions19kEnableSaveDataNameE = hidden local_unnamed_addr constant [26 x i8] c"Enables save data feature\00", align 16
@_ZN17flag_descriptions26kEnableSaveDataDescriptionE = hidden local_unnamed_addr constant [101 x i8] c"Enables save data feature. May cause user's traffic to be proxied via Google's data reduction proxy.\00", align 16
@_ZN17flag_descriptions30kEnableNavigationPredictorNameE = hidden local_unnamed_addr constant [29 x i8] c"Enables navigation predictor\00", align 16
@_ZN17flag_descriptions37kEnableNavigationPredictorDescriptionE = hidden local_unnamed_addr constant [105 x i8] c"Enables navigation predictor feature that predicts the next likely navigation using a set of heuristics.\00", align 16
@_ZN17flag_descriptions29kEnablePreconnectToSearchNameE = hidden local_unnamed_addr constant [48 x i8] c"Enables preconnections to default search engine\00", align 16
@_ZN17flag_descriptions36kEnablePreconnectToSearchDescriptionE = hidden local_unnamed_addr constant [74 x i8] c"Enables the feature that preconnects to the user's default search engine.\00", align 16
@_ZN17flag_descriptions39kEnableRemovingAllThirdPartyCookiesNameE = hidden local_unnamed_addr constant [38 x i8] c"Enable removing SameSite=None cookies\00", align 16
@_ZN17flag_descriptions46kEnableRemovingAllThirdPartyCookiesDescriptionE = hidden local_unnamed_addr constant [90 x i8] c"Enables UI on chrome://settings/siteData to remove all third-party cookies and site data.\00", align 16
@_ZN17flag_descriptions38kEnableBrowsingDataLifetimeManagerNameE = hidden local_unnamed_addr constant [56 x i8] c"Enables the BrowsingDataLifetimeManager service to run.\00", align 16
@_ZN17flag_descriptions45kEnableBrowsingDataLifetimeManagerDescriptionE = hidden local_unnamed_addr constant [142 x i8] c"Enables the BrowsingDataLifetimeManager service to run and periodically delete browsing data as specified by the BrowsingDataLifetime policy.\00", align 16
@_ZN17flag_descriptions29kColorProviderRedirectionNameE = hidden local_unnamed_addr constant [27 x i8] c"Color Provider Redirection\00", align 16
@_ZN17flag_descriptions36kColorProviderRedirectionDescriptionE = hidden local_unnamed_addr constant [63 x i8] c"Redirects color requests to the color provider where possible.\00", align 16
@_ZN17flag_descriptions42kDesktopPWAsPrefixAppNameInWindowTitleNameE = hidden local_unnamed_addr constant [48 x i8] c"Desktop PWAs prefix window title with app name.\00", align 16
@_ZN17flag_descriptions49kDesktopPWAsPrefixAppNameInWindowTitleDescriptionE = hidden local_unnamed_addr constant [134 x i8] c"Prefix the window title of installed PWAs with the name of the PWA. On ChromeOS this is visible only in the window/activity switcher.\00", align 16
@_ZN17flag_descriptions36kDesktopPWAsAppIconShortcutsMenuNameE = hidden local_unnamed_addr constant [37 x i8] c"Desktop PWAs app icon shortcuts menu\00", align 16
@_ZN17flag_descriptions43kDesktopPWAsAppIconShortcutsMenuDescriptionE = hidden local_unnamed_addr constant [140 x i8] c"Enable installed PWAs to include a menu of shortcuts associated with the app icon in the taskbar on Windows, or the dock on macOS or Linux.\00", align 16
@_ZN17flag_descriptions38kDesktopPWAsAppIconShortcutsMenuUINameE = hidden local_unnamed_addr constant [40 x i8] c"Desktop PWAs app icon shortcuts menu UI\00", align 16
@_ZN17flag_descriptions45kDesktopPWAsAppIconShortcutsMenuUIDescriptionE = hidden local_unnamed_addr constant [49 x i8] c"Show web app shortcuts in the shelf context menu\00", align 16
@_ZN17flag_descriptions36kDesktopPWAsAttentionBadgingCrOSNameE = hidden local_unnamed_addr constant [31 x i8] c"Desktop PWAs Attention Badging\00", align 16
@_ZN17flag_descriptions43kDesktopPWAsAttentionBadgingCrOSDescriptionE = hidden local_unnamed_addr constant [66 x i8] c"Enable attention badging for PWA icons in the shelf and launcher.\00", align 16
@_ZN17flag_descriptions51kDesktopPWAsAttentionBadgingCrOSApiAndNotificationsE = hidden local_unnamed_addr constant [34 x i8] c"for Badging API and notifications\00", align 16
@_ZN17flag_descriptions57kDesktopPWAsAttentionBadgingCrOSApiOverridesNotificationsE = hidden local_unnamed_addr constant [65 x i8] c"for Badging API, or notifications for apps not using Badging API\00", align 16
@_ZN17flag_descriptions39kDesktopPWAsAttentionBadgingCrOSApiOnlyE = hidden local_unnamed_addr constant [21 x i8] c"for Badging API only\00", align 16
@_ZN17flag_descriptions49kDesktopPWAsAttentionBadgingCrOSNotificationsOnlyE = hidden local_unnamed_addr constant [23 x i8] c"for notifications only\00", align 16
@_ZN17flag_descriptions31kDesktopPWAsRemoveStatusBarNameE = hidden local_unnamed_addr constant [31 x i8] c"Desktop PWAs remove status bar\00", align 16
@_ZN17flag_descriptions38kDesktopPWAsRemoveStatusBarDescriptionE = hidden local_unnamed_addr constant [55 x i8] c"Hides the status bar popup in Desktop PWA app windows.\00", align 16
@_ZN17flag_descriptions36kDesktopPWAsElidedExtensionsMenuNameE = hidden local_unnamed_addr constant [36 x i8] c"Desktop PWAs elided extensions menu\00", align 16
@_ZN17flag_descriptions43kDesktopPWAsElidedExtensionsMenuDescriptionE = hidden local_unnamed_addr constant [99 x i8] c"Moves the Extensions \22puzzle piece\22 icon from the title bar into the app menu for web app windows.\00", align 16
@_ZN17flag_descriptions43kDesktopPWAsFlashAppNameInsteadOfOriginNameE = hidden local_unnamed_addr constant [46 x i8] c"Desktop PWAs flash app name instead of origin\00", align 16
@_ZN17flag_descriptions50kDesktopPWAsFlashAppNameInsteadOfOriginDescriptionE = hidden local_unnamed_addr constant [82 x i8] c"Replaces the origin flash with an app name flash when launching a web app window.\00", align 16
@_ZN17flag_descriptions40kDesktopPWAsNotificationIconAndTitleNameE = hidden local_unnamed_addr constant [57 x i8] c"Desktop PWAs improvements in notification icon and title\00", align 16
@_ZN17flag_descriptions47kDesktopPWAsNotificationIconAndTitleDescriptionE = hidden local_unnamed_addr constant [104 x i8] c"Replaces the websites origin and the Chrome icon with the web app's name and app icon in notifications.\00", align 16
@_ZN17flag_descriptions29kDesktopPWAsLinkCapturingNameE = hidden local_unnamed_addr constant [39 x i8] c"Desktop PWA declarative link capturing\00", align 16
@_ZN17flag_descriptions36kDesktopPWAsLinkCapturingDescriptionE = hidden local_unnamed_addr constant [166 x i8] c"Enable web app manifests to declare link capturing behavior. Prototype implementation of: https://github.com/WICG/sw-launch/blob/master/declarative_link_capturing.md\00", align 16
@_ZN17flag_descriptions24kDesktopPWAsTabStripNameE = hidden local_unnamed_addr constant [23 x i8] c"Desktop PWA tab strips\00", align 16
@_ZN17flag_descriptions31kDesktopPWAsTabStripDescriptionE = hidden local_unnamed_addr constant [81 x i8] c"Experimental UI for exploring what PWA windows would look like with a tab strip.\00", align 16
@_ZN17flag_descriptions37kDesktopPWAsTabStripLinkCapturingNameE = hidden local_unnamed_addr constant [37 x i8] c"Desktop PWA tab strip link capturing\00", align 16
@_ZN17flag_descriptions44kDesktopPWAsTabStripLinkCapturingDescriptionE = hidden local_unnamed_addr constant [146 x i8] c"Experimental behaviour for \22Desktop PWA tab strips\22 to capture link navigations within the app scope and bring them into the app's tabbed window.\00", align 16
@_ZN17flag_descriptions28kDesktopPWAsRunOnOsLoginNameE = hidden local_unnamed_addr constant [29 x i8] c"Desktop PWAs run on OS login\00", align 16
@_ZN17flag_descriptions35kDesktopPWAsRunOnOsLoginDescriptionE = hidden local_unnamed_addr constant [88 x i8] c"Enable installed PWAs to be configured to automatically start when the OS user logs in.\00", align 16
@_ZN17flag_descriptions23kDesktopPWAsSubAppsNameE = hidden local_unnamed_addr constant [21 x i8] c"Desktop PWA Sub Apps\00", align 16
@_ZN17flag_descriptions30kDesktopPWAsSubAppsDescriptionE = hidden local_unnamed_addr constant [165 x i8] c"Enable installed PWAs to create shortcuts by installing their sub apps. Prototype implementation of: https://github.com/ivansandrk/multi-apps/blob/main/explainer.md\00", align 16
@_ZN17flag_descriptions32kDesktopPWAsProtocolHandlingNameE = hidden local_unnamed_addr constant [30 x i8] c"Desktop PWA Protocol handling\00", align 16
@_ZN17flag_descriptions39kDesktopPWAsProtocolHandlingDescriptionE = hidden local_unnamed_addr constant [95 x i8] c"Enable web app manifests to declare protocol handling behavior.See: https://crbug.com/1019239.\00", align 16
@_ZN17flag_descriptions27kDesktopPWAsUrlHandlingNameE = hidden local_unnamed_addr constant [25 x i8] c"Desktop PWA URL handling\00", align 16
@_ZN17flag_descriptions34kDesktopPWAsUrlHandlingDescriptionE = hidden local_unnamed_addr constant [153 x i8] c"Enable web app manifests to declare URL handling behavior. Prototype implementation of: https://github.com/WICG/pwa-url-handler/blob/master/explainer.md\00", align 16
@_ZN17flag_descriptions37kDesktopPWAsWindowControlsOverlayNameE = hidden local_unnamed_addr constant [36 x i8] c"Desktop PWA Window Controls Overlay\00", align 16
@_ZN17flag_descriptions44kDesktopPWAsWindowControlsOverlayDescriptionE = hidden local_unnamed_addr constant [183 x i8] c"Enable web app manifests to declare Window Controls Overlay as a display override. Prototype implementation of: https://github.com/WICG/window-controls-overlay/blob/main/explainer.md\00", align 16
@_ZN17flag_descriptions49kEnableMigrateDefaultChromeAppToWebAppsGSuiteNameE = hidden local_unnamed_addr constant [48 x i8] c"Migrate default G Suite Chrome apps to web apps\00", align 16
@_ZN17flag_descriptions56kEnableMigrateDefaultChromeAppToWebAppsGSuiteDescriptionE = hidden local_unnamed_addr constant [100 x i8] c"Enable the migration of default installed G Suite Chrome apps over to their corresponding web apps.\00", align 16
@_ZN17flag_descriptions52kEnableMigrateDefaultChromeAppToWebAppsNonGSuiteNameE = hidden local_unnamed_addr constant [52 x i8] c"Migrate default non-G Suite Chrome apps to web apps\00", align 16
@_ZN17flag_descriptions59kEnableMigrateDefaultChromeAppToWebAppsNonGSuiteDescriptionE = hidden local_unnamed_addr constant [104 x i8] c"Enable the migration of default installed non-G Suite Chrome apps over to their corresponding web apps.\00", align 16
@_ZN17flag_descriptions37kEnableSyncRequiresPoliciesLoadedNameE = hidden local_unnamed_addr constant [52 x i8] c"Sync waits for all policies to load before starting\00", align 16
@_ZN17flag_descriptions44kEnableSyncRequiresPoliciesLoadedDescriptionE = hidden local_unnamed_addr constant [76 x i8] c"Enables behaviour for Sync to wait for all policies to load before starting\00", align 16
@_ZN17flag_descriptions25kEnableTLS13EarlyDataNameE = hidden local_unnamed_addr constant [19 x i8] c"TLS 1.3 Early Data\00", align 16
@_ZN17flag_descriptions32kEnableTLS13EarlyDataDescriptionE = hidden local_unnamed_addr constant [153 x i8] c"This option enables TLS 1.3 Early Data, allowing GET requests to be sent during the handshake when resuming a connection to a compatible TLS 1.3 server.\00", align 16
@_ZN17flag_descriptions22kPostQuantumCECPQ2NameE = hidden local_unnamed_addr constant [33 x i8] c"TLS Post-Quantum Confidentiality\00", align 16
@_ZN17flag_descriptions29kPostQuantumCECPQ2DescriptionE = hidden local_unnamed_addr constant [113 x i8] c"This option enables a post-quantum (i.e. resistent to quantum computers) key exchange algorithm in TLS (CECPQ2).\00", align 16
@_ZN17flag_descriptions34kMacCoreLocationImplementationNameE = hidden local_unnamed_addr constant [29 x i8] c"Core Location Implementation\00", align 16
@_ZN17flag_descriptions41kMacCoreLocationImplementationDescriptionE = hidden local_unnamed_addr constant [76 x i8] c"Enables usage of the Core Location APIs to get location permission on macOS\00", align 16
@_ZN17flag_descriptions27kMacCoreLocationBackendNameE = hidden local_unnamed_addr constant [22 x i8] c"Core Location Backend\00", align 16
@_ZN17flag_descriptions34kMacCoreLocationBackendDescriptionE = hidden local_unnamed_addr constant [75 x i8] c"Enables usage of the Core Location APIs as the backend for Geolocation API\00", align 16
@_ZN17flag_descriptions26kNewMacNotificationAPINameE = hidden local_unnamed_addr constant [58 x i8] c"Determines which notification API to use on macOS devices\00", align 16
@_ZN17flag_descriptions33kNewMacNotificationAPIDescriptionE = hidden local_unnamed_addr constant [81 x i8] c"Enables the usage of Apple's new notification API which will run on macOS 10.14+\00", align 16
@_ZN17flag_descriptions30kNotificationsViaHelperAppNameE = hidden local_unnamed_addr constant [29 x i8] c"Notifications via helper app\00", align 16
@_ZN17flag_descriptions37kNotificationsViaHelperAppDescriptionE = hidden local_unnamed_addr constant [90 x i8] c"Enables the notification helper app to display alerts on macOS instead of the XPC service\00", align 16
@_ZN17flag_descriptions35kWinrtGeolocationImplementationNameE = hidden local_unnamed_addr constant [33 x i8] c"WinRT Geolocation Implementation\00", align 16
@_ZN17flag_descriptions42kWinrtGeolocationImplementationDescriptionE = hidden local_unnamed_addr constant [87 x i8] c"Enables usage of the Windows.Devices.Geolocation WinRT APIs on Windows for geolocation\00", align 16
@_ZN17flag_descriptions23kEnableFencedFramesNameE = hidden local_unnamed_addr constant [34 x i8] c"Enable the <fencedframe> element.\00", align 16
@_ZN17flag_descriptions30kEnableFencedFramesDescriptionE = hidden local_unnamed_addr constant [155 x i8] c"Fenced frames are an experimental web platform feature that allows embedding an isolated top-level page. See https://github.com/shivanigithub/fenced-frame\00", align 16
@_ZN17flag_descriptions36kEnableGenericSensorExtraClassesNameE = hidden local_unnamed_addr constant [29 x i8] c"Generic Sensor Extra Classes\00", align 16
@_ZN17flag_descriptions43kEnableGenericSensorExtraClassesDescriptionE = hidden local_unnamed_addr constant [176 x i8] c"Enables an extra set of sensor classes based on Generic Sensor API, which expose previously unavailable platform features, i.e. AmbientLightSensor and Magnetometer interfaces.\00", align 16
@_ZN17flag_descriptions28kEnableGpuServiceLoggingNameE = hidden local_unnamed_addr constant [27 x i8] c"Enable gpu service logging\00", align 16
@_ZN17flag_descriptions35kEnableGpuServiceLoggingDescriptionE = hidden local_unnamed_addr constant [44 x i8] c"Enable printing the actual GL driver calls.\00", align 16
@_ZN17flag_descriptions35kEnableShortcutCustomizationAppNameE = hidden local_unnamed_addr constant [34 x i8] c"Enable shortcut customization app\00", align 16
@_ZN17flag_descriptions42kEnableShortcutCustomizationAppDescriptionE = hidden local_unnamed_addr constant [85 x i8] c"Enable the shortcut customization SWA, allowing users to customize system shortcuts.\00", align 16
@_ZN17flag_descriptions32kEnableSRPIsolatedPrerendersNameE = hidden local_unnamed_addr constant [48 x i8] c"Enable Navigation Predictor Isolated Prerenders\00", align 16
@_ZN17flag_descriptions39kEnableSRPIsolatedPrerendersDescriptionE = hidden local_unnamed_addr constant [70 x i8] c"Enable Navigation Predictions on the Google SRP to be fully isolated.\00", align 16
@_ZN17flag_descriptions38kEnableSRPIsolatedPrerenderProbingNameE = hidden local_unnamed_addr constant [59 x i8] c"Enable Probing on Navigation Predictor Isolated Prerenders\00", align 16
@_ZN17flag_descriptions45kEnableSRPIsolatedPrerenderProbingDescriptionE = hidden local_unnamed_addr constant [71 x i8] c"Enable probing checks for Isolated Prerenders which will block commit.\00", align 16
@_ZN17flag_descriptions35kEnableSRPIsolatedPrerendersNSPNameE = hidden local_unnamed_addr constant [67 x i8] c"Enable NoStatePrefetch on Navigation Predictor Isolated Prerenders\00", align 16
@_ZN17flag_descriptions42kEnableSRPIsolatedPrerendersNSPDescriptionE = hidden local_unnamed_addr constant [48 x i8] c"Enables NoStatePrefetch on Isolated Prerenders.\00", align 16
@_ZN17flag_descriptions33kDownloadAutoResumptionNativeNameE = hidden local_unnamed_addr constant [42 x i8] c"Enable download auto-resumption in native\00", align 16
@_ZN17flag_descriptions40kDownloadAutoResumptionNativeDescriptionE = hidden local_unnamed_addr constant [43 x i8] c"Enables download auto-resumption in native\00", align 16
@_ZN17flag_descriptions18kDownloadLaterNameE = hidden local_unnamed_addr constant [22 x i8] c"Enable download later\00", align 16
@_ZN17flag_descriptions25kDownloadLaterDescriptionE = hidden local_unnamed_addr constant [32 x i8] c"Enables download later feature.\00", align 16
@_ZN17flag_descriptions29kDownloadLaterDebugOnWifiNameE = hidden local_unnamed_addr constant [36 x i8] c"Show download later dialog on WIFI.\00", align 16
@_ZN17flag_descriptions40kDownloadLaterDebugOnWifiNameDescriptionE = hidden local_unnamed_addr constant [36 x i8] c"Show download later dialog on WIFI.\00", align 16
@_ZN17flag_descriptions19kEnableLayoutNGNameE = hidden local_unnamed_addr constant [16 x i8] c"Enable LayoutNG\00", align 16
@_ZN17flag_descriptions26kEnableLayoutNGDescriptionE = hidden local_unnamed_addr constant [46 x i8] c"Enable Blink's next generation layout engine.\00", align 16
@_ZN17flag_descriptions24kEnableLayoutNGTableNameE = hidden local_unnamed_addr constant [15 x i8] c"Enable TableNG\00", align 1
@_ZN17flag_descriptions31kEnableLayoutNGTableDescriptionE = hidden local_unnamed_addr constant [45 x i8] c"Enable Blink's next generation table layout.\00", align 16
@_ZN17flag_descriptions27kEnableLazyFrameLoadingNameE = hidden local_unnamed_addr constant [26 x i8] c"Enable lazy frame loading\00", align 16
@_ZN17flag_descriptions34kEnableLazyFrameLoadingDescriptionE = hidden local_unnamed_addr constant [114 x i8] c"Defers the loading of iframes marked with the attribute 'loading=lazy' until the page is scrolled down near them.\00", align 16
@_ZN17flag_descriptions27kEnableLazyImageLoadingNameE = hidden local_unnamed_addr constant [26 x i8] c"Enable lazy image loading\00", align 16
@_ZN17flag_descriptions34kEnableLazyImageLoadingDescriptionE = hidden local_unnamed_addr constant [113 x i8] c"Defers the loading of images marked with the attribute 'loading=lazy' until the page is scrolled down near them.\00", align 16
@_ZN17flag_descriptions30kEnableMediaSessionServiceNameE = hidden local_unnamed_addr constant [22 x i8] c"Media Session Service\00", align 16
@_ZN17flag_descriptions37kEnableMediaSessionServiceDescriptionE = hidden local_unnamed_addr constant [75 x i8] c"Enables the media session mojo service and internal media session support.\00", align 16
@_ZN17flag_descriptions31kEnableNetworkLoggingToFileNameE = hidden local_unnamed_addr constant [31 x i8] c"Enable network logging to file\00", align 16
@_ZN17flag_descriptions38kEnableNetworkLoggingToFileDescriptionE = hidden local_unnamed_addr constant [134 x i8] c"Enables network logging to a file named netlog.json in the user data directory. The file can be imported into chrome://net-internals.\00", align 16
@_ZN17flag_descriptions34kEnableNetworkServiceInProcessNameE = hidden local_unnamed_addr constant [32 x i8] c"Runs network service in-process\00", align 16
@_ZN17flag_descriptions41kEnableNetworkServiceInProcessDescriptionE = hidden local_unnamed_addr constant [49 x i8] c"Runs the network service in the browser process.\00", align 16
@_ZN17flag_descriptions29kEnableNewDownloadBackendNameE = hidden local_unnamed_addr constant [28 x i8] c"Enable new download backend\00", align 16
@_ZN17flag_descriptions36kEnableNewDownloadBackendDescriptionE = hidden local_unnamed_addr constant [68 x i8] c"Enables the new download backend that uses offline content provider\00", align 16
@_ZN17flag_descriptions18kEnablePortalsNameE = hidden local_unnamed_addr constant [16 x i8] c"Enable Portals.\00", align 16
@_ZN17flag_descriptions25kEnablePortalsDescriptionE = hidden local_unnamed_addr constant [183 x i8] c"Portals are an experimental web platform feature that allows embedding and seamless transitions between pages. See https://github.com/WICG/portals and https://wicg.github.io/portals/\00", align 16
@_ZN17flag_descriptions29kEnablePortalsCrossOriginNameE = hidden local_unnamed_addr constant [29 x i8] c"Enable cross-origin Portals.\00", align 16
@_ZN17flag_descriptions36kEnablePortalsCrossOriginDescriptionE = hidden local_unnamed_addr constant [116 x i8] c"Allows portals to load cross-origin URLs in addition to same-origin ones. Has no effect if Portals are not enabled.\00", align 16
@_ZN17flag_descriptions29kEnableTranslateSubFramesNameE = hidden local_unnamed_addr constant [21 x i8] c"Translate sub frames\00", align 16
@_ZN17flag_descriptions36kEnableTranslateSubFramesDescriptionE = hidden local_unnamed_addr constant [65 x i8] c"Enable the translation of sub frames (as well as the main frame)\00", align 16
@_ZN17flag_descriptions40kEnableWindowsGamingInputDataFetcherNameE = hidden local_unnamed_addr constant [28 x i8] c"Enable Windows.Gaming.Input\00", align 16
@_ZN17flag_descriptions47kEnableWindowsGamingInputDataFetcherDescriptionE = hidden local_unnamed_addr constant [97 x i8] c"Enable Windows.Gaming.Input by default to provide game controller support on Windows 10 desktop.\00", align 16
@_ZN17flag_descriptions40kBlockInsecurePrivateNetworkRequestsNameE = hidden local_unnamed_addr constant [41 x i8] c"Block insecure private network requests.\00", align 16
@_ZN17flag_descriptions47kBlockInsecurePrivateNetworkRequestsDescriptionE = hidden local_unnamed_addr constant [314 x i8] c"Prevents non-secure contexts from making sub-resource requests to more-private IP addresses. An IP address IP1 is more private than IP2 if 1) IP1 is localhost and IP2 is not, or 2) IP1 is private and IP2 is public. This is a first step towards full enforcement of CORS-RFC1918: https://wicg.github.io/cors-rfc1918\00", align 16
@_ZN17flag_descriptions22kDeprecateAltClickNameE = hidden local_unnamed_addr constant [43 x i8] c"Enable Alt+Click deprecation notifications\00", align 16
@_ZN17flag_descriptions29kDeprecateAltClickDescriptionE = hidden local_unnamed_addr constant [101 x i8] c"Start providing notifications about Alt+Click deprecation and enable Search+Click as an alternative.\00", align 16
@_ZN17flag_descriptions19kDiagnosticsAppNameE = hidden local_unnamed_addr constant [16 x i8] c"Diagnostics app\00", align 16
@_ZN17flag_descriptions26kDiagnosticsAppDescriptionE = hidden local_unnamed_addr constant [154 x i8] c"Enables the Diagnostics app that allows Chrome OS users to be able to view their system telemetric information and run diagnostic tests for their device.\00", align 16
@_ZN17flag_descriptions29kDiagnosticsAppNavigationNameE = hidden local_unnamed_addr constant [27 x i8] c"Diagnostics app navigation\00", align 16
@_ZN17flag_descriptions36kDiagnosticsAppNavigationDescriptionE = hidden local_unnamed_addr constant [53 x i8] c"Enables the navigation panel in the Diagnostics app.\00", align 16
@_ZN17flag_descriptions26kDisableKeepaliveFetchNameE = hidden local_unnamed_addr constant [33 x i8] c"Disable fetch with keepalive set\00", align 16
@_ZN17flag_descriptions33kDisableKeepaliveFetchDescriptionE = hidden local_unnamed_addr constant [90 x i8] c"Disable fetch with keepalive set (https://fetch.spec.whatwg.org/#request-keepalive-flag).\00", align 16
@_ZN17flag_descriptions47kExperimentalAccessibilityLanguageDetectionNameE = hidden local_unnamed_addr constant [46 x i8] c"Experimental accessibility language detection\00", align 16
@_ZN17flag_descriptions54kExperimentalAccessibilityLanguageDetectionDescriptionE = hidden local_unnamed_addr constant [118 x i8] c"Enable language detection for in-page content which is then exposed to assistive technologies such as screen readers.\00", align 16
@_ZN17flag_descriptions54kExperimentalAccessibilityLanguageDetectionDynamicNameE = hidden local_unnamed_addr constant [66 x i8] c"Experimental accessibility language detection for dynamic content\00", align 16
@_ZN17flag_descriptions61kExperimentalAccessibilityLanguageDetectionDynamicDescriptionE = hidden local_unnamed_addr constant [118 x i8] c"Enable language detection for dynamic content which is then exposed to assistive technologies such as screen readers.\00", align 16
@_ZN17flag_descriptions41kCompositorThreadedScrollbarScrollingNameE = hidden local_unnamed_addr constant [40 x i8] c"Compositor threaded scrollbar scrolling\00", align 16
@_ZN17flag_descriptions48kCompositorThreadedScrollbarScrollingDescriptionE = hidden local_unnamed_addr constant [94 x i8] c"Enables pointer-based scrollbar scrolling on the compositor thread instead of the main thread\00", align 16
@_ZN17flag_descriptions11kMemlogNameE = hidden local_unnamed_addr constant [33 x i8] c"Chrome heap profiler start mode.\00", align 16
@_ZN17flag_descriptions18kMemlogDescriptionE = hidden local_unnamed_addr constant [463 x i8] c"Starts heap profiling service that records sampled memory allocation profile having each sample attributed with a callstack. The sampling resolution is controlled with --memlog-sampling-rate flag. Recorded heap dumps can be obtained at chrome://tracing [category:memory-infra] and chrome://memory-internals. This setting controls which processes will be profiled since their start. To profile any given process at a later time use chrome://memory-internals page.\00", align 16
@_ZN17flag_descriptions18kMemlogModeMinimalE = hidden local_unnamed_addr constant [16 x i8] c"Browser and GPU\00", align 16
@_ZN17flag_descriptions14kMemlogModeAllE = hidden local_unnamed_addr constant [14 x i8] c"All processes\00", align 1
@_ZN17flag_descriptions23kMemlogModeAllRenderersE = hidden local_unnamed_addr constant [14 x i8] c"All renderers\00", align 1
@_ZN17flag_descriptions27kMemlogModeRendererSamplingE = hidden local_unnamed_addr constant [16 x i8] c"Single renderer\00", align 16
@_ZN17flag_descriptions18kMemlogModeBrowserE = hidden local_unnamed_addr constant [13 x i8] c"Browser only\00", align 1
@_ZN17flag_descriptions14kMemlogModeGpuE = hidden local_unnamed_addr constant [9 x i8] c"GPU only\00", align 1
@_ZN17flag_descriptions23kMemlogSamplingRateNameE = hidden local_unnamed_addr constant [45 x i8] c"Heap profiling sampling interval (in bytes).\00", align 16
@_ZN17flag_descriptions30kMemlogSamplingRateDescriptionE = hidden local_unnamed_addr constant [474 x i8] c"Heap profiling service uses Poisson process to sample allocations. Default value for the interval between samples is 100000 (100KB). This results in low noise for large and/or frequent allocations [size * frequency >> 100KB]. This means that aggregate numbers [e.g. total size of malloc-ed objects] and large and/or frequent allocations can be trusted with high fidelity. Lower intervals produce higher samples resolution, but come at a cost of higher performance overhead.\00", align 16
@_ZN17flag_descriptions23kMemlogSamplingRate10KBE = hidden local_unnamed_addr constant [5 x i8] c"10KB\00", align 1
@_ZN17flag_descriptions23kMemlogSamplingRate50KBE = hidden local_unnamed_addr constant [5 x i8] c"50KB\00", align 1
@_ZN17flag_descriptions24kMemlogSamplingRate100KBE = hidden local_unnamed_addr constant [6 x i8] c"100KB\00", align 1
@_ZN17flag_descriptions24kMemlogSamplingRate500KBE = hidden local_unnamed_addr constant [6 x i8] c"500KB\00", align 1
@_ZN17flag_descriptions22kMemlogSamplingRate1MBE = hidden local_unnamed_addr constant [4 x i8] c"1MB\00", align 1
@_ZN17flag_descriptions22kMemlogSamplingRate5MBE = hidden local_unnamed_addr constant [4 x i8] c"5MB\00", align 1
@_ZN17flag_descriptions20kMemlogStackModeNameE = hidden local_unnamed_addr constant [34 x i8] c"Heap profiling stack traces type.\00", align 16
@_ZN17flag_descriptions27kMemlogStackModeDescriptionE = hidden local_unnamed_addr constant [325 x i8] c"By default heap profiling service records native stacks. A post-processing step is required to symbolize the stacks. 'Native with thread names' adds the thread name as the first frame of each native stack. It's also possible to record a pseudo stack using trace events as identifiers. It's also possible to do a mix of both.\00", align 16
@_ZN17flag_descriptions21kMemlogStackModeMixedE = hidden local_unnamed_addr constant [6 x i8] c"Mixed\00", align 1
@_ZN17flag_descriptions22kMemlogStackModeNativeE = hidden local_unnamed_addr constant [7 x i8] c"Native\00", align 1
@_ZN17flag_descriptions37kMemlogStackModeNativeWithThreadNamesE = hidden local_unnamed_addr constant [25 x i8] c"Native with thread names\00", align 16
@_ZN17flag_descriptions22kMemlogStackModePseudoE = hidden local_unnamed_addr constant [13 x i8] c"Trace events\00", align 1
@_ZN17flag_descriptions25kEnableLoginDetectionNameE = hidden local_unnamed_addr constant [23 x i8] c"Enable login detection\00", align 16
@_ZN17flag_descriptions32kEnableLoginDetectionDescriptionE = hidden local_unnamed_addr constant [55 x i8] c"Allow user sign-in to be detected based on heuristics.\00", align 16
@_ZN17flag_descriptions37kEnableManagedConfigurationWebApiNameE = hidden local_unnamed_addr constant [37 x i8] c"Enable Managed Configuration Web API\00", align 16
@_ZN17flag_descriptions44kEnableManagedConfigurationWebApiDescriptionE = hidden local_unnamed_addr constant [102 x i8] c"Allows website to access a managed configuration provided by the device administrator for the origin.\00", align 16
@_ZN17flag_descriptions21kEnablePciguardUiNameE = hidden local_unnamed_addr constant [63 x i8] c"Enable Pciguard (Thunderbolt + USB4 tunneling) UI for settings\00", align 16
@_ZN17flag_descriptions28kEnablePciguardUiDescriptionE = hidden local_unnamed_addr constant [94 x i8] c"Enable toggling Pciguard settings through the Settings App. By default, this flag is enabled.\00", align 16
@_ZN17flag_descriptions36kEnablePenetratingImageSelectionNameE = hidden local_unnamed_addr constant [28 x i8] c"Penetrating Image Selection\00", align 16
@_ZN17flag_descriptions43kEnablePenetratingImageSelectionDescriptionE = hidden local_unnamed_addr constant [100 x i8] c"Enables image options to be surfaced in the context menu for nodes covered by transparent overlays.\00", align 16
@_ZN17flag_descriptions31kEnablePixelCanvasRecordingNameE = hidden local_unnamed_addr constant [30 x i8] c"Enable pixel canvas recording\00", align 16
@_ZN17flag_descriptions38kEnablePixelCanvasRecordingDescriptionE = hidden local_unnamed_addr constant [187 x i8] c"Pixel canvas recording allows the compositor to raster contents aligned with the pixel and improves text rendering. This should be enabled when a device is using fractional scale factor.\00", align 16
@_ZN17flag_descriptions34kReduceHorizontalFlingVelocityNameE = hidden local_unnamed_addr constant [33 x i8] c"Reduce horizontal fling velocity\00", align 16
@_ZN17flag_descriptions41kReduceHorizontalFlingVelocityDescriptionE = hidden local_unnamed_addr constant [76 x i8] c"Reduces the velocity of horizontal flings to 20% of their originalvelocity.\00", align 16
@_ZN17flag_descriptions32kEnableResamplingInputEventsNameE = hidden local_unnamed_addr constant [31 x i8] c"Enable resampling input events\00", align 16
@_ZN17flag_descriptions39kEnableResamplingInputEventsDescriptionE = hidden local_unnamed_addr constant [77 x i8] c"Predicts mouse and touch inputs position at rAF time based on previous input\00", align 16
@_ZN17flag_descriptions33kEnableResamplingScrollEventsNameE = hidden local_unnamed_addr constant [32 x i8] c"Enable resampling scroll events\00", align 16
@_ZN17flag_descriptions40kEnableResamplingScrollEventsDescriptionE = hidden local_unnamed_addr constant [65 x i8] c"Predicts the scroll amount at vsync time based on previous input\00", align 16
@_ZN17flag_descriptions55kEnableResamplingScrollEventsExperimentalPredictionNameE = hidden local_unnamed_addr constant [49 x i8] c"Enable experimental prediction for scroll events\00", align 16
@_ZN17flag_descriptions62kEnableResamplingScrollEventsExperimentalPredictionDescriptionE = hidden local_unnamed_addr constant [97 x i8] c"Predicts the scroll amount after the vsync time to more closely match when the frame is visible.\00", align 16
@_ZN17flag_descriptions28kEnableRestrictedWebApisNameE = hidden local_unnamed_addr constant [53 x i8] c"Enable the restriced web APIs for high-trusted apps.\00", align 16
@_ZN17flag_descriptions35kEnableRestrictedWebApisDescriptionE = hidden local_unnamed_addr constant [133 x i8] c"Enable the restricted web APIs for dev trial. This will be replaced with permission policies to control the capabilities afterwards.\00", align 16
@_ZN17flag_descriptions24kEnableUseZoomForDsfNameE = hidden local_unnamed_addr constant [42 x i8] c"Use Blink's zoom for device scale factor.\00", align 16
@_ZN17flag_descriptions31kEnableUseZoomForDsfDescriptionE = hidden local_unnamed_addr constant [87 x i8] c"If enabled, Blink uses its zooming mechanism to scale content for device scale factor.\00", align 16
@_ZN17flag_descriptions33kEnableUseZoomForDsfChoiceDefaultE = hidden local_unnamed_addr constant [8 x i8] c"Default\00", align 1
@_ZN17flag_descriptions33kEnableUseZoomForDsfChoiceEnabledE = hidden local_unnamed_addr constant [8 x i8] c"Enabled\00", align 1
@_ZN17flag_descriptions34kEnableUseZoomForDsfChoiceDisabledE = hidden local_unnamed_addr constant [9 x i8] c"Disabled\00", align 1
@_ZN17flag_descriptions30kEnableSubresourceRedirectNameE = hidden local_unnamed_addr constant [40 x i8] c"Enable Subresource Redirect Compression\00", align 16
@_ZN17flag_descriptions37kEnableSubresourceRedirectDescriptionE = hidden local_unnamed_addr constant [47 x i8] c"Allow subresource compression for data savings\00", align 16
@_ZN17flag_descriptions42kEnableWebAuthenticationCableV2SupportNameE = hidden local_unnamed_addr constant [36 x i8] c"Web Authentication caBLE v2 support\00", align 16
@_ZN17flag_descriptions49kEnableWebAuthenticationCableV2SupportDescriptionE = hidden local_unnamed_addr constant [119 x i8] c"Enable use of phones that are signed into the same account, with Sync enabled, to be used as 2nd-factor security keys.\00", align 16
@_ZN17flag_descriptions49kEnableWebAuthenticationChromeOSAuthenticatorNameE = hidden local_unnamed_addr constant [45 x i8] c"ChromeOS platform Web Authentication support\00", align 16
@_ZN17flag_descriptions56kEnableWebAuthenticationChromeOSAuthenticatorDescriptionE = hidden local_unnamed_addr constant [75 x i8] c"Enable the ChromeOS platform authenticator for the Web Authentication API.\00", align 16
@_ZN17flag_descriptions36kExperimentalWebAssemblyFeaturesNameE = hidden local_unnamed_addr constant [25 x i8] c"Experimental WebAssembly\00", align 16
@_ZN17flag_descriptions43kExperimentalWebAssemblyFeaturesDescriptionE = hidden local_unnamed_addr constant [59 x i8] c"Enable web pages to use experimental WebAssembly features.\00", align 16
@_ZN17flag_descriptions23kEnableWasmBaselineNameE = hidden local_unnamed_addr constant [30 x i8] c"WebAssembly baseline compiler\00", align 16
@_ZN17flag_descriptions30kEnableWasmBaselineDescriptionE = hidden local_unnamed_addr constant [54 x i8] c"Enables WebAssembly baseline compilation and tier up.\00", align 16
@_ZN17flag_descriptions30kEnableWasmLazyCompilationNameE = hidden local_unnamed_addr constant [29 x i8] c"WebAssembly lazy compilation\00", align 16
@_ZN17flag_descriptions37kEnableWasmLazyCompilationDescriptionE = hidden local_unnamed_addr constant [69 x i8] c"Enables lazy (JIT on first call) compilation of WebAssembly modules.\00", align 16
@_ZN17flag_descriptions19kEnableWasmSimdNameE = hidden local_unnamed_addr constant [26 x i8] c"WebAssembly SIMD support.\00", align 16
@_ZN17flag_descriptions26kEnableWasmSimdDescriptionE = hidden local_unnamed_addr constant [51 x i8] c"Enables support for the WebAssembly SIMD proposal.\00", align 16
@_ZN17flag_descriptions22kEnableWasmTieringNameE = hidden local_unnamed_addr constant [20 x i8] c"WebAssembly tiering\00", align 16
@_ZN17flag_descriptions29kEnableWasmTieringDescriptionE = hidden local_unnamed_addr constant [113 x i8] c"Enables tiered compilation of WebAssembly (will tier up to TurboFan if #enable-webassembly-baseline is enabled).\00", align 16
@_ZN17flag_descriptions24kEvDetailsInPageInfoNameE = hidden local_unnamed_addr constant [37 x i8] c"EV certificate details in Page Info.\00", align 16
@_ZN17flag_descriptions31kEvDetailsInPageInfoDescriptionE = hidden local_unnamed_addr constant [58 x i8] c"Shows the EV certificate details in the Page Info bubble.\00", align 16
@_ZN17flag_descriptions39kExpensiveBackgroundTimerThrottlingNameE = hidden local_unnamed_addr constant [37 x i8] c"Throttle expensive background timers\00", align 16
@_ZN17flag_descriptions46kExpensiveBackgroundTimerThrottlingDescriptionE = hidden local_unnamed_addr constant [68 x i8] c"Enables intervention to limit CPU usage of background timers to 1%.\00", align 16
@_ZN17flag_descriptions36kExperimentalAccessibilityLabelsNameE = hidden local_unnamed_addr constant [34 x i8] c"Experimental Accessibility Labels\00", align 16
@_ZN17flag_descriptions43kExperimentalAccessibilityLabelsDescriptionE = hidden local_unnamed_addr constant [142 x i8] c"Enables experimental accessibility labels feature. Note that this only enables the feature, and enabling the service is a profile preference.\00", align 16
@_ZN17flag_descriptions36kExperimentalWebPlatformFeaturesNameE = hidden local_unnamed_addr constant [35 x i8] c"Experimental Web Platform features\00", align 16
@_ZN17flag_descriptions43kExperimentalWebPlatformFeaturesDescriptionE = hidden local_unnamed_addr constant [68 x i8] c"Enables experimental Web Platform features that are in development.\00", align 16
@_ZN17flag_descriptions33kExtensionContentVerificationNameE = hidden local_unnamed_addr constant [31 x i8] c"Extension Content Verification\00", align 16
@_ZN17flag_descriptions40kExtensionContentVerificationDescriptionE = hidden local_unnamed_addr constant [331 x i8] c"This flag can be used to turn on verification that the contents of the files on disk for extensions from the webstore match what they're expected to be. This can be used to turn on this feature if it would not otherwise have been turned on, but cannot be used to turn it off (because this setting can be tampered with by malware).\00", align 16
@_ZN17flag_descriptions38kExtensionContentVerificationBootstrapE = hidden local_unnamed_addr constant [57 x i8] c"Bootstrap (get expected hashes, but do not enforce them)\00", align 16
@_ZN17flag_descriptions36kExtensionContentVerificationEnforceE = hidden local_unnamed_addr constant [60 x i8] c"Enforce (try to get hashes, and enforce them if successful)\00", align 16
@_ZN17flag_descriptions42kExtensionContentVerificationEnforceStrictE = hidden local_unnamed_addr constant [50 x i8] c"Enforce strict (hard fail if we can't get hashes)\00", align 16
@_ZN17flag_descriptions22kExtensionsCheckupNameE = hidden local_unnamed_addr constant [19 x i8] c"Extensions Checkup\00", align 16
@_ZN17flag_descriptions29kExtensionsCheckupDescriptionE = hidden local_unnamed_addr constant [41 x i8] c"Enable the extensions checkup experiment\00", align 16
@_ZN17flag_descriptions27kExtensionsOnChromeUrlsNameE = hidden local_unnamed_addr constant [29 x i8] c"Extensions on chrome:// URLs\00", align 16
@_ZN17flag_descriptions34kExtensionsOnChromeUrlsDescriptionE = hidden local_unnamed_addr constant [99 x i8] c"Enables running extensions on chrome:// URLs, where extensions explicitly request this permission.\00", align 16
@_ZN17flag_descriptions30kFilteringScrollPredictionNameE = hidden local_unnamed_addr constant [28 x i8] c"Filtering scroll prediction\00", align 16
@_ZN17flag_descriptions37kFilteringScrollPredictionDescriptionE = hidden local_unnamed_addr constant [44 x i8] c"Enable filtering of predicted scroll events\00", align 16
@_ZN17flag_descriptions28kFractionalScrollOffsetsNameE = hidden local_unnamed_addr constant [26 x i8] c"Fractional Scroll Offsets\00", align 16
@_ZN17flag_descriptions35kFractionalScrollOffsetsDescriptionE = hidden local_unnamed_addr constant [90 x i8] c"Enables fractional scroll offsets inside Blink, exposing non-integer offsets to web APIs.\00", align 16
@_ZN17flag_descriptions33kForceEffectiveConnectionTypeNameE = hidden local_unnamed_addr constant [35 x i8] c"Override effective connection type\00", align 16
@_ZN17flag_descriptions40kForceEffectiveConnectionTypeDescriptionE = hidden local_unnamed_addr constant [265 x i8] c"Overrides the effective connection type of the current connection returned by the network quality estimator. Slow 2G on Cellular returns Slow 2G when connected to a cellular network, and the actual estimate effective connection type when not on a cellular network.\00", align 16
@_ZN17flag_descriptions42kEffectiveConnectionTypeUnknownDescriptionE = hidden local_unnamed_addr constant [8 x i8] c"Unknown\00", align 1
@_ZN17flag_descriptions42kEffectiveConnectionTypeOfflineDescriptionE = hidden local_unnamed_addr constant [8 x i8] c"Offline\00", align 1
@_ZN17flag_descriptions41kEffectiveConnectionTypeSlow2GDescriptionE = hidden local_unnamed_addr constant [8 x i8] c"Slow 2G\00", align 1
@_ZN17flag_descriptions51kEffectiveConnectionTypeSlow2GOnCellularDescriptionE = hidden local_unnamed_addr constant [20 x i8] c"Slow 2G On Cellular\00", align 16
@_ZN17flag_descriptions37kEffectiveConnectionType2GDescriptionE = hidden local_unnamed_addr constant [3 x i8] c"2G\00", align 1
@_ZN17flag_descriptions37kEffectiveConnectionType3GDescriptionE = hidden local_unnamed_addr constant [3 x i8] c"3G\00", align 1
@_ZN17flag_descriptions37kEffectiveConnectionType4GDescriptionE = hidden local_unnamed_addr constant [3 x i8] c"4G\00", align 1
@_ZN17flag_descriptions20kFileHandlingAPINameE = hidden local_unnamed_addr constant [18 x i8] c"File Handling API\00", align 16
@_ZN17flag_descriptions27kFileHandlingAPIDescriptionE = hidden local_unnamed_addr constant [79 x i8] c"Enables the file handling API, allowing websites to register as file handlers.\00", align 16
@_ZN17flag_descriptions36kFillingAcrossAffiliatedWebsitesNameE = hidden local_unnamed_addr constant [43 x i8] c"Fill passwords across affiliated websites.\00", align 16
@_ZN17flag_descriptions43kFillingAcrossAffiliatedWebsitesDescriptionE = hidden local_unnamed_addr constant [90 x i8] c"Enables filling password on a website when there is saved password on affiliated website.\00", align 16
@_ZN17flag_descriptions24kFillOnAccountSelectNameE = hidden local_unnamed_addr constant [36 x i8] c"Fill passwords on account selection\00", align 16
@_ZN17flag_descriptions31kFillOnAccountSelectDescriptionE = hidden local_unnamed_addr constant [122 x i8] c"Filling of passwords when an account is explicitly selected by the user rather than autofilling credentials on page load.\00", align 16
@_ZN17flag_descriptions23kForceTextDirectionNameE = hidden local_unnamed_addr constant [21 x i8] c"Force text direction\00", align 16
@_ZN17flag_descriptions30kForceTextDirectionDescriptionE = hidden local_unnamed_addr constant [173 x i8] c"Explicitly force the per-character directionality of UI text to left-to-right (LTR) or right-to-left (RTL) mode, overriding the default direction of the character language.\00", align 16
@_ZN17flag_descriptions18kForceDirectionLtrE = hidden local_unnamed_addr constant [14 x i8] c"Left-to-right\00", align 1
@_ZN17flag_descriptions18kForceDirectionRtlE = hidden local_unnamed_addr constant [14 x i8] c"Right-to-left\00", align 1
@_ZN17flag_descriptions21kForceUiDirectionNameE = hidden local_unnamed_addr constant [19 x i8] c"Force UI direction\00", align 16
@_ZN17flag_descriptions28kForceUiDirectionDescriptionE = hidden local_unnamed_addr constant [129 x i8] c"Explicitly force the UI to left-to-right (LTR) or right-to-left (RTL) mode, overriding the default direction of the UI language.\00", align 16
@_ZN17flag_descriptions24kGlobalMediaControlsNameE = hidden local_unnamed_addr constant [22 x i8] c"Global Media Controls\00", align 16
@_ZN17flag_descriptions31kGlobalMediaControlsDescriptionE = hidden local_unnamed_addr constant [53 x i8] c"Enables the Global Media Controls UI in the toolbar.\00", align 16
@_ZN17flag_descriptions31kGlobalMediaControlsForCastNameE = hidden local_unnamed_addr constant [31 x i8] c"Global Media Controls for Cast\00", align 16
@_ZN17flag_descriptions38kGlobalMediaControlsForCastDescriptionE = hidden local_unnamed_addr constant [136 x i8] c"Shows Cast sessions in the Global Media Controls UI. Requires #global-media-controls and #cast-media-route-provider to also be enabled.\00", align 16
@_ZN17flag_descriptions35kGlobalMediaControlsForChromeOSNameE = hidden local_unnamed_addr constant [35 x i8] c"Global Media Controls for ChromeOS\00", align 16
@_ZN17flag_descriptions42kGlobalMediaControlsForChromeOSDescriptionE = hidden local_unnamed_addr constant [61 x i8] c"Enable Global Media Controls UI in shelf and quick settings.\00", align 16
@_ZN17flag_descriptions40kGlobalMediaControlsPictureInPictureNameE = hidden local_unnamed_addr constant [41 x i8] c"Global Media Controls Picture-in-Picture\00", align 16
@_ZN17flag_descriptions47kGlobalMediaControlsPictureInPictureDescriptionE = hidden local_unnamed_addr constant [121 x i8] c"Enables Picture-in-Picture controls in the Global Media Controls UI. Requires #global-media-controls to also be enabled.\00", align 16
@_ZN17flag_descriptions40kGlobalMediaControlsSeamlessTransferNameE = hidden local_unnamed_addr constant [40 x i8] c"Global Media Controls Seamless Transfer\00", align 16
@_ZN17flag_descriptions47kGlobalMediaControlsSeamlessTransferDescriptionE = hidden local_unnamed_addr constant [148 x i8] c"Enables selection of audio output device to play media through in the Global Media Controls UI. Requires #global-media-controls to also be enabled.\00", align 16
@_ZN17flag_descriptions32kGlobalMediaControlsModernUINameE = hidden local_unnamed_addr constant [32 x i8] c"Global Media Controls Modern UI\00", align 16
@_ZN17flag_descriptions39kGlobalMediaControlsModernUIDescriptionE = hidden local_unnamed_addr constant [110 x i8] c"Use a redesigned version of the Global Media Controls UI. Requires #global-media-controls to also be enabled.\00", align 16
@_ZN17flag_descriptions39kGlobalMediaControlsOverlayControlsNameE = hidden local_unnamed_addr constant [50 x i8] c"Enable overlay controls for Global Media Controls\00", align 16
@_ZN17flag_descriptions46kGlobalMediaControlsOverlayControlsDescriptionE = hidden local_unnamed_addr constant [123 x i8] c"Allowing controls to be dragged out from Global Media Controls dialog. Requires #global-media-controls to also be enabled.\00", align 16
@_ZN17flag_descriptions24kGoogleLensSdkIntentNameE = hidden local_unnamed_addr constant [63 x i8] c"Enable the use of the Lens SDK when starting intent into Lens.\00", align 16
@_ZN17flag_descriptions31kGoogleLensSdkIntentDescriptionE = hidden local_unnamed_addr constant [45 x i8] c"Starts Lens using the Lens SDK if supported.\00", align 16
@_ZN17flag_descriptions21kGpuRasterizationNameE = hidden local_unnamed_addr constant [18 x i8] c"GPU rasterization\00", align 16
@_ZN17flag_descriptions28kGpuRasterizationDescriptionE = hidden local_unnamed_addr constant [34 x i8] c"Use GPU to rasterize web content.\00", align 16
@_ZN17flag_descriptions30kHandwritingGestureEditingNameE = hidden local_unnamed_addr constant [29 x i8] c"Handwriting Gestures Editing\00", align 16
@_ZN17flag_descriptions37kHandwritingGestureEditingDescriptionE = hidden local_unnamed_addr constant [71 x i8] c"Enables editing with handwriting gestures within the virtual keyboard.\00", align 16
@_ZN17flag_descriptions25kHardwareMediaKeyHandlingE = hidden local_unnamed_addr constant [28 x i8] c"Hardware Media Key Handling\00", align 16
@_ZN17flag_descriptions36kHardwareMediaKeyHandlingDescriptionE = hidden local_unnamed_addr constant [114 x i8] c"Enables using media keys to control the active media session. This requires MediaSessionService to be enabled too\00", align 16
@_ZN17flag_descriptions30kHeavyAdPrivacyMitigationsNameE = hidden local_unnamed_addr constant [29 x i8] c"Heavy ad privacy mitigations\00", align 16
@_ZN17flag_descriptions37kHeavyAdPrivacyMitigationsDescriptionE = hidden local_unnamed_addr constant [133 x i8] c"Enables privacy mitigations for the heavy ad intervention. Disabling this makes the intervention deterministic. Defaults to enabled.\00", align 16
@_ZN17flag_descriptions24kHeavyAdInterventionNameE = hidden local_unnamed_addr constant [22 x i8] c"Heavy Ad Intervention\00", align 16
@_ZN17flag_descriptions31kHeavyAdInterventionDescriptionE = hidden local_unnamed_addr constant [48 x i8] c"Unloads ads that use too many device resources.\00", align 16
@_ZN17flag_descriptions34kHideShelfControlsInTabletModeNameE = hidden local_unnamed_addr constant [43 x i8] c"Hide shelf control buttons in tablet mode.\00", align 16
@_ZN17flag_descriptions41kHideShelfControlsInTabletModeDescriptionE = hidden local_unnamed_addr constant [140 x i8] c"Hides home, back, and overview button from the shelf while the device is in tablet mode. Predicated on shelf-hotseat feature being enabled.\00", align 16
@_ZN17flag_descriptions24kTabSwitcherOnReturnNameE = hidden local_unnamed_addr constant [23 x i8] c"Tab switcher on return\00", align 16
@_ZN17flag_descriptions31kTabSwitcherOnReturnDescriptionE = hidden local_unnamed_addr constant [63 x i8] c"Enable tab switcher on return after specified time has elapsed\00", align 16
@_ZN17flag_descriptions30kHostedAppQuitNotificationNameE = hidden local_unnamed_addr constant [34 x i8] c"Quit notification for hosted apps\00", align 16
@_ZN17flag_descriptions37kHostedAppQuitNotificationDescriptionE = hidden local_unnamed_addr constant [82 x i8] c"Display a notification when quitting Chrome if hosted apps are currently running.\00", align 16
@_ZN17flag_descriptions26kHostedAppShimCreationNameE = hidden local_unnamed_addr constant [45 x i8] c"Creation of app shims for hosted apps on Mac\00", align 16
@_ZN17flag_descriptions33kHostedAppShimCreationDescriptionE = hidden local_unnamed_addr constant [52 x i8] c"Create app shims on Mac when creating a hosted app.\00", align 16
@_ZN17flag_descriptions23kIgnoreGpuBlocklistNameE = hidden local_unnamed_addr constant [33 x i8] c"Override software rendering list\00", align 16
@_ZN17flag_descriptions30kIgnoreGpuBlocklistDescriptionE = hidden local_unnamed_addr constant [114 x i8] c"Overrides the built-in software rendering list and enables GPU-acceleration on unsupported system configurations.\00", align 16
@_ZN17flag_descriptions27kImprovedCookieControlsNameE = hidden local_unnamed_addr constant [53 x i8] c"Enable improved cookie controls UI in incognito mode\00", align 16
@_ZN17flag_descriptions34kImprovedCookieControlsDescriptionE = hidden local_unnamed_addr constant [63 x i8] c"Improved UI in Incognito mode for third-party cookie blocking.\00", align 16
@_ZN17flag_descriptions54kImprovedCookieControlsForThirdPartyCookieBlockingNameE = hidden local_unnamed_addr constant [51 x i8] c"Enable improved UI for third-party cookie blocking\00", align 16
@_ZN17flag_descriptions61kImprovedCookieControlsForThirdPartyCookieBlockingDescriptionE = hidden local_unnamed_addr constant [71 x i8] c"Enables an improved UI for existing third-party cookie blocking users.\00", align 16
@_ZN17flag_descriptions30kImprovedKeyboardShortcutsNameE = hidden local_unnamed_addr constant [35 x i8] c"Enable improved keyboard shortcuts\00", align 16
@_ZN17flag_descriptions37kImprovedKeyboardShortcutsDescriptionE = hidden local_unnamed_addr constant [112 x i8] c"Ensure keyboard shortcuts work consistently with international keyboard layouts and deprecate legacy shortcuts.\00", align 16
@_ZN17flag_descriptions28kImpulseScrollAnimationsNameE = hidden local_unnamed_addr constant [32 x i8] c"Impulse-style scroll animations\00", align 16
@_ZN17flag_descriptions35kImpulseScrollAnimationsDescriptionE = hidden local_unnamed_addr constant [76 x i8] c"Replaces the default scroll animation with Impulse-style scroll animations.\00", align 16
@_ZN17flag_descriptions40kIncognitoBrandConsistencyForAndroidNameE = hidden local_unnamed_addr constant [47 x i8] c"Enable Incognito brand consistency in Android.\00", align 16
@_ZN17flag_descriptions47kIncognitoBrandConsistencyForAndroidDescriptionE = hidden local_unnamed_addr constant [78 x i8] c"When enabled, keeps Incognito UI consistent regardless of any selected theme.\00", align 16
@_ZN17flag_descriptions40kIncognitoBrandConsistencyForDesktopNameE = hidden local_unnamed_addr constant [47 x i8] c"Enable Incognito brand consistency in desktop.\00", align 16
@_ZN17flag_descriptions47kIncognitoBrandConsistencyForDesktopDescriptionE = hidden local_unnamed_addr constant [98 x i8] c"When enabled, removes any theme or background customization done by the user on the Incognito UI.\00", align 16
@_ZN17flag_descriptions40kUpdateHistoryEntryPointsInIncognitoNameE = hidden local_unnamed_addr constant [42 x i8] c"Update history entry points in Incongito.\00", align 16
@_ZN17flag_descriptions47kUpdateHistoryEntryPointsInIncognitoDescriptionE = hidden local_unnamed_addr constant [167 x i8] c"When enabled, the entry points to history UI from Incognito mode will be removed for iOS and Desktop. An educative placeholder will be shown for Android history page.\00", align 16
@_ZN17flag_descriptions24kIncognitoScreenshotNameE = hidden local_unnamed_addr constant [21 x i8] c"Incognito Screenshot\00", align 16
@_ZN17flag_descriptions31kIncognitoScreenshotDescriptionE = hidden local_unnamed_addr constant [90 x i8] c"Enables Incognito screenshots on Android. It will also make Incognito thumbnails visible.\00", align 16
@_ZN17flag_descriptions39kInheritNativeThemeFromParentWidgetNameE = hidden local_unnamed_addr constant [62 x i8] c"Allow widgets to inherit native theme from its parent widget.\00", align 16
@_ZN17flag_descriptions46kInheritNativeThemeFromParentWidgetDescriptionE = hidden local_unnamed_addr constant [100 x i8] c"When enabled, secondary UI like menu, dialog etc would be in dark mode when Incognito mode is open.\00", align 16
@_ZN17flag_descriptions32kInProductHelpDemoModeChoiceNameE = hidden local_unnamed_addr constant [26 x i8] c"In-Product Help Demo Mode\00", align 16
@_ZN17flag_descriptions39kInProductHelpDemoModeChoiceDescriptionE = hidden local_unnamed_addr constant [39 x i8] c"Selects the In-Product Help demo mode.\00", align 16
@_ZN17flag_descriptions23kInstalledAppsInCbdNameE = hidden local_unnamed_addr constant [38 x i8] c"Installed Apps in Clear Browsing Data\00", align 16
@_ZN17flag_descriptions30kInstalledAppsInCbdDescriptionE = hidden local_unnamed_addr constant [142 x i8] c"Adds the installed apps warning dialog to the clear browsing data flow which allows users to protect installed apps' data from being deleted.\00", align 16
@_ZN17flag_descriptions22kJavascriptHarmonyNameE = hidden local_unnamed_addr constant [24 x i8] c"Experimental JavaScript\00", align 16
@_ZN17flag_descriptions29kJavascriptHarmonyDescriptionE = hidden local_unnamed_addr constant [58 x i8] c"Enable web pages to use experimental JavaScript features.\00", align 16
@_ZN17flag_descriptions30kJavascriptHarmonyShippingNameE = hidden local_unnamed_addr constant [34 x i8] c"Latest stable JavaScript features\00", align 16
@_ZN17flag_descriptions37kJavascriptHarmonyShippingDescriptionE = hidden local_unnamed_addr constant [207 x i8] c"Some web pages use legacy or non-standard JavaScript extensions that may conflict with the latest JavaScript features. This flag allows disabling support of those features for compatibility with such pages.\00", align 16
@_ZN17flag_descriptions28kKerberosSettingsSectionNameE = hidden local_unnamed_addr constant [26 x i8] c"Kerberos Settings Section\00", align 16
@_ZN17flag_descriptions35kKerberosSettingsSectionDescriptionE = hidden local_unnamed_addr constant [116 x i8] c"Enables the Kerberos Section in ChromeOS settings. When disabled, Kerberos settings will stay under People Section.\00", align 16
@_ZN17flag_descriptions22kLegacyTLSEnforcedNameE = hidden local_unnamed_addr constant [43 x i8] c"Enforce deprecation of legacy TLS versions\00", align 16
@_ZN17flag_descriptions29kLegacyTLSEnforcedDescriptionE = hidden local_unnamed_addr constant [162 x i8] c"Enable connection errors and interstitials for sites that use legacy TLS versions (TLS 1.0 and TLS 1.1), which are deprecated and will be removed  in the future.\00", align 16
@_ZN17flag_descriptions29kLensCameraAssistedSearchNameE = hidden local_unnamed_addr constant [40 x i8] c"Google Lens in Omnibox and New Tab Page\00", align 16
@_ZN17flag_descriptions36kLensCameraAssistedSearchDescriptionE = hidden local_unnamed_addr constant [103 x i8] c"Enable an entry point to Google Lens to allow users to search what they see using their mobile camera.\00", align 16
@_ZN17flag_descriptions33kLinkDoctorDeprecationAndroidNameE = hidden local_unnamed_addr constant [35 x i8] c"Link Doctor Deprecation on Android\00", align 16
@_ZN17flag_descriptions40kLinkDoctorDeprecationAndroidDescriptionE = hidden local_unnamed_addr constant [102 x i8] c"Removes the setting for retrieving suggestions on navigation errors since this feature is deprecated.\00", align 16
@_ZN17flag_descriptions14kLiteVideoNameE = hidden local_unnamed_addr constant [18 x i8] c"Enable LiteVideos\00", align 16
@_ZN17flag_descriptions21kLiteVideoDescriptionE = hidden local_unnamed_addr constant [82 x i8] c"Enable the LiteVideo optimization to throttle media requests to reduce data usage\00", align 16
@_ZN17flag_descriptions35kLiteVideoDownlinkBandwidthKbpsNameE = hidden local_unnamed_addr constant [50 x i8] c"Lite Video: Adjust throttling downlink (in Kbps).\00", align 16
@_ZN17flag_descriptions42kLiteVideoDownlinkBandwidthKbpsDescriptionE = hidden local_unnamed_addr constant [44 x i8] c"Specify the throttling bandwidth to be used\00", align 16
@_ZN17flag_descriptions35kLiteVideoForceOverrideDecisionNameE = hidden local_unnamed_addr constant [26 x i8] c"Force LiteVideos decision\00", align 16
@_ZN17flag_descriptions42kLiteVideoForceOverrideDecisionDescriptionE = hidden local_unnamed_addr constant [64 x i8] c"Force the LiteVideo decision to be allowed on every navigation.\00", align 16
@_ZN17flag_descriptions38kLoadMediaRouterComponentExtensionNameE = hidden local_unnamed_addr constant [38 x i8] c"Load Media Router Component Extension\00", align 16
@_ZN17flag_descriptions45kLoadMediaRouterComponentExtensionDescriptionE = hidden local_unnamed_addr constant [55 x i8] c"Loads the Media Router component extension at startup.\00", align 16
@_ZN17flag_descriptions25kLogJsConsoleMessagesNameE = hidden local_unnamed_addr constant [39 x i8] c"Log JS console messages in system logs\00", align 16
@_ZN17flag_descriptions32kLogJsConsoleMessagesDescriptionE = hidden local_unnamed_addr constant [90 x i8] c"Enable logging JS console messages in system logs, please note that they may contain PII.\00", align 16
@_ZN17flag_descriptions17kMediaHistoryNameE = hidden local_unnamed_addr constant [21 x i8] c"Enable Media History\00", align 16
@_ZN17flag_descriptions24kMediaHistoryDescriptionE = hidden local_unnamed_addr constant [77 x i8] c"Enables Media History which records data around media playbacks on websites.\00", align 16
@_ZN17flag_descriptions31kMediaRouterCastAllowAllIPsNameE = hidden local_unnamed_addr constant [44 x i8] c"Connect to Cast devices on all IP addresses\00", align 16
@_ZN17flag_descriptions38kMediaRouterCastAllowAllIPsDescriptionE = hidden local_unnamed_addr constant [111 x i8] c"Have the Media Router connect to Cast devices on all IP addresses, not just RFC1918/RFC4193 private addresses.\00", align 16
@_ZN17flag_descriptions23kMediaSessionWebRTCNameE = hidden local_unnamed_addr constant [39 x i8] c"Enable WebRTC actions in Media Session\00", align 16
@_ZN17flag_descriptions30kMediaSessionWebRTCDescriptionE = hidden local_unnamed_addr constant [60 x i8] c"Adds new actions into Media Session for video conferencing.\00", align 16
@_ZN17flag_descriptions13kMemoriesNameE = hidden local_unnamed_addr constant [9 x i8] c"Memories\00", align 1
@_ZN17flag_descriptions20kMemoriesDescriptionE = hidden local_unnamed_addr constant [27 x i8] c"Enables chrome://memories.\00", align 16
@_ZN17flag_descriptions18kMemoriesDebugNameE = hidden local_unnamed_addr constant [15 x i8] c"Memories Debug\00", align 1
@_ZN17flag_descriptions25kMemoriesDebugDescriptionE = hidden local_unnamed_addr constant [46 x i8] c"Show debug information for chrome://memories.\00", align 16
@_ZN17flag_descriptions27kMetricsSettingsAndroidNameE = hidden local_unnamed_addr constant [28 x i8] c"Metrics Settings on Android\00", align 16
@_ZN17flag_descriptions34kMetricsSettingsAndroidDescriptionE = hidden local_unnamed_addr constant [44 x i8] c"Enables the new design of metrics settings.\00", align 16
@_ZN17flag_descriptions30kMixedFormsDisableAutofillNameE = hidden local_unnamed_addr constant [33 x i8] c"Disable autofill for mixed forms\00", align 16
@_ZN17flag_descriptions37kMixedFormsDisableAutofillDescriptionE = hidden local_unnamed_addr constant [198 x i8] c"If enabled, autofill is not allowed for mixed forms (forms on HTTPS sites that submit over HTTP), and a warning bubble will be shown instead. Autofill for passwords is not affected by this setting.\00", align 16
@_ZN17flag_descriptions27kMixedFormsInterstitialNameE = hidden local_unnamed_addr constant [25 x i8] c"Mixed forms interstitial\00", align 16
@_ZN17flag_descriptions34kMixedFormsInterstitialDescriptionE = hidden local_unnamed_addr constant [145 x i8] c"When enabled, a full-page interstitial warning is shown when a mixed content form (a form on an HTTPS site that submits over HTTP) is submitted.\00", align 16
@_ZN17flag_descriptions30kMobileIdentityConsistencyNameE = hidden local_unnamed_addr constant [28 x i8] c"Mobile identity consistency\00", align 16
@_ZN17flag_descriptions37kMobileIdentityConsistencyDescriptionE = hidden local_unnamed_addr constant [48 x i8] c"Enables stronger identity consistency on mobile\00", align 16
@_ZN17flag_descriptions33kMobileIdentityConsistencyVarNameE = hidden local_unnamed_addr constant [39 x i8] c"Mobile identity consistency variations\00", align 16
@_ZN17flag_descriptions40kMobileIdentityConsistencyVarDescriptionE = hidden local_unnamed_addr constant [77 x i8] c"Enables stronger identity consistency on mobile with different UI variations\00", align 16
@_ZN17flag_descriptions33kWipeDataOnChildAccountSigninNameE = hidden local_unnamed_addr constant [34 x i8] c"Wipe Data On Child account signin\00", align 16
@_ZN17flag_descriptions40kWipeDataOnChildAccountSigninDescriptionE = hidden local_unnamed_addr constant [64 x i8] c"Wipe Data from previous account when signing in a child account\00", align 16
@_ZN17flag_descriptions33kMobileIdentityConsistencyFRENameE = hidden local_unnamed_addr constant [32 x i8] c"Mobile identity consistency FRE\00", align 16
@_ZN17flag_descriptions40kMobileIdentityConsistencyFREDescriptionE = hidden local_unnamed_addr constant [97 x i8] c"Enables stronger identity consistency on mobile with different UIs for the First Run Experience.\00", align 16
@_ZN17flag_descriptions35kMobilePwaInstallUseBottomSheetNameE = hidden local_unnamed_addr constant [37 x i8] c"Mobile PWA Installation bottom sheet\00", align 16
@_ZN17flag_descriptions42kMobilePwaInstallUseBottomSheetDescriptionE = hidden local_unnamed_addr constant [74 x i8] c"Enables use of a rich bottom sheet when offering mobile PWA installation.\00", align 16
@_ZN17flag_descriptions30kMojoLinuxChannelSharedMemNameE = hidden local_unnamed_addr constant [34 x i8] c"Enable Mojo Shared Memory Channel\00", align 16
@_ZN17flag_descriptions37kMojoLinuxChannelSharedMemDescriptionE = hidden local_unnamed_addr constant [106 x i8] c"If enabled Mojo on Linux based platforms can use shared memory as an alternate channel for most messages.\00", align 16
@_ZN17flag_descriptions35kMouseSubframeNoImplicitCaptureNameE = hidden local_unnamed_addr constant [42 x i8] c"Disable mouse implicit capture for iframe\00", align 16
@_ZN17flag_descriptions42kMouseSubframeNoImplicitCaptureDescriptionE = hidden local_unnamed_addr constant [62 x i8] c"When enable, mouse down does not implicit capture for iframe.\00", align 16
@_ZN17flag_descriptions33kMutingCompromisedCredentialsNameE = hidden local_unnamed_addr constant [42 x i8] c"Enables muting of compromised credentials\00", align 16
@_ZN17flag_descriptions40kMutingCompromisedCredentialsDescriptionE = hidden local_unnamed_addr constant [60 x i8] c"When enable, insecure credential muting state is respected.\00", align 16
@_ZN17flag_descriptions19kNewCanvas2DAPINameE = hidden local_unnamed_addr constant [36 x i8] c"Experimental canvas 2D API features\00", align 16
@_ZN17flag_descriptions26kNewCanvas2DAPIDescriptionE = hidden local_unnamed_addr constant [91 x i8] c"Enables in-progress features for the canvas 2D API. See https://github.com/fserb/canvas2d.\00", align 16
@_ZN17flag_descriptions26kSignInProfileCreationNameE = hidden local_unnamed_addr constant [35 x i8] c"Profile creation flow with sign-in\00", align 16
@_ZN17flag_descriptions33kSignInProfileCreationDescriptionE = hidden local_unnamed_addr constant [47 x i8] c"Enables a new sign-in flow in profile creation\00", align 16
@_ZN17flag_descriptions36kSignInProfileCreationEnterpriseNameE = hidden local_unnamed_addr constant [53 x i8] c"Profile creation flow support for enterprise sign-in\00", align 16
@_ZN17flag_descriptions43kSignInProfileCreationEnterpriseDescriptionE = hidden local_unnamed_addr constant [74 x i8] c"Enables smoother enterprise experience in signed-in profile creation flow\00", align 16
@_ZN17flag_descriptions34kSyncingCompromisedCredentialsNameE = hidden local_unnamed_addr constant [27 x i8] c"Syncing of Security Issues\00", align 16
@_ZN17flag_descriptions41kSyncingCompromisedCredentialsDescriptionE = hidden local_unnamed_addr constant [85 x i8] c"Enables syncing of Security issues which includes compromised and phished passwords.\00", align 16
@_ZN17flag_descriptions33kSystemProxyForSystemServicesNameE = hidden local_unnamed_addr constant [49 x i8] c"Enable system-proxy for selected system services\00", align 16
@_ZN17flag_descriptions40kSystemProxyForSystemServicesDescriptionE = hidden local_unnamed_addr constant [168 x i8] c"Enabling this flag will allow Chrome OS system service which require network connectivity to use the system-proxy daemon for authentication to remote HTTP web proxies.\00", align 16
@_ZN17flag_descriptions33kDestroyProfileOnBrowserCloseNameE = hidden local_unnamed_addr constant [33 x i8] c"Destroy Profile on browser close\00", align 16
@_ZN17flag_descriptions40kDestroyProfileOnBrowserCloseDescriptionE = hidden local_unnamed_addr constant [126 x i8] c"Release memory and other resources when a Profile's last browser window is closed, rather than when Chrome closes completely.\00", align 16
@_ZN17flag_descriptions18kNewUsbBackendNameE = hidden local_unnamed_addr constant [23 x i8] c"Enable new USB backend\00", align 16
@_ZN17flag_descriptions25kNewUsbBackendDescriptionE = hidden local_unnamed_addr constant [51 x i8] c"Enables the new experimental USB backend for macOS\00", align 16
@_ZN17flag_descriptions25kNewTabstripAnimationNameE = hidden local_unnamed_addr constant [24 x i8] c"New tabstrip animations\00", align 16
@_ZN17flag_descriptions32kNewTabstripAnimationDescriptionE = hidden local_unnamed_addr constant [43 x i8] c"New implementation of tabstrip animations.\00", align 16
@_ZN17flag_descriptions26kNotificationIndicatorNameE = hidden local_unnamed_addr constant [24 x i8] c"Notification Indicators\00", align 16
@_ZN17flag_descriptions33kNotificationIndicatorDescriptionE = hidden local_unnamed_addr constant [113 x i8] c"Enable notification indicators, which appear on shelf app icons and launcher apps when a notification is active.\00", align 16
@_ZN17flag_descriptions26kNotificationSchedulerNameE = hidden local_unnamed_addr constant [23 x i8] c"Notification scheduler\00", align 16
@_ZN17flag_descriptions33kNotificationSchedulerDescriptionE = hidden local_unnamed_addr constant [39 x i8] c"Enable notification scheduler feature.\00", align 16
@_ZN17flag_descriptions37kNotificationSchedulerDebugOptionNameE = hidden local_unnamed_addr constant [37 x i8] c"Notification scheduler debug options\00", align 16
@_ZN17flag_descriptions44kNotificationSchedulerDebugOptionDescriptionE = hidden local_unnamed_addr constant [111 x i8] c"Enable debugging mode to override certain behavior of notification scheduler system for easier manual testing.\00", align 16
@_ZN17flag_descriptions56kNotificationSchedulerImmediateBackgroundTaskDescriptionE = hidden local_unnamed_addr constant [40 x i8] c"Show scheduled notification right away.\00", align 16
@_ZN17flag_descriptions28kNotificationsSystemFlagNameE = hidden local_unnamed_addr constant [29 x i8] c"Enable system notifications.\00", align 16
@_ZN17flag_descriptions35kNotificationsSystemFlagDescriptionE = hidden local_unnamed_addr constant [120 x i8] c"Enable support for using the system notification toasts and notification center on platforms where these are available.\00", align 16
@_ZN17flag_descriptions28kUpdateHoverAtBeginFrameNameE = hidden local_unnamed_addr constant [32 x i8] c"Update hover at the begin frame\00", align 16
@_ZN17flag_descriptions35kUpdateHoverAtBeginFrameDescriptionE = hidden local_unnamed_addr constant [117 x i8] c"Recompute hover state at BeginFrame for layout and scroll based mouse moves, rather than old timing-based mechanism.\00", align 16
@_ZN17flag_descriptions36kOmniboxAdaptiveSuggestionsCountNameE = hidden local_unnamed_addr constant [35 x i8] c"Adaptive Omnibox Suggestions count\00", align 16
@_ZN17flag_descriptions43kOmniboxAdaptiveSuggestionsCountDescriptionE = hidden local_unnamed_addr constant [415 x i8] c"Dynamically adjust number of presented Omnibox suggestions depending on available space. When enabled, this feature will increase (or decrease) amount of offered Omnibox suggestions to fill in the space between the Omnibox and soft keyboard (if any). See also Max Autocomplete Matches flag to adjust the limit of offered suggestions. The number of shown suggestions will be no less than the platform default limit.\00", align 16
@_ZN17flag_descriptions32kOmniboxAssistantVoiceSearchNameE = hidden local_unnamed_addr constant [31 x i8] c"Omnibox Assistant Voice Search\00", align 16
@_ZN17flag_descriptions39kOmniboxAssistantVoiceSearchDescriptionE = hidden local_unnamed_addr constant [144 x i8] c"When enabled, use Assistant for omnibox voice query recognition instead of Android's built-in voice recognition service. Only works on Android.\00", align 16
@_ZN17flag_descriptions25kOmniboxBookmarkPathsNameE = hidden local_unnamed_addr constant [23 x i8] c"Omnibox Bookmark Paths\00", align 16
@_ZN17flag_descriptions32kOmniboxBookmarkPathsDescriptionE = hidden local_unnamed_addr constant [187 x i8] c"Allows inputs to match with bookmark paths. E.g. 'planets jupiter' can suggest a bookmark titled 'Jupiter' with URL 'en.wikipedia.org/wiki/Jupiter' located in a path containing 'planet.'\00", align 16
@_ZN17flag_descriptions51kOmniboxClobberTriggersContextualWebZeroSuggestNameE = hidden local_unnamed_addr constant [52 x i8] c"Omnibox Clobber Triggers Contextual Web ZeroSuggest\00", align 16
@_ZN17flag_descriptions58kOmniboxClobberTriggersContextualWebZeroSuggestDescriptionE = hidden local_unnamed_addr constant [174 x i8] c"If enabled, when the user clears the whole omnibox text (i.e. via Backspace), Chrome will request ZeroSuggest suggestions for the OTHER page classification (contextual web).\00", align 16
@_ZN17flag_descriptions30kOmniboxCompactSuggestionsNameE = hidden local_unnamed_addr constant [29 x i8] c"Omnibox: Compact suggestions\00", align 16
@_ZN17flag_descriptions37kOmniboxCompactSuggestionsDescriptionE = hidden local_unnamed_addr constant [76 x i8] c"Conserve the space for Omnibox Suggestions by slightly reducing their size.\00", align 16
@_ZN17flag_descriptions35kOmniboxDisableCGIParamMatchingNameE = hidden local_unnamed_addr constant [32 x i8] c"Disable CGI Param Name Matching\00", align 16
@_ZN17flag_descriptions42kOmniboxDisableCGIParamMatchingDescriptionE = hidden local_unnamed_addr constant [73 x i8] c"Disables using matches in CGI parameter names while scoring suggestions.\00", align 16
@_ZN17flag_descriptions42kOmniboxDefaultTypedNavigationsToHttpsNameE = hidden local_unnamed_addr constant [60 x i8] c"Omnibox - Use HTTPS as the default protocol for navigations\00", align 16
@_ZN17flag_descriptions49kOmniboxDefaultTypedNavigationsToHttpsDescriptionE = hidden local_unnamed_addr constant [391 x i8] c"Use HTTPS as the default protocol when the user types a URL without a protocol in the omnibox such as 'example.com'. Presently, such an entry navigates to http://example.com. When this feature is enabled, it will navigate to https://example.com if the HTTPS URL is available. If Chrome can't determine the availability of the HTTPS URL within the timeout, it will fall back to the HTTP URL.\00", align 16
@_ZN17flag_descriptions38kOmniboxExperimentalSuggestScoringNameE = hidden local_unnamed_addr constant [37 x i8] c"Omnibox Experimental Suggest Scoring\00", align 16
@_ZN17flag_descriptions45kOmniboxExperimentalSuggestScoringDescriptionE = hidden local_unnamed_addr constant [95 x i8] c"Enables an experimental scoring mode for suggestions when Google is the default search engine.\00", align 16
@_ZN17flag_descriptions41kOmniboxKeywordSpaceTriggeringSettingNameE = hidden local_unnamed_addr constant [41 x i8] c"Omnibox Keyword Space Triggering Setting\00", align 16
@_ZN17flag_descriptions48kOmniboxKeywordSpaceTriggeringSettingDescriptionE = hidden local_unnamed_addr constant [102 x i8] c"Adds a setting to the search engines setting page to control whether spacebar activates keyword mode.\00", align 16
@_ZN17flag_descriptions28kOmniboxMostVisitedTilesNameE = hidden local_unnamed_addr constant [27 x i8] c"Omnibox Most Visited Tiles\00", align 16
@_ZN17flag_descriptions35kOmniboxMostVisitedTilesDescriptionE = hidden local_unnamed_addr constant [116 x i8] c"Display a list of frquently visited pages from history as a single row with a carousel instead of one URL per line.\00", align 16
@_ZN17flag_descriptions46kOmniboxTrendingZeroPrefixSuggestionsOnNTPNameE = hidden local_unnamed_addr constant [41 x i8] c"Omnibox Trending Zero Prefix Suggestions\00", align 16
@_ZN17flag_descriptions53kOmniboxTrendingZeroPrefixSuggestionsOnNTPDescriptionE = hidden local_unnamed_addr constant [101 x i8] c"Enables trending zero prefix suggestions for signed-in users with no or insufficient search history.\00", align 16
@_ZN17flag_descriptions30kOmniboxRichAutocompletionNameE = hidden local_unnamed_addr constant [28 x i8] c"Omnibox Rich Autocompletion\00", align 16
@_ZN17flag_descriptions37kOmniboxRichAutocompletionDescriptionE = hidden local_unnamed_addr constant [517 x i8] c"Allow autocompletion for titles and non-prefixes. I.e. suggestions whose titles or URLs contain the user input as a continuous chunk, but not necessarily a prefix, can be the default suggestion. Typically, only suggestions whose URLs are prefixed by the user input can be. The potential variations toggle 4 params: 1) 'Title UI' displays titles, 2) '2-Line UI' includes titles (and URLs when autocompleting titles) on a 2nd line, 3) 'Title AC' autocompletes titles, and 4) 'Non-Prefix AC' autocompletes non-prefixes.\00", align 16
@_ZN17flag_descriptions37kOmniboxRichAutocompletionMinCharNameE = hidden local_unnamed_addr constant [43 x i8] c"Omnibox Rich Autocompletion Min Characters\00", align 16
@_ZN17flag_descriptions44kOmniboxRichAutocompletionMinCharDescriptionE = hidden local_unnamed_addr constant [69 x i8] c"Specifies min input character length to trigger rich autocompletion.\00", align 16
@_ZN17flag_descriptions48kOmniboxRichAutocompletionShowAdditionalTextNameE = hidden local_unnamed_addr constant [49 x i8] c"Omnibox Rich Autocompletion Show Additional Text\00", align 16
@_ZN17flag_descriptions55kOmniboxRichAutocompletionShowAdditionalTextDescriptionE = hidden local_unnamed_addr constant [121 x i8] c"Show the suggestion title or URL additional text when the input matches the URL or title respectively. Defaults to true.\00", align 16
@_ZN17flag_descriptions35kOmniboxRichAutocompletionSplitNameE = hidden local_unnamed_addr constant [34 x i8] c"Omnibox Rich Autocompletion Split\00", align 16
@_ZN17flag_descriptions42kOmniboxRichAutocompletionSplitDescriptionE = hidden local_unnamed_addr constant [129 x i8] c"Allow splitting the user input to intermix with autocompletions; e.g., the user input 'x z' could be autocompleted as 'x [y ]z'.\00", align 16
@_ZN17flag_descriptions52kOmniboxRichAutocompletionPreferUrlsOverPrefixesNameE = hidden local_unnamed_addr constant [54 x i8] c"Omnibox Rich Autocompletion Prefer URLs over prefixes\00", align 16
@_ZN17flag_descriptions59kOmniboxRichAutocompletionPreferUrlsOverPrefixesDescriptionE = hidden local_unnamed_addr constant [106 x i8] c"When the input matches both a suggestion's title's prefix and its URL's non-prefix, autocomplete the URL.\00", align 16
@_ZN17flag_descriptions39kOmniboxRichAutocompletionPromisingNameE = hidden local_unnamed_addr constant [51 x i8] c"Omnibox Rich Autocompletion Promising Combinations\00", align 16
@_ZN17flag_descriptions46kOmniboxRichAutocompletionPromisingDescriptionE = hidden local_unnamed_addr constant [83 x i8] c"Allow autocompletion for titles and non-prefixes; see Omnibox Rich Autocompletion.\00", align 16
@_ZN17flag_descriptions34kOmniboxRichEntitiesInLauncherNameE = hidden local_unnamed_addr constant [38 x i8] c"Omnibox rich entities in the launcher\00", align 16
@_ZN17flag_descriptions41kOmniboxRichEntitiesInLauncherDescriptionE = hidden local_unnamed_addr constant [67 x i8] c"Enable rich entity formatting for Omnibox results in the launcher.\00", align 16
@_ZN17flag_descriptions43kOmniboxOnFocusSuggestionsContextualWebNameE = hidden local_unnamed_addr constant [52 x i8] c"Omnibox on-focus suggestions for the contextual Web\00", align 16
@_ZN17flag_descriptions50kOmniboxOnFocusSuggestionsContextualWebDescriptionE = hidden local_unnamed_addr constant [212 x i8] c"Enables on-focus suggestions on the Open Web, that are contextual to the current URL. Will only work if user is signed-in and syncing, or is otherwise eligible to send the current page URL to the suggest server.\00", align 16
@_ZN17flag_descriptions32kOmniboxSearchReadyIncognitoNameE = hidden local_unnamed_addr constant [34 x i8] c"Search ready omnibox in incognito\00", align 16
@_ZN17flag_descriptions39kOmniboxSearchReadyIncognitoDescriptionE = hidden local_unnamed_addr constant [51 x i8] c"Show search ready omnibox when browsing incognito.\00", align 16
@_ZN17flag_descriptions25kOmniboxSpareRendererNameE = hidden local_unnamed_addr constant [38 x i8] c"Start spare renderer on omnibox focus\00", align 16
@_ZN17flag_descriptions32kOmniboxSpareRendererDescriptionE = hidden local_unnamed_addr constant [123 x i8] c"When the omnibox is focused, start an empty spare renderer. This can speed up the load of the navigation from the omnibox.\00", align 16
@_ZN17flag_descriptions32kOmniboxTabSwitchSuggestionsNameE = hidden local_unnamed_addr constant [34 x i8] c"Omnibox switch to tab suggestions\00", align 16
@_ZN17flag_descriptions39kOmniboxTabSwitchSuggestionsDescriptionE = hidden local_unnamed_addr constant [95 x i8] c"Enable URL suggestions to optionally take the user to a tab where a website is already opened.\00", align 16
@_ZN17flag_descriptions38kOmniboxUIHideSteadyStateUrlSchemeNameE = hidden local_unnamed_addr constant [40 x i8] c"Omnibox UI Hide Steady-State URL Scheme\00", align 16
@_ZN17flag_descriptions45kOmniboxUIHideSteadyStateUrlSchemeDescriptionE = hidden local_unnamed_addr constant [97 x i8] c"In the omnibox, hide the scheme from steady state displayed URLs. It is restored during editing.\00", align 16
@_ZN17flag_descriptions49kOmniboxUIHideSteadyStateUrlTrivialSubdomainsNameE = hidden local_unnamed_addr constant [52 x i8] c"Omnibox UI Hide Steady-State URL Trivial Subdomains\00", align 16
@_ZN17flag_descriptions56kOmniboxUIHideSteadyStateUrlTrivialSubdomainsDescriptionE = hidden local_unnamed_addr constant [119 x i8] c"In the omnibox, hide trivial subdomains from steady state displayed URLs. Hidden portions are restored during editing.\00", align 16
@_ZN17flag_descriptions56kOmniboxUIRevealSteadyStateUrlPathQueryAndRefOnHoverNameE = hidden local_unnamed_addr constant [65 x i8] c"Omnibox UI Reveal Steady-State URL Path, Query, and Ref On Hover\00", align 16
@_ZN17flag_descriptions63kOmniboxUIRevealSteadyStateUrlPathQueryAndRefOnHoverDescriptionE = hidden local_unnamed_addr constant [90 x i8] c"In the omnibox, reveal the path, query and ref from steady state displayed URLs on hover.\00", align 16
@_ZN17flag_descriptions60kOmniboxUIHideSteadyStateUrlPathQueryAndRefOnInteractionNameE = hidden local_unnamed_addr constant [69 x i8] c"Omnibox UI Hide Steady-State URL Path, Query, and Ref On Interaction\00", align 16
@_ZN17flag_descriptions67kOmniboxUIHideSteadyStateUrlPathQueryAndRefOnInteractionDescriptionE = hidden local_unnamed_addr constant [117 x i8] c"In the omnibox, hide the path, query and ref from steady state displayed URLs when the user interacts with the page.\00", align 16
@_ZN17flag_descriptions43kOmniboxUIMaybeElideToRegistrableDomainNameE = hidden local_unnamed_addr constant [80 x i8] c"Omnibox UI Sometimes Hide Steady-State URL Subdomains Beyond Registrable Domain\00", align 16
@_ZN17flag_descriptions50kOmniboxUIMaybeElideToRegistrableDomainDescriptionE = hidden local_unnamed_addr constant [319 x i8] c"In the omnibox, occasionally hide subdomains as well as path, query and ref from steady state displayed URLs, depending on heuristics. Has no effect unless at least one of #omnibox-ui-reveal-steady-state-url-path-query-and-ref-on-hover or #omnibox-ui-hide-steady-state-url-path-query-and-ref-on-interaction is enabled.\00", align 16
@_ZN17flag_descriptions33kOmniboxMaxZeroSuggestMatchesNameE = hidden local_unnamed_addr constant [33 x i8] c"Omnibox Max Zero Suggest Matches\00", align 16
@_ZN17flag_descriptions40kOmniboxMaxZeroSuggestMatchesDescriptionE = hidden local_unnamed_addr constant [134 x i8] c"Changes the maximum number of autocomplete matches displayed when zero suggest is active (i.e. displaying suggestions without input).\00", align 16
@_ZN17flag_descriptions36kOmniboxUIMaxAutocompleteMatchesNameE = hidden local_unnamed_addr constant [36 x i8] c"Omnibox UI Max Autocomplete Matches\00", align 16
@_ZN17flag_descriptions43kOmniboxUIMaxAutocompleteMatchesDescriptionE = hidden local_unnamed_addr constant [80 x i8] c"Changes the maximum number of autocomplete matches displayed in the Omnibox UI.\00", align 16
@_ZN17flag_descriptions25kOmniboxMaxURLMatchesNameE = hidden local_unnamed_addr constant [24 x i8] c"Omnibox Max URL Matches\00", align 16
@_ZN17flag_descriptions32kOmniboxMaxURLMatchesDescriptionE = hidden local_unnamed_addr constant [77 x i8] c"The maximum number of URL matches to show, unless there are no replacements.\00", align 16
@_ZN17flag_descriptions34kOmniboxDynamicMaxAutocompleteNameE = hidden local_unnamed_addr constant [33 x i8] c"Omnibox Dynamic Max Autocomplete\00", align 16
@_ZN17flag_descriptions41kOmniboxDynamicMaxAutocompleteDescriptionE = hidden local_unnamed_addr constant [130 x i8] c"Configures the maximum number of autocomplete matches displayed in the Omnibox UI dynamically based on the number of URL matches.\00", align 16
@_ZN17flag_descriptions44kOmniboxOnDeviceHeadSuggestionsIncognitoNameE = hidden local_unnamed_addr constant [52 x i8] c"Omnibox on device head suggestions (incognito only)\00", align 16
@_ZN17flag_descriptions51kOmniboxOnDeviceHeadSuggestionsIncognitoDescriptionE = hidden local_unnamed_addr constant [100 x i8] c"Google head non personalized search suggestions provided by a compact on device model for incognito\00", align 16
@_ZN17flag_descriptions47kOmniboxOnDeviceHeadSuggestionsNonIncognitoNameE = hidden local_unnamed_addr constant [56 x i8] c"Omnibox on device head suggestions (non-incognito only)\00", align 16
@_ZN17flag_descriptions54kOmniboxOnDeviceHeadSuggestionsNonIncognitoDescriptionE = hidden local_unnamed_addr constant [104 x i8] c"Google head non personalized search suggestions provided by a compact on device model for non-incognito\00", align 16
@_ZN17flag_descriptions29kOmniboxWebUIOmniboxPopupNameE = hidden local_unnamed_addr constant [20 x i8] c"WebUI Omnibox Popup\00", align 16
@_ZN17flag_descriptions36kOmniboxWebUIOmniboxPopupDescriptionE = hidden local_unnamed_addr constant [113 x i8] c"If enabled, uses WebUI to render the omnibox suggestions popup, similar to how the NTP \22realbox\22 is implemented.\00", align 16
@_ZN17flag_descriptions25kEnableSearchPrefetchNameE = hidden local_unnamed_addr constant [16 x i8] c"Search Prefetch\00", align 16
@_ZN17flag_descriptions32kEnableSearchPrefetchDescriptionE = hidden local_unnamed_addr constant [102 x i8] c"Allow the default search engine to specify prefetch behavior for suggestions to search results pages.\00", align 16
@_ZN17flag_descriptions21kOopRasterizationNameE = hidden local_unnamed_addr constant [29 x i8] c"Out of process rasterization\00", align 16
@_ZN17flag_descriptions28kOopRasterizationDescriptionE = hidden local_unnamed_addr constant [102 x i8] c"Perform Ganesh raster in the GPU Process instead of the renderer.  Must also enable GPU rasterization\00", align 16
@_ZN17flag_descriptions24kOopRasterizationDDLNameE = hidden local_unnamed_addr constant [40 x i8] c"Out of process rasterization using DDLs\00", align 16
@_ZN17flag_descriptions31kOopRasterizationDDLDescriptionE = hidden local_unnamed_addr constant [117 x i8] c"Use Skia Deferred Display Lists when performing rasterization in the GPU process  Must also enable OOP rasterization\00", align 16
@_ZN17flag_descriptions38kOptimizationGuideModelDownloadingNameE = hidden local_unnamed_addr constant [41 x i8] c"Allow optimization guide model downloads\00", align 16
@_ZN17flag_descriptions45kOptimizationGuideModelDownloadingDescriptionE = hidden local_unnamed_addr constant [62 x i8] c"Enables the optimization guide to download prediction models.\00", align 16
@_ZN17flag_descriptions18kEnableDeJellyNameE = hidden local_unnamed_addr constant [29 x i8] c"Experimental de-jelly effect\00", align 16
@_ZN17flag_descriptions25kEnableDeJellyDescriptionE = hidden local_unnamed_addr constant [221 x i8] c"Enables an experimental effect which attempts to mitigate \22jelly-scrolling\22. This is an experimental implementation with known bugs, visual artifacts, and performance cost. This implementation may be removed at any time.\00", align 16
@_ZN17flag_descriptions26kOsSettingsDeepLinkingNameE = hidden local_unnamed_addr constant [27 x i8] c"CrOS Settings Deep Linking\00", align 16
@_ZN17flag_descriptions33kOsSettingsDeepLinkingDescriptionE = hidden local_unnamed_addr constant [127 x i8] c"Enables a unique URL for each path in CrOS settings. This allows deep linking to individual settings, i.e. in settings search.\00", align 16
@_ZN17flag_descriptions22kOverlayScrollbarsNameE = hidden local_unnamed_addr constant [19 x i8] c"Overlay Scrollbars\00", align 16
@_ZN17flag_descriptions29kOverlayScrollbarsDescriptionE = hidden local_unnamed_addr constant [133 x i8] c"Enable the experimental overlay scrollbars implementation. You must also enable threaded compositing to have the scrollbars animate.\00", align 16
@_ZN17flag_descriptions22kOverlayStrategiesNameE = hidden local_unnamed_addr constant [29 x i8] c"Select HW overlay strategies\00", align 16
@_ZN17flag_descriptions29kOverlayStrategiesDescriptionE = hidden local_unnamed_addr constant [56 x i8] c"Select strategies used to promote quads to HW overlays.\00", align 16
@_ZN17flag_descriptions25kOverlayStrategiesDefaultE = hidden local_unnamed_addr constant [8 x i8] c"Default\00", align 1
@_ZN17flag_descriptions22kOverlayStrategiesNoneE = hidden local_unnamed_addr constant [5 x i8] c"None\00", align 1
@_ZN17flag_descriptions38kOverlayStrategiesUnoccludedFullscreenE = hidden local_unnamed_addr constant [50 x i8] c"Unoccluded fullscreen buffers (single-fullscreen)\00", align 16
@_ZN17flag_descriptions28kOverlayStrategiesUnoccludedE = hidden local_unnamed_addr constant [53 x i8] c"Unoccluded buffers (single-fullscreen,single-on-top)\00", align 16
@_ZN17flag_descriptions39kOverlayStrategiesOccludedAndUnoccludedE = hidden local_unnamed_addr constant [75 x i8] c"Occluded and unoccluded buffers (single-fullscreen,single-on-top,underlay)\00", align 16
@_ZN17flag_descriptions42kOverrideLanguagePrefsForHrefTranslateNameE = hidden local_unnamed_addr constant [54 x i8] c"Override user-blocklisted languages for hrefTranslate\00", align 16
@_ZN17flag_descriptions49kOverrideLanguagePrefsForHrefTranslateDescriptionE = hidden local_unnamed_addr constant [97 x i8] c"When using hrefTranslate, ignore the user's blocklist of languages that shouldn't be translated.\00", align 16
@_ZN17flag_descriptions38kOverrideSitePrefsForHrefTranslateNameE = hidden local_unnamed_addr constant [50 x i8] c"Override user-blocklisted sites for hrefTranslate\00", align 16
@_ZN17flag_descriptions45kOverrideSitePrefsForHrefTranslateDescriptionE = hidden local_unnamed_addr constant [96 x i8] c"When using hrefTranslate, ignore the user's blocklist of websites that shouldn't be translated.\00", align 16
@_ZN17flag_descriptions32kOverscrollHistoryNavigationNameE = hidden local_unnamed_addr constant [30 x i8] c"Overscroll history navigation\00", align 16
@_ZN17flag_descriptions39kOverscrollHistoryNavigationDescriptionE = hidden local_unnamed_addr constant [57 x i8] c"History navigation in response to horizontal overscroll.\00", align 16
@_ZN17flag_descriptions22kPageInfoV2DesktopNameE = hidden local_unnamed_addr constant [30 x i8] c"Page info version two desktop\00", align 16
@_ZN17flag_descriptions29kPageInfoV2DesktopDescriptionE = hidden local_unnamed_addr constant [60 x i8] c"Enable the second version of the page info menu on desktop.\00", align 16
@_ZN17flag_descriptions24kParallelDownloadingNameE = hidden local_unnamed_addr constant [21 x i8] c"Parallel downloading\00", align 16
@_ZN17flag_descriptions31kParallelDownloadingDescriptionE = hidden local_unnamed_addr constant [58 x i8] c"Enable parallel downloading to accelerate download speed.\00", align 16
@_ZN17flag_descriptions32kPassiveEventListenerDefaultNameE = hidden local_unnamed_addr constant [32 x i8] c"Passive Event Listener Override\00", align 16
@_ZN17flag_descriptions39kPassiveEventListenerDefaultDescriptionE = hidden local_unnamed_addr constant [287 x i8] c"Forces touchstart, touchmove, mousewheel and wheel event listeners (which haven't requested otherwise) to be treated as passive. This will break touch/wheel behavior on some websites but is useful for demonstrating the potential performance benefits of adopting passive event listeners.\00", align 16
@_ZN17flag_descriptions25kPassiveEventListenerTrueE = hidden local_unnamed_addr constant [24 x i8] c"True (when unspecified)\00", align 16
@_ZN17flag_descriptions33kPassiveEventListenerForceAllTrueE = hidden local_unnamed_addr constant [15 x i8] c"Force All True\00", align 1
@_ZN17flag_descriptions36kPassiveEventListenersDueToFlingNameE = hidden local_unnamed_addr constant [51 x i8] c"Touch Event Listeners Passive Default During Fling\00", align 16
@_ZN17flag_descriptions43kPassiveEventListenersDueToFlingDescriptionE = hidden local_unnamed_addr constant [105 x i8] c"Forces touchstart, and first touchmove per scroll event listeners during fling to be treated as passive.\00", align 16
@_ZN17flag_descriptions34kPassiveDocumentEventListenersNameE = hidden local_unnamed_addr constant [47 x i8] c"Document Level Event Listeners Passive Default\00", align 16
@_ZN17flag_descriptions41kPassiveDocumentEventListenersDescriptionE = hidden local_unnamed_addr constant [137 x i8] c"Forces touchstart, and touchmove event listeners on document level targets (which haven't requested otherwise) to be treated as passive.\00", align 16
@_ZN17flag_descriptions39kPassiveDocumentWheelEventListenersNameE = hidden local_unnamed_addr constant [53 x i8] c"Document Level Wheel Event Listeners Passive Default\00", align 16
@_ZN17flag_descriptions46kPassiveDocumentWheelEventListenersDescriptionE = hidden local_unnamed_addr constant [133 x i8] c"Forces wheel, and mousewheel event listeners on document level targets (which haven't requested otherwise) to be treated as passive.\00", align 16
@_ZN17flag_descriptions29kPasswordChangeInSettingsNameE = hidden local_unnamed_addr constant [42 x i8] c"Rework password change flow from settings\00", align 16
@_ZN17flag_descriptions36kPasswordChangeInSettingsDescriptionE = hidden local_unnamed_addr constant [56 x i8] c"Change password when bulk leak check detected an issue.\00", align 16
@_ZN17flag_descriptions19kPasswordChangeNameE = hidden local_unnamed_addr constant [28 x i8] c"Rework password change flow\00", align 16
@_ZN17flag_descriptions26kPasswordChangeDescriptionE = hidden local_unnamed_addr constant [48 x i8] c"Change password when password leak is detected.\00", align 16
@_ZN17flag_descriptions19kPasswordImportNameE = hidden local_unnamed_addr constant [16 x i8] c"Password import\00", align 16
@_ZN17flag_descriptions26kPasswordImportDescriptionE = hidden local_unnamed_addr constant [43 x i8] c"Import functionality in password settings.\00", align 16
@_ZN17flag_descriptions28kPasswordScriptsFetchingNameE = hidden local_unnamed_addr constant [23 x i8] c"Fetch password scripts\00", align 16
@_ZN17flag_descriptions35kPasswordScriptsFetchingDescriptionE = hidden local_unnamed_addr constant [43 x i8] c"Fetches scripts for password change flows.\00", align 16
@_ZN17flag_descriptions16kPdfXfaFormsNameE = hidden local_unnamed_addr constant [16 x i8] c"PDF XFA support\00", align 16
@_ZN17flag_descriptions23kPdfXfaFormsDescriptionE = hidden local_unnamed_addr constant [95 x i8] c"Enables support for XFA forms in PDFs. Has no effect if Chrome was not built with XFA support.\00", align 16
@_ZN17flag_descriptions29kForceWebContentsDarkModeNameE = hidden local_unnamed_addr constant [33 x i8] c"Force Dark Mode for Web Contents\00", align 16
@_ZN17flag_descriptions36kForceWebContentsDarkModeDescriptionE = hidden local_unnamed_addr constant [58 x i8] c"Automatically render all web contents using a dark theme.\00", align 16
@_ZN17flag_descriptions17kForcedColorsNameE = hidden local_unnamed_addr constant [14 x i8] c"Forced Colors\00", align 1
@_ZN17flag_descriptions24kForcedColorsDescriptionE = hidden local_unnamed_addr constant [44 x i8] c"Enables forced colors mode for web content.\00", align 16
@_ZN17flag_descriptions26kPercentBasedScrollingNameE = hidden local_unnamed_addr constant [24 x i8] c"Percent-based Scrolling\00", align 16
@_ZN17flag_descriptions33kPercentBasedScrollingDescriptionE = hidden local_unnamed_addr constant [94 x i8] c"If enabled, mousewheel and keyboard scrolls will scroll by a percentage of the scroller size.\00", align 16
@_ZN17flag_descriptions19kPermissionChipNameE = hidden local_unnamed_addr constant [28 x i8] c"Permissions Chip Experiment\00", align 16
@_ZN17flag_descriptions26kPermissionChipDescriptionE = hidden local_unnamed_addr constant [80 x i8] c"Enables an experimental permission prompt that uses a chip in the location bar.\00", align 16
@_ZN17flag_descriptions35kPermissionChipGestureSensitiveNameE = hidden local_unnamed_addr constant [35 x i8] c"Gesture-sensitive Permissions Chip\00", align 16
@_ZN17flag_descriptions42kPermissionChipGestureSensitiveDescriptionE = hidden local_unnamed_addr constant [152 x i8] c"If the Permissions Chip Experiment is enabled, controls whether or not the chip should be more prominent when the request is associated with a gesture.\00", align 16
@_ZN17flag_descriptions39kPermissionChipRequestTypeSensitiveNameE = hidden local_unnamed_addr constant [40 x i8] c"Request-type-sensitive Permissions Chip\00", align 16
@_ZN17flag_descriptions46kPermissionChipRequestTypeSensitiveDescriptionE = hidden local_unnamed_addr constant [144 x i8] c"If the Permissions Chip Experiment is enabled, controls whether or not the chip should be more or less prominent depending on the request type.\00", align 16
@_ZN17flag_descriptions26kPermissionPredictionsNameE = hidden local_unnamed_addr constant [23 x i8] c"Permission Predictions\00", align 16
@_ZN17flag_descriptions33kPermissionPredictionsDescriptionE = hidden local_unnamed_addr constant [276 x i8] c"Use the Permission Predictions Service to surface permission requests using a quieter UI when the likelihood of the user granting the permission is predicted to be low. Requires chrome://flags/#quiet-notification-prompts and `Safe Browsing Enhanced Protection` to be enabled.\00", align 16
@_ZN17flag_descriptions24kPlaybackSpeedButtonNameE = hidden local_unnamed_addr constant [22 x i8] c"Playback Speed Button\00", align 16
@_ZN17flag_descriptions31kPlaybackSpeedButtonDescriptionE = hidden local_unnamed_addr constant [56 x i8] c"Enable the playback speed button on the media controls.\00", align 16
@_ZN17flag_descriptions23kPointerLockOptionsNameE = hidden local_unnamed_addr constant [29 x i8] c"Enables pointer lock options\00", align 16
@_ZN17flag_descriptions30kPointerLockOptionsDescriptionE = hidden local_unnamed_addr constant [186 x i8] c"Enables pointer lock unadjustedMovement. When unadjustedMovement is set to true, pointer movements wil not be affected by the underlying platform modications such as mouse accelaration.\00", align 16
@_ZN17flag_descriptions15kPrerender2NameE = hidden local_unnamed_addr constant [11 x i8] c"Prerender2\00", align 1
@_ZN17flag_descriptions22kPrerender2DescriptionE = hidden local_unnamed_addr constant [96 x i8] c"Enables the new prerenderer implementation for <link rel=prerender> instead of NoStatePrefetch.\00", align 16
@_ZN17flag_descriptions23kPrintServerScalingNameE = hidden local_unnamed_addr constant [21 x i8] c"Print Server Scaling\00", align 16
@_ZN17flag_descriptions30kPrintServerScalingDescriptionE = hidden local_unnamed_addr constant [67 x i8] c"Allows print servers to be selected when beyond a specified limit.\00", align 16
@_ZN17flag_descriptions19kPrivacyAdvisorNameE = hidden local_unnamed_addr constant [16 x i8] c"Privacy Advisor\00", align 16
@_ZN17flag_descriptions26kPrivacyAdvisorDescriptionE = hidden local_unnamed_addr constant [64 x i8] c"Provides contextual entry points for adjusting privacy settings\00", align 16
@_ZN17flag_descriptions27kPrivacySandboxSettingsNameE = hidden local_unnamed_addr constant [25 x i8] c"Privacy Sandbox Settings\00", align 16
@_ZN17flag_descriptions34kPrivacySandboxSettingsDescriptionE = hidden local_unnamed_addr constant [99 x i8] c"Enables privacy sandbox settings. Requires at least one of the Privacy Sandbox APIs to be enabled.\00", align 16
@_ZN17flag_descriptions28kPrivacySandboxSettings2NameE = hidden local_unnamed_addr constant [27 x i8] c"Privacy Sandbox Settings 2\00", align 16
@_ZN17flag_descriptions35kPrivacySandboxSettings2DescriptionE = hidden local_unnamed_addr constant [106 x i8] c"Enables the second set of privacy sandbox settings. Requires #privacy-sandbox-settings to also be enabled\00", align 16
@_ZN17flag_descriptions29kSafetyCheckWeakPasswordsNameE = hidden local_unnamed_addr constant [32 x i8] c"Safety check for weak passwords\00", align 16
@_ZN17flag_descriptions36kSafetyCheckWeakPasswordsDescriptionE = hidden local_unnamed_addr constant [57 x i8] c"If weak passwords were found, show them in safety check.\00", align 16
@_ZN17flag_descriptions36kProminentDarkModeActiveTabTitleNameE = hidden local_unnamed_addr constant [38 x i8] c"Prominent Dark Mode Active Tab Titles\00", align 16
@_ZN17flag_descriptions43kProminentDarkModeActiveTabTitleDescriptionE = hidden local_unnamed_addr constant [88 x i8] c"Makes the active tab title in dark mode bolder so the active tab is easier to identify.\00", align 16
@_ZN17flag_descriptions25kPromoBrowserCommandsNameE = hidden local_unnamed_addr constant [27 x i8] c"NTP Promo Browser Commands\00", align 16
@_ZN17flag_descriptions32kPromoBrowserCommandsDescriptionE = hidden local_unnamed_addr constant [62 x i8] c"Enables executing the browser commands sent by the NTP promos\00", align 16
@_ZN17flag_descriptions18kPullToRefreshNameE = hidden local_unnamed_addr constant [24 x i8] c"Pull-to-refresh gesture\00", align 16
@_ZN17flag_descriptions25kPullToRefreshDescriptionE = hidden local_unnamed_addr constant [60 x i8] c"Pull-to-refresh gesture in response to vertical overscroll.\00", align 16
@_ZN17flag_descriptions32kPullToRefreshEnabledTouchscreenE = hidden local_unnamed_addr constant [29 x i8] c"Enabled for touchscreen only\00", align 16
@_ZN17flag_descriptions34kPwaUpdateDialogForNameAndIconNameE = hidden local_unnamed_addr constant [55 x i8] c"Enable PWA install update dialog for name/icon changes\00", align 16
@_ZN17flag_descriptions41kPwaUpdateDialogForNameAndIconDescriptionE = hidden local_unnamed_addr constant [76 x i8] c"Enable a confirmation dialog that shows up when a PWA changes its icon/name\00", align 16
@_ZN17flag_descriptions9kQuicNameE = hidden local_unnamed_addr constant [27 x i8] c"Experimental QUIC protocol\00", align 16
@_ZN17flag_descriptions16kQuicDescriptionE = hidden local_unnamed_addr constant [43 x i8] c"Enable experimental QUIC protocol support.\00", align 16
@_ZN17flag_descriptions29kQuietNotificationPromptsNameE = hidden local_unnamed_addr constant [40 x i8] c"Quieter notification permission prompts\00", align 16
@_ZN17flag_descriptions36kQuietNotificationPromptsDescriptionE = hidden local_unnamed_addr constant [174 x i8] c"Enables quieter permission prompts for notification permission requests. When a site wishes to show notifications, the usual modal dialog is replaced with a quieter version.\00", align 16
@_ZN17flag_descriptions44kAbusiveNotificationPermissionRevocationNameE = hidden local_unnamed_addr constant [43 x i8] c"Abusive notification permission revocation\00", align 16
@_ZN17flag_descriptions51kAbusiveNotificationPermissionRevocationDescriptionE = hidden local_unnamed_addr constant [281 x i8] c"Enables notification permission revocation for abusive origins. Prior to dispatching a push message to the service worker, the origin is verified through Safe Browsing. Origins with abusive notification permission requests or content will have the notification permission revoked.\00", align 16
@_ZN17flag_descriptions28kContentSettingsRedesignNameE = hidden local_unnamed_addr constant [31 x i8] c"Content settings page redesign\00", align 16
@_ZN17flag_descriptions35kContentSettingsRedesignDescriptionE = hidden local_unnamed_addr constant [40 x i8] c"Enables a new content settings page UI.\00", align 16
@_ZN17flag_descriptions17kRawClipboardNameE = hidden local_unnamed_addr constant [14 x i8] c"Raw Clipboard\00", align 1
@_ZN17flag_descriptions24kRawClipboardDescriptionE = hidden local_unnamed_addr constant [117 x i8] c"Allows raw / unsanitized clipboard content to be read and written. See https://github.com/WICG/raw-clipboard-access.\00", align 16
@_ZN17flag_descriptions27kReadLaterNewBadgePromoNameE = hidden local_unnamed_addr constant [31 x i8] c"Reading list 'New' badge promo\00", align 16
@_ZN17flag_descriptions34kReadLaterNewBadgePromoDescriptionE = hidden local_unnamed_addr constant [106 x i8] c"Causes a 'New' badge to appear on the entry point for adding to the reading list in the tab context menu.\00", align 16
@_ZN17flag_descriptions26kRecordWebAppDebugInfoNameE = hidden local_unnamed_addr constant [26 x i8] c"Record web app debug info\00", align 16
@_ZN17flag_descriptions33kRecordWebAppDebugInfoDescriptionE = hidden local_unnamed_addr constant [107 x i8] c"Enables recording additional web app related debugging data to be displayed in: chrome://internals/web-app\00", align 16
@_ZN17flag_descriptions20kReduceUserAgentNameE = hidden local_unnamed_addr constant [33 x i8] c"Reduce User-Agent request header\00", align 16
@_ZN17flag_descriptions27kReduceUserAgentDescriptionE = hidden local_unnamed_addr constant [163 x i8] c"Reduce (formerly, \22freeze\22) the amount of information available in the User-Agent request header. See https://www.chromium.org/updates/ua-reduction for more info.\00", align 16
@_ZN17flag_descriptions26kRestrictGamepadAccessNameE = hidden local_unnamed_addr constant [24 x i8] c"Restrict gamepad access\00", align 16
@_ZN17flag_descriptions33kRestrictGamepadAccessDescriptionE = hidden local_unnamed_addr constant [78 x i8] c"Enables Permissions Policy and Secure Context restrictions on the Gamepad API\00", align 16
@_ZN17flag_descriptions12kMBIModeNameE = hidden local_unnamed_addr constant [20 x i8] c"MBI Scheduling Mode\00", align 16
@_ZN17flag_descriptions19kMBIModeDescriptionE = hidden local_unnamed_addr constant [91 x i8] c"Enables independent agent cluster scheduling, via the AgentSchedulingGroup infrastructure.\00", align 16
@_ZN17flag_descriptions30kIntensiveWakeUpThrottlingNameE = hidden local_unnamed_addr constant [42 x i8] c"Throttle Javascript timers in background.\00", align 16
@_ZN17flag_descriptions37kIntensiveWakeUpThrottlingDescriptionE = hidden local_unnamed_addr constant [196 x i8] c"When enabled, wake ups from DOM Timers are limited to 1 per minute in a page that has been hidden for 5 minutes. For additional details, see https://www.chromestatus.com/feature/4718288976216064.\00", align 16
@_ZN17flag_descriptions24kPrinterStatusDialogNameE = hidden local_unnamed_addr constant [42 x i8] c"Show printer status on destination dialog\00", align 16
@_ZN17flag_descriptions31kPrinterStatusDialogDescriptionE = hidden local_unnamed_addr constant [99 x i8] c"Enables printer status icons and labels for saved printers on the Print Preview destination dialog\00", align 16
@_ZN17flag_descriptions14kSafetyTipNameE = hidden local_unnamed_addr constant [57 x i8] c"Show Safety Tip UI when visiting low-reputation websites\00", align 16
@_ZN17flag_descriptions21kSafetyTipDescriptionE = hidden local_unnamed_addr constant [121 x i8] c"If enabled, a Safety Tip UI may be displayed when visiting or interacting with a site Chrome believes may be suspicious.\00", align 16
@_ZN17flag_descriptions22kSchemefulSameSiteNameE = hidden local_unnamed_addr constant [20 x i8] c"Schemeful Same-Site\00", align 16
@_ZN17flag_descriptions29kSchemefulSameSiteDescriptionE = hidden local_unnamed_addr constant [200 x i8] c"Modify the same-site computation such that origins with the same registrable domain but different schemes are considered cross-site. This change only applies to cookies with the 'SameSite' attribute.\00", align 16
@_ZN17flag_descriptions22kScreenCaptureTestNameE = hidden local_unnamed_addr constant [20 x i8] c"Screen capture test\00", align 16
@_ZN17flag_descriptions29kScreenCaptureTestDescriptionE = hidden local_unnamed_addr constant [341 x i8] c"Enables an improved screen capture experience which aims to increase productivity by making screen capture discoverable, intuitive, and powerful. When enabled, access a new screen capture entry point from quick settings. Select the capture type and selection default from the capture mode UI bar. Try out new screen recording functionality.\00", align 16
@_ZN17flag_descriptions25kScrollableTabStripFlagIdE = hidden local_unnamed_addr constant [20 x i8] c"scrollable-tabstrip\00", align 16
@_ZN17flag_descriptions23kScrollableTabStripNameE = hidden local_unnamed_addr constant [14 x i8] c"Tab Scrolling\00", align 1
@_ZN17flag_descriptions30kScrollableTabStripDescriptionE = hidden local_unnamed_addr constant [54 x i8] c"Enables tab strip to scroll left and right when full.\00", align 16
@_ZN17flag_descriptions30kScrollableTabStripButtonsNameE = hidden local_unnamed_addr constant [22 x i8] c"Tab Scrolling Buttons\00", align 16
@_ZN17flag_descriptions37kScrollableTabStripButtonsDescriptionE = hidden local_unnamed_addr constant [106 x i8] c"When the scrollable-tabstrip flag is enabled, this enables buttons to permanently appear on the tabstrip.\00", align 16
@_ZN17flag_descriptions22kScrollUnificationNameE = hidden local_unnamed_addr constant [19 x i8] c"Scroll Unification\00", align 16
@_ZN17flag_descriptions29kScrollUnificationDescriptionE = hidden local_unnamed_addr constant [110 x i8] c"Refactoring project that eliminates scroll handling code from Blink. Does not affect behavior or performance.\00", align 16
@_ZN17flag_descriptions22kSearchHistoryLinkNameE = hidden local_unnamed_addr constant [20 x i8] c"Search History Link\00", align 16
@_ZN17flag_descriptions29kSearchHistoryLinkDescriptionE = hidden local_unnamed_addr constant [100 x i8] c"Changes the Clear Browsing Data UI to display a link to clear search history on My Google Activity.\00", align 16
@_ZN17flag_descriptions35kSecurePaymentConfirmationDebugNameE = hidden local_unnamed_addr constant [39 x i8] c"Secure Payment Confirmation Debug Mode\00", align 16
@_ZN17flag_descriptions42kSecurePaymentConfirmationDebugDescriptionE = hidden local_unnamed_addr constant [172 x i8] c"This flag removes the restriction that PaymentCredential in WebAuthn and secure payment confirmation in PaymentRequest API must use user verifying platform authenticators.\00", align 16
@_ZN17flag_descriptions30kSendTabToSelfWhenSignedInNameE = hidden local_unnamed_addr constant [32 x i8] c"Send tab to self when signed-in\00", align 16
@_ZN17flag_descriptions37kSendTabToSelfWhenSignedInDescriptionE = hidden local_unnamed_addr constant [142 x i8] c"Makes the tab sharing feature also available for users who have \22only\22 signed-in to their Google Account (as opposed to having enabled Sync).\00", align 16
@_ZN17flag_descriptions20kSendTabToSelfV2NameE = hidden local_unnamed_addr constant [21 x i8] c"Send tab to self 2.0\00", align 16
@_ZN17flag_descriptions27kSendTabToSelfV2DescriptionE = hidden local_unnamed_addr constant [98 x i8] c"Enables new received tab UI shown next to the profile icon instead of using system notifications.\00", align 16
@_ZN17flag_descriptions14kSidePanelNameE = hidden local_unnamed_addr constant [11 x i8] c"Side panel\00", align 1
@_ZN17flag_descriptions21kSidePanelDescriptionE = hidden local_unnamed_addr constant [35 x i8] c"Host some content in a side panel.\00", align 16
@_ZN17flag_descriptions35kServiceWorkerSubresourceFilterNameE = hidden local_unnamed_addr constant [33 x i8] c"ServiceWorker subresource filter\00", align 16
@_ZN17flag_descriptions42kServiceWorkerSubresourceFilterDescriptionE = hidden local_unnamed_addr constant [84 x i8] c"Enables an experimental API to specify subresource URLs that bypass service workers\00", align 16
@_ZN17flag_descriptions22kSharedClipboardUINameE = hidden local_unnamed_addr constant [54 x i8] c"Enable shared clipboard feature signals to be handled\00", align 16
@_ZN17flag_descriptions29kSharedClipboardUIDescriptionE = hidden local_unnamed_addr constant [125 x i8] c"Enables shared clipboard feature signals to be handled by showing a list of user's available devices to share the clipboard.\00", align 16
@_ZN17flag_descriptions29kSharingHubDesktopAppMenuNameE = hidden local_unnamed_addr constant [32 x i8] c"Desktop Sharing Hub in App Menu\00", align 16
@_ZN17flag_descriptions36kSharingHubDesktopAppMenuDescriptionE = hidden local_unnamed_addr constant [62 x i8] c"Enables the Chrome Sharing Hub in the 3-dot menu for desktop.\00", align 16
@_ZN17flag_descriptions29kSharingHubDesktopOmniboxNameE = hidden local_unnamed_addr constant [31 x i8] c"Desktop Sharing Hub in Omnibox\00", align 16
@_ZN17flag_descriptions36kSharingHubDesktopOmniboxDescriptionE = hidden local_unnamed_addr constant [59 x i8] c"Enables the Chrome Sharing Hub in the omnibox for desktop.\00", align 16
@_ZN17flag_descriptions34kSharingPeerConnectionReceiverNameE = hidden local_unnamed_addr constant [59 x i8] c"Enable receiver device to handle peer connection requests.\00", align 16
@_ZN17flag_descriptions41kSharingPeerConnectionReceiverDescriptionE = hidden local_unnamed_addr constant [83 x i8] c"Enables receiver device to connect and share data using a peer to peer connection.\00", align 16
@_ZN17flag_descriptions32kSharingPeerConnectionSenderNameE = hidden local_unnamed_addr constant [59 x i8] c"Enable sender device to initiate peer connection requests.\00", align 16
@_ZN17flag_descriptions39kSharingPeerConnectionSenderDescriptionE = hidden local_unnamed_addr constant [112 x i8] c"Enables the sender devices to connect with chosen device using a peer to peer connection for transferring data.\00", align 16
@_ZN17flag_descriptions23kSharingPreferVapidNameE = hidden local_unnamed_addr constant [41 x i8] c"Prefer sending Sharing message via VAPID\00", align 16
@_ZN17flag_descriptions30kSharingPreferVapidDescriptionE = hidden local_unnamed_addr constant [74 x i8] c"Prefer sending Sharing message via FCM WebPush authenticated using VAPID.\00", align 16
@_ZN17flag_descriptions23kSharingSendViaSyncNameE = hidden local_unnamed_addr constant [40 x i8] c"Enable sending Sharing message via Sync\00", align 16
@_ZN17flag_descriptions30kSharingSendViaSyncDescriptionE = hidden local_unnamed_addr constant [89 x i8] c"Enables sending Sharing message via commiting to Chrome Sync's SHARING_MESSAGE data type\00", align 16
@_ZN17flag_descriptions28kSharingDeviceExpirationNameE = hidden local_unnamed_addr constant [37 x i8] c"Configures sharing device expiration\00", align 16
@_ZN17flag_descriptions35kSharingDeviceExpirationDescriptionE = hidden local_unnamed_addr constant [100 x i8] c"Configures how long after a device was last active that it is eligible for use in sharing features.\00", align 16
@_ZN17flag_descriptions23kShelfHoverPreviewsNameE = hidden local_unnamed_addr constant [60 x i8] c"Show previews of running apps when hovering over the shelf.\00", align 16
@_ZN17flag_descriptions30kShelfHoverPreviewsDescriptionE = hidden local_unnamed_addr constant [89 x i8] c"Shows previews of the open windows for a given running app when hovering over the shelf.\00", align 16
@_ZN17flag_descriptions27kShowAutofillSignaturesNameE = hidden local_unnamed_addr constant [26 x i8] c"Show autofill signatures.\00", align 16
@_ZN17flag_descriptions34kShowAutofillSignaturesDescriptionE = hidden local_unnamed_addr constant [126 x i8] c"Annotates web forms with Autofill signatures as HTML attributes. Also marks password fields suitable for password generation.\00", align 16
@_ZN17flag_descriptions32kShowAutofillTypePredictionsNameE = hidden local_unnamed_addr constant [26 x i8] c"Show Autofill predictions\00", align 16
@_ZN17flag_descriptions39kShowAutofillTypePredictionsDescriptionE = hidden local_unnamed_addr constant [78 x i8] c"Annotates web forms with Autofill field type predictions as placeholder text.\00", align 16
@_ZN17flag_descriptions30kShowPerformanceMetricsHudNameE = hidden local_unnamed_addr constant [32 x i8] c"Show performance metrics in HUD\00", align 16
@_ZN17flag_descriptions37kShowPerformanceMetricsHudDescriptionE = hidden local_unnamed_addr constant [83 x i8] c"Display the performance metrics of current page in a heads up display on the page.\00", align 16
@_ZN17flag_descriptions25kShowOverdrawFeedbackNameE = hidden local_unnamed_addr constant [23 x i8] c"Show overdraw feedback\00", align 16
@_ZN17flag_descriptions32kShowOverdrawFeedbackDescriptionE = hidden local_unnamed_addr constant [99 x i8] c"Visualize overdraw by color-coding elements based on if they have other elements drawn underneath.\00", align 16
@_ZN17flag_descriptions17kSkiaRendererNameE = hidden local_unnamed_addr constant [25 x i8] c"Skia API for compositing\00", align 16
@_ZN17flag_descriptions24kSkiaRendererDescriptionE = hidden local_unnamed_addr constant [91 x i8] c"If enabled, the display compositor will use Skia as the graphics API instead of OpenGL ES.\00", align 16
@_ZN17flag_descriptions32kHistoryManipulationInterventionE = hidden local_unnamed_addr constant [34 x i8] c"History Manipulation Intervention\00", align 16
@_ZN17flag_descriptions43kHistoryManipulationInterventionDescriptionE = hidden local_unnamed_addr constant [118 x i8] c"If a page does a client side redirect or adds to the history without a user gesture, then skip it on back/forward UI.\00", align 16
@_ZN17flag_descriptions31kSilentDebuggerExtensionApiNameE = hidden local_unnamed_addr constant [17 x i8] c"Silent Debugging\00", align 16
@_ZN17flag_descriptions38kSilentDebuggerExtensionApiDescriptionE = hidden local_unnamed_addr constant [140 x i8] c"Do not show the infobar when an extension attaches to a page via chrome.debugger API. This is required to debug extension background pages.\00", align 16
@_ZN17flag_descriptions19kIsolateOriginsNameE = hidden local_unnamed_addr constant [27 x i8] c"Isolate additional origins\00", align 16
@_ZN17flag_descriptions26kIsolateOriginsDescriptionE = hidden local_unnamed_addr constant [100 x i8] c"Requires dedicated processes for an additional set of origins, specified as a comma-separated list.\00", align 16
@_ZN17flag_descriptions23kIsolationByDefaultNameE = hidden local_unnamed_addr constant [64 x i8] c"Change web-facing behaviors that prevent origin-level isolation\00", align 16
@_ZN17flag_descriptions30kIsolationByDefaultDescriptionE = hidden local_unnamed_addr constant [237 x i8] c"Change several web APIs that make it difficult to isolate origins into distinct processes. While these changes will ideally become new default behaviors for the web, this flag is likely to break your experience on sites you visit today.\00", align 16
@_ZN17flag_descriptions24kSiteIsolationOptOutNameE = hidden local_unnamed_addr constant [23 x i8] c"Disable site isolation\00", align 16
@_ZN17flag_descriptions31kSiteIsolationOptOutDescriptionE = hidden local_unnamed_addr constant [356 x i8] c"Disables site isolation (SitePerProcess, IsolateOrigins, etc). Intended for diagnosing bugs that may be due to out-of-process iframes. Opt-out has no effect if site isolation is force-enabled using a command line switch or using an enterprise policy. Caution: this disables important mitigations for the Spectre CPU vulnerability affecting most computers.\00", align 16
@_ZN17flag_descriptions33kSiteIsolationOptOutChoiceDefaultE = hidden local_unnamed_addr constant [8 x i8] c"Default\00", align 1
@_ZN17flag_descriptions32kSiteIsolationOptOutChoiceOptOutE = hidden local_unnamed_addr constant [27 x i8] c"Disabled (not recommended)\00", align 16
@_ZN17flag_descriptions20kSmoothScrollingNameE = hidden local_unnamed_addr constant [17 x i8] c"Smooth Scrolling\00", align 16
@_ZN17flag_descriptions27kSmoothScrollingDescriptionE = hidden local_unnamed_addr constant [46 x i8] c"Animate smoothly when scrolling page content.\00", align 16
@_ZN17flag_descriptions22kWebOTPCrossDeviceNameE = hidden local_unnamed_addr constant [20 x i8] c"WebOTP Cross Device\00", align 16
@_ZN17flag_descriptions29kWebOTPCrossDeviceDescriptionE = hidden local_unnamed_addr constant [45 x i8] c"Enable the WebOTP API to work across devices\00", align 16
@_ZN17flag_descriptions36kSplitCacheByNetworkIsolationKeyNameE = hidden local_unnamed_addr constant [24 x i8] c"HTTP Cache Partitioning\00", align 16
@_ZN17flag_descriptions43kSplitCacheByNetworkIsolationKeyDescriptionE = hidden local_unnamed_addr constant [99 x i8] c"Partitions the HTTP Cache by (top-level site, current-frame site) to disallow cross-site tracking.\00", align 16
@_ZN17flag_descriptions26kStrictOriginIsolationNameE = hidden local_unnamed_addr constant [24 x i8] c"Strict-Origin-Isolation\00", align 16
@_ZN17flag_descriptions33kStrictOriginIsolationDescriptionE = hidden local_unnamed_addr constant [152 x i8] c"Experimental security mode that strengthens the site isolation policy. Controls whether site isolation should use origins instead of scheme and eTLD+1.\00", align 16
@_ZN17flag_descriptions21kStorageAccessAPINameE = hidden local_unnamed_addr constant [19 x i8] c"Storage Access API\00", align 16
@_ZN17flag_descriptions28kStorageAccessAPIDescriptionE = hidden local_unnamed_addr constant [115 x i8] c"Enables the Storage Access API, allowing websites to request storage access when it would otherwise be restricted.\00", align 16
@_ZN17flag_descriptions25kStoragePressureEventNameE = hidden local_unnamed_addr constant [30 x i8] c"Enable storage pressure Event\00", align 16
@_ZN17flag_descriptions32kStoragePressureEventDescriptionE = hidden local_unnamed_addr constant [109 x i8] c"If enabled, Chrome will dispatch a DOM event, informing applications about storage pressure (low disk space)\00", align 16
@_ZN17flag_descriptions22kStoreHoursAndroidNameE = hidden local_unnamed_addr constant [12 x i8] c"Store Hours\00", align 1
@_ZN17flag_descriptions29kStoreHoursAndroidDescriptionE = hidden local_unnamed_addr constant [61 x i8] c"When enabled, shows store hours for stores in tab grid view.\00", align 16
@_ZN17flag_descriptions34kSuggestionsWithSubStringMatchNameE = hidden local_unnamed_addr constant [44 x i8] c"Substring matching for Autofill suggestions\00", align 16
@_ZN17flag_descriptions41kSuggestionsWithSubStringMatchDescriptionE = hidden local_unnamed_addr constant [91 x i8] c"Match Autofill suggestions based on substrings (token prefixes) rather than just prefixes.\00", align 16
@_ZN17flag_descriptions32kSyncAutofillWalletOfferDataNameE = hidden local_unnamed_addr constant [35 x i8] c"Enable syncing autofill offer data\00", align 16
@_ZN17flag_descriptions39kSyncAutofillWalletOfferDataDescriptionE = hidden local_unnamed_addr constant [62 x i8] c"When enabled, allows syncing autofill wallet offer data type.\00", align 16
@_ZN17flag_descriptions16kSyncSandboxNameE = hidden local_unnamed_addr constant [24 x i8] c"Use Chrome Sync sandbox\00", align 16
@_ZN17flag_descriptions23kSyncSandboxDescriptionE = hidden local_unnamed_addr constant [48 x i8] c"Connects to the testing server for Chrome Sync.\00", align 16
@_ZN17flag_descriptions23kSystemKeyboardLockNameE = hidden local_unnamed_addr constant [34 x i8] c"Experimental system keyboard lock\00", align 16
@_ZN17flag_descriptions30kSystemKeyboardLockDescriptionE = hidden local_unnamed_addr constant [163 x i8] c"Enables websites to use the keyboard.lock() API to intercept system keyboard shortcuts and have the events routed directly to the website when in fullscreen mode.\00", align 16
@_ZN17flag_descriptions24kStylusBatteryStatusNameE = hidden local_unnamed_addr constant [52 x i8] c"Show stylus battery stylus in the stylus tools menu\00", align 16
@_ZN17flag_descriptions31kStylusBatteryStatusDescriptionE = hidden local_unnamed_addr constant [75 x i8] c"Enables viewing the current stylus battery level in the stylus tools menu.\00", align 16
@_ZN17flag_descriptions26kSubframeShutdownDelayNameE = hidden local_unnamed_addr constant [48 x i8] c"Add delay to subframe renderer process shutdown\00", align 16
@_ZN17flag_descriptions33kSubframeShutdownDelayDescriptionE = hidden local_unnamed_addr constant [203 x i8] c"Delays shutdown of subframe renderer processes by a few seconds to allow them to be potentially reused. This aims to reduce process churn in navigations where the source and destination share subframes.\00", align 16
@_ZN17flag_descriptions27kTabEngagementReportingNameE = hidden local_unnamed_addr constant [23 x i8] c"Tab Engagement Metrics\00", align 16
@_ZN17flag_descriptions34kTabEngagementReportingDescriptionE = hidden local_unnamed_addr constant [44 x i8] c"Tracks tab engagement and lifetime metrics.\00", align 16
@_ZN17flag_descriptions25kTabGridLayoutAndroidNameE = hidden local_unnamed_addr constant [16 x i8] c"Tab Grid Layout\00", align 16
@_ZN17flag_descriptions32kTabGridLayoutAndroidDescriptionE = hidden local_unnamed_addr constant [79 x i8] c"Allows users to see their tabs in a grid layout in the tab switcher on phones.\00", align 16
@_ZN17flag_descriptions34kCommerceMerchantViewerAndroidNameE = hidden local_unnamed_addr constant [16 x i8] c"Merchant Viewer\00", align 16
@_ZN17flag_descriptions41kCommerceMerchantViewerAndroidDescriptionE = hidden local_unnamed_addr constant [63 x i8] c"Allows users to view merchant trust signals on eligible pages.\00", align 16
@_ZN17flag_descriptions21kTabGroupsAndroidNameE = hidden local_unnamed_addr constant [11 x i8] c"Tab Groups\00", align 1
@_ZN17flag_descriptions28kTabGroupsAndroidDescriptionE = hidden local_unnamed_addr constant [71 x i8] c"Allows users to create groups to better organize their tabs on phones.\00", align 16
@_ZN17flag_descriptions33kTabGroupsContinuationAndroidNameE = hidden local_unnamed_addr constant [24 x i8] c"Tab Groups Continuation\00", align 16
@_ZN17flag_descriptions40kTabGroupsContinuationAndroidDescriptionE = hidden local_unnamed_addr constant [69 x i8] c"Allows users to access continuation features in Tab Group on phones.\00", align 16
@_ZN17flag_descriptions35kTabGroupsUiImprovementsAndroidNameE = hidden local_unnamed_addr constant [27 x i8] c"Tab Groups UI Improvements\00", align 16
@_ZN17flag_descriptions42kTabGroupsUiImprovementsAndroidDescriptionE = hidden local_unnamed_addr constant [63 x i8] c"Allows users to access new features in Tab Group UI on phones.\00", align 16
@_ZN17flag_descriptions29kTabToGTSAnimationAndroidNameE = hidden local_unnamed_addr constant [28 x i8] c"Enable Tab-to-GTS Animation\00", align 16
@_ZN17flag_descriptions36kTabToGTSAnimationAndroidDescriptionE = hidden local_unnamed_addr constant [91 x i8] c"Allows users to see an animation when entering or leaving the Grid Tab Switcher on phones.\00", align 16
@_ZN17flag_descriptions24kTabGroupsAutoCreateNameE = hidden local_unnamed_addr constant [23 x i8] c"Tab Groups Auto Create\00", align 16
@_ZN17flag_descriptions31kTabGroupsAutoCreateDescriptionE = hidden local_unnamed_addr constant [67 x i8] c"Automatically creates groups for users, if tab groups are enabled.\00", align 16
@_ZN17flag_descriptions22kTabGroupsCollapseNameE = hidden local_unnamed_addr constant [20 x i8] c"Tab Groups Collapse\00", align 16
@_ZN17flag_descriptions29kTabGroupsCollapseDescriptionE = hidden local_unnamed_addr constant [80 x i8] c"Allows a tab group to be collapsible and expandable, if tab groups are enabled.\00", align 16
@_ZN17flag_descriptions30kTabGroupsCollapseFreezingNameE = hidden local_unnamed_addr constant [29 x i8] c"Tab Groups Collapse Freezing\00", align 16
@_ZN17flag_descriptions37kTabGroupsCollapseFreezingDescriptionE = hidden local_unnamed_addr constant [55 x i8] c"Experimental tab freezing upon collapsing a tab group.\00", align 16
@_ZN17flag_descriptions22kTabGroupsFeedbackNameE = hidden local_unnamed_addr constant [20 x i8] c"Tab Groups Feedback\00", align 16
@_ZN17flag_descriptions29kTabGroupsFeedbackDescriptionE = hidden local_unnamed_addr constant [94 x i8] c"Enables the feedback app to appear in the tab group editor bubble, if tab groups are enabled.\00", align 16
@_ZN17flag_descriptions27kTabGroupsNewBadgePromoNameE = hidden local_unnamed_addr constant [29 x i8] c"Tab Groups 'New' Badge Promo\00", align 16
@_ZN17flag_descriptions34kTabGroupsNewBadgePromoDescriptionE = hidden local_unnamed_addr constant [100 x i8] c"Causes a 'New' badge to appear on the entry point for creating a tab group in the tab context menu.\00", align 16
@_ZN17flag_descriptions23kTabHoverCardImagesNameE = hidden local_unnamed_addr constant [22 x i8] c"Tab Hover Card Images\00", align 16
@_ZN17flag_descriptions30kTabHoverCardImagesDescriptionE = hidden local_unnamed_addr constant [74 x i8] c"Shows a preview image in tab hover cards, if tab hover cards are enabled.\00", align 16
@_ZN17flag_descriptions35kTabOutlinesInLowContrastThemesNameE = hidden local_unnamed_addr constant [36 x i8] c"Tab Outlines in Low Contrast Themes\00", align 16
@_ZN17flag_descriptions42kTabOutlinesInLowContrastThemesDescriptionE = hidden local_unnamed_addr constant [127 x i8] c"Expands the range of situations in which tab outline strokes are displayed, improving accessiblity in dark and incognito mode.\00", align 16
@_ZN17flag_descriptions28kTextFragmentColorChangeNameE = hidden local_unnamed_addr constant [27 x i8] c"Text Fragment color change\00", align 16
@_ZN17flag_descriptions35kTextFragmentColorChangeDescriptionE = hidden local_unnamed_addr constant [72 x i8] c"Changes the Text Fragment background coloraway from the default yellow.\00", align 16
@_ZN17flag_descriptions28kTFLiteLanguageDetectionNameE = hidden local_unnamed_addr constant [32 x i8] c"TFLite-based Language Detection\00", align 16
@_ZN17flag_descriptions35kTFLiteLanguageDetectionDescriptionE = hidden local_unnamed_addr constant [52 x i8] c"Uses TFLite for language detection in place of CLD3\00", align 16
@_ZN17flag_descriptions26kTintCompositedContentNameE = hidden local_unnamed_addr constant [24 x i8] c"Tint composited content\00", align 16
@_ZN17flag_descriptions33kTintCompositedContentDescriptionE = hidden local_unnamed_addr constant [96 x i8] c"Tint contents composited using Viz with a shade of red to help debug and study overlay support.\00", align 16
@_ZN17flag_descriptions21kTopChromeTouchUiNameE = hidden local_unnamed_addr constant [16 x i8] c"Touch UI Layout\00", align 16
@_ZN17flag_descriptions28kTopChromeTouchUiDescriptionE = hidden local_unnamed_addr constant [53 x i8] c"Enables touch UI layout in the browser's top chrome.\00", align 16
@_ZN17flag_descriptions22kThreadedScrollingNameE = hidden local_unnamed_addr constant [19 x i8] c"Threaded scrolling\00", align 16
@_ZN17flag_descriptions29kThreadedScrollingDescriptionE = hidden local_unnamed_addr constant [252 x i8] c"Threaded handling of scroll-related input events. Disabling this will force all such scroll events to be handled on the main thread. Note that this can dramatically hurt scrolling performance of most websites and is intended for testing purposes only.\00", align 16
@_ZN17flag_descriptions61kThrottleDisplayNoneAndVisibilityHiddenCrossOriginIframesNameE = hidden local_unnamed_addr constant [42 x i8] c"Throttle non-visible cross-origin iframes\00", align 16
@_ZN17flag_descriptions68kThrottleDisplayNoneAndVisibilityHiddenCrossOriginIframesDescriptionE = hidden local_unnamed_addr constant [237 x i8] c"When enabled, all cross-origin iframes with zero visibility (either display:none or zero area) will be throttled, regardless of whether they are same-process or cross-process. When disabled, only cross-process iframes will be throttled.\00", align 16
@_ZN17flag_descriptions18kTouchDragDropNameE = hidden local_unnamed_addr constant [30 x i8] c"Touch initiated drag and drop\00", align 16
@_ZN17flag_descriptions25kTouchDragDropDescriptionE = hidden local_unnamed_addr constant [80 x i8] c"Touch drag and drop can be initiated through long press on a draggable element.\00", align 16
@_ZN17flag_descriptions27kTouchSelectionStrategyNameE = hidden local_unnamed_addr constant [30 x i8] c"Touch text selection strategy\00", align 16
@_ZN17flag_descriptions34kTouchSelectionStrategyDescriptionE = hidden local_unnamed_addr constant [133 x i8] c"Controls how text selection granularity changes when touch text selection handles are dragged. Non-default behavior is experimental.\00", align 16
@_ZN17flag_descriptions32kTouchSelectionStrategyCharacterE = hidden local_unnamed_addr constant [10 x i8] c"Character\00", align 1
@_ZN17flag_descriptions32kTouchSelectionStrategyDirectionE = hidden local_unnamed_addr constant [10 x i8] c"Direction\00", align 1
@_ZN17flag_descriptions19kTraceUploadUrlNameE = hidden local_unnamed_addr constant [35 x i8] c"Trace label for navigation tracing\00", align 16
@_ZN17flag_descriptions26kTraceUploadUrlDescriptionE = hidden local_unnamed_addr constant [279 x i8] c"This is to be used in conjunction with the enable-navigation-tracing flag. Please select the label that best describes the recorded traces. This will choose the destination the traces are uploaded to. If you are not sure, select other. If left empty, no traces will be uploaded.\00", align 16
@_ZN17flag_descriptions26kTraceUploadUrlChoiceOtherE = hidden local_unnamed_addr constant [6 x i8] c"Other\00", align 1
@_ZN17flag_descriptions30kTraceUploadUrlChoiceEmloadingE = hidden local_unnamed_addr constant [10 x i8] c"emloading\00", align 1
@_ZN17flag_descriptions23kTraceUploadUrlChoiceQaE = hidden local_unnamed_addr constant [3 x i8] c"QA\00", align 1
@_ZN17flag_descriptions28kTraceUploadUrlChoiceTestingE = hidden local_unnamed_addr constant [8 x i8] c"Testing\00", align 1
@_ZN17flag_descriptions22kTranslateBubbleUINameE = hidden local_unnamed_addr constant [44 x i8] c"Select which UI to use for translate bubble\00", align 16
@_ZN17flag_descriptions29kTranslateBubbleUIDescriptionE = hidden local_unnamed_addr constant [67 x i8] c"Three bubble options to choose. Existing UI is selected by default\00", align 16
@_ZN17flag_descriptions35kTranslateForceTriggerOnEnglishNameE = hidden local_unnamed_addr constant [75 x i8] c"Select which language model to use to trigger translate on English content\00", align 16
@_ZN17flag_descriptions42kTranslateForceTriggerOnEnglishDescriptionE = hidden local_unnamed_addr constant [114 x i8] c"Force the Translate Triggering on English pages experiment to be enabled with the selected language model active.\00", align 16
@_ZN17flag_descriptions20kTranslateIntentNameE = hidden local_unnamed_addr constant [17 x i8] c"Translate intent\00", align 16
@_ZN17flag_descriptions27kTranslateIntentDescriptionE = hidden local_unnamed_addr constant [89 x i8] c"Enables an intent that allows Assistant to initiate a translation of the foreground tab.\00", align 16
@_ZN17flag_descriptions32kTreatInsecureOriginAsSecureNameE = hidden local_unnamed_addr constant [35 x i8] c"Insecure origins treated as secure\00", align 16
@_ZN17flag_descriptions39kTreatInsecureOriginAsSecureDescriptionE = hidden local_unnamed_addr constant [272 x i8] c"Treat given (insecure) origins as secure origins. Multiple origins can be supplied as a comma-separated list. Origins must have their protocol specified e.g. \22http://example.com\22. For the definition of secure contexts, see https://w3c.github.io/webappsec-secure-contexts/\00", align 16
@_ZN17flag_descriptions33kTreatUnsafeDownloadsAsActiveNameE = hidden local_unnamed_addr constant [72 x i8] c"Treat risky downloads over insecure connections as active mixed content\00", align 16
@_ZN17flag_descriptions40kTreatUnsafeDownloadsAsActiveDescriptionE = hidden local_unnamed_addr constant [194 x i8] c"Disallows downloads of unsafe files (files that can potentially execute code), where the final download origin or any origin in the redirect chain is insecure if the originating page is secure.\00", align 16
@_ZN17flag_descriptions16kTrustTokensNameE = hidden local_unnamed_addr constant [20 x i8] c"Enable Trust Tokens\00", align 16
@_ZN17flag_descriptions23kTrustTokensDescriptionE = hidden local_unnamed_addr constant [81 x i8] c"Enables the prototype Trust Token API (https://github.com/wicg/trust-token-api).\00", align 16
@_ZN17flag_descriptions42kTurnOffStreamingMediaCachingOnBatteryNameE = hidden local_unnamed_addr constant [68 x i8] c"Turn off caching of streaming media to disk while on battery power.\00", align 16
@_ZN17flag_descriptions49kTurnOffStreamingMediaCachingOnBatteryDescriptionE = hidden local_unnamed_addr constant [80 x i8] c"Reduces disk activity during media playback, which can result in power savings.\00", align 16
@_ZN17flag_descriptions39kTurnOffStreamingMediaCachingAlwaysNameE = hidden local_unnamed_addr constant [45 x i8] c"Turn off caching of streaming media to disk.\00", align 16
@_ZN17flag_descriptions46kTurnOffStreamingMediaCachingAlwaysDescriptionE = hidden local_unnamed_addr constant [80 x i8] c"Reduces disk activity during media playback, which can result in power savings.\00", align 16
@_ZN17flag_descriptions17kUnsafeWebGPUNameE = hidden local_unnamed_addr constant [14 x i8] c"Unsafe WebGPU\00", align 1
@_ZN17flag_descriptions24kUnsafeWebGPUDescriptionE = hidden local_unnamed_addr constant [169 x i8] c"Enables access to the experimental WebGPU API. Warning: As GPU sandboxing isn't implemented yet for the WebGPU API, it is possible to read GPU data for other processes.\00", align 16
@_ZN17flag_descriptions24kUnsafeWebGPUServiceNameE = hidden local_unnamed_addr constant [22 x i8] c"Unsafe WebGPU Service\00", align 16
@_ZN17flag_descriptions31kUnsafeWebGPUServiceDescriptionE = hidden local_unnamed_addr constant [168 x i8] c"Enables access to the experimental WebGPU API on service side but not blink side.This is used to test origin trial code integrations before WebGPU is enabled globally.\00", align 16
@_ZN17flag_descriptions22kUnsafeFastJSCallsNameE = hidden local_unnamed_addr constant [21 x i8] c"Unsafe fast JS calls\00", align 16
@_ZN17flag_descriptions29kUnsafeFastJSCallsDescriptionE = hidden local_unnamed_addr constant [153 x i8] c"Enables experimental fast API between Blink and V8.Warning: type checking, few POD types and array types are not supported yet, so crashes are possible.\00", align 16
@_ZN17flag_descriptions18kUiPartialSwapNameE = hidden local_unnamed_addr constant [13 x i8] c"Partial swap\00", align 1
@_ZN17flag_descriptions25kUiPartialSwapDescriptionE = hidden local_unnamed_addr constant [28 x i8] c"Sets partial swap behavior.\00", align 16
@_ZN17flag_descriptions21kUseFirstPartySetNameE = hidden local_unnamed_addr constant [16 x i8] c"First-Party Set\00", align 16
@_ZN17flag_descriptions28kUseFirstPartySetDescriptionE = hidden local_unnamed_addr constant [108 x i8] c"Use the provided list of origins as a First-Party Set, with the first valid origin as the owner of the set.\00", align 16
@_ZN17flag_descriptions32kUseOfHashAffiliationFetcherNameE = hidden local_unnamed_addr constant [32 x i8] c"Use of Hash Affiliation Fetcher\00", align 16
@_ZN17flag_descriptions39kUseOfHashAffiliationFetcherDescriptionE = hidden local_unnamed_addr constant [143 x i8] c"All requests to the affiliation fetcher are made through the hash prefix lookup. Enables use of Hash Affiliation Service for non-synced users.\00", align 16
@_ZN17flag_descriptions22kUsernameFirstFlowNameE = hidden local_unnamed_addr constant [20 x i8] c"Username first flow\00", align 16
@_ZN17flag_descriptions29kUsernameFirstFlowDescriptionE = hidden local_unnamed_addr constant [165 x i8] c"Support of username saving and filling on username first flow i.e. login flows where a user has to type username first on one page and then password on another page\00", align 16
@_ZN17flag_descriptions32kUseSearchClickForRightClickNameE = hidden local_unnamed_addr constant [33 x i8] c"Use Search+Click for right click\00", align 16
@_ZN17flag_descriptions39kUseSearchClickForRightClickDescriptionE = hidden local_unnamed_addr constant [203 x i8] c"When enabled search+click will be remapped to right click, allowing webpages and apps to consume alt+click. When disabled the legacy behavior of remapping alt+click to right click will remain unchanged.\00", align 16
@_ZN17flag_descriptions15kV8VmFutureNameE = hidden local_unnamed_addr constant [22 x i8] c"Future V8 VM features\00", align 16
@_ZN17flag_descriptions22kV8VmFutureDescriptionE = hidden local_unnamed_addr constant [115 x i8] c"This enables upcoming and experimental V8 VM features. This flag does not enable experimental JavaScript features.\00", align 16
@_ZN17flag_descriptions28kWalletServiceUseSandboxNameE = hidden local_unnamed_addr constant [36 x i8] c"Use Google Payments sandbox servers\00", align 16
@_ZN17flag_descriptions35kWalletServiceUseSandboxDescriptionE = hidden local_unnamed_addr constant [71 x i8] c"For developers: use the sandbox service for Google Payments API calls.\00", align 16
@_ZN17flag_descriptions19kWallpaperWebUINameE = hidden local_unnamed_addr constant [32 x i8] c"Enable new wallpaper experience\00", align 16
@_ZN17flag_descriptions26kWallpaperWebUIDescriptionE = hidden local_unnamed_addr constant [50 x i8] c"Enables the wallpaper picker in ChromeOS Settings\00", align 16
@_ZN17flag_descriptions38kWebBluetoothNewPermissionsBackendNameE = hidden local_unnamed_addr constant [50 x i8] c"Use the new permissions backend for Web Bluetooth\00", align 16
@_ZN17flag_descriptions45kWebBluetoothNewPermissionsBackendDescriptionE = hidden local_unnamed_addr constant [114 x i8] c"Enables the new permissions backend for Web Bluetooth. This will enable persistent storage of device permissions.\00", align 16
@_ZN17flag_descriptions15kWebBundlesNameE = hidden local_unnamed_addr constant [12 x i8] c"Web Bundles\00", align 1
@_ZN17flag_descriptions22kWebBundlesDescriptionE = hidden local_unnamed_addr constant [83 x i8] c"Enables experimental supports for Web Bundles (Bundled HTTP Exchanges) navigation.\00", align 16
@_ZN17flag_descriptions10kWebIdNameE = hidden local_unnamed_addr constant [6 x i8] c"WebID\00", align 1
@_ZN17flag_descriptions17kWebIdDescriptionE = hidden local_unnamed_addr constant [93 x i8] c"Enables WebID HTTP filtering and JavaScript API to intermediate federated identity requests.\00", align 16
@_ZN17flag_descriptions18kWebOtpBackendNameE = hidden local_unnamed_addr constant [8 x i8] c"Web OTP\00", align 1
@_ZN17flag_descriptions25kWebOtpBackendDescriptionE = hidden local_unnamed_addr constant [53 x i8] c"Enables Web OTP API that uses the specified backend.\00", align 16
@_ZN17flag_descriptions29kWebOtpBackendSmsVerificationE = hidden local_unnamed_addr constant [17 x i8] c"Code Browser API\00", align 16
@_ZN17flag_descriptions25kWebOtpBackendUserConsentE = hidden local_unnamed_addr constant [17 x i8] c"User Consent API\00", align 16
@_ZN17flag_descriptions18kWebOtpBackendAutoE = hidden local_unnamed_addr constant [33 x i8] c"Automatically select the backend\00", align 16
@_ZN17flag_descriptions25kWebglDraftExtensionsNameE = hidden local_unnamed_addr constant [23 x i8] c"WebGL Draft Extensions\00", align 16
@_ZN17flag_descriptions32kWebglDraftExtensionsDescriptionE = hidden local_unnamed_addr constant [108 x i8] c"Enabling this option allows web applications to access the WebGL Extensions that are still in draft status.\00", align 16
@_ZN17flag_descriptions36kWebPaymentsExperimentalFeaturesNameE = hidden local_unnamed_addr constant [39 x i8] c"Experimental Web Payments API features\00", align 16
@_ZN17flag_descriptions43kWebPaymentsExperimentalFeaturesDescriptionE = hidden local_unnamed_addr constant [46 x i8] c"Enable experimental Web Payments API features\00", align 16
@_ZN17flag_descriptions25kWebPaymentsMinimalUINameE = hidden local_unnamed_addr constant [24 x i8] c"Web Payments Minimal UI\00", align 16
@_ZN17flag_descriptions32kWebPaymentsMinimalUIDescriptionE = hidden local_unnamed_addr constant [99 x i8] c"Allow Payment Request API to open a minimal UI to replace the Payment Request UI when appropriate.\00", align 16
@_ZN17flag_descriptions25kAppStoreBillingDebugNameE = hidden local_unnamed_addr constant [42 x i8] c"Web Payments App Store Billing Debug Mode\00", align 16
@_ZN17flag_descriptions32kAppStoreBillingDebugDescriptionE = hidden local_unnamed_addr constant [194 x i8] c"App-store purchases (e.g., Google Play Store) within a TWA can be requested using the Payment Request API. This flag removes the restriction that the TWA has to be installed from the app-store.\00", align 16
@_ZN17flag_descriptions33kWebrtcCaptureMultiChannelApmNameE = hidden local_unnamed_addr constant [47 x i8] c"WebRTC multi-channel capture audio processing.\00", align 16
@_ZN17flag_descriptions40kWebrtcCaptureMultiChannelApmDescriptionE = hidden local_unnamed_addr constant [123 x i8] c"Support in WebRTC for processing capture audio in multi channel without downmixing when running APM in the render process.\00", align 16
@_ZN17flag_descriptions31kWebrtcHideLocalIpsWithMdnsNameE = hidden local_unnamed_addr constant [39 x i8] c"Anonymize local IPs exposed by WebRTC.\00", align 16
@_ZN17flag_descriptions37kWebrtcHideLocalIpsWithMdnsDecriptionE = hidden local_unnamed_addr constant [48 x i8] c"Conceal local IP addresses with mDNS hostnames.\00", align 16
@_ZN17flag_descriptions20kWebrtcHybridAgcNameE = hidden local_unnamed_addr constant [25 x i8] c"WebRTC hybrid Agc2/Agc1.\00", align 16
@_ZN17flag_descriptions27kWebrtcHybridAgcDescriptionE = hidden local_unnamed_addr constant [60 x i8] c"WebRTC Agc2 digital adaptation with Agc1 analog adaptation.\00", align 16
@_ZN17flag_descriptions21kWebrtcHwDecodingNameE = hidden local_unnamed_addr constant [31 x i8] c"WebRTC hardware video decoding\00", align 16
@_ZN17flag_descriptions28kWebrtcHwDecodingDescriptionE = hidden local_unnamed_addr constant [70 x i8] c"Support in WebRTC for decoding video streams using platform hardware.\00", align 16
@_ZN17flag_descriptions21kWebrtcHwEncodingNameE = hidden local_unnamed_addr constant [31 x i8] c"WebRTC hardware video encoding\00", align 16
@_ZN17flag_descriptions28kWebrtcHwEncodingDescriptionE = hidden local_unnamed_addr constant [70 x i8] c"Support in WebRTC for encoding video streams using platform hardware.\00", align 16
@_ZN17flag_descriptions25kWebRtcRemoteEventLogNameE = hidden local_unnamed_addr constant [34 x i8] c"WebRTC remote-bound event logging\00", align 16
@_ZN17flag_descriptions32kWebRtcRemoteEventLogDescriptionE = hidden local_unnamed_addr constant [169 x i8] c"Allow collecting WebRTC event logs and uploading them to Crash. Please note that, even if enabled, this will still require a policy to be set, for it to have an effect.\00", align 16
@_ZN17flag_descriptions21kWebrtcSrtpAesGcmNameE = hidden local_unnamed_addr constant [54 x i8] c"Negotiation with GCM cipher suites for SRTP in WebRTC\00", align 16
@_ZN17flag_descriptions28kWebrtcSrtpAesGcmDescriptionE = hidden local_unnamed_addr constant [71 x i8] c"When enabled, WebRTC will try to negotiate GCM cipher suites for SRTP.\00", align 16
@_ZN17flag_descriptions21kWebrtcStunOriginNameE = hidden local_unnamed_addr constant [26 x i8] c"WebRTC Stun origin header\00", align 16
@_ZN17flag_descriptions28kWebrtcStunOriginDescriptionE = hidden local_unnamed_addr constant [80 x i8] c"When enabled, Stun messages generated by WebRTC will contain the Origin header.\00", align 16
@_ZN17flag_descriptions33kWebrtcUseMinMaxVEADimensionsNameE = hidden local_unnamed_addr constant [51 x i8] c"WebRTC Min/Max Video Encode Accelerator dimensions\00", align 16
@_ZN17flag_descriptions40kWebrtcUseMinMaxVEADimensionsDescriptionE = hidden local_unnamed_addr constant [123 x i8] c"When enabled, WebRTC will only use the Video Encode Accelerator for video resolutions inside those published as supported.\00", align 16
@_ZN17flag_descriptions22kWebXrForceRuntimeNameE = hidden local_unnamed_addr constant [20 x i8] c"Force WebXr Runtime\00", align 16
@_ZN17flag_descriptions29kWebXrForceRuntimeDescriptionE = hidden local_unnamed_addr constant [154 x i8] c"Force the browser to use a particular runtime, even if it would not usually be enabled or would otherwise not be selected based on the attached hardware.\00", align 16
@_ZN17flag_descriptions23kWebXrRuntimeChoiceNoneE = hidden local_unnamed_addr constant [11 x i8] c"No Runtime\00", align 1
@_ZN17flag_descriptions25kWebXrRuntimeChoiceOpenXRE = hidden local_unnamed_addr constant [7 x i8] c"OpenXR\00", align 1
@_ZN17flag_descriptions21kWebXrIncubationsNameE = hidden local_unnamed_addr constant [18 x i8] c"WebXR Incubations\00", align 16
@_ZN17flag_descriptions28kWebXrIncubationsDescriptionE = hidden local_unnamed_addr constant [41 x i8] c"Enables experimental features for WebXR.\00", align 16
@_ZN17flag_descriptions17kWindowNamingNameE = hidden local_unnamed_addr constant [14 x i8] c"Window Naming\00", align 1
@_ZN17flag_descriptions24kWindowNamingDescriptionE = hidden local_unnamed_addr constant [41 x i8] c"Whether the window naming UI is enabled.\00", align 16
@_ZN17flag_descriptions13kZeroCopyNameE = hidden local_unnamed_addr constant [21 x i8] c"Zero-copy rasterizer\00", align 16
@_ZN17flag_descriptions20kZeroCopyDescriptionE = hidden local_unnamed_addr constant [67 x i8] c"Raster threads write directly to GPU memory associated with tiles.\00", align 16
@_ZN17flag_descriptions17kEnableVulkanNameE = hidden local_unnamed_addr constant [7 x i8] c"Vulkan\00", align 1
@_ZN17flag_descriptions24kEnableVulkanDescriptionE = hidden local_unnamed_addr constant [36 x i8] c"Use vulkan as the graphics backend.\00", align 16
@_ZN17flag_descriptions35kSharedHighlightingUseBlocklistNameE = hidden local_unnamed_addr constant [30 x i8] c"Shared Highlighting blocklist\00", align 16
@_ZN17flag_descriptions42kSharedHighlightingUseBlocklistDescriptionE = hidden local_unnamed_addr constant [227 x i8] c"Uses a blocklist to disable Shared Highlighting link generation on certain sites where personalized or dynamic content or other technical restrictions make it unlikely that a URL can be generated and actually work when shared.\00", align 16
@_ZN17flag_descriptions25kSharedHighlightingV2NameE = hidden local_unnamed_addr constant [24 x i8] c"Shared Highlighting 2.0\00", align 16
@_ZN17flag_descriptions32kSharedHighlightingV2DescriptionE = hidden local_unnamed_addr constant [89 x i8] c"Improvements to Shared Highlighting. Including ability to reshare or remove a highlight.\00", align 16
@_ZN17flag_descriptions35kPreemptiveLinkToTextGenerationNameE = hidden local_unnamed_addr constant [38 x i8] c"Preemptive generation of link to text\00", align 16
@_ZN17flag_descriptions42kPreemptiveLinkToTextGenerationDescriptionE = hidden local_unnamed_addr constant [49 x i8] c"Enables link to text to be generated in advance.\00", align 16
@_ZN17flag_descriptions24kDraw1PredictedPoint12MsE = hidden local_unnamed_addr constant [20 x i8] c"1 point 12ms ahead.\00", align 16
@_ZN17flag_descriptions24kDraw2PredictedPoints6MsE = hidden local_unnamed_addr constant [26 x i8] c"2 points, each 6ms ahead.\00", align 16
@_ZN17flag_descriptions23kDraw1PredictedPoint6MsE = hidden local_unnamed_addr constant [19 x i8] c"1 point 6ms ahead.\00", align 16
@_ZN17flag_descriptions24kDraw2PredictedPoints3MsE = hidden local_unnamed_addr constant [26 x i8] c"2 points, each 3ms ahead.\00", align 16
@_ZN17flag_descriptions27kDrawPredictedPointsDefaultE = hidden local_unnamed_addr constant [9 x i8] c"Disabled\00", align 1
@_ZN17flag_descriptions31kDrawPredictedPointsDescriptionE = hidden local_unnamed_addr constant [122 x i8] c"Draw predicted points when using the delegated ink trails API. Requires experimental web platform features to be enabled.\00", align 16
@_ZN17flag_descriptions24kDrawPredictedPointsNameE = hidden local_unnamed_addr constant [36 x i8] c"Draw predicted delegated ink points\00", align 16
@_ZN17flag_descriptions17kSanitizerApiNameE = hidden local_unnamed_addr constant [14 x i8] c"Sanitizer API\00", align 1
@_ZN17flag_descriptions24kSanitizerApiDescriptionE = hidden local_unnamed_addr constant [69 x i8] c"Enable the Sanitizer API. See: https://github.com/WICG/sanitizer-api\00", align 16
@_ZN17flag_descriptions37kAllowAllSitesToInitiateMirroringNameE = hidden local_unnamed_addr constant [38 x i8] c"Allow all sites to initiate mirroring\00", align 16
@_ZN17flag_descriptions44kAllowAllSitesToInitiateMirroringDescriptionE = hidden local_unnamed_addr constant [148 x i8] c"When enabled, allows all websites to request to initiate tab mirroring via Presentation API. Requires #cast-media-route-provider to also be enabled\00", align 16
@_ZN17flag_descriptions32kAppManagementIntentSettingsNameE = hidden local_unnamed_addr constant [31 x i8] c"App Management intent settings\00", align 16
@_ZN17flag_descriptions39kAppManagementIntentSettingsDescriptionE = hidden local_unnamed_addr constant [83 x i8] c"Enables and displays the intent settings link handling setting for App Management.\00", align 16
@_ZN17flag_descriptions35kEnableAccessibilityLiveCaptionNameE = hidden local_unnamed_addr constant [13 x i8] c"Live Caption\00", align 1
@_ZN17flag_descriptions42kEnableAccessibilityLiveCaptionDescriptionE = hidden local_unnamed_addr constant [143 x i8] c"Enables the live caption feature which generates captions for media playing in Chrome. Turn the feature on in chrome://settings/accessibility.\00", align 16
@_ZN17flag_descriptions39kEnableAccessibilityLiveCaptionSodaNameE = hidden local_unnamed_addr constant [22 x i8] c"SODA for Live Caption\00", align 16
@_ZN17flag_descriptions46kEnableAccessibilityLiveCaptionSodaDescriptionE = hidden local_unnamed_addr constant [206 x i8] c"If Live Caption (chrome://flags/#enable-accessibility-live-captions) is enabled, whether or not to use SODA for live captions instead of the web api. Turn on the feature in chrome://settings/accessibility.\00", align 16
@_ZN17flag_descriptions27kCastMediaRouteProviderNameE = hidden local_unnamed_addr constant [26 x i8] c"Cast Media Route Provider\00", align 16
@_ZN17flag_descriptions34kCastMediaRouteProviderDescriptionE = hidden local_unnamed_addr constant [142 x i8] c"Enables the native Cast Media Route Provider implementation to be used instead of the implementation in the Media Router component extension.\00", align 16
@_ZN17flag_descriptions19kCopyLinkToTextNameE = hidden local_unnamed_addr constant [18 x i8] c"Copy Link To Text\00", align 16
@_ZN17flag_descriptions26kCopyLinkToTextDescriptionE = hidden local_unnamed_addr constant [112 x i8] c"Adds an item to the context menu to allow a user to copy a link to the page with the selected text highlighted.\00", align 16
@_ZN17flag_descriptions39kEnterpriseRealtimeExtensionRequestNameE = hidden local_unnamed_addr constant [46 x i8] c"Enterprise real-time extension request report\00", align 16
@_ZN17flag_descriptions46kEnterpriseRealtimeExtensionRequestDescriptionE = hidden local_unnamed_addr constant [133 x i8] c"Enable the real-time extension request uploading. The feature requires the enterprise reporting and extension request being enabled.\00", align 16
@_ZN17flag_descriptions37kGlobalMediaControlsCastStartStopNameE = hidden local_unnamed_addr constant [46 x i8] c"Global media controls control Cast start/stop\00", align 16
@_ZN17flag_descriptions44kGlobalMediaControlsCastStartStopDescriptionE = hidden local_unnamed_addr constant [121 x i8] c"Allows global media controls to control when a Cast session is started or stopped instead of relying on the Cast dialog.\00", align 16
@_ZN17flag_descriptions25kNtpCacheOneGoogleBarNameE = hidden local_unnamed_addr constant [19 x i8] c"Cache OneGoogleBar\00", align 16
@_ZN17flag_descriptions32kNtpCacheOneGoogleBarDescriptionE = hidden local_unnamed_addr constant [89 x i8] c"Enables using the OneGoogleBar cached response in chrome://new-tab-page, when available.\00", align 16
@_ZN17flag_descriptions25kNtpRepeatableQueriesNameE = hidden local_unnamed_addr constant [39 x i8] c"Repeatable queries on the New Tab Page\00", align 16
@_ZN17flag_descriptions32kNtpRepeatableQueriesDescriptionE = hidden local_unnamed_addr constant [80 x i8] c"Enables surfacing repeatable queries as most visited tiles on the New Tab Page.\00", align 16
@_ZN17flag_descriptions15kNtpModulesNameE = hidden local_unnamed_addr constant [12 x i8] c"NTP Modules\00", align 1
@_ZN17flag_descriptions22kNtpModulesDescriptionE = hidden local_unnamed_addr constant [35 x i8] c"Shows modules on the New Tab Page.\00", align 16
@_ZN17flag_descriptions19kNtpDriveModuleNameE = hidden local_unnamed_addr constant [17 x i8] c"NTP Drive Module\00", align 16
@_ZN17flag_descriptions26kNtpDriveModuleDescriptionE = hidden local_unnamed_addr constant [50 x i8] c"Shows the Google Drive module on the New Tab Page\00", align 16
@_ZN17flag_descriptions25kNtpRecipeTasksModuleNameE = hidden local_unnamed_addr constant [24 x i8] c"NTP Recipe Tasks Module\00", align 16
@_ZN17flag_descriptions32kNtpRecipeTasksModuleDescriptionE = hidden local_unnamed_addr constant [51 x i8] c"Shows the recipe tasks module on the New Tab Page.\00", align 16
@_ZN17flag_descriptions27kNtpShoppingTasksModuleNameE = hidden local_unnamed_addr constant [26 x i8] c"NTP Shopping Tasks Module\00", align 16
@_ZN17flag_descriptions34kNtpShoppingTasksModuleDescriptionE = hidden local_unnamed_addr constant [53 x i8] c"Shows the shopping tasks module on the New Tab Page.\00", align 16
@_ZN17flag_descriptions24kNtpChromeCartModuleNameE = hidden local_unnamed_addr constant [23 x i8] c"NTP Chrome Cart Module\00", align 16
@_ZN17flag_descriptions31kNtpChromeCartModuleDescriptionE = hidden local_unnamed_addr constant [50 x i8] c"Shows the chrome cart module on the New Tab Page.\00", align 16
@_ZN17flag_descriptions21kEnableReaderModeNameE = hidden local_unnamed_addr constant [19 x i8] c"Enable Reader Mode\00", align 16
@_ZN17flag_descriptions28kEnableReaderModeDescriptionE = hidden local_unnamed_addr constant [98 x i8] c"Allows viewing of simplified web pages by selecting 'Customize and control Chrome'>'Distill page'\00", align 16
@_ZN17flag_descriptions43kHappinessTrackingSurveysForDesktopDemoNameE = hidden local_unnamed_addr constant [32 x i8] c"Happiness Tracking Surveys Demo\00", align 16
@_ZN17flag_descriptions50kHappinessTrackingSurveysForDesktopDemoDescriptionE = hidden local_unnamed_addr constant [67 x i8] c"Enable showing Happiness Tracking Surveys Demo to users on Desktop\00", align 16
@_ZN17flag_descriptions53kHappinessTrackingSurveysForDesktopPrivacySandboxNameE = hidden local_unnamed_addr constant [51 x i8] c"Happiness Tracking Surveys for the Privacy Sandbox\00", align 16
@_ZN17flag_descriptions60kHappinessTrackingSurveysForDesktopPrivacySandboxDescriptionE = hidden local_unnamed_addr constant [86 x i8] c"Enable showing Happiness Tracking Surveys for the Privacy Sandbox to users on Desktop\00", align 16
@_ZN17flag_descriptions47kHappinessTrackingSurveysForDesktopSettingsNameE = hidden local_unnamed_addr constant [40 x i8] c"Happiness Tracking Surveys for Settings\00", align 16
@_ZN17flag_descriptions54kHappinessTrackingSurveysForDesktopSettingsDescriptionE = hidden local_unnamed_addr constant [75 x i8] c"Enable showing Happiness Tracking Surveys for Settings to users on Desktop\00", align 16
@_ZN17flag_descriptions54kHappinessTrackingSurveysForDesktopSettingsPrivacyNameE = hidden local_unnamed_addr constant [48 x i8] c"Happiness Tracking Surveys for Privacy Settings\00", align 16
@_ZN17flag_descriptions61kHappinessTrackingSurveysForDesktopSettingsPrivacyDescriptionE = hidden local_unnamed_addr constant [83 x i8] c"Enable showing Happiness Tracking Surveys for Privacy Settings to users on Desktop\00", align 16
@_ZN17flag_descriptions18kKernelnextVMsNameE = hidden local_unnamed_addr constant [36 x i8] c"Enable VMs on experimental kernels.\00", align 16
@_ZN17flag_descriptions25kKernelnextVMsDescriptionE = hidden local_unnamed_addr constant [68 x i8] c"Enables VM support on devices running experimental kernel versions.\00", align 16
@_ZN17flag_descriptions28kOmniboxDriveSuggestionsNameE = hidden local_unnamed_addr constant [42 x i8] c"Omnibox Google Drive Document suggestions\00", align 16
@_ZN17flag_descriptions36kOmniboxDriveSuggestionsDescriptionsE = hidden local_unnamed_addr constant [104 x i8] c"Display suggestions for Google Drive documents in the omnibox when Google is the default search engine.\00", align 16
@_ZN17flag_descriptions35kOmniboxExperimentalKeywordModeNameE = hidden local_unnamed_addr constant [34 x i8] c"Omnibox Experimental Keyword Mode\00", align 16
@_ZN17flag_descriptions42kOmniboxExperimentalKeywordModeDescriptionE = hidden local_unnamed_addr constant [91 x i8] c"Enables various experimental features related to keyword mode, its suggestions and layout.\00", align 16
@_ZN17flag_descriptions24kOmniboxPedalsBatch2NameE = hidden local_unnamed_addr constant [23 x i8] c"Omnibox Pedals batch 2\00", align 16
@_ZN17flag_descriptions31kOmniboxPedalsBatch2DescriptionE = hidden local_unnamed_addr constant [64 x i8] c"Enable the second batch of Omnibox Pedals (Safety Check, etc.).\00", align 16
@_ZN17flag_descriptions34kOmniboxPedalsBatch2NonEnglishNameE = hidden local_unnamed_addr constant [47 x i8] c"Omnibox Pedals batch 2 for non-English locales\00", align 16
@_ZN17flag_descriptions41kOmniboxPedalsBatch2NonEnglishDescriptionE = hidden local_unnamed_addr constant [177 x i8] c"Enable the second batch of Omnibox Pedals (Safety Check, etc.) for locales other than 'en' and 'en-GB'. This flag has no effect unless \22Omnibox Pedals batch 2\22 is also enabled.\00", align 16
@_ZN17flag_descriptions36kOmniboxPedalsDefaultIconColoredNameE = hidden local_unnamed_addr constant [36 x i8] c"Omnibox Pedals Default Icon Colored\00", align 16
@_ZN17flag_descriptions43kOmniboxPedalsDefaultIconColoredDescriptionE = hidden local_unnamed_addr constant [109 x i8] c"Enable a color version of the default icon shown on the button for most omnibox Pedals (aka Chrome Actions).\00", align 16
@_ZN17flag_descriptions31kOmniboxKeywordSearchButtonNameE = hidden local_unnamed_addr constant [30 x i8] c"Omnibox keyword search button\00", align 16
@_ZN17flag_descriptions38kOmniboxKeywordSearchButtonDescriptionE = hidden local_unnamed_addr constant [106 x i8] c"Enable the omnibox keyword search button which offers a way to search on specific sites from the omnibox.\00", align 16
@_ZN17flag_descriptions29kOmniboxRefinedFocusStateNameE = hidden local_unnamed_addr constant [31 x i8] c"Omnibox refined focus state UI\00", align 16
@_ZN17flag_descriptions36kOmniboxRefinedFocusStateDescriptionE = hidden local_unnamed_addr constant [65 x i8] c"Enables new changes to the UI indicating focus and hover states.\00", align 16
@_ZN17flag_descriptions36kOmniboxShortBookmarkSuggestionsNameE = hidden local_unnamed_addr constant [35 x i8] c"Omnibox short bookmark suggestions\00", align 16
@_ZN17flag_descriptions43kOmniboxShortBookmarkSuggestionsDescriptionE = hidden local_unnamed_addr constant [76 x i8] c"Match very short input words to beginning of words in bookmark suggestions.\00", align 16
@_ZN17flag_descriptions16kReadLaterFlagIdE = hidden local_unnamed_addr constant [11 x i8] c"read-later\00", align 1
@_ZN17flag_descriptions14kReadLaterNameE = hidden local_unnamed_addr constant [13 x i8] c"Reading List\00", align 1
@_ZN17flag_descriptions21kReadLaterDescriptionE = hidden local_unnamed_addr constant [82 x i8] c"Click on the Bookmark icon or right click on a tab to add tabs to a reading list.\00", align 16
@_ZN17flag_descriptions16kSCTAuditingNameE = hidden local_unnamed_addr constant [13 x i8] c"SCT auditing\00", align 1
@_ZN17flag_descriptions23kSCTAuditingDescriptionE = hidden local_unnamed_addr constant [86 x i8] c"Enables SCT auditing for users who have opted in to Safe Browsing Extended Reporting.\00", align 16
@_ZN17flag_descriptions32kShutdownSupportForKeepaliveNameE = hidden local_unnamed_addr constant [40 x i8] c"Shutdown support for keepalive requests\00", align 16
@_ZN17flag_descriptions39kShutdownSupportForKeepaliveDescriptionE = hidden local_unnamed_addr constant [154 x i8] c"When enabled, keepalive requests (https://fetch.spec.whatwg.org/#request-keepalive-flag) blocks the browser shutdown sequence for a short period of time.\00", align 16
@_ZN17flag_descriptions14kTabFreezeNameE = hidden local_unnamed_addr constant [11 x i8] c"Tab Freeze\00", align 1
@_ZN17flag_descriptions21kTabFreezeDescriptionE = hidden local_unnamed_addr constant [79 x i8] c"Enables freezing eligible tabs when they have been backgrounded for 5 minutes.\00", align 16
@_ZN17flag_descriptions31kDesktopInProductHelpSnoozeNameE = hidden local_unnamed_addr constant [49 x i8] c"Allow snooze on supported in-product help promos\00", align 16
@_ZN17flag_descriptions38kDesktopInProductHelpSnoozeDescriptionE = hidden local_unnamed_addr constant [145 x i8] c"Snoozing an in-product help promo closes it and schedules it to be shown later. When enabled, this functionality is allowed on supported promos.\00", align 16
@_ZN17flag_descriptions19kDownloadShelfWebUIE = hidden local_unnamed_addr constant [21 x i8] c"Download Shelf WebUI\00", align 16
@_ZN17flag_descriptions30kDownloadShelfWebUIDescriptionE = hidden local_unnamed_addr constant [63 x i8] c"Replaces the Views download shelf with a WebUI download shelf.\00", align 16
@_ZN17flag_descriptions36kEnableMDRoundedCornersOnDialogsNameE = hidden local_unnamed_addr constant [27 x i8] c"MD corners on secondary UI\00", align 16
@_ZN17flag_descriptions43kEnableMDRoundedCornersOnDialogsDescriptionE = hidden local_unnamed_addr constant [41 x i8] c"Increases corner radius on secondary UI.\00", align 16
@_ZN17flag_descriptions23kInstallableInkDropNameE = hidden local_unnamed_addr constant [39 x i8] c"Use InstallableInkDrop where supported\00", align 16
@_ZN17flag_descriptions30kInstallableInkDropDescriptionE = hidden local_unnamed_addr constant [116 x i8] c"InstallableInkDrop is part of an InkDrop refactoring effort. This enables the pilot implementation where available.\00", align 16
@_ZN17flag_descriptions26kEnableOopPrintDriversNameE = hidden local_unnamed_addr constant [39 x i8] c"Enables Out-of-Process Printer Drivers\00", align 16
@_ZN17flag_descriptions33kEnableOopPrintDriversDescriptionE = hidden local_unnamed_addr constant [88 x i8] c"Enables printing interactions with the operating system to be performed out-of-process.\00", align 16
@_ZN17flag_descriptions29kDirectManipulationStylusNameE = hidden local_unnamed_addr constant [27 x i8] c"Direct Manipulation Stylus\00", align 16
@_ZN17flag_descriptions36kDirectManipulationStylusDescriptionE = hidden local_unnamed_addr constant [57 x i8] c"If enabled, Chrome will scroll web pages on stylus drag.\00", align 16
@_ZN17flag_descriptions18kWebuiFeedbackNameE = hidden local_unnamed_addr constant [15 x i8] c"WebUI Feedback\00", align 1
@_ZN17flag_descriptions25kWebuiFeedbackDescriptionE = hidden local_unnamed_addr constant [125 x i8] c"If enabled, Chrome will show the Feedback WebUI, as opposed to Chrome App Feedback UI, when clicking on \22Report an issue...\22\00", align 16
@_ZN17flag_descriptions32kSettingsLandingPageRedesignNameE = hidden local_unnamed_addr constant [31 x i8] c"Settings Landing Page Redesign\00", align 16
@_ZN17flag_descriptions39kSettingsLandingPageRedesignDescriptionE = hidden local_unnamed_addr constant [85 x i8] c"Changes the layout of the chrome://settings page to only show one section at a time.\00", align 16
@_ZN17flag_descriptions14kCommanderNameE = hidden local_unnamed_addr constant [10 x i8] c"Commander\00", align 1
@_ZN17flag_descriptions21kCommanderDescriptionE = hidden local_unnamed_addr constant [69 x i8] c"Enable a text interface to browser features. Invoke with Ctrl-Space.\00", align 16
@_ZN17flag_descriptions40kDesktopRestructuredLanguageSettingsNameE = hidden local_unnamed_addr constant [41 x i8] c"Restructured Language Settings (Desktop)\00", align 16
@_ZN17flag_descriptions47kDesktopRestructuredLanguageSettingsDescriptionE = hidden local_unnamed_addr constant [51 x i8] c"Enable the new restructured language settings page\00", align 16
@_ZN17flag_descriptions36kDesktopDetailedLanguageSettingsNameE = hidden local_unnamed_addr constant [37 x i8] c"Detailed Language Settings (Desktop)\00", align 16
@_ZN17flag_descriptions43kDesktopDetailedLanguageSettingsDescriptionE = hidden local_unnamed_addr constant [47 x i8] c"Enable the new detailed language settings page\00", align 16
@_ZN17flag_descriptions21kUserDataSnapshotNameE = hidden local_unnamed_addr constant [27 x i8] c"Enable user data snapshots\00", align 16
@_ZN17flag_descriptions28kUserDataSnapshotDescriptionE = hidden local_unnamed_addr constant [119 x i8] c"Enables taking snapshots of the user data directory after a Chrome update and restoring them after a version rollback.\00", align 16
@_ZN17flag_descriptions42kEnableEphemeralGuestProfilesOnDesktopNameE = hidden local_unnamed_addr constant [43 x i8] c"Enable ephemeral Guest profiles on Desktop\00", align 16
@_ZN17flag_descriptions49kEnableEphemeralGuestProfilesOnDesktopDescriptionE = hidden local_unnamed_addr constant [61 x i8] c"Enables ephemeral Guest profiles on Windows, Linux, and Mac.\00", align 16
@_ZN17flag_descriptions21kUseOzonePlatformNameE = hidden local_unnamed_addr constant [11 x i8] c"Use ozone.\00", align 1
@_ZN17flag_descriptions28kUseOzonePlatformDescriptionE = hidden local_unnamed_addr constant [50 x i8] c"Use the Ozone/X11 platform implementation on X11.\00", align 16
@_ZN17flag_descriptions14kEnableJXLNameE = hidden local_unnamed_addr constant [24 x i8] c"Enable JXL image format\00", align 16
@_ZN17flag_descriptions21kEnableJXLDescriptionE = hidden local_unnamed_addr constant [58 x i8] c"Adds image decoding support for the JPEG XL image format.\00", align 16
@_ZN17flag_descriptions30kDiceWebSigninInterceptionNameE = hidden local_unnamed_addr constant [29 x i8] c"Dice Web-Signin Interception\00", align 16
@_ZN17flag_descriptions37kDiceWebSigninInterceptionDescriptionE = hidden local_unnamed_addr constant [73 x i8] c"If enabled, Chrome may promote profile creation after signin on the web.\00", align 16
@_ZN17flag_descriptions9kNaclNameE = hidden local_unnamed_addr constant [14 x i8] c"Native Client\00", align 1
@_ZN17flag_descriptions16kNaclDescriptionE = hidden local_unnamed_addr constant [110 x i8] c"Support Native Client for all web applications, even those that were not installed from the Chrome Web Store.\00", align 16
@_ZN17flag_descriptions32kPdfViewerDocumentPropertiesNameE = hidden local_unnamed_addr constant [31 x i8] c"PDF Viewer Document Properties\00", align 16
@_ZN17flag_descriptions39kPdfViewerDocumentPropertiesDescriptionE = hidden local_unnamed_addr constant [132 x i8] c"When enabled, the PDF viewer will include an option in the toolbar's overflow menu to open a dialog containing document properties.\00", align 16
@_ZN17flag_descriptions30kPdfViewerPresentationModeNameE = hidden local_unnamed_addr constant [29 x i8] c"PDF Viewer Presentation Mode\00", align 16
@_ZN17flag_descriptions37kPdfViewerPresentationModeDescriptionE = hidden local_unnamed_addr constant [125 x i8] c"When enabled, the PDF viewer will include an option in the toolbar's overflow menu to enter Presentation (full screen) Mode.\00", align 16
@_ZN17flag_descriptions18kWebUITabStripNameE = hidden local_unnamed_addr constant [16 x i8] c"WebUI tab strip\00", align 16
@_ZN17flag_descriptions25kWebUITabStripDescriptionE = hidden local_unnamed_addr constant [51 x i8] c"When enabled makes use of a WebUI-based tab strip.\00", align 16
@_ZN17flag_descriptions31kWebUITabStripNTBInTabStripNameE = hidden local_unnamed_addr constant [33 x i8] c"WebUI tab strip NTB in tab strip\00", align 16
@_ZN17flag_descriptions38kWebUITabStripNTBInTabStripDescriptionE = hidden local_unnamed_addr constant [72 x i8] c"Whether the new tab button is in the WebUI tab strip or in the toolbar.\00", align 16
@_ZN17flag_descriptions29kAutofillCreditCardUploadNameE = hidden local_unnamed_addr constant [50 x i8] c"Enable offering upload of Autofilled credit cards\00", align 16
@_ZN17flag_descriptions36kAutofillCreditCardUploadDescriptionE = hidden local_unnamed_addr constant [95 x i8] c"Enables a new option to upload credit cards to Google Payments for sync to all Chrome devices.\00", align 16
@_ZN17flag_descriptions36kSendWebUIJavaScriptErrorReportsNameE = hidden local_unnamed_addr constant [36 x i8] c"Send WebUI JavaScript Error Reports\00", align 16
@_ZN17flag_descriptions43kSendWebUIJavaScriptErrorReportsDescriptionE = hidden local_unnamed_addr constant [167 x i8] c"If enabled, and if the user has consented to sending metrics to Google, then when the JavaScript has an error on a WebUI page, an error report will be sent to Google.\00", align 16
@_ZN17flag_descriptions17kUIDebugToolsNameE = hidden local_unnamed_addr constant [23 x i8] c"Debugging tools for UI\00", align 16
@_ZN17flag_descriptions24kUIDebugToolsDescriptionE = hidden local_unnamed_addr constant [57 x i8] c"Enables additional keyboard shortcuts to help debugging.\00", align 16
@_ZN17flag_descriptions27kWebrtcPipeWireCapturerNameE = hidden local_unnamed_addr constant [24 x i8] c"WebRTC PipeWire support\00", align 16
@_ZN17flag_descriptions34kWebrtcPipeWireCapturerDescriptionE = hidden local_unnamed_addr constant [129 x i8] c"When enabled the WebRTC will use the PipeWire multimedia server for capturing the desktop content on the Wayland display server.\00", align 16

!llvm.module.flags = !{!0, !1}

!0 = !{i32 1, !"wchar_size", i32 4}
!1 = !{i32 7, !"PIC Level", i32 2}
