; ModuleID = '../../chrome/browser/ui/views/folder_upload_confirmation_view.cc'
source_filename = "../../chrome/browser/ui/views/folder_upload_confirmation_view.cc"
target datalayout = "e-m:e-i64:64-f80:128-n8:16:32:64-S128"
target triple = "x86_64-unknown-linux-gnu"

module asm ".symver exp, exp@GLIBC_2.2.5"
module asm ".symver exp2, exp2@GLIBC_2.2.5"
module asm ".symver exp2f, exp2f@GLIBC_2.2.5"
module asm ".symver expf, expf@GLIBC_2.2.5"
module asm ".symver lgamma, lgamma@GLIBC_2.2.5"
module asm ".symver lgammaf, lgammaf@GLIBC_2.2.5"
module asm ".symver lgammal, lgammal@GLIBC_2.2.5"
module asm ".symver log, log@GLIBC_2.2.5"
module asm ".symver log2, log2@GLIBC_2.2.5"
module asm ".symver log2f, log2f@GLIBC_2.2.5"
module asm ".symver logf, logf@GLIBC_2.2.5"
module asm ".symver pow, pow@GLIBC_2.2.5"
module asm ".symver powf, powf@GLIBC_2.2.5"

%"class.ui::metadata::ClassMetaData" = type <{ i32 (...)**, %"class.std::__1::basic_string.253", %"class.std::__1::vector.542", %"class.ui::metadata::ClassMetaData"*, %"class.std::__1::basic_string.253", i32, [4 x i8] }>
%"class.std::__1::vector.542" = type { %"class.std::__1::__vector_base.543" }
%"class.std::__1::__vector_base.543" = type { %"class.ui::metadata::MemberMetaDataBase"**, %"class.ui::metadata::MemberMetaDataBase"**, %"class.std::__1::__compressed_pair.544" }
%"class.ui::metadata::MemberMetaDataBase" = type { i32 (...)**, %"class.std::__1::basic_string.253", %"class.std::__1::basic_string.253" }
%"class.std::__1::__compressed_pair.544" = type { %"struct.std::__1::__compressed_pair_elem.545" }
%"struct.std::__1::__compressed_pair_elem.545" = type { %"class.ui::metadata::MemberMetaDataBase"** }
%"class.std::__1::basic_string.253" = type { %"class.std::__1::__compressed_pair.254" }
%"class.std::__1::__compressed_pair.254" = type { %"struct.std::__1::__compressed_pair_elem.255" }
%"struct.std::__1::__compressed_pair_elem.255" = type { %"struct.std::__1::basic_string<char, std::__1::char_traits<char>, std::__1::allocator<char> >::__rep" }
%"struct.std::__1::basic_string<char, std::__1::char_traits<char>, std::__1::allocator<char> >::__rep" = type { %union.anon.256 }
%union.anon.256 = type { %"struct.std::__1::basic_string<char, std::__1::char_traits<char>, std::__1::allocator<char> >::__long" }
%"struct.std::__1::basic_string<char, std::__1::char_traits<char>, std::__1::allocator<char> >::__long" = type { i8*, i64, i64 }
%class.FolderUploadConfirmationView = type { %"class.views::DialogDelegateView.base", %"class.base::OnceCallback.293", %"class.std::__1::vector.294" }
%"class.views::DialogDelegateView.base" = type { %"class.views::DialogDelegate.base", [7 x i8], %"class.views::View.base" }
%"class.views::DialogDelegate.base" = type <{ %"class.views::WidgetDelegate", %"class.gfx::Insets", i32, [4 x i8], %"class.base::TimeTicks", %"struct.views::DialogDelegate::Params", %"class.std::__1::unique_ptr.262", %"class.std::__1::unique_ptr.262", %"class.base::ObserverList.289", %"class.base::OnceCallback", %"class.base::OnceCallback", %"class.base::OnceCallback", i8 }>
%"class.views::WidgetDelegate" = type { i32 (...)**, %"class.views::Widget"*, %"struct.views::WidgetDelegate::Params", %"class.views::View"*, i8, i8, %"class.views::View"*, %"class.std::__1::unique_ptr.262", i8, i8*, %"class.std::__1::unique_ptr.268", %"class.std::__1::unique_ptr.268", %"class.std::__1::vector.271", %"class.std::__1::vector.271", %"class.std::__1::vector.271", %"class.base::OnceCallback.281", %"class.base::RepeatingCallback.282", %"class.base::OnceCallback.283" }
%"class.views::Widget" = type { %"class.views::internal::NativeWidgetDelegate", %"class.ui::EventSource", %"class.views::FocusTraversable", %"class.ui::NativeThemeObserver", %"class.ui::metadata::MetaDataProvider", %"class.views::internal::NativeWidgetPrivate"*, %"class.base::ObserverList", %"class.base::ObserverList.19", %"class.base::RepeatingCallbackList", %"class.views::WidgetDelegate"*, %"class.views::Widget"*, %"class.std::__1::unique_ptr", %"class.views::NonClientView"*, %"class.std::__1::unique_ptr.240", %"class.views::View"*, i32, i8, i32, i8, i64, i8, i32, i32, %"class.gfx::Rect", i8, i8, i8, i8, i8, i8, i8, %"class.gfx::Point", i8, %"class.std::__1::vector.90", i8, i8, i8, %"class.ui::NativeTheme"*, %"class.base::ScopedObservation", %"class.base::WeakPtrFactory.246" }
%"class.views::internal::NativeWidgetDelegate" = type { i32 (...)** }
%"class.ui::EventSource" = type { i32 (...)**, %"class.std::__1::list" }
%"class.std::__1::list" = type { %"class.std::__1::__list_imp" }
%"class.std::__1::__list_imp" = type { %"struct.std::__1::__list_node_base", %"class.std::__1::__compressed_pair" }
%"struct.std::__1::__list_node_base" = type { %"struct.std::__1::__list_node_base"*, %"struct.std::__1::__list_node_base"* }
%"class.std::__1::__compressed_pair" = type { %"struct.std::__1::__compressed_pair_elem" }
%"struct.std::__1::__compressed_pair_elem" = type { i64 }
%"class.views::FocusTraversable" = type { i32 (...)** }
%"class.ui::NativeThemeObserver" = type { i32 (...)** }
%"class.ui::metadata::MetaDataProvider" = type { i32 (...)**, %"class.std::__1::map" }
%"class.std::__1::map" = type { %"class.std::__1::__tree" }
%"class.std::__1::__tree" = type { %"class.std::__1::__tree_end_node"*, %"class.std::__1::__compressed_pair.1", %"class.std::__1::__compressed_pair.6" }
%"class.std::__1::__tree_end_node" = type { %"class.std::__1::__tree_node_base"* }
%"class.std::__1::__tree_node_base" = type <{ %"class.std::__1::__tree_end_node", %"class.std::__1::__tree_node_base"*, %"class.std::__1::__tree_end_node"*, i8, [7 x i8] }>
%"class.std::__1::__compressed_pair.1" = type { %"struct.std::__1::__compressed_pair_elem.2" }
%"struct.std::__1::__compressed_pair_elem.2" = type { %"class.std::__1::__tree_end_node" }
%"class.std::__1::__compressed_pair.6" = type { %"struct.std::__1::__compressed_pair_elem" }
%"class.views::internal::NativeWidgetPrivate" = type opaque
%"class.base::ObserverList" = type <{ %"class.std::__1::vector", %"class.base::LinkedList", i64, i32, [4 x i8] }>
%"class.std::__1::vector" = type { %"class.std::__1::__vector_base" }
%"class.std::__1::__vector_base" = type { %"class.base::internal::CheckedObserverAdapter"*, %"class.base::internal::CheckedObserverAdapter"*, %"class.std::__1::__compressed_pair.14" }
%"class.base::internal::CheckedObserverAdapter" = type { %"class.base::WeakPtr" }
%"class.base::WeakPtr" = type { %"class.base::internal::WeakPtrBase" }
%"class.base::internal::WeakPtrBase" = type { %"class.base::internal::WeakReference", i64 }
%"class.base::internal::WeakReference" = type { %class.scoped_refptr }
%class.scoped_refptr = type { %"class.base::internal::WeakReference::Flag"* }
%"class.base::internal::WeakReference::Flag" = type <{ %"class.base::RefCountedThreadSafe", %"class.base::AtomicFlag", [3 x i8] }>
%"class.base::RefCountedThreadSafe" = type { %"class.base::subtle::RefCountedThreadSafeBase" }
%"class.base::subtle::RefCountedThreadSafeBase" = type { %"class.base::AtomicRefCount" }
%"class.base::AtomicRefCount" = type { %"struct.std::__1::atomic" }
%"struct.std::__1::atomic" = type { %"struct.std::__1::__atomic_base" }
%"struct.std::__1::__atomic_base" = type { %"struct.std::__1::__atomic_base.8" }
%"struct.std::__1::__atomic_base.8" = type { %"struct.std::__1::__cxx_atomic_impl" }
%"struct.std::__1::__cxx_atomic_impl" = type { %"struct.std::__1::__cxx_atomic_base_impl" }
%"struct.std::__1::__cxx_atomic_base_impl" = type { i32 }
%"class.base::AtomicFlag" = type { %"struct.std::__1::atomic.9" }
%"struct.std::__1::atomic.9" = type { %"struct.std::__1::__atomic_base.10" }
%"struct.std::__1::__atomic_base.10" = type { %"struct.std::__1::__atomic_base.11" }
%"struct.std::__1::__atomic_base.11" = type { %"struct.std::__1::__cxx_atomic_impl.12" }
%"struct.std::__1::__cxx_atomic_impl.12" = type { %"struct.std::__1::__cxx_atomic_base_impl.13" }
%"struct.std::__1::__cxx_atomic_base_impl.13" = type { i8 }
%"class.std::__1::__compressed_pair.14" = type { %"struct.std::__1::__compressed_pair_elem.15" }
%"struct.std::__1::__compressed_pair_elem.15" = type { %"class.base::internal::CheckedObserverAdapter"* }
%"class.base::LinkedList" = type { %"class.base::LinkNode" }
%"class.base::LinkNode" = type { %"class.base::internal::LinkNodeBase" }
%"class.base::internal::LinkNodeBase" = type { %"class.base::internal::LinkNodeBase"*, %"class.base::internal::LinkNodeBase"* }
%"class.base::ObserverList.19" = type <{ %"class.std::__1::vector.20", %"class.base::LinkedList.27", i64, i32, [4 x i8] }>
%"class.std::__1::vector.20" = type { %"class.std::__1::__vector_base.21" }
%"class.std::__1::__vector_base.21" = type { %"class.base::internal::UncheckedObserverAdapter"*, %"class.base::internal::UncheckedObserverAdapter"*, %"class.std::__1::__compressed_pair.22" }
%"class.base::internal::UncheckedObserverAdapter" = type { i8* }
%"class.std::__1::__compressed_pair.22" = type { %"struct.std::__1::__compressed_pair_elem.23" }
%"struct.std::__1::__compressed_pair_elem.23" = type { %"class.base::internal::UncheckedObserverAdapter"* }
%"class.base::LinkedList.27" = type { %"class.base::LinkNode.28" }
%"class.base::LinkNode.28" = type { %"class.base::internal::LinkNodeBase" }
%"class.base::RepeatingCallbackList" = type { %"class.base::internal::CallbackListBase" }
%"class.base::internal::CallbackListBase" = type { %"class.std::__1::list.30", i8, %"class.base::RepeatingCallback", %"class.base::WeakPtrFactory" }
%"class.std::__1::list.30" = type { %"class.std::__1::__list_imp.31" }
%"class.std::__1::__list_imp.31" = type { %"struct.std::__1::__list_node_base.32", %"class.std::__1::__compressed_pair.33" }
%"struct.std::__1::__list_node_base.32" = type { %"struct.std::__1::__list_node_base.32"*, %"struct.std::__1::__list_node_base.32"* }
%"class.std::__1::__compressed_pair.33" = type { %"struct.std::__1::__compressed_pair_elem" }
%"class.base::RepeatingCallback" = type { %"class.base::internal::CallbackBaseCopyable" }
%"class.base::internal::CallbackBaseCopyable" = type { %"class.base::internal::CallbackBase" }
%"class.base::internal::CallbackBase" = type { %class.scoped_refptr.37 }
%class.scoped_refptr.37 = type { %"class.base::internal::BindStateBase"* }
%"class.base::internal::BindStateBase" = type { %"class.base::RefCountedThreadSafe.38", void ()*, void (%"class.base::internal::BindStateBase"*)*, i1 (%"class.base::internal::BindStateBase"*, i32)* }
%"class.base::RefCountedThreadSafe.38" = type { %"class.base::subtle::RefCountedThreadSafeBase" }
%"class.base::WeakPtrFactory" = type { %"class.base::internal::WeakPtrFactoryBase" }
%"class.base::internal::WeakPtrFactoryBase" = type { %"class.base::internal::WeakReferenceOwner", i64 }
%"class.base::internal::WeakReferenceOwner" = type { %class.scoped_refptr.39 }
%class.scoped_refptr.39 = type { %"class.base::internal::WeakReference::Flag"* }
%"class.std::__1::unique_ptr" = type { %"class.std::__1::__compressed_pair.40" }
%"class.std::__1::__compressed_pair.40" = type { %"struct.std::__1::__compressed_pair_elem.41" }
%"struct.std::__1::__compressed_pair_elem.41" = type { %"class.views::internal::RootView"* }
%"class.views::internal::RootView" = type opaque
%"class.views::NonClientView" = type { %"class.views::View.base", %"class.views::ViewTargeterDelegate", %"class.views::ClientView"*, %"class.std::__1::unique_ptr.228", %"class.views::View"*, %"class.std::__1::basic_string" }
%"class.views::ViewTargeterDelegate" = type { i32 (...)** }
%"class.views::ClientView" = type { %"class.views::View.base", %"class.views::View"* }
%"class.std::__1::unique_ptr.228" = type { %"class.std::__1::__compressed_pair.229" }
%"class.std::__1::__compressed_pair.229" = type { %"struct.std::__1::__compressed_pair_elem.230" }
%"struct.std::__1::__compressed_pair_elem.230" = type { %"class.views::NonClientFrameView"* }
%"class.views::NonClientFrameView" = type { %"class.views::View.base", %"class.views::ViewTargeterDelegate" }
%"class.std::__1::basic_string" = type { %"class.std::__1::__compressed_pair.234" }
%"class.std::__1::__compressed_pair.234" = type { %"struct.std::__1::__compressed_pair_elem.235" }
%"struct.std::__1::__compressed_pair_elem.235" = type { %"struct.std::__1::basic_string<char16_t, std::__1::char_traits<char16_t>, std::__1::allocator<char16_t> >::__rep" }
%"struct.std::__1::basic_string<char16_t, std::__1::char_traits<char16_t>, std::__1::allocator<char16_t> >::__rep" = type { %union.anon.236 }
%union.anon.236 = type { %"struct.std::__1::basic_string<char16_t, std::__1::char_traits<char16_t>, std::__1::allocator<char16_t> >::__long" }
%"struct.std::__1::basic_string<char16_t, std::__1::char_traits<char16_t>, std::__1::allocator<char16_t> >::__long" = type { i16*, i64, i64 }
%"class.std::__1::unique_ptr.240" = type { %"class.std::__1::__compressed_pair.241" }
%"class.std::__1::__compressed_pair.241" = type { %"struct.std::__1::__compressed_pair_elem.242" }
%"struct.std::__1::__compressed_pair_elem.242" = type { %"class.views::FocusManager"* }
%"class.views::FocusManager" = type { %"class.views::ViewObserver", %"class.views::Widget"*, %"class.std::__1::unique_ptr.171", %"class.views::View"*, %"class.ui::AcceleratorManager", i8, %"class.std::__1::unique_ptr.188", i32, [4 x i8], %"class.base::ObserverList.194", i8, i8, i32 }
%"class.views::ViewObserver" = type { i32 (...)** }
%"class.std::__1::unique_ptr.171" = type { %"class.std::__1::__compressed_pair.172" }
%"class.std::__1::__compressed_pair.172" = type { %"struct.std::__1::__compressed_pair_elem.173" }
%"struct.std::__1::__compressed_pair_elem.173" = type { %"class.views::FocusManagerDelegate"* }
%"class.views::FocusManagerDelegate" = type opaque
%"class.ui::AcceleratorManager" = type { %"class.ui::AcceleratorMap" }
%"class.ui::AcceleratorMap" = type { %"class.std::__1::map.177" }
%"class.std::__1::map.177" = type { %"class.std::__1::__tree.178" }
%"class.std::__1::__tree.178" = type { %"class.std::__1::__tree_end_node"*, %"class.std::__1::__compressed_pair.179", %"class.std::__1::__compressed_pair.183" }
%"class.std::__1::__compressed_pair.179" = type { %"struct.std::__1::__compressed_pair_elem.2" }
%"class.std::__1::__compressed_pair.183" = type { %"struct.std::__1::__compressed_pair_elem" }
%"class.std::__1::unique_ptr.188" = type { %"class.std::__1::__compressed_pair.189" }
%"class.std::__1::__compressed_pair.189" = type { %"struct.std::__1::__compressed_pair_elem.190" }
%"struct.std::__1::__compressed_pair_elem.190" = type { %"class.views::ViewTracker"* }
%"class.views::ViewTracker" = type opaque
%"class.base::ObserverList.194" = type <{ %"class.std::__1::vector.20", %"class.base::LinkedList.195", i64, i32, [4 x i8] }>
%"class.base::LinkedList.195" = type { %"class.base::LinkNode.196" }
%"class.base::LinkNode.196" = type { %"class.base::internal::LinkNodeBase" }
%"class.gfx::Rect" = type { %"class.gfx::Point", %"class.gfx::Size" }
%"class.gfx::Size" = type { i32, i32 }
%"class.gfx::Point" = type { i32, i32 }
%"class.std::__1::vector.90" = type { %"class.std::__1::__vector_base.91" }
%"class.std::__1::__vector_base.91" = type { %"class.views::View"**, %"class.views::View"**, %"class.std::__1::__compressed_pair.92" }
%"class.std::__1::__compressed_pair.92" = type { %"struct.std::__1::__compressed_pair_elem.93" }
%"struct.std::__1::__compressed_pair_elem.93" = type { %"class.views::View"** }
%"class.ui::NativeTheme" = type <{ i32 (...)**, %"class.std::__1::map.138", %"class.base::ObserverList.149", i8, i8, [2 x i8], i32, i32, [4 x i8] }>
%"class.std::__1::map.138" = type { %"class.std::__1::__tree.139" }
%"class.std::__1::__tree.139" = type { %"class.std::__1::__tree_end_node"*, %"class.std::__1::__compressed_pair.140", %"class.std::__1::__compressed_pair.144" }
%"class.std::__1::__compressed_pair.140" = type { %"struct.std::__1::__compressed_pair_elem.2" }
%"class.std::__1::__compressed_pair.144" = type { %"struct.std::__1::__compressed_pair_elem" }
%"class.base::ObserverList.149" = type <{ %"class.std::__1::vector.20", %"class.base::LinkedList.150", i64, i32, [4 x i8] }>
%"class.base::LinkedList.150" = type { %"class.base::LinkNode.151" }
%"class.base::LinkNode.151" = type { %"class.base::internal::LinkNodeBase" }
%"class.base::ScopedObservation" = type { %"class.ui::NativeThemeObserver"*, %"class.ui::NativeTheme"* }
%"class.base::WeakPtrFactory.246" = type { %"class.base::internal::WeakPtrFactoryBase" }
%"struct.views::WidgetDelegate::Params" = type { i32, %"class.std::__1::basic_string", i8, i8, i8, i8, i8, i8, %"class.gfx::ImageSkia", %"class.gfx::ImageSkia", %"class.absl::optional.248", %"class.std::__1::basic_string.253", i32, i8, i8, i8, i8, %"class.std::__1::basic_string" }
%"class.gfx::ImageSkia" = type { %class.scoped_refptr.247 }
%class.scoped_refptr.247 = type { %"class.gfx::internal::ImageSkiaStorage"* }
%"class.gfx::internal::ImageSkiaStorage" = type opaque
%"class.absl::optional.248" = type { %"class.absl::optional_internal::optional_data.249" }
%"class.absl::optional_internal::optional_data.249" = type { %"class.absl::optional_internal::optional_data_base.250" }
%"class.absl::optional_internal::optional_data_base.250" = type { %"class.absl::optional_internal::optional_data_dtor_base.251" }
%"class.absl::optional_internal::optional_data_dtor_base.251" = type { i8, %union.anon.252 }
%union.anon.252 = type { %"class.views::View"* }
%"class.views::View" = type <{ %"class.ui::LayerDelegate", %"class.ui::LayerObserver", %"class.ui::LayerOwner", %"class.ui::AcceleratorTarget", %"class.ui::EventTarget", %"class.ui::EventHandler", %"class.ui::PropertyHandler", %"class.ui::metadata::MetaDataProvider", i8, [3 x i8], i32, i32, [4 x i8], %"class.views::View"*, %"class.std::__1::vector.90", i8, [3 x i8], %"class.absl::optional", %"class.gfx::Rect", i8, i8, i8, i8, [4 x i8], %"class.std::__1::unique_ptr.97", %class.SkPath, i8, [7 x i8], %"class.std::__1::unique_ptr.110", %"class.absl::optional.116", i8, [7 x i8], %"class.std::__1::unique_ptr.121", %"class.std::__1::unique_ptr.127", %"class.ui::PaintCache", i8, [7 x i8], %"class.ui::NativeTheme"*, i8, %"class.absl::optional.153", i8, i8, [3 x i8], %"class.std::__1::vector.158", %"class.std::__1::unique_ptr.165", %"class.views::FocusManager"*, %"class.std::__1::unique_ptr.198", i64, %"class.views::View"*, %"class.views::View"*, i32, [4 x i8], %"class.views::ContextMenuController"*, %"class.views::DragController"*, %"class.std::__1::unique_ptr.212", %"class.std::__1::unique_ptr.218", %"class.base::ObserverList.224", i32, [4 x i8] }>
%"class.ui::LayerDelegate" = type { i32 (...)** }
%"class.ui::LayerObserver" = type { i32 (...)** }
%"class.ui::LayerOwner" = type { i32 (...)**, %"class.std::__1::unique_ptr.43", %"class.ui::Layer"*, %"class.base::ObserverList.49" }
%"class.std::__1::unique_ptr.43" = type { %"class.std::__1::__compressed_pair.44" }
%"class.std::__1::__compressed_pair.44" = type { %"struct.std::__1::__compressed_pair_elem.45" }
%"struct.std::__1::__compressed_pair_elem.45" = type { %"class.ui::Layer"* }
%"class.ui::Layer" = type opaque
%"class.base::ObserverList.49" = type <{ %"class.std::__1::vector.20", %"class.base::LinkedList.50", i64, i32, [4 x i8] }>
%"class.base::LinkedList.50" = type { %"class.base::LinkNode.51" }
%"class.base::LinkNode.51" = type { %"class.base::internal::LinkNodeBase" }
%"class.ui::AcceleratorTarget" = type { i32 (...)** }
%"class.ui::EventTarget" = type { i32 (...)**, %"class.std::__1::vector.53", %"class.std::__1::vector.69", %"class.ui::EventHandler"* }
%"class.std::__1::vector.53" = type { %"class.std::__1::__vector_base.54" }
%"class.std::__1::__vector_base.54" = type { %"struct.ui::EventTarget::PrioritizedHandler"*, %"struct.ui::EventTarget::PrioritizedHandler"*, %"class.std::__1::__compressed_pair.76" }
%"struct.ui::EventTarget::PrioritizedHandler" = type <{ %"class.ui::EventHandler"*, i32, [4 x i8] }>
%"class.std::__1::__compressed_pair.76" = type { %"struct.std::__1::__compressed_pair_elem.77" }
%"struct.std::__1::__compressed_pair_elem.77" = type { %"struct.ui::EventTarget::PrioritizedHandler"* }
%"class.std::__1::vector.69" = type { %"class.std::__1::__vector_base.70" }
%"class.std::__1::__vector_base.70" = type { %"class.ui::EventHandler"**, %"class.ui::EventHandler"**, %"class.std::__1::__compressed_pair.71" }
%"class.std::__1::__compressed_pair.71" = type { %"struct.std::__1::__compressed_pair_elem.72" }
%"struct.std::__1::__compressed_pair_elem.72" = type { %"class.ui::EventHandler"** }
%"class.ui::EventHandler" = type { i32 (...)**, %"class.std::__1::stack" }
%"class.std::__1::stack" = type { %"class.base::circular_deque" }
%"class.base::circular_deque" = type { %"class.base::internal::VectorBuffer", i64, i64 }
%"class.base::internal::VectorBuffer" = type { %"class.ui::EventDispatcher"**, i64 }
%"class.ui::EventDispatcher" = type { i32 (...)**, %"class.ui::EventDispatcherDelegate"*, %"class.ui::Event"*, %"class.std::__1::vector.69" }
%"class.ui::EventDispatcherDelegate" = type { i32 (...)**, %"class.ui::EventDispatcher"* }
%"class.ui::Event" = type { i32 (...)**, i32, %"class.base::TimeTicks", %"class.ui::LatencyInfo", i32, %"class.ui::Event"*, i8, i8, %"class.ui::EventTarget"*, i32, i32, i32, %"class.std::__1::unique_ptr.62" }
%"class.ui::LatencyInfo" = type { %"class.base::flat_map", i64, i64, i8, i8, i8, i32, float, float, i64 }
%"class.base::flat_map" = type { %"class.base::internal::flat_tree" }
%"class.base::internal::flat_tree" = type { %"class.std::__1::vector.55" }
%"class.std::__1::vector.55" = type { %"class.std::__1::__vector_base.56" }
%"class.std::__1::__vector_base.56" = type { %"struct.std::__1::pair"*, %"struct.std::__1::pair"*, %"class.std::__1::__compressed_pair.57" }
%"struct.std::__1::pair" = type opaque
%"class.std::__1::__compressed_pair.57" = type { %"struct.std::__1::__compressed_pair_elem.58" }
%"struct.std::__1::__compressed_pair_elem.58" = type { %"struct.std::__1::pair"* }
%"class.std::__1::unique_ptr.62" = type { %"class.std::__1::__compressed_pair.63" }
%"class.std::__1::__compressed_pair.63" = type { %"struct.std::__1::__compressed_pair_elem.64" }
%"struct.std::__1::__compressed_pair_elem.64" = type { %"class.base::flat_map.65"* }
%"class.base::flat_map.65" = type opaque
%"class.ui::PropertyHandler" = type { i32 (...)**, %"class.std::__1::map.81" }
%"class.std::__1::map.81" = type { %"class.std::__1::__tree.82" }
%"class.std::__1::__tree.82" = type { %"class.std::__1::__tree_end_node"*, %"class.std::__1::__compressed_pair.83", %"class.std::__1::__compressed_pair.87" }
%"class.std::__1::__compressed_pair.83" = type { %"struct.std::__1::__compressed_pair_elem.2" }
%"class.std::__1::__compressed_pair.87" = type { %"struct.std::__1::__compressed_pair_elem" }
%"class.absl::optional" = type { %"class.absl::optional_internal::optional_data" }
%"class.absl::optional_internal::optional_data" = type { %"class.absl::optional_internal::optional_data_base" }
%"class.absl::optional_internal::optional_data_base" = type { %"class.absl::optional_internal::optional_data_dtor_base" }
%"class.absl::optional_internal::optional_data_dtor_base" = type { i8, %union.anon }
%union.anon = type { %"class.gfx::Size" }
%"class.std::__1::unique_ptr.97" = type { %"class.std::__1::__compressed_pair.98" }
%"class.std::__1::__compressed_pair.98" = type { %"struct.std::__1::__compressed_pair_elem.99" }
%"struct.std::__1::__compressed_pair_elem.99" = type { %"class.std::__1::vector.90"* }
%class.SkPath = type <{ %class.sk_sp, i32, %"struct.std::__1::atomic.9", %"struct.std::__1::atomic.9", i8, i8 }>
%class.sk_sp = type { %class.SkPathRef* }
%class.SkPathRef = type <{ %class.SkNVRefCnt, %struct.SkRect, [4 x i8], %class.SkTDArray, %class.SkTDArray.103, %class.SkTDArray.104, i32, [4 x i8], %"class.SkIDChangeListener::List", i8, i8, i8, i8, i8, i8, i8, i8 }>
%class.SkNVRefCnt = type { %"struct.std::__1::atomic" }
%struct.SkRect = type { float, float, float, float }
%class.SkTDArray = type { %struct.SkPoint*, i32, i32 }
%struct.SkPoint = type { float, float }
%class.SkTDArray.103 = type { i8*, i32, i32 }
%class.SkTDArray.104 = type { float*, i32, i32 }
%"class.SkIDChangeListener::List" = type { %class.SkMutex, %class.SkTDArray.105 }
%class.SkMutex = type { %class.SkSemaphore }
%class.SkSemaphore = type { %"struct.std::__1::atomic", %class.SkOnce, %"struct.SkSemaphore::OSSemaphore"* }
%class.SkOnce = type { %"struct.std::__1::atomic.9" }
%"struct.SkSemaphore::OSSemaphore" = type opaque
%class.SkTDArray.105 = type { %class.SkIDChangeListener**, i32, i32 }
%class.SkIDChangeListener = type { %class.SkRefCnt.base, %"struct.std::__1::atomic.106", [3 x i8] }
%class.SkRefCnt.base = type { %class.SkRefCntBase.base }
%class.SkRefCntBase.base = type <{ i32 (...)**, %"struct.std::__1::atomic" }>
%"struct.std::__1::atomic.106" = type { %"struct.std::__1::__atomic_base.107" }
%"struct.std::__1::__atomic_base.107" = type { %"struct.std::__1::__cxx_atomic_impl.108" }
%"struct.std::__1::__cxx_atomic_impl.108" = type { %"struct.std::__1::__cxx_atomic_base_impl.109" }
%"struct.std::__1::__cxx_atomic_base_impl.109" = type { i8 }
%"class.std::__1::unique_ptr.110" = type { %"class.std::__1::__compressed_pair.111" }
%"class.std::__1::__compressed_pair.111" = type { %"struct.std::__1::__compressed_pair_elem.112" }
%"struct.std::__1::__compressed_pair_elem.112" = type { %"class.views::LayoutManager"* }
%"class.views::LayoutManager" = type { i32 (...)**, %"class.views::View"* }
%"class.absl::optional.116" = type { %"class.absl::optional_internal::optional_data.117" }
%"class.absl::optional_internal::optional_data.117" = type { %"class.absl::optional_internal::optional_data_base.118" }
%"class.absl::optional_internal::optional_data_base.118" = type { %"class.absl::optional_internal::optional_data_dtor_base.119" }
%"class.absl::optional_internal::optional_data_dtor_base.119" = type { i8, %union.anon.120 }
%union.anon.120 = type { %"class.views::View::DefaultFillLayout" }
%"class.views::View::DefaultFillLayout" = type { %"class.views::LayoutManager" }
%"class.std::__1::unique_ptr.121" = type { %"class.std::__1::__compressed_pair.122" }
%"class.std::__1::__compressed_pair.122" = type { %"struct.std::__1::__compressed_pair_elem.123" }
%"struct.std::__1::__compressed_pair_elem.123" = type { %"class.views::Background"* }
%"class.views::Background" = type opaque
%"class.std::__1::unique_ptr.127" = type { %"class.std::__1::__compressed_pair.128" }
%"class.std::__1::__compressed_pair.128" = type { %"struct.std::__1::__compressed_pair_elem.129" }
%"struct.std::__1::__compressed_pair_elem.129" = type { %"class.views::Border"* }
%"class.views::Border" = type <{ i32 (...)**, i32, [4 x i8] }>
%"class.ui::PaintCache" = type <{ %class.sk_sp.133, float, [4 x i8] }>
%class.sk_sp.133 = type { %"class.cc::PaintOpBuffer"* }
%"class.cc::PaintOpBuffer" = type <{ %class.SkRefCnt.base, [4 x i8], %"class.std::__1::unique_ptr.134", i64, i64, i64, i64, i64, i32, i8, [3 x i8] }>
%"class.std::__1::unique_ptr.134" = type { %"class.std::__1::__compressed_pair.135" }
%"class.std::__1::__compressed_pair.135" = type { %"struct.std::__1::__compressed_pair_elem.136" }
%"struct.std::__1::__compressed_pair_elem.136" = type { i8* }
%"class.absl::optional.153" = type { %"class.absl::optional_internal::optional_data.154" }
%"class.absl::optional_internal::optional_data.154" = type { %"class.absl::optional_internal::optional_data_base.155" }
%"class.absl::optional_internal::optional_data_base.155" = type { %"class.absl::optional_internal::optional_data_dtor_base.156" }
%"class.absl::optional_internal::optional_data_dtor_base.156" = type { i8, %union.anon.157 }
%union.anon.157 = type { i8 }
%"class.std::__1::vector.158" = type { %"class.std::__1::__vector_base.159" }
%"class.std::__1::__vector_base.159" = type { %"class.ui::Layer"**, %"class.ui::Layer"**, %"class.std::__1::__compressed_pair.160" }
%"class.std::__1::__compressed_pair.160" = type { %"struct.std::__1::__compressed_pair_elem.161" }
%"struct.std::__1::__compressed_pair_elem.161" = type { %"class.ui::Layer"** }
%"class.std::__1::unique_ptr.165" = type { %"class.std::__1::__compressed_pair.166" }
%"class.std::__1::__compressed_pair.166" = type { %"struct.std::__1::__compressed_pair_elem.167" }
%"struct.std::__1::__compressed_pair_elem.167" = type { %"class.views::ViewMaskLayer"* }
%"class.views::ViewMaskLayer" = type opaque
%"class.std::__1::unique_ptr.198" = type { %"class.std::__1::__compressed_pair.199" }
%"class.std::__1::__compressed_pair.199" = type { %"struct.std::__1::__compressed_pair_elem.200" }
%"struct.std::__1::__compressed_pair_elem.200" = type { %"class.std::__1::vector.201"* }
%"class.std::__1::vector.201" = type { %"class.std::__1::__vector_base.202" }
%"class.std::__1::__vector_base.202" = type { %"class.ui::Accelerator"*, %"class.ui::Accelerator"*, %"class.std::__1::__compressed_pair.203" }
%"class.ui::Accelerator" = type { i32, i32, i32, %"class.base::TimeTicks", i8, i32 }
%"class.std::__1::__compressed_pair.203" = type { %"struct.std::__1::__compressed_pair_elem.204" }
%"struct.std::__1::__compressed_pair_elem.204" = type { %"class.ui::Accelerator"* }
%"class.views::ContextMenuController" = type { i32 (...)**, i8, %"class.base::WeakPtrFactory.211" }
%"class.base::WeakPtrFactory.211" = type { %"class.base::internal::WeakPtrFactoryBase" }
%"class.views::DragController" = type opaque
%"class.std::__1::unique_ptr.212" = type { %"class.std::__1::__compressed_pair.213" }
%"class.std::__1::__compressed_pair.213" = type { %"struct.std::__1::__compressed_pair_elem.214" }
%"struct.std::__1::__compressed_pair_elem.214" = type { %"class.views::ViewTargeter"* }
%"class.views::ViewTargeter" = type { %"class.ui::EventTargeter", %"class.views::ViewTargeterDelegate"* }
%"class.ui::EventTargeter" = type { i32 (...)** }
%"class.std::__1::unique_ptr.218" = type { %"class.std::__1::__compressed_pair.219" }
%"class.std::__1::__compressed_pair.219" = type { %"struct.std::__1::__compressed_pair_elem.220" }
%"struct.std::__1::__compressed_pair_elem.220" = type { %"class.views::ViewAccessibility"* }
%"class.views::ViewAccessibility" = type opaque
%"class.base::ObserverList.224" = type <{ %"class.std::__1::vector.20", %"class.base::LinkedList.225", i64, i32, [4 x i8] }>
%"class.base::LinkedList.225" = type { %"class.base::LinkNode.226" }
%"class.base::LinkNode.226" = type { %"class.base::internal::LinkNodeBase" }
%"class.std::__1::unique_ptr.268" = type { %"class.std::__1::__compressed_pair.269" }
%"class.std::__1::__compressed_pair.269" = type { %"struct.std::__1::__compressed_pair_elem.270" }
%"struct.std::__1::__compressed_pair_elem.270" = type { %"class.std::__1::vector.271"* }
%"class.std::__1::vector.271" = type { %"class.std::__1::__vector_base.272" }
%"class.std::__1::__vector_base.272" = type { %"class.base::OnceCallback"*, %"class.base::OnceCallback"*, %"class.std::__1::__compressed_pair.273" }
%"class.std::__1::__compressed_pair.273" = type { %"struct.std::__1::__compressed_pair_elem.274" }
%"struct.std::__1::__compressed_pair_elem.274" = type { %"class.base::OnceCallback"* }
%"class.base::OnceCallback.281" = type { %"class.base::internal::CallbackBase" }
%"class.base::RepeatingCallback.282" = type { %"class.base::internal::CallbackBaseCopyable" }
%"class.base::OnceCallback.283" = type { %"class.base::internal::CallbackBase" }
%"class.gfx::Insets" = type { i32, i32, i32, i32 }
%"class.base::TimeTicks" = type { %"class.base::time_internal::TimeBase" }
%"class.base::time_internal::TimeBase" = type { i64 }
%"struct.views::DialogDelegate::Params" = type <{ %"class.absl::optional.284", i8, i8, i8, i8, i32, [3 x %"class.std::__1::basic_string"], i32, [4 x i8] }>
%"class.absl::optional.284" = type { %"class.absl::optional_internal::optional_data.285" }
%"class.absl::optional_internal::optional_data.285" = type { %"class.absl::optional_internal::optional_data_base.286" }
%"class.absl::optional_internal::optional_data_base.286" = type { %"class.absl::optional_internal::optional_data_dtor_base.287" }
%"class.absl::optional_internal::optional_data_dtor_base.287" = type { i8, %union.anon.288 }
%union.anon.288 = type { i32 }
%"class.std::__1::unique_ptr.262" = type { %"class.std::__1::__compressed_pair.263" }
%"class.std::__1::__compressed_pair.263" = type { %"struct.std::__1::__compressed_pair_elem.264" }
%"struct.std::__1::__compressed_pair_elem.264" = type { %"class.views::View"* }
%"class.base::ObserverList.289" = type <{ %"class.std::__1::vector.20", %"class.base::LinkedList.290", i64, i32, [4 x i8] }>
%"class.base::LinkedList.290" = type { %"class.base::LinkNode.291" }
%"class.base::LinkNode.291" = type { %"class.base::internal::LinkNodeBase" }
%"class.base::OnceCallback" = type { %"class.base::internal::CallbackBase" }
%"class.views::View.base" = type <{ %"class.ui::LayerDelegate", %"class.ui::LayerObserver", %"class.ui::LayerOwner", %"class.ui::AcceleratorTarget", %"class.ui::EventTarget", %"class.ui::EventHandler", %"class.ui::PropertyHandler", %"class.ui::metadata::MetaDataProvider", i8, [3 x i8], i32, i32, [4 x i8], %"class.views::View"*, %"class.std::__1::vector.90", i8, [3 x i8], %"class.absl::optional", %"class.gfx::Rect", i8, i8, i8, i8, [4 x i8], %"class.std::__1::unique_ptr.97", %class.SkPath, i8, [7 x i8], %"class.std::__1::unique_ptr.110", %"class.absl::optional.116", i8, [7 x i8], %"class.std::__1::unique_ptr.121", %"class.std::__1::unique_ptr.127", %"class.ui::PaintCache", i8, [7 x i8], %"class.ui::NativeTheme"*, i8, %"class.absl::optional.153", i8, i8, [3 x i8], %"class.std::__1::vector.158", %"class.std::__1::unique_ptr.165", %"class.views::FocusManager"*, %"class.std::__1::unique_ptr.198", i64, %"class.views::View"*, %"class.views::View"*, i32, [4 x i8], %"class.views::ContextMenuController"*, %"class.views::DragController"*, %"class.std::__1::unique_ptr.212", %"class.std::__1::unique_ptr.218", %"class.base::ObserverList.224", i32 }>
%"class.base::OnceCallback.293" = type { %"class.base::internal::CallbackBase" }
%"class.std::__1::vector.294" = type { %"class.std::__1::__vector_base.295" }
%"class.std::__1::__vector_base.295" = type { %"struct.ui::SelectedFileInfo"*, %"struct.ui::SelectedFileInfo"*, %"class.std::__1::__compressed_pair.312" }
%"struct.ui::SelectedFileInfo" = type { %"class.base::FilePath", %"class.base::FilePath", %"class.std::__1::basic_string.253", %"class.absl::optional.296", %"class.absl::optional.307" }
%"class.base::FilePath" = type { %"class.std::__1::basic_string.253" }
%"class.absl::optional.296" = type { %"class.absl::optional_internal::optional_data.297" }
%"class.absl::optional_internal::optional_data.297" = type { %"class.absl::optional_internal::optional_data_base.298" }
%"class.absl::optional_internal::optional_data_base.298" = type { %"class.absl::optional_internal::optional_data_dtor_base.299" }
%"class.absl::optional_internal::optional_data_dtor_base.299" = type { i8, %union.anon.300 }
%union.anon.300 = type { %class.GURL }
%class.GURL = type { %"class.std::__1::basic_string.253", i8, %"struct.url::Parsed", %"class.std::__1::unique_ptr.301" }
%"struct.url::Parsed" = type { %"struct.url::Component", %"struct.url::Component", %"struct.url::Component", %"struct.url::Component", %"struct.url::Component", %"struct.url::Component", %"struct.url::Component", %"struct.url::Component", i8, %"struct.url::Parsed"* }
%"struct.url::Component" = type { i32, i32 }
%"class.std::__1::unique_ptr.301" = type { %"class.std::__1::__compressed_pair.302" }
%"class.std::__1::__compressed_pair.302" = type { %"struct.std::__1::__compressed_pair_elem.303" }
%"struct.std::__1::__compressed_pair_elem.303" = type { %class.GURL* }
%"class.absl::optional.307" = type { %"class.absl::optional_internal::optional_data.308" }
%"class.absl::optional_internal::optional_data.308" = type { %"class.absl::optional_internal::optional_data_base.309" }
%"class.absl::optional_internal::optional_data_base.309" = type { %"class.absl::optional_internal::optional_data_dtor_base.310" }
%"class.absl::optional_internal::optional_data_dtor_base.310" = type { i8, %union.anon.311 }
%union.anon.311 = type { %"class.base::FilePath" }
%"class.std::__1::__compressed_pair.312" = type { %"struct.std::__1::__compressed_pair_elem.313" }
%"struct.std::__1::__compressed_pair_elem.313" = type { %"struct.ui::SelectedFileInfo"* }
%"class.views::DialogDelegateView" = type { %"class.views::DialogDelegate.base", [7 x i8], %"class.views::View.base", [4 x i8] }
%"struct.std::__1::basic_string<char16_t, std::__1::char_traits<char16_t>, std::__1::allocator<char16_t> >::__short" = type { [11 x i16], %struct.anon }
%struct.anon = type { %"struct.std::__1::__padding", i8 }
%"struct.std::__1::__padding" = type { [1 x i8] }
%"class.views::DialogDelegate" = type <{ %"class.views::WidgetDelegate", %"class.gfx::Insets", i32, [4 x i8], %"class.base::TimeTicks", %"struct.views::DialogDelegate::Params", %"class.std::__1::unique_ptr.262", %"class.std::__1::unique_ptr.262", %"class.base::ObserverList.289", %"class.base::OnceCallback", %"class.base::OnceCallback", %"class.base::OnceCallback", i8, [7 x i8] }>
%"class.views::LayoutProvider" = type { i32 (...)**, %"class.views::TypographyProvider" }
%"class.views::TypographyProvider" = type { i32 (...)** }
%"class.views::Label" = type { %"class.views::View.base", %"class.views::ContextMenuController", %"class.views::WordLookupClient", %"class.views::SelectionControllerDelegate", %"class.ui::SimpleMenuModel::Delegate", i32, i32, %"class.absl::optional.284", %"class.std::__1::unique_ptr.324", %"class.std::__1::unique_ptr.324", %"class.gfx::Range", i32, i32, i32, i32, i32, i32, i8, i8, i8, i8, i32, i8, i8, i8, i8, i32, %"class.std::__1::basic_string", i8, i8, i32, i32, i32, %"class.std::__1::unique_ptr.429", %"class.std::__1::basic_string", %"class.ui::SimpleMenuModel", %"class.std::__1::unique_ptr.450" }
%"class.views::WordLookupClient" = type { i32 (...)** }
%"class.views::SelectionControllerDelegate" = type { i32 (...)** }
%"class.ui::SimpleMenuModel::Delegate" = type { %"class.ui::AcceleratorProvider" }
%"class.ui::AcceleratorProvider" = type { i32 (...)** }
%"class.std::__1::unique_ptr.324" = type { %"class.std::__1::__compressed_pair.325" }
%"class.std::__1::__compressed_pair.325" = type { %"struct.std::__1::__compressed_pair_elem.326" }
%"struct.std::__1::__compressed_pair_elem.326" = type { %"class.gfx::RenderText"* }
%"class.gfx::RenderText" = type <{ i32 (...)**, float, float, %"class.std::__1::basic_string", i32, i32, i32, i32, i32, [4 x i8], %"class.gfx::FontList", %"class.gfx::SelectionModel", %"class.gfx::Rect", i8, i8, [2 x i8], i32, i32, i8, i8, [2 x i8], %"class.gfx::Range", %"class.gfx::BreakList", %"class.gfx::BreakList.343", %"class.gfx::BreakList.353", %"class.gfx::BreakList.363", %"struct.std::__1::array", %"class.gfx::BreakList", %"class.gfx::BreakList.343", %"class.gfx::BreakList.353", %"class.gfx::BreakList.363", %"struct.std::__1::array", %"class.std::__1::vector.383", i8, [3 x i8], i32, i64, %"class.std::__1::basic_string", %"class.std::__1::basic_string", i32, %"class.absl::optional.153", i8, i8, i32, i8, [3 x i8], i64, i32, i8, [3 x i8], %"class.gfx::Rect", i8, [3 x i8], %"class.gfx::Vector2d", i32, i8, [7 x i8], %"class.std::__1::vector.390", %"class.gfx::BreakList.397", %"class.std::__1::unique_ptr.406", float, i32, %"class.absl::optional.284", i8, [7 x i8] }>
%"class.gfx::FontList" = type { %class.scoped_refptr.327 }
%class.scoped_refptr.327 = type { %"class.gfx::FontListImpl"* }
%"class.gfx::FontListImpl" = type opaque
%"class.gfx::SelectionModel" = type <{ %"class.gfx::Range", %"class.std::__1::vector.328", i32, [4 x i8] }>
%"class.std::__1::vector.328" = type { %"class.std::__1::__vector_base.329" }
%"class.std::__1::__vector_base.329" = type { %"class.gfx::Range"*, %"class.gfx::Range"*, %"class.std::__1::__compressed_pair.330" }
%"class.std::__1::__compressed_pair.330" = type { %"struct.std::__1::__compressed_pair_elem.331" }
%"struct.std::__1::__compressed_pair_elem.331" = type { %"class.gfx::Range"* }
%"class.gfx::BreakList" = type { %"class.std::__1::vector.335", i64 }
%"class.std::__1::vector.335" = type { %"class.std::__1::__vector_base.336" }
%"class.std::__1::__vector_base.336" = type { %"struct.std::__1::pair.337"*, %"struct.std::__1::pair.337"*, %"class.std::__1::__compressed_pair.338" }
%"struct.std::__1::pair.337" = type <{ i64, i32, [4 x i8] }>
%"class.std::__1::__compressed_pair.338" = type { %"struct.std::__1::__compressed_pair_elem.339" }
%"struct.std::__1::__compressed_pair_elem.339" = type { %"struct.std::__1::pair.337"* }
%"class.gfx::BreakList.343" = type { %"class.std::__1::vector.344", i64 }
%"class.std::__1::vector.344" = type { %"class.std::__1::__vector_base.345" }
%"class.std::__1::__vector_base.345" = type { %"struct.std::__1::pair.346"*, %"struct.std::__1::pair.346"*, %"class.std::__1::__compressed_pair.348" }
%"struct.std::__1::pair.346" = type <{ i64, i32, [4 x i8] }>
%"class.std::__1::__compressed_pair.348" = type { %"struct.std::__1::__compressed_pair_elem.349" }
%"struct.std::__1::__compressed_pair_elem.349" = type { %"struct.std::__1::pair.346"* }
%"class.gfx::BreakList.353" = type { %"class.std::__1::vector.354", i64 }
%"class.std::__1::vector.354" = type { %"class.std::__1::__vector_base.355" }
%"class.std::__1::__vector_base.355" = type { %"struct.std::__1::pair.356"*, %"struct.std::__1::pair.356"*, %"class.std::__1::__compressed_pair.358" }
%"struct.std::__1::pair.356" = type <{ i64, i32, [4 x i8] }>
%"class.std::__1::__compressed_pair.358" = type { %"struct.std::__1::__compressed_pair_elem.359" }
%"struct.std::__1::__compressed_pair_elem.359" = type { %"struct.std::__1::pair.356"* }
%"class.gfx::BreakList.363" = type { %"class.std::__1::vector.364", i64 }
%"class.std::__1::vector.364" = type { %"class.std::__1::__vector_base.365" }
%"class.std::__1::__vector_base.365" = type { %"struct.std::__1::pair.366"*, %"struct.std::__1::pair.366"*, %"class.std::__1::__compressed_pair.368" }
%"struct.std::__1::pair.366" = type <{ i64, i32, [4 x i8] }>
%"class.std::__1::__compressed_pair.368" = type { %"struct.std::__1::__compressed_pair_elem.369" }
%"struct.std::__1::__compressed_pair_elem.369" = type { %"struct.std::__1::pair.366"* }
%"struct.std::__1::array" = type { [4 x %"class.gfx::BreakList.373"] }
%"class.gfx::BreakList.373" = type { %"class.std::__1::vector.374", i64 }
%"class.std::__1::vector.374" = type { %"class.std::__1::__vector_base.375" }
%"class.std::__1::__vector_base.375" = type { %"struct.std::__1::pair.376"*, %"struct.std::__1::pair.376"*, %"class.std::__1::__compressed_pair.378" }
%"struct.std::__1::pair.376" = type <{ i64, i8, [7 x i8] }>
%"class.std::__1::__compressed_pair.378" = type { %"struct.std::__1::__compressed_pair_elem.379" }
%"struct.std::__1::__compressed_pair_elem.379" = type { %"struct.std::__1::pair.376"* }
%"class.std::__1::vector.383" = type { %"class.std::__1::__vector_base.384" }
%"class.std::__1::__vector_base.384" = type { %"struct.gfx::internal::TextToDisplayIndex"*, %"struct.gfx::internal::TextToDisplayIndex"*, %"class.std::__1::__compressed_pair.385" }
%"struct.gfx::internal::TextToDisplayIndex" = type { i64, i64 }
%"class.std::__1::__compressed_pair.385" = type { %"struct.std::__1::__compressed_pair_elem.386" }
%"struct.std::__1::__compressed_pair_elem.386" = type { %"struct.gfx::internal::TextToDisplayIndex"* }
%"class.gfx::Vector2d" = type { i32, i32 }
%"class.std::__1::vector.390" = type { %"class.std::__1::__vector_base.391" }
%"class.std::__1::__vector_base.391" = type { %"class.gfx::ShadowValue"*, %"class.gfx::ShadowValue"*, %"class.std::__1::__compressed_pair.392" }
%"class.gfx::ShadowValue" = type <{ %"class.gfx::Vector2d", double, i32, [4 x i8] }>
%"class.std::__1::__compressed_pair.392" = type { %"struct.std::__1::__compressed_pair_elem.393" }
%"struct.std::__1::__compressed_pair_elem.393" = type { %"class.gfx::ShadowValue"* }
%"class.gfx::BreakList.397" = type { %"class.std::__1::vector.398", i64 }
%"class.std::__1::vector.398" = type { %"class.std::__1::__vector_base.399" }
%"class.std::__1::__vector_base.399" = type { %"struct.std::__1::pair.400"*, %"struct.std::__1::pair.400"*, %"class.std::__1::__compressed_pair.401" }
%"struct.std::__1::pair.400" = type { i64, i64 }
%"class.std::__1::__compressed_pair.401" = type { %"struct.std::__1::__compressed_pair_elem.402" }
%"struct.std::__1::__compressed_pair_elem.402" = type { %"struct.std::__1::pair.400"* }
%"class.std::__1::unique_ptr.406" = type { %"class.std::__1::__compressed_pair.407" }
%"class.std::__1::__compressed_pair.407" = type { %"struct.std::__1::__compressed_pair_elem.408" }
%"struct.std::__1::__compressed_pair_elem.408" = type { %"class.gfx::internal::ShapedText"* }
%"class.gfx::internal::ShapedText" = type { %"class.std::__1::vector.409" }
%"class.std::__1::vector.409" = type { %"class.std::__1::__vector_base.410" }
%"class.std::__1::__vector_base.410" = type { %"struct.gfx::internal::Line"*, %"struct.gfx::internal::Line"*, %"class.std::__1::__compressed_pair.418" }
%"struct.gfx::internal::Line" = type <{ %"class.std::__1::vector.411", %"class.gfx::SizeF", i32, i32, i32, [4 x i8] }>
%"class.std::__1::vector.411" = type { %"class.std::__1::__vector_base.412" }
%"class.std::__1::__vector_base.412" = type { %"struct.gfx::internal::LineSegment"*, %"struct.gfx::internal::LineSegment"*, %"class.std::__1::__compressed_pair.413" }
%"struct.gfx::internal::LineSegment" = type { %"class.gfx::RangeF", %"class.gfx::Range", i64 }
%"class.gfx::RangeF" = type { float, float }
%"class.std::__1::__compressed_pair.413" = type { %"struct.std::__1::__compressed_pair_elem.414" }
%"struct.std::__1::__compressed_pair_elem.414" = type { %"struct.gfx::internal::LineSegment"* }
%"class.gfx::SizeF" = type { float, float }
%"class.std::__1::__compressed_pair.418" = type { %"struct.std::__1::__compressed_pair_elem.419" }
%"struct.std::__1::__compressed_pair_elem.419" = type { %"struct.gfx::internal::Line"* }
%"class.gfx::Range" = type { i32, i32 }
%"class.std::__1::unique_ptr.429" = type { %"class.std::__1::__compressed_pair.430" }
%"class.std::__1::__compressed_pair.430" = type { %"struct.std::__1::__compressed_pair_elem.431" }
%"struct.std::__1::__compressed_pair_elem.431" = type { %"class.views::SelectionController"* }
%"class.views::SelectionController" = type opaque
%"class.ui::SimpleMenuModel" = type { %"class.ui::MenuModel", %"class.std::__1::vector.435", %"class.ui::SimpleMenuModel::Delegate"*, %"class.base::WeakPtrFactory.449" }
%"class.ui::MenuModel" = type { i32 (...)**, %"class.base::SupportsWeakPtr", %"class.ui::MenuModelDelegate"* }
%"class.base::SupportsWeakPtr" = type { %"class.base::internal::WeakReferenceOwner" }
%"class.ui::MenuModelDelegate" = type { i32 (...)** }
%"class.std::__1::vector.435" = type { %"class.std::__1::__vector_base.436" }
%"class.std::__1::__vector_base.436" = type { %"struct.ui::SimpleMenuModel::Item"*, %"struct.ui::SimpleMenuModel::Item"*, %"class.std::__1::__compressed_pair.444" }
%"struct.ui::SimpleMenuModel::Item" = type { i32, i32, %"class.std::__1::basic_string", %"class.std::__1::basic_string", %"class.ui::ImageModel", %"class.ui::ImageModel", i32, %"class.ui::MenuModel"*, %"class.ui::ButtonMenuItemModel"*, i32, i8, i8, i8, i8, %"class.ui::ElementIdentifier" }
%"class.ui::ImageModel" = type { %"class.absl::variant" }
%"class.absl::variant" = type { %"class.absl::variant_internal::VariantCopyAssignBaseNontrivial" }
%"class.absl::variant_internal::VariantCopyAssignBaseNontrivial" = type { %"class.absl::variant_internal::VariantMoveAssignBaseNontrivial" }
%"class.absl::variant_internal::VariantMoveAssignBaseNontrivial" = type { %"class.absl::variant_internal::VariantCopyBaseNontrivial" }
%"class.absl::variant_internal::VariantCopyBaseNontrivial" = type { %"class.absl::variant_internal::VariantMoveBaseNontrivial" }
%"class.absl::variant_internal::VariantMoveBaseNontrivial" = type { %"class.absl::variant_internal::VariantStateBaseDestructorNontrivial" }
%"class.absl::variant_internal::VariantStateBaseDestructorNontrivial" = type { %"class.absl::variant_internal::VariantStateBase" }
%"class.absl::variant_internal::VariantStateBase" = type { %"union.absl::variant_internal::DestructibleUnionImpl", i64 }
%"union.absl::variant_internal::DestructibleUnionImpl" = type { %"class.ui::VectorIconModel" }
%"class.ui::VectorIconModel" = type { %"struct.gfx::VectorIcon"*, i32, %"class.absl::variant.437", %"struct.gfx::VectorIcon"* }
%"class.absl::variant.437" = type { %"class.absl::variant_internal::VariantStateBase.438" }
%"class.absl::variant_internal::VariantStateBase.438" = type { %"union.absl::variant_internal::Union", i64 }
%"union.absl::variant_internal::Union" = type { i32 }
%"struct.gfx::VectorIcon" = type opaque
%"class.ui::ButtonMenuItemModel" = type opaque
%"class.ui::ElementIdentifier" = type { i8* }
%"class.std::__1::__compressed_pair.444" = type { %"struct.std::__1::__compressed_pair_elem.445" }
%"struct.std::__1::__compressed_pair_elem.445" = type { %"struct.ui::SimpleMenuModel::Item"* }
%"class.base::WeakPtrFactory.449" = type { %"class.base::internal::WeakPtrFactoryBase" }
%"class.std::__1::unique_ptr.450" = type { %"class.std::__1::__compressed_pair.451" }
%"class.std::__1::__compressed_pair.451" = type { %"struct.std::__1::__compressed_pair_elem.452" }
%"struct.std::__1::__compressed_pair_elem.452" = type { %"class.views::MenuRunner"* }
%"class.views::MenuRunner" = type opaque
%class.ChromeLayoutProvider = type { %"class.views::LayoutProvider", %class.ChromeTypographyProvider }
%class.ChromeTypographyProvider = type { %"class.views::TypographyProvider" }
%"class.content::WebContents" = type opaque
%"class.views::LabelButton" = type { %"class.views::Button", %"class.views::NativeThemeDelegate", %"class.views::ImageView"*, %"class.views::internal::LabelButtonLabel"*, %"class.views::InkDropContainerView"*, %"class.gfx::FontList", %"class.gfx::FontList", [4 x %"class.ui::ImageModel"], [4 x i32], %"struct.std::__1::array.541", %"class.gfx::Size", %"class.gfx::Size", i8, i8, i8, i8, i32, i32, %"class.base::CallbackListSubscription", %"class.base::CallbackListSubscription" }
%"class.views::Button" = type { %"class.views::View.base", %"class.views::AnimationDelegateViews", %"class.std::__1::basic_string", %"class.std::__1::basic_string", %"class.views::Button::PressedCallback", i32, i32, %"class.gfx::ThrobAnimation", i8, i8, i32, i8, i8, i8, i8, %"class.std::__1::unique_ptr.473", %"class.views::FocusRing"*, %"class.std::__1::unique_ptr.529", %"class.std::__1::unique_ptr.535", %"class.base::CallbackListSubscription" }
%"class.views::AnimationDelegateViews" = type { %"class.gfx::AnimationDelegate", %"class.views::ViewObserver", %"class.gfx::AnimationContainerObserver", %"class.views::View"*, %"class.gfx::AnimationContainer"*, %"class.views::CompositorAnimationRunner"*, %"class.base::ScopedObservation.465" }
%"class.gfx::AnimationDelegate" = type { i32 (...)** }
%"class.gfx::AnimationContainerObserver" = type { i32 (...)** }
%"class.gfx::AnimationContainer" = type opaque
%"class.views::CompositorAnimationRunner" = type opaque
%"class.base::ScopedObservation.465" = type { %"class.views::ViewObserver"*, %"class.views::View"* }
%"class.views::Button::PressedCallback" = type { %"class.base::RepeatingCallback.466" }
%"class.base::RepeatingCallback.466" = type { %"class.base::internal::CallbackBaseCopyable" }
%"class.gfx::ThrobAnimation" = type <{ %"class.gfx::SlideAnimation", %"class.base::TimeDelta", %"class.base::TimeDelta", i32, i8, [3 x i8] }>
%"class.gfx::SlideAnimation" = type { %"class.gfx::LinearAnimation.base", %"class.gfx::AnimationDelegate"*, i32, %"class.absl::optional.468", double, double, double, %"class.base::TimeDelta", double }
%"class.gfx::LinearAnimation.base" = type <{ %"class.gfx::Animation", %"class.base::TimeDelta", double, i8 }>
%"class.gfx::Animation" = type { %"class.gfx::AnimationContainerElement", %"class.base::TimeDelta", i8, %"class.gfx::AnimationDelegate"*, %class.scoped_refptr.467, %"class.base::TimeTicks" }
%"class.gfx::AnimationContainerElement" = type { i32 (...)** }
%class.scoped_refptr.467 = type { %"class.gfx::AnimationContainer"* }
%"class.absl::optional.468" = type { %"class.absl::optional_internal::optional_data.469" }
%"class.absl::optional_internal::optional_data.469" = type { %"class.absl::optional_internal::optional_data_base.470" }
%"class.absl::optional_internal::optional_data_base.470" = type { %"class.absl::optional_internal::optional_data_dtor_base.471" }
%"class.absl::optional_internal::optional_data_dtor_base.471" = type { i8, %union.anon.472 }
%union.anon.472 = type { i32 }
%"class.base::TimeDelta" = type { i64 }
%"class.std::__1::unique_ptr.473" = type { %"class.std::__1::__compressed_pair.474" }
%"class.std::__1::__compressed_pair.474" = type { %"struct.std::__1::__compressed_pair_elem.475" }
%"struct.std::__1::__compressed_pair_elem.475" = type { %"class.views::InkDropHost"* }
%"class.views::InkDropHost" = type { i32 (...)**, %"class.views::View"*, i32, %"class.views::InkDropHost::ViewLayerTransformObserver", %"class.std::__1::unique_ptr.476", %"class.views::InkDropHost::InkDropHostEventHandlerDelegate", %"class.views::InkDropEventHandler", %"class.views::InkDropEventHandler"*, float, %"class.absl::optional.494", %"class.absl::optional.499", i32, i32, i8, %"class.std::__1::unique_ptr.504", %"class.base::RepeatingCallback.510", %"class.base::RepeatingCallback.511", %"class.base::RepeatingCallback.512", %"class.base::RepeatingCallback.513", %"class.base::RepeatingCallback.514", %"class.base::RepeatingCallbackList" }
%"class.views::InkDropHost::ViewLayerTransformObserver" = type { %"class.views::ViewObserver", %"class.base::ScopedObservation.465", %"class.views::InkDropHost"* }
%"class.std::__1::unique_ptr.476" = type { %"class.std::__1::__compressed_pair.477" }
%"class.std::__1::__compressed_pair.477" = type { %"struct.std::__1::__compressed_pair_elem.478" }
%"struct.std::__1::__compressed_pair_elem.478" = type { %"class.views::InkDrop"* }
%"class.views::InkDrop" = type opaque
%"class.views::InkDropHost::InkDropHostEventHandlerDelegate" = type { %"class.views::InkDropEventHandler::Delegate", %"class.views::InkDropHost"* }
%"class.views::InkDropEventHandler::Delegate" = type { i32 (...)** }
%"class.views::InkDropEventHandler" = type { %"class.ui::EventHandler", %"class.views::ViewObserver", %"class.std::__1::unique_ptr.482", %"class.views::View"*, %"class.views::InkDropEventHandler::Delegate"*, %"class.std::__1::unique_ptr.488", %"class.base::ScopedObservation.465" }
%"class.std::__1::unique_ptr.482" = type { %"class.std::__1::__compressed_pair.483" }
%"class.std::__1::__compressed_pair.483" = type { %"struct.std::__1::__compressed_pair_elem.484" }
%"struct.std::__1::__compressed_pair_elem.484" = type { %"class.ui::ScopedTargetHandler"* }
%"class.ui::ScopedTargetHandler" = type opaque
%"class.std::__1::unique_ptr.488" = type { %"class.std::__1::__compressed_pair.489" }
%"class.std::__1::__compressed_pair.489" = type { %"struct.std::__1::__compressed_pair_elem.490" }
%"struct.std::__1::__compressed_pair_elem.490" = type { %"class.ui::LocatedEvent"* }
%"class.ui::LocatedEvent" = type { %"class.ui::Event", %"class.gfx::PointF", %"class.gfx::PointF" }
%"class.gfx::PointF" = type { float, float }
%"class.absl::optional.494" = type { %"class.absl::optional_internal::optional_data.495" }
%"class.absl::optional_internal::optional_data.495" = type { %"class.absl::optional_internal::optional_data_base.496" }
%"class.absl::optional_internal::optional_data_base.496" = type { %"class.absl::optional_internal::optional_data_dtor_base.497" }
%"class.absl::optional_internal::optional_data_dtor_base.497" = type { i8, %union.anon.498 }
%union.anon.498 = type { i32 }
%"class.absl::optional.499" = type { %"class.absl::optional_internal::optional_data.500" }
%"class.absl::optional_internal::optional_data.500" = type { %"class.absl::optional_internal::optional_data_base.501" }
%"class.absl::optional_internal::optional_data_base.501" = type { %"class.absl::optional_internal::optional_data_dtor_base.502" }
%"class.absl::optional_internal::optional_data_dtor_base.502" = type { i8, %union.anon.503 }
%union.anon.503 = type { float }
%"class.std::__1::unique_ptr.504" = type { %"class.std::__1::__compressed_pair.505" }
%"class.std::__1::__compressed_pair.505" = type { %"struct.std::__1::__compressed_pair_elem.506" }
%"struct.std::__1::__compressed_pair_elem.506" = type { %"class.views::InkDropMask"* }
%"class.views::InkDropMask" = type opaque
%"class.base::RepeatingCallback.510" = type { %"class.base::internal::CallbackBaseCopyable" }
%"class.base::RepeatingCallback.511" = type { %"class.base::internal::CallbackBaseCopyable" }
%"class.base::RepeatingCallback.512" = type { %"class.base::internal::CallbackBaseCopyable" }
%"class.base::RepeatingCallback.513" = type { %"class.base::internal::CallbackBaseCopyable" }
%"class.base::RepeatingCallback.514" = type { %"class.base::internal::CallbackBaseCopyable" }
%"class.views::FocusRing" = type { %"class.views::View.base", %"class.views::ViewObserver", %"class.std::__1::unique_ptr.518", i8, i8, %"class.absl::optional.494", %"class.absl::optional.524", %"class.base::ScopedObservation.465" }
%"class.std::__1::unique_ptr.518" = type { %"class.std::__1::__compressed_pair.519" }
%"class.std::__1::__compressed_pair.519" = type { %"struct.std::__1::__compressed_pair_elem.520" }
%"struct.std::__1::__compressed_pair_elem.520" = type { %"class.views::HighlightPathGenerator"* }
%"class.views::HighlightPathGenerator" = type opaque
%"class.absl::optional.524" = type { %"class.absl::optional_internal::optional_data.525" }
%"class.absl::optional_internal::optional_data.525" = type { %"class.absl::optional_internal::optional_data_base.526" }
%"class.absl::optional_internal::optional_data_base.526" = type { %"class.absl::optional_internal::optional_data_dtor_base.527" }
%"class.absl::optional_internal::optional_data_dtor_base.527" = type { i8, %union.anon.528 }
%union.anon.528 = type { %"class.std::__1::function" }
%"class.std::__1::function" = type { %"class.std::__1::__function::__policy_func" }
%"class.std::__1::__function::__policy_func" = type { %"union.std::__1::__function::__policy_storage", %"struct.std::__1::__function::__policy_invoker", %"struct.std::__1::__function::__policy"* }
%"union.std::__1::__function::__policy_storage" = type { i8*, [8 x i8] }
%"struct.std::__1::__function::__policy_invoker" = type { i1 (%"union.std::__1::__function::__policy_storage"*, %"class.views::View"*)* }
%"struct.std::__1::__function::__policy" = type { i8* (i8*)*, void (i8*)*, i8, %"class.std::type_info"* }
%"class.std::type_info" = type { i32 (...)**, i8* }
%"class.std::__1::unique_ptr.529" = type { %"class.std::__1::__compressed_pair.530" }
%"class.std::__1::__compressed_pair.530" = type { %"struct.std::__1::__compressed_pair_elem.531" }
%"struct.std::__1::__compressed_pair_elem.531" = type { %"class.views::Painter"* }
%"class.views::Painter" = type { i32 (...)** }
%"class.std::__1::unique_ptr.535" = type { %"class.std::__1::__compressed_pair.536" }
%"class.std::__1::__compressed_pair.536" = type { %"struct.std::__1::__compressed_pair_elem.537" }
%"struct.std::__1::__compressed_pair_elem.537" = type { %"class.views::ButtonController"* }
%"class.views::ButtonController" = type opaque
%"class.views::NativeThemeDelegate" = type { i32 (...)** }
%"class.views::ImageView" = type <{ %"class.views::View.base", %"class.gfx::Point", [4 x i8], %"class.std::__1::basic_string", %"class.std::__1::basic_string", i32, i32, %"class.ui::ImageModel", %"class.gfx::ImageSkia", float, [4 x i8], i8*, %"class.absl::optional", [4 x i8] }>
%"class.views::internal::LabelButtonLabel" = type { %"class.views::Label", %"class.absl::optional.494", %"class.absl::optional.494", %"class.base::CallbackListSubscription" }
%"class.views::InkDropContainerView" = type opaque
%"struct.std::__1::array.541" = type { [4 x i8] }
%"class.base::CallbackListSubscription" = type { %"class.base::OnceCallback" }
%"class.FolderUploadConfirmationView::FolderUploadConfirmationView_MetaData" = type { %"class.ui::metadata::ClassMetaData.base", [4 x i8] }
%"class.ui::metadata::ClassMetaData.base" = type <{ i32 (...)**, %"class.std::__1::basic_string.253", %"class.std::__1::vector.542", %"class.ui::metadata::ClassMetaData"*, %"class.std::__1::basic_string.253", i32 }>
%"struct.std::__1::basic_string<char, std::__1::char_traits<char>, std::__1::allocator<char> >::__short" = type { [23 x i8], %struct.anon.257 }
%struct.anon.257 = type { i8 }
%"class.views::BubbleDialogDelegate" = type opaque
%"class.aura::Window" = type opaque
%"class.ui::PaintContext" = type <{ %"class.cc::DisplayItemList"*, float, %"class.gfx::Rect", %"class.gfx::Vector2d", i8, [3 x i8] }>
%"class.cc::DisplayItemList" = type opaque
%"class.gfx::Transform" = type { %class.SkMatrix44 }
%class.SkMatrix44 = type <{ [4 x [4 x float]], i8, [3 x i8] }>
%"class.views::SizeBounds" = type { %"class.views::SizeBound", %"class.views::SizeBound" }
%"class.views::SizeBound" = type { %"class.absl::optional.284" }
%"class.ui::MouseEvent" = type { %"class.ui::LocatedEvent", i32, %"class.gfx::Vector2dF", %"struct.ui::PointerDetails" }
%"class.gfx::Vector2dF" = type { float, float }
%"struct.ui::PointerDetails" = type { i32, float, float, float, float, float, float, float, i32, %"class.gfx::Vector2d" }
%"class.ui::KeyEvent" = type <{ %"class.ui::Event", i32, i32, i32, i8, [3 x i8], %"class.ui::DomKey", [4 x i8] }>
%"class.ui::DomKey" = type { i32 }
%"class.ui::MouseWheelEvent" = type { %"class.ui::MouseEvent", %"class.gfx::Vector2d", %"class.gfx::Vector2d" }
%"class.ui::ScrollEvent" = type <{ %"class.ui::MouseEvent", float, float, float, float, i32, i32, i32, [4 x i8] }>
%"class.ui::TouchEvent" = type <{ %"class.ui::LocatedEvent", i32, i8, i8, [2 x i8], %"struct.ui::PointerDetails", [4 x i8] }>
%"class.ui::GestureEvent" = type <{ %"class.ui::LocatedEvent", %"struct.ui::GestureEventDetails", i32, [4 x i8] }>
%"struct.ui::GestureEventDetails" = type { i32, %"union.ui::GestureEventDetails::Details", i32, i8, i32, i32, %"class.gfx::RectF" }
%"union.ui::GestureEventDetails::Details" = type { %struct.anon.549 }
%struct.anon.549 = type { float, float, i8 }
%"class.gfx::RectF" = type { %"class.gfx::PointF", %"class.gfx::SizeF" }
%"class.std::__1::set" = type opaque
%"class.ui::OSExchangeData" = type { %"class.std::__1::unique_ptr.554" }
%"class.std::__1::unique_ptr.554" = type { %"class.std::__1::__compressed_pair.555" }
%"class.std::__1::__compressed_pair.555" = type { %"struct.std::__1::__compressed_pair_elem.556" }
%"struct.std::__1::__compressed_pair_elem.556" = type { %"class.ui::OSExchangeDataProvider"* }
%"class.ui::OSExchangeDataProvider" = type { i32 (...)** }
%"class.ui::DropTargetEvent" = type <{ %"class.ui::LocatedEvent", %"class.ui::OSExchangeData"*, i32, [4 x i8] }>
%"struct.ui::AXNodeData" = type opaque
%"struct.ui::AXActionData" = type opaque
%struct._AtkObject = type opaque
%"struct.views::ViewHierarchyChangedDetails" = type { i8, %"class.views::View"*, %"class.views::View"*, %"class.views::View"* }
%"class.views::PaintInfo" = type <{ float, float, %"class.gfx::Rect", %"class.gfx::Vector2d", %"class.ui::PaintContext", %"class.ui::PaintContext"*, i8, [7 x i8] }>
%"class.gfx::Canvas" = type opaque
%"class.views::View::LayerOffsetData" = type { %"class.gfx::Vector2d", %"class.gfx::Vector2dF", float }
%"struct.views::View::DragInfo" = type { i8, %"class.gfx::Point" }
%"class.ui::CancelModeEvent" = type { %"class.ui::Event" }

$_ZN28FolderUploadConfirmationView37FolderUploadConfirmationView_MetaDataD0Ev = comdat any

$_ZN5views14WidgetDelegate20OnWidgetInitializingEv = comdat any

$_ZN5views14WidgetDelegate29OnWindowBeginUserBoundsChangeEv = comdat any

$_ZN5views14WidgetDelegate27OnWindowEndUserBoundsChangeEv = comdat any

$_ZN5views14WidgetDelegate18GetAccessiblePanesEPNSt3__16vectorIPNS_4ViewENS1_9allocatorIS4_EEEE = comdat any

$_ZN5views14DialogDelegate19OnDialogInitializedEv = comdat any

$_ZN5views4View35AboutToRequestFocusFromTabTraversalEb = comdat any

$_ZN5views4View21GetAccessibleNodeDataEPN2ui10AXNodeDataE = comdat any

$_ZN5views4View15OnBoundsChangedERKN3gfx4RectE = comdat any

$_ZN5views4View25ChildPreferredSizeChangedEPS0_ = comdat any

$_ZN5views4View22ChildVisibilityChangedEPS0_ = comdat any

$_ZN28FolderUploadConfirmationView37FolderUploadConfirmationView_MetaDataC2Ev = comdat any

@_ZTV28FolderUploadConfirmationView = hidden unnamed_addr constant { [48 x i8*], [117 x i8*], [5 x i8*], [7 x i8*], [6 x i8*], [10 x i8*], [12 x i8*], [5 x i8*], [5 x i8*] } { [48 x i8*] [i8* null, i8* null, i8* bitcast (void (%class.FolderUploadConfirmationView*)* @_ZN28FolderUploadConfirmationViewD2Ev to i8*), i8* bitcast (void (%class.FolderUploadConfirmationView*)* @_ZN28FolderUploadConfirmationViewD0Ev to i8*), i8* bitcast (void (%"class.views::WidgetDelegate"*)* @_ZN5views14WidgetDelegate12OnWidgetMoveEv to i8*), i8* bitcast (void (%"class.views::WidgetDelegate"*)* @_ZN5views14WidgetDelegate16OnDisplayChangedEv to i8*), i8* bitcast (void (%"class.views::WidgetDelegate"*)* @_ZN5views14WidgetDelegate17OnWorkAreaChangedEv to i8*), i8* bitcast (void (%"class.views::WidgetDelegate"*)* @_ZN5views14WidgetDelegate20OnWidgetInitializingEv to i8*), i8* bitcast (void (%"class.views::DialogDelegate"*)* @_ZN5views14DialogDelegate19OnWidgetInitializedEv to i8*), i8* bitcast (i1 (%"class.views::WidgetDelegate"*, i32)* @_ZN5views14WidgetDelegate16OnCloseRequestedENS_6Widget12ClosedReasonE to i8*), i8* bitcast (%"class.views::View"* (%class.FolderUploadConfirmationView*)* @_ZN28FolderUploadConfirmationView23GetInitiallyFocusedViewEv to i8*), i8* bitcast (%"class.views::BubbleDialogDelegate"* (%"class.views::WidgetDelegate"*)* @_ZN5views14WidgetDelegate22AsBubbleDialogDelegateEv to i8*), i8* bitcast (%"class.views::DialogDelegate"* (%"class.views::DialogDelegate"*)* @_ZN5views14DialogDelegate16AsDialogDelegateEv to i8*), i8* bitcast (i1 (%"class.views::WidgetDelegate"*)* @_ZNK5views14WidgetDelegate11CanMaximizeEv to i8*), i8* bitcast (i1 (%"class.views::WidgetDelegate"*)* @_ZNK5views14WidgetDelegate11CanMinimizeEv to i8*), i8* bitcast (i1 (%"class.views::WidgetDelegate"*)* @_ZNK5views14WidgetDelegate11CanActivateEv to i8*), i8* bitcast (i32 (%"class.views::WidgetDelegate"*)* @_ZNK5views14WidgetDelegate12GetModalTypeEv to i8*), i8* bitcast (i32 (%"class.views::DialogDelegate"*)* @_ZN5views14DialogDelegate23GetAccessibleWindowRoleEv to i8*), i8* bitcast (void (%"class.std::__1::basic_string"*, %"class.views::WidgetDelegate"*)* @_ZNK5views14WidgetDelegate24GetAccessibleWindowTitleEv to i8*), i8* bitcast (void (%"class.std::__1::basic_string"*, %"class.views::WidgetDelegate"*)* @_ZNK5views14WidgetDelegate14GetWindowTitleEv to i8*), i8* bitcast (i1 (%"class.views::WidgetDelegate"*)* @_ZNK5views14WidgetDelegate21ShouldShowWindowTitleEv to i8*), i8* bitcast (i1 (%"class.views::WidgetDelegate"*)* @_ZNK5views14WidgetDelegate21ShouldShowCloseButtonEv to i8*), i8* bitcast (void (%"class.gfx::ImageSkia"*, %"class.views::WidgetDelegate"*)* @_ZN5views14WidgetDelegate16GetWindowAppIconEv to i8*), i8* bitcast (void (%"class.gfx::ImageSkia"*, %"class.views::WidgetDelegate"*)* @_ZN5views14WidgetDelegate13GetWindowIconEv to i8*), i8* bitcast (i1 (%"class.views::WidgetDelegate"*, i32)* @_ZN5views14WidgetDelegate21ExecuteWindowsCommandEi to i8*), i8* bitcast (void (%"class.std::__1::basic_string.253"*, %"class.views::WidgetDelegate"*)* @_ZNK5views14WidgetDelegate13GetWindowNameEv to i8*), i8* bitcast (void (%"class.views::WidgetDelegate"*, %"class.gfx::Rect"*, i32)* @_ZN5views14WidgetDelegate19SaveWindowPlacementERKN3gfx4RectEN2ui15WindowShowStateE to i8*), i8* bitcast (i1 (%"class.views::WidgetDelegate"*, %"class.views::Widget"*, %"class.gfx::Rect"*, i32*)* @_ZNK5views14WidgetDelegate23GetSavedWindowPlacementEPKNS_6WidgetEPN3gfx4RectEPN2ui15WindowShowStateE to i8*), i8* bitcast (void (%"class.views::WidgetDelegate"*)* @_ZN5views14WidgetDelegate13WindowClosingEv to i8*), i8* bitcast (void (%"class.views::WidgetDelegate"*)* @_ZN5views14WidgetDelegate14DeleteDelegateEv to i8*), i8* bitcast (void (%"class.views::WidgetDelegate"*)* @_ZN5views14WidgetDelegate29OnWindowBeginUserBoundsChangeEv to i8*), i8* bitcast (void (%"class.views::WidgetDelegate"*)* @_ZN5views14WidgetDelegate27OnWindowEndUserBoundsChangeEv to i8*), i8* bitcast (%"class.views::Widget"* (%"class.views::DialogDelegateView"*)* @_ZN5views18DialogDelegateView9GetWidgetEv to i8*), i8* bitcast (%"class.views::Widget"* (%"class.views::DialogDelegateView"*)* @_ZNK5views18DialogDelegateView9GetWidgetEv to i8*), i8* bitcast (%"class.views::View"* (%"class.views::DialogDelegateView"*)* @_ZN5views18DialogDelegateView15GetContentsViewEv to i8*), i8* bitcast (%"class.views::ClientView"* (%"class.views::DialogDelegate"*, %"class.views::Widget"*)* @_ZN5views14DialogDelegate16CreateClientViewEPNS_6WidgetE to i8*), i8* bitcast (%"class.views::NonClientFrameView"* (%"class.views::DialogDelegate"*, %"class.views::Widget"*)* @_ZN5views14DialogDelegate24CreateNonClientFrameViewEPNS_6WidgetE to i8*), i8* bitcast (%"class.views::View"* (%"class.views::WidgetDelegate"*)* @_ZN5views14WidgetDelegate17CreateOverlayViewEv to i8*), i8* bitcast (i1 (%"class.views::WidgetDelegate"*)* @_ZNK5views14WidgetDelegate20WidgetHasHitTestMaskEv to i8*), i8* bitcast (void (%"class.views::WidgetDelegate"*, %class.SkPath*)* @_ZNK5views14WidgetDelegate20GetWidgetHitTestMaskEP6SkPath to i8*), i8* bitcast (i1 (%"class.views::WidgetDelegate"*, %"class.aura::Window"*, %"class.gfx::Point"*)* @_ZN5views14WidgetDelegate38ShouldDescendIntoChildForEventHandlingEPN4aura6WindowERKN3gfx5PointE to i8*), i8* bitcast (void (%"class.views::WidgetDelegate"*, %"class.std::__1::vector.90"*)* @_ZN5views14WidgetDelegate18GetAccessiblePanesEPNSt3__16vectorIPNS_4ViewENS1_9allocatorIS4_EEEE to i8*), i8* bitcast (void (%"class.views::DialogDelegate"*)* @_ZN5views14DialogDelegate19OnDialogInitializedEv to i8*), i8* bitcast (i1 (%"class.views::DialogDelegate"*, i32)* @_ZNK5views14DialogDelegate21IsDialogButtonEnabledEN2ui12DialogButtonE to i8*), i8* bitcast (i1 (%"class.views::DialogDelegate"*)* @_ZN5views14DialogDelegate6CancelEv to i8*), i8* bitcast (i1 (%"class.views::DialogDelegate"*)* @_ZN5views14DialogDelegate6AcceptEv to i8*), i8* bitcast (i8* (%class.FolderUploadConfirmationView*)* @_ZNK28FolderUploadConfirmationView12GetClassNameEv to i8*), i8* bitcast (%"class.ui::metadata::ClassMetaData"* (%class.FolderUploadConfirmationView*)* @_ZN28FolderUploadConfirmationView16GetClassMetaDataEv to i8*)], [117 x i8*] [i8* inttoptr (i64 -536 to i8*), i8* null, i8* bitcast (void (%"class.views::View"*, %"class.ui::PaintContext"*)* @_ZN5views4View12OnPaintLayerERKN2ui12PaintContextE to i8*), i8* bitcast (void (%"class.views::View"*, float, float)* @_ZN5views4View26OnDeviceScaleFactorChangedEff to i8*), i8* bitcast (void (%"class.ui::LayerDelegate"*, %"class.gfx::Rect"*, i32)* @_ZN2ui13LayerDelegate20OnLayerBoundsChangedERKN3gfx4RectENS_20PropertyChangeReasonE to i8*), i8* bitcast (void (%"class.views::View"*, %"class.gfx::Transform"*, i32)* @_ZN5views4View18OnLayerTransformedERKN3gfx9TransformEN2ui20PropertyChangeReasonE to i8*), i8* bitcast (void (%"class.ui::LayerDelegate"*, i32)* @_ZN2ui13LayerDelegate21OnLayerOpacityChangedENS_20PropertyChangeReasonE to i8*), i8* bitcast (void (%"class.ui::LayerDelegate"*)* @_ZN2ui13LayerDelegate24OnLayerAlphaShapeChangedEv to i8*), i8* bitcast (void (%"class.ui::LayerDelegate"*, i32)* @_ZN2ui13LayerDelegate33OnLayerFillsBoundsOpaquelyChangedENS_20PropertyChangeReasonE to i8*), i8* bitcast (void (%"class.ui::LayerDelegate"*)* @_ZN2ui13LayerDelegate17UpdateVisualStateEv to i8*), i8* bitcast (void (%class.FolderUploadConfirmationView*)* @_ZThn536_N28FolderUploadConfirmationViewD1Ev to i8*), i8* bitcast (void (%class.FolderUploadConfirmationView*)* @_ZThn536_N28FolderUploadConfirmationViewD0Ev to i8*), i8* bitcast (i8* (%class.FolderUploadConfirmationView*)* @_ZThn536_NK28FolderUploadConfirmationView12GetClassNameEv to i8*), i8* bitcast (%"class.ui::metadata::ClassMetaData"* (%class.FolderUploadConfirmationView*)* @_ZThn536_N28FolderUploadConfirmationView16GetClassMetaDataEv to i8*), i8* bitcast (%"class.views::Widget"* (%"class.views::DialogDelegateView"*)* @_ZThn536_NK5views18DialogDelegateView9GetWidgetEv to i8*), i8* bitcast (%"class.views::Widget"* (%"class.views::DialogDelegateView"*)* @_ZThn536_N5views18DialogDelegateView9GetWidgetEv to i8*), i8* bitcast ({ i64, i64 } (%"class.views::View"*)* @_ZNK5views4View9GetInsetsEv to i8*), i8* bitcast ({ i64, i64 } (%"class.views::View"*)* @_ZNK5views4View23GetAnchorBoundsInScreenEv to i8*), i8* bitcast (i32 (%"class.views::View"*)* @_ZNK5views4View11GetBaselineEv to i8*), i8* bitcast (i64 (%"class.views::View"*)* @_ZNK5views4View14GetMinimumSizeEv to i8*), i8* bitcast (i64 (%"class.views::View"*)* @_ZNK5views4View14GetMaximumSizeEv to i8*), i8* bitcast (i32 (%"class.views::View"*, i32)* @_ZNK5views4View17GetHeightForWidthEi to i8*), i8* bitcast (void (%"class.views::SizeBounds"*, %"class.views::View"*, %"class.views::View"*)* @_ZNK5views4View16GetAvailableSizeEPKS0_ to i8*), i8* bitcast (void (%"class.views::View"*, i1)* @_ZN5views4View10SetVisibleEb to i8*), i8* bitcast (i1 (%"class.views::View"*)* @_ZNK5views4View7IsDrawnEv to i8*), i8* bitcast (void (%"class.std::__1::vector.90"*, %"class.views::View"*)* @_ZN5views4View19GetChildrenInZOrderEv to i8*), i8* bitcast (void (%"class.views::View"*, %"class.ui::Layer"*)* @_ZN5views4View19AddLayerBeneathViewEPN2ui5LayerE to i8*), i8* bitcast (void (%"class.views::View"*, %"class.ui::Layer"*)* @_ZN5views4View22RemoveLayerBeneathViewEPN2ui5LayerE to i8*), i8* bitcast (void (%"class.views::View"*, %"class.ui::Layer"*)* @_ZN5views4View14LayerDestroyedEPN2ui5LayerE to i8*), i8* bitcast (%"class.ui::Layer"* (%"class.views::View"*)* @_ZN5views4View13RecreateLayerEv to i8*), i8* bitcast (void (%"class.views::View"*)* @_ZN5views4View6LayoutEv to i8*), i8* bitcast (i1 (%"class.views::View"*)* @_ZNK5views4View23IsGroupFocusTraversableEv to i8*), i8* bitcast (%"class.views::View"* (%"class.views::View"*, i32)* @_ZN5views4View23GetSelectedViewForGroupEi to i8*), i8* bitcast (void (%"class.views::View"*, %"class.views::Border"*)* @_ZN5views4View9SetBorderENSt3__110unique_ptrINS_6BorderENS1_14default_deleteIS3_EEEE to i8*), i8* bitcast (%"class.views::View"* (%"class.views::View"*, %"class.gfx::Point"*)* @_ZN5views4View25GetTooltipHandlerForPointERKN3gfx5PointE to i8*), i8* bitcast (void ()* @_ZN5views4View9GetCursorERKN2ui10MouseEventE to i8*), i8* bitcast (i1 (%"class.views::View"*)* @_ZNK5views4View32GetCanProcessEventsWithinSubtreeEv to i8*), i8* bitcast (i1 (%"class.views::View"*, %"class.ui::MouseEvent"*)* @_ZN5views4View14OnMousePressedERKN2ui10MouseEventE to i8*), i8* bitcast (i1 (%"class.views::View"*, %"class.ui::MouseEvent"*)* @_ZN5views4View14OnMouseDraggedERKN2ui10MouseEventE to i8*), i8* bitcast (void (%"class.views::View"*, %"class.ui::MouseEvent"*)* @_ZN5views4View15OnMouseReleasedERKN2ui10MouseEventE to i8*), i8* bitcast (void (%"class.views::View"*)* @_ZN5views4View18OnMouseCaptureLostEv to i8*), i8* bitcast (void (%"class.views::View"*, %"class.ui::MouseEvent"*)* @_ZN5views4View12OnMouseMovedERKN2ui10MouseEventE to i8*), i8* bitcast (void (%"class.views::View"*, %"class.ui::MouseEvent"*)* @_ZN5views4View14OnMouseEnteredERKN2ui10MouseEventE to i8*), i8* bitcast (void (%"class.views::View"*, %"class.ui::MouseEvent"*)* @_ZN5views4View13OnMouseExitedERKN2ui10MouseEventE to i8*), i8* bitcast (void (%"class.views::View"*, %"class.views::View"*)* @_ZN5views4View25SetMouseAndGestureHandlerEPS0_ to i8*), i8* bitcast (void (%"class.views::View"*, %"class.views::View"*)* @_ZN5views4View15SetMouseHandlerEPS0_ to i8*), i8* bitcast (i1 (%"class.views::View"*, %"class.ui::KeyEvent"*)* @_ZN5views4View12OnKeyPressedERKN2ui8KeyEventE to i8*), i8* bitcast (i1 (%"class.views::View"*, %"class.ui::KeyEvent"*)* @_ZN5views4View13OnKeyReleasedERKN2ui8KeyEventE to i8*), i8* bitcast (i1 (%"class.views::View"*, %"class.ui::MouseWheelEvent"*)* @_ZN5views4View12OnMouseWheelERKN2ui15MouseWheelEventE to i8*), i8* bitcast (%"class.views::WordLookupClient"* (%"class.views::View"*)* @_ZN5views4View19GetWordLookupClientEv to i8*), i8* bitcast (i1 (%"class.views::View"*, %"class.ui::Event"*)* @_ZN5views4View14CanAcceptEventERKN2ui5EventE to i8*), i8* bitcast (%"class.ui::EventTarget"* (%"class.views::View"*)* @_ZN5views4View15GetParentTargetEv to i8*), i8* bitcast (void ()* @_ZNK5views4View16GetChildIteratorEv to i8*), i8* bitcast (%"class.ui::EventTargeter"* (%"class.views::View"*)* @_ZN5views4View16GetEventTargeterEv to i8*), i8* bitcast (void (%"class.views::View"*, %"class.ui::EventTarget"*, %"class.ui::LocatedEvent"*)* @_ZNK5views4View20ConvertEventToTargetEPKN2ui11EventTargetEPNS1_12LocatedEventE to i8*), i8* bitcast (<2 x float> (%"class.views::View"*, %"class.ui::LocatedEvent"*)* @_ZNK5views4View18GetScreenLocationFERKN2ui12LocatedEventE to i8*), i8* bitcast (void (%"class.views::View"*, %"class.ui::KeyEvent"*)* @_ZN5views4View10OnKeyEventEPN2ui8KeyEventE to i8*), i8* bitcast (void (%"class.views::View"*, %"class.ui::MouseEvent"*)* @_ZN5views4View12OnMouseEventEPN2ui10MouseEventE to i8*), i8* bitcast (void (%"class.views::View"*, %"class.ui::ScrollEvent"*)* @_ZN5views4View13OnScrollEventEPN2ui11ScrollEventE to i8*), i8* bitcast (void (%"class.views::View"*, %"class.ui::TouchEvent"*)* @_ZN5views4View12OnTouchEventEPN2ui10TouchEventE to i8*), i8* bitcast (void (%"class.views::View"*, %"class.ui::GestureEvent"*)* @_ZN5views4View14OnGestureEventEPN2ui12GestureEventE to i8*), i8* bitcast ({ i8*, i64 } (%"class.views::View"*)* @_ZNK5views4View13GetLogContextEv to i8*), i8* bitcast (i1 (%"class.views::View"*, %"class.ui::Accelerator"*)* @_ZN5views4View18AcceleratorPressedERKN2ui11AcceleratorE to i8*), i8* bitcast (i1 (%"class.views::View"*)* @_ZNK5views4View21CanHandleAcceleratorsEv to i8*), i8* bitcast (i1 (%"class.views::View"*)* @_ZNK5views4View8HasFocusEv to i8*), i8* bitcast (i32 (%"class.views::View"*)* @_ZNK5views4View16GetFocusBehaviorEv to i8*), i8* bitcast (void (%"class.views::View"*)* @_ZN5views4View12RequestFocusEv to i8*), i8* bitcast (void (%"class.views::View"*, i1)* @_ZN5views4View35AboutToRequestFocusFromTabTraversalEb to i8*), i8* bitcast (i1 (%"class.views::View"*, %"class.ui::KeyEvent"*)* @_ZN5views4View29SkipDefaultKeyEventProcessingERKN2ui8KeyEventE to i8*), i8* bitcast (%"class.views::FocusTraversable"* (%"class.views::View"*)* @_ZN5views4View19GetFocusTraversableEv to i8*), i8* bitcast (%"class.views::FocusTraversable"* (%"class.views::View"*)* @_ZN5views4View23GetPaneFocusTraversableEv to i8*), i8* bitcast (void (%"class.std::__1::basic_string"*, %"class.views::View"*, %"class.gfx::Point"*)* @_ZNK5views4View14GetTooltipTextERKN3gfx5PointE to i8*), i8* bitcast (void (%"class.views::View"*, %"class.gfx::Point"*, i32)* @_ZN5views4View15ShowContextMenuERKN3gfx5PointEN2ui14MenuSourceTypeE to i8*), i8* bitcast (i64 (%"class.views::View"*)* @_ZN5views4View30GetKeyboardContextMenuLocationEv to i8*), i8* bitcast (i1 (%"class.views::View"*, i32*, %"class.std::__1::set"*)* @_ZN5views4View14GetDropFormatsEPiPNSt3__13setIN2ui19ClipboardFormatTypeENS2_4lessIS5_EENS2_9allocatorIS5_EEEE to i8*), i8* bitcast (i1 (%"class.views::View"*)* @_ZN5views4View20AreDropTypesRequiredEv to i8*), i8* bitcast (i1 (%"class.views::View"*, %"class.ui::OSExchangeData"*)* @_ZN5views4View7CanDropERKN2ui14OSExchangeDataE to i8*), i8* bitcast (void (%"class.views::View"*, %"class.ui::DropTargetEvent"*)* @_ZN5views4View13OnDragEnteredERKN2ui15DropTargetEventE to i8*), i8* bitcast (i32 (%"class.views::View"*, %"class.ui::DropTargetEvent"*)* @_ZN5views4View13OnDragUpdatedERKN2ui15DropTargetEventE to i8*), i8* bitcast (void (%"class.views::View"*)* @_ZN5views4View12OnDragExitedEv to i8*), i8* bitcast (i32 (%"class.views::View"*, %"class.ui::DropTargetEvent"*)* @_ZN5views4View13OnPerformDropERKN2ui15DropTargetEventE to i8*), i8* bitcast (void (%"class.views::View"*)* @_ZN5views4View10OnDragDoneEv to i8*), i8* bitcast (void ()* @_ZN5views4View15GetDropCallbackERKN2ui15DropTargetEventE to i8*), i8* bitcast (void (%"class.views::View"*, %"struct.ui::AXNodeData"*)* @_ZN5views4View21GetAccessibleNodeDataEPN2ui10AXNodeDataE to i8*), i8* bitcast (i1 (%"class.views::View"*, %"struct.ui::AXActionData"*)* @_ZN5views4View22HandleAccessibleActionERKN2ui12AXActionDataE to i8*), i8* bitcast (%struct._AtkObject* (%"class.views::View"*)* @_ZN5views4View23GetNativeViewAccessibleEv to i8*), i8* bitcast (void (%"class.views::View"*, i32)* @_ZN5views4View20OnAccessibilityEventEN2ax5mojom5EventE to i8*), i8* bitcast (void (%"class.views::View"*, %"class.gfx::Rect"*)* @_ZN5views4View19ScrollRectToVisibleERKN3gfx4RectE to i8*), i8* bitcast (i64 (%"class.views::View"*)* @_ZNK5views4View22CalculatePreferredSizeEv to i8*), i8* bitcast (void (%"class.views::View"*, %"class.gfx::Rect"*)* @_ZN5views4View15OnBoundsChangedERKN3gfx4RectE to i8*), i8* bitcast (void (%"class.views::View"*, %"class.views::View"*)* @_ZN5views4View25ChildPreferredSizeChangedEPS0_ to i8*), i8* bitcast (void (%"class.views::View"*, %"class.views::View"*)* @_ZN5views4View22ChildVisibilityChangedEPS0_ to i8*), i8* bitcast (void (%"class.views::View"*)* @_ZN5views4View20PreferredSizeChangedEv to i8*), i8* bitcast (i1 (%"class.views::View"*)* @_ZNK5views4View43GetNeedsNotificationWhenVisibleBoundsChangeEv to i8*), i8* bitcast (void (%"class.views::View"*)* @_ZN5views4View22OnVisibleBoundsChangedEv to i8*), i8* bitcast (void (%"class.views::View"*, %"struct.views::ViewHierarchyChangedDetails"*)* @_ZN5views4View20ViewHierarchyChangedERKNS_27ViewHierarchyChangedDetailsE to i8*), i8* bitcast (void (%"class.views::View"*, %"class.views::View"*, i1)* @_ZN5views4View17VisibilityChangedEPS0_b to i8*), i8* bitcast (void (%"class.views::View"*)* @_ZN5views4View26NativeViewHierarchyChangedEv to i8*), i8* bitcast (void (%"class.views::View"*)* @_ZN5views4View13AddedToWidgetEv to i8*), i8* bitcast (void (%"class.views::View"*)* @_ZN5views4View17RemovedFromWidgetEv to i8*), i8* bitcast (void (%"class.views::View"*, %"class.gfx::Rect"*)* @_ZN5views4View18OnDidSchedulePaintERKN3gfx4RectE to i8*), i8* bitcast (void (%"class.views::View"*, %"class.views::PaintInfo"*)* @_ZN5views4View13PaintChildrenERKNS_9PaintInfoE to i8*), i8* bitcast (void (%"class.views::View"*, %"class.gfx::Canvas"*)* @_ZN5views4View7OnPaintEPN3gfx6CanvasE to i8*), i8* bitcast (void (%"class.views::View"*, %"class.gfx::Canvas"*)* @_ZN5views4View17OnPaintBackgroundEPN3gfx6CanvasE to i8*), i8* bitcast (void (%"class.views::View"*, %"class.gfx::Canvas"*)* @_ZN5views4View13OnPaintBorderEPN3gfx6CanvasE to i8*), i8* bitcast (i32 (%"class.views::View"*)* @_ZNK5views4View17GetPaintScaleTypeEv to i8*), i8* bitcast (void (%"class.views::View::LayerOffsetData"*, %"class.views::View"*, %"class.ui::Layer"**)* @_ZN5views4View34CalculateOffsetToAncestorWithLayerEPPN2ui5LayerE to i8*), i8* bitcast (void (%"class.views::View"*)* @_ZN5views4View17UpdateParentLayerEv to i8*), i8* bitcast (void (%"class.views::View"*, %"class.ui::Layer"*)* @_ZN5views4View18ReorderChildLayersEPN2ui5LayerE to i8*), i8* bitcast (void (%"class.views::View"*, %"class.views::View"*)* @_ZN5views4View19OnChildLayerChangedEPS0_ to i8*), i8* bitcast (%"struct.views::View::DragInfo"* (%"class.views::View"*)* @_ZN5views4View11GetDragInfoEv to i8*), i8* bitcast (void (%"class.views::View"*)* @_ZN5views4View7OnFocusEv to i8*), i8* bitcast (void (%"class.views::View"*)* @_ZN5views4View6OnBlurEv to i8*), i8* bitcast (void (%"class.views::View"*)* @_ZN5views4View14OnThemeChangedEv to i8*), i8* bitcast (i32 (%"class.views::View"*, %"class.gfx::Point"*)* @_ZN5views4View17GetDragOperationsERKN3gfx5PointE to i8*), i8* bitcast (void (%"class.views::View"*, %"class.gfx::Point"*, %"class.ui::OSExchangeData"*)* @_ZN5views4View13WriteDragDataERKN3gfx5PointEPN2ui14OSExchangeDataE to i8*), i8* bitcast (void (%"class.views::View"*, i8*, i64)* @_ZN5views4View19AfterPropertyChangeEPKvl to i8*)], [5 x i8*] [i8* inttoptr (i64 -544 to i8*), i8* null, i8* bitcast (void (%"class.views::View"*, %"class.ui::Layer"*)* @_ZThn8_N5views4View14LayerDestroyedEPN2ui5LayerE to i8*), i8* bitcast (void (%class.FolderUploadConfirmationView*)* @_ZThn544_N28FolderUploadConfirmationViewD1Ev to i8*), i8* bitcast (void (%class.FolderUploadConfirmationView*)* @_ZThn544_N28FolderUploadConfirmationViewD0Ev to i8*)], [7 x i8*] [i8* inttoptr (i64 -552 to i8*), i8* null, i8* bitcast (void (%class.FolderUploadConfirmationView*)* @_ZThn552_N28FolderUploadConfirmationViewD1Ev to i8*), i8* bitcast (void (%class.FolderUploadConfirmationView*)* @_ZThn552_N28FolderUploadConfirmationViewD0Ev to i8*), i8* bitcast (%"class.ui::Layer"* (%"class.ui::LayerOwner"*)* @_ZN2ui10LayerOwner12ReleaseLayerEv to i8*), i8* bitcast (%"class.ui::Layer"* (%"class.views::View"*)* @_ZThn16_N5views4View13RecreateLayerEv to i8*), i8* bitcast (void (%"class.ui::LayerOwner"*, %"class.ui::Layer"*)* @_ZN2ui10LayerOwner8SetLayerENSt3__110unique_ptrINS_5LayerENS1_14default_deleteIS3_EEEE to i8*)], [6 x i8*] [i8* inttoptr (i64 -632 to i8*), i8* null, i8* bitcast (i1 (%"class.views::View"*, %"class.ui::Accelerator"*)* @_ZThn96_N5views4View18AcceleratorPressedERKN2ui11AcceleratorE to i8*), i8* bitcast (i1 (%"class.views::View"*)* @_ZThn96_NK5views4View21CanHandleAcceleratorsEv to i8*), i8* bitcast (void (%class.FolderUploadConfirmationView*)* @_ZThn632_N28FolderUploadConfirmationViewD1Ev to i8*), i8* bitcast (void (%class.FolderUploadConfirmationView*)* @_ZThn632_N28FolderUploadConfirmationViewD0Ev to i8*)], [10 x i8*] [i8* inttoptr (i64 -640 to i8*), i8* null, i8* bitcast (void (%class.FolderUploadConfirmationView*)* @_ZThn640_N28FolderUploadConfirmationViewD1Ev to i8*), i8* bitcast (void (%class.FolderUploadConfirmationView*)* @_ZThn640_N28FolderUploadConfirmationViewD0Ev to i8*), i8* bitcast (i1 (%"class.views::View"*, %"class.ui::Event"*)* @_ZThn104_N5views4View14CanAcceptEventERKN2ui5EventE to i8*), i8* bitcast (%"class.ui::EventTarget"* (%"class.views::View"*)* @_ZThn104_N5views4View15GetParentTargetEv to i8*), i8* bitcast (void ()* @_ZThn104_NK5views4View16GetChildIteratorEv to i8*), i8* bitcast (%"class.ui::EventTargeter"* (%"class.views::View"*)* @_ZThn104_N5views4View16GetEventTargeterEv to i8*), i8* bitcast (void (%"class.views::View"*, %"class.ui::EventTarget"*, %"class.ui::LocatedEvent"*)* @_ZThn104_NK5views4View20ConvertEventToTargetEPKN2ui11EventTargetEPNS1_12LocatedEventE to i8*), i8* bitcast (<2 x float> (%"class.views::View"*, %"class.ui::LocatedEvent"*)* @_ZThn104_NK5views4View18GetScreenLocationFERKN2ui12LocatedEventE to i8*)], [12 x i8*] [i8* inttoptr (i64 -704 to i8*), i8* null, i8* bitcast (void (%class.FolderUploadConfirmationView*)* @_ZThn704_N28FolderUploadConfirmationViewD1Ev to i8*), i8* bitcast (void (%class.FolderUploadConfirmationView*)* @_ZThn704_N28FolderUploadConfirmationViewD0Ev to i8*), i8* bitcast (void (%"class.ui::EventHandler"*, %"class.ui::Event"*)* @_ZN2ui12EventHandler7OnEventEPNS_5EventE to i8*), i8* bitcast (void (%"class.views::View"*, %"class.ui::KeyEvent"*)* @_ZThn168_N5views4View10OnKeyEventEPN2ui8KeyEventE to i8*), i8* bitcast (void (%"class.views::View"*, %"class.ui::MouseEvent"*)* @_ZThn168_N5views4View12OnMouseEventEPN2ui10MouseEventE to i8*), i8* bitcast (void (%"class.views::View"*, %"class.ui::ScrollEvent"*)* @_ZThn168_N5views4View13OnScrollEventEPN2ui11ScrollEventE to i8*), i8* bitcast (void (%"class.views::View"*, %"class.ui::TouchEvent"*)* @_ZThn168_N5views4View12OnTouchEventEPN2ui10TouchEventE to i8*), i8* bitcast (void (%"class.views::View"*, %"class.ui::GestureEvent"*)* @_ZThn168_N5views4View14OnGestureEventEPN2ui12GestureEventE to i8*), i8* bitcast (void (%"class.ui::EventHandler"*, %"class.ui::CancelModeEvent"*)* @_ZN2ui12EventHandler12OnCancelModeEPNS_15CancelModeEventE to i8*), i8* bitcast ({ i8*, i64 } (%"class.views::View"*)* @_ZThn168_NK5views4View13GetLogContextEv to i8*)], [5 x i8*] [i8* inttoptr (i64 -744 to i8*), i8* null, i8* bitcast (void (%class.FolderUploadConfirmationView*)* @_ZThn744_N28FolderUploadConfirmationViewD1Ev to i8*), i8* bitcast (void (%class.FolderUploadConfirmationView*)* @_ZThn744_N28FolderUploadConfirmationViewD0Ev to i8*), i8* bitcast (void (%"class.views::View"*, i8*, i64)* @_ZThn208_N5views4View19AfterPropertyChangeEPKvl to i8*)], [5 x i8*] [i8* inttoptr (i64 -776 to i8*), i8* null, i8* bitcast (void (%class.FolderUploadConfirmationView*)* @_ZThn776_N28FolderUploadConfirmationViewD1Ev to i8*), i8* bitcast (void (%class.FolderUploadConfirmationView*)* @_ZThn776_N28FolderUploadConfirmationViewD0Ev to i8*), i8* bitcast (%"class.ui::metadata::ClassMetaData"* (%class.FolderUploadConfirmationView*)* @_ZThn776_N28FolderUploadConfirmationView16GetClassMetaDataEv to i8*)] }, align 8
@_ZN28FolderUploadConfirmationView37FolderUploadConfirmationView_MetaData10meta_data_E = hidden local_unnamed_addr global %"class.ui::metadata::ClassMetaData"* null, align 8
@_ZN28FolderUploadConfirmationView14kViewClassNameE = hidden constant [29 x i8] c"FolderUploadConfirmationView\00", align 16
@_ZTVN28FolderUploadConfirmationView37FolderUploadConfirmationView_MetaDataE = hidden unnamed_addr constant { [5 x i8*] } { [5 x i8*] [i8* null, i8* null, i8* bitcast (void (%"class.ui::metadata::ClassMetaData"*)* @_ZN2ui8metadata13ClassMetaDataD2Ev to i8*), i8* bitcast (void (%"class.FolderUploadConfirmationView::FolderUploadConfirmationView_MetaData"*)* @_ZN28FolderUploadConfirmationView37FolderUploadConfirmationView_MetaDataD0Ev to i8*), i8* bitcast (void (%"class.FolderUploadConfirmationView::FolderUploadConfirmationView_MetaData"*)* @_ZN28FolderUploadConfirmationView37FolderUploadConfirmationView_MetaData13BuildMetaDataEv to i8*)] }, align 8
@.str.3 = private unnamed_addr constant [64 x i8] c"../../chrome/browser/ui/views/folder_upload_confirmation_view.h\00", align 1

@_ZN28FolderUploadConfirmationViewC1ERKN4base8FilePathENS0_12OnceCallbackIFvRKNSt3__16vectorIN2ui16SelectedFileInfoENS5_9allocatorIS8_EEEEEEESB_ = hidden unnamed_addr alias void (%class.FolderUploadConfirmationView*, %"class.base::FilePath"*, %"class.base::OnceCallback.293"*, %"class.std::__1::vector.294"*), void (%class.FolderUploadConfirmationView*, %"class.base::FilePath"*, %"class.base::OnceCallback.293"*, %"class.std::__1::vector.294"*)* @_ZN28FolderUploadConfirmationViewC2ERKN4base8FilePathENS0_12OnceCallbackIFvRKNSt3__16vectorIN2ui16SelectedFileInfoENS5_9allocatorIS8_EEEEEEESB_
@_ZN28FolderUploadConfirmationViewD1Ev = hidden unnamed_addr alias void (%class.FolderUploadConfirmationView*), void (%class.FolderUploadConfirmationView*)* @_ZN28FolderUploadConfirmationViewD2Ev

; Function Attrs: nounwind ssp uwtable
define hidden void @_ZN28FolderUploadConfirmationViewC2ERKN4base8FilePathENS0_12OnceCallbackIFvRKNSt3__16vectorIN2ui16SelectedFileInfoENS5_9allocatorIS8_EEEEEEESB_(%class.FolderUploadConfirmationView*, %"class.base::FilePath"* dereferenceable(24), %"class.base::OnceCallback.293"* nocapture, %"class.std::__1::vector.294"* nocapture) unnamed_addr #0 align 2 {
  %5 = alloca %"class.std::__1::basic_string", align 8
  %6 = alloca %"class.std::__1::basic_string", align 8
  %7 = alloca %"class.base::OnceCallback", align 8
  %8 = alloca %"class.base::OnceCallback", align 8
  %9 = alloca %"class.base::OnceCallback", align 8
  %10 = alloca %"class.std::__1::basic_string", align 8
  %11 = alloca %"class.std::__1::basic_string", align 8
  %12 = alloca %"class.base::FilePath", align 8
  %13 = bitcast %class.FolderUploadConfirmationView* %0 to %"class.views::DialogDelegateView"*
  tail call void @_ZN5views18DialogDelegateViewC2Ev(%"class.views::DialogDelegateView"* %13) #10
  %14 = getelementptr inbounds %class.FolderUploadConfirmationView, %class.FolderUploadConfirmationView* %0, i64 0, i32 0, i32 0, i32 0, i32 0
  store i32 (...)** bitcast (i8** getelementptr inbounds ({ [48 x i8*], [117 x i8*], [5 x i8*], [7 x i8*], [6 x i8*], [10 x i8*], [12 x i8*], [5 x i8*], [5 x i8*] }, { [48 x i8*], [117 x i8*], [5 x i8*], [7 x i8*], [6 x i8*], [10 x i8*], [12 x i8*], [5 x i8*], [5 x i8*] }* @_ZTV28FolderUploadConfirmationView, i64 0, inrange i32 0, i64 2) to i32 (...)**), i32 (...)*** %14, align 8
  %15 = getelementptr inbounds %class.FolderUploadConfirmationView, %class.FolderUploadConfirmationView* %0, i64 0, i32 0, i32 2
  %16 = bitcast %"class.views::View.base"* %15 to <2 x i32 (...)**>*
  store <2 x i32 (...)**> <i32 (...)** bitcast (i8** getelementptr inbounds ({ [48 x i8*], [117 x i8*], [5 x i8*], [7 x i8*], [6 x i8*], [10 x i8*], [12 x i8*], [5 x i8*], [5 x i8*] }, { [48 x i8*], [117 x i8*], [5 x i8*], [7 x i8*], [6 x i8*], [10 x i8*], [12 x i8*], [5 x i8*], [5 x i8*] }* @_ZTV28FolderUploadConfirmationView, i64 0, inrange i32 1, i64 2) to i32 (...)**), i32 (...)** bitcast (i8** getelementptr inbounds ({ [48 x i8*], [117 x i8*], [5 x i8*], [7 x i8*], [6 x i8*], [10 x i8*], [12 x i8*], [5 x i8*], [5 x i8*] }, { [48 x i8*], [117 x i8*], [5 x i8*], [7 x i8*], [6 x i8*], [10 x i8*], [12 x i8*], [5 x i8*], [5 x i8*] }* @_ZTV28FolderUploadConfirmationView, i64 0, inrange i32 2, i64 2) to i32 (...)**)>, <2 x i32 (...)**>* %16, align 8
  %17 = getelementptr inbounds %class.FolderUploadConfirmationView, %class.FolderUploadConfirmationView* %0, i64 0, i32 0, i32 2, i32 2, i32 0
  store i32 (...)** bitcast (i8** getelementptr inbounds ({ [48 x i8*], [117 x i8*], [5 x i8*], [7 x i8*], [6 x i8*], [10 x i8*], [12 x i8*], [5 x i8*], [5 x i8*] }, { [48 x i8*], [117 x i8*], [5 x i8*], [7 x i8*], [6 x i8*], [10 x i8*], [12 x i8*], [5 x i8*], [5 x i8*] }* @_ZTV28FolderUploadConfirmationView, i64 0, inrange i32 3, i64 2) to i32 (...)**), i32 (...)*** %17, align 8
  %18 = getelementptr inbounds %class.FolderUploadConfirmationView, %class.FolderUploadConfirmationView* %0, i64 0, i32 0, i32 2, i32 3, i32 0
  %19 = bitcast i32 (...)*** %18 to <2 x i32 (...)**>*
  store <2 x i32 (...)**> <i32 (...)** bitcast (i8** getelementptr inbounds ({ [48 x i8*], [117 x i8*], [5 x i8*], [7 x i8*], [6 x i8*], [10 x i8*], [12 x i8*], [5 x i8*], [5 x i8*] }, { [48 x i8*], [117 x i8*], [5 x i8*], [7 x i8*], [6 x i8*], [10 x i8*], [12 x i8*], [5 x i8*], [5 x i8*] }* @_ZTV28FolderUploadConfirmationView, i64 0, inrange i32 4, i64 2) to i32 (...)**), i32 (...)** bitcast (i8** getelementptr inbounds ({ [48 x i8*], [117 x i8*], [5 x i8*], [7 x i8*], [6 x i8*], [10 x i8*], [12 x i8*], [5 x i8*], [5 x i8*] }, { [48 x i8*], [117 x i8*], [5 x i8*], [7 x i8*], [6 x i8*], [10 x i8*], [12 x i8*], [5 x i8*], [5 x i8*] }* @_ZTV28FolderUploadConfirmationView, i64 0, inrange i32 5, i64 2) to i32 (...)**)>, <2 x i32 (...)**>* %19, align 8
  %20 = getelementptr inbounds %class.FolderUploadConfirmationView, %class.FolderUploadConfirmationView* %0, i64 0, i32 0, i32 2, i32 5, i32 0
  store i32 (...)** bitcast (i8** getelementptr inbounds ({ [48 x i8*], [117 x i8*], [5 x i8*], [7 x i8*], [6 x i8*], [10 x i8*], [12 x i8*], [5 x i8*], [5 x i8*] }, { [48 x i8*], [117 x i8*], [5 x i8*], [7 x i8*], [6 x i8*], [10 x i8*], [12 x i8*], [5 x i8*], [5 x i8*] }* @_ZTV28FolderUploadConfirmationView, i64 0, inrange i32 6, i64 2) to i32 (...)**), i32 (...)*** %20, align 8
  %21 = getelementptr inbounds %class.FolderUploadConfirmationView, %class.FolderUploadConfirmationView* %0, i64 0, i32 0, i32 2, i32 6, i32 0
  store i32 (...)** bitcast (i8** getelementptr inbounds ({ [48 x i8*], [117 x i8*], [5 x i8*], [7 x i8*], [6 x i8*], [10 x i8*], [12 x i8*], [5 x i8*], [5 x i8*] }, { [48 x i8*], [117 x i8*], [5 x i8*], [7 x i8*], [6 x i8*], [10 x i8*], [12 x i8*], [5 x i8*], [5 x i8*] }* @_ZTV28FolderUploadConfirmationView, i64 0, inrange i32 7, i64 2) to i32 (...)**), i32 (...)*** %21, align 8
  %22 = getelementptr inbounds %class.FolderUploadConfirmationView, %class.FolderUploadConfirmationView* %0, i64 0, i32 0, i32 2, i32 7, i32 0
  store i32 (...)** bitcast (i8** getelementptr inbounds ({ [48 x i8*], [117 x i8*], [5 x i8*], [7 x i8*], [6 x i8*], [10 x i8*], [12 x i8*], [5 x i8*], [5 x i8*] }, { [48 x i8*], [117 x i8*], [5 x i8*], [7 x i8*], [6 x i8*], [10 x i8*], [12 x i8*], [5 x i8*], [5 x i8*] }* @_ZTV28FolderUploadConfirmationView, i64 0, inrange i32 8, i64 2) to i32 (...)**), i32 (...)*** %22, align 8
  %23 = getelementptr inbounds %class.FolderUploadConfirmationView, %class.FolderUploadConfirmationView* %0, i64 0, i32 1
  %24 = getelementptr inbounds %"class.base::OnceCallback.293", %"class.base::OnceCallback.293"* %2, i64 0, i32 0, i32 0, i32 0
  %25 = bitcast %"class.base::OnceCallback.293"* %2 to i64*
  %26 = load i64, i64* %25, align 8
  %27 = bitcast %"class.base::OnceCallback.293"* %23 to i64*
  store i64 %26, i64* %27, align 8
  store %"class.base::internal::BindStateBase"* null, %"class.base::internal::BindStateBase"** %24, align 8
  %28 = getelementptr inbounds %class.FolderUploadConfirmationView, %class.FolderUploadConfirmationView* %0, i64 0, i32 2
  %29 = bitcast %"class.std::__1::vector.294"* %28 to i8*
  tail call void @llvm.memset.p0i8.i64(i8* align 8 %29, i8 0, i64 24, i1 false) #10
  %30 = bitcast %"class.std::__1::vector.294"* %3 to i64*
  %31 = load i64, i64* %30, align 8
  %32 = bitcast %"class.std::__1::vector.294"* %28 to i64*
  store i64 %31, i64* %32, align 8
  %33 = getelementptr inbounds %"class.std::__1::vector.294", %"class.std::__1::vector.294"* %3, i64 0, i32 0, i32 1
  %34 = bitcast %"struct.ui::SelectedFileInfo"** %33 to i64*
  %35 = load i64, i64* %34, align 8
  %36 = getelementptr inbounds %class.FolderUploadConfirmationView, %class.FolderUploadConfirmationView* %0, i64 0, i32 2, i32 0, i32 1
  %37 = bitcast %"struct.ui::SelectedFileInfo"** %36 to i64*
  store i64 %35, i64* %37, align 8
  %38 = getelementptr inbounds %"class.std::__1::vector.294", %"class.std::__1::vector.294"* %3, i64 0, i32 0, i32 2, i32 0, i32 0
  %39 = bitcast %"struct.ui::SelectedFileInfo"** %38 to i64*
  %40 = load i64, i64* %39, align 8
  %41 = getelementptr inbounds %class.FolderUploadConfirmationView, %class.FolderUploadConfirmationView* %0, i64 0, i32 2, i32 0, i32 2, i32 0, i32 0
  %42 = bitcast %"struct.ui::SelectedFileInfo"** %41 to i64*
  store i64 %40, i64* %42, align 8
  %43 = bitcast %"class.std::__1::vector.294"* %3 to i8*
  tail call void @llvm.memset.p0i8.i64(i8* align 8 %43, i8 0, i64 24, i1 false) #10
  %44 = getelementptr inbounds %class.FolderUploadConfirmationView, %class.FolderUploadConfirmationView* %0, i64 0, i32 0, i32 0, i32 0
  %45 = bitcast %"class.std::__1::basic_string"* %5 to i8*
  call void @llvm.lifetime.start.p0i8(i64 24, i8* nonnull %45) #10
  %46 = load i64, i64* %37, align 8
  %47 = load i64, i64* %32, align 8
  %48 = sub i64 %46, %47
  %49 = sdiv exact i64 %48, 232
  %50 = tail call i1 @llvm.is.constant.i64(i64 %49) #10
  %51 = icmp ult i64 %49, 2147483648
  %52 = trunc i64 %49 to i32
  %53 = select i1 %51, i32 %52, i32 2147483647
  %54 = icmp ult i64 %49, 2147483647
  %55 = select i1 %54, i64 %49, i64 2147483647
  %56 = trunc i64 %55 to i32
  %57 = select i1 %50, i32 %56, i32 %53
  call void @_ZN9l10n_util21GetPluralStringFUTF16Eii(%"class.std::__1::basic_string"* nonnull sret %5, i32 9098, i32 %57) #10
  call void @_ZN5views14WidgetDelegate8SetTitleERKNSt3__112basic_stringIDsNS1_11char_traitsIDsEENS1_9allocatorIDsEEEE(%"class.views::WidgetDelegate"* %44, %"class.std::__1::basic_string"* nonnull dereferenceable(24) %5) #10
  %58 = bitcast %"class.std::__1::basic_string"* %5 to %"struct.std::__1::basic_string<char16_t, std::__1::char_traits<char16_t>, std::__1::allocator<char16_t> >::__short"*
  %59 = getelementptr inbounds %"struct.std::__1::basic_string<char16_t, std::__1::char_traits<char16_t>, std::__1::allocator<char16_t> >::__short", %"struct.std::__1::basic_string<char16_t, std::__1::char_traits<char16_t>, std::__1::allocator<char16_t> >::__short"* %58, i64 0, i32 1, i32 1
  %60 = load i8, i8* %59, align 1
  %61 = icmp slt i8 %60, 0
  br i1 %61, label %62, label %65

62:                                               ; preds = %4
  %63 = bitcast %"class.std::__1::basic_string"* %5 to i8**
  %64 = load i8*, i8** %63, align 8
  call void @_ZdlPv(i8* %64) #11
  br label %65

65:                                               ; preds = %4, %62
  call void @llvm.lifetime.end.p0i8(i64 24, i8* nonnull %45) #10
  %66 = bitcast %class.FolderUploadConfirmationView* %0 to %"class.views::DialogDelegate"*
  call void @_ZN9l10n_util14GetStringUTF16Ei(%"class.std::__1::basic_string"* nonnull sret %6, i32 9100) #10
  call void @_ZN5views14DialogDelegate14SetButtonLabelEN2ui12DialogButtonENSt3__112basic_stringIDsNS3_11char_traitsIDsEENS3_9allocatorIDsEEEE(%"class.views::DialogDelegate"* %66, i32 1, %"class.std::__1::basic_string"* nonnull %6) #10
  %67 = bitcast %"class.std::__1::basic_string"* %6 to %"struct.std::__1::basic_string<char16_t, std::__1::char_traits<char16_t>, std::__1::allocator<char16_t> >::__short"*
  %68 = getelementptr inbounds %"struct.std::__1::basic_string<char16_t, std::__1::char_traits<char16_t>, std::__1::allocator<char16_t> >::__short", %"struct.std::__1::basic_string<char16_t, std::__1::char_traits<char16_t>, std::__1::allocator<char16_t> >::__short"* %67, i64 0, i32 1, i32 1
  %69 = load i8, i8* %68, align 1
  %70 = icmp slt i8 %69, 0
  br i1 %70, label %71, label %74

71:                                               ; preds = %65
  %72 = bitcast %"class.std::__1::basic_string"* %6 to i8**
  %73 = load i8*, i8** %72, align 8
  call void @_ZdlPv(i8* %73) #11
  br label %74

74:                                               ; preds = %65, %71
  %75 = ptrtoint %class.FolderUploadConfirmationView* %0 to i64
  %76 = call i8* @_Znwm(i64 48) #11, !noalias !2
  %77 = bitcast i8* %76 to %"class.base::internal::BindStateBase"*
  call void @_ZN4base8internal13BindStateBaseC2EPFvvEPFvPKS1_E(%"class.base::internal::BindStateBase"* nonnull %77, void ()* bitcast (void (%"class.base::internal::BindStateBase"*)* @"_ZN4base8internal7InvokerINS0_9BindStateIZN28FolderUploadConfirmationViewC1ERKNS_8FilePathENS_12OnceCallbackIFvRKNSt3__16vectorIN2ui16SelectedFileInfoENS8_9allocatorISB_EEEEEEESE_E3$_0JNS0_17UnretainedWrapperIS3_EEEEEFvvEE7RunOnceEPNS0_13BindStateBaseE" to void ()*), void (%"class.base::internal::BindStateBase"*)* nonnull @"_ZN4base8internal9BindStateIZN28FolderUploadConfirmationViewC1ERKNS_8FilePathENS_12OnceCallbackIFvRKNSt3__16vectorIN2ui16SelectedFileInfoENS7_9allocatorISA_EEEEEEESD_E3$_0JNS0_17UnretainedWrapperIS2_EEEE7DestroyEPKNS0_13BindStateBaseE") #10, !noalias !2
  %78 = getelementptr inbounds i8, i8* %76, i64 40
  %79 = bitcast i8* %78 to i64*
  store i64 %75, i64* %79, align 8, !noalias !2
  %80 = bitcast %"class.base::OnceCallback"* %7 to i8**
  store i8* %76, i8** %80, align 8, !alias.scope !2
  call void @_ZN5views14DialogDelegate17SetAcceptCallbackEN4base12OnceCallbackIFvvEEE(%"class.views::DialogDelegate"* %66, %"class.base::OnceCallback"* nonnull %7) #10
  %81 = getelementptr inbounds %"class.base::OnceCallback", %"class.base::OnceCallback"* %7, i64 0, i32 0
  call void @_ZN4base8internal12CallbackBaseD2Ev(%"class.base::internal::CallbackBase"* nonnull %81) #10
  %82 = call i8* @_Znwm(i64 48) #11, !noalias !7
  %83 = bitcast i8* %82 to %"class.base::internal::BindStateBase"*
  call void @_ZN4base8internal13BindStateBaseC2EPFvvEPFvPKS1_E(%"class.base::internal::BindStateBase"* nonnull %83, void ()* bitcast (void (%"class.base::internal::BindStateBase"*)* @"_ZN4base8internal7InvokerINS0_9BindStateIZN28FolderUploadConfirmationViewC1ERKNS_8FilePathENS_12OnceCallbackIFvRKNSt3__16vectorIN2ui16SelectedFileInfoENS8_9allocatorISB_EEEEEEESE_E3$_1JNS0_17UnretainedWrapperIS3_EEEEEFvvEE7RunOnceEPNS0_13BindStateBaseE" to void ()*), void (%"class.base::internal::BindStateBase"*)* nonnull @"_ZN4base8internal9BindStateIZN28FolderUploadConfirmationViewC1ERKNS_8FilePathENS_12OnceCallbackIFvRKNSt3__16vectorIN2ui16SelectedFileInfoENS7_9allocatorISA_EEEEEEESD_E3$_1JNS0_17UnretainedWrapperIS2_EEEE7DestroyEPKNS0_13BindStateBaseE") #10, !noalias !7
  %84 = getelementptr inbounds i8, i8* %82, i64 40
  %85 = bitcast i8* %84 to i64*
  store i64 %75, i64* %85, align 8, !noalias !7
  %86 = bitcast %"class.base::OnceCallback"* %8 to i8**
  store i8* %82, i8** %86, align 8, !alias.scope !7
  call void @_ZN5views14DialogDelegate17SetCancelCallbackEN4base12OnceCallbackIFvvEEE(%"class.views::DialogDelegate"* %66, %"class.base::OnceCallback"* nonnull %8) #10
  %87 = getelementptr inbounds %"class.base::OnceCallback", %"class.base::OnceCallback"* %8, i64 0, i32 0
  call void @_ZN4base8internal12CallbackBaseD2Ev(%"class.base::internal::CallbackBase"* nonnull %87) #10
  %88 = call i8* @_Znwm(i64 48) #11, !noalias !12
  %89 = bitcast i8* %88 to %"class.base::internal::BindStateBase"*
  call void @_ZN4base8internal13BindStateBaseC2EPFvvEPFvPKS1_E(%"class.base::internal::BindStateBase"* nonnull %89, void ()* bitcast (void (%"class.base::internal::BindStateBase"*)* @"_ZN4base8internal7InvokerINS0_9BindStateIZN28FolderUploadConfirmationViewC1ERKNS_8FilePathENS_12OnceCallbackIFvRKNSt3__16vectorIN2ui16SelectedFileInfoENS8_9allocatorISB_EEEEEEESE_E3$_2JNS0_17UnretainedWrapperIS3_EEEEEFvvEE7RunOnceEPNS0_13BindStateBaseE" to void ()*), void (%"class.base::internal::BindStateBase"*)* nonnull @"_ZN4base8internal9BindStateIZN28FolderUploadConfirmationViewC1ERKNS_8FilePathENS_12OnceCallbackIFvRKNSt3__16vectorIN2ui16SelectedFileInfoENS7_9allocatorISA_EEEEEEESD_E3$_2JNS0_17UnretainedWrapperIS2_EEEE7DestroyEPKNS0_13BindStateBaseE") #10, !noalias !12
  %90 = getelementptr inbounds i8, i8* %88, i64 40
  %91 = bitcast i8* %90 to i64*
  store i64 %75, i64* %91, align 8, !noalias !12
  %92 = bitcast %"class.base::OnceCallback"* %9 to i8**
  store i8* %88, i8** %92, align 8, !alias.scope !12
  call void @_ZN5views14DialogDelegate16SetCloseCallbackEN4base12OnceCallbackIFvvEEE(%"class.views::DialogDelegate"* %66, %"class.base::OnceCallback"* nonnull %9) #10
  %93 = getelementptr inbounds %"class.base::OnceCallback", %"class.base::OnceCallback"* %9, i64 0, i32 0
  call void @_ZN4base8internal12CallbackBaseD2Ev(%"class.base::internal::CallbackBase"* nonnull %93) #10
  call void @_ZN5views14WidgetDelegate12SetModalTypeEN2ui9ModalTypeE(%"class.views::WidgetDelegate"* %44, i32 2) #10
  call void @_ZN5views14WidgetDelegate18SetShowCloseButtonEb(%"class.views::WidgetDelegate"* %44, i1 zeroext false) #10
  %94 = call %"class.views::LayoutProvider"* @_ZN5views14LayoutProvider3GetEv() #10
  %95 = bitcast %"class.views::LayoutProvider"* %94 to i32 (%"class.views::LayoutProvider"*, i32)***
  %96 = load i32 (%"class.views::LayoutProvider"*, i32)**, i32 (%"class.views::LayoutProvider"*, i32)*** %95, align 8
  %97 = getelementptr inbounds i32 (%"class.views::LayoutProvider"*, i32)*, i32 (%"class.views::LayoutProvider"*, i32)** %96, i64 3
  %98 = load i32 (%"class.views::LayoutProvider"*, i32)*, i32 (%"class.views::LayoutProvider"*, i32)** %97, align 8
  %99 = call i32 %98(%"class.views::LayoutProvider"* %94, i32 4106) #10
  %100 = getelementptr inbounds %class.FolderUploadConfirmationView, %class.FolderUploadConfirmationView* %0, i64 0, i32 0, i32 0, i32 2
  store i32 %99, i32* %100, align 8
  %101 = bitcast %"class.views::View.base"* %15 to %"class.views::View"*
  call void @_ZN5views4View23SetUseDefaultFillLayoutEb(%"class.views::View"* %101, i1 zeroext true) #10
  %102 = bitcast %"class.std::__1::basic_string"* %10 to i8*
  call void @llvm.lifetime.start.p0i8(i64 24, i8* nonnull %102) #10
  %103 = bitcast %"class.std::__1::basic_string"* %11 to i8*
  call void @llvm.lifetime.start.p0i8(i64 24, i8* nonnull %103) #10
  %104 = bitcast %"class.base::FilePath"* %12 to i8*
  call void @llvm.lifetime.start.p0i8(i64 24, i8* nonnull %104) #10
  call void @_ZNK4base8FilePath8BaseNameEv(%"class.base::FilePath"* nonnull sret %12, %"class.base::FilePath"* %1) #10
  call void @_ZNK4base8FilePath16LossyDisplayNameEv(%"class.std::__1::basic_string"* nonnull sret %11, %"class.base::FilePath"* nonnull %12) #10
  call void @_ZN9l10n_util15GetStringFUTF16EiRKNSt3__112basic_stringIDsNS0_11char_traitsIDsEENS0_9allocatorIDsEEEE(%"class.std::__1::basic_string"* nonnull sret %10, i32 9099, %"class.std::__1::basic_string"* nonnull dereferenceable(24) %11) #10
  %105 = call i8* @_Znwm(i64 952) #11
  %106 = bitcast i8* %105 to %"class.views::Label"*
  call void @_ZN5views5LabelC1ERKNSt3__112basic_stringIDsNS1_11char_traitsIDsEENS1_9allocatorIDsEEEEiiN3gfx18DirectionalityModeE(%"class.views::Label"* nonnull %106, %"class.std::__1::basic_string"* nonnull dereferenceable(24) %10, i32 4, i32 4097, i32 0) #10
  %107 = bitcast %"class.std::__1::basic_string"* %10 to %"struct.std::__1::basic_string<char16_t, std::__1::char_traits<char16_t>, std::__1::allocator<char16_t> >::__short"*
  %108 = getelementptr inbounds %"struct.std::__1::basic_string<char16_t, std::__1::char_traits<char16_t>, std::__1::allocator<char16_t> >::__short", %"struct.std::__1::basic_string<char16_t, std::__1::char_traits<char16_t>, std::__1::allocator<char16_t> >::__short"* %107, i64 0, i32 1, i32 1
  %109 = load i8, i8* %108, align 1
  %110 = icmp slt i8 %109, 0
  br i1 %110, label %111, label %114

111:                                              ; preds = %74
  %112 = bitcast %"class.std::__1::basic_string"* %10 to i8**
  %113 = load i8*, i8** %112, align 8
  call void @_ZdlPv(i8* %113) #11
  br label %114

114:                                              ; preds = %74, %111
  %115 = bitcast %"class.std::__1::basic_string"* %11 to %"struct.std::__1::basic_string<char16_t, std::__1::char_traits<char16_t>, std::__1::allocator<char16_t> >::__short"*
  %116 = getelementptr inbounds %"struct.std::__1::basic_string<char16_t, std::__1::char_traits<char16_t>, std::__1::allocator<char16_t> >::__short", %"struct.std::__1::basic_string<char16_t, std::__1::char_traits<char16_t>, std::__1::allocator<char16_t> >::__short"* %115, i64 0, i32 1, i32 1
  %117 = load i8, i8* %116, align 1
  %118 = icmp slt i8 %117, 0
  br i1 %118, label %119, label %122

119:                                              ; preds = %114
  %120 = bitcast %"class.std::__1::basic_string"* %11 to i8**
  %121 = load i8*, i8** %120, align 8
  call void @_ZdlPv(i8* %121) #11
  br label %122

122:                                              ; preds = %119, %114
  call void @_ZN4base8FilePathD1Ev(%"class.base::FilePath"* nonnull %12) #10
  call void @llvm.lifetime.end.p0i8(i64 24, i8* nonnull %104) #10
  call void @llvm.lifetime.end.p0i8(i64 24, i8* nonnull %103) #10
  call void @llvm.lifetime.end.p0i8(i64 24, i8* nonnull %102) #10
  call void @_ZN5views5Label12SetMultiLineEb(%"class.views::Label"* nonnull %106, i1 zeroext true) #10
  call void @_ZN5views5Label22SetHorizontalAlignmentEN3gfx19HorizontalAlignmentE(%"class.views::Label"* nonnull %106, i32 0) #10
  %123 = bitcast i8* %105 to %"class.views::View"*
  %124 = getelementptr inbounds %class.FolderUploadConfirmationView, %class.FolderUploadConfirmationView* %0, i64 0, i32 0, i32 2, i32 14
  %125 = getelementptr inbounds %class.FolderUploadConfirmationView, %class.FolderUploadConfirmationView* %0, i64 0, i32 0, i32 2, i32 14, i32 0, i32 1
  %126 = bitcast %"class.views::View"*** %125 to i64*
  %127 = load i64, i64* %126, align 8
  %128 = bitcast %"class.std::__1::vector.90"* %124 to i64*
  %129 = load i64, i64* %128, align 8
  %130 = sub i64 %127, %129
  %131 = lshr exact i64 %130, 3
  %132 = trunc i64 %131 to i32
  call void @_ZN5views4View18AddChildViewAtImplEPS0_i(%"class.views::View"* %101, %"class.views::View"* nonnull %123, i32 %132) #10
  %133 = call %class.ChromeLayoutProvider* @_ZN20ChromeLayoutProvider3GetEv() #10
  %134 = getelementptr inbounds %class.ChromeLayoutProvider, %class.ChromeLayoutProvider* %133, i64 0, i32 0
  %135 = call { i64, i64 } @_ZNK5views14LayoutProvider29GetDialogInsetsForContentTypeENS_17DialogContentTypeES1_(%"class.views::LayoutProvider"* %134, i32 1, i32 1) #10
  %136 = extractvalue { i64, i64 } %135, 0
  %137 = extractvalue { i64, i64 } %135, 1
  %138 = getelementptr inbounds %class.FolderUploadConfirmationView, %class.FolderUploadConfirmationView* %0, i64 0, i32 0, i32 0, i32 1
  %139 = bitcast %"class.gfx::Insets"* %138 to i64*
  store i64 %136, i64* %139, align 8
  %140 = getelementptr inbounds %class.FolderUploadConfirmationView, %class.FolderUploadConfirmationView* %0, i64 0, i32 0, i32 0, i32 1, i32 2
  %141 = bitcast i32* %140 to i64*
  store i64 %137, i64* %141, align 8
  ret void
}

declare void @_ZN5views18DialogDelegateViewC2Ev(%"class.views::DialogDelegateView"*) unnamed_addr #1

declare void @_ZN5views14WidgetDelegate8SetTitleERKNSt3__112basic_stringIDsNS1_11char_traitsIDsEENS1_9allocatorIDsEEEE(%"class.views::WidgetDelegate"*, %"class.std::__1::basic_string"* dereferenceable(24)) local_unnamed_addr #1

; Function Attrs: argmemonly nounwind
declare void @llvm.lifetime.start.p0i8(i64 immarg, i8* nocapture) #2

declare void @_ZN9l10n_util21GetPluralStringFUTF16Eii(%"class.std::__1::basic_string"* sret, i32, i32) local_unnamed_addr #1

; Function Attrs: argmemonly nounwind
declare void @llvm.lifetime.end.p0i8(i64 immarg, i8* nocapture) #2

declare void @_ZN5views14DialogDelegate14SetButtonLabelEN2ui12DialogButtonENSt3__112basic_stringIDsNS3_11char_traitsIDsEENS3_9allocatorIDsEEEE(%"class.views::DialogDelegate"*, i32, %"class.std::__1::basic_string"*) local_unnamed_addr #1

declare void @_ZN9l10n_util14GetStringUTF16Ei(%"class.std::__1::basic_string"* sret, i32) local_unnamed_addr #1

declare void @_ZN5views14DialogDelegate17SetAcceptCallbackEN4base12OnceCallbackIFvvEEE(%"class.views::DialogDelegate"*, %"class.base::OnceCallback"*) local_unnamed_addr #1

declare void @_ZN5views14DialogDelegate17SetCancelCallbackEN4base12OnceCallbackIFvvEEE(%"class.views::DialogDelegate"*, %"class.base::OnceCallback"*) local_unnamed_addr #1

declare void @_ZN5views14DialogDelegate16SetCloseCallbackEN4base12OnceCallbackIFvvEEE(%"class.views::DialogDelegate"*, %"class.base::OnceCallback"*) local_unnamed_addr #1

declare void @_ZN5views14WidgetDelegate12SetModalTypeEN2ui9ModalTypeE(%"class.views::WidgetDelegate"*, i32) local_unnamed_addr #1

declare void @_ZN5views14WidgetDelegate18SetShowCloseButtonEb(%"class.views::WidgetDelegate"*, i1 zeroext) local_unnamed_addr #1

declare %"class.views::LayoutProvider"* @_ZN5views14LayoutProvider3GetEv() local_unnamed_addr #1

declare void @_ZN5views4View23SetUseDefaultFillLayoutEb(%"class.views::View"*, i1 zeroext) local_unnamed_addr #1

declare void @_ZN9l10n_util15GetStringFUTF16EiRKNSt3__112basic_stringIDsNS0_11char_traitsIDsEENS0_9allocatorIDsEEEE(%"class.std::__1::basic_string"* sret, i32, %"class.std::__1::basic_string"* dereferenceable(24)) local_unnamed_addr #1

declare void @_ZNK4base8FilePath8BaseNameEv(%"class.base::FilePath"* sret, %"class.base::FilePath"*) local_unnamed_addr #1

declare void @_ZNK4base8FilePath16LossyDisplayNameEv(%"class.std::__1::basic_string"* sret, %"class.base::FilePath"*) local_unnamed_addr #1

; Function Attrs: nounwind
declare void @_ZN4base8FilePathD1Ev(%"class.base::FilePath"*) unnamed_addr #3

declare void @_ZN5views5Label12SetMultiLineEb(%"class.views::Label"*, i1 zeroext) local_unnamed_addr #1

declare void @_ZN5views5Label22SetHorizontalAlignmentEN3gfx19HorizontalAlignmentE(%"class.views::Label"*, i32) local_unnamed_addr #1

declare %class.ChromeLayoutProvider* @_ZN20ChromeLayoutProvider3GetEv() local_unnamed_addr #1

declare { i64, i64 } @_ZNK5views14LayoutProvider29GetDialogInsetsForContentTypeENS_17DialogContentTypeES1_(%"class.views::LayoutProvider"*, i32, i32) local_unnamed_addr #1

; Function Attrs: nounwind ssp uwtable
define hidden void @_ZN28FolderUploadConfirmationViewD2Ev(%class.FolderUploadConfirmationView*) unnamed_addr #0 align 2 {
  %2 = getelementptr inbounds %class.FolderUploadConfirmationView, %class.FolderUploadConfirmationView* %0, i64 0, i32 0, i32 0, i32 0, i32 0
  store i32 (...)** bitcast (i8** getelementptr inbounds ({ [48 x i8*], [117 x i8*], [5 x i8*], [7 x i8*], [6 x i8*], [10 x i8*], [12 x i8*], [5 x i8*], [5 x i8*] }, { [48 x i8*], [117 x i8*], [5 x i8*], [7 x i8*], [6 x i8*], [10 x i8*], [12 x i8*], [5 x i8*], [5 x i8*] }* @_ZTV28FolderUploadConfirmationView, i64 0, inrange i32 0, i64 2) to i32 (...)**), i32 (...)*** %2, align 8
  %3 = getelementptr inbounds %class.FolderUploadConfirmationView, %class.FolderUploadConfirmationView* %0, i64 0, i32 0, i32 2, i32 0, i32 0
  %4 = bitcast i32 (...)*** %3 to <2 x i32 (...)**>*
  store <2 x i32 (...)**> <i32 (...)** bitcast (i8** getelementptr inbounds ({ [48 x i8*], [117 x i8*], [5 x i8*], [7 x i8*], [6 x i8*], [10 x i8*], [12 x i8*], [5 x i8*], [5 x i8*] }, { [48 x i8*], [117 x i8*], [5 x i8*], [7 x i8*], [6 x i8*], [10 x i8*], [12 x i8*], [5 x i8*], [5 x i8*] }* @_ZTV28FolderUploadConfirmationView, i64 0, inrange i32 1, i64 2) to i32 (...)**), i32 (...)** bitcast (i8** getelementptr inbounds ({ [48 x i8*], [117 x i8*], [5 x i8*], [7 x i8*], [6 x i8*], [10 x i8*], [12 x i8*], [5 x i8*], [5 x i8*] }, { [48 x i8*], [117 x i8*], [5 x i8*], [7 x i8*], [6 x i8*], [10 x i8*], [12 x i8*], [5 x i8*], [5 x i8*] }* @_ZTV28FolderUploadConfirmationView, i64 0, inrange i32 2, i64 2) to i32 (...)**)>, <2 x i32 (...)**>* %4, align 8
  %5 = getelementptr inbounds %class.FolderUploadConfirmationView, %class.FolderUploadConfirmationView* %0, i64 0, i32 0, i32 2, i32 2, i32 0
  store i32 (...)** bitcast (i8** getelementptr inbounds ({ [48 x i8*], [117 x i8*], [5 x i8*], [7 x i8*], [6 x i8*], [10 x i8*], [12 x i8*], [5 x i8*], [5 x i8*] }, { [48 x i8*], [117 x i8*], [5 x i8*], [7 x i8*], [6 x i8*], [10 x i8*], [12 x i8*], [5 x i8*], [5 x i8*] }* @_ZTV28FolderUploadConfirmationView, i64 0, inrange i32 3, i64 2) to i32 (...)**), i32 (...)*** %5, align 8
  %6 = getelementptr inbounds %class.FolderUploadConfirmationView, %class.FolderUploadConfirmationView* %0, i64 0, i32 0, i32 2, i32 3, i32 0
  %7 = bitcast i32 (...)*** %6 to <2 x i32 (...)**>*
  store <2 x i32 (...)**> <i32 (...)** bitcast (i8** getelementptr inbounds ({ [48 x i8*], [117 x i8*], [5 x i8*], [7 x i8*], [6 x i8*], [10 x i8*], [12 x i8*], [5 x i8*], [5 x i8*] }, { [48 x i8*], [117 x i8*], [5 x i8*], [7 x i8*], [6 x i8*], [10 x i8*], [12 x i8*], [5 x i8*], [5 x i8*] }* @_ZTV28FolderUploadConfirmationView, i64 0, inrange i32 4, i64 2) to i32 (...)**), i32 (...)** bitcast (i8** getelementptr inbounds ({ [48 x i8*], [117 x i8*], [5 x i8*], [7 x i8*], [6 x i8*], [10 x i8*], [12 x i8*], [5 x i8*], [5 x i8*] }, { [48 x i8*], [117 x i8*], [5 x i8*], [7 x i8*], [6 x i8*], [10 x i8*], [12 x i8*], [5 x i8*], [5 x i8*] }* @_ZTV28FolderUploadConfirmationView, i64 0, inrange i32 5, i64 2) to i32 (...)**)>, <2 x i32 (...)**>* %7, align 8
  %8 = getelementptr inbounds %class.FolderUploadConfirmationView, %class.FolderUploadConfirmationView* %0, i64 0, i32 0, i32 2, i32 5, i32 0
  store i32 (...)** bitcast (i8** getelementptr inbounds ({ [48 x i8*], [117 x i8*], [5 x i8*], [7 x i8*], [6 x i8*], [10 x i8*], [12 x i8*], [5 x i8*], [5 x i8*] }, { [48 x i8*], [117 x i8*], [5 x i8*], [7 x i8*], [6 x i8*], [10 x i8*], [12 x i8*], [5 x i8*], [5 x i8*] }* @_ZTV28FolderUploadConfirmationView, i64 0, inrange i32 6, i64 2) to i32 (...)**), i32 (...)*** %8, align 8
  %9 = getelementptr inbounds %class.FolderUploadConfirmationView, %class.FolderUploadConfirmationView* %0, i64 0, i32 0, i32 2, i32 6, i32 0
  store i32 (...)** bitcast (i8** getelementptr inbounds ({ [48 x i8*], [117 x i8*], [5 x i8*], [7 x i8*], [6 x i8*], [10 x i8*], [12 x i8*], [5 x i8*], [5 x i8*] }, { [48 x i8*], [117 x i8*], [5 x i8*], [7 x i8*], [6 x i8*], [10 x i8*], [12 x i8*], [5 x i8*], [5 x i8*] }* @_ZTV28FolderUploadConfirmationView, i64 0, inrange i32 7, i64 2) to i32 (...)**), i32 (...)*** %9, align 8
  %10 = getelementptr inbounds %class.FolderUploadConfirmationView, %class.FolderUploadConfirmationView* %0, i64 0, i32 0, i32 2, i32 7, i32 0
  store i32 (...)** bitcast (i8** getelementptr inbounds ({ [48 x i8*], [117 x i8*], [5 x i8*], [7 x i8*], [6 x i8*], [10 x i8*], [12 x i8*], [5 x i8*], [5 x i8*] }, { [48 x i8*], [117 x i8*], [5 x i8*], [7 x i8*], [6 x i8*], [10 x i8*], [12 x i8*], [5 x i8*], [5 x i8*] }* @_ZTV28FolderUploadConfirmationView, i64 0, inrange i32 8, i64 2) to i32 (...)**), i32 (...)*** %10, align 8
  %11 = getelementptr inbounds %class.FolderUploadConfirmationView, %class.FolderUploadConfirmationView* %0, i64 0, i32 1, i32 0
  %12 = getelementptr inbounds %"class.base::internal::CallbackBase", %"class.base::internal::CallbackBase"* %11, i64 0, i32 0, i32 0
  %13 = load %"class.base::internal::BindStateBase"*, %"class.base::internal::BindStateBase"** %12, align 8
  %14 = icmp eq %"class.base::internal::BindStateBase"* %13, null
  br i1 %14, label %18, label %15

15:                                               ; preds = %1
  %16 = bitcast %class.FolderUploadConfirmationView* %0 to %"class.views::DialogDelegate"*
  %17 = tail call zeroext i1 @_ZN5views14DialogDelegate6CancelEv(%"class.views::DialogDelegate"* %16) #10
  br label %18

18:                                               ; preds = %15, %1
  %19 = getelementptr inbounds %class.FolderUploadConfirmationView, %class.FolderUploadConfirmationView* %0, i64 0, i32 2
  %20 = getelementptr inbounds %"class.std::__1::vector.294", %"class.std::__1::vector.294"* %19, i64 0, i32 0, i32 0
  %21 = load %"struct.ui::SelectedFileInfo"*, %"struct.ui::SelectedFileInfo"** %20, align 8
  %22 = icmp eq %"struct.ui::SelectedFileInfo"* %21, null
  br i1 %22, label %37, label %23

23:                                               ; preds = %18
  %24 = bitcast %"struct.ui::SelectedFileInfo"* %21 to i8*
  %25 = getelementptr inbounds %class.FolderUploadConfirmationView, %class.FolderUploadConfirmationView* %0, i64 0, i32 2, i32 0, i32 1
  %26 = load %"struct.ui::SelectedFileInfo"*, %"struct.ui::SelectedFileInfo"** %25, align 8
  %27 = icmp eq %"struct.ui::SelectedFileInfo"* %26, %21
  br i1 %27, label %35, label %28

28:                                               ; preds = %23, %28
  %29 = phi %"struct.ui::SelectedFileInfo"* [ %30, %28 ], [ %26, %23 ]
  %30 = getelementptr inbounds %"struct.ui::SelectedFileInfo", %"struct.ui::SelectedFileInfo"* %29, i64 -1
  tail call void @_ZN2ui16SelectedFileInfoD1Ev(%"struct.ui::SelectedFileInfo"* %30) #10
  %31 = icmp eq %"struct.ui::SelectedFileInfo"* %30, %21
  br i1 %31, label %32, label %28

32:                                               ; preds = %28
  %33 = bitcast %"class.std::__1::vector.294"* %19 to i8**
  %34 = load i8*, i8** %33, align 8
  br label %35

35:                                               ; preds = %32, %23
  %36 = phi i8* [ %34, %32 ], [ %24, %23 ]
  store %"struct.ui::SelectedFileInfo"* %21, %"struct.ui::SelectedFileInfo"** %25, align 8
  tail call void @_ZdlPv(i8* %36) #11
  br label %37

37:                                               ; preds = %18, %35
  tail call void @_ZN4base8internal12CallbackBaseD2Ev(%"class.base::internal::CallbackBase"* %11) #10
  %38 = bitcast %class.FolderUploadConfirmationView* %0 to %"class.views::DialogDelegateView"*
  tail call void @_ZN5views18DialogDelegateViewD2Ev(%"class.views::DialogDelegateView"* %38) #10
  ret void
}

; Function Attrs: nounwind
declare void @_ZN4base8internal12CallbackBaseD2Ev(%"class.base::internal::CallbackBase"*) unnamed_addr #3

; Function Attrs: nounwind
declare void @_ZN5views18DialogDelegateViewD2Ev(%"class.views::DialogDelegateView"*) unnamed_addr #3

; Function Attrs: nounwind ssp uwtable
define hidden void @_ZThn536_N28FolderUploadConfirmationViewD1Ev(%class.FolderUploadConfirmationView*) unnamed_addr #0 align 2 {
  %2 = getelementptr inbounds %class.FolderUploadConfirmationView, %class.FolderUploadConfirmationView* %0, i64 -1, i32 0, i32 2, i32 4, i32 3
  %3 = bitcast %"class.ui::EventHandler"** %2 to %class.FolderUploadConfirmationView*
  tail call void @_ZN28FolderUploadConfirmationViewD2Ev(%class.FolderUploadConfirmationView* %3) #10
  ret void
}

; Function Attrs: nounwind ssp uwtable
define hidden void @_ZThn544_N28FolderUploadConfirmationViewD1Ev(%class.FolderUploadConfirmationView*) unnamed_addr #0 align 2 {
  %2 = getelementptr inbounds %class.FolderUploadConfirmationView, %class.FolderUploadConfirmationView* %0, i64 -1, i32 0, i32 2, i32 4, i32 2, i32 0, i32 2
  %3 = bitcast %"class.std::__1::__compressed_pair.71"* %2 to %class.FolderUploadConfirmationView*
  tail call void @_ZN28FolderUploadConfirmationViewD2Ev(%class.FolderUploadConfirmationView* %3) #10
  ret void
}

; Function Attrs: nounwind ssp uwtable
define hidden void @_ZThn552_N28FolderUploadConfirmationViewD1Ev(%class.FolderUploadConfirmationView*) unnamed_addr #0 align 2 {
  %2 = getelementptr inbounds %class.FolderUploadConfirmationView, %class.FolderUploadConfirmationView* %0, i64 -1, i32 0, i32 2, i32 4, i32 2, i32 0, i32 1
  %3 = bitcast %"class.ui::EventHandler"*** %2 to %class.FolderUploadConfirmationView*
  tail call void @_ZN28FolderUploadConfirmationViewD2Ev(%class.FolderUploadConfirmationView* %3) #10
  ret void
}

; Function Attrs: nounwind ssp uwtable
define hidden void @_ZThn632_N28FolderUploadConfirmationViewD1Ev(%class.FolderUploadConfirmationView*) unnamed_addr #0 align 2 {
  %2 = getelementptr inbounds %class.FolderUploadConfirmationView, %class.FolderUploadConfirmationView* %0, i64 -1, i32 0, i32 2, i32 2, i32 3, i32 1
  %3 = bitcast %"class.base::LinkedList.50"* %2 to %class.FolderUploadConfirmationView*
  tail call void @_ZN28FolderUploadConfirmationViewD2Ev(%class.FolderUploadConfirmationView* %3) #10
  ret void
}

; Function Attrs: nounwind ssp uwtable
define hidden void @_ZThn640_N28FolderUploadConfirmationViewD1Ev(%class.FolderUploadConfirmationView*) unnamed_addr #0 align 2 {
  %2 = getelementptr inbounds %class.FolderUploadConfirmationView, %class.FolderUploadConfirmationView* %0, i64 -1, i32 0, i32 2, i32 2, i32 3, i32 0, i32 0, i32 2
  %3 = bitcast %"class.std::__1::__compressed_pair.22"* %2 to %class.FolderUploadConfirmationView*
  tail call void @_ZN28FolderUploadConfirmationViewD2Ev(%class.FolderUploadConfirmationView* %3) #10
  ret void
}

; Function Attrs: nounwind ssp uwtable
define hidden void @_ZThn704_N28FolderUploadConfirmationViewD1Ev(%class.FolderUploadConfirmationView*) unnamed_addr #0 align 2 {
  %2 = getelementptr inbounds %class.FolderUploadConfirmationView, %class.FolderUploadConfirmationView* %0, i64 -1, i32 0, i32 0, i32 12
  %3 = bitcast i8* %2 to %class.FolderUploadConfirmationView*
  tail call void @_ZN28FolderUploadConfirmationViewD2Ev(%class.FolderUploadConfirmationView* %3) #10
  ret void
}

; Function Attrs: nounwind ssp uwtable
define hidden void @_ZThn744_N28FolderUploadConfirmationViewD1Ev(%class.FolderUploadConfirmationView*) unnamed_addr #0 align 2 {
  %2 = getelementptr inbounds %class.FolderUploadConfirmationView, %class.FolderUploadConfirmationView* %0, i64 -1, i32 0, i32 0, i32 8, i32 2
  %3 = bitcast i64* %2 to %class.FolderUploadConfirmationView*
  tail call void @_ZN28FolderUploadConfirmationViewD2Ev(%class.FolderUploadConfirmationView* %3) #10
  ret void
}

; Function Attrs: nounwind ssp uwtable
define hidden void @_ZThn776_N28FolderUploadConfirmationViewD1Ev(%class.FolderUploadConfirmationView*) unnamed_addr #0 align 2 {
  %2 = getelementptr inbounds %class.FolderUploadConfirmationView, %class.FolderUploadConfirmationView* %0, i64 -1, i32 0, i32 0, i32 8, i32 0, i32 0, i32 1
  %3 = bitcast %"class.base::internal::UncheckedObserverAdapter"** %2 to %class.FolderUploadConfirmationView*
  tail call void @_ZN28FolderUploadConfirmationViewD2Ev(%class.FolderUploadConfirmationView* %3) #10
  ret void
}

; Function Attrs: nounwind ssp uwtable
define hidden void @_ZN28FolderUploadConfirmationViewD0Ev(%class.FolderUploadConfirmationView*) unnamed_addr #0 align 2 {
  tail call void @_ZN28FolderUploadConfirmationViewD2Ev(%class.FolderUploadConfirmationView* %0) #10
  %2 = bitcast %class.FolderUploadConfirmationView* %0 to i8*
  tail call void @_ZdlPv(i8* %2) #11
  ret void
}

; Function Attrs: nobuiltin nounwind
declare void @_ZdlPv(i8*) local_unnamed_addr #4

; Function Attrs: nounwind ssp uwtable
define hidden void @_ZThn536_N28FolderUploadConfirmationViewD0Ev(%class.FolderUploadConfirmationView*) unnamed_addr #0 align 2 {
  %2 = getelementptr inbounds %class.FolderUploadConfirmationView, %class.FolderUploadConfirmationView* %0, i64 -1, i32 0, i32 2, i32 4, i32 3
  %3 = bitcast %"class.ui::EventHandler"** %2 to %class.FolderUploadConfirmationView*
  tail call void @_ZN28FolderUploadConfirmationViewD2Ev(%class.FolderUploadConfirmationView* %3) #10
  %4 = bitcast %"class.ui::EventHandler"** %2 to i8*
  tail call void @_ZdlPv(i8* %4) #11
  ret void
}

; Function Attrs: nounwind ssp uwtable
define hidden void @_ZThn544_N28FolderUploadConfirmationViewD0Ev(%class.FolderUploadConfirmationView*) unnamed_addr #0 align 2 {
  %2 = getelementptr inbounds %class.FolderUploadConfirmationView, %class.FolderUploadConfirmationView* %0, i64 -1, i32 0, i32 2, i32 4, i32 2, i32 0, i32 2
  %3 = bitcast %"class.std::__1::__compressed_pair.71"* %2 to %class.FolderUploadConfirmationView*
  tail call void @_ZN28FolderUploadConfirmationViewD2Ev(%class.FolderUploadConfirmationView* %3) #10
  %4 = bitcast %"class.std::__1::__compressed_pair.71"* %2 to i8*
  tail call void @_ZdlPv(i8* %4) #11
  ret void
}

; Function Attrs: nounwind ssp uwtable
define hidden void @_ZThn552_N28FolderUploadConfirmationViewD0Ev(%class.FolderUploadConfirmationView*) unnamed_addr #0 align 2 {
  %2 = getelementptr inbounds %class.FolderUploadConfirmationView, %class.FolderUploadConfirmationView* %0, i64 -1, i32 0, i32 2, i32 4, i32 2, i32 0, i32 1
  %3 = bitcast %"class.ui::EventHandler"*** %2 to %class.FolderUploadConfirmationView*
  tail call void @_ZN28FolderUploadConfirmationViewD2Ev(%class.FolderUploadConfirmationView* %3) #10
  %4 = bitcast %"class.ui::EventHandler"*** %2 to i8*
  tail call void @_ZdlPv(i8* %4) #11
  ret void
}

; Function Attrs: nounwind ssp uwtable
define hidden void @_ZThn632_N28FolderUploadConfirmationViewD0Ev(%class.FolderUploadConfirmationView*) unnamed_addr #0 align 2 {
  %2 = getelementptr inbounds %class.FolderUploadConfirmationView, %class.FolderUploadConfirmationView* %0, i64 -1, i32 0, i32 2, i32 2, i32 3, i32 1
  %3 = bitcast %"class.base::LinkedList.50"* %2 to %class.FolderUploadConfirmationView*
  tail call void @_ZN28FolderUploadConfirmationViewD2Ev(%class.FolderUploadConfirmationView* %3) #10
  %4 = bitcast %"class.base::LinkedList.50"* %2 to i8*
  tail call void @_ZdlPv(i8* %4) #11
  ret void
}

; Function Attrs: nounwind ssp uwtable
define hidden void @_ZThn640_N28FolderUploadConfirmationViewD0Ev(%class.FolderUploadConfirmationView*) unnamed_addr #0 align 2 {
  %2 = getelementptr inbounds %class.FolderUploadConfirmationView, %class.FolderUploadConfirmationView* %0, i64 -1, i32 0, i32 2, i32 2, i32 3, i32 0, i32 0, i32 2
  %3 = bitcast %"class.std::__1::__compressed_pair.22"* %2 to %class.FolderUploadConfirmationView*
  tail call void @_ZN28FolderUploadConfirmationViewD2Ev(%class.FolderUploadConfirmationView* %3) #10
  %4 = bitcast %"class.std::__1::__compressed_pair.22"* %2 to i8*
  tail call void @_ZdlPv(i8* %4) #11
  ret void
}

; Function Attrs: nounwind ssp uwtable
define hidden void @_ZThn704_N28FolderUploadConfirmationViewD0Ev(%class.FolderUploadConfirmationView*) unnamed_addr #0 align 2 {
  %2 = getelementptr inbounds %class.FolderUploadConfirmationView, %class.FolderUploadConfirmationView* %0, i64 -1, i32 0, i32 0, i32 12
  %3 = bitcast i8* %2 to %class.FolderUploadConfirmationView*
  tail call void @_ZN28FolderUploadConfirmationViewD2Ev(%class.FolderUploadConfirmationView* %3) #10
  tail call void @_ZdlPv(i8* %2) #11
  ret void
}

; Function Attrs: nounwind ssp uwtable
define hidden void @_ZThn744_N28FolderUploadConfirmationViewD0Ev(%class.FolderUploadConfirmationView*) unnamed_addr #0 align 2 {
  %2 = getelementptr inbounds %class.FolderUploadConfirmationView, %class.FolderUploadConfirmationView* %0, i64 -1, i32 0, i32 0, i32 8, i32 2
  %3 = bitcast i64* %2 to %class.FolderUploadConfirmationView*
  tail call void @_ZN28FolderUploadConfirmationViewD2Ev(%class.FolderUploadConfirmationView* %3) #10
  %4 = bitcast i64* %2 to i8*
  tail call void @_ZdlPv(i8* %4) #11
  ret void
}

; Function Attrs: nounwind ssp uwtable
define hidden void @_ZThn776_N28FolderUploadConfirmationViewD0Ev(%class.FolderUploadConfirmationView*) unnamed_addr #0 align 2 {
  %2 = getelementptr inbounds %class.FolderUploadConfirmationView, %class.FolderUploadConfirmationView* %0, i64 -1, i32 0, i32 0, i32 8, i32 0, i32 0, i32 1
  %3 = bitcast %"class.base::internal::UncheckedObserverAdapter"** %2 to %class.FolderUploadConfirmationView*
  tail call void @_ZN28FolderUploadConfirmationViewD2Ev(%class.FolderUploadConfirmationView* %3) #10
  %4 = bitcast %"class.base::internal::UncheckedObserverAdapter"** %2 to i8*
  tail call void @_ZdlPv(i8* %4) #11
  ret void
}

; Function Attrs: nounwind ssp uwtable
define hidden %"class.views::Widget"* @_ZN28FolderUploadConfirmationView10ShowDialogERKN4base8FilePathENS0_12OnceCallbackIFvRKNSt3__16vectorIN2ui16SelectedFileInfoENS5_9allocatorIS8_EEEEEEESB_PN7content11WebContentsE(%"class.base::FilePath"* dereferenceable(24), %"class.base::OnceCallback.293"* nocapture, %"class.std::__1::vector.294"* nocapture, %"class.content::WebContents"*) local_unnamed_addr #0 align 2 {
  %5 = alloca %"class.base::OnceCallback.293", align 8
  %6 = alloca %"class.std::__1::vector.294", align 16
  %7 = bitcast %"class.base::OnceCallback.293"* %5 to i8*
  call void @llvm.lifetime.start.p0i8(i64 8, i8* nonnull %7)
  %8 = bitcast %"class.std::__1::vector.294"* %6 to i8*
  call void @llvm.lifetime.start.p0i8(i64 24, i8* nonnull %8)
  %9 = tail call i8* @_Znwm(i64 1232) #11
  %10 = bitcast i8* %9 to %class.FolderUploadConfirmationView*
  %11 = getelementptr inbounds %"class.base::OnceCallback.293", %"class.base::OnceCallback.293"* %1, i64 0, i32 0, i32 0, i32 0
  %12 = bitcast %"class.base::OnceCallback.293"* %1 to i64*
  %13 = load i64, i64* %12, align 8
  %14 = bitcast %"class.base::OnceCallback.293"* %5 to i64*
  store i64 %13, i64* %14, align 8
  store %"class.base::internal::BindStateBase"* null, %"class.base::internal::BindStateBase"** %11, align 8
  %15 = bitcast %"class.std::__1::vector.294"* %2 to <2 x i64>*
  %16 = load <2 x i64>, <2 x i64>* %15, align 8
  %17 = getelementptr inbounds %"class.std::__1::vector.294", %"class.std::__1::vector.294"* %6, i64 0, i32 0, i32 1
  %18 = bitcast %"class.std::__1::vector.294"* %6 to <2 x i64>*
  store <2 x i64> %16, <2 x i64>* %18, align 16
  %19 = getelementptr inbounds %"class.std::__1::vector.294", %"class.std::__1::vector.294"* %2, i64 0, i32 0, i32 2, i32 0, i32 0
  %20 = bitcast %"struct.ui::SelectedFileInfo"** %19 to i64*
  %21 = load i64, i64* %20, align 8
  %22 = getelementptr inbounds %"class.std::__1::vector.294", %"class.std::__1::vector.294"* %6, i64 0, i32 0, i32 2, i32 0, i32 0
  %23 = bitcast %"struct.ui::SelectedFileInfo"** %22 to i64*
  store i64 %21, i64* %23, align 16
  %24 = bitcast %"class.std::__1::vector.294"* %2 to i8*
  tail call void @llvm.memset.p0i8.i64(i8* align 8 %24, i8 0, i64 24, i1 false) #10
  call void @_ZN28FolderUploadConfirmationViewC2ERKN4base8FilePathENS0_12OnceCallbackIFvRKNSt3__16vectorIN2ui16SelectedFileInfoENS5_9allocatorIS8_EEEEEEESB_(%class.FolderUploadConfirmationView* nonnull %10, %"class.base::FilePath"* dereferenceable(24) %0, %"class.base::OnceCallback.293"* nonnull %5, %"class.std::__1::vector.294"* nonnull %6) #10
  %25 = getelementptr inbounds %"class.std::__1::vector.294", %"class.std::__1::vector.294"* %6, i64 0, i32 0, i32 0
  %26 = load %"struct.ui::SelectedFileInfo"*, %"struct.ui::SelectedFileInfo"** %25, align 16
  %27 = icmp eq %"struct.ui::SelectedFileInfo"* %26, null
  %28 = bitcast %"struct.ui::SelectedFileInfo"* %26 to i8*
  br i1 %27, label %37, label %29

29:                                               ; preds = %4
  %30 = load %"struct.ui::SelectedFileInfo"*, %"struct.ui::SelectedFileInfo"** %17, align 8
  %31 = icmp eq %"struct.ui::SelectedFileInfo"* %30, %26
  br i1 %31, label %36, label %32

32:                                               ; preds = %29, %32
  %33 = phi %"struct.ui::SelectedFileInfo"* [ %34, %32 ], [ %30, %29 ]
  %34 = getelementptr inbounds %"struct.ui::SelectedFileInfo", %"struct.ui::SelectedFileInfo"* %33, i64 -1
  tail call void @_ZN2ui16SelectedFileInfoD1Ev(%"struct.ui::SelectedFileInfo"* %34) #10
  %35 = icmp eq %"struct.ui::SelectedFileInfo"* %34, %26
  br i1 %35, label %36, label %32

36:                                               ; preds = %32, %29
  store %"struct.ui::SelectedFileInfo"* %26, %"struct.ui::SelectedFileInfo"** %17, align 8
  tail call void @_ZdlPv(i8* %28) #11
  br label %37

37:                                               ; preds = %36, %4
  %38 = getelementptr inbounds %"class.base::OnceCallback.293", %"class.base::OnceCallback.293"* %5, i64 0, i32 0
  call void @_ZN4base8internal12CallbackBaseD2Ev(%"class.base::internal::CallbackBase"* nonnull %38) #10
  call void @llvm.lifetime.end.p0i8(i64 8, i8* nonnull %7)
  call void @llvm.lifetime.end.p0i8(i64 24, i8* nonnull %8)
  %39 = bitcast i8* %9 to %"class.views::WidgetDelegate"*
  %40 = call %"class.views::Widget"* @_ZN18constrained_window23ShowWebModalDialogViewsEPN5views14WidgetDelegateEPN7content11WebContentsE(%"class.views::WidgetDelegate"* nonnull %39, %"class.content::WebContents"* %3) #10
  ret %"class.views::Widget"* %40
}

declare %"class.views::Widget"* @_ZN18constrained_window23ShowWebModalDialogViewsEPN5views14WidgetDelegateEPN7content11WebContentsE(%"class.views::WidgetDelegate"*, %"class.content::WebContents"*) local_unnamed_addr #1

; Function Attrs: nounwind ssp uwtable
define hidden %"class.views::View"* @_ZN28FolderUploadConfirmationView23GetInitiallyFocusedViewEv(%class.FolderUploadConfirmationView*) unnamed_addr #0 align 2 {
  %2 = bitcast %class.FolderUploadConfirmationView* %0 to %"class.views::DialogDelegate"*
  %3 = tail call %"class.views::LabelButton"* @_ZNK5views14DialogDelegate15GetCancelButtonEv(%"class.views::DialogDelegate"* %2) #10
  %4 = bitcast %"class.views::LabelButton"* %3 to %"class.views::View"*
  ret %"class.views::View"* %4
}

declare %"class.views::LabelButton"* @_ZNK5views14DialogDelegate15GetCancelButtonEv(%"class.views::DialogDelegate"*) local_unnamed_addr #1

; Function Attrs: nounwind ssp uwtable
define hidden %"class.ui::metadata::ClassMetaData"* @_ZN28FolderUploadConfirmationView8MetaDataEv() local_unnamed_addr #0 align 2 {
  %1 = load %"class.ui::metadata::ClassMetaData"*, %"class.ui::metadata::ClassMetaData"** @_ZN28FolderUploadConfirmationView37FolderUploadConfirmationView_MetaData10meta_data_E, align 8
  %2 = icmp eq %"class.ui::metadata::ClassMetaData"* %1, null
  br i1 %2, label %3, label %7

3:                                                ; preds = %0
  %4 = tail call i8* @_Znwm(i64 96) #11
  %5 = bitcast i8* %4 to %"class.FolderUploadConfirmationView::FolderUploadConfirmationView_MetaData"*
  tail call void @_ZN28FolderUploadConfirmationView37FolderUploadConfirmationView_MetaDataC2Ev(%"class.FolderUploadConfirmationView::FolderUploadConfirmationView_MetaData"* nonnull %5) #10
  %6 = bitcast i8* %4 to %"class.ui::metadata::ClassMetaData"*
  tail call void @_ZN2ui8metadata17RegisterClassInfoENSt3__110unique_ptrINS0_13ClassMetaDataENS1_14default_deleteIS3_EEEE(%"class.ui::metadata::ClassMetaData"* nonnull %6) #10
  store i8* %4, i8** bitcast (%"class.ui::metadata::ClassMetaData"** @_ZN28FolderUploadConfirmationView37FolderUploadConfirmationView_MetaData10meta_data_E to i8**), align 8
  br label %7

7:                                                ; preds = %0, %3
  %8 = phi %"class.ui::metadata::ClassMetaData"* [ %1, %0 ], [ %6, %3 ]
  ret %"class.ui::metadata::ClassMetaData"* %8
}

; Function Attrs: nounwind ssp uwtable
define hidden %"class.ui::metadata::ClassMetaData"* @_ZN28FolderUploadConfirmationView16GetClassMetaDataEv(%class.FolderUploadConfirmationView* nocapture readnone) unnamed_addr #0 align 2 {
  %2 = load %"class.ui::metadata::ClassMetaData"*, %"class.ui::metadata::ClassMetaData"** @_ZN28FolderUploadConfirmationView37FolderUploadConfirmationView_MetaData10meta_data_E, align 8
  %3 = icmp eq %"class.ui::metadata::ClassMetaData"* %2, null
  br i1 %3, label %4, label %8

4:                                                ; preds = %1
  %5 = tail call i8* @_Znwm(i64 96) #11
  %6 = bitcast i8* %5 to %"class.FolderUploadConfirmationView::FolderUploadConfirmationView_MetaData"*
  tail call void @_ZN28FolderUploadConfirmationView37FolderUploadConfirmationView_MetaDataC2Ev(%"class.FolderUploadConfirmationView::FolderUploadConfirmationView_MetaData"* nonnull %6) #10
  %7 = bitcast i8* %5 to %"class.ui::metadata::ClassMetaData"*
  tail call void @_ZN2ui8metadata17RegisterClassInfoENSt3__110unique_ptrINS0_13ClassMetaDataENS1_14default_deleteIS3_EEEE(%"class.ui::metadata::ClassMetaData"* nonnull %7) #10
  store i8* %5, i8** bitcast (%"class.ui::metadata::ClassMetaData"** @_ZN28FolderUploadConfirmationView37FolderUploadConfirmationView_MetaData10meta_data_E to i8**), align 8
  br label %8

8:                                                ; preds = %1, %4
  %9 = phi %"class.ui::metadata::ClassMetaData"* [ %2, %1 ], [ %7, %4 ]
  ret %"class.ui::metadata::ClassMetaData"* %9
}

; Function Attrs: nounwind ssp uwtable
define hidden %"class.ui::metadata::ClassMetaData"* @_ZThn536_N28FolderUploadConfirmationView16GetClassMetaDataEv(%class.FolderUploadConfirmationView* nocapture readnone) unnamed_addr #0 align 2 {
  %2 = load %"class.ui::metadata::ClassMetaData"*, %"class.ui::metadata::ClassMetaData"** @_ZN28FolderUploadConfirmationView37FolderUploadConfirmationView_MetaData10meta_data_E, align 8
  %3 = icmp eq %"class.ui::metadata::ClassMetaData"* %2, null
  br i1 %3, label %4, label %8

4:                                                ; preds = %1
  %5 = tail call i8* @_Znwm(i64 96) #11
  %6 = bitcast i8* %5 to %"class.FolderUploadConfirmationView::FolderUploadConfirmationView_MetaData"*
  tail call void @_ZN28FolderUploadConfirmationView37FolderUploadConfirmationView_MetaDataC2Ev(%"class.FolderUploadConfirmationView::FolderUploadConfirmationView_MetaData"* nonnull %6) #10
  %7 = bitcast i8* %5 to %"class.ui::metadata::ClassMetaData"*
  tail call void @_ZN2ui8metadata17RegisterClassInfoENSt3__110unique_ptrINS0_13ClassMetaDataENS1_14default_deleteIS3_EEEE(%"class.ui::metadata::ClassMetaData"* nonnull %7) #10
  store i8* %5, i8** bitcast (%"class.ui::metadata::ClassMetaData"** @_ZN28FolderUploadConfirmationView37FolderUploadConfirmationView_MetaData10meta_data_E to i8**), align 8
  br label %8

8:                                                ; preds = %1, %4
  %9 = phi %"class.ui::metadata::ClassMetaData"* [ %2, %1 ], [ %7, %4 ]
  ret %"class.ui::metadata::ClassMetaData"* %9
}

; Function Attrs: nounwind ssp uwtable
define hidden %"class.ui::metadata::ClassMetaData"* @_ZThn776_N28FolderUploadConfirmationView16GetClassMetaDataEv(%class.FolderUploadConfirmationView* nocapture readnone) unnamed_addr #0 align 2 {
  %2 = load %"class.ui::metadata::ClassMetaData"*, %"class.ui::metadata::ClassMetaData"** @_ZN28FolderUploadConfirmationView37FolderUploadConfirmationView_MetaData10meta_data_E, align 8
  %3 = icmp eq %"class.ui::metadata::ClassMetaData"* %2, null
  br i1 %3, label %4, label %8

4:                                                ; preds = %1
  %5 = tail call i8* @_Znwm(i64 96) #11
  %6 = bitcast i8* %5 to %"class.FolderUploadConfirmationView::FolderUploadConfirmationView_MetaData"*
  tail call void @_ZN28FolderUploadConfirmationView37FolderUploadConfirmationView_MetaDataC2Ev(%"class.FolderUploadConfirmationView::FolderUploadConfirmationView_MetaData"* nonnull %6) #10
  %7 = bitcast i8* %5 to %"class.ui::metadata::ClassMetaData"*
  tail call void @_ZN2ui8metadata17RegisterClassInfoENSt3__110unique_ptrINS0_13ClassMetaDataENS1_14default_deleteIS3_EEEE(%"class.ui::metadata::ClassMetaData"* nonnull %7) #10
  store i8* %5, i8** bitcast (%"class.ui::metadata::ClassMetaData"** @_ZN28FolderUploadConfirmationView37FolderUploadConfirmationView_MetaData10meta_data_E to i8**), align 8
  br label %8

8:                                                ; preds = %1, %4
  %9 = phi %"class.ui::metadata::ClassMetaData"* [ %2, %1 ], [ %7, %4 ]
  ret %"class.ui::metadata::ClassMetaData"* %9
}

; Function Attrs: norecurse nounwind readnone ssp uwtable
define hidden i8* @_ZNK28FolderUploadConfirmationView12GetClassNameEv(%class.FolderUploadConfirmationView* nocapture readnone) unnamed_addr #5 align 2 {
  ret i8* getelementptr inbounds ([29 x i8], [29 x i8]* @_ZN28FolderUploadConfirmationView14kViewClassNameE, i64 0, i64 0)
}

; Function Attrs: norecurse nounwind readnone ssp uwtable
define hidden i8* @_ZThn536_NK28FolderUploadConfirmationView12GetClassNameEv(%class.FolderUploadConfirmationView* nocapture readnone) unnamed_addr #5 align 2 {
  ret i8* getelementptr inbounds ([29 x i8], [29 x i8]* @_ZN28FolderUploadConfirmationView14kViewClassNameE, i64 0, i64 0)
}

; Function Attrs: nounwind ssp uwtable
define hidden void @_ZN28FolderUploadConfirmationView37FolderUploadConfirmationView_MetaData13BuildMetaDataEv(%"class.FolderUploadConfirmationView::FolderUploadConfirmationView_MetaData"*) unnamed_addr #0 align 2 {
  %2 = alloca %"class.std::__1::basic_string.253", align 8
  %3 = bitcast %"class.FolderUploadConfirmationView::FolderUploadConfirmationView_MetaData"* %0 to %"class.ui::metadata::ClassMetaData"*
  %4 = bitcast %"class.std::__1::basic_string.253"* %2 to i8*
  call void @llvm.lifetime.start.p0i8(i64 24, i8* nonnull %4) #10
  %5 = tail call i8* @_Znwm(i64 32) #11
  %6 = getelementptr inbounds %"class.std::__1::basic_string.253", %"class.std::__1::basic_string.253"* %2, i64 0, i32 0, i32 0, i32 0, i32 0, i32 0, i32 0
  store i8* %5, i8** %6, align 8
  %7 = getelementptr inbounds %"class.std::__1::basic_string.253", %"class.std::__1::basic_string.253"* %2, i64 0, i32 0, i32 0, i32 0, i32 0, i32 0, i32 1
  %8 = bitcast i64* %7 to <2 x i64>*
  store <2 x i64> <i64 28, i64 -9223372036854775776>, <2 x i64>* %8, align 8
  call void @llvm.memcpy.p0i8.p0i8.i64(i8* nonnull align 1 %5, i8* align 1 getelementptr inbounds ([29 x i8], [29 x i8]* @_ZN28FolderUploadConfirmationView14kViewClassNameE, i64 0, i64 0), i64 28, i1 false) #10
  %9 = getelementptr inbounds i8, i8* %5, i64 28
  store i8 0, i8* %9, align 1
  call void @_ZN2ui8metadata13ClassMetaData11SetTypeNameERKNSt3__112basic_stringIcNS2_11char_traitsIcEENS2_9allocatorIcEEEE(%"class.ui::metadata::ClassMetaData"* %3, %"class.std::__1::basic_string.253"* nonnull dereferenceable(24) %2) #10
  %10 = bitcast %"class.std::__1::basic_string.253"* %2 to %"struct.std::__1::basic_string<char, std::__1::char_traits<char>, std::__1::allocator<char> >::__short"*
  %11 = getelementptr inbounds %"struct.std::__1::basic_string<char, std::__1::char_traits<char>, std::__1::allocator<char> >::__short", %"struct.std::__1::basic_string<char, std::__1::char_traits<char>, std::__1::allocator<char> >::__short"* %10, i64 0, i32 1, i32 0
  %12 = load i8, i8* %11, align 1
  %13 = icmp slt i8 %12, 0
  br i1 %13, label %14, label %16

14:                                               ; preds = %1
  %15 = load i8*, i8** %6, align 8
  call void @_ZdlPv(i8* %15) #11
  br label %16

16:                                               ; preds = %1, %14
  call void @llvm.lifetime.end.p0i8(i64 24, i8* nonnull %4) #10
  %17 = call %"class.ui::metadata::ClassMetaData"* @_ZN5views18DialogDelegateView8MetaDataEv() #10
  %18 = getelementptr inbounds %"class.FolderUploadConfirmationView::FolderUploadConfirmationView_MetaData", %"class.FolderUploadConfirmationView::FolderUploadConfirmationView_MetaData"* %0, i64 0, i32 0, i32 3
  store %"class.ui::metadata::ClassMetaData"* %17, %"class.ui::metadata::ClassMetaData"** %18, align 8
  ret void
}

declare void @_ZN2ui8metadata13ClassMetaData11SetTypeNameERKNSt3__112basic_stringIcNS2_11char_traitsIcEENS2_9allocatorIcEEEE(%"class.ui::metadata::ClassMetaData"*, %"class.std::__1::basic_string.253"* dereferenceable(24)) local_unnamed_addr #1

declare %"class.ui::metadata::ClassMetaData"* @_ZN5views18DialogDelegateView8MetaDataEv() local_unnamed_addr #1

; Function Attrs: nounwind ssp uwtable
define hidden void @_Z34ShowFolderUploadConfirmationDialogRKN4base8FilePathENS_12OnceCallbackIFvRKNSt3__16vectorIN2ui16SelectedFileInfoENS4_9allocatorIS7_EEEEEEESA_PN7content11WebContentsE(%"class.base::FilePath"* dereferenceable(24), %"class.base::OnceCallback.293"* nocapture, %"class.std::__1::vector.294"* nocapture, %"class.content::WebContents"*) local_unnamed_addr #0 {
  %5 = alloca %"class.base::OnceCallback.293", align 8
  %6 = alloca %"class.std::__1::vector.294", align 16
  %7 = getelementptr inbounds %"class.base::OnceCallback.293", %"class.base::OnceCallback.293"* %1, i64 0, i32 0, i32 0, i32 0
  %8 = bitcast %"class.base::OnceCallback.293"* %1 to i64*
  %9 = load i64, i64* %8, align 8
  %10 = bitcast %"class.base::OnceCallback.293"* %5 to i64*
  store i64 %9, i64* %10, align 8
  store %"class.base::internal::BindStateBase"* null, %"class.base::internal::BindStateBase"** %7, align 8
  %11 = bitcast %"class.std::__1::vector.294"* %2 to <2 x i64>*
  %12 = load <2 x i64>, <2 x i64>* %11, align 8
  %13 = getelementptr inbounds %"class.std::__1::vector.294", %"class.std::__1::vector.294"* %6, i64 0, i32 0, i32 1
  %14 = bitcast %"class.std::__1::vector.294"* %6 to <2 x i64>*
  store <2 x i64> %12, <2 x i64>* %14, align 16
  %15 = getelementptr inbounds %"class.std::__1::vector.294", %"class.std::__1::vector.294"* %2, i64 0, i32 0, i32 2, i32 0, i32 0
  %16 = bitcast %"struct.ui::SelectedFileInfo"** %15 to i64*
  %17 = load i64, i64* %16, align 8
  %18 = getelementptr inbounds %"class.std::__1::vector.294", %"class.std::__1::vector.294"* %6, i64 0, i32 0, i32 2, i32 0, i32 0
  %19 = bitcast %"struct.ui::SelectedFileInfo"** %18 to i64*
  store i64 %17, i64* %19, align 16
  %20 = bitcast %"class.std::__1::vector.294"* %2 to i8*
  tail call void @llvm.memset.p0i8.i64(i8* align 8 %20, i8 0, i64 24, i1 false) #10
  %21 = call %"class.views::Widget"* @_ZN28FolderUploadConfirmationView10ShowDialogERKN4base8FilePathENS0_12OnceCallbackIFvRKNSt3__16vectorIN2ui16SelectedFileInfoENS5_9allocatorIS8_EEEEEEESB_PN7content11WebContentsE(%"class.base::FilePath"* dereferenceable(24) %0, %"class.base::OnceCallback.293"* nonnull %5, %"class.std::__1::vector.294"* nonnull %6, %"class.content::WebContents"* %3)
  %22 = getelementptr inbounds %"class.std::__1::vector.294", %"class.std::__1::vector.294"* %6, i64 0, i32 0, i32 0
  %23 = load %"struct.ui::SelectedFileInfo"*, %"struct.ui::SelectedFileInfo"** %22, align 16
  %24 = icmp eq %"struct.ui::SelectedFileInfo"* %23, null
  %25 = bitcast %"struct.ui::SelectedFileInfo"* %23 to i8*
  br i1 %24, label %34, label %26

26:                                               ; preds = %4
  %27 = load %"struct.ui::SelectedFileInfo"*, %"struct.ui::SelectedFileInfo"** %13, align 8
  %28 = icmp eq %"struct.ui::SelectedFileInfo"* %27, %23
  br i1 %28, label %33, label %29

29:                                               ; preds = %26, %29
  %30 = phi %"struct.ui::SelectedFileInfo"* [ %31, %29 ], [ %27, %26 ]
  %31 = getelementptr inbounds %"struct.ui::SelectedFileInfo", %"struct.ui::SelectedFileInfo"* %30, i64 -1
  tail call void @_ZN2ui16SelectedFileInfoD1Ev(%"struct.ui::SelectedFileInfo"* %31) #10
  %32 = icmp eq %"struct.ui::SelectedFileInfo"* %31, %23
  br i1 %32, label %33, label %29

33:                                               ; preds = %29, %26
  store %"struct.ui::SelectedFileInfo"* %23, %"struct.ui::SelectedFileInfo"** %13, align 8
  tail call void @_ZdlPv(i8* %25) #11
  br label %34

34:                                               ; preds = %4, %33
  %35 = getelementptr inbounds %"class.base::OnceCallback.293", %"class.base::OnceCallback.293"* %5, i64 0, i32 0
  call void @_ZN4base8internal12CallbackBaseD2Ev(%"class.base::internal::CallbackBase"* nonnull %35) #10
  ret void
}

; Function Attrs: nounwind
declare void @_ZN2ui8metadata13ClassMetaDataD2Ev(%"class.ui::metadata::ClassMetaData"*) unnamed_addr #3

; Function Attrs: inlinehint nounwind ssp uwtable
define linkonce_odr hidden void @_ZN28FolderUploadConfirmationView37FolderUploadConfirmationView_MetaDataD0Ev(%"class.FolderUploadConfirmationView::FolderUploadConfirmationView_MetaData"*) unnamed_addr #6 comdat align 2 {
  %2 = bitcast %"class.FolderUploadConfirmationView::FolderUploadConfirmationView_MetaData"* %0 to %"class.ui::metadata::ClassMetaData"*
  tail call void @_ZN2ui8metadata13ClassMetaDataD2Ev(%"class.ui::metadata::ClassMetaData"* %2) #10
  %3 = bitcast %"class.FolderUploadConfirmationView::FolderUploadConfirmationView_MetaData"* %0 to i8*
  tail call void @_ZdlPv(i8* %3) #11
  ret void
}

declare void @_ZN5views14WidgetDelegate12OnWidgetMoveEv(%"class.views::WidgetDelegate"*) unnamed_addr #1

declare void @_ZN5views14WidgetDelegate16OnDisplayChangedEv(%"class.views::WidgetDelegate"*) unnamed_addr #1

declare void @_ZN5views14WidgetDelegate17OnWorkAreaChangedEv(%"class.views::WidgetDelegate"*) unnamed_addr #1

; Function Attrs: nounwind ssp uwtable
define linkonce_odr hidden void @_ZN5views14WidgetDelegate20OnWidgetInitializingEv(%"class.views::WidgetDelegate"*) unnamed_addr #0 comdat align 2 {
  ret void
}

declare void @_ZN5views14DialogDelegate19OnWidgetInitializedEv(%"class.views::DialogDelegate"*) unnamed_addr #1

declare zeroext i1 @_ZN5views14WidgetDelegate16OnCloseRequestedENS_6Widget12ClosedReasonE(%"class.views::WidgetDelegate"*, i32) unnamed_addr #1

declare %"class.views::BubbleDialogDelegate"* @_ZN5views14WidgetDelegate22AsBubbleDialogDelegateEv(%"class.views::WidgetDelegate"*) unnamed_addr #1

declare %"class.views::DialogDelegate"* @_ZN5views14DialogDelegate16AsDialogDelegateEv(%"class.views::DialogDelegate"*) unnamed_addr #1

declare zeroext i1 @_ZNK5views14WidgetDelegate11CanMaximizeEv(%"class.views::WidgetDelegate"*) unnamed_addr #1

declare zeroext i1 @_ZNK5views14WidgetDelegate11CanMinimizeEv(%"class.views::WidgetDelegate"*) unnamed_addr #1

declare zeroext i1 @_ZNK5views14WidgetDelegate11CanActivateEv(%"class.views::WidgetDelegate"*) unnamed_addr #1

declare i32 @_ZNK5views14WidgetDelegate12GetModalTypeEv(%"class.views::WidgetDelegate"*) unnamed_addr #1

declare i32 @_ZN5views14DialogDelegate23GetAccessibleWindowRoleEv(%"class.views::DialogDelegate"*) unnamed_addr #1

declare void @_ZNK5views14WidgetDelegate24GetAccessibleWindowTitleEv(%"class.std::__1::basic_string"* sret, %"class.views::WidgetDelegate"*) unnamed_addr #1

declare void @_ZNK5views14WidgetDelegate14GetWindowTitleEv(%"class.std::__1::basic_string"* sret, %"class.views::WidgetDelegate"*) unnamed_addr #1

declare zeroext i1 @_ZNK5views14WidgetDelegate21ShouldShowWindowTitleEv(%"class.views::WidgetDelegate"*) unnamed_addr #1

declare zeroext i1 @_ZNK5views14WidgetDelegate21ShouldShowCloseButtonEv(%"class.views::WidgetDelegate"*) unnamed_addr #1

declare void @_ZN5views14WidgetDelegate16GetWindowAppIconEv(%"class.gfx::ImageSkia"* sret, %"class.views::WidgetDelegate"*) unnamed_addr #1

declare void @_ZN5views14WidgetDelegate13GetWindowIconEv(%"class.gfx::ImageSkia"* sret, %"class.views::WidgetDelegate"*) unnamed_addr #1

declare zeroext i1 @_ZN5views14WidgetDelegate21ExecuteWindowsCommandEi(%"class.views::WidgetDelegate"*, i32) unnamed_addr #1

declare void @_ZNK5views14WidgetDelegate13GetWindowNameEv(%"class.std::__1::basic_string.253"* sret, %"class.views::WidgetDelegate"*) unnamed_addr #1

declare void @_ZN5views14WidgetDelegate19SaveWindowPlacementERKN3gfx4RectEN2ui15WindowShowStateE(%"class.views::WidgetDelegate"*, %"class.gfx::Rect"* dereferenceable(16), i32) unnamed_addr #1

declare zeroext i1 @_ZNK5views14WidgetDelegate23GetSavedWindowPlacementEPKNS_6WidgetEPN3gfx4RectEPN2ui15WindowShowStateE(%"class.views::WidgetDelegate"*, %"class.views::Widget"*, %"class.gfx::Rect"*, i32*) unnamed_addr #1

declare void @_ZN5views14WidgetDelegate13WindowClosingEv(%"class.views::WidgetDelegate"*) unnamed_addr #1

declare void @_ZN5views14WidgetDelegate14DeleteDelegateEv(%"class.views::WidgetDelegate"*) unnamed_addr #1

; Function Attrs: nounwind ssp uwtable
define linkonce_odr hidden void @_ZN5views14WidgetDelegate29OnWindowBeginUserBoundsChangeEv(%"class.views::WidgetDelegate"*) unnamed_addr #0 comdat align 2 {
  ret void
}

; Function Attrs: nounwind ssp uwtable
define linkonce_odr hidden void @_ZN5views14WidgetDelegate27OnWindowEndUserBoundsChangeEv(%"class.views::WidgetDelegate"*) unnamed_addr #0 comdat align 2 {
  ret void
}

declare %"class.views::Widget"* @_ZN5views18DialogDelegateView9GetWidgetEv(%"class.views::DialogDelegateView"*) unnamed_addr #1

declare %"class.views::Widget"* @_ZNK5views18DialogDelegateView9GetWidgetEv(%"class.views::DialogDelegateView"*) unnamed_addr #1

declare %"class.views::View"* @_ZN5views18DialogDelegateView15GetContentsViewEv(%"class.views::DialogDelegateView"*) unnamed_addr #1

declare %"class.views::ClientView"* @_ZN5views14DialogDelegate16CreateClientViewEPNS_6WidgetE(%"class.views::DialogDelegate"*, %"class.views::Widget"*) unnamed_addr #1

declare %"class.views::NonClientFrameView"* @_ZN5views14DialogDelegate24CreateNonClientFrameViewEPNS_6WidgetE(%"class.views::DialogDelegate"*, %"class.views::Widget"*) unnamed_addr #1

declare %"class.views::View"* @_ZN5views14WidgetDelegate17CreateOverlayViewEv(%"class.views::WidgetDelegate"*) unnamed_addr #1

declare zeroext i1 @_ZNK5views14WidgetDelegate20WidgetHasHitTestMaskEv(%"class.views::WidgetDelegate"*) unnamed_addr #1

declare void @_ZNK5views14WidgetDelegate20GetWidgetHitTestMaskEP6SkPath(%"class.views::WidgetDelegate"*, %class.SkPath*) unnamed_addr #1

declare zeroext i1 @_ZN5views14WidgetDelegate38ShouldDescendIntoChildForEventHandlingEPN4aura6WindowERKN3gfx5PointE(%"class.views::WidgetDelegate"*, %"class.aura::Window"*, %"class.gfx::Point"* dereferenceable(8)) unnamed_addr #1

; Function Attrs: nounwind ssp uwtable
define linkonce_odr hidden void @_ZN5views14WidgetDelegate18GetAccessiblePanesEPNSt3__16vectorIPNS_4ViewENS1_9allocatorIS4_EEEE(%"class.views::WidgetDelegate"*, %"class.std::__1::vector.90"*) unnamed_addr #0 comdat align 2 {
  ret void
}

; Function Attrs: nounwind ssp uwtable
define linkonce_odr hidden void @_ZN5views14DialogDelegate19OnDialogInitializedEv(%"class.views::DialogDelegate"*) unnamed_addr #0 comdat align 2 {
  ret void
}

declare zeroext i1 @_ZNK5views14DialogDelegate21IsDialogButtonEnabledEN2ui12DialogButtonE(%"class.views::DialogDelegate"*, i32) unnamed_addr #1

declare zeroext i1 @_ZN5views14DialogDelegate6CancelEv(%"class.views::DialogDelegate"*) unnamed_addr #1

declare zeroext i1 @_ZN5views14DialogDelegate6AcceptEv(%"class.views::DialogDelegate"*) unnamed_addr #1

declare void @_ZN5views4View12OnPaintLayerERKN2ui12PaintContextE(%"class.views::View"*, %"class.ui::PaintContext"* dereferenceable(40)) unnamed_addr #1

declare void @_ZN5views4View26OnDeviceScaleFactorChangedEff(%"class.views::View"*, float, float) unnamed_addr #1

declare void @_ZN2ui13LayerDelegate20OnLayerBoundsChangedERKN3gfx4RectENS_20PropertyChangeReasonE(%"class.ui::LayerDelegate"*, %"class.gfx::Rect"* dereferenceable(16), i32) unnamed_addr #1

declare void @_ZN5views4View18OnLayerTransformedERKN3gfx9TransformEN2ui20PropertyChangeReasonE(%"class.views::View"*, %"class.gfx::Transform"* dereferenceable(68), i32) unnamed_addr #1

declare void @_ZN2ui13LayerDelegate21OnLayerOpacityChangedENS_20PropertyChangeReasonE(%"class.ui::LayerDelegate"*, i32) unnamed_addr #1

declare void @_ZN2ui13LayerDelegate24OnLayerAlphaShapeChangedEv(%"class.ui::LayerDelegate"*) unnamed_addr #1

declare void @_ZN2ui13LayerDelegate33OnLayerFillsBoundsOpaquelyChangedENS_20PropertyChangeReasonE(%"class.ui::LayerDelegate"*, i32) unnamed_addr #1

declare void @_ZN2ui13LayerDelegate17UpdateVisualStateEv(%"class.ui::LayerDelegate"*) unnamed_addr #1

; Function Attrs: nounwind ssp uwtable
declare %"class.views::Widget"* @_ZThn536_NK5views18DialogDelegateView9GetWidgetEv(%"class.views::DialogDelegateView"*) unnamed_addr #0 align 2

; Function Attrs: nounwind ssp uwtable
declare %"class.views::Widget"* @_ZThn536_N5views18DialogDelegateView9GetWidgetEv(%"class.views::DialogDelegateView"*) unnamed_addr #0 align 2

declare { i64, i64 } @_ZNK5views4View9GetInsetsEv(%"class.views::View"*) unnamed_addr #1

declare { i64, i64 } @_ZNK5views4View23GetAnchorBoundsInScreenEv(%"class.views::View"*) unnamed_addr #1

declare i32 @_ZNK5views4View11GetBaselineEv(%"class.views::View"*) unnamed_addr #1

declare i64 @_ZNK5views4View14GetMinimumSizeEv(%"class.views::View"*) unnamed_addr #1

declare i64 @_ZNK5views4View14GetMaximumSizeEv(%"class.views::View"*) unnamed_addr #1

declare i32 @_ZNK5views4View17GetHeightForWidthEi(%"class.views::View"*, i32) unnamed_addr #1

declare void @_ZNK5views4View16GetAvailableSizeEPKS0_(%"class.views::SizeBounds"* sret, %"class.views::View"*, %"class.views::View"*) unnamed_addr #1

declare void @_ZN5views4View10SetVisibleEb(%"class.views::View"*, i1 zeroext) unnamed_addr #1

declare zeroext i1 @_ZNK5views4View7IsDrawnEv(%"class.views::View"*) unnamed_addr #1

declare void @_ZN5views4View19GetChildrenInZOrderEv(%"class.std::__1::vector.90"* sret, %"class.views::View"*) unnamed_addr #1

declare void @_ZN5views4View19AddLayerBeneathViewEPN2ui5LayerE(%"class.views::View"*, %"class.ui::Layer"*) unnamed_addr #1

declare void @_ZN5views4View22RemoveLayerBeneathViewEPN2ui5LayerE(%"class.views::View"*, %"class.ui::Layer"*) unnamed_addr #1

declare void @_ZN5views4View14LayerDestroyedEPN2ui5LayerE(%"class.views::View"*, %"class.ui::Layer"*) unnamed_addr #1

declare %"class.ui::Layer"* @_ZN5views4View13RecreateLayerEv(%"class.views::View"*) unnamed_addr #1

declare void @_ZN5views4View6LayoutEv(%"class.views::View"*) unnamed_addr #1

declare zeroext i1 @_ZNK5views4View23IsGroupFocusTraversableEv(%"class.views::View"*) unnamed_addr #1

declare %"class.views::View"* @_ZN5views4View23GetSelectedViewForGroupEi(%"class.views::View"*, i32) unnamed_addr #1

declare void @_ZN5views4View9SetBorderENSt3__110unique_ptrINS_6BorderENS1_14default_deleteIS3_EEEE(%"class.views::View"*, %"class.views::Border"*) unnamed_addr #1

declare %"class.views::View"* @_ZN5views4View25GetTooltipHandlerForPointERKN3gfx5PointE(%"class.views::View"*, %"class.gfx::Point"* dereferenceable(8)) unnamed_addr #1

declare void @_ZN5views4View9GetCursorERKN2ui10MouseEventE() unnamed_addr

declare zeroext i1 @_ZNK5views4View32GetCanProcessEventsWithinSubtreeEv(%"class.views::View"*) unnamed_addr #1

declare zeroext i1 @_ZN5views4View14OnMousePressedERKN2ui10MouseEventE(%"class.views::View"*, %"class.ui::MouseEvent"* dereferenceable(216)) unnamed_addr #1

declare zeroext i1 @_ZN5views4View14OnMouseDraggedERKN2ui10MouseEventE(%"class.views::View"*, %"class.ui::MouseEvent"* dereferenceable(216)) unnamed_addr #1

declare void @_ZN5views4View15OnMouseReleasedERKN2ui10MouseEventE(%"class.views::View"*, %"class.ui::MouseEvent"* dereferenceable(216)) unnamed_addr #1

declare void @_ZN5views4View18OnMouseCaptureLostEv(%"class.views::View"*) unnamed_addr #1

declare void @_ZN5views4View12OnMouseMovedERKN2ui10MouseEventE(%"class.views::View"*, %"class.ui::MouseEvent"* dereferenceable(216)) unnamed_addr #1

declare void @_ZN5views4View14OnMouseEnteredERKN2ui10MouseEventE(%"class.views::View"*, %"class.ui::MouseEvent"* dereferenceable(216)) unnamed_addr #1

declare void @_ZN5views4View13OnMouseExitedERKN2ui10MouseEventE(%"class.views::View"*, %"class.ui::MouseEvent"* dereferenceable(216)) unnamed_addr #1

declare void @_ZN5views4View25SetMouseAndGestureHandlerEPS0_(%"class.views::View"*, %"class.views::View"*) unnamed_addr #1

declare void @_ZN5views4View15SetMouseHandlerEPS0_(%"class.views::View"*, %"class.views::View"*) unnamed_addr #1

declare zeroext i1 @_ZN5views4View12OnKeyPressedERKN2ui8KeyEventE(%"class.views::View"*, %"class.ui::KeyEvent"* dereferenceable(168)) unnamed_addr #1

declare zeroext i1 @_ZN5views4View13OnKeyReleasedERKN2ui8KeyEventE(%"class.views::View"*, %"class.ui::KeyEvent"* dereferenceable(168)) unnamed_addr #1

declare zeroext i1 @_ZN5views4View12OnMouseWheelERKN2ui15MouseWheelEventE(%"class.views::View"*, %"class.ui::MouseWheelEvent"* dereferenceable(232)) unnamed_addr #1

declare %"class.views::WordLookupClient"* @_ZN5views4View19GetWordLookupClientEv(%"class.views::View"*) unnamed_addr #1

declare zeroext i1 @_ZN5views4View14CanAcceptEventERKN2ui5EventE(%"class.views::View"*, %"class.ui::Event"* dereferenceable(144)) unnamed_addr #1

declare %"class.ui::EventTarget"* @_ZN5views4View15GetParentTargetEv(%"class.views::View"*) unnamed_addr #1

declare void @_ZNK5views4View16GetChildIteratorEv() unnamed_addr

declare %"class.ui::EventTargeter"* @_ZN5views4View16GetEventTargeterEv(%"class.views::View"*) unnamed_addr #1

declare void @_ZNK5views4View20ConvertEventToTargetEPKN2ui11EventTargetEPNS1_12LocatedEventE(%"class.views::View"*, %"class.ui::EventTarget"*, %"class.ui::LocatedEvent"*) unnamed_addr #1

declare <2 x float> @_ZNK5views4View18GetScreenLocationFERKN2ui12LocatedEventE(%"class.views::View"*, %"class.ui::LocatedEvent"* dereferenceable(160)) unnamed_addr #1

declare void @_ZN5views4View10OnKeyEventEPN2ui8KeyEventE(%"class.views::View"*, %"class.ui::KeyEvent"*) unnamed_addr #1

declare void @_ZN5views4View12OnMouseEventEPN2ui10MouseEventE(%"class.views::View"*, %"class.ui::MouseEvent"*) unnamed_addr #1

declare void @_ZN5views4View13OnScrollEventEPN2ui11ScrollEventE(%"class.views::View"*, %"class.ui::ScrollEvent"*) unnamed_addr #1

declare void @_ZN5views4View12OnTouchEventEPN2ui10TouchEventE(%"class.views::View"*, %"class.ui::TouchEvent"*) unnamed_addr #1

declare void @_ZN5views4View14OnGestureEventEPN2ui12GestureEventE(%"class.views::View"*, %"class.ui::GestureEvent"*) unnamed_addr #1

declare { i8*, i64 } @_ZNK5views4View13GetLogContextEv(%"class.views::View"*) unnamed_addr #1

declare zeroext i1 @_ZN5views4View18AcceleratorPressedERKN2ui11AcceleratorE(%"class.views::View"*, %"class.ui::Accelerator"* dereferenceable(32)) unnamed_addr #1

declare zeroext i1 @_ZNK5views4View21CanHandleAcceleratorsEv(%"class.views::View"*) unnamed_addr #1

declare zeroext i1 @_ZNK5views4View8HasFocusEv(%"class.views::View"*) unnamed_addr #1

declare i32 @_ZNK5views4View16GetFocusBehaviorEv(%"class.views::View"*) unnamed_addr #1

declare void @_ZN5views4View12RequestFocusEv(%"class.views::View"*) unnamed_addr #1

; Function Attrs: nounwind ssp uwtable
define linkonce_odr hidden void @_ZN5views4View35AboutToRequestFocusFromTabTraversalEb(%"class.views::View"*, i1 zeroext) unnamed_addr #0 comdat align 2 {
  ret void
}

declare zeroext i1 @_ZN5views4View29SkipDefaultKeyEventProcessingERKN2ui8KeyEventE(%"class.views::View"*, %"class.ui::KeyEvent"* dereferenceable(168)) unnamed_addr #1

declare %"class.views::FocusTraversable"* @_ZN5views4View19GetFocusTraversableEv(%"class.views::View"*) unnamed_addr #1

declare %"class.views::FocusTraversable"* @_ZN5views4View23GetPaneFocusTraversableEv(%"class.views::View"*) unnamed_addr #1

declare void @_ZNK5views4View14GetTooltipTextERKN3gfx5PointE(%"class.std::__1::basic_string"* sret, %"class.views::View"*, %"class.gfx::Point"* dereferenceable(8)) unnamed_addr #1

declare void @_ZN5views4View15ShowContextMenuERKN3gfx5PointEN2ui14MenuSourceTypeE(%"class.views::View"*, %"class.gfx::Point"* dereferenceable(8), i32) unnamed_addr #1

declare i64 @_ZN5views4View30GetKeyboardContextMenuLocationEv(%"class.views::View"*) unnamed_addr #1

declare zeroext i1 @_ZN5views4View14GetDropFormatsEPiPNSt3__13setIN2ui19ClipboardFormatTypeENS2_4lessIS5_EENS2_9allocatorIS5_EEEE(%"class.views::View"*, i32*, %"class.std::__1::set"*) unnamed_addr #1

declare zeroext i1 @_ZN5views4View20AreDropTypesRequiredEv(%"class.views::View"*) unnamed_addr #1

declare zeroext i1 @_ZN5views4View7CanDropERKN2ui14OSExchangeDataE(%"class.views::View"*, %"class.ui::OSExchangeData"* dereferenceable(8)) unnamed_addr #1

declare void @_ZN5views4View13OnDragEnteredERKN2ui15DropTargetEventE(%"class.views::View"*, %"class.ui::DropTargetEvent"* dereferenceable(176)) unnamed_addr #1

declare i32 @_ZN5views4View13OnDragUpdatedERKN2ui15DropTargetEventE(%"class.views::View"*, %"class.ui::DropTargetEvent"* dereferenceable(176)) unnamed_addr #1

declare void @_ZN5views4View12OnDragExitedEv(%"class.views::View"*) unnamed_addr #1

declare i32 @_ZN5views4View13OnPerformDropERKN2ui15DropTargetEventE(%"class.views::View"*, %"class.ui::DropTargetEvent"* dereferenceable(176)) unnamed_addr #1

declare void @_ZN5views4View10OnDragDoneEv(%"class.views::View"*) unnamed_addr #1

declare void @_ZN5views4View15GetDropCallbackERKN2ui15DropTargetEventE() unnamed_addr

; Function Attrs: nounwind ssp uwtable
define linkonce_odr hidden void @_ZN5views4View21GetAccessibleNodeDataEPN2ui10AXNodeDataE(%"class.views::View"*, %"struct.ui::AXNodeData"*) unnamed_addr #0 comdat align 2 {
  ret void
}

declare zeroext i1 @_ZN5views4View22HandleAccessibleActionERKN2ui12AXActionDataE(%"class.views::View"*, %"struct.ui::AXActionData"*) unnamed_addr #1

declare %struct._AtkObject* @_ZN5views4View23GetNativeViewAccessibleEv(%"class.views::View"*) unnamed_addr #1

declare void @_ZN5views4View20OnAccessibilityEventEN2ax5mojom5EventE(%"class.views::View"*, i32) unnamed_addr #1

declare void @_ZN5views4View19ScrollRectToVisibleERKN3gfx4RectE(%"class.views::View"*, %"class.gfx::Rect"* dereferenceable(16)) unnamed_addr #1

declare i64 @_ZNK5views4View22CalculatePreferredSizeEv(%"class.views::View"*) unnamed_addr #1

; Function Attrs: nounwind ssp uwtable
define linkonce_odr hidden void @_ZN5views4View15OnBoundsChangedERKN3gfx4RectE(%"class.views::View"*, %"class.gfx::Rect"* dereferenceable(16)) unnamed_addr #0 comdat align 2 {
  ret void
}

; Function Attrs: nounwind ssp uwtable
define linkonce_odr hidden void @_ZN5views4View25ChildPreferredSizeChangedEPS0_(%"class.views::View"*, %"class.views::View"*) unnamed_addr #0 comdat align 2 {
  ret void
}

; Function Attrs: nounwind ssp uwtable
define linkonce_odr hidden void @_ZN5views4View22ChildVisibilityChangedEPS0_(%"class.views::View"*, %"class.views::View"*) unnamed_addr #0 comdat align 2 {
  ret void
}

declare void @_ZN5views4View20PreferredSizeChangedEv(%"class.views::View"*) unnamed_addr #1

declare zeroext i1 @_ZNK5views4View43GetNeedsNotificationWhenVisibleBoundsChangeEv(%"class.views::View"*) unnamed_addr #1

declare void @_ZN5views4View22OnVisibleBoundsChangedEv(%"class.views::View"*) unnamed_addr #1

declare void @_ZN5views4View20ViewHierarchyChangedERKNS_27ViewHierarchyChangedDetailsE(%"class.views::View"*, %"struct.views::ViewHierarchyChangedDetails"* dereferenceable(32)) unnamed_addr #1

declare void @_ZN5views4View17VisibilityChangedEPS0_b(%"class.views::View"*, %"class.views::View"*, i1 zeroext) unnamed_addr #1

declare void @_ZN5views4View26NativeViewHierarchyChangedEv(%"class.views::View"*) unnamed_addr #1

declare void @_ZN5views4View13AddedToWidgetEv(%"class.views::View"*) unnamed_addr #1

declare void @_ZN5views4View17RemovedFromWidgetEv(%"class.views::View"*) unnamed_addr #1

declare void @_ZN5views4View18OnDidSchedulePaintERKN3gfx4RectE(%"class.views::View"*, %"class.gfx::Rect"* dereferenceable(16)) unnamed_addr #1

declare void @_ZN5views4View13PaintChildrenERKNS_9PaintInfoE(%"class.views::View"*, %"class.views::PaintInfo"* dereferenceable(88)) unnamed_addr #1

declare void @_ZN5views4View7OnPaintEPN3gfx6CanvasE(%"class.views::View"*, %"class.gfx::Canvas"*) unnamed_addr #1

declare void @_ZN5views4View17OnPaintBackgroundEPN3gfx6CanvasE(%"class.views::View"*, %"class.gfx::Canvas"*) unnamed_addr #1

declare void @_ZN5views4View13OnPaintBorderEPN3gfx6CanvasE(%"class.views::View"*, %"class.gfx::Canvas"*) unnamed_addr #1

declare i32 @_ZNK5views4View17GetPaintScaleTypeEv(%"class.views::View"*) unnamed_addr #1

declare void @_ZN5views4View34CalculateOffsetToAncestorWithLayerEPPN2ui5LayerE(%"class.views::View::LayerOffsetData"* sret, %"class.views::View"*, %"class.ui::Layer"**) unnamed_addr #1

declare void @_ZN5views4View17UpdateParentLayerEv(%"class.views::View"*) unnamed_addr #1

declare void @_ZN5views4View18ReorderChildLayersEPN2ui5LayerE(%"class.views::View"*, %"class.ui::Layer"*) unnamed_addr #1

declare void @_ZN5views4View19OnChildLayerChangedEPS0_(%"class.views::View"*, %"class.views::View"*) unnamed_addr #1

declare %"struct.views::View::DragInfo"* @_ZN5views4View11GetDragInfoEv(%"class.views::View"*) unnamed_addr #1

declare void @_ZN5views4View7OnFocusEv(%"class.views::View"*) unnamed_addr #1

declare void @_ZN5views4View6OnBlurEv(%"class.views::View"*) unnamed_addr #1

declare void @_ZN5views4View14OnThemeChangedEv(%"class.views::View"*) unnamed_addr #1

declare i32 @_ZN5views4View17GetDragOperationsERKN3gfx5PointE(%"class.views::View"*, %"class.gfx::Point"* dereferenceable(8)) unnamed_addr #1

declare void @_ZN5views4View13WriteDragDataERKN3gfx5PointEPN2ui14OSExchangeDataE(%"class.views::View"*, %"class.gfx::Point"* dereferenceable(8), %"class.ui::OSExchangeData"*) unnamed_addr #1

declare void @_ZN5views4View19AfterPropertyChangeEPKvl(%"class.views::View"*, i8*, i64) unnamed_addr #1

; Function Attrs: nounwind ssp uwtable
declare void @_ZThn8_N5views4View14LayerDestroyedEPN2ui5LayerE(%"class.views::View"*, %"class.ui::Layer"*) unnamed_addr #0 align 2

declare %"class.ui::Layer"* @_ZN2ui10LayerOwner12ReleaseLayerEv(%"class.ui::LayerOwner"*) unnamed_addr #1

; Function Attrs: nounwind ssp uwtable
declare %"class.ui::Layer"* @_ZThn16_N5views4View13RecreateLayerEv(%"class.views::View"*) unnamed_addr #0 align 2

; Function Attrs: argmemonly nounwind
declare void @llvm.memcpy.p0i8.p0i8.i64(i8* nocapture writeonly, i8* nocapture readonly, i64, i1 immarg) #2

declare void @_ZN2ui10LayerOwner8SetLayerENSt3__110unique_ptrINS_5LayerENS1_14default_deleteIS3_EEEE(%"class.ui::LayerOwner"*, %"class.ui::Layer"*) unnamed_addr #1

; Function Attrs: nounwind ssp uwtable
declare zeroext i1 @_ZThn96_N5views4View18AcceleratorPressedERKN2ui11AcceleratorE(%"class.views::View"*, %"class.ui::Accelerator"* dereferenceable(32)) unnamed_addr #0 align 2

; Function Attrs: nounwind ssp uwtable
declare zeroext i1 @_ZThn96_NK5views4View21CanHandleAcceleratorsEv(%"class.views::View"*) unnamed_addr #0 align 2

; Function Attrs: nounwind ssp uwtable
declare zeroext i1 @_ZThn104_N5views4View14CanAcceptEventERKN2ui5EventE(%"class.views::View"*, %"class.ui::Event"* dereferenceable(144)) unnamed_addr #0 align 2

; Function Attrs: nounwind ssp uwtable
declare %"class.ui::EventTarget"* @_ZThn104_N5views4View15GetParentTargetEv(%"class.views::View"*) unnamed_addr #0 align 2

declare void @_ZThn104_NK5views4View16GetChildIteratorEv() unnamed_addr

; Function Attrs: nounwind ssp uwtable
declare %"class.ui::EventTargeter"* @_ZThn104_N5views4View16GetEventTargeterEv(%"class.views::View"*) unnamed_addr #0 align 2

; Function Attrs: nounwind ssp uwtable
declare void @_ZThn104_NK5views4View20ConvertEventToTargetEPKN2ui11EventTargetEPNS1_12LocatedEventE(%"class.views::View"*, %"class.ui::EventTarget"*, %"class.ui::LocatedEvent"*) unnamed_addr #0 align 2

; Function Attrs: nounwind ssp uwtable
declare <2 x float> @_ZThn104_NK5views4View18GetScreenLocationFERKN2ui12LocatedEventE(%"class.views::View"*, %"class.ui::LocatedEvent"* dereferenceable(160)) unnamed_addr #7 align 2

declare void @_ZN2ui12EventHandler7OnEventEPNS_5EventE(%"class.ui::EventHandler"*, %"class.ui::Event"*) unnamed_addr #1

; Function Attrs: nounwind ssp uwtable
declare void @_ZThn168_N5views4View10OnKeyEventEPN2ui8KeyEventE(%"class.views::View"*, %"class.ui::KeyEvent"*) unnamed_addr #0 align 2

; Function Attrs: nounwind ssp uwtable
declare void @_ZThn168_N5views4View12OnMouseEventEPN2ui10MouseEventE(%"class.views::View"*, %"class.ui::MouseEvent"*) unnamed_addr #0 align 2

; Function Attrs: nounwind ssp uwtable
declare void @_ZThn168_N5views4View13OnScrollEventEPN2ui11ScrollEventE(%"class.views::View"*, %"class.ui::ScrollEvent"*) unnamed_addr #0 align 2

; Function Attrs: nounwind ssp uwtable
declare void @_ZThn168_N5views4View12OnTouchEventEPN2ui10TouchEventE(%"class.views::View"*, %"class.ui::TouchEvent"*) unnamed_addr #0 align 2

; Function Attrs: nounwind ssp uwtable
declare void @_ZThn168_N5views4View14OnGestureEventEPN2ui12GestureEventE(%"class.views::View"*, %"class.ui::GestureEvent"*) unnamed_addr #0 align 2

declare void @_ZN2ui12EventHandler12OnCancelModeEPNS_15CancelModeEventE(%"class.ui::EventHandler"*, %"class.ui::CancelModeEvent"*) unnamed_addr #1

; Function Attrs: nounwind ssp uwtable
declare { i8*, i64 } @_ZThn168_NK5views4View13GetLogContextEv(%"class.views::View"*) unnamed_addr #0 align 2

; Function Attrs: nounwind ssp uwtable
declare void @_ZThn208_N5views4View19AfterPropertyChangeEPKvl(%"class.views::View"*, i8*, i64) unnamed_addr #0 align 2

; Function Attrs: nounwind readnone
declare i1 @llvm.is.constant.i64(i64) #8

; Function Attrs: nobuiltin nofree
declare noalias nonnull i8* @_Znwm(i64) local_unnamed_addr #9

; Function Attrs: nounwind
declare void @_ZN2ui16SelectedFileInfoD1Ev(%"struct.ui::SelectedFileInfo"*) unnamed_addr #3

; Function Attrs: nounwind ssp uwtable
define internal void @"_ZN4base8internal7InvokerINS0_9BindStateIZN28FolderUploadConfirmationViewC1ERKNS_8FilePathENS_12OnceCallbackIFvRKNSt3__16vectorIN2ui16SelectedFileInfoENS8_9allocatorISB_EEEEEEESE_E3$_0JNS0_17UnretainedWrapperIS3_EEEEEFvvEE7RunOnceEPNS0_13BindStateBaseE"(%"class.base::internal::BindStateBase"* nocapture readonly) #0 align 2 {
  %2 = alloca %"class.base::OnceCallback.293", align 8
  %3 = getelementptr inbounds %"class.base::internal::BindStateBase", %"class.base::internal::BindStateBase"* %0, i64 1, i32 1
  %4 = bitcast void ()** %3 to %class.FolderUploadConfirmationView**
  %5 = load %class.FolderUploadConfirmationView*, %class.FolderUploadConfirmationView** %4, align 8
  %6 = getelementptr inbounds %class.FolderUploadConfirmationView, %class.FolderUploadConfirmationView* %5, i64 0, i32 1
  %7 = getelementptr inbounds %class.FolderUploadConfirmationView, %class.FolderUploadConfirmationView* %5, i64 0, i32 2
  %8 = bitcast %"class.base::OnceCallback.293"* %2 to i8*
  call void @llvm.lifetime.start.p0i8(i64 8, i8* nonnull %8) #10
  %9 = getelementptr inbounds %"class.base::OnceCallback.293", %"class.base::OnceCallback.293"* %6, i64 0, i32 0, i32 0, i32 0
  %10 = bitcast %"class.base::OnceCallback.293"* %6 to i64*
  %11 = load i64, i64* %10, align 8
  %12 = bitcast %"class.base::OnceCallback.293"* %2 to i64*
  store i64 %11, i64* %12, align 8
  store %"class.base::internal::BindStateBase"* null, %"class.base::internal::BindStateBase"** %9, align 8
  %13 = getelementptr inbounds %"class.base::OnceCallback.293", %"class.base::OnceCallback.293"* %2, i64 0, i32 0
  %14 = inttoptr i64 %11 to %"class.base::internal::BindStateBase"*
  %15 = getelementptr inbounds %"class.base::internal::BindStateBase", %"class.base::internal::BindStateBase"* %14, i64 0, i32 1
  %16 = bitcast void ()** %15 to void (%"class.base::internal::BindStateBase"*, %"class.std::__1::vector.294"*)**
  %17 = load void (%"class.base::internal::BindStateBase"*, %"class.std::__1::vector.294"*)*, void (%"class.base::internal::BindStateBase"*, %"class.std::__1::vector.294"*)** %16, align 8
  tail call void %17(%"class.base::internal::BindStateBase"* %14, %"class.std::__1::vector.294"* dereferenceable(24) %7) #10
  call void @_ZN4base8internal12CallbackBaseD2Ev(%"class.base::internal::CallbackBase"* nonnull %13) #10
  call void @llvm.lifetime.end.p0i8(i64 8, i8* nonnull %8) #10
  ret void
}

; Function Attrs: nounwind ssp uwtable
define internal void @"_ZN4base8internal9BindStateIZN28FolderUploadConfirmationViewC1ERKNS_8FilePathENS_12OnceCallbackIFvRKNSt3__16vectorIN2ui16SelectedFileInfoENS7_9allocatorISA_EEEEEEESD_E3$_0JNS0_17UnretainedWrapperIS2_EEEE7DestroyEPKNS0_13BindStateBaseE"(%"class.base::internal::BindStateBase"*) #0 align 2 {
  %2 = icmp eq %"class.base::internal::BindStateBase"* %0, null
  br i1 %2, label %5, label %3

3:                                                ; preds = %1
  %4 = bitcast %"class.base::internal::BindStateBase"* %0 to i8*
  tail call void @_ZdlPv(i8* %4) #11
  br label %5

5:                                                ; preds = %3, %1
  ret void
}

declare void @_ZN4base8internal13BindStateBaseC2EPFvvEPFvPKS1_E(%"class.base::internal::BindStateBase"*, void ()*, void (%"class.base::internal::BindStateBase"*)*) unnamed_addr #1

; Function Attrs: nounwind ssp uwtable
define internal void @"_ZN4base8internal7InvokerINS0_9BindStateIZN28FolderUploadConfirmationViewC1ERKNS_8FilePathENS_12OnceCallbackIFvRKNSt3__16vectorIN2ui16SelectedFileInfoENS8_9allocatorISB_EEEEEEESE_E3$_1JNS0_17UnretainedWrapperIS3_EEEEEFvvEE7RunOnceEPNS0_13BindStateBaseE"(%"class.base::internal::BindStateBase"* nocapture readonly) #0 align 2 {
  %2 = alloca %"class.base::OnceCallback.293", align 8
  %3 = alloca %"class.std::__1::vector.294", align 8
  %4 = getelementptr inbounds %"class.base::internal::BindStateBase", %"class.base::internal::BindStateBase"* %0, i64 1, i32 1
  %5 = bitcast void ()** %4 to %class.FolderUploadConfirmationView**
  %6 = load %class.FolderUploadConfirmationView*, %class.FolderUploadConfirmationView** %5, align 8
  %7 = getelementptr inbounds %class.FolderUploadConfirmationView, %class.FolderUploadConfirmationView* %6, i64 0, i32 1
  %8 = bitcast %"class.std::__1::vector.294"* %3 to i8*
  call void @llvm.lifetime.start.p0i8(i64 24, i8* nonnull %8) #10
  call void @llvm.memset.p0i8.i64(i8* nonnull align 8 %8, i8 0, i64 24, i1 false) #10
  %9 = bitcast %"class.base::OnceCallback.293"* %2 to i8*
  call void @llvm.lifetime.start.p0i8(i64 8, i8* nonnull %9) #10
  %10 = getelementptr inbounds %"class.base::OnceCallback.293", %"class.base::OnceCallback.293"* %7, i64 0, i32 0, i32 0, i32 0
  %11 = bitcast %"class.base::OnceCallback.293"* %7 to i64*
  %12 = load i64, i64* %11, align 8
  %13 = bitcast %"class.base::OnceCallback.293"* %2 to i64*
  store i64 %12, i64* %13, align 8
  store %"class.base::internal::BindStateBase"* null, %"class.base::internal::BindStateBase"** %10, align 8
  %14 = getelementptr inbounds %"class.base::OnceCallback.293", %"class.base::OnceCallback.293"* %2, i64 0, i32 0
  %15 = inttoptr i64 %12 to %"class.base::internal::BindStateBase"*
  %16 = getelementptr inbounds %"class.base::internal::BindStateBase", %"class.base::internal::BindStateBase"* %15, i64 0, i32 1
  %17 = bitcast void ()** %16 to void (%"class.base::internal::BindStateBase"*, %"class.std::__1::vector.294"*)**
  %18 = load void (%"class.base::internal::BindStateBase"*, %"class.std::__1::vector.294"*)*, void (%"class.base::internal::BindStateBase"*, %"class.std::__1::vector.294"*)** %17, align 8
  call void %18(%"class.base::internal::BindStateBase"* %15, %"class.std::__1::vector.294"* nonnull dereferenceable(24) %3) #10
  call void @_ZN4base8internal12CallbackBaseD2Ev(%"class.base::internal::CallbackBase"* nonnull %14) #10
  call void @llvm.lifetime.end.p0i8(i64 8, i8* nonnull %9) #10
  %19 = getelementptr inbounds %"class.std::__1::vector.294", %"class.std::__1::vector.294"* %3, i64 0, i32 0, i32 0
  %20 = load %"struct.ui::SelectedFileInfo"*, %"struct.ui::SelectedFileInfo"** %19, align 8
  %21 = icmp eq %"struct.ui::SelectedFileInfo"* %20, null
  br i1 %21, label %36, label %22

22:                                               ; preds = %1
  %23 = bitcast %"struct.ui::SelectedFileInfo"* %20 to i8*
  %24 = getelementptr inbounds %"class.std::__1::vector.294", %"class.std::__1::vector.294"* %3, i64 0, i32 0, i32 1
  %25 = load %"struct.ui::SelectedFileInfo"*, %"struct.ui::SelectedFileInfo"** %24, align 8
  %26 = icmp eq %"struct.ui::SelectedFileInfo"* %25, %20
  br i1 %26, label %34, label %27

27:                                               ; preds = %22, %27
  %28 = phi %"struct.ui::SelectedFileInfo"* [ %29, %27 ], [ %25, %22 ]
  %29 = getelementptr inbounds %"struct.ui::SelectedFileInfo", %"struct.ui::SelectedFileInfo"* %28, i64 -1
  call void @_ZN2ui16SelectedFileInfoD1Ev(%"struct.ui::SelectedFileInfo"* %29) #10
  %30 = icmp eq %"struct.ui::SelectedFileInfo"* %29, %20
  br i1 %30, label %31, label %27

31:                                               ; preds = %27
  %32 = bitcast %"class.std::__1::vector.294"* %3 to i8**
  %33 = load i8*, i8** %32, align 8
  br label %34

34:                                               ; preds = %31, %22
  %35 = phi i8* [ %33, %31 ], [ %23, %22 ]
  store %"struct.ui::SelectedFileInfo"* %20, %"struct.ui::SelectedFileInfo"** %24, align 8
  call void @_ZdlPv(i8* %35) #11
  br label %36

36:                                               ; preds = %1, %34
  call void @llvm.lifetime.end.p0i8(i64 24, i8* nonnull %8) #10
  ret void
}

; Function Attrs: nounwind ssp uwtable
define internal void @"_ZN4base8internal9BindStateIZN28FolderUploadConfirmationViewC1ERKNS_8FilePathENS_12OnceCallbackIFvRKNSt3__16vectorIN2ui16SelectedFileInfoENS7_9allocatorISA_EEEEEEESD_E3$_1JNS0_17UnretainedWrapperIS2_EEEE7DestroyEPKNS0_13BindStateBaseE"(%"class.base::internal::BindStateBase"*) #0 align 2 {
  %2 = icmp eq %"class.base::internal::BindStateBase"* %0, null
  br i1 %2, label %5, label %3

3:                                                ; preds = %1
  %4 = bitcast %"class.base::internal::BindStateBase"* %0 to i8*
  tail call void @_ZdlPv(i8* %4) #11
  br label %5

5:                                                ; preds = %3, %1
  ret void
}

; Function Attrs: nounwind ssp uwtable
define internal void @"_ZN4base8internal7InvokerINS0_9BindStateIZN28FolderUploadConfirmationViewC1ERKNS_8FilePathENS_12OnceCallbackIFvRKNSt3__16vectorIN2ui16SelectedFileInfoENS8_9allocatorISB_EEEEEEESE_E3$_2JNS0_17UnretainedWrapperIS3_EEEEEFvvEE7RunOnceEPNS0_13BindStateBaseE"(%"class.base::internal::BindStateBase"* nocapture readonly) #0 align 2 {
  %2 = alloca %"class.base::OnceCallback.293", align 8
  %3 = alloca %"class.std::__1::vector.294", align 8
  %4 = getelementptr inbounds %"class.base::internal::BindStateBase", %"class.base::internal::BindStateBase"* %0, i64 1, i32 1
  %5 = bitcast void ()** %4 to %class.FolderUploadConfirmationView**
  %6 = load %class.FolderUploadConfirmationView*, %class.FolderUploadConfirmationView** %5, align 8
  %7 = getelementptr inbounds %class.FolderUploadConfirmationView, %class.FolderUploadConfirmationView* %6, i64 0, i32 1
  %8 = bitcast %"class.std::__1::vector.294"* %3 to i8*
  call void @llvm.lifetime.start.p0i8(i64 24, i8* nonnull %8) #10
  call void @llvm.memset.p0i8.i64(i8* nonnull align 8 %8, i8 0, i64 24, i1 false) #10
  %9 = bitcast %"class.base::OnceCallback.293"* %2 to i8*
  call void @llvm.lifetime.start.p0i8(i64 8, i8* nonnull %9) #10
  %10 = getelementptr inbounds %"class.base::OnceCallback.293", %"class.base::OnceCallback.293"* %7, i64 0, i32 0, i32 0, i32 0
  %11 = bitcast %"class.base::OnceCallback.293"* %7 to i64*
  %12 = load i64, i64* %11, align 8
  %13 = bitcast %"class.base::OnceCallback.293"* %2 to i64*
  store i64 %12, i64* %13, align 8
  store %"class.base::internal::BindStateBase"* null, %"class.base::internal::BindStateBase"** %10, align 8
  %14 = getelementptr inbounds %"class.base::OnceCallback.293", %"class.base::OnceCallback.293"* %2, i64 0, i32 0
  %15 = inttoptr i64 %12 to %"class.base::internal::BindStateBase"*
  %16 = getelementptr inbounds %"class.base::internal::BindStateBase", %"class.base::internal::BindStateBase"* %15, i64 0, i32 1
  %17 = bitcast void ()** %16 to void (%"class.base::internal::BindStateBase"*, %"class.std::__1::vector.294"*)**
  %18 = load void (%"class.base::internal::BindStateBase"*, %"class.std::__1::vector.294"*)*, void (%"class.base::internal::BindStateBase"*, %"class.std::__1::vector.294"*)** %17, align 8
  call void %18(%"class.base::internal::BindStateBase"* %15, %"class.std::__1::vector.294"* nonnull dereferenceable(24) %3) #10
  call void @_ZN4base8internal12CallbackBaseD2Ev(%"class.base::internal::CallbackBase"* nonnull %14) #10
  call void @llvm.lifetime.end.p0i8(i64 8, i8* nonnull %9) #10
  %19 = getelementptr inbounds %"class.std::__1::vector.294", %"class.std::__1::vector.294"* %3, i64 0, i32 0, i32 0
  %20 = load %"struct.ui::SelectedFileInfo"*, %"struct.ui::SelectedFileInfo"** %19, align 8
  %21 = icmp eq %"struct.ui::SelectedFileInfo"* %20, null
  br i1 %21, label %36, label %22

22:                                               ; preds = %1
  %23 = bitcast %"struct.ui::SelectedFileInfo"* %20 to i8*
  %24 = getelementptr inbounds %"class.std::__1::vector.294", %"class.std::__1::vector.294"* %3, i64 0, i32 0, i32 1
  %25 = load %"struct.ui::SelectedFileInfo"*, %"struct.ui::SelectedFileInfo"** %24, align 8
  %26 = icmp eq %"struct.ui::SelectedFileInfo"* %25, %20
  br i1 %26, label %34, label %27

27:                                               ; preds = %22, %27
  %28 = phi %"struct.ui::SelectedFileInfo"* [ %29, %27 ], [ %25, %22 ]
  %29 = getelementptr inbounds %"struct.ui::SelectedFileInfo", %"struct.ui::SelectedFileInfo"* %28, i64 -1
  call void @_ZN2ui16SelectedFileInfoD1Ev(%"struct.ui::SelectedFileInfo"* %29) #10
  %30 = icmp eq %"struct.ui::SelectedFileInfo"* %29, %20
  br i1 %30, label %31, label %27

31:                                               ; preds = %27
  %32 = bitcast %"class.std::__1::vector.294"* %3 to i8**
  %33 = load i8*, i8** %32, align 8
  br label %34

34:                                               ; preds = %31, %22
  %35 = phi i8* [ %33, %31 ], [ %23, %22 ]
  store %"struct.ui::SelectedFileInfo"* %20, %"struct.ui::SelectedFileInfo"** %24, align 8
  call void @_ZdlPv(i8* %35) #11
  br label %36

36:                                               ; preds = %1, %34
  call void @llvm.lifetime.end.p0i8(i64 24, i8* nonnull %8) #10
  ret void
}

; Function Attrs: nounwind ssp uwtable
define internal void @"_ZN4base8internal9BindStateIZN28FolderUploadConfirmationViewC1ERKNS_8FilePathENS_12OnceCallbackIFvRKNSt3__16vectorIN2ui16SelectedFileInfoENS7_9allocatorISA_EEEEEEESD_E3$_2JNS0_17UnretainedWrapperIS2_EEEE7DestroyEPKNS0_13BindStateBaseE"(%"class.base::internal::BindStateBase"*) #0 align 2 {
  %2 = icmp eq %"class.base::internal::BindStateBase"* %0, null
  br i1 %2, label %5, label %3

3:                                                ; preds = %1
  %4 = bitcast %"class.base::internal::BindStateBase"* %0 to i8*
  tail call void @_ZdlPv(i8* %4) #11
  br label %5

5:                                                ; preds = %3, %1
  ret void
}

declare void @_ZN5views5LabelC1ERKNSt3__112basic_stringIDsNS1_11char_traitsIDsEENS1_9allocatorIDsEEEEiiN3gfx18DirectionalityModeE(%"class.views::Label"*, %"class.std::__1::basic_string"* dereferenceable(24), i32, i32, i32) unnamed_addr #1

declare void @_ZN5views4View18AddChildViewAtImplEPS0_i(%"class.views::View"*, %"class.views::View"*, i32) local_unnamed_addr #1

declare void @_ZN2ui8metadata17RegisterClassInfoENSt3__110unique_ptrINS0_13ClassMetaDataENS1_14default_deleteIS3_EEEE(%"class.ui::metadata::ClassMetaData"*) local_unnamed_addr #1

; Function Attrs: nounwind ssp uwtable
define linkonce_odr hidden void @_ZN28FolderUploadConfirmationView37FolderUploadConfirmationView_MetaDataC2Ev(%"class.FolderUploadConfirmationView::FolderUploadConfirmationView_MetaData"*) unnamed_addr #0 comdat align 2 {
  %2 = alloca %"class.std::__1::basic_string.253", align 8
  %3 = alloca %"class.std::__1::basic_string.253", align 8
  %4 = bitcast %"class.FolderUploadConfirmationView::FolderUploadConfirmationView_MetaData"* %0 to %"class.ui::metadata::ClassMetaData"*
  %5 = tail call i8* @_Znwm(i64 64) #11
  %6 = getelementptr inbounds %"class.std::__1::basic_string.253", %"class.std::__1::basic_string.253"* %3, i64 0, i32 0, i32 0, i32 0, i32 0, i32 0, i32 0
  store i8* %5, i8** %6, align 8
  %7 = getelementptr inbounds %"class.std::__1::basic_string.253", %"class.std::__1::basic_string.253"* %3, i64 0, i32 0, i32 0, i32 0, i32 0, i32 0, i32 1
  %8 = bitcast i64* %7 to <2 x i64>*
  store <2 x i64> <i64 63, i64 -9223372036854775744>, <2 x i64>* %8, align 8
  tail call void @llvm.memcpy.p0i8.p0i8.i64(i8* nonnull align 1 %5, i8* align 1 getelementptr inbounds ([64 x i8], [64 x i8]* @.str.3, i64 0, i64 0), i64 63, i1 false) #10
  %9 = getelementptr inbounds i8, i8* %5, i64 63
  store i8 0, i8* %9, align 1
  call void @_ZN2ui8metadata13ClassMetaDataC2ENSt3__112basic_stringIcNS2_11char_traitsIcEENS2_9allocatorIcEEEEi(%"class.ui::metadata::ClassMetaData"* %4, %"class.std::__1::basic_string.253"* nonnull %3, i32 33) #10
  %10 = bitcast %"class.std::__1::basic_string.253"* %3 to %"struct.std::__1::basic_string<char, std::__1::char_traits<char>, std::__1::allocator<char> >::__short"*
  %11 = getelementptr inbounds %"struct.std::__1::basic_string<char, std::__1::char_traits<char>, std::__1::allocator<char> >::__short", %"struct.std::__1::basic_string<char, std::__1::char_traits<char>, std::__1::allocator<char> >::__short"* %10, i64 0, i32 1, i32 0
  %12 = load i8, i8* %11, align 1
  %13 = icmp slt i8 %12, 0
  br i1 %13, label %14, label %16

14:                                               ; preds = %1
  %15 = load i8*, i8** %6, align 8
  call void @_ZdlPv(i8* %15) #11
  br label %16

16:                                               ; preds = %1, %14
  %17 = getelementptr inbounds %"class.FolderUploadConfirmationView::FolderUploadConfirmationView_MetaData", %"class.FolderUploadConfirmationView::FolderUploadConfirmationView_MetaData"* %0, i64 0, i32 0, i32 0
  store i32 (...)** bitcast (i8** getelementptr inbounds ({ [5 x i8*] }, { [5 x i8*] }* @_ZTVN28FolderUploadConfirmationView37FolderUploadConfirmationView_MetaDataE, i64 0, inrange i32 0, i64 2) to i32 (...)**), i32 (...)*** %17, align 8
  %18 = bitcast %"class.std::__1::basic_string.253"* %2 to i8*
  call void @llvm.lifetime.start.p0i8(i64 24, i8* nonnull %18) #10
  %19 = call i8* @_Znwm(i64 32) #11
  %20 = getelementptr inbounds %"class.std::__1::basic_string.253", %"class.std::__1::basic_string.253"* %2, i64 0, i32 0, i32 0, i32 0, i32 0, i32 0, i32 0
  store i8* %19, i8** %20, align 8
  %21 = getelementptr inbounds %"class.std::__1::basic_string.253", %"class.std::__1::basic_string.253"* %2, i64 0, i32 0, i32 0, i32 0, i32 0, i32 0, i32 1
  %22 = bitcast i64* %21 to <2 x i64>*
  store <2 x i64> <i64 28, i64 -9223372036854775776>, <2 x i64>* %22, align 8
  call void @llvm.memcpy.p0i8.p0i8.i64(i8* nonnull align 1 %19, i8* align 1 getelementptr inbounds ([29 x i8], [29 x i8]* @_ZN28FolderUploadConfirmationView14kViewClassNameE, i64 0, i64 0), i64 28, i1 false) #10
  %23 = getelementptr inbounds i8, i8* %19, i64 28
  store i8 0, i8* %23, align 1
  call void @_ZN2ui8metadata13ClassMetaData11SetTypeNameERKNSt3__112basic_stringIcNS2_11char_traitsIcEENS2_9allocatorIcEEEE(%"class.ui::metadata::ClassMetaData"* %4, %"class.std::__1::basic_string.253"* nonnull dereferenceable(24) %2) #10
  %24 = bitcast %"class.std::__1::basic_string.253"* %2 to %"struct.std::__1::basic_string<char, std::__1::char_traits<char>, std::__1::allocator<char> >::__short"*
  %25 = getelementptr inbounds %"struct.std::__1::basic_string<char, std::__1::char_traits<char>, std::__1::allocator<char> >::__short", %"struct.std::__1::basic_string<char, std::__1::char_traits<char>, std::__1::allocator<char> >::__short"* %24, i64 0, i32 1, i32 0
  %26 = load i8, i8* %25, align 1
  %27 = icmp slt i8 %26, 0
  br i1 %27, label %28, label %30

28:                                               ; preds = %16
  %29 = load i8*, i8** %20, align 8
  call void @_ZdlPv(i8* %29) #11
  br label %30

30:                                               ; preds = %16, %28
  call void @llvm.lifetime.end.p0i8(i64 24, i8* nonnull %18) #10
  %31 = call %"class.ui::metadata::ClassMetaData"* @_ZN5views18DialogDelegateView8MetaDataEv() #10
  %32 = getelementptr inbounds %"class.FolderUploadConfirmationView::FolderUploadConfirmationView_MetaData", %"class.FolderUploadConfirmationView::FolderUploadConfirmationView_MetaData"* %0, i64 0, i32 0, i32 3
  store %"class.ui::metadata::ClassMetaData"* %31, %"class.ui::metadata::ClassMetaData"** %32, align 8
  ret void
}

declare void @_ZN2ui8metadata13ClassMetaDataC2ENSt3__112basic_stringIcNS2_11char_traitsIcEENS2_9allocatorIcEEEEi(%"class.ui::metadata::ClassMetaData"*, %"class.std::__1::basic_string.253"*, i32) unnamed_addr #1

; Function Attrs: argmemonly nounwind
declare void @llvm.memset.p0i8.i64(i8* nocapture writeonly, i8, i64, i1 immarg) #2

attributes #0 = { nounwind ssp uwtable "correctly-rounded-divide-sqrt-fp-math"="false" "disable-tail-calls"="false" "less-precise-fpmad"="false" "min-legal-vector-width"="0" "no-frame-pointer-elim"="false" "no-frame-pointer-elim-non-leaf" "no-infs-fp-math"="false" "no-jump-tables"="false" "no-nans-fp-math"="false" "no-signed-zeros-fp-math"="false" "no-trapping-math"="false" "null-pointer-is-valid"="true" "stack-protector-buffer-size"="4" "target-cpu"="x86-64" "target-features"="+cx8,+fxsr,+mmx,+sse,+sse2,+sse3,+x87" "unsafe-fp-math"="false" "use-soft-float"="false" }
attributes #1 = { "correctly-rounded-divide-sqrt-fp-math"="false" "disable-tail-calls"="false" "less-precise-fpmad"="false" "no-frame-pointer-elim"="false" "no-frame-pointer-elim-non-leaf" "no-infs-fp-math"="false" "no-nans-fp-math"="false" "no-signed-zeros-fp-math"="false" "no-trapping-math"="false" "null-pointer-is-valid"="true" "stack-protector-buffer-size"="4" "target-cpu"="x86-64" "target-features"="+cx8,+fxsr,+mmx,+sse,+sse2,+sse3,+x87" "unsafe-fp-math"="false" "use-soft-float"="false" }
attributes #2 = { argmemonly nounwind }
attributes #3 = { nounwind "correctly-rounded-divide-sqrt-fp-math"="false" "disable-tail-calls"="false" "less-precise-fpmad"="false" "no-frame-pointer-elim"="false" "no-frame-pointer-elim-non-leaf" "no-infs-fp-math"="false" "no-nans-fp-math"="false" "no-signed-zeros-fp-math"="false" "no-trapping-math"="false" "null-pointer-is-valid"="true" "stack-protector-buffer-size"="4" "target-cpu"="x86-64" "target-features"="+cx8,+fxsr,+mmx,+sse,+sse2,+sse3,+x87" "unsafe-fp-math"="false" "use-soft-float"="false" }
attributes #4 = { nobuiltin nounwind "correctly-rounded-divide-sqrt-fp-math"="false" "disable-tail-calls"="false" "less-precise-fpmad"="false" "no-frame-pointer-elim"="false" "no-frame-pointer-elim-non-leaf" "no-infs-fp-math"="false" "no-nans-fp-math"="false" "no-signed-zeros-fp-math"="false" "no-trapping-math"="false" "null-pointer-is-valid"="true" "stack-protector-buffer-size"="4" "target-cpu"="x86-64" "target-features"="+cx8,+fxsr,+mmx,+sse,+sse2,+sse3,+x87" "unsafe-fp-math"="false" "use-soft-float"="false" }
attributes #5 = { norecurse nounwind readnone ssp uwtable "correctly-rounded-divide-sqrt-fp-math"="false" "disable-tail-calls"="false" "less-precise-fpmad"="false" "min-legal-vector-width"="0" "no-frame-pointer-elim"="false" "no-frame-pointer-elim-non-leaf" "no-infs-fp-math"="false" "no-jump-tables"="false" "no-nans-fp-math"="false" "no-signed-zeros-fp-math"="false" "no-trapping-math"="false" "null-pointer-is-valid"="true" "stack-protector-buffer-size"="4" "target-cpu"="x86-64" "target-features"="+cx8,+fxsr,+mmx,+sse,+sse2,+sse3,+x87" "unsafe-fp-math"="false" "use-soft-float"="false" }
attributes #6 = { inlinehint nounwind ssp uwtable "correctly-rounded-divide-sqrt-fp-math"="false" "disable-tail-calls"="false" "less-precise-fpmad"="false" "min-legal-vector-width"="0" "no-frame-pointer-elim"="false" "no-frame-pointer-elim-non-leaf" "no-infs-fp-math"="false" "no-jump-tables"="false" "no-nans-fp-math"="false" "no-signed-zeros-fp-math"="false" "no-trapping-math"="false" "null-pointer-is-valid"="true" "stack-protector-buffer-size"="4" "target-cpu"="x86-64" "target-features"="+cx8,+fxsr,+mmx,+sse,+sse2,+sse3,+x87" "unsafe-fp-math"="false" "use-soft-float"="false" }
attributes #7 = { nounwind ssp uwtable "correctly-rounded-divide-sqrt-fp-math"="false" "disable-tail-calls"="false" "less-precise-fpmad"="false" "min-legal-vector-width"="64" "no-frame-pointer-elim"="false" "no-frame-pointer-elim-non-leaf" "no-infs-fp-math"="false" "no-jump-tables"="false" "no-nans-fp-math"="false" "no-signed-zeros-fp-math"="false" "no-trapping-math"="false" "null-pointer-is-valid"="true" "stack-protector-buffer-size"="4" "target-cpu"="x86-64" "target-features"="+cx8,+fxsr,+mmx,+sse,+sse2,+sse3,+x87" "unsafe-fp-math"="false" "use-soft-float"="false" }
attributes #8 = { nounwind readnone }
attributes #9 = { nobuiltin nofree "correctly-rounded-divide-sqrt-fp-math"="false" "disable-tail-calls"="false" "less-precise-fpmad"="false" "no-frame-pointer-elim"="false" "no-frame-pointer-elim-non-leaf" "no-infs-fp-math"="false" "no-nans-fp-math"="false" "no-signed-zeros-fp-math"="false" "no-trapping-math"="false" "null-pointer-is-valid"="true" "stack-protector-buffer-size"="4" "target-cpu"="x86-64" "target-features"="+cx8,+fxsr,+mmx,+sse,+sse2,+sse3,+x87" "unsafe-fp-math"="false" "use-soft-float"="false" }
attributes #10 = { nounwind }
attributes #11 = { builtin nounwind }

!llvm.module.flags = !{!0, !1}

!0 = !{i32 1, !"wchar_size", i32 4}
!1 = !{i32 7, !"PIC Level", i32 2}
!2 = !{!3, !5}
!3 = distinct !{!3, !4, !"_ZN4base8internal8BindImplINS_12OnceCallbackEZN28FolderUploadConfirmationViewC1ERKNS_8FilePathENS2_IFvRKNSt3__16vectorIN2ui16SelectedFileInfoENS7_9allocatorISA_EEEEEEESD_E3$_0JNS0_17UnretainedWrapperIS3_EEEEEDcOT0_DpOT1_: argument 0"}
!4 = distinct !{!4, !"_ZN4base8internal8BindImplINS_12OnceCallbackEZN28FolderUploadConfirmationViewC1ERKNS_8FilePathENS2_IFvRKNSt3__16vectorIN2ui16SelectedFileInfoENS7_9allocatorISA_EEEEEEESD_E3$_0JNS0_17UnretainedWrapperIS3_EEEEEDcOT0_DpOT1_"}
!5 = distinct !{!5, !6, !"_ZN4base8BindOnceIZN28FolderUploadConfirmationViewC1ERKNS_8FilePathENS_12OnceCallbackIFvRKNSt3__16vectorIN2ui16SelectedFileInfoENS6_9allocatorIS9_EEEEEEESC_E3$_0JNS_8internal17UnretainedWrapperIS1_EEEEENS5_INSI_14BindTypeHelperIT_JDpT0_EE14UnboundRunTypeEEEOSM_DpOSN_: argument 0"}
!6 = distinct !{!6, !"_ZN4base8BindOnceIZN28FolderUploadConfirmationViewC1ERKNS_8FilePathENS_12OnceCallbackIFvRKNSt3__16vectorIN2ui16SelectedFileInfoENS6_9allocatorIS9_EEEEEEESC_E3$_0JNS_8internal17UnretainedWrapperIS1_EEEEENS5_INSI_14BindTypeHelperIT_JDpT0_EE14UnboundRunTypeEEEOSM_DpOSN_"}
!7 = !{!8, !10}
!8 = distinct !{!8, !9, !"_ZN4base8internal8BindImplINS_12OnceCallbackEZN28FolderUploadConfirmationViewC1ERKNS_8FilePathENS2_IFvRKNSt3__16vectorIN2ui16SelectedFileInfoENS7_9allocatorISA_EEEEEEESD_E3$_1JNS0_17UnretainedWrapperIS3_EEEEEDcOT0_DpOT1_: argument 0"}
!9 = distinct !{!9, !"_ZN4base8internal8BindImplINS_12OnceCallbackEZN28FolderUploadConfirmationViewC1ERKNS_8FilePathENS2_IFvRKNSt3__16vectorIN2ui16SelectedFileInfoENS7_9allocatorISA_EEEEEEESD_E3$_1JNS0_17UnretainedWrapperIS3_EEEEEDcOT0_DpOT1_"}
!10 = distinct !{!10, !11, !"_ZN4base8BindOnceIZN28FolderUploadConfirmationViewC1ERKNS_8FilePathENS_12OnceCallbackIFvRKNSt3__16vectorIN2ui16SelectedFileInfoENS6_9allocatorIS9_EEEEEEESC_E3$_1JNS_8internal17UnretainedWrapperIS1_EEEEENS5_INSI_14BindTypeHelperIT_JDpT0_EE14UnboundRunTypeEEEOSM_DpOSN_: argument 0"}
!11 = distinct !{!11, !"_ZN4base8BindOnceIZN28FolderUploadConfirmationViewC1ERKNS_8FilePathENS_12OnceCallbackIFvRKNSt3__16vectorIN2ui16SelectedFileInfoENS6_9allocatorIS9_EEEEEEESC_E3$_1JNS_8internal17UnretainedWrapperIS1_EEEEENS5_INSI_14BindTypeHelperIT_JDpT0_EE14UnboundRunTypeEEEOSM_DpOSN_"}
!12 = !{!13, !15}
!13 = distinct !{!13, !14, !"_ZN4base8internal8BindImplINS_12OnceCallbackEZN28FolderUploadConfirmationViewC1ERKNS_8FilePathENS2_IFvRKNSt3__16vectorIN2ui16SelectedFileInfoENS7_9allocatorISA_EEEEEEESD_E3$_2JNS0_17UnretainedWrapperIS3_EEEEEDcOT0_DpOT1_: argument 0"}
!14 = distinct !{!14, !"_ZN4base8internal8BindImplINS_12OnceCallbackEZN28FolderUploadConfirmationViewC1ERKNS_8FilePathENS2_IFvRKNSt3__16vectorIN2ui16SelectedFileInfoENS7_9allocatorISA_EEEEEEESD_E3$_2JNS0_17UnretainedWrapperIS3_EEEEEDcOT0_DpOT1_"}
!15 = distinct !{!15, !16, !"_ZN4base8BindOnceIZN28FolderUploadConfirmationViewC1ERKNS_8FilePathENS_12OnceCallbackIFvRKNSt3__16vectorIN2ui16SelectedFileInfoENS6_9allocatorIS9_EEEEEEESC_E3$_2JNS_8internal17UnretainedWrapperIS1_EEEEENS5_INSI_14BindTypeHelperIT_JDpT0_EE14UnboundRunTypeEEEOSM_DpOSN_: argument 0"}
!16 = distinct !{!16, !"_ZN4base8BindOnceIZN28FolderUploadConfirmationViewC1ERKNS_8FilePathENS_12OnceCallbackIFvRKNSt3__16vectorIN2ui16SelectedFileInfoENS6_9allocatorIS9_EEEEEEESC_E3$_2JNS_8internal17UnretainedWrapperIS1_EEEEENS5_INSI_14BindTypeHelperIT_JDpT0_EE14UnboundRunTypeEEEOSM_DpOSN_"}
