; ModuleID = '../../components/services/font/public/cpp/font_loader.cc'
source_filename = "../../components/services/font/public/cpp/font_loader.cc"
target datalayout = "e-m:e-i64:64-f80:128-n8:16:32:64-S128"
target triple = "x86_64-unknown-linux-gnu"

module asm ".symver exp, exp@GLIBC_2.2.5"
module asm ".symver exp2, exp2@GLIBC_2.2.5"
module asm ".symver exp2f, exp2f@GLIBC_2.2.5"
module asm ".symver expf, expf@GLIBC_2.2.5"
module asm ".symver lgamma, lgamma@GLIBC_2.2.5"
module asm ".symver lgammaf, lgammaf@GLIBC_2.2.5"
module asm ".symver lgammal, lgammal@GLIBC_2.2.5"
module asm ".symver log, log@GLIBC_2.2.5"
module asm ".symver log2, log2@GLIBC_2.2.5"
module asm ".symver log2f, log2f@GLIBC_2.2.5"
module asm ".symver logf, logf@GLIBC_2.2.5"
module asm ".symver pow, pow@GLIBC_2.2.5"
module asm ".symver powf, powf@GLIBC_2.2.5"

%"struct.base::trace_event::TraceCategory" = type { i8, i32, i8* }
%"class.font_service::FontLoader" = type { %class.SkFontConfigInterface.base, %"class.font_service::internal::MappedFontFile::Observer", %class.scoped_refptr, %"class.base::Lock", %"class.std::__1::unordered_map" }
%class.SkFontConfigInterface.base = type { %class.SkRefCnt.base }
%class.SkRefCnt.base = type { %class.SkRefCntBase.base }
%class.SkRefCntBase.base = type <{ i32 (...)**, %"struct.std::__1::atomic" }>
%"struct.std::__1::atomic" = type { %"struct.std::__1::__atomic_base" }
%"struct.std::__1::__atomic_base" = type { %"struct.std::__1::__atomic_base.0" }
%"struct.std::__1::__atomic_base.0" = type { %"struct.std::__1::__cxx_atomic_impl" }
%"struct.std::__1::__cxx_atomic_impl" = type { %"struct.std::__1::__cxx_atomic_base_impl" }
%"struct.std::__1::__cxx_atomic_base_impl" = type { i32 }
%"class.font_service::internal::MappedFontFile::Observer" = type { i32 (...)** }
%class.scoped_refptr = type { %"class.font_service::internal::FontServiceThread"* }
%"class.font_service::internal::FontServiceThread" = type { i32 (...)**, %"class.base::RefCountedThreadSafe", %"class.mojo::Remote", %"class.std::__1::set", %class.scoped_refptr.3 }
%"class.base::RefCountedThreadSafe" = type { %"class.base::subtle::RefCountedThreadSafeBase" }
%"class.base::subtle::RefCountedThreadSafeBase" = type { %"class.base::AtomicRefCount" }
%"class.base::AtomicRefCount" = type { %"struct.std::__1::atomic" }
%"class.mojo::Remote" = type { %"class.mojo::internal::InterfacePtrState" }
%"class.mojo::internal::InterfacePtrState" = type { %"class.mojo::internal::InterfacePtrStateBase.base", %"class.std::__1::unique_ptr.164" }
%"class.mojo::internal::InterfacePtrStateBase.base" = type <{ %class.scoped_refptr.1, %"class.std::__1::unique_ptr.114", %"class.mojo::ScopedHandleBase", [4 x i8], %class.scoped_refptr.3, i32 }>
%class.scoped_refptr.1 = type { %"class.mojo::internal::MultiplexRouter"* }
%"class.mojo::internal::MultiplexRouter" = type <{ %"class.mojo::MessageReceiver", %"class.mojo::AssociatedGroupController.base", [4 x i8], %"class.mojo::PipeControlMessageHandlerDelegate", i32, i8, [3 x i8], %class.scoped_refptr.3, %"class.mojo::MessageHeaderValidator"*, %"class.mojo::MessageDispatcher", %"class.mojo::Connector", %"class.mojo::ScopedHandleBase", [4 x i8], %"class.absl::optional.77", %"class.absl::optional.82", %"class.absl::optional.39", %"class.mojo::PipeControlMessageHandler", %"class.mojo::PipeControlMessageProxy", %"class.base::small_map", i32, [4 x i8], %"class.base::circular_deque", %"class.std::__1::map.105", i8, [7 x i8], %class.scoped_refptr.3, i8, i8, i8, i8, i8, [3 x i8] }>
%"class.mojo::MessageReceiver" = type { i32 (...)** }
%"class.mojo::AssociatedGroupController.base" = type <{ i32 (...)**, %"class.base::RefCountedThreadSafe.2" }>
%"class.base::RefCountedThreadSafe.2" = type { %"class.base::subtle::RefCountedThreadSafeBase" }
%"class.mojo::PipeControlMessageHandlerDelegate" = type { i32 (...)** }
%"class.mojo::MessageHeaderValidator" = type { %"class.mojo::MessageReceiver", %"class.std::__1::basic_string" }
%"class.std::__1::basic_string" = type { %"class.std::__1::__compressed_pair" }
%"class.std::__1::__compressed_pair" = type { %"struct.std::__1::__compressed_pair_elem" }
%"struct.std::__1::__compressed_pair_elem" = type { %"struct.std::__1::basic_string<char, std::__1::char_traits<char>, std::__1::allocator<char> >::__rep" }
%"struct.std::__1::basic_string<char, std::__1::char_traits<char>, std::__1::allocator<char> >::__rep" = type { %union.anon }
%union.anon = type { %"struct.std::__1::basic_string<char, std::__1::char_traits<char>, std::__1::allocator<char> >::__long" }
%"struct.std::__1::basic_string<char, std::__1::char_traits<char>, std::__1::allocator<char> >::__long" = type { i8*, i64, i64 }
%"class.mojo::MessageDispatcher" = type { %"class.mojo::MessageReceiver", %"class.std::__1::unique_ptr", %"class.std::__1::unique_ptr.9", %"class.mojo::MessageReceiver"*, %"class.base::WeakPtrFactory" }
%"class.std::__1::unique_ptr" = type { %"class.std::__1::__compressed_pair.6" }
%"class.std::__1::__compressed_pair.6" = type { %"struct.std::__1::__compressed_pair_elem.7" }
%"struct.std::__1::__compressed_pair_elem.7" = type { %"class.mojo::MessageReceiver"* }
%"class.std::__1::unique_ptr.9" = type { %"class.std::__1::__compressed_pair.10" }
%"class.std::__1::__compressed_pair.10" = type { %"struct.std::__1::__compressed_pair_elem.11" }
%"struct.std::__1::__compressed_pair_elem.11" = type { %"class.mojo::MessageFilter"* }
%"class.mojo::MessageFilter" = type { i32 (...)** }
%"class.base::WeakPtrFactory" = type { %"class.base::internal::WeakPtrFactoryBase" }
%"class.base::internal::WeakPtrFactoryBase" = type { %"class.base::internal::WeakReferenceOwner", i64 }
%"class.base::internal::WeakReferenceOwner" = type { %class.scoped_refptr.15 }
%class.scoped_refptr.15 = type { %"class.base::internal::WeakReference::Flag"* }
%"class.base::internal::WeakReference::Flag" = type <{ %"class.base::RefCountedThreadSafe.16", %"class.base::AtomicFlag", [3 x i8] }>
%"class.base::RefCountedThreadSafe.16" = type { %"class.base::subtle::RefCountedThreadSafeBase" }
%"class.base::AtomicFlag" = type { %"struct.std::__1::atomic.17" }
%"struct.std::__1::atomic.17" = type { %"struct.std::__1::__atomic_base.18" }
%"struct.std::__1::__atomic_base.18" = type { %"struct.std::__1::__atomic_base.19" }
%"struct.std::__1::__atomic_base.19" = type { %"struct.std::__1::__cxx_atomic_impl.20" }
%"struct.std::__1::__cxx_atomic_impl.20" = type { %"struct.std::__1::__cxx_atomic_base_impl.21" }
%"struct.std::__1::__cxx_atomic_base_impl.21" = type { i8 }
%"class.mojo::Connector" = type { %"class.mojo::MessageReceiver", %"class.base::OnceCallback", %"class.mojo::ScopedHandleBase", %"class.mojo::MessageReceiver"*, %class.scoped_refptr.3, %"class.std::__1::unique_ptr.24", %"class.absl::optional", %"struct.std::__1::atomic.35", i8, i8, i8, i8, i32, i32, %"class.absl::optional.39", %"class.std::__1::unique_ptr.44", i8, i64, %class.scoped_refptr.73, %"class.base::Lock", i8, i8*, %"class.mojo::Connector::RunLoopNestingObserver"*, i8, i64, %"class.mojo::ConnectionGroup::Ref", %"class.base::WeakPtr", %"class.base::WeakPtrFactory.76" }
%"class.base::OnceCallback" = type { %"class.base::internal::CallbackBase" }
%"class.base::internal::CallbackBase" = type { %class.scoped_refptr.22 }
%class.scoped_refptr.22 = type { %"class.base::internal::BindStateBase"* }
%"class.base::internal::BindStateBase" = type { %"class.base::RefCountedThreadSafe.23", void ()*, void (%"class.base::internal::BindStateBase"*)*, i1 (%"class.base::internal::BindStateBase"*, i32)* }
%"class.base::RefCountedThreadSafe.23" = type { %"class.base::subtle::RefCountedThreadSafeBase" }
%"class.std::__1::unique_ptr.24" = type { %"class.std::__1::__compressed_pair.25" }
%"class.std::__1::__compressed_pair.25" = type { %"struct.std::__1::__compressed_pair_elem.26" }
%"struct.std::__1::__compressed_pair_elem.26" = type { %"class.mojo::SimpleWatcher"* }
%"class.mojo::SimpleWatcher" = type { i32, %class.scoped_refptr.3, i8, %"class.mojo::ScopedHandleBase.27", %class.scoped_refptr.28, %"class.mojo::Handle", i32, %"class.base::RepeatingCallback", i8*, %"class.base::WeakPtrFactory.29" }
%"class.mojo::ScopedHandleBase.27" = type { %"class.mojo::TrapHandle" }
%"class.mojo::TrapHandle" = type { %"class.mojo::Handle" }
%class.scoped_refptr.28 = type { %"class.mojo::SimpleWatcher::Context"* }
%"class.mojo::SimpleWatcher::Context" = type opaque
%"class.mojo::Handle" = type { i32 }
%"class.base::RepeatingCallback" = type { %"class.base::internal::CallbackBaseCopyable" }
%"class.base::internal::CallbackBaseCopyable" = type { %"class.base::internal::CallbackBase" }
%"class.base::WeakPtrFactory.29" = type { %"class.base::internal::WeakPtrFactoryBase" }
%"class.absl::optional" = type { %"class.absl::optional_internal::optional_data" }
%"class.absl::optional_internal::optional_data" = type { %"class.absl::optional_internal::optional_data_base" }
%"class.absl::optional_internal::optional_data_base" = type { %"class.absl::optional_internal::optional_data_dtor_base" }
%"class.absl::optional_internal::optional_data_dtor_base" = type { i8, %union.anon.33 }
%union.anon.33 = type { %"class.mojo::HandleSignalTracker" }
%"class.mojo::HandleSignalTracker" = type { %"class.base::RepeatingCallback.34", %"struct.mojo::HandleSignalsState", %"class.mojo::SimpleWatcher", %"class.mojo::SimpleWatcher" }
%"class.base::RepeatingCallback.34" = type { %"class.base::internal::CallbackBaseCopyable" }
%"struct.mojo::HandleSignalsState" = type { %struct.MojoHandleSignalsState }
%struct.MojoHandleSignalsState = type { i32, i32 }
%"struct.std::__1::atomic.35" = type { %"struct.std::__1::__atomic_base.36" }
%"struct.std::__1::__atomic_base.36" = type { %"struct.std::__1::__cxx_atomic_impl.37" }
%"struct.std::__1::__cxx_atomic_impl.37" = type { %"struct.std::__1::__cxx_atomic_base_impl.38" }
%"struct.std::__1::__cxx_atomic_base_impl.38" = type { i8 }
%"class.std::__1::unique_ptr.44" = type { %"class.std::__1::__compressed_pair.45" }
%"class.std::__1::__compressed_pair.45" = type { %"struct.std::__1::__compressed_pair_elem.46" }
%"struct.std::__1::__compressed_pair_elem.46" = type { %"class.mojo::SyncHandleWatcher"* }
%"class.mojo::SyncHandleWatcher" = type { %"class.mojo::Handle", i32, %"class.base::RepeatingCallback.47", i8, i64, %class.scoped_refptr.48, %class.scoped_refptr.69 }
%"class.base::RepeatingCallback.47" = type { %"class.base::internal::CallbackBaseCopyable" }
%class.scoped_refptr.48 = type { %"class.mojo::SyncHandleRegistry"* }
%"class.mojo::SyncHandleRegistry" = type <{ %"class.base::RefCounted", [4 x i8], %"class.mojo::WaitSet", %"class.std::__1::map", %"class.std::__1::map.58", i8, [7 x i8] }>
%"class.base::RefCounted" = type { %"class.base::subtle::RefCountedBase" }
%"class.base::subtle::RefCountedBase" = type { i32 }
%"class.mojo::WaitSet" = type { %class.scoped_refptr.49 }
%class.scoped_refptr.49 = type { %"class.mojo::WaitSet::State"* }
%"class.mojo::WaitSet::State" = type opaque
%"class.std::__1::map" = type { %"class.std::__1::__tree" }
%"class.std::__1::__tree" = type { %"class.std::__1::__tree_end_node"*, %"class.std::__1::__compressed_pair.50", %"class.std::__1::__compressed_pair.55" }
%"class.std::__1::__tree_end_node" = type { %"class.std::__1::__tree_node_base"* }
%"class.std::__1::__tree_node_base" = type opaque
%"class.std::__1::__compressed_pair.50" = type { %"struct.std::__1::__compressed_pair_elem.51" }
%"struct.std::__1::__compressed_pair_elem.51" = type { %"class.std::__1::__tree_end_node" }
%"class.std::__1::__compressed_pair.55" = type { %"struct.std::__1::__compressed_pair_elem.56" }
%"struct.std::__1::__compressed_pair_elem.56" = type { i64 }
%"class.std::__1::map.58" = type { %"class.std::__1::__tree.59" }
%"class.std::__1::__tree.59" = type { %"class.std::__1::__tree_end_node"*, %"class.std::__1::__compressed_pair.60", %"class.std::__1::__compressed_pair.64" }
%"class.std::__1::__compressed_pair.60" = type { %"struct.std::__1::__compressed_pair_elem.51" }
%"class.std::__1::__compressed_pair.64" = type { %"struct.std::__1::__compressed_pair_elem.56" }
%class.scoped_refptr.69 = type { %"class.base::RefCountedData"* }
%"class.base::RefCountedData" = type opaque
%class.scoped_refptr.73 = type { %"class.mojo::internal::MessageQuotaChecker"* }
%"class.mojo::internal::MessageQuotaChecker" = type opaque
%"class.mojo::Connector::RunLoopNestingObserver" = type opaque
%"class.mojo::ConnectionGroup::Ref" = type { i32, %class.scoped_refptr.74 }
%class.scoped_refptr.74 = type { %"class.mojo::ConnectionGroup"* }
%"class.mojo::ConnectionGroup" = type <{ i32 (...)**, %"class.base::RefCountedThreadSafe.195", [4 x i8], %"class.base::RepeatingCallback.117", %class.scoped_refptr.3, %"class.mojo::ConnectionGroup::Ref", %"struct.std::__1::atomic.196", [4 x i8] }>
%"class.base::RefCountedThreadSafe.195" = type { %"class.base::subtle::RefCountedThreadSafeBase" }
%"class.base::RepeatingCallback.117" = type { %"class.base::internal::CallbackBaseCopyable" }
%"struct.std::__1::atomic.196" = type { %"struct.std::__1::__atomic_base.197" }
%"struct.std::__1::__atomic_base.197" = type { %"struct.std::__1::__atomic_base.198" }
%"struct.std::__1::__atomic_base.198" = type { %"struct.std::__1::__cxx_atomic_impl.199" }
%"struct.std::__1::__cxx_atomic_impl.199" = type { %"struct.std::__1::__cxx_atomic_base_impl.200" }
%"struct.std::__1::__cxx_atomic_base_impl.200" = type { i32 }
%"class.base::WeakPtr" = type { %"class.base::internal::WeakPtrBase" }
%"class.base::internal::WeakPtrBase" = type { %"class.base::internal::WeakReference", i64 }
%"class.base::internal::WeakReference" = type { %class.scoped_refptr.75 }
%class.scoped_refptr.75 = type { %"class.base::internal::WeakReference::Flag"* }
%"class.base::WeakPtrFactory.76" = type { %"class.base::internal::WeakPtrFactoryBase" }
%"class.absl::optional.77" = type { %"class.absl::optional_internal::optional_data.78" }
%"class.absl::optional_internal::optional_data.78" = type { %"class.absl::optional_internal::optional_data_base.79" }
%"class.absl::optional_internal::optional_data_base.79" = type { %"class.absl::optional_internal::optional_data_dtor_base.80" }
%"class.absl::optional_internal::optional_data_dtor_base.80" = type { i8, %union.anon.81 }
%union.anon.81 = type { %"class.mojo::SimpleWatcher" }
%"class.absl::optional.82" = type { %"class.absl::optional_internal::optional_data.83" }
%"class.absl::optional_internal::optional_data.83" = type { %"class.absl::optional_internal::optional_data_base.84" }
%"class.absl::optional_internal::optional_data_base.84" = type { %"class.absl::optional_internal::optional_data_dtor_base.85" }
%"class.absl::optional_internal::optional_data_dtor_base.85" = type { i8, [7 x i8], %union.anon.86 }
%union.anon.86 = type { %"struct.mojo::internal::MultiplexRouter::ExclusiveSyncWaitInfo" }
%"struct.mojo::internal::MultiplexRouter::ExclusiveSyncWaitInfo" = type <{ i32, [4 x i8], i64, i8, [7 x i8] }>
%"class.absl::optional.39" = type { %"class.absl::optional_internal::optional_data.40" }
%"class.absl::optional_internal::optional_data.40" = type { %"class.absl::optional_internal::optional_data_base.41" }
%"class.absl::optional_internal::optional_data_base.41" = type { %"class.absl::optional_internal::optional_data_dtor_base.42" }
%"class.absl::optional_internal::optional_data_dtor_base.42" = type { i8, %union.anon.43 }
%union.anon.43 = type { %"class.base::Lock" }
%"class.mojo::PipeControlMessageHandler" = type { %"class.mojo::MessageReceiver", %"class.std::__1::basic_string", %"class.mojo::PipeControlMessageHandlerDelegate"* }
%"class.mojo::PipeControlMessageProxy" = type { %"class.mojo::MessageReceiver"* }
%"class.base::small_map" = type { i64, %"class.base::internal::small_map_default_init", %union.anon.91 }
%"class.base::internal::small_map_default_init" = type { i8 }
%union.anon.91 = type { %"class.std::__1::map.93" }
%"class.std::__1::map.93" = type { %"class.std::__1::__tree.94" }
%"class.std::__1::__tree.94" = type { %"class.std::__1::__tree_end_node"*, %"class.std::__1::__compressed_pair.95", %"class.std::__1::__compressed_pair.99" }
%"class.std::__1::__compressed_pair.95" = type { %"struct.std::__1::__compressed_pair_elem.51" }
%"class.std::__1::__compressed_pair.99" = type { %"struct.std::__1::__compressed_pair_elem.56" }
%"class.base::circular_deque" = type { %"class.base::internal::VectorBuffer", i64, i64 }
%"class.base::internal::VectorBuffer" = type { %"class.std::__1::unique_ptr.104"*, i64 }
%"class.std::__1::unique_ptr.104" = type opaque
%"class.std::__1::map.105" = type { %"class.std::__1::__tree.106" }
%"class.std::__1::__tree.106" = type { %"class.std::__1::__tree_end_node"*, %"class.std::__1::__compressed_pair.107", %"class.std::__1::__compressed_pair.111" }
%"class.std::__1::__compressed_pair.107" = type { %"struct.std::__1::__compressed_pair_elem.51" }
%"class.std::__1::__compressed_pair.111" = type { %"struct.std::__1::__compressed_pair_elem.56" }
%"class.std::__1::unique_ptr.114" = type { %"class.std::__1::__compressed_pair.115" }
%"class.std::__1::__compressed_pair.115" = type { %"struct.std::__1::__compressed_pair_elem.116" }
%"struct.std::__1::__compressed_pair_elem.116" = type { %"class.mojo::InterfaceEndpointClient"* }
%"class.mojo::InterfaceEndpointClient" = type { %"class.mojo::MessageReceiverWithResponder", i8, %"class.base::RepeatingCallback.117", %"class.base::OnceCallback.118", %"class.absl::optional.119", %"class.absl::optional.124", %"class.mojo::ConnectionGroup::Ref", i32, %"class.mojo::ScopedInterfaceEndpointHandle", %"class.std::__1::unique_ptr.131", %"class.mojo::InterfaceEndpointController"*, %"class.mojo::MessageReceiverWithResponderStatus"*, %"class.mojo::InterfaceEndpointClient::HandleIncomingMessageThunk", %"class.mojo::MessageDispatcher", %"class.std::__1::map.139", %"class.std::__1::map.150", i64, %"class.base::OnceCallback", %"class.base::OnceCallback.159", i8, %class.scoped_refptr.3, %"class.mojo::internal::ControlMessageProxy", %"class.mojo::internal::ControlMessageHandler", i8*, %"class.base::WeakPtrFactory.160" }
%"class.mojo::MessageReceiverWithResponder" = type { %"class.mojo::MessageReceiver" }
%"class.base::OnceCallback.118" = type { %"class.base::internal::CallbackBase" }
%"class.absl::optional.119" = type { %"class.absl::optional_internal::optional_data.120" }
%"class.absl::optional_internal::optional_data.120" = type { %"class.absl::optional_internal::optional_data_base.121" }
%"class.absl::optional_internal::optional_data_base.121" = type { %"class.absl::optional_internal::optional_data_dtor_base.122" }
%"class.absl::optional_internal::optional_data_dtor_base.122" = type { i8, %union.anon.123 }
%union.anon.123 = type { %"class.base::TimeDelta" }
%"class.base::TimeDelta" = type { i64 }
%"class.absl::optional.124" = type { %"class.absl::optional_internal::optional_data.125" }
%"class.absl::optional_internal::optional_data.125" = type { %"class.absl::optional_internal::optional_data_base.126" }
%"class.absl::optional_internal::optional_data_base.126" = type { %"class.absl::optional_internal::optional_data_dtor_base.127" }
%"class.absl::optional_internal::optional_data_dtor_base.127" = type { i8, %union.anon.128 }
%union.anon.128 = type { %"class.base::OneShotTimer" }
%"class.base::OneShotTimer" = type { %"class.base::internal::TimerBase", %"class.base::OnceCallback" }
%"class.base::internal::TimerBase" = type { i32 (...)**, %class.scoped_refptr.3, %"class.base::SequenceCheckerDoNothing", %"class.base::internal::TaskDestructionDetector"*, %"class.base::Location", %"class.base::TimeDelta", %"class.base::TimeTicks", %"class.base::TimeTicks", %"class.base::TickClock"*, i8, %"class.base::WeakPtrFactory.129" }
%"class.base::SequenceCheckerDoNothing" = type { i8 }
%"class.base::internal::TaskDestructionDetector" = type opaque
%"class.base::Location" = type { i8*, i8*, i32, i8* }
%"class.base::TimeTicks" = type { %"class.base::time_internal::TimeBase" }
%"class.base::time_internal::TimeBase" = type { i64 }
%"class.base::TickClock" = type opaque
%"class.base::WeakPtrFactory.129" = type { %"class.base::internal::WeakPtrFactoryBase" }
%"class.mojo::ScopedInterfaceEndpointHandle" = type { %class.scoped_refptr.130 }
%class.scoped_refptr.130 = type { %"class.mojo::ScopedInterfaceEndpointHandle::State"* }
%"class.mojo::ScopedInterfaceEndpointHandle::State" = type opaque
%"class.std::__1::unique_ptr.131" = type { %"class.std::__1::__compressed_pair.132" }
%"class.std::__1::__compressed_pair.132" = type { %"struct.std::__1::__compressed_pair_elem.133" }
%"struct.std::__1::__compressed_pair_elem.133" = type { %"class.mojo::AssociatedGroup"* }
%"class.mojo::AssociatedGroup" = type { %"class.base::RepeatingCallback.134", %class.scoped_refptr.135 }
%"class.base::RepeatingCallback.134" = type { %"class.base::internal::CallbackBaseCopyable" }
%class.scoped_refptr.135 = type { %"class.mojo::AssociatedGroupController"* }
%"class.mojo::AssociatedGroupController" = type <{ i32 (...)**, %"class.base::RefCountedThreadSafe.2", [4 x i8] }>
%"class.mojo::InterfaceEndpointController" = type opaque
%"class.mojo::MessageReceiverWithResponderStatus" = type { %"class.mojo::MessageReceiver" }
%"class.mojo::InterfaceEndpointClient::HandleIncomingMessageThunk" = type { %"class.mojo::MessageReceiver", %"class.mojo::InterfaceEndpointClient"* }
%"class.std::__1::map.139" = type { %"class.std::__1::__tree.140" }
%"class.std::__1::__tree.140" = type { %"class.std::__1::__tree_end_node"*, %"class.std::__1::__compressed_pair.141", %"class.std::__1::__compressed_pair.145" }
%"class.std::__1::__compressed_pair.141" = type { %"struct.std::__1::__compressed_pair_elem.51" }
%"class.std::__1::__compressed_pair.145" = type { %"struct.std::__1::__compressed_pair_elem.56" }
%"class.std::__1::map.150" = type { %"class.std::__1::__tree.151" }
%"class.std::__1::__tree.151" = type { %"class.std::__1::__tree_end_node"*, %"class.std::__1::__compressed_pair.152", %"class.std::__1::__compressed_pair.156" }
%"class.std::__1::__compressed_pair.152" = type { %"struct.std::__1::__compressed_pair_elem.51" }
%"class.std::__1::__compressed_pair.156" = type { %"struct.std::__1::__compressed_pair_elem.56" }
%"class.base::OnceCallback.159" = type { %"class.base::internal::CallbackBase" }
%"class.mojo::internal::ControlMessageProxy" = type { %"class.mojo::InterfaceEndpointClient"*, i8, %"class.base::OnceCallback" }
%"class.mojo::internal::ControlMessageHandler" = type <{ %"class.mojo::MessageReceiverWithResponderStatus", %"class.mojo::InterfaceEndpointClient"*, i32, [4 x i8] }>
%"class.base::WeakPtrFactory.160" = type { %"class.base::internal::WeakPtrFactoryBase" }
%"class.mojo::ScopedHandleBase" = type { %"class.mojo::MessagePipeHandle" }
%"class.mojo::MessagePipeHandle" = type { %"class.mojo::Handle" }
%"class.std::__1::unique_ptr.164" = type { %"class.std::__1::__compressed_pair.165" }
%"class.std::__1::__compressed_pair.165" = type { %"struct.std::__1::__compressed_pair_elem.166" }
%"struct.std::__1::__compressed_pair_elem.166" = type { %"class.font_service::mojom::FontServiceProxy"* }
%"class.font_service::mojom::FontServiceProxy" = type { %"class.font_service::mojom::FontService", %"class.mojo::MessageReceiverWithResponder"* }
%"class.font_service::mojom::FontService" = type { i32 (...)** }
%"class.std::__1::set" = type { %"class.std::__1::__tree.170" }
%"class.std::__1::__tree.170" = type { %"class.std::__1::__tree_end_node"*, %"class.std::__1::__compressed_pair.171", %"class.std::__1::__compressed_pair.175" }
%"class.std::__1::__compressed_pair.171" = type { %"struct.std::__1::__compressed_pair_elem.51" }
%"class.std::__1::__compressed_pair.175" = type { %"struct.std::__1::__compressed_pair_elem.56" }
%class.scoped_refptr.3 = type { %"class.base::SequencedTaskRunner"* }
%"class.base::SequencedTaskRunner" = type { %"class.base::TaskRunner.base", [4 x i8] }
%"class.base::TaskRunner.base" = type <{ i32 (...)**, %"class.base::RefCountedThreadSafe.4" }>
%"class.base::RefCountedThreadSafe.4" = type { %"class.base::subtle::RefCountedThreadSafeBase" }
%"class.base::Lock" = type { %"class.base::internal::LockImpl" }
%"class.base::internal::LockImpl" = type { %union.pthread_mutex_t }
%union.pthread_mutex_t = type { %struct.__pthread_mutex_s }
%struct.__pthread_mutex_s = type { i32, i32, i32, i32, i32, i16, i16, %struct.__pthread_internal_list }
%struct.__pthread_internal_list = type { %struct.__pthread_internal_list*, %struct.__pthread_internal_list* }
%"class.std::__1::unordered_map" = type { %"class.std::__1::__hash_table" }
%"class.std::__1::__hash_table" = type <{ %"class.std::__1::unique_ptr.177", %"class.std::__1::__compressed_pair.185", %"class.std::__1::__compressed_pair.190", %"class.std::__1::__compressed_pair.192", [4 x i8] }>
%"class.std::__1::unique_ptr.177" = type { %"class.std::__1::__compressed_pair.178" }
%"class.std::__1::__compressed_pair.178" = type { %"struct.std::__1::__compressed_pair_elem.179", %"struct.std::__1::__compressed_pair_elem.180" }
%"struct.std::__1::__compressed_pair_elem.179" = type { %"struct.std::__1::__hash_node_base"** }
%"struct.std::__1::__hash_node_base" = type { %"struct.std::__1::__hash_node_base"* }
%"struct.std::__1::__compressed_pair_elem.180" = type { %"class.std::__1::__bucket_list_deallocator" }
%"class.std::__1::__bucket_list_deallocator" = type { %"class.std::__1::__compressed_pair.181" }
%"class.std::__1::__compressed_pair.181" = type { %"struct.std::__1::__compressed_pair_elem.56" }
%"class.std::__1::__compressed_pair.185" = type { %"struct.std::__1::__compressed_pair_elem.186" }
%"struct.std::__1::__compressed_pair_elem.186" = type { %"struct.std::__1::__hash_node_base" }
%"class.std::__1::__compressed_pair.190" = type { %"struct.std::__1::__compressed_pair_elem.56" }
%"class.std::__1::__compressed_pair.192" = type { %"struct.std::__1::__compressed_pair_elem.193" }
%"struct.std::__1::__compressed_pair_elem.193" = type { float }
%"class.mojo::PendingRemote" = type { %"struct.mojo::internal::PendingRemoteState" }
%"struct.mojo::internal::PendingRemoteState" = type { %"class.mojo::ScopedHandleBase", i32 }
%"struct.SkFontConfigInterface::FontIdentity" = type <{ i32, i32, %class.SkString, %class.SkFontStyle, [4 x i8] }>
%class.SkString = type { %class.sk_sp }
%class.sk_sp = type { %"struct.SkString::Rec"* }
%"struct.SkString::Rec" = type <{ i32, %"struct.std::__1::atomic", i8, [3 x i8] }>
%class.SkFontStyle = type { i32 }
%"class.base::trace_event::TraceStringWithCopy" = type { i8* }
%"class.base::trace_event::TraceArguments" = type { i8, [2 x i8], [2 x i8*], [2 x %"union.base::trace_event::TraceValue"] }
%"union.base::trace_event::TraceValue" = type { i64 }
%"class.base::trace_event::ConvertableToTraceFormat" = type { i32 (...)** }
%"class.protozero::HeapBuffered" = type { %"class.protozero::ScatteredHeapBuffer", %"class.protozero::ScatteredStreamWriter", %"class.protozero::RootMessage" }
%"class.protozero::ScatteredHeapBuffer" = type { %"class.protozero::ScatteredStreamWriter::Delegate", i64, i64, %"class.protozero::ScatteredStreamWriter"*, %"class.std::__1::vector", %"class.protozero::ScatteredHeapBuffer::Slice" }
%"class.protozero::ScatteredStreamWriter::Delegate" = type { i32 (...)** }
%"class.std::__1::vector" = type { %"class.std::__1::__vector_base" }
%"class.std::__1::__vector_base" = type { %"class.protozero::ScatteredHeapBuffer::Slice"*, %"class.protozero::ScatteredHeapBuffer::Slice"*, %"class.std::__1::__compressed_pair.227" }
%"class.std::__1::__compressed_pair.227" = type { %"struct.std::__1::__compressed_pair_elem.228" }
%"struct.std::__1::__compressed_pair_elem.228" = type { %"class.protozero::ScatteredHeapBuffer::Slice"* }
%"class.protozero::ScatteredHeapBuffer::Slice" = type { %"class.std::__1::unique_ptr.221", i64, i64 }
%"class.std::__1::unique_ptr.221" = type { %"class.std::__1::__compressed_pair.222" }
%"class.std::__1::__compressed_pair.222" = type { %"struct.std::__1::__compressed_pair_elem.223" }
%"struct.std::__1::__compressed_pair_elem.223" = type { i8* }
%"class.protozero::ScatteredStreamWriter" = type { %"class.protozero::ScatteredStreamWriter::Delegate"*, %"struct.protozero::ContiguousMemoryRange", i8*, i64 }
%"struct.protozero::ContiguousMemoryRange" = type { i8*, i8* }
%"class.protozero::RootMessage" = type { %"class.perfetto::protos::pbzero::DebugAnnotation.base", %"class.protozero::MessageArena" }
%"class.perfetto::protos::pbzero::DebugAnnotation.base" = type { %"class.protozero::Message.base" }
%"class.protozero::Message.base" = type <{ %"class.protozero::ScatteredStreamWriter"*, %"class.protozero::MessageArena"*, %"class.protozero::Message"*, i8*, i32, i32, i8 }>
%"class.protozero::Message" = type <{ %"class.protozero::ScatteredStreamWriter"*, %"class.protozero::MessageArena"*, %"class.protozero::Message"*, i8*, i32, i32, i8, [7 x i8] }>
%"class.protozero::MessageArena" = type { %"class.std::__1::list" }
%"class.std::__1::list" = type { %"class.std::__1::__list_imp" }
%"class.std::__1::__list_imp" = type { %"struct.std::__1::__list_node_base", %"class.std::__1::__compressed_pair.232" }
%"struct.std::__1::__list_node_base" = type { %"struct.std::__1::__list_node_base"*, %"struct.std::__1::__list_node_base"* }
%"class.std::__1::__compressed_pair.232" = type { %"struct.std::__1::__compressed_pair_elem.56" }
%class.SkStreamAsset = type { %class.SkStreamSeekable }
%class.SkStreamSeekable = type { %class.SkStreamRewindable }
%class.SkStreamRewindable = type { %class.SkStream }
%class.SkStream = type { i32 (...)** }
%"struct.std::__1::pair.206" = type { i32, %"class.font_service::internal::MappedFontFile"* }
%"class.font_service::internal::MappedFontFile" = type { %"class.base::RefCountedThreadSafe.202", i32, %"class.base::MemoryMappedFile", %"class.font_service::internal::MappedFontFile::Observer"* }
%"class.base::RefCountedThreadSafe.202" = type { %"class.base::subtle::RefCountedThreadSafeBase" }
%"class.base::MemoryMappedFile" = type { %"class.base::File", i8*, i64 }
%"class.base::File" = type <{ %"class.base::ScopedGeneric", %"class.base::FilePath", %"class.base::FileTracing::ScopedEnabler", [3 x i8], i32, i8, i8, [6 x i8] }>
%"class.base::ScopedGeneric" = type <{ i32 (...)**, %"struct.base::ScopedGeneric<int, base::internal::ScopedFDCloseTraits>::Data", i8, [3 x i8] }>
%"struct.base::ScopedGeneric<int, base::internal::ScopedFDCloseTraits>::Data" = type { i32 }
%"class.base::FilePath" = type { %"class.std::__1::basic_string" }
%"class.base::FileTracing::ScopedEnabler" = type { i8 }
%class.SkMemoryStream = type { %class.SkStreamMemory, %class.sk_sp.203, i64 }
%class.SkStreamMemory = type { %class.SkStreamAsset }
%class.sk_sp.203 = type { %class.SkData* }
%class.SkData = type { %class.SkNVRefCnt, void (i8*, i8*)*, i8*, i8*, i64 }
%class.SkNVRefCnt = type { %"struct.std::__1::atomic" }
%class.sk_sp.207 = type { %class.SkTypeface* }
%class.SkTypeface = type <{ %class.SkWeakRefCnt, i32, %class.SkFontStyle, %struct.SkRect, %class.SkOnce, i8, [6 x i8] }>
%class.SkWeakRefCnt = type { %class.SkRefCnt.base, %"struct.std::__1::atomic" }
%struct.SkRect = type { float, float, float, float }
%class.SkOnce = type { %"struct.std::__1::atomic.17" }
%class.SkFontConfigInterface = type { %class.SkRefCnt.base, [4 x i8] }
%"class.mojo::StructPtr" = type { %"class.std::__1::unique_ptr.208" }
%"class.std::__1::unique_ptr.208" = type { %"class.std::__1::__compressed_pair.209" }
%"class.std::__1::__compressed_pair.209" = type { %"struct.std::__1::__compressed_pair_elem.210" }
%"struct.std::__1::__compressed_pair_elem.210" = type { %"class.font_service::mojom::FontIdentity"* }
%"class.font_service::mojom::FontIdentity" = type { i32, i32, %"class.base::FilePath" }
%"struct.std::__1::basic_string<char, std::__1::char_traits<char>, std::__1::allocator<char> >::__short" = type { [23 x i8], %struct.anon }
%struct.anon = type { i8 }
%"class.mojo::StructPtr.214" = type { %"class.std::__1::unique_ptr.215" }
%"class.std::__1::unique_ptr.215" = type { %"class.std::__1::__compressed_pair.216" }
%"class.std::__1::__compressed_pair.216" = type { %"struct.std::__1::__compressed_pair_elem.217" }
%"struct.std::__1::__compressed_pair_elem.217" = type { %"class.font_service::mojom::FontRenderStyle"* }
%"class.font_service::mojom::FontRenderStyle" = type { i32, i32, i32, i8, i32, i32, i32 }
%class.SkRefCntBase = type <{ i32 (...)**, %"struct.std::__1::atomic", [4 x i8] }>
%"class.std::__1::unique_ptr.244" = type { %"class.std::__1::__compressed_pair.245" }
%"class.std::__1::__compressed_pair.245" = type { %"struct.std::__1::__compressed_pair_elem.246", %"struct.std::__1::__compressed_pair_elem.247" }
%"struct.std::__1::__compressed_pair_elem.246" = type { %"struct.std::__1::__hash_node"* }
%"struct.std::__1::__hash_node" = type { %"struct.std::__1::__hash_node_base", i64, %"struct.std::__1::__hash_value_type" }
%"struct.std::__1::__hash_value_type" = type { %"struct.std::__1::pair.201" }
%"struct.std::__1::pair.201" = type { i32, %"class.font_service::internal::MappedFontFile"* }
%"struct.std::__1::__compressed_pair_elem.247" = type { %"class.std::__1::__hash_node_destructor" }
%"class.std::__1::__hash_node_destructor" = type <{ %"class.std::__1::allocator.188"*, i8, [7 x i8] }>
%"class.std::__1::allocator.188" = type { i8 }

$_ZN20trace_event_internal13AddTraceEventIN4base11trace_event19TraceStringWithCopyEEENS2_16TraceEventHandleEcPKhPKcS8_yjyS8_OT_ = comdat any

$_ZN20trace_event_internal13AddTraceEventIRKjN4base11trace_event19TraceStringWithCopyEEENS4_16TraceEventHandleEcPKhPKcSA_yjySA_OT_SA_OT0_ = comdat any

$_ZN20trace_event_internal13AddTraceEventIjEEN4base11trace_event16TraceEventHandleEcPKhPKcS7_yjyS7_OT_ = comdat any

$_ZNK12SkRefCntBase16internal_disposeEv = comdat any

$_ZNSt3__112__hash_tableINS_17__hash_value_typeIjPN12font_service8internal14MappedFontFileEEENS_22__unordered_map_hasherIjS6_NS_4hashIjEENS_8equal_toIjEELb1EEENS_21__unordered_map_equalIjS6_SB_S9_Lb1EEENS_9allocatorIS6_EEE25__emplace_unique_key_argsIjJNS_4pairIjS5_EEEEENSJ_INS_15__hash_iteratorIPNS_11__hash_nodeIS6_PvEEEEbEERKT_DpOT0_ = comdat any

$_ZNSt3__112__hash_tableINS_17__hash_value_typeIjPN12font_service8internal14MappedFontFileEEENS_22__unordered_map_hasherIjS6_NS_4hashIjEENS_8equal_toIjEELb1EEENS_21__unordered_map_equalIjS6_SB_S9_Lb1EEENS_9allocatorIS6_EEE6rehashEm = comdat any

$_ZNSt3__112__hash_tableINS_17__hash_value_typeIjPN12font_service8internal14MappedFontFileEEENS_22__unordered_map_hasherIjS6_NS_4hashIjEENS_8equal_toIjEELb1EEENS_21__unordered_map_equalIjS6_SB_S9_Lb1EEENS_9allocatorIS6_EEE8__rehashEm = comdat any

$_ZNSt3__112__hash_tableINS_17__hash_value_typeIjPN12font_service8internal14MappedFontFileEEENS_22__unordered_map_hasherIjS6_NS_4hashIjEENS_8equal_toIjEELb1EEENS_21__unordered_map_equalIjS6_SB_S9_Lb1EEENS_9allocatorIS6_EEE14__erase_uniqueIjEEmRKT_ = comdat any

$_ZNSt3__112__hash_tableINS_17__hash_value_typeIjPN12font_service8internal14MappedFontFileEEENS_22__unordered_map_hasherIjS6_NS_4hashIjEENS_8equal_toIjEELb1EEENS_21__unordered_map_equalIjS6_SB_S9_Lb1EEENS_9allocatorIS6_EEE6removeENS_21__hash_const_iteratorIPNS_11__hash_nodeIS6_PvEEEE = comdat any

@_ZTVN12font_service10FontLoaderE = hidden unnamed_addr constant { [9 x i8*], [3 x i8*] } { [9 x i8*] [i8* null, i8* null, i8* bitcast (void (%"class.font_service::FontLoader"*)* @_ZN12font_service10FontLoaderD2Ev to i8*), i8* bitcast (void (%"class.font_service::FontLoader"*)* @_ZN12font_service10FontLoaderD0Ev to i8*), i8* bitcast (void (%class.SkRefCntBase*)* @_ZNK12SkRefCntBase16internal_disposeEv to i8*), i8* bitcast (i1 (%"class.font_service::FontLoader"*, i8*, i32, %"struct.SkFontConfigInterface::FontIdentity"*, %class.SkString*, %class.SkFontStyle*)* @_ZN12font_service10FontLoader15matchFamilyNameEPKc11SkFontStylePN21SkFontConfigInterface12FontIdentityEP8SkStringPS3_ to i8*), i8* bitcast (%class.SkStreamAsset* (%"class.font_service::FontLoader"*, %"struct.SkFontConfigInterface::FontIdentity"*)* @_ZN12font_service10FontLoader10openStreamERKN21SkFontConfigInterface12FontIdentityE to i8*), i8* bitcast (void (%class.sk_sp.207*, %"class.font_service::FontLoader"*, %"struct.SkFontConfigInterface::FontIdentity"*)* @_ZN12font_service10FontLoader12makeTypefaceERKN21SkFontConfigInterface12FontIdentityE to i8*), i8* bitcast (void (%"class.font_service::FontLoader"*, %"class.font_service::internal::MappedFontFile"*)* @_ZN12font_service10FontLoader25OnMappedFontFileDestroyedEPNS_8internal14MappedFontFileE to i8*)], [3 x i8*] [i8* inttoptr (i64 -16 to i8*), i8* null, i8* bitcast (void (%"class.font_service::FontLoader"*, %"class.font_service::internal::MappedFontFile"*)* @_ZThn16_N12font_service10FontLoader25OnMappedFontFileDestroyedEPNS_8internal14MappedFontFileE to i8*)] }, align 8
@_ZN4base11trace_event16CategoryRegistry11categories_E = external global [300 x %"struct.base::trace_event::TraceCategory"], align 16
@.str = private unnamed_addr constant [35 x i8] c"FontServiceThread::MatchFamilyName\00", align 1
@.str.1 = private unnamed_addr constant [12 x i8] c"family_name\00", align 1
@.str.2 = private unnamed_addr constant [23 x i8] c"FontLoader::openStream\00", align 1
@.str.3 = private unnamed_addr constant [9 x i8] c"identity\00", align 1
@.str.4 = private unnamed_addr constant [5 x i8] c"name\00", align 1
@.str.5 = private unnamed_addr constant [32 x i8] c"FontServiceThread::makeTypeface\00", align 1
@.str.6 = private unnamed_addr constant [38 x i8] c"FontLoader::OnMappedFontFileDestroyed\00", align 1

@_ZN12font_service10FontLoaderC1EN4mojo13PendingRemoteINS_5mojom11FontServiceEEE = hidden unnamed_addr alias void (%"class.font_service::FontLoader"*, %"class.mojo::PendingRemote"*), void (%"class.font_service::FontLoader"*, %"class.mojo::PendingRemote"*)* @_ZN12font_service10FontLoaderC2EN4mojo13PendingRemoteINS_5mojom11FontServiceEEE
@_ZN12font_service10FontLoaderD1Ev = hidden unnamed_addr alias void (%"class.font_service::FontLoader"*), void (%"class.font_service::FontLoader"*)* @_ZN12font_service10FontLoaderD2Ev

; Function Attrs: nounwind ssp uwtable
define hidden void @_ZN12font_service10FontLoaderC2EN4mojo13PendingRemoteINS_5mojom11FontServiceEEE(%"class.font_service::FontLoader"*, %"class.mojo::PendingRemote"*) unnamed_addr #0 align 2 {
  %3 = alloca %"class.mojo::PendingRemote", align 4
  %4 = getelementptr inbounds %"class.font_service::FontLoader", %"class.font_service::FontLoader"* %0, i64 0, i32 0, i32 0, i32 0, i32 1, i32 0, i32 0, i32 0, i32 0, i32 0
  store i32 1, i32* %4, align 4
  %5 = getelementptr inbounds %"class.font_service::FontLoader", %"class.font_service::FontLoader"* %0, i64 0, i32 0, i32 0, i32 0, i32 0
  %6 = getelementptr inbounds %"class.font_service::FontLoader", %"class.font_service::FontLoader"* %0, i64 0, i32 1, i32 0
  store i32 (...)** bitcast (i8** getelementptr inbounds ({ [9 x i8*], [3 x i8*] }, { [9 x i8*], [3 x i8*] }* @_ZTVN12font_service10FontLoaderE, i64 0, inrange i32 0, i64 2) to i32 (...)**), i32 (...)*** %5, align 8
  store i32 (...)** bitcast (i8** getelementptr inbounds ({ [9 x i8*], [3 x i8*] }, { [9 x i8*], [3 x i8*] }* @_ZTVN12font_service10FontLoaderE, i64 0, inrange i32 1, i64 2) to i32 (...)**), i32 (...)*** %6, align 8
  %7 = tail call i8* @_Znwm(i64 96) #9
  %8 = bitcast i8* %7 to %"class.font_service::internal::FontServiceThread"*
  tail call void @_ZN12font_service8internal17FontServiceThreadC1Ev(%"class.font_service::internal::FontServiceThread"* nonnull %8) #10
  %9 = getelementptr inbounds i8, i8* %7, i64 8
  %10 = bitcast i8* %9 to i32*
  %11 = atomicrmw add i32* %10, i32 1 monotonic
  %12 = getelementptr inbounds %"class.font_service::FontLoader", %"class.font_service::FontLoader"* %0, i64 0, i32 2, i32 0
  %13 = bitcast %"class.font_service::internal::FontServiceThread"** %12 to i8**
  store i8* %7, i8** %13, align 8
  %14 = getelementptr inbounds %"class.font_service::FontLoader", %"class.font_service::FontLoader"* %0, i64 0, i32 3, i32 0
  tail call void @_ZN4base8internal8LockImplC1Ev(%"class.base::internal::LockImpl"* %14) #10
  %15 = getelementptr inbounds %"class.font_service::FontLoader", %"class.font_service::FontLoader"* %0, i64 0, i32 4
  %16 = getelementptr inbounds %"class.font_service::FontLoader", %"class.font_service::FontLoader"* %0, i64 0, i32 4, i32 0, i32 3
  %17 = bitcast %"class.std::__1::__compressed_pair.192"* %16 to i32*
  %18 = bitcast %"class.std::__1::unordered_map"* %15 to i8*
  tail call void @llvm.memset.p0i8.i64(i8* align 8 %18, i8 0, i64 32, i1 false) #10
  store i32 1065353216, i32* %17, align 4
  %19 = load %"class.font_service::internal::FontServiceThread"*, %"class.font_service::internal::FontServiceThread"** %12, align 8
  %20 = getelementptr inbounds %"class.mojo::PendingRemote", %"class.mojo::PendingRemote"* %3, i64 0, i32 0
  %21 = getelementptr inbounds %"class.mojo::PendingRemote", %"class.mojo::PendingRemote"* %1, i64 0, i32 0
  call void @_ZN4mojo8internal18PendingRemoteStateC1EOS1_(%"struct.mojo::internal::PendingRemoteState"* nonnull %20, %"struct.mojo::internal::PendingRemoteState"* dereferenceable(8) %21) #10
  call void @_ZN12font_service8internal17FontServiceThread4InitEN4mojo13PendingRemoteINS_5mojom11FontServiceEEE(%"class.font_service::internal::FontServiceThread"* %19, %"class.mojo::PendingRemote"* nonnull %3) #10
  call void @_ZN4mojo8internal18PendingRemoteStateD1Ev(%"struct.mojo::internal::PendingRemoteState"* nonnull %20) #10
  ret void
}

declare void @_ZN12font_service8internal17FontServiceThread4InitEN4mojo13PendingRemoteINS_5mojom11FontServiceEEE(%"class.font_service::internal::FontServiceThread"*, %"class.mojo::PendingRemote"*) local_unnamed_addr #1

; Function Attrs: nounwind ssp uwtable
define hidden void @_ZN12font_service10FontLoaderD2Ev(%"class.font_service::FontLoader"*) unnamed_addr #0 align 2 {
  %2 = getelementptr inbounds %"class.font_service::FontLoader", %"class.font_service::FontLoader"* %0, i64 0, i32 0, i32 0, i32 0, i32 0
  store i32 (...)** bitcast (i8** getelementptr inbounds ({ [9 x i8*], [3 x i8*] }, { [9 x i8*], [3 x i8*] }* @_ZTVN12font_service10FontLoaderE, i64 0, inrange i32 0, i64 2) to i32 (...)**), i32 (...)*** %2, align 8
  %3 = getelementptr inbounds %"class.font_service::FontLoader", %"class.font_service::FontLoader"* %0, i64 0, i32 1, i32 0
  store i32 (...)** bitcast (i8** getelementptr inbounds ({ [9 x i8*], [3 x i8*] }, { [9 x i8*], [3 x i8*] }* @_ZTVN12font_service10FontLoaderE, i64 0, inrange i32 1, i64 2) to i32 (...)**), i32 (...)*** %3, align 8
  %4 = getelementptr inbounds %"class.font_service::FontLoader", %"class.font_service::FontLoader"* %0, i64 0, i32 4, i32 0, i32 1, i32 0, i32 0, i32 0
  %5 = load %"struct.std::__1::__hash_node_base"*, %"struct.std::__1::__hash_node_base"** %4, align 8
  %6 = icmp eq %"struct.std::__1::__hash_node_base"* %5, null
  br i1 %6, label %13, label %7

7:                                                ; preds = %1, %7
  %8 = phi %"struct.std::__1::__hash_node_base"* [ %10, %7 ], [ %5, %1 ]
  %9 = getelementptr inbounds %"struct.std::__1::__hash_node_base", %"struct.std::__1::__hash_node_base"* %8, i64 0, i32 0
  %10 = load %"struct.std::__1::__hash_node_base"*, %"struct.std::__1::__hash_node_base"** %9, align 8
  %11 = bitcast %"struct.std::__1::__hash_node_base"* %8 to i8*
  tail call void @_ZdlPv(i8* %11) #9
  %12 = icmp eq %"struct.std::__1::__hash_node_base"* %10, null
  br i1 %12, label %13, label %7

13:                                               ; preds = %7, %1
  %14 = getelementptr inbounds %"class.font_service::FontLoader", %"class.font_service::FontLoader"* %0, i64 0, i32 4, i32 0, i32 0, i32 0, i32 0, i32 0
  %15 = load %"struct.std::__1::__hash_node_base"**, %"struct.std::__1::__hash_node_base"*** %14, align 8
  store %"struct.std::__1::__hash_node_base"** null, %"struct.std::__1::__hash_node_base"*** %14, align 8
  %16 = icmp eq %"struct.std::__1::__hash_node_base"** %15, null
  br i1 %16, label %19, label %17

17:                                               ; preds = %13
  %18 = bitcast %"struct.std::__1::__hash_node_base"** %15 to i8*
  tail call void @_ZdlPv(i8* %18) #9
  br label %19

19:                                               ; preds = %13, %17
  %20 = getelementptr inbounds %"class.font_service::FontLoader", %"class.font_service::FontLoader"* %0, i64 0, i32 3, i32 0
  tail call void @_ZN4base8internal8LockImplD1Ev(%"class.base::internal::LockImpl"* %20) #10
  %21 = getelementptr inbounds %"class.font_service::FontLoader", %"class.font_service::FontLoader"* %0, i64 0, i32 2, i32 0
  %22 = load %"class.font_service::internal::FontServiceThread"*, %"class.font_service::internal::FontServiceThread"** %21, align 8
  %23 = icmp eq %"class.font_service::internal::FontServiceThread"* %22, null
  br i1 %23, label %36, label %24

24:                                               ; preds = %19
  %25 = getelementptr inbounds %"class.font_service::internal::FontServiceThread", %"class.font_service::internal::FontServiceThread"* %22, i64 0, i32 1
  %26 = getelementptr inbounds %"class.base::RefCountedThreadSafe", %"class.base::RefCountedThreadSafe"* %25, i64 0, i32 0, i32 0, i32 0, i32 0, i32 0, i32 0, i32 0, i32 0
  %27 = atomicrmw sub i32* %26, i32 1 acq_rel
  %28 = icmp eq i32 %27, 1
  br i1 %28, label %29, label %36

29:                                               ; preds = %24
  %30 = getelementptr inbounds %"class.base::RefCountedThreadSafe", %"class.base::RefCountedThreadSafe"* %25, i64 -2
  %31 = bitcast %"class.base::RefCountedThreadSafe"* %30 to %"class.font_service::internal::FontServiceThread"*
  %32 = bitcast %"class.base::RefCountedThreadSafe"* %30 to void (%"class.font_service::internal::FontServiceThread"*)***
  %33 = load void (%"class.font_service::internal::FontServiceThread"*)**, void (%"class.font_service::internal::FontServiceThread"*)*** %32, align 8
  %34 = getelementptr inbounds void (%"class.font_service::internal::FontServiceThread"*)*, void (%"class.font_service::internal::FontServiceThread"*)** %33, i64 1
  %35 = load void (%"class.font_service::internal::FontServiceThread"*)*, void (%"class.font_service::internal::FontServiceThread"*)** %34, align 8
  tail call void %35(%"class.font_service::internal::FontServiceThread"* nonnull %31) #10
  br label %36

36:                                               ; preds = %19, %24, %29
  ret void
}

; Function Attrs: nounwind ssp uwtable
define hidden void @_ZN12font_service10FontLoaderD0Ev(%"class.font_service::FontLoader"*) unnamed_addr #0 align 2 {
  %2 = getelementptr inbounds %"class.font_service::FontLoader", %"class.font_service::FontLoader"* %0, i64 0, i32 0, i32 0, i32 0, i32 0
  store i32 (...)** bitcast (i8** getelementptr inbounds ({ [9 x i8*], [3 x i8*] }, { [9 x i8*], [3 x i8*] }* @_ZTVN12font_service10FontLoaderE, i64 0, inrange i32 0, i64 2) to i32 (...)**), i32 (...)*** %2, align 8
  %3 = getelementptr inbounds %"class.font_service::FontLoader", %"class.font_service::FontLoader"* %0, i64 0, i32 1, i32 0
  store i32 (...)** bitcast (i8** getelementptr inbounds ({ [9 x i8*], [3 x i8*] }, { [9 x i8*], [3 x i8*] }* @_ZTVN12font_service10FontLoaderE, i64 0, inrange i32 1, i64 2) to i32 (...)**), i32 (...)*** %3, align 8
  %4 = getelementptr inbounds %"class.font_service::FontLoader", %"class.font_service::FontLoader"* %0, i64 0, i32 4, i32 0, i32 1, i32 0, i32 0, i32 0
  %5 = load %"struct.std::__1::__hash_node_base"*, %"struct.std::__1::__hash_node_base"** %4, align 8
  %6 = icmp eq %"struct.std::__1::__hash_node_base"* %5, null
  br i1 %6, label %13, label %7

7:                                                ; preds = %1, %7
  %8 = phi %"struct.std::__1::__hash_node_base"* [ %10, %7 ], [ %5, %1 ]
  %9 = getelementptr inbounds %"struct.std::__1::__hash_node_base", %"struct.std::__1::__hash_node_base"* %8, i64 0, i32 0
  %10 = load %"struct.std::__1::__hash_node_base"*, %"struct.std::__1::__hash_node_base"** %9, align 8
  %11 = bitcast %"struct.std::__1::__hash_node_base"* %8 to i8*
  tail call void @_ZdlPv(i8* %11) #9
  %12 = icmp eq %"struct.std::__1::__hash_node_base"* %10, null
  br i1 %12, label %13, label %7

13:                                               ; preds = %7, %1
  %14 = getelementptr inbounds %"class.font_service::FontLoader", %"class.font_service::FontLoader"* %0, i64 0, i32 4, i32 0, i32 0, i32 0, i32 0, i32 0
  %15 = load %"struct.std::__1::__hash_node_base"**, %"struct.std::__1::__hash_node_base"*** %14, align 8
  store %"struct.std::__1::__hash_node_base"** null, %"struct.std::__1::__hash_node_base"*** %14, align 8
  %16 = icmp eq %"struct.std::__1::__hash_node_base"** %15, null
  br i1 %16, label %19, label %17

17:                                               ; preds = %13
  %18 = bitcast %"struct.std::__1::__hash_node_base"** %15 to i8*
  tail call void @_ZdlPv(i8* %18) #9
  br label %19

19:                                               ; preds = %17, %13
  %20 = getelementptr inbounds %"class.font_service::FontLoader", %"class.font_service::FontLoader"* %0, i64 0, i32 3, i32 0
  tail call void @_ZN4base8internal8LockImplD1Ev(%"class.base::internal::LockImpl"* %20) #10
  %21 = getelementptr inbounds %"class.font_service::FontLoader", %"class.font_service::FontLoader"* %0, i64 0, i32 2, i32 0
  %22 = load %"class.font_service::internal::FontServiceThread"*, %"class.font_service::internal::FontServiceThread"** %21, align 8
  %23 = icmp eq %"class.font_service::internal::FontServiceThread"* %22, null
  br i1 %23, label %36, label %24

24:                                               ; preds = %19
  %25 = getelementptr inbounds %"class.font_service::internal::FontServiceThread", %"class.font_service::internal::FontServiceThread"* %22, i64 0, i32 1
  %26 = getelementptr inbounds %"class.base::RefCountedThreadSafe", %"class.base::RefCountedThreadSafe"* %25, i64 0, i32 0, i32 0, i32 0, i32 0, i32 0, i32 0, i32 0, i32 0
  %27 = atomicrmw sub i32* %26, i32 1 acq_rel
  %28 = icmp eq i32 %27, 1
  br i1 %28, label %29, label %36

29:                                               ; preds = %24
  %30 = getelementptr inbounds %"class.base::RefCountedThreadSafe", %"class.base::RefCountedThreadSafe"* %25, i64 -2
  %31 = bitcast %"class.base::RefCountedThreadSafe"* %30 to %"class.font_service::internal::FontServiceThread"*
  %32 = bitcast %"class.base::RefCountedThreadSafe"* %30 to void (%"class.font_service::internal::FontServiceThread"*)***
  %33 = load void (%"class.font_service::internal::FontServiceThread"*)**, void (%"class.font_service::internal::FontServiceThread"*)*** %32, align 8
  %34 = getelementptr inbounds void (%"class.font_service::internal::FontServiceThread"*)*, void (%"class.font_service::internal::FontServiceThread"*)** %33, i64 1
  %35 = load void (%"class.font_service::internal::FontServiceThread"*)*, void (%"class.font_service::internal::FontServiceThread"*)** %34, align 8
  tail call void %35(%"class.font_service::internal::FontServiceThread"* nonnull %31) #10
  br label %36

36:                                               ; preds = %19, %24, %29
  %37 = bitcast %"class.font_service::FontLoader"* %0 to i8*
  tail call void @_ZdlPv(i8* %37) #9
  ret void
}

; Function Attrs: nobuiltin nounwind
declare void @_ZdlPv(i8*) local_unnamed_addr #2

; Function Attrs: nounwind ssp uwtable
define hidden zeroext i1 @_ZN12font_service10FontLoader15matchFamilyNameEPKc11SkFontStylePN21SkFontConfigInterface12FontIdentityEP8SkStringPS3_(%"class.font_service::FontLoader"* nocapture readonly, i8*, i32, %"struct.SkFontConfigInterface::FontIdentity"*, %class.SkString*, %class.SkFontStyle*) unnamed_addr #0 align 2 {
  %7 = alloca %"class.base::trace_event::TraceStringWithCopy", align 8
  %8 = load i8, i8* getelementptr inbounds ([300 x %"struct.base::trace_event::TraceCategory"], [300 x %"struct.base::trace_event::TraceCategory"]* @_ZN4base11trace_event16CategoryRegistry11categories_E, i64 0, i64 57, i32 0), align 16
  %9 = and i8 %8, 25
  %10 = icmp eq i8 %9, 0
  br i1 %10, label %15, label %11, !prof !2

11:                                               ; preds = %6
  %12 = bitcast %"class.base::trace_event::TraceStringWithCopy"* %7 to i8*
  call void @llvm.lifetime.start.p0i8(i64 8, i8* nonnull %12) #10
  %13 = getelementptr inbounds %"class.base::trace_event::TraceStringWithCopy", %"class.base::trace_event::TraceStringWithCopy"* %7, i64 0, i32 0
  store i8* %1, i8** %13, align 8
  %14 = call i64 @_ZN20trace_event_internal13AddTraceEventIN4base11trace_event19TraceStringWithCopyEEENS2_16TraceEventHandleEcPKhPKcS8_yjyS8_OT_(i8 signext 88, i8* getelementptr inbounds ([300 x %"struct.base::trace_event::TraceCategory"], [300 x %"struct.base::trace_event::TraceCategory"]* @_ZN4base11trace_event16CategoryRegistry11categories_E, i64 0, i64 57, i32 0), i8* getelementptr inbounds ([35 x i8], [35 x i8]* @.str, i64 0, i64 0), i8* null, i64 0, i32 0, i64 0, i8* getelementptr inbounds ([12 x i8], [12 x i8]* @.str.1, i64 0, i64 0), %"class.base::trace_event::TraceStringWithCopy"* nonnull dereferenceable(8) %7)
  call void @llvm.lifetime.end.p0i8(i64 8, i8* nonnull %12) #10
  br label %15

15:                                               ; preds = %6, %11
  %16 = phi i64 [ -6148914691236517206, %6 ], [ %14, %11 ]
  %17 = phi i8* [ inttoptr (i64 -6148914691236517206 to i8*), %6 ], [ getelementptr inbounds ([35 x i8], [35 x i8]* @.str, i64 0, i64 0), %11 ]
  %18 = phi i8* [ null, %6 ], [ getelementptr inbounds ([300 x %"struct.base::trace_event::TraceCategory"], [300 x %"struct.base::trace_event::TraceCategory"]* @_ZN4base11trace_event16CategoryRegistry11categories_E, i64 0, i64 57, i32 0), %11 ]
  %19 = getelementptr inbounds %"class.font_service::FontLoader", %"class.font_service::FontLoader"* %0, i64 0, i32 2, i32 0
  %20 = load %"class.font_service::internal::FontServiceThread"*, %"class.font_service::internal::FontServiceThread"** %19, align 8
  %21 = call zeroext i1 @_ZN12font_service8internal17FontServiceThread15MatchFamilyNameEPKc11SkFontStylePN21SkFontConfigInterface12FontIdentityEP8SkStringPS4_(%"class.font_service::internal::FontServiceThread"* %20, i8* %1, i32 %2, %"struct.SkFontConfigInterface::FontIdentity"* %3, %class.SkString* %4, %class.SkFontStyle* %5) #10
  %22 = icmp eq i8* %18, null
  br i1 %22, label %27, label %23

23:                                               ; preds = %15
  %24 = load i8, i8* %18, align 1
  %25 = icmp eq i8 %24, 0
  br i1 %25, label %27, label %26

26:                                               ; preds = %23
  call void @_ZN20trace_event_internal24UpdateTraceEventDurationEPKhPKcN4base11trace_event16TraceEventHandleE(i8* nonnull %18, i8* %17, i64 %16) #10
  br label %27

27:                                               ; preds = %15, %23, %26
  ret i1 %21
}

; Function Attrs: argmemonly nounwind
declare void @llvm.lifetime.start.p0i8(i64 immarg, i8* nocapture) #3

; Function Attrs: inlinehint nounwind ssp uwtable
define linkonce_odr hidden i64 @_ZN20trace_event_internal13AddTraceEventIN4base11trace_event19TraceStringWithCopyEEENS2_16TraceEventHandleEcPKhPKcS8_yjyS8_OT_(i8 signext, i8*, i8*, i8*, i64, i32, i64, i8*, %"class.base::trace_event::TraceStringWithCopy"* dereferenceable(8)) local_unnamed_addr #4 comdat {
  %10 = alloca %"class.base::trace_event::TraceArguments", align 8
  %11 = alloca %"class.base::TimeTicks", align 8
  %12 = tail call i32 @_ZN4base14PlatformThread9CurrentIdEv() #10
  %13 = bitcast %"class.base::TimeTicks"* %11 to i8*
  call void @llvm.lifetime.start.p0i8(i64 8, i8* nonnull %13) #10
  %14 = getelementptr inbounds %"class.base::TimeTicks", %"class.base::TimeTicks"* %11, i64 0, i32 0, i32 0
  %15 = tail call i64 @_ZN4base6subtle28TimeTicksNowIgnoringOverrideEv() #10
  store i64 %15, i64* %14, align 8
  %16 = getelementptr inbounds %"class.base::trace_event::TraceArguments", %"class.base::trace_event::TraceArguments"* %10, i64 0, i32 0
  call void @llvm.lifetime.start.p0i8(i64 40, i8* nonnull %16) #10
  call void @llvm.memset.p0i8.i64(i8* nonnull align 8 %16, i8 -86, i64 40, i1 false) #10
  store i8 1, i8* %16, align 8
  %17 = getelementptr inbounds %"class.base::trace_event::TraceArguments", %"class.base::trace_event::TraceArguments"* %10, i64 0, i32 1, i64 0
  store i8 7, i8* %17, align 1
  %18 = getelementptr inbounds %"class.base::trace_event::TraceArguments", %"class.base::trace_event::TraceArguments"* %10, i64 0, i32 2, i64 0
  store i8* %7, i8** %18, align 8
  %19 = bitcast %"class.base::trace_event::TraceStringWithCopy"* %8 to i64*
  %20 = load i64, i64* %19, align 8
  %21 = getelementptr inbounds %"class.base::trace_event::TraceArguments", %"class.base::trace_event::TraceArguments"* %10, i64 0, i32 3, i64 0, i32 0
  store i64 %20, i64* %21, align 8
  %22 = call i64 @_ZN20trace_event_internal37AddTraceEventWithThreadIdAndTimestampEcPKhPKcS3_yyiRKN4base9TimeTicksEPNS4_11trace_event14TraceArgumentsEj(i8 signext %0, i8* %1, i8* %2, i8* %3, i64 %4, i64 %6, i32 %12, %"class.base::TimeTicks"* nonnull dereferenceable(8) %11, %"class.base::trace_event::TraceArguments"* nonnull %10, i32 %5) #10
  %23 = load i8, i8* %16, align 8
  %24 = icmp eq i8 %23, 0
  br i1 %24, label %59, label %25

25:                                               ; preds = %9, %54
  %26 = phi i64 [ %55, %54 ], [ 0, %9 ]
  %27 = getelementptr inbounds %"class.base::trace_event::TraceArguments", %"class.base::trace_event::TraceArguments"* %10, i64 0, i32 1, i64 %26
  %28 = load i8, i8* %27, align 1
  %29 = icmp eq i8 %28, 8
  br i1 %29, label %30, label %41

30:                                               ; preds = %25
  %31 = getelementptr inbounds %"class.base::trace_event::TraceArguments", %"class.base::trace_event::TraceArguments"* %10, i64 0, i32 3, i64 %26
  %32 = bitcast %"union.base::trace_event::TraceValue"* %31 to %"class.base::trace_event::ConvertableToTraceFormat"**
  %33 = load %"class.base::trace_event::ConvertableToTraceFormat"*, %"class.base::trace_event::ConvertableToTraceFormat"** %32, align 8
  %34 = icmp eq %"class.base::trace_event::ConvertableToTraceFormat"* %33, null
  br i1 %34, label %54, label %35

35:                                               ; preds = %30
  %36 = bitcast %"class.base::trace_event::ConvertableToTraceFormat"* %33 to void (%"class.base::trace_event::ConvertableToTraceFormat"*)***
  %37 = load void (%"class.base::trace_event::ConvertableToTraceFormat"*)**, void (%"class.base::trace_event::ConvertableToTraceFormat"*)*** %36, align 8
  %38 = getelementptr inbounds void (%"class.base::trace_event::ConvertableToTraceFormat"*)*, void (%"class.base::trace_event::ConvertableToTraceFormat"*)** %37, i64 1
  %39 = load void (%"class.base::trace_event::ConvertableToTraceFormat"*)*, void (%"class.base::trace_event::ConvertableToTraceFormat"*)** %38, align 8
  call void %39(%"class.base::trace_event::ConvertableToTraceFormat"* nonnull %33) #10
  %40 = load i8, i8* %27, align 1
  br label %41

41:                                               ; preds = %35, %25
  %42 = phi i8 [ %28, %25 ], [ %40, %35 ]
  %43 = icmp eq i8 %42, 9
  br i1 %43, label %44, label %54

44:                                               ; preds = %41
  %45 = getelementptr inbounds %"class.base::trace_event::TraceArguments", %"class.base::trace_event::TraceArguments"* %10, i64 0, i32 3, i64 %26
  %46 = bitcast %"union.base::trace_event::TraceValue"* %45 to %"class.protozero::HeapBuffered"**
  %47 = load %"class.protozero::HeapBuffered"*, %"class.protozero::HeapBuffered"** %46, align 8
  %48 = icmp eq %"class.protozero::HeapBuffered"* %47, null
  br i1 %48, label %54, label %49

49:                                               ; preds = %44
  %50 = getelementptr inbounds %"class.protozero::HeapBuffered", %"class.protozero::HeapBuffered"* %47, i64 0, i32 2, i32 1
  call void @_ZN9protozero12MessageArenaD1Ev(%"class.protozero::MessageArena"* %50) #10
  %51 = getelementptr inbounds %"class.protozero::HeapBuffered", %"class.protozero::HeapBuffered"* %47, i64 0, i32 1
  call void @_ZN9protozero21ScatteredStreamWriterD1Ev(%"class.protozero::ScatteredStreamWriter"* %51) #10
  %52 = getelementptr inbounds %"class.protozero::HeapBuffered", %"class.protozero::HeapBuffered"* %47, i64 0, i32 0
  call void @_ZN9protozero19ScatteredHeapBufferD1Ev(%"class.protozero::ScatteredHeapBuffer"* %52) #10
  %53 = bitcast %"class.protozero::HeapBuffered"* %47 to i8*
  call void @_ZdlPv(i8* %53) #9
  br label %54

54:                                               ; preds = %49, %44, %41, %30
  %55 = add nuw nsw i64 %26, 1
  %56 = load i8, i8* %16, align 8
  %57 = zext i8 %56 to i64
  %58 = icmp ult i64 %55, %57
  br i1 %58, label %25, label %59

59:                                               ; preds = %54, %9
  call void @llvm.lifetime.end.p0i8(i64 40, i8* nonnull %16) #10
  call void @llvm.lifetime.end.p0i8(i64 8, i8* nonnull %13) #10
  ret i64 %22
}

; Function Attrs: argmemonly nounwind
declare void @llvm.lifetime.end.p0i8(i64 immarg, i8* nocapture) #3

; Function Attrs: argmemonly nounwind
declare void @llvm.memcpy.p0i8.p0i8.i64(i8* nocapture writeonly, i8* nocapture readonly, i64, i1 immarg) #3

declare zeroext i1 @_ZN12font_service8internal17FontServiceThread15MatchFamilyNameEPKc11SkFontStylePN21SkFontConfigInterface12FontIdentityEP8SkStringPS4_(%"class.font_service::internal::FontServiceThread"*, i8*, i32, %"struct.SkFontConfigInterface::FontIdentity"*, %class.SkString*, %class.SkFontStyle*) local_unnamed_addr #1

; Function Attrs: nounwind ssp uwtable
define hidden %class.SkStreamAsset* @_ZN12font_service10FontLoader10openStreamERKN21SkFontConfigInterface12FontIdentityE(%"class.font_service::FontLoader"*, %"struct.SkFontConfigInterface::FontIdentity"* dereferenceable(24)) unnamed_addr #0 align 2 {
  %3 = alloca %"class.base::trace_event::TraceStringWithCopy", align 8
  %4 = alloca %"struct.std::__1::pair.206", align 8
  %5 = load i8, i8* getelementptr inbounds ([300 x %"struct.base::trace_event::TraceCategory"], [300 x %"struct.base::trace_event::TraceCategory"]* @_ZN4base11trace_event16CategoryRegistry11categories_E, i64 0, i64 57, i32 0), align 16
  %6 = and i8 %5, 25
  %7 = icmp eq i8 %6, 0
  br i1 %7, label %16, label %8, !prof !2

8:                                                ; preds = %2
  %9 = getelementptr inbounds %"struct.SkFontConfigInterface::FontIdentity", %"struct.SkFontConfigInterface::FontIdentity"* %1, i64 0, i32 0
  %10 = bitcast %"class.base::trace_event::TraceStringWithCopy"* %3 to i8*
  call void @llvm.lifetime.start.p0i8(i64 8, i8* nonnull %10) #10
  %11 = getelementptr inbounds %"struct.SkFontConfigInterface::FontIdentity", %"struct.SkFontConfigInterface::FontIdentity"* %1, i64 0, i32 2, i32 0, i32 0
  %12 = load %"struct.SkString::Rec"*, %"struct.SkString::Rec"** %11, align 8
  %13 = getelementptr inbounds %"struct.SkString::Rec", %"struct.SkString::Rec"* %12, i64 0, i32 2
  %14 = getelementptr inbounds %"class.base::trace_event::TraceStringWithCopy", %"class.base::trace_event::TraceStringWithCopy"* %3, i64 0, i32 0
  store i8* %13, i8** %14, align 8
  %15 = call i64 @_ZN20trace_event_internal13AddTraceEventIRKjN4base11trace_event19TraceStringWithCopyEEENS4_16TraceEventHandleEcPKhPKcSA_yjySA_OT_SA_OT0_(i8 signext 88, i8* getelementptr inbounds ([300 x %"struct.base::trace_event::TraceCategory"], [300 x %"struct.base::trace_event::TraceCategory"]* @_ZN4base11trace_event16CategoryRegistry11categories_E, i64 0, i64 57, i32 0), i8* getelementptr inbounds ([23 x i8], [23 x i8]* @.str.2, i64 0, i64 0), i8* null, i64 0, i32 0, i64 0, i8* getelementptr inbounds ([9 x i8], [9 x i8]* @.str.3, i64 0, i64 0), i32* dereferenceable(4) %9, i8* getelementptr inbounds ([5 x i8], [5 x i8]* @.str.4, i64 0, i64 0), %"class.base::trace_event::TraceStringWithCopy"* nonnull dereferenceable(8) %3)
  call void @llvm.lifetime.end.p0i8(i64 8, i8* nonnull %10) #10
  br label %16

16:                                               ; preds = %2, %8
  %17 = phi i8* [ null, %2 ], [ getelementptr inbounds ([300 x %"struct.base::trace_event::TraceCategory"], [300 x %"struct.base::trace_event::TraceCategory"]* @_ZN4base11trace_event16CategoryRegistry11categories_E, i64 0, i64 57, i32 0), %8 ]
  %18 = phi i8* [ inttoptr (i64 -6148914691236517206 to i8*), %2 ], [ getelementptr inbounds ([23 x i8], [23 x i8]* @.str.2, i64 0, i64 0), %8 ]
  %19 = phi i64 [ -6148914691236517206, %2 ], [ %15, %8 ]
  %20 = getelementptr inbounds %"class.font_service::FontLoader", %"class.font_service::FontLoader"* %0, i64 0, i32 3
  %21 = getelementptr inbounds %"class.base::Lock", %"class.base::Lock"* %20, i64 0, i32 0, i32 0
  %22 = call i32 @pthread_mutex_trylock(%union.pthread_mutex_t* %21) #10
  %23 = icmp eq i32 %22, 0
  br i1 %23, label %26, label %24, !prof !2

24:                                               ; preds = %16
  %25 = getelementptr inbounds %"class.base::Lock", %"class.base::Lock"* %20, i64 0, i32 0
  call void @_ZN4base8internal8LockImpl24LockInternalWithTrackingEv(%"class.base::internal::LockImpl"* %25) #10
  br label %26

26:                                               ; preds = %16, %24
  %27 = getelementptr inbounds %"class.font_service::FontLoader", %"class.font_service::FontLoader"* %0, i64 0, i32 4
  %28 = getelementptr inbounds %"struct.SkFontConfigInterface::FontIdentity", %"struct.SkFontConfigInterface::FontIdentity"* %1, i64 0, i32 0
  %29 = load i32, i32* %28, align 4
  %30 = zext i32 %29 to i64
  %31 = getelementptr inbounds %"class.font_service::FontLoader", %"class.font_service::FontLoader"* %0, i64 0, i32 4, i32 0, i32 0, i32 0, i32 1, i32 0, i32 0, i32 0, i32 0
  %32 = load i64, i64* %31, align 8
  %33 = icmp eq i64 %32, 0
  br i1 %33, label %89, label %34

34:                                               ; preds = %26
  %35 = call i64 @llvm.ctpop.i64(i64 %32) #10, !range !3
  %36 = icmp ugt i64 %35, 1
  br i1 %36, label %40, label %37

37:                                               ; preds = %34
  %38 = add i64 %32, 4294967295
  %39 = and i64 %38, %30
  br label %44

40:                                               ; preds = %34
  %41 = icmp ugt i64 %32, %30
  br i1 %41, label %44, label %42

42:                                               ; preds = %40
  %43 = urem i64 %30, %32
  br label %44

44:                                               ; preds = %42, %40, %37
  %45 = phi i64 [ %39, %37 ], [ %43, %42 ], [ %30, %40 ]
  %46 = getelementptr inbounds %"class.std::__1::unordered_map", %"class.std::__1::unordered_map"* %27, i64 0, i32 0, i32 0, i32 0, i32 0, i32 0
  %47 = load %"struct.std::__1::__hash_node_base"**, %"struct.std::__1::__hash_node_base"*** %46, align 8
  %48 = getelementptr inbounds %"struct.std::__1::__hash_node_base"*, %"struct.std::__1::__hash_node_base"** %47, i64 %45
  %49 = load %"struct.std::__1::__hash_node_base"*, %"struct.std::__1::__hash_node_base"** %48, align 8
  %50 = icmp eq %"struct.std::__1::__hash_node_base"* %49, null
  br i1 %50, label %89, label %51

51:                                               ; preds = %44
  %52 = getelementptr inbounds %"struct.std::__1::__hash_node_base", %"struct.std::__1::__hash_node_base"* %49, i64 0, i32 0
  %53 = load %"struct.std::__1::__hash_node_base"*, %"struct.std::__1::__hash_node_base"** %52, align 8
  %54 = icmp eq %"struct.std::__1::__hash_node_base"* %53, null
  br i1 %54, label %89, label %55

55:                                               ; preds = %51
  %56 = add i64 %32, -1
  br label %57

57:                                               ; preds = %78, %55
  %58 = phi %"struct.std::__1::__hash_node_base"* [ %53, %55 ], [ %80, %78 ]
  %59 = getelementptr inbounds %"struct.std::__1::__hash_node_base", %"struct.std::__1::__hash_node_base"* %58, i64 1
  %60 = bitcast %"struct.std::__1::__hash_node_base"* %59 to i64*
  %61 = load i64, i64* %60, align 8
  %62 = icmp eq i64 %61, %30
  br i1 %62, label %73, label %63

63:                                               ; preds = %57
  br i1 %36, label %66, label %64

64:                                               ; preds = %63
  %65 = and i64 %61, %56
  br label %70

66:                                               ; preds = %63
  %67 = icmp ult i64 %61, %32
  br i1 %67, label %70, label %68

68:                                               ; preds = %66
  %69 = urem i64 %61, %32
  br label %70

70:                                               ; preds = %68, %66, %64
  %71 = phi i64 [ %65, %64 ], [ %69, %68 ], [ %61, %66 ]
  %72 = icmp eq i64 %71, %45
  br i1 %72, label %78, label %89

73:                                               ; preds = %57
  %74 = getelementptr inbounds %"struct.std::__1::__hash_node_base", %"struct.std::__1::__hash_node_base"* %58, i64 2
  %75 = bitcast %"struct.std::__1::__hash_node_base"* %74 to i32*
  %76 = load i32, i32* %75, align 4
  %77 = icmp eq i32 %76, %29
  br i1 %77, label %82, label %78

78:                                               ; preds = %73, %70
  %79 = getelementptr inbounds %"struct.std::__1::__hash_node_base", %"struct.std::__1::__hash_node_base"* %58, i64 0, i32 0
  %80 = load %"struct.std::__1::__hash_node_base"*, %"struct.std::__1::__hash_node_base"** %79, align 8
  %81 = icmp eq %"struct.std::__1::__hash_node_base"* %80, null
  br i1 %81, label %89, label %57

82:                                               ; preds = %73
  %83 = getelementptr inbounds %"struct.std::__1::__hash_node_base", %"struct.std::__1::__hash_node_base"* %58, i64 3
  %84 = bitcast %"struct.std::__1::__hash_node_base"* %83 to %"class.font_service::internal::MappedFontFile"**
  %85 = load %"class.font_service::internal::MappedFontFile"*, %"class.font_service::internal::MappedFontFile"** %84, align 8
  %86 = call %class.SkMemoryStream* @_ZN12font_service8internal14MappedFontFile18CreateMemoryStreamEv(%"class.font_service::internal::MappedFontFile"* %85) #10
  %87 = getelementptr inbounds %class.SkMemoryStream, %class.SkMemoryStream* %86, i64 0, i32 0, i32 0
  %88 = call i32 @pthread_mutex_unlock(%union.pthread_mutex_t* %21) #10
  br label %122

89:                                               ; preds = %70, %78, %44, %26, %51
  %90 = call i32 @pthread_mutex_unlock(%union.pthread_mutex_t* %21) #10
  %91 = getelementptr inbounds %"class.font_service::FontLoader", %"class.font_service::FontLoader"* %0, i64 0, i32 2, i32 0
  %92 = load %"class.font_service::internal::FontServiceThread"*, %"class.font_service::internal::FontServiceThread"** %91, align 8
  %93 = call %"class.font_service::internal::MappedFontFile"* @_ZN12font_service8internal17FontServiceThread10OpenStreamERKN21SkFontConfigInterface12FontIdentityE(%"class.font_service::internal::FontServiceThread"* %92, %"struct.SkFontConfigInterface::FontIdentity"* dereferenceable(24) %1) #10
  %94 = icmp eq %"class.font_service::internal::MappedFontFile"* %93, null
  br i1 %94, label %122, label %95

95:                                               ; preds = %89
  %96 = getelementptr inbounds %"class.font_service::FontLoader", %"class.font_service::FontLoader"* %0, i64 0, i32 1
  %97 = getelementptr inbounds %"class.font_service::internal::MappedFontFile", %"class.font_service::internal::MappedFontFile"* %93, i64 0, i32 3
  store %"class.font_service::internal::MappedFontFile::Observer"* %96, %"class.font_service::internal::MappedFontFile::Observer"** %97, align 8
  %98 = call i32 @pthread_mutex_trylock(%union.pthread_mutex_t* %21) #10
  %99 = icmp eq i32 %98, 0
  br i1 %99, label %102, label %100, !prof !2

100:                                              ; preds = %95
  %101 = getelementptr inbounds %"class.base::Lock", %"class.base::Lock"* %20, i64 0, i32 0
  call void @_ZN4base8internal8LockImpl24LockInternalWithTrackingEv(%"class.base::internal::LockImpl"* %101) #10
  br label %102

102:                                              ; preds = %95, %100
  %103 = bitcast %"struct.std::__1::pair.206"* %4 to i8*
  call void @llvm.lifetime.start.p0i8(i64 16, i8* nonnull %103) #10
  %104 = getelementptr inbounds %"class.font_service::internal::MappedFontFile", %"class.font_service::internal::MappedFontFile"* %93, i64 0, i32 1
  %105 = load i32, i32* %104, align 4
  %106 = getelementptr inbounds %"struct.std::__1::pair.206", %"struct.std::__1::pair.206"* %4, i64 0, i32 0
  store i32 %105, i32* %106, align 8
  %107 = getelementptr inbounds %"struct.std::__1::pair.206", %"struct.std::__1::pair.206"* %4, i64 0, i32 1
  store %"class.font_service::internal::MappedFontFile"* %93, %"class.font_service::internal::MappedFontFile"** %107, align 8
  %108 = getelementptr inbounds %"class.std::__1::unordered_map", %"class.std::__1::unordered_map"* %27, i64 0, i32 0
  %109 = call { %"struct.std::__1::__hash_node_base"*, i8 } @_ZNSt3__112__hash_tableINS_17__hash_value_typeIjPN12font_service8internal14MappedFontFileEEENS_22__unordered_map_hasherIjS6_NS_4hashIjEENS_8equal_toIjEELb1EEENS_21__unordered_map_equalIjS6_SB_S9_Lb1EEENS_9allocatorIS6_EEE25__emplace_unique_key_argsIjJNS_4pairIjS5_EEEEENSJ_INS_15__hash_iteratorIPNS_11__hash_nodeIS6_PvEEEEbEERKT_DpOT0_(%"class.std::__1::__hash_table"* %108, i32* nonnull dereferenceable(4) %106, %"struct.std::__1::pair.206"* nonnull dereferenceable(16) %4) #10
  %110 = extractvalue { %"struct.std::__1::__hash_node_base"*, i8 } %109, 0
  call void @llvm.lifetime.end.p0i8(i64 16, i8* nonnull %103) #10
  %111 = getelementptr inbounds %"struct.std::__1::__hash_node_base", %"struct.std::__1::__hash_node_base"* %110, i64 3
  %112 = bitcast %"struct.std::__1::__hash_node_base"* %111 to %"class.font_service::internal::MappedFontFile"**
  %113 = load %"class.font_service::internal::MappedFontFile"*, %"class.font_service::internal::MappedFontFile"** %112, align 8
  %114 = call %class.SkMemoryStream* @_ZN12font_service8internal14MappedFontFile18CreateMemoryStreamEv(%"class.font_service::internal::MappedFontFile"* %113) #10
  %115 = getelementptr inbounds %class.SkMemoryStream, %class.SkMemoryStream* %114, i64 0, i32 0, i32 0
  %116 = call i32 @pthread_mutex_unlock(%union.pthread_mutex_t* %21) #10
  %117 = getelementptr inbounds %"class.font_service::internal::MappedFontFile", %"class.font_service::internal::MappedFontFile"* %93, i64 0, i32 0, i32 0, i32 0, i32 0, i32 0, i32 0, i32 0, i32 0, i32 0
  %118 = atomicrmw sub i32* %117, i32 1 acq_rel
  %119 = icmp eq i32 %118, 1
  br i1 %119, label %120, label %122

120:                                              ; preds = %102
  call void @_ZN12font_service8internal14MappedFontFileD1Ev(%"class.font_service::internal::MappedFontFile"* nonnull %93) #10
  %121 = bitcast %"class.font_service::internal::MappedFontFile"* %93 to i8*
  call void @_ZdlPv(i8* %121) #9
  br label %122

122:                                              ; preds = %89, %120, %102, %82
  %123 = phi %class.SkStreamAsset* [ %87, %82 ], [ %115, %102 ], [ %115, %120 ], [ null, %89 ]
  %124 = icmp eq i8* %17, null
  br i1 %124, label %129, label %125

125:                                              ; preds = %122
  %126 = load i8, i8* %17, align 1
  %127 = icmp eq i8 %126, 0
  br i1 %127, label %129, label %128

128:                                              ; preds = %125
  call void @_ZN20trace_event_internal24UpdateTraceEventDurationEPKhPKcN4base11trace_event16TraceEventHandleE(i8* nonnull %17, i8* %18, i64 %19) #10
  br label %129

129:                                              ; preds = %122, %125, %128
  ret %class.SkStreamAsset* %123
}

; Function Attrs: inlinehint nounwind ssp uwtable
define linkonce_odr hidden i64 @_ZN20trace_event_internal13AddTraceEventIRKjN4base11trace_event19TraceStringWithCopyEEENS4_16TraceEventHandleEcPKhPKcSA_yjySA_OT_SA_OT0_(i8 signext, i8*, i8*, i8*, i64, i32, i64, i8*, i32* dereferenceable(4), i8*, %"class.base::trace_event::TraceStringWithCopy"* dereferenceable(8)) local_unnamed_addr #4 comdat {
  %12 = alloca %"class.base::trace_event::TraceArguments", align 8
  %13 = alloca %"class.base::TimeTicks", align 8
  %14 = tail call i32 @_ZN4base14PlatformThread9CurrentIdEv() #10
  %15 = bitcast %"class.base::TimeTicks"* %13 to i8*
  call void @llvm.lifetime.start.p0i8(i64 8, i8* nonnull %15) #10
  %16 = getelementptr inbounds %"class.base::TimeTicks", %"class.base::TimeTicks"* %13, i64 0, i32 0, i32 0
  %17 = tail call i64 @_ZN4base6subtle28TimeTicksNowIgnoringOverrideEv() #10
  store i64 %17, i64* %16, align 8
  %18 = getelementptr inbounds %"class.base::trace_event::TraceArguments", %"class.base::trace_event::TraceArguments"* %12, i64 0, i32 0
  call void @llvm.lifetime.start.p0i8(i64 40, i8* nonnull %18) #10
  %19 = bitcast %"class.base::trace_event::TraceArguments"* %12 to i64*
  store i64 -6148914691247242750, i64* %19, align 8
  %20 = getelementptr inbounds %"class.base::trace_event::TraceArguments", %"class.base::trace_event::TraceArguments"* %12, i64 0, i32 2, i64 0
  store i8* %7, i8** %20, align 8
  %21 = getelementptr inbounds %"class.base::trace_event::TraceArguments", %"class.base::trace_event::TraceArguments"* %12, i64 0, i32 2, i64 1
  store i8* %9, i8** %21, align 8
  %22 = load i32, i32* %8, align 4
  %23 = zext i32 %22 to i64
  %24 = getelementptr inbounds %"class.base::trace_event::TraceArguments", %"class.base::trace_event::TraceArguments"* %12, i64 0, i32 3, i64 0, i32 0
  store i64 %23, i64* %24, align 8
  %25 = bitcast %"class.base::trace_event::TraceStringWithCopy"* %10 to i64*
  %26 = load i64, i64* %25, align 8
  %27 = getelementptr inbounds %"class.base::trace_event::TraceArguments", %"class.base::trace_event::TraceArguments"* %12, i64 0, i32 3, i64 1, i32 0
  store i64 %26, i64* %27, align 8
  %28 = call i64 @_ZN20trace_event_internal37AddTraceEventWithThreadIdAndTimestampEcPKhPKcS3_yyiRKN4base9TimeTicksEPNS4_11trace_event14TraceArgumentsEj(i8 signext %0, i8* %1, i8* %2, i8* %3, i64 %4, i64 %6, i32 %14, %"class.base::TimeTicks"* nonnull dereferenceable(8) %13, %"class.base::trace_event::TraceArguments"* nonnull %12, i32 %5) #10
  %29 = load i8, i8* %18, align 8
  %30 = icmp eq i8 %29, 0
  br i1 %30, label %65, label %31

31:                                               ; preds = %11, %60
  %32 = phi i64 [ %61, %60 ], [ 0, %11 ]
  %33 = getelementptr inbounds %"class.base::trace_event::TraceArguments", %"class.base::trace_event::TraceArguments"* %12, i64 0, i32 1, i64 %32
  %34 = load i8, i8* %33, align 1
  %35 = icmp eq i8 %34, 8
  br i1 %35, label %36, label %47

36:                                               ; preds = %31
  %37 = getelementptr inbounds %"class.base::trace_event::TraceArguments", %"class.base::trace_event::TraceArguments"* %12, i64 0, i32 3, i64 %32
  %38 = bitcast %"union.base::trace_event::TraceValue"* %37 to %"class.base::trace_event::ConvertableToTraceFormat"**
  %39 = load %"class.base::trace_event::ConvertableToTraceFormat"*, %"class.base::trace_event::ConvertableToTraceFormat"** %38, align 8
  %40 = icmp eq %"class.base::trace_event::ConvertableToTraceFormat"* %39, null
  br i1 %40, label %60, label %41

41:                                               ; preds = %36
  %42 = bitcast %"class.base::trace_event::ConvertableToTraceFormat"* %39 to void (%"class.base::trace_event::ConvertableToTraceFormat"*)***
  %43 = load void (%"class.base::trace_event::ConvertableToTraceFormat"*)**, void (%"class.base::trace_event::ConvertableToTraceFormat"*)*** %42, align 8
  %44 = getelementptr inbounds void (%"class.base::trace_event::ConvertableToTraceFormat"*)*, void (%"class.base::trace_event::ConvertableToTraceFormat"*)** %43, i64 1
  %45 = load void (%"class.base::trace_event::ConvertableToTraceFormat"*)*, void (%"class.base::trace_event::ConvertableToTraceFormat"*)** %44, align 8
  call void %45(%"class.base::trace_event::ConvertableToTraceFormat"* nonnull %39) #10
  %46 = load i8, i8* %33, align 1
  br label %47

47:                                               ; preds = %41, %31
  %48 = phi i8 [ %34, %31 ], [ %46, %41 ]
  %49 = icmp eq i8 %48, 9
  br i1 %49, label %50, label %60

50:                                               ; preds = %47
  %51 = getelementptr inbounds %"class.base::trace_event::TraceArguments", %"class.base::trace_event::TraceArguments"* %12, i64 0, i32 3, i64 %32
  %52 = bitcast %"union.base::trace_event::TraceValue"* %51 to %"class.protozero::HeapBuffered"**
  %53 = load %"class.protozero::HeapBuffered"*, %"class.protozero::HeapBuffered"** %52, align 8
  %54 = icmp eq %"class.protozero::HeapBuffered"* %53, null
  br i1 %54, label %60, label %55

55:                                               ; preds = %50
  %56 = getelementptr inbounds %"class.protozero::HeapBuffered", %"class.protozero::HeapBuffered"* %53, i64 0, i32 2, i32 1
  call void @_ZN9protozero12MessageArenaD1Ev(%"class.protozero::MessageArena"* %56) #10
  %57 = getelementptr inbounds %"class.protozero::HeapBuffered", %"class.protozero::HeapBuffered"* %53, i64 0, i32 1
  call void @_ZN9protozero21ScatteredStreamWriterD1Ev(%"class.protozero::ScatteredStreamWriter"* %57) #10
  %58 = getelementptr inbounds %"class.protozero::HeapBuffered", %"class.protozero::HeapBuffered"* %53, i64 0, i32 0
  call void @_ZN9protozero19ScatteredHeapBufferD1Ev(%"class.protozero::ScatteredHeapBuffer"* %58) #10
  %59 = bitcast %"class.protozero::HeapBuffered"* %53 to i8*
  call void @_ZdlPv(i8* %59) #9
  br label %60

60:                                               ; preds = %55, %50, %47, %36
  %61 = add nuw nsw i64 %32, 1
  %62 = load i8, i8* %18, align 8
  %63 = zext i8 %62 to i64
  %64 = icmp ult i64 %61, %63
  br i1 %64, label %31, label %65

65:                                               ; preds = %60, %11
  call void @llvm.lifetime.end.p0i8(i64 40, i8* nonnull %18) #10
  call void @llvm.lifetime.end.p0i8(i64 8, i8* nonnull %15) #10
  ret i64 %28
}

declare %class.SkMemoryStream* @_ZN12font_service8internal14MappedFontFile18CreateMemoryStreamEv(%"class.font_service::internal::MappedFontFile"*) local_unnamed_addr #1

declare %"class.font_service::internal::MappedFontFile"* @_ZN12font_service8internal17FontServiceThread10OpenStreamERKN21SkFontConfigInterface12FontIdentityE(%"class.font_service::internal::FontServiceThread"*, %"struct.SkFontConfigInterface::FontIdentity"* dereferenceable(24)) local_unnamed_addr #1

; Function Attrs: nounwind ssp uwtable
define hidden void @_ZN12font_service10FontLoader12makeTypefaceERKN21SkFontConfigInterface12FontIdentityE(%class.sk_sp.207* noalias sret, %"class.font_service::FontLoader"*, %"struct.SkFontConfigInterface::FontIdentity"* dereferenceable(24)) unnamed_addr #0 align 2 {
  %4 = alloca %"class.base::TimeTicks", align 8
  %5 = load i8, i8* getelementptr inbounds ([300 x %"struct.base::trace_event::TraceCategory"], [300 x %"struct.base::trace_event::TraceCategory"]* @_ZN4base11trace_event16CategoryRegistry11categories_E, i64 0, i64 57, i32 0), align 16
  %6 = and i8 %5, 25
  %7 = icmp eq i8 %6, 0
  br i1 %7, label %14, label %8, !prof !2

8:                                                ; preds = %3
  %9 = tail call i32 @_ZN4base14PlatformThread9CurrentIdEv() #10
  %10 = bitcast %"class.base::TimeTicks"* %4 to i8*
  call void @llvm.lifetime.start.p0i8(i64 8, i8* nonnull %10) #10
  %11 = getelementptr inbounds %"class.base::TimeTicks", %"class.base::TimeTicks"* %4, i64 0, i32 0, i32 0
  %12 = tail call i64 @_ZN4base6subtle28TimeTicksNowIgnoringOverrideEv() #10
  store i64 %12, i64* %11, align 8
  %13 = call i64 @_ZN20trace_event_internal37AddTraceEventWithThreadIdAndTimestampEcPKhPKcS3_yyiRKN4base9TimeTicksEPNS4_11trace_event14TraceArgumentsEj(i8 signext 88, i8* getelementptr inbounds ([300 x %"struct.base::trace_event::TraceCategory"], [300 x %"struct.base::trace_event::TraceCategory"]* @_ZN4base11trace_event16CategoryRegistry11categories_E, i64 0, i64 57, i32 0), i8* getelementptr inbounds ([32 x i8], [32 x i8]* @.str.5, i64 0, i64 0), i8* null, i64 0, i64 0, i32 %9, %"class.base::TimeTicks"* nonnull dereferenceable(8) %4, %"class.base::trace_event::TraceArguments"* null, i32 0) #10
  call void @llvm.lifetime.end.p0i8(i64 8, i8* nonnull %10) #10
  br label %14

14:                                               ; preds = %3, %8
  %15 = phi i64 [ -6148914691236517206, %3 ], [ %13, %8 ]
  %16 = phi i8* [ inttoptr (i64 -6148914691236517206 to i8*), %3 ], [ getelementptr inbounds ([32 x i8], [32 x i8]* @.str.5, i64 0, i64 0), %8 ]
  %17 = phi i8* [ null, %3 ], [ getelementptr inbounds ([300 x %"struct.base::trace_event::TraceCategory"], [300 x %"struct.base::trace_event::TraceCategory"]* @_ZN4base11trace_event16CategoryRegistry11categories_E, i64 0, i64 57, i32 0), %8 ]
  %18 = bitcast %"class.font_service::FontLoader"* %1 to %class.SkFontConfigInterface*
  %19 = bitcast %"class.font_service::FontLoader"* %1 to %class.SkStreamAsset* (%class.SkFontConfigInterface*, %"struct.SkFontConfigInterface::FontIdentity"*)***
  %20 = load %class.SkStreamAsset* (%class.SkFontConfigInterface*, %"struct.SkFontConfigInterface::FontIdentity"*)**, %class.SkStreamAsset* (%class.SkFontConfigInterface*, %"struct.SkFontConfigInterface::FontIdentity"*)*** %19, align 8, !noalias !4
  %21 = getelementptr inbounds %class.SkStreamAsset* (%class.SkFontConfigInterface*, %"struct.SkFontConfigInterface::FontIdentity"*)*, %class.SkStreamAsset* (%class.SkFontConfigInterface*, %"struct.SkFontConfigInterface::FontIdentity"*)** %20, i64 4
  %22 = load %class.SkStreamAsset* (%class.SkFontConfigInterface*, %"struct.SkFontConfigInterface::FontIdentity"*)*, %class.SkStreamAsset* (%class.SkFontConfigInterface*, %"struct.SkFontConfigInterface::FontIdentity"*)** %21, align 8, !noalias !4
  %23 = call %class.SkStreamAsset* %22(%class.SkFontConfigInterface* %18, %"struct.SkFontConfigInterface::FontIdentity"* dereferenceable(24) %2) #10, !noalias !4
  %24 = getelementptr inbounds %"struct.SkFontConfigInterface::FontIdentity", %"struct.SkFontConfigInterface::FontIdentity"* %2, i64 0, i32 1
  %25 = load i32, i32* %24, align 4, !noalias !4
  call void @_ZN10SkTypeface14MakeFromStreamENSt3__110unique_ptrI13SkStreamAssetNS0_14default_deleteIS2_EEEEi(%class.sk_sp.207* sret %0, %class.SkStreamAsset* %23, i32 %25) #10
  %26 = icmp eq i8* %17, null
  br i1 %26, label %31, label %27

27:                                               ; preds = %14
  %28 = load i8, i8* %17, align 1
  %29 = icmp eq i8 %28, 0
  br i1 %29, label %31, label %30

30:                                               ; preds = %27
  call void @_ZN20trace_event_internal24UpdateTraceEventDurationEPKhPKcN4base11trace_event16TraceEventHandleE(i8* nonnull %17, i8* %16, i64 %15) #10
  br label %31

31:                                               ; preds = %14, %27, %30
  ret void
}

; Function Attrs: nounwind ssp uwtable
define hidden zeroext i1 @_ZN12font_service10FontLoader24FallbackFontForCharacterEjNSt3__112basic_stringIcNS1_11char_traitsIcEENS1_9allocatorIcEEEEPN4mojo9StructPtrINS_5mojom12FontIdentityEEEPS7_PbSF_(%"class.font_service::FontLoader"* nocapture readonly, i32, %"class.std::__1::basic_string"* nocapture, %"class.mojo::StructPtr"*, %"class.std::__1::basic_string"*, i8*, i8*) local_unnamed_addr #0 align 2 {
  %8 = alloca %"class.std::__1::basic_string", align 8
  %9 = getelementptr inbounds %"class.font_service::FontLoader", %"class.font_service::FontLoader"* %0, i64 0, i32 2, i32 0
  %10 = load %"class.font_service::internal::FontServiceThread"*, %"class.font_service::internal::FontServiceThread"** %9, align 8
  %11 = bitcast %"class.std::__1::basic_string"* %8 to i8*
  %12 = bitcast %"class.std::__1::basic_string"* %2 to i8*
  call void @llvm.memcpy.p0i8.p0i8.i64(i8* nonnull align 8 %11, i8* align 8 %12, i64 24, i1 false) #10
  tail call void @llvm.memset.p0i8.i64(i8* align 8 %12, i8 0, i64 24, i1 false) #10
  %13 = call zeroext i1 @_ZN12font_service8internal17FontServiceThread24FallbackFontForCharacterEjNSt3__112basic_stringIcNS2_11char_traitsIcEENS2_9allocatorIcEEEEPN4mojo9StructPtrINS_5mojom12FontIdentityEEEPS8_PbSG_(%"class.font_service::internal::FontServiceThread"* %10, i32 %1, %"class.std::__1::basic_string"* nonnull %8, %"class.mojo::StructPtr"* %3, %"class.std::__1::basic_string"* %4, i8* %5, i8* %6) #10
  %14 = bitcast %"class.std::__1::basic_string"* %8 to %"struct.std::__1::basic_string<char, std::__1::char_traits<char>, std::__1::allocator<char> >::__short"*
  %15 = getelementptr inbounds %"struct.std::__1::basic_string<char, std::__1::char_traits<char>, std::__1::allocator<char> >::__short", %"struct.std::__1::basic_string<char, std::__1::char_traits<char>, std::__1::allocator<char> >::__short"* %14, i64 0, i32 1, i32 0
  %16 = load i8, i8* %15, align 1
  %17 = icmp slt i8 %16, 0
  br i1 %17, label %18, label %21

18:                                               ; preds = %7
  %19 = getelementptr inbounds %"class.std::__1::basic_string", %"class.std::__1::basic_string"* %8, i64 0, i32 0, i32 0, i32 0, i32 0, i32 0, i32 0
  %20 = load i8*, i8** %19, align 8
  call void @_ZdlPv(i8* %20) #9
  br label %21

21:                                               ; preds = %7, %18
  ret i1 %13
}

declare zeroext i1 @_ZN12font_service8internal17FontServiceThread24FallbackFontForCharacterEjNSt3__112basic_stringIcNS2_11char_traitsIcEENS2_9allocatorIcEEEEPN4mojo9StructPtrINS_5mojom12FontIdentityEEEPS8_PbSG_(%"class.font_service::internal::FontServiceThread"*, i32, %"class.std::__1::basic_string"*, %"class.mojo::StructPtr"*, %"class.std::__1::basic_string"*, i8*, i8*) local_unnamed_addr #1

; Function Attrs: nounwind ssp uwtable
define hidden zeroext i1 @_ZN12font_service10FontLoader24FontRenderStyleForStrikeENSt3__112basic_stringIcNS1_11char_traitsIcEENS1_9allocatorIcEEEEjbbfPN4mojo9StructPtrINS_5mojom15FontRenderStyleEEE(%"class.font_service::FontLoader"* nocapture readonly, %"class.std::__1::basic_string"* nocapture, i32, i1 zeroext, i1 zeroext, float, %"class.mojo::StructPtr.214"*) local_unnamed_addr #0 align 2 {
  %8 = alloca %"class.std::__1::basic_string", align 8
  %9 = getelementptr inbounds %"class.font_service::FontLoader", %"class.font_service::FontLoader"* %0, i64 0, i32 2, i32 0
  %10 = load %"class.font_service::internal::FontServiceThread"*, %"class.font_service::internal::FontServiceThread"** %9, align 8
  %11 = bitcast %"class.std::__1::basic_string"* %8 to i8*
  %12 = bitcast %"class.std::__1::basic_string"* %1 to i8*
  call void @llvm.memcpy.p0i8.p0i8.i64(i8* nonnull align 8 %11, i8* align 8 %12, i64 24, i1 false) #10
  tail call void @llvm.memset.p0i8.i64(i8* align 8 %12, i8 0, i64 24, i1 false) #10
  %13 = call zeroext i1 @_ZN12font_service8internal17FontServiceThread24FontRenderStyleForStrikeENSt3__112basic_stringIcNS2_11char_traitsIcEENS2_9allocatorIcEEEEjbbfPN4mojo9StructPtrINS_5mojom15FontRenderStyleEEE(%"class.font_service::internal::FontServiceThread"* %10, %"class.std::__1::basic_string"* nonnull %8, i32 %2, i1 zeroext %3, i1 zeroext %4, float %5, %"class.mojo::StructPtr.214"* %6) #10
  %14 = bitcast %"class.std::__1::basic_string"* %8 to %"struct.std::__1::basic_string<char, std::__1::char_traits<char>, std::__1::allocator<char> >::__short"*
  %15 = getelementptr inbounds %"struct.std::__1::basic_string<char, std::__1::char_traits<char>, std::__1::allocator<char> >::__short", %"struct.std::__1::basic_string<char, std::__1::char_traits<char>, std::__1::allocator<char> >::__short"* %14, i64 0, i32 1, i32 0
  %16 = load i8, i8* %15, align 1
  %17 = icmp slt i8 %16, 0
  br i1 %17, label %18, label %21

18:                                               ; preds = %7
  %19 = getelementptr inbounds %"class.std::__1::basic_string", %"class.std::__1::basic_string"* %8, i64 0, i32 0, i32 0, i32 0, i32 0, i32 0, i32 0
  %20 = load i8*, i8** %19, align 8
  call void @_ZdlPv(i8* %20) #9
  br label %21

21:                                               ; preds = %7, %18
  ret i1 %13
}

declare zeroext i1 @_ZN12font_service8internal17FontServiceThread24FontRenderStyleForStrikeENSt3__112basic_stringIcNS2_11char_traitsIcEENS2_9allocatorIcEEEEjbbfPN4mojo9StructPtrINS_5mojom15FontRenderStyleEEE(%"class.font_service::internal::FontServiceThread"*, %"class.std::__1::basic_string"*, i32, i1 zeroext, i1 zeroext, float, %"class.mojo::StructPtr.214"*) local_unnamed_addr #1

; Function Attrs: nounwind ssp uwtable
define hidden zeroext i1 @_ZN12font_service10FontLoader39MatchFontByPostscriptNameOrFullFontNameENSt3__112basic_stringIcNS1_11char_traitsIcEENS1_9allocatorIcEEEEPN4mojo9StructPtrINS_5mojom12FontIdentityEEE(%"class.font_service::FontLoader"* nocapture readonly, %"class.std::__1::basic_string"* nocapture, %"class.mojo::StructPtr"*) local_unnamed_addr #0 align 2 {
  %4 = alloca %"class.std::__1::basic_string", align 8
  %5 = getelementptr inbounds %"class.font_service::FontLoader", %"class.font_service::FontLoader"* %0, i64 0, i32 2, i32 0
  %6 = load %"class.font_service::internal::FontServiceThread"*, %"class.font_service::internal::FontServiceThread"** %5, align 8
  %7 = bitcast %"class.std::__1::basic_string"* %4 to i8*
  %8 = bitcast %"class.std::__1::basic_string"* %1 to i8*
  call void @llvm.memcpy.p0i8.p0i8.i64(i8* nonnull align 8 %7, i8* align 8 %8, i64 24, i1 false) #10
  tail call void @llvm.memset.p0i8.i64(i8* align 8 %8, i8 0, i64 24, i1 false) #10
  %9 = call zeroext i1 @_ZN12font_service8internal17FontServiceThread39MatchFontByPostscriptNameOrFullFontNameENSt3__112basic_stringIcNS2_11char_traitsIcEENS2_9allocatorIcEEEEPN4mojo9StructPtrINS_5mojom12FontIdentityEEE(%"class.font_service::internal::FontServiceThread"* %6, %"class.std::__1::basic_string"* nonnull %4, %"class.mojo::StructPtr"* %2) #10
  %10 = bitcast %"class.std::__1::basic_string"* %4 to %"struct.std::__1::basic_string<char, std::__1::char_traits<char>, std::__1::allocator<char> >::__short"*
  %11 = getelementptr inbounds %"struct.std::__1::basic_string<char, std::__1::char_traits<char>, std::__1::allocator<char> >::__short", %"struct.std::__1::basic_string<char, std::__1::char_traits<char>, std::__1::allocator<char> >::__short"* %10, i64 0, i32 1, i32 0
  %12 = load i8, i8* %11, align 1
  %13 = icmp slt i8 %12, 0
  br i1 %13, label %14, label %17

14:                                               ; preds = %3
  %15 = getelementptr inbounds %"class.std::__1::basic_string", %"class.std::__1::basic_string"* %4, i64 0, i32 0, i32 0, i32 0, i32 0, i32 0, i32 0
  %16 = load i8*, i8** %15, align 8
  call void @_ZdlPv(i8* %16) #9
  br label %17

17:                                               ; preds = %3, %14
  ret i1 %9
}

declare zeroext i1 @_ZN12font_service8internal17FontServiceThread39MatchFontByPostscriptNameOrFullFontNameENSt3__112basic_stringIcNS2_11char_traitsIcEENS2_9allocatorIcEEEEPN4mojo9StructPtrINS_5mojom12FontIdentityEEE(%"class.font_service::internal::FontServiceThread"*, %"class.std::__1::basic_string"*, %"class.mojo::StructPtr"*) local_unnamed_addr #1

; Function Attrs: nounwind ssp uwtable
define hidden void @_ZN12font_service10FontLoader21MatchFontWithFallbackENSt3__112basic_stringIcNS1_11char_traitsIcEENS1_9allocatorIcEEEEbbjjPN4base4FileE(%"class.font_service::FontLoader"* nocapture readonly, %"class.std::__1::basic_string"* nocapture, i1 zeroext, i1 zeroext, i32, i32, %"class.base::File"*) local_unnamed_addr #0 align 2 {
  %8 = alloca %"class.std::__1::basic_string", align 8
  %9 = getelementptr inbounds %"class.font_service::FontLoader", %"class.font_service::FontLoader"* %0, i64 0, i32 2, i32 0
  %10 = load %"class.font_service::internal::FontServiceThread"*, %"class.font_service::internal::FontServiceThread"** %9, align 8
  %11 = bitcast %"class.std::__1::basic_string"* %8 to i8*
  %12 = bitcast %"class.std::__1::basic_string"* %1 to i8*
  call void @llvm.memcpy.p0i8.p0i8.i64(i8* nonnull align 8 %11, i8* align 8 %12, i64 24, i1 false) #10
  tail call void @llvm.memset.p0i8.i64(i8* align 8 %12, i8 0, i64 24, i1 false) #10
  call void @_ZN12font_service8internal17FontServiceThread21MatchFontWithFallbackENSt3__112basic_stringIcNS2_11char_traitsIcEENS2_9allocatorIcEEEEbbjjPN4base4FileE(%"class.font_service::internal::FontServiceThread"* %10, %"class.std::__1::basic_string"* nonnull %8, i1 zeroext %2, i1 zeroext %3, i32 %4, i32 %5, %"class.base::File"* %6) #10
  %13 = bitcast %"class.std::__1::basic_string"* %8 to %"struct.std::__1::basic_string<char, std::__1::char_traits<char>, std::__1::allocator<char> >::__short"*
  %14 = getelementptr inbounds %"struct.std::__1::basic_string<char, std::__1::char_traits<char>, std::__1::allocator<char> >::__short", %"struct.std::__1::basic_string<char, std::__1::char_traits<char>, std::__1::allocator<char> >::__short"* %13, i64 0, i32 1, i32 0
  %15 = load i8, i8* %14, align 1
  %16 = icmp slt i8 %15, 0
  br i1 %16, label %17, label %20

17:                                               ; preds = %7
  %18 = getelementptr inbounds %"class.std::__1::basic_string", %"class.std::__1::basic_string"* %8, i64 0, i32 0, i32 0, i32 0, i32 0, i32 0, i32 0
  %19 = load i8*, i8** %18, align 8
  call void @_ZdlPv(i8* %19) #9
  br label %20

20:                                               ; preds = %7, %17
  ret void
}

declare void @_ZN12font_service8internal17FontServiceThread21MatchFontWithFallbackENSt3__112basic_stringIcNS2_11char_traitsIcEENS2_9allocatorIcEEEEbbjjPN4base4FileE(%"class.font_service::internal::FontServiceThread"*, %"class.std::__1::basic_string"*, i1 zeroext, i1 zeroext, i32, i32, %"class.base::File"*) local_unnamed_addr #1

; Function Attrs: nounwind ssp uwtable
define hidden void @_ZN12font_service10FontLoader25OnMappedFontFileDestroyedEPNS_8internal14MappedFontFileE(%"class.font_service::FontLoader"*, %"class.font_service::internal::MappedFontFile"* nocapture readonly) unnamed_addr #0 align 2 {
  %3 = alloca i32, align 4
  %4 = alloca i32, align 4
  %5 = load i8, i8* getelementptr inbounds ([300 x %"struct.base::trace_event::TraceCategory"], [300 x %"struct.base::trace_event::TraceCategory"]* @_ZN4base11trace_event16CategoryRegistry11categories_E, i64 0, i64 57, i32 0), align 16
  %6 = and i8 %5, 25
  %7 = icmp eq i8 %6, 0
  br i1 %7, label %13, label %8, !prof !2

8:                                                ; preds = %2
  %9 = bitcast i32* %3 to i8*
  call void @llvm.lifetime.start.p0i8(i64 4, i8* nonnull %9) #10
  %10 = getelementptr inbounds %"class.font_service::internal::MappedFontFile", %"class.font_service::internal::MappedFontFile"* %1, i64 0, i32 1
  %11 = load i32, i32* %10, align 4
  store i32 %11, i32* %3, align 4
  %12 = call i64 @_ZN20trace_event_internal13AddTraceEventIjEEN4base11trace_event16TraceEventHandleEcPKhPKcS7_yjyS7_OT_(i8 signext 88, i8* getelementptr inbounds ([300 x %"struct.base::trace_event::TraceCategory"], [300 x %"struct.base::trace_event::TraceCategory"]* @_ZN4base11trace_event16CategoryRegistry11categories_E, i64 0, i64 57, i32 0), i8* getelementptr inbounds ([38 x i8], [38 x i8]* @.str.6, i64 0, i64 0), i8* null, i64 0, i32 0, i64 0, i8* getelementptr inbounds ([9 x i8], [9 x i8]* @.str.3, i64 0, i64 0), i32* nonnull dereferenceable(4) %3)
  call void @llvm.lifetime.end.p0i8(i64 4, i8* nonnull %9) #10
  br label %13

13:                                               ; preds = %2, %8
  %14 = phi i64 [ -6148914691236517206, %2 ], [ %12, %8 ]
  %15 = phi i8* [ inttoptr (i64 -6148914691236517206 to i8*), %2 ], [ getelementptr inbounds ([38 x i8], [38 x i8]* @.str.6, i64 0, i64 0), %8 ]
  %16 = phi i8* [ null, %2 ], [ getelementptr inbounds ([300 x %"struct.base::trace_event::TraceCategory"], [300 x %"struct.base::trace_event::TraceCategory"]* @_ZN4base11trace_event16CategoryRegistry11categories_E, i64 0, i64 57, i32 0), %8 ]
  %17 = getelementptr inbounds %"class.font_service::FontLoader", %"class.font_service::FontLoader"* %0, i64 0, i32 3
  %18 = getelementptr inbounds %"class.base::Lock", %"class.base::Lock"* %17, i64 0, i32 0, i32 0
  %19 = call i32 @pthread_mutex_trylock(%union.pthread_mutex_t* %18) #10
  %20 = icmp eq i32 %19, 0
  br i1 %20, label %23, label %21, !prof !2

21:                                               ; preds = %13
  %22 = getelementptr inbounds %"class.base::Lock", %"class.base::Lock"* %17, i64 0, i32 0
  call void @_ZN4base8internal8LockImpl24LockInternalWithTrackingEv(%"class.base::internal::LockImpl"* %22) #10
  br label %23

23:                                               ; preds = %13, %21
  %24 = bitcast i32* %4 to i8*
  call void @llvm.lifetime.start.p0i8(i64 4, i8* nonnull %24) #10
  %25 = getelementptr inbounds %"class.font_service::internal::MappedFontFile", %"class.font_service::internal::MappedFontFile"* %1, i64 0, i32 1
  %26 = load i32, i32* %25, align 4
  store i32 %26, i32* %4, align 4
  %27 = getelementptr inbounds %"class.font_service::FontLoader", %"class.font_service::FontLoader"* %0, i64 0, i32 4, i32 0
  %28 = call i64 @_ZNSt3__112__hash_tableINS_17__hash_value_typeIjPN12font_service8internal14MappedFontFileEEENS_22__unordered_map_hasherIjS6_NS_4hashIjEENS_8equal_toIjEELb1EEENS_21__unordered_map_equalIjS6_SB_S9_Lb1EEENS_9allocatorIS6_EEE14__erase_uniqueIjEEmRKT_(%"class.std::__1::__hash_table"* %27, i32* nonnull dereferenceable(4) %4) #10
  call void @llvm.lifetime.end.p0i8(i64 4, i8* nonnull %24) #10
  %29 = call i32 @pthread_mutex_unlock(%union.pthread_mutex_t* %18) #10
  %30 = icmp eq i8* %16, null
  br i1 %30, label %35, label %31

31:                                               ; preds = %23
  %32 = load i8, i8* %16, align 1
  %33 = icmp eq i8 %32, 0
  br i1 %33, label %35, label %34

34:                                               ; preds = %31
  call void @_ZN20trace_event_internal24UpdateTraceEventDurationEPKhPKcN4base11trace_event16TraceEventHandleE(i8* nonnull %16, i8* %15, i64 %14) #10
  br label %35

35:                                               ; preds = %23, %31, %34
  ret void
}

; Function Attrs: inlinehint nounwind ssp uwtable
define linkonce_odr hidden i64 @_ZN20trace_event_internal13AddTraceEventIjEEN4base11trace_event16TraceEventHandleEcPKhPKcS7_yjyS7_OT_(i8 signext, i8*, i8*, i8*, i64, i32, i64, i8*, i32* dereferenceable(4)) local_unnamed_addr #4 comdat {
  %10 = alloca %"class.base::trace_event::TraceArguments", align 8
  %11 = alloca %"class.base::TimeTicks", align 8
  %12 = tail call i32 @_ZN4base14PlatformThread9CurrentIdEv() #10
  %13 = bitcast %"class.base::TimeTicks"* %11 to i8*
  call void @llvm.lifetime.start.p0i8(i64 8, i8* nonnull %13) #10
  %14 = getelementptr inbounds %"class.base::TimeTicks", %"class.base::TimeTicks"* %11, i64 0, i32 0, i32 0
  %15 = tail call i64 @_ZN4base6subtle28TimeTicksNowIgnoringOverrideEv() #10
  store i64 %15, i64* %14, align 8
  %16 = getelementptr inbounds %"class.base::trace_event::TraceArguments", %"class.base::trace_event::TraceArguments"* %10, i64 0, i32 0
  call void @llvm.lifetime.start.p0i8(i64 40, i8* nonnull %16) #10
  call void @llvm.memset.p0i8.i64(i8* nonnull align 8 %16, i8 -86, i64 40, i1 false) #10
  store i8 1, i8* %16, align 8
  %17 = getelementptr inbounds %"class.base::trace_event::TraceArguments", %"class.base::trace_event::TraceArguments"* %10, i64 0, i32 1, i64 0
  store i8 2, i8* %17, align 1
  %18 = getelementptr inbounds %"class.base::trace_event::TraceArguments", %"class.base::trace_event::TraceArguments"* %10, i64 0, i32 2, i64 0
  store i8* %7, i8** %18, align 8
  %19 = load i32, i32* %8, align 4
  %20 = zext i32 %19 to i64
  %21 = getelementptr inbounds %"class.base::trace_event::TraceArguments", %"class.base::trace_event::TraceArguments"* %10, i64 0, i32 3, i64 0, i32 0
  store i64 %20, i64* %21, align 8
  %22 = call i64 @_ZN20trace_event_internal37AddTraceEventWithThreadIdAndTimestampEcPKhPKcS3_yyiRKN4base9TimeTicksEPNS4_11trace_event14TraceArgumentsEj(i8 signext %0, i8* %1, i8* %2, i8* %3, i64 %4, i64 %6, i32 %12, %"class.base::TimeTicks"* nonnull dereferenceable(8) %11, %"class.base::trace_event::TraceArguments"* nonnull %10, i32 %5) #10
  %23 = load i8, i8* %16, align 8
  %24 = icmp eq i8 %23, 0
  br i1 %24, label %59, label %25

25:                                               ; preds = %9, %54
  %26 = phi i64 [ %55, %54 ], [ 0, %9 ]
  %27 = getelementptr inbounds %"class.base::trace_event::TraceArguments", %"class.base::trace_event::TraceArguments"* %10, i64 0, i32 1, i64 %26
  %28 = load i8, i8* %27, align 1
  %29 = icmp eq i8 %28, 8
  br i1 %29, label %30, label %41

30:                                               ; preds = %25
  %31 = getelementptr inbounds %"class.base::trace_event::TraceArguments", %"class.base::trace_event::TraceArguments"* %10, i64 0, i32 3, i64 %26
  %32 = bitcast %"union.base::trace_event::TraceValue"* %31 to %"class.base::trace_event::ConvertableToTraceFormat"**
  %33 = load %"class.base::trace_event::ConvertableToTraceFormat"*, %"class.base::trace_event::ConvertableToTraceFormat"** %32, align 8
  %34 = icmp eq %"class.base::trace_event::ConvertableToTraceFormat"* %33, null
  br i1 %34, label %54, label %35

35:                                               ; preds = %30
  %36 = bitcast %"class.base::trace_event::ConvertableToTraceFormat"* %33 to void (%"class.base::trace_event::ConvertableToTraceFormat"*)***
  %37 = load void (%"class.base::trace_event::ConvertableToTraceFormat"*)**, void (%"class.base::trace_event::ConvertableToTraceFormat"*)*** %36, align 8
  %38 = getelementptr inbounds void (%"class.base::trace_event::ConvertableToTraceFormat"*)*, void (%"class.base::trace_event::ConvertableToTraceFormat"*)** %37, i64 1
  %39 = load void (%"class.base::trace_event::ConvertableToTraceFormat"*)*, void (%"class.base::trace_event::ConvertableToTraceFormat"*)** %38, align 8
  call void %39(%"class.base::trace_event::ConvertableToTraceFormat"* nonnull %33) #10
  %40 = load i8, i8* %27, align 1
  br label %41

41:                                               ; preds = %35, %25
  %42 = phi i8 [ %28, %25 ], [ %40, %35 ]
  %43 = icmp eq i8 %42, 9
  br i1 %43, label %44, label %54

44:                                               ; preds = %41
  %45 = getelementptr inbounds %"class.base::trace_event::TraceArguments", %"class.base::trace_event::TraceArguments"* %10, i64 0, i32 3, i64 %26
  %46 = bitcast %"union.base::trace_event::TraceValue"* %45 to %"class.protozero::HeapBuffered"**
  %47 = load %"class.protozero::HeapBuffered"*, %"class.protozero::HeapBuffered"** %46, align 8
  %48 = icmp eq %"class.protozero::HeapBuffered"* %47, null
  br i1 %48, label %54, label %49

49:                                               ; preds = %44
  %50 = getelementptr inbounds %"class.protozero::HeapBuffered", %"class.protozero::HeapBuffered"* %47, i64 0, i32 2, i32 1
  call void @_ZN9protozero12MessageArenaD1Ev(%"class.protozero::MessageArena"* %50) #10
  %51 = getelementptr inbounds %"class.protozero::HeapBuffered", %"class.protozero::HeapBuffered"* %47, i64 0, i32 1
  call void @_ZN9protozero21ScatteredStreamWriterD1Ev(%"class.protozero::ScatteredStreamWriter"* %51) #10
  %52 = getelementptr inbounds %"class.protozero::HeapBuffered", %"class.protozero::HeapBuffered"* %47, i64 0, i32 0
  call void @_ZN9protozero19ScatteredHeapBufferD1Ev(%"class.protozero::ScatteredHeapBuffer"* %52) #10
  %53 = bitcast %"class.protozero::HeapBuffered"* %47 to i8*
  call void @_ZdlPv(i8* %53) #9
  br label %54

54:                                               ; preds = %49, %44, %41, %30
  %55 = add nuw nsw i64 %26, 1
  %56 = load i8, i8* %16, align 8
  %57 = zext i8 %56 to i64
  %58 = icmp ult i64 %55, %57
  br i1 %58, label %25, label %59

59:                                               ; preds = %54, %9
  call void @llvm.lifetime.end.p0i8(i64 40, i8* nonnull %16) #10
  call void @llvm.lifetime.end.p0i8(i64 8, i8* nonnull %13) #10
  ret i64 %22
}

; Function Attrs: nounwind ssp uwtable
define hidden void @_ZThn16_N12font_service10FontLoader25OnMappedFontFileDestroyedEPNS_8internal14MappedFontFileE(%"class.font_service::FontLoader"*, %"class.font_service::internal::MappedFontFile"* nocapture readonly) unnamed_addr #0 align 2 {
  %3 = getelementptr inbounds %"class.font_service::FontLoader", %"class.font_service::FontLoader"* %0, i64 -1, i32 4, i32 0, i32 2
  %4 = bitcast %"class.std::__1::__compressed_pair.190"* %3 to %"class.font_service::FontLoader"*
  tail call void @_ZN12font_service10FontLoader25OnMappedFontFileDestroyedEPNS_8internal14MappedFontFileE(%"class.font_service::FontLoader"* %4, %"class.font_service::internal::MappedFontFile"* %1)
  ret void
}

; Function Attrs: nounwind ssp uwtable
define linkonce_odr hidden void @_ZNK12SkRefCntBase16internal_disposeEv(%class.SkRefCntBase*) unnamed_addr #0 comdat align 2 {
  %2 = icmp eq %class.SkRefCntBase* %0, null
  br i1 %2, label %8, label %3

3:                                                ; preds = %1
  %4 = bitcast %class.SkRefCntBase* %0 to void (%class.SkRefCntBase*)***
  %5 = load void (%class.SkRefCntBase*)**, void (%class.SkRefCntBase*)*** %4, align 8
  %6 = getelementptr inbounds void (%class.SkRefCntBase*)*, void (%class.SkRefCntBase*)** %5, i64 1
  %7 = load void (%class.SkRefCntBase*)*, void (%class.SkRefCntBase*)** %6, align 8
  tail call void %7(%class.SkRefCntBase* nonnull %0) #10
  br label %8

8:                                                ; preds = %3, %1
  ret void
}

declare void @_ZN4base8internal8LockImplC1Ev(%"class.base::internal::LockImpl"*) unnamed_addr #1

; Function Attrs: nounwind
declare void @_ZN4mojo8internal18PendingRemoteStateC1EOS1_(%"struct.mojo::internal::PendingRemoteState"*, %"struct.mojo::internal::PendingRemoteState"* dereferenceable(8)) unnamed_addr #5

; Function Attrs: nounwind
declare void @_ZN4mojo8internal18PendingRemoteStateD1Ev(%"struct.mojo::internal::PendingRemoteState"*) unnamed_addr #5

; Function Attrs: nounwind
declare void @_ZN4base8internal8LockImplD1Ev(%"class.base::internal::LockImpl"*) unnamed_addr #5

declare void @_ZN20trace_event_internal24UpdateTraceEventDurationEPKhPKcN4base11trace_event16TraceEventHandleE(i8*, i8*, i64) local_unnamed_addr #1

declare i32 @_ZN4base14PlatformThread9CurrentIdEv() local_unnamed_addr #1

declare i64 @_ZN4base6subtle28TimeTicksNowIgnoringOverrideEv() local_unnamed_addr #1

declare i64 @_ZN20trace_event_internal37AddTraceEventWithThreadIdAndTimestampEcPKhPKcS3_yyiRKN4base9TimeTicksEPNS4_11trace_event14TraceArgumentsEj(i8 signext, i8*, i8*, i8*, i64, i64, i32, %"class.base::TimeTicks"* dereferenceable(8), %"class.base::trace_event::TraceArguments"*, i32) local_unnamed_addr #1

declare void @_ZN10SkTypeface14MakeFromStreamENSt3__110unique_ptrI13SkStreamAssetNS0_14default_deleteIS2_EEEEi(%class.sk_sp.207* sret, %class.SkStreamAsset*, i32) local_unnamed_addr #1

declare void @_ZN4base8internal8LockImpl24LockInternalWithTrackingEv(%"class.base::internal::LockImpl"*) local_unnamed_addr #1

; Function Attrs: nounwind
declare i32 @pthread_mutex_trylock(%union.pthread_mutex_t*) local_unnamed_addr #5

; Function Attrs: nounwind
declare i32 @pthread_mutex_unlock(%union.pthread_mutex_t*) local_unnamed_addr #5

; Function Attrs: nobuiltin nofree
declare noalias nonnull i8* @_Znwm(i64) local_unnamed_addr #6

declare void @_ZN12font_service8internal17FontServiceThreadC1Ev(%"class.font_service::internal::FontServiceThread"*) unnamed_addr #1

; Function Attrs: argmemonly nounwind
declare void @llvm.memset.p0i8.i64(i8* nocapture writeonly, i8, i64, i1 immarg) #3

; Function Attrs: nounwind
declare void @_ZN9protozero21ScatteredStreamWriterD1Ev(%"class.protozero::ScatteredStreamWriter"*) unnamed_addr #5

; Function Attrs: nounwind
declare void @_ZN9protozero19ScatteredHeapBufferD1Ev(%"class.protozero::ScatteredHeapBuffer"*) unnamed_addr #5

; Function Attrs: nounwind
declare void @_ZN9protozero12MessageArenaD1Ev(%"class.protozero::MessageArena"*) unnamed_addr #5

; Function Attrs: nounwind
declare void @_ZN12font_service8internal14MappedFontFileD1Ev(%"class.font_service::internal::MappedFontFile"*) unnamed_addr #5

; Function Attrs: nounwind ssp uwtable
define linkonce_odr hidden { %"struct.std::__1::__hash_node_base"*, i8 } @_ZNSt3__112__hash_tableINS_17__hash_value_typeIjPN12font_service8internal14MappedFontFileEEENS_22__unordered_map_hasherIjS6_NS_4hashIjEENS_8equal_toIjEELb1EEENS_21__unordered_map_equalIjS6_SB_S9_Lb1EEENS_9allocatorIS6_EEE25__emplace_unique_key_argsIjJNS_4pairIjS5_EEEEENSJ_INS_15__hash_iteratorIPNS_11__hash_nodeIS6_PvEEEEbEERKT_DpOT0_(%"class.std::__1::__hash_table"*, i32* dereferenceable(4), %"struct.std::__1::pair.206"* dereferenceable(16)) local_unnamed_addr #0 comdat align 2 {
  %4 = load i32, i32* %1, align 4
  %5 = zext i32 %4 to i64
  %6 = getelementptr inbounds %"class.std::__1::__hash_table", %"class.std::__1::__hash_table"* %0, i64 0, i32 0, i32 0, i32 1, i32 0, i32 0, i32 0, i32 0
  %7 = load i64, i64* %6, align 8
  %8 = icmp eq i64 %7, 0
  br i1 %8, label %53, label %9

9:                                                ; preds = %3
  %10 = tail call i64 @llvm.ctpop.i64(i64 %7) #10, !range !3
  %11 = icmp ugt i64 %10, 1
  br i1 %11, label %15, label %12

12:                                               ; preds = %9
  %13 = add i64 %7, 4294967295
  %14 = and i64 %13, %5
  br label %19

15:                                               ; preds = %9
  %16 = icmp ugt i64 %7, %5
  br i1 %16, label %19, label %17

17:                                               ; preds = %15
  %18 = urem i64 %5, %7
  br label %19

19:                                               ; preds = %12, %15, %17
  %20 = phi i64 [ %14, %12 ], [ %18, %17 ], [ %5, %15 ]
  %21 = getelementptr inbounds %"class.std::__1::__hash_table", %"class.std::__1::__hash_table"* %0, i64 0, i32 0, i32 0, i32 0, i32 0
  %22 = load %"struct.std::__1::__hash_node_base"**, %"struct.std::__1::__hash_node_base"*** %21, align 8
  %23 = getelementptr inbounds %"struct.std::__1::__hash_node_base"*, %"struct.std::__1::__hash_node_base"** %22, i64 %20
  %24 = load %"struct.std::__1::__hash_node_base"*, %"struct.std::__1::__hash_node_base"** %23, align 8
  %25 = icmp eq %"struct.std::__1::__hash_node_base"* %24, null
  br i1 %25, label %53, label %26

26:                                               ; preds = %19
  %27 = add i64 %7, -1
  br label %28

28:                                               ; preds = %26, %48
  %29 = phi %"struct.std::__1::__hash_node_base"* [ %31, %48 ], [ %24, %26 ]
  %30 = getelementptr inbounds %"struct.std::__1::__hash_node_base", %"struct.std::__1::__hash_node_base"* %29, i64 0, i32 0
  %31 = load %"struct.std::__1::__hash_node_base"*, %"struct.std::__1::__hash_node_base"** %30, align 8
  %32 = icmp eq %"struct.std::__1::__hash_node_base"* %31, null
  br i1 %32, label %53, label %33

33:                                               ; preds = %28
  %34 = getelementptr inbounds %"struct.std::__1::__hash_node_base", %"struct.std::__1::__hash_node_base"* %31, i64 1
  %35 = bitcast %"struct.std::__1::__hash_node_base"* %34 to i64*
  %36 = load i64, i64* %35, align 8
  %37 = icmp eq i64 %36, %5
  br i1 %37, label %48, label %38

38:                                               ; preds = %33
  br i1 %11, label %41, label %39

39:                                               ; preds = %38
  %40 = and i64 %36, %27
  br label %45

41:                                               ; preds = %38
  %42 = icmp ult i64 %36, %7
  br i1 %42, label %45, label %43

43:                                               ; preds = %41
  %44 = urem i64 %36, %7
  br label %45

45:                                               ; preds = %39, %41, %43
  %46 = phi i64 [ %40, %39 ], [ %44, %43 ], [ %36, %41 ]
  %47 = icmp eq i64 %46, %20
  br i1 %47, label %48, label %53

48:                                               ; preds = %33, %45
  %49 = getelementptr inbounds %"struct.std::__1::__hash_node_base", %"struct.std::__1::__hash_node_base"* %31, i64 2
  %50 = bitcast %"struct.std::__1::__hash_node_base"* %49 to i32*
  %51 = load i32, i32* %50, align 4
  %52 = icmp eq i32 %51, %4
  br i1 %52, label %146, label %28

53:                                               ; preds = %28, %45, %19, %3
  %54 = phi i64 [ %20, %19 ], [ -6148914691236517206, %3 ], [ %20, %45 ], [ %20, %28 ]
  %55 = tail call i8* @_Znwm(i64 32) #9, !noalias !7
  %56 = getelementptr inbounds i8, i8* %55, i64 16
  %57 = bitcast i8* %56 to i32*
  %58 = getelementptr inbounds %"struct.std::__1::pair.206", %"struct.std::__1::pair.206"* %2, i64 0, i32 0
  %59 = load i32, i32* %58, align 4, !noalias !7
  store i32 %59, i32* %57, align 8, !noalias !7
  %60 = getelementptr inbounds i8, i8* %55, i64 24
  %61 = getelementptr inbounds %"struct.std::__1::pair.206", %"struct.std::__1::pair.206"* %2, i64 0, i32 1
  %62 = bitcast %"class.font_service::internal::MappedFontFile"** %61 to i64*
  %63 = load i64, i64* %62, align 8, !noalias !7
  %64 = bitcast i8* %60 to i64*
  store i64 %63, i64* %64, align 8, !noalias !7
  %65 = getelementptr inbounds i8, i8* %55, i64 8
  %66 = bitcast i8* %65 to i64*
  store i64 %5, i64* %66, align 8, !noalias !7
  %67 = bitcast i8* %55 to %"struct.std::__1::__hash_node_base"**
  store %"struct.std::__1::__hash_node_base"* null, %"struct.std::__1::__hash_node_base"** %67, align 8, !noalias !7
  %68 = getelementptr inbounds %"class.std::__1::__hash_table", %"class.std::__1::__hash_table"* %0, i64 0, i32 2, i32 0, i32 0
  %69 = load i64, i64* %68, align 8
  %70 = add i64 %69, 1
  %71 = uitofp i64 %70 to float
  %72 = uitofp i64 %7 to float
  %73 = getelementptr inbounds %"class.std::__1::__hash_table", %"class.std::__1::__hash_table"* %0, i64 0, i32 3, i32 0, i32 0
  %74 = load float, float* %73, align 4
  %75 = fmul float %74, %72
  %76 = fcmp olt float %75, %71
  %77 = or i1 %8, %76
  br i1 %77, label %78, label %101

78:                                               ; preds = %53
  %79 = shl i64 %7, 1
  %80 = icmp ult i64 %7, 3
  %81 = tail call i64 @llvm.ctpop.i64(i64 %7) #10, !range !3
  %82 = icmp ugt i64 %81, 1
  %83 = or i1 %80, %82
  %84 = zext i1 %83 to i64
  %85 = or i64 %79, %84
  %86 = fdiv float %71, %74
  %87 = tail call float @llvm.ceil.f32(float %86) #10
  %88 = fptoui float %87 to i64
  %89 = icmp ult i64 %85, %88
  %90 = select i1 %89, i64 %88, i64 %85
  tail call void @_ZNSt3__112__hash_tableINS_17__hash_value_typeIjPN12font_service8internal14MappedFontFileEEENS_22__unordered_map_hasherIjS6_NS_4hashIjEENS_8equal_toIjEELb1EEENS_21__unordered_map_equalIjS6_SB_S9_Lb1EEENS_9allocatorIS6_EEE6rehashEm(%"class.std::__1::__hash_table"* %0, i64 %90)
  %91 = load i64, i64* %6, align 8
  %92 = tail call i64 @llvm.ctpop.i64(i64 %91) #10, !range !3
  %93 = icmp ugt i64 %92, 1
  br i1 %93, label %97, label %94

94:                                               ; preds = %78
  %95 = add i64 %91, 4294967295
  %96 = and i64 %95, %5
  br label %101

97:                                               ; preds = %78
  %98 = icmp ugt i64 %91, %5
  br i1 %98, label %101, label %99

99:                                               ; preds = %97
  %100 = urem i64 %5, %91
  br label %101

101:                                              ; preds = %99, %97, %94, %53
  %102 = phi i64 [ %7, %53 ], [ %91, %94 ], [ %91, %97 ], [ %91, %99 ]
  %103 = phi i64 [ %54, %53 ], [ %96, %94 ], [ %5, %97 ], [ %100, %99 ]
  %104 = getelementptr inbounds %"class.std::__1::__hash_table", %"class.std::__1::__hash_table"* %0, i64 0, i32 0, i32 0, i32 0, i32 0
  %105 = load %"struct.std::__1::__hash_node_base"**, %"struct.std::__1::__hash_node_base"*** %104, align 8
  %106 = getelementptr inbounds %"struct.std::__1::__hash_node_base"*, %"struct.std::__1::__hash_node_base"** %105, i64 %103
  %107 = load %"struct.std::__1::__hash_node_base"*, %"struct.std::__1::__hash_node_base"** %106, align 8
  %108 = icmp eq %"struct.std::__1::__hash_node_base"* %107, null
  br i1 %108, label %109, label %135

109:                                              ; preds = %101
  %110 = getelementptr inbounds %"class.std::__1::__hash_table", %"class.std::__1::__hash_table"* %0, i64 0, i32 1, i32 0, i32 0
  %111 = bitcast %"struct.std::__1::__hash_node_base"* %110 to i64*
  %112 = load i64, i64* %111, align 8
  %113 = bitcast i8* %55 to i64*
  store i64 %112, i64* %113, align 8
  %114 = bitcast %"struct.std::__1::__hash_node_base"* %110 to i8**
  store i8* %55, i8** %114, align 8
  store %"struct.std::__1::__hash_node_base"* %110, %"struct.std::__1::__hash_node_base"** %106, align 8
  %115 = load %"struct.std::__1::__hash_node_base"*, %"struct.std::__1::__hash_node_base"** %67, align 8
  %116 = icmp eq %"struct.std::__1::__hash_node_base"* %115, null
  br i1 %116, label %142, label %117

117:                                              ; preds = %109
  %118 = getelementptr inbounds %"struct.std::__1::__hash_node_base", %"struct.std::__1::__hash_node_base"* %115, i64 1
  %119 = bitcast %"struct.std::__1::__hash_node_base"* %118 to i64*
  %120 = load i64, i64* %119, align 8
  %121 = tail call i64 @llvm.ctpop.i64(i64 %102) #10, !range !3
  %122 = icmp ugt i64 %121, 1
  br i1 %122, label %126, label %123

123:                                              ; preds = %117
  %124 = add i64 %102, -1
  %125 = and i64 %120, %124
  br label %130

126:                                              ; preds = %117
  %127 = icmp ult i64 %120, %102
  br i1 %127, label %130, label %128

128:                                              ; preds = %126
  %129 = urem i64 %120, %102
  br label %130

130:                                              ; preds = %123, %126, %128
  %131 = phi i64 [ %125, %123 ], [ %129, %128 ], [ %120, %126 ]
  %132 = load %"struct.std::__1::__hash_node_base"**, %"struct.std::__1::__hash_node_base"*** %104, align 8
  %133 = getelementptr inbounds %"struct.std::__1::__hash_node_base"*, %"struct.std::__1::__hash_node_base"** %132, i64 %131
  %134 = bitcast %"struct.std::__1::__hash_node_base"** %133 to i8**
  br label %140

135:                                              ; preds = %101
  %136 = bitcast %"struct.std::__1::__hash_node_base"* %107 to i64*
  %137 = load i64, i64* %136, align 8
  %138 = bitcast i8* %55 to i64*
  store i64 %137, i64* %138, align 8
  %139 = bitcast %"struct.std::__1::__hash_node_base"* %107 to i8**
  br label %140

140:                                              ; preds = %130, %135
  %141 = phi i8** [ %139, %135 ], [ %134, %130 ]
  store i8* %55, i8** %141, align 8
  br label %142

142:                                              ; preds = %140, %109
  %143 = bitcast i8* %55 to %"struct.std::__1::__hash_node_base"*
  %144 = load i64, i64* %68, align 8
  %145 = add i64 %144, 1
  store i64 %145, i64* %68, align 8
  br label %146

146:                                              ; preds = %48, %142
  %147 = phi i8 [ 1, %142 ], [ 0, %48 ]
  %148 = phi %"struct.std::__1::__hash_node_base"* [ %143, %142 ], [ %31, %48 ]
  %149 = insertvalue { %"struct.std::__1::__hash_node_base"*, i8 } undef, %"struct.std::__1::__hash_node_base"* %148, 0
  %150 = insertvalue { %"struct.std::__1::__hash_node_base"*, i8 } %149, i8 %147, 1
  ret { %"struct.std::__1::__hash_node_base"*, i8 } %150
}

; Function Attrs: nounwind ssp uwtable
define linkonce_odr hidden void @_ZNSt3__112__hash_tableINS_17__hash_value_typeIjPN12font_service8internal14MappedFontFileEEENS_22__unordered_map_hasherIjS6_NS_4hashIjEENS_8equal_toIjEELb1EEENS_21__unordered_map_equalIjS6_SB_S9_Lb1EEENS_9allocatorIS6_EEE6rehashEm(%"class.std::__1::__hash_table"*, i64) local_unnamed_addr #0 comdat align 2 {
  %3 = icmp eq i64 %1, 1
  br i1 %3, label %9, label %4

4:                                                ; preds = %2
  %5 = tail call i64 @llvm.ctpop.i64(i64 %1), !range !3
  %6 = icmp ugt i64 %5, 1
  br i1 %6, label %7, label %9

7:                                                ; preds = %4
  %8 = tail call i64 @_ZNSt3__112__next_primeEm(i64 %1) #10
  br label %9

9:                                                ; preds = %2, %4, %7
  %10 = phi i64 [ %8, %7 ], [ %1, %4 ], [ 2, %2 ]
  %11 = getelementptr inbounds %"class.std::__1::__hash_table", %"class.std::__1::__hash_table"* %0, i64 0, i32 0, i32 0, i32 1, i32 0, i32 0, i32 0, i32 0
  %12 = load i64, i64* %11, align 8
  %13 = icmp ugt i64 %10, %12
  br i1 %13, label %14, label %15

14:                                               ; preds = %9
  tail call void @_ZNSt3__112__hash_tableINS_17__hash_value_typeIjPN12font_service8internal14MappedFontFileEEENS_22__unordered_map_hasherIjS6_NS_4hashIjEENS_8equal_toIjEELb1EEENS_21__unordered_map_equalIjS6_SB_S9_Lb1EEENS_9allocatorIS6_EEE8__rehashEm(%"class.std::__1::__hash_table"* %0, i64 %10)
  br label %45

15:                                               ; preds = %9
  %16 = icmp ult i64 %10, %12
  br i1 %16, label %17, label %45

17:                                               ; preds = %15
  %18 = icmp ugt i64 %12, 2
  %19 = tail call i64 @llvm.ctpop.i64(i64 %12) #10, !range !3
  %20 = icmp ult i64 %19, 2
  %21 = and i1 %18, %20
  %22 = getelementptr inbounds %"class.std::__1::__hash_table", %"class.std::__1::__hash_table"* %0, i64 0, i32 2, i32 0, i32 0
  %23 = load i64, i64* %22, align 8
  %24 = uitofp i64 %23 to float
  %25 = getelementptr inbounds %"class.std::__1::__hash_table", %"class.std::__1::__hash_table"* %0, i64 0, i32 3, i32 0, i32 0
  %26 = load float, float* %25, align 4
  %27 = fdiv float %24, %26
  %28 = tail call float @llvm.ceil.f32(float %27) #10
  %29 = fptoui float %28 to i64
  br i1 %21, label %30, label %37

30:                                               ; preds = %17
  %31 = icmp ult i64 %29, 2
  br i1 %31, label %39, label %32

32:                                               ; preds = %30
  %33 = add i64 %29, -1
  %34 = tail call i64 @llvm.ctlz.i64(i64 %33, i1 true) #10, !range !3
  %35 = sub nuw nsw i64 64, %34
  %36 = shl i64 1, %35
  br label %39

37:                                               ; preds = %17
  %38 = tail call i64 @_ZNSt3__112__next_primeEm(i64 %29) #10
  br label %39

39:                                               ; preds = %32, %30, %37
  %40 = phi i64 [ %38, %37 ], [ %36, %32 ], [ %29, %30 ]
  %41 = icmp ult i64 %10, %40
  %42 = select i1 %41, i64 %40, i64 %10
  %43 = icmp ult i64 %42, %12
  br i1 %43, label %44, label %45

44:                                               ; preds = %39
  tail call void @_ZNSt3__112__hash_tableINS_17__hash_value_typeIjPN12font_service8internal14MappedFontFileEEENS_22__unordered_map_hasherIjS6_NS_4hashIjEENS_8equal_toIjEELb1EEENS_21__unordered_map_equalIjS6_SB_S9_Lb1EEENS_9allocatorIS6_EEE8__rehashEm(%"class.std::__1::__hash_table"* %0, i64 %42)
  br label %45

45:                                               ; preds = %15, %44, %39, %14
  ret void
}

; Function Attrs: noreturn nounwind
declare void @abort() local_unnamed_addr #7

declare i64 @_ZNSt3__112__next_primeEm(i64) local_unnamed_addr #1

; Function Attrs: nounwind ssp uwtable
define linkonce_odr hidden void @_ZNSt3__112__hash_tableINS_17__hash_value_typeIjPN12font_service8internal14MappedFontFileEEENS_22__unordered_map_hasherIjS6_NS_4hashIjEENS_8equal_toIjEELb1EEENS_21__unordered_map_equalIjS6_SB_S9_Lb1EEENS_9allocatorIS6_EEE8__rehashEm(%"class.std::__1::__hash_table"*, i64) local_unnamed_addr #0 comdat align 2 {
  %3 = getelementptr inbounds %"class.std::__1::__hash_table", %"class.std::__1::__hash_table"* %0, i64 0, i32 0, i32 0, i32 1, i32 0
  %4 = icmp eq i64 %1, 0
  br i1 %4, label %134, label %5

5:                                                ; preds = %2
  %6 = icmp ugt i64 %1, 2305843009213693951
  br i1 %6, label %7, label %8

7:                                                ; preds = %5
  tail call void @abort() #11
  unreachable

8:                                                ; preds = %5
  %9 = shl i64 %1, 3
  %10 = tail call i8* @_Znwm(i64 %9) #9
  %11 = getelementptr inbounds %"class.std::__1::__hash_table", %"class.std::__1::__hash_table"* %0, i64 0, i32 0, i32 0, i32 0, i32 0
  %12 = load %"struct.std::__1::__hash_node_base"**, %"struct.std::__1::__hash_node_base"*** %11, align 8
  %13 = bitcast %"class.std::__1::__hash_table"* %0 to i8**
  store i8* %10, i8** %13, align 8
  %14 = icmp eq %"struct.std::__1::__hash_node_base"** %12, null
  br i1 %14, label %17, label %15

15:                                               ; preds = %8
  %16 = bitcast %"struct.std::__1::__hash_node_base"** %12 to i8*
  tail call void @_ZdlPv(i8* %16) #9
  br label %17

17:                                               ; preds = %15, %8
  %18 = getelementptr inbounds %"class.std::__1::__bucket_list_deallocator", %"class.std::__1::__bucket_list_deallocator"* %3, i64 0, i32 0, i32 0, i32 0
  store i64 %1, i64* %18, align 8
  %19 = add i64 %1, -1
  %20 = and i64 %1, 3
  %21 = icmp ult i64 %19, 3
  br i1 %21, label %24, label %22

22:                                               ; preds = %17
  %23 = sub i64 %1, %20
  br label %40

24:                                               ; preds = %40, %17
  %25 = phi i64 [ 0, %17 ], [ %54, %40 ]
  %26 = icmp eq i64 %20, 0
  br i1 %26, label %35, label %27

27:                                               ; preds = %24, %27
  %28 = phi i64 [ %32, %27 ], [ %25, %24 ]
  %29 = phi i64 [ %33, %27 ], [ %20, %24 ]
  %30 = load %"struct.std::__1::__hash_node_base"**, %"struct.std::__1::__hash_node_base"*** %11, align 8
  %31 = getelementptr inbounds %"struct.std::__1::__hash_node_base"*, %"struct.std::__1::__hash_node_base"** %30, i64 %28
  store %"struct.std::__1::__hash_node_base"* null, %"struct.std::__1::__hash_node_base"** %31, align 8
  %32 = add nuw i64 %28, 1
  %33 = add i64 %29, -1
  %34 = icmp eq i64 %33, 0
  br i1 %34, label %35, label %27, !llvm.loop !10

35:                                               ; preds = %27, %24
  %36 = getelementptr inbounds %"class.std::__1::__hash_table", %"class.std::__1::__hash_table"* %0, i64 0, i32 1, i32 0, i32 0
  %37 = getelementptr inbounds %"struct.std::__1::__hash_node_base", %"struct.std::__1::__hash_node_base"* %36, i64 0, i32 0
  %38 = load %"struct.std::__1::__hash_node_base"*, %"struct.std::__1::__hash_node_base"** %37, align 8
  %39 = icmp eq %"struct.std::__1::__hash_node_base"* %38, null
  br i1 %39, label %142, label %57

40:                                               ; preds = %40, %22
  %41 = phi i64 [ 0, %22 ], [ %54, %40 ]
  %42 = phi i64 [ %23, %22 ], [ %55, %40 ]
  %43 = load %"struct.std::__1::__hash_node_base"**, %"struct.std::__1::__hash_node_base"*** %11, align 8
  %44 = getelementptr inbounds %"struct.std::__1::__hash_node_base"*, %"struct.std::__1::__hash_node_base"** %43, i64 %41
  store %"struct.std::__1::__hash_node_base"* null, %"struct.std::__1::__hash_node_base"** %44, align 8
  %45 = or i64 %41, 1
  %46 = load %"struct.std::__1::__hash_node_base"**, %"struct.std::__1::__hash_node_base"*** %11, align 8
  %47 = getelementptr inbounds %"struct.std::__1::__hash_node_base"*, %"struct.std::__1::__hash_node_base"** %46, i64 %45
  store %"struct.std::__1::__hash_node_base"* null, %"struct.std::__1::__hash_node_base"** %47, align 8
  %48 = or i64 %41, 2
  %49 = load %"struct.std::__1::__hash_node_base"**, %"struct.std::__1::__hash_node_base"*** %11, align 8
  %50 = getelementptr inbounds %"struct.std::__1::__hash_node_base"*, %"struct.std::__1::__hash_node_base"** %49, i64 %48
  store %"struct.std::__1::__hash_node_base"* null, %"struct.std::__1::__hash_node_base"** %50, align 8
  %51 = or i64 %41, 3
  %52 = load %"struct.std::__1::__hash_node_base"**, %"struct.std::__1::__hash_node_base"*** %11, align 8
  %53 = getelementptr inbounds %"struct.std::__1::__hash_node_base"*, %"struct.std::__1::__hash_node_base"** %52, i64 %51
  store %"struct.std::__1::__hash_node_base"* null, %"struct.std::__1::__hash_node_base"** %53, align 8
  %54 = add nuw i64 %41, 4
  %55 = add i64 %42, -4
  %56 = icmp eq i64 %55, 0
  br i1 %56, label %24, label %40

57:                                               ; preds = %35
  %58 = getelementptr inbounds %"struct.std::__1::__hash_node_base", %"struct.std::__1::__hash_node_base"* %38, i64 1
  %59 = bitcast %"struct.std::__1::__hash_node_base"* %58 to i64*
  %60 = load i64, i64* %59, align 8
  %61 = tail call i64 @llvm.ctpop.i64(i64 %1) #10, !range !3
  %62 = icmp ugt i64 %61, 1
  br i1 %62, label %66, label %63

63:                                               ; preds = %57
  %64 = add i64 %1, -1
  %65 = and i64 %60, %64
  br label %70

66:                                               ; preds = %57
  %67 = icmp ult i64 %60, %1
  br i1 %67, label %70, label %68

68:                                               ; preds = %66
  %69 = urem i64 %60, %1
  br label %70

70:                                               ; preds = %63, %66, %68
  %71 = phi i64 [ %65, %63 ], [ %69, %68 ], [ %60, %66 ]
  %72 = load %"struct.std::__1::__hash_node_base"**, %"struct.std::__1::__hash_node_base"*** %11, align 8
  %73 = getelementptr inbounds %"struct.std::__1::__hash_node_base"*, %"struct.std::__1::__hash_node_base"** %72, i64 %71
  store %"struct.std::__1::__hash_node_base"* %36, %"struct.std::__1::__hash_node_base"** %73, align 8
  %74 = getelementptr inbounds %"struct.std::__1::__hash_node_base", %"struct.std::__1::__hash_node_base"* %38, i64 0, i32 0
  %75 = load %"struct.std::__1::__hash_node_base"*, %"struct.std::__1::__hash_node_base"** %74, align 8
  %76 = icmp eq %"struct.std::__1::__hash_node_base"* %75, null
  br i1 %76, label %142, label %77

77:                                               ; preds = %70
  %78 = add i64 %1, -1
  br label %79

79:                                               ; preds = %77, %128
  %80 = phi %"struct.std::__1::__hash_node_base"* [ %75, %77 ], [ %132, %128 ]
  %81 = phi i64 [ %71, %77 ], [ %130, %128 ]
  %82 = phi %"struct.std::__1::__hash_node_base"* [ %38, %77 ], [ %129, %128 ]
  %83 = getelementptr inbounds %"struct.std::__1::__hash_node_base", %"struct.std::__1::__hash_node_base"* %80, i64 1
  %84 = bitcast %"struct.std::__1::__hash_node_base"* %83 to i64*
  %85 = load i64, i64* %84, align 8
  br i1 %62, label %88, label %86

86:                                               ; preds = %79
  %87 = and i64 %85, %78
  br label %92

88:                                               ; preds = %79
  %89 = icmp ult i64 %85, %1
  br i1 %89, label %92, label %90

90:                                               ; preds = %88
  %91 = urem i64 %85, %1
  br label %92

92:                                               ; preds = %86, %88, %90
  %93 = phi i64 [ %87, %86 ], [ %91, %90 ], [ %85, %88 ]
  %94 = icmp eq i64 %93, %81
  br i1 %94, label %128, label %95

95:                                               ; preds = %92
  %96 = load %"struct.std::__1::__hash_node_base"**, %"struct.std::__1::__hash_node_base"*** %11, align 8
  %97 = getelementptr inbounds %"struct.std::__1::__hash_node_base"*, %"struct.std::__1::__hash_node_base"** %96, i64 %93
  %98 = load %"struct.std::__1::__hash_node_base"*, %"struct.std::__1::__hash_node_base"** %97, align 8
  %99 = icmp eq %"struct.std::__1::__hash_node_base"* %98, null
  br i1 %99, label %103, label %100

100:                                              ; preds = %95
  %101 = getelementptr inbounds %"struct.std::__1::__hash_node_base", %"struct.std::__1::__hash_node_base"* %80, i64 2
  %102 = bitcast %"struct.std::__1::__hash_node_base"* %101 to i32*
  br label %104

103:                                              ; preds = %95
  store %"struct.std::__1::__hash_node_base"* %82, %"struct.std::__1::__hash_node_base"** %97, align 8
  br label %128

104:                                              ; preds = %100, %109
  %105 = phi %"struct.std::__1::__hash_node_base"* [ %107, %109 ], [ %80, %100 ]
  %106 = getelementptr inbounds %"struct.std::__1::__hash_node_base", %"struct.std::__1::__hash_node_base"* %105, i64 0, i32 0
  %107 = load %"struct.std::__1::__hash_node_base"*, %"struct.std::__1::__hash_node_base"** %106, align 8
  %108 = icmp eq %"struct.std::__1::__hash_node_base"* %107, null
  br i1 %108, label %115, label %109

109:                                              ; preds = %104
  %110 = getelementptr inbounds %"struct.std::__1::__hash_node_base", %"struct.std::__1::__hash_node_base"* %107, i64 2
  %111 = bitcast %"struct.std::__1::__hash_node_base"* %110 to i32*
  %112 = load i32, i32* %102, align 4
  %113 = load i32, i32* %111, align 4
  %114 = icmp eq i32 %112, %113
  br i1 %114, label %104, label %115

115:                                              ; preds = %104, %109
  %116 = ptrtoint %"struct.std::__1::__hash_node_base"* %107 to i64
  %117 = bitcast %"struct.std::__1::__hash_node_base"* %105 to i64*
  %118 = bitcast %"struct.std::__1::__hash_node_base"* %82 to i64*
  store i64 %116, i64* %118, align 8
  %119 = load %"struct.std::__1::__hash_node_base"**, %"struct.std::__1::__hash_node_base"*** %11, align 8
  %120 = getelementptr inbounds %"struct.std::__1::__hash_node_base"*, %"struct.std::__1::__hash_node_base"** %119, i64 %93
  %121 = bitcast %"struct.std::__1::__hash_node_base"** %120 to i64**
  %122 = load i64*, i64** %121, align 8
  %123 = load i64, i64* %122, align 8
  store i64 %123, i64* %117, align 8
  %124 = load %"struct.std::__1::__hash_node_base"**, %"struct.std::__1::__hash_node_base"*** %11, align 8
  %125 = getelementptr inbounds %"struct.std::__1::__hash_node_base"*, %"struct.std::__1::__hash_node_base"** %124, i64 %93
  %126 = load %"struct.std::__1::__hash_node_base"*, %"struct.std::__1::__hash_node_base"** %125, align 8
  %127 = getelementptr inbounds %"struct.std::__1::__hash_node_base", %"struct.std::__1::__hash_node_base"* %126, i64 0, i32 0
  store %"struct.std::__1::__hash_node_base"* %80, %"struct.std::__1::__hash_node_base"** %127, align 8
  br label %128

128:                                              ; preds = %92, %115, %103
  %129 = phi %"struct.std::__1::__hash_node_base"* [ %80, %103 ], [ %82, %115 ], [ %80, %92 ]
  %130 = phi i64 [ %93, %103 ], [ %81, %115 ], [ %81, %92 ]
  %131 = getelementptr inbounds %"struct.std::__1::__hash_node_base", %"struct.std::__1::__hash_node_base"* %129, i64 0, i32 0
  %132 = load %"struct.std::__1::__hash_node_base"*, %"struct.std::__1::__hash_node_base"** %131, align 8
  %133 = icmp eq %"struct.std::__1::__hash_node_base"* %132, null
  br i1 %133, label %142, label %79

134:                                              ; preds = %2
  %135 = getelementptr inbounds %"class.std::__1::__hash_table", %"class.std::__1::__hash_table"* %0, i64 0, i32 0, i32 0, i32 0, i32 0
  %136 = load %"struct.std::__1::__hash_node_base"**, %"struct.std::__1::__hash_node_base"*** %135, align 8
  store %"struct.std::__1::__hash_node_base"** null, %"struct.std::__1::__hash_node_base"*** %135, align 8
  %137 = icmp eq %"struct.std::__1::__hash_node_base"** %136, null
  br i1 %137, label %140, label %138

138:                                              ; preds = %134
  %139 = bitcast %"struct.std::__1::__hash_node_base"** %136 to i8*
  tail call void @_ZdlPv(i8* %139) #9
  br label %140

140:                                              ; preds = %134, %138
  %141 = getelementptr inbounds %"class.std::__1::__bucket_list_deallocator", %"class.std::__1::__bucket_list_deallocator"* %3, i64 0, i32 0, i32 0, i32 0
  store i64 0, i64* %141, align 8
  br label %142

142:                                              ; preds = %128, %70, %35, %140
  ret void
}

; Function Attrs: nounwind readnone speculatable
declare i64 @llvm.ctlz.i64(i64, i1 immarg) #8

; Function Attrs: nounwind readnone speculatable
declare float @llvm.ceil.f32(float) #8

; Function Attrs: nounwind ssp uwtable
define linkonce_odr hidden i64 @_ZNSt3__112__hash_tableINS_17__hash_value_typeIjPN12font_service8internal14MappedFontFileEEENS_22__unordered_map_hasherIjS6_NS_4hashIjEENS_8equal_toIjEELb1EEENS_21__unordered_map_equalIjS6_SB_S9_Lb1EEENS_9allocatorIS6_EEE14__erase_uniqueIjEEmRKT_(%"class.std::__1::__hash_table"*, i32* dereferenceable(4)) local_unnamed_addr #0 comdat align 2 {
  %3 = alloca %"class.std::__1::unique_ptr.244", align 8
  %4 = load i32, i32* %1, align 4
  %5 = zext i32 %4 to i64
  %6 = getelementptr inbounds %"class.std::__1::__hash_table", %"class.std::__1::__hash_table"* %0, i64 0, i32 0, i32 0, i32 1, i32 0, i32 0, i32 0, i32 0
  %7 = load i64, i64* %6, align 8
  %8 = icmp eq i64 %7, 0
  br i1 %8, label %65, label %9

9:                                                ; preds = %2
  %10 = tail call i64 @llvm.ctpop.i64(i64 %7) #10, !range !3
  %11 = icmp ugt i64 %10, 1
  br i1 %11, label %15, label %12

12:                                               ; preds = %9
  %13 = add i64 %7, 4294967295
  %14 = and i64 %13, %5
  br label %19

15:                                               ; preds = %9
  %16 = icmp ugt i64 %7, %5
  br i1 %16, label %19, label %17

17:                                               ; preds = %15
  %18 = urem i64 %5, %7
  br label %19

19:                                               ; preds = %17, %15, %12
  %20 = phi i64 [ %14, %12 ], [ %18, %17 ], [ %5, %15 ]
  %21 = getelementptr inbounds %"class.std::__1::__hash_table", %"class.std::__1::__hash_table"* %0, i64 0, i32 0, i32 0, i32 0, i32 0
  %22 = load %"struct.std::__1::__hash_node_base"**, %"struct.std::__1::__hash_node_base"*** %21, align 8
  %23 = getelementptr inbounds %"struct.std::__1::__hash_node_base"*, %"struct.std::__1::__hash_node_base"** %22, i64 %20
  %24 = load %"struct.std::__1::__hash_node_base"*, %"struct.std::__1::__hash_node_base"** %23, align 8
  %25 = icmp eq %"struct.std::__1::__hash_node_base"* %24, null
  br i1 %25, label %65, label %26

26:                                               ; preds = %19
  %27 = getelementptr inbounds %"struct.std::__1::__hash_node_base", %"struct.std::__1::__hash_node_base"* %24, i64 0, i32 0
  %28 = load %"struct.std::__1::__hash_node_base"*, %"struct.std::__1::__hash_node_base"** %27, align 8
  %29 = icmp eq %"struct.std::__1::__hash_node_base"* %28, null
  br i1 %29, label %65, label %30

30:                                               ; preds = %26
  %31 = add i64 %7, -1
  br label %32

32:                                               ; preds = %53, %30
  %33 = phi %"struct.std::__1::__hash_node_base"* [ %28, %30 ], [ %55, %53 ]
  %34 = getelementptr inbounds %"struct.std::__1::__hash_node_base", %"struct.std::__1::__hash_node_base"* %33, i64 1
  %35 = bitcast %"struct.std::__1::__hash_node_base"* %34 to i64*
  %36 = load i64, i64* %35, align 8
  %37 = icmp eq i64 %36, %5
  br i1 %37, label %48, label %38

38:                                               ; preds = %32
  br i1 %11, label %41, label %39

39:                                               ; preds = %38
  %40 = and i64 %36, %31
  br label %45

41:                                               ; preds = %38
  %42 = icmp ult i64 %36, %7
  br i1 %42, label %45, label %43

43:                                               ; preds = %41
  %44 = urem i64 %36, %7
  br label %45

45:                                               ; preds = %43, %41, %39
  %46 = phi i64 [ %40, %39 ], [ %44, %43 ], [ %36, %41 ]
  %47 = icmp eq i64 %46, %20
  br i1 %47, label %53, label %65

48:                                               ; preds = %32
  %49 = getelementptr inbounds %"struct.std::__1::__hash_node_base", %"struct.std::__1::__hash_node_base"* %33, i64 2
  %50 = bitcast %"struct.std::__1::__hash_node_base"* %49 to i32*
  %51 = load i32, i32* %50, align 4
  %52 = icmp eq i32 %51, %4
  br i1 %52, label %57, label %53

53:                                               ; preds = %48, %45
  %54 = getelementptr inbounds %"struct.std::__1::__hash_node_base", %"struct.std::__1::__hash_node_base"* %33, i64 0, i32 0
  %55 = load %"struct.std::__1::__hash_node_base"*, %"struct.std::__1::__hash_node_base"** %54, align 8
  %56 = icmp eq %"struct.std::__1::__hash_node_base"* %55, null
  br i1 %56, label %65, label %32

57:                                               ; preds = %48
  %58 = bitcast %"class.std::__1::unique_ptr.244"* %3 to i8*
  call void @llvm.lifetime.start.p0i8(i64 24, i8* nonnull %58)
  call void @_ZNSt3__112__hash_tableINS_17__hash_value_typeIjPN12font_service8internal14MappedFontFileEEENS_22__unordered_map_hasherIjS6_NS_4hashIjEENS_8equal_toIjEELb1EEENS_21__unordered_map_equalIjS6_SB_S9_Lb1EEENS_9allocatorIS6_EEE6removeENS_21__hash_const_iteratorIPNS_11__hash_nodeIS6_PvEEEE(%"class.std::__1::unique_ptr.244"* nonnull sret %3, %"class.std::__1::__hash_table"* %0, %"struct.std::__1::__hash_node_base"* nonnull %33) #10
  %59 = getelementptr inbounds %"class.std::__1::unique_ptr.244", %"class.std::__1::unique_ptr.244"* %3, i64 0, i32 0, i32 0, i32 0
  %60 = load %"struct.std::__1::__hash_node"*, %"struct.std::__1::__hash_node"** %59, align 8
  store %"struct.std::__1::__hash_node"* null, %"struct.std::__1::__hash_node"** %59, align 8
  %61 = icmp eq %"struct.std::__1::__hash_node"* %60, null
  br i1 %61, label %64, label %62

62:                                               ; preds = %57
  %63 = bitcast %"struct.std::__1::__hash_node"* %60 to i8*
  call void @_ZdlPv(i8* %63) #9
  br label %64

64:                                               ; preds = %57, %62
  call void @llvm.lifetime.end.p0i8(i64 24, i8* nonnull %58)
  br label %65

65:                                               ; preds = %45, %53, %26, %2, %19, %64
  %66 = phi i64 [ 1, %64 ], [ 0, %19 ], [ 0, %2 ], [ 0, %26 ], [ 0, %53 ], [ 0, %45 ]
  ret i64 %66
}

; Function Attrs: nounwind ssp uwtable
define linkonce_odr hidden void @_ZNSt3__112__hash_tableINS_17__hash_value_typeIjPN12font_service8internal14MappedFontFileEEENS_22__unordered_map_hasherIjS6_NS_4hashIjEENS_8equal_toIjEELb1EEENS_21__unordered_map_equalIjS6_SB_S9_Lb1EEENS_9allocatorIS6_EEE6removeENS_21__hash_const_iteratorIPNS_11__hash_nodeIS6_PvEEEE(%"class.std::__1::unique_ptr.244"* noalias sret, %"class.std::__1::__hash_table"*, %"struct.std::__1::__hash_node_base"*) local_unnamed_addr #0 comdat align 2 {
  %4 = getelementptr inbounds %"class.std::__1::__hash_table", %"class.std::__1::__hash_table"* %1, i64 0, i32 0, i32 0, i32 1, i32 0, i32 0, i32 0, i32 0
  %5 = load i64, i64* %4, align 8
  %6 = getelementptr inbounds %"struct.std::__1::__hash_node_base", %"struct.std::__1::__hash_node_base"* %2, i64 1
  %7 = bitcast %"struct.std::__1::__hash_node_base"* %6 to i64*
  %8 = load i64, i64* %7, align 8
  %9 = tail call i64 @llvm.ctpop.i64(i64 %5) #10, !range !3
  %10 = icmp ugt i64 %9, 1
  br i1 %10, label %14, label %11

11:                                               ; preds = %3
  %12 = add i64 %5, -1
  %13 = and i64 %12, %8
  br label %18

14:                                               ; preds = %3
  %15 = icmp ult i64 %8, %5
  br i1 %15, label %18, label %16

16:                                               ; preds = %14
  %17 = urem i64 %8, %5
  br label %18

18:                                               ; preds = %11, %14, %16
  %19 = phi i64 [ %13, %11 ], [ %17, %16 ], [ %8, %14 ]
  %20 = getelementptr inbounds %"class.std::__1::__hash_table", %"class.std::__1::__hash_table"* %1, i64 0, i32 0, i32 0, i32 0, i32 0
  %21 = load %"struct.std::__1::__hash_node_base"**, %"struct.std::__1::__hash_node_base"*** %20, align 8
  %22 = getelementptr inbounds %"struct.std::__1::__hash_node_base"*, %"struct.std::__1::__hash_node_base"** %21, i64 %19
  %23 = load %"struct.std::__1::__hash_node_base"*, %"struct.std::__1::__hash_node_base"** %22, align 8
  br label %24

24:                                               ; preds = %24, %18
  %25 = phi %"struct.std::__1::__hash_node_base"* [ %23, %18 ], [ %27, %24 ]
  %26 = getelementptr inbounds %"struct.std::__1::__hash_node_base", %"struct.std::__1::__hash_node_base"* %25, i64 0, i32 0
  %27 = load %"struct.std::__1::__hash_node_base"*, %"struct.std::__1::__hash_node_base"** %26, align 8
  %28 = icmp eq %"struct.std::__1::__hash_node_base"* %27, %2
  br i1 %28, label %29, label %24

29:                                               ; preds = %24
  %30 = getelementptr inbounds %"class.std::__1::__hash_table", %"class.std::__1::__hash_table"* %1, i64 0, i32 1
  %31 = getelementptr inbounds %"class.std::__1::__compressed_pair.185", %"class.std::__1::__compressed_pair.185"* %30, i64 0, i32 0, i32 0
  %32 = icmp eq %"struct.std::__1::__hash_node_base"* %25, %31
  br i1 %32, label %47, label %33

33:                                               ; preds = %29
  %34 = getelementptr inbounds %"struct.std::__1::__hash_node_base", %"struct.std::__1::__hash_node_base"* %25, i64 1
  %35 = bitcast %"struct.std::__1::__hash_node_base"* %34 to i64*
  %36 = load i64, i64* %35, align 8
  br i1 %10, label %40, label %37

37:                                               ; preds = %33
  %38 = add i64 %5, -1
  %39 = and i64 %36, %38
  br label %44

40:                                               ; preds = %33
  %41 = icmp ult i64 %36, %5
  br i1 %41, label %44, label %42

42:                                               ; preds = %40
  %43 = urem i64 %36, %5
  br label %44

44:                                               ; preds = %37, %40, %42
  %45 = phi i64 [ %39, %37 ], [ %43, %42 ], [ %36, %40 ]
  %46 = icmp eq i64 %45, %19
  br i1 %46, label %66, label %47

47:                                               ; preds = %44, %29
  %48 = getelementptr inbounds %"struct.std::__1::__hash_node_base", %"struct.std::__1::__hash_node_base"* %2, i64 0, i32 0
  %49 = load %"struct.std::__1::__hash_node_base"*, %"struct.std::__1::__hash_node_base"** %48, align 8
  %50 = icmp eq %"struct.std::__1::__hash_node_base"* %49, null
  br i1 %50, label %65, label %51

51:                                               ; preds = %47
  %52 = getelementptr inbounds %"struct.std::__1::__hash_node_base", %"struct.std::__1::__hash_node_base"* %49, i64 1
  %53 = bitcast %"struct.std::__1::__hash_node_base"* %52 to i64*
  %54 = load i64, i64* %53, align 8
  br i1 %10, label %58, label %55

55:                                               ; preds = %51
  %56 = add i64 %5, -1
  %57 = and i64 %54, %56
  br label %62

58:                                               ; preds = %51
  %59 = icmp ult i64 %54, %5
  br i1 %59, label %62, label %60

60:                                               ; preds = %58
  %61 = urem i64 %54, %5
  br label %62

62:                                               ; preds = %55, %58, %60
  %63 = phi i64 [ %57, %55 ], [ %61, %60 ], [ %54, %58 ]
  %64 = icmp eq i64 %63, %19
  br i1 %64, label %66, label %65

65:                                               ; preds = %62, %47
  store %"struct.std::__1::__hash_node_base"* null, %"struct.std::__1::__hash_node_base"** %22, align 8
  br label %66

66:                                               ; preds = %62, %44, %65
  %67 = getelementptr inbounds %"struct.std::__1::__hash_node_base", %"struct.std::__1::__hash_node_base"* %2, i64 0, i32 0
  %68 = load %"struct.std::__1::__hash_node_base"*, %"struct.std::__1::__hash_node_base"** %67, align 8
  %69 = icmp eq %"struct.std::__1::__hash_node_base"* %68, null
  %70 = ptrtoint %"struct.std::__1::__hash_node_base"* %68 to i64
  br i1 %69, label %90, label %71

71:                                               ; preds = %66
  %72 = getelementptr inbounds %"struct.std::__1::__hash_node_base", %"struct.std::__1::__hash_node_base"* %68, i64 1
  %73 = bitcast %"struct.std::__1::__hash_node_base"* %72 to i64*
  %74 = load i64, i64* %73, align 8
  br i1 %10, label %78, label %75

75:                                               ; preds = %71
  %76 = add i64 %5, -1
  %77 = and i64 %74, %76
  br label %82

78:                                               ; preds = %71
  %79 = icmp ult i64 %74, %5
  br i1 %79, label %82, label %80

80:                                               ; preds = %78
  %81 = urem i64 %74, %5
  br label %82

82:                                               ; preds = %75, %78, %80
  %83 = phi i64 [ %77, %75 ], [ %81, %80 ], [ %74, %78 ]
  %84 = icmp eq i64 %83, %19
  br i1 %84, label %90, label %85

85:                                               ; preds = %82
  %86 = load %"struct.std::__1::__hash_node_base"**, %"struct.std::__1::__hash_node_base"*** %20, align 8
  %87 = getelementptr inbounds %"struct.std::__1::__hash_node_base"*, %"struct.std::__1::__hash_node_base"** %86, i64 %83
  store %"struct.std::__1::__hash_node_base"* %25, %"struct.std::__1::__hash_node_base"** %87, align 8
  %88 = bitcast %"struct.std::__1::__hash_node_base"* %2 to i64*
  %89 = load i64, i64* %88, align 8
  br label %90

90:                                               ; preds = %85, %82, %66
  %91 = phi i64 [ %89, %85 ], [ %70, %82 ], [ %70, %66 ]
  %92 = bitcast %"struct.std::__1::__hash_node_base"* %25 to i64*
  store i64 %91, i64* %92, align 8
  store %"struct.std::__1::__hash_node_base"* null, %"struct.std::__1::__hash_node_base"** %67, align 8
  %93 = getelementptr inbounds %"class.std::__1::__hash_table", %"class.std::__1::__hash_table"* %1, i64 0, i32 2, i32 0, i32 0
  %94 = load i64, i64* %93, align 8
  %95 = add i64 %94, -1
  store i64 %95, i64* %93, align 8
  %96 = ptrtoint %"struct.std::__1::__hash_node_base"* %2 to i64
  %97 = bitcast %"class.std::__1::unique_ptr.244"* %0 to i64*
  store i64 %96, i64* %97, align 8
  %98 = getelementptr inbounds %"class.std::__1::unique_ptr.244", %"class.std::__1::unique_ptr.244"* %0, i64 0, i32 0, i32 1, i32 0, i32 0
  %99 = bitcast %"class.std::__1::allocator.188"** %98 to %"class.std::__1::__compressed_pair.185"**
  store %"class.std::__1::__compressed_pair.185"* %30, %"class.std::__1::__compressed_pair.185"** %99, align 8
  %100 = getelementptr inbounds %"class.std::__1::unique_ptr.244", %"class.std::__1::unique_ptr.244"* %0, i64 0, i32 0, i32 1, i32 0, i32 1
  store i8 1, i8* %100, align 8
  ret void
}

; Function Attrs: nounwind readnone speculatable
declare i64 @llvm.ctpop.i64(i64) #8

attributes #0 = { nounwind ssp uwtable "correctly-rounded-divide-sqrt-fp-math"="false" "disable-tail-calls"="false" "less-precise-fpmad"="false" "min-legal-vector-width"="0" "no-frame-pointer-elim"="false" "no-frame-pointer-elim-non-leaf" "no-infs-fp-math"="false" "no-jump-tables"="false" "no-nans-fp-math"="false" "no-signed-zeros-fp-math"="false" "no-trapping-math"="false" "null-pointer-is-valid"="true" "stack-protector-buffer-size"="4" "target-cpu"="x86-64" "target-features"="+cx8,+fxsr,+mmx,+sse,+sse2,+sse3,+x87" "unsafe-fp-math"="false" "use-soft-float"="false" }
attributes #1 = { "correctly-rounded-divide-sqrt-fp-math"="false" "disable-tail-calls"="false" "less-precise-fpmad"="false" "no-frame-pointer-elim"="false" "no-frame-pointer-elim-non-leaf" "no-infs-fp-math"="false" "no-nans-fp-math"="false" "no-signed-zeros-fp-math"="false" "no-trapping-math"="false" "null-pointer-is-valid"="true" "stack-protector-buffer-size"="4" "target-cpu"="x86-64" "target-features"="+cx8,+fxsr,+mmx,+sse,+sse2,+sse3,+x87" "unsafe-fp-math"="false" "use-soft-float"="false" }
attributes #2 = { nobuiltin nounwind "correctly-rounded-divide-sqrt-fp-math"="false" "disable-tail-calls"="false" "less-precise-fpmad"="false" "no-frame-pointer-elim"="false" "no-frame-pointer-elim-non-leaf" "no-infs-fp-math"="false" "no-nans-fp-math"="false" "no-signed-zeros-fp-math"="false" "no-trapping-math"="false" "null-pointer-is-valid"="true" "stack-protector-buffer-size"="4" "target-cpu"="x86-64" "target-features"="+cx8,+fxsr,+mmx,+sse,+sse2,+sse3,+x87" "unsafe-fp-math"="false" "use-soft-float"="false" }
attributes #3 = { argmemonly nounwind }
attributes #4 = { inlinehint nounwind ssp uwtable "correctly-rounded-divide-sqrt-fp-math"="false" "disable-tail-calls"="false" "less-precise-fpmad"="false" "min-legal-vector-width"="0" "no-frame-pointer-elim"="false" "no-frame-pointer-elim-non-leaf" "no-infs-fp-math"="false" "no-jump-tables"="false" "no-nans-fp-math"="false" "no-signed-zeros-fp-math"="false" "no-trapping-math"="false" "null-pointer-is-valid"="true" "stack-protector-buffer-size"="4" "target-cpu"="x86-64" "target-features"="+cx8,+fxsr,+mmx,+sse,+sse2,+sse3,+x87" "unsafe-fp-math"="false" "use-soft-float"="false" }
attributes #5 = { nounwind "correctly-rounded-divide-sqrt-fp-math"="false" "disable-tail-calls"="false" "less-precise-fpmad"="false" "no-frame-pointer-elim"="false" "no-frame-pointer-elim-non-leaf" "no-infs-fp-math"="false" "no-nans-fp-math"="false" "no-signed-zeros-fp-math"="false" "no-trapping-math"="false" "null-pointer-is-valid"="true" "stack-protector-buffer-size"="4" "target-cpu"="x86-64" "target-features"="+cx8,+fxsr,+mmx,+sse,+sse2,+sse3,+x87" "unsafe-fp-math"="false" "use-soft-float"="false" }
attributes #6 = { nobuiltin nofree "correctly-rounded-divide-sqrt-fp-math"="false" "disable-tail-calls"="false" "less-precise-fpmad"="false" "no-frame-pointer-elim"="false" "no-frame-pointer-elim-non-leaf" "no-infs-fp-math"="false" "no-nans-fp-math"="false" "no-signed-zeros-fp-math"="false" "no-trapping-math"="false" "null-pointer-is-valid"="true" "stack-protector-buffer-size"="4" "target-cpu"="x86-64" "target-features"="+cx8,+fxsr,+mmx,+sse,+sse2,+sse3,+x87" "unsafe-fp-math"="false" "use-soft-float"="false" }
attributes #7 = { noreturn nounwind "correctly-rounded-divide-sqrt-fp-math"="false" "disable-tail-calls"="false" "less-precise-fpmad"="false" "no-frame-pointer-elim"="false" "no-frame-pointer-elim-non-leaf" "no-infs-fp-math"="false" "no-nans-fp-math"="false" "no-signed-zeros-fp-math"="false" "no-trapping-math"="false" "null-pointer-is-valid"="true" "stack-protector-buffer-size"="4" "target-cpu"="x86-64" "target-features"="+cx8,+fxsr,+mmx,+sse,+sse2,+sse3,+x87" "unsafe-fp-math"="false" "use-soft-float"="false" }
attributes #8 = { nounwind readnone speculatable }
attributes #9 = { builtin nounwind }
attributes #10 = { nounwind }
attributes #11 = { noreturn nounwind }

!llvm.module.flags = !{!0, !1}

!0 = !{i32 1, !"wchar_size", i32 4}
!1 = !{i32 7, !"PIC Level", i32 2}
!2 = !{!"branch_weights", i32 2000, i32 1}
!3 = !{i64 0, i64 65}
!4 = !{!5}
!5 = distinct !{!5, !6, !"_ZN21SkFontConfigInterface12makeTypefaceERKNS_12FontIdentityE: argument 0"}
!6 = distinct !{!6, !"_ZN21SkFontConfigInterface12makeTypefaceERKNS_12FontIdentityE"}
!7 = !{!8}
!8 = distinct !{!8, !9, !"_ZNSt3__112__hash_tableINS_17__hash_value_typeIjPN12font_service8internal14MappedFontFileEEENS_22__unordered_map_hasherIjS6_NS_4hashIjEENS_8equal_toIjEELb1EEENS_21__unordered_map_equalIjS6_SB_S9_Lb1EEENS_9allocatorIS6_EEE21__construct_node_hashINS_4pairIjS5_EEJEEENS_10unique_ptrINS_11__hash_nodeIS6_PvEENS_22__hash_node_destructorINSF_ISO_EEEEEEmOT_DpOT0_: argument 0"}
!9 = distinct !{!9, !"_ZNSt3__112__hash_tableINS_17__hash_value_typeIjPN12font_service8internal14MappedFontFileEEENS_22__unordered_map_hasherIjS6_NS_4hashIjEENS_8equal_toIjEELb1EEENS_21__unordered_map_equalIjS6_SB_S9_Lb1EEENS_9allocatorIS6_EEE21__construct_node_hashINS_4pairIjS5_EEJEEENS_10unique_ptrINS_11__hash_nodeIS6_PvEENS_22__hash_node_destructorINSF_ISO_EEEEEEmOT_DpOT0_"}
!10 = distinct !{!10, !11}
!11 = !{!"llvm.loop.unroll.disable"}
