; ModuleID = '../../third_party/angle/src/libANGLE/renderer/Format_table_autogen.cpp'
source_filename = "../../third_party/angle/src/libANGLE/renderer/Format_table_autogen.cpp"
target datalayout = "e-m:e-i64:64-f80:128-n8:16:32:64-S128"
target triple = "x86_64-unknown-linux-gnu"

module asm ".symver exp, exp@GLIBC_2.2.5"
module asm ".symver exp2, exp2@GLIBC_2.2.5"
module asm ".symver exp2f, exp2f@GLIBC_2.2.5"
module asm ".symver expf, expf@GLIBC_2.2.5"
module asm ".symver lgamma, lgamma@GLIBC_2.2.5"
module asm ".symver lgammaf, lgammaf@GLIBC_2.2.5"
module asm ".symver lgammal, lgammal@GLIBC_2.2.5"
module asm ".symver log, log@GLIBC_2.2.5"
module asm ".symver log2, log2@GLIBC_2.2.5"
module asm ".symver log2f, log2f@GLIBC_2.2.5"
module asm ".symver logf, logf@GLIBC_2.2.5"
module asm ".symver pow, pow@GLIBC_2.2.5"
module asm ".symver powf, powf@GLIBC_2.2.5"

%"class.rx::FastCopyFunctionMap" = type { i64, %"struct.rx::FastCopyFunctionMap::Entry"* }
%"struct.rx::FastCopyFunctionMap::Entry" = type { i32, void (i8*, i8*)* }
%"struct.angle::Format" = type { i32, i32, i32, void (i64, i64, i64, i8*, i64, i64, i8*, i64, i64)*, void (i8*, i8*)*, void (i8*, i8*)*, %"class.rx::FastCopyFunctionMap"*, i32, i32, i32, i32, i32, i32, i32, i32, i32, i32, i32, i8, i8, i8, i8, i8, i32 }
%"struct.angle::DepthStencil" = type <{ double, i32, [4 x i8] }>
%"struct.angle::D16" = type { i16 }
%"struct.angle::D24S8" = type { i32 }
%"struct.angle::D24X8" = type { i32 }
%"struct.angle::D32F" = type { float }
%"struct.angle::D32FS8X24" = type { float, i32 }
%"struct.angle::D32" = type { i32 }
%"struct.angle::S8" = type { i8 }
%"struct.angle::Color" = type { float, float, float, float }
%"struct.angle::A16F" = type { i16 }
%"struct.angle::A1R5G5B5" = type { i16 }
%"struct.angle::A32F" = type { float }
%"struct.angle::A8" = type { i8 }
%"struct.angle::B10G10R10A2" = type { i32 }
%"struct.angle::A4R4G4B4" = type { i16 }
%"struct.angle::B5G6R5" = type { i16 }
%"struct.angle::B8G8R8A8" = type { i8, i8, i8, i8 }
%"struct.angle::B8G8R8X8" = type { i8, i8, i8, i8 }
%"struct.angle::R8G8B8" = type { i8, i8, i8 }
%"struct.angle::L16A16F" = type { i16, i16 }
%"struct.angle::L16F" = type { i16 }
%"struct.angle::L32A32F" = type { float, float }
%"struct.angle::L32F" = type { float }
%"struct.angle::L8A8" = type { i8, i8 }
%"struct.angle::L8" = type { i8 }
%"struct.angle::Color.0" = type { i32, i32, i32, i32 }
%"struct.angle::R10G10B10A2S" = type { i32 }
%"struct.angle::Color.1" = type { i32, i32, i32, i32 }
%"struct.angle::R10G10B10A2" = type { i32 }
%"struct.angle::R10G10B10X2" = type { i32 }
%"struct.angle::R11G11B10F" = type { i32 }
%"struct.angle::R16G16B16A16F" = type { i16, i16, i16, i16 }
%"struct.angle::R16G16B16A16S" = type { i16, i16, i16, i16 }
%"struct.angle::R16G16B16A16" = type { i16, i16, i16, i16 }
%"struct.angle::R16G16B16F" = type { i16, i16, i16 }
%"struct.angle::R16G16B16S" = type { i16, i16, i16 }
%"struct.angle::R16G16B16" = type { i16, i16, i16 }
%"struct.angle::R16G16F" = type { i16, i16 }
%"struct.angle::R16G16S" = type { i16, i16 }
%"struct.angle::R16G16" = type { i16, i16 }
%"struct.angle::R16F" = type { i16 }
%"struct.angle::R16S" = type { i16 }
%"struct.angle::R16" = type { i16 }
%"struct.angle::R32G32B32A32F" = type { float, float, float, float }
%"struct.angle::R32G32B32A32S" = type { i32, i32, i32, i32 }
%"struct.angle::R32G32B32A32" = type { i32, i32, i32, i32 }
%"struct.angle::R32G32B32F" = type { float, float, float }
%"struct.angle::R32G32B32S" = type { i32, i32, i32 }
%"struct.angle::R32G32B32" = type { i32, i32, i32 }
%"struct.angle::R32G32F" = type { float, float }
%"struct.angle::R32G32S" = type { i32, i32 }
%"struct.angle::R32G32" = type { i32, i32 }
%"struct.angle::R32F" = type { float }
%"struct.angle::R32S" = type { i32 }
%"struct.angle::R32" = type { i32 }
%"struct.angle::R4G4B4A4" = type { i16 }
%"struct.angle::R5G5B5A1" = type { i16 }
%"struct.angle::R5G6B5" = type { i16 }
%"struct.angle::R8G8B8A8S" = type { i8, i8, i8, i8 }
%"struct.angle::R8G8B8A8" = type { i8, i8, i8, i8 }
%"struct.angle::R8G8B8A8SRGB" = type { i8, i8, i8, i8 }
%"struct.angle::R8G8B8S" = type { i8, i8, i8 }
%"struct.angle::R8G8S" = type { i8, i8 }
%"struct.angle::R8G8" = type { i8, i8 }
%"struct.angle::R8S" = type { i8 }
%"struct.angle::R8" = type { i8 }
%"struct.angle::R9G9B9E5" = type { i32 }

$_ZN5angle16ReadDepthStencilINS_3D16EEEvPKhPh = comdat any

$_ZN5angle17WriteDepthStencilINS_3D16EEEvPKhPh = comdat any

$_ZN5angle16ReadDepthStencilINS_5D24S8EEEvPKhPh = comdat any

$_ZN5angle17WriteDepthStencilINS_5D24S8EEEvPKhPh = comdat any

$_ZN5angle16ReadDepthStencilINS_5D24X8EEEvPKhPh = comdat any

$_ZN5angle17WriteDepthStencilINS_5D24X8EEEvPKhPh = comdat any

$_ZN5angle16ReadDepthStencilINS_4D32FEEEvPKhPh = comdat any

$_ZN5angle17WriteDepthStencilINS_4D32FEEEvPKhPh = comdat any

$_ZN5angle16ReadDepthStencilINS_9D32FS8X24EEEvPKhPh = comdat any

$_ZN5angle17WriteDepthStencilINS_9D32FS8X24EEEvPKhPh = comdat any

$_ZN5angle16ReadDepthStencilINS_3D32EEEvPKhPh = comdat any

$_ZN5angle17WriteDepthStencilINS_3D32EEEvPKhPh = comdat any

$_ZN5angle16ReadDepthStencilINS_2S8EEEvPKhPh = comdat any

$_ZN5angle17WriteDepthStencilINS_2S8EEEvPKhPh = comdat any

$_ZN5angle11GenerateMipINS_4A16FEEEvmmmPKhmmPhmm = comdat any

$_ZN5angle9ReadColorINS_4A16FEfEEvPKhPh = comdat any

$_ZN5angle10WriteColorINS_4A16FEfEEvPKhPh = comdat any

$_ZN5angle11GenerateMipINS_8A1R5G5B5EEEvmmmPKhmmPhmm = comdat any

$_ZN5angle9ReadColorINS_8A1R5G5B5EfEEvPKhPh = comdat any

$_ZN5angle10WriteColorINS_8A1R5G5B5EfEEvPKhPh = comdat any

$_ZN5angle11GenerateMipINS_4A32FEEEvmmmPKhmmPhmm = comdat any

$_ZN5angle9ReadColorINS_4A32FEfEEvPKhPh = comdat any

$_ZN5angle10WriteColorINS_4A32FEfEEvPKhPh = comdat any

$_ZN5angle11GenerateMipINS_2A8EEEvmmmPKhmmPhmm = comdat any

$_ZN5angle9ReadColorINS_2A8EfEEvPKhPh = comdat any

$_ZN5angle10WriteColorINS_2A8EfEEvPKhPh = comdat any

$_ZN5angle11GenerateMipINS_11B10G10R10A2EEEvmmmPKhmmPhmm = comdat any

$_ZN5angle9ReadColorINS_11B10G10R10A2EfEEvPKhPh = comdat any

$_ZN5angle10WriteColorINS_11B10G10R10A2EfEEvPKhPh = comdat any

$_ZN5angle11GenerateMipINS_8A4R4G4B4EEEvmmmPKhmmPhmm = comdat any

$_ZN5angle9ReadColorINS_8A4R4G4B4EfEEvPKhPh = comdat any

$_ZN5angle10WriteColorINS_8A4R4G4B4EfEEvPKhPh = comdat any

$_ZN5angle11GenerateMipINS_6B5G6R5EEEvmmmPKhmmPhmm = comdat any

$_ZN5angle9ReadColorINS_6B5G6R5EfEEvPKhPh = comdat any

$_ZN5angle10WriteColorINS_6B5G6R5EfEEvPKhPh = comdat any

$_ZN5angle11GenerateMipINS_8B8G8R8A8EEEvmmmPKhmmPhmm = comdat any

$_ZN5angle9ReadColorINS_8B8G8R8A8EfEEvPKhPh = comdat any

$_ZN5angle10WriteColorINS_8B8G8R8A8EfEEvPKhPh = comdat any

$_ZN5angle11GenerateMipINS_8B8G8R8X8EEEvmmmPKhmmPhmm = comdat any

$_ZN5angle9ReadColorINS_8B8G8R8X8EfEEvPKhPh = comdat any

$_ZN5angle10WriteColorINS_8B8G8R8X8EfEEvPKhPh = comdat any

$_ZN5angle11GenerateMipINS_6R8G8B8EEEvmmmPKhmmPhmm = comdat any

$_ZN5angle9ReadColorINS_6R8G8B8EfEEvPKhPh = comdat any

$_ZN5angle10WriteColorINS_6R8G8B8EfEEvPKhPh = comdat any

$_ZN5angle11GenerateMipINS_7L16A16FEEEvmmmPKhmmPhmm = comdat any

$_ZN5angle9ReadColorINS_7L16A16FEfEEvPKhPh = comdat any

$_ZN5angle10WriteColorINS_7L16A16FEfEEvPKhPh = comdat any

$_ZN5angle11GenerateMipINS_4L16FEEEvmmmPKhmmPhmm = comdat any

$_ZN5angle9ReadColorINS_4L16FEfEEvPKhPh = comdat any

$_ZN5angle10WriteColorINS_4L16FEfEEvPKhPh = comdat any

$_ZN5angle11GenerateMipINS_7L32A32FEEEvmmmPKhmmPhmm = comdat any

$_ZN5angle9ReadColorINS_7L32A32FEfEEvPKhPh = comdat any

$_ZN5angle10WriteColorINS_7L32A32FEfEEvPKhPh = comdat any

$_ZN5angle11GenerateMipINS_4L32FEEEvmmmPKhmmPhmm = comdat any

$_ZN5angle9ReadColorINS_4L32FEfEEvPKhPh = comdat any

$_ZN5angle10WriteColorINS_4L32FEfEEvPKhPh = comdat any

$_ZN5angle11GenerateMipINS_4L8A8EEEvmmmPKhmmPhmm = comdat any

$_ZN5angle9ReadColorINS_4L8A8EfEEvPKhPh = comdat any

$_ZN5angle10WriteColorINS_4L8A8EfEEvPKhPh = comdat any

$_ZN5angle11GenerateMipINS_2L8EEEvmmmPKhmmPhmm = comdat any

$_ZN5angle9ReadColorINS_2L8EfEEvPKhPh = comdat any

$_ZN5angle10WriteColorINS_2L8EfEEvPKhPh = comdat any

$_ZN5angle11GenerateMipINS_12R10G10B10A2SEEEvmmmPKhmmPhmm = comdat any

$_ZN5angle9ReadColorINS_12R10G10B10A2SEiEEvPKhPh = comdat any

$_ZN5angle10WriteColorINS_12R10G10B10A2SEiEEvPKhPh = comdat any

$_ZN5angle9ReadColorINS_12R10G10B10A2SEfEEvPKhPh = comdat any

$_ZN5angle10WriteColorINS_12R10G10B10A2SEfEEvPKhPh = comdat any

$_ZN5angle11GenerateMipINS_11R10G10B10A2EEEvmmmPKhmmPhmm = comdat any

$_ZN5angle9ReadColorINS_11R10G10B10A2EjEEvPKhPh = comdat any

$_ZN5angle10WriteColorINS_11R10G10B10A2EjEEvPKhPh = comdat any

$_ZN5angle9ReadColorINS_11R10G10B10A2EfEEvPKhPh = comdat any

$_ZN5angle10WriteColorINS_11R10G10B10A2EfEEvPKhPh = comdat any

$_ZN5angle11GenerateMipINS_11R10G10B10X2EEEvmmmPKhmmPhmm = comdat any

$_ZN5angle9ReadColorINS_11R10G10B10X2EfEEvPKhPh = comdat any

$_ZN5angle10WriteColorINS_11R10G10B10X2EfEEvPKhPh = comdat any

$_ZN5angle11GenerateMipINS_10R11G11B10FEEEvmmmPKhmmPhmm = comdat any

$_ZN5angle9ReadColorINS_10R11G11B10FEfEEvPKhPh = comdat any

$_ZN5angle10WriteColorINS_10R11G11B10FEfEEvPKhPh = comdat any

$_ZN5angle11GenerateMipINS_13R16G16B16A16FEEEvmmmPKhmmPhmm = comdat any

$_ZN5angle9ReadColorINS_13R16G16B16A16FEfEEvPKhPh = comdat any

$_ZN5angle10WriteColorINS_13R16G16B16A16FEfEEvPKhPh = comdat any

$_ZN5angle11GenerateMipINS_13R16G16B16A16SEEEvmmmPKhmmPhmm = comdat any

$_ZN5angle9ReadColorINS_13R16G16B16A16SEiEEvPKhPh = comdat any

$_ZN5angle10WriteColorINS_13R16G16B16A16SEiEEvPKhPh = comdat any

$_ZN5angle9ReadColorINS_13R16G16B16A16SEfEEvPKhPh = comdat any

$_ZN5angle10WriteColorINS_13R16G16B16A16SEfEEvPKhPh = comdat any

$_ZN5angle11GenerateMipINS_12R16G16B16A16EEEvmmmPKhmmPhmm = comdat any

$_ZN5angle9ReadColorINS_12R16G16B16A16EjEEvPKhPh = comdat any

$_ZN5angle10WriteColorINS_12R16G16B16A16EjEEvPKhPh = comdat any

$_ZN5angle9ReadColorINS_12R16G16B16A16EfEEvPKhPh = comdat any

$_ZN5angle10WriteColorINS_12R16G16B16A16EfEEvPKhPh = comdat any

$_ZN5angle11GenerateMipINS_10R16G16B16FEEEvmmmPKhmmPhmm = comdat any

$_ZN5angle9ReadColorINS_10R16G16B16FEfEEvPKhPh = comdat any

$_ZN5angle10WriteColorINS_10R16G16B16FEfEEvPKhPh = comdat any

$_ZN5angle11GenerateMipINS_10R16G16B16SEEEvmmmPKhmmPhmm = comdat any

$_ZN5angle9ReadColorINS_10R16G16B16SEiEEvPKhPh = comdat any

$_ZN5angle10WriteColorINS_10R16G16B16SEiEEvPKhPh = comdat any

$_ZN5angle9ReadColorINS_10R16G16B16SEfEEvPKhPh = comdat any

$_ZN5angle10WriteColorINS_10R16G16B16SEfEEvPKhPh = comdat any

$_ZN5angle11GenerateMipINS_9R16G16B16EEEvmmmPKhmmPhmm = comdat any

$_ZN5angle9ReadColorINS_9R16G16B16EjEEvPKhPh = comdat any

$_ZN5angle10WriteColorINS_9R16G16B16EjEEvPKhPh = comdat any

$_ZN5angle9ReadColorINS_9R16G16B16EfEEvPKhPh = comdat any

$_ZN5angle10WriteColorINS_9R16G16B16EfEEvPKhPh = comdat any

$_ZN5angle11GenerateMipINS_7R16G16FEEEvmmmPKhmmPhmm = comdat any

$_ZN5angle9ReadColorINS_7R16G16FEfEEvPKhPh = comdat any

$_ZN5angle10WriteColorINS_7R16G16FEfEEvPKhPh = comdat any

$_ZN5angle11GenerateMipINS_7R16G16SEEEvmmmPKhmmPhmm = comdat any

$_ZN5angle9ReadColorINS_7R16G16SEiEEvPKhPh = comdat any

$_ZN5angle10WriteColorINS_7R16G16SEiEEvPKhPh = comdat any

$_ZN5angle9ReadColorINS_7R16G16SEfEEvPKhPh = comdat any

$_ZN5angle10WriteColorINS_7R16G16SEfEEvPKhPh = comdat any

$_ZN5angle11GenerateMipINS_6R16G16EEEvmmmPKhmmPhmm = comdat any

$_ZN5angle9ReadColorINS_6R16G16EjEEvPKhPh = comdat any

$_ZN5angle10WriteColorINS_6R16G16EjEEvPKhPh = comdat any

$_ZN5angle9ReadColorINS_6R16G16EfEEvPKhPh = comdat any

$_ZN5angle10WriteColorINS_6R16G16EfEEvPKhPh = comdat any

$_ZN5angle11GenerateMipINS_4R16FEEEvmmmPKhmmPhmm = comdat any

$_ZN5angle9ReadColorINS_4R16FEfEEvPKhPh = comdat any

$_ZN5angle10WriteColorINS_4R16FEfEEvPKhPh = comdat any

$_ZN5angle11GenerateMipINS_4R16SEEEvmmmPKhmmPhmm = comdat any

$_ZN5angle9ReadColorINS_4R16SEiEEvPKhPh = comdat any

$_ZN5angle10WriteColorINS_4R16SEiEEvPKhPh = comdat any

$_ZN5angle9ReadColorINS_4R16SEfEEvPKhPh = comdat any

$_ZN5angle10WriteColorINS_4R16SEfEEvPKhPh = comdat any

$_ZN5angle11GenerateMipINS_3R16EEEvmmmPKhmmPhmm = comdat any

$_ZN5angle9ReadColorINS_3R16EjEEvPKhPh = comdat any

$_ZN5angle10WriteColorINS_3R16EjEEvPKhPh = comdat any

$_ZN5angle9ReadColorINS_3R16EfEEvPKhPh = comdat any

$_ZN5angle10WriteColorINS_3R16EfEEvPKhPh = comdat any

$_ZN5angle11GenerateMipINS_13R32G32B32A32FEEEvmmmPKhmmPhmm = comdat any

$_ZN5angle9ReadColorINS_13R32G32B32A32FEfEEvPKhPh = comdat any

$_ZN5angle10WriteColorINS_13R32G32B32A32FEfEEvPKhPh = comdat any

$_ZN5angle11GenerateMipINS_13R32G32B32A32SEEEvmmmPKhmmPhmm = comdat any

$_ZN5angle9ReadColorINS_13R32G32B32A32SEiEEvPKhPh = comdat any

$_ZN5angle10WriteColorINS_13R32G32B32A32SEiEEvPKhPh = comdat any

$_ZN5angle9ReadColorINS_13R32G32B32A32SEfEEvPKhPh = comdat any

$_ZN5angle10WriteColorINS_13R32G32B32A32SEfEEvPKhPh = comdat any

$_ZN5angle11GenerateMipINS_12R32G32B32A32EEEvmmmPKhmmPhmm = comdat any

$_ZN5angle9ReadColorINS_12R32G32B32A32EjEEvPKhPh = comdat any

$_ZN5angle10WriteColorINS_12R32G32B32A32EjEEvPKhPh = comdat any

$_ZN5angle9ReadColorINS_12R32G32B32A32EfEEvPKhPh = comdat any

$_ZN5angle10WriteColorINS_12R32G32B32A32EfEEvPKhPh = comdat any

$_ZN5angle11GenerateMipINS_10R32G32B32FEEEvmmmPKhmmPhmm = comdat any

$_ZN5angle9ReadColorINS_10R32G32B32FEfEEvPKhPh = comdat any

$_ZN5angle10WriteColorINS_10R32G32B32FEfEEvPKhPh = comdat any

$_ZN5angle11GenerateMipINS_10R32G32B32SEEEvmmmPKhmmPhmm = comdat any

$_ZN5angle9ReadColorINS_10R32G32B32SEiEEvPKhPh = comdat any

$_ZN5angle10WriteColorINS_10R32G32B32SEiEEvPKhPh = comdat any

$_ZN5angle9ReadColorINS_10R32G32B32SEfEEvPKhPh = comdat any

$_ZN5angle10WriteColorINS_10R32G32B32SEfEEvPKhPh = comdat any

$_ZN5angle11GenerateMipINS_9R32G32B32EEEvmmmPKhmmPhmm = comdat any

$_ZN5angle9ReadColorINS_9R32G32B32EjEEvPKhPh = comdat any

$_ZN5angle10WriteColorINS_9R32G32B32EjEEvPKhPh = comdat any

$_ZN5angle9ReadColorINS_9R32G32B32EfEEvPKhPh = comdat any

$_ZN5angle10WriteColorINS_9R32G32B32EfEEvPKhPh = comdat any

$_ZN5angle11GenerateMipINS_7R32G32FEEEvmmmPKhmmPhmm = comdat any

$_ZN5angle9ReadColorINS_7R32G32FEfEEvPKhPh = comdat any

$_ZN5angle10WriteColorINS_7R32G32FEfEEvPKhPh = comdat any

$_ZN5angle11GenerateMipINS_7R32G32SEEEvmmmPKhmmPhmm = comdat any

$_ZN5angle9ReadColorINS_7R32G32SEiEEvPKhPh = comdat any

$_ZN5angle10WriteColorINS_7R32G32SEiEEvPKhPh = comdat any

$_ZN5angle9ReadColorINS_7R32G32SEfEEvPKhPh = comdat any

$_ZN5angle10WriteColorINS_7R32G32SEfEEvPKhPh = comdat any

$_ZN5angle11GenerateMipINS_6R32G32EEEvmmmPKhmmPhmm = comdat any

$_ZN5angle9ReadColorINS_6R32G32EjEEvPKhPh = comdat any

$_ZN5angle10WriteColorINS_6R32G32EjEEvPKhPh = comdat any

$_ZN5angle9ReadColorINS_6R32G32EfEEvPKhPh = comdat any

$_ZN5angle10WriteColorINS_6R32G32EfEEvPKhPh = comdat any

$_ZN5angle11GenerateMipINS_4R32FEEEvmmmPKhmmPhmm = comdat any

$_ZN5angle9ReadColorINS_4R32FEfEEvPKhPh = comdat any

$_ZN5angle10WriteColorINS_4R32FEfEEvPKhPh = comdat any

$_ZN5angle11GenerateMipINS_4R32SEEEvmmmPKhmmPhmm = comdat any

$_ZN5angle9ReadColorINS_4R32SEiEEvPKhPh = comdat any

$_ZN5angle10WriteColorINS_4R32SEiEEvPKhPh = comdat any

$_ZN5angle9ReadColorINS_4R32SEfEEvPKhPh = comdat any

$_ZN5angle10WriteColorINS_4R32SEfEEvPKhPh = comdat any

$_ZN5angle11GenerateMipINS_3R32EEEvmmmPKhmmPhmm = comdat any

$_ZN5angle9ReadColorINS_3R32EjEEvPKhPh = comdat any

$_ZN5angle10WriteColorINS_3R32EjEEvPKhPh = comdat any

$_ZN5angle9ReadColorINS_3R32EfEEvPKhPh = comdat any

$_ZN5angle10WriteColorINS_3R32EfEEvPKhPh = comdat any

$_ZN5angle11GenerateMipINS_8R4G4B4A4EEEvmmmPKhmmPhmm = comdat any

$_ZN5angle9ReadColorINS_8R4G4B4A4EfEEvPKhPh = comdat any

$_ZN5angle10WriteColorINS_8R4G4B4A4EfEEvPKhPh = comdat any

$_ZN5angle11GenerateMipINS_8R5G5B5A1EEEvmmmPKhmmPhmm = comdat any

$_ZN5angle9ReadColorINS_8R5G5B5A1EfEEvPKhPh = comdat any

$_ZN5angle10WriteColorINS_8R5G5B5A1EfEEvPKhPh = comdat any

$_ZN5angle11GenerateMipINS_6R5G6B5EEEvmmmPKhmmPhmm = comdat any

$_ZN5angle9ReadColorINS_6R5G6B5EfEEvPKhPh = comdat any

$_ZN5angle10WriteColorINS_6R5G6B5EfEEvPKhPh = comdat any

$_ZN5angle11GenerateMipINS_9R8G8B8A8SEEEvmmmPKhmmPhmm = comdat any

$_ZN5angle9ReadColorINS_9R8G8B8A8SEiEEvPKhPh = comdat any

$_ZN5angle10WriteColorINS_9R8G8B8A8SEiEEvPKhPh = comdat any

$_ZN5angle9ReadColorINS_9R8G8B8A8SEfEEvPKhPh = comdat any

$_ZN5angle10WriteColorINS_9R8G8B8A8SEfEEvPKhPh = comdat any

$_ZN5angle11GenerateMipINS_8R8G8B8A8EEEvmmmPKhmmPhmm = comdat any

$_ZN5angle9ReadColorINS_8R8G8B8A8EfEEvPKhPh = comdat any

$_ZN5angle10WriteColorINS_8R8G8B8A8EfEEvPKhPh = comdat any

$_ZN5angle9ReadColorINS_8R8G8B8A8EjEEvPKhPh = comdat any

$_ZN5angle10WriteColorINS_8R8G8B8A8EjEEvPKhPh = comdat any

$_ZN5angle11GenerateMipINS_12R8G8B8A8SRGBEEEvmmmPKhmmPhmm = comdat any

$_ZN5angle9ReadColorINS_12R8G8B8A8SRGBEfEEvPKhPh = comdat any

$_ZN5angle10WriteColorINS_12R8G8B8A8SRGBEfEEvPKhPh = comdat any

$_ZN5angle11GenerateMipINS_7R8G8B8SEEEvmmmPKhmmPhmm = comdat any

$_ZN5angle9ReadColorINS_7R8G8B8SEiEEvPKhPh = comdat any

$_ZN5angle10WriteColorINS_7R8G8B8SEiEEvPKhPh = comdat any

$_ZN5angle9ReadColorINS_7R8G8B8SEfEEvPKhPh = comdat any

$_ZN5angle10WriteColorINS_7R8G8B8SEfEEvPKhPh = comdat any

$_ZN5angle9ReadColorINS_6R8G8B8EjEEvPKhPh = comdat any

$_ZN5angle10WriteColorINS_6R8G8B8EjEEvPKhPh = comdat any

$_ZN5angle11GenerateMipINS_5R8G8SEEEvmmmPKhmmPhmm = comdat any

$_ZN5angle9ReadColorINS_5R8G8SEiEEvPKhPh = comdat any

$_ZN5angle10WriteColorINS_5R8G8SEiEEvPKhPh = comdat any

$_ZN5angle9ReadColorINS_5R8G8SEfEEvPKhPh = comdat any

$_ZN5angle10WriteColorINS_5R8G8SEfEEvPKhPh = comdat any

$_ZN5angle11GenerateMipINS_4R8G8EEEvmmmPKhmmPhmm = comdat any

$_ZN5angle9ReadColorINS_4R8G8EjEEvPKhPh = comdat any

$_ZN5angle10WriteColorINS_4R8G8EjEEvPKhPh = comdat any

$_ZN5angle9ReadColorINS_4R8G8EfEEvPKhPh = comdat any

$_ZN5angle10WriteColorINS_4R8G8EfEEvPKhPh = comdat any

$_ZN5angle11GenerateMipINS_3R8SEEEvmmmPKhmmPhmm = comdat any

$_ZN5angle9ReadColorINS_3R8SEiEEvPKhPh = comdat any

$_ZN5angle10WriteColorINS_3R8SEiEEvPKhPh = comdat any

$_ZN5angle9ReadColorINS_3R8SEfEEvPKhPh = comdat any

$_ZN5angle10WriteColorINS_3R8SEfEEvPKhPh = comdat any

$_ZN5angle11GenerateMipINS_2R8EEEvmmmPKhmmPhmm = comdat any

$_ZN5angle9ReadColorINS_2R8EjEEvPKhPh = comdat any

$_ZN5angle10WriteColorINS_2R8EjEEvPKhPh = comdat any

$_ZN5angle9ReadColorINS_2R8EfEEvPKhPh = comdat any

$_ZN5angle10WriteColorINS_2R8EfEEvPKhPh = comdat any

$_ZN5angle11GenerateMipINS_8R9G9B9E5EEEvmmmPKhmmPhmm = comdat any

$_ZN5angle9ReadColorINS_8R9G9B9E5EfEEvPKhPh = comdat any

$_ZN5angle10WriteColorINS_8R9G9B9E5EfEEvPKhPh = comdat any

@_ZN5angleL15NoCopyFunctionsE = internal constant %"class.rx::FastCopyFunctionMap" zeroinitializer, align 8
@_ZN5angleL17BGRACopyFunctionsE = internal constant %"class.rx::FastCopyFunctionMap" { i64 1, %"struct.rx::FastCopyFunctionMap::Entry"* @_ZN5angleL9BGRAEntryE }, align 8
@_ZN5angle16gFormatInfoTableE = hidden constant [227 x %"struct.angle::Format"] [%"struct.angle::Format" { i32 0, i32 0, i32 0, void (i64, i64, i64, i8*, i64, i64, i8*, i64, i64)* null, void (i8*, i8*)* null, void (i8*, i8*)* null, %"class.rx::FastCopyFunctionMap"* @_ZN5angleL15NoCopyFunctionsE, i32 0, i32 0, i32 0, i32 0, i32 0, i32 0, i32 0, i32 0, i32 0, i32 0, i32 0, i8 0, i8 0, i8 0, i8 0, i8 0, i32 18 }, %"struct.angle::Format" { i32 1, i32 33189, i32 33189, void (i64, i64, i64, i8*, i64, i64, i8*, i64, i64)* null, void (i8*, i8*)* @_ZN5angle16ReadDepthStencilINS_3D16EEEvPKhPh, void (i8*, i8*)* @_ZN5angle17WriteDepthStencilINS_3D16EEEvPKhPh, %"class.rx::FastCopyFunctionMap"* @_ZN5angleL15NoCopyFunctionsE, i32 35863, i32 0, i32 0, i32 0, i32 0, i32 0, i32 16, i32 0, i32 2, i32 -1, i32 1, i8 0, i8 0, i8 0, i8 0, i8 0, i32 18 }, %"struct.angle::Format" { i32 2, i32 35056, i32 35056, void (i64, i64, i64, i8*, i64, i64, i8*, i64, i64)* null, void (i8*, i8*)* @_ZN5angle16ReadDepthStencilINS_5D24S8EEEvPKhPh, void (i8*, i8*)* @_ZN5angle17WriteDepthStencilINS_5D24S8EEEvPKhPh, %"class.rx::FastCopyFunctionMap"* @_ZN5angleL15NoCopyFunctionsE, i32 35863, i32 0, i32 0, i32 0, i32 0, i32 0, i32 24, i32 8, i32 4, i32 -1, i32 2, i8 0, i8 0, i8 0, i8 0, i8 0, i32 18 }, %"struct.angle::Format" { i32 3, i32 33190, i32 33190, void (i64, i64, i64, i8*, i64, i64, i8*, i64, i64)* null, void (i8*, i8*)* @_ZN5angle16ReadDepthStencilINS_5D24X8EEEvPKhPh, void (i8*, i8*)* @_ZN5angle17WriteDepthStencilINS_5D24X8EEEvPKhPh, %"class.rx::FastCopyFunctionMap"* @_ZN5angleL15NoCopyFunctionsE, i32 35863, i32 0, i32 0, i32 0, i32 0, i32 0, i32 24, i32 0, i32 4, i32 -1, i32 1, i8 0, i8 0, i8 0, i8 0, i8 0, i32 18 }, %"struct.angle::Format" { i32 4, i32 36012, i32 36012, void (i64, i64, i64, i8*, i64, i64, i8*, i64, i64)* null, void (i8*, i8*)* @_ZN5angle16ReadDepthStencilINS_4D32FEEEvPKhPh, void (i8*, i8*)* @_ZN5angle17WriteDepthStencilINS_4D32FEEEvPKhPh, %"class.rx::FastCopyFunctionMap"* @_ZN5angleL15NoCopyFunctionsE, i32 5126, i32 0, i32 0, i32 0, i32 0, i32 0, i32 32, i32 0, i32 4, i32 -1, i32 1, i8 0, i8 0, i8 0, i8 0, i8 0, i32 6 }, %"struct.angle::Format" { i32 5, i32 36013, i32 36013, void (i64, i64, i64, i8*, i64, i64, i8*, i64, i64)* null, void (i8*, i8*)* @_ZN5angle16ReadDepthStencilINS_9D32FS8X24EEEvPKhPh, void (i8*, i8*)* @_ZN5angle17WriteDepthStencilINS_9D32FS8X24EEEvPKhPh, %"class.rx::FastCopyFunctionMap"* @_ZN5angleL15NoCopyFunctionsE, i32 5126, i32 0, i32 0, i32 0, i32 0, i32 0, i32 32, i32 8, i32 8, i32 -1, i32 2, i8 0, i8 0, i8 0, i8 0, i8 0, i32 6 }, %"struct.angle::Format" { i32 6, i32 33191, i32 33191, void (i64, i64, i64, i8*, i64, i64, i8*, i64, i64)* null, void (i8*, i8*)* @_ZN5angle16ReadDepthStencilINS_3D32EEEvPKhPh, void (i8*, i8*)* @_ZN5angle17WriteDepthStencilINS_3D32EEEvPKhPh, %"class.rx::FastCopyFunctionMap"* @_ZN5angleL15NoCopyFunctionsE, i32 35863, i32 0, i32 0, i32 0, i32 0, i32 0, i32 32, i32 0, i32 4, i32 -1, i32 1, i8 0, i8 0, i8 0, i8 0, i8 0, i32 18 }, %"struct.angle::Format" { i32 7, i32 36168, i32 36168, void (i64, i64, i64, i8*, i64, i64, i8*, i64, i64)* null, void (i8*, i8*)* @_ZN5angle16ReadDepthStencilINS_2S8EEEvPKhPh, void (i8*, i8*)* @_ZN5angle17WriteDepthStencilINS_2S8EEEvPKhPh, %"class.rx::FastCopyFunctionMap"* @_ZN5angleL15NoCopyFunctionsE, i32 5125, i32 0, i32 0, i32 0, i32 0, i32 0, i32 0, i32 8, i32 1, i32 -1, i32 1, i8 0, i8 0, i8 0, i8 0, i8 0, i32 18 }, %"struct.angle::Format" { i32 8, i32 34844, i32 34844, void (i64, i64, i64, i8*, i64, i64, i8*, i64, i64)* @_ZN5angle11GenerateMipINS_4A16FEEEvmmmPKhmmPhmm, void (i8*, i8*)* @_ZN5angle9ReadColorINS_4A16FEfEEvPKhPh, void (i8*, i8*)* @_ZN5angle10WriteColorINS_4A16FEfEEvPKhPh, %"class.rx::FastCopyFunctionMap"* @_ZN5angleL15NoCopyFunctionsE, i32 5126, i32 0, i32 0, i32 0, i32 16, i32 0, i32 0, i32 0, i32 2, i32 1, i32 1, i8 0, i8 0, i8 0, i8 0, i8 0, i32 6 }, %"struct.angle::Format" { i32 9, i32 27333, i32 27333, void (i64, i64, i64, i8*, i64, i64, i8*, i64, i64)* @_ZN5angle11GenerateMipINS_8A1R5G5B5EEEvmmmPKhmmPhmm, void (i8*, i8*)* @_ZN5angle9ReadColorINS_8A1R5G5B5EfEEvPKhPh, void (i8*, i8*)* @_ZN5angle10WriteColorINS_8A1R5G5B5EfEEvPKhPh, %"class.rx::FastCopyFunctionMap"* @_ZN5angleL15NoCopyFunctionsE, i32 35863, i32 5, i32 5, i32 5, i32 1, i32 0, i32 0, i32 0, i32 2, i32 -1, i32 4, i8 0, i8 0, i8 0, i8 0, i8 0, i32 18 }, %"struct.angle::Format" { i32 10, i32 36343, i32 36343, void (i64, i64, i64, i8*, i64, i64, i8*, i64, i64)* null, void (i8*, i8*)* null, void (i8*, i8*)* null, %"class.rx::FastCopyFunctionMap"* @_ZN5angleL15NoCopyFunctionsE, i32 5124, i32 10, i32 10, i32 10, i32 2, i32 0, i32 0, i32 0, i32 4, i32 -1, i32 4, i8 0, i8 0, i8 0, i8 0, i8 0, i32 17 }, %"struct.angle::Format" { i32 11, i32 27376, i32 27376, void (i64, i64, i64, i8*, i64, i64, i8*, i64, i64)* null, void (i8*, i8*)* null, void (i8*, i8*)* null, %"class.rx::FastCopyFunctionMap"* @_ZN5angleL15NoCopyFunctionsE, i32 36764, i32 10, i32 10, i32 10, i32 2, i32 0, i32 0, i32 0, i32 4, i32 -1, i32 4, i8 0, i8 0, i8 0, i8 0, i8 0, i32 17 }, %"struct.angle::Format" { i32 12, i32 27378, i32 27378, void (i64, i64, i64, i8*, i64, i64, i8*, i64, i64)* null, void (i8*, i8*)* null, void (i8*, i8*)* null, %"class.rx::FastCopyFunctionMap"* @_ZN5angleL15NoCopyFunctionsE, i32 5124, i32 10, i32 10, i32 10, i32 2, i32 0, i32 0, i32 0, i32 4, i32 -1, i32 4, i8 0, i8 0, i8 1, i8 0, i8 0, i32 17 }, %"struct.angle::Format" { i32 13, i32 36342, i32 36342, void (i64, i64, i64, i8*, i64, i64, i8*, i64, i64)* null, void (i8*, i8*)* null, void (i8*, i8*)* null, %"class.rx::FastCopyFunctionMap"* @_ZN5angleL15NoCopyFunctionsE, i32 5125, i32 10, i32 10, i32 10, i32 2, i32 0, i32 0, i32 0, i32 4, i32 -1, i32 4, i8 0, i8 0, i8 0, i8 0, i8 0, i32 16 }, %"struct.angle::Format" { i32 14, i32 27375, i32 27375, void (i64, i64, i64, i8*, i64, i64, i8*, i64, i64)* null, void (i8*, i8*)* null, void (i8*, i8*)* null, %"class.rx::FastCopyFunctionMap"* @_ZN5angleL15NoCopyFunctionsE, i32 35863, i32 10, i32 10, i32 10, i32 2, i32 0, i32 0, i32 0, i32 4, i32 -1, i32 4, i8 0, i8 0, i8 0, i8 0, i8 0, i32 16 }, %"struct.angle::Format" { i32 15, i32 27377, i32 27377, void (i64, i64, i64, i8*, i64, i64, i8*, i64, i64)* null, void (i8*, i8*)* null, void (i8*, i8*)* null, %"class.rx::FastCopyFunctionMap"* @_ZN5angleL15NoCopyFunctionsE, i32 5125, i32 10, i32 10, i32 10, i32 2, i32 0, i32 0, i32 0, i32 4, i32 -1, i32 4, i8 0, i8 0, i8 1, i8 0, i8 0, i32 16 }, %"struct.angle::Format" { i32 16, i32 34838, i32 34838, void (i64, i64, i64, i8*, i64, i64, i8*, i64, i64)* @_ZN5angle11GenerateMipINS_4A32FEEEvmmmPKhmmPhmm, void (i8*, i8*)* @_ZN5angle9ReadColorINS_4A32FEfEEvPKhPh, void (i8*, i8*)* @_ZN5angle10WriteColorINS_4A32FEfEEvPKhPh, %"class.rx::FastCopyFunctionMap"* @_ZN5angleL15NoCopyFunctionsE, i32 5126, i32 0, i32 0, i32 0, i32 32, i32 0, i32 0, i32 0, i32 4, i32 3, i32 1, i8 0, i8 0, i8 0, i8 0, i8 0, i32 6 }, %"struct.angle::Format" { i32 17, i32 32828, i32 32828, void (i64, i64, i64, i8*, i64, i64, i8*, i64, i64)* @_ZN5angle11GenerateMipINS_2A8EEEvmmmPKhmmPhmm, void (i8*, i8*)* @_ZN5angle9ReadColorINS_2A8EfEEvPKhPh, void (i8*, i8*)* @_ZN5angle10WriteColorINS_2A8EfEEvPKhPh, %"class.rx::FastCopyFunctionMap"* @_ZN5angleL15NoCopyFunctionsE, i32 35863, i32 0, i32 0, i32 0, i32 8, i32 0, i32 0, i32 0, i32 1, i32 0, i32 1, i8 0, i8 0, i8 0, i8 0, i8 0, i32 18 }, %"struct.angle::Format" { i32 18, i32 37851, i32 37851, void (i64, i64, i64, i8*, i64, i64, i8*, i64, i64)* null, void (i8*, i8*)* null, void (i8*, i8*)* null, %"class.rx::FastCopyFunctionMap"* @_ZN5angleL15NoCopyFunctionsE, i32 35863, i32 0, i32 0, i32 0, i32 0, i32 0, i32 0, i32 0, i32 16, i32 -1, i32 0, i8 1, i8 0, i8 0, i8 1, i8 0, i32 18 }, %"struct.angle::Format" { i32 19, i32 37819, i32 37819, void (i64, i64, i64, i8*, i64, i64, i8*, i64, i64)* null, void (i8*, i8*)* null, void (i8*, i8*)* null, %"class.rx::FastCopyFunctionMap"* @_ZN5angleL15NoCopyFunctionsE, i32 35863, i32 0, i32 0, i32 0, i32 0, i32 0, i32 0, i32 0, i32 16, i32 -1, i32 0, i8 1, i8 0, i8 0, i8 0, i8 0, i32 18 }, %"struct.angle::Format" { i32 20, i32 37848, i32 37848, void (i64, i64, i64, i8*, i64, i64, i8*, i64, i64)* null, void (i8*, i8*)* null, void (i8*, i8*)* null, %"class.rx::FastCopyFunctionMap"* @_ZN5angleL15NoCopyFunctionsE, i32 35863, i32 0, i32 0, i32 0, i32 0, i32 0, i32 0, i32 0, i32 16, i32 -1, i32 0, i8 1, i8 0, i8 0, i8 1, i8 0, i32 18 }, %"struct.angle::Format" { i32 21, i32 37816, i32 37816, void (i64, i64, i64, i8*, i64, i64, i8*, i64, i64)* null, void (i8*, i8*)* null, void (i8*, i8*)* null, %"class.rx::FastCopyFunctionMap"* @_ZN5angleL15NoCopyFunctionsE, i32 35863, i32 0, i32 0, i32 0, i32 0, i32 0, i32 0, i32 0, i32 16, i32 -1, i32 0, i8 1, i8 0, i8 0, i8 0, i8 0, i32 18 }, %"struct.angle::Format" { i32 22, i32 37849, i32 37849, void (i64, i64, i64, i8*, i64, i64, i8*, i64, i64)* null, void (i8*, i8*)* null, void (i8*, i8*)* null, %"class.rx::FastCopyFunctionMap"* @_ZN5angleL15NoCopyFunctionsE, i32 35863, i32 0, i32 0, i32 0, i32 0, i32 0, i32 0, i32 0, i32 16, i32 -1, i32 0, i8 1, i8 0, i8 0, i8 1, i8 0, i32 18 }, %"struct.angle::Format" { i32 23, i32 37817, i32 37817, void (i64, i64, i64, i8*, i64, i64, i8*, i64, i64)* null, void (i8*, i8*)* null, void (i8*, i8*)* null, %"class.rx::FastCopyFunctionMap"* @_ZN5angleL15NoCopyFunctionsE, i32 35863, i32 0, i32 0, i32 0, i32 0, i32 0, i32 0, i32 0, i32 16, i32 -1, i32 0, i8 1, i8 0, i8 0, i8 0, i8 0, i32 18 }, %"struct.angle::Format" { i32 24, i32 37850, i32 37850, void (i64, i64, i64, i8*, i64, i64, i8*, i64, i64)* null, void (i8*, i8*)* null, void (i8*, i8*)* null, %"class.rx::FastCopyFunctionMap"* @_ZN5angleL15NoCopyFunctionsE, i32 35863, i32 0, i32 0, i32 0, i32 0, i32 0, i32 0, i32 0, i32 16, i32 -1, i32 0, i8 1, i8 0, i8 0, i8 1, i8 0, i32 18 }, %"struct.angle::Format" { i32 25, i32 37818, i32 37818, void (i64, i64, i64, i8*, i64, i64, i8*, i64, i64)* null, void (i8*, i8*)* null, void (i8*, i8*)* null, %"class.rx::FastCopyFunctionMap"* @_ZN5angleL15NoCopyFunctionsE, i32 35863, i32 0, i32 0, i32 0, i32 0, i32 0, i32 0, i32 0, i32 16, i32 -1, i32 0, i8 1, i8 0, i8 0, i8 0, i8 0, i32 18 }, %"struct.angle::Format" { i32 26, i32 37852, i32 37852, void (i64, i64, i64, i8*, i64, i64, i8*, i64, i64)* null, void (i8*, i8*)* null, void (i8*, i8*)* null, %"class.rx::FastCopyFunctionMap"* @_ZN5angleL15NoCopyFunctionsE, i32 35863, i32 0, i32 0, i32 0, i32 0, i32 0, i32 0, i32 0, i32 16, i32 -1, i32 0, i8 1, i8 0, i8 0, i8 1, i8 0, i32 18 }, %"struct.angle::Format" { i32 27, i32 37820, i32 37820, void (i64, i64, i64, i8*, i64, i64, i8*, i64, i64)* null, void (i8*, i8*)* null, void (i8*, i8*)* null, %"class.rx::FastCopyFunctionMap"* @_ZN5angleL15NoCopyFunctionsE, i32 35863, i32 0, i32 0, i32 0, i32 0, i32 0, i32 0, i32 0, i32 16, i32 -1, i32 0, i8 1, i8 0, i8 0, i8 0, i8 0, i32 18 }, %"struct.angle::Format" { i32 28, i32 37853, i32 37853, void (i64, i64, i64, i8*, i64, i64, i8*, i64, i64)* null, void (i8*, i8*)* null, void (i8*, i8*)* null, %"class.rx::FastCopyFunctionMap"* @_ZN5angleL15NoCopyFunctionsE, i32 35863, i32 0, i32 0, i32 0, i32 0, i32 0, i32 0, i32 0, i32 16, i32 -1, i32 0, i8 1, i8 0, i8 0, i8 1, i8 0, i32 18 }, %"struct.angle::Format" { i32 29, i32 37821, i32 37821, void (i64, i64, i64, i8*, i64, i64, i8*, i64, i64)* null, void (i8*, i8*)* null, void (i8*, i8*)* null, %"class.rx::FastCopyFunctionMap"* @_ZN5angleL15NoCopyFunctionsE, i32 35863, i32 0, i32 0, i32 0, i32 0, i32 0, i32 0, i32 0, i32 16, i32 -1, i32 0, i8 1, i8 0, i8 0, i8 0, i8 0, i32 18 }, %"struct.angle::Format" { i32 30, i32 37824, i32 37824, void (i64, i64, i64, i8*, i64, i64, i8*, i64, i64)* null, void (i8*, i8*)* null, void (i8*, i8*)* null, %"class.rx::FastCopyFunctionMap"* @_ZN5angleL15NoCopyFunctionsE, i32 35863, i32 0, i32 0, i32 0, i32 0, i32 0, i32 0, i32 0, i32 16, i32 -1, i32 0, i8 1, i8 0, i8 0, i8 0, i8 0, i32 18 }, %"struct.angle::Format" { i32 31, i32 37856, i32 37856, void (i64, i64, i64, i8*, i64, i64, i8*, i64, i64)* null, void (i8*, i8*)* null, void (i8*, i8*)* null, %"class.rx::FastCopyFunctionMap"* @_ZN5angleL15NoCopyFunctionsE, i32 35863, i32 0, i32 0, i32 0, i32 0, i32 0, i32 0, i32 0, i32 16, i32 -1, i32 0, i8 1, i8 0, i8 0, i8 1, i8 0, i32 18 }, %"struct.angle::Format" { i32 32, i32 37825, i32 37825, void (i64, i64, i64, i8*, i64, i64, i8*, i64, i64)* null, void (i8*, i8*)* null, void (i8*, i8*)* null, %"class.rx::FastCopyFunctionMap"* @_ZN5angleL15NoCopyFunctionsE, i32 35863, i32 0, i32 0, i32 0, i32 0, i32 0, i32 0, i32 0, i32 16, i32 -1, i32 0, i8 1, i8 0, i8 0, i8 0, i8 0, i32 18 }, %"struct.angle::Format" { i32 33, i32 37857, i32 37857, void (i64, i64, i64, i8*, i64, i64, i8*, i64, i64)* null, void (i8*, i8*)* null, void (i8*, i8*)* null, %"class.rx::FastCopyFunctionMap"* @_ZN5angleL15NoCopyFunctionsE, i32 35863, i32 0, i32 0, i32 0, i32 0, i32 0, i32 0, i32 0, i32 16, i32 -1, i32 0, i8 1, i8 0, i8 0, i8 1, i8 0, i32 18 }, %"struct.angle::Format" { i32 34, i32 37840, i32 37840, void (i64, i64, i64, i8*, i64, i64, i8*, i64, i64)* null, void (i8*, i8*)* null, void (i8*, i8*)* null, %"class.rx::FastCopyFunctionMap"* @_ZN5angleL15NoCopyFunctionsE, i32 35863, i32 0, i32 0, i32 0, i32 0, i32 0, i32 0, i32 0, i32 16, i32 -1, i32 0, i8 1, i8 0, i8 0, i8 1, i8 0, i32 18 }, %"struct.angle::Format" { i32 35, i32 37808, i32 37808, void (i64, i64, i64, i8*, i64, i64, i8*, i64, i64)* null, void (i8*, i8*)* null, void (i8*, i8*)* null, %"class.rx::FastCopyFunctionMap"* @_ZN5angleL15NoCopyFunctionsE, i32 35863, i32 0, i32 0, i32 0, i32 0, i32 0, i32 0, i32 0, i32 16, i32 -1, i32 0, i8 1, i8 0, i8 0, i8 0, i8 0, i32 18 }, %"struct.angle::Format" { i32 36, i32 37826, i32 37826, void (i64, i64, i64, i8*, i64, i64, i8*, i64, i64)* null, void (i8*, i8*)* null, void (i8*, i8*)* null, %"class.rx::FastCopyFunctionMap"* @_ZN5angleL15NoCopyFunctionsE, i32 35863, i32 0, i32 0, i32 0, i32 0, i32 0, i32 0, i32 0, i32 16, i32 -1, i32 0, i8 1, i8 0, i8 0, i8 0, i8 0, i32 18 }, %"struct.angle::Format" { i32 37, i32 37858, i32 37858, void (i64, i64, i64, i8*, i64, i64, i8*, i64, i64)* null, void (i8*, i8*)* null, void (i8*, i8*)* null, %"class.rx::FastCopyFunctionMap"* @_ZN5angleL15NoCopyFunctionsE, i32 35863, i32 0, i32 0, i32 0, i32 0, i32 0, i32 0, i32 0, i32 16, i32 -1, i32 0, i8 1, i8 0, i8 0, i8 1, i8 0, i32 18 }, %"struct.angle::Format" { i32 38, i32 37827, i32 37827, void (i64, i64, i64, i8*, i64, i64, i8*, i64, i64)* null, void (i8*, i8*)* null, void (i8*, i8*)* null, %"class.rx::FastCopyFunctionMap"* @_ZN5angleL15NoCopyFunctionsE, i32 35863, i32 0, i32 0, i32 0, i32 0, i32 0, i32 0, i32 0, i32 16, i32 -1, i32 0, i8 1, i8 0, i8 0, i8 0, i8 0, i32 18 }, %"struct.angle::Format" { i32 39, i32 37859, i32 37859, void (i64, i64, i64, i8*, i64, i64, i8*, i64, i64)* null, void (i8*, i8*)* null, void (i8*, i8*)* null, %"class.rx::FastCopyFunctionMap"* @_ZN5angleL15NoCopyFunctionsE, i32 35863, i32 0, i32 0, i32 0, i32 0, i32 0, i32 0, i32 0, i32 16, i32 -1, i32 0, i8 1, i8 0, i8 0, i8 1, i8 0, i32 18 }, %"struct.angle::Format" { i32 40, i32 37841, i32 37841, void (i64, i64, i64, i8*, i64, i64, i8*, i64, i64)* null, void (i8*, i8*)* null, void (i8*, i8*)* null, %"class.rx::FastCopyFunctionMap"* @_ZN5angleL15NoCopyFunctionsE, i32 35863, i32 0, i32 0, i32 0, i32 0, i32 0, i32 0, i32 0, i32 16, i32 -1, i32 0, i8 1, i8 0, i8 0, i8 1, i8 0, i32 18 }, %"struct.angle::Format" { i32 41, i32 37809, i32 37809, void (i64, i64, i64, i8*, i64, i64, i8*, i64, i64)* null, void (i8*, i8*)* null, void (i8*, i8*)* null, %"class.rx::FastCopyFunctionMap"* @_ZN5angleL15NoCopyFunctionsE, i32 35863, i32 0, i32 0, i32 0, i32 0, i32 0, i32 0, i32 0, i32 16, i32 -1, i32 0, i8 1, i8 0, i8 0, i8 0, i8 0, i32 18 }, %"struct.angle::Format" { i32 42, i32 37828, i32 37828, void (i64, i64, i64, i8*, i64, i64, i8*, i64, i64)* null, void (i8*, i8*)* null, void (i8*, i8*)* null, %"class.rx::FastCopyFunctionMap"* @_ZN5angleL15NoCopyFunctionsE, i32 35863, i32 0, i32 0, i32 0, i32 0, i32 0, i32 0, i32 0, i32 16, i32 -1, i32 0, i8 1, i8 0, i8 0, i8 0, i8 0, i32 18 }, %"struct.angle::Format" { i32 43, i32 37860, i32 37860, void (i64, i64, i64, i8*, i64, i64, i8*, i64, i64)* null, void (i8*, i8*)* null, void (i8*, i8*)* null, %"class.rx::FastCopyFunctionMap"* @_ZN5angleL15NoCopyFunctionsE, i32 35863, i32 0, i32 0, i32 0, i32 0, i32 0, i32 0, i32 0, i32 16, i32 -1, i32 0, i8 1, i8 0, i8 0, i8 1, i8 0, i32 18 }, %"struct.angle::Format" { i32 44, i32 37842, i32 37842, void (i64, i64, i64, i8*, i64, i64, i8*, i64, i64)* null, void (i8*, i8*)* null, void (i8*, i8*)* null, %"class.rx::FastCopyFunctionMap"* @_ZN5angleL15NoCopyFunctionsE, i32 35863, i32 0, i32 0, i32 0, i32 0, i32 0, i32 0, i32 0, i32 16, i32 -1, i32 0, i8 1, i8 0, i8 0, i8 1, i8 0, i32 18 }, %"struct.angle::Format" { i32 45, i32 37810, i32 37810, void (i64, i64, i64, i8*, i64, i64, i8*, i64, i64)* null, void (i8*, i8*)* null, void (i8*, i8*)* null, %"class.rx::FastCopyFunctionMap"* @_ZN5angleL15NoCopyFunctionsE, i32 35863, i32 0, i32 0, i32 0, i32 0, i32 0, i32 0, i32 0, i32 16, i32 -1, i32 0, i8 1, i8 0, i8 0, i8 0, i8 0, i32 18 }, %"struct.angle::Format" { i32 46, i32 37829, i32 37829, void (i64, i64, i64, i8*, i64, i64, i8*, i64, i64)* null, void (i8*, i8*)* null, void (i8*, i8*)* null, %"class.rx::FastCopyFunctionMap"* @_ZN5angleL15NoCopyFunctionsE, i32 35863, i32 0, i32 0, i32 0, i32 0, i32 0, i32 0, i32 0, i32 16, i32 -1, i32 0, i8 1, i8 0, i8 0, i8 0, i8 0, i32 18 }, %"struct.angle::Format" { i32 47, i32 37861, i32 37861, void (i64, i64, i64, i8*, i64, i64, i8*, i64, i64)* null, void (i8*, i8*)* null, void (i8*, i8*)* null, %"class.rx::FastCopyFunctionMap"* @_ZN5angleL15NoCopyFunctionsE, i32 35863, i32 0, i32 0, i32 0, i32 0, i32 0, i32 0, i32 0, i32 16, i32 -1, i32 0, i8 1, i8 0, i8 0, i8 1, i8 0, i32 18 }, %"struct.angle::Format" { i32 48, i32 37830, i32 37830, void (i64, i64, i64, i8*, i64, i64, i8*, i64, i64)* null, void (i8*, i8*)* null, void (i8*, i8*)* null, %"class.rx::FastCopyFunctionMap"* @_ZN5angleL15NoCopyFunctionsE, i32 35863, i32 0, i32 0, i32 0, i32 0, i32 0, i32 0, i32 0, i32 16, i32 -1, i32 0, i8 1, i8 0, i8 0, i8 0, i8 0, i32 18 }, %"struct.angle::Format" { i32 49, i32 37862, i32 37862, void (i64, i64, i64, i8*, i64, i64, i8*, i64, i64)* null, void (i8*, i8*)* null, void (i8*, i8*)* null, %"class.rx::FastCopyFunctionMap"* @_ZN5angleL15NoCopyFunctionsE, i32 35863, i32 0, i32 0, i32 0, i32 0, i32 0, i32 0, i32 0, i32 16, i32 -1, i32 0, i8 1, i8 0, i8 0, i8 1, i8 0, i32 18 }, %"struct.angle::Format" { i32 50, i32 37843, i32 37843, void (i64, i64, i64, i8*, i64, i64, i8*, i64, i64)* null, void (i8*, i8*)* null, void (i8*, i8*)* null, %"class.rx::FastCopyFunctionMap"* @_ZN5angleL15NoCopyFunctionsE, i32 35863, i32 0, i32 0, i32 0, i32 0, i32 0, i32 0, i32 0, i32 16, i32 -1, i32 0, i8 1, i8 0, i8 0, i8 1, i8 0, i32 18 }, %"struct.angle::Format" { i32 51, i32 37811, i32 37811, void (i64, i64, i64, i8*, i64, i64, i8*, i64, i64)* null, void (i8*, i8*)* null, void (i8*, i8*)* null, %"class.rx::FastCopyFunctionMap"* @_ZN5angleL15NoCopyFunctionsE, i32 35863, i32 0, i32 0, i32 0, i32 0, i32 0, i32 0, i32 0, i32 16, i32 -1, i32 0, i8 1, i8 0, i8 0, i8 0, i8 0, i32 18 }, %"struct.angle::Format" { i32 52, i32 37831, i32 37831, void (i64, i64, i64, i8*, i64, i64, i8*, i64, i64)* null, void (i8*, i8*)* null, void (i8*, i8*)* null, %"class.rx::FastCopyFunctionMap"* @_ZN5angleL15NoCopyFunctionsE, i32 35863, i32 0, i32 0, i32 0, i32 0, i32 0, i32 0, i32 0, i32 16, i32 -1, i32 0, i8 1, i8 0, i8 0, i8 0, i8 0, i32 18 }, %"struct.angle::Format" { i32 53, i32 37863, i32 37863, void (i64, i64, i64, i8*, i64, i64, i8*, i64, i64)* null, void (i8*, i8*)* null, void (i8*, i8*)* null, %"class.rx::FastCopyFunctionMap"* @_ZN5angleL15NoCopyFunctionsE, i32 35863, i32 0, i32 0, i32 0, i32 0, i32 0, i32 0, i32 0, i32 16, i32 -1, i32 0, i8 1, i8 0, i8 0, i8 1, i8 0, i32 18 }, %"struct.angle::Format" { i32 54, i32 37844, i32 37844, void (i64, i64, i64, i8*, i64, i64, i8*, i64, i64)* null, void (i8*, i8*)* null, void (i8*, i8*)* null, %"class.rx::FastCopyFunctionMap"* @_ZN5angleL15NoCopyFunctionsE, i32 35863, i32 0, i32 0, i32 0, i32 0, i32 0, i32 0, i32 0, i32 16, i32 -1, i32 0, i8 1, i8 0, i8 0, i8 1, i8 0, i32 18 }, %"struct.angle::Format" { i32 55, i32 37812, i32 37812, void (i64, i64, i64, i8*, i64, i64, i8*, i64, i64)* null, void (i8*, i8*)* null, void (i8*, i8*)* null, %"class.rx::FastCopyFunctionMap"* @_ZN5angleL15NoCopyFunctionsE, i32 35863, i32 0, i32 0, i32 0, i32 0, i32 0, i32 0, i32 0, i32 16, i32 -1, i32 0, i8 1, i8 0, i8 0, i8 0, i8 0, i32 18 }, %"struct.angle::Format" { i32 56, i32 37832, i32 37832, void (i64, i64, i64, i8*, i64, i64, i8*, i64, i64)* null, void (i8*, i8*)* null, void (i8*, i8*)* null, %"class.rx::FastCopyFunctionMap"* @_ZN5angleL15NoCopyFunctionsE, i32 35863, i32 0, i32 0, i32 0, i32 0, i32 0, i32 0, i32 0, i32 16, i32 -1, i32 0, i8 1, i8 0, i8 0, i8 0, i8 0, i32 18 }, %"struct.angle::Format" { i32 57, i32 37864, i32 37864, void (i64, i64, i64, i8*, i64, i64, i8*, i64, i64)* null, void (i8*, i8*)* null, void (i8*, i8*)* null, %"class.rx::FastCopyFunctionMap"* @_ZN5angleL15NoCopyFunctionsE, i32 35863, i32 0, i32 0, i32 0, i32 0, i32 0, i32 0, i32 0, i32 16, i32 -1, i32 0, i8 1, i8 0, i8 0, i8 1, i8 0, i32 18 }, %"struct.angle::Format" { i32 58, i32 37833, i32 37833, void (i64, i64, i64, i8*, i64, i64, i8*, i64, i64)* null, void (i8*, i8*)* null, void (i8*, i8*)* null, %"class.rx::FastCopyFunctionMap"* @_ZN5angleL15NoCopyFunctionsE, i32 35863, i32 0, i32 0, i32 0, i32 0, i32 0, i32 0, i32 0, i32 16, i32 -1, i32 0, i8 1, i8 0, i8 0, i8 0, i8 0, i32 18 }, %"struct.angle::Format" { i32 59, i32 37865, i32 37865, void (i64, i64, i64, i8*, i64, i64, i8*, i64, i64)* null, void (i8*, i8*)* null, void (i8*, i8*)* null, %"class.rx::FastCopyFunctionMap"* @_ZN5angleL15NoCopyFunctionsE, i32 35863, i32 0, i32 0, i32 0, i32 0, i32 0, i32 0, i32 0, i32 16, i32 -1, i32 0, i8 1, i8 0, i8 0, i8 1, i8 0, i32 18 }, %"struct.angle::Format" { i32 60, i32 37845, i32 37845, void (i64, i64, i64, i8*, i64, i64, i8*, i64, i64)* null, void (i8*, i8*)* null, void (i8*, i8*)* null, %"class.rx::FastCopyFunctionMap"* @_ZN5angleL15NoCopyFunctionsE, i32 35863, i32 0, i32 0, i32 0, i32 0, i32 0, i32 0, i32 0, i32 16, i32 -1, i32 0, i8 1, i8 0, i8 0, i8 1, i8 0, i32 18 }, %"struct.angle::Format" { i32 61, i32 37813, i32 37813, void (i64, i64, i64, i8*, i64, i64, i8*, i64, i64)* null, void (i8*, i8*)* null, void (i8*, i8*)* null, %"class.rx::FastCopyFunctionMap"* @_ZN5angleL15NoCopyFunctionsE, i32 35863, i32 0, i32 0, i32 0, i32 0, i32 0, i32 0, i32 0, i32 16, i32 -1, i32 0, i8 1, i8 0, i8 0, i8 0, i8 0, i32 18 }, %"struct.angle::Format" { i32 62, i32 37846, i32 37846, void (i64, i64, i64, i8*, i64, i64, i8*, i64, i64)* null, void (i8*, i8*)* null, void (i8*, i8*)* null, %"class.rx::FastCopyFunctionMap"* @_ZN5angleL15NoCopyFunctionsE, i32 35863, i32 0, i32 0, i32 0, i32 0, i32 0, i32 0, i32 0, i32 16, i32 -1, i32 0, i8 1, i8 0, i8 0, i8 1, i8 0, i32 18 }, %"struct.angle::Format" { i32 63, i32 37814, i32 37814, void (i64, i64, i64, i8*, i64, i64, i8*, i64, i64)* null, void (i8*, i8*)* null, void (i8*, i8*)* null, %"class.rx::FastCopyFunctionMap"* @_ZN5angleL15NoCopyFunctionsE, i32 35863, i32 0, i32 0, i32 0, i32 0, i32 0, i32 0, i32 0, i32 16, i32 -1, i32 0, i8 1, i8 0, i8 0, i8 0, i8 0, i32 18 }, %"struct.angle::Format" { i32 64, i32 37847, i32 37847, void (i64, i64, i64, i8*, i64, i64, i8*, i64, i64)* null, void (i8*, i8*)* null, void (i8*, i8*)* null, %"class.rx::FastCopyFunctionMap"* @_ZN5angleL15NoCopyFunctionsE, i32 35863, i32 0, i32 0, i32 0, i32 0, i32 0, i32 0, i32 0, i32 16, i32 -1, i32 0, i8 1, i8 0, i8 0, i8 1, i8 0, i32 18 }, %"struct.angle::Format" { i32 65, i32 37815, i32 37815, void (i64, i64, i64, i8*, i64, i64, i8*, i64, i64)* null, void (i8*, i8*)* null, void (i8*, i8*)* null, %"class.rx::FastCopyFunctionMap"* @_ZN5angleL15NoCopyFunctionsE, i32 35863, i32 0, i32 0, i32 0, i32 0, i32 0, i32 0, i32 0, i32 16, i32 -1, i32 0, i8 1, i8 0, i8 0, i8 0, i8 0, i32 18 }, %"struct.angle::Format" { i32 66, i32 27385, i32 27385, void (i64, i64, i64, i8*, i64, i64, i8*, i64, i64)* @_ZN5angle11GenerateMipINS_11B10G10R10A2EEEvmmmPKhmmPhmm, void (i8*, i8*)* @_ZN5angle9ReadColorINS_11B10G10R10A2EfEEvPKhPh, void (i8*, i8*)* @_ZN5angle10WriteColorINS_11B10G10R10A2EfEEvPKhPh, %"class.rx::FastCopyFunctionMap"* @_ZN5angleL15NoCopyFunctionsE, i32 35863, i32 10, i32 10, i32 10, i32 2, i32 0, i32 0, i32 0, i32 4, i32 -1, i32 4, i8 0, i8 0, i8 0, i8 0, i8 0, i32 13 }, %"struct.angle::Format" { i32 67, i32 27324, i32 32854, void (i64, i64, i64, i8*, i64, i64, i8*, i64, i64)* @_ZN5angle11GenerateMipINS_8A4R4G4B4EEEvmmmPKhmmPhmm, void (i8*, i8*)* @_ZN5angle9ReadColorINS_8A4R4G4B4EfEEvPKhPh, void (i8*, i8*)* @_ZN5angle10WriteColorINS_8A4R4G4B4EfEEvPKhPh, %"class.rx::FastCopyFunctionMap"* @_ZN5angleL15NoCopyFunctionsE, i32 35863, i32 4, i32 4, i32 4, i32 4, i32 0, i32 0, i32 0, i32 2, i32 -1, i32 4, i8 0, i8 0, i8 0, i8 0, i8 0, i32 18 }, %"struct.angle::Format" { i32 68, i32 27325, i32 32855, void (i64, i64, i64, i8*, i64, i64, i8*, i64, i64)* @_ZN5angle11GenerateMipINS_8A1R5G5B5EEEvmmmPKhmmPhmm, void (i8*, i8*)* @_ZN5angle9ReadColorINS_8A1R5G5B5EfEEvPKhPh, void (i8*, i8*)* @_ZN5angle10WriteColorINS_8A1R5G5B5EfEEvPKhPh, %"class.rx::FastCopyFunctionMap"* @_ZN5angleL15NoCopyFunctionsE, i32 35863, i32 5, i32 5, i32 5, i32 1, i32 0, i32 0, i32 0, i32 2, i32 -1, i32 4, i8 0, i8 0, i8 0, i8 0, i8 0, i32 18 }, %"struct.angle::Format" { i32 69, i32 27323, i32 36194, void (i64, i64, i64, i8*, i64, i64, i8*, i64, i64)* @_ZN5angle11GenerateMipINS_6B5G6R5EEEvmmmPKhmmPhmm, void (i8*, i8*)* @_ZN5angle9ReadColorINS_6B5G6R5EfEEvPKhPh, void (i8*, i8*)* @_ZN5angle10WriteColorINS_6B5G6R5EfEEvPKhPh, %"class.rx::FastCopyFunctionMap"* @_ZN5angleL15NoCopyFunctionsE, i32 35863, i32 5, i32 6, i32 5, i32 0, i32 0, i32 0, i32 0, i32 2, i32 -1, i32 3, i8 0, i8 0, i8 0, i8 0, i8 0, i32 18 }, %"struct.angle::Format" { i32 70, i32 37793, i32 37793, void (i64, i64, i64, i8*, i64, i64, i8*, i64, i64)* @_ZN5angle11GenerateMipINS_8B8G8R8A8EEEvmmmPKhmmPhmm, void (i8*, i8*)* @_ZN5angle9ReadColorINS_8B8G8R8A8EfEEvPKhPh, void (i8*, i8*)* @_ZN5angle10WriteColorINS_8B8G8R8A8EfEEvPKhPh, %"class.rx::FastCopyFunctionMap"* @_ZN5angleL15NoCopyFunctionsE, i32 35863, i32 8, i32 8, i32 8, i32 8, i32 0, i32 0, i32 0, i32 4, i32 0, i32 4, i8 0, i8 0, i8 0, i8 0, i8 0, i32 1 }, %"struct.angle::Format" { i32 71, i32 27328, i32 27328, void (i64, i64, i64, i8*, i64, i64, i8*, i64, i64)* @_ZN5angle11GenerateMipINS_8B8G8R8A8EEEvmmmPKhmmPhmm, void (i8*, i8*)* @_ZN5angle9ReadColorINS_8B8G8R8A8EfEEvPKhPh, void (i8*, i8*)* @_ZN5angle10WriteColorINS_8B8G8R8A8EfEEvPKhPh, %"class.rx::FastCopyFunctionMap"* @_ZN5angleL15NoCopyFunctionsE, i32 35863, i32 8, i32 8, i32 8, i32 8, i32 0, i32 0, i32 0, i32 4, i32 0, i32 4, i8 0, i8 0, i8 0, i8 1, i8 0, i32 0 }, %"struct.angle::Format" { i32 72, i32 37793, i32 37793, void (i64, i64, i64, i8*, i64, i64, i8*, i64, i64)* @_ZN5angle11GenerateMipINS_8B8G8R8A8EEEvmmmPKhmmPhmm, void (i8*, i8*)* @_ZN5angle9ReadColorINS_8B8G8R8A8EfEEvPKhPh, void (i8*, i8*)* @_ZN5angle10WriteColorINS_8B8G8R8A8EfEEvPKhPh, %"class.rx::FastCopyFunctionMap"* @_ZN5angleL17BGRACopyFunctionsE, i32 35863, i32 8, i32 8, i32 8, i32 8, i32 0, i32 0, i32 0, i32 4, i32 0, i32 4, i8 0, i8 0, i8 0, i8 0, i8 0, i32 1 }, %"struct.angle::Format" { i32 73, i32 27328, i32 27328, void (i64, i64, i64, i8*, i64, i64, i8*, i64, i64)* @_ZN5angle11GenerateMipINS_8B8G8R8A8EEEvmmmPKhmmPhmm, void (i8*, i8*)* @_ZN5angle9ReadColorINS_8B8G8R8A8EfEEvPKhPh, void (i8*, i8*)* @_ZN5angle10WriteColorINS_8B8G8R8A8EfEEvPKhPh, %"class.rx::FastCopyFunctionMap"* @_ZN5angleL15NoCopyFunctionsE, i32 35863, i32 8, i32 8, i32 8, i32 8, i32 0, i32 0, i32 0, i32 4, i32 0, i32 4, i8 0, i8 0, i8 0, i8 1, i8 0, i32 0 }, %"struct.angle::Format" { i32 74, i32 37793, i32 37793, void (i64, i64, i64, i8*, i64, i64, i8*, i64, i64)* @_ZN5angle11GenerateMipINS_8B8G8R8X8EEEvmmmPKhmmPhmm, void (i8*, i8*)* @_ZN5angle9ReadColorINS_8B8G8R8X8EfEEvPKhPh, void (i8*, i8*)* @_ZN5angle10WriteColorINS_8B8G8R8X8EfEEvPKhPh, %"class.rx::FastCopyFunctionMap"* @_ZN5angleL15NoCopyFunctionsE, i32 35863, i32 8, i32 8, i32 8, i32 0, i32 0, i32 0, i32 0, i32 4, i32 -1, i32 3, i8 0, i8 0, i8 0, i8 0, i8 0, i32 1 }, %"struct.angle::Format" { i32 75, i32 33777, i32 33777, void (i64, i64, i64, i8*, i64, i64, i8*, i64, i64)* null, void (i8*, i8*)* null, void (i8*, i8*)* null, %"class.rx::FastCopyFunctionMap"* @_ZN5angleL15NoCopyFunctionsE, i32 35863, i32 0, i32 0, i32 0, i32 0, i32 0, i32 0, i32 0, i32 8, i32 -1, i32 0, i8 1, i8 0, i8 0, i8 0, i8 0, i32 18 }, %"struct.angle::Format" { i32 76, i32 35917, i32 35917, void (i64, i64, i64, i8*, i64, i64, i8*, i64, i64)* null, void (i8*, i8*)* null, void (i8*, i8*)* null, %"class.rx::FastCopyFunctionMap"* @_ZN5angleL15NoCopyFunctionsE, i32 35863, i32 0, i32 0, i32 0, i32 0, i32 0, i32 0, i32 0, i32 8, i32 -1, i32 0, i8 1, i8 0, i8 0, i8 1, i8 0, i32 18 }, %"struct.angle::Format" { i32 77, i32 33776, i32 33776, void (i64, i64, i64, i8*, i64, i64, i8*, i64, i64)* null, void (i8*, i8*)* null, void (i8*, i8*)* null, %"class.rx::FastCopyFunctionMap"* @_ZN5angleL15NoCopyFunctionsE, i32 35863, i32 0, i32 0, i32 0, i32 0, i32 0, i32 0, i32 0, i32 8, i32 -1, i32 0, i8 1, i8 0, i8 0, i8 0, i8 0, i32 18 }, %"struct.angle::Format" { i32 78, i32 35916, i32 35916, void (i64, i64, i64, i8*, i64, i64, i8*, i64, i64)* null, void (i8*, i8*)* null, void (i8*, i8*)* null, %"class.rx::FastCopyFunctionMap"* @_ZN5angleL15NoCopyFunctionsE, i32 35863, i32 0, i32 0, i32 0, i32 0, i32 0, i32 0, i32 0, i32 8, i32 -1, i32 0, i8 1, i8 0, i8 0, i8 1, i8 0, i32 18 }, %"struct.angle::Format" { i32 79, i32 33778, i32 33778, void (i64, i64, i64, i8*, i64, i64, i8*, i64, i64)* null, void (i8*, i8*)* null, void (i8*, i8*)* null, %"class.rx::FastCopyFunctionMap"* @_ZN5angleL15NoCopyFunctionsE, i32 35863, i32 0, i32 0, i32 0, i32 0, i32 0, i32 0, i32 0, i32 16, i32 -1, i32 0, i8 1, i8 0, i8 0, i8 0, i8 0, i32 18 }, %"struct.angle::Format" { i32 80, i32 35918, i32 35918, void (i64, i64, i64, i8*, i64, i64, i8*, i64, i64)* null, void (i8*, i8*)* null, void (i8*, i8*)* null, %"class.rx::FastCopyFunctionMap"* @_ZN5angleL15NoCopyFunctionsE, i32 35863, i32 0, i32 0, i32 0, i32 0, i32 0, i32 0, i32 0, i32 16, i32 -1, i32 0, i8 1, i8 0, i8 0, i8 1, i8 0, i32 18 }, %"struct.angle::Format" { i32 81, i32 33779, i32 33779, void (i64, i64, i64, i8*, i64, i64, i8*, i64, i64)* null, void (i8*, i8*)* null, void (i8*, i8*)* null, %"class.rx::FastCopyFunctionMap"* @_ZN5angleL15NoCopyFunctionsE, i32 35863, i32 0, i32 0, i32 0, i32 0, i32 0, i32 0, i32 0, i32 16, i32 -1, i32 0, i8 1, i8 0, i8 0, i8 0, i8 0, i32 18 }, %"struct.angle::Format" { i32 82, i32 35919, i32 35919, void (i64, i64, i64, i8*, i64, i64, i8*, i64, i64)* null, void (i8*, i8*)* null, void (i8*, i8*)* null, %"class.rx::FastCopyFunctionMap"* @_ZN5angleL15NoCopyFunctionsE, i32 35863, i32 0, i32 0, i32 0, i32 0, i32 0, i32 0, i32 0, i32 16, i32 -1, i32 0, i8 1, i8 0, i8 0, i8 1, i8 0, i32 18 }, %"struct.angle::Format" { i32 83, i32 36284, i32 36284, void (i64, i64, i64, i8*, i64, i64, i8*, i64, i64)* null, void (i8*, i8*)* null, void (i8*, i8*)* null, %"class.rx::FastCopyFunctionMap"* @_ZN5angleL15NoCopyFunctionsE, i32 36764, i32 0, i32 0, i32 0, i32 0, i32 0, i32 0, i32 0, i32 8, i32 -1, i32 0, i8 1, i8 0, i8 0, i8 0, i8 0, i32 18 }, %"struct.angle::Format" { i32 84, i32 36283, i32 36283, void (i64, i64, i64, i8*, i64, i64, i8*, i64, i64)* null, void (i8*, i8*)* null, void (i8*, i8*)* null, %"class.rx::FastCopyFunctionMap"* @_ZN5angleL15NoCopyFunctionsE, i32 35863, i32 0, i32 0, i32 0, i32 0, i32 0, i32 0, i32 0, i32 8, i32 -1, i32 0, i8 1, i8 0, i8 0, i8 0, i8 0, i32 18 }, %"struct.angle::Format" { i32 85, i32 36286, i32 36286, void (i64, i64, i64, i8*, i64, i64, i8*, i64, i64)* null, void (i8*, i8*)* null, void (i8*, i8*)* null, %"class.rx::FastCopyFunctionMap"* @_ZN5angleL15NoCopyFunctionsE, i32 36764, i32 0, i32 0, i32 0, i32 0, i32 0, i32 0, i32 0, i32 16, i32 -1, i32 0, i8 1, i8 0, i8 0, i8 0, i8 0, i32 18 }, %"struct.angle::Format" { i32 86, i32 36285, i32 36285, void (i64, i64, i64, i8*, i64, i64, i8*, i64, i64)* null, void (i8*, i8*)* null, void (i8*, i8*)* null, %"class.rx::FastCopyFunctionMap"* @_ZN5angleL15NoCopyFunctionsE, i32 35863, i32 0, i32 0, i32 0, i32 0, i32 0, i32 0, i32 0, i32 16, i32 -1, i32 0, i8 1, i8 0, i8 0, i8 0, i8 0, i32 18 }, %"struct.angle::Format" { i32 87, i32 36494, i32 36494, void (i64, i64, i64, i8*, i64, i64, i8*, i64, i64)* null, void (i8*, i8*)* null, void (i8*, i8*)* null, %"class.rx::FastCopyFunctionMap"* @_ZN5angleL15NoCopyFunctionsE, i32 5126, i32 0, i32 0, i32 0, i32 0, i32 0, i32 0, i32 0, i32 16, i32 -1, i32 0, i8 1, i8 0, i8 0, i8 0, i8 0, i32 18 }, %"struct.angle::Format" { i32 88, i32 36495, i32 36495, void (i64, i64, i64, i8*, i64, i64, i8*, i64, i64)* null, void (i8*, i8*)* null, void (i8*, i8*)* null, %"class.rx::FastCopyFunctionMap"* @_ZN5angleL15NoCopyFunctionsE, i32 5126, i32 0, i32 0, i32 0, i32 0, i32 0, i32 0, i32 0, i32 16, i32 -1, i32 0, i8 1, i8 0, i8 0, i8 0, i8 0, i32 18 }, %"struct.angle::Format" { i32 89, i32 36492, i32 36492, void (i64, i64, i64, i8*, i64, i64, i8*, i64, i64)* null, void (i8*, i8*)* null, void (i8*, i8*)* null, %"class.rx::FastCopyFunctionMap"* @_ZN5angleL15NoCopyFunctionsE, i32 35863, i32 0, i32 0, i32 0, i32 0, i32 0, i32 0, i32 0, i32 16, i32 -1, i32 0, i8 1, i8 0, i8 0, i8 0, i8 0, i32 18 }, %"struct.angle::Format" { i32 90, i32 36493, i32 36493, void (i64, i64, i64, i8*, i64, i64, i8*, i64, i64)* null, void (i8*, i8*)* null, void (i8*, i8*)* null, %"class.rx::FastCopyFunctionMap"* @_ZN5angleL15NoCopyFunctionsE, i32 35863, i32 0, i32 0, i32 0, i32 0, i32 0, i32 0, i32 0, i32 16, i32 -1, i32 0, i8 1, i8 0, i8 0, i8 1, i8 0, i32 18 }, %"struct.angle::Format" { i32 91, i32 37491, i32 37491, void (i64, i64, i64, i8*, i64, i64, i8*, i64, i64)* null, void (i8*, i8*)* null, void (i8*, i8*)* null, %"class.rx::FastCopyFunctionMap"* @_ZN5angleL15NoCopyFunctionsE, i32 36764, i32 11, i32 11, i32 0, i32 0, i32 0, i32 0, i32 0, i32 16, i32 0, i32 2, i8 1, i8 0, i8 0, i8 0, i8 0, i32 18 }, %"struct.angle::Format" { i32 92, i32 37490, i32 37490, void (i64, i64, i64, i8*, i64, i64, i8*, i64, i64)* null, void (i8*, i8*)* null, void (i8*, i8*)* null, %"class.rx::FastCopyFunctionMap"* @_ZN5angleL15NoCopyFunctionsE, i32 35863, i32 11, i32 11, i32 0, i32 0, i32 0, i32 0, i32 0, i32 16, i32 0, i32 2, i8 1, i8 0, i8 0, i8 0, i8 0, i32 18 }, %"struct.angle::Format" { i32 93, i32 37489, i32 37489, void (i64, i64, i64, i8*, i64, i64, i8*, i64, i64)* null, void (i8*, i8*)* null, void (i8*, i8*)* null, %"class.rx::FastCopyFunctionMap"* @_ZN5angleL15NoCopyFunctionsE, i32 36764, i32 11, i32 0, i32 0, i32 0, i32 0, i32 0, i32 0, i32 8, i32 0, i32 1, i8 1, i8 0, i8 0, i8 0, i8 0, i32 18 }, %"struct.angle::Format" { i32 94, i32 37488, i32 37488, void (i64, i64, i64, i8*, i64, i64, i8*, i64, i64)* null, void (i8*, i8*)* null, void (i8*, i8*)* null, %"class.rx::FastCopyFunctionMap"* @_ZN5angleL15NoCopyFunctionsE, i32 35863, i32 11, i32 0, i32 0, i32 0, i32 0, i32 0, i32 0, i32 8, i32 0, i32 1, i8 1, i8 0, i8 0, i8 0, i8 0, i32 18 }, %"struct.angle::Format" { i32 95, i32 38544, i32 38544, void (i64, i64, i64, i8*, i64, i64, i8*, i64, i64)* null, void (i8*, i8*)* null, void (i8*, i8*)* null, %"class.rx::FastCopyFunctionMap"* @_ZN5angleL15NoCopyFunctionsE, i32 35863, i32 8, i32 8, i32 8, i32 0, i32 0, i32 0, i32 0, i32 8, i32 0, i32 3, i8 1, i8 0, i8 0, i8 0, i8 0, i32 1 }, %"struct.angle::Format" { i32 96, i32 36196, i32 36196, void (i64, i64, i64, i8*, i64, i64, i8*, i64, i64)* null, void (i8*, i8*)* null, void (i8*, i8*)* null, %"class.rx::FastCopyFunctionMap"* @_ZN5angleL15NoCopyFunctionsE, i32 35863, i32 8, i32 8, i32 8, i32 0, i32 0, i32 0, i32 0, i32 8, i32 0, i32 3, i8 1, i8 0, i8 0, i8 0, i8 0, i32 1 }, %"struct.angle::Format" { i32 97, i32 37495, i32 37495, void (i64, i64, i64, i8*, i64, i64, i8*, i64, i64)* null, void (i8*, i8*)* null, void (i8*, i8*)* null, %"class.rx::FastCopyFunctionMap"* @_ZN5angleL15NoCopyFunctionsE, i32 35863, i32 8, i32 8, i32 8, i32 1, i32 0, i32 0, i32 0, i32 8, i32 -1, i32 4, i8 1, i8 0, i8 0, i8 1, i8 0, i32 0 }, %"struct.angle::Format" { i32 98, i32 37494, i32 37494, void (i64, i64, i64, i8*, i64, i64, i8*, i64, i64)* null, void (i8*, i8*)* null, void (i8*, i8*)* null, %"class.rx::FastCopyFunctionMap"* @_ZN5angleL15NoCopyFunctionsE, i32 35863, i32 8, i32 8, i32 8, i32 1, i32 0, i32 0, i32 0, i32 8, i32 -1, i32 4, i8 1, i8 0, i8 0, i8 0, i8 0, i32 1 }, %"struct.angle::Format" { i32 99, i32 37497, i32 37497, void (i64, i64, i64, i8*, i64, i64, i8*, i64, i64)* null, void (i8*, i8*)* null, void (i8*, i8*)* null, %"class.rx::FastCopyFunctionMap"* @_ZN5angleL15NoCopyFunctionsE, i32 35863, i32 8, i32 8, i32 8, i32 8, i32 0, i32 0, i32 0, i32 16, i32 0, i32 4, i8 1, i8 0, i8 0, i8 1, i8 0, i32 0 }, %"struct.angle::Format" { i32 100, i32 37496, i32 37496, void (i64, i64, i64, i8*, i64, i64, i8*, i64, i64)* null, void (i8*, i8*)* null, void (i8*, i8*)* null, %"class.rx::FastCopyFunctionMap"* @_ZN5angleL15NoCopyFunctionsE, i32 35863, i32 8, i32 8, i32 8, i32 8, i32 0, i32 0, i32 0, i32 16, i32 0, i32 4, i8 1, i8 0, i8 0, i8 0, i8 0, i32 1 }, %"struct.angle::Format" { i32 101, i32 37493, i32 37493, void (i64, i64, i64, i8*, i64, i64, i8*, i64, i64)* null, void (i8*, i8*)* null, void (i8*, i8*)* null, %"class.rx::FastCopyFunctionMap"* @_ZN5angleL15NoCopyFunctionsE, i32 35863, i32 8, i32 8, i32 8, i32 0, i32 0, i32 0, i32 0, i32 8, i32 0, i32 3, i8 1, i8 0, i8 0, i8 1, i8 0, i32 0 }, %"struct.angle::Format" { i32 102, i32 37492, i32 37492, void (i64, i64, i64, i8*, i64, i64, i8*, i64, i64)* null, void (i8*, i8*)* null, void (i8*, i8*)* null, %"class.rx::FastCopyFunctionMap"* @_ZN5angleL15NoCopyFunctionsE, i32 35863, i32 8, i32 8, i32 8, i32 0, i32 0, i32 0, i32 0, i32 8, i32 0, i32 3, i8 1, i8 0, i8 0, i8 0, i8 0, i32 1 }, %"struct.angle::Format" { i32 103, i32 27393, i32 27393, void (i64, i64, i64, i8*, i64, i64, i8*, i64, i64)* @_ZN5angle11GenerateMipINS_6R8G8B8EEEvmmmPKhmmPhmm, void (i8*, i8*)* @_ZN5angle9ReadColorINS_6R8G8B8EfEEvPKhPh, void (i8*, i8*)* @_ZN5angle10WriteColorINS_6R8G8B8EfEEvPKhPh, %"class.rx::FastCopyFunctionMap"* @_ZN5angleL15NoCopyFunctionsE, i32 35863, i32 8, i32 8, i32 8, i32 0, i32 0, i32 0, i32 0, i32 3, i32 0, i32 3, i8 0, i8 0, i8 0, i8 0, i8 1, i32 1 }, %"struct.angle::Format" { i32 104, i32 27392, i32 27392, void (i64, i64, i64, i8*, i64, i64, i8*, i64, i64)* @_ZN5angle11GenerateMipINS_6R8G8B8EEEvmmmPKhmmPhmm, void (i8*, i8*)* @_ZN5angle9ReadColorINS_6R8G8B8EfEEvPKhPh, void (i8*, i8*)* @_ZN5angle10WriteColorINS_6R8G8B8EfEEvPKhPh, %"class.rx::FastCopyFunctionMap"* @_ZN5angleL15NoCopyFunctionsE, i32 35863, i32 8, i32 8, i32 8, i32 0, i32 0, i32 0, i32 0, i32 3, i32 0, i32 3, i8 0, i8 0, i8 0, i8 0, i8 1, i32 1 }, %"struct.angle::Format" { i32 105, i32 34847, i32 34847, void (i64, i64, i64, i8*, i64, i64, i8*, i64, i64)* @_ZN5angle11GenerateMipINS_7L16A16FEEEvmmmPKhmmPhmm, void (i8*, i8*)* @_ZN5angle9ReadColorINS_7L16A16FEfEEvPKhPh, void (i8*, i8*)* @_ZN5angle10WriteColorINS_7L16A16FEfEEvPKhPh, %"class.rx::FastCopyFunctionMap"* @_ZN5angleL15NoCopyFunctionsE, i32 5126, i32 0, i32 0, i32 0, i32 16, i32 16, i32 0, i32 0, i32 4, i32 -1, i32 2, i8 0, i8 0, i8 0, i8 0, i8 0, i32 6 }, %"struct.angle::Format" { i32 106, i32 34846, i32 34846, void (i64, i64, i64, i8*, i64, i64, i8*, i64, i64)* @_ZN5angle11GenerateMipINS_4L16FEEEvmmmPKhmmPhmm, void (i8*, i8*)* @_ZN5angle9ReadColorINS_4L16FEfEEvPKhPh, void (i8*, i8*)* @_ZN5angle10WriteColorINS_4L16FEfEEvPKhPh, %"class.rx::FastCopyFunctionMap"* @_ZN5angleL15NoCopyFunctionsE, i32 5126, i32 0, i32 0, i32 0, i32 0, i32 16, i32 0, i32 0, i32 2, i32 -1, i32 1, i8 0, i8 0, i8 0, i8 0, i8 0, i32 6 }, %"struct.angle::Format" { i32 107, i32 34841, i32 34841, void (i64, i64, i64, i8*, i64, i64, i8*, i64, i64)* @_ZN5angle11GenerateMipINS_7L32A32FEEEvmmmPKhmmPhmm, void (i8*, i8*)* @_ZN5angle9ReadColorINS_7L32A32FEfEEvPKhPh, void (i8*, i8*)* @_ZN5angle10WriteColorINS_7L32A32FEfEEvPKhPh, %"class.rx::FastCopyFunctionMap"* @_ZN5angleL15NoCopyFunctionsE, i32 5126, i32 0, i32 0, i32 0, i32 32, i32 32, i32 0, i32 0, i32 8, i32 -1, i32 2, i8 0, i8 0, i8 0, i8 0, i8 0, i32 6 }, %"struct.angle::Format" { i32 108, i32 34840, i32 34840, void (i64, i64, i64, i8*, i64, i64, i8*, i64, i64)* @_ZN5angle11GenerateMipINS_4L32FEEEvmmmPKhmmPhmm, void (i8*, i8*)* @_ZN5angle9ReadColorINS_4L32FEfEEvPKhPh, void (i8*, i8*)* @_ZN5angle10WriteColorINS_4L32FEfEEvPKhPh, %"class.rx::FastCopyFunctionMap"* @_ZN5angleL15NoCopyFunctionsE, i32 5126, i32 0, i32 0, i32 0, i32 0, i32 32, i32 0, i32 0, i32 4, i32 -1, i32 1, i8 0, i8 0, i8 0, i8 0, i8 0, i32 6 }, %"struct.angle::Format" { i32 109, i32 32837, i32 32837, void (i64, i64, i64, i8*, i64, i64, i8*, i64, i64)* @_ZN5angle11GenerateMipINS_4L8A8EEEvmmmPKhmmPhmm, void (i8*, i8*)* @_ZN5angle9ReadColorINS_4L8A8EfEEvPKhPh, void (i8*, i8*)* @_ZN5angle10WriteColorINS_4L8A8EfEEvPKhPh, %"class.rx::FastCopyFunctionMap"* @_ZN5angleL15NoCopyFunctionsE, i32 35863, i32 0, i32 0, i32 0, i32 8, i32 8, i32 0, i32 0, i32 2, i32 -1, i32 2, i8 0, i8 0, i8 0, i8 0, i8 0, i32 18 }, %"struct.angle::Format" { i32 110, i32 32832, i32 32832, void (i64, i64, i64, i8*, i64, i64, i8*, i64, i64)* @_ZN5angle11GenerateMipINS_2L8EEEvmmmPKhmmPhmm, void (i8*, i8*)* @_ZN5angle9ReadColorINS_2L8EfEEvPKhPh, void (i8*, i8*)* @_ZN5angle10WriteColorINS_2L8EfEEvPKhPh, %"class.rx::FastCopyFunctionMap"* @_ZN5angleL15NoCopyFunctionsE, i32 35863, i32 0, i32 0, i32 0, i32 0, i32 8, i32 0, i32 0, i32 1, i32 -1, i32 1, i8 0, i8 0, i8 0, i8 0, i8 0, i32 18 }, %"struct.angle::Format" { i32 111, i32 35843, i32 35843, void (i64, i64, i64, i8*, i64, i64, i8*, i64, i64)* null, void (i8*, i8*)* null, void (i8*, i8*)* null, %"class.rx::FastCopyFunctionMap"* @_ZN5angleL15NoCopyFunctionsE, i32 35863, i32 0, i32 0, i32 0, i32 0, i32 0, i32 0, i32 0, i32 8, i32 -1, i32 0, i8 1, i8 0, i8 0, i8 0, i8 0, i32 18 }, %"struct.angle::Format" { i32 112, i32 35414, i32 35414, void (i64, i64, i64, i8*, i64, i64, i8*, i64, i64)* null, void (i8*, i8*)* null, void (i8*, i8*)* null, %"class.rx::FastCopyFunctionMap"* @_ZN5angleL15NoCopyFunctionsE, i32 35863, i32 0, i32 0, i32 0, i32 0, i32 0, i32 0, i32 0, i32 8, i32 -1, i32 0, i8 1, i8 0, i8 0, i8 1, i8 0, i32 18 }, %"struct.angle::Format" { i32 113, i32 35842, i32 35842, void (i64, i64, i64, i8*, i64, i64, i8*, i64, i64)* null, void (i8*, i8*)* null, void (i8*, i8*)* null, %"class.rx::FastCopyFunctionMap"* @_ZN5angleL15NoCopyFunctionsE, i32 35863, i32 0, i32 0, i32 0, i32 0, i32 0, i32 0, i32 0, i32 8, i32 -1, i32 0, i8 1, i8 0, i8 0, i8 0, i8 0, i32 18 }, %"struct.angle::Format" { i32 114, i32 35415, i32 35415, void (i64, i64, i64, i8*, i64, i64, i8*, i64, i64)* null, void (i8*, i8*)* null, void (i8*, i8*)* null, %"class.rx::FastCopyFunctionMap"* @_ZN5angleL15NoCopyFunctionsE, i32 35863, i32 0, i32 0, i32 0, i32 0, i32 0, i32 0, i32 0, i32 8, i32 -1, i32 0, i8 1, i8 0, i8 0, i8 1, i8 0, i32 18 }, %"struct.angle::Format" { i32 115, i32 35841, i32 35841, void (i64, i64, i64, i8*, i64, i64, i8*, i64, i64)* null, void (i8*, i8*)* null, void (i8*, i8*)* null, %"class.rx::FastCopyFunctionMap"* @_ZN5angleL15NoCopyFunctionsE, i32 35863, i32 0, i32 0, i32 0, i32 0, i32 0, i32 0, i32 0, i32 8, i32 -1, i32 0, i8 1, i8 0, i8 0, i8 0, i8 0, i32 18 }, %"struct.angle::Format" { i32 116, i32 35412, i32 35412, void (i64, i64, i64, i8*, i64, i64, i8*, i64, i64)* null, void (i8*, i8*)* null, void (i8*, i8*)* null, %"class.rx::FastCopyFunctionMap"* @_ZN5angleL15NoCopyFunctionsE, i32 35863, i32 0, i32 0, i32 0, i32 0, i32 0, i32 0, i32 0, i32 8, i32 -1, i32 0, i8 1, i8 0, i8 0, i8 1, i8 0, i32 18 }, %"struct.angle::Format" { i32 117, i32 35840, i32 35840, void (i64, i64, i64, i8*, i64, i64, i8*, i64, i64)* null, void (i8*, i8*)* null, void (i8*, i8*)* null, %"class.rx::FastCopyFunctionMap"* @_ZN5angleL15NoCopyFunctionsE, i32 35863, i32 0, i32 0, i32 0, i32 0, i32 0, i32 0, i32 0, i32 8, i32 -1, i32 0, i8 1, i8 0, i8 0, i8 0, i8 0, i32 18 }, %"struct.angle::Format" { i32 118, i32 35413, i32 35413, void (i64, i64, i64, i8*, i64, i64, i8*, i64, i64)* null, void (i8*, i8*)* null, void (i8*, i8*)* null, %"class.rx::FastCopyFunctionMap"* @_ZN5angleL15NoCopyFunctionsE, i32 35863, i32 0, i32 0, i32 0, i32 0, i32 0, i32 0, i32 0, i32 8, i32 -1, i32 0, i8 1, i8 0, i8 0, i8 1, i8 0, i32 18 }, %"struct.angle::Format" { i32 119, i32 27370, i32 27370, void (i64, i64, i64, i8*, i64, i64, i8*, i64, i64)* @_ZN5angle11GenerateMipINS_12R10G10B10A2SEEEvmmmPKhmmPhmm, void (i8*, i8*)* @_ZN5angle9ReadColorINS_12R10G10B10A2SEiEEvPKhPh, void (i8*, i8*)* @_ZN5angle10WriteColorINS_12R10G10B10A2SEiEEvPKhPh, %"class.rx::FastCopyFunctionMap"* @_ZN5angleL15NoCopyFunctionsE, i32 5124, i32 10, i32 10, i32 10, i32 2, i32 0, i32 0, i32 0, i32 4, i32 -1, i32 4, i8 0, i8 0, i8 0, i8 0, i8 0, i32 15 }, %"struct.angle::Format" { i32 120, i32 27371, i32 27371, void (i64, i64, i64, i8*, i64, i64, i8*, i64, i64)* @_ZN5angle11GenerateMipINS_12R10G10B10A2SEEEvmmmPKhmmPhmm, void (i8*, i8*)* @_ZN5angle9ReadColorINS_12R10G10B10A2SEfEEvPKhPh, void (i8*, i8*)* @_ZN5angle10WriteColorINS_12R10G10B10A2SEfEEvPKhPh, %"class.rx::FastCopyFunctionMap"* @_ZN5angleL15NoCopyFunctionsE, i32 36764, i32 10, i32 10, i32 10, i32 2, i32 0, i32 0, i32 0, i32 4, i32 -1, i32 4, i8 0, i8 0, i8 0, i8 0, i8 0, i32 15 }, %"struct.angle::Format" { i32 121, i32 27372, i32 27372, void (i64, i64, i64, i8*, i64, i64, i8*, i64, i64)* @_ZN5angle11GenerateMipINS_12R10G10B10A2SEEEvmmmPKhmmPhmm, void (i8*, i8*)* @_ZN5angle9ReadColorINS_12R10G10B10A2SEiEEvPKhPh, void (i8*, i8*)* @_ZN5angle10WriteColorINS_12R10G10B10A2SEiEEvPKhPh, %"class.rx::FastCopyFunctionMap"* @_ZN5angleL15NoCopyFunctionsE, i32 5124, i32 10, i32 10, i32 10, i32 2, i32 0, i32 0, i32 0, i32 4, i32 -1, i32 4, i8 0, i8 0, i8 1, i8 0, i8 0, i32 15 }, %"struct.angle::Format" { i32 122, i32 36975, i32 36975, void (i64, i64, i64, i8*, i64, i64, i8*, i64, i64)* @_ZN5angle11GenerateMipINS_11R10G10B10A2EEEvmmmPKhmmPhmm, void (i8*, i8*)* @_ZN5angle9ReadColorINS_11R10G10B10A2EjEEvPKhPh, void (i8*, i8*)* @_ZN5angle10WriteColorINS_11R10G10B10A2EjEEvPKhPh, %"class.rx::FastCopyFunctionMap"* @_ZN5angleL15NoCopyFunctionsE, i32 5125, i32 10, i32 10, i32 10, i32 2, i32 0, i32 0, i32 0, i32 4, i32 -1, i32 4, i8 0, i8 0, i8 0, i8 0, i8 0, i32 13 }, %"struct.angle::Format" { i32 123, i32 32857, i32 32857, void (i64, i64, i64, i8*, i64, i64, i8*, i64, i64)* @_ZN5angle11GenerateMipINS_11R10G10B10A2EEEvmmmPKhmmPhmm, void (i8*, i8*)* @_ZN5angle9ReadColorINS_11R10G10B10A2EfEEvPKhPh, void (i8*, i8*)* @_ZN5angle10WriteColorINS_11R10G10B10A2EfEEvPKhPh, %"class.rx::FastCopyFunctionMap"* @_ZN5angleL15NoCopyFunctionsE, i32 35863, i32 10, i32 10, i32 10, i32 2, i32 0, i32 0, i32 0, i32 4, i32 -1, i32 4, i8 0, i8 0, i8 0, i8 0, i8 0, i32 13 }, %"struct.angle::Format" { i32 124, i32 27373, i32 27373, void (i64, i64, i64, i8*, i64, i64, i8*, i64, i64)* @_ZN5angle11GenerateMipINS_11R10G10B10A2EEEvmmmPKhmmPhmm, void (i8*, i8*)* @_ZN5angle9ReadColorINS_11R10G10B10A2EjEEvPKhPh, void (i8*, i8*)* @_ZN5angle10WriteColorINS_11R10G10B10A2EjEEvPKhPh, %"class.rx::FastCopyFunctionMap"* @_ZN5angleL15NoCopyFunctionsE, i32 5125, i32 10, i32 10, i32 10, i32 2, i32 0, i32 0, i32 0, i32 4, i32 -1, i32 4, i8 0, i8 0, i8 1, i8 0, i8 0, i32 13 }, %"struct.angle::Format" { i32 125, i32 27374, i32 27374, void (i64, i64, i64, i8*, i64, i64, i8*, i64, i64)* @_ZN5angle11GenerateMipINS_11R10G10B10X2EEEvmmmPKhmmPhmm, void (i8*, i8*)* @_ZN5angle9ReadColorINS_11R10G10B10X2EfEEvPKhPh, void (i8*, i8*)* @_ZN5angle10WriteColorINS_11R10G10B10X2EfEEvPKhPh, %"class.rx::FastCopyFunctionMap"* @_ZN5angleL15NoCopyFunctionsE, i32 35863, i32 10, i32 10, i32 10, i32 0, i32 0, i32 0, i32 0, i32 4, i32 -1, i32 3, i8 0, i8 0, i8 0, i8 0, i8 0, i32 13 }, %"struct.angle::Format" { i32 126, i32 35898, i32 35898, void (i64, i64, i64, i8*, i64, i64, i8*, i64, i64)* @_ZN5angle11GenerateMipINS_10R11G11B10FEEEvmmmPKhmmPhmm, void (i8*, i8*)* @_ZN5angle9ReadColorINS_10R11G11B10FEfEEvPKhPh, void (i8*, i8*)* @_ZN5angle10WriteColorINS_10R11G11B10FEfEEvPKhPh, %"class.rx::FastCopyFunctionMap"* @_ZN5angleL15NoCopyFunctionsE, i32 5126, i32 11, i32 11, i32 10, i32 0, i32 0, i32 0, i32 0, i32 4, i32 -1, i32 3, i8 0, i8 0, i8 0, i8 0, i8 0, i32 6 }, %"struct.angle::Format" { i32 127, i32 34842, i32 34842, void (i64, i64, i64, i8*, i64, i64, i8*, i64, i64)* @_ZN5angle11GenerateMipINS_13R16G16B16A16FEEEvmmmPKhmmPhmm, void (i8*, i8*)* @_ZN5angle9ReadColorINS_13R16G16B16A16FEfEEvPKhPh, void (i8*, i8*)* @_ZN5angle10WriteColorINS_13R16G16B16A16FEfEEvPKhPh, %"class.rx::FastCopyFunctionMap"* @_ZN5angleL15NoCopyFunctionsE, i32 5126, i32 16, i32 16, i32 16, i32 16, i32 0, i32 0, i32 0, i32 8, i32 1, i32 4, i8 0, i8 0, i8 0, i8 0, i8 0, i32 11 }, %"struct.angle::Format" { i32 128, i32 36232, i32 36232, void (i64, i64, i64, i8*, i64, i64, i8*, i64, i64)* @_ZN5angle11GenerateMipINS_13R16G16B16A16SEEEvmmmPKhmmPhmm, void (i8*, i8*)* @_ZN5angle9ReadColorINS_13R16G16B16A16SEiEEvPKhPh, void (i8*, i8*)* @_ZN5angle10WriteColorINS_13R16G16B16A16SEiEEvPKhPh, %"class.rx::FastCopyFunctionMap"* @_ZN5angleL15NoCopyFunctionsE, i32 5124, i32 16, i32 16, i32 16, i32 16, i32 0, i32 0, i32 0, i32 8, i32 1, i32 4, i8 0, i8 0, i8 0, i8 0, i8 0, i32 2 }, %"struct.angle::Format" { i32 129, i32 36763, i32 36763, void (i64, i64, i64, i8*, i64, i64, i8*, i64, i64)* @_ZN5angle11GenerateMipINS_13R16G16B16A16SEEEvmmmPKhmmPhmm, void (i8*, i8*)* @_ZN5angle9ReadColorINS_13R16G16B16A16SEfEEvPKhPh, void (i8*, i8*)* @_ZN5angle10WriteColorINS_13R16G16B16A16SEfEEvPKhPh, %"class.rx::FastCopyFunctionMap"* @_ZN5angleL15NoCopyFunctionsE, i32 36764, i32 16, i32 16, i32 16, i32 16, i32 0, i32 0, i32 0, i32 8, i32 1, i32 4, i8 0, i8 0, i8 0, i8 0, i8 0, i32 2 }, %"struct.angle::Format" { i32 130, i32 27345, i32 27345, void (i64, i64, i64, i8*, i64, i64, i8*, i64, i64)* @_ZN5angle11GenerateMipINS_13R16G16B16A16SEEEvmmmPKhmmPhmm, void (i8*, i8*)* @_ZN5angle9ReadColorINS_13R16G16B16A16SEiEEvPKhPh, void (i8*, i8*)* @_ZN5angle10WriteColorINS_13R16G16B16A16SEiEEvPKhPh, %"class.rx::FastCopyFunctionMap"* @_ZN5angleL15NoCopyFunctionsE, i32 5124, i32 16, i32 16, i32 16, i32 16, i32 0, i32 0, i32 0, i32 8, i32 1, i32 4, i8 0, i8 0, i8 1, i8 0, i8 0, i32 2 }, %"struct.angle::Format" { i32 131, i32 36214, i32 36214, void (i64, i64, i64, i8*, i64, i64, i8*, i64, i64)* @_ZN5angle11GenerateMipINS_12R16G16B16A16EEEvmmmPKhmmPhmm, void (i8*, i8*)* @_ZN5angle9ReadColorINS_12R16G16B16A16EjEEvPKhPh, void (i8*, i8*)* @_ZN5angle10WriteColorINS_12R16G16B16A16EjEEvPKhPh, %"class.rx::FastCopyFunctionMap"* @_ZN5angleL15NoCopyFunctionsE, i32 5125, i32 16, i32 16, i32 16, i32 16, i32 0, i32 0, i32 0, i32 8, i32 1, i32 4, i8 0, i8 0, i8 0, i8 0, i8 0, i32 3 }, %"struct.angle::Format" { i32 132, i32 32859, i32 32859, void (i64, i64, i64, i8*, i64, i64, i8*, i64, i64)* @_ZN5angle11GenerateMipINS_12R16G16B16A16EEEvmmmPKhmmPhmm, void (i8*, i8*)* @_ZN5angle9ReadColorINS_12R16G16B16A16EfEEvPKhPh, void (i8*, i8*)* @_ZN5angle10WriteColorINS_12R16G16B16A16EfEEvPKhPh, %"class.rx::FastCopyFunctionMap"* @_ZN5angleL15NoCopyFunctionsE, i32 35863, i32 16, i32 16, i32 16, i32 16, i32 0, i32 0, i32 0, i32 8, i32 1, i32 4, i8 0, i8 0, i8 0, i8 0, i8 0, i32 3 }, %"struct.angle::Format" { i32 133, i32 27349, i32 27349, void (i64, i64, i64, i8*, i64, i64, i8*, i64, i64)* @_ZN5angle11GenerateMipINS_12R16G16B16A16EEEvmmmPKhmmPhmm, void (i8*, i8*)* @_ZN5angle9ReadColorINS_12R16G16B16A16EjEEvPKhPh, void (i8*, i8*)* @_ZN5angle10WriteColorINS_12R16G16B16A16EjEEvPKhPh, %"class.rx::FastCopyFunctionMap"* @_ZN5angleL15NoCopyFunctionsE, i32 5125, i32 16, i32 16, i32 16, i32 16, i32 0, i32 0, i32 0, i32 8, i32 1, i32 4, i8 0, i8 0, i8 1, i8 0, i8 0, i32 3 }, %"struct.angle::Format" { i32 134, i32 34843, i32 34843, void (i64, i64, i64, i8*, i64, i64, i8*, i64, i64)* @_ZN5angle11GenerateMipINS_10R16G16B16FEEEvmmmPKhmmPhmm, void (i8*, i8*)* @_ZN5angle9ReadColorINS_10R16G16B16FEfEEvPKhPh, void (i8*, i8*)* @_ZN5angle10WriteColorINS_10R16G16B16FEfEEvPKhPh, %"class.rx::FastCopyFunctionMap"* @_ZN5angleL15NoCopyFunctionsE, i32 5126, i32 16, i32 16, i32 16, i32 0, i32 0, i32 0, i32 0, i32 6, i32 1, i32 3, i8 0, i8 0, i8 0, i8 0, i8 0, i32 11 }, %"struct.angle::Format" { i32 135, i32 36233, i32 36233, void (i64, i64, i64, i8*, i64, i64, i8*, i64, i64)* @_ZN5angle11GenerateMipINS_10R16G16B16SEEEvmmmPKhmmPhmm, void (i8*, i8*)* @_ZN5angle9ReadColorINS_10R16G16B16SEiEEvPKhPh, void (i8*, i8*)* @_ZN5angle10WriteColorINS_10R16G16B16SEiEEvPKhPh, %"class.rx::FastCopyFunctionMap"* @_ZN5angleL15NoCopyFunctionsE, i32 5124, i32 16, i32 16, i32 16, i32 0, i32 0, i32 0, i32 0, i32 6, i32 1, i32 3, i8 0, i8 0, i8 0, i8 0, i8 0, i32 2 }, %"struct.angle::Format" { i32 136, i32 36762, i32 36762, void (i64, i64, i64, i8*, i64, i64, i8*, i64, i64)* @_ZN5angle11GenerateMipINS_10R16G16B16SEEEvmmmPKhmmPhmm, void (i8*, i8*)* @_ZN5angle9ReadColorINS_10R16G16B16SEfEEvPKhPh, void (i8*, i8*)* @_ZN5angle10WriteColorINS_10R16G16B16SEfEEvPKhPh, %"class.rx::FastCopyFunctionMap"* @_ZN5angleL15NoCopyFunctionsE, i32 36764, i32 16, i32 16, i32 16, i32 0, i32 0, i32 0, i32 0, i32 6, i32 1, i32 3, i8 0, i8 0, i8 0, i8 0, i8 0, i32 2 }, %"struct.angle::Format" { i32 137, i32 27344, i32 27344, void (i64, i64, i64, i8*, i64, i64, i8*, i64, i64)* @_ZN5angle11GenerateMipINS_10R16G16B16SEEEvmmmPKhmmPhmm, void (i8*, i8*)* @_ZN5angle9ReadColorINS_10R16G16B16SEiEEvPKhPh, void (i8*, i8*)* @_ZN5angle10WriteColorINS_10R16G16B16SEiEEvPKhPh, %"class.rx::FastCopyFunctionMap"* @_ZN5angleL15NoCopyFunctionsE, i32 5124, i32 16, i32 16, i32 16, i32 0, i32 0, i32 0, i32 0, i32 6, i32 1, i32 3, i8 0, i8 0, i8 1, i8 0, i8 0, i32 2 }, %"struct.angle::Format" { i32 138, i32 36215, i32 36215, void (i64, i64, i64, i8*, i64, i64, i8*, i64, i64)* @_ZN5angle11GenerateMipINS_9R16G16B16EEEvmmmPKhmmPhmm, void (i8*, i8*)* @_ZN5angle9ReadColorINS_9R16G16B16EjEEvPKhPh, void (i8*, i8*)* @_ZN5angle10WriteColorINS_9R16G16B16EjEEvPKhPh, %"class.rx::FastCopyFunctionMap"* @_ZN5angleL15NoCopyFunctionsE, i32 5125, i32 16, i32 16, i32 16, i32 0, i32 0, i32 0, i32 0, i32 6, i32 1, i32 3, i8 0, i8 0, i8 0, i8 0, i8 0, i32 3 }, %"struct.angle::Format" { i32 139, i32 32852, i32 32852, void (i64, i64, i64, i8*, i64, i64, i8*, i64, i64)* @_ZN5angle11GenerateMipINS_9R16G16B16EEEvmmmPKhmmPhmm, void (i8*, i8*)* @_ZN5angle9ReadColorINS_9R16G16B16EfEEvPKhPh, void (i8*, i8*)* @_ZN5angle10WriteColorINS_9R16G16B16EfEEvPKhPh, %"class.rx::FastCopyFunctionMap"* @_ZN5angleL15NoCopyFunctionsE, i32 35863, i32 16, i32 16, i32 16, i32 0, i32 0, i32 0, i32 0, i32 6, i32 1, i32 3, i8 0, i8 0, i8 0, i8 0, i8 0, i32 3 }, %"struct.angle::Format" { i32 140, i32 27348, i32 27348, void (i64, i64, i64, i8*, i64, i64, i8*, i64, i64)* @_ZN5angle11GenerateMipINS_9R16G16B16EEEvmmmPKhmmPhmm, void (i8*, i8*)* @_ZN5angle9ReadColorINS_9R16G16B16EjEEvPKhPh, void (i8*, i8*)* @_ZN5angle10WriteColorINS_9R16G16B16EjEEvPKhPh, %"class.rx::FastCopyFunctionMap"* @_ZN5angleL15NoCopyFunctionsE, i32 5125, i32 16, i32 16, i32 16, i32 0, i32 0, i32 0, i32 0, i32 6, i32 1, i32 3, i8 0, i8 0, i8 1, i8 0, i8 0, i32 3 }, %"struct.angle::Format" { i32 141, i32 33327, i32 33327, void (i64, i64, i64, i8*, i64, i64, i8*, i64, i64)* @_ZN5angle11GenerateMipINS_7R16G16FEEEvmmmPKhmmPhmm, void (i8*, i8*)* @_ZN5angle9ReadColorINS_7R16G16FEfEEvPKhPh, void (i8*, i8*)* @_ZN5angle10WriteColorINS_7R16G16FEfEEvPKhPh, %"class.rx::FastCopyFunctionMap"* @_ZN5angleL15NoCopyFunctionsE, i32 5126, i32 16, i32 16, i32 0, i32 0, i32 0, i32 0, i32 0, i32 4, i32 1, i32 2, i8 0, i8 0, i8 0, i8 0, i8 0, i32 11 }, %"struct.angle::Format" { i32 142, i32 33337, i32 33337, void (i64, i64, i64, i8*, i64, i64, i8*, i64, i64)* @_ZN5angle11GenerateMipINS_7R16G16SEEEvmmmPKhmmPhmm, void (i8*, i8*)* @_ZN5angle9ReadColorINS_7R16G16SEiEEvPKhPh, void (i8*, i8*)* @_ZN5angle10WriteColorINS_7R16G16SEiEEvPKhPh, %"class.rx::FastCopyFunctionMap"* @_ZN5angleL15NoCopyFunctionsE, i32 5124, i32 16, i32 16, i32 0, i32 0, i32 0, i32 0, i32 0, i32 4, i32 1, i32 2, i8 0, i8 0, i8 0, i8 0, i8 0, i32 2 }, %"struct.angle::Format" { i32 143, i32 36761, i32 36761, void (i64, i64, i64, i8*, i64, i64, i8*, i64, i64)* @_ZN5angle11GenerateMipINS_7R16G16SEEEvmmmPKhmmPhmm, void (i8*, i8*)* @_ZN5angle9ReadColorINS_7R16G16SEfEEvPKhPh, void (i8*, i8*)* @_ZN5angle10WriteColorINS_7R16G16SEfEEvPKhPh, %"class.rx::FastCopyFunctionMap"* @_ZN5angleL15NoCopyFunctionsE, i32 36764, i32 16, i32 16, i32 0, i32 0, i32 0, i32 0, i32 0, i32 4, i32 1, i32 2, i8 0, i8 0, i8 0, i8 0, i8 0, i32 2 }, %"struct.angle::Format" { i32 144, i32 27343, i32 27343, void (i64, i64, i64, i8*, i64, i64, i8*, i64, i64)* @_ZN5angle11GenerateMipINS_7R16G16SEEEvmmmPKhmmPhmm, void (i8*, i8*)* @_ZN5angle9ReadColorINS_7R16G16SEiEEvPKhPh, void (i8*, i8*)* @_ZN5angle10WriteColorINS_7R16G16SEiEEvPKhPh, %"class.rx::FastCopyFunctionMap"* @_ZN5angleL15NoCopyFunctionsE, i32 5124, i32 16, i32 16, i32 0, i32 0, i32 0, i32 0, i32 0, i32 4, i32 1, i32 2, i8 0, i8 0, i8 1, i8 0, i8 0, i32 2 }, %"struct.angle::Format" { i32 145, i32 33338, i32 33338, void (i64, i64, i64, i8*, i64, i64, i8*, i64, i64)* @_ZN5angle11GenerateMipINS_6R16G16EEEvmmmPKhmmPhmm, void (i8*, i8*)* @_ZN5angle9ReadColorINS_6R16G16EjEEvPKhPh, void (i8*, i8*)* @_ZN5angle10WriteColorINS_6R16G16EjEEvPKhPh, %"class.rx::FastCopyFunctionMap"* @_ZN5angleL15NoCopyFunctionsE, i32 5125, i32 16, i32 16, i32 0, i32 0, i32 0, i32 0, i32 0, i32 4, i32 1, i32 2, i8 0, i8 0, i8 0, i8 0, i8 0, i32 3 }, %"struct.angle::Format" { i32 146, i32 33324, i32 33324, void (i64, i64, i64, i8*, i64, i64, i8*, i64, i64)* @_ZN5angle11GenerateMipINS_6R16G16EEEvmmmPKhmmPhmm, void (i8*, i8*)* @_ZN5angle9ReadColorINS_6R16G16EfEEvPKhPh, void (i8*, i8*)* @_ZN5angle10WriteColorINS_6R16G16EfEEvPKhPh, %"class.rx::FastCopyFunctionMap"* @_ZN5angleL15NoCopyFunctionsE, i32 35863, i32 16, i32 16, i32 0, i32 0, i32 0, i32 0, i32 0, i32 4, i32 1, i32 2, i8 0, i8 0, i8 0, i8 0, i8 0, i32 3 }, %"struct.angle::Format" { i32 147, i32 27347, i32 27347, void (i64, i64, i64, i8*, i64, i64, i8*, i64, i64)* @_ZN5angle11GenerateMipINS_6R16G16EEEvmmmPKhmmPhmm, void (i8*, i8*)* @_ZN5angle9ReadColorINS_6R16G16EjEEvPKhPh, void (i8*, i8*)* @_ZN5angle10WriteColorINS_6R16G16EjEEvPKhPh, %"class.rx::FastCopyFunctionMap"* @_ZN5angleL15NoCopyFunctionsE, i32 5125, i32 16, i32 16, i32 0, i32 0, i32 0, i32 0, i32 0, i32 4, i32 1, i32 2, i8 0, i8 0, i8 1, i8 0, i8 0, i32 3 }, %"struct.angle::Format" { i32 148, i32 33325, i32 33325, void (i64, i64, i64, i8*, i64, i64, i8*, i64, i64)* @_ZN5angle11GenerateMipINS_4R16FEEEvmmmPKhmmPhmm, void (i8*, i8*)* @_ZN5angle9ReadColorINS_4R16FEfEEvPKhPh, void (i8*, i8*)* @_ZN5angle10WriteColorINS_4R16FEfEEvPKhPh, %"class.rx::FastCopyFunctionMap"* @_ZN5angleL15NoCopyFunctionsE, i32 5126, i32 16, i32 0, i32 0, i32 0, i32 0, i32 0, i32 0, i32 2, i32 1, i32 1, i8 0, i8 0, i8 0, i8 0, i8 0, i32 11 }, %"struct.angle::Format" { i32 149, i32 33331, i32 33331, void (i64, i64, i64, i8*, i64, i64, i8*, i64, i64)* @_ZN5angle11GenerateMipINS_4R16SEEEvmmmPKhmmPhmm, void (i8*, i8*)* @_ZN5angle9ReadColorINS_4R16SEiEEvPKhPh, void (i8*, i8*)* @_ZN5angle10WriteColorINS_4R16SEiEEvPKhPh, %"class.rx::FastCopyFunctionMap"* @_ZN5angleL15NoCopyFunctionsE, i32 5124, i32 16, i32 0, i32 0, i32 0, i32 0, i32 0, i32 0, i32 2, i32 1, i32 1, i8 0, i8 0, i8 0, i8 0, i8 0, i32 2 }, %"struct.angle::Format" { i32 150, i32 36760, i32 36760, void (i64, i64, i64, i8*, i64, i64, i8*, i64, i64)* @_ZN5angle11GenerateMipINS_4R16SEEEvmmmPKhmmPhmm, void (i8*, i8*)* @_ZN5angle9ReadColorINS_4R16SEfEEvPKhPh, void (i8*, i8*)* @_ZN5angle10WriteColorINS_4R16SEfEEvPKhPh, %"class.rx::FastCopyFunctionMap"* @_ZN5angleL15NoCopyFunctionsE, i32 36764, i32 16, i32 0, i32 0, i32 0, i32 0, i32 0, i32 0, i32 2, i32 1, i32 1, i8 0, i8 0, i8 0, i8 0, i8 0, i32 2 }, %"struct.angle::Format" { i32 151, i32 27342, i32 27342, void (i64, i64, i64, i8*, i64, i64, i8*, i64, i64)* @_ZN5angle11GenerateMipINS_4R16SEEEvmmmPKhmmPhmm, void (i8*, i8*)* @_ZN5angle9ReadColorINS_4R16SEiEEvPKhPh, void (i8*, i8*)* @_ZN5angle10WriteColorINS_4R16SEiEEvPKhPh, %"class.rx::FastCopyFunctionMap"* @_ZN5angleL15NoCopyFunctionsE, i32 5124, i32 16, i32 0, i32 0, i32 0, i32 0, i32 0, i32 0, i32 2, i32 1, i32 1, i8 0, i8 0, i8 1, i8 0, i8 0, i32 2 }, %"struct.angle::Format" { i32 152, i32 33332, i32 33332, void (i64, i64, i64, i8*, i64, i64, i8*, i64, i64)* @_ZN5angle11GenerateMipINS_3R16EEEvmmmPKhmmPhmm, void (i8*, i8*)* @_ZN5angle9ReadColorINS_3R16EjEEvPKhPh, void (i8*, i8*)* @_ZN5angle10WriteColorINS_3R16EjEEvPKhPh, %"class.rx::FastCopyFunctionMap"* @_ZN5angleL15NoCopyFunctionsE, i32 5125, i32 16, i32 0, i32 0, i32 0, i32 0, i32 0, i32 0, i32 2, i32 1, i32 1, i8 0, i8 0, i8 0, i8 0, i8 0, i32 3 }, %"struct.angle::Format" { i32 153, i32 33322, i32 33322, void (i64, i64, i64, i8*, i64, i64, i8*, i64, i64)* @_ZN5angle11GenerateMipINS_3R16EEEvmmmPKhmmPhmm, void (i8*, i8*)* @_ZN5angle9ReadColorINS_3R16EfEEvPKhPh, void (i8*, i8*)* @_ZN5angle10WriteColorINS_3R16EfEEvPKhPh, %"class.rx::FastCopyFunctionMap"* @_ZN5angleL15NoCopyFunctionsE, i32 35863, i32 16, i32 0, i32 0, i32 0, i32 0, i32 0, i32 0, i32 2, i32 1, i32 1, i8 0, i8 0, i8 0, i8 0, i8 0, i32 3 }, %"struct.angle::Format" { i32 154, i32 27346, i32 27346, void (i64, i64, i64, i8*, i64, i64, i8*, i64, i64)* @_ZN5angle11GenerateMipINS_3R16EEEvmmmPKhmmPhmm, void (i8*, i8*)* @_ZN5angle9ReadColorINS_3R16EjEEvPKhPh, void (i8*, i8*)* @_ZN5angle10WriteColorINS_3R16EjEEvPKhPh, %"class.rx::FastCopyFunctionMap"* @_ZN5angleL15NoCopyFunctionsE, i32 5125, i32 16, i32 0, i32 0, i32 0, i32 0, i32 0, i32 0, i32 2, i32 1, i32 1, i8 0, i8 0, i8 1, i8 0, i8 0, i32 3 }, %"struct.angle::Format" { i32 155, i32 27369, i32 27369, void (i64, i64, i64, i8*, i64, i64, i8*, i64, i64)* @_ZN5angle11GenerateMipINS_13R32G32B32A32FEEEvmmmPKhmmPhmm, void (i8*, i8*)* @_ZN5angle9ReadColorINS_13R32G32B32A32FEfEEvPKhPh, void (i8*, i8*)* @_ZN5angle10WriteColorINS_13R32G32B32A32FEfEEvPKhPh, %"class.rx::FastCopyFunctionMap"* @_ZN5angleL15NoCopyFunctionsE, i32 5126, i32 32, i32 32, i32 32, i32 32, i32 0, i32 0, i32 0, i32 16, i32 3, i32 4, i8 0, i8 1, i8 0, i8 0, i8 0, i32 12 }, %"struct.angle::Format" { i32 156, i32 34836, i32 34836, void (i64, i64, i64, i8*, i64, i64, i8*, i64, i64)* @_ZN5angle11GenerateMipINS_13R32G32B32A32FEEEvmmmPKhmmPhmm, void (i8*, i8*)* @_ZN5angle9ReadColorINS_13R32G32B32A32FEfEEvPKhPh, void (i8*, i8*)* @_ZN5angle10WriteColorINS_13R32G32B32A32FEfEEvPKhPh, %"class.rx::FastCopyFunctionMap"* @_ZN5angleL15NoCopyFunctionsE, i32 5126, i32 32, i32 32, i32 32, i32 32, i32 0, i32 0, i32 0, i32 16, i32 3, i32 4, i8 0, i8 0, i8 0, i8 0, i8 0, i32 6 }, %"struct.angle::Format" { i32 157, i32 36226, i32 36226, void (i64, i64, i64, i8*, i64, i64, i8*, i64, i64)* @_ZN5angle11GenerateMipINS_13R32G32B32A32SEEEvmmmPKhmmPhmm, void (i8*, i8*)* @_ZN5angle9ReadColorINS_13R32G32B32A32SEiEEvPKhPh, void (i8*, i8*)* @_ZN5angle10WriteColorINS_13R32G32B32A32SEiEEvPKhPh, %"class.rx::FastCopyFunctionMap"* @_ZN5angleL15NoCopyFunctionsE, i32 5124, i32 32, i32 32, i32 32, i32 32, i32 0, i32 0, i32 0, i32 16, i32 3, i32 4, i8 0, i8 0, i8 0, i8 0, i8 0, i32 4 }, %"struct.angle::Format" { i32 158, i32 27361, i32 27361, void (i64, i64, i64, i8*, i64, i64, i8*, i64, i64)* @_ZN5angle11GenerateMipINS_13R32G32B32A32SEEEvmmmPKhmmPhmm, void (i8*, i8*)* @_ZN5angle9ReadColorINS_13R32G32B32A32SEfEEvPKhPh, void (i8*, i8*)* @_ZN5angle10WriteColorINS_13R32G32B32A32SEfEEvPKhPh, %"class.rx::FastCopyFunctionMap"* @_ZN5angleL15NoCopyFunctionsE, i32 36764, i32 32, i32 32, i32 32, i32 32, i32 0, i32 0, i32 0, i32 16, i32 3, i32 4, i8 0, i8 0, i8 0, i8 0, i8 0, i32 4 }, %"struct.angle::Format" { i32 159, i32 27353, i32 27353, void (i64, i64, i64, i8*, i64, i64, i8*, i64, i64)* @_ZN5angle11GenerateMipINS_13R32G32B32A32SEEEvmmmPKhmmPhmm, void (i8*, i8*)* @_ZN5angle9ReadColorINS_13R32G32B32A32SEiEEvPKhPh, void (i8*, i8*)* @_ZN5angle10WriteColorINS_13R32G32B32A32SEiEEvPKhPh, %"class.rx::FastCopyFunctionMap"* @_ZN5angleL15NoCopyFunctionsE, i32 5124, i32 32, i32 32, i32 32, i32 32, i32 0, i32 0, i32 0, i32 16, i32 3, i32 4, i8 0, i8 0, i8 1, i8 0, i8 0, i32 4 }, %"struct.angle::Format" { i32 160, i32 36208, i32 36208, void (i64, i64, i64, i8*, i64, i64, i8*, i64, i64)* @_ZN5angle11GenerateMipINS_12R32G32B32A32EEEvmmmPKhmmPhmm, void (i8*, i8*)* @_ZN5angle9ReadColorINS_12R32G32B32A32EjEEvPKhPh, void (i8*, i8*)* @_ZN5angle10WriteColorINS_12R32G32B32A32EjEEvPKhPh, %"class.rx::FastCopyFunctionMap"* @_ZN5angleL15NoCopyFunctionsE, i32 5125, i32 32, i32 32, i32 32, i32 32, i32 0, i32 0, i32 0, i32 16, i32 3, i32 4, i8 0, i8 0, i8 0, i8 0, i8 0, i32 5 }, %"struct.angle::Format" { i32 161, i32 27365, i32 27365, void (i64, i64, i64, i8*, i64, i64, i8*, i64, i64)* @_ZN5angle11GenerateMipINS_12R32G32B32A32EEEvmmmPKhmmPhmm, void (i8*, i8*)* @_ZN5angle9ReadColorINS_12R32G32B32A32EfEEvPKhPh, void (i8*, i8*)* @_ZN5angle10WriteColorINS_12R32G32B32A32EfEEvPKhPh, %"class.rx::FastCopyFunctionMap"* @_ZN5angleL15NoCopyFunctionsE, i32 35863, i32 32, i32 32, i32 32, i32 32, i32 0, i32 0, i32 0, i32 16, i32 3, i32 4, i8 0, i8 0, i8 0, i8 0, i8 0, i32 5 }, %"struct.angle::Format" { i32 162, i32 27357, i32 27357, void (i64, i64, i64, i8*, i64, i64, i8*, i64, i64)* @_ZN5angle11GenerateMipINS_12R32G32B32A32EEEvmmmPKhmmPhmm, void (i8*, i8*)* @_ZN5angle9ReadColorINS_12R32G32B32A32EjEEvPKhPh, void (i8*, i8*)* @_ZN5angle10WriteColorINS_12R32G32B32A32EjEEvPKhPh, %"class.rx::FastCopyFunctionMap"* @_ZN5angleL15NoCopyFunctionsE, i32 5125, i32 32, i32 32, i32 32, i32 32, i32 0, i32 0, i32 0, i32 16, i32 3, i32 4, i8 0, i8 0, i8 1, i8 0, i8 0, i32 5 }, %"struct.angle::Format" { i32 163, i32 27368, i32 27368, void (i64, i64, i64, i8*, i64, i64, i8*, i64, i64)* @_ZN5angle11GenerateMipINS_10R32G32B32FEEEvmmmPKhmmPhmm, void (i8*, i8*)* @_ZN5angle9ReadColorINS_10R32G32B32FEfEEvPKhPh, void (i8*, i8*)* @_ZN5angle10WriteColorINS_10R32G32B32FEfEEvPKhPh, %"class.rx::FastCopyFunctionMap"* @_ZN5angleL15NoCopyFunctionsE, i32 5126, i32 32, i32 32, i32 32, i32 0, i32 0, i32 0, i32 0, i32 12, i32 3, i32 3, i8 0, i8 1, i8 0, i8 0, i8 0, i32 12 }, %"struct.angle::Format" { i32 164, i32 34837, i32 34837, void (i64, i64, i64, i8*, i64, i64, i8*, i64, i64)* @_ZN5angle11GenerateMipINS_10R32G32B32FEEEvmmmPKhmmPhmm, void (i8*, i8*)* @_ZN5angle9ReadColorINS_10R32G32B32FEfEEvPKhPh, void (i8*, i8*)* @_ZN5angle10WriteColorINS_10R32G32B32FEfEEvPKhPh, %"class.rx::FastCopyFunctionMap"* @_ZN5angleL15NoCopyFunctionsE, i32 5126, i32 32, i32 32, i32 32, i32 0, i32 0, i32 0, i32 0, i32 12, i32 3, i32 3, i8 0, i8 0, i8 0, i8 0, i8 0, i32 6 }, %"struct.angle::Format" { i32 165, i32 36227, i32 36227, void (i64, i64, i64, i8*, i64, i64, i8*, i64, i64)* @_ZN5angle11GenerateMipINS_10R32G32B32SEEEvmmmPKhmmPhmm, void (i8*, i8*)* @_ZN5angle9ReadColorINS_10R32G32B32SEiEEvPKhPh, void (i8*, i8*)* @_ZN5angle10WriteColorINS_10R32G32B32SEiEEvPKhPh, %"class.rx::FastCopyFunctionMap"* @_ZN5angleL15NoCopyFunctionsE, i32 5124, i32 32, i32 32, i32 32, i32 0, i32 0, i32 0, i32 0, i32 12, i32 3, i32 3, i8 0, i8 0, i8 0, i8 0, i8 0, i32 4 }, %"struct.angle::Format" { i32 166, i32 27360, i32 27360, void (i64, i64, i64, i8*, i64, i64, i8*, i64, i64)* @_ZN5angle11GenerateMipINS_10R32G32B32SEEEvmmmPKhmmPhmm, void (i8*, i8*)* @_ZN5angle9ReadColorINS_10R32G32B32SEfEEvPKhPh, void (i8*, i8*)* @_ZN5angle10WriteColorINS_10R32G32B32SEfEEvPKhPh, %"class.rx::FastCopyFunctionMap"* @_ZN5angleL15NoCopyFunctionsE, i32 36764, i32 32, i32 32, i32 32, i32 0, i32 0, i32 0, i32 0, i32 12, i32 3, i32 3, i8 0, i8 0, i8 0, i8 0, i8 0, i32 4 }, %"struct.angle::Format" { i32 167, i32 27352, i32 27352, void (i64, i64, i64, i8*, i64, i64, i8*, i64, i64)* @_ZN5angle11GenerateMipINS_10R32G32B32SEEEvmmmPKhmmPhmm, void (i8*, i8*)* @_ZN5angle9ReadColorINS_10R32G32B32SEiEEvPKhPh, void (i8*, i8*)* @_ZN5angle10WriteColorINS_10R32G32B32SEiEEvPKhPh, %"class.rx::FastCopyFunctionMap"* @_ZN5angleL15NoCopyFunctionsE, i32 5124, i32 32, i32 32, i32 32, i32 0, i32 0, i32 0, i32 0, i32 12, i32 3, i32 3, i8 0, i8 0, i8 1, i8 0, i8 0, i32 4 }, %"struct.angle::Format" { i32 168, i32 36209, i32 36209, void (i64, i64, i64, i8*, i64, i64, i8*, i64, i64)* @_ZN5angle11GenerateMipINS_9R32G32B32EEEvmmmPKhmmPhmm, void (i8*, i8*)* @_ZN5angle9ReadColorINS_9R32G32B32EjEEvPKhPh, void (i8*, i8*)* @_ZN5angle10WriteColorINS_9R32G32B32EjEEvPKhPh, %"class.rx::FastCopyFunctionMap"* @_ZN5angleL15NoCopyFunctionsE, i32 5125, i32 32, i32 32, i32 32, i32 0, i32 0, i32 0, i32 0, i32 12, i32 3, i32 3, i8 0, i8 0, i8 0, i8 0, i8 0, i32 5 }, %"struct.angle::Format" { i32 169, i32 27364, i32 27364, void (i64, i64, i64, i8*, i64, i64, i8*, i64, i64)* @_ZN5angle11GenerateMipINS_9R32G32B32EEEvmmmPKhmmPhmm, void (i8*, i8*)* @_ZN5angle9ReadColorINS_9R32G32B32EfEEvPKhPh, void (i8*, i8*)* @_ZN5angle10WriteColorINS_9R32G32B32EfEEvPKhPh, %"class.rx::FastCopyFunctionMap"* @_ZN5angleL15NoCopyFunctionsE, i32 35863, i32 32, i32 32, i32 32, i32 0, i32 0, i32 0, i32 0, i32 12, i32 3, i32 3, i8 0, i8 0, i8 0, i8 0, i8 0, i32 5 }, %"struct.angle::Format" { i32 170, i32 27356, i32 27356, void (i64, i64, i64, i8*, i64, i64, i8*, i64, i64)* @_ZN5angle11GenerateMipINS_9R32G32B32EEEvmmmPKhmmPhmm, void (i8*, i8*)* @_ZN5angle9ReadColorINS_9R32G32B32EjEEvPKhPh, void (i8*, i8*)* @_ZN5angle10WriteColorINS_9R32G32B32EjEEvPKhPh, %"class.rx::FastCopyFunctionMap"* @_ZN5angleL15NoCopyFunctionsE, i32 5125, i32 32, i32 32, i32 32, i32 0, i32 0, i32 0, i32 0, i32 12, i32 3, i32 3, i8 0, i8 0, i8 1, i8 0, i8 0, i32 5 }, %"struct.angle::Format" { i32 171, i32 27367, i32 27367, void (i64, i64, i64, i8*, i64, i64, i8*, i64, i64)* @_ZN5angle11GenerateMipINS_7R32G32FEEEvmmmPKhmmPhmm, void (i8*, i8*)* @_ZN5angle9ReadColorINS_7R32G32FEfEEvPKhPh, void (i8*, i8*)* @_ZN5angle10WriteColorINS_7R32G32FEfEEvPKhPh, %"class.rx::FastCopyFunctionMap"* @_ZN5angleL15NoCopyFunctionsE, i32 5126, i32 32, i32 32, i32 0, i32 0, i32 0, i32 0, i32 0, i32 8, i32 3, i32 2, i8 0, i8 1, i8 0, i8 0, i8 0, i32 12 }, %"struct.angle::Format" { i32 172, i32 33328, i32 33328, void (i64, i64, i64, i8*, i64, i64, i8*, i64, i64)* @_ZN5angle11GenerateMipINS_7R32G32FEEEvmmmPKhmmPhmm, void (i8*, i8*)* @_ZN5angle9ReadColorINS_7R32G32FEfEEvPKhPh, void (i8*, i8*)* @_ZN5angle10WriteColorINS_7R32G32FEfEEvPKhPh, %"class.rx::FastCopyFunctionMap"* @_ZN5angleL15NoCopyFunctionsE, i32 5126, i32 32, i32 32, i32 0, i32 0, i32 0, i32 0, i32 0, i32 8, i32 3, i32 2, i8 0, i8 0, i8 0, i8 0, i8 0, i32 6 }, %"struct.angle::Format" { i32 173, i32 33339, i32 33339, void (i64, i64, i64, i8*, i64, i64, i8*, i64, i64)* @_ZN5angle11GenerateMipINS_7R32G32SEEEvmmmPKhmmPhmm, void (i8*, i8*)* @_ZN5angle9ReadColorINS_7R32G32SEiEEvPKhPh, void (i8*, i8*)* @_ZN5angle10WriteColorINS_7R32G32SEiEEvPKhPh, %"class.rx::FastCopyFunctionMap"* @_ZN5angleL15NoCopyFunctionsE, i32 5124, i32 32, i32 32, i32 0, i32 0, i32 0, i32 0, i32 0, i32 8, i32 3, i32 2, i8 0, i8 0, i8 0, i8 0, i8 0, i32 4 }, %"struct.angle::Format" { i32 174, i32 27359, i32 27359, void (i64, i64, i64, i8*, i64, i64, i8*, i64, i64)* @_ZN5angle11GenerateMipINS_7R32G32SEEEvmmmPKhmmPhmm, void (i8*, i8*)* @_ZN5angle9ReadColorINS_7R32G32SEfEEvPKhPh, void (i8*, i8*)* @_ZN5angle10WriteColorINS_7R32G32SEfEEvPKhPh, %"class.rx::FastCopyFunctionMap"* @_ZN5angleL15NoCopyFunctionsE, i32 36764, i32 32, i32 32, i32 0, i32 0, i32 0, i32 0, i32 0, i32 8, i32 3, i32 2, i8 0, i8 0, i8 0, i8 0, i8 0, i32 4 }, %"struct.angle::Format" { i32 175, i32 27351, i32 27351, void (i64, i64, i64, i8*, i64, i64, i8*, i64, i64)* @_ZN5angle11GenerateMipINS_7R32G32SEEEvmmmPKhmmPhmm, void (i8*, i8*)* @_ZN5angle9ReadColorINS_7R32G32SEiEEvPKhPh, void (i8*, i8*)* @_ZN5angle10WriteColorINS_7R32G32SEiEEvPKhPh, %"class.rx::FastCopyFunctionMap"* @_ZN5angleL15NoCopyFunctionsE, i32 5124, i32 32, i32 32, i32 0, i32 0, i32 0, i32 0, i32 0, i32 8, i32 3, i32 2, i8 0, i8 0, i8 1, i8 0, i8 0, i32 4 }, %"struct.angle::Format" { i32 176, i32 33340, i32 33340, void (i64, i64, i64, i8*, i64, i64, i8*, i64, i64)* @_ZN5angle11GenerateMipINS_6R32G32EEEvmmmPKhmmPhmm, void (i8*, i8*)* @_ZN5angle9ReadColorINS_6R32G32EjEEvPKhPh, void (i8*, i8*)* @_ZN5angle10WriteColorINS_6R32G32EjEEvPKhPh, %"class.rx::FastCopyFunctionMap"* @_ZN5angleL15NoCopyFunctionsE, i32 5125, i32 32, i32 32, i32 0, i32 0, i32 0, i32 0, i32 0, i32 8, i32 3, i32 2, i8 0, i8 0, i8 0, i8 0, i8 0, i32 5 }, %"struct.angle::Format" { i32 177, i32 27363, i32 27363, void (i64, i64, i64, i8*, i64, i64, i8*, i64, i64)* @_ZN5angle11GenerateMipINS_6R32G32EEEvmmmPKhmmPhmm, void (i8*, i8*)* @_ZN5angle9ReadColorINS_6R32G32EfEEvPKhPh, void (i8*, i8*)* @_ZN5angle10WriteColorINS_6R32G32EfEEvPKhPh, %"class.rx::FastCopyFunctionMap"* @_ZN5angleL15NoCopyFunctionsE, i32 35863, i32 32, i32 32, i32 0, i32 0, i32 0, i32 0, i32 0, i32 8, i32 3, i32 2, i8 0, i8 0, i8 0, i8 0, i8 0, i32 5 }, %"struct.angle::Format" { i32 178, i32 27355, i32 27355, void (i64, i64, i64, i8*, i64, i64, i8*, i64, i64)* @_ZN5angle11GenerateMipINS_6R32G32EEEvmmmPKhmmPhmm, void (i8*, i8*)* @_ZN5angle9ReadColorINS_6R32G32EjEEvPKhPh, void (i8*, i8*)* @_ZN5angle10WriteColorINS_6R32G32EjEEvPKhPh, %"class.rx::FastCopyFunctionMap"* @_ZN5angleL15NoCopyFunctionsE, i32 5125, i32 32, i32 32, i32 0, i32 0, i32 0, i32 0, i32 0, i32 8, i32 3, i32 2, i8 0, i8 0, i8 1, i8 0, i8 0, i32 5 }, %"struct.angle::Format" { i32 179, i32 27366, i32 27366, void (i64, i64, i64, i8*, i64, i64, i8*, i64, i64)* @_ZN5angle11GenerateMipINS_4R32FEEEvmmmPKhmmPhmm, void (i8*, i8*)* @_ZN5angle9ReadColorINS_4R32FEfEEvPKhPh, void (i8*, i8*)* @_ZN5angle10WriteColorINS_4R32FEfEEvPKhPh, %"class.rx::FastCopyFunctionMap"* @_ZN5angleL15NoCopyFunctionsE, i32 5126, i32 32, i32 0, i32 0, i32 0, i32 0, i32 0, i32 0, i32 4, i32 3, i32 1, i8 0, i8 1, i8 0, i8 0, i8 0, i32 12 }, %"struct.angle::Format" { i32 180, i32 33326, i32 33326, void (i64, i64, i64, i8*, i64, i64, i8*, i64, i64)* @_ZN5angle11GenerateMipINS_4R32FEEEvmmmPKhmmPhmm, void (i8*, i8*)* @_ZN5angle9ReadColorINS_4R32FEfEEvPKhPh, void (i8*, i8*)* @_ZN5angle10WriteColorINS_4R32FEfEEvPKhPh, %"class.rx::FastCopyFunctionMap"* @_ZN5angleL15NoCopyFunctionsE, i32 5126, i32 32, i32 0, i32 0, i32 0, i32 0, i32 0, i32 0, i32 4, i32 3, i32 1, i8 0, i8 0, i8 0, i8 0, i8 0, i32 6 }, %"struct.angle::Format" { i32 181, i32 33333, i32 33333, void (i64, i64, i64, i8*, i64, i64, i8*, i64, i64)* @_ZN5angle11GenerateMipINS_4R32SEEEvmmmPKhmmPhmm, void (i8*, i8*)* @_ZN5angle9ReadColorINS_4R32SEiEEvPKhPh, void (i8*, i8*)* @_ZN5angle10WriteColorINS_4R32SEiEEvPKhPh, %"class.rx::FastCopyFunctionMap"* @_ZN5angleL15NoCopyFunctionsE, i32 5124, i32 32, i32 0, i32 0, i32 0, i32 0, i32 0, i32 0, i32 4, i32 3, i32 1, i8 0, i8 0, i8 0, i8 0, i8 0, i32 4 }, %"struct.angle::Format" { i32 182, i32 27358, i32 27358, void (i64, i64, i64, i8*, i64, i64, i8*, i64, i64)* @_ZN5angle11GenerateMipINS_4R32SEEEvmmmPKhmmPhmm, void (i8*, i8*)* @_ZN5angle9ReadColorINS_4R32SEfEEvPKhPh, void (i8*, i8*)* @_ZN5angle10WriteColorINS_4R32SEfEEvPKhPh, %"class.rx::FastCopyFunctionMap"* @_ZN5angleL15NoCopyFunctionsE, i32 36764, i32 32, i32 0, i32 0, i32 0, i32 0, i32 0, i32 0, i32 4, i32 3, i32 1, i8 0, i8 0, i8 0, i8 0, i8 0, i32 4 }, %"struct.angle::Format" { i32 183, i32 27350, i32 27350, void (i64, i64, i64, i8*, i64, i64, i8*, i64, i64)* @_ZN5angle11GenerateMipINS_4R32SEEEvmmmPKhmmPhmm, void (i8*, i8*)* @_ZN5angle9ReadColorINS_4R32SEiEEvPKhPh, void (i8*, i8*)* @_ZN5angle10WriteColorINS_4R32SEiEEvPKhPh, %"class.rx::FastCopyFunctionMap"* @_ZN5angleL15NoCopyFunctionsE, i32 5124, i32 32, i32 0, i32 0, i32 0, i32 0, i32 0, i32 0, i32 4, i32 3, i32 1, i8 0, i8 0, i8 1, i8 0, i8 0, i32 4 }, %"struct.angle::Format" { i32 184, i32 33334, i32 33334, void (i64, i64, i64, i8*, i64, i64, i8*, i64, i64)* @_ZN5angle11GenerateMipINS_3R32EEEvmmmPKhmmPhmm, void (i8*, i8*)* @_ZN5angle9ReadColorINS_3R32EjEEvPKhPh, void (i8*, i8*)* @_ZN5angle10WriteColorINS_3R32EjEEvPKhPh, %"class.rx::FastCopyFunctionMap"* @_ZN5angleL15NoCopyFunctionsE, i32 5125, i32 32, i32 0, i32 0, i32 0, i32 0, i32 0, i32 0, i32 4, i32 3, i32 1, i8 0, i8 0, i8 0, i8 0, i8 0, i32 5 }, %"struct.angle::Format" { i32 185, i32 27362, i32 27362, void (i64, i64, i64, i8*, i64, i64, i8*, i64, i64)* @_ZN5angle11GenerateMipINS_3R32EEEvmmmPKhmmPhmm, void (i8*, i8*)* @_ZN5angle9ReadColorINS_3R32EfEEvPKhPh, void (i8*, i8*)* @_ZN5angle10WriteColorINS_3R32EfEEvPKhPh, %"class.rx::FastCopyFunctionMap"* @_ZN5angleL15NoCopyFunctionsE, i32 35863, i32 32, i32 0, i32 0, i32 0, i32 0, i32 0, i32 0, i32 4, i32 3, i32 1, i8 0, i8 0, i8 0, i8 0, i8 0, i32 5 }, %"struct.angle::Format" { i32 186, i32 27354, i32 27354, void (i64, i64, i64, i8*, i64, i64, i8*, i64, i64)* @_ZN5angle11GenerateMipINS_3R32EEEvmmmPKhmmPhmm, void (i8*, i8*)* @_ZN5angle9ReadColorINS_3R32EjEEvPKhPh, void (i8*, i8*)* @_ZN5angle10WriteColorINS_3R32EjEEvPKhPh, %"class.rx::FastCopyFunctionMap"* @_ZN5angleL15NoCopyFunctionsE, i32 5125, i32 32, i32 0, i32 0, i32 0, i32 0, i32 0, i32 0, i32 4, i32 3, i32 1, i8 0, i8 0, i8 1, i8 0, i8 0, i32 5 }, %"struct.angle::Format" { i32 187, i32 32854, i32 32854, void (i64, i64, i64, i8*, i64, i64, i8*, i64, i64)* @_ZN5angle11GenerateMipINS_8R4G4B4A4EEEvmmmPKhmmPhmm, void (i8*, i8*)* @_ZN5angle9ReadColorINS_8R4G4B4A4EfEEvPKhPh, void (i8*, i8*)* @_ZN5angle10WriteColorINS_8R4G4B4A4EfEEvPKhPh, %"class.rx::FastCopyFunctionMap"* @_ZN5angleL15NoCopyFunctionsE, i32 35863, i32 4, i32 4, i32 4, i32 4, i32 0, i32 0, i32 0, i32 2, i32 -1, i32 4, i8 0, i8 0, i8 0, i8 0, i8 0, i32 18 }, %"struct.angle::Format" { i32 188, i32 32855, i32 32855, void (i64, i64, i64, i8*, i64, i64, i8*, i64, i64)* @_ZN5angle11GenerateMipINS_8R5G5B5A1EEEvmmmPKhmmPhmm, void (i8*, i8*)* @_ZN5angle9ReadColorINS_8R5G5B5A1EfEEvPKhPh, void (i8*, i8*)* @_ZN5angle10WriteColorINS_8R5G5B5A1EfEEvPKhPh, %"class.rx::FastCopyFunctionMap"* @_ZN5angleL15NoCopyFunctionsE, i32 35863, i32 5, i32 5, i32 5, i32 1, i32 0, i32 0, i32 0, i32 2, i32 -1, i32 4, i8 0, i8 0, i8 0, i8 0, i8 0, i32 18 }, %"struct.angle::Format" { i32 189, i32 36194, i32 36194, void (i64, i64, i64, i8*, i64, i64, i8*, i64, i64)* @_ZN5angle11GenerateMipINS_6R5G6B5EEEvmmmPKhmmPhmm, void (i8*, i8*)* @_ZN5angle9ReadColorINS_6R5G6B5EfEEvPKhPh, void (i8*, i8*)* @_ZN5angle10WriteColorINS_6R5G6B5EfEEvPKhPh, %"class.rx::FastCopyFunctionMap"* @_ZN5angleL15NoCopyFunctionsE, i32 35863, i32 5, i32 6, i32 5, i32 0, i32 0, i32 0, i32 0, i32 2, i32 -1, i32 3, i8 0, i8 0, i8 0, i8 0, i8 0, i32 18 }, %"struct.angle::Format" { i32 190, i32 36238, i32 36238, void (i64, i64, i64, i8*, i64, i64, i8*, i64, i64)* @_ZN5angle11GenerateMipINS_9R8G8B8A8SEEEvmmmPKhmmPhmm, void (i8*, i8*)* @_ZN5angle9ReadColorINS_9R8G8B8A8SEiEEvPKhPh, void (i8*, i8*)* @_ZN5angle10WriteColorINS_9R8G8B8A8SEiEEvPKhPh, %"class.rx::FastCopyFunctionMap"* @_ZN5angleL15NoCopyFunctionsE, i32 5124, i32 8, i32 8, i32 8, i32 8, i32 0, i32 0, i32 0, i32 4, i32 0, i32 4, i8 0, i8 0, i8 0, i8 0, i8 0, i32 0 }, %"struct.angle::Format" { i32 191, i32 36759, i32 36759, void (i64, i64, i64, i8*, i64, i64, i8*, i64, i64)* @_ZN5angle11GenerateMipINS_9R8G8B8A8SEEEvmmmPKhmmPhmm, void (i8*, i8*)* @_ZN5angle9ReadColorINS_9R8G8B8A8SEfEEvPKhPh, void (i8*, i8*)* @_ZN5angle10WriteColorINS_9R8G8B8A8SEfEEvPKhPh, %"class.rx::FastCopyFunctionMap"* @_ZN5angleL15NoCopyFunctionsE, i32 36764, i32 8, i32 8, i32 8, i32 8, i32 0, i32 0, i32 0, i32 4, i32 0, i32 4, i8 0, i8 0, i8 0, i8 0, i8 0, i32 0 }, %"struct.angle::Format" { i32 192, i32 27337, i32 27337, void (i64, i64, i64, i8*, i64, i64, i8*, i64, i64)* @_ZN5angle11GenerateMipINS_9R8G8B8A8SEEEvmmmPKhmmPhmm, void (i8*, i8*)* @_ZN5angle9ReadColorINS_9R8G8B8A8SEiEEvPKhPh, void (i8*, i8*)* @_ZN5angle10WriteColorINS_9R8G8B8A8SEiEEvPKhPh, %"class.rx::FastCopyFunctionMap"* @_ZN5angleL15NoCopyFunctionsE, i32 5124, i32 8, i32 8, i32 8, i32 8, i32 0, i32 0, i32 0, i32 4, i32 0, i32 4, i8 0, i8 0, i8 1, i8 0, i8 0, i32 0 }, %"struct.angle::Format" { i32 193, i32 32856, i32 32856, void (i64, i64, i64, i8*, i64, i64, i8*, i64, i64)* @_ZN5angle11GenerateMipINS_8R8G8B8A8EEEvmmmPKhmmPhmm, void (i8*, i8*)* @_ZN5angle9ReadColorINS_8R8G8B8A8EfEEvPKhPh, void (i8*, i8*)* @_ZN5angle10WriteColorINS_8R8G8B8A8EfEEvPKhPh, %"class.rx::FastCopyFunctionMap"* @_ZN5angleL15NoCopyFunctionsE, i32 35863, i32 8, i32 8, i32 8, i32 8, i32 0, i32 0, i32 0, i32 4, i32 0, i32 4, i8 0, i8 0, i8 0, i8 0, i8 0, i32 1 }, %"struct.angle::Format" { i32 194, i32 35907, i32 35907, void (i64, i64, i64, i8*, i64, i64, i8*, i64, i64)* @_ZN5angle11GenerateMipINS_8R8G8B8A8EEEvmmmPKhmmPhmm, void (i8*, i8*)* @_ZN5angle9ReadColorINS_8R8G8B8A8EfEEvPKhPh, void (i8*, i8*)* @_ZN5angle10WriteColorINS_8R8G8B8A8EfEEvPKhPh, %"class.rx::FastCopyFunctionMap"* @_ZN5angleL15NoCopyFunctionsE, i32 35863, i32 8, i32 8, i32 8, i32 8, i32 0, i32 0, i32 0, i32 4, i32 0, i32 4, i8 0, i8 0, i8 0, i8 1, i8 0, i32 0 }, %"struct.angle::Format" { i32 195, i32 36220, i32 36220, void (i64, i64, i64, i8*, i64, i64, i8*, i64, i64)* @_ZN5angle11GenerateMipINS_8R8G8B8A8EEEvmmmPKhmmPhmm, void (i8*, i8*)* @_ZN5angle9ReadColorINS_8R8G8B8A8EjEEvPKhPh, void (i8*, i8*)* @_ZN5angle10WriteColorINS_8R8G8B8A8EjEEvPKhPh, %"class.rx::FastCopyFunctionMap"* @_ZN5angleL15NoCopyFunctionsE, i32 5125, i32 8, i32 8, i32 8, i32 8, i32 0, i32 0, i32 0, i32 4, i32 0, i32 4, i8 0, i8 0, i8 0, i8 0, i8 0, i32 1 }, %"struct.angle::Format" { i32 196, i32 32856, i32 32856, void (i64, i64, i64, i8*, i64, i64, i8*, i64, i64)* @_ZN5angle11GenerateMipINS_8R8G8B8A8EEEvmmmPKhmmPhmm, void (i8*, i8*)* @_ZN5angle9ReadColorINS_8R8G8B8A8EfEEvPKhPh, void (i8*, i8*)* @_ZN5angle10WriteColorINS_8R8G8B8A8EfEEvPKhPh, %"class.rx::FastCopyFunctionMap"* @_ZN5angleL15NoCopyFunctionsE, i32 35863, i32 8, i32 8, i32 8, i32 8, i32 0, i32 0, i32 0, i32 4, i32 0, i32 4, i8 0, i8 0, i8 0, i8 0, i8 0, i32 1 }, %"struct.angle::Format" { i32 197, i32 35907, i32 35907, void (i64, i64, i64, i8*, i64, i64, i8*, i64, i64)* @_ZN5angle11GenerateMipINS_12R8G8B8A8SRGBEEEvmmmPKhmmPhmm, void (i8*, i8*)* @_ZN5angle9ReadColorINS_12R8G8B8A8SRGBEfEEvPKhPh, void (i8*, i8*)* @_ZN5angle10WriteColorINS_12R8G8B8A8SRGBEfEEvPKhPh, %"class.rx::FastCopyFunctionMap"* @_ZN5angleL15NoCopyFunctionsE, i32 35863, i32 8, i32 8, i32 8, i32 8, i32 0, i32 0, i32 0, i32 4, i32 0, i32 4, i8 0, i8 0, i8 0, i8 1, i8 0, i32 0 }, %"struct.angle::Format" { i32 198, i32 27341, i32 27341, void (i64, i64, i64, i8*, i64, i64, i8*, i64, i64)* @_ZN5angle11GenerateMipINS_8R8G8B8A8EEEvmmmPKhmmPhmm, void (i8*, i8*)* @_ZN5angle9ReadColorINS_8R8G8B8A8EjEEvPKhPh, void (i8*, i8*)* @_ZN5angle10WriteColorINS_8R8G8B8A8EjEEvPKhPh, %"class.rx::FastCopyFunctionMap"* @_ZN5angleL15NoCopyFunctionsE, i32 5125, i32 8, i32 8, i32 8, i32 8, i32 0, i32 0, i32 0, i32 4, i32 0, i32 4, i8 0, i8 0, i8 1, i8 0, i8 0, i32 1 }, %"struct.angle::Format" { i32 199, i32 36239, i32 36239, void (i64, i64, i64, i8*, i64, i64, i8*, i64, i64)* @_ZN5angle11GenerateMipINS_7R8G8B8SEEEvmmmPKhmmPhmm, void (i8*, i8*)* @_ZN5angle9ReadColorINS_7R8G8B8SEiEEvPKhPh, void (i8*, i8*)* @_ZN5angle10WriteColorINS_7R8G8B8SEiEEvPKhPh, %"class.rx::FastCopyFunctionMap"* @_ZN5angleL15NoCopyFunctionsE, i32 5124, i32 8, i32 8, i32 8, i32 0, i32 0, i32 0, i32 0, i32 3, i32 0, i32 3, i8 0, i8 0, i8 0, i8 0, i8 0, i32 0 }, %"struct.angle::Format" { i32 200, i32 36758, i32 36758, void (i64, i64, i64, i8*, i64, i64, i8*, i64, i64)* @_ZN5angle11GenerateMipINS_7R8G8B8SEEEvmmmPKhmmPhmm, void (i8*, i8*)* @_ZN5angle9ReadColorINS_7R8G8B8SEfEEvPKhPh, void (i8*, i8*)* @_ZN5angle10WriteColorINS_7R8G8B8SEfEEvPKhPh, %"class.rx::FastCopyFunctionMap"* @_ZN5angleL15NoCopyFunctionsE, i32 36764, i32 8, i32 8, i32 8, i32 0, i32 0, i32 0, i32 0, i32 3, i32 0, i32 3, i8 0, i8 0, i8 0, i8 0, i8 0, i32 0 }, %"struct.angle::Format" { i32 201, i32 27336, i32 27336, void (i64, i64, i64, i8*, i64, i64, i8*, i64, i64)* @_ZN5angle11GenerateMipINS_7R8G8B8SEEEvmmmPKhmmPhmm, void (i8*, i8*)* @_ZN5angle9ReadColorINS_7R8G8B8SEiEEvPKhPh, void (i8*, i8*)* @_ZN5angle10WriteColorINS_7R8G8B8SEiEEvPKhPh, %"class.rx::FastCopyFunctionMap"* @_ZN5angleL15NoCopyFunctionsE, i32 5124, i32 8, i32 8, i32 8, i32 0, i32 0, i32 0, i32 0, i32 3, i32 0, i32 3, i8 0, i8 0, i8 1, i8 0, i8 0, i32 0 }, %"struct.angle::Format" { i32 202, i32 36221, i32 36221, void (i64, i64, i64, i8*, i64, i64, i8*, i64, i64)* @_ZN5angle11GenerateMipINS_6R8G8B8EEEvmmmPKhmmPhmm, void (i8*, i8*)* @_ZN5angle9ReadColorINS_6R8G8B8EjEEvPKhPh, void (i8*, i8*)* @_ZN5angle10WriteColorINS_6R8G8B8EjEEvPKhPh, %"class.rx::FastCopyFunctionMap"* @_ZN5angleL15NoCopyFunctionsE, i32 5125, i32 8, i32 8, i32 8, i32 0, i32 0, i32 0, i32 0, i32 3, i32 0, i32 3, i8 0, i8 0, i8 0, i8 0, i8 0, i32 1 }, %"struct.angle::Format" { i32 203, i32 32849, i32 32849, void (i64, i64, i64, i8*, i64, i64, i8*, i64, i64)* @_ZN5angle11GenerateMipINS_6R8G8B8EEEvmmmPKhmmPhmm, void (i8*, i8*)* @_ZN5angle9ReadColorINS_6R8G8B8EfEEvPKhPh, void (i8*, i8*)* @_ZN5angle10WriteColorINS_6R8G8B8EfEEvPKhPh, %"class.rx::FastCopyFunctionMap"* @_ZN5angleL15NoCopyFunctionsE, i32 35863, i32 8, i32 8, i32 8, i32 0, i32 0, i32 0, i32 0, i32 3, i32 0, i32 3, i8 0, i8 0, i8 0, i8 0, i8 0, i32 1 }, %"struct.angle::Format" { i32 204, i32 35905, i32 35905, void (i64, i64, i64, i8*, i64, i64, i8*, i64, i64)* @_ZN5angle11GenerateMipINS_6R8G8B8EEEvmmmPKhmmPhmm, void (i8*, i8*)* @_ZN5angle9ReadColorINS_6R8G8B8EfEEvPKhPh, void (i8*, i8*)* @_ZN5angle10WriteColorINS_6R8G8B8EfEEvPKhPh, %"class.rx::FastCopyFunctionMap"* @_ZN5angleL15NoCopyFunctionsE, i32 35863, i32 8, i32 8, i32 8, i32 0, i32 0, i32 0, i32 0, i32 3, i32 0, i32 3, i8 0, i8 0, i8 0, i8 1, i8 0, i32 0 }, %"struct.angle::Format" { i32 205, i32 27340, i32 27340, void (i64, i64, i64, i8*, i64, i64, i8*, i64, i64)* @_ZN5angle11GenerateMipINS_6R8G8B8EEEvmmmPKhmmPhmm, void (i8*, i8*)* @_ZN5angle9ReadColorINS_6R8G8B8EjEEvPKhPh, void (i8*, i8*)* @_ZN5angle10WriteColorINS_6R8G8B8EjEEvPKhPh, %"class.rx::FastCopyFunctionMap"* @_ZN5angleL15NoCopyFunctionsE, i32 5125, i32 8, i32 8, i32 8, i32 0, i32 0, i32 0, i32 0, i32 3, i32 0, i32 3, i8 0, i8 0, i8 1, i8 0, i8 0, i32 1 }, %"struct.angle::Format" { i32 206, i32 33335, i32 33335, void (i64, i64, i64, i8*, i64, i64, i8*, i64, i64)* @_ZN5angle11GenerateMipINS_5R8G8SEEEvmmmPKhmmPhmm, void (i8*, i8*)* @_ZN5angle9ReadColorINS_5R8G8SEiEEvPKhPh, void (i8*, i8*)* @_ZN5angle10WriteColorINS_5R8G8SEiEEvPKhPh, %"class.rx::FastCopyFunctionMap"* @_ZN5angleL15NoCopyFunctionsE, i32 5124, i32 8, i32 8, i32 0, i32 0, i32 0, i32 0, i32 0, i32 2, i32 0, i32 2, i8 0, i8 0, i8 0, i8 0, i8 0, i32 0 }, %"struct.angle::Format" { i32 207, i32 36757, i32 36757, void (i64, i64, i64, i8*, i64, i64, i8*, i64, i64)* @_ZN5angle11GenerateMipINS_5R8G8SEEEvmmmPKhmmPhmm, void (i8*, i8*)* @_ZN5angle9ReadColorINS_5R8G8SEfEEvPKhPh, void (i8*, i8*)* @_ZN5angle10WriteColorINS_5R8G8SEfEEvPKhPh, %"class.rx::FastCopyFunctionMap"* @_ZN5angleL15NoCopyFunctionsE, i32 36764, i32 8, i32 8, i32 0, i32 0, i32 0, i32 0, i32 0, i32 2, i32 0, i32 2, i8 0, i8 0, i8 0, i8 0, i8 0, i32 0 }, %"struct.angle::Format" { i32 208, i32 27335, i32 27335, void (i64, i64, i64, i8*, i64, i64, i8*, i64, i64)* @_ZN5angle11GenerateMipINS_5R8G8SEEEvmmmPKhmmPhmm, void (i8*, i8*)* @_ZN5angle9ReadColorINS_5R8G8SEiEEvPKhPh, void (i8*, i8*)* @_ZN5angle10WriteColorINS_5R8G8SEiEEvPKhPh, %"class.rx::FastCopyFunctionMap"* @_ZN5angleL15NoCopyFunctionsE, i32 5124, i32 8, i32 8, i32 0, i32 0, i32 0, i32 0, i32 0, i32 2, i32 0, i32 2, i8 0, i8 0, i8 1, i8 0, i8 0, i32 0 }, %"struct.angle::Format" { i32 209, i32 33336, i32 33336, void (i64, i64, i64, i8*, i64, i64, i8*, i64, i64)* @_ZN5angle11GenerateMipINS_4R8G8EEEvmmmPKhmmPhmm, void (i8*, i8*)* @_ZN5angle9ReadColorINS_4R8G8EjEEvPKhPh, void (i8*, i8*)* @_ZN5angle10WriteColorINS_4R8G8EjEEvPKhPh, %"class.rx::FastCopyFunctionMap"* @_ZN5angleL15NoCopyFunctionsE, i32 5125, i32 8, i32 8, i32 0, i32 0, i32 0, i32 0, i32 0, i32 2, i32 0, i32 2, i8 0, i8 0, i8 0, i8 0, i8 0, i32 1 }, %"struct.angle::Format" { i32 210, i32 33323, i32 33323, void (i64, i64, i64, i8*, i64, i64, i8*, i64, i64)* @_ZN5angle11GenerateMipINS_4R8G8EEEvmmmPKhmmPhmm, void (i8*, i8*)* @_ZN5angle9ReadColorINS_4R8G8EfEEvPKhPh, void (i8*, i8*)* @_ZN5angle10WriteColorINS_4R8G8EfEEvPKhPh, %"class.rx::FastCopyFunctionMap"* @_ZN5angleL15NoCopyFunctionsE, i32 35863, i32 8, i32 8, i32 0, i32 0, i32 0, i32 0, i32 0, i32 2, i32 0, i32 2, i8 0, i8 0, i8 0, i8 0, i8 0, i32 1 }, %"struct.angle::Format" { i32 211, i32 36798, i32 36798, void (i64, i64, i64, i8*, i64, i64, i8*, i64, i64)* @_ZN5angle11GenerateMipINS_4R8G8EEEvmmmPKhmmPhmm, void (i8*, i8*)* @_ZN5angle9ReadColorINS_4R8G8EfEEvPKhPh, void (i8*, i8*)* @_ZN5angle10WriteColorINS_4R8G8EfEEvPKhPh, %"class.rx::FastCopyFunctionMap"* @_ZN5angleL15NoCopyFunctionsE, i32 35863, i32 8, i32 8, i32 0, i32 0, i32 0, i32 0, i32 0, i32 2, i32 0, i32 2, i8 0, i8 0, i8 0, i8 1, i8 0, i32 0 }, %"struct.angle::Format" { i32 212, i32 27339, i32 27339, void (i64, i64, i64, i8*, i64, i64, i8*, i64, i64)* @_ZN5angle11GenerateMipINS_4R8G8EEEvmmmPKhmmPhmm, void (i8*, i8*)* @_ZN5angle9ReadColorINS_4R8G8EjEEvPKhPh, void (i8*, i8*)* @_ZN5angle10WriteColorINS_4R8G8EjEEvPKhPh, %"class.rx::FastCopyFunctionMap"* @_ZN5angleL15NoCopyFunctionsE, i32 5125, i32 8, i32 8, i32 0, i32 0, i32 0, i32 0, i32 0, i32 2, i32 0, i32 2, i8 0, i8 0, i8 1, i8 0, i8 0, i32 1 }, %"struct.angle::Format" { i32 213, i32 33329, i32 33329, void (i64, i64, i64, i8*, i64, i64, i8*, i64, i64)* @_ZN5angle11GenerateMipINS_3R8SEEEvmmmPKhmmPhmm, void (i8*, i8*)* @_ZN5angle9ReadColorINS_3R8SEiEEvPKhPh, void (i8*, i8*)* @_ZN5angle10WriteColorINS_3R8SEiEEvPKhPh, %"class.rx::FastCopyFunctionMap"* @_ZN5angleL15NoCopyFunctionsE, i32 5124, i32 8, i32 0, i32 0, i32 0, i32 0, i32 0, i32 0, i32 1, i32 0, i32 1, i8 0, i8 0, i8 0, i8 0, i8 0, i32 0 }, %"struct.angle::Format" { i32 214, i32 36756, i32 36756, void (i64, i64, i64, i8*, i64, i64, i8*, i64, i64)* @_ZN5angle11GenerateMipINS_3R8SEEEvmmmPKhmmPhmm, void (i8*, i8*)* @_ZN5angle9ReadColorINS_3R8SEfEEvPKhPh, void (i8*, i8*)* @_ZN5angle10WriteColorINS_3R8SEfEEvPKhPh, %"class.rx::FastCopyFunctionMap"* @_ZN5angleL15NoCopyFunctionsE, i32 36764, i32 8, i32 0, i32 0, i32 0, i32 0, i32 0, i32 0, i32 1, i32 0, i32 1, i8 0, i8 0, i8 0, i8 0, i8 0, i32 0 }, %"struct.angle::Format" { i32 215, i32 27334, i32 27334, void (i64, i64, i64, i8*, i64, i64, i8*, i64, i64)* @_ZN5angle11GenerateMipINS_3R8SEEEvmmmPKhmmPhmm, void (i8*, i8*)* @_ZN5angle9ReadColorINS_3R8SEiEEvPKhPh, void (i8*, i8*)* @_ZN5angle10WriteColorINS_3R8SEiEEvPKhPh, %"class.rx::FastCopyFunctionMap"* @_ZN5angleL15NoCopyFunctionsE, i32 5124, i32 8, i32 0, i32 0, i32 0, i32 0, i32 0, i32 0, i32 1, i32 0, i32 1, i8 0, i8 0, i8 1, i8 0, i8 0, i32 0 }, %"struct.angle::Format" { i32 216, i32 33330, i32 33330, void (i64, i64, i64, i8*, i64, i64, i8*, i64, i64)* @_ZN5angle11GenerateMipINS_2R8EEEvmmmPKhmmPhmm, void (i8*, i8*)* @_ZN5angle9ReadColorINS_2R8EjEEvPKhPh, void (i8*, i8*)* @_ZN5angle10WriteColorINS_2R8EjEEvPKhPh, %"class.rx::FastCopyFunctionMap"* @_ZN5angleL15NoCopyFunctionsE, i32 5125, i32 8, i32 0, i32 0, i32 0, i32 0, i32 0, i32 0, i32 1, i32 0, i32 1, i8 0, i8 0, i8 0, i8 0, i8 0, i32 1 }, %"struct.angle::Format" { i32 217, i32 33321, i32 33321, void (i64, i64, i64, i8*, i64, i64, i8*, i64, i64)* @_ZN5angle11GenerateMipINS_2R8EEEvmmmPKhmmPhmm, void (i8*, i8*)* @_ZN5angle9ReadColorINS_2R8EfEEvPKhPh, void (i8*, i8*)* @_ZN5angle10WriteColorINS_2R8EfEEvPKhPh, %"class.rx::FastCopyFunctionMap"* @_ZN5angleL15NoCopyFunctionsE, i32 35863, i32 8, i32 0, i32 0, i32 0, i32 0, i32 0, i32 0, i32 1, i32 0, i32 1, i8 0, i8 0, i8 0, i8 0, i8 0, i32 1 }, %"struct.angle::Format" { i32 218, i32 36797, i32 36797, void (i64, i64, i64, i8*, i64, i64, i8*, i64, i64)* @_ZN5angle11GenerateMipINS_2R8EEEvmmmPKhmmPhmm, void (i8*, i8*)* @_ZN5angle9ReadColorINS_2R8EfEEvPKhPh, void (i8*, i8*)* @_ZN5angle10WriteColorINS_2R8EfEEvPKhPh, %"class.rx::FastCopyFunctionMap"* @_ZN5angleL15NoCopyFunctionsE, i32 35863, i32 8, i32 0, i32 0, i32 0, i32 0, i32 0, i32 0, i32 1, i32 0, i32 1, i8 0, i8 0, i8 0, i8 1, i8 0, i32 0 }, %"struct.angle::Format" { i32 219, i32 27338, i32 27338, void (i64, i64, i64, i8*, i64, i64, i8*, i64, i64)* @_ZN5angle11GenerateMipINS_2R8EEEvmmmPKhmmPhmm, void (i8*, i8*)* @_ZN5angle9ReadColorINS_2R8EjEEvPKhPh, void (i8*, i8*)* @_ZN5angle10WriteColorINS_2R8EjEEvPKhPh, %"class.rx::FastCopyFunctionMap"* @_ZN5angleL15NoCopyFunctionsE, i32 5125, i32 8, i32 0, i32 0, i32 0, i32 0, i32 0, i32 0, i32 1, i32 0, i32 1, i8 0, i8 0, i8 1, i8 0, i8 0, i32 1 }, %"struct.angle::Format" { i32 220, i32 35901, i32 35901, void (i64, i64, i64, i8*, i64, i64, i8*, i64, i64)* @_ZN5angle11GenerateMipINS_8R9G9B9E5EEEvmmmPKhmmPhmm, void (i8*, i8*)* @_ZN5angle9ReadColorINS_8R9G9B9E5EfEEvPKhPh, void (i8*, i8*)* @_ZN5angle10WriteColorINS_8R9G9B9E5EfEEvPKhPh, %"class.rx::FastCopyFunctionMap"* @_ZN5angleL15NoCopyFunctionsE, i32 5126, i32 9, i32 9, i32 9, i32 0, i32 0, i32 0, i32 0, i32 4, i32 -1, i32 3, i8 0, i8 0, i8 0, i8 0, i8 0, i32 18 }, %"struct.angle::Format" { i32 221, i32 27380, i32 27380, void (i64, i64, i64, i8*, i64, i64, i8*, i64, i64)* null, void (i8*, i8*)* null, void (i8*, i8*)* null, %"class.rx::FastCopyFunctionMap"* @_ZN5angleL15NoCopyFunctionsE, i32 5124, i32 10, i32 10, i32 10, i32 0, i32 0, i32 0, i32 0, i32 4, i32 -1, i32 3, i8 0, i8 0, i8 0, i8 0, i8 0, i32 17 }, %"struct.angle::Format" { i32 222, i32 27384, i32 27384, void (i64, i64, i64, i8*, i64, i64, i8*, i64, i64)* null, void (i8*, i8*)* null, void (i8*, i8*)* null, %"class.rx::FastCopyFunctionMap"* @_ZN5angleL15NoCopyFunctionsE, i32 36764, i32 10, i32 10, i32 10, i32 0, i32 0, i32 0, i32 0, i32 4, i32 -1, i32 3, i8 0, i8 0, i8 0, i8 0, i8 0, i32 17 }, %"struct.angle::Format" { i32 223, i32 27382, i32 27382, void (i64, i64, i64, i8*, i64, i64, i8*, i64, i64)* null, void (i8*, i8*)* null, void (i8*, i8*)* null, %"class.rx::FastCopyFunctionMap"* @_ZN5angleL15NoCopyFunctionsE, i32 5124, i32 10, i32 10, i32 10, i32 0, i32 0, i32 0, i32 0, i32 4, i32 -1, i32 3, i8 0, i8 0, i8 1, i8 0, i8 0, i32 17 }, %"struct.angle::Format" { i32 224, i32 27379, i32 27379, void (i64, i64, i64, i8*, i64, i64, i8*, i64, i64)* null, void (i8*, i8*)* null, void (i8*, i8*)* null, %"class.rx::FastCopyFunctionMap"* @_ZN5angleL15NoCopyFunctionsE, i32 5125, i32 10, i32 10, i32 10, i32 0, i32 0, i32 0, i32 0, i32 4, i32 -1, i32 3, i8 0, i8 0, i8 0, i8 0, i8 0, i32 16 }, %"struct.angle::Format" { i32 225, i32 27383, i32 27383, void (i64, i64, i64, i8*, i64, i64, i8*, i64, i64)* null, void (i8*, i8*)* null, void (i8*, i8*)* null, %"class.rx::FastCopyFunctionMap"* @_ZN5angleL15NoCopyFunctionsE, i32 35863, i32 10, i32 10, i32 10, i32 0, i32 0, i32 0, i32 0, i32 4, i32 -1, i32 3, i8 0, i8 0, i8 0, i8 0, i8 0, i32 16 }, %"struct.angle::Format" { i32 226, i32 27381, i32 27381, void (i64, i64, i64, i8*, i64, i64, i8*, i64, i64)* null, void (i8*, i8*)* null, void (i8*, i8*)* null, %"class.rx::FastCopyFunctionMap"* @_ZN5angleL15NoCopyFunctionsE, i32 5125, i32 10, i32 10, i32 10, i32 0, i32 0, i32 0, i32 0, i32 4, i32 -1, i32 3, i8 0, i8 0, i8 1, i8 0, i8 0, i32 16 }], align 16
@_ZN5angleL9BGRAEntryE = internal constant %"struct.rx::FastCopyFunctionMap::Entry" { i32 196, void (i8*, i8*)* @_ZN5angle16CopyBGRA8ToRGBA8EPKhPh }, align 8
@switch.table._ZN5angle11GenerateMipINS_4A16FEEEvmmmPKhmmPhmm = private unnamed_addr constant [8 x void (i64, i64, i64, i8*, i64, i64, i64, i64, i64, i8*, i64, i64)*] [void (i64, i64, i64, i8*, i64, i64, i64, i64, i64, i8*, i64, i64)* null, void (i64, i64, i64, i8*, i64, i64, i64, i64, i64, i8*, i64, i64)* @_ZN5angle4privL13GenerateMip_XINS_4A16FEEEvmmmPKhmmmmmPhmm, void (i64, i64, i64, i8*, i64, i64, i64, i64, i64, i8*, i64, i64)* @_ZN5angle4privL13GenerateMip_YINS_4A16FEEEvmmmPKhmmmmmPhmm, void (i64, i64, i64, i8*, i64, i64, i64, i64, i64, i8*, i64, i64)* @_ZN5angle4privL14GenerateMip_XYINS_4A16FEEEvmmmPKhmmmmmPhmm, void (i64, i64, i64, i8*, i64, i64, i64, i64, i64, i8*, i64, i64)* @_ZN5angle4privL13GenerateMip_ZINS_4A16FEEEvmmmPKhmmmmmPhmm, void (i64, i64, i64, i8*, i64, i64, i64, i64, i64, i8*, i64, i64)* @_ZN5angle4privL14GenerateMip_XZINS_4A16FEEEvmmmPKhmmmmmPhmm, void (i64, i64, i64, i8*, i64, i64, i64, i64, i64, i8*, i64, i64)* @_ZN5angle4privL14GenerateMip_YZINS_4A16FEEEvmmmPKhmmmmmPhmm, void (i64, i64, i64, i8*, i64, i64, i64, i64, i64, i8*, i64, i64)* @_ZN5angle4privL15GenerateMip_XYZINS_4A16FEEEvmmmPKhmmmmmPhmm], align 8
@switch.table._ZN5angle11GenerateMipINS_8A1R5G5B5EEEvmmmPKhmmPhmm = private unnamed_addr constant [8 x void (i64, i64, i64, i8*, i64, i64, i64, i64, i64, i8*, i64, i64)*] [void (i64, i64, i64, i8*, i64, i64, i64, i64, i64, i8*, i64, i64)* null, void (i64, i64, i64, i8*, i64, i64, i64, i64, i64, i8*, i64, i64)* @_ZN5angle4privL13GenerateMip_XINS_8A1R5G5B5EEEvmmmPKhmmmmmPhmm, void (i64, i64, i64, i8*, i64, i64, i64, i64, i64, i8*, i64, i64)* @_ZN5angle4privL13GenerateMip_YINS_8A1R5G5B5EEEvmmmPKhmmmmmPhmm, void (i64, i64, i64, i8*, i64, i64, i64, i64, i64, i8*, i64, i64)* @_ZN5angle4privL14GenerateMip_XYINS_8A1R5G5B5EEEvmmmPKhmmmmmPhmm, void (i64, i64, i64, i8*, i64, i64, i64, i64, i64, i8*, i64, i64)* @_ZN5angle4privL13GenerateMip_ZINS_8A1R5G5B5EEEvmmmPKhmmmmmPhmm, void (i64, i64, i64, i8*, i64, i64, i64, i64, i64, i8*, i64, i64)* @_ZN5angle4privL14GenerateMip_XZINS_8A1R5G5B5EEEvmmmPKhmmmmmPhmm, void (i64, i64, i64, i8*, i64, i64, i64, i64, i64, i8*, i64, i64)* @_ZN5angle4privL14GenerateMip_YZINS_8A1R5G5B5EEEvmmmPKhmmmmmPhmm, void (i64, i64, i64, i8*, i64, i64, i64, i64, i64, i8*, i64, i64)* @_ZN5angle4privL15GenerateMip_XYZINS_8A1R5G5B5EEEvmmmPKhmmmmmPhmm], align 8
@switch.table._ZN5angle11GenerateMipINS_4A32FEEEvmmmPKhmmPhmm = private unnamed_addr constant [8 x void (i64, i64, i64, i8*, i64, i64, i64, i64, i64, i8*, i64, i64)*] [void (i64, i64, i64, i8*, i64, i64, i64, i64, i64, i8*, i64, i64)* null, void (i64, i64, i64, i8*, i64, i64, i64, i64, i64, i8*, i64, i64)* @_ZN5angle4privL13GenerateMip_XINS_4A32FEEEvmmmPKhmmmmmPhmm, void (i64, i64, i64, i8*, i64, i64, i64, i64, i64, i8*, i64, i64)* @_ZN5angle4privL13GenerateMip_YINS_4A32FEEEvmmmPKhmmmmmPhmm, void (i64, i64, i64, i8*, i64, i64, i64, i64, i64, i8*, i64, i64)* @_ZN5angle4privL14GenerateMip_XYINS_4A32FEEEvmmmPKhmmmmmPhmm, void (i64, i64, i64, i8*, i64, i64, i64, i64, i64, i8*, i64, i64)* @_ZN5angle4privL13GenerateMip_ZINS_4A32FEEEvmmmPKhmmmmmPhmm, void (i64, i64, i64, i8*, i64, i64, i64, i64, i64, i8*, i64, i64)* @_ZN5angle4privL14GenerateMip_XZINS_4A32FEEEvmmmPKhmmmmmPhmm, void (i64, i64, i64, i8*, i64, i64, i64, i64, i64, i8*, i64, i64)* @_ZN5angle4privL14GenerateMip_YZINS_4A32FEEEvmmmPKhmmmmmPhmm, void (i64, i64, i64, i8*, i64, i64, i64, i64, i64, i8*, i64, i64)* @_ZN5angle4privL15GenerateMip_XYZINS_4A32FEEEvmmmPKhmmmmmPhmm], align 8
@switch.table._ZN5angle11GenerateMipINS_2A8EEEvmmmPKhmmPhmm = private unnamed_addr constant [8 x void (i64, i64, i64, i8*, i64, i64, i64, i64, i64, i8*, i64, i64)*] [void (i64, i64, i64, i8*, i64, i64, i64, i64, i64, i8*, i64, i64)* null, void (i64, i64, i64, i8*, i64, i64, i64, i64, i64, i8*, i64, i64)* @_ZN5angle4privL13GenerateMip_XINS_2A8EEEvmmmPKhmmmmmPhmm, void (i64, i64, i64, i8*, i64, i64, i64, i64, i64, i8*, i64, i64)* @_ZN5angle4privL13GenerateMip_YINS_2A8EEEvmmmPKhmmmmmPhmm, void (i64, i64, i64, i8*, i64, i64, i64, i64, i64, i8*, i64, i64)* @_ZN5angle4privL14GenerateMip_XYINS_2A8EEEvmmmPKhmmmmmPhmm, void (i64, i64, i64, i8*, i64, i64, i64, i64, i64, i8*, i64, i64)* @_ZN5angle4privL13GenerateMip_ZINS_2A8EEEvmmmPKhmmmmmPhmm, void (i64, i64, i64, i8*, i64, i64, i64, i64, i64, i8*, i64, i64)* @_ZN5angle4privL14GenerateMip_XZINS_2A8EEEvmmmPKhmmmmmPhmm, void (i64, i64, i64, i8*, i64, i64, i64, i64, i64, i8*, i64, i64)* @_ZN5angle4privL14GenerateMip_YZINS_2A8EEEvmmmPKhmmmmmPhmm, void (i64, i64, i64, i8*, i64, i64, i64, i64, i64, i8*, i64, i64)* @_ZN5angle4privL15GenerateMip_XYZINS_2A8EEEvmmmPKhmmmmmPhmm], align 8
@switch.table._ZN5angle11GenerateMipINS_11B10G10R10A2EEEvmmmPKhmmPhmm = private unnamed_addr constant [8 x void (i64, i64, i64, i8*, i64, i64, i64, i64, i64, i8*, i64, i64)*] [void (i64, i64, i64, i8*, i64, i64, i64, i64, i64, i8*, i64, i64)* null, void (i64, i64, i64, i8*, i64, i64, i64, i64, i64, i8*, i64, i64)* @_ZN5angle4privL13GenerateMip_XINS_11B10G10R10A2EEEvmmmPKhmmmmmPhmm, void (i64, i64, i64, i8*, i64, i64, i64, i64, i64, i8*, i64, i64)* @_ZN5angle4privL13GenerateMip_YINS_11B10G10R10A2EEEvmmmPKhmmmmmPhmm, void (i64, i64, i64, i8*, i64, i64, i64, i64, i64, i8*, i64, i64)* @_ZN5angle4privL14GenerateMip_XYINS_11B10G10R10A2EEEvmmmPKhmmmmmPhmm, void (i64, i64, i64, i8*, i64, i64, i64, i64, i64, i8*, i64, i64)* @_ZN5angle4privL13GenerateMip_ZINS_11B10G10R10A2EEEvmmmPKhmmmmmPhmm, void (i64, i64, i64, i8*, i64, i64, i64, i64, i64, i8*, i64, i64)* @_ZN5angle4privL14GenerateMip_XZINS_11B10G10R10A2EEEvmmmPKhmmmmmPhmm, void (i64, i64, i64, i8*, i64, i64, i64, i64, i64, i8*, i64, i64)* @_ZN5angle4privL14GenerateMip_YZINS_11B10G10R10A2EEEvmmmPKhmmmmmPhmm, void (i64, i64, i64, i8*, i64, i64, i64, i64, i64, i8*, i64, i64)* @_ZN5angle4privL15GenerateMip_XYZINS_11B10G10R10A2EEEvmmmPKhmmmmmPhmm], align 8
@switch.table._ZN5angle11GenerateMipINS_8A4R4G4B4EEEvmmmPKhmmPhmm = private unnamed_addr constant [8 x void (i64, i64, i64, i8*, i64, i64, i64, i64, i64, i8*, i64, i64)*] [void (i64, i64, i64, i8*, i64, i64, i64, i64, i64, i8*, i64, i64)* null, void (i64, i64, i64, i8*, i64, i64, i64, i64, i64, i8*, i64, i64)* @_ZN5angle4privL13GenerateMip_XINS_8A4R4G4B4EEEvmmmPKhmmmmmPhmm, void (i64, i64, i64, i8*, i64, i64, i64, i64, i64, i8*, i64, i64)* @_ZN5angle4privL13GenerateMip_YINS_8A4R4G4B4EEEvmmmPKhmmmmmPhmm, void (i64, i64, i64, i8*, i64, i64, i64, i64, i64, i8*, i64, i64)* @_ZN5angle4privL14GenerateMip_XYINS_8A4R4G4B4EEEvmmmPKhmmmmmPhmm, void (i64, i64, i64, i8*, i64, i64, i64, i64, i64, i8*, i64, i64)* @_ZN5angle4privL13GenerateMip_ZINS_8A4R4G4B4EEEvmmmPKhmmmmmPhmm, void (i64, i64, i64, i8*, i64, i64, i64, i64, i64, i8*, i64, i64)* @_ZN5angle4privL14GenerateMip_XZINS_8A4R4G4B4EEEvmmmPKhmmmmmPhmm, void (i64, i64, i64, i8*, i64, i64, i64, i64, i64, i8*, i64, i64)* @_ZN5angle4privL14GenerateMip_YZINS_8A4R4G4B4EEEvmmmPKhmmmmmPhmm, void (i64, i64, i64, i8*, i64, i64, i64, i64, i64, i8*, i64, i64)* @_ZN5angle4privL15GenerateMip_XYZINS_8A4R4G4B4EEEvmmmPKhmmmmmPhmm], align 8
@switch.table._ZN5angle11GenerateMipINS_6B5G6R5EEEvmmmPKhmmPhmm = private unnamed_addr constant [8 x void (i64, i64, i64, i8*, i64, i64, i64, i64, i64, i8*, i64, i64)*] [void (i64, i64, i64, i8*, i64, i64, i64, i64, i64, i8*, i64, i64)* null, void (i64, i64, i64, i8*, i64, i64, i64, i64, i64, i8*, i64, i64)* @_ZN5angle4privL13GenerateMip_XINS_6B5G6R5EEEvmmmPKhmmmmmPhmm, void (i64, i64, i64, i8*, i64, i64, i64, i64, i64, i8*, i64, i64)* @_ZN5angle4privL13GenerateMip_YINS_6B5G6R5EEEvmmmPKhmmmmmPhmm, void (i64, i64, i64, i8*, i64, i64, i64, i64, i64, i8*, i64, i64)* @_ZN5angle4privL14GenerateMip_XYINS_6B5G6R5EEEvmmmPKhmmmmmPhmm, void (i64, i64, i64, i8*, i64, i64, i64, i64, i64, i8*, i64, i64)* @_ZN5angle4privL13GenerateMip_ZINS_6B5G6R5EEEvmmmPKhmmmmmPhmm, void (i64, i64, i64, i8*, i64, i64, i64, i64, i64, i8*, i64, i64)* @_ZN5angle4privL14GenerateMip_XZINS_6B5G6R5EEEvmmmPKhmmmmmPhmm, void (i64, i64, i64, i8*, i64, i64, i64, i64, i64, i8*, i64, i64)* @_ZN5angle4privL14GenerateMip_YZINS_6B5G6R5EEEvmmmPKhmmmmmPhmm, void (i64, i64, i64, i8*, i64, i64, i64, i64, i64, i8*, i64, i64)* @_ZN5angle4privL15GenerateMip_XYZINS_6B5G6R5EEEvmmmPKhmmmmmPhmm], align 8
@switch.table._ZN5angle11GenerateMipINS_8B8G8R8A8EEEvmmmPKhmmPhmm = private unnamed_addr constant [8 x void (i64, i64, i64, i8*, i64, i64, i64, i64, i64, i8*, i64, i64)*] [void (i64, i64, i64, i8*, i64, i64, i64, i64, i64, i8*, i64, i64)* null, void (i64, i64, i64, i8*, i64, i64, i64, i64, i64, i8*, i64, i64)* @_ZN5angle4privL13GenerateMip_XINS_8B8G8R8A8EEEvmmmPKhmmmmmPhmm, void (i64, i64, i64, i8*, i64, i64, i64, i64, i64, i8*, i64, i64)* @_ZN5angle4privL13GenerateMip_YINS_8B8G8R8A8EEEvmmmPKhmmmmmPhmm, void (i64, i64, i64, i8*, i64, i64, i64, i64, i64, i8*, i64, i64)* @_ZN5angle4privL14GenerateMip_XYINS_8B8G8R8A8EEEvmmmPKhmmmmmPhmm, void (i64, i64, i64, i8*, i64, i64, i64, i64, i64, i8*, i64, i64)* @_ZN5angle4privL13GenerateMip_ZINS_8B8G8R8A8EEEvmmmPKhmmmmmPhmm, void (i64, i64, i64, i8*, i64, i64, i64, i64, i64, i8*, i64, i64)* @_ZN5angle4privL14GenerateMip_XZINS_8B8G8R8A8EEEvmmmPKhmmmmmPhmm, void (i64, i64, i64, i8*, i64, i64, i64, i64, i64, i8*, i64, i64)* @_ZN5angle4privL14GenerateMip_YZINS_8B8G8R8A8EEEvmmmPKhmmmmmPhmm, void (i64, i64, i64, i8*, i64, i64, i64, i64, i64, i8*, i64, i64)* @_ZN5angle4privL15GenerateMip_XYZINS_8B8G8R8A8EEEvmmmPKhmmmmmPhmm], align 8
@switch.table._ZN5angle11GenerateMipINS_8B8G8R8X8EEEvmmmPKhmmPhmm = private unnamed_addr constant [8 x void (i64, i64, i64, i8*, i64, i64, i64, i64, i64, i8*, i64, i64)*] [void (i64, i64, i64, i8*, i64, i64, i64, i64, i64, i8*, i64, i64)* null, void (i64, i64, i64, i8*, i64, i64, i64, i64, i64, i8*, i64, i64)* @_ZN5angle4privL13GenerateMip_XINS_8B8G8R8X8EEEvmmmPKhmmmmmPhmm, void (i64, i64, i64, i8*, i64, i64, i64, i64, i64, i8*, i64, i64)* @_ZN5angle4privL13GenerateMip_YINS_8B8G8R8X8EEEvmmmPKhmmmmmPhmm, void (i64, i64, i64, i8*, i64, i64, i64, i64, i64, i8*, i64, i64)* @_ZN5angle4privL14GenerateMip_XYINS_8B8G8R8X8EEEvmmmPKhmmmmmPhmm, void (i64, i64, i64, i8*, i64, i64, i64, i64, i64, i8*, i64, i64)* @_ZN5angle4privL13GenerateMip_ZINS_8B8G8R8X8EEEvmmmPKhmmmmmPhmm, void (i64, i64, i64, i8*, i64, i64, i64, i64, i64, i8*, i64, i64)* @_ZN5angle4privL14GenerateMip_XZINS_8B8G8R8X8EEEvmmmPKhmmmmmPhmm, void (i64, i64, i64, i8*, i64, i64, i64, i64, i64, i8*, i64, i64)* @_ZN5angle4privL14GenerateMip_YZINS_8B8G8R8X8EEEvmmmPKhmmmmmPhmm, void (i64, i64, i64, i8*, i64, i64, i64, i64, i64, i8*, i64, i64)* @_ZN5angle4privL15GenerateMip_XYZINS_8B8G8R8X8EEEvmmmPKhmmmmmPhmm], align 8
@switch.table._ZN5angle11GenerateMipINS_6R8G8B8EEEvmmmPKhmmPhmm = private unnamed_addr constant [8 x void (i64, i64, i64, i8*, i64, i64, i64, i64, i64, i8*, i64, i64)*] [void (i64, i64, i64, i8*, i64, i64, i64, i64, i64, i8*, i64, i64)* null, void (i64, i64, i64, i8*, i64, i64, i64, i64, i64, i8*, i64, i64)* @_ZN5angle4privL13GenerateMip_XINS_6R8G8B8EEEvmmmPKhmmmmmPhmm, void (i64, i64, i64, i8*, i64, i64, i64, i64, i64, i8*, i64, i64)* @_ZN5angle4privL13GenerateMip_YINS_6R8G8B8EEEvmmmPKhmmmmmPhmm, void (i64, i64, i64, i8*, i64, i64, i64, i64, i64, i8*, i64, i64)* @_ZN5angle4privL14GenerateMip_XYINS_6R8G8B8EEEvmmmPKhmmmmmPhmm, void (i64, i64, i64, i8*, i64, i64, i64, i64, i64, i8*, i64, i64)* @_ZN5angle4privL13GenerateMip_ZINS_6R8G8B8EEEvmmmPKhmmmmmPhmm, void (i64, i64, i64, i8*, i64, i64, i64, i64, i64, i8*, i64, i64)* @_ZN5angle4privL14GenerateMip_XZINS_6R8G8B8EEEvmmmPKhmmmmmPhmm, void (i64, i64, i64, i8*, i64, i64, i64, i64, i64, i8*, i64, i64)* @_ZN5angle4privL14GenerateMip_YZINS_6R8G8B8EEEvmmmPKhmmmmmPhmm, void (i64, i64, i64, i8*, i64, i64, i64, i64, i64, i8*, i64, i64)* @_ZN5angle4privL15GenerateMip_XYZINS_6R8G8B8EEEvmmmPKhmmmmmPhmm], align 8
@switch.table._ZN5angle11GenerateMipINS_7L16A16FEEEvmmmPKhmmPhmm = private unnamed_addr constant [8 x void (i64, i64, i64, i8*, i64, i64, i64, i64, i64, i8*, i64, i64)*] [void (i64, i64, i64, i8*, i64, i64, i64, i64, i64, i8*, i64, i64)* null, void (i64, i64, i64, i8*, i64, i64, i64, i64, i64, i8*, i64, i64)* @_ZN5angle4privL13GenerateMip_XINS_7L16A16FEEEvmmmPKhmmmmmPhmm, void (i64, i64, i64, i8*, i64, i64, i64, i64, i64, i8*, i64, i64)* @_ZN5angle4privL13GenerateMip_YINS_7L16A16FEEEvmmmPKhmmmmmPhmm, void (i64, i64, i64, i8*, i64, i64, i64, i64, i64, i8*, i64, i64)* @_ZN5angle4privL14GenerateMip_XYINS_7L16A16FEEEvmmmPKhmmmmmPhmm, void (i64, i64, i64, i8*, i64, i64, i64, i64, i64, i8*, i64, i64)* @_ZN5angle4privL13GenerateMip_ZINS_7L16A16FEEEvmmmPKhmmmmmPhmm, void (i64, i64, i64, i8*, i64, i64, i64, i64, i64, i8*, i64, i64)* @_ZN5angle4privL14GenerateMip_XZINS_7L16A16FEEEvmmmPKhmmmmmPhmm, void (i64, i64, i64, i8*, i64, i64, i64, i64, i64, i8*, i64, i64)* @_ZN5angle4privL14GenerateMip_YZINS_7L16A16FEEEvmmmPKhmmmmmPhmm, void (i64, i64, i64, i8*, i64, i64, i64, i64, i64, i8*, i64, i64)* @_ZN5angle4privL15GenerateMip_XYZINS_7L16A16FEEEvmmmPKhmmmmmPhmm], align 8
@switch.table._ZN5angle11GenerateMipINS_4L16FEEEvmmmPKhmmPhmm = private unnamed_addr constant [8 x void (i64, i64, i64, i8*, i64, i64, i64, i64, i64, i8*, i64, i64)*] [void (i64, i64, i64, i8*, i64, i64, i64, i64, i64, i8*, i64, i64)* null, void (i64, i64, i64, i8*, i64, i64, i64, i64, i64, i8*, i64, i64)* @_ZN5angle4privL13GenerateMip_XINS_4L16FEEEvmmmPKhmmmmmPhmm, void (i64, i64, i64, i8*, i64, i64, i64, i64, i64, i8*, i64, i64)* @_ZN5angle4privL13GenerateMip_YINS_4L16FEEEvmmmPKhmmmmmPhmm, void (i64, i64, i64, i8*, i64, i64, i64, i64, i64, i8*, i64, i64)* @_ZN5angle4privL14GenerateMip_XYINS_4L16FEEEvmmmPKhmmmmmPhmm, void (i64, i64, i64, i8*, i64, i64, i64, i64, i64, i8*, i64, i64)* @_ZN5angle4privL13GenerateMip_ZINS_4L16FEEEvmmmPKhmmmmmPhmm, void (i64, i64, i64, i8*, i64, i64, i64, i64, i64, i8*, i64, i64)* @_ZN5angle4privL14GenerateMip_XZINS_4L16FEEEvmmmPKhmmmmmPhmm, void (i64, i64, i64, i8*, i64, i64, i64, i64, i64, i8*, i64, i64)* @_ZN5angle4privL14GenerateMip_YZINS_4L16FEEEvmmmPKhmmmmmPhmm, void (i64, i64, i64, i8*, i64, i64, i64, i64, i64, i8*, i64, i64)* @_ZN5angle4privL15GenerateMip_XYZINS_4L16FEEEvmmmPKhmmmmmPhmm], align 8
@switch.table._ZN5angle11GenerateMipINS_7L32A32FEEEvmmmPKhmmPhmm = private unnamed_addr constant [8 x void (i64, i64, i64, i8*, i64, i64, i64, i64, i64, i8*, i64, i64)*] [void (i64, i64, i64, i8*, i64, i64, i64, i64, i64, i8*, i64, i64)* null, void (i64, i64, i64, i8*, i64, i64, i64, i64, i64, i8*, i64, i64)* @_ZN5angle4privL13GenerateMip_XINS_7L32A32FEEEvmmmPKhmmmmmPhmm, void (i64, i64, i64, i8*, i64, i64, i64, i64, i64, i8*, i64, i64)* @_ZN5angle4privL13GenerateMip_YINS_7L32A32FEEEvmmmPKhmmmmmPhmm, void (i64, i64, i64, i8*, i64, i64, i64, i64, i64, i8*, i64, i64)* @_ZN5angle4privL14GenerateMip_XYINS_7L32A32FEEEvmmmPKhmmmmmPhmm, void (i64, i64, i64, i8*, i64, i64, i64, i64, i64, i8*, i64, i64)* @_ZN5angle4privL13GenerateMip_ZINS_7L32A32FEEEvmmmPKhmmmmmPhmm, void (i64, i64, i64, i8*, i64, i64, i64, i64, i64, i8*, i64, i64)* @_ZN5angle4privL14GenerateMip_XZINS_7L32A32FEEEvmmmPKhmmmmmPhmm, void (i64, i64, i64, i8*, i64, i64, i64, i64, i64, i8*, i64, i64)* @_ZN5angle4privL14GenerateMip_YZINS_7L32A32FEEEvmmmPKhmmmmmPhmm, void (i64, i64, i64, i8*, i64, i64, i64, i64, i64, i8*, i64, i64)* @_ZN5angle4privL15GenerateMip_XYZINS_7L32A32FEEEvmmmPKhmmmmmPhmm], align 8
@switch.table._ZN5angle11GenerateMipINS_4L32FEEEvmmmPKhmmPhmm = private unnamed_addr constant [8 x void (i64, i64, i64, i8*, i64, i64, i64, i64, i64, i8*, i64, i64)*] [void (i64, i64, i64, i8*, i64, i64, i64, i64, i64, i8*, i64, i64)* null, void (i64, i64, i64, i8*, i64, i64, i64, i64, i64, i8*, i64, i64)* @_ZN5angle4privL13GenerateMip_XINS_4L32FEEEvmmmPKhmmmmmPhmm, void (i64, i64, i64, i8*, i64, i64, i64, i64, i64, i8*, i64, i64)* @_ZN5angle4privL13GenerateMip_YINS_4L32FEEEvmmmPKhmmmmmPhmm, void (i64, i64, i64, i8*, i64, i64, i64, i64, i64, i8*, i64, i64)* @_ZN5angle4privL14GenerateMip_XYINS_4L32FEEEvmmmPKhmmmmmPhmm, void (i64, i64, i64, i8*, i64, i64, i64, i64, i64, i8*, i64, i64)* @_ZN5angle4privL13GenerateMip_ZINS_4L32FEEEvmmmPKhmmmmmPhmm, void (i64, i64, i64, i8*, i64, i64, i64, i64, i64, i8*, i64, i64)* @_ZN5angle4privL14GenerateMip_XZINS_4L32FEEEvmmmPKhmmmmmPhmm, void (i64, i64, i64, i8*, i64, i64, i64, i64, i64, i8*, i64, i64)* @_ZN5angle4privL14GenerateMip_YZINS_4L32FEEEvmmmPKhmmmmmPhmm, void (i64, i64, i64, i8*, i64, i64, i64, i64, i64, i8*, i64, i64)* @_ZN5angle4privL15GenerateMip_XYZINS_4L32FEEEvmmmPKhmmmmmPhmm], align 8
@switch.table._ZN5angle11GenerateMipINS_4L8A8EEEvmmmPKhmmPhmm = private unnamed_addr constant [8 x void (i64, i64, i64, i8*, i64, i64, i64, i64, i64, i8*, i64, i64)*] [void (i64, i64, i64, i8*, i64, i64, i64, i64, i64, i8*, i64, i64)* null, void (i64, i64, i64, i8*, i64, i64, i64, i64, i64, i8*, i64, i64)* @_ZN5angle4privL13GenerateMip_XINS_4L8A8EEEvmmmPKhmmmmmPhmm, void (i64, i64, i64, i8*, i64, i64, i64, i64, i64, i8*, i64, i64)* @_ZN5angle4privL13GenerateMip_YINS_4L8A8EEEvmmmPKhmmmmmPhmm, void (i64, i64, i64, i8*, i64, i64, i64, i64, i64, i8*, i64, i64)* @_ZN5angle4privL14GenerateMip_XYINS_4L8A8EEEvmmmPKhmmmmmPhmm, void (i64, i64, i64, i8*, i64, i64, i64, i64, i64, i8*, i64, i64)* @_ZN5angle4privL13GenerateMip_ZINS_4L8A8EEEvmmmPKhmmmmmPhmm, void (i64, i64, i64, i8*, i64, i64, i64, i64, i64, i8*, i64, i64)* @_ZN5angle4privL14GenerateMip_XZINS_4L8A8EEEvmmmPKhmmmmmPhmm, void (i64, i64, i64, i8*, i64, i64, i64, i64, i64, i8*, i64, i64)* @_ZN5angle4privL14GenerateMip_YZINS_4L8A8EEEvmmmPKhmmmmmPhmm, void (i64, i64, i64, i8*, i64, i64, i64, i64, i64, i8*, i64, i64)* @_ZN5angle4privL15GenerateMip_XYZINS_4L8A8EEEvmmmPKhmmmmmPhmm], align 8
@switch.table._ZN5angle11GenerateMipINS_2L8EEEvmmmPKhmmPhmm = private unnamed_addr constant [8 x void (i64, i64, i64, i8*, i64, i64, i64, i64, i64, i8*, i64, i64)*] [void (i64, i64, i64, i8*, i64, i64, i64, i64, i64, i8*, i64, i64)* null, void (i64, i64, i64, i8*, i64, i64, i64, i64, i64, i8*, i64, i64)* @_ZN5angle4privL13GenerateMip_XINS_2L8EEEvmmmPKhmmmmmPhmm, void (i64, i64, i64, i8*, i64, i64, i64, i64, i64, i8*, i64, i64)* @_ZN5angle4privL13GenerateMip_YINS_2L8EEEvmmmPKhmmmmmPhmm, void (i64, i64, i64, i8*, i64, i64, i64, i64, i64, i8*, i64, i64)* @_ZN5angle4privL14GenerateMip_XYINS_2L8EEEvmmmPKhmmmmmPhmm, void (i64, i64, i64, i8*, i64, i64, i64, i64, i64, i8*, i64, i64)* @_ZN5angle4privL13GenerateMip_ZINS_2L8EEEvmmmPKhmmmmmPhmm, void (i64, i64, i64, i8*, i64, i64, i64, i64, i64, i8*, i64, i64)* @_ZN5angle4privL14GenerateMip_XZINS_2L8EEEvmmmPKhmmmmmPhmm, void (i64, i64, i64, i8*, i64, i64, i64, i64, i64, i8*, i64, i64)* @_ZN5angle4privL14GenerateMip_YZINS_2L8EEEvmmmPKhmmmmmPhmm, void (i64, i64, i64, i8*, i64, i64, i64, i64, i64, i8*, i64, i64)* @_ZN5angle4privL15GenerateMip_XYZINS_2L8EEEvmmmPKhmmmmmPhmm], align 8
@switch.table._ZN5angle11GenerateMipINS_12R10G10B10A2SEEEvmmmPKhmmPhmm = private unnamed_addr constant [8 x void (i64, i64, i64, i8*, i64, i64, i64, i64, i64, i8*, i64, i64)*] [void (i64, i64, i64, i8*, i64, i64, i64, i64, i64, i8*, i64, i64)* null, void (i64, i64, i64, i8*, i64, i64, i64, i64, i64, i8*, i64, i64)* @_ZN5angle4privL13GenerateMip_XINS_12R10G10B10A2SEEEvmmmPKhmmmmmPhmm, void (i64, i64, i64, i8*, i64, i64, i64, i64, i64, i8*, i64, i64)* @_ZN5angle4privL13GenerateMip_YINS_12R10G10B10A2SEEEvmmmPKhmmmmmPhmm, void (i64, i64, i64, i8*, i64, i64, i64, i64, i64, i8*, i64, i64)* @_ZN5angle4privL14GenerateMip_XYINS_12R10G10B10A2SEEEvmmmPKhmmmmmPhmm, void (i64, i64, i64, i8*, i64, i64, i64, i64, i64, i8*, i64, i64)* @_ZN5angle4privL13GenerateMip_ZINS_12R10G10B10A2SEEEvmmmPKhmmmmmPhmm, void (i64, i64, i64, i8*, i64, i64, i64, i64, i64, i8*, i64, i64)* @_ZN5angle4privL14GenerateMip_XZINS_12R10G10B10A2SEEEvmmmPKhmmmmmPhmm, void (i64, i64, i64, i8*, i64, i64, i64, i64, i64, i8*, i64, i64)* @_ZN5angle4privL14GenerateMip_YZINS_12R10G10B10A2SEEEvmmmPKhmmmmmPhmm, void (i64, i64, i64, i8*, i64, i64, i64, i64, i64, i8*, i64, i64)* @_ZN5angle4privL15GenerateMip_XYZINS_12R10G10B10A2SEEEvmmmPKhmmmmmPhmm], align 8
@switch.table._ZN5angle11GenerateMipINS_11R10G10B10A2EEEvmmmPKhmmPhmm = private unnamed_addr constant [8 x void (i64, i64, i64, i8*, i64, i64, i64, i64, i64, i8*, i64, i64)*] [void (i64, i64, i64, i8*, i64, i64, i64, i64, i64, i8*, i64, i64)* null, void (i64, i64, i64, i8*, i64, i64, i64, i64, i64, i8*, i64, i64)* @_ZN5angle4privL13GenerateMip_XINS_11R10G10B10A2EEEvmmmPKhmmmmmPhmm, void (i64, i64, i64, i8*, i64, i64, i64, i64, i64, i8*, i64, i64)* @_ZN5angle4privL13GenerateMip_YINS_11R10G10B10A2EEEvmmmPKhmmmmmPhmm, void (i64, i64, i64, i8*, i64, i64, i64, i64, i64, i8*, i64, i64)* @_ZN5angle4privL14GenerateMip_XYINS_11R10G10B10A2EEEvmmmPKhmmmmmPhmm, void (i64, i64, i64, i8*, i64, i64, i64, i64, i64, i8*, i64, i64)* @_ZN5angle4privL13GenerateMip_ZINS_11R10G10B10A2EEEvmmmPKhmmmmmPhmm, void (i64, i64, i64, i8*, i64, i64, i64, i64, i64, i8*, i64, i64)* @_ZN5angle4privL14GenerateMip_XZINS_11R10G10B10A2EEEvmmmPKhmmmmmPhmm, void (i64, i64, i64, i8*, i64, i64, i64, i64, i64, i8*, i64, i64)* @_ZN5angle4privL14GenerateMip_YZINS_11R10G10B10A2EEEvmmmPKhmmmmmPhmm, void (i64, i64, i64, i8*, i64, i64, i64, i64, i64, i8*, i64, i64)* @_ZN5angle4privL15GenerateMip_XYZINS_11R10G10B10A2EEEvmmmPKhmmmmmPhmm], align 8
@switch.table._ZN5angle11GenerateMipINS_11R10G10B10X2EEEvmmmPKhmmPhmm = private unnamed_addr constant [8 x void (i64, i64, i64, i8*, i64, i64, i64, i64, i64, i8*, i64, i64)*] [void (i64, i64, i64, i8*, i64, i64, i64, i64, i64, i8*, i64, i64)* null, void (i64, i64, i64, i8*, i64, i64, i64, i64, i64, i8*, i64, i64)* @_ZN5angle4privL13GenerateMip_XINS_11R10G10B10X2EEEvmmmPKhmmmmmPhmm, void (i64, i64, i64, i8*, i64, i64, i64, i64, i64, i8*, i64, i64)* @_ZN5angle4privL13GenerateMip_YINS_11R10G10B10X2EEEvmmmPKhmmmmmPhmm, void (i64, i64, i64, i8*, i64, i64, i64, i64, i64, i8*, i64, i64)* @_ZN5angle4privL14GenerateMip_XYINS_11R10G10B10X2EEEvmmmPKhmmmmmPhmm, void (i64, i64, i64, i8*, i64, i64, i64, i64, i64, i8*, i64, i64)* @_ZN5angle4privL13GenerateMip_ZINS_11R10G10B10X2EEEvmmmPKhmmmmmPhmm, void (i64, i64, i64, i8*, i64, i64, i64, i64, i64, i8*, i64, i64)* @_ZN5angle4privL14GenerateMip_XZINS_11R10G10B10X2EEEvmmmPKhmmmmmPhmm, void (i64, i64, i64, i8*, i64, i64, i64, i64, i64, i8*, i64, i64)* @_ZN5angle4privL14GenerateMip_YZINS_11R10G10B10X2EEEvmmmPKhmmmmmPhmm, void (i64, i64, i64, i8*, i64, i64, i64, i64, i64, i8*, i64, i64)* @_ZN5angle4privL15GenerateMip_XYZINS_11R10G10B10X2EEEvmmmPKhmmmmmPhmm], align 8
@switch.table._ZN5angle11GenerateMipINS_10R11G11B10FEEEvmmmPKhmmPhmm = private unnamed_addr constant [8 x void (i64, i64, i64, i8*, i64, i64, i64, i64, i64, i8*, i64, i64)*] [void (i64, i64, i64, i8*, i64, i64, i64, i64, i64, i8*, i64, i64)* null, void (i64, i64, i64, i8*, i64, i64, i64, i64, i64, i8*, i64, i64)* @_ZN5angle4privL13GenerateMip_XINS_10R11G11B10FEEEvmmmPKhmmmmmPhmm, void (i64, i64, i64, i8*, i64, i64, i64, i64, i64, i8*, i64, i64)* @_ZN5angle4privL13GenerateMip_YINS_10R11G11B10FEEEvmmmPKhmmmmmPhmm, void (i64, i64, i64, i8*, i64, i64, i64, i64, i64, i8*, i64, i64)* @_ZN5angle4privL14GenerateMip_XYINS_10R11G11B10FEEEvmmmPKhmmmmmPhmm, void (i64, i64, i64, i8*, i64, i64, i64, i64, i64, i8*, i64, i64)* @_ZN5angle4privL13GenerateMip_ZINS_10R11G11B10FEEEvmmmPKhmmmmmPhmm, void (i64, i64, i64, i8*, i64, i64, i64, i64, i64, i8*, i64, i64)* @_ZN5angle4privL14GenerateMip_XZINS_10R11G11B10FEEEvmmmPKhmmmmmPhmm, void (i64, i64, i64, i8*, i64, i64, i64, i64, i64, i8*, i64, i64)* @_ZN5angle4privL14GenerateMip_YZINS_10R11G11B10FEEEvmmmPKhmmmmmPhmm, void (i64, i64, i64, i8*, i64, i64, i64, i64, i64, i8*, i64, i64)* @_ZN5angle4privL15GenerateMip_XYZINS_10R11G11B10FEEEvmmmPKhmmmmmPhmm], align 8
@switch.table._ZN5angle11GenerateMipINS_13R16G16B16A16FEEEvmmmPKhmmPhmm = private unnamed_addr constant [8 x void (i64, i64, i64, i8*, i64, i64, i64, i64, i64, i8*, i64, i64)*] [void (i64, i64, i64, i8*, i64, i64, i64, i64, i64, i8*, i64, i64)* null, void (i64, i64, i64, i8*, i64, i64, i64, i64, i64, i8*, i64, i64)* @_ZN5angle4privL13GenerateMip_XINS_13R16G16B16A16FEEEvmmmPKhmmmmmPhmm, void (i64, i64, i64, i8*, i64, i64, i64, i64, i64, i8*, i64, i64)* @_ZN5angle4privL13GenerateMip_YINS_13R16G16B16A16FEEEvmmmPKhmmmmmPhmm, void (i64, i64, i64, i8*, i64, i64, i64, i64, i64, i8*, i64, i64)* @_ZN5angle4privL14GenerateMip_XYINS_13R16G16B16A16FEEEvmmmPKhmmmmmPhmm, void (i64, i64, i64, i8*, i64, i64, i64, i64, i64, i8*, i64, i64)* @_ZN5angle4privL13GenerateMip_ZINS_13R16G16B16A16FEEEvmmmPKhmmmmmPhmm, void (i64, i64, i64, i8*, i64, i64, i64, i64, i64, i8*, i64, i64)* @_ZN5angle4privL14GenerateMip_XZINS_13R16G16B16A16FEEEvmmmPKhmmmmmPhmm, void (i64, i64, i64, i8*, i64, i64, i64, i64, i64, i8*, i64, i64)* @_ZN5angle4privL14GenerateMip_YZINS_13R16G16B16A16FEEEvmmmPKhmmmmmPhmm, void (i64, i64, i64, i8*, i64, i64, i64, i64, i64, i8*, i64, i64)* @_ZN5angle4privL15GenerateMip_XYZINS_13R16G16B16A16FEEEvmmmPKhmmmmmPhmm], align 8
@switch.table._ZN5angle11GenerateMipINS_13R16G16B16A16SEEEvmmmPKhmmPhmm = private unnamed_addr constant [8 x void (i64, i64, i64, i8*, i64, i64, i64, i64, i64, i8*, i64, i64)*] [void (i64, i64, i64, i8*, i64, i64, i64, i64, i64, i8*, i64, i64)* null, void (i64, i64, i64, i8*, i64, i64, i64, i64, i64, i8*, i64, i64)* @_ZN5angle4privL13GenerateMip_XINS_13R16G16B16A16SEEEvmmmPKhmmmmmPhmm, void (i64, i64, i64, i8*, i64, i64, i64, i64, i64, i8*, i64, i64)* @_ZN5angle4privL13GenerateMip_YINS_13R16G16B16A16SEEEvmmmPKhmmmmmPhmm, void (i64, i64, i64, i8*, i64, i64, i64, i64, i64, i8*, i64, i64)* @_ZN5angle4privL14GenerateMip_XYINS_13R16G16B16A16SEEEvmmmPKhmmmmmPhmm, void (i64, i64, i64, i8*, i64, i64, i64, i64, i64, i8*, i64, i64)* @_ZN5angle4privL13GenerateMip_ZINS_13R16G16B16A16SEEEvmmmPKhmmmmmPhmm, void (i64, i64, i64, i8*, i64, i64, i64, i64, i64, i8*, i64, i64)* @_ZN5angle4privL14GenerateMip_XZINS_13R16G16B16A16SEEEvmmmPKhmmmmmPhmm, void (i64, i64, i64, i8*, i64, i64, i64, i64, i64, i8*, i64, i64)* @_ZN5angle4privL14GenerateMip_YZINS_13R16G16B16A16SEEEvmmmPKhmmmmmPhmm, void (i64, i64, i64, i8*, i64, i64, i64, i64, i64, i8*, i64, i64)* @_ZN5angle4privL15GenerateMip_XYZINS_13R16G16B16A16SEEEvmmmPKhmmmmmPhmm], align 8
@switch.table._ZN5angle11GenerateMipINS_12R16G16B16A16EEEvmmmPKhmmPhmm = private unnamed_addr constant [8 x void (i64, i64, i64, i8*, i64, i64, i64, i64, i64, i8*, i64, i64)*] [void (i64, i64, i64, i8*, i64, i64, i64, i64, i64, i8*, i64, i64)* null, void (i64, i64, i64, i8*, i64, i64, i64, i64, i64, i8*, i64, i64)* @_ZN5angle4privL13GenerateMip_XINS_12R16G16B16A16EEEvmmmPKhmmmmmPhmm, void (i64, i64, i64, i8*, i64, i64, i64, i64, i64, i8*, i64, i64)* @_ZN5angle4privL13GenerateMip_YINS_12R16G16B16A16EEEvmmmPKhmmmmmPhmm, void (i64, i64, i64, i8*, i64, i64, i64, i64, i64, i8*, i64, i64)* @_ZN5angle4privL14GenerateMip_XYINS_12R16G16B16A16EEEvmmmPKhmmmmmPhmm, void (i64, i64, i64, i8*, i64, i64, i64, i64, i64, i8*, i64, i64)* @_ZN5angle4privL13GenerateMip_ZINS_12R16G16B16A16EEEvmmmPKhmmmmmPhmm, void (i64, i64, i64, i8*, i64, i64, i64, i64, i64, i8*, i64, i64)* @_ZN5angle4privL14GenerateMip_XZINS_12R16G16B16A16EEEvmmmPKhmmmmmPhmm, void (i64, i64, i64, i8*, i64, i64, i64, i64, i64, i8*, i64, i64)* @_ZN5angle4privL14GenerateMip_YZINS_12R16G16B16A16EEEvmmmPKhmmmmmPhmm, void (i64, i64, i64, i8*, i64, i64, i64, i64, i64, i8*, i64, i64)* @_ZN5angle4privL15GenerateMip_XYZINS_12R16G16B16A16EEEvmmmPKhmmmmmPhmm], align 8
@switch.table._ZN5angle11GenerateMipINS_10R16G16B16FEEEvmmmPKhmmPhmm = private unnamed_addr constant [8 x void (i64, i64, i64, i8*, i64, i64, i64, i64, i64, i8*, i64, i64)*] [void (i64, i64, i64, i8*, i64, i64, i64, i64, i64, i8*, i64, i64)* null, void (i64, i64, i64, i8*, i64, i64, i64, i64, i64, i8*, i64, i64)* @_ZN5angle4privL13GenerateMip_XINS_10R16G16B16FEEEvmmmPKhmmmmmPhmm, void (i64, i64, i64, i8*, i64, i64, i64, i64, i64, i8*, i64, i64)* @_ZN5angle4privL13GenerateMip_YINS_10R16G16B16FEEEvmmmPKhmmmmmPhmm, void (i64, i64, i64, i8*, i64, i64, i64, i64, i64, i8*, i64, i64)* @_ZN5angle4privL14GenerateMip_XYINS_10R16G16B16FEEEvmmmPKhmmmmmPhmm, void (i64, i64, i64, i8*, i64, i64, i64, i64, i64, i8*, i64, i64)* @_ZN5angle4privL13GenerateMip_ZINS_10R16G16B16FEEEvmmmPKhmmmmmPhmm, void (i64, i64, i64, i8*, i64, i64, i64, i64, i64, i8*, i64, i64)* @_ZN5angle4privL14GenerateMip_XZINS_10R16G16B16FEEEvmmmPKhmmmmmPhmm, void (i64, i64, i64, i8*, i64, i64, i64, i64, i64, i8*, i64, i64)* @_ZN5angle4privL14GenerateMip_YZINS_10R16G16B16FEEEvmmmPKhmmmmmPhmm, void (i64, i64, i64, i8*, i64, i64, i64, i64, i64, i8*, i64, i64)* @_ZN5angle4privL15GenerateMip_XYZINS_10R16G16B16FEEEvmmmPKhmmmmmPhmm], align 8
@switch.table._ZN5angle11GenerateMipINS_10R16G16B16SEEEvmmmPKhmmPhmm = private unnamed_addr constant [8 x void (i64, i64, i64, i8*, i64, i64, i64, i64, i64, i8*, i64, i64)*] [void (i64, i64, i64, i8*, i64, i64, i64, i64, i64, i8*, i64, i64)* null, void (i64, i64, i64, i8*, i64, i64, i64, i64, i64, i8*, i64, i64)* @_ZN5angle4privL13GenerateMip_XINS_10R16G16B16SEEEvmmmPKhmmmmmPhmm, void (i64, i64, i64, i8*, i64, i64, i64, i64, i64, i8*, i64, i64)* @_ZN5angle4privL13GenerateMip_YINS_10R16G16B16SEEEvmmmPKhmmmmmPhmm, void (i64, i64, i64, i8*, i64, i64, i64, i64, i64, i8*, i64, i64)* @_ZN5angle4privL14GenerateMip_XYINS_10R16G16B16SEEEvmmmPKhmmmmmPhmm, void (i64, i64, i64, i8*, i64, i64, i64, i64, i64, i8*, i64, i64)* @_ZN5angle4privL13GenerateMip_ZINS_10R16G16B16SEEEvmmmPKhmmmmmPhmm, void (i64, i64, i64, i8*, i64, i64, i64, i64, i64, i8*, i64, i64)* @_ZN5angle4privL14GenerateMip_XZINS_10R16G16B16SEEEvmmmPKhmmmmmPhmm, void (i64, i64, i64, i8*, i64, i64, i64, i64, i64, i8*, i64, i64)* @_ZN5angle4privL14GenerateMip_YZINS_10R16G16B16SEEEvmmmPKhmmmmmPhmm, void (i64, i64, i64, i8*, i64, i64, i64, i64, i64, i8*, i64, i64)* @_ZN5angle4privL15GenerateMip_XYZINS_10R16G16B16SEEEvmmmPKhmmmmmPhmm], align 8
@switch.table._ZN5angle11GenerateMipINS_9R16G16B16EEEvmmmPKhmmPhmm = private unnamed_addr constant [8 x void (i64, i64, i64, i8*, i64, i64, i64, i64, i64, i8*, i64, i64)*] [void (i64, i64, i64, i8*, i64, i64, i64, i64, i64, i8*, i64, i64)* null, void (i64, i64, i64, i8*, i64, i64, i64, i64, i64, i8*, i64, i64)* @_ZN5angle4privL13GenerateMip_XINS_9R16G16B16EEEvmmmPKhmmmmmPhmm, void (i64, i64, i64, i8*, i64, i64, i64, i64, i64, i8*, i64, i64)* @_ZN5angle4privL13GenerateMip_YINS_9R16G16B16EEEvmmmPKhmmmmmPhmm, void (i64, i64, i64, i8*, i64, i64, i64, i64, i64, i8*, i64, i64)* @_ZN5angle4privL14GenerateMip_XYINS_9R16G16B16EEEvmmmPKhmmmmmPhmm, void (i64, i64, i64, i8*, i64, i64, i64, i64, i64, i8*, i64, i64)* @_ZN5angle4privL13GenerateMip_ZINS_9R16G16B16EEEvmmmPKhmmmmmPhmm, void (i64, i64, i64, i8*, i64, i64, i64, i64, i64, i8*, i64, i64)* @_ZN5angle4privL14GenerateMip_XZINS_9R16G16B16EEEvmmmPKhmmmmmPhmm, void (i64, i64, i64, i8*, i64, i64, i64, i64, i64, i8*, i64, i64)* @_ZN5angle4privL14GenerateMip_YZINS_9R16G16B16EEEvmmmPKhmmmmmPhmm, void (i64, i64, i64, i8*, i64, i64, i64, i64, i64, i8*, i64, i64)* @_ZN5angle4privL15GenerateMip_XYZINS_9R16G16B16EEEvmmmPKhmmmmmPhmm], align 8
@switch.table._ZN5angle11GenerateMipINS_7R16G16FEEEvmmmPKhmmPhmm = private unnamed_addr constant [8 x void (i64, i64, i64, i8*, i64, i64, i64, i64, i64, i8*, i64, i64)*] [void (i64, i64, i64, i8*, i64, i64, i64, i64, i64, i8*, i64, i64)* null, void (i64, i64, i64, i8*, i64, i64, i64, i64, i64, i8*, i64, i64)* @_ZN5angle4privL13GenerateMip_XINS_7R16G16FEEEvmmmPKhmmmmmPhmm, void (i64, i64, i64, i8*, i64, i64, i64, i64, i64, i8*, i64, i64)* @_ZN5angle4privL13GenerateMip_YINS_7R16G16FEEEvmmmPKhmmmmmPhmm, void (i64, i64, i64, i8*, i64, i64, i64, i64, i64, i8*, i64, i64)* @_ZN5angle4privL14GenerateMip_XYINS_7R16G16FEEEvmmmPKhmmmmmPhmm, void (i64, i64, i64, i8*, i64, i64, i64, i64, i64, i8*, i64, i64)* @_ZN5angle4privL13GenerateMip_ZINS_7R16G16FEEEvmmmPKhmmmmmPhmm, void (i64, i64, i64, i8*, i64, i64, i64, i64, i64, i8*, i64, i64)* @_ZN5angle4privL14GenerateMip_XZINS_7R16G16FEEEvmmmPKhmmmmmPhmm, void (i64, i64, i64, i8*, i64, i64, i64, i64, i64, i8*, i64, i64)* @_ZN5angle4privL14GenerateMip_YZINS_7R16G16FEEEvmmmPKhmmmmmPhmm, void (i64, i64, i64, i8*, i64, i64, i64, i64, i64, i8*, i64, i64)* @_ZN5angle4privL15GenerateMip_XYZINS_7R16G16FEEEvmmmPKhmmmmmPhmm], align 8
@switch.table._ZN5angle11GenerateMipINS_7R16G16SEEEvmmmPKhmmPhmm = private unnamed_addr constant [8 x void (i64, i64, i64, i8*, i64, i64, i64, i64, i64, i8*, i64, i64)*] [void (i64, i64, i64, i8*, i64, i64, i64, i64, i64, i8*, i64, i64)* null, void (i64, i64, i64, i8*, i64, i64, i64, i64, i64, i8*, i64, i64)* @_ZN5angle4privL13GenerateMip_XINS_7R16G16SEEEvmmmPKhmmmmmPhmm, void (i64, i64, i64, i8*, i64, i64, i64, i64, i64, i8*, i64, i64)* @_ZN5angle4privL13GenerateMip_YINS_7R16G16SEEEvmmmPKhmmmmmPhmm, void (i64, i64, i64, i8*, i64, i64, i64, i64, i64, i8*, i64, i64)* @_ZN5angle4privL14GenerateMip_XYINS_7R16G16SEEEvmmmPKhmmmmmPhmm, void (i64, i64, i64, i8*, i64, i64, i64, i64, i64, i8*, i64, i64)* @_ZN5angle4privL13GenerateMip_ZINS_7R16G16SEEEvmmmPKhmmmmmPhmm, void (i64, i64, i64, i8*, i64, i64, i64, i64, i64, i8*, i64, i64)* @_ZN5angle4privL14GenerateMip_XZINS_7R16G16SEEEvmmmPKhmmmmmPhmm, void (i64, i64, i64, i8*, i64, i64, i64, i64, i64, i8*, i64, i64)* @_ZN5angle4privL14GenerateMip_YZINS_7R16G16SEEEvmmmPKhmmmmmPhmm, void (i64, i64, i64, i8*, i64, i64, i64, i64, i64, i8*, i64, i64)* @_ZN5angle4privL15GenerateMip_XYZINS_7R16G16SEEEvmmmPKhmmmmmPhmm], align 8
@switch.table._ZN5angle11GenerateMipINS_6R16G16EEEvmmmPKhmmPhmm = private unnamed_addr constant [8 x void (i64, i64, i64, i8*, i64, i64, i64, i64, i64, i8*, i64, i64)*] [void (i64, i64, i64, i8*, i64, i64, i64, i64, i64, i8*, i64, i64)* null, void (i64, i64, i64, i8*, i64, i64, i64, i64, i64, i8*, i64, i64)* @_ZN5angle4privL13GenerateMip_XINS_6R16G16EEEvmmmPKhmmmmmPhmm, void (i64, i64, i64, i8*, i64, i64, i64, i64, i64, i8*, i64, i64)* @_ZN5angle4privL13GenerateMip_YINS_6R16G16EEEvmmmPKhmmmmmPhmm, void (i64, i64, i64, i8*, i64, i64, i64, i64, i64, i8*, i64, i64)* @_ZN5angle4privL14GenerateMip_XYINS_6R16G16EEEvmmmPKhmmmmmPhmm, void (i64, i64, i64, i8*, i64, i64, i64, i64, i64, i8*, i64, i64)* @_ZN5angle4privL13GenerateMip_ZINS_6R16G16EEEvmmmPKhmmmmmPhmm, void (i64, i64, i64, i8*, i64, i64, i64, i64, i64, i8*, i64, i64)* @_ZN5angle4privL14GenerateMip_XZINS_6R16G16EEEvmmmPKhmmmmmPhmm, void (i64, i64, i64, i8*, i64, i64, i64, i64, i64, i8*, i64, i64)* @_ZN5angle4privL14GenerateMip_YZINS_6R16G16EEEvmmmPKhmmmmmPhmm, void (i64, i64, i64, i8*, i64, i64, i64, i64, i64, i8*, i64, i64)* @_ZN5angle4privL15GenerateMip_XYZINS_6R16G16EEEvmmmPKhmmmmmPhmm], align 8
@switch.table._ZN5angle11GenerateMipINS_4R16FEEEvmmmPKhmmPhmm = private unnamed_addr constant [8 x void (i64, i64, i64, i8*, i64, i64, i64, i64, i64, i8*, i64, i64)*] [void (i64, i64, i64, i8*, i64, i64, i64, i64, i64, i8*, i64, i64)* null, void (i64, i64, i64, i8*, i64, i64, i64, i64, i64, i8*, i64, i64)* @_ZN5angle4privL13GenerateMip_XINS_4R16FEEEvmmmPKhmmmmmPhmm, void (i64, i64, i64, i8*, i64, i64, i64, i64, i64, i8*, i64, i64)* @_ZN5angle4privL13GenerateMip_YINS_4R16FEEEvmmmPKhmmmmmPhmm, void (i64, i64, i64, i8*, i64, i64, i64, i64, i64, i8*, i64, i64)* @_ZN5angle4privL14GenerateMip_XYINS_4R16FEEEvmmmPKhmmmmmPhmm, void (i64, i64, i64, i8*, i64, i64, i64, i64, i64, i8*, i64, i64)* @_ZN5angle4privL13GenerateMip_ZINS_4R16FEEEvmmmPKhmmmmmPhmm, void (i64, i64, i64, i8*, i64, i64, i64, i64, i64, i8*, i64, i64)* @_ZN5angle4privL14GenerateMip_XZINS_4R16FEEEvmmmPKhmmmmmPhmm, void (i64, i64, i64, i8*, i64, i64, i64, i64, i64, i8*, i64, i64)* @_ZN5angle4privL14GenerateMip_YZINS_4R16FEEEvmmmPKhmmmmmPhmm, void (i64, i64, i64, i8*, i64, i64, i64, i64, i64, i8*, i64, i64)* @_ZN5angle4privL15GenerateMip_XYZINS_4R16FEEEvmmmPKhmmmmmPhmm], align 8
@switch.table._ZN5angle11GenerateMipINS_4R16SEEEvmmmPKhmmPhmm = private unnamed_addr constant [8 x void (i64, i64, i64, i8*, i64, i64, i64, i64, i64, i8*, i64, i64)*] [void (i64, i64, i64, i8*, i64, i64, i64, i64, i64, i8*, i64, i64)* null, void (i64, i64, i64, i8*, i64, i64, i64, i64, i64, i8*, i64, i64)* @_ZN5angle4privL13GenerateMip_XINS_4R16SEEEvmmmPKhmmmmmPhmm, void (i64, i64, i64, i8*, i64, i64, i64, i64, i64, i8*, i64, i64)* @_ZN5angle4privL13GenerateMip_YINS_4R16SEEEvmmmPKhmmmmmPhmm, void (i64, i64, i64, i8*, i64, i64, i64, i64, i64, i8*, i64, i64)* @_ZN5angle4privL14GenerateMip_XYINS_4R16SEEEvmmmPKhmmmmmPhmm, void (i64, i64, i64, i8*, i64, i64, i64, i64, i64, i8*, i64, i64)* @_ZN5angle4privL13GenerateMip_ZINS_4R16SEEEvmmmPKhmmmmmPhmm, void (i64, i64, i64, i8*, i64, i64, i64, i64, i64, i8*, i64, i64)* @_ZN5angle4privL14GenerateMip_XZINS_4R16SEEEvmmmPKhmmmmmPhmm, void (i64, i64, i64, i8*, i64, i64, i64, i64, i64, i8*, i64, i64)* @_ZN5angle4privL14GenerateMip_YZINS_4R16SEEEvmmmPKhmmmmmPhmm, void (i64, i64, i64, i8*, i64, i64, i64, i64, i64, i8*, i64, i64)* @_ZN5angle4privL15GenerateMip_XYZINS_4R16SEEEvmmmPKhmmmmmPhmm], align 8
@switch.table._ZN5angle11GenerateMipINS_3R16EEEvmmmPKhmmPhmm = private unnamed_addr constant [8 x void (i64, i64, i64, i8*, i64, i64, i64, i64, i64, i8*, i64, i64)*] [void (i64, i64, i64, i8*, i64, i64, i64, i64, i64, i8*, i64, i64)* null, void (i64, i64, i64, i8*, i64, i64, i64, i64, i64, i8*, i64, i64)* @_ZN5angle4privL13GenerateMip_XINS_3R16EEEvmmmPKhmmmmmPhmm, void (i64, i64, i64, i8*, i64, i64, i64, i64, i64, i8*, i64, i64)* @_ZN5angle4privL13GenerateMip_YINS_3R16EEEvmmmPKhmmmmmPhmm, void (i64, i64, i64, i8*, i64, i64, i64, i64, i64, i8*, i64, i64)* @_ZN5angle4privL14GenerateMip_XYINS_3R16EEEvmmmPKhmmmmmPhmm, void (i64, i64, i64, i8*, i64, i64, i64, i64, i64, i8*, i64, i64)* @_ZN5angle4privL13GenerateMip_ZINS_3R16EEEvmmmPKhmmmmmPhmm, void (i64, i64, i64, i8*, i64, i64, i64, i64, i64, i8*, i64, i64)* @_ZN5angle4privL14GenerateMip_XZINS_3R16EEEvmmmPKhmmmmmPhmm, void (i64, i64, i64, i8*, i64, i64, i64, i64, i64, i8*, i64, i64)* @_ZN5angle4privL14GenerateMip_YZINS_3R16EEEvmmmPKhmmmmmPhmm, void (i64, i64, i64, i8*, i64, i64, i64, i64, i64, i8*, i64, i64)* @_ZN5angle4privL15GenerateMip_XYZINS_3R16EEEvmmmPKhmmmmmPhmm], align 8
@switch.table._ZN5angle11GenerateMipINS_13R32G32B32A32FEEEvmmmPKhmmPhmm = private unnamed_addr constant [8 x void (i64, i64, i64, i8*, i64, i64, i64, i64, i64, i8*, i64, i64)*] [void (i64, i64, i64, i8*, i64, i64, i64, i64, i64, i8*, i64, i64)* null, void (i64, i64, i64, i8*, i64, i64, i64, i64, i64, i8*, i64, i64)* @_ZN5angle4privL13GenerateMip_XINS_13R32G32B32A32FEEEvmmmPKhmmmmmPhmm, void (i64, i64, i64, i8*, i64, i64, i64, i64, i64, i8*, i64, i64)* @_ZN5angle4privL13GenerateMip_YINS_13R32G32B32A32FEEEvmmmPKhmmmmmPhmm, void (i64, i64, i64, i8*, i64, i64, i64, i64, i64, i8*, i64, i64)* @_ZN5angle4privL14GenerateMip_XYINS_13R32G32B32A32FEEEvmmmPKhmmmmmPhmm, void (i64, i64, i64, i8*, i64, i64, i64, i64, i64, i8*, i64, i64)* @_ZN5angle4privL13GenerateMip_ZINS_13R32G32B32A32FEEEvmmmPKhmmmmmPhmm, void (i64, i64, i64, i8*, i64, i64, i64, i64, i64, i8*, i64, i64)* @_ZN5angle4privL14GenerateMip_XZINS_13R32G32B32A32FEEEvmmmPKhmmmmmPhmm, void (i64, i64, i64, i8*, i64, i64, i64, i64, i64, i8*, i64, i64)* @_ZN5angle4privL14GenerateMip_YZINS_13R32G32B32A32FEEEvmmmPKhmmmmmPhmm, void (i64, i64, i64, i8*, i64, i64, i64, i64, i64, i8*, i64, i64)* @_ZN5angle4privL15GenerateMip_XYZINS_13R32G32B32A32FEEEvmmmPKhmmmmmPhmm], align 8
@switch.table._ZN5angle11GenerateMipINS_13R32G32B32A32SEEEvmmmPKhmmPhmm = private unnamed_addr constant [8 x void (i64, i64, i64, i8*, i64, i64, i64, i64, i64, i8*, i64, i64)*] [void (i64, i64, i64, i8*, i64, i64, i64, i64, i64, i8*, i64, i64)* null, void (i64, i64, i64, i8*, i64, i64, i64, i64, i64, i8*, i64, i64)* @_ZN5angle4privL13GenerateMip_XINS_13R32G32B32A32SEEEvmmmPKhmmmmmPhmm, void (i64, i64, i64, i8*, i64, i64, i64, i64, i64, i8*, i64, i64)* @_ZN5angle4privL13GenerateMip_YINS_13R32G32B32A32SEEEvmmmPKhmmmmmPhmm, void (i64, i64, i64, i8*, i64, i64, i64, i64, i64, i8*, i64, i64)* @_ZN5angle4privL14GenerateMip_XYINS_13R32G32B32A32SEEEvmmmPKhmmmmmPhmm, void (i64, i64, i64, i8*, i64, i64, i64, i64, i64, i8*, i64, i64)* @_ZN5angle4privL13GenerateMip_ZINS_13R32G32B32A32SEEEvmmmPKhmmmmmPhmm, void (i64, i64, i64, i8*, i64, i64, i64, i64, i64, i8*, i64, i64)* @_ZN5angle4privL14GenerateMip_XZINS_13R32G32B32A32SEEEvmmmPKhmmmmmPhmm, void (i64, i64, i64, i8*, i64, i64, i64, i64, i64, i8*, i64, i64)* @_ZN5angle4privL14GenerateMip_YZINS_13R32G32B32A32SEEEvmmmPKhmmmmmPhmm, void (i64, i64, i64, i8*, i64, i64, i64, i64, i64, i8*, i64, i64)* @_ZN5angle4privL15GenerateMip_XYZINS_13R32G32B32A32SEEEvmmmPKhmmmmmPhmm], align 8
@switch.table._ZN5angle11GenerateMipINS_12R32G32B32A32EEEvmmmPKhmmPhmm = private unnamed_addr constant [8 x void (i64, i64, i64, i8*, i64, i64, i64, i64, i64, i8*, i64, i64)*] [void (i64, i64, i64, i8*, i64, i64, i64, i64, i64, i8*, i64, i64)* null, void (i64, i64, i64, i8*, i64, i64, i64, i64, i64, i8*, i64, i64)* @_ZN5angle4privL13GenerateMip_XINS_12R32G32B32A32EEEvmmmPKhmmmmmPhmm, void (i64, i64, i64, i8*, i64, i64, i64, i64, i64, i8*, i64, i64)* @_ZN5angle4privL13GenerateMip_YINS_12R32G32B32A32EEEvmmmPKhmmmmmPhmm, void (i64, i64, i64, i8*, i64, i64, i64, i64, i64, i8*, i64, i64)* @_ZN5angle4privL14GenerateMip_XYINS_12R32G32B32A32EEEvmmmPKhmmmmmPhmm, void (i64, i64, i64, i8*, i64, i64, i64, i64, i64, i8*, i64, i64)* @_ZN5angle4privL13GenerateMip_ZINS_12R32G32B32A32EEEvmmmPKhmmmmmPhmm, void (i64, i64, i64, i8*, i64, i64, i64, i64, i64, i8*, i64, i64)* @_ZN5angle4privL14GenerateMip_XZINS_12R32G32B32A32EEEvmmmPKhmmmmmPhmm, void (i64, i64, i64, i8*, i64, i64, i64, i64, i64, i8*, i64, i64)* @_ZN5angle4privL14GenerateMip_YZINS_12R32G32B32A32EEEvmmmPKhmmmmmPhmm, void (i64, i64, i64, i8*, i64, i64, i64, i64, i64, i8*, i64, i64)* @_ZN5angle4privL15GenerateMip_XYZINS_12R32G32B32A32EEEvmmmPKhmmmmmPhmm], align 8
@switch.table._ZN5angle11GenerateMipINS_10R32G32B32FEEEvmmmPKhmmPhmm = private unnamed_addr constant [8 x void (i64, i64, i64, i8*, i64, i64, i64, i64, i64, i8*, i64, i64)*] [void (i64, i64, i64, i8*, i64, i64, i64, i64, i64, i8*, i64, i64)* null, void (i64, i64, i64, i8*, i64, i64, i64, i64, i64, i8*, i64, i64)* @_ZN5angle4privL13GenerateMip_XINS_10R32G32B32FEEEvmmmPKhmmmmmPhmm, void (i64, i64, i64, i8*, i64, i64, i64, i64, i64, i8*, i64, i64)* @_ZN5angle4privL13GenerateMip_YINS_10R32G32B32FEEEvmmmPKhmmmmmPhmm, void (i64, i64, i64, i8*, i64, i64, i64, i64, i64, i8*, i64, i64)* @_ZN5angle4privL14GenerateMip_XYINS_10R32G32B32FEEEvmmmPKhmmmmmPhmm, void (i64, i64, i64, i8*, i64, i64, i64, i64, i64, i8*, i64, i64)* @_ZN5angle4privL13GenerateMip_ZINS_10R32G32B32FEEEvmmmPKhmmmmmPhmm, void (i64, i64, i64, i8*, i64, i64, i64, i64, i64, i8*, i64, i64)* @_ZN5angle4privL14GenerateMip_XZINS_10R32G32B32FEEEvmmmPKhmmmmmPhmm, void (i64, i64, i64, i8*, i64, i64, i64, i64, i64, i8*, i64, i64)* @_ZN5angle4privL14GenerateMip_YZINS_10R32G32B32FEEEvmmmPKhmmmmmPhmm, void (i64, i64, i64, i8*, i64, i64, i64, i64, i64, i8*, i64, i64)* @_ZN5angle4privL15GenerateMip_XYZINS_10R32G32B32FEEEvmmmPKhmmmmmPhmm], align 8
@switch.table._ZN5angle11GenerateMipINS_10R32G32B32SEEEvmmmPKhmmPhmm = private unnamed_addr constant [8 x void (i64, i64, i64, i8*, i64, i64, i64, i64, i64, i8*, i64, i64)*] [void (i64, i64, i64, i8*, i64, i64, i64, i64, i64, i8*, i64, i64)* null, void (i64, i64, i64, i8*, i64, i64, i64, i64, i64, i8*, i64, i64)* @_ZN5angle4privL13GenerateMip_XINS_10R32G32B32SEEEvmmmPKhmmmmmPhmm, void (i64, i64, i64, i8*, i64, i64, i64, i64, i64, i8*, i64, i64)* @_ZN5angle4privL13GenerateMip_YINS_10R32G32B32SEEEvmmmPKhmmmmmPhmm, void (i64, i64, i64, i8*, i64, i64, i64, i64, i64, i8*, i64, i64)* @_ZN5angle4privL14GenerateMip_XYINS_10R32G32B32SEEEvmmmPKhmmmmmPhmm, void (i64, i64, i64, i8*, i64, i64, i64, i64, i64, i8*, i64, i64)* @_ZN5angle4privL13GenerateMip_ZINS_10R32G32B32SEEEvmmmPKhmmmmmPhmm, void (i64, i64, i64, i8*, i64, i64, i64, i64, i64, i8*, i64, i64)* @_ZN5angle4privL14GenerateMip_XZINS_10R32G32B32SEEEvmmmPKhmmmmmPhmm, void (i64, i64, i64, i8*, i64, i64, i64, i64, i64, i8*, i64, i64)* @_ZN5angle4privL14GenerateMip_YZINS_10R32G32B32SEEEvmmmPKhmmmmmPhmm, void (i64, i64, i64, i8*, i64, i64, i64, i64, i64, i8*, i64, i64)* @_ZN5angle4privL15GenerateMip_XYZINS_10R32G32B32SEEEvmmmPKhmmmmmPhmm], align 8
@switch.table._ZN5angle11GenerateMipINS_9R32G32B32EEEvmmmPKhmmPhmm = private unnamed_addr constant [8 x void (i64, i64, i64, i8*, i64, i64, i64, i64, i64, i8*, i64, i64)*] [void (i64, i64, i64, i8*, i64, i64, i64, i64, i64, i8*, i64, i64)* null, void (i64, i64, i64, i8*, i64, i64, i64, i64, i64, i8*, i64, i64)* @_ZN5angle4privL13GenerateMip_XINS_9R32G32B32EEEvmmmPKhmmmmmPhmm, void (i64, i64, i64, i8*, i64, i64, i64, i64, i64, i8*, i64, i64)* @_ZN5angle4privL13GenerateMip_YINS_9R32G32B32EEEvmmmPKhmmmmmPhmm, void (i64, i64, i64, i8*, i64, i64, i64, i64, i64, i8*, i64, i64)* @_ZN5angle4privL14GenerateMip_XYINS_9R32G32B32EEEvmmmPKhmmmmmPhmm, void (i64, i64, i64, i8*, i64, i64, i64, i64, i64, i8*, i64, i64)* @_ZN5angle4privL13GenerateMip_ZINS_9R32G32B32EEEvmmmPKhmmmmmPhmm, void (i64, i64, i64, i8*, i64, i64, i64, i64, i64, i8*, i64, i64)* @_ZN5angle4privL14GenerateMip_XZINS_9R32G32B32EEEvmmmPKhmmmmmPhmm, void (i64, i64, i64, i8*, i64, i64, i64, i64, i64, i8*, i64, i64)* @_ZN5angle4privL14GenerateMip_YZINS_9R32G32B32EEEvmmmPKhmmmmmPhmm, void (i64, i64, i64, i8*, i64, i64, i64, i64, i64, i8*, i64, i64)* @_ZN5angle4privL15GenerateMip_XYZINS_9R32G32B32EEEvmmmPKhmmmmmPhmm], align 8
@switch.table._ZN5angle11GenerateMipINS_7R32G32FEEEvmmmPKhmmPhmm = private unnamed_addr constant [8 x void (i64, i64, i64, i8*, i64, i64, i64, i64, i64, i8*, i64, i64)*] [void (i64, i64, i64, i8*, i64, i64, i64, i64, i64, i8*, i64, i64)* null, void (i64, i64, i64, i8*, i64, i64, i64, i64, i64, i8*, i64, i64)* @_ZN5angle4privL13GenerateMip_XINS_7R32G32FEEEvmmmPKhmmmmmPhmm, void (i64, i64, i64, i8*, i64, i64, i64, i64, i64, i8*, i64, i64)* @_ZN5angle4privL13GenerateMip_YINS_7R32G32FEEEvmmmPKhmmmmmPhmm, void (i64, i64, i64, i8*, i64, i64, i64, i64, i64, i8*, i64, i64)* @_ZN5angle4privL14GenerateMip_XYINS_7R32G32FEEEvmmmPKhmmmmmPhmm, void (i64, i64, i64, i8*, i64, i64, i64, i64, i64, i8*, i64, i64)* @_ZN5angle4privL13GenerateMip_ZINS_7R32G32FEEEvmmmPKhmmmmmPhmm, void (i64, i64, i64, i8*, i64, i64, i64, i64, i64, i8*, i64, i64)* @_ZN5angle4privL14GenerateMip_XZINS_7R32G32FEEEvmmmPKhmmmmmPhmm, void (i64, i64, i64, i8*, i64, i64, i64, i64, i64, i8*, i64, i64)* @_ZN5angle4privL14GenerateMip_YZINS_7R32G32FEEEvmmmPKhmmmmmPhmm, void (i64, i64, i64, i8*, i64, i64, i64, i64, i64, i8*, i64, i64)* @_ZN5angle4privL15GenerateMip_XYZINS_7R32G32FEEEvmmmPKhmmmmmPhmm], align 8
@switch.table._ZN5angle11GenerateMipINS_7R32G32SEEEvmmmPKhmmPhmm = private unnamed_addr constant [8 x void (i64, i64, i64, i8*, i64, i64, i64, i64, i64, i8*, i64, i64)*] [void (i64, i64, i64, i8*, i64, i64, i64, i64, i64, i8*, i64, i64)* null, void (i64, i64, i64, i8*, i64, i64, i64, i64, i64, i8*, i64, i64)* @_ZN5angle4privL13GenerateMip_XINS_7R32G32SEEEvmmmPKhmmmmmPhmm, void (i64, i64, i64, i8*, i64, i64, i64, i64, i64, i8*, i64, i64)* @_ZN5angle4privL13GenerateMip_YINS_7R32G32SEEEvmmmPKhmmmmmPhmm, void (i64, i64, i64, i8*, i64, i64, i64, i64, i64, i8*, i64, i64)* @_ZN5angle4privL14GenerateMip_XYINS_7R32G32SEEEvmmmPKhmmmmmPhmm, void (i64, i64, i64, i8*, i64, i64, i64, i64, i64, i8*, i64, i64)* @_ZN5angle4privL13GenerateMip_ZINS_7R32G32SEEEvmmmPKhmmmmmPhmm, void (i64, i64, i64, i8*, i64, i64, i64, i64, i64, i8*, i64, i64)* @_ZN5angle4privL14GenerateMip_XZINS_7R32G32SEEEvmmmPKhmmmmmPhmm, void (i64, i64, i64, i8*, i64, i64, i64, i64, i64, i8*, i64, i64)* @_ZN5angle4privL14GenerateMip_YZINS_7R32G32SEEEvmmmPKhmmmmmPhmm, void (i64, i64, i64, i8*, i64, i64, i64, i64, i64, i8*, i64, i64)* @_ZN5angle4privL15GenerateMip_XYZINS_7R32G32SEEEvmmmPKhmmmmmPhmm], align 8
@switch.table._ZN5angle11GenerateMipINS_6R32G32EEEvmmmPKhmmPhmm = private unnamed_addr constant [8 x void (i64, i64, i64, i8*, i64, i64, i64, i64, i64, i8*, i64, i64)*] [void (i64, i64, i64, i8*, i64, i64, i64, i64, i64, i8*, i64, i64)* null, void (i64, i64, i64, i8*, i64, i64, i64, i64, i64, i8*, i64, i64)* @_ZN5angle4privL13GenerateMip_XINS_6R32G32EEEvmmmPKhmmmmmPhmm, void (i64, i64, i64, i8*, i64, i64, i64, i64, i64, i8*, i64, i64)* @_ZN5angle4privL13GenerateMip_YINS_6R32G32EEEvmmmPKhmmmmmPhmm, void (i64, i64, i64, i8*, i64, i64, i64, i64, i64, i8*, i64, i64)* @_ZN5angle4privL14GenerateMip_XYINS_6R32G32EEEvmmmPKhmmmmmPhmm, void (i64, i64, i64, i8*, i64, i64, i64, i64, i64, i8*, i64, i64)* @_ZN5angle4privL13GenerateMip_ZINS_6R32G32EEEvmmmPKhmmmmmPhmm, void (i64, i64, i64, i8*, i64, i64, i64, i64, i64, i8*, i64, i64)* @_ZN5angle4privL14GenerateMip_XZINS_6R32G32EEEvmmmPKhmmmmmPhmm, void (i64, i64, i64, i8*, i64, i64, i64, i64, i64, i8*, i64, i64)* @_ZN5angle4privL14GenerateMip_YZINS_6R32G32EEEvmmmPKhmmmmmPhmm, void (i64, i64, i64, i8*, i64, i64, i64, i64, i64, i8*, i64, i64)* @_ZN5angle4privL15GenerateMip_XYZINS_6R32G32EEEvmmmPKhmmmmmPhmm], align 8
@switch.table._ZN5angle11GenerateMipINS_4R32FEEEvmmmPKhmmPhmm = private unnamed_addr constant [8 x void (i64, i64, i64, i8*, i64, i64, i64, i64, i64, i8*, i64, i64)*] [void (i64, i64, i64, i8*, i64, i64, i64, i64, i64, i8*, i64, i64)* null, void (i64, i64, i64, i8*, i64, i64, i64, i64, i64, i8*, i64, i64)* @_ZN5angle4privL13GenerateMip_XINS_4R32FEEEvmmmPKhmmmmmPhmm, void (i64, i64, i64, i8*, i64, i64, i64, i64, i64, i8*, i64, i64)* @_ZN5angle4privL13GenerateMip_YINS_4R32FEEEvmmmPKhmmmmmPhmm, void (i64, i64, i64, i8*, i64, i64, i64, i64, i64, i8*, i64, i64)* @_ZN5angle4privL14GenerateMip_XYINS_4R32FEEEvmmmPKhmmmmmPhmm, void (i64, i64, i64, i8*, i64, i64, i64, i64, i64, i8*, i64, i64)* @_ZN5angle4privL13GenerateMip_ZINS_4R32FEEEvmmmPKhmmmmmPhmm, void (i64, i64, i64, i8*, i64, i64, i64, i64, i64, i8*, i64, i64)* @_ZN5angle4privL14GenerateMip_XZINS_4R32FEEEvmmmPKhmmmmmPhmm, void (i64, i64, i64, i8*, i64, i64, i64, i64, i64, i8*, i64, i64)* @_ZN5angle4privL14GenerateMip_YZINS_4R32FEEEvmmmPKhmmmmmPhmm, void (i64, i64, i64, i8*, i64, i64, i64, i64, i64, i8*, i64, i64)* @_ZN5angle4privL15GenerateMip_XYZINS_4R32FEEEvmmmPKhmmmmmPhmm], align 8
@switch.table._ZN5angle11GenerateMipINS_4R32SEEEvmmmPKhmmPhmm = private unnamed_addr constant [8 x void (i64, i64, i64, i8*, i64, i64, i64, i64, i64, i8*, i64, i64)*] [void (i64, i64, i64, i8*, i64, i64, i64, i64, i64, i8*, i64, i64)* null, void (i64, i64, i64, i8*, i64, i64, i64, i64, i64, i8*, i64, i64)* @_ZN5angle4privL13GenerateMip_XINS_4R32SEEEvmmmPKhmmmmmPhmm, void (i64, i64, i64, i8*, i64, i64, i64, i64, i64, i8*, i64, i64)* @_ZN5angle4privL13GenerateMip_YINS_4R32SEEEvmmmPKhmmmmmPhmm, void (i64, i64, i64, i8*, i64, i64, i64, i64, i64, i8*, i64, i64)* @_ZN5angle4privL14GenerateMip_XYINS_4R32SEEEvmmmPKhmmmmmPhmm, void (i64, i64, i64, i8*, i64, i64, i64, i64, i64, i8*, i64, i64)* @_ZN5angle4privL13GenerateMip_ZINS_4R32SEEEvmmmPKhmmmmmPhmm, void (i64, i64, i64, i8*, i64, i64, i64, i64, i64, i8*, i64, i64)* @_ZN5angle4privL14GenerateMip_XZINS_4R32SEEEvmmmPKhmmmmmPhmm, void (i64, i64, i64, i8*, i64, i64, i64, i64, i64, i8*, i64, i64)* @_ZN5angle4privL14GenerateMip_YZINS_4R32SEEEvmmmPKhmmmmmPhmm, void (i64, i64, i64, i8*, i64, i64, i64, i64, i64, i8*, i64, i64)* @_ZN5angle4privL15GenerateMip_XYZINS_4R32SEEEvmmmPKhmmmmmPhmm], align 8
@switch.table._ZN5angle11GenerateMipINS_3R32EEEvmmmPKhmmPhmm = private unnamed_addr constant [8 x void (i64, i64, i64, i8*, i64, i64, i64, i64, i64, i8*, i64, i64)*] [void (i64, i64, i64, i8*, i64, i64, i64, i64, i64, i8*, i64, i64)* null, void (i64, i64, i64, i8*, i64, i64, i64, i64, i64, i8*, i64, i64)* @_ZN5angle4privL13GenerateMip_XINS_3R32EEEvmmmPKhmmmmmPhmm, void (i64, i64, i64, i8*, i64, i64, i64, i64, i64, i8*, i64, i64)* @_ZN5angle4privL13GenerateMip_YINS_3R32EEEvmmmPKhmmmmmPhmm, void (i64, i64, i64, i8*, i64, i64, i64, i64, i64, i8*, i64, i64)* @_ZN5angle4privL14GenerateMip_XYINS_3R32EEEvmmmPKhmmmmmPhmm, void (i64, i64, i64, i8*, i64, i64, i64, i64, i64, i8*, i64, i64)* @_ZN5angle4privL13GenerateMip_ZINS_3R32EEEvmmmPKhmmmmmPhmm, void (i64, i64, i64, i8*, i64, i64, i64, i64, i64, i8*, i64, i64)* @_ZN5angle4privL14GenerateMip_XZINS_3R32EEEvmmmPKhmmmmmPhmm, void (i64, i64, i64, i8*, i64, i64, i64, i64, i64, i8*, i64, i64)* @_ZN5angle4privL14GenerateMip_YZINS_3R32EEEvmmmPKhmmmmmPhmm, void (i64, i64, i64, i8*, i64, i64, i64, i64, i64, i8*, i64, i64)* @_ZN5angle4privL15GenerateMip_XYZINS_3R32EEEvmmmPKhmmmmmPhmm], align 8
@switch.table._ZN5angle11GenerateMipINS_8R4G4B4A4EEEvmmmPKhmmPhmm = private unnamed_addr constant [8 x void (i64, i64, i64, i8*, i64, i64, i64, i64, i64, i8*, i64, i64)*] [void (i64, i64, i64, i8*, i64, i64, i64, i64, i64, i8*, i64, i64)* null, void (i64, i64, i64, i8*, i64, i64, i64, i64, i64, i8*, i64, i64)* @_ZN5angle4privL13GenerateMip_XINS_8R4G4B4A4EEEvmmmPKhmmmmmPhmm, void (i64, i64, i64, i8*, i64, i64, i64, i64, i64, i8*, i64, i64)* @_ZN5angle4privL13GenerateMip_YINS_8R4G4B4A4EEEvmmmPKhmmmmmPhmm, void (i64, i64, i64, i8*, i64, i64, i64, i64, i64, i8*, i64, i64)* @_ZN5angle4privL14GenerateMip_XYINS_8R4G4B4A4EEEvmmmPKhmmmmmPhmm, void (i64, i64, i64, i8*, i64, i64, i64, i64, i64, i8*, i64, i64)* @_ZN5angle4privL13GenerateMip_ZINS_8R4G4B4A4EEEvmmmPKhmmmmmPhmm, void (i64, i64, i64, i8*, i64, i64, i64, i64, i64, i8*, i64, i64)* @_ZN5angle4privL14GenerateMip_XZINS_8R4G4B4A4EEEvmmmPKhmmmmmPhmm, void (i64, i64, i64, i8*, i64, i64, i64, i64, i64, i8*, i64, i64)* @_ZN5angle4privL14GenerateMip_YZINS_8R4G4B4A4EEEvmmmPKhmmmmmPhmm, void (i64, i64, i64, i8*, i64, i64, i64, i64, i64, i8*, i64, i64)* @_ZN5angle4privL15GenerateMip_XYZINS_8R4G4B4A4EEEvmmmPKhmmmmmPhmm], align 8
@switch.table._ZN5angle11GenerateMipINS_8R5G5B5A1EEEvmmmPKhmmPhmm = private unnamed_addr constant [8 x void (i64, i64, i64, i8*, i64, i64, i64, i64, i64, i8*, i64, i64)*] [void (i64, i64, i64, i8*, i64, i64, i64, i64, i64, i8*, i64, i64)* null, void (i64, i64, i64, i8*, i64, i64, i64, i64, i64, i8*, i64, i64)* @_ZN5angle4privL13GenerateMip_XINS_8R5G5B5A1EEEvmmmPKhmmmmmPhmm, void (i64, i64, i64, i8*, i64, i64, i64, i64, i64, i8*, i64, i64)* @_ZN5angle4privL13GenerateMip_YINS_8R5G5B5A1EEEvmmmPKhmmmmmPhmm, void (i64, i64, i64, i8*, i64, i64, i64, i64, i64, i8*, i64, i64)* @_ZN5angle4privL14GenerateMip_XYINS_8R5G5B5A1EEEvmmmPKhmmmmmPhmm, void (i64, i64, i64, i8*, i64, i64, i64, i64, i64, i8*, i64, i64)* @_ZN5angle4privL13GenerateMip_ZINS_8R5G5B5A1EEEvmmmPKhmmmmmPhmm, void (i64, i64, i64, i8*, i64, i64, i64, i64, i64, i8*, i64, i64)* @_ZN5angle4privL14GenerateMip_XZINS_8R5G5B5A1EEEvmmmPKhmmmmmPhmm, void (i64, i64, i64, i8*, i64, i64, i64, i64, i64, i8*, i64, i64)* @_ZN5angle4privL14GenerateMip_YZINS_8R5G5B5A1EEEvmmmPKhmmmmmPhmm, void (i64, i64, i64, i8*, i64, i64, i64, i64, i64, i8*, i64, i64)* @_ZN5angle4privL15GenerateMip_XYZINS_8R5G5B5A1EEEvmmmPKhmmmmmPhmm], align 8
@switch.table._ZN5angle11GenerateMipINS_6R5G6B5EEEvmmmPKhmmPhmm = private unnamed_addr constant [8 x void (i64, i64, i64, i8*, i64, i64, i64, i64, i64, i8*, i64, i64)*] [void (i64, i64, i64, i8*, i64, i64, i64, i64, i64, i8*, i64, i64)* null, void (i64, i64, i64, i8*, i64, i64, i64, i64, i64, i8*, i64, i64)* @_ZN5angle4privL13GenerateMip_XINS_6R5G6B5EEEvmmmPKhmmmmmPhmm, void (i64, i64, i64, i8*, i64, i64, i64, i64, i64, i8*, i64, i64)* @_ZN5angle4privL13GenerateMip_YINS_6R5G6B5EEEvmmmPKhmmmmmPhmm, void (i64, i64, i64, i8*, i64, i64, i64, i64, i64, i8*, i64, i64)* @_ZN5angle4privL14GenerateMip_XYINS_6R5G6B5EEEvmmmPKhmmmmmPhmm, void (i64, i64, i64, i8*, i64, i64, i64, i64, i64, i8*, i64, i64)* @_ZN5angle4privL13GenerateMip_ZINS_6R5G6B5EEEvmmmPKhmmmmmPhmm, void (i64, i64, i64, i8*, i64, i64, i64, i64, i64, i8*, i64, i64)* @_ZN5angle4privL14GenerateMip_XZINS_6R5G6B5EEEvmmmPKhmmmmmPhmm, void (i64, i64, i64, i8*, i64, i64, i64, i64, i64, i8*, i64, i64)* @_ZN5angle4privL14GenerateMip_YZINS_6R5G6B5EEEvmmmPKhmmmmmPhmm, void (i64, i64, i64, i8*, i64, i64, i64, i64, i64, i8*, i64, i64)* @_ZN5angle4privL15GenerateMip_XYZINS_6R5G6B5EEEvmmmPKhmmmmmPhmm], align 8
@switch.table._ZN5angle11GenerateMipINS_9R8G8B8A8SEEEvmmmPKhmmPhmm = private unnamed_addr constant [8 x void (i64, i64, i64, i8*, i64, i64, i64, i64, i64, i8*, i64, i64)*] [void (i64, i64, i64, i8*, i64, i64, i64, i64, i64, i8*, i64, i64)* null, void (i64, i64, i64, i8*, i64, i64, i64, i64, i64, i8*, i64, i64)* @_ZN5angle4privL13GenerateMip_XINS_9R8G8B8A8SEEEvmmmPKhmmmmmPhmm, void (i64, i64, i64, i8*, i64, i64, i64, i64, i64, i8*, i64, i64)* @_ZN5angle4privL13GenerateMip_YINS_9R8G8B8A8SEEEvmmmPKhmmmmmPhmm, void (i64, i64, i64, i8*, i64, i64, i64, i64, i64, i8*, i64, i64)* @_ZN5angle4privL14GenerateMip_XYINS_9R8G8B8A8SEEEvmmmPKhmmmmmPhmm, void (i64, i64, i64, i8*, i64, i64, i64, i64, i64, i8*, i64, i64)* @_ZN5angle4privL13GenerateMip_ZINS_9R8G8B8A8SEEEvmmmPKhmmmmmPhmm, void (i64, i64, i64, i8*, i64, i64, i64, i64, i64, i8*, i64, i64)* @_ZN5angle4privL14GenerateMip_XZINS_9R8G8B8A8SEEEvmmmPKhmmmmmPhmm, void (i64, i64, i64, i8*, i64, i64, i64, i64, i64, i8*, i64, i64)* @_ZN5angle4privL14GenerateMip_YZINS_9R8G8B8A8SEEEvmmmPKhmmmmmPhmm, void (i64, i64, i64, i8*, i64, i64, i64, i64, i64, i8*, i64, i64)* @_ZN5angle4privL15GenerateMip_XYZINS_9R8G8B8A8SEEEvmmmPKhmmmmmPhmm], align 8
@switch.table._ZN5angle11GenerateMipINS_8R8G8B8A8EEEvmmmPKhmmPhmm = private unnamed_addr constant [8 x void (i64, i64, i64, i8*, i64, i64, i64, i64, i64, i8*, i64, i64)*] [void (i64, i64, i64, i8*, i64, i64, i64, i64, i64, i8*, i64, i64)* null, void (i64, i64, i64, i8*, i64, i64, i64, i64, i64, i8*, i64, i64)* @_ZN5angle4privL13GenerateMip_XINS_8R8G8B8A8EEEvmmmPKhmmmmmPhmm, void (i64, i64, i64, i8*, i64, i64, i64, i64, i64, i8*, i64, i64)* @_ZN5angle4privL13GenerateMip_YINS_8R8G8B8A8EEEvmmmPKhmmmmmPhmm, void (i64, i64, i64, i8*, i64, i64, i64, i64, i64, i8*, i64, i64)* @_ZN5angle4privL14GenerateMip_XYINS_8R8G8B8A8EEEvmmmPKhmmmmmPhmm, void (i64, i64, i64, i8*, i64, i64, i64, i64, i64, i8*, i64, i64)* @_ZN5angle4privL13GenerateMip_ZINS_8R8G8B8A8EEEvmmmPKhmmmmmPhmm, void (i64, i64, i64, i8*, i64, i64, i64, i64, i64, i8*, i64, i64)* @_ZN5angle4privL14GenerateMip_XZINS_8R8G8B8A8EEEvmmmPKhmmmmmPhmm, void (i64, i64, i64, i8*, i64, i64, i64, i64, i64, i8*, i64, i64)* @_ZN5angle4privL14GenerateMip_YZINS_8R8G8B8A8EEEvmmmPKhmmmmmPhmm, void (i64, i64, i64, i8*, i64, i64, i64, i64, i64, i8*, i64, i64)* @_ZN5angle4privL15GenerateMip_XYZINS_8R8G8B8A8EEEvmmmPKhmmmmmPhmm], align 8
@switch.table._ZN5angle11GenerateMipINS_12R8G8B8A8SRGBEEEvmmmPKhmmPhmm = private unnamed_addr constant [8 x void (i64, i64, i64, i8*, i64, i64, i64, i64, i64, i8*, i64, i64)*] [void (i64, i64, i64, i8*, i64, i64, i64, i64, i64, i8*, i64, i64)* null, void (i64, i64, i64, i8*, i64, i64, i64, i64, i64, i8*, i64, i64)* @_ZN5angle4privL13GenerateMip_XINS_12R8G8B8A8SRGBEEEvmmmPKhmmmmmPhmm, void (i64, i64, i64, i8*, i64, i64, i64, i64, i64, i8*, i64, i64)* @_ZN5angle4privL13GenerateMip_YINS_12R8G8B8A8SRGBEEEvmmmPKhmmmmmPhmm, void (i64, i64, i64, i8*, i64, i64, i64, i64, i64, i8*, i64, i64)* @_ZN5angle4privL14GenerateMip_XYINS_12R8G8B8A8SRGBEEEvmmmPKhmmmmmPhmm, void (i64, i64, i64, i8*, i64, i64, i64, i64, i64, i8*, i64, i64)* @_ZN5angle4privL13GenerateMip_ZINS_12R8G8B8A8SRGBEEEvmmmPKhmmmmmPhmm, void (i64, i64, i64, i8*, i64, i64, i64, i64, i64, i8*, i64, i64)* @_ZN5angle4privL14GenerateMip_XZINS_12R8G8B8A8SRGBEEEvmmmPKhmmmmmPhmm, void (i64, i64, i64, i8*, i64, i64, i64, i64, i64, i8*, i64, i64)* @_ZN5angle4privL14GenerateMip_YZINS_12R8G8B8A8SRGBEEEvmmmPKhmmmmmPhmm, void (i64, i64, i64, i8*, i64, i64, i64, i64, i64, i8*, i64, i64)* @_ZN5angle4privL15GenerateMip_XYZINS_12R8G8B8A8SRGBEEEvmmmPKhmmmmmPhmm], align 8
@switch.table._ZN5angle11GenerateMipINS_7R8G8B8SEEEvmmmPKhmmPhmm = private unnamed_addr constant [8 x void (i64, i64, i64, i8*, i64, i64, i64, i64, i64, i8*, i64, i64)*] [void (i64, i64, i64, i8*, i64, i64, i64, i64, i64, i8*, i64, i64)* null, void (i64, i64, i64, i8*, i64, i64, i64, i64, i64, i8*, i64, i64)* @_ZN5angle4privL13GenerateMip_XINS_7R8G8B8SEEEvmmmPKhmmmmmPhmm, void (i64, i64, i64, i8*, i64, i64, i64, i64, i64, i8*, i64, i64)* @_ZN5angle4privL13GenerateMip_YINS_7R8G8B8SEEEvmmmPKhmmmmmPhmm, void (i64, i64, i64, i8*, i64, i64, i64, i64, i64, i8*, i64, i64)* @_ZN5angle4privL14GenerateMip_XYINS_7R8G8B8SEEEvmmmPKhmmmmmPhmm, void (i64, i64, i64, i8*, i64, i64, i64, i64, i64, i8*, i64, i64)* @_ZN5angle4privL13GenerateMip_ZINS_7R8G8B8SEEEvmmmPKhmmmmmPhmm, void (i64, i64, i64, i8*, i64, i64, i64, i64, i64, i8*, i64, i64)* @_ZN5angle4privL14GenerateMip_XZINS_7R8G8B8SEEEvmmmPKhmmmmmPhmm, void (i64, i64, i64, i8*, i64, i64, i64, i64, i64, i8*, i64, i64)* @_ZN5angle4privL14GenerateMip_YZINS_7R8G8B8SEEEvmmmPKhmmmmmPhmm, void (i64, i64, i64, i8*, i64, i64, i64, i64, i64, i8*, i64, i64)* @_ZN5angle4privL15GenerateMip_XYZINS_7R8G8B8SEEEvmmmPKhmmmmmPhmm], align 8
@switch.table._ZN5angle11GenerateMipINS_5R8G8SEEEvmmmPKhmmPhmm = private unnamed_addr constant [8 x void (i64, i64, i64, i8*, i64, i64, i64, i64, i64, i8*, i64, i64)*] [void (i64, i64, i64, i8*, i64, i64, i64, i64, i64, i8*, i64, i64)* null, void (i64, i64, i64, i8*, i64, i64, i64, i64, i64, i8*, i64, i64)* @_ZN5angle4privL13GenerateMip_XINS_5R8G8SEEEvmmmPKhmmmmmPhmm, void (i64, i64, i64, i8*, i64, i64, i64, i64, i64, i8*, i64, i64)* @_ZN5angle4privL13GenerateMip_YINS_5R8G8SEEEvmmmPKhmmmmmPhmm, void (i64, i64, i64, i8*, i64, i64, i64, i64, i64, i8*, i64, i64)* @_ZN5angle4privL14GenerateMip_XYINS_5R8G8SEEEvmmmPKhmmmmmPhmm, void (i64, i64, i64, i8*, i64, i64, i64, i64, i64, i8*, i64, i64)* @_ZN5angle4privL13GenerateMip_ZINS_5R8G8SEEEvmmmPKhmmmmmPhmm, void (i64, i64, i64, i8*, i64, i64, i64, i64, i64, i8*, i64, i64)* @_ZN5angle4privL14GenerateMip_XZINS_5R8G8SEEEvmmmPKhmmmmmPhmm, void (i64, i64, i64, i8*, i64, i64, i64, i64, i64, i8*, i64, i64)* @_ZN5angle4privL14GenerateMip_YZINS_5R8G8SEEEvmmmPKhmmmmmPhmm, void (i64, i64, i64, i8*, i64, i64, i64, i64, i64, i8*, i64, i64)* @_ZN5angle4privL15GenerateMip_XYZINS_5R8G8SEEEvmmmPKhmmmmmPhmm], align 8
@switch.table._ZN5angle11GenerateMipINS_4R8G8EEEvmmmPKhmmPhmm = private unnamed_addr constant [8 x void (i64, i64, i64, i8*, i64, i64, i64, i64, i64, i8*, i64, i64)*] [void (i64, i64, i64, i8*, i64, i64, i64, i64, i64, i8*, i64, i64)* null, void (i64, i64, i64, i8*, i64, i64, i64, i64, i64, i8*, i64, i64)* @_ZN5angle4privL13GenerateMip_XINS_4R8G8EEEvmmmPKhmmmmmPhmm, void (i64, i64, i64, i8*, i64, i64, i64, i64, i64, i8*, i64, i64)* @_ZN5angle4privL13GenerateMip_YINS_4R8G8EEEvmmmPKhmmmmmPhmm, void (i64, i64, i64, i8*, i64, i64, i64, i64, i64, i8*, i64, i64)* @_ZN5angle4privL14GenerateMip_XYINS_4R8G8EEEvmmmPKhmmmmmPhmm, void (i64, i64, i64, i8*, i64, i64, i64, i64, i64, i8*, i64, i64)* @_ZN5angle4privL13GenerateMip_ZINS_4R8G8EEEvmmmPKhmmmmmPhmm, void (i64, i64, i64, i8*, i64, i64, i64, i64, i64, i8*, i64, i64)* @_ZN5angle4privL14GenerateMip_XZINS_4R8G8EEEvmmmPKhmmmmmPhmm, void (i64, i64, i64, i8*, i64, i64, i64, i64, i64, i8*, i64, i64)* @_ZN5angle4privL14GenerateMip_YZINS_4R8G8EEEvmmmPKhmmmmmPhmm, void (i64, i64, i64, i8*, i64, i64, i64, i64, i64, i8*, i64, i64)* @_ZN5angle4privL15GenerateMip_XYZINS_4R8G8EEEvmmmPKhmmmmmPhmm], align 8
@switch.table._ZN5angle11GenerateMipINS_3R8SEEEvmmmPKhmmPhmm = private unnamed_addr constant [8 x void (i64, i64, i64, i8*, i64, i64, i64, i64, i64, i8*, i64, i64)*] [void (i64, i64, i64, i8*, i64, i64, i64, i64, i64, i8*, i64, i64)* null, void (i64, i64, i64, i8*, i64, i64, i64, i64, i64, i8*, i64, i64)* @_ZN5angle4privL13GenerateMip_XINS_3R8SEEEvmmmPKhmmmmmPhmm, void (i64, i64, i64, i8*, i64, i64, i64, i64, i64, i8*, i64, i64)* @_ZN5angle4privL13GenerateMip_YINS_3R8SEEEvmmmPKhmmmmmPhmm, void (i64, i64, i64, i8*, i64, i64, i64, i64, i64, i8*, i64, i64)* @_ZN5angle4privL14GenerateMip_XYINS_3R8SEEEvmmmPKhmmmmmPhmm, void (i64, i64, i64, i8*, i64, i64, i64, i64, i64, i8*, i64, i64)* @_ZN5angle4privL13GenerateMip_ZINS_3R8SEEEvmmmPKhmmmmmPhmm, void (i64, i64, i64, i8*, i64, i64, i64, i64, i64, i8*, i64, i64)* @_ZN5angle4privL14GenerateMip_XZINS_3R8SEEEvmmmPKhmmmmmPhmm, void (i64, i64, i64, i8*, i64, i64, i64, i64, i64, i8*, i64, i64)* @_ZN5angle4privL14GenerateMip_YZINS_3R8SEEEvmmmPKhmmmmmPhmm, void (i64, i64, i64, i8*, i64, i64, i64, i64, i64, i8*, i64, i64)* @_ZN5angle4privL15GenerateMip_XYZINS_3R8SEEEvmmmPKhmmmmmPhmm], align 8
@switch.table._ZN5angle11GenerateMipINS_2R8EEEvmmmPKhmmPhmm = private unnamed_addr constant [8 x void (i64, i64, i64, i8*, i64, i64, i64, i64, i64, i8*, i64, i64)*] [void (i64, i64, i64, i8*, i64, i64, i64, i64, i64, i8*, i64, i64)* null, void (i64, i64, i64, i8*, i64, i64, i64, i64, i64, i8*, i64, i64)* @_ZN5angle4privL13GenerateMip_XINS_2R8EEEvmmmPKhmmmmmPhmm, void (i64, i64, i64, i8*, i64, i64, i64, i64, i64, i8*, i64, i64)* @_ZN5angle4privL13GenerateMip_YINS_2R8EEEvmmmPKhmmmmmPhmm, void (i64, i64, i64, i8*, i64, i64, i64, i64, i64, i8*, i64, i64)* @_ZN5angle4privL14GenerateMip_XYINS_2R8EEEvmmmPKhmmmmmPhmm, void (i64, i64, i64, i8*, i64, i64, i64, i64, i64, i8*, i64, i64)* @_ZN5angle4privL13GenerateMip_ZINS_2R8EEEvmmmPKhmmmmmPhmm, void (i64, i64, i64, i8*, i64, i64, i64, i64, i64, i8*, i64, i64)* @_ZN5angle4privL14GenerateMip_XZINS_2R8EEEvmmmPKhmmmmmPhmm, void (i64, i64, i64, i8*, i64, i64, i64, i64, i64, i8*, i64, i64)* @_ZN5angle4privL14GenerateMip_YZINS_2R8EEEvmmmPKhmmmmmPhmm, void (i64, i64, i64, i8*, i64, i64, i64, i64, i64, i8*, i64, i64)* @_ZN5angle4privL15GenerateMip_XYZINS_2R8EEEvmmmPKhmmmmmPhmm], align 8
@switch.table._ZN5angle11GenerateMipINS_8R9G9B9E5EEEvmmmPKhmmPhmm = private unnamed_addr constant [8 x void (i64, i64, i64, i8*, i64, i64, i64, i64, i64, i8*, i64, i64)*] [void (i64, i64, i64, i8*, i64, i64, i64, i64, i64, i8*, i64, i64)* null, void (i64, i64, i64, i8*, i64, i64, i64, i64, i64, i8*, i64, i64)* @_ZN5angle4privL13GenerateMip_XINS_8R9G9B9E5EEEvmmmPKhmmmmmPhmm, void (i64, i64, i64, i8*, i64, i64, i64, i64, i64, i8*, i64, i64)* @_ZN5angle4privL13GenerateMip_YINS_8R9G9B9E5EEEvmmmPKhmmmmmPhmm, void (i64, i64, i64, i8*, i64, i64, i64, i64, i64, i8*, i64, i64)* @_ZN5angle4privL14GenerateMip_XYINS_8R9G9B9E5EEEvmmmPKhmmmmmPhmm, void (i64, i64, i64, i8*, i64, i64, i64, i64, i64, i8*, i64, i64)* @_ZN5angle4privL13GenerateMip_ZINS_8R9G9B9E5EEEvmmmPKhmmmmmPhmm, void (i64, i64, i64, i8*, i64, i64, i64, i64, i64, i8*, i64, i64)* @_ZN5angle4privL14GenerateMip_XZINS_8R9G9B9E5EEEvmmmPKhmmmmmPhmm, void (i64, i64, i64, i8*, i64, i64, i64, i64, i64, i8*, i64, i64)* @_ZN5angle4privL14GenerateMip_YZINS_8R9G9B9E5EEEvmmmPKhmmmmmPhmm, void (i64, i64, i64, i8*, i64, i64, i64, i64, i64, i8*, i64, i64)* @_ZN5angle4privL15GenerateMip_XYZINS_8R9G9B9E5EEEvmmmPKhmmmmmPhmm], align 8

; Function Attrs: nounwind ssp uwtable
define linkonce_odr hidden void @_ZN5angle16ReadDepthStencilINS_3D16EEEvPKhPh(i8*, i8*) #0 comdat {
  %3 = bitcast i8* %1 to %"struct.angle::DepthStencil"*
  %4 = bitcast i8* %0 to %"struct.angle::D16"*
  tail call void @_ZN5angle3D1616ReadDepthStencilEPNS_12DepthStencilEPKS0_(%"struct.angle::DepthStencil"* %3, %"struct.angle::D16"* %4) #5
  ret void
}

; Function Attrs: nounwind ssp uwtable
define linkonce_odr hidden void @_ZN5angle17WriteDepthStencilINS_3D16EEEvPKhPh(i8*, i8*) #0 comdat {
  %3 = bitcast i8* %1 to %"struct.angle::D16"*
  %4 = bitcast i8* %0 to %"struct.angle::DepthStencil"*
  tail call void @_ZN5angle3D1617WriteDepthStencilEPS0_PKNS_12DepthStencilE(%"struct.angle::D16"* %3, %"struct.angle::DepthStencil"* %4) #5
  ret void
}

; Function Attrs: nounwind ssp uwtable
define linkonce_odr hidden void @_ZN5angle16ReadDepthStencilINS_5D24S8EEEvPKhPh(i8*, i8*) #0 comdat {
  %3 = bitcast i8* %1 to %"struct.angle::DepthStencil"*
  %4 = bitcast i8* %0 to %"struct.angle::D24S8"*
  tail call void @_ZN5angle5D24S816ReadDepthStencilEPNS_12DepthStencilEPKS0_(%"struct.angle::DepthStencil"* %3, %"struct.angle::D24S8"* %4) #5
  ret void
}

; Function Attrs: nounwind ssp uwtable
define linkonce_odr hidden void @_ZN5angle17WriteDepthStencilINS_5D24S8EEEvPKhPh(i8*, i8*) #0 comdat {
  %3 = bitcast i8* %1 to %"struct.angle::D24S8"*
  %4 = bitcast i8* %0 to %"struct.angle::DepthStencil"*
  tail call void @_ZN5angle5D24S817WriteDepthStencilEPS0_PKNS_12DepthStencilE(%"struct.angle::D24S8"* %3, %"struct.angle::DepthStencil"* %4) #5
  ret void
}

; Function Attrs: nounwind ssp uwtable
define linkonce_odr hidden void @_ZN5angle16ReadDepthStencilINS_5D24X8EEEvPKhPh(i8*, i8*) #0 comdat {
  %3 = bitcast i8* %1 to %"struct.angle::DepthStencil"*
  %4 = bitcast i8* %0 to %"struct.angle::D24X8"*
  tail call void @_ZN5angle5D24X816ReadDepthStencilEPNS_12DepthStencilEPKS0_(%"struct.angle::DepthStencil"* %3, %"struct.angle::D24X8"* %4) #5
  ret void
}

; Function Attrs: nounwind ssp uwtable
define linkonce_odr hidden void @_ZN5angle17WriteDepthStencilINS_5D24X8EEEvPKhPh(i8*, i8*) #0 comdat {
  %3 = bitcast i8* %1 to %"struct.angle::D24X8"*
  %4 = bitcast i8* %0 to %"struct.angle::DepthStencil"*
  tail call void @_ZN5angle5D24X817WriteDepthStencilEPS0_PKNS_12DepthStencilE(%"struct.angle::D24X8"* %3, %"struct.angle::DepthStencil"* %4) #5
  ret void
}

; Function Attrs: nounwind ssp uwtable
define linkonce_odr hidden void @_ZN5angle16ReadDepthStencilINS_4D32FEEEvPKhPh(i8*, i8*) #0 comdat {
  %3 = bitcast i8* %1 to %"struct.angle::DepthStencil"*
  %4 = bitcast i8* %0 to %"struct.angle::D32F"*
  tail call void @_ZN5angle4D32F16ReadDepthStencilEPNS_12DepthStencilEPKS0_(%"struct.angle::DepthStencil"* %3, %"struct.angle::D32F"* %4) #5
  ret void
}

; Function Attrs: nounwind ssp uwtable
define linkonce_odr hidden void @_ZN5angle17WriteDepthStencilINS_4D32FEEEvPKhPh(i8*, i8*) #0 comdat {
  %3 = bitcast i8* %1 to %"struct.angle::D32F"*
  %4 = bitcast i8* %0 to %"struct.angle::DepthStencil"*
  tail call void @_ZN5angle4D32F17WriteDepthStencilEPS0_PKNS_12DepthStencilE(%"struct.angle::D32F"* %3, %"struct.angle::DepthStencil"* %4) #5
  ret void
}

; Function Attrs: nounwind ssp uwtable
define linkonce_odr hidden void @_ZN5angle16ReadDepthStencilINS_9D32FS8X24EEEvPKhPh(i8*, i8*) #0 comdat {
  %3 = bitcast i8* %1 to %"struct.angle::DepthStencil"*
  %4 = bitcast i8* %0 to %"struct.angle::D32FS8X24"*
  tail call void @_ZN5angle9D32FS8X2416ReadDepthStencilEPNS_12DepthStencilEPKS0_(%"struct.angle::DepthStencil"* %3, %"struct.angle::D32FS8X24"* %4) #5
  ret void
}

; Function Attrs: nounwind ssp uwtable
define linkonce_odr hidden void @_ZN5angle17WriteDepthStencilINS_9D32FS8X24EEEvPKhPh(i8*, i8*) #0 comdat {
  %3 = bitcast i8* %1 to %"struct.angle::D32FS8X24"*
  %4 = bitcast i8* %0 to %"struct.angle::DepthStencil"*
  tail call void @_ZN5angle9D32FS8X2417WriteDepthStencilEPS0_PKNS_12DepthStencilE(%"struct.angle::D32FS8X24"* %3, %"struct.angle::DepthStencil"* %4) #5
  ret void
}

; Function Attrs: nounwind ssp uwtable
define linkonce_odr hidden void @_ZN5angle16ReadDepthStencilINS_3D32EEEvPKhPh(i8*, i8*) #0 comdat {
  %3 = bitcast i8* %1 to %"struct.angle::DepthStencil"*
  %4 = bitcast i8* %0 to %"struct.angle::D32"*
  tail call void @_ZN5angle3D3216ReadDepthStencilEPNS_12DepthStencilEPKS0_(%"struct.angle::DepthStencil"* %3, %"struct.angle::D32"* %4) #5
  ret void
}

; Function Attrs: nounwind ssp uwtable
define linkonce_odr hidden void @_ZN5angle17WriteDepthStencilINS_3D32EEEvPKhPh(i8*, i8*) #0 comdat {
  %3 = bitcast i8* %1 to %"struct.angle::D32"*
  %4 = bitcast i8* %0 to %"struct.angle::DepthStencil"*
  tail call void @_ZN5angle3D3217WriteDepthStencilEPS0_PKNS_12DepthStencilE(%"struct.angle::D32"* %3, %"struct.angle::DepthStencil"* %4) #5
  ret void
}

; Function Attrs: nounwind ssp uwtable
define linkonce_odr hidden void @_ZN5angle16ReadDepthStencilINS_2S8EEEvPKhPh(i8*, i8*) #0 comdat {
  %3 = bitcast i8* %1 to %"struct.angle::DepthStencil"*
  %4 = bitcast i8* %0 to %"struct.angle::S8"*
  tail call void @_ZN5angle2S816ReadDepthStencilEPNS_12DepthStencilEPKS0_(%"struct.angle::DepthStencil"* %3, %"struct.angle::S8"* %4) #5
  ret void
}

; Function Attrs: nounwind ssp uwtable
define linkonce_odr hidden void @_ZN5angle17WriteDepthStencilINS_2S8EEEvPKhPh(i8*, i8*) #0 comdat {
  %3 = bitcast i8* %1 to %"struct.angle::S8"*
  %4 = bitcast i8* %0 to %"struct.angle::DepthStencil"*
  tail call void @_ZN5angle2S817WriteDepthStencilEPS0_PKNS_12DepthStencilE(%"struct.angle::S8"* %3, %"struct.angle::DepthStencil"* %4) #5
  ret void
}

; Function Attrs: inlinehint nounwind ssp uwtable
define linkonce_odr hidden void @_ZN5angle11GenerateMipINS_4A16FEEEvmmmPKhmmPhmm(i64, i64, i64, i8*, i64, i64, i8*, i64, i64) #1 comdat {
  %10 = lshr i64 %0, 1
  %11 = icmp ugt i64 %10, 1
  %12 = select i1 %11, i64 %10, i64 1
  %13 = lshr i64 %1, 1
  %14 = icmp ugt i64 %13, 1
  %15 = select i1 %14, i64 %13, i64 1
  %16 = lshr i64 %2, 1
  %17 = icmp ugt i64 %16, 1
  %18 = select i1 %17, i64 %16, i64 1
  %19 = icmp ugt i64 %0, 1
  %20 = zext i1 %19 to i64
  %21 = icmp ugt i64 %1, 1
  %22 = select i1 %21, i64 2, i64 0
  %23 = or i64 %22, %20
  %24 = icmp ugt i64 %2, 1
  %25 = select i1 %24, i64 4, i64 0
  %26 = or i64 %23, %25
  %27 = getelementptr inbounds [8 x void (i64, i64, i64, i8*, i64, i64, i64, i64, i64, i8*, i64, i64)*], [8 x void (i64, i64, i64, i8*, i64, i64, i64, i64, i64, i8*, i64, i64)*]* @switch.table._ZN5angle11GenerateMipINS_4A16FEEEvmmmPKhmmPhmm, i64 0, i64 %26
  %28 = load void (i64, i64, i64, i8*, i64, i64, i64, i64, i64, i8*, i64, i64)*, void (i64, i64, i64, i8*, i64, i64, i64, i64, i64, i8*, i64, i64)** %27, align 8
  tail call void %28(i64 %0, i64 %1, i64 %2, i8* %3, i64 %4, i64 %5, i64 %12, i64 %15, i64 %18, i8* %6, i64 %7, i64 %8) #5
  ret void
}

; Function Attrs: nounwind ssp uwtable
define linkonce_odr hidden void @_ZN5angle9ReadColorINS_4A16FEfEEvPKhPh(i8*, i8*) #0 comdat {
  %3 = bitcast i8* %1 to %"struct.angle::Color"*
  %4 = bitcast i8* %0 to %"struct.angle::A16F"*
  tail call void @_ZN5angle4A16F9readColorEPNS_5ColorIfEEPKS0_(%"struct.angle::Color"* %3, %"struct.angle::A16F"* %4) #5
  ret void
}

; Function Attrs: nounwind ssp uwtable
define linkonce_odr hidden void @_ZN5angle10WriteColorINS_4A16FEfEEvPKhPh(i8*, i8*) #0 comdat {
  %3 = bitcast i8* %1 to %"struct.angle::A16F"*
  %4 = bitcast i8* %0 to %"struct.angle::Color"*
  tail call void @_ZN5angle4A16F10writeColorEPS0_PKNS_5ColorIfEE(%"struct.angle::A16F"* %3, %"struct.angle::Color"* %4) #5
  ret void
}

; Function Attrs: inlinehint nounwind ssp uwtable
define linkonce_odr hidden void @_ZN5angle11GenerateMipINS_8A1R5G5B5EEEvmmmPKhmmPhmm(i64, i64, i64, i8*, i64, i64, i8*, i64, i64) #1 comdat {
  %10 = lshr i64 %0, 1
  %11 = icmp ugt i64 %10, 1
  %12 = select i1 %11, i64 %10, i64 1
  %13 = lshr i64 %1, 1
  %14 = icmp ugt i64 %13, 1
  %15 = select i1 %14, i64 %13, i64 1
  %16 = lshr i64 %2, 1
  %17 = icmp ugt i64 %16, 1
  %18 = select i1 %17, i64 %16, i64 1
  %19 = icmp ugt i64 %0, 1
  %20 = zext i1 %19 to i64
  %21 = icmp ugt i64 %1, 1
  %22 = select i1 %21, i64 2, i64 0
  %23 = or i64 %22, %20
  %24 = icmp ugt i64 %2, 1
  %25 = select i1 %24, i64 4, i64 0
  %26 = or i64 %23, %25
  %27 = getelementptr inbounds [8 x void (i64, i64, i64, i8*, i64, i64, i64, i64, i64, i8*, i64, i64)*], [8 x void (i64, i64, i64, i8*, i64, i64, i64, i64, i64, i8*, i64, i64)*]* @switch.table._ZN5angle11GenerateMipINS_8A1R5G5B5EEEvmmmPKhmmPhmm, i64 0, i64 %26
  %28 = load void (i64, i64, i64, i8*, i64, i64, i64, i64, i64, i8*, i64, i64)*, void (i64, i64, i64, i8*, i64, i64, i64, i64, i64, i8*, i64, i64)** %27, align 8
  tail call void %28(i64 %0, i64 %1, i64 %2, i8* %3, i64 %4, i64 %5, i64 %12, i64 %15, i64 %18, i8* %6, i64 %7, i64 %8) #5
  ret void
}

; Function Attrs: nounwind ssp uwtable
define linkonce_odr hidden void @_ZN5angle9ReadColorINS_8A1R5G5B5EfEEvPKhPh(i8*, i8*) #0 comdat {
  %3 = bitcast i8* %1 to %"struct.angle::Color"*
  %4 = bitcast i8* %0 to %"struct.angle::A1R5G5B5"*
  tail call void @_ZN5angle8A1R5G5B59readColorEPNS_5ColorIfEEPKS0_(%"struct.angle::Color"* %3, %"struct.angle::A1R5G5B5"* %4) #5
  ret void
}

; Function Attrs: nounwind ssp uwtable
define linkonce_odr hidden void @_ZN5angle10WriteColorINS_8A1R5G5B5EfEEvPKhPh(i8*, i8*) #0 comdat {
  %3 = bitcast i8* %1 to %"struct.angle::A1R5G5B5"*
  %4 = bitcast i8* %0 to %"struct.angle::Color"*
  tail call void @_ZN5angle8A1R5G5B510writeColorEPS0_PKNS_5ColorIfEE(%"struct.angle::A1R5G5B5"* %3, %"struct.angle::Color"* %4) #5
  ret void
}

; Function Attrs: inlinehint nounwind ssp uwtable
define linkonce_odr hidden void @_ZN5angle11GenerateMipINS_4A32FEEEvmmmPKhmmPhmm(i64, i64, i64, i8*, i64, i64, i8*, i64, i64) #1 comdat {
  %10 = lshr i64 %0, 1
  %11 = icmp ugt i64 %10, 1
  %12 = select i1 %11, i64 %10, i64 1
  %13 = lshr i64 %1, 1
  %14 = icmp ugt i64 %13, 1
  %15 = select i1 %14, i64 %13, i64 1
  %16 = lshr i64 %2, 1
  %17 = icmp ugt i64 %16, 1
  %18 = select i1 %17, i64 %16, i64 1
  %19 = icmp ugt i64 %0, 1
  %20 = zext i1 %19 to i64
  %21 = icmp ugt i64 %1, 1
  %22 = select i1 %21, i64 2, i64 0
  %23 = or i64 %22, %20
  %24 = icmp ugt i64 %2, 1
  %25 = select i1 %24, i64 4, i64 0
  %26 = or i64 %23, %25
  %27 = getelementptr inbounds [8 x void (i64, i64, i64, i8*, i64, i64, i64, i64, i64, i8*, i64, i64)*], [8 x void (i64, i64, i64, i8*, i64, i64, i64, i64, i64, i8*, i64, i64)*]* @switch.table._ZN5angle11GenerateMipINS_4A32FEEEvmmmPKhmmPhmm, i64 0, i64 %26
  %28 = load void (i64, i64, i64, i8*, i64, i64, i64, i64, i64, i8*, i64, i64)*, void (i64, i64, i64, i8*, i64, i64, i64, i64, i64, i8*, i64, i64)** %27, align 8
  tail call void %28(i64 %0, i64 %1, i64 %2, i8* %3, i64 %4, i64 %5, i64 %12, i64 %15, i64 %18, i8* %6, i64 %7, i64 %8) #5
  ret void
}

; Function Attrs: nounwind ssp uwtable
define linkonce_odr hidden void @_ZN5angle9ReadColorINS_4A32FEfEEvPKhPh(i8*, i8*) #0 comdat {
  %3 = bitcast i8* %1 to %"struct.angle::Color"*
  %4 = bitcast i8* %0 to %"struct.angle::A32F"*
  tail call void @_ZN5angle4A32F9readColorEPNS_5ColorIfEEPKS0_(%"struct.angle::Color"* %3, %"struct.angle::A32F"* %4) #5
  ret void
}

; Function Attrs: nounwind ssp uwtable
define linkonce_odr hidden void @_ZN5angle10WriteColorINS_4A32FEfEEvPKhPh(i8*, i8*) #0 comdat {
  %3 = bitcast i8* %1 to %"struct.angle::A32F"*
  %4 = bitcast i8* %0 to %"struct.angle::Color"*
  tail call void @_ZN5angle4A32F10writeColorEPS0_PKNS_5ColorIfEE(%"struct.angle::A32F"* %3, %"struct.angle::Color"* %4) #5
  ret void
}

; Function Attrs: inlinehint nounwind ssp uwtable
define linkonce_odr hidden void @_ZN5angle11GenerateMipINS_2A8EEEvmmmPKhmmPhmm(i64, i64, i64, i8*, i64, i64, i8*, i64, i64) #1 comdat {
  %10 = lshr i64 %0, 1
  %11 = icmp ugt i64 %10, 1
  %12 = select i1 %11, i64 %10, i64 1
  %13 = lshr i64 %1, 1
  %14 = icmp ugt i64 %13, 1
  %15 = select i1 %14, i64 %13, i64 1
  %16 = lshr i64 %2, 1
  %17 = icmp ugt i64 %16, 1
  %18 = select i1 %17, i64 %16, i64 1
  %19 = icmp ugt i64 %0, 1
  %20 = zext i1 %19 to i64
  %21 = icmp ugt i64 %1, 1
  %22 = select i1 %21, i64 2, i64 0
  %23 = or i64 %22, %20
  %24 = icmp ugt i64 %2, 1
  %25 = select i1 %24, i64 4, i64 0
  %26 = or i64 %23, %25
  %27 = getelementptr inbounds [8 x void (i64, i64, i64, i8*, i64, i64, i64, i64, i64, i8*, i64, i64)*], [8 x void (i64, i64, i64, i8*, i64, i64, i64, i64, i64, i8*, i64, i64)*]* @switch.table._ZN5angle11GenerateMipINS_2A8EEEvmmmPKhmmPhmm, i64 0, i64 %26
  %28 = load void (i64, i64, i64, i8*, i64, i64, i64, i64, i64, i8*, i64, i64)*, void (i64, i64, i64, i8*, i64, i64, i64, i64, i64, i8*, i64, i64)** %27, align 8
  tail call void %28(i64 %0, i64 %1, i64 %2, i8* %3, i64 %4, i64 %5, i64 %12, i64 %15, i64 %18, i8* %6, i64 %7, i64 %8) #5
  ret void
}

; Function Attrs: nounwind ssp uwtable
define linkonce_odr hidden void @_ZN5angle9ReadColorINS_2A8EfEEvPKhPh(i8*, i8*) #0 comdat {
  %3 = bitcast i8* %1 to %"struct.angle::Color"*
  %4 = bitcast i8* %0 to %"struct.angle::A8"*
  tail call void @_ZN5angle2A89readColorEPNS_5ColorIfEEPKS0_(%"struct.angle::Color"* %3, %"struct.angle::A8"* %4) #5
  ret void
}

; Function Attrs: nounwind ssp uwtable
define linkonce_odr hidden void @_ZN5angle10WriteColorINS_2A8EfEEvPKhPh(i8*, i8*) #0 comdat {
  %3 = bitcast i8* %1 to %"struct.angle::A8"*
  %4 = bitcast i8* %0 to %"struct.angle::Color"*
  tail call void @_ZN5angle2A810writeColorEPS0_PKNS_5ColorIfEE(%"struct.angle::A8"* %3, %"struct.angle::Color"* %4) #5
  ret void
}

; Function Attrs: inlinehint nounwind ssp uwtable
define linkonce_odr hidden void @_ZN5angle11GenerateMipINS_11B10G10R10A2EEEvmmmPKhmmPhmm(i64, i64, i64, i8*, i64, i64, i8*, i64, i64) #1 comdat {
  %10 = lshr i64 %0, 1
  %11 = icmp ugt i64 %10, 1
  %12 = select i1 %11, i64 %10, i64 1
  %13 = lshr i64 %1, 1
  %14 = icmp ugt i64 %13, 1
  %15 = select i1 %14, i64 %13, i64 1
  %16 = lshr i64 %2, 1
  %17 = icmp ugt i64 %16, 1
  %18 = select i1 %17, i64 %16, i64 1
  %19 = icmp ugt i64 %0, 1
  %20 = zext i1 %19 to i64
  %21 = icmp ugt i64 %1, 1
  %22 = select i1 %21, i64 2, i64 0
  %23 = or i64 %22, %20
  %24 = icmp ugt i64 %2, 1
  %25 = select i1 %24, i64 4, i64 0
  %26 = or i64 %23, %25
  %27 = getelementptr inbounds [8 x void (i64, i64, i64, i8*, i64, i64, i64, i64, i64, i8*, i64, i64)*], [8 x void (i64, i64, i64, i8*, i64, i64, i64, i64, i64, i8*, i64, i64)*]* @switch.table._ZN5angle11GenerateMipINS_11B10G10R10A2EEEvmmmPKhmmPhmm, i64 0, i64 %26
  %28 = load void (i64, i64, i64, i8*, i64, i64, i64, i64, i64, i8*, i64, i64)*, void (i64, i64, i64, i8*, i64, i64, i64, i64, i64, i8*, i64, i64)** %27, align 8
  tail call void %28(i64 %0, i64 %1, i64 %2, i8* %3, i64 %4, i64 %5, i64 %12, i64 %15, i64 %18, i8* %6, i64 %7, i64 %8) #5
  ret void
}

; Function Attrs: nounwind ssp uwtable
define linkonce_odr hidden void @_ZN5angle9ReadColorINS_11B10G10R10A2EfEEvPKhPh(i8*, i8*) #0 comdat {
  %3 = bitcast i8* %1 to %"struct.angle::Color"*
  %4 = bitcast i8* %0 to %"struct.angle::B10G10R10A2"*
  tail call void @_ZN5angle11B10G10R10A29readColorEPNS_5ColorIfEEPKS0_(%"struct.angle::Color"* %3, %"struct.angle::B10G10R10A2"* %4) #5
  ret void
}

; Function Attrs: nounwind ssp uwtable
define linkonce_odr hidden void @_ZN5angle10WriteColorINS_11B10G10R10A2EfEEvPKhPh(i8*, i8*) #0 comdat {
  %3 = bitcast i8* %1 to %"struct.angle::B10G10R10A2"*
  %4 = bitcast i8* %0 to %"struct.angle::Color"*
  tail call void @_ZN5angle11B10G10R10A210writeColorEPS0_PKNS_5ColorIfEE(%"struct.angle::B10G10R10A2"* %3, %"struct.angle::Color"* %4) #5
  ret void
}

; Function Attrs: inlinehint nounwind ssp uwtable
define linkonce_odr hidden void @_ZN5angle11GenerateMipINS_8A4R4G4B4EEEvmmmPKhmmPhmm(i64, i64, i64, i8*, i64, i64, i8*, i64, i64) #1 comdat {
  %10 = lshr i64 %0, 1
  %11 = icmp ugt i64 %10, 1
  %12 = select i1 %11, i64 %10, i64 1
  %13 = lshr i64 %1, 1
  %14 = icmp ugt i64 %13, 1
  %15 = select i1 %14, i64 %13, i64 1
  %16 = lshr i64 %2, 1
  %17 = icmp ugt i64 %16, 1
  %18 = select i1 %17, i64 %16, i64 1
  %19 = icmp ugt i64 %0, 1
  %20 = zext i1 %19 to i64
  %21 = icmp ugt i64 %1, 1
  %22 = select i1 %21, i64 2, i64 0
  %23 = or i64 %22, %20
  %24 = icmp ugt i64 %2, 1
  %25 = select i1 %24, i64 4, i64 0
  %26 = or i64 %23, %25
  %27 = getelementptr inbounds [8 x void (i64, i64, i64, i8*, i64, i64, i64, i64, i64, i8*, i64, i64)*], [8 x void (i64, i64, i64, i8*, i64, i64, i64, i64, i64, i8*, i64, i64)*]* @switch.table._ZN5angle11GenerateMipINS_8A4R4G4B4EEEvmmmPKhmmPhmm, i64 0, i64 %26
  %28 = load void (i64, i64, i64, i8*, i64, i64, i64, i64, i64, i8*, i64, i64)*, void (i64, i64, i64, i8*, i64, i64, i64, i64, i64, i8*, i64, i64)** %27, align 8
  tail call void %28(i64 %0, i64 %1, i64 %2, i8* %3, i64 %4, i64 %5, i64 %12, i64 %15, i64 %18, i8* %6, i64 %7, i64 %8) #5
  ret void
}

; Function Attrs: nounwind ssp uwtable
define linkonce_odr hidden void @_ZN5angle9ReadColorINS_8A4R4G4B4EfEEvPKhPh(i8*, i8*) #0 comdat {
  %3 = bitcast i8* %1 to %"struct.angle::Color"*
  %4 = bitcast i8* %0 to %"struct.angle::A4R4G4B4"*
  tail call void @_ZN5angle8A4R4G4B49readColorEPNS_5ColorIfEEPKS0_(%"struct.angle::Color"* %3, %"struct.angle::A4R4G4B4"* %4) #5
  ret void
}

; Function Attrs: nounwind ssp uwtable
define linkonce_odr hidden void @_ZN5angle10WriteColorINS_8A4R4G4B4EfEEvPKhPh(i8*, i8*) #0 comdat {
  %3 = bitcast i8* %1 to %"struct.angle::A4R4G4B4"*
  %4 = bitcast i8* %0 to %"struct.angle::Color"*
  tail call void @_ZN5angle8A4R4G4B410writeColorEPS0_PKNS_5ColorIfEE(%"struct.angle::A4R4G4B4"* %3, %"struct.angle::Color"* %4) #5
  ret void
}

; Function Attrs: inlinehint nounwind ssp uwtable
define linkonce_odr hidden void @_ZN5angle11GenerateMipINS_6B5G6R5EEEvmmmPKhmmPhmm(i64, i64, i64, i8*, i64, i64, i8*, i64, i64) #1 comdat {
  %10 = lshr i64 %0, 1
  %11 = icmp ugt i64 %10, 1
  %12 = select i1 %11, i64 %10, i64 1
  %13 = lshr i64 %1, 1
  %14 = icmp ugt i64 %13, 1
  %15 = select i1 %14, i64 %13, i64 1
  %16 = lshr i64 %2, 1
  %17 = icmp ugt i64 %16, 1
  %18 = select i1 %17, i64 %16, i64 1
  %19 = icmp ugt i64 %0, 1
  %20 = zext i1 %19 to i64
  %21 = icmp ugt i64 %1, 1
  %22 = select i1 %21, i64 2, i64 0
  %23 = or i64 %22, %20
  %24 = icmp ugt i64 %2, 1
  %25 = select i1 %24, i64 4, i64 0
  %26 = or i64 %23, %25
  %27 = getelementptr inbounds [8 x void (i64, i64, i64, i8*, i64, i64, i64, i64, i64, i8*, i64, i64)*], [8 x void (i64, i64, i64, i8*, i64, i64, i64, i64, i64, i8*, i64, i64)*]* @switch.table._ZN5angle11GenerateMipINS_6B5G6R5EEEvmmmPKhmmPhmm, i64 0, i64 %26
  %28 = load void (i64, i64, i64, i8*, i64, i64, i64, i64, i64, i8*, i64, i64)*, void (i64, i64, i64, i8*, i64, i64, i64, i64, i64, i8*, i64, i64)** %27, align 8
  tail call void %28(i64 %0, i64 %1, i64 %2, i8* %3, i64 %4, i64 %5, i64 %12, i64 %15, i64 %18, i8* %6, i64 %7, i64 %8) #5
  ret void
}

; Function Attrs: nounwind ssp uwtable
define linkonce_odr hidden void @_ZN5angle9ReadColorINS_6B5G6R5EfEEvPKhPh(i8*, i8*) #0 comdat {
  %3 = bitcast i8* %1 to %"struct.angle::Color"*
  %4 = bitcast i8* %0 to %"struct.angle::B5G6R5"*
  tail call void @_ZN5angle6B5G6R59readColorEPNS_5ColorIfEEPKS0_(%"struct.angle::Color"* %3, %"struct.angle::B5G6R5"* %4) #5
  ret void
}

; Function Attrs: nounwind ssp uwtable
define linkonce_odr hidden void @_ZN5angle10WriteColorINS_6B5G6R5EfEEvPKhPh(i8*, i8*) #0 comdat {
  %3 = bitcast i8* %1 to %"struct.angle::B5G6R5"*
  %4 = bitcast i8* %0 to %"struct.angle::Color"*
  tail call void @_ZN5angle6B5G6R510writeColorEPS0_PKNS_5ColorIfEE(%"struct.angle::B5G6R5"* %3, %"struct.angle::Color"* %4) #5
  ret void
}

; Function Attrs: inlinehint nounwind ssp uwtable
define linkonce_odr hidden void @_ZN5angle11GenerateMipINS_8B8G8R8A8EEEvmmmPKhmmPhmm(i64, i64, i64, i8*, i64, i64, i8*, i64, i64) #1 comdat {
  %10 = lshr i64 %0, 1
  %11 = icmp ugt i64 %10, 1
  %12 = select i1 %11, i64 %10, i64 1
  %13 = lshr i64 %1, 1
  %14 = icmp ugt i64 %13, 1
  %15 = select i1 %14, i64 %13, i64 1
  %16 = lshr i64 %2, 1
  %17 = icmp ugt i64 %16, 1
  %18 = select i1 %17, i64 %16, i64 1
  %19 = icmp ugt i64 %0, 1
  %20 = zext i1 %19 to i64
  %21 = icmp ugt i64 %1, 1
  %22 = select i1 %21, i64 2, i64 0
  %23 = or i64 %22, %20
  %24 = icmp ugt i64 %2, 1
  %25 = select i1 %24, i64 4, i64 0
  %26 = or i64 %23, %25
  %27 = getelementptr inbounds [8 x void (i64, i64, i64, i8*, i64, i64, i64, i64, i64, i8*, i64, i64)*], [8 x void (i64, i64, i64, i8*, i64, i64, i64, i64, i64, i8*, i64, i64)*]* @switch.table._ZN5angle11GenerateMipINS_8B8G8R8A8EEEvmmmPKhmmPhmm, i64 0, i64 %26
  %28 = load void (i64, i64, i64, i8*, i64, i64, i64, i64, i64, i8*, i64, i64)*, void (i64, i64, i64, i8*, i64, i64, i64, i64, i64, i8*, i64, i64)** %27, align 8
  tail call void %28(i64 %0, i64 %1, i64 %2, i8* %3, i64 %4, i64 %5, i64 %12, i64 %15, i64 %18, i8* %6, i64 %7, i64 %8) #5
  ret void
}

; Function Attrs: nounwind ssp uwtable
define linkonce_odr hidden void @_ZN5angle9ReadColorINS_8B8G8R8A8EfEEvPKhPh(i8*, i8*) #0 comdat {
  %3 = bitcast i8* %1 to %"struct.angle::Color"*
  %4 = bitcast i8* %0 to %"struct.angle::B8G8R8A8"*
  tail call void @_ZN5angle8B8G8R8A89readColorEPNS_5ColorIfEEPKS0_(%"struct.angle::Color"* %3, %"struct.angle::B8G8R8A8"* %4) #5
  ret void
}

; Function Attrs: nounwind ssp uwtable
define linkonce_odr hidden void @_ZN5angle10WriteColorINS_8B8G8R8A8EfEEvPKhPh(i8*, i8*) #0 comdat {
  %3 = bitcast i8* %1 to %"struct.angle::B8G8R8A8"*
  %4 = bitcast i8* %0 to %"struct.angle::Color"*
  tail call void @_ZN5angle8B8G8R8A810writeColorEPS0_PKNS_5ColorIfEE(%"struct.angle::B8G8R8A8"* %3, %"struct.angle::Color"* %4) #5
  ret void
}

; Function Attrs: inlinehint nounwind ssp uwtable
define linkonce_odr hidden void @_ZN5angle11GenerateMipINS_8B8G8R8X8EEEvmmmPKhmmPhmm(i64, i64, i64, i8*, i64, i64, i8*, i64, i64) #1 comdat {
  %10 = lshr i64 %0, 1
  %11 = icmp ugt i64 %10, 1
  %12 = select i1 %11, i64 %10, i64 1
  %13 = lshr i64 %1, 1
  %14 = icmp ugt i64 %13, 1
  %15 = select i1 %14, i64 %13, i64 1
  %16 = lshr i64 %2, 1
  %17 = icmp ugt i64 %16, 1
  %18 = select i1 %17, i64 %16, i64 1
  %19 = icmp ugt i64 %0, 1
  %20 = zext i1 %19 to i64
  %21 = icmp ugt i64 %1, 1
  %22 = select i1 %21, i64 2, i64 0
  %23 = or i64 %22, %20
  %24 = icmp ugt i64 %2, 1
  %25 = select i1 %24, i64 4, i64 0
  %26 = or i64 %23, %25
  %27 = getelementptr inbounds [8 x void (i64, i64, i64, i8*, i64, i64, i64, i64, i64, i8*, i64, i64)*], [8 x void (i64, i64, i64, i8*, i64, i64, i64, i64, i64, i8*, i64, i64)*]* @switch.table._ZN5angle11GenerateMipINS_8B8G8R8X8EEEvmmmPKhmmPhmm, i64 0, i64 %26
  %28 = load void (i64, i64, i64, i8*, i64, i64, i64, i64, i64, i8*, i64, i64)*, void (i64, i64, i64, i8*, i64, i64, i64, i64, i64, i8*, i64, i64)** %27, align 8
  tail call void %28(i64 %0, i64 %1, i64 %2, i8* %3, i64 %4, i64 %5, i64 %12, i64 %15, i64 %18, i8* %6, i64 %7, i64 %8) #5
  ret void
}

; Function Attrs: nounwind ssp uwtable
define linkonce_odr hidden void @_ZN5angle9ReadColorINS_8B8G8R8X8EfEEvPKhPh(i8*, i8*) #0 comdat {
  %3 = bitcast i8* %1 to %"struct.angle::Color"*
  %4 = bitcast i8* %0 to %"struct.angle::B8G8R8X8"*
  tail call void @_ZN5angle8B8G8R8X89readColorEPNS_5ColorIfEEPKS0_(%"struct.angle::Color"* %3, %"struct.angle::B8G8R8X8"* %4) #5
  ret void
}

; Function Attrs: nounwind ssp uwtable
define linkonce_odr hidden void @_ZN5angle10WriteColorINS_8B8G8R8X8EfEEvPKhPh(i8*, i8*) #0 comdat {
  %3 = bitcast i8* %1 to %"struct.angle::B8G8R8X8"*
  %4 = bitcast i8* %0 to %"struct.angle::Color"*
  tail call void @_ZN5angle8B8G8R8X810writeColorEPS0_PKNS_5ColorIfEE(%"struct.angle::B8G8R8X8"* %3, %"struct.angle::Color"* %4) #5
  ret void
}

; Function Attrs: inlinehint nounwind ssp uwtable
define linkonce_odr hidden void @_ZN5angle11GenerateMipINS_6R8G8B8EEEvmmmPKhmmPhmm(i64, i64, i64, i8*, i64, i64, i8*, i64, i64) #1 comdat {
  %10 = lshr i64 %0, 1
  %11 = icmp ugt i64 %10, 1
  %12 = select i1 %11, i64 %10, i64 1
  %13 = lshr i64 %1, 1
  %14 = icmp ugt i64 %13, 1
  %15 = select i1 %14, i64 %13, i64 1
  %16 = lshr i64 %2, 1
  %17 = icmp ugt i64 %16, 1
  %18 = select i1 %17, i64 %16, i64 1
  %19 = icmp ugt i64 %0, 1
  %20 = zext i1 %19 to i64
  %21 = icmp ugt i64 %1, 1
  %22 = select i1 %21, i64 2, i64 0
  %23 = or i64 %22, %20
  %24 = icmp ugt i64 %2, 1
  %25 = select i1 %24, i64 4, i64 0
  %26 = or i64 %23, %25
  %27 = getelementptr inbounds [8 x void (i64, i64, i64, i8*, i64, i64, i64, i64, i64, i8*, i64, i64)*], [8 x void (i64, i64, i64, i8*, i64, i64, i64, i64, i64, i8*, i64, i64)*]* @switch.table._ZN5angle11GenerateMipINS_6R8G8B8EEEvmmmPKhmmPhmm, i64 0, i64 %26
  %28 = load void (i64, i64, i64, i8*, i64, i64, i64, i64, i64, i8*, i64, i64)*, void (i64, i64, i64, i8*, i64, i64, i64, i64, i64, i8*, i64, i64)** %27, align 8
  tail call void %28(i64 %0, i64 %1, i64 %2, i8* %3, i64 %4, i64 %5, i64 %12, i64 %15, i64 %18, i8* %6, i64 %7, i64 %8) #5
  ret void
}

; Function Attrs: nounwind ssp uwtable
define linkonce_odr hidden void @_ZN5angle9ReadColorINS_6R8G8B8EfEEvPKhPh(i8*, i8*) #0 comdat {
  %3 = bitcast i8* %1 to %"struct.angle::Color"*
  %4 = bitcast i8* %0 to %"struct.angle::R8G8B8"*
  tail call void @_ZN5angle6R8G8B89readColorEPNS_5ColorIfEEPKS0_(%"struct.angle::Color"* %3, %"struct.angle::R8G8B8"* %4) #5
  ret void
}

; Function Attrs: nounwind ssp uwtable
define linkonce_odr hidden void @_ZN5angle10WriteColorINS_6R8G8B8EfEEvPKhPh(i8*, i8*) #0 comdat {
  %3 = bitcast i8* %1 to %"struct.angle::R8G8B8"*
  %4 = bitcast i8* %0 to %"struct.angle::Color"*
  tail call void @_ZN5angle6R8G8B810writeColorEPS0_PKNS_5ColorIfEE(%"struct.angle::R8G8B8"* %3, %"struct.angle::Color"* %4) #5
  ret void
}

; Function Attrs: inlinehint nounwind ssp uwtable
define linkonce_odr hidden void @_ZN5angle11GenerateMipINS_7L16A16FEEEvmmmPKhmmPhmm(i64, i64, i64, i8*, i64, i64, i8*, i64, i64) #1 comdat {
  %10 = lshr i64 %0, 1
  %11 = icmp ugt i64 %10, 1
  %12 = select i1 %11, i64 %10, i64 1
  %13 = lshr i64 %1, 1
  %14 = icmp ugt i64 %13, 1
  %15 = select i1 %14, i64 %13, i64 1
  %16 = lshr i64 %2, 1
  %17 = icmp ugt i64 %16, 1
  %18 = select i1 %17, i64 %16, i64 1
  %19 = icmp ugt i64 %0, 1
  %20 = zext i1 %19 to i64
  %21 = icmp ugt i64 %1, 1
  %22 = select i1 %21, i64 2, i64 0
  %23 = or i64 %22, %20
  %24 = icmp ugt i64 %2, 1
  %25 = select i1 %24, i64 4, i64 0
  %26 = or i64 %23, %25
  %27 = getelementptr inbounds [8 x void (i64, i64, i64, i8*, i64, i64, i64, i64, i64, i8*, i64, i64)*], [8 x void (i64, i64, i64, i8*, i64, i64, i64, i64, i64, i8*, i64, i64)*]* @switch.table._ZN5angle11GenerateMipINS_7L16A16FEEEvmmmPKhmmPhmm, i64 0, i64 %26
  %28 = load void (i64, i64, i64, i8*, i64, i64, i64, i64, i64, i8*, i64, i64)*, void (i64, i64, i64, i8*, i64, i64, i64, i64, i64, i8*, i64, i64)** %27, align 8
  tail call void %28(i64 %0, i64 %1, i64 %2, i8* %3, i64 %4, i64 %5, i64 %12, i64 %15, i64 %18, i8* %6, i64 %7, i64 %8) #5
  ret void
}

; Function Attrs: nounwind ssp uwtable
define linkonce_odr hidden void @_ZN5angle9ReadColorINS_7L16A16FEfEEvPKhPh(i8*, i8*) #0 comdat {
  %3 = bitcast i8* %1 to %"struct.angle::Color"*
  %4 = bitcast i8* %0 to %"struct.angle::L16A16F"*
  tail call void @_ZN5angle7L16A16F9readColorEPNS_5ColorIfEEPKS0_(%"struct.angle::Color"* %3, %"struct.angle::L16A16F"* %4) #5
  ret void
}

; Function Attrs: nounwind ssp uwtable
define linkonce_odr hidden void @_ZN5angle10WriteColorINS_7L16A16FEfEEvPKhPh(i8*, i8*) #0 comdat {
  %3 = bitcast i8* %1 to %"struct.angle::L16A16F"*
  %4 = bitcast i8* %0 to %"struct.angle::Color"*
  tail call void @_ZN5angle7L16A16F10writeColorEPS0_PKNS_5ColorIfEE(%"struct.angle::L16A16F"* %3, %"struct.angle::Color"* %4) #5
  ret void
}

; Function Attrs: inlinehint nounwind ssp uwtable
define linkonce_odr hidden void @_ZN5angle11GenerateMipINS_4L16FEEEvmmmPKhmmPhmm(i64, i64, i64, i8*, i64, i64, i8*, i64, i64) #1 comdat {
  %10 = lshr i64 %0, 1
  %11 = icmp ugt i64 %10, 1
  %12 = select i1 %11, i64 %10, i64 1
  %13 = lshr i64 %1, 1
  %14 = icmp ugt i64 %13, 1
  %15 = select i1 %14, i64 %13, i64 1
  %16 = lshr i64 %2, 1
  %17 = icmp ugt i64 %16, 1
  %18 = select i1 %17, i64 %16, i64 1
  %19 = icmp ugt i64 %0, 1
  %20 = zext i1 %19 to i64
  %21 = icmp ugt i64 %1, 1
  %22 = select i1 %21, i64 2, i64 0
  %23 = or i64 %22, %20
  %24 = icmp ugt i64 %2, 1
  %25 = select i1 %24, i64 4, i64 0
  %26 = or i64 %23, %25
  %27 = getelementptr inbounds [8 x void (i64, i64, i64, i8*, i64, i64, i64, i64, i64, i8*, i64, i64)*], [8 x void (i64, i64, i64, i8*, i64, i64, i64, i64, i64, i8*, i64, i64)*]* @switch.table._ZN5angle11GenerateMipINS_4L16FEEEvmmmPKhmmPhmm, i64 0, i64 %26
  %28 = load void (i64, i64, i64, i8*, i64, i64, i64, i64, i64, i8*, i64, i64)*, void (i64, i64, i64, i8*, i64, i64, i64, i64, i64, i8*, i64, i64)** %27, align 8
  tail call void %28(i64 %0, i64 %1, i64 %2, i8* %3, i64 %4, i64 %5, i64 %12, i64 %15, i64 %18, i8* %6, i64 %7, i64 %8) #5
  ret void
}

; Function Attrs: nounwind ssp uwtable
define linkonce_odr hidden void @_ZN5angle9ReadColorINS_4L16FEfEEvPKhPh(i8*, i8*) #0 comdat {
  %3 = bitcast i8* %1 to %"struct.angle::Color"*
  %4 = bitcast i8* %0 to %"struct.angle::L16F"*
  tail call void @_ZN5angle4L16F9readColorEPNS_5ColorIfEEPKS0_(%"struct.angle::Color"* %3, %"struct.angle::L16F"* %4) #5
  ret void
}

; Function Attrs: nounwind ssp uwtable
define linkonce_odr hidden void @_ZN5angle10WriteColorINS_4L16FEfEEvPKhPh(i8*, i8*) #0 comdat {
  %3 = bitcast i8* %1 to %"struct.angle::L16F"*
  %4 = bitcast i8* %0 to %"struct.angle::Color"*
  tail call void @_ZN5angle4L16F10writeColorEPS0_PKNS_5ColorIfEE(%"struct.angle::L16F"* %3, %"struct.angle::Color"* %4) #5
  ret void
}

; Function Attrs: inlinehint nounwind ssp uwtable
define linkonce_odr hidden void @_ZN5angle11GenerateMipINS_7L32A32FEEEvmmmPKhmmPhmm(i64, i64, i64, i8*, i64, i64, i8*, i64, i64) #1 comdat {
  %10 = lshr i64 %0, 1
  %11 = icmp ugt i64 %10, 1
  %12 = select i1 %11, i64 %10, i64 1
  %13 = lshr i64 %1, 1
  %14 = icmp ugt i64 %13, 1
  %15 = select i1 %14, i64 %13, i64 1
  %16 = lshr i64 %2, 1
  %17 = icmp ugt i64 %16, 1
  %18 = select i1 %17, i64 %16, i64 1
  %19 = icmp ugt i64 %0, 1
  %20 = zext i1 %19 to i64
  %21 = icmp ugt i64 %1, 1
  %22 = select i1 %21, i64 2, i64 0
  %23 = or i64 %22, %20
  %24 = icmp ugt i64 %2, 1
  %25 = select i1 %24, i64 4, i64 0
  %26 = or i64 %23, %25
  %27 = getelementptr inbounds [8 x void (i64, i64, i64, i8*, i64, i64, i64, i64, i64, i8*, i64, i64)*], [8 x void (i64, i64, i64, i8*, i64, i64, i64, i64, i64, i8*, i64, i64)*]* @switch.table._ZN5angle11GenerateMipINS_7L32A32FEEEvmmmPKhmmPhmm, i64 0, i64 %26
  %28 = load void (i64, i64, i64, i8*, i64, i64, i64, i64, i64, i8*, i64, i64)*, void (i64, i64, i64, i8*, i64, i64, i64, i64, i64, i8*, i64, i64)** %27, align 8
  tail call void %28(i64 %0, i64 %1, i64 %2, i8* %3, i64 %4, i64 %5, i64 %12, i64 %15, i64 %18, i8* %6, i64 %7, i64 %8) #5
  ret void
}

; Function Attrs: nounwind ssp uwtable
define linkonce_odr hidden void @_ZN5angle9ReadColorINS_7L32A32FEfEEvPKhPh(i8*, i8*) #0 comdat {
  %3 = bitcast i8* %1 to %"struct.angle::Color"*
  %4 = bitcast i8* %0 to %"struct.angle::L32A32F"*
  tail call void @_ZN5angle7L32A32F9readColorEPNS_5ColorIfEEPKS0_(%"struct.angle::Color"* %3, %"struct.angle::L32A32F"* %4) #5
  ret void
}

; Function Attrs: nounwind ssp uwtable
define linkonce_odr hidden void @_ZN5angle10WriteColorINS_7L32A32FEfEEvPKhPh(i8*, i8*) #0 comdat {
  %3 = bitcast i8* %1 to %"struct.angle::L32A32F"*
  %4 = bitcast i8* %0 to %"struct.angle::Color"*
  tail call void @_ZN5angle7L32A32F10writeColorEPS0_PKNS_5ColorIfEE(%"struct.angle::L32A32F"* %3, %"struct.angle::Color"* %4) #5
  ret void
}

; Function Attrs: inlinehint nounwind ssp uwtable
define linkonce_odr hidden void @_ZN5angle11GenerateMipINS_4L32FEEEvmmmPKhmmPhmm(i64, i64, i64, i8*, i64, i64, i8*, i64, i64) #1 comdat {
  %10 = lshr i64 %0, 1
  %11 = icmp ugt i64 %10, 1
  %12 = select i1 %11, i64 %10, i64 1
  %13 = lshr i64 %1, 1
  %14 = icmp ugt i64 %13, 1
  %15 = select i1 %14, i64 %13, i64 1
  %16 = lshr i64 %2, 1
  %17 = icmp ugt i64 %16, 1
  %18 = select i1 %17, i64 %16, i64 1
  %19 = icmp ugt i64 %0, 1
  %20 = zext i1 %19 to i64
  %21 = icmp ugt i64 %1, 1
  %22 = select i1 %21, i64 2, i64 0
  %23 = or i64 %22, %20
  %24 = icmp ugt i64 %2, 1
  %25 = select i1 %24, i64 4, i64 0
  %26 = or i64 %23, %25
  %27 = getelementptr inbounds [8 x void (i64, i64, i64, i8*, i64, i64, i64, i64, i64, i8*, i64, i64)*], [8 x void (i64, i64, i64, i8*, i64, i64, i64, i64, i64, i8*, i64, i64)*]* @switch.table._ZN5angle11GenerateMipINS_4L32FEEEvmmmPKhmmPhmm, i64 0, i64 %26
  %28 = load void (i64, i64, i64, i8*, i64, i64, i64, i64, i64, i8*, i64, i64)*, void (i64, i64, i64, i8*, i64, i64, i64, i64, i64, i8*, i64, i64)** %27, align 8
  tail call void %28(i64 %0, i64 %1, i64 %2, i8* %3, i64 %4, i64 %5, i64 %12, i64 %15, i64 %18, i8* %6, i64 %7, i64 %8) #5
  ret void
}

; Function Attrs: nounwind ssp uwtable
define linkonce_odr hidden void @_ZN5angle9ReadColorINS_4L32FEfEEvPKhPh(i8*, i8*) #0 comdat {
  %3 = bitcast i8* %1 to %"struct.angle::Color"*
  %4 = bitcast i8* %0 to %"struct.angle::L32F"*
  tail call void @_ZN5angle4L32F9readColorEPNS_5ColorIfEEPKS0_(%"struct.angle::Color"* %3, %"struct.angle::L32F"* %4) #5
  ret void
}

; Function Attrs: nounwind ssp uwtable
define linkonce_odr hidden void @_ZN5angle10WriteColorINS_4L32FEfEEvPKhPh(i8*, i8*) #0 comdat {
  %3 = bitcast i8* %1 to %"struct.angle::L32F"*
  %4 = bitcast i8* %0 to %"struct.angle::Color"*
  tail call void @_ZN5angle4L32F10writeColorEPS0_PKNS_5ColorIfEE(%"struct.angle::L32F"* %3, %"struct.angle::Color"* %4) #5
  ret void
}

; Function Attrs: inlinehint nounwind ssp uwtable
define linkonce_odr hidden void @_ZN5angle11GenerateMipINS_4L8A8EEEvmmmPKhmmPhmm(i64, i64, i64, i8*, i64, i64, i8*, i64, i64) #1 comdat {
  %10 = lshr i64 %0, 1
  %11 = icmp ugt i64 %10, 1
  %12 = select i1 %11, i64 %10, i64 1
  %13 = lshr i64 %1, 1
  %14 = icmp ugt i64 %13, 1
  %15 = select i1 %14, i64 %13, i64 1
  %16 = lshr i64 %2, 1
  %17 = icmp ugt i64 %16, 1
  %18 = select i1 %17, i64 %16, i64 1
  %19 = icmp ugt i64 %0, 1
  %20 = zext i1 %19 to i64
  %21 = icmp ugt i64 %1, 1
  %22 = select i1 %21, i64 2, i64 0
  %23 = or i64 %22, %20
  %24 = icmp ugt i64 %2, 1
  %25 = select i1 %24, i64 4, i64 0
  %26 = or i64 %23, %25
  %27 = getelementptr inbounds [8 x void (i64, i64, i64, i8*, i64, i64, i64, i64, i64, i8*, i64, i64)*], [8 x void (i64, i64, i64, i8*, i64, i64, i64, i64, i64, i8*, i64, i64)*]* @switch.table._ZN5angle11GenerateMipINS_4L8A8EEEvmmmPKhmmPhmm, i64 0, i64 %26
  %28 = load void (i64, i64, i64, i8*, i64, i64, i64, i64, i64, i8*, i64, i64)*, void (i64, i64, i64, i8*, i64, i64, i64, i64, i64, i8*, i64, i64)** %27, align 8
  tail call void %28(i64 %0, i64 %1, i64 %2, i8* %3, i64 %4, i64 %5, i64 %12, i64 %15, i64 %18, i8* %6, i64 %7, i64 %8) #5
  ret void
}

; Function Attrs: nounwind ssp uwtable
define linkonce_odr hidden void @_ZN5angle9ReadColorINS_4L8A8EfEEvPKhPh(i8*, i8*) #0 comdat {
  %3 = bitcast i8* %1 to %"struct.angle::Color"*
  %4 = bitcast i8* %0 to %"struct.angle::L8A8"*
  tail call void @_ZN5angle4L8A89readColorEPNS_5ColorIfEEPKS0_(%"struct.angle::Color"* %3, %"struct.angle::L8A8"* %4) #5
  ret void
}

; Function Attrs: nounwind ssp uwtable
define linkonce_odr hidden void @_ZN5angle10WriteColorINS_4L8A8EfEEvPKhPh(i8*, i8*) #0 comdat {
  %3 = bitcast i8* %1 to %"struct.angle::L8A8"*
  %4 = bitcast i8* %0 to %"struct.angle::Color"*
  tail call void @_ZN5angle4L8A810writeColorEPS0_PKNS_5ColorIfEE(%"struct.angle::L8A8"* %3, %"struct.angle::Color"* %4) #5
  ret void
}

; Function Attrs: inlinehint nounwind ssp uwtable
define linkonce_odr hidden void @_ZN5angle11GenerateMipINS_2L8EEEvmmmPKhmmPhmm(i64, i64, i64, i8*, i64, i64, i8*, i64, i64) #1 comdat {
  %10 = lshr i64 %0, 1
  %11 = icmp ugt i64 %10, 1
  %12 = select i1 %11, i64 %10, i64 1
  %13 = lshr i64 %1, 1
  %14 = icmp ugt i64 %13, 1
  %15 = select i1 %14, i64 %13, i64 1
  %16 = lshr i64 %2, 1
  %17 = icmp ugt i64 %16, 1
  %18 = select i1 %17, i64 %16, i64 1
  %19 = icmp ugt i64 %0, 1
  %20 = zext i1 %19 to i64
  %21 = icmp ugt i64 %1, 1
  %22 = select i1 %21, i64 2, i64 0
  %23 = or i64 %22, %20
  %24 = icmp ugt i64 %2, 1
  %25 = select i1 %24, i64 4, i64 0
  %26 = or i64 %23, %25
  %27 = getelementptr inbounds [8 x void (i64, i64, i64, i8*, i64, i64, i64, i64, i64, i8*, i64, i64)*], [8 x void (i64, i64, i64, i8*, i64, i64, i64, i64, i64, i8*, i64, i64)*]* @switch.table._ZN5angle11GenerateMipINS_2L8EEEvmmmPKhmmPhmm, i64 0, i64 %26
  %28 = load void (i64, i64, i64, i8*, i64, i64, i64, i64, i64, i8*, i64, i64)*, void (i64, i64, i64, i8*, i64, i64, i64, i64, i64, i8*, i64, i64)** %27, align 8
  tail call void %28(i64 %0, i64 %1, i64 %2, i8* %3, i64 %4, i64 %5, i64 %12, i64 %15, i64 %18, i8* %6, i64 %7, i64 %8) #5
  ret void
}

; Function Attrs: nounwind ssp uwtable
define linkonce_odr hidden void @_ZN5angle9ReadColorINS_2L8EfEEvPKhPh(i8*, i8*) #0 comdat {
  %3 = bitcast i8* %1 to %"struct.angle::Color"*
  %4 = bitcast i8* %0 to %"struct.angle::L8"*
  tail call void @_ZN5angle2L89readColorEPNS_5ColorIfEEPKS0_(%"struct.angle::Color"* %3, %"struct.angle::L8"* %4) #5
  ret void
}

; Function Attrs: nounwind ssp uwtable
define linkonce_odr hidden void @_ZN5angle10WriteColorINS_2L8EfEEvPKhPh(i8*, i8*) #0 comdat {
  %3 = bitcast i8* %1 to %"struct.angle::L8"*
  %4 = bitcast i8* %0 to %"struct.angle::Color"*
  tail call void @_ZN5angle2L810writeColorEPS0_PKNS_5ColorIfEE(%"struct.angle::L8"* %3, %"struct.angle::Color"* %4) #5
  ret void
}

; Function Attrs: inlinehint nounwind ssp uwtable
define linkonce_odr hidden void @_ZN5angle11GenerateMipINS_12R10G10B10A2SEEEvmmmPKhmmPhmm(i64, i64, i64, i8*, i64, i64, i8*, i64, i64) #1 comdat {
  %10 = lshr i64 %0, 1
  %11 = icmp ugt i64 %10, 1
  %12 = select i1 %11, i64 %10, i64 1
  %13 = lshr i64 %1, 1
  %14 = icmp ugt i64 %13, 1
  %15 = select i1 %14, i64 %13, i64 1
  %16 = lshr i64 %2, 1
  %17 = icmp ugt i64 %16, 1
  %18 = select i1 %17, i64 %16, i64 1
  %19 = icmp ugt i64 %0, 1
  %20 = zext i1 %19 to i64
  %21 = icmp ugt i64 %1, 1
  %22 = select i1 %21, i64 2, i64 0
  %23 = or i64 %22, %20
  %24 = icmp ugt i64 %2, 1
  %25 = select i1 %24, i64 4, i64 0
  %26 = or i64 %23, %25
  %27 = getelementptr inbounds [8 x void (i64, i64, i64, i8*, i64, i64, i64, i64, i64, i8*, i64, i64)*], [8 x void (i64, i64, i64, i8*, i64, i64, i64, i64, i64, i8*, i64, i64)*]* @switch.table._ZN5angle11GenerateMipINS_12R10G10B10A2SEEEvmmmPKhmmPhmm, i64 0, i64 %26
  %28 = load void (i64, i64, i64, i8*, i64, i64, i64, i64, i64, i8*, i64, i64)*, void (i64, i64, i64, i8*, i64, i64, i64, i64, i64, i8*, i64, i64)** %27, align 8
  tail call void %28(i64 %0, i64 %1, i64 %2, i8* %3, i64 %4, i64 %5, i64 %12, i64 %15, i64 %18, i8* %6, i64 %7, i64 %8) #5
  ret void
}

; Function Attrs: nounwind ssp uwtable
define linkonce_odr hidden void @_ZN5angle9ReadColorINS_12R10G10B10A2SEiEEvPKhPh(i8*, i8*) #0 comdat {
  %3 = bitcast i8* %1 to %"struct.angle::Color.0"*
  %4 = bitcast i8* %0 to %"struct.angle::R10G10B10A2S"*
  tail call void @_ZN5angle12R10G10B10A2S9readColorEPNS_5ColorIiEEPKS0_(%"struct.angle::Color.0"* %3, %"struct.angle::R10G10B10A2S"* %4) #5
  ret void
}

; Function Attrs: nounwind ssp uwtable
define linkonce_odr hidden void @_ZN5angle10WriteColorINS_12R10G10B10A2SEiEEvPKhPh(i8*, i8*) #0 comdat {
  %3 = bitcast i8* %1 to %"struct.angle::R10G10B10A2S"*
  %4 = bitcast i8* %0 to %"struct.angle::Color.0"*
  tail call void @_ZN5angle12R10G10B10A2S10writeColorEPS0_PKNS_5ColorIiEE(%"struct.angle::R10G10B10A2S"* %3, %"struct.angle::Color.0"* %4) #5
  ret void
}

; Function Attrs: nounwind ssp uwtable
define linkonce_odr hidden void @_ZN5angle9ReadColorINS_12R10G10B10A2SEfEEvPKhPh(i8*, i8*) #0 comdat {
  %3 = bitcast i8* %1 to %"struct.angle::Color"*
  %4 = bitcast i8* %0 to %"struct.angle::R10G10B10A2S"*
  tail call void @_ZN5angle12R10G10B10A2S9readColorEPNS_5ColorIfEEPKS0_(%"struct.angle::Color"* %3, %"struct.angle::R10G10B10A2S"* %4) #5
  ret void
}

; Function Attrs: nounwind ssp uwtable
define linkonce_odr hidden void @_ZN5angle10WriteColorINS_12R10G10B10A2SEfEEvPKhPh(i8*, i8*) #0 comdat {
  %3 = bitcast i8* %1 to %"struct.angle::R10G10B10A2S"*
  %4 = bitcast i8* %0 to %"struct.angle::Color"*
  tail call void @_ZN5angle12R10G10B10A2S10writeColorEPS0_PKNS_5ColorIfEE(%"struct.angle::R10G10B10A2S"* %3, %"struct.angle::Color"* %4) #5
  ret void
}

; Function Attrs: inlinehint nounwind ssp uwtable
define linkonce_odr hidden void @_ZN5angle11GenerateMipINS_11R10G10B10A2EEEvmmmPKhmmPhmm(i64, i64, i64, i8*, i64, i64, i8*, i64, i64) #1 comdat {
  %10 = lshr i64 %0, 1
  %11 = icmp ugt i64 %10, 1
  %12 = select i1 %11, i64 %10, i64 1
  %13 = lshr i64 %1, 1
  %14 = icmp ugt i64 %13, 1
  %15 = select i1 %14, i64 %13, i64 1
  %16 = lshr i64 %2, 1
  %17 = icmp ugt i64 %16, 1
  %18 = select i1 %17, i64 %16, i64 1
  %19 = icmp ugt i64 %0, 1
  %20 = zext i1 %19 to i64
  %21 = icmp ugt i64 %1, 1
  %22 = select i1 %21, i64 2, i64 0
  %23 = or i64 %22, %20
  %24 = icmp ugt i64 %2, 1
  %25 = select i1 %24, i64 4, i64 0
  %26 = or i64 %23, %25
  %27 = getelementptr inbounds [8 x void (i64, i64, i64, i8*, i64, i64, i64, i64, i64, i8*, i64, i64)*], [8 x void (i64, i64, i64, i8*, i64, i64, i64, i64, i64, i8*, i64, i64)*]* @switch.table._ZN5angle11GenerateMipINS_11R10G10B10A2EEEvmmmPKhmmPhmm, i64 0, i64 %26
  %28 = load void (i64, i64, i64, i8*, i64, i64, i64, i64, i64, i8*, i64, i64)*, void (i64, i64, i64, i8*, i64, i64, i64, i64, i64, i8*, i64, i64)** %27, align 8
  tail call void %28(i64 %0, i64 %1, i64 %2, i8* %3, i64 %4, i64 %5, i64 %12, i64 %15, i64 %18, i8* %6, i64 %7, i64 %8) #5
  ret void
}

; Function Attrs: nounwind ssp uwtable
define linkonce_odr hidden void @_ZN5angle9ReadColorINS_11R10G10B10A2EjEEvPKhPh(i8*, i8*) #0 comdat {
  %3 = bitcast i8* %1 to %"struct.angle::Color.1"*
  %4 = bitcast i8* %0 to %"struct.angle::R10G10B10A2"*
  tail call void @_ZN5angle11R10G10B10A29readColorEPNS_5ColorIjEEPKS0_(%"struct.angle::Color.1"* %3, %"struct.angle::R10G10B10A2"* %4) #5
  ret void
}

; Function Attrs: nounwind ssp uwtable
define linkonce_odr hidden void @_ZN5angle10WriteColorINS_11R10G10B10A2EjEEvPKhPh(i8*, i8*) #0 comdat {
  %3 = bitcast i8* %1 to %"struct.angle::R10G10B10A2"*
  %4 = bitcast i8* %0 to %"struct.angle::Color.1"*
  tail call void @_ZN5angle11R10G10B10A210writeColorEPS0_PKNS_5ColorIjEE(%"struct.angle::R10G10B10A2"* %3, %"struct.angle::Color.1"* %4) #5
  ret void
}

; Function Attrs: nounwind ssp uwtable
define linkonce_odr hidden void @_ZN5angle9ReadColorINS_11R10G10B10A2EfEEvPKhPh(i8*, i8*) #0 comdat {
  %3 = bitcast i8* %1 to %"struct.angle::Color"*
  %4 = bitcast i8* %0 to %"struct.angle::R10G10B10A2"*
  tail call void @_ZN5angle11R10G10B10A29readColorEPNS_5ColorIfEEPKS0_(%"struct.angle::Color"* %3, %"struct.angle::R10G10B10A2"* %4) #5
  ret void
}

; Function Attrs: nounwind ssp uwtable
define linkonce_odr hidden void @_ZN5angle10WriteColorINS_11R10G10B10A2EfEEvPKhPh(i8*, i8*) #0 comdat {
  %3 = bitcast i8* %1 to %"struct.angle::R10G10B10A2"*
  %4 = bitcast i8* %0 to %"struct.angle::Color"*
  tail call void @_ZN5angle11R10G10B10A210writeColorEPS0_PKNS_5ColorIfEE(%"struct.angle::R10G10B10A2"* %3, %"struct.angle::Color"* %4) #5
  ret void
}

; Function Attrs: inlinehint nounwind ssp uwtable
define linkonce_odr hidden void @_ZN5angle11GenerateMipINS_11R10G10B10X2EEEvmmmPKhmmPhmm(i64, i64, i64, i8*, i64, i64, i8*, i64, i64) #1 comdat {
  %10 = lshr i64 %0, 1
  %11 = icmp ugt i64 %10, 1
  %12 = select i1 %11, i64 %10, i64 1
  %13 = lshr i64 %1, 1
  %14 = icmp ugt i64 %13, 1
  %15 = select i1 %14, i64 %13, i64 1
  %16 = lshr i64 %2, 1
  %17 = icmp ugt i64 %16, 1
  %18 = select i1 %17, i64 %16, i64 1
  %19 = icmp ugt i64 %0, 1
  %20 = zext i1 %19 to i64
  %21 = icmp ugt i64 %1, 1
  %22 = select i1 %21, i64 2, i64 0
  %23 = or i64 %22, %20
  %24 = icmp ugt i64 %2, 1
  %25 = select i1 %24, i64 4, i64 0
  %26 = or i64 %23, %25
  %27 = getelementptr inbounds [8 x void (i64, i64, i64, i8*, i64, i64, i64, i64, i64, i8*, i64, i64)*], [8 x void (i64, i64, i64, i8*, i64, i64, i64, i64, i64, i8*, i64, i64)*]* @switch.table._ZN5angle11GenerateMipINS_11R10G10B10X2EEEvmmmPKhmmPhmm, i64 0, i64 %26
  %28 = load void (i64, i64, i64, i8*, i64, i64, i64, i64, i64, i8*, i64, i64)*, void (i64, i64, i64, i8*, i64, i64, i64, i64, i64, i8*, i64, i64)** %27, align 8
  tail call void %28(i64 %0, i64 %1, i64 %2, i8* %3, i64 %4, i64 %5, i64 %12, i64 %15, i64 %18, i8* %6, i64 %7, i64 %8) #5
  ret void
}

; Function Attrs: nounwind ssp uwtable
define linkonce_odr hidden void @_ZN5angle9ReadColorINS_11R10G10B10X2EfEEvPKhPh(i8*, i8*) #0 comdat {
  %3 = bitcast i8* %1 to %"struct.angle::Color"*
  %4 = bitcast i8* %0 to %"struct.angle::R10G10B10X2"*
  tail call void @_ZN5angle11R10G10B10X29readColorEPNS_5ColorIfEEPKS0_(%"struct.angle::Color"* %3, %"struct.angle::R10G10B10X2"* %4) #5
  ret void
}

; Function Attrs: nounwind ssp uwtable
define linkonce_odr hidden void @_ZN5angle10WriteColorINS_11R10G10B10X2EfEEvPKhPh(i8*, i8*) #0 comdat {
  %3 = bitcast i8* %1 to %"struct.angle::R10G10B10X2"*
  %4 = bitcast i8* %0 to %"struct.angle::Color"*
  tail call void @_ZN5angle11R10G10B10X210writeColorEPS0_PKNS_5ColorIfEE(%"struct.angle::R10G10B10X2"* %3, %"struct.angle::Color"* %4) #5
  ret void
}

; Function Attrs: inlinehint nounwind ssp uwtable
define linkonce_odr hidden void @_ZN5angle11GenerateMipINS_10R11G11B10FEEEvmmmPKhmmPhmm(i64, i64, i64, i8*, i64, i64, i8*, i64, i64) #1 comdat {
  %10 = lshr i64 %0, 1
  %11 = icmp ugt i64 %10, 1
  %12 = select i1 %11, i64 %10, i64 1
  %13 = lshr i64 %1, 1
  %14 = icmp ugt i64 %13, 1
  %15 = select i1 %14, i64 %13, i64 1
  %16 = lshr i64 %2, 1
  %17 = icmp ugt i64 %16, 1
  %18 = select i1 %17, i64 %16, i64 1
  %19 = icmp ugt i64 %0, 1
  %20 = zext i1 %19 to i64
  %21 = icmp ugt i64 %1, 1
  %22 = select i1 %21, i64 2, i64 0
  %23 = or i64 %22, %20
  %24 = icmp ugt i64 %2, 1
  %25 = select i1 %24, i64 4, i64 0
  %26 = or i64 %23, %25
  %27 = getelementptr inbounds [8 x void (i64, i64, i64, i8*, i64, i64, i64, i64, i64, i8*, i64, i64)*], [8 x void (i64, i64, i64, i8*, i64, i64, i64, i64, i64, i8*, i64, i64)*]* @switch.table._ZN5angle11GenerateMipINS_10R11G11B10FEEEvmmmPKhmmPhmm, i64 0, i64 %26
  %28 = load void (i64, i64, i64, i8*, i64, i64, i64, i64, i64, i8*, i64, i64)*, void (i64, i64, i64, i8*, i64, i64, i64, i64, i64, i8*, i64, i64)** %27, align 8
  tail call void %28(i64 %0, i64 %1, i64 %2, i8* %3, i64 %4, i64 %5, i64 %12, i64 %15, i64 %18, i8* %6, i64 %7, i64 %8) #5
  ret void
}

; Function Attrs: nounwind ssp uwtable
define linkonce_odr hidden void @_ZN5angle9ReadColorINS_10R11G11B10FEfEEvPKhPh(i8*, i8*) #0 comdat {
  %3 = bitcast i8* %1 to %"struct.angle::Color"*
  %4 = bitcast i8* %0 to %"struct.angle::R11G11B10F"*
  tail call void @_ZN5angle10R11G11B10F9readColorEPNS_5ColorIfEEPKS0_(%"struct.angle::Color"* %3, %"struct.angle::R11G11B10F"* %4) #5
  ret void
}

; Function Attrs: nounwind ssp uwtable
define linkonce_odr hidden void @_ZN5angle10WriteColorINS_10R11G11B10FEfEEvPKhPh(i8*, i8*) #0 comdat {
  %3 = bitcast i8* %1 to %"struct.angle::R11G11B10F"*
  %4 = bitcast i8* %0 to %"struct.angle::Color"*
  tail call void @_ZN5angle10R11G11B10F10writeColorEPS0_PKNS_5ColorIfEE(%"struct.angle::R11G11B10F"* %3, %"struct.angle::Color"* %4) #5
  ret void
}

; Function Attrs: inlinehint nounwind ssp uwtable
define linkonce_odr hidden void @_ZN5angle11GenerateMipINS_13R16G16B16A16FEEEvmmmPKhmmPhmm(i64, i64, i64, i8*, i64, i64, i8*, i64, i64) #1 comdat {
  %10 = lshr i64 %0, 1
  %11 = icmp ugt i64 %10, 1
  %12 = select i1 %11, i64 %10, i64 1
  %13 = lshr i64 %1, 1
  %14 = icmp ugt i64 %13, 1
  %15 = select i1 %14, i64 %13, i64 1
  %16 = lshr i64 %2, 1
  %17 = icmp ugt i64 %16, 1
  %18 = select i1 %17, i64 %16, i64 1
  %19 = icmp ugt i64 %0, 1
  %20 = zext i1 %19 to i64
  %21 = icmp ugt i64 %1, 1
  %22 = select i1 %21, i64 2, i64 0
  %23 = or i64 %22, %20
  %24 = icmp ugt i64 %2, 1
  %25 = select i1 %24, i64 4, i64 0
  %26 = or i64 %23, %25
  %27 = getelementptr inbounds [8 x void (i64, i64, i64, i8*, i64, i64, i64, i64, i64, i8*, i64, i64)*], [8 x void (i64, i64, i64, i8*, i64, i64, i64, i64, i64, i8*, i64, i64)*]* @switch.table._ZN5angle11GenerateMipINS_13R16G16B16A16FEEEvmmmPKhmmPhmm, i64 0, i64 %26
  %28 = load void (i64, i64, i64, i8*, i64, i64, i64, i64, i64, i8*, i64, i64)*, void (i64, i64, i64, i8*, i64, i64, i64, i64, i64, i8*, i64, i64)** %27, align 8
  tail call void %28(i64 %0, i64 %1, i64 %2, i8* %3, i64 %4, i64 %5, i64 %12, i64 %15, i64 %18, i8* %6, i64 %7, i64 %8) #5
  ret void
}

; Function Attrs: nounwind ssp uwtable
define linkonce_odr hidden void @_ZN5angle9ReadColorINS_13R16G16B16A16FEfEEvPKhPh(i8*, i8*) #0 comdat {
  %3 = bitcast i8* %1 to %"struct.angle::Color"*
  %4 = bitcast i8* %0 to %"struct.angle::R16G16B16A16F"*
  tail call void @_ZN5angle13R16G16B16A16F9readColorEPNS_5ColorIfEEPKS0_(%"struct.angle::Color"* %3, %"struct.angle::R16G16B16A16F"* %4) #5
  ret void
}

; Function Attrs: nounwind ssp uwtable
define linkonce_odr hidden void @_ZN5angle10WriteColorINS_13R16G16B16A16FEfEEvPKhPh(i8*, i8*) #0 comdat {
  %3 = bitcast i8* %1 to %"struct.angle::R16G16B16A16F"*
  %4 = bitcast i8* %0 to %"struct.angle::Color"*
  tail call void @_ZN5angle13R16G16B16A16F10writeColorEPS0_PKNS_5ColorIfEE(%"struct.angle::R16G16B16A16F"* %3, %"struct.angle::Color"* %4) #5
  ret void
}

; Function Attrs: inlinehint nounwind ssp uwtable
define linkonce_odr hidden void @_ZN5angle11GenerateMipINS_13R16G16B16A16SEEEvmmmPKhmmPhmm(i64, i64, i64, i8*, i64, i64, i8*, i64, i64) #1 comdat {
  %10 = lshr i64 %0, 1
  %11 = icmp ugt i64 %10, 1
  %12 = select i1 %11, i64 %10, i64 1
  %13 = lshr i64 %1, 1
  %14 = icmp ugt i64 %13, 1
  %15 = select i1 %14, i64 %13, i64 1
  %16 = lshr i64 %2, 1
  %17 = icmp ugt i64 %16, 1
  %18 = select i1 %17, i64 %16, i64 1
  %19 = icmp ugt i64 %0, 1
  %20 = zext i1 %19 to i64
  %21 = icmp ugt i64 %1, 1
  %22 = select i1 %21, i64 2, i64 0
  %23 = or i64 %22, %20
  %24 = icmp ugt i64 %2, 1
  %25 = select i1 %24, i64 4, i64 0
  %26 = or i64 %23, %25
  %27 = getelementptr inbounds [8 x void (i64, i64, i64, i8*, i64, i64, i64, i64, i64, i8*, i64, i64)*], [8 x void (i64, i64, i64, i8*, i64, i64, i64, i64, i64, i8*, i64, i64)*]* @switch.table._ZN5angle11GenerateMipINS_13R16G16B16A16SEEEvmmmPKhmmPhmm, i64 0, i64 %26
  %28 = load void (i64, i64, i64, i8*, i64, i64, i64, i64, i64, i8*, i64, i64)*, void (i64, i64, i64, i8*, i64, i64, i64, i64, i64, i8*, i64, i64)** %27, align 8
  tail call void %28(i64 %0, i64 %1, i64 %2, i8* %3, i64 %4, i64 %5, i64 %12, i64 %15, i64 %18, i8* %6, i64 %7, i64 %8) #5
  ret void
}

; Function Attrs: nounwind ssp uwtable
define linkonce_odr hidden void @_ZN5angle9ReadColorINS_13R16G16B16A16SEiEEvPKhPh(i8*, i8*) #0 comdat {
  %3 = bitcast i8* %1 to %"struct.angle::Color.0"*
  %4 = bitcast i8* %0 to %"struct.angle::R16G16B16A16S"*
  tail call void @_ZN5angle13R16G16B16A16S9readColorEPNS_5ColorIiEEPKS0_(%"struct.angle::Color.0"* %3, %"struct.angle::R16G16B16A16S"* %4) #5
  ret void
}

; Function Attrs: nounwind ssp uwtable
define linkonce_odr hidden void @_ZN5angle10WriteColorINS_13R16G16B16A16SEiEEvPKhPh(i8*, i8*) #0 comdat {
  %3 = bitcast i8* %1 to %"struct.angle::R16G16B16A16S"*
  %4 = bitcast i8* %0 to %"struct.angle::Color.0"*
  tail call void @_ZN5angle13R16G16B16A16S10writeColorEPS0_PKNS_5ColorIiEE(%"struct.angle::R16G16B16A16S"* %3, %"struct.angle::Color.0"* %4) #5
  ret void
}

; Function Attrs: nounwind ssp uwtable
define linkonce_odr hidden void @_ZN5angle9ReadColorINS_13R16G16B16A16SEfEEvPKhPh(i8*, i8*) #0 comdat {
  %3 = bitcast i8* %1 to %"struct.angle::Color"*
  %4 = bitcast i8* %0 to %"struct.angle::R16G16B16A16S"*
  tail call void @_ZN5angle13R16G16B16A16S9readColorEPNS_5ColorIfEEPKS0_(%"struct.angle::Color"* %3, %"struct.angle::R16G16B16A16S"* %4) #5
  ret void
}

; Function Attrs: nounwind ssp uwtable
define linkonce_odr hidden void @_ZN5angle10WriteColorINS_13R16G16B16A16SEfEEvPKhPh(i8*, i8*) #0 comdat {
  %3 = bitcast i8* %1 to %"struct.angle::R16G16B16A16S"*
  %4 = bitcast i8* %0 to %"struct.angle::Color"*
  tail call void @_ZN5angle13R16G16B16A16S10writeColorEPS0_PKNS_5ColorIfEE(%"struct.angle::R16G16B16A16S"* %3, %"struct.angle::Color"* %4) #5
  ret void
}

; Function Attrs: inlinehint nounwind ssp uwtable
define linkonce_odr hidden void @_ZN5angle11GenerateMipINS_12R16G16B16A16EEEvmmmPKhmmPhmm(i64, i64, i64, i8*, i64, i64, i8*, i64, i64) #1 comdat {
  %10 = lshr i64 %0, 1
  %11 = icmp ugt i64 %10, 1
  %12 = select i1 %11, i64 %10, i64 1
  %13 = lshr i64 %1, 1
  %14 = icmp ugt i64 %13, 1
  %15 = select i1 %14, i64 %13, i64 1
  %16 = lshr i64 %2, 1
  %17 = icmp ugt i64 %16, 1
  %18 = select i1 %17, i64 %16, i64 1
  %19 = icmp ugt i64 %0, 1
  %20 = zext i1 %19 to i64
  %21 = icmp ugt i64 %1, 1
  %22 = select i1 %21, i64 2, i64 0
  %23 = or i64 %22, %20
  %24 = icmp ugt i64 %2, 1
  %25 = select i1 %24, i64 4, i64 0
  %26 = or i64 %23, %25
  %27 = getelementptr inbounds [8 x void (i64, i64, i64, i8*, i64, i64, i64, i64, i64, i8*, i64, i64)*], [8 x void (i64, i64, i64, i8*, i64, i64, i64, i64, i64, i8*, i64, i64)*]* @switch.table._ZN5angle11GenerateMipINS_12R16G16B16A16EEEvmmmPKhmmPhmm, i64 0, i64 %26
  %28 = load void (i64, i64, i64, i8*, i64, i64, i64, i64, i64, i8*, i64, i64)*, void (i64, i64, i64, i8*, i64, i64, i64, i64, i64, i8*, i64, i64)** %27, align 8
  tail call void %28(i64 %0, i64 %1, i64 %2, i8* %3, i64 %4, i64 %5, i64 %12, i64 %15, i64 %18, i8* %6, i64 %7, i64 %8) #5
  ret void
}

; Function Attrs: nounwind ssp uwtable
define linkonce_odr hidden void @_ZN5angle9ReadColorINS_12R16G16B16A16EjEEvPKhPh(i8*, i8*) #0 comdat {
  %3 = bitcast i8* %1 to %"struct.angle::Color.1"*
  %4 = bitcast i8* %0 to %"struct.angle::R16G16B16A16"*
  tail call void @_ZN5angle12R16G16B16A169readColorEPNS_5ColorIjEEPKS0_(%"struct.angle::Color.1"* %3, %"struct.angle::R16G16B16A16"* %4) #5
  ret void
}

; Function Attrs: nounwind ssp uwtable
define linkonce_odr hidden void @_ZN5angle10WriteColorINS_12R16G16B16A16EjEEvPKhPh(i8*, i8*) #0 comdat {
  %3 = bitcast i8* %1 to %"struct.angle::R16G16B16A16"*
  %4 = bitcast i8* %0 to %"struct.angle::Color.1"*
  tail call void @_ZN5angle12R16G16B16A1610writeColorEPS0_PKNS_5ColorIjEE(%"struct.angle::R16G16B16A16"* %3, %"struct.angle::Color.1"* %4) #5
  ret void
}

; Function Attrs: nounwind ssp uwtable
define linkonce_odr hidden void @_ZN5angle9ReadColorINS_12R16G16B16A16EfEEvPKhPh(i8*, i8*) #0 comdat {
  %3 = bitcast i8* %1 to %"struct.angle::Color"*
  %4 = bitcast i8* %0 to %"struct.angle::R16G16B16A16"*
  tail call void @_ZN5angle12R16G16B16A169readColorEPNS_5ColorIfEEPKS0_(%"struct.angle::Color"* %3, %"struct.angle::R16G16B16A16"* %4) #5
  ret void
}

; Function Attrs: nounwind ssp uwtable
define linkonce_odr hidden void @_ZN5angle10WriteColorINS_12R16G16B16A16EfEEvPKhPh(i8*, i8*) #0 comdat {
  %3 = bitcast i8* %1 to %"struct.angle::R16G16B16A16"*
  %4 = bitcast i8* %0 to %"struct.angle::Color"*
  tail call void @_ZN5angle12R16G16B16A1610writeColorEPS0_PKNS_5ColorIfEE(%"struct.angle::R16G16B16A16"* %3, %"struct.angle::Color"* %4) #5
  ret void
}

; Function Attrs: inlinehint nounwind ssp uwtable
define linkonce_odr hidden void @_ZN5angle11GenerateMipINS_10R16G16B16FEEEvmmmPKhmmPhmm(i64, i64, i64, i8*, i64, i64, i8*, i64, i64) #1 comdat {
  %10 = lshr i64 %0, 1
  %11 = icmp ugt i64 %10, 1
  %12 = select i1 %11, i64 %10, i64 1
  %13 = lshr i64 %1, 1
  %14 = icmp ugt i64 %13, 1
  %15 = select i1 %14, i64 %13, i64 1
  %16 = lshr i64 %2, 1
  %17 = icmp ugt i64 %16, 1
  %18 = select i1 %17, i64 %16, i64 1
  %19 = icmp ugt i64 %0, 1
  %20 = zext i1 %19 to i64
  %21 = icmp ugt i64 %1, 1
  %22 = select i1 %21, i64 2, i64 0
  %23 = or i64 %22, %20
  %24 = icmp ugt i64 %2, 1
  %25 = select i1 %24, i64 4, i64 0
  %26 = or i64 %23, %25
  %27 = getelementptr inbounds [8 x void (i64, i64, i64, i8*, i64, i64, i64, i64, i64, i8*, i64, i64)*], [8 x void (i64, i64, i64, i8*, i64, i64, i64, i64, i64, i8*, i64, i64)*]* @switch.table._ZN5angle11GenerateMipINS_10R16G16B16FEEEvmmmPKhmmPhmm, i64 0, i64 %26
  %28 = load void (i64, i64, i64, i8*, i64, i64, i64, i64, i64, i8*, i64, i64)*, void (i64, i64, i64, i8*, i64, i64, i64, i64, i64, i8*, i64, i64)** %27, align 8
  tail call void %28(i64 %0, i64 %1, i64 %2, i8* %3, i64 %4, i64 %5, i64 %12, i64 %15, i64 %18, i8* %6, i64 %7, i64 %8) #5
  ret void
}

; Function Attrs: nounwind ssp uwtable
define linkonce_odr hidden void @_ZN5angle9ReadColorINS_10R16G16B16FEfEEvPKhPh(i8*, i8*) #0 comdat {
  %3 = bitcast i8* %1 to %"struct.angle::Color"*
  %4 = bitcast i8* %0 to %"struct.angle::R16G16B16F"*
  tail call void @_ZN5angle10R16G16B16F9readColorEPNS_5ColorIfEEPKS0_(%"struct.angle::Color"* %3, %"struct.angle::R16G16B16F"* %4) #5
  ret void
}

; Function Attrs: nounwind ssp uwtable
define linkonce_odr hidden void @_ZN5angle10WriteColorINS_10R16G16B16FEfEEvPKhPh(i8*, i8*) #0 comdat {
  %3 = bitcast i8* %1 to %"struct.angle::R16G16B16F"*
  %4 = bitcast i8* %0 to %"struct.angle::Color"*
  tail call void @_ZN5angle10R16G16B16F10writeColorEPS0_PKNS_5ColorIfEE(%"struct.angle::R16G16B16F"* %3, %"struct.angle::Color"* %4) #5
  ret void
}

; Function Attrs: inlinehint nounwind ssp uwtable
define linkonce_odr hidden void @_ZN5angle11GenerateMipINS_10R16G16B16SEEEvmmmPKhmmPhmm(i64, i64, i64, i8*, i64, i64, i8*, i64, i64) #1 comdat {
  %10 = lshr i64 %0, 1
  %11 = icmp ugt i64 %10, 1
  %12 = select i1 %11, i64 %10, i64 1
  %13 = lshr i64 %1, 1
  %14 = icmp ugt i64 %13, 1
  %15 = select i1 %14, i64 %13, i64 1
  %16 = lshr i64 %2, 1
  %17 = icmp ugt i64 %16, 1
  %18 = select i1 %17, i64 %16, i64 1
  %19 = icmp ugt i64 %0, 1
  %20 = zext i1 %19 to i64
  %21 = icmp ugt i64 %1, 1
  %22 = select i1 %21, i64 2, i64 0
  %23 = or i64 %22, %20
  %24 = icmp ugt i64 %2, 1
  %25 = select i1 %24, i64 4, i64 0
  %26 = or i64 %23, %25
  %27 = getelementptr inbounds [8 x void (i64, i64, i64, i8*, i64, i64, i64, i64, i64, i8*, i64, i64)*], [8 x void (i64, i64, i64, i8*, i64, i64, i64, i64, i64, i8*, i64, i64)*]* @switch.table._ZN5angle11GenerateMipINS_10R16G16B16SEEEvmmmPKhmmPhmm, i64 0, i64 %26
  %28 = load void (i64, i64, i64, i8*, i64, i64, i64, i64, i64, i8*, i64, i64)*, void (i64, i64, i64, i8*, i64, i64, i64, i64, i64, i8*, i64, i64)** %27, align 8
  tail call void %28(i64 %0, i64 %1, i64 %2, i8* %3, i64 %4, i64 %5, i64 %12, i64 %15, i64 %18, i8* %6, i64 %7, i64 %8) #5
  ret void
}

; Function Attrs: nounwind ssp uwtable
define linkonce_odr hidden void @_ZN5angle9ReadColorINS_10R16G16B16SEiEEvPKhPh(i8*, i8*) #0 comdat {
  %3 = bitcast i8* %1 to %"struct.angle::Color.0"*
  %4 = bitcast i8* %0 to %"struct.angle::R16G16B16S"*
  tail call void @_ZN5angle10R16G16B16S9readColorEPNS_5ColorIiEEPKS0_(%"struct.angle::Color.0"* %3, %"struct.angle::R16G16B16S"* %4) #5
  ret void
}

; Function Attrs: nounwind ssp uwtable
define linkonce_odr hidden void @_ZN5angle10WriteColorINS_10R16G16B16SEiEEvPKhPh(i8*, i8*) #0 comdat {
  %3 = bitcast i8* %1 to %"struct.angle::R16G16B16S"*
  %4 = bitcast i8* %0 to %"struct.angle::Color.0"*
  tail call void @_ZN5angle10R16G16B16S10writeColorEPS0_PKNS_5ColorIiEE(%"struct.angle::R16G16B16S"* %3, %"struct.angle::Color.0"* %4) #5
  ret void
}

; Function Attrs: nounwind ssp uwtable
define linkonce_odr hidden void @_ZN5angle9ReadColorINS_10R16G16B16SEfEEvPKhPh(i8*, i8*) #0 comdat {
  %3 = bitcast i8* %1 to %"struct.angle::Color"*
  %4 = bitcast i8* %0 to %"struct.angle::R16G16B16S"*
  tail call void @_ZN5angle10R16G16B16S9readColorEPNS_5ColorIfEEPKS0_(%"struct.angle::Color"* %3, %"struct.angle::R16G16B16S"* %4) #5
  ret void
}

; Function Attrs: nounwind ssp uwtable
define linkonce_odr hidden void @_ZN5angle10WriteColorINS_10R16G16B16SEfEEvPKhPh(i8*, i8*) #0 comdat {
  %3 = bitcast i8* %1 to %"struct.angle::R16G16B16S"*
  %4 = bitcast i8* %0 to %"struct.angle::Color"*
  tail call void @_ZN5angle10R16G16B16S10writeColorEPS0_PKNS_5ColorIfEE(%"struct.angle::R16G16B16S"* %3, %"struct.angle::Color"* %4) #5
  ret void
}

; Function Attrs: inlinehint nounwind ssp uwtable
define linkonce_odr hidden void @_ZN5angle11GenerateMipINS_9R16G16B16EEEvmmmPKhmmPhmm(i64, i64, i64, i8*, i64, i64, i8*, i64, i64) #1 comdat {
  %10 = lshr i64 %0, 1
  %11 = icmp ugt i64 %10, 1
  %12 = select i1 %11, i64 %10, i64 1
  %13 = lshr i64 %1, 1
  %14 = icmp ugt i64 %13, 1
  %15 = select i1 %14, i64 %13, i64 1
  %16 = lshr i64 %2, 1
  %17 = icmp ugt i64 %16, 1
  %18 = select i1 %17, i64 %16, i64 1
  %19 = icmp ugt i64 %0, 1
  %20 = zext i1 %19 to i64
  %21 = icmp ugt i64 %1, 1
  %22 = select i1 %21, i64 2, i64 0
  %23 = or i64 %22, %20
  %24 = icmp ugt i64 %2, 1
  %25 = select i1 %24, i64 4, i64 0
  %26 = or i64 %23, %25
  %27 = getelementptr inbounds [8 x void (i64, i64, i64, i8*, i64, i64, i64, i64, i64, i8*, i64, i64)*], [8 x void (i64, i64, i64, i8*, i64, i64, i64, i64, i64, i8*, i64, i64)*]* @switch.table._ZN5angle11GenerateMipINS_9R16G16B16EEEvmmmPKhmmPhmm, i64 0, i64 %26
  %28 = load void (i64, i64, i64, i8*, i64, i64, i64, i64, i64, i8*, i64, i64)*, void (i64, i64, i64, i8*, i64, i64, i64, i64, i64, i8*, i64, i64)** %27, align 8
  tail call void %28(i64 %0, i64 %1, i64 %2, i8* %3, i64 %4, i64 %5, i64 %12, i64 %15, i64 %18, i8* %6, i64 %7, i64 %8) #5
  ret void
}

; Function Attrs: nounwind ssp uwtable
define linkonce_odr hidden void @_ZN5angle9ReadColorINS_9R16G16B16EjEEvPKhPh(i8*, i8*) #0 comdat {
  %3 = bitcast i8* %1 to %"struct.angle::Color.1"*
  %4 = bitcast i8* %0 to %"struct.angle::R16G16B16"*
  tail call void @_ZN5angle9R16G16B169readColorEPNS_5ColorIjEEPKS0_(%"struct.angle::Color.1"* %3, %"struct.angle::R16G16B16"* %4) #5
  ret void
}

; Function Attrs: nounwind ssp uwtable
define linkonce_odr hidden void @_ZN5angle10WriteColorINS_9R16G16B16EjEEvPKhPh(i8*, i8*) #0 comdat {
  %3 = bitcast i8* %1 to %"struct.angle::R16G16B16"*
  %4 = bitcast i8* %0 to %"struct.angle::Color.1"*
  tail call void @_ZN5angle9R16G16B1610writeColorEPS0_PKNS_5ColorIjEE(%"struct.angle::R16G16B16"* %3, %"struct.angle::Color.1"* %4) #5
  ret void
}

; Function Attrs: nounwind ssp uwtable
define linkonce_odr hidden void @_ZN5angle9ReadColorINS_9R16G16B16EfEEvPKhPh(i8*, i8*) #0 comdat {
  %3 = bitcast i8* %1 to %"struct.angle::Color"*
  %4 = bitcast i8* %0 to %"struct.angle::R16G16B16"*
  tail call void @_ZN5angle9R16G16B169readColorEPNS_5ColorIfEEPKS0_(%"struct.angle::Color"* %3, %"struct.angle::R16G16B16"* %4) #5
  ret void
}

; Function Attrs: nounwind ssp uwtable
define linkonce_odr hidden void @_ZN5angle10WriteColorINS_9R16G16B16EfEEvPKhPh(i8*, i8*) #0 comdat {
  %3 = bitcast i8* %1 to %"struct.angle::R16G16B16"*
  %4 = bitcast i8* %0 to %"struct.angle::Color"*
  tail call void @_ZN5angle9R16G16B1610writeColorEPS0_PKNS_5ColorIfEE(%"struct.angle::R16G16B16"* %3, %"struct.angle::Color"* %4) #5
  ret void
}

; Function Attrs: inlinehint nounwind ssp uwtable
define linkonce_odr hidden void @_ZN5angle11GenerateMipINS_7R16G16FEEEvmmmPKhmmPhmm(i64, i64, i64, i8*, i64, i64, i8*, i64, i64) #1 comdat {
  %10 = lshr i64 %0, 1
  %11 = icmp ugt i64 %10, 1
  %12 = select i1 %11, i64 %10, i64 1
  %13 = lshr i64 %1, 1
  %14 = icmp ugt i64 %13, 1
  %15 = select i1 %14, i64 %13, i64 1
  %16 = lshr i64 %2, 1
  %17 = icmp ugt i64 %16, 1
  %18 = select i1 %17, i64 %16, i64 1
  %19 = icmp ugt i64 %0, 1
  %20 = zext i1 %19 to i64
  %21 = icmp ugt i64 %1, 1
  %22 = select i1 %21, i64 2, i64 0
  %23 = or i64 %22, %20
  %24 = icmp ugt i64 %2, 1
  %25 = select i1 %24, i64 4, i64 0
  %26 = or i64 %23, %25
  %27 = getelementptr inbounds [8 x void (i64, i64, i64, i8*, i64, i64, i64, i64, i64, i8*, i64, i64)*], [8 x void (i64, i64, i64, i8*, i64, i64, i64, i64, i64, i8*, i64, i64)*]* @switch.table._ZN5angle11GenerateMipINS_7R16G16FEEEvmmmPKhmmPhmm, i64 0, i64 %26
  %28 = load void (i64, i64, i64, i8*, i64, i64, i64, i64, i64, i8*, i64, i64)*, void (i64, i64, i64, i8*, i64, i64, i64, i64, i64, i8*, i64, i64)** %27, align 8
  tail call void %28(i64 %0, i64 %1, i64 %2, i8* %3, i64 %4, i64 %5, i64 %12, i64 %15, i64 %18, i8* %6, i64 %7, i64 %8) #5
  ret void
}

; Function Attrs: nounwind ssp uwtable
define linkonce_odr hidden void @_ZN5angle9ReadColorINS_7R16G16FEfEEvPKhPh(i8*, i8*) #0 comdat {
  %3 = bitcast i8* %1 to %"struct.angle::Color"*
  %4 = bitcast i8* %0 to %"struct.angle::R16G16F"*
  tail call void @_ZN5angle7R16G16F9readColorEPNS_5ColorIfEEPKS0_(%"struct.angle::Color"* %3, %"struct.angle::R16G16F"* %4) #5
  ret void
}

; Function Attrs: nounwind ssp uwtable
define linkonce_odr hidden void @_ZN5angle10WriteColorINS_7R16G16FEfEEvPKhPh(i8*, i8*) #0 comdat {
  %3 = bitcast i8* %1 to %"struct.angle::R16G16F"*
  %4 = bitcast i8* %0 to %"struct.angle::Color"*
  tail call void @_ZN5angle7R16G16F10writeColorEPS0_PKNS_5ColorIfEE(%"struct.angle::R16G16F"* %3, %"struct.angle::Color"* %4) #5
  ret void
}

; Function Attrs: inlinehint nounwind ssp uwtable
define linkonce_odr hidden void @_ZN5angle11GenerateMipINS_7R16G16SEEEvmmmPKhmmPhmm(i64, i64, i64, i8*, i64, i64, i8*, i64, i64) #1 comdat {
  %10 = lshr i64 %0, 1
  %11 = icmp ugt i64 %10, 1
  %12 = select i1 %11, i64 %10, i64 1
  %13 = lshr i64 %1, 1
  %14 = icmp ugt i64 %13, 1
  %15 = select i1 %14, i64 %13, i64 1
  %16 = lshr i64 %2, 1
  %17 = icmp ugt i64 %16, 1
  %18 = select i1 %17, i64 %16, i64 1
  %19 = icmp ugt i64 %0, 1
  %20 = zext i1 %19 to i64
  %21 = icmp ugt i64 %1, 1
  %22 = select i1 %21, i64 2, i64 0
  %23 = or i64 %22, %20
  %24 = icmp ugt i64 %2, 1
  %25 = select i1 %24, i64 4, i64 0
  %26 = or i64 %23, %25
  %27 = getelementptr inbounds [8 x void (i64, i64, i64, i8*, i64, i64, i64, i64, i64, i8*, i64, i64)*], [8 x void (i64, i64, i64, i8*, i64, i64, i64, i64, i64, i8*, i64, i64)*]* @switch.table._ZN5angle11GenerateMipINS_7R16G16SEEEvmmmPKhmmPhmm, i64 0, i64 %26
  %28 = load void (i64, i64, i64, i8*, i64, i64, i64, i64, i64, i8*, i64, i64)*, void (i64, i64, i64, i8*, i64, i64, i64, i64, i64, i8*, i64, i64)** %27, align 8
  tail call void %28(i64 %0, i64 %1, i64 %2, i8* %3, i64 %4, i64 %5, i64 %12, i64 %15, i64 %18, i8* %6, i64 %7, i64 %8) #5
  ret void
}

; Function Attrs: nounwind ssp uwtable
define linkonce_odr hidden void @_ZN5angle9ReadColorINS_7R16G16SEiEEvPKhPh(i8*, i8*) #0 comdat {
  %3 = bitcast i8* %1 to %"struct.angle::Color.0"*
  %4 = bitcast i8* %0 to %"struct.angle::R16G16S"*
  tail call void @_ZN5angle7R16G16S9readColorEPNS_5ColorIiEEPKS0_(%"struct.angle::Color.0"* %3, %"struct.angle::R16G16S"* %4) #5
  ret void
}

; Function Attrs: nounwind ssp uwtable
define linkonce_odr hidden void @_ZN5angle10WriteColorINS_7R16G16SEiEEvPKhPh(i8*, i8*) #0 comdat {
  %3 = bitcast i8* %1 to %"struct.angle::R16G16S"*
  %4 = bitcast i8* %0 to %"struct.angle::Color.0"*
  tail call void @_ZN5angle7R16G16S10writeColorEPS0_PKNS_5ColorIiEE(%"struct.angle::R16G16S"* %3, %"struct.angle::Color.0"* %4) #5
  ret void
}

; Function Attrs: nounwind ssp uwtable
define linkonce_odr hidden void @_ZN5angle9ReadColorINS_7R16G16SEfEEvPKhPh(i8*, i8*) #0 comdat {
  %3 = bitcast i8* %1 to %"struct.angle::Color"*
  %4 = bitcast i8* %0 to %"struct.angle::R16G16S"*
  tail call void @_ZN5angle7R16G16S9readColorEPNS_5ColorIfEEPKS0_(%"struct.angle::Color"* %3, %"struct.angle::R16G16S"* %4) #5
  ret void
}

; Function Attrs: nounwind ssp uwtable
define linkonce_odr hidden void @_ZN5angle10WriteColorINS_7R16G16SEfEEvPKhPh(i8*, i8*) #0 comdat {
  %3 = bitcast i8* %1 to %"struct.angle::R16G16S"*
  %4 = bitcast i8* %0 to %"struct.angle::Color"*
  tail call void @_ZN5angle7R16G16S10writeColorEPS0_PKNS_5ColorIfEE(%"struct.angle::R16G16S"* %3, %"struct.angle::Color"* %4) #5
  ret void
}

; Function Attrs: inlinehint nounwind ssp uwtable
define linkonce_odr hidden void @_ZN5angle11GenerateMipINS_6R16G16EEEvmmmPKhmmPhmm(i64, i64, i64, i8*, i64, i64, i8*, i64, i64) #1 comdat {
  %10 = lshr i64 %0, 1
  %11 = icmp ugt i64 %10, 1
  %12 = select i1 %11, i64 %10, i64 1
  %13 = lshr i64 %1, 1
  %14 = icmp ugt i64 %13, 1
  %15 = select i1 %14, i64 %13, i64 1
  %16 = lshr i64 %2, 1
  %17 = icmp ugt i64 %16, 1
  %18 = select i1 %17, i64 %16, i64 1
  %19 = icmp ugt i64 %0, 1
  %20 = zext i1 %19 to i64
  %21 = icmp ugt i64 %1, 1
  %22 = select i1 %21, i64 2, i64 0
  %23 = or i64 %22, %20
  %24 = icmp ugt i64 %2, 1
  %25 = select i1 %24, i64 4, i64 0
  %26 = or i64 %23, %25
  %27 = getelementptr inbounds [8 x void (i64, i64, i64, i8*, i64, i64, i64, i64, i64, i8*, i64, i64)*], [8 x void (i64, i64, i64, i8*, i64, i64, i64, i64, i64, i8*, i64, i64)*]* @switch.table._ZN5angle11GenerateMipINS_6R16G16EEEvmmmPKhmmPhmm, i64 0, i64 %26
  %28 = load void (i64, i64, i64, i8*, i64, i64, i64, i64, i64, i8*, i64, i64)*, void (i64, i64, i64, i8*, i64, i64, i64, i64, i64, i8*, i64, i64)** %27, align 8
  tail call void %28(i64 %0, i64 %1, i64 %2, i8* %3, i64 %4, i64 %5, i64 %12, i64 %15, i64 %18, i8* %6, i64 %7, i64 %8) #5
  ret void
}

; Function Attrs: nounwind ssp uwtable
define linkonce_odr hidden void @_ZN5angle9ReadColorINS_6R16G16EjEEvPKhPh(i8*, i8*) #0 comdat {
  %3 = bitcast i8* %1 to %"struct.angle::Color.1"*
  %4 = bitcast i8* %0 to %"struct.angle::R16G16"*
  tail call void @_ZN5angle6R16G169readColorEPNS_5ColorIjEEPKS0_(%"struct.angle::Color.1"* %3, %"struct.angle::R16G16"* %4) #5
  ret void
}

; Function Attrs: nounwind ssp uwtable
define linkonce_odr hidden void @_ZN5angle10WriteColorINS_6R16G16EjEEvPKhPh(i8*, i8*) #0 comdat {
  %3 = bitcast i8* %1 to %"struct.angle::R16G16"*
  %4 = bitcast i8* %0 to %"struct.angle::Color.1"*
  tail call void @_ZN5angle6R16G1610writeColorEPS0_PKNS_5ColorIjEE(%"struct.angle::R16G16"* %3, %"struct.angle::Color.1"* %4) #5
  ret void
}

; Function Attrs: nounwind ssp uwtable
define linkonce_odr hidden void @_ZN5angle9ReadColorINS_6R16G16EfEEvPKhPh(i8*, i8*) #0 comdat {
  %3 = bitcast i8* %1 to %"struct.angle::Color"*
  %4 = bitcast i8* %0 to %"struct.angle::R16G16"*
  tail call void @_ZN5angle6R16G169readColorEPNS_5ColorIfEEPKS0_(%"struct.angle::Color"* %3, %"struct.angle::R16G16"* %4) #5
  ret void
}

; Function Attrs: nounwind ssp uwtable
define linkonce_odr hidden void @_ZN5angle10WriteColorINS_6R16G16EfEEvPKhPh(i8*, i8*) #0 comdat {
  %3 = bitcast i8* %1 to %"struct.angle::R16G16"*
  %4 = bitcast i8* %0 to %"struct.angle::Color"*
  tail call void @_ZN5angle6R16G1610writeColorEPS0_PKNS_5ColorIfEE(%"struct.angle::R16G16"* %3, %"struct.angle::Color"* %4) #5
  ret void
}

; Function Attrs: inlinehint nounwind ssp uwtable
define linkonce_odr hidden void @_ZN5angle11GenerateMipINS_4R16FEEEvmmmPKhmmPhmm(i64, i64, i64, i8*, i64, i64, i8*, i64, i64) #1 comdat {
  %10 = lshr i64 %0, 1
  %11 = icmp ugt i64 %10, 1
  %12 = select i1 %11, i64 %10, i64 1
  %13 = lshr i64 %1, 1
  %14 = icmp ugt i64 %13, 1
  %15 = select i1 %14, i64 %13, i64 1
  %16 = lshr i64 %2, 1
  %17 = icmp ugt i64 %16, 1
  %18 = select i1 %17, i64 %16, i64 1
  %19 = icmp ugt i64 %0, 1
  %20 = zext i1 %19 to i64
  %21 = icmp ugt i64 %1, 1
  %22 = select i1 %21, i64 2, i64 0
  %23 = or i64 %22, %20
  %24 = icmp ugt i64 %2, 1
  %25 = select i1 %24, i64 4, i64 0
  %26 = or i64 %23, %25
  %27 = getelementptr inbounds [8 x void (i64, i64, i64, i8*, i64, i64, i64, i64, i64, i8*, i64, i64)*], [8 x void (i64, i64, i64, i8*, i64, i64, i64, i64, i64, i8*, i64, i64)*]* @switch.table._ZN5angle11GenerateMipINS_4R16FEEEvmmmPKhmmPhmm, i64 0, i64 %26
  %28 = load void (i64, i64, i64, i8*, i64, i64, i64, i64, i64, i8*, i64, i64)*, void (i64, i64, i64, i8*, i64, i64, i64, i64, i64, i8*, i64, i64)** %27, align 8
  tail call void %28(i64 %0, i64 %1, i64 %2, i8* %3, i64 %4, i64 %5, i64 %12, i64 %15, i64 %18, i8* %6, i64 %7, i64 %8) #5
  ret void
}

; Function Attrs: nounwind ssp uwtable
define linkonce_odr hidden void @_ZN5angle9ReadColorINS_4R16FEfEEvPKhPh(i8*, i8*) #0 comdat {
  %3 = bitcast i8* %1 to %"struct.angle::Color"*
  %4 = bitcast i8* %0 to %"struct.angle::R16F"*
  tail call void @_ZN5angle4R16F9readColorEPNS_5ColorIfEEPKS0_(%"struct.angle::Color"* %3, %"struct.angle::R16F"* %4) #5
  ret void
}

; Function Attrs: nounwind ssp uwtable
define linkonce_odr hidden void @_ZN5angle10WriteColorINS_4R16FEfEEvPKhPh(i8*, i8*) #0 comdat {
  %3 = bitcast i8* %1 to %"struct.angle::R16F"*
  %4 = bitcast i8* %0 to %"struct.angle::Color"*
  tail call void @_ZN5angle4R16F10writeColorEPS0_PKNS_5ColorIfEE(%"struct.angle::R16F"* %3, %"struct.angle::Color"* %4) #5
  ret void
}

; Function Attrs: inlinehint nounwind ssp uwtable
define linkonce_odr hidden void @_ZN5angle11GenerateMipINS_4R16SEEEvmmmPKhmmPhmm(i64, i64, i64, i8*, i64, i64, i8*, i64, i64) #1 comdat {
  %10 = lshr i64 %0, 1
  %11 = icmp ugt i64 %10, 1
  %12 = select i1 %11, i64 %10, i64 1
  %13 = lshr i64 %1, 1
  %14 = icmp ugt i64 %13, 1
  %15 = select i1 %14, i64 %13, i64 1
  %16 = lshr i64 %2, 1
  %17 = icmp ugt i64 %16, 1
  %18 = select i1 %17, i64 %16, i64 1
  %19 = icmp ugt i64 %0, 1
  %20 = zext i1 %19 to i64
  %21 = icmp ugt i64 %1, 1
  %22 = select i1 %21, i64 2, i64 0
  %23 = or i64 %22, %20
  %24 = icmp ugt i64 %2, 1
  %25 = select i1 %24, i64 4, i64 0
  %26 = or i64 %23, %25
  %27 = getelementptr inbounds [8 x void (i64, i64, i64, i8*, i64, i64, i64, i64, i64, i8*, i64, i64)*], [8 x void (i64, i64, i64, i8*, i64, i64, i64, i64, i64, i8*, i64, i64)*]* @switch.table._ZN5angle11GenerateMipINS_4R16SEEEvmmmPKhmmPhmm, i64 0, i64 %26
  %28 = load void (i64, i64, i64, i8*, i64, i64, i64, i64, i64, i8*, i64, i64)*, void (i64, i64, i64, i8*, i64, i64, i64, i64, i64, i8*, i64, i64)** %27, align 8
  tail call void %28(i64 %0, i64 %1, i64 %2, i8* %3, i64 %4, i64 %5, i64 %12, i64 %15, i64 %18, i8* %6, i64 %7, i64 %8) #5
  ret void
}

; Function Attrs: nounwind ssp uwtable
define linkonce_odr hidden void @_ZN5angle9ReadColorINS_4R16SEiEEvPKhPh(i8*, i8*) #0 comdat {
  %3 = bitcast i8* %1 to %"struct.angle::Color.0"*
  %4 = bitcast i8* %0 to %"struct.angle::R16S"*
  tail call void @_ZN5angle4R16S9readColorEPNS_5ColorIiEEPKS0_(%"struct.angle::Color.0"* %3, %"struct.angle::R16S"* %4) #5
  ret void
}

; Function Attrs: nounwind ssp uwtable
define linkonce_odr hidden void @_ZN5angle10WriteColorINS_4R16SEiEEvPKhPh(i8*, i8*) #0 comdat {
  %3 = bitcast i8* %1 to %"struct.angle::R16S"*
  %4 = bitcast i8* %0 to %"struct.angle::Color.0"*
  tail call void @_ZN5angle4R16S10writeColorEPS0_PKNS_5ColorIiEE(%"struct.angle::R16S"* %3, %"struct.angle::Color.0"* %4) #5
  ret void
}

; Function Attrs: nounwind ssp uwtable
define linkonce_odr hidden void @_ZN5angle9ReadColorINS_4R16SEfEEvPKhPh(i8*, i8*) #0 comdat {
  %3 = bitcast i8* %1 to %"struct.angle::Color"*
  %4 = bitcast i8* %0 to %"struct.angle::R16S"*
  tail call void @_ZN5angle4R16S9readColorEPNS_5ColorIfEEPKS0_(%"struct.angle::Color"* %3, %"struct.angle::R16S"* %4) #5
  ret void
}

; Function Attrs: nounwind ssp uwtable
define linkonce_odr hidden void @_ZN5angle10WriteColorINS_4R16SEfEEvPKhPh(i8*, i8*) #0 comdat {
  %3 = bitcast i8* %1 to %"struct.angle::R16S"*
  %4 = bitcast i8* %0 to %"struct.angle::Color"*
  tail call void @_ZN5angle4R16S10writeColorEPS0_PKNS_5ColorIfEE(%"struct.angle::R16S"* %3, %"struct.angle::Color"* %4) #5
  ret void
}

; Function Attrs: inlinehint nounwind ssp uwtable
define linkonce_odr hidden void @_ZN5angle11GenerateMipINS_3R16EEEvmmmPKhmmPhmm(i64, i64, i64, i8*, i64, i64, i8*, i64, i64) #1 comdat {
  %10 = lshr i64 %0, 1
  %11 = icmp ugt i64 %10, 1
  %12 = select i1 %11, i64 %10, i64 1
  %13 = lshr i64 %1, 1
  %14 = icmp ugt i64 %13, 1
  %15 = select i1 %14, i64 %13, i64 1
  %16 = lshr i64 %2, 1
  %17 = icmp ugt i64 %16, 1
  %18 = select i1 %17, i64 %16, i64 1
  %19 = icmp ugt i64 %0, 1
  %20 = zext i1 %19 to i64
  %21 = icmp ugt i64 %1, 1
  %22 = select i1 %21, i64 2, i64 0
  %23 = or i64 %22, %20
  %24 = icmp ugt i64 %2, 1
  %25 = select i1 %24, i64 4, i64 0
  %26 = or i64 %23, %25
  %27 = getelementptr inbounds [8 x void (i64, i64, i64, i8*, i64, i64, i64, i64, i64, i8*, i64, i64)*], [8 x void (i64, i64, i64, i8*, i64, i64, i64, i64, i64, i8*, i64, i64)*]* @switch.table._ZN5angle11GenerateMipINS_3R16EEEvmmmPKhmmPhmm, i64 0, i64 %26
  %28 = load void (i64, i64, i64, i8*, i64, i64, i64, i64, i64, i8*, i64, i64)*, void (i64, i64, i64, i8*, i64, i64, i64, i64, i64, i8*, i64, i64)** %27, align 8
  tail call void %28(i64 %0, i64 %1, i64 %2, i8* %3, i64 %4, i64 %5, i64 %12, i64 %15, i64 %18, i8* %6, i64 %7, i64 %8) #5
  ret void
}

; Function Attrs: nounwind ssp uwtable
define linkonce_odr hidden void @_ZN5angle9ReadColorINS_3R16EjEEvPKhPh(i8*, i8*) #0 comdat {
  %3 = bitcast i8* %1 to %"struct.angle::Color.1"*
  %4 = bitcast i8* %0 to %"struct.angle::R16"*
  tail call void @_ZN5angle3R169readColorEPNS_5ColorIjEEPKS0_(%"struct.angle::Color.1"* %3, %"struct.angle::R16"* %4) #5
  ret void
}

; Function Attrs: nounwind ssp uwtable
define linkonce_odr hidden void @_ZN5angle10WriteColorINS_3R16EjEEvPKhPh(i8*, i8*) #0 comdat {
  %3 = bitcast i8* %1 to %"struct.angle::R16"*
  %4 = bitcast i8* %0 to %"struct.angle::Color.1"*
  tail call void @_ZN5angle3R1610writeColorEPS0_PKNS_5ColorIjEE(%"struct.angle::R16"* %3, %"struct.angle::Color.1"* %4) #5
  ret void
}

; Function Attrs: nounwind ssp uwtable
define linkonce_odr hidden void @_ZN5angle9ReadColorINS_3R16EfEEvPKhPh(i8*, i8*) #0 comdat {
  %3 = bitcast i8* %1 to %"struct.angle::Color"*
  %4 = bitcast i8* %0 to %"struct.angle::R16"*
  tail call void @_ZN5angle3R169readColorEPNS_5ColorIfEEPKS0_(%"struct.angle::Color"* %3, %"struct.angle::R16"* %4) #5
  ret void
}

; Function Attrs: nounwind ssp uwtable
define linkonce_odr hidden void @_ZN5angle10WriteColorINS_3R16EfEEvPKhPh(i8*, i8*) #0 comdat {
  %3 = bitcast i8* %1 to %"struct.angle::R16"*
  %4 = bitcast i8* %0 to %"struct.angle::Color"*
  tail call void @_ZN5angle3R1610writeColorEPS0_PKNS_5ColorIfEE(%"struct.angle::R16"* %3, %"struct.angle::Color"* %4) #5
  ret void
}

; Function Attrs: inlinehint nounwind ssp uwtable
define linkonce_odr hidden void @_ZN5angle11GenerateMipINS_13R32G32B32A32FEEEvmmmPKhmmPhmm(i64, i64, i64, i8*, i64, i64, i8*, i64, i64) #1 comdat {
  %10 = lshr i64 %0, 1
  %11 = icmp ugt i64 %10, 1
  %12 = select i1 %11, i64 %10, i64 1
  %13 = lshr i64 %1, 1
  %14 = icmp ugt i64 %13, 1
  %15 = select i1 %14, i64 %13, i64 1
  %16 = lshr i64 %2, 1
  %17 = icmp ugt i64 %16, 1
  %18 = select i1 %17, i64 %16, i64 1
  %19 = icmp ugt i64 %0, 1
  %20 = zext i1 %19 to i64
  %21 = icmp ugt i64 %1, 1
  %22 = select i1 %21, i64 2, i64 0
  %23 = or i64 %22, %20
  %24 = icmp ugt i64 %2, 1
  %25 = select i1 %24, i64 4, i64 0
  %26 = or i64 %23, %25
  %27 = getelementptr inbounds [8 x void (i64, i64, i64, i8*, i64, i64, i64, i64, i64, i8*, i64, i64)*], [8 x void (i64, i64, i64, i8*, i64, i64, i64, i64, i64, i8*, i64, i64)*]* @switch.table._ZN5angle11GenerateMipINS_13R32G32B32A32FEEEvmmmPKhmmPhmm, i64 0, i64 %26
  %28 = load void (i64, i64, i64, i8*, i64, i64, i64, i64, i64, i8*, i64, i64)*, void (i64, i64, i64, i8*, i64, i64, i64, i64, i64, i8*, i64, i64)** %27, align 8
  tail call void %28(i64 %0, i64 %1, i64 %2, i8* %3, i64 %4, i64 %5, i64 %12, i64 %15, i64 %18, i8* %6, i64 %7, i64 %8) #5
  ret void
}

; Function Attrs: nounwind ssp uwtable
define linkonce_odr hidden void @_ZN5angle9ReadColorINS_13R32G32B32A32FEfEEvPKhPh(i8*, i8*) #0 comdat {
  %3 = bitcast i8* %1 to %"struct.angle::Color"*
  %4 = bitcast i8* %0 to %"struct.angle::R32G32B32A32F"*
  tail call void @_ZN5angle13R32G32B32A32F9readColorEPNS_5ColorIfEEPKS0_(%"struct.angle::Color"* %3, %"struct.angle::R32G32B32A32F"* %4) #5
  ret void
}

; Function Attrs: nounwind ssp uwtable
define linkonce_odr hidden void @_ZN5angle10WriteColorINS_13R32G32B32A32FEfEEvPKhPh(i8*, i8*) #0 comdat {
  %3 = bitcast i8* %1 to %"struct.angle::R32G32B32A32F"*
  %4 = bitcast i8* %0 to %"struct.angle::Color"*
  tail call void @_ZN5angle13R32G32B32A32F10writeColorEPS0_PKNS_5ColorIfEE(%"struct.angle::R32G32B32A32F"* %3, %"struct.angle::Color"* %4) #5
  ret void
}

; Function Attrs: inlinehint nounwind ssp uwtable
define linkonce_odr hidden void @_ZN5angle11GenerateMipINS_13R32G32B32A32SEEEvmmmPKhmmPhmm(i64, i64, i64, i8*, i64, i64, i8*, i64, i64) #1 comdat {
  %10 = lshr i64 %0, 1
  %11 = icmp ugt i64 %10, 1
  %12 = select i1 %11, i64 %10, i64 1
  %13 = lshr i64 %1, 1
  %14 = icmp ugt i64 %13, 1
  %15 = select i1 %14, i64 %13, i64 1
  %16 = lshr i64 %2, 1
  %17 = icmp ugt i64 %16, 1
  %18 = select i1 %17, i64 %16, i64 1
  %19 = icmp ugt i64 %0, 1
  %20 = zext i1 %19 to i64
  %21 = icmp ugt i64 %1, 1
  %22 = select i1 %21, i64 2, i64 0
  %23 = or i64 %22, %20
  %24 = icmp ugt i64 %2, 1
  %25 = select i1 %24, i64 4, i64 0
  %26 = or i64 %23, %25
  %27 = getelementptr inbounds [8 x void (i64, i64, i64, i8*, i64, i64, i64, i64, i64, i8*, i64, i64)*], [8 x void (i64, i64, i64, i8*, i64, i64, i64, i64, i64, i8*, i64, i64)*]* @switch.table._ZN5angle11GenerateMipINS_13R32G32B32A32SEEEvmmmPKhmmPhmm, i64 0, i64 %26
  %28 = load void (i64, i64, i64, i8*, i64, i64, i64, i64, i64, i8*, i64, i64)*, void (i64, i64, i64, i8*, i64, i64, i64, i64, i64, i8*, i64, i64)** %27, align 8
  tail call void %28(i64 %0, i64 %1, i64 %2, i8* %3, i64 %4, i64 %5, i64 %12, i64 %15, i64 %18, i8* %6, i64 %7, i64 %8) #5
  ret void
}

; Function Attrs: nounwind ssp uwtable
define linkonce_odr hidden void @_ZN5angle9ReadColorINS_13R32G32B32A32SEiEEvPKhPh(i8*, i8*) #0 comdat {
  %3 = bitcast i8* %1 to %"struct.angle::Color.0"*
  %4 = bitcast i8* %0 to %"struct.angle::R32G32B32A32S"*
  tail call void @_ZN5angle13R32G32B32A32S9readColorEPNS_5ColorIiEEPKS0_(%"struct.angle::Color.0"* %3, %"struct.angle::R32G32B32A32S"* %4) #5
  ret void
}

; Function Attrs: nounwind ssp uwtable
define linkonce_odr hidden void @_ZN5angle10WriteColorINS_13R32G32B32A32SEiEEvPKhPh(i8*, i8*) #0 comdat {
  %3 = bitcast i8* %1 to %"struct.angle::R32G32B32A32S"*
  %4 = bitcast i8* %0 to %"struct.angle::Color.0"*
  tail call void @_ZN5angle13R32G32B32A32S10writeColorEPS0_PKNS_5ColorIiEE(%"struct.angle::R32G32B32A32S"* %3, %"struct.angle::Color.0"* %4) #5
  ret void
}

; Function Attrs: nounwind ssp uwtable
define linkonce_odr hidden void @_ZN5angle9ReadColorINS_13R32G32B32A32SEfEEvPKhPh(i8*, i8*) #0 comdat {
  %3 = bitcast i8* %1 to %"struct.angle::Color"*
  %4 = bitcast i8* %0 to %"struct.angle::R32G32B32A32S"*
  tail call void @_ZN5angle13R32G32B32A32S9readColorEPNS_5ColorIfEEPKS0_(%"struct.angle::Color"* %3, %"struct.angle::R32G32B32A32S"* %4) #5
  ret void
}

; Function Attrs: nounwind ssp uwtable
define linkonce_odr hidden void @_ZN5angle10WriteColorINS_13R32G32B32A32SEfEEvPKhPh(i8*, i8*) #0 comdat {
  %3 = bitcast i8* %1 to %"struct.angle::R32G32B32A32S"*
  %4 = bitcast i8* %0 to %"struct.angle::Color"*
  tail call void @_ZN5angle13R32G32B32A32S10writeColorEPS0_PKNS_5ColorIfEE(%"struct.angle::R32G32B32A32S"* %3, %"struct.angle::Color"* %4) #5
  ret void
}

; Function Attrs: inlinehint nounwind ssp uwtable
define linkonce_odr hidden void @_ZN5angle11GenerateMipINS_12R32G32B32A32EEEvmmmPKhmmPhmm(i64, i64, i64, i8*, i64, i64, i8*, i64, i64) #1 comdat {
  %10 = lshr i64 %0, 1
  %11 = icmp ugt i64 %10, 1
  %12 = select i1 %11, i64 %10, i64 1
  %13 = lshr i64 %1, 1
  %14 = icmp ugt i64 %13, 1
  %15 = select i1 %14, i64 %13, i64 1
  %16 = lshr i64 %2, 1
  %17 = icmp ugt i64 %16, 1
  %18 = select i1 %17, i64 %16, i64 1
  %19 = icmp ugt i64 %0, 1
  %20 = zext i1 %19 to i64
  %21 = icmp ugt i64 %1, 1
  %22 = select i1 %21, i64 2, i64 0
  %23 = or i64 %22, %20
  %24 = icmp ugt i64 %2, 1
  %25 = select i1 %24, i64 4, i64 0
  %26 = or i64 %23, %25
  %27 = getelementptr inbounds [8 x void (i64, i64, i64, i8*, i64, i64, i64, i64, i64, i8*, i64, i64)*], [8 x void (i64, i64, i64, i8*, i64, i64, i64, i64, i64, i8*, i64, i64)*]* @switch.table._ZN5angle11GenerateMipINS_12R32G32B32A32EEEvmmmPKhmmPhmm, i64 0, i64 %26
  %28 = load void (i64, i64, i64, i8*, i64, i64, i64, i64, i64, i8*, i64, i64)*, void (i64, i64, i64, i8*, i64, i64, i64, i64, i64, i8*, i64, i64)** %27, align 8
  tail call void %28(i64 %0, i64 %1, i64 %2, i8* %3, i64 %4, i64 %5, i64 %12, i64 %15, i64 %18, i8* %6, i64 %7, i64 %8) #5
  ret void
}

; Function Attrs: nounwind ssp uwtable
define linkonce_odr hidden void @_ZN5angle9ReadColorINS_12R32G32B32A32EjEEvPKhPh(i8*, i8*) #0 comdat {
  %3 = bitcast i8* %1 to %"struct.angle::Color.1"*
  %4 = bitcast i8* %0 to %"struct.angle::R32G32B32A32"*
  tail call void @_ZN5angle12R32G32B32A329readColorEPNS_5ColorIjEEPKS0_(%"struct.angle::Color.1"* %3, %"struct.angle::R32G32B32A32"* %4) #5
  ret void
}

; Function Attrs: nounwind ssp uwtable
define linkonce_odr hidden void @_ZN5angle10WriteColorINS_12R32G32B32A32EjEEvPKhPh(i8*, i8*) #0 comdat {
  %3 = bitcast i8* %1 to %"struct.angle::R32G32B32A32"*
  %4 = bitcast i8* %0 to %"struct.angle::Color.1"*
  tail call void @_ZN5angle12R32G32B32A3210writeColorEPS0_PKNS_5ColorIjEE(%"struct.angle::R32G32B32A32"* %3, %"struct.angle::Color.1"* %4) #5
  ret void
}

; Function Attrs: nounwind ssp uwtable
define linkonce_odr hidden void @_ZN5angle9ReadColorINS_12R32G32B32A32EfEEvPKhPh(i8*, i8*) #0 comdat {
  %3 = bitcast i8* %1 to %"struct.angle::Color"*
  %4 = bitcast i8* %0 to %"struct.angle::R32G32B32A32"*
  tail call void @_ZN5angle12R32G32B32A329readColorEPNS_5ColorIfEEPKS0_(%"struct.angle::Color"* %3, %"struct.angle::R32G32B32A32"* %4) #5
  ret void
}

; Function Attrs: nounwind ssp uwtable
define linkonce_odr hidden void @_ZN5angle10WriteColorINS_12R32G32B32A32EfEEvPKhPh(i8*, i8*) #0 comdat {
  %3 = bitcast i8* %1 to %"struct.angle::R32G32B32A32"*
  %4 = bitcast i8* %0 to %"struct.angle::Color"*
  tail call void @_ZN5angle12R32G32B32A3210writeColorEPS0_PKNS_5ColorIfEE(%"struct.angle::R32G32B32A32"* %3, %"struct.angle::Color"* %4) #5
  ret void
}

; Function Attrs: inlinehint nounwind ssp uwtable
define linkonce_odr hidden void @_ZN5angle11GenerateMipINS_10R32G32B32FEEEvmmmPKhmmPhmm(i64, i64, i64, i8*, i64, i64, i8*, i64, i64) #1 comdat {
  %10 = lshr i64 %0, 1
  %11 = icmp ugt i64 %10, 1
  %12 = select i1 %11, i64 %10, i64 1
  %13 = lshr i64 %1, 1
  %14 = icmp ugt i64 %13, 1
  %15 = select i1 %14, i64 %13, i64 1
  %16 = lshr i64 %2, 1
  %17 = icmp ugt i64 %16, 1
  %18 = select i1 %17, i64 %16, i64 1
  %19 = icmp ugt i64 %0, 1
  %20 = zext i1 %19 to i64
  %21 = icmp ugt i64 %1, 1
  %22 = select i1 %21, i64 2, i64 0
  %23 = or i64 %22, %20
  %24 = icmp ugt i64 %2, 1
  %25 = select i1 %24, i64 4, i64 0
  %26 = or i64 %23, %25
  %27 = getelementptr inbounds [8 x void (i64, i64, i64, i8*, i64, i64, i64, i64, i64, i8*, i64, i64)*], [8 x void (i64, i64, i64, i8*, i64, i64, i64, i64, i64, i8*, i64, i64)*]* @switch.table._ZN5angle11GenerateMipINS_10R32G32B32FEEEvmmmPKhmmPhmm, i64 0, i64 %26
  %28 = load void (i64, i64, i64, i8*, i64, i64, i64, i64, i64, i8*, i64, i64)*, void (i64, i64, i64, i8*, i64, i64, i64, i64, i64, i8*, i64, i64)** %27, align 8
  tail call void %28(i64 %0, i64 %1, i64 %2, i8* %3, i64 %4, i64 %5, i64 %12, i64 %15, i64 %18, i8* %6, i64 %7, i64 %8) #5
  ret void
}

; Function Attrs: nounwind ssp uwtable
define linkonce_odr hidden void @_ZN5angle9ReadColorINS_10R32G32B32FEfEEvPKhPh(i8*, i8*) #0 comdat {
  %3 = bitcast i8* %1 to %"struct.angle::Color"*
  %4 = bitcast i8* %0 to %"struct.angle::R32G32B32F"*
  tail call void @_ZN5angle10R32G32B32F9readColorEPNS_5ColorIfEEPKS0_(%"struct.angle::Color"* %3, %"struct.angle::R32G32B32F"* %4) #5
  ret void
}

; Function Attrs: nounwind ssp uwtable
define linkonce_odr hidden void @_ZN5angle10WriteColorINS_10R32G32B32FEfEEvPKhPh(i8*, i8*) #0 comdat {
  %3 = bitcast i8* %1 to %"struct.angle::R32G32B32F"*
  %4 = bitcast i8* %0 to %"struct.angle::Color"*
  tail call void @_ZN5angle10R32G32B32F10writeColorEPS0_PKNS_5ColorIfEE(%"struct.angle::R32G32B32F"* %3, %"struct.angle::Color"* %4) #5
  ret void
}

; Function Attrs: inlinehint nounwind ssp uwtable
define linkonce_odr hidden void @_ZN5angle11GenerateMipINS_10R32G32B32SEEEvmmmPKhmmPhmm(i64, i64, i64, i8*, i64, i64, i8*, i64, i64) #1 comdat {
  %10 = lshr i64 %0, 1
  %11 = icmp ugt i64 %10, 1
  %12 = select i1 %11, i64 %10, i64 1
  %13 = lshr i64 %1, 1
  %14 = icmp ugt i64 %13, 1
  %15 = select i1 %14, i64 %13, i64 1
  %16 = lshr i64 %2, 1
  %17 = icmp ugt i64 %16, 1
  %18 = select i1 %17, i64 %16, i64 1
  %19 = icmp ugt i64 %0, 1
  %20 = zext i1 %19 to i64
  %21 = icmp ugt i64 %1, 1
  %22 = select i1 %21, i64 2, i64 0
  %23 = or i64 %22, %20
  %24 = icmp ugt i64 %2, 1
  %25 = select i1 %24, i64 4, i64 0
  %26 = or i64 %23, %25
  %27 = getelementptr inbounds [8 x void (i64, i64, i64, i8*, i64, i64, i64, i64, i64, i8*, i64, i64)*], [8 x void (i64, i64, i64, i8*, i64, i64, i64, i64, i64, i8*, i64, i64)*]* @switch.table._ZN5angle11GenerateMipINS_10R32G32B32SEEEvmmmPKhmmPhmm, i64 0, i64 %26
  %28 = load void (i64, i64, i64, i8*, i64, i64, i64, i64, i64, i8*, i64, i64)*, void (i64, i64, i64, i8*, i64, i64, i64, i64, i64, i8*, i64, i64)** %27, align 8
  tail call void %28(i64 %0, i64 %1, i64 %2, i8* %3, i64 %4, i64 %5, i64 %12, i64 %15, i64 %18, i8* %6, i64 %7, i64 %8) #5
  ret void
}

; Function Attrs: nounwind ssp uwtable
define linkonce_odr hidden void @_ZN5angle9ReadColorINS_10R32G32B32SEiEEvPKhPh(i8*, i8*) #0 comdat {
  %3 = bitcast i8* %1 to %"struct.angle::Color.0"*
  %4 = bitcast i8* %0 to %"struct.angle::R32G32B32S"*
  tail call void @_ZN5angle10R32G32B32S9readColorEPNS_5ColorIiEEPKS0_(%"struct.angle::Color.0"* %3, %"struct.angle::R32G32B32S"* %4) #5
  ret void
}

; Function Attrs: nounwind ssp uwtable
define linkonce_odr hidden void @_ZN5angle10WriteColorINS_10R32G32B32SEiEEvPKhPh(i8*, i8*) #0 comdat {
  %3 = bitcast i8* %1 to %"struct.angle::R32G32B32S"*
  %4 = bitcast i8* %0 to %"struct.angle::Color.0"*
  tail call void @_ZN5angle10R32G32B32S10writeColorEPS0_PKNS_5ColorIiEE(%"struct.angle::R32G32B32S"* %3, %"struct.angle::Color.0"* %4) #5
  ret void
}

; Function Attrs: nounwind ssp uwtable
define linkonce_odr hidden void @_ZN5angle9ReadColorINS_10R32G32B32SEfEEvPKhPh(i8*, i8*) #0 comdat {
  %3 = bitcast i8* %1 to %"struct.angle::Color"*
  %4 = bitcast i8* %0 to %"struct.angle::R32G32B32S"*
  tail call void @_ZN5angle10R32G32B32S9readColorEPNS_5ColorIfEEPKS0_(%"struct.angle::Color"* %3, %"struct.angle::R32G32B32S"* %4) #5
  ret void
}

; Function Attrs: nounwind ssp uwtable
define linkonce_odr hidden void @_ZN5angle10WriteColorINS_10R32G32B32SEfEEvPKhPh(i8*, i8*) #0 comdat {
  %3 = bitcast i8* %1 to %"struct.angle::R32G32B32S"*
  %4 = bitcast i8* %0 to %"struct.angle::Color"*
  tail call void @_ZN5angle10R32G32B32S10writeColorEPS0_PKNS_5ColorIfEE(%"struct.angle::R32G32B32S"* %3, %"struct.angle::Color"* %4) #5
  ret void
}

; Function Attrs: inlinehint nounwind ssp uwtable
define linkonce_odr hidden void @_ZN5angle11GenerateMipINS_9R32G32B32EEEvmmmPKhmmPhmm(i64, i64, i64, i8*, i64, i64, i8*, i64, i64) #1 comdat {
  %10 = lshr i64 %0, 1
  %11 = icmp ugt i64 %10, 1
  %12 = select i1 %11, i64 %10, i64 1
  %13 = lshr i64 %1, 1
  %14 = icmp ugt i64 %13, 1
  %15 = select i1 %14, i64 %13, i64 1
  %16 = lshr i64 %2, 1
  %17 = icmp ugt i64 %16, 1
  %18 = select i1 %17, i64 %16, i64 1
  %19 = icmp ugt i64 %0, 1
  %20 = zext i1 %19 to i64
  %21 = icmp ugt i64 %1, 1
  %22 = select i1 %21, i64 2, i64 0
  %23 = or i64 %22, %20
  %24 = icmp ugt i64 %2, 1
  %25 = select i1 %24, i64 4, i64 0
  %26 = or i64 %23, %25
  %27 = getelementptr inbounds [8 x void (i64, i64, i64, i8*, i64, i64, i64, i64, i64, i8*, i64, i64)*], [8 x void (i64, i64, i64, i8*, i64, i64, i64, i64, i64, i8*, i64, i64)*]* @switch.table._ZN5angle11GenerateMipINS_9R32G32B32EEEvmmmPKhmmPhmm, i64 0, i64 %26
  %28 = load void (i64, i64, i64, i8*, i64, i64, i64, i64, i64, i8*, i64, i64)*, void (i64, i64, i64, i8*, i64, i64, i64, i64, i64, i8*, i64, i64)** %27, align 8
  tail call void %28(i64 %0, i64 %1, i64 %2, i8* %3, i64 %4, i64 %5, i64 %12, i64 %15, i64 %18, i8* %6, i64 %7, i64 %8) #5
  ret void
}

; Function Attrs: nounwind ssp uwtable
define linkonce_odr hidden void @_ZN5angle9ReadColorINS_9R32G32B32EjEEvPKhPh(i8*, i8*) #0 comdat {
  %3 = bitcast i8* %1 to %"struct.angle::Color.1"*
  %4 = bitcast i8* %0 to %"struct.angle::R32G32B32"*
  tail call void @_ZN5angle9R32G32B329readColorEPNS_5ColorIjEEPKS0_(%"struct.angle::Color.1"* %3, %"struct.angle::R32G32B32"* %4) #5
  ret void
}

; Function Attrs: nounwind ssp uwtable
define linkonce_odr hidden void @_ZN5angle10WriteColorINS_9R32G32B32EjEEvPKhPh(i8*, i8*) #0 comdat {
  %3 = bitcast i8* %1 to %"struct.angle::R32G32B32"*
  %4 = bitcast i8* %0 to %"struct.angle::Color.1"*
  tail call void @_ZN5angle9R32G32B3210writeColorEPS0_PKNS_5ColorIjEE(%"struct.angle::R32G32B32"* %3, %"struct.angle::Color.1"* %4) #5
  ret void
}

; Function Attrs: nounwind ssp uwtable
define linkonce_odr hidden void @_ZN5angle9ReadColorINS_9R32G32B32EfEEvPKhPh(i8*, i8*) #0 comdat {
  %3 = bitcast i8* %1 to %"struct.angle::Color"*
  %4 = bitcast i8* %0 to %"struct.angle::R32G32B32"*
  tail call void @_ZN5angle9R32G32B329readColorEPNS_5ColorIfEEPKS0_(%"struct.angle::Color"* %3, %"struct.angle::R32G32B32"* %4) #5
  ret void
}

; Function Attrs: nounwind ssp uwtable
define linkonce_odr hidden void @_ZN5angle10WriteColorINS_9R32G32B32EfEEvPKhPh(i8*, i8*) #0 comdat {
  %3 = bitcast i8* %1 to %"struct.angle::R32G32B32"*
  %4 = bitcast i8* %0 to %"struct.angle::Color"*
  tail call void @_ZN5angle9R32G32B3210writeColorEPS0_PKNS_5ColorIfEE(%"struct.angle::R32G32B32"* %3, %"struct.angle::Color"* %4) #5
  ret void
}

; Function Attrs: inlinehint nounwind ssp uwtable
define linkonce_odr hidden void @_ZN5angle11GenerateMipINS_7R32G32FEEEvmmmPKhmmPhmm(i64, i64, i64, i8*, i64, i64, i8*, i64, i64) #1 comdat {
  %10 = lshr i64 %0, 1
  %11 = icmp ugt i64 %10, 1
  %12 = select i1 %11, i64 %10, i64 1
  %13 = lshr i64 %1, 1
  %14 = icmp ugt i64 %13, 1
  %15 = select i1 %14, i64 %13, i64 1
  %16 = lshr i64 %2, 1
  %17 = icmp ugt i64 %16, 1
  %18 = select i1 %17, i64 %16, i64 1
  %19 = icmp ugt i64 %0, 1
  %20 = zext i1 %19 to i64
  %21 = icmp ugt i64 %1, 1
  %22 = select i1 %21, i64 2, i64 0
  %23 = or i64 %22, %20
  %24 = icmp ugt i64 %2, 1
  %25 = select i1 %24, i64 4, i64 0
  %26 = or i64 %23, %25
  %27 = getelementptr inbounds [8 x void (i64, i64, i64, i8*, i64, i64, i64, i64, i64, i8*, i64, i64)*], [8 x void (i64, i64, i64, i8*, i64, i64, i64, i64, i64, i8*, i64, i64)*]* @switch.table._ZN5angle11GenerateMipINS_7R32G32FEEEvmmmPKhmmPhmm, i64 0, i64 %26
  %28 = load void (i64, i64, i64, i8*, i64, i64, i64, i64, i64, i8*, i64, i64)*, void (i64, i64, i64, i8*, i64, i64, i64, i64, i64, i8*, i64, i64)** %27, align 8
  tail call void %28(i64 %0, i64 %1, i64 %2, i8* %3, i64 %4, i64 %5, i64 %12, i64 %15, i64 %18, i8* %6, i64 %7, i64 %8) #5
  ret void
}

; Function Attrs: nounwind ssp uwtable
define linkonce_odr hidden void @_ZN5angle9ReadColorINS_7R32G32FEfEEvPKhPh(i8*, i8*) #0 comdat {
  %3 = bitcast i8* %1 to %"struct.angle::Color"*
  %4 = bitcast i8* %0 to %"struct.angle::R32G32F"*
  tail call void @_ZN5angle7R32G32F9readColorEPNS_5ColorIfEEPKS0_(%"struct.angle::Color"* %3, %"struct.angle::R32G32F"* %4) #5
  ret void
}

; Function Attrs: nounwind ssp uwtable
define linkonce_odr hidden void @_ZN5angle10WriteColorINS_7R32G32FEfEEvPKhPh(i8*, i8*) #0 comdat {
  %3 = bitcast i8* %1 to %"struct.angle::R32G32F"*
  %4 = bitcast i8* %0 to %"struct.angle::Color"*
  tail call void @_ZN5angle7R32G32F10writeColorEPS0_PKNS_5ColorIfEE(%"struct.angle::R32G32F"* %3, %"struct.angle::Color"* %4) #5
  ret void
}

; Function Attrs: inlinehint nounwind ssp uwtable
define linkonce_odr hidden void @_ZN5angle11GenerateMipINS_7R32G32SEEEvmmmPKhmmPhmm(i64, i64, i64, i8*, i64, i64, i8*, i64, i64) #1 comdat {
  %10 = lshr i64 %0, 1
  %11 = icmp ugt i64 %10, 1
  %12 = select i1 %11, i64 %10, i64 1
  %13 = lshr i64 %1, 1
  %14 = icmp ugt i64 %13, 1
  %15 = select i1 %14, i64 %13, i64 1
  %16 = lshr i64 %2, 1
  %17 = icmp ugt i64 %16, 1
  %18 = select i1 %17, i64 %16, i64 1
  %19 = icmp ugt i64 %0, 1
  %20 = zext i1 %19 to i64
  %21 = icmp ugt i64 %1, 1
  %22 = select i1 %21, i64 2, i64 0
  %23 = or i64 %22, %20
  %24 = icmp ugt i64 %2, 1
  %25 = select i1 %24, i64 4, i64 0
  %26 = or i64 %23, %25
  %27 = getelementptr inbounds [8 x void (i64, i64, i64, i8*, i64, i64, i64, i64, i64, i8*, i64, i64)*], [8 x void (i64, i64, i64, i8*, i64, i64, i64, i64, i64, i8*, i64, i64)*]* @switch.table._ZN5angle11GenerateMipINS_7R32G32SEEEvmmmPKhmmPhmm, i64 0, i64 %26
  %28 = load void (i64, i64, i64, i8*, i64, i64, i64, i64, i64, i8*, i64, i64)*, void (i64, i64, i64, i8*, i64, i64, i64, i64, i64, i8*, i64, i64)** %27, align 8
  tail call void %28(i64 %0, i64 %1, i64 %2, i8* %3, i64 %4, i64 %5, i64 %12, i64 %15, i64 %18, i8* %6, i64 %7, i64 %8) #5
  ret void
}

; Function Attrs: nounwind ssp uwtable
define linkonce_odr hidden void @_ZN5angle9ReadColorINS_7R32G32SEiEEvPKhPh(i8*, i8*) #0 comdat {
  %3 = bitcast i8* %1 to %"struct.angle::Color.0"*
  %4 = bitcast i8* %0 to %"struct.angle::R32G32S"*
  tail call void @_ZN5angle7R32G32S9readColorEPNS_5ColorIiEEPKS0_(%"struct.angle::Color.0"* %3, %"struct.angle::R32G32S"* %4) #5
  ret void
}

; Function Attrs: nounwind ssp uwtable
define linkonce_odr hidden void @_ZN5angle10WriteColorINS_7R32G32SEiEEvPKhPh(i8*, i8*) #0 comdat {
  %3 = bitcast i8* %1 to %"struct.angle::R32G32S"*
  %4 = bitcast i8* %0 to %"struct.angle::Color.0"*
  tail call void @_ZN5angle7R32G32S10writeColorEPS0_PKNS_5ColorIiEE(%"struct.angle::R32G32S"* %3, %"struct.angle::Color.0"* %4) #5
  ret void
}

; Function Attrs: nounwind ssp uwtable
define linkonce_odr hidden void @_ZN5angle9ReadColorINS_7R32G32SEfEEvPKhPh(i8*, i8*) #0 comdat {
  %3 = bitcast i8* %1 to %"struct.angle::Color"*
  %4 = bitcast i8* %0 to %"struct.angle::R32G32S"*
  tail call void @_ZN5angle7R32G32S9readColorEPNS_5ColorIfEEPKS0_(%"struct.angle::Color"* %3, %"struct.angle::R32G32S"* %4) #5
  ret void
}

; Function Attrs: nounwind ssp uwtable
define linkonce_odr hidden void @_ZN5angle10WriteColorINS_7R32G32SEfEEvPKhPh(i8*, i8*) #0 comdat {
  %3 = bitcast i8* %1 to %"struct.angle::R32G32S"*
  %4 = bitcast i8* %0 to %"struct.angle::Color"*
  tail call void @_ZN5angle7R32G32S10writeColorEPS0_PKNS_5ColorIfEE(%"struct.angle::R32G32S"* %3, %"struct.angle::Color"* %4) #5
  ret void
}

; Function Attrs: inlinehint nounwind ssp uwtable
define linkonce_odr hidden void @_ZN5angle11GenerateMipINS_6R32G32EEEvmmmPKhmmPhmm(i64, i64, i64, i8*, i64, i64, i8*, i64, i64) #1 comdat {
  %10 = lshr i64 %0, 1
  %11 = icmp ugt i64 %10, 1
  %12 = select i1 %11, i64 %10, i64 1
  %13 = lshr i64 %1, 1
  %14 = icmp ugt i64 %13, 1
  %15 = select i1 %14, i64 %13, i64 1
  %16 = lshr i64 %2, 1
  %17 = icmp ugt i64 %16, 1
  %18 = select i1 %17, i64 %16, i64 1
  %19 = icmp ugt i64 %0, 1
  %20 = zext i1 %19 to i64
  %21 = icmp ugt i64 %1, 1
  %22 = select i1 %21, i64 2, i64 0
  %23 = or i64 %22, %20
  %24 = icmp ugt i64 %2, 1
  %25 = select i1 %24, i64 4, i64 0
  %26 = or i64 %23, %25
  %27 = getelementptr inbounds [8 x void (i64, i64, i64, i8*, i64, i64, i64, i64, i64, i8*, i64, i64)*], [8 x void (i64, i64, i64, i8*, i64, i64, i64, i64, i64, i8*, i64, i64)*]* @switch.table._ZN5angle11GenerateMipINS_6R32G32EEEvmmmPKhmmPhmm, i64 0, i64 %26
  %28 = load void (i64, i64, i64, i8*, i64, i64, i64, i64, i64, i8*, i64, i64)*, void (i64, i64, i64, i8*, i64, i64, i64, i64, i64, i8*, i64, i64)** %27, align 8
  tail call void %28(i64 %0, i64 %1, i64 %2, i8* %3, i64 %4, i64 %5, i64 %12, i64 %15, i64 %18, i8* %6, i64 %7, i64 %8) #5
  ret void
}

; Function Attrs: nounwind ssp uwtable
define linkonce_odr hidden void @_ZN5angle9ReadColorINS_6R32G32EjEEvPKhPh(i8*, i8*) #0 comdat {
  %3 = bitcast i8* %1 to %"struct.angle::Color.1"*
  %4 = bitcast i8* %0 to %"struct.angle::R32G32"*
  tail call void @_ZN5angle6R32G329readColorEPNS_5ColorIjEEPKS0_(%"struct.angle::Color.1"* %3, %"struct.angle::R32G32"* %4) #5
  ret void
}

; Function Attrs: nounwind ssp uwtable
define linkonce_odr hidden void @_ZN5angle10WriteColorINS_6R32G32EjEEvPKhPh(i8*, i8*) #0 comdat {
  %3 = bitcast i8* %1 to %"struct.angle::R32G32"*
  %4 = bitcast i8* %0 to %"struct.angle::Color.1"*
  tail call void @_ZN5angle6R32G3210writeColorEPS0_PKNS_5ColorIjEE(%"struct.angle::R32G32"* %3, %"struct.angle::Color.1"* %4) #5
  ret void
}

; Function Attrs: nounwind ssp uwtable
define linkonce_odr hidden void @_ZN5angle9ReadColorINS_6R32G32EfEEvPKhPh(i8*, i8*) #0 comdat {
  %3 = bitcast i8* %1 to %"struct.angle::Color"*
  %4 = bitcast i8* %0 to %"struct.angle::R32G32"*
  tail call void @_ZN5angle6R32G329readColorEPNS_5ColorIfEEPKS0_(%"struct.angle::Color"* %3, %"struct.angle::R32G32"* %4) #5
  ret void
}

; Function Attrs: nounwind ssp uwtable
define linkonce_odr hidden void @_ZN5angle10WriteColorINS_6R32G32EfEEvPKhPh(i8*, i8*) #0 comdat {
  %3 = bitcast i8* %1 to %"struct.angle::R32G32"*
  %4 = bitcast i8* %0 to %"struct.angle::Color"*
  tail call void @_ZN5angle6R32G3210writeColorEPS0_PKNS_5ColorIfEE(%"struct.angle::R32G32"* %3, %"struct.angle::Color"* %4) #5
  ret void
}

; Function Attrs: inlinehint nounwind ssp uwtable
define linkonce_odr hidden void @_ZN5angle11GenerateMipINS_4R32FEEEvmmmPKhmmPhmm(i64, i64, i64, i8*, i64, i64, i8*, i64, i64) #1 comdat {
  %10 = lshr i64 %0, 1
  %11 = icmp ugt i64 %10, 1
  %12 = select i1 %11, i64 %10, i64 1
  %13 = lshr i64 %1, 1
  %14 = icmp ugt i64 %13, 1
  %15 = select i1 %14, i64 %13, i64 1
  %16 = lshr i64 %2, 1
  %17 = icmp ugt i64 %16, 1
  %18 = select i1 %17, i64 %16, i64 1
  %19 = icmp ugt i64 %0, 1
  %20 = zext i1 %19 to i64
  %21 = icmp ugt i64 %1, 1
  %22 = select i1 %21, i64 2, i64 0
  %23 = or i64 %22, %20
  %24 = icmp ugt i64 %2, 1
  %25 = select i1 %24, i64 4, i64 0
  %26 = or i64 %23, %25
  %27 = getelementptr inbounds [8 x void (i64, i64, i64, i8*, i64, i64, i64, i64, i64, i8*, i64, i64)*], [8 x void (i64, i64, i64, i8*, i64, i64, i64, i64, i64, i8*, i64, i64)*]* @switch.table._ZN5angle11GenerateMipINS_4R32FEEEvmmmPKhmmPhmm, i64 0, i64 %26
  %28 = load void (i64, i64, i64, i8*, i64, i64, i64, i64, i64, i8*, i64, i64)*, void (i64, i64, i64, i8*, i64, i64, i64, i64, i64, i8*, i64, i64)** %27, align 8
  tail call void %28(i64 %0, i64 %1, i64 %2, i8* %3, i64 %4, i64 %5, i64 %12, i64 %15, i64 %18, i8* %6, i64 %7, i64 %8) #5
  ret void
}

; Function Attrs: nounwind ssp uwtable
define linkonce_odr hidden void @_ZN5angle9ReadColorINS_4R32FEfEEvPKhPh(i8*, i8*) #0 comdat {
  %3 = bitcast i8* %1 to %"struct.angle::Color"*
  %4 = bitcast i8* %0 to %"struct.angle::R32F"*
  tail call void @_ZN5angle4R32F9readColorEPNS_5ColorIfEEPKS0_(%"struct.angle::Color"* %3, %"struct.angle::R32F"* %4) #5
  ret void
}

; Function Attrs: nounwind ssp uwtable
define linkonce_odr hidden void @_ZN5angle10WriteColorINS_4R32FEfEEvPKhPh(i8*, i8*) #0 comdat {
  %3 = bitcast i8* %1 to %"struct.angle::R32F"*
  %4 = bitcast i8* %0 to %"struct.angle::Color"*
  tail call void @_ZN5angle4R32F10writeColorEPS0_PKNS_5ColorIfEE(%"struct.angle::R32F"* %3, %"struct.angle::Color"* %4) #5
  ret void
}

; Function Attrs: inlinehint nounwind ssp uwtable
define linkonce_odr hidden void @_ZN5angle11GenerateMipINS_4R32SEEEvmmmPKhmmPhmm(i64, i64, i64, i8*, i64, i64, i8*, i64, i64) #1 comdat {
  %10 = lshr i64 %0, 1
  %11 = icmp ugt i64 %10, 1
  %12 = select i1 %11, i64 %10, i64 1
  %13 = lshr i64 %1, 1
  %14 = icmp ugt i64 %13, 1
  %15 = select i1 %14, i64 %13, i64 1
  %16 = lshr i64 %2, 1
  %17 = icmp ugt i64 %16, 1
  %18 = select i1 %17, i64 %16, i64 1
  %19 = icmp ugt i64 %0, 1
  %20 = zext i1 %19 to i64
  %21 = icmp ugt i64 %1, 1
  %22 = select i1 %21, i64 2, i64 0
  %23 = or i64 %22, %20
  %24 = icmp ugt i64 %2, 1
  %25 = select i1 %24, i64 4, i64 0
  %26 = or i64 %23, %25
  %27 = getelementptr inbounds [8 x void (i64, i64, i64, i8*, i64, i64, i64, i64, i64, i8*, i64, i64)*], [8 x void (i64, i64, i64, i8*, i64, i64, i64, i64, i64, i8*, i64, i64)*]* @switch.table._ZN5angle11GenerateMipINS_4R32SEEEvmmmPKhmmPhmm, i64 0, i64 %26
  %28 = load void (i64, i64, i64, i8*, i64, i64, i64, i64, i64, i8*, i64, i64)*, void (i64, i64, i64, i8*, i64, i64, i64, i64, i64, i8*, i64, i64)** %27, align 8
  tail call void %28(i64 %0, i64 %1, i64 %2, i8* %3, i64 %4, i64 %5, i64 %12, i64 %15, i64 %18, i8* %6, i64 %7, i64 %8) #5
  ret void
}

; Function Attrs: nounwind ssp uwtable
define linkonce_odr hidden void @_ZN5angle9ReadColorINS_4R32SEiEEvPKhPh(i8*, i8*) #0 comdat {
  %3 = bitcast i8* %1 to %"struct.angle::Color.0"*
  %4 = bitcast i8* %0 to %"struct.angle::R32S"*
  tail call void @_ZN5angle4R32S9readColorEPNS_5ColorIiEEPKS0_(%"struct.angle::Color.0"* %3, %"struct.angle::R32S"* %4) #5
  ret void
}

; Function Attrs: nounwind ssp uwtable
define linkonce_odr hidden void @_ZN5angle10WriteColorINS_4R32SEiEEvPKhPh(i8*, i8*) #0 comdat {
  %3 = bitcast i8* %1 to %"struct.angle::R32S"*
  %4 = bitcast i8* %0 to %"struct.angle::Color.0"*
  tail call void @_ZN5angle4R32S10writeColorEPS0_PKNS_5ColorIiEE(%"struct.angle::R32S"* %3, %"struct.angle::Color.0"* %4) #5
  ret void
}

; Function Attrs: nounwind ssp uwtable
define linkonce_odr hidden void @_ZN5angle9ReadColorINS_4R32SEfEEvPKhPh(i8*, i8*) #0 comdat {
  %3 = bitcast i8* %1 to %"struct.angle::Color"*
  %4 = bitcast i8* %0 to %"struct.angle::R32S"*
  tail call void @_ZN5angle4R32S9readColorEPNS_5ColorIfEEPKS0_(%"struct.angle::Color"* %3, %"struct.angle::R32S"* %4) #5
  ret void
}

; Function Attrs: nounwind ssp uwtable
define linkonce_odr hidden void @_ZN5angle10WriteColorINS_4R32SEfEEvPKhPh(i8*, i8*) #0 comdat {
  %3 = bitcast i8* %1 to %"struct.angle::R32S"*
  %4 = bitcast i8* %0 to %"struct.angle::Color"*
  tail call void @_ZN5angle4R32S10writeColorEPS0_PKNS_5ColorIfEE(%"struct.angle::R32S"* %3, %"struct.angle::Color"* %4) #5
  ret void
}

; Function Attrs: inlinehint nounwind ssp uwtable
define linkonce_odr hidden void @_ZN5angle11GenerateMipINS_3R32EEEvmmmPKhmmPhmm(i64, i64, i64, i8*, i64, i64, i8*, i64, i64) #1 comdat {
  %10 = lshr i64 %0, 1
  %11 = icmp ugt i64 %10, 1
  %12 = select i1 %11, i64 %10, i64 1
  %13 = lshr i64 %1, 1
  %14 = icmp ugt i64 %13, 1
  %15 = select i1 %14, i64 %13, i64 1
  %16 = lshr i64 %2, 1
  %17 = icmp ugt i64 %16, 1
  %18 = select i1 %17, i64 %16, i64 1
  %19 = icmp ugt i64 %0, 1
  %20 = zext i1 %19 to i64
  %21 = icmp ugt i64 %1, 1
  %22 = select i1 %21, i64 2, i64 0
  %23 = or i64 %22, %20
  %24 = icmp ugt i64 %2, 1
  %25 = select i1 %24, i64 4, i64 0
  %26 = or i64 %23, %25
  %27 = getelementptr inbounds [8 x void (i64, i64, i64, i8*, i64, i64, i64, i64, i64, i8*, i64, i64)*], [8 x void (i64, i64, i64, i8*, i64, i64, i64, i64, i64, i8*, i64, i64)*]* @switch.table._ZN5angle11GenerateMipINS_3R32EEEvmmmPKhmmPhmm, i64 0, i64 %26
  %28 = load void (i64, i64, i64, i8*, i64, i64, i64, i64, i64, i8*, i64, i64)*, void (i64, i64, i64, i8*, i64, i64, i64, i64, i64, i8*, i64, i64)** %27, align 8
  tail call void %28(i64 %0, i64 %1, i64 %2, i8* %3, i64 %4, i64 %5, i64 %12, i64 %15, i64 %18, i8* %6, i64 %7, i64 %8) #5
  ret void
}

; Function Attrs: nounwind ssp uwtable
define linkonce_odr hidden void @_ZN5angle9ReadColorINS_3R32EjEEvPKhPh(i8*, i8*) #0 comdat {
  %3 = bitcast i8* %1 to %"struct.angle::Color.1"*
  %4 = bitcast i8* %0 to %"struct.angle::R32"*
  tail call void @_ZN5angle3R329readColorEPNS_5ColorIjEEPKS0_(%"struct.angle::Color.1"* %3, %"struct.angle::R32"* %4) #5
  ret void
}

; Function Attrs: nounwind ssp uwtable
define linkonce_odr hidden void @_ZN5angle10WriteColorINS_3R32EjEEvPKhPh(i8*, i8*) #0 comdat {
  %3 = bitcast i8* %1 to %"struct.angle::R32"*
  %4 = bitcast i8* %0 to %"struct.angle::Color.1"*
  tail call void @_ZN5angle3R3210writeColorEPS0_PKNS_5ColorIjEE(%"struct.angle::R32"* %3, %"struct.angle::Color.1"* %4) #5
  ret void
}

; Function Attrs: nounwind ssp uwtable
define linkonce_odr hidden void @_ZN5angle9ReadColorINS_3R32EfEEvPKhPh(i8*, i8*) #0 comdat {
  %3 = bitcast i8* %1 to %"struct.angle::Color"*
  %4 = bitcast i8* %0 to %"struct.angle::R32"*
  tail call void @_ZN5angle3R329readColorEPNS_5ColorIfEEPKS0_(%"struct.angle::Color"* %3, %"struct.angle::R32"* %4) #5
  ret void
}

; Function Attrs: nounwind ssp uwtable
define linkonce_odr hidden void @_ZN5angle10WriteColorINS_3R32EfEEvPKhPh(i8*, i8*) #0 comdat {
  %3 = bitcast i8* %1 to %"struct.angle::R32"*
  %4 = bitcast i8* %0 to %"struct.angle::Color"*
  tail call void @_ZN5angle3R3210writeColorEPS0_PKNS_5ColorIfEE(%"struct.angle::R32"* %3, %"struct.angle::Color"* %4) #5
  ret void
}

; Function Attrs: inlinehint nounwind ssp uwtable
define linkonce_odr hidden void @_ZN5angle11GenerateMipINS_8R4G4B4A4EEEvmmmPKhmmPhmm(i64, i64, i64, i8*, i64, i64, i8*, i64, i64) #1 comdat {
  %10 = lshr i64 %0, 1
  %11 = icmp ugt i64 %10, 1
  %12 = select i1 %11, i64 %10, i64 1
  %13 = lshr i64 %1, 1
  %14 = icmp ugt i64 %13, 1
  %15 = select i1 %14, i64 %13, i64 1
  %16 = lshr i64 %2, 1
  %17 = icmp ugt i64 %16, 1
  %18 = select i1 %17, i64 %16, i64 1
  %19 = icmp ugt i64 %0, 1
  %20 = zext i1 %19 to i64
  %21 = icmp ugt i64 %1, 1
  %22 = select i1 %21, i64 2, i64 0
  %23 = or i64 %22, %20
  %24 = icmp ugt i64 %2, 1
  %25 = select i1 %24, i64 4, i64 0
  %26 = or i64 %23, %25
  %27 = getelementptr inbounds [8 x void (i64, i64, i64, i8*, i64, i64, i64, i64, i64, i8*, i64, i64)*], [8 x void (i64, i64, i64, i8*, i64, i64, i64, i64, i64, i8*, i64, i64)*]* @switch.table._ZN5angle11GenerateMipINS_8R4G4B4A4EEEvmmmPKhmmPhmm, i64 0, i64 %26
  %28 = load void (i64, i64, i64, i8*, i64, i64, i64, i64, i64, i8*, i64, i64)*, void (i64, i64, i64, i8*, i64, i64, i64, i64, i64, i8*, i64, i64)** %27, align 8
  tail call void %28(i64 %0, i64 %1, i64 %2, i8* %3, i64 %4, i64 %5, i64 %12, i64 %15, i64 %18, i8* %6, i64 %7, i64 %8) #5
  ret void
}

; Function Attrs: nounwind ssp uwtable
define linkonce_odr hidden void @_ZN5angle9ReadColorINS_8R4G4B4A4EfEEvPKhPh(i8*, i8*) #0 comdat {
  %3 = bitcast i8* %1 to %"struct.angle::Color"*
  %4 = bitcast i8* %0 to %"struct.angle::R4G4B4A4"*
  tail call void @_ZN5angle8R4G4B4A49readColorEPNS_5ColorIfEEPKS0_(%"struct.angle::Color"* %3, %"struct.angle::R4G4B4A4"* %4) #5
  ret void
}

; Function Attrs: nounwind ssp uwtable
define linkonce_odr hidden void @_ZN5angle10WriteColorINS_8R4G4B4A4EfEEvPKhPh(i8*, i8*) #0 comdat {
  %3 = bitcast i8* %1 to %"struct.angle::R4G4B4A4"*
  %4 = bitcast i8* %0 to %"struct.angle::Color"*
  tail call void @_ZN5angle8R4G4B4A410writeColorEPS0_PKNS_5ColorIfEE(%"struct.angle::R4G4B4A4"* %3, %"struct.angle::Color"* %4) #5
  ret void
}

; Function Attrs: inlinehint nounwind ssp uwtable
define linkonce_odr hidden void @_ZN5angle11GenerateMipINS_8R5G5B5A1EEEvmmmPKhmmPhmm(i64, i64, i64, i8*, i64, i64, i8*, i64, i64) #1 comdat {
  %10 = lshr i64 %0, 1
  %11 = icmp ugt i64 %10, 1
  %12 = select i1 %11, i64 %10, i64 1
  %13 = lshr i64 %1, 1
  %14 = icmp ugt i64 %13, 1
  %15 = select i1 %14, i64 %13, i64 1
  %16 = lshr i64 %2, 1
  %17 = icmp ugt i64 %16, 1
  %18 = select i1 %17, i64 %16, i64 1
  %19 = icmp ugt i64 %0, 1
  %20 = zext i1 %19 to i64
  %21 = icmp ugt i64 %1, 1
  %22 = select i1 %21, i64 2, i64 0
  %23 = or i64 %22, %20
  %24 = icmp ugt i64 %2, 1
  %25 = select i1 %24, i64 4, i64 0
  %26 = or i64 %23, %25
  %27 = getelementptr inbounds [8 x void (i64, i64, i64, i8*, i64, i64, i64, i64, i64, i8*, i64, i64)*], [8 x void (i64, i64, i64, i8*, i64, i64, i64, i64, i64, i8*, i64, i64)*]* @switch.table._ZN5angle11GenerateMipINS_8R5G5B5A1EEEvmmmPKhmmPhmm, i64 0, i64 %26
  %28 = load void (i64, i64, i64, i8*, i64, i64, i64, i64, i64, i8*, i64, i64)*, void (i64, i64, i64, i8*, i64, i64, i64, i64, i64, i8*, i64, i64)** %27, align 8
  tail call void %28(i64 %0, i64 %1, i64 %2, i8* %3, i64 %4, i64 %5, i64 %12, i64 %15, i64 %18, i8* %6, i64 %7, i64 %8) #5
  ret void
}

; Function Attrs: nounwind ssp uwtable
define linkonce_odr hidden void @_ZN5angle9ReadColorINS_8R5G5B5A1EfEEvPKhPh(i8*, i8*) #0 comdat {
  %3 = bitcast i8* %1 to %"struct.angle::Color"*
  %4 = bitcast i8* %0 to %"struct.angle::R5G5B5A1"*
  tail call void @_ZN5angle8R5G5B5A19readColorEPNS_5ColorIfEEPKS0_(%"struct.angle::Color"* %3, %"struct.angle::R5G5B5A1"* %4) #5
  ret void
}

; Function Attrs: nounwind ssp uwtable
define linkonce_odr hidden void @_ZN5angle10WriteColorINS_8R5G5B5A1EfEEvPKhPh(i8*, i8*) #0 comdat {
  %3 = bitcast i8* %1 to %"struct.angle::R5G5B5A1"*
  %4 = bitcast i8* %0 to %"struct.angle::Color"*
  tail call void @_ZN5angle8R5G5B5A110writeColorEPS0_PKNS_5ColorIfEE(%"struct.angle::R5G5B5A1"* %3, %"struct.angle::Color"* %4) #5
  ret void
}

; Function Attrs: inlinehint nounwind ssp uwtable
define linkonce_odr hidden void @_ZN5angle11GenerateMipINS_6R5G6B5EEEvmmmPKhmmPhmm(i64, i64, i64, i8*, i64, i64, i8*, i64, i64) #1 comdat {
  %10 = lshr i64 %0, 1
  %11 = icmp ugt i64 %10, 1
  %12 = select i1 %11, i64 %10, i64 1
  %13 = lshr i64 %1, 1
  %14 = icmp ugt i64 %13, 1
  %15 = select i1 %14, i64 %13, i64 1
  %16 = lshr i64 %2, 1
  %17 = icmp ugt i64 %16, 1
  %18 = select i1 %17, i64 %16, i64 1
  %19 = icmp ugt i64 %0, 1
  %20 = zext i1 %19 to i64
  %21 = icmp ugt i64 %1, 1
  %22 = select i1 %21, i64 2, i64 0
  %23 = or i64 %22, %20
  %24 = icmp ugt i64 %2, 1
  %25 = select i1 %24, i64 4, i64 0
  %26 = or i64 %23, %25
  %27 = getelementptr inbounds [8 x void (i64, i64, i64, i8*, i64, i64, i64, i64, i64, i8*, i64, i64)*], [8 x void (i64, i64, i64, i8*, i64, i64, i64, i64, i64, i8*, i64, i64)*]* @switch.table._ZN5angle11GenerateMipINS_6R5G6B5EEEvmmmPKhmmPhmm, i64 0, i64 %26
  %28 = load void (i64, i64, i64, i8*, i64, i64, i64, i64, i64, i8*, i64, i64)*, void (i64, i64, i64, i8*, i64, i64, i64, i64, i64, i8*, i64, i64)** %27, align 8
  tail call void %28(i64 %0, i64 %1, i64 %2, i8* %3, i64 %4, i64 %5, i64 %12, i64 %15, i64 %18, i8* %6, i64 %7, i64 %8) #5
  ret void
}

; Function Attrs: nounwind ssp uwtable
define linkonce_odr hidden void @_ZN5angle9ReadColorINS_6R5G6B5EfEEvPKhPh(i8*, i8*) #0 comdat {
  %3 = bitcast i8* %1 to %"struct.angle::Color"*
  %4 = bitcast i8* %0 to %"struct.angle::R5G6B5"*
  tail call void @_ZN5angle6R5G6B59readColorEPNS_5ColorIfEEPKS0_(%"struct.angle::Color"* %3, %"struct.angle::R5G6B5"* %4) #5
  ret void
}

; Function Attrs: nounwind ssp uwtable
define linkonce_odr hidden void @_ZN5angle10WriteColorINS_6R5G6B5EfEEvPKhPh(i8*, i8*) #0 comdat {
  %3 = bitcast i8* %1 to %"struct.angle::R5G6B5"*
  %4 = bitcast i8* %0 to %"struct.angle::Color"*
  tail call void @_ZN5angle6R5G6B510writeColorEPS0_PKNS_5ColorIfEE(%"struct.angle::R5G6B5"* %3, %"struct.angle::Color"* %4) #5
  ret void
}

; Function Attrs: inlinehint nounwind ssp uwtable
define linkonce_odr hidden void @_ZN5angle11GenerateMipINS_9R8G8B8A8SEEEvmmmPKhmmPhmm(i64, i64, i64, i8*, i64, i64, i8*, i64, i64) #1 comdat {
  %10 = lshr i64 %0, 1
  %11 = icmp ugt i64 %10, 1
  %12 = select i1 %11, i64 %10, i64 1
  %13 = lshr i64 %1, 1
  %14 = icmp ugt i64 %13, 1
  %15 = select i1 %14, i64 %13, i64 1
  %16 = lshr i64 %2, 1
  %17 = icmp ugt i64 %16, 1
  %18 = select i1 %17, i64 %16, i64 1
  %19 = icmp ugt i64 %0, 1
  %20 = zext i1 %19 to i64
  %21 = icmp ugt i64 %1, 1
  %22 = select i1 %21, i64 2, i64 0
  %23 = or i64 %22, %20
  %24 = icmp ugt i64 %2, 1
  %25 = select i1 %24, i64 4, i64 0
  %26 = or i64 %23, %25
  %27 = getelementptr inbounds [8 x void (i64, i64, i64, i8*, i64, i64, i64, i64, i64, i8*, i64, i64)*], [8 x void (i64, i64, i64, i8*, i64, i64, i64, i64, i64, i8*, i64, i64)*]* @switch.table._ZN5angle11GenerateMipINS_9R8G8B8A8SEEEvmmmPKhmmPhmm, i64 0, i64 %26
  %28 = load void (i64, i64, i64, i8*, i64, i64, i64, i64, i64, i8*, i64, i64)*, void (i64, i64, i64, i8*, i64, i64, i64, i64, i64, i8*, i64, i64)** %27, align 8
  tail call void %28(i64 %0, i64 %1, i64 %2, i8* %3, i64 %4, i64 %5, i64 %12, i64 %15, i64 %18, i8* %6, i64 %7, i64 %8) #5
  ret void
}

; Function Attrs: nounwind ssp uwtable
define linkonce_odr hidden void @_ZN5angle9ReadColorINS_9R8G8B8A8SEiEEvPKhPh(i8*, i8*) #0 comdat {
  %3 = bitcast i8* %1 to %"struct.angle::Color.0"*
  %4 = bitcast i8* %0 to %"struct.angle::R8G8B8A8S"*
  tail call void @_ZN5angle9R8G8B8A8S9readColorEPNS_5ColorIiEEPKS0_(%"struct.angle::Color.0"* %3, %"struct.angle::R8G8B8A8S"* %4) #5
  ret void
}

; Function Attrs: nounwind ssp uwtable
define linkonce_odr hidden void @_ZN5angle10WriteColorINS_9R8G8B8A8SEiEEvPKhPh(i8*, i8*) #0 comdat {
  %3 = bitcast i8* %1 to %"struct.angle::R8G8B8A8S"*
  %4 = bitcast i8* %0 to %"struct.angle::Color.0"*
  tail call void @_ZN5angle9R8G8B8A8S10writeColorEPS0_PKNS_5ColorIiEE(%"struct.angle::R8G8B8A8S"* %3, %"struct.angle::Color.0"* %4) #5
  ret void
}

; Function Attrs: nounwind ssp uwtable
define linkonce_odr hidden void @_ZN5angle9ReadColorINS_9R8G8B8A8SEfEEvPKhPh(i8*, i8*) #0 comdat {
  %3 = bitcast i8* %1 to %"struct.angle::Color"*
  %4 = bitcast i8* %0 to %"struct.angle::R8G8B8A8S"*
  tail call void @_ZN5angle9R8G8B8A8S9readColorEPNS_5ColorIfEEPKS0_(%"struct.angle::Color"* %3, %"struct.angle::R8G8B8A8S"* %4) #5
  ret void
}

; Function Attrs: nounwind ssp uwtable
define linkonce_odr hidden void @_ZN5angle10WriteColorINS_9R8G8B8A8SEfEEvPKhPh(i8*, i8*) #0 comdat {
  %3 = bitcast i8* %1 to %"struct.angle::R8G8B8A8S"*
  %4 = bitcast i8* %0 to %"struct.angle::Color"*
  tail call void @_ZN5angle9R8G8B8A8S10writeColorEPS0_PKNS_5ColorIfEE(%"struct.angle::R8G8B8A8S"* %3, %"struct.angle::Color"* %4) #5
  ret void
}

; Function Attrs: inlinehint nounwind ssp uwtable
define linkonce_odr hidden void @_ZN5angle11GenerateMipINS_8R8G8B8A8EEEvmmmPKhmmPhmm(i64, i64, i64, i8*, i64, i64, i8*, i64, i64) #1 comdat {
  %10 = lshr i64 %0, 1
  %11 = icmp ugt i64 %10, 1
  %12 = select i1 %11, i64 %10, i64 1
  %13 = lshr i64 %1, 1
  %14 = icmp ugt i64 %13, 1
  %15 = select i1 %14, i64 %13, i64 1
  %16 = lshr i64 %2, 1
  %17 = icmp ugt i64 %16, 1
  %18 = select i1 %17, i64 %16, i64 1
  %19 = icmp ugt i64 %0, 1
  %20 = zext i1 %19 to i64
  %21 = icmp ugt i64 %1, 1
  %22 = select i1 %21, i64 2, i64 0
  %23 = or i64 %22, %20
  %24 = icmp ugt i64 %2, 1
  %25 = select i1 %24, i64 4, i64 0
  %26 = or i64 %23, %25
  %27 = getelementptr inbounds [8 x void (i64, i64, i64, i8*, i64, i64, i64, i64, i64, i8*, i64, i64)*], [8 x void (i64, i64, i64, i8*, i64, i64, i64, i64, i64, i8*, i64, i64)*]* @switch.table._ZN5angle11GenerateMipINS_8R8G8B8A8EEEvmmmPKhmmPhmm, i64 0, i64 %26
  %28 = load void (i64, i64, i64, i8*, i64, i64, i64, i64, i64, i8*, i64, i64)*, void (i64, i64, i64, i8*, i64, i64, i64, i64, i64, i8*, i64, i64)** %27, align 8
  tail call void %28(i64 %0, i64 %1, i64 %2, i8* %3, i64 %4, i64 %5, i64 %12, i64 %15, i64 %18, i8* %6, i64 %7, i64 %8) #5
  ret void
}

; Function Attrs: nounwind ssp uwtable
define linkonce_odr hidden void @_ZN5angle9ReadColorINS_8R8G8B8A8EfEEvPKhPh(i8*, i8*) #0 comdat {
  %3 = bitcast i8* %1 to %"struct.angle::Color"*
  %4 = bitcast i8* %0 to %"struct.angle::R8G8B8A8"*
  tail call void @_ZN5angle8R8G8B8A89readColorEPNS_5ColorIfEEPKS0_(%"struct.angle::Color"* %3, %"struct.angle::R8G8B8A8"* %4) #5
  ret void
}

; Function Attrs: nounwind ssp uwtable
define linkonce_odr hidden void @_ZN5angle10WriteColorINS_8R8G8B8A8EfEEvPKhPh(i8*, i8*) #0 comdat {
  %3 = bitcast i8* %1 to %"struct.angle::R8G8B8A8"*
  %4 = bitcast i8* %0 to %"struct.angle::Color"*
  tail call void @_ZN5angle8R8G8B8A810writeColorEPS0_PKNS_5ColorIfEE(%"struct.angle::R8G8B8A8"* %3, %"struct.angle::Color"* %4) #5
  ret void
}

; Function Attrs: nounwind ssp uwtable
define linkonce_odr hidden void @_ZN5angle9ReadColorINS_8R8G8B8A8EjEEvPKhPh(i8*, i8*) #0 comdat {
  %3 = bitcast i8* %1 to %"struct.angle::Color.1"*
  %4 = bitcast i8* %0 to %"struct.angle::R8G8B8A8"*
  tail call void @_ZN5angle8R8G8B8A89readColorEPNS_5ColorIjEEPKS0_(%"struct.angle::Color.1"* %3, %"struct.angle::R8G8B8A8"* %4) #5
  ret void
}

; Function Attrs: nounwind ssp uwtable
define linkonce_odr hidden void @_ZN5angle10WriteColorINS_8R8G8B8A8EjEEvPKhPh(i8*, i8*) #0 comdat {
  %3 = bitcast i8* %1 to %"struct.angle::R8G8B8A8"*
  %4 = bitcast i8* %0 to %"struct.angle::Color.1"*
  tail call void @_ZN5angle8R8G8B8A810writeColorEPS0_PKNS_5ColorIjEE(%"struct.angle::R8G8B8A8"* %3, %"struct.angle::Color.1"* %4) #5
  ret void
}

; Function Attrs: inlinehint nounwind ssp uwtable
define linkonce_odr hidden void @_ZN5angle11GenerateMipINS_12R8G8B8A8SRGBEEEvmmmPKhmmPhmm(i64, i64, i64, i8*, i64, i64, i8*, i64, i64) #1 comdat {
  %10 = lshr i64 %0, 1
  %11 = icmp ugt i64 %10, 1
  %12 = select i1 %11, i64 %10, i64 1
  %13 = lshr i64 %1, 1
  %14 = icmp ugt i64 %13, 1
  %15 = select i1 %14, i64 %13, i64 1
  %16 = lshr i64 %2, 1
  %17 = icmp ugt i64 %16, 1
  %18 = select i1 %17, i64 %16, i64 1
  %19 = icmp ugt i64 %0, 1
  %20 = zext i1 %19 to i64
  %21 = icmp ugt i64 %1, 1
  %22 = select i1 %21, i64 2, i64 0
  %23 = or i64 %22, %20
  %24 = icmp ugt i64 %2, 1
  %25 = select i1 %24, i64 4, i64 0
  %26 = or i64 %23, %25
  %27 = getelementptr inbounds [8 x void (i64, i64, i64, i8*, i64, i64, i64, i64, i64, i8*, i64, i64)*], [8 x void (i64, i64, i64, i8*, i64, i64, i64, i64, i64, i8*, i64, i64)*]* @switch.table._ZN5angle11GenerateMipINS_12R8G8B8A8SRGBEEEvmmmPKhmmPhmm, i64 0, i64 %26
  %28 = load void (i64, i64, i64, i8*, i64, i64, i64, i64, i64, i8*, i64, i64)*, void (i64, i64, i64, i8*, i64, i64, i64, i64, i64, i8*, i64, i64)** %27, align 8
  tail call void %28(i64 %0, i64 %1, i64 %2, i8* %3, i64 %4, i64 %5, i64 %12, i64 %15, i64 %18, i8* %6, i64 %7, i64 %8) #5
  ret void
}

; Function Attrs: nounwind ssp uwtable
define linkonce_odr hidden void @_ZN5angle9ReadColorINS_12R8G8B8A8SRGBEfEEvPKhPh(i8*, i8*) #0 comdat {
  %3 = bitcast i8* %1 to %"struct.angle::Color"*
  %4 = bitcast i8* %0 to %"struct.angle::R8G8B8A8SRGB"*
  tail call void @_ZN5angle12R8G8B8A8SRGB9readColorEPNS_5ColorIfEEPKS0_(%"struct.angle::Color"* %3, %"struct.angle::R8G8B8A8SRGB"* %4) #5
  ret void
}

; Function Attrs: nounwind ssp uwtable
define linkonce_odr hidden void @_ZN5angle10WriteColorINS_12R8G8B8A8SRGBEfEEvPKhPh(i8*, i8*) #0 comdat {
  %3 = bitcast i8* %1 to %"struct.angle::R8G8B8A8SRGB"*
  %4 = bitcast i8* %0 to %"struct.angle::Color"*
  tail call void @_ZN5angle12R8G8B8A8SRGB10writeColorEPS0_PKNS_5ColorIfEE(%"struct.angle::R8G8B8A8SRGB"* %3, %"struct.angle::Color"* %4) #5
  ret void
}

; Function Attrs: inlinehint nounwind ssp uwtable
define linkonce_odr hidden void @_ZN5angle11GenerateMipINS_7R8G8B8SEEEvmmmPKhmmPhmm(i64, i64, i64, i8*, i64, i64, i8*, i64, i64) #1 comdat {
  %10 = lshr i64 %0, 1
  %11 = icmp ugt i64 %10, 1
  %12 = select i1 %11, i64 %10, i64 1
  %13 = lshr i64 %1, 1
  %14 = icmp ugt i64 %13, 1
  %15 = select i1 %14, i64 %13, i64 1
  %16 = lshr i64 %2, 1
  %17 = icmp ugt i64 %16, 1
  %18 = select i1 %17, i64 %16, i64 1
  %19 = icmp ugt i64 %0, 1
  %20 = zext i1 %19 to i64
  %21 = icmp ugt i64 %1, 1
  %22 = select i1 %21, i64 2, i64 0
  %23 = or i64 %22, %20
  %24 = icmp ugt i64 %2, 1
  %25 = select i1 %24, i64 4, i64 0
  %26 = or i64 %23, %25
  %27 = getelementptr inbounds [8 x void (i64, i64, i64, i8*, i64, i64, i64, i64, i64, i8*, i64, i64)*], [8 x void (i64, i64, i64, i8*, i64, i64, i64, i64, i64, i8*, i64, i64)*]* @switch.table._ZN5angle11GenerateMipINS_7R8G8B8SEEEvmmmPKhmmPhmm, i64 0, i64 %26
  %28 = load void (i64, i64, i64, i8*, i64, i64, i64, i64, i64, i8*, i64, i64)*, void (i64, i64, i64, i8*, i64, i64, i64, i64, i64, i8*, i64, i64)** %27, align 8
  tail call void %28(i64 %0, i64 %1, i64 %2, i8* %3, i64 %4, i64 %5, i64 %12, i64 %15, i64 %18, i8* %6, i64 %7, i64 %8) #5
  ret void
}

; Function Attrs: nounwind ssp uwtable
define linkonce_odr hidden void @_ZN5angle9ReadColorINS_7R8G8B8SEiEEvPKhPh(i8*, i8*) #0 comdat {
  %3 = bitcast i8* %1 to %"struct.angle::Color.0"*
  %4 = bitcast i8* %0 to %"struct.angle::R8G8B8S"*
  tail call void @_ZN5angle7R8G8B8S9readColorEPNS_5ColorIiEEPKS0_(%"struct.angle::Color.0"* %3, %"struct.angle::R8G8B8S"* %4) #5
  ret void
}

; Function Attrs: nounwind ssp uwtable
define linkonce_odr hidden void @_ZN5angle10WriteColorINS_7R8G8B8SEiEEvPKhPh(i8*, i8*) #0 comdat {
  %3 = bitcast i8* %1 to %"struct.angle::R8G8B8S"*
  %4 = bitcast i8* %0 to %"struct.angle::Color.0"*
  tail call void @_ZN5angle7R8G8B8S10writeColorEPS0_PKNS_5ColorIiEE(%"struct.angle::R8G8B8S"* %3, %"struct.angle::Color.0"* %4) #5
  ret void
}

; Function Attrs: nounwind ssp uwtable
define linkonce_odr hidden void @_ZN5angle9ReadColorINS_7R8G8B8SEfEEvPKhPh(i8*, i8*) #0 comdat {
  %3 = bitcast i8* %1 to %"struct.angle::Color"*
  %4 = bitcast i8* %0 to %"struct.angle::R8G8B8S"*
  tail call void @_ZN5angle7R8G8B8S9readColorEPNS_5ColorIfEEPKS0_(%"struct.angle::Color"* %3, %"struct.angle::R8G8B8S"* %4) #5
  ret void
}

; Function Attrs: nounwind ssp uwtable
define linkonce_odr hidden void @_ZN5angle10WriteColorINS_7R8G8B8SEfEEvPKhPh(i8*, i8*) #0 comdat {
  %3 = bitcast i8* %1 to %"struct.angle::R8G8B8S"*
  %4 = bitcast i8* %0 to %"struct.angle::Color"*
  tail call void @_ZN5angle7R8G8B8S10writeColorEPS0_PKNS_5ColorIfEE(%"struct.angle::R8G8B8S"* %3, %"struct.angle::Color"* %4) #5
  ret void
}

; Function Attrs: nounwind ssp uwtable
define linkonce_odr hidden void @_ZN5angle9ReadColorINS_6R8G8B8EjEEvPKhPh(i8*, i8*) #0 comdat {
  %3 = bitcast i8* %1 to %"struct.angle::Color.1"*
  %4 = bitcast i8* %0 to %"struct.angle::R8G8B8"*
  tail call void @_ZN5angle6R8G8B89readColorEPNS_5ColorIjEEPKS0_(%"struct.angle::Color.1"* %3, %"struct.angle::R8G8B8"* %4) #5
  ret void
}

; Function Attrs: nounwind ssp uwtable
define linkonce_odr hidden void @_ZN5angle10WriteColorINS_6R8G8B8EjEEvPKhPh(i8*, i8*) #0 comdat {
  %3 = bitcast i8* %1 to %"struct.angle::R8G8B8"*
  %4 = bitcast i8* %0 to %"struct.angle::Color.1"*
  tail call void @_ZN5angle6R8G8B810writeColorEPS0_PKNS_5ColorIjEE(%"struct.angle::R8G8B8"* %3, %"struct.angle::Color.1"* %4) #5
  ret void
}

; Function Attrs: inlinehint nounwind ssp uwtable
define linkonce_odr hidden void @_ZN5angle11GenerateMipINS_5R8G8SEEEvmmmPKhmmPhmm(i64, i64, i64, i8*, i64, i64, i8*, i64, i64) #1 comdat {
  %10 = lshr i64 %0, 1
  %11 = icmp ugt i64 %10, 1
  %12 = select i1 %11, i64 %10, i64 1
  %13 = lshr i64 %1, 1
  %14 = icmp ugt i64 %13, 1
  %15 = select i1 %14, i64 %13, i64 1
  %16 = lshr i64 %2, 1
  %17 = icmp ugt i64 %16, 1
  %18 = select i1 %17, i64 %16, i64 1
  %19 = icmp ugt i64 %0, 1
  %20 = zext i1 %19 to i64
  %21 = icmp ugt i64 %1, 1
  %22 = select i1 %21, i64 2, i64 0
  %23 = or i64 %22, %20
  %24 = icmp ugt i64 %2, 1
  %25 = select i1 %24, i64 4, i64 0
  %26 = or i64 %23, %25
  %27 = getelementptr inbounds [8 x void (i64, i64, i64, i8*, i64, i64, i64, i64, i64, i8*, i64, i64)*], [8 x void (i64, i64, i64, i8*, i64, i64, i64, i64, i64, i8*, i64, i64)*]* @switch.table._ZN5angle11GenerateMipINS_5R8G8SEEEvmmmPKhmmPhmm, i64 0, i64 %26
  %28 = load void (i64, i64, i64, i8*, i64, i64, i64, i64, i64, i8*, i64, i64)*, void (i64, i64, i64, i8*, i64, i64, i64, i64, i64, i8*, i64, i64)** %27, align 8
  tail call void %28(i64 %0, i64 %1, i64 %2, i8* %3, i64 %4, i64 %5, i64 %12, i64 %15, i64 %18, i8* %6, i64 %7, i64 %8) #5
  ret void
}

; Function Attrs: nounwind ssp uwtable
define linkonce_odr hidden void @_ZN5angle9ReadColorINS_5R8G8SEiEEvPKhPh(i8*, i8*) #0 comdat {
  %3 = bitcast i8* %1 to %"struct.angle::Color.0"*
  %4 = bitcast i8* %0 to %"struct.angle::R8G8S"*
  tail call void @_ZN5angle5R8G8S9readColorEPNS_5ColorIiEEPKS0_(%"struct.angle::Color.0"* %3, %"struct.angle::R8G8S"* %4) #5
  ret void
}

; Function Attrs: nounwind ssp uwtable
define linkonce_odr hidden void @_ZN5angle10WriteColorINS_5R8G8SEiEEvPKhPh(i8*, i8*) #0 comdat {
  %3 = bitcast i8* %1 to %"struct.angle::R8G8S"*
  %4 = bitcast i8* %0 to %"struct.angle::Color.0"*
  tail call void @_ZN5angle5R8G8S10writeColorEPS0_PKNS_5ColorIiEE(%"struct.angle::R8G8S"* %3, %"struct.angle::Color.0"* %4) #5
  ret void
}

; Function Attrs: nounwind ssp uwtable
define linkonce_odr hidden void @_ZN5angle9ReadColorINS_5R8G8SEfEEvPKhPh(i8*, i8*) #0 comdat {
  %3 = bitcast i8* %1 to %"struct.angle::Color"*
  %4 = bitcast i8* %0 to %"struct.angle::R8G8S"*
  tail call void @_ZN5angle5R8G8S9readColorEPNS_5ColorIfEEPKS0_(%"struct.angle::Color"* %3, %"struct.angle::R8G8S"* %4) #5
  ret void
}

; Function Attrs: nounwind ssp uwtable
define linkonce_odr hidden void @_ZN5angle10WriteColorINS_5R8G8SEfEEvPKhPh(i8*, i8*) #0 comdat {
  %3 = bitcast i8* %1 to %"struct.angle::R8G8S"*
  %4 = bitcast i8* %0 to %"struct.angle::Color"*
  tail call void @_ZN5angle5R8G8S10writeColorEPS0_PKNS_5ColorIfEE(%"struct.angle::R8G8S"* %3, %"struct.angle::Color"* %4) #5
  ret void
}

; Function Attrs: inlinehint nounwind ssp uwtable
define linkonce_odr hidden void @_ZN5angle11GenerateMipINS_4R8G8EEEvmmmPKhmmPhmm(i64, i64, i64, i8*, i64, i64, i8*, i64, i64) #1 comdat {
  %10 = lshr i64 %0, 1
  %11 = icmp ugt i64 %10, 1
  %12 = select i1 %11, i64 %10, i64 1
  %13 = lshr i64 %1, 1
  %14 = icmp ugt i64 %13, 1
  %15 = select i1 %14, i64 %13, i64 1
  %16 = lshr i64 %2, 1
  %17 = icmp ugt i64 %16, 1
  %18 = select i1 %17, i64 %16, i64 1
  %19 = icmp ugt i64 %0, 1
  %20 = zext i1 %19 to i64
  %21 = icmp ugt i64 %1, 1
  %22 = select i1 %21, i64 2, i64 0
  %23 = or i64 %22, %20
  %24 = icmp ugt i64 %2, 1
  %25 = select i1 %24, i64 4, i64 0
  %26 = or i64 %23, %25
  %27 = getelementptr inbounds [8 x void (i64, i64, i64, i8*, i64, i64, i64, i64, i64, i8*, i64, i64)*], [8 x void (i64, i64, i64, i8*, i64, i64, i64, i64, i64, i8*, i64, i64)*]* @switch.table._ZN5angle11GenerateMipINS_4R8G8EEEvmmmPKhmmPhmm, i64 0, i64 %26
  %28 = load void (i64, i64, i64, i8*, i64, i64, i64, i64, i64, i8*, i64, i64)*, void (i64, i64, i64, i8*, i64, i64, i64, i64, i64, i8*, i64, i64)** %27, align 8
  tail call void %28(i64 %0, i64 %1, i64 %2, i8* %3, i64 %4, i64 %5, i64 %12, i64 %15, i64 %18, i8* %6, i64 %7, i64 %8) #5
  ret void
}

; Function Attrs: nounwind ssp uwtable
define linkonce_odr hidden void @_ZN5angle9ReadColorINS_4R8G8EjEEvPKhPh(i8*, i8*) #0 comdat {
  %3 = bitcast i8* %1 to %"struct.angle::Color.1"*
  %4 = bitcast i8* %0 to %"struct.angle::R8G8"*
  tail call void @_ZN5angle4R8G89readColorEPNS_5ColorIjEEPKS0_(%"struct.angle::Color.1"* %3, %"struct.angle::R8G8"* %4) #5
  ret void
}

; Function Attrs: nounwind ssp uwtable
define linkonce_odr hidden void @_ZN5angle10WriteColorINS_4R8G8EjEEvPKhPh(i8*, i8*) #0 comdat {
  %3 = bitcast i8* %1 to %"struct.angle::R8G8"*
  %4 = bitcast i8* %0 to %"struct.angle::Color.1"*
  tail call void @_ZN5angle4R8G810writeColorEPS0_PKNS_5ColorIjEE(%"struct.angle::R8G8"* %3, %"struct.angle::Color.1"* %4) #5
  ret void
}

; Function Attrs: nounwind ssp uwtable
define linkonce_odr hidden void @_ZN5angle9ReadColorINS_4R8G8EfEEvPKhPh(i8*, i8*) #0 comdat {
  %3 = bitcast i8* %1 to %"struct.angle::Color"*
  %4 = bitcast i8* %0 to %"struct.angle::R8G8"*
  tail call void @_ZN5angle4R8G89readColorEPNS_5ColorIfEEPKS0_(%"struct.angle::Color"* %3, %"struct.angle::R8G8"* %4) #5
  ret void
}

; Function Attrs: nounwind ssp uwtable
define linkonce_odr hidden void @_ZN5angle10WriteColorINS_4R8G8EfEEvPKhPh(i8*, i8*) #0 comdat {
  %3 = bitcast i8* %1 to %"struct.angle::R8G8"*
  %4 = bitcast i8* %0 to %"struct.angle::Color"*
  tail call void @_ZN5angle4R8G810writeColorEPS0_PKNS_5ColorIfEE(%"struct.angle::R8G8"* %3, %"struct.angle::Color"* %4) #5
  ret void
}

; Function Attrs: inlinehint nounwind ssp uwtable
define linkonce_odr hidden void @_ZN5angle11GenerateMipINS_3R8SEEEvmmmPKhmmPhmm(i64, i64, i64, i8*, i64, i64, i8*, i64, i64) #1 comdat {
  %10 = lshr i64 %0, 1
  %11 = icmp ugt i64 %10, 1
  %12 = select i1 %11, i64 %10, i64 1
  %13 = lshr i64 %1, 1
  %14 = icmp ugt i64 %13, 1
  %15 = select i1 %14, i64 %13, i64 1
  %16 = lshr i64 %2, 1
  %17 = icmp ugt i64 %16, 1
  %18 = select i1 %17, i64 %16, i64 1
  %19 = icmp ugt i64 %0, 1
  %20 = zext i1 %19 to i64
  %21 = icmp ugt i64 %1, 1
  %22 = select i1 %21, i64 2, i64 0
  %23 = or i64 %22, %20
  %24 = icmp ugt i64 %2, 1
  %25 = select i1 %24, i64 4, i64 0
  %26 = or i64 %23, %25
  %27 = getelementptr inbounds [8 x void (i64, i64, i64, i8*, i64, i64, i64, i64, i64, i8*, i64, i64)*], [8 x void (i64, i64, i64, i8*, i64, i64, i64, i64, i64, i8*, i64, i64)*]* @switch.table._ZN5angle11GenerateMipINS_3R8SEEEvmmmPKhmmPhmm, i64 0, i64 %26
  %28 = load void (i64, i64, i64, i8*, i64, i64, i64, i64, i64, i8*, i64, i64)*, void (i64, i64, i64, i8*, i64, i64, i64, i64, i64, i8*, i64, i64)** %27, align 8
  tail call void %28(i64 %0, i64 %1, i64 %2, i8* %3, i64 %4, i64 %5, i64 %12, i64 %15, i64 %18, i8* %6, i64 %7, i64 %8) #5
  ret void
}

; Function Attrs: nounwind ssp uwtable
define linkonce_odr hidden void @_ZN5angle9ReadColorINS_3R8SEiEEvPKhPh(i8*, i8*) #0 comdat {
  %3 = bitcast i8* %1 to %"struct.angle::Color.0"*
  %4 = bitcast i8* %0 to %"struct.angle::R8S"*
  tail call void @_ZN5angle3R8S9readColorEPNS_5ColorIiEEPKS0_(%"struct.angle::Color.0"* %3, %"struct.angle::R8S"* %4) #5
  ret void
}

; Function Attrs: nounwind ssp uwtable
define linkonce_odr hidden void @_ZN5angle10WriteColorINS_3R8SEiEEvPKhPh(i8*, i8*) #0 comdat {
  %3 = bitcast i8* %1 to %"struct.angle::R8S"*
  %4 = bitcast i8* %0 to %"struct.angle::Color.0"*
  tail call void @_ZN5angle3R8S10writeColorEPS0_PKNS_5ColorIiEE(%"struct.angle::R8S"* %3, %"struct.angle::Color.0"* %4) #5
  ret void
}

; Function Attrs: nounwind ssp uwtable
define linkonce_odr hidden void @_ZN5angle9ReadColorINS_3R8SEfEEvPKhPh(i8*, i8*) #0 comdat {
  %3 = bitcast i8* %1 to %"struct.angle::Color"*
  %4 = bitcast i8* %0 to %"struct.angle::R8S"*
  tail call void @_ZN5angle3R8S9readColorEPNS_5ColorIfEEPKS0_(%"struct.angle::Color"* %3, %"struct.angle::R8S"* %4) #5
  ret void
}

; Function Attrs: nounwind ssp uwtable
define linkonce_odr hidden void @_ZN5angle10WriteColorINS_3R8SEfEEvPKhPh(i8*, i8*) #0 comdat {
  %3 = bitcast i8* %1 to %"struct.angle::R8S"*
  %4 = bitcast i8* %0 to %"struct.angle::Color"*
  tail call void @_ZN5angle3R8S10writeColorEPS0_PKNS_5ColorIfEE(%"struct.angle::R8S"* %3, %"struct.angle::Color"* %4) #5
  ret void
}

; Function Attrs: inlinehint nounwind ssp uwtable
define linkonce_odr hidden void @_ZN5angle11GenerateMipINS_2R8EEEvmmmPKhmmPhmm(i64, i64, i64, i8*, i64, i64, i8*, i64, i64) #1 comdat {
  %10 = lshr i64 %0, 1
  %11 = icmp ugt i64 %10, 1
  %12 = select i1 %11, i64 %10, i64 1
  %13 = lshr i64 %1, 1
  %14 = icmp ugt i64 %13, 1
  %15 = select i1 %14, i64 %13, i64 1
  %16 = lshr i64 %2, 1
  %17 = icmp ugt i64 %16, 1
  %18 = select i1 %17, i64 %16, i64 1
  %19 = icmp ugt i64 %0, 1
  %20 = zext i1 %19 to i64
  %21 = icmp ugt i64 %1, 1
  %22 = select i1 %21, i64 2, i64 0
  %23 = or i64 %22, %20
  %24 = icmp ugt i64 %2, 1
  %25 = select i1 %24, i64 4, i64 0
  %26 = or i64 %23, %25
  %27 = getelementptr inbounds [8 x void (i64, i64, i64, i8*, i64, i64, i64, i64, i64, i8*, i64, i64)*], [8 x void (i64, i64, i64, i8*, i64, i64, i64, i64, i64, i8*, i64, i64)*]* @switch.table._ZN5angle11GenerateMipINS_2R8EEEvmmmPKhmmPhmm, i64 0, i64 %26
  %28 = load void (i64, i64, i64, i8*, i64, i64, i64, i64, i64, i8*, i64, i64)*, void (i64, i64, i64, i8*, i64, i64, i64, i64, i64, i8*, i64, i64)** %27, align 8
  tail call void %28(i64 %0, i64 %1, i64 %2, i8* %3, i64 %4, i64 %5, i64 %12, i64 %15, i64 %18, i8* %6, i64 %7, i64 %8) #5
  ret void
}

; Function Attrs: nounwind ssp uwtable
define linkonce_odr hidden void @_ZN5angle9ReadColorINS_2R8EjEEvPKhPh(i8*, i8*) #0 comdat {
  %3 = bitcast i8* %1 to %"struct.angle::Color.1"*
  %4 = bitcast i8* %0 to %"struct.angle::R8"*
  tail call void @_ZN5angle2R89readColorEPNS_5ColorIjEEPKS0_(%"struct.angle::Color.1"* %3, %"struct.angle::R8"* %4) #5
  ret void
}

; Function Attrs: nounwind ssp uwtable
define linkonce_odr hidden void @_ZN5angle10WriteColorINS_2R8EjEEvPKhPh(i8*, i8*) #0 comdat {
  %3 = bitcast i8* %1 to %"struct.angle::R8"*
  %4 = bitcast i8* %0 to %"struct.angle::Color.1"*
  tail call void @_ZN5angle2R810writeColorEPS0_PKNS_5ColorIjEE(%"struct.angle::R8"* %3, %"struct.angle::Color.1"* %4) #5
  ret void
}

; Function Attrs: nounwind ssp uwtable
define linkonce_odr hidden void @_ZN5angle9ReadColorINS_2R8EfEEvPKhPh(i8*, i8*) #0 comdat {
  %3 = bitcast i8* %1 to %"struct.angle::Color"*
  %4 = bitcast i8* %0 to %"struct.angle::R8"*
  tail call void @_ZN5angle2R89readColorEPNS_5ColorIfEEPKS0_(%"struct.angle::Color"* %3, %"struct.angle::R8"* %4) #5
  ret void
}

; Function Attrs: nounwind ssp uwtable
define linkonce_odr hidden void @_ZN5angle10WriteColorINS_2R8EfEEvPKhPh(i8*, i8*) #0 comdat {
  %3 = bitcast i8* %1 to %"struct.angle::R8"*
  %4 = bitcast i8* %0 to %"struct.angle::Color"*
  tail call void @_ZN5angle2R810writeColorEPS0_PKNS_5ColorIfEE(%"struct.angle::R8"* %3, %"struct.angle::Color"* %4) #5
  ret void
}

; Function Attrs: inlinehint nounwind ssp uwtable
define linkonce_odr hidden void @_ZN5angle11GenerateMipINS_8R9G9B9E5EEEvmmmPKhmmPhmm(i64, i64, i64, i8*, i64, i64, i8*, i64, i64) #1 comdat {
  %10 = lshr i64 %0, 1
  %11 = icmp ugt i64 %10, 1
  %12 = select i1 %11, i64 %10, i64 1
  %13 = lshr i64 %1, 1
  %14 = icmp ugt i64 %13, 1
  %15 = select i1 %14, i64 %13, i64 1
  %16 = lshr i64 %2, 1
  %17 = icmp ugt i64 %16, 1
  %18 = select i1 %17, i64 %16, i64 1
  %19 = icmp ugt i64 %0, 1
  %20 = zext i1 %19 to i64
  %21 = icmp ugt i64 %1, 1
  %22 = select i1 %21, i64 2, i64 0
  %23 = or i64 %22, %20
  %24 = icmp ugt i64 %2, 1
  %25 = select i1 %24, i64 4, i64 0
  %26 = or i64 %23, %25
  %27 = getelementptr inbounds [8 x void (i64, i64, i64, i8*, i64, i64, i64, i64, i64, i8*, i64, i64)*], [8 x void (i64, i64, i64, i8*, i64, i64, i64, i64, i64, i8*, i64, i64)*]* @switch.table._ZN5angle11GenerateMipINS_8R9G9B9E5EEEvmmmPKhmmPhmm, i64 0, i64 %26
  %28 = load void (i64, i64, i64, i8*, i64, i64, i64, i64, i64, i8*, i64, i64)*, void (i64, i64, i64, i8*, i64, i64, i64, i64, i64, i8*, i64, i64)** %27, align 8
  tail call void %28(i64 %0, i64 %1, i64 %2, i8* %3, i64 %4, i64 %5, i64 %12, i64 %15, i64 %18, i8* %6, i64 %7, i64 %8) #5
  ret void
}

; Function Attrs: nounwind ssp uwtable
define linkonce_odr hidden void @_ZN5angle9ReadColorINS_8R9G9B9E5EfEEvPKhPh(i8*, i8*) #0 comdat {
  %3 = bitcast i8* %1 to %"struct.angle::Color"*
  %4 = bitcast i8* %0 to %"struct.angle::R9G9B9E5"*
  tail call void @_ZN5angle8R9G9B9E59readColorEPNS_5ColorIfEEPKS0_(%"struct.angle::Color"* %3, %"struct.angle::R9G9B9E5"* %4) #5
  ret void
}

; Function Attrs: nounwind ssp uwtable
define linkonce_odr hidden void @_ZN5angle10WriteColorINS_8R9G9B9E5EfEEvPKhPh(i8*, i8*) #0 comdat {
  %3 = bitcast i8* %1 to %"struct.angle::R9G9B9E5"*
  %4 = bitcast i8* %0 to %"struct.angle::Color"*
  tail call void @_ZN5angle8R9G9B9E510writeColorEPS0_PKNS_5ColorIfEE(%"struct.angle::R9G9B9E5"* %3, %"struct.angle::Color"* %4) #5
  ret void
}

; Function Attrs: norecurse nounwind readnone ssp uwtable
define hidden i32 @_ZN5angle6Format18InternalFormatToIDEj(i32) local_unnamed_addr #2 align 2 {
  switch i32 %0, label %230 [
    i32 27333, label %231
    i32 27376, label %2
    i32 27378, label %3
    i32 27375, label %4
    i32 27377, label %5
    i32 34844, label %6
    i32 34838, label %7
    i32 32828, label %8
    i32 27385, label %9
    i32 27323, label %10
    i32 27325, label %11
    i32 27324, label %12
    i32 37793, label %13
    i32 27328, label %14
    i32 27331, label %15
    i32 27332, label %16
    i32 27322, label %17
    i32 37488, label %18
    i32 36285, label %19
    i32 36283, label %20
    i32 37490, label %21
    i32 37492, label %22
    i32 37494, label %23
    i32 37496, label %24
    i32 37819, label %25
    i32 37816, label %26
    i32 37817, label %27
    i32 37818, label %28
    i32 37820, label %29
    i32 37821, label %30
    i32 37824, label %31
    i32 37825, label %32
    i32 37808, label %33
    i32 37826, label %34
    i32 37827, label %35
    i32 37809, label %36
    i32 37828, label %37
    i32 37810, label %38
    i32 37829, label %39
    i32 37830, label %40
    i32 37811, label %41
    i32 37831, label %42
    i32 37812, label %43
    i32 37832, label %44
    i32 37833, label %45
    i32 37813, label %46
    i32 37814, label %47
    i32 37815, label %48
    i32 36492, label %49
    i32 35843, label %50
    i32 35842, label %51
    i32 33777, label %52
    i32 33778, label %53
    i32 33779, label %54
    i32 36494, label %55
    i32 36495, label %56
    i32 35841, label %57
    i32 35840, label %58
    i32 33776, label %59
    i32 37489, label %60
    i32 36286, label %61
    i32 36284, label %62
    i32 37491, label %63
    i32 37851, label %64
    i32 37848, label %65
    i32 37849, label %66
    i32 37850, label %67
    i32 37852, label %68
    i32 37853, label %69
    i32 37856, label %70
    i32 37857, label %71
    i32 37840, label %72
    i32 37858, label %73
    i32 37859, label %74
    i32 37841, label %75
    i32 37860, label %76
    i32 37842, label %77
    i32 37861, label %78
    i32 37862, label %79
    i32 37843, label %80
    i32 37863, label %81
    i32 37844, label %82
    i32 37864, label %83
    i32 37865, label %84
    i32 37845, label %85
    i32 37846, label %86
    i32 37847, label %87
    i32 37497, label %88
    i32 37493, label %89
    i32 37495, label %90
    i32 36493, label %91
    i32 35414, label %92
    i32 35415, label %93
    i32 35917, label %94
    i32 35918, label %95
    i32 35919, label %96
    i32 35412, label %97
    i32 35413, label %98
    i32 35916, label %99
    i32 35056, label %100
    i32 36013, label %101
    i32 33189, label %102
    i32 33190, label %103
    i32 36012, label %104
    i32 33191, label %105
    i32 38544, label %106
    i32 36196, label %107
    i32 27393, label %108
    i32 27392, label %109
    i32 36343, label %110
    i32 34846, label %111
    i32 34840, label %112
    i32 32837, label %113
    i32 32832, label %114
    i32 34847, label %115
    i32 34841, label %116
    i32 0, label %117
    i32 35898, label %118
    i32 33325, label %119
    i32 33331, label %120
    i32 33332, label %121
    i32 33322, label %122
    i32 36760, label %123
    i32 27342, label %124
    i32 27346, label %125
    i32 33326, label %126
    i32 33333, label %127
    i32 33334, label %128
    i32 27366, label %129
    i32 27358, label %130
    i32 27350, label %131
    i32 27362, label %132
    i32 27354, label %133
    i32 33321, label %134
    i32 33329, label %135
    i32 33330, label %136
    i32 36756, label %137
    i32 27334, label %138
    i32 27338, label %139
    i32 33327, label %140
    i32 33337, label %141
    i32 33338, label %142
    i32 33324, label %143
    i32 36761, label %144
    i32 27343, label %145
    i32 27347, label %146
    i32 33328, label %147
    i32 33339, label %148
    i32 33340, label %149
    i32 27367, label %150
    i32 27359, label %151
    i32 27351, label %152
    i32 27363, label %153
    i32 27355, label %154
    i32 33323, label %155
    i32 33335, label %156
    i32 33336, label %157
    i32 36757, label %158
    i32 27335, label %159
    i32 27339, label %160
    i32 6407, label %161
    i32 32857, label %162
    i32 36975, label %163
    i32 27370, label %164
    i32 27371, label %165
    i32 27372, label %166
    i32 27373, label %167
    i32 27374, label %168
    i32 34843, label %169
    i32 36233, label %170
    i32 36215, label %171
    i32 32852, label %172
    i32 36762, label %173
    i32 27344, label %174
    i32 27348, label %175
    i32 34837, label %176
    i32 36227, label %177
    i32 36209, label %178
    i32 27368, label %179
    i32 27360, label %180
    i32 27352, label %181
    i32 27364, label %182
    i32 27356, label %183
    i32 36194, label %184
    i32 32855, label %185
    i32 32849, label %186
    i32 36239, label %187
    i32 36221, label %188
    i32 36758, label %189
    i32 27336, label %190
    i32 27340, label %191
    i32 35901, label %192
    i32 6408, label %193
    i32 34842, label %194
    i32 36232, label %195
    i32 36214, label %196
    i32 32859, label %197
    i32 36763, label %198
    i32 27345, label %199
    i32 27349, label %200
    i32 34836, label %201
    i32 36226, label %202
    i32 36208, label %203
    i32 27369, label %204
    i32 27361, label %205
    i32 27353, label %206
    i32 27365, label %207
    i32 27357, label %208
    i32 32854, label %209
    i32 32856, label %210
    i32 36238, label %211
    i32 36220, label %212
    i32 36759, label %213
    i32 27337, label %214
    i32 27329, label %215
    i32 27330, label %216
    i32 27341, label %217
    i32 36797, label %218
    i32 36798, label %219
    i32 35905, label %220
    i32 35907, label %221
    i32 36168, label %222
    i32 36342, label %223
    i32 27380, label %224
    i32 27384, label %225
    i32 27382, label %226
    i32 27379, label %227
    i32 27383, label %228
    i32 27381, label %229
  ]

2:                                                ; preds = %1
  br label %231

3:                                                ; preds = %1
  br label %231

4:                                                ; preds = %1
  br label %231

5:                                                ; preds = %1
  br label %231

6:                                                ; preds = %1
  br label %231

7:                                                ; preds = %1
  br label %231

8:                                                ; preds = %1
  br label %231

9:                                                ; preds = %1
  br label %231

10:                                               ; preds = %1
  br label %231

11:                                               ; preds = %1
  br label %231

12:                                               ; preds = %1
  br label %231

13:                                               ; preds = %1
  br label %231

14:                                               ; preds = %1
  br label %231

15:                                               ; preds = %1
  br label %231

16:                                               ; preds = %1
  br label %231

17:                                               ; preds = %1
  br label %231

18:                                               ; preds = %1
  br label %231

19:                                               ; preds = %1
  br label %231

20:                                               ; preds = %1
  br label %231

21:                                               ; preds = %1
  br label %231

22:                                               ; preds = %1
  br label %231

23:                                               ; preds = %1
  br label %231

24:                                               ; preds = %1
  br label %231

25:                                               ; preds = %1
  br label %231

26:                                               ; preds = %1
  br label %231

27:                                               ; preds = %1
  br label %231

28:                                               ; preds = %1
  br label %231

29:                                               ; preds = %1
  br label %231

30:                                               ; preds = %1
  br label %231

31:                                               ; preds = %1
  br label %231

32:                                               ; preds = %1
  br label %231

33:                                               ; preds = %1
  br label %231

34:                                               ; preds = %1
  br label %231

35:                                               ; preds = %1
  br label %231

36:                                               ; preds = %1
  br label %231

37:                                               ; preds = %1
  br label %231

38:                                               ; preds = %1
  br label %231

39:                                               ; preds = %1
  br label %231

40:                                               ; preds = %1
  br label %231

41:                                               ; preds = %1
  br label %231

42:                                               ; preds = %1
  br label %231

43:                                               ; preds = %1
  br label %231

44:                                               ; preds = %1
  br label %231

45:                                               ; preds = %1
  br label %231

46:                                               ; preds = %1
  br label %231

47:                                               ; preds = %1
  br label %231

48:                                               ; preds = %1
  br label %231

49:                                               ; preds = %1
  br label %231

50:                                               ; preds = %1
  br label %231

51:                                               ; preds = %1
  br label %231

52:                                               ; preds = %1
  br label %231

53:                                               ; preds = %1
  br label %231

54:                                               ; preds = %1
  br label %231

55:                                               ; preds = %1
  br label %231

56:                                               ; preds = %1
  br label %231

57:                                               ; preds = %1
  br label %231

58:                                               ; preds = %1
  br label %231

59:                                               ; preds = %1
  br label %231

60:                                               ; preds = %1
  br label %231

61:                                               ; preds = %1
  br label %231

62:                                               ; preds = %1
  br label %231

63:                                               ; preds = %1
  br label %231

64:                                               ; preds = %1
  br label %231

65:                                               ; preds = %1
  br label %231

66:                                               ; preds = %1
  br label %231

67:                                               ; preds = %1
  br label %231

68:                                               ; preds = %1
  br label %231

69:                                               ; preds = %1
  br label %231

70:                                               ; preds = %1
  br label %231

71:                                               ; preds = %1
  br label %231

72:                                               ; preds = %1
  br label %231

73:                                               ; preds = %1
  br label %231

74:                                               ; preds = %1
  br label %231

75:                                               ; preds = %1
  br label %231

76:                                               ; preds = %1
  br label %231

77:                                               ; preds = %1
  br label %231

78:                                               ; preds = %1
  br label %231

79:                                               ; preds = %1
  br label %231

80:                                               ; preds = %1
  br label %231

81:                                               ; preds = %1
  br label %231

82:                                               ; preds = %1
  br label %231

83:                                               ; preds = %1
  br label %231

84:                                               ; preds = %1
  br label %231

85:                                               ; preds = %1
  br label %231

86:                                               ; preds = %1
  br label %231

87:                                               ; preds = %1
  br label %231

88:                                               ; preds = %1
  br label %231

89:                                               ; preds = %1
  br label %231

90:                                               ; preds = %1
  br label %231

91:                                               ; preds = %1
  br label %231

92:                                               ; preds = %1
  br label %231

93:                                               ; preds = %1
  br label %231

94:                                               ; preds = %1
  br label %231

95:                                               ; preds = %1
  br label %231

96:                                               ; preds = %1
  br label %231

97:                                               ; preds = %1
  br label %231

98:                                               ; preds = %1
  br label %231

99:                                               ; preds = %1
  br label %231

100:                                              ; preds = %1
  br label %231

101:                                              ; preds = %1
  br label %231

102:                                              ; preds = %1
  br label %231

103:                                              ; preds = %1
  br label %231

104:                                              ; preds = %1
  br label %231

105:                                              ; preds = %1
  br label %231

106:                                              ; preds = %1
  br label %231

107:                                              ; preds = %1
  br label %231

108:                                              ; preds = %1
  br label %231

109:                                              ; preds = %1
  br label %231

110:                                              ; preds = %1
  br label %231

111:                                              ; preds = %1
  br label %231

112:                                              ; preds = %1
  br label %231

113:                                              ; preds = %1
  br label %231

114:                                              ; preds = %1
  br label %231

115:                                              ; preds = %1
  br label %231

116:                                              ; preds = %1
  br label %231

117:                                              ; preds = %1
  br label %231

118:                                              ; preds = %1
  br label %231

119:                                              ; preds = %1
  br label %231

120:                                              ; preds = %1
  br label %231

121:                                              ; preds = %1
  br label %231

122:                                              ; preds = %1
  br label %231

123:                                              ; preds = %1
  br label %231

124:                                              ; preds = %1
  br label %231

125:                                              ; preds = %1
  br label %231

126:                                              ; preds = %1
  br label %231

127:                                              ; preds = %1
  br label %231

128:                                              ; preds = %1
  br label %231

129:                                              ; preds = %1
  br label %231

130:                                              ; preds = %1
  br label %231

131:                                              ; preds = %1
  br label %231

132:                                              ; preds = %1
  br label %231

133:                                              ; preds = %1
  br label %231

134:                                              ; preds = %1
  br label %231

135:                                              ; preds = %1
  br label %231

136:                                              ; preds = %1
  br label %231

137:                                              ; preds = %1
  br label %231

138:                                              ; preds = %1
  br label %231

139:                                              ; preds = %1
  br label %231

140:                                              ; preds = %1
  br label %231

141:                                              ; preds = %1
  br label %231

142:                                              ; preds = %1
  br label %231

143:                                              ; preds = %1
  br label %231

144:                                              ; preds = %1
  br label %231

145:                                              ; preds = %1
  br label %231

146:                                              ; preds = %1
  br label %231

147:                                              ; preds = %1
  br label %231

148:                                              ; preds = %1
  br label %231

149:                                              ; preds = %1
  br label %231

150:                                              ; preds = %1
  br label %231

151:                                              ; preds = %1
  br label %231

152:                                              ; preds = %1
  br label %231

153:                                              ; preds = %1
  br label %231

154:                                              ; preds = %1
  br label %231

155:                                              ; preds = %1
  br label %231

156:                                              ; preds = %1
  br label %231

157:                                              ; preds = %1
  br label %231

158:                                              ; preds = %1
  br label %231

159:                                              ; preds = %1
  br label %231

160:                                              ; preds = %1
  br label %231

161:                                              ; preds = %1
  br label %231

162:                                              ; preds = %1
  br label %231

163:                                              ; preds = %1
  br label %231

164:                                              ; preds = %1
  br label %231

165:                                              ; preds = %1
  br label %231

166:                                              ; preds = %1
  br label %231

167:                                              ; preds = %1
  br label %231

168:                                              ; preds = %1
  br label %231

169:                                              ; preds = %1
  br label %231

170:                                              ; preds = %1
  br label %231

171:                                              ; preds = %1
  br label %231

172:                                              ; preds = %1
  br label %231

173:                                              ; preds = %1
  br label %231

174:                                              ; preds = %1
  br label %231

175:                                              ; preds = %1
  br label %231

176:                                              ; preds = %1
  br label %231

177:                                              ; preds = %1
  br label %231

178:                                              ; preds = %1
  br label %231

179:                                              ; preds = %1
  br label %231

180:                                              ; preds = %1
  br label %231

181:                                              ; preds = %1
  br label %231

182:                                              ; preds = %1
  br label %231

183:                                              ; preds = %1
  br label %231

184:                                              ; preds = %1
  br label %231

185:                                              ; preds = %1
  br label %231

186:                                              ; preds = %1
  br label %231

187:                                              ; preds = %1
  br label %231

188:                                              ; preds = %1
  br label %231

189:                                              ; preds = %1
  br label %231

190:                                              ; preds = %1
  br label %231

191:                                              ; preds = %1
  br label %231

192:                                              ; preds = %1
  br label %231

193:                                              ; preds = %1
  br label %231

194:                                              ; preds = %1
  br label %231

195:                                              ; preds = %1
  br label %231

196:                                              ; preds = %1
  br label %231

197:                                              ; preds = %1
  br label %231

198:                                              ; preds = %1
  br label %231

199:                                              ; preds = %1
  br label %231

200:                                              ; preds = %1
  br label %231

201:                                              ; preds = %1
  br label %231

202:                                              ; preds = %1
  br label %231

203:                                              ; preds = %1
  br label %231

204:                                              ; preds = %1
  br label %231

205:                                              ; preds = %1
  br label %231

206:                                              ; preds = %1
  br label %231

207:                                              ; preds = %1
  br label %231

208:                                              ; preds = %1
  br label %231

209:                                              ; preds = %1
  br label %231

210:                                              ; preds = %1
  br label %231

211:                                              ; preds = %1
  br label %231

212:                                              ; preds = %1
  br label %231

213:                                              ; preds = %1
  br label %231

214:                                              ; preds = %1
  br label %231

215:                                              ; preds = %1
  br label %231

216:                                              ; preds = %1
  br label %231

217:                                              ; preds = %1
  br label %231

218:                                              ; preds = %1
  br label %231

219:                                              ; preds = %1
  br label %231

220:                                              ; preds = %1
  br label %231

221:                                              ; preds = %1
  br label %231

222:                                              ; preds = %1
  br label %231

223:                                              ; preds = %1
  br label %231

224:                                              ; preds = %1
  br label %231

225:                                              ; preds = %1
  br label %231

226:                                              ; preds = %1
  br label %231

227:                                              ; preds = %1
  br label %231

228:                                              ; preds = %1
  br label %231

229:                                              ; preds = %1
  br label %231

230:                                              ; preds = %1
  br label %231

231:                                              ; preds = %1, %230, %229, %228, %227, %226, %225, %224, %223, %222, %221, %220, %219, %218, %217, %216, %215, %214, %213, %212, %211, %210, %209, %208, %207, %206, %205, %204, %203, %202, %201, %200, %199, %198, %197, %196, %195, %194, %193, %192, %191, %190, %189, %188, %187, %186, %185, %184, %183, %182, %181, %180, %179, %178, %177, %176, %175, %174, %173, %172, %171, %170, %169, %168, %167, %166, %165, %164, %163, %162, %161, %160, %159, %158, %157, %156, %155, %154, %153, %152, %151, %150, %149, %148, %147, %146, %145, %144, %143, %142, %141, %140, %139, %138, %137, %136, %135, %134, %133, %132, %131, %130, %129, %128, %127, %126, %125, %124, %123, %122, %121, %120, %119, %118, %117, %116, %115, %114, %113, %112, %111, %110, %109, %108, %107, %106, %105, %104, %103, %102, %101, %100, %99, %98, %97, %96, %95, %94, %93, %92, %91, %90, %89, %88, %87, %86, %85, %84, %83, %82, %81, %80, %79, %78, %77, %76, %75, %74, %73, %72, %71, %70, %69, %68, %67, %66, %65, %64, %63, %62, %61, %60, %59, %58, %57, %56, %55, %54, %53, %52, %51, %50, %49, %48, %47, %46, %45, %44, %43, %42, %41, %40, %39, %38, %37, %36, %35, %34, %33, %32, %31, %30, %29, %28, %27, %26, %25, %24, %23, %22, %21, %20, %19, %18, %17, %16, %15, %14, %13, %12, %11, %10, %9, %8, %7, %6, %5, %4, %3, %2
  %232 = phi i32 [ 0, %230 ], [ 226, %229 ], [ 225, %228 ], [ 224, %227 ], [ 223, %226 ], [ 222, %225 ], [ 221, %224 ], [ 13, %223 ], [ 7, %222 ], [ 197, %221 ], [ 204, %220 ], [ 211, %219 ], [ 218, %218 ], [ 198, %217 ], [ 194, %216 ], [ 193, %215 ], [ 192, %214 ], [ 191, %213 ], [ 195, %212 ], [ 190, %211 ], [ 196, %210 ], [ 187, %209 ], [ 162, %208 ], [ 161, %207 ], [ 159, %206 ], [ 158, %205 ], [ 155, %204 ], [ 160, %203 ], [ 157, %202 ], [ 156, %201 ], [ 133, %200 ], [ 130, %199 ], [ 129, %198 ], [ 132, %197 ], [ 131, %196 ], [ 128, %195 ], [ 127, %194 ], [ 196, %193 ], [ 220, %192 ], [ 205, %191 ], [ 201, %190 ], [ 200, %189 ], [ 202, %188 ], [ 199, %187 ], [ 203, %186 ], [ 188, %185 ], [ 189, %184 ], [ 170, %183 ], [ 169, %182 ], [ 167, %181 ], [ 166, %180 ], [ 163, %179 ], [ 168, %178 ], [ 165, %177 ], [ 164, %176 ], [ 140, %175 ], [ 137, %174 ], [ 136, %173 ], [ 139, %172 ], [ 138, %171 ], [ 135, %170 ], [ 134, %169 ], [ 125, %168 ], [ 124, %167 ], [ 121, %166 ], [ 120, %165 ], [ 119, %164 ], [ 122, %163 ], [ 123, %162 ], [ 203, %161 ], [ 212, %160 ], [ 208, %159 ], [ 207, %158 ], [ 209, %157 ], [ 206, %156 ], [ 210, %155 ], [ 178, %154 ], [ 177, %153 ], [ 175, %152 ], [ 174, %151 ], [ 171, %150 ], [ 176, %149 ], [ 173, %148 ], [ 172, %147 ], [ 147, %146 ], [ 144, %145 ], [ 143, %144 ], [ 146, %143 ], [ 145, %142 ], [ 142, %141 ], [ 141, %140 ], [ 219, %139 ], [ 215, %138 ], [ 214, %137 ], [ 216, %136 ], [ 213, %135 ], [ 217, %134 ], [ 186, %133 ], [ 185, %132 ], [ 183, %131 ], [ 182, %130 ], [ 179, %129 ], [ 184, %128 ], [ 181, %127 ], [ 180, %126 ], [ 154, %125 ], [ 151, %124 ], [ 150, %123 ], [ 153, %122 ], [ 152, %121 ], [ 149, %120 ], [ 148, %119 ], [ 126, %118 ], [ 0, %117 ], [ 107, %116 ], [ 105, %115 ], [ 110, %114 ], [ 109, %113 ], [ 108, %112 ], [ 106, %111 ], [ 10, %110 ], [ 104, %109 ], [ 103, %108 ], [ 96, %107 ], [ 95, %106 ], [ 6, %105 ], [ 4, %104 ], [ 3, %103 ], [ 1, %102 ], [ 5, %101 ], [ 2, %100 ], [ 78, %99 ], [ 118, %98 ], [ 116, %97 ], [ 82, %96 ], [ 80, %95 ], [ 76, %94 ], [ 114, %93 ], [ 112, %92 ], [ 90, %91 ], [ 97, %90 ], [ 101, %89 ], [ 99, %88 ], [ 64, %87 ], [ 62, %86 ], [ 60, %85 ], [ 59, %84 ], [ 57, %83 ], [ 54, %82 ], [ 53, %81 ], [ 50, %80 ], [ 49, %79 ], [ 47, %78 ], [ 44, %77 ], [ 43, %76 ], [ 40, %75 ], [ 39, %74 ], [ 37, %73 ], [ 34, %72 ], [ 33, %71 ], [ 31, %70 ], [ 28, %69 ], [ 26, %68 ], [ 24, %67 ], [ 22, %66 ], [ 20, %65 ], [ 18, %64 ], [ 91, %63 ], [ 83, %62 ], [ 85, %61 ], [ 93, %60 ], [ 77, %59 ], [ 117, %58 ], [ 115, %57 ], [ 88, %56 ], [ 87, %55 ], [ 81, %54 ], [ 79, %53 ], [ 75, %52 ], [ 113, %51 ], [ 111, %50 ], [ 89, %49 ], [ 65, %48 ], [ 63, %47 ], [ 61, %46 ], [ 58, %45 ], [ 56, %44 ], [ 55, %43 ], [ 52, %42 ], [ 51, %41 ], [ 48, %40 ], [ 46, %39 ], [ 45, %38 ], [ 42, %37 ], [ 41, %36 ], [ 38, %35 ], [ 36, %34 ], [ 35, %33 ], [ 32, %32 ], [ 30, %31 ], [ 29, %30 ], [ 27, %29 ], [ 25, %28 ], [ 23, %27 ], [ 21, %26 ], [ 19, %25 ], [ 100, %24 ], [ 98, %23 ], [ 102, %22 ], [ 92, %21 ], [ 84, %20 ], [ 86, %19 ], [ 94, %18 ], [ 74, %17 ], [ 71, %16 ], [ 70, %15 ], [ 73, %14 ], [ 72, %13 ], [ 67, %12 ], [ 68, %11 ], [ 69, %10 ], [ 66, %9 ], [ 17, %8 ], [ 16, %7 ], [ 8, %6 ], [ 15, %5 ], [ 14, %4 ], [ 12, %3 ], [ 11, %2 ], [ 9, %1 ]
  ret i32 %232
}

; Function Attrs: norecurse nounwind readnone ssp uwtable
define hidden %"struct.angle::Format"* @_ZN5angle18GetFormatInfoTableEv() local_unnamed_addr #2 {
  ret %"struct.angle::Format"* getelementptr inbounds ([227 x %"struct.angle::Format"], [227 x %"struct.angle::Format"]* @_ZN5angle16gFormatInfoTableE, i64 0, i64 0)
}

declare void @_ZN5angle16CopyBGRA8ToRGBA8EPKhPh(i8*, i8*) #3

declare void @_ZN5angle3D1616ReadDepthStencilEPNS_12DepthStencilEPKS0_(%"struct.angle::DepthStencil"*, %"struct.angle::D16"*) local_unnamed_addr #3

declare void @_ZN5angle3D1617WriteDepthStencilEPS0_PKNS_12DepthStencilE(%"struct.angle::D16"*, %"struct.angle::DepthStencil"*) local_unnamed_addr #3

declare void @_ZN5angle5D24S816ReadDepthStencilEPNS_12DepthStencilEPKS0_(%"struct.angle::DepthStencil"*, %"struct.angle::D24S8"*) local_unnamed_addr #3

declare void @_ZN5angle5D24S817WriteDepthStencilEPS0_PKNS_12DepthStencilE(%"struct.angle::D24S8"*, %"struct.angle::DepthStencil"*) local_unnamed_addr #3

declare void @_ZN5angle5D24X816ReadDepthStencilEPNS_12DepthStencilEPKS0_(%"struct.angle::DepthStencil"*, %"struct.angle::D24X8"*) local_unnamed_addr #3

declare void @_ZN5angle5D24X817WriteDepthStencilEPS0_PKNS_12DepthStencilE(%"struct.angle::D24X8"*, %"struct.angle::DepthStencil"*) local_unnamed_addr #3

declare void @_ZN5angle4D32F16ReadDepthStencilEPNS_12DepthStencilEPKS0_(%"struct.angle::DepthStencil"*, %"struct.angle::D32F"*) local_unnamed_addr #3

declare void @_ZN5angle4D32F17WriteDepthStencilEPS0_PKNS_12DepthStencilE(%"struct.angle::D32F"*, %"struct.angle::DepthStencil"*) local_unnamed_addr #3

declare void @_ZN5angle9D32FS8X2416ReadDepthStencilEPNS_12DepthStencilEPKS0_(%"struct.angle::DepthStencil"*, %"struct.angle::D32FS8X24"*) local_unnamed_addr #3

declare void @_ZN5angle9D32FS8X2417WriteDepthStencilEPS0_PKNS_12DepthStencilE(%"struct.angle::D32FS8X24"*, %"struct.angle::DepthStencil"*) local_unnamed_addr #3

declare void @_ZN5angle3D3216ReadDepthStencilEPNS_12DepthStencilEPKS0_(%"struct.angle::DepthStencil"*, %"struct.angle::D32"*) local_unnamed_addr #3

declare void @_ZN5angle3D3217WriteDepthStencilEPS0_PKNS_12DepthStencilE(%"struct.angle::D32"*, %"struct.angle::DepthStencil"*) local_unnamed_addr #3

declare void @_ZN5angle2S816ReadDepthStencilEPNS_12DepthStencilEPKS0_(%"struct.angle::DepthStencil"*, %"struct.angle::S8"*) local_unnamed_addr #3

declare void @_ZN5angle2S817WriteDepthStencilEPS0_PKNS_12DepthStencilE(%"struct.angle::S8"*, %"struct.angle::DepthStencil"*) local_unnamed_addr #3

; Function Attrs: argmemonly nounwind
declare void @llvm.lifetime.start.p0i8(i64 immarg, i8* nocapture) #4

; Function Attrs: argmemonly nounwind
declare void @llvm.lifetime.end.p0i8(i64 immarg, i8* nocapture) #4

; Function Attrs: nounwind ssp uwtable
define internal void @_ZN5angle4privL13GenerateMip_XINS_4A16FEEEvmmmPKhmmmmmPhmm(i64, i64, i64, i8*, i64, i64, i64, i64, i64, i8*, i64, i64) unnamed_addr #0 {
  %13 = icmp eq i64 %6, 0
  br i1 %13, label %14, label %15

14:                                               ; preds = %15, %12
  ret void

15:                                               ; preds = %12, %15
  %16 = phi i64 [ %26, %15 ], [ 0, %12 ]
  %17 = shl i64 %16, 1
  %18 = shl i64 %16, 2
  %19 = getelementptr inbounds i8, i8* %3, i64 %18
  %20 = bitcast i8* %19 to %"struct.angle::A16F"*
  %21 = or i64 %18, 2
  %22 = getelementptr inbounds i8, i8* %3, i64 %21
  %23 = bitcast i8* %22 to %"struct.angle::A16F"*
  %24 = getelementptr inbounds i8, i8* %9, i64 %17
  %25 = bitcast i8* %24 to %"struct.angle::A16F"*
  tail call void @_ZN5angle4A16F7averageEPS0_PKS0_S3_(%"struct.angle::A16F"* %25, %"struct.angle::A16F"* %20, %"struct.angle::A16F"* %23) #5
  %26 = add nuw i64 %16, 1
  %27 = icmp eq i64 %26, %6
  br i1 %27, label %14, label %15
}

; Function Attrs: nounwind ssp uwtable
define internal void @_ZN5angle4privL13GenerateMip_YINS_4A16FEEEvmmmPKhmmmmmPhmm(i64, i64, i64, i8*, i64, i64, i64, i64, i64, i8*, i64, i64) unnamed_addr #0 {
  %13 = icmp eq i64 %7, 0
  br i1 %13, label %14, label %15

14:                                               ; preds = %15, %12
  ret void

15:                                               ; preds = %12, %15
  %16 = phi i64 [ %28, %15 ], [ 0, %12 ]
  %17 = shl i64 %16, 1
  %18 = mul i64 %17, %4
  %19 = getelementptr inbounds i8, i8* %3, i64 %18
  %20 = bitcast i8* %19 to %"struct.angle::A16F"*
  %21 = or i64 %17, 1
  %22 = mul i64 %21, %4
  %23 = getelementptr inbounds i8, i8* %3, i64 %22
  %24 = bitcast i8* %23 to %"struct.angle::A16F"*
  %25 = mul i64 %16, %10
  %26 = getelementptr inbounds i8, i8* %9, i64 %25
  %27 = bitcast i8* %26 to %"struct.angle::A16F"*
  tail call void @_ZN5angle4A16F7averageEPS0_PKS0_S3_(%"struct.angle::A16F"* %27, %"struct.angle::A16F"* %20, %"struct.angle::A16F"* %24) #5
  %28 = add nuw i64 %16, 1
  %29 = icmp eq i64 %28, %7
  br i1 %29, label %14, label %15
}

; Function Attrs: nounwind ssp uwtable
define internal void @_ZN5angle4privL14GenerateMip_XYINS_4A16FEEEvmmmPKhmmmmmPhmm(i64, i64, i64, i8*, i64, i64, i64, i64, i64, i8*, i64, i64) unnamed_addr #0 {
  %13 = alloca %"struct.angle::A16F", align 2
  %14 = alloca %"struct.angle::A16F", align 2
  %15 = icmp eq i64 %7, 0
  br i1 %15, label %31, label %16

16:                                               ; preds = %12
  %17 = icmp eq i64 %6, 0
  %18 = bitcast %"struct.angle::A16F"* %13 to i8*
  %19 = getelementptr inbounds %"struct.angle::A16F", %"struct.angle::A16F"* %13, i64 0, i32 0
  %20 = bitcast %"struct.angle::A16F"* %14 to i8*
  %21 = getelementptr inbounds %"struct.angle::A16F", %"struct.angle::A16F"* %14, i64 0, i32 0
  br label %22

22:                                               ; preds = %32, %16
  %23 = phi i64 [ 0, %16 ], [ %33, %32 ]
  br i1 %17, label %32, label %24

24:                                               ; preds = %22
  %25 = shl i64 %23, 1
  %26 = mul i64 %25, %4
  %27 = or i64 %25, 1
  %28 = mul i64 %27, %4
  %29 = mul i64 %23, %10
  %30 = getelementptr inbounds i8, i8* %9, i64 %29
  br label %35

31:                                               ; preds = %32, %12
  ret void

32:                                               ; preds = %35, %22
  %33 = add nuw i64 %23, 1
  %34 = icmp eq i64 %33, %7
  br i1 %34, label %31, label %22

35:                                               ; preds = %35, %24
  %36 = phi i64 [ 0, %24 ], [ %52, %35 ]
  %37 = shl i64 %36, 1
  %38 = shl i64 %36, 2
  %39 = getelementptr inbounds i8, i8* %3, i64 %38
  %40 = getelementptr inbounds i8, i8* %39, i64 %26
  %41 = bitcast i8* %40 to %"struct.angle::A16F"*
  %42 = getelementptr inbounds i8, i8* %39, i64 %28
  %43 = bitcast i8* %42 to %"struct.angle::A16F"*
  %44 = or i64 %38, 2
  %45 = getelementptr inbounds i8, i8* %3, i64 %44
  %46 = getelementptr inbounds i8, i8* %45, i64 %26
  %47 = bitcast i8* %46 to %"struct.angle::A16F"*
  %48 = getelementptr inbounds i8, i8* %45, i64 %28
  %49 = bitcast i8* %48 to %"struct.angle::A16F"*
  %50 = getelementptr inbounds i8, i8* %30, i64 %37
  %51 = bitcast i8* %50 to %"struct.angle::A16F"*
  call void @llvm.lifetime.start.p0i8(i64 2, i8* nonnull %18) #5
  store i16 -21846, i16* %19, align 2
  call void @llvm.lifetime.start.p0i8(i64 2, i8* nonnull %20) #5
  store i16 -21846, i16* %21, align 2
  call void @_ZN5angle4A16F7averageEPS0_PKS0_S3_(%"struct.angle::A16F"* nonnull %13, %"struct.angle::A16F"* %41, %"struct.angle::A16F"* %43) #5
  call void @_ZN5angle4A16F7averageEPS0_PKS0_S3_(%"struct.angle::A16F"* nonnull %14, %"struct.angle::A16F"* %47, %"struct.angle::A16F"* %49) #5
  call void @_ZN5angle4A16F7averageEPS0_PKS0_S3_(%"struct.angle::A16F"* %51, %"struct.angle::A16F"* nonnull %13, %"struct.angle::A16F"* nonnull %14) #5
  call void @llvm.lifetime.end.p0i8(i64 2, i8* nonnull %20) #5
  call void @llvm.lifetime.end.p0i8(i64 2, i8* nonnull %18) #5
  %52 = add nuw i64 %36, 1
  %53 = icmp eq i64 %52, %6
  br i1 %53, label %32, label %35
}

; Function Attrs: nounwind ssp uwtable
define internal void @_ZN5angle4privL13GenerateMip_ZINS_4A16FEEEvmmmPKhmmmmmPhmm(i64, i64, i64, i8*, i64, i64, i64, i64, i64, i8*, i64, i64) unnamed_addr #0 {
  %13 = icmp eq i64 %8, 0
  br i1 %13, label %14, label %15

14:                                               ; preds = %15, %12
  ret void

15:                                               ; preds = %12, %15
  %16 = phi i64 [ %28, %15 ], [ 0, %12 ]
  %17 = shl i64 %16, 1
  %18 = mul i64 %17, %5
  %19 = getelementptr inbounds i8, i8* %3, i64 %18
  %20 = bitcast i8* %19 to %"struct.angle::A16F"*
  %21 = or i64 %17, 1
  %22 = mul i64 %21, %5
  %23 = getelementptr inbounds i8, i8* %3, i64 %22
  %24 = bitcast i8* %23 to %"struct.angle::A16F"*
  %25 = mul i64 %16, %11
  %26 = getelementptr inbounds i8, i8* %9, i64 %25
  %27 = bitcast i8* %26 to %"struct.angle::A16F"*
  tail call void @_ZN5angle4A16F7averageEPS0_PKS0_S3_(%"struct.angle::A16F"* %27, %"struct.angle::A16F"* %20, %"struct.angle::A16F"* %24) #5
  %28 = add nuw i64 %16, 1
  %29 = icmp eq i64 %28, %8
  br i1 %29, label %14, label %15
}

; Function Attrs: nounwind ssp uwtable
define internal void @_ZN5angle4privL14GenerateMip_XZINS_4A16FEEEvmmmPKhmmmmmPhmm(i64, i64, i64, i8*, i64, i64, i64, i64, i64, i8*, i64, i64) unnamed_addr #0 {
  %13 = alloca %"struct.angle::A16F", align 2
  %14 = alloca %"struct.angle::A16F", align 2
  %15 = icmp eq i64 %8, 0
  br i1 %15, label %31, label %16

16:                                               ; preds = %12
  %17 = icmp eq i64 %6, 0
  %18 = bitcast %"struct.angle::A16F"* %13 to i8*
  %19 = getelementptr inbounds %"struct.angle::A16F", %"struct.angle::A16F"* %13, i64 0, i32 0
  %20 = bitcast %"struct.angle::A16F"* %14 to i8*
  %21 = getelementptr inbounds %"struct.angle::A16F", %"struct.angle::A16F"* %14, i64 0, i32 0
  br label %22

22:                                               ; preds = %32, %16
  %23 = phi i64 [ 0, %16 ], [ %33, %32 ]
  br i1 %17, label %32, label %24

24:                                               ; preds = %22
  %25 = shl i64 %23, 1
  %26 = mul i64 %25, %5
  %27 = or i64 %25, 1
  %28 = mul i64 %27, %5
  %29 = mul i64 %23, %11
  %30 = getelementptr inbounds i8, i8* %9, i64 %29
  br label %35

31:                                               ; preds = %32, %12
  ret void

32:                                               ; preds = %35, %22
  %33 = add nuw i64 %23, 1
  %34 = icmp eq i64 %33, %8
  br i1 %34, label %31, label %22

35:                                               ; preds = %35, %24
  %36 = phi i64 [ 0, %24 ], [ %52, %35 ]
  %37 = shl i64 %36, 1
  %38 = shl i64 %36, 2
  %39 = getelementptr inbounds i8, i8* %3, i64 %38
  %40 = getelementptr inbounds i8, i8* %39, i64 %26
  %41 = bitcast i8* %40 to %"struct.angle::A16F"*
  %42 = getelementptr inbounds i8, i8* %39, i64 %28
  %43 = bitcast i8* %42 to %"struct.angle::A16F"*
  %44 = or i64 %38, 2
  %45 = getelementptr inbounds i8, i8* %3, i64 %44
  %46 = getelementptr inbounds i8, i8* %45, i64 %26
  %47 = bitcast i8* %46 to %"struct.angle::A16F"*
  %48 = getelementptr inbounds i8, i8* %45, i64 %28
  %49 = bitcast i8* %48 to %"struct.angle::A16F"*
  %50 = getelementptr inbounds i8, i8* %30, i64 %37
  %51 = bitcast i8* %50 to %"struct.angle::A16F"*
  call void @llvm.lifetime.start.p0i8(i64 2, i8* nonnull %18) #5
  store i16 -21846, i16* %19, align 2
  call void @llvm.lifetime.start.p0i8(i64 2, i8* nonnull %20) #5
  store i16 -21846, i16* %21, align 2
  call void @_ZN5angle4A16F7averageEPS0_PKS0_S3_(%"struct.angle::A16F"* nonnull %13, %"struct.angle::A16F"* %41, %"struct.angle::A16F"* %43) #5
  call void @_ZN5angle4A16F7averageEPS0_PKS0_S3_(%"struct.angle::A16F"* nonnull %14, %"struct.angle::A16F"* %47, %"struct.angle::A16F"* %49) #5
  call void @_ZN5angle4A16F7averageEPS0_PKS0_S3_(%"struct.angle::A16F"* %51, %"struct.angle::A16F"* nonnull %13, %"struct.angle::A16F"* nonnull %14) #5
  call void @llvm.lifetime.end.p0i8(i64 2, i8* nonnull %20) #5
  call void @llvm.lifetime.end.p0i8(i64 2, i8* nonnull %18) #5
  %52 = add nuw i64 %36, 1
  %53 = icmp eq i64 %52, %6
  br i1 %53, label %32, label %35
}

; Function Attrs: nounwind ssp uwtable
define internal void @_ZN5angle4privL14GenerateMip_YZINS_4A16FEEEvmmmPKhmmmmmPhmm(i64, i64, i64, i8*, i64, i64, i64, i64, i64, i8*, i64, i64) unnamed_addr #0 {
  %13 = alloca %"struct.angle::A16F", align 2
  %14 = alloca %"struct.angle::A16F", align 2
  %15 = icmp eq i64 %8, 0
  br i1 %15, label %31, label %16

16:                                               ; preds = %12
  %17 = icmp eq i64 %7, 0
  %18 = bitcast %"struct.angle::A16F"* %13 to i8*
  %19 = getelementptr inbounds %"struct.angle::A16F", %"struct.angle::A16F"* %13, i64 0, i32 0
  %20 = bitcast %"struct.angle::A16F"* %14 to i8*
  %21 = getelementptr inbounds %"struct.angle::A16F", %"struct.angle::A16F"* %14, i64 0, i32 0
  br label %22

22:                                               ; preds = %32, %16
  %23 = phi i64 [ 0, %16 ], [ %33, %32 ]
  br i1 %17, label %32, label %24

24:                                               ; preds = %22
  %25 = shl i64 %23, 1
  %26 = mul i64 %25, %5
  %27 = or i64 %25, 1
  %28 = mul i64 %27, %5
  %29 = mul i64 %23, %11
  %30 = getelementptr inbounds i8, i8* %9, i64 %29
  br label %35

31:                                               ; preds = %32, %12
  ret void

32:                                               ; preds = %35, %22
  %33 = add nuw i64 %23, 1
  %34 = icmp eq i64 %33, %8
  br i1 %34, label %31, label %22

35:                                               ; preds = %35, %24
  %36 = phi i64 [ 0, %24 ], [ %54, %35 ]
  %37 = shl i64 %36, 1
  %38 = mul i64 %37, %4
  %39 = getelementptr inbounds i8, i8* %3, i64 %38
  %40 = getelementptr inbounds i8, i8* %39, i64 %26
  %41 = bitcast i8* %40 to %"struct.angle::A16F"*
  %42 = getelementptr inbounds i8, i8* %39, i64 %28
  %43 = bitcast i8* %42 to %"struct.angle::A16F"*
  %44 = or i64 %37, 1
  %45 = mul i64 %44, %4
  %46 = getelementptr inbounds i8, i8* %3, i64 %45
  %47 = getelementptr inbounds i8, i8* %46, i64 %26
  %48 = bitcast i8* %47 to %"struct.angle::A16F"*
  %49 = getelementptr inbounds i8, i8* %46, i64 %28
  %50 = bitcast i8* %49 to %"struct.angle::A16F"*
  %51 = mul i64 %36, %10
  %52 = getelementptr inbounds i8, i8* %30, i64 %51
  %53 = bitcast i8* %52 to %"struct.angle::A16F"*
  call void @llvm.lifetime.start.p0i8(i64 2, i8* nonnull %18) #5
  store i16 -21846, i16* %19, align 2
  call void @llvm.lifetime.start.p0i8(i64 2, i8* nonnull %20) #5
  store i16 -21846, i16* %21, align 2
  call void @_ZN5angle4A16F7averageEPS0_PKS0_S3_(%"struct.angle::A16F"* nonnull %13, %"struct.angle::A16F"* %41, %"struct.angle::A16F"* %43) #5
  call void @_ZN5angle4A16F7averageEPS0_PKS0_S3_(%"struct.angle::A16F"* nonnull %14, %"struct.angle::A16F"* %48, %"struct.angle::A16F"* %50) #5
  call void @_ZN5angle4A16F7averageEPS0_PKS0_S3_(%"struct.angle::A16F"* %53, %"struct.angle::A16F"* nonnull %13, %"struct.angle::A16F"* nonnull %14) #5
  call void @llvm.lifetime.end.p0i8(i64 2, i8* nonnull %20) #5
  call void @llvm.lifetime.end.p0i8(i64 2, i8* nonnull %18) #5
  %54 = add nuw i64 %36, 1
  %55 = icmp eq i64 %54, %7
  br i1 %55, label %32, label %35
}

; Function Attrs: nounwind ssp uwtable
define internal void @_ZN5angle4privL15GenerateMip_XYZINS_4A16FEEEvmmmPKhmmmmmPhmm(i64, i64, i64, i8*, i64, i64, i64, i64, i64, i8*, i64, i64) unnamed_addr #0 {
  %13 = alloca %"struct.angle::A16F", align 2
  %14 = alloca %"struct.angle::A16F", align 2
  %15 = alloca %"struct.angle::A16F", align 2
  %16 = alloca %"struct.angle::A16F", align 2
  %17 = alloca %"struct.angle::A16F", align 2
  %18 = alloca %"struct.angle::A16F", align 2
  %19 = icmp eq i64 %8, 0
  br i1 %19, label %44, label %20

20:                                               ; preds = %12
  %21 = icmp eq i64 %7, 0
  %22 = icmp eq i64 %6, 0
  %23 = bitcast %"struct.angle::A16F"* %13 to i8*
  %24 = getelementptr inbounds %"struct.angle::A16F", %"struct.angle::A16F"* %13, i64 0, i32 0
  %25 = bitcast %"struct.angle::A16F"* %14 to i8*
  %26 = getelementptr inbounds %"struct.angle::A16F", %"struct.angle::A16F"* %14, i64 0, i32 0
  %27 = bitcast %"struct.angle::A16F"* %15 to i8*
  %28 = getelementptr inbounds %"struct.angle::A16F", %"struct.angle::A16F"* %15, i64 0, i32 0
  %29 = bitcast %"struct.angle::A16F"* %16 to i8*
  %30 = getelementptr inbounds %"struct.angle::A16F", %"struct.angle::A16F"* %16, i64 0, i32 0
  %31 = bitcast %"struct.angle::A16F"* %17 to i8*
  %32 = getelementptr inbounds %"struct.angle::A16F", %"struct.angle::A16F"* %17, i64 0, i32 0
  %33 = bitcast %"struct.angle::A16F"* %18 to i8*
  %34 = getelementptr inbounds %"struct.angle::A16F", %"struct.angle::A16F"* %18, i64 0, i32 0
  br label %35

35:                                               ; preds = %54, %20
  %36 = phi i64 [ 0, %20 ], [ %55, %54 ]
  br i1 %21, label %54, label %37

37:                                               ; preds = %35
  %38 = shl i64 %36, 1
  %39 = mul i64 %38, %5
  %40 = or i64 %38, 1
  %41 = mul i64 %40, %5
  %42 = mul i64 %36, %11
  %43 = getelementptr inbounds i8, i8* %9, i64 %42
  br label %45

44:                                               ; preds = %54, %12
  ret void

45:                                               ; preds = %57, %37
  %46 = phi i64 [ 0, %37 ], [ %58, %57 ]
  br i1 %22, label %57, label %47

47:                                               ; preds = %45
  %48 = shl i64 %46, 1
  %49 = mul i64 %48, %4
  %50 = or i64 %48, 1
  %51 = mul i64 %50, %4
  %52 = mul i64 %46, %10
  %53 = getelementptr inbounds i8, i8* %43, i64 %52
  br label %60

54:                                               ; preds = %57, %35
  %55 = add nuw i64 %36, 1
  %56 = icmp eq i64 %55, %8
  br i1 %56, label %44, label %35

57:                                               ; preds = %60, %45
  %58 = add nuw i64 %46, 1
  %59 = icmp eq i64 %58, %7
  br i1 %59, label %54, label %45

60:                                               ; preds = %60, %47
  %61 = phi i64 [ 0, %47 ], [ %89, %60 ]
  %62 = shl i64 %61, 1
  %63 = shl i64 %61, 2
  %64 = getelementptr inbounds i8, i8* %3, i64 %63
  %65 = getelementptr inbounds i8, i8* %64, i64 %49
  %66 = getelementptr inbounds i8, i8* %65, i64 %39
  %67 = bitcast i8* %66 to %"struct.angle::A16F"*
  %68 = getelementptr inbounds i8, i8* %65, i64 %41
  %69 = bitcast i8* %68 to %"struct.angle::A16F"*
  %70 = getelementptr inbounds i8, i8* %64, i64 %51
  %71 = getelementptr inbounds i8, i8* %70, i64 %39
  %72 = bitcast i8* %71 to %"struct.angle::A16F"*
  %73 = getelementptr inbounds i8, i8* %70, i64 %41
  %74 = bitcast i8* %73 to %"struct.angle::A16F"*
  %75 = or i64 %63, 2
  %76 = getelementptr inbounds i8, i8* %3, i64 %75
  %77 = getelementptr inbounds i8, i8* %76, i64 %49
  %78 = getelementptr inbounds i8, i8* %77, i64 %39
  %79 = bitcast i8* %78 to %"struct.angle::A16F"*
  %80 = getelementptr inbounds i8, i8* %77, i64 %41
  %81 = bitcast i8* %80 to %"struct.angle::A16F"*
  %82 = getelementptr inbounds i8, i8* %76, i64 %51
  %83 = getelementptr inbounds i8, i8* %82, i64 %39
  %84 = bitcast i8* %83 to %"struct.angle::A16F"*
  %85 = getelementptr inbounds i8, i8* %82, i64 %41
  %86 = bitcast i8* %85 to %"struct.angle::A16F"*
  %87 = getelementptr inbounds i8, i8* %53, i64 %62
  %88 = bitcast i8* %87 to %"struct.angle::A16F"*
  call void @llvm.lifetime.start.p0i8(i64 2, i8* nonnull %23) #5
  store i16 -21846, i16* %24, align 2
  call void @llvm.lifetime.start.p0i8(i64 2, i8* nonnull %25) #5
  store i16 -21846, i16* %26, align 2
  call void @llvm.lifetime.start.p0i8(i64 2, i8* nonnull %27) #5
  store i16 -21846, i16* %28, align 2
  call void @llvm.lifetime.start.p0i8(i64 2, i8* nonnull %29) #5
  store i16 -21846, i16* %30, align 2
  call void @llvm.lifetime.start.p0i8(i64 2, i8* nonnull %31) #5
  store i16 -21846, i16* %32, align 2
  call void @llvm.lifetime.start.p0i8(i64 2, i8* nonnull %33) #5
  store i16 -21846, i16* %34, align 2
  call void @_ZN5angle4A16F7averageEPS0_PKS0_S3_(%"struct.angle::A16F"* nonnull %13, %"struct.angle::A16F"* %67, %"struct.angle::A16F"* %69) #5
  call void @_ZN5angle4A16F7averageEPS0_PKS0_S3_(%"struct.angle::A16F"* nonnull %14, %"struct.angle::A16F"* %72, %"struct.angle::A16F"* %74) #5
  call void @_ZN5angle4A16F7averageEPS0_PKS0_S3_(%"struct.angle::A16F"* nonnull %15, %"struct.angle::A16F"* %79, %"struct.angle::A16F"* %81) #5
  call void @_ZN5angle4A16F7averageEPS0_PKS0_S3_(%"struct.angle::A16F"* nonnull %16, %"struct.angle::A16F"* %84, %"struct.angle::A16F"* %86) #5
  call void @_ZN5angle4A16F7averageEPS0_PKS0_S3_(%"struct.angle::A16F"* nonnull %17, %"struct.angle::A16F"* nonnull %13, %"struct.angle::A16F"* nonnull %14) #5
  call void @_ZN5angle4A16F7averageEPS0_PKS0_S3_(%"struct.angle::A16F"* nonnull %18, %"struct.angle::A16F"* nonnull %15, %"struct.angle::A16F"* nonnull %16) #5
  call void @_ZN5angle4A16F7averageEPS0_PKS0_S3_(%"struct.angle::A16F"* %88, %"struct.angle::A16F"* nonnull %17, %"struct.angle::A16F"* nonnull %18) #5
  call void @llvm.lifetime.end.p0i8(i64 2, i8* nonnull %33) #5
  call void @llvm.lifetime.end.p0i8(i64 2, i8* nonnull %31) #5
  call void @llvm.lifetime.end.p0i8(i64 2, i8* nonnull %29) #5
  call void @llvm.lifetime.end.p0i8(i64 2, i8* nonnull %27) #5
  call void @llvm.lifetime.end.p0i8(i64 2, i8* nonnull %25) #5
  call void @llvm.lifetime.end.p0i8(i64 2, i8* nonnull %23) #5
  %89 = add nuw i64 %61, 1
  %90 = icmp eq i64 %89, %6
  br i1 %90, label %57, label %60
}

declare void @_ZN5angle4A16F7averageEPS0_PKS0_S3_(%"struct.angle::A16F"*, %"struct.angle::A16F"*, %"struct.angle::A16F"*) local_unnamed_addr #3

declare void @_ZN5angle4A16F9readColorEPNS_5ColorIfEEPKS0_(%"struct.angle::Color"*, %"struct.angle::A16F"*) local_unnamed_addr #3

declare void @_ZN5angle4A16F10writeColorEPS0_PKNS_5ColorIfEE(%"struct.angle::A16F"*, %"struct.angle::Color"*) local_unnamed_addr #3

; Function Attrs: nounwind ssp uwtable
define internal void @_ZN5angle4privL13GenerateMip_XINS_8A1R5G5B5EEEvmmmPKhmmmmmPhmm(i64, i64, i64, i8*, i64, i64, i64, i64, i64, i8*, i64, i64) unnamed_addr #0 {
  %13 = icmp eq i64 %6, 0
  br i1 %13, label %14, label %15

14:                                               ; preds = %15, %12
  ret void

15:                                               ; preds = %12, %15
  %16 = phi i64 [ %26, %15 ], [ 0, %12 ]
  %17 = shl i64 %16, 1
  %18 = shl i64 %16, 2
  %19 = getelementptr inbounds i8, i8* %3, i64 %18
  %20 = bitcast i8* %19 to %"struct.angle::A1R5G5B5"*
  %21 = or i64 %18, 2
  %22 = getelementptr inbounds i8, i8* %3, i64 %21
  %23 = bitcast i8* %22 to %"struct.angle::A1R5G5B5"*
  %24 = getelementptr inbounds i8, i8* %9, i64 %17
  %25 = bitcast i8* %24 to %"struct.angle::A1R5G5B5"*
  tail call void @_ZN5angle8A1R5G5B57averageEPS0_PKS0_S3_(%"struct.angle::A1R5G5B5"* %25, %"struct.angle::A1R5G5B5"* %20, %"struct.angle::A1R5G5B5"* %23) #5
  %26 = add nuw i64 %16, 1
  %27 = icmp eq i64 %26, %6
  br i1 %27, label %14, label %15
}

; Function Attrs: nounwind ssp uwtable
define internal void @_ZN5angle4privL13GenerateMip_YINS_8A1R5G5B5EEEvmmmPKhmmmmmPhmm(i64, i64, i64, i8*, i64, i64, i64, i64, i64, i8*, i64, i64) unnamed_addr #0 {
  %13 = icmp eq i64 %7, 0
  br i1 %13, label %14, label %15

14:                                               ; preds = %15, %12
  ret void

15:                                               ; preds = %12, %15
  %16 = phi i64 [ %28, %15 ], [ 0, %12 ]
  %17 = shl i64 %16, 1
  %18 = mul i64 %17, %4
  %19 = getelementptr inbounds i8, i8* %3, i64 %18
  %20 = bitcast i8* %19 to %"struct.angle::A1R5G5B5"*
  %21 = or i64 %17, 1
  %22 = mul i64 %21, %4
  %23 = getelementptr inbounds i8, i8* %3, i64 %22
  %24 = bitcast i8* %23 to %"struct.angle::A1R5G5B5"*
  %25 = mul i64 %16, %10
  %26 = getelementptr inbounds i8, i8* %9, i64 %25
  %27 = bitcast i8* %26 to %"struct.angle::A1R5G5B5"*
  tail call void @_ZN5angle8A1R5G5B57averageEPS0_PKS0_S3_(%"struct.angle::A1R5G5B5"* %27, %"struct.angle::A1R5G5B5"* %20, %"struct.angle::A1R5G5B5"* %24) #5
  %28 = add nuw i64 %16, 1
  %29 = icmp eq i64 %28, %7
  br i1 %29, label %14, label %15
}

; Function Attrs: nounwind ssp uwtable
define internal void @_ZN5angle4privL14GenerateMip_XYINS_8A1R5G5B5EEEvmmmPKhmmmmmPhmm(i64, i64, i64, i8*, i64, i64, i64, i64, i64, i8*, i64, i64) unnamed_addr #0 {
  %13 = alloca %"struct.angle::A1R5G5B5", align 2
  %14 = alloca %"struct.angle::A1R5G5B5", align 2
  %15 = icmp eq i64 %7, 0
  br i1 %15, label %31, label %16

16:                                               ; preds = %12
  %17 = icmp eq i64 %6, 0
  %18 = bitcast %"struct.angle::A1R5G5B5"* %13 to i8*
  %19 = getelementptr inbounds %"struct.angle::A1R5G5B5", %"struct.angle::A1R5G5B5"* %13, i64 0, i32 0
  %20 = bitcast %"struct.angle::A1R5G5B5"* %14 to i8*
  %21 = getelementptr inbounds %"struct.angle::A1R5G5B5", %"struct.angle::A1R5G5B5"* %14, i64 0, i32 0
  br label %22

22:                                               ; preds = %32, %16
  %23 = phi i64 [ 0, %16 ], [ %33, %32 ]
  br i1 %17, label %32, label %24

24:                                               ; preds = %22
  %25 = shl i64 %23, 1
  %26 = mul i64 %25, %4
  %27 = or i64 %25, 1
  %28 = mul i64 %27, %4
  %29 = mul i64 %23, %10
  %30 = getelementptr inbounds i8, i8* %9, i64 %29
  br label %35

31:                                               ; preds = %32, %12
  ret void

32:                                               ; preds = %35, %22
  %33 = add nuw i64 %23, 1
  %34 = icmp eq i64 %33, %7
  br i1 %34, label %31, label %22

35:                                               ; preds = %35, %24
  %36 = phi i64 [ 0, %24 ], [ %52, %35 ]
  %37 = shl i64 %36, 1
  %38 = shl i64 %36, 2
  %39 = getelementptr inbounds i8, i8* %3, i64 %38
  %40 = getelementptr inbounds i8, i8* %39, i64 %26
  %41 = bitcast i8* %40 to %"struct.angle::A1R5G5B5"*
  %42 = getelementptr inbounds i8, i8* %39, i64 %28
  %43 = bitcast i8* %42 to %"struct.angle::A1R5G5B5"*
  %44 = or i64 %38, 2
  %45 = getelementptr inbounds i8, i8* %3, i64 %44
  %46 = getelementptr inbounds i8, i8* %45, i64 %26
  %47 = bitcast i8* %46 to %"struct.angle::A1R5G5B5"*
  %48 = getelementptr inbounds i8, i8* %45, i64 %28
  %49 = bitcast i8* %48 to %"struct.angle::A1R5G5B5"*
  %50 = getelementptr inbounds i8, i8* %30, i64 %37
  %51 = bitcast i8* %50 to %"struct.angle::A1R5G5B5"*
  call void @llvm.lifetime.start.p0i8(i64 2, i8* nonnull %18) #5
  store i16 -21846, i16* %19, align 2
  call void @llvm.lifetime.start.p0i8(i64 2, i8* nonnull %20) #5
  store i16 -21846, i16* %21, align 2
  call void @_ZN5angle8A1R5G5B57averageEPS0_PKS0_S3_(%"struct.angle::A1R5G5B5"* nonnull %13, %"struct.angle::A1R5G5B5"* %41, %"struct.angle::A1R5G5B5"* %43) #5
  call void @_ZN5angle8A1R5G5B57averageEPS0_PKS0_S3_(%"struct.angle::A1R5G5B5"* nonnull %14, %"struct.angle::A1R5G5B5"* %47, %"struct.angle::A1R5G5B5"* %49) #5
  call void @_ZN5angle8A1R5G5B57averageEPS0_PKS0_S3_(%"struct.angle::A1R5G5B5"* %51, %"struct.angle::A1R5G5B5"* nonnull %13, %"struct.angle::A1R5G5B5"* nonnull %14) #5
  call void @llvm.lifetime.end.p0i8(i64 2, i8* nonnull %20) #5
  call void @llvm.lifetime.end.p0i8(i64 2, i8* nonnull %18) #5
  %52 = add nuw i64 %36, 1
  %53 = icmp eq i64 %52, %6
  br i1 %53, label %32, label %35
}

; Function Attrs: nounwind ssp uwtable
define internal void @_ZN5angle4privL13GenerateMip_ZINS_8A1R5G5B5EEEvmmmPKhmmmmmPhmm(i64, i64, i64, i8*, i64, i64, i64, i64, i64, i8*, i64, i64) unnamed_addr #0 {
  %13 = icmp eq i64 %8, 0
  br i1 %13, label %14, label %15

14:                                               ; preds = %15, %12
  ret void

15:                                               ; preds = %12, %15
  %16 = phi i64 [ %28, %15 ], [ 0, %12 ]
  %17 = shl i64 %16, 1
  %18 = mul i64 %17, %5
  %19 = getelementptr inbounds i8, i8* %3, i64 %18
  %20 = bitcast i8* %19 to %"struct.angle::A1R5G5B5"*
  %21 = or i64 %17, 1
  %22 = mul i64 %21, %5
  %23 = getelementptr inbounds i8, i8* %3, i64 %22
  %24 = bitcast i8* %23 to %"struct.angle::A1R5G5B5"*
  %25 = mul i64 %16, %11
  %26 = getelementptr inbounds i8, i8* %9, i64 %25
  %27 = bitcast i8* %26 to %"struct.angle::A1R5G5B5"*
  tail call void @_ZN5angle8A1R5G5B57averageEPS0_PKS0_S3_(%"struct.angle::A1R5G5B5"* %27, %"struct.angle::A1R5G5B5"* %20, %"struct.angle::A1R5G5B5"* %24) #5
  %28 = add nuw i64 %16, 1
  %29 = icmp eq i64 %28, %8
  br i1 %29, label %14, label %15
}

; Function Attrs: nounwind ssp uwtable
define internal void @_ZN5angle4privL14GenerateMip_XZINS_8A1R5G5B5EEEvmmmPKhmmmmmPhmm(i64, i64, i64, i8*, i64, i64, i64, i64, i64, i8*, i64, i64) unnamed_addr #0 {
  %13 = alloca %"struct.angle::A1R5G5B5", align 2
  %14 = alloca %"struct.angle::A1R5G5B5", align 2
  %15 = icmp eq i64 %8, 0
  br i1 %15, label %31, label %16

16:                                               ; preds = %12
  %17 = icmp eq i64 %6, 0
  %18 = bitcast %"struct.angle::A1R5G5B5"* %13 to i8*
  %19 = getelementptr inbounds %"struct.angle::A1R5G5B5", %"struct.angle::A1R5G5B5"* %13, i64 0, i32 0
  %20 = bitcast %"struct.angle::A1R5G5B5"* %14 to i8*
  %21 = getelementptr inbounds %"struct.angle::A1R5G5B5", %"struct.angle::A1R5G5B5"* %14, i64 0, i32 0
  br label %22

22:                                               ; preds = %32, %16
  %23 = phi i64 [ 0, %16 ], [ %33, %32 ]
  br i1 %17, label %32, label %24

24:                                               ; preds = %22
  %25 = shl i64 %23, 1
  %26 = mul i64 %25, %5
  %27 = or i64 %25, 1
  %28 = mul i64 %27, %5
  %29 = mul i64 %23, %11
  %30 = getelementptr inbounds i8, i8* %9, i64 %29
  br label %35

31:                                               ; preds = %32, %12
  ret void

32:                                               ; preds = %35, %22
  %33 = add nuw i64 %23, 1
  %34 = icmp eq i64 %33, %8
  br i1 %34, label %31, label %22

35:                                               ; preds = %35, %24
  %36 = phi i64 [ 0, %24 ], [ %52, %35 ]
  %37 = shl i64 %36, 1
  %38 = shl i64 %36, 2
  %39 = getelementptr inbounds i8, i8* %3, i64 %38
  %40 = getelementptr inbounds i8, i8* %39, i64 %26
  %41 = bitcast i8* %40 to %"struct.angle::A1R5G5B5"*
  %42 = getelementptr inbounds i8, i8* %39, i64 %28
  %43 = bitcast i8* %42 to %"struct.angle::A1R5G5B5"*
  %44 = or i64 %38, 2
  %45 = getelementptr inbounds i8, i8* %3, i64 %44
  %46 = getelementptr inbounds i8, i8* %45, i64 %26
  %47 = bitcast i8* %46 to %"struct.angle::A1R5G5B5"*
  %48 = getelementptr inbounds i8, i8* %45, i64 %28
  %49 = bitcast i8* %48 to %"struct.angle::A1R5G5B5"*
  %50 = getelementptr inbounds i8, i8* %30, i64 %37
  %51 = bitcast i8* %50 to %"struct.angle::A1R5G5B5"*
  call void @llvm.lifetime.start.p0i8(i64 2, i8* nonnull %18) #5
  store i16 -21846, i16* %19, align 2
  call void @llvm.lifetime.start.p0i8(i64 2, i8* nonnull %20) #5
  store i16 -21846, i16* %21, align 2
  call void @_ZN5angle8A1R5G5B57averageEPS0_PKS0_S3_(%"struct.angle::A1R5G5B5"* nonnull %13, %"struct.angle::A1R5G5B5"* %41, %"struct.angle::A1R5G5B5"* %43) #5
  call void @_ZN5angle8A1R5G5B57averageEPS0_PKS0_S3_(%"struct.angle::A1R5G5B5"* nonnull %14, %"struct.angle::A1R5G5B5"* %47, %"struct.angle::A1R5G5B5"* %49) #5
  call void @_ZN5angle8A1R5G5B57averageEPS0_PKS0_S3_(%"struct.angle::A1R5G5B5"* %51, %"struct.angle::A1R5G5B5"* nonnull %13, %"struct.angle::A1R5G5B5"* nonnull %14) #5
  call void @llvm.lifetime.end.p0i8(i64 2, i8* nonnull %20) #5
  call void @llvm.lifetime.end.p0i8(i64 2, i8* nonnull %18) #5
  %52 = add nuw i64 %36, 1
  %53 = icmp eq i64 %52, %6
  br i1 %53, label %32, label %35
}

; Function Attrs: nounwind ssp uwtable
define internal void @_ZN5angle4privL14GenerateMip_YZINS_8A1R5G5B5EEEvmmmPKhmmmmmPhmm(i64, i64, i64, i8*, i64, i64, i64, i64, i64, i8*, i64, i64) unnamed_addr #0 {
  %13 = alloca %"struct.angle::A1R5G5B5", align 2
  %14 = alloca %"struct.angle::A1R5G5B5", align 2
  %15 = icmp eq i64 %8, 0
  br i1 %15, label %31, label %16

16:                                               ; preds = %12
  %17 = icmp eq i64 %7, 0
  %18 = bitcast %"struct.angle::A1R5G5B5"* %13 to i8*
  %19 = getelementptr inbounds %"struct.angle::A1R5G5B5", %"struct.angle::A1R5G5B5"* %13, i64 0, i32 0
  %20 = bitcast %"struct.angle::A1R5G5B5"* %14 to i8*
  %21 = getelementptr inbounds %"struct.angle::A1R5G5B5", %"struct.angle::A1R5G5B5"* %14, i64 0, i32 0
  br label %22

22:                                               ; preds = %32, %16
  %23 = phi i64 [ 0, %16 ], [ %33, %32 ]
  br i1 %17, label %32, label %24

24:                                               ; preds = %22
  %25 = shl i64 %23, 1
  %26 = mul i64 %25, %5
  %27 = or i64 %25, 1
  %28 = mul i64 %27, %5
  %29 = mul i64 %23, %11
  %30 = getelementptr inbounds i8, i8* %9, i64 %29
  br label %35

31:                                               ; preds = %32, %12
  ret void

32:                                               ; preds = %35, %22
  %33 = add nuw i64 %23, 1
  %34 = icmp eq i64 %33, %8
  br i1 %34, label %31, label %22

35:                                               ; preds = %35, %24
  %36 = phi i64 [ 0, %24 ], [ %54, %35 ]
  %37 = shl i64 %36, 1
  %38 = mul i64 %37, %4
  %39 = getelementptr inbounds i8, i8* %3, i64 %38
  %40 = getelementptr inbounds i8, i8* %39, i64 %26
  %41 = bitcast i8* %40 to %"struct.angle::A1R5G5B5"*
  %42 = getelementptr inbounds i8, i8* %39, i64 %28
  %43 = bitcast i8* %42 to %"struct.angle::A1R5G5B5"*
  %44 = or i64 %37, 1
  %45 = mul i64 %44, %4
  %46 = getelementptr inbounds i8, i8* %3, i64 %45
  %47 = getelementptr inbounds i8, i8* %46, i64 %26
  %48 = bitcast i8* %47 to %"struct.angle::A1R5G5B5"*
  %49 = getelementptr inbounds i8, i8* %46, i64 %28
  %50 = bitcast i8* %49 to %"struct.angle::A1R5G5B5"*
  %51 = mul i64 %36, %10
  %52 = getelementptr inbounds i8, i8* %30, i64 %51
  %53 = bitcast i8* %52 to %"struct.angle::A1R5G5B5"*
  call void @llvm.lifetime.start.p0i8(i64 2, i8* nonnull %18) #5
  store i16 -21846, i16* %19, align 2
  call void @llvm.lifetime.start.p0i8(i64 2, i8* nonnull %20) #5
  store i16 -21846, i16* %21, align 2
  call void @_ZN5angle8A1R5G5B57averageEPS0_PKS0_S3_(%"struct.angle::A1R5G5B5"* nonnull %13, %"struct.angle::A1R5G5B5"* %41, %"struct.angle::A1R5G5B5"* %43) #5
  call void @_ZN5angle8A1R5G5B57averageEPS0_PKS0_S3_(%"struct.angle::A1R5G5B5"* nonnull %14, %"struct.angle::A1R5G5B5"* %48, %"struct.angle::A1R5G5B5"* %50) #5
  call void @_ZN5angle8A1R5G5B57averageEPS0_PKS0_S3_(%"struct.angle::A1R5G5B5"* %53, %"struct.angle::A1R5G5B5"* nonnull %13, %"struct.angle::A1R5G5B5"* nonnull %14) #5
  call void @llvm.lifetime.end.p0i8(i64 2, i8* nonnull %20) #5
  call void @llvm.lifetime.end.p0i8(i64 2, i8* nonnull %18) #5
  %54 = add nuw i64 %36, 1
  %55 = icmp eq i64 %54, %7
  br i1 %55, label %32, label %35
}

; Function Attrs: nounwind ssp uwtable
define internal void @_ZN5angle4privL15GenerateMip_XYZINS_8A1R5G5B5EEEvmmmPKhmmmmmPhmm(i64, i64, i64, i8*, i64, i64, i64, i64, i64, i8*, i64, i64) unnamed_addr #0 {
  %13 = alloca %"struct.angle::A1R5G5B5", align 2
  %14 = alloca %"struct.angle::A1R5G5B5", align 2
  %15 = alloca %"struct.angle::A1R5G5B5", align 2
  %16 = alloca %"struct.angle::A1R5G5B5", align 2
  %17 = alloca %"struct.angle::A1R5G5B5", align 2
  %18 = alloca %"struct.angle::A1R5G5B5", align 2
  %19 = icmp eq i64 %8, 0
  br i1 %19, label %44, label %20

20:                                               ; preds = %12
  %21 = icmp eq i64 %7, 0
  %22 = icmp eq i64 %6, 0
  %23 = bitcast %"struct.angle::A1R5G5B5"* %13 to i8*
  %24 = getelementptr inbounds %"struct.angle::A1R5G5B5", %"struct.angle::A1R5G5B5"* %13, i64 0, i32 0
  %25 = bitcast %"struct.angle::A1R5G5B5"* %14 to i8*
  %26 = getelementptr inbounds %"struct.angle::A1R5G5B5", %"struct.angle::A1R5G5B5"* %14, i64 0, i32 0
  %27 = bitcast %"struct.angle::A1R5G5B5"* %15 to i8*
  %28 = getelementptr inbounds %"struct.angle::A1R5G5B5", %"struct.angle::A1R5G5B5"* %15, i64 0, i32 0
  %29 = bitcast %"struct.angle::A1R5G5B5"* %16 to i8*
  %30 = getelementptr inbounds %"struct.angle::A1R5G5B5", %"struct.angle::A1R5G5B5"* %16, i64 0, i32 0
  %31 = bitcast %"struct.angle::A1R5G5B5"* %17 to i8*
  %32 = getelementptr inbounds %"struct.angle::A1R5G5B5", %"struct.angle::A1R5G5B5"* %17, i64 0, i32 0
  %33 = bitcast %"struct.angle::A1R5G5B5"* %18 to i8*
  %34 = getelementptr inbounds %"struct.angle::A1R5G5B5", %"struct.angle::A1R5G5B5"* %18, i64 0, i32 0
  br label %35

35:                                               ; preds = %54, %20
  %36 = phi i64 [ 0, %20 ], [ %55, %54 ]
  br i1 %21, label %54, label %37

37:                                               ; preds = %35
  %38 = shl i64 %36, 1
  %39 = mul i64 %38, %5
  %40 = or i64 %38, 1
  %41 = mul i64 %40, %5
  %42 = mul i64 %36, %11
  %43 = getelementptr inbounds i8, i8* %9, i64 %42
  br label %45

44:                                               ; preds = %54, %12
  ret void

45:                                               ; preds = %57, %37
  %46 = phi i64 [ 0, %37 ], [ %58, %57 ]
  br i1 %22, label %57, label %47

47:                                               ; preds = %45
  %48 = shl i64 %46, 1
  %49 = mul i64 %48, %4
  %50 = or i64 %48, 1
  %51 = mul i64 %50, %4
  %52 = mul i64 %46, %10
  %53 = getelementptr inbounds i8, i8* %43, i64 %52
  br label %60

54:                                               ; preds = %57, %35
  %55 = add nuw i64 %36, 1
  %56 = icmp eq i64 %55, %8
  br i1 %56, label %44, label %35

57:                                               ; preds = %60, %45
  %58 = add nuw i64 %46, 1
  %59 = icmp eq i64 %58, %7
  br i1 %59, label %54, label %45

60:                                               ; preds = %60, %47
  %61 = phi i64 [ 0, %47 ], [ %89, %60 ]
  %62 = shl i64 %61, 1
  %63 = shl i64 %61, 2
  %64 = getelementptr inbounds i8, i8* %3, i64 %63
  %65 = getelementptr inbounds i8, i8* %64, i64 %49
  %66 = getelementptr inbounds i8, i8* %65, i64 %39
  %67 = bitcast i8* %66 to %"struct.angle::A1R5G5B5"*
  %68 = getelementptr inbounds i8, i8* %65, i64 %41
  %69 = bitcast i8* %68 to %"struct.angle::A1R5G5B5"*
  %70 = getelementptr inbounds i8, i8* %64, i64 %51
  %71 = getelementptr inbounds i8, i8* %70, i64 %39
  %72 = bitcast i8* %71 to %"struct.angle::A1R5G5B5"*
  %73 = getelementptr inbounds i8, i8* %70, i64 %41
  %74 = bitcast i8* %73 to %"struct.angle::A1R5G5B5"*
  %75 = or i64 %63, 2
  %76 = getelementptr inbounds i8, i8* %3, i64 %75
  %77 = getelementptr inbounds i8, i8* %76, i64 %49
  %78 = getelementptr inbounds i8, i8* %77, i64 %39
  %79 = bitcast i8* %78 to %"struct.angle::A1R5G5B5"*
  %80 = getelementptr inbounds i8, i8* %77, i64 %41
  %81 = bitcast i8* %80 to %"struct.angle::A1R5G5B5"*
  %82 = getelementptr inbounds i8, i8* %76, i64 %51
  %83 = getelementptr inbounds i8, i8* %82, i64 %39
  %84 = bitcast i8* %83 to %"struct.angle::A1R5G5B5"*
  %85 = getelementptr inbounds i8, i8* %82, i64 %41
  %86 = bitcast i8* %85 to %"struct.angle::A1R5G5B5"*
  %87 = getelementptr inbounds i8, i8* %53, i64 %62
  %88 = bitcast i8* %87 to %"struct.angle::A1R5G5B5"*
  call void @llvm.lifetime.start.p0i8(i64 2, i8* nonnull %23) #5
  store i16 -21846, i16* %24, align 2
  call void @llvm.lifetime.start.p0i8(i64 2, i8* nonnull %25) #5
  store i16 -21846, i16* %26, align 2
  call void @llvm.lifetime.start.p0i8(i64 2, i8* nonnull %27) #5
  store i16 -21846, i16* %28, align 2
  call void @llvm.lifetime.start.p0i8(i64 2, i8* nonnull %29) #5
  store i16 -21846, i16* %30, align 2
  call void @llvm.lifetime.start.p0i8(i64 2, i8* nonnull %31) #5
  store i16 -21846, i16* %32, align 2
  call void @llvm.lifetime.start.p0i8(i64 2, i8* nonnull %33) #5
  store i16 -21846, i16* %34, align 2
  call void @_ZN5angle8A1R5G5B57averageEPS0_PKS0_S3_(%"struct.angle::A1R5G5B5"* nonnull %13, %"struct.angle::A1R5G5B5"* %67, %"struct.angle::A1R5G5B5"* %69) #5
  call void @_ZN5angle8A1R5G5B57averageEPS0_PKS0_S3_(%"struct.angle::A1R5G5B5"* nonnull %14, %"struct.angle::A1R5G5B5"* %72, %"struct.angle::A1R5G5B5"* %74) #5
  call void @_ZN5angle8A1R5G5B57averageEPS0_PKS0_S3_(%"struct.angle::A1R5G5B5"* nonnull %15, %"struct.angle::A1R5G5B5"* %79, %"struct.angle::A1R5G5B5"* %81) #5
  call void @_ZN5angle8A1R5G5B57averageEPS0_PKS0_S3_(%"struct.angle::A1R5G5B5"* nonnull %16, %"struct.angle::A1R5G5B5"* %84, %"struct.angle::A1R5G5B5"* %86) #5
  call void @_ZN5angle8A1R5G5B57averageEPS0_PKS0_S3_(%"struct.angle::A1R5G5B5"* nonnull %17, %"struct.angle::A1R5G5B5"* nonnull %13, %"struct.angle::A1R5G5B5"* nonnull %14) #5
  call void @_ZN5angle8A1R5G5B57averageEPS0_PKS0_S3_(%"struct.angle::A1R5G5B5"* nonnull %18, %"struct.angle::A1R5G5B5"* nonnull %15, %"struct.angle::A1R5G5B5"* nonnull %16) #5
  call void @_ZN5angle8A1R5G5B57averageEPS0_PKS0_S3_(%"struct.angle::A1R5G5B5"* %88, %"struct.angle::A1R5G5B5"* nonnull %17, %"struct.angle::A1R5G5B5"* nonnull %18) #5
  call void @llvm.lifetime.end.p0i8(i64 2, i8* nonnull %33) #5
  call void @llvm.lifetime.end.p0i8(i64 2, i8* nonnull %31) #5
  call void @llvm.lifetime.end.p0i8(i64 2, i8* nonnull %29) #5
  call void @llvm.lifetime.end.p0i8(i64 2, i8* nonnull %27) #5
  call void @llvm.lifetime.end.p0i8(i64 2, i8* nonnull %25) #5
  call void @llvm.lifetime.end.p0i8(i64 2, i8* nonnull %23) #5
  %89 = add nuw i64 %61, 1
  %90 = icmp eq i64 %89, %6
  br i1 %90, label %57, label %60
}

declare void @_ZN5angle8A1R5G5B57averageEPS0_PKS0_S3_(%"struct.angle::A1R5G5B5"*, %"struct.angle::A1R5G5B5"*, %"struct.angle::A1R5G5B5"*) local_unnamed_addr #3

declare void @_ZN5angle8A1R5G5B59readColorEPNS_5ColorIfEEPKS0_(%"struct.angle::Color"*, %"struct.angle::A1R5G5B5"*) local_unnamed_addr #3

declare void @_ZN5angle8A1R5G5B510writeColorEPS0_PKNS_5ColorIfEE(%"struct.angle::A1R5G5B5"*, %"struct.angle::Color"*) local_unnamed_addr #3

; Function Attrs: nounwind ssp uwtable
define internal void @_ZN5angle4privL13GenerateMip_XINS_4A32FEEEvmmmPKhmmmmmPhmm(i64, i64, i64, i8*, i64, i64, i64, i64, i64, i8*, i64, i64) unnamed_addr #0 {
  %13 = icmp eq i64 %6, 0
  br i1 %13, label %14, label %15

14:                                               ; preds = %15, %12
  ret void

15:                                               ; preds = %12, %15
  %16 = phi i64 [ %26, %15 ], [ 0, %12 ]
  %17 = shl i64 %16, 3
  %18 = getelementptr inbounds i8, i8* %3, i64 %17
  %19 = bitcast i8* %18 to %"struct.angle::A32F"*
  %20 = or i64 %17, 4
  %21 = getelementptr inbounds i8, i8* %3, i64 %20
  %22 = bitcast i8* %21 to %"struct.angle::A32F"*
  %23 = shl i64 %16, 2
  %24 = getelementptr inbounds i8, i8* %9, i64 %23
  %25 = bitcast i8* %24 to %"struct.angle::A32F"*
  tail call void @_ZN5angle4A32F7averageEPS0_PKS0_S3_(%"struct.angle::A32F"* %25, %"struct.angle::A32F"* %19, %"struct.angle::A32F"* %22) #5
  %26 = add nuw i64 %16, 1
  %27 = icmp eq i64 %26, %6
  br i1 %27, label %14, label %15
}

; Function Attrs: nounwind ssp uwtable
define internal void @_ZN5angle4privL13GenerateMip_YINS_4A32FEEEvmmmPKhmmmmmPhmm(i64, i64, i64, i8*, i64, i64, i64, i64, i64, i8*, i64, i64) unnamed_addr #0 {
  %13 = icmp eq i64 %7, 0
  br i1 %13, label %14, label %15

14:                                               ; preds = %15, %12
  ret void

15:                                               ; preds = %12, %15
  %16 = phi i64 [ %28, %15 ], [ 0, %12 ]
  %17 = shl i64 %16, 1
  %18 = mul i64 %17, %4
  %19 = getelementptr inbounds i8, i8* %3, i64 %18
  %20 = bitcast i8* %19 to %"struct.angle::A32F"*
  %21 = or i64 %17, 1
  %22 = mul i64 %21, %4
  %23 = getelementptr inbounds i8, i8* %3, i64 %22
  %24 = bitcast i8* %23 to %"struct.angle::A32F"*
  %25 = mul i64 %16, %10
  %26 = getelementptr inbounds i8, i8* %9, i64 %25
  %27 = bitcast i8* %26 to %"struct.angle::A32F"*
  tail call void @_ZN5angle4A32F7averageEPS0_PKS0_S3_(%"struct.angle::A32F"* %27, %"struct.angle::A32F"* %20, %"struct.angle::A32F"* %24) #5
  %28 = add nuw i64 %16, 1
  %29 = icmp eq i64 %28, %7
  br i1 %29, label %14, label %15
}

; Function Attrs: nounwind ssp uwtable
define internal void @_ZN5angle4privL14GenerateMip_XYINS_4A32FEEEvmmmPKhmmmmmPhmm(i64, i64, i64, i8*, i64, i64, i64, i64, i64, i8*, i64, i64) unnamed_addr #0 {
  %13 = alloca %"struct.angle::A32F", align 4
  %14 = alloca %"struct.angle::A32F", align 4
  %15 = icmp eq i64 %7, 0
  br i1 %15, label %31, label %16

16:                                               ; preds = %12
  %17 = icmp eq i64 %6, 0
  %18 = bitcast %"struct.angle::A32F"* %13 to i8*
  %19 = getelementptr inbounds %"struct.angle::A32F", %"struct.angle::A32F"* %13, i64 0, i32 0
  %20 = bitcast %"struct.angle::A32F"* %14 to i8*
  %21 = getelementptr inbounds %"struct.angle::A32F", %"struct.angle::A32F"* %14, i64 0, i32 0
  br label %22

22:                                               ; preds = %32, %16
  %23 = phi i64 [ 0, %16 ], [ %33, %32 ]
  br i1 %17, label %32, label %24

24:                                               ; preds = %22
  %25 = shl i64 %23, 1
  %26 = mul i64 %25, %4
  %27 = or i64 %25, 1
  %28 = mul i64 %27, %4
  %29 = mul i64 %23, %10
  %30 = getelementptr inbounds i8, i8* %9, i64 %29
  br label %35

31:                                               ; preds = %32, %12
  ret void

32:                                               ; preds = %35, %22
  %33 = add nuw i64 %23, 1
  %34 = icmp eq i64 %33, %7
  br i1 %34, label %31, label %22

35:                                               ; preds = %35, %24
  %36 = phi i64 [ 0, %24 ], [ %52, %35 ]
  %37 = shl i64 %36, 3
  %38 = getelementptr inbounds i8, i8* %3, i64 %37
  %39 = getelementptr inbounds i8, i8* %38, i64 %26
  %40 = bitcast i8* %39 to %"struct.angle::A32F"*
  %41 = getelementptr inbounds i8, i8* %38, i64 %28
  %42 = bitcast i8* %41 to %"struct.angle::A32F"*
  %43 = or i64 %37, 4
  %44 = getelementptr inbounds i8, i8* %3, i64 %43
  %45 = getelementptr inbounds i8, i8* %44, i64 %26
  %46 = bitcast i8* %45 to %"struct.angle::A32F"*
  %47 = getelementptr inbounds i8, i8* %44, i64 %28
  %48 = bitcast i8* %47 to %"struct.angle::A32F"*
  %49 = shl i64 %36, 2
  %50 = getelementptr inbounds i8, i8* %30, i64 %49
  %51 = bitcast i8* %50 to %"struct.angle::A32F"*
  call void @llvm.lifetime.start.p0i8(i64 4, i8* nonnull %18) #5
  store float 0xFFFFFFFFE0000000, float* %19, align 4
  call void @llvm.lifetime.start.p0i8(i64 4, i8* nonnull %20) #5
  store float 0xFFFFFFFFE0000000, float* %21, align 4
  call void @_ZN5angle4A32F7averageEPS0_PKS0_S3_(%"struct.angle::A32F"* nonnull %13, %"struct.angle::A32F"* %40, %"struct.angle::A32F"* %42) #5
  call void @_ZN5angle4A32F7averageEPS0_PKS0_S3_(%"struct.angle::A32F"* nonnull %14, %"struct.angle::A32F"* %46, %"struct.angle::A32F"* %48) #5
  call void @_ZN5angle4A32F7averageEPS0_PKS0_S3_(%"struct.angle::A32F"* %51, %"struct.angle::A32F"* nonnull %13, %"struct.angle::A32F"* nonnull %14) #5
  call void @llvm.lifetime.end.p0i8(i64 4, i8* nonnull %20) #5
  call void @llvm.lifetime.end.p0i8(i64 4, i8* nonnull %18) #5
  %52 = add nuw i64 %36, 1
  %53 = icmp eq i64 %52, %6
  br i1 %53, label %32, label %35
}

; Function Attrs: nounwind ssp uwtable
define internal void @_ZN5angle4privL13GenerateMip_ZINS_4A32FEEEvmmmPKhmmmmmPhmm(i64, i64, i64, i8*, i64, i64, i64, i64, i64, i8*, i64, i64) unnamed_addr #0 {
  %13 = icmp eq i64 %8, 0
  br i1 %13, label %14, label %15

14:                                               ; preds = %15, %12
  ret void

15:                                               ; preds = %12, %15
  %16 = phi i64 [ %28, %15 ], [ 0, %12 ]
  %17 = shl i64 %16, 1
  %18 = mul i64 %17, %5
  %19 = getelementptr inbounds i8, i8* %3, i64 %18
  %20 = bitcast i8* %19 to %"struct.angle::A32F"*
  %21 = or i64 %17, 1
  %22 = mul i64 %21, %5
  %23 = getelementptr inbounds i8, i8* %3, i64 %22
  %24 = bitcast i8* %23 to %"struct.angle::A32F"*
  %25 = mul i64 %16, %11
  %26 = getelementptr inbounds i8, i8* %9, i64 %25
  %27 = bitcast i8* %26 to %"struct.angle::A32F"*
  tail call void @_ZN5angle4A32F7averageEPS0_PKS0_S3_(%"struct.angle::A32F"* %27, %"struct.angle::A32F"* %20, %"struct.angle::A32F"* %24) #5
  %28 = add nuw i64 %16, 1
  %29 = icmp eq i64 %28, %8
  br i1 %29, label %14, label %15
}

; Function Attrs: nounwind ssp uwtable
define internal void @_ZN5angle4privL14GenerateMip_XZINS_4A32FEEEvmmmPKhmmmmmPhmm(i64, i64, i64, i8*, i64, i64, i64, i64, i64, i8*, i64, i64) unnamed_addr #0 {
  %13 = alloca %"struct.angle::A32F", align 4
  %14 = alloca %"struct.angle::A32F", align 4
  %15 = icmp eq i64 %8, 0
  br i1 %15, label %31, label %16

16:                                               ; preds = %12
  %17 = icmp eq i64 %6, 0
  %18 = bitcast %"struct.angle::A32F"* %13 to i8*
  %19 = getelementptr inbounds %"struct.angle::A32F", %"struct.angle::A32F"* %13, i64 0, i32 0
  %20 = bitcast %"struct.angle::A32F"* %14 to i8*
  %21 = getelementptr inbounds %"struct.angle::A32F", %"struct.angle::A32F"* %14, i64 0, i32 0
  br label %22

22:                                               ; preds = %32, %16
  %23 = phi i64 [ 0, %16 ], [ %33, %32 ]
  br i1 %17, label %32, label %24

24:                                               ; preds = %22
  %25 = shl i64 %23, 1
  %26 = mul i64 %25, %5
  %27 = or i64 %25, 1
  %28 = mul i64 %27, %5
  %29 = mul i64 %23, %11
  %30 = getelementptr inbounds i8, i8* %9, i64 %29
  br label %35

31:                                               ; preds = %32, %12
  ret void

32:                                               ; preds = %35, %22
  %33 = add nuw i64 %23, 1
  %34 = icmp eq i64 %33, %8
  br i1 %34, label %31, label %22

35:                                               ; preds = %35, %24
  %36 = phi i64 [ 0, %24 ], [ %52, %35 ]
  %37 = shl i64 %36, 3
  %38 = getelementptr inbounds i8, i8* %3, i64 %37
  %39 = getelementptr inbounds i8, i8* %38, i64 %26
  %40 = bitcast i8* %39 to %"struct.angle::A32F"*
  %41 = getelementptr inbounds i8, i8* %38, i64 %28
  %42 = bitcast i8* %41 to %"struct.angle::A32F"*
  %43 = or i64 %37, 4
  %44 = getelementptr inbounds i8, i8* %3, i64 %43
  %45 = getelementptr inbounds i8, i8* %44, i64 %26
  %46 = bitcast i8* %45 to %"struct.angle::A32F"*
  %47 = getelementptr inbounds i8, i8* %44, i64 %28
  %48 = bitcast i8* %47 to %"struct.angle::A32F"*
  %49 = shl i64 %36, 2
  %50 = getelementptr inbounds i8, i8* %30, i64 %49
  %51 = bitcast i8* %50 to %"struct.angle::A32F"*
  call void @llvm.lifetime.start.p0i8(i64 4, i8* nonnull %18) #5
  store float 0xFFFFFFFFE0000000, float* %19, align 4
  call void @llvm.lifetime.start.p0i8(i64 4, i8* nonnull %20) #5
  store float 0xFFFFFFFFE0000000, float* %21, align 4
  call void @_ZN5angle4A32F7averageEPS0_PKS0_S3_(%"struct.angle::A32F"* nonnull %13, %"struct.angle::A32F"* %40, %"struct.angle::A32F"* %42) #5
  call void @_ZN5angle4A32F7averageEPS0_PKS0_S3_(%"struct.angle::A32F"* nonnull %14, %"struct.angle::A32F"* %46, %"struct.angle::A32F"* %48) #5
  call void @_ZN5angle4A32F7averageEPS0_PKS0_S3_(%"struct.angle::A32F"* %51, %"struct.angle::A32F"* nonnull %13, %"struct.angle::A32F"* nonnull %14) #5
  call void @llvm.lifetime.end.p0i8(i64 4, i8* nonnull %20) #5
  call void @llvm.lifetime.end.p0i8(i64 4, i8* nonnull %18) #5
  %52 = add nuw i64 %36, 1
  %53 = icmp eq i64 %52, %6
  br i1 %53, label %32, label %35
}

; Function Attrs: nounwind ssp uwtable
define internal void @_ZN5angle4privL14GenerateMip_YZINS_4A32FEEEvmmmPKhmmmmmPhmm(i64, i64, i64, i8*, i64, i64, i64, i64, i64, i8*, i64, i64) unnamed_addr #0 {
  %13 = alloca %"struct.angle::A32F", align 4
  %14 = alloca %"struct.angle::A32F", align 4
  %15 = icmp eq i64 %8, 0
  br i1 %15, label %31, label %16

16:                                               ; preds = %12
  %17 = icmp eq i64 %7, 0
  %18 = bitcast %"struct.angle::A32F"* %13 to i8*
  %19 = getelementptr inbounds %"struct.angle::A32F", %"struct.angle::A32F"* %13, i64 0, i32 0
  %20 = bitcast %"struct.angle::A32F"* %14 to i8*
  %21 = getelementptr inbounds %"struct.angle::A32F", %"struct.angle::A32F"* %14, i64 0, i32 0
  br label %22

22:                                               ; preds = %32, %16
  %23 = phi i64 [ 0, %16 ], [ %33, %32 ]
  br i1 %17, label %32, label %24

24:                                               ; preds = %22
  %25 = shl i64 %23, 1
  %26 = mul i64 %25, %5
  %27 = or i64 %25, 1
  %28 = mul i64 %27, %5
  %29 = mul i64 %23, %11
  %30 = getelementptr inbounds i8, i8* %9, i64 %29
  br label %35

31:                                               ; preds = %32, %12
  ret void

32:                                               ; preds = %35, %22
  %33 = add nuw i64 %23, 1
  %34 = icmp eq i64 %33, %8
  br i1 %34, label %31, label %22

35:                                               ; preds = %35, %24
  %36 = phi i64 [ 0, %24 ], [ %54, %35 ]
  %37 = shl i64 %36, 1
  %38 = mul i64 %37, %4
  %39 = getelementptr inbounds i8, i8* %3, i64 %38
  %40 = getelementptr inbounds i8, i8* %39, i64 %26
  %41 = bitcast i8* %40 to %"struct.angle::A32F"*
  %42 = getelementptr inbounds i8, i8* %39, i64 %28
  %43 = bitcast i8* %42 to %"struct.angle::A32F"*
  %44 = or i64 %37, 1
  %45 = mul i64 %44, %4
  %46 = getelementptr inbounds i8, i8* %3, i64 %45
  %47 = getelementptr inbounds i8, i8* %46, i64 %26
  %48 = bitcast i8* %47 to %"struct.angle::A32F"*
  %49 = getelementptr inbounds i8, i8* %46, i64 %28
  %50 = bitcast i8* %49 to %"struct.angle::A32F"*
  %51 = mul i64 %36, %10
  %52 = getelementptr inbounds i8, i8* %30, i64 %51
  %53 = bitcast i8* %52 to %"struct.angle::A32F"*
  call void @llvm.lifetime.start.p0i8(i64 4, i8* nonnull %18) #5
  store float 0xFFFFFFFFE0000000, float* %19, align 4
  call void @llvm.lifetime.start.p0i8(i64 4, i8* nonnull %20) #5
  store float 0xFFFFFFFFE0000000, float* %21, align 4
  call void @_ZN5angle4A32F7averageEPS0_PKS0_S3_(%"struct.angle::A32F"* nonnull %13, %"struct.angle::A32F"* %41, %"struct.angle::A32F"* %43) #5
  call void @_ZN5angle4A32F7averageEPS0_PKS0_S3_(%"struct.angle::A32F"* nonnull %14, %"struct.angle::A32F"* %48, %"struct.angle::A32F"* %50) #5
  call void @_ZN5angle4A32F7averageEPS0_PKS0_S3_(%"struct.angle::A32F"* %53, %"struct.angle::A32F"* nonnull %13, %"struct.angle::A32F"* nonnull %14) #5
  call void @llvm.lifetime.end.p0i8(i64 4, i8* nonnull %20) #5
  call void @llvm.lifetime.end.p0i8(i64 4, i8* nonnull %18) #5
  %54 = add nuw i64 %36, 1
  %55 = icmp eq i64 %54, %7
  br i1 %55, label %32, label %35
}

; Function Attrs: nounwind ssp uwtable
define internal void @_ZN5angle4privL15GenerateMip_XYZINS_4A32FEEEvmmmPKhmmmmmPhmm(i64, i64, i64, i8*, i64, i64, i64, i64, i64, i8*, i64, i64) unnamed_addr #0 {
  %13 = alloca %"struct.angle::A32F", align 4
  %14 = alloca %"struct.angle::A32F", align 4
  %15 = alloca %"struct.angle::A32F", align 4
  %16 = alloca %"struct.angle::A32F", align 4
  %17 = alloca %"struct.angle::A32F", align 4
  %18 = alloca %"struct.angle::A32F", align 4
  %19 = icmp eq i64 %8, 0
  br i1 %19, label %44, label %20

20:                                               ; preds = %12
  %21 = icmp eq i64 %7, 0
  %22 = icmp eq i64 %6, 0
  %23 = bitcast %"struct.angle::A32F"* %13 to i8*
  %24 = getelementptr inbounds %"struct.angle::A32F", %"struct.angle::A32F"* %13, i64 0, i32 0
  %25 = bitcast %"struct.angle::A32F"* %14 to i8*
  %26 = getelementptr inbounds %"struct.angle::A32F", %"struct.angle::A32F"* %14, i64 0, i32 0
  %27 = bitcast %"struct.angle::A32F"* %15 to i8*
  %28 = getelementptr inbounds %"struct.angle::A32F", %"struct.angle::A32F"* %15, i64 0, i32 0
  %29 = bitcast %"struct.angle::A32F"* %16 to i8*
  %30 = getelementptr inbounds %"struct.angle::A32F", %"struct.angle::A32F"* %16, i64 0, i32 0
  %31 = bitcast %"struct.angle::A32F"* %17 to i8*
  %32 = getelementptr inbounds %"struct.angle::A32F", %"struct.angle::A32F"* %17, i64 0, i32 0
  %33 = bitcast %"struct.angle::A32F"* %18 to i8*
  %34 = getelementptr inbounds %"struct.angle::A32F", %"struct.angle::A32F"* %18, i64 0, i32 0
  br label %35

35:                                               ; preds = %54, %20
  %36 = phi i64 [ 0, %20 ], [ %55, %54 ]
  br i1 %21, label %54, label %37

37:                                               ; preds = %35
  %38 = shl i64 %36, 1
  %39 = mul i64 %38, %5
  %40 = or i64 %38, 1
  %41 = mul i64 %40, %5
  %42 = mul i64 %36, %11
  %43 = getelementptr inbounds i8, i8* %9, i64 %42
  br label %45

44:                                               ; preds = %54, %12
  ret void

45:                                               ; preds = %57, %37
  %46 = phi i64 [ 0, %37 ], [ %58, %57 ]
  br i1 %22, label %57, label %47

47:                                               ; preds = %45
  %48 = shl i64 %46, 1
  %49 = mul i64 %48, %4
  %50 = or i64 %48, 1
  %51 = mul i64 %50, %4
  %52 = mul i64 %46, %10
  %53 = getelementptr inbounds i8, i8* %43, i64 %52
  br label %60

54:                                               ; preds = %57, %35
  %55 = add nuw i64 %36, 1
  %56 = icmp eq i64 %55, %8
  br i1 %56, label %44, label %35

57:                                               ; preds = %60, %45
  %58 = add nuw i64 %46, 1
  %59 = icmp eq i64 %58, %7
  br i1 %59, label %54, label %45

60:                                               ; preds = %60, %47
  %61 = phi i64 [ 0, %47 ], [ %89, %60 ]
  %62 = shl i64 %61, 3
  %63 = getelementptr inbounds i8, i8* %3, i64 %62
  %64 = getelementptr inbounds i8, i8* %63, i64 %49
  %65 = getelementptr inbounds i8, i8* %64, i64 %39
  %66 = bitcast i8* %65 to %"struct.angle::A32F"*
  %67 = getelementptr inbounds i8, i8* %64, i64 %41
  %68 = bitcast i8* %67 to %"struct.angle::A32F"*
  %69 = getelementptr inbounds i8, i8* %63, i64 %51
  %70 = getelementptr inbounds i8, i8* %69, i64 %39
  %71 = bitcast i8* %70 to %"struct.angle::A32F"*
  %72 = getelementptr inbounds i8, i8* %69, i64 %41
  %73 = bitcast i8* %72 to %"struct.angle::A32F"*
  %74 = or i64 %62, 4
  %75 = getelementptr inbounds i8, i8* %3, i64 %74
  %76 = getelementptr inbounds i8, i8* %75, i64 %49
  %77 = getelementptr inbounds i8, i8* %76, i64 %39
  %78 = bitcast i8* %77 to %"struct.angle::A32F"*
  %79 = getelementptr inbounds i8, i8* %76, i64 %41
  %80 = bitcast i8* %79 to %"struct.angle::A32F"*
  %81 = getelementptr inbounds i8, i8* %75, i64 %51
  %82 = getelementptr inbounds i8, i8* %81, i64 %39
  %83 = bitcast i8* %82 to %"struct.angle::A32F"*
  %84 = getelementptr inbounds i8, i8* %81, i64 %41
  %85 = bitcast i8* %84 to %"struct.angle::A32F"*
  %86 = shl i64 %61, 2
  %87 = getelementptr inbounds i8, i8* %53, i64 %86
  %88 = bitcast i8* %87 to %"struct.angle::A32F"*
  call void @llvm.lifetime.start.p0i8(i64 4, i8* nonnull %23) #5
  store float 0xFFFFFFFFE0000000, float* %24, align 4
  call void @llvm.lifetime.start.p0i8(i64 4, i8* nonnull %25) #5
  store float 0xFFFFFFFFE0000000, float* %26, align 4
  call void @llvm.lifetime.start.p0i8(i64 4, i8* nonnull %27) #5
  store float 0xFFFFFFFFE0000000, float* %28, align 4
  call void @llvm.lifetime.start.p0i8(i64 4, i8* nonnull %29) #5
  store float 0xFFFFFFFFE0000000, float* %30, align 4
  call void @llvm.lifetime.start.p0i8(i64 4, i8* nonnull %31) #5
  store float 0xFFFFFFFFE0000000, float* %32, align 4
  call void @llvm.lifetime.start.p0i8(i64 4, i8* nonnull %33) #5
  store float 0xFFFFFFFFE0000000, float* %34, align 4
  call void @_ZN5angle4A32F7averageEPS0_PKS0_S3_(%"struct.angle::A32F"* nonnull %13, %"struct.angle::A32F"* %66, %"struct.angle::A32F"* %68) #5
  call void @_ZN5angle4A32F7averageEPS0_PKS0_S3_(%"struct.angle::A32F"* nonnull %14, %"struct.angle::A32F"* %71, %"struct.angle::A32F"* %73) #5
  call void @_ZN5angle4A32F7averageEPS0_PKS0_S3_(%"struct.angle::A32F"* nonnull %15, %"struct.angle::A32F"* %78, %"struct.angle::A32F"* %80) #5
  call void @_ZN5angle4A32F7averageEPS0_PKS0_S3_(%"struct.angle::A32F"* nonnull %16, %"struct.angle::A32F"* %83, %"struct.angle::A32F"* %85) #5
  call void @_ZN5angle4A32F7averageEPS0_PKS0_S3_(%"struct.angle::A32F"* nonnull %17, %"struct.angle::A32F"* nonnull %13, %"struct.angle::A32F"* nonnull %14) #5
  call void @_ZN5angle4A32F7averageEPS0_PKS0_S3_(%"struct.angle::A32F"* nonnull %18, %"struct.angle::A32F"* nonnull %15, %"struct.angle::A32F"* nonnull %16) #5
  call void @_ZN5angle4A32F7averageEPS0_PKS0_S3_(%"struct.angle::A32F"* %88, %"struct.angle::A32F"* nonnull %17, %"struct.angle::A32F"* nonnull %18) #5
  call void @llvm.lifetime.end.p0i8(i64 4, i8* nonnull %33) #5
  call void @llvm.lifetime.end.p0i8(i64 4, i8* nonnull %31) #5
  call void @llvm.lifetime.end.p0i8(i64 4, i8* nonnull %29) #5
  call void @llvm.lifetime.end.p0i8(i64 4, i8* nonnull %27) #5
  call void @llvm.lifetime.end.p0i8(i64 4, i8* nonnull %25) #5
  call void @llvm.lifetime.end.p0i8(i64 4, i8* nonnull %23) #5
  %89 = add nuw i64 %61, 1
  %90 = icmp eq i64 %89, %6
  br i1 %90, label %57, label %60
}

declare void @_ZN5angle4A32F7averageEPS0_PKS0_S3_(%"struct.angle::A32F"*, %"struct.angle::A32F"*, %"struct.angle::A32F"*) local_unnamed_addr #3

declare void @_ZN5angle4A32F9readColorEPNS_5ColorIfEEPKS0_(%"struct.angle::Color"*, %"struct.angle::A32F"*) local_unnamed_addr #3

declare void @_ZN5angle4A32F10writeColorEPS0_PKNS_5ColorIfEE(%"struct.angle::A32F"*, %"struct.angle::Color"*) local_unnamed_addr #3

; Function Attrs: nounwind ssp uwtable
define internal void @_ZN5angle4privL13GenerateMip_XINS_2A8EEEvmmmPKhmmmmmPhmm(i64, i64, i64, i8*, i64, i64, i64, i64, i64, i8*, i64, i64) unnamed_addr #0 {
  %13 = icmp eq i64 %6, 0
  br i1 %13, label %14, label %15

14:                                               ; preds = %15, %12
  ret void

15:                                               ; preds = %12, %15
  %16 = phi i64 [ %25, %15 ], [ 0, %12 ]
  %17 = shl i64 %16, 1
  %18 = getelementptr inbounds i8, i8* %3, i64 %17
  %19 = bitcast i8* %18 to %"struct.angle::A8"*
  %20 = or i64 %17, 1
  %21 = getelementptr inbounds i8, i8* %3, i64 %20
  %22 = bitcast i8* %21 to %"struct.angle::A8"*
  %23 = getelementptr inbounds i8, i8* %9, i64 %16
  %24 = bitcast i8* %23 to %"struct.angle::A8"*
  tail call void @_ZN5angle2A87averageEPS0_PKS0_S3_(%"struct.angle::A8"* %24, %"struct.angle::A8"* %19, %"struct.angle::A8"* %22) #5
  %25 = add nuw i64 %16, 1
  %26 = icmp eq i64 %25, %6
  br i1 %26, label %14, label %15
}

; Function Attrs: nounwind ssp uwtable
define internal void @_ZN5angle4privL13GenerateMip_YINS_2A8EEEvmmmPKhmmmmmPhmm(i64, i64, i64, i8*, i64, i64, i64, i64, i64, i8*, i64, i64) unnamed_addr #0 {
  %13 = icmp eq i64 %7, 0
  br i1 %13, label %14, label %15

14:                                               ; preds = %15, %12
  ret void

15:                                               ; preds = %12, %15
  %16 = phi i64 [ %28, %15 ], [ 0, %12 ]
  %17 = shl i64 %16, 1
  %18 = mul i64 %17, %4
  %19 = getelementptr inbounds i8, i8* %3, i64 %18
  %20 = bitcast i8* %19 to %"struct.angle::A8"*
  %21 = or i64 %17, 1
  %22 = mul i64 %21, %4
  %23 = getelementptr inbounds i8, i8* %3, i64 %22
  %24 = bitcast i8* %23 to %"struct.angle::A8"*
  %25 = mul i64 %16, %10
  %26 = getelementptr inbounds i8, i8* %9, i64 %25
  %27 = bitcast i8* %26 to %"struct.angle::A8"*
  tail call void @_ZN5angle2A87averageEPS0_PKS0_S3_(%"struct.angle::A8"* %27, %"struct.angle::A8"* %20, %"struct.angle::A8"* %24) #5
  %28 = add nuw i64 %16, 1
  %29 = icmp eq i64 %28, %7
  br i1 %29, label %14, label %15
}

; Function Attrs: nounwind ssp uwtable
define internal void @_ZN5angle4privL14GenerateMip_XYINS_2A8EEEvmmmPKhmmmmmPhmm(i64, i64, i64, i8*, i64, i64, i64, i64, i64, i8*, i64, i64) unnamed_addr #0 {
  %13 = alloca %"struct.angle::A8", align 1
  %14 = alloca %"struct.angle::A8", align 1
  %15 = icmp eq i64 %7, 0
  br i1 %15, label %29, label %16

16:                                               ; preds = %12
  %17 = icmp eq i64 %6, 0
  %18 = getelementptr inbounds %"struct.angle::A8", %"struct.angle::A8"* %13, i64 0, i32 0
  %19 = getelementptr inbounds %"struct.angle::A8", %"struct.angle::A8"* %14, i64 0, i32 0
  br label %20

20:                                               ; preds = %30, %16
  %21 = phi i64 [ 0, %16 ], [ %31, %30 ]
  br i1 %17, label %30, label %22

22:                                               ; preds = %20
  %23 = shl i64 %21, 1
  %24 = mul i64 %23, %4
  %25 = or i64 %23, 1
  %26 = mul i64 %25, %4
  %27 = mul i64 %21, %10
  %28 = getelementptr inbounds i8, i8* %9, i64 %27
  br label %33

29:                                               ; preds = %30, %12
  ret void

30:                                               ; preds = %33, %20
  %31 = add nuw i64 %21, 1
  %32 = icmp eq i64 %31, %7
  br i1 %32, label %29, label %20

33:                                               ; preds = %33, %22
  %34 = phi i64 [ 0, %22 ], [ %49, %33 ]
  %35 = shl i64 %34, 1
  %36 = getelementptr inbounds i8, i8* %3, i64 %35
  %37 = getelementptr inbounds i8, i8* %36, i64 %24
  %38 = bitcast i8* %37 to %"struct.angle::A8"*
  %39 = getelementptr inbounds i8, i8* %36, i64 %26
  %40 = bitcast i8* %39 to %"struct.angle::A8"*
  %41 = or i64 %35, 1
  %42 = getelementptr inbounds i8, i8* %3, i64 %41
  %43 = getelementptr inbounds i8, i8* %42, i64 %24
  %44 = bitcast i8* %43 to %"struct.angle::A8"*
  %45 = getelementptr inbounds i8, i8* %42, i64 %26
  %46 = bitcast i8* %45 to %"struct.angle::A8"*
  %47 = getelementptr inbounds i8, i8* %28, i64 %34
  %48 = bitcast i8* %47 to %"struct.angle::A8"*
  call void @llvm.lifetime.start.p0i8(i64 1, i8* nonnull %18) #5
  store i8 -86, i8* %18, align 1
  call void @llvm.lifetime.start.p0i8(i64 1, i8* nonnull %19) #5
  store i8 -86, i8* %19, align 1
  call void @_ZN5angle2A87averageEPS0_PKS0_S3_(%"struct.angle::A8"* nonnull %13, %"struct.angle::A8"* %38, %"struct.angle::A8"* %40) #5
  call void @_ZN5angle2A87averageEPS0_PKS0_S3_(%"struct.angle::A8"* nonnull %14, %"struct.angle::A8"* %44, %"struct.angle::A8"* %46) #5
  call void @_ZN5angle2A87averageEPS0_PKS0_S3_(%"struct.angle::A8"* %48, %"struct.angle::A8"* nonnull %13, %"struct.angle::A8"* nonnull %14) #5
  call void @llvm.lifetime.end.p0i8(i64 1, i8* nonnull %19) #5
  call void @llvm.lifetime.end.p0i8(i64 1, i8* nonnull %18) #5
  %49 = add nuw i64 %34, 1
  %50 = icmp eq i64 %49, %6
  br i1 %50, label %30, label %33
}

; Function Attrs: nounwind ssp uwtable
define internal void @_ZN5angle4privL13GenerateMip_ZINS_2A8EEEvmmmPKhmmmmmPhmm(i64, i64, i64, i8*, i64, i64, i64, i64, i64, i8*, i64, i64) unnamed_addr #0 {
  %13 = icmp eq i64 %8, 0
  br i1 %13, label %14, label %15

14:                                               ; preds = %15, %12
  ret void

15:                                               ; preds = %12, %15
  %16 = phi i64 [ %28, %15 ], [ 0, %12 ]
  %17 = shl i64 %16, 1
  %18 = mul i64 %17, %5
  %19 = getelementptr inbounds i8, i8* %3, i64 %18
  %20 = bitcast i8* %19 to %"struct.angle::A8"*
  %21 = or i64 %17, 1
  %22 = mul i64 %21, %5
  %23 = getelementptr inbounds i8, i8* %3, i64 %22
  %24 = bitcast i8* %23 to %"struct.angle::A8"*
  %25 = mul i64 %16, %11
  %26 = getelementptr inbounds i8, i8* %9, i64 %25
  %27 = bitcast i8* %26 to %"struct.angle::A8"*
  tail call void @_ZN5angle2A87averageEPS0_PKS0_S3_(%"struct.angle::A8"* %27, %"struct.angle::A8"* %20, %"struct.angle::A8"* %24) #5
  %28 = add nuw i64 %16, 1
  %29 = icmp eq i64 %28, %8
  br i1 %29, label %14, label %15
}

; Function Attrs: nounwind ssp uwtable
define internal void @_ZN5angle4privL14GenerateMip_XZINS_2A8EEEvmmmPKhmmmmmPhmm(i64, i64, i64, i8*, i64, i64, i64, i64, i64, i8*, i64, i64) unnamed_addr #0 {
  %13 = alloca %"struct.angle::A8", align 1
  %14 = alloca %"struct.angle::A8", align 1
  %15 = icmp eq i64 %8, 0
  br i1 %15, label %29, label %16

16:                                               ; preds = %12
  %17 = icmp eq i64 %6, 0
  %18 = getelementptr inbounds %"struct.angle::A8", %"struct.angle::A8"* %13, i64 0, i32 0
  %19 = getelementptr inbounds %"struct.angle::A8", %"struct.angle::A8"* %14, i64 0, i32 0
  br label %20

20:                                               ; preds = %30, %16
  %21 = phi i64 [ 0, %16 ], [ %31, %30 ]
  br i1 %17, label %30, label %22

22:                                               ; preds = %20
  %23 = shl i64 %21, 1
  %24 = mul i64 %23, %5
  %25 = or i64 %23, 1
  %26 = mul i64 %25, %5
  %27 = mul i64 %21, %11
  %28 = getelementptr inbounds i8, i8* %9, i64 %27
  br label %33

29:                                               ; preds = %30, %12
  ret void

30:                                               ; preds = %33, %20
  %31 = add nuw i64 %21, 1
  %32 = icmp eq i64 %31, %8
  br i1 %32, label %29, label %20

33:                                               ; preds = %33, %22
  %34 = phi i64 [ 0, %22 ], [ %49, %33 ]
  %35 = shl i64 %34, 1
  %36 = getelementptr inbounds i8, i8* %3, i64 %35
  %37 = getelementptr inbounds i8, i8* %36, i64 %24
  %38 = bitcast i8* %37 to %"struct.angle::A8"*
  %39 = getelementptr inbounds i8, i8* %36, i64 %26
  %40 = bitcast i8* %39 to %"struct.angle::A8"*
  %41 = or i64 %35, 1
  %42 = getelementptr inbounds i8, i8* %3, i64 %41
  %43 = getelementptr inbounds i8, i8* %42, i64 %24
  %44 = bitcast i8* %43 to %"struct.angle::A8"*
  %45 = getelementptr inbounds i8, i8* %42, i64 %26
  %46 = bitcast i8* %45 to %"struct.angle::A8"*
  %47 = getelementptr inbounds i8, i8* %28, i64 %34
  %48 = bitcast i8* %47 to %"struct.angle::A8"*
  call void @llvm.lifetime.start.p0i8(i64 1, i8* nonnull %18) #5
  store i8 -86, i8* %18, align 1
  call void @llvm.lifetime.start.p0i8(i64 1, i8* nonnull %19) #5
  store i8 -86, i8* %19, align 1
  call void @_ZN5angle2A87averageEPS0_PKS0_S3_(%"struct.angle::A8"* nonnull %13, %"struct.angle::A8"* %38, %"struct.angle::A8"* %40) #5
  call void @_ZN5angle2A87averageEPS0_PKS0_S3_(%"struct.angle::A8"* nonnull %14, %"struct.angle::A8"* %44, %"struct.angle::A8"* %46) #5
  call void @_ZN5angle2A87averageEPS0_PKS0_S3_(%"struct.angle::A8"* %48, %"struct.angle::A8"* nonnull %13, %"struct.angle::A8"* nonnull %14) #5
  call void @llvm.lifetime.end.p0i8(i64 1, i8* nonnull %19) #5
  call void @llvm.lifetime.end.p0i8(i64 1, i8* nonnull %18) #5
  %49 = add nuw i64 %34, 1
  %50 = icmp eq i64 %49, %6
  br i1 %50, label %30, label %33
}

; Function Attrs: nounwind ssp uwtable
define internal void @_ZN5angle4privL14GenerateMip_YZINS_2A8EEEvmmmPKhmmmmmPhmm(i64, i64, i64, i8*, i64, i64, i64, i64, i64, i8*, i64, i64) unnamed_addr #0 {
  %13 = alloca %"struct.angle::A8", align 1
  %14 = alloca %"struct.angle::A8", align 1
  %15 = icmp eq i64 %8, 0
  br i1 %15, label %29, label %16

16:                                               ; preds = %12
  %17 = icmp eq i64 %7, 0
  %18 = getelementptr inbounds %"struct.angle::A8", %"struct.angle::A8"* %13, i64 0, i32 0
  %19 = getelementptr inbounds %"struct.angle::A8", %"struct.angle::A8"* %14, i64 0, i32 0
  br label %20

20:                                               ; preds = %30, %16
  %21 = phi i64 [ 0, %16 ], [ %31, %30 ]
  br i1 %17, label %30, label %22

22:                                               ; preds = %20
  %23 = shl i64 %21, 1
  %24 = mul i64 %23, %5
  %25 = or i64 %23, 1
  %26 = mul i64 %25, %5
  %27 = mul i64 %21, %11
  %28 = getelementptr inbounds i8, i8* %9, i64 %27
  br label %33

29:                                               ; preds = %30, %12
  ret void

30:                                               ; preds = %33, %20
  %31 = add nuw i64 %21, 1
  %32 = icmp eq i64 %31, %8
  br i1 %32, label %29, label %20

33:                                               ; preds = %33, %22
  %34 = phi i64 [ 0, %22 ], [ %52, %33 ]
  %35 = shl i64 %34, 1
  %36 = mul i64 %35, %4
  %37 = getelementptr inbounds i8, i8* %3, i64 %36
  %38 = getelementptr inbounds i8, i8* %37, i64 %24
  %39 = bitcast i8* %38 to %"struct.angle::A8"*
  %40 = getelementptr inbounds i8, i8* %37, i64 %26
  %41 = bitcast i8* %40 to %"struct.angle::A8"*
  %42 = or i64 %35, 1
  %43 = mul i64 %42, %4
  %44 = getelementptr inbounds i8, i8* %3, i64 %43
  %45 = getelementptr inbounds i8, i8* %44, i64 %24
  %46 = bitcast i8* %45 to %"struct.angle::A8"*
  %47 = getelementptr inbounds i8, i8* %44, i64 %26
  %48 = bitcast i8* %47 to %"struct.angle::A8"*
  %49 = mul i64 %34, %10
  %50 = getelementptr inbounds i8, i8* %28, i64 %49
  %51 = bitcast i8* %50 to %"struct.angle::A8"*
  call void @llvm.lifetime.start.p0i8(i64 1, i8* nonnull %18) #5
  store i8 -86, i8* %18, align 1
  call void @llvm.lifetime.start.p0i8(i64 1, i8* nonnull %19) #5
  store i8 -86, i8* %19, align 1
  call void @_ZN5angle2A87averageEPS0_PKS0_S3_(%"struct.angle::A8"* nonnull %13, %"struct.angle::A8"* %39, %"struct.angle::A8"* %41) #5
  call void @_ZN5angle2A87averageEPS0_PKS0_S3_(%"struct.angle::A8"* nonnull %14, %"struct.angle::A8"* %46, %"struct.angle::A8"* %48) #5
  call void @_ZN5angle2A87averageEPS0_PKS0_S3_(%"struct.angle::A8"* %51, %"struct.angle::A8"* nonnull %13, %"struct.angle::A8"* nonnull %14) #5
  call void @llvm.lifetime.end.p0i8(i64 1, i8* nonnull %19) #5
  call void @llvm.lifetime.end.p0i8(i64 1, i8* nonnull %18) #5
  %52 = add nuw i64 %34, 1
  %53 = icmp eq i64 %52, %7
  br i1 %53, label %30, label %33
}

; Function Attrs: nounwind ssp uwtable
define internal void @_ZN5angle4privL15GenerateMip_XYZINS_2A8EEEvmmmPKhmmmmmPhmm(i64, i64, i64, i8*, i64, i64, i64, i64, i64, i8*, i64, i64) unnamed_addr #0 {
  %13 = alloca %"struct.angle::A8", align 1
  %14 = alloca %"struct.angle::A8", align 1
  %15 = alloca %"struct.angle::A8", align 1
  %16 = alloca %"struct.angle::A8", align 1
  %17 = alloca %"struct.angle::A8", align 1
  %18 = alloca %"struct.angle::A8", align 1
  %19 = icmp eq i64 %8, 0
  br i1 %19, label %38, label %20

20:                                               ; preds = %12
  %21 = icmp eq i64 %7, 0
  %22 = icmp eq i64 %6, 0
  %23 = getelementptr inbounds %"struct.angle::A8", %"struct.angle::A8"* %13, i64 0, i32 0
  %24 = getelementptr inbounds %"struct.angle::A8", %"struct.angle::A8"* %14, i64 0, i32 0
  %25 = getelementptr inbounds %"struct.angle::A8", %"struct.angle::A8"* %15, i64 0, i32 0
  %26 = getelementptr inbounds %"struct.angle::A8", %"struct.angle::A8"* %16, i64 0, i32 0
  %27 = getelementptr inbounds %"struct.angle::A8", %"struct.angle::A8"* %17, i64 0, i32 0
  %28 = getelementptr inbounds %"struct.angle::A8", %"struct.angle::A8"* %18, i64 0, i32 0
  br label %29

29:                                               ; preds = %48, %20
  %30 = phi i64 [ 0, %20 ], [ %49, %48 ]
  br i1 %21, label %48, label %31

31:                                               ; preds = %29
  %32 = shl i64 %30, 1
  %33 = mul i64 %32, %5
  %34 = or i64 %32, 1
  %35 = mul i64 %34, %5
  %36 = mul i64 %30, %11
  %37 = getelementptr inbounds i8, i8* %9, i64 %36
  br label %39

38:                                               ; preds = %48, %12
  ret void

39:                                               ; preds = %51, %31
  %40 = phi i64 [ 0, %31 ], [ %52, %51 ]
  br i1 %22, label %51, label %41

41:                                               ; preds = %39
  %42 = shl i64 %40, 1
  %43 = mul i64 %42, %4
  %44 = or i64 %42, 1
  %45 = mul i64 %44, %4
  %46 = mul i64 %40, %10
  %47 = getelementptr inbounds i8, i8* %37, i64 %46
  br label %54

48:                                               ; preds = %51, %29
  %49 = add nuw i64 %30, 1
  %50 = icmp eq i64 %49, %8
  br i1 %50, label %38, label %29

51:                                               ; preds = %54, %39
  %52 = add nuw i64 %40, 1
  %53 = icmp eq i64 %52, %7
  br i1 %53, label %48, label %39

54:                                               ; preds = %54, %41
  %55 = phi i64 [ 0, %41 ], [ %82, %54 ]
  %56 = shl i64 %55, 1
  %57 = getelementptr inbounds i8, i8* %3, i64 %56
  %58 = getelementptr inbounds i8, i8* %57, i64 %43
  %59 = getelementptr inbounds i8, i8* %58, i64 %33
  %60 = bitcast i8* %59 to %"struct.angle::A8"*
  %61 = getelementptr inbounds i8, i8* %58, i64 %35
  %62 = bitcast i8* %61 to %"struct.angle::A8"*
  %63 = getelementptr inbounds i8, i8* %57, i64 %45
  %64 = getelementptr inbounds i8, i8* %63, i64 %33
  %65 = bitcast i8* %64 to %"struct.angle::A8"*
  %66 = getelementptr inbounds i8, i8* %63, i64 %35
  %67 = bitcast i8* %66 to %"struct.angle::A8"*
  %68 = or i64 %56, 1
  %69 = getelementptr inbounds i8, i8* %3, i64 %68
  %70 = getelementptr inbounds i8, i8* %69, i64 %43
  %71 = getelementptr inbounds i8, i8* %70, i64 %33
  %72 = bitcast i8* %71 to %"struct.angle::A8"*
  %73 = getelementptr inbounds i8, i8* %70, i64 %35
  %74 = bitcast i8* %73 to %"struct.angle::A8"*
  %75 = getelementptr inbounds i8, i8* %69, i64 %45
  %76 = getelementptr inbounds i8, i8* %75, i64 %33
  %77 = bitcast i8* %76 to %"struct.angle::A8"*
  %78 = getelementptr inbounds i8, i8* %75, i64 %35
  %79 = bitcast i8* %78 to %"struct.angle::A8"*
  %80 = getelementptr inbounds i8, i8* %47, i64 %55
  %81 = bitcast i8* %80 to %"struct.angle::A8"*
  call void @llvm.lifetime.start.p0i8(i64 1, i8* nonnull %23) #5
  store i8 -86, i8* %23, align 1
  call void @llvm.lifetime.start.p0i8(i64 1, i8* nonnull %24) #5
  store i8 -86, i8* %24, align 1
  call void @llvm.lifetime.start.p0i8(i64 1, i8* nonnull %25) #5
  store i8 -86, i8* %25, align 1
  call void @llvm.lifetime.start.p0i8(i64 1, i8* nonnull %26) #5
  store i8 -86, i8* %26, align 1
  call void @llvm.lifetime.start.p0i8(i64 1, i8* nonnull %27) #5
  store i8 -86, i8* %27, align 1
  call void @llvm.lifetime.start.p0i8(i64 1, i8* nonnull %28) #5
  store i8 -86, i8* %28, align 1
  call void @_ZN5angle2A87averageEPS0_PKS0_S3_(%"struct.angle::A8"* nonnull %13, %"struct.angle::A8"* %60, %"struct.angle::A8"* %62) #5
  call void @_ZN5angle2A87averageEPS0_PKS0_S3_(%"struct.angle::A8"* nonnull %14, %"struct.angle::A8"* %65, %"struct.angle::A8"* %67) #5
  call void @_ZN5angle2A87averageEPS0_PKS0_S3_(%"struct.angle::A8"* nonnull %15, %"struct.angle::A8"* %72, %"struct.angle::A8"* %74) #5
  call void @_ZN5angle2A87averageEPS0_PKS0_S3_(%"struct.angle::A8"* nonnull %16, %"struct.angle::A8"* %77, %"struct.angle::A8"* %79) #5
  call void @_ZN5angle2A87averageEPS0_PKS0_S3_(%"struct.angle::A8"* nonnull %17, %"struct.angle::A8"* nonnull %13, %"struct.angle::A8"* nonnull %14) #5
  call void @_ZN5angle2A87averageEPS0_PKS0_S3_(%"struct.angle::A8"* nonnull %18, %"struct.angle::A8"* nonnull %15, %"struct.angle::A8"* nonnull %16) #5
  call void @_ZN5angle2A87averageEPS0_PKS0_S3_(%"struct.angle::A8"* %81, %"struct.angle::A8"* nonnull %17, %"struct.angle::A8"* nonnull %18) #5
  call void @llvm.lifetime.end.p0i8(i64 1, i8* nonnull %28) #5
  call void @llvm.lifetime.end.p0i8(i64 1, i8* nonnull %27) #5
  call void @llvm.lifetime.end.p0i8(i64 1, i8* nonnull %26) #5
  call void @llvm.lifetime.end.p0i8(i64 1, i8* nonnull %25) #5
  call void @llvm.lifetime.end.p0i8(i64 1, i8* nonnull %24) #5
  call void @llvm.lifetime.end.p0i8(i64 1, i8* nonnull %23) #5
  %82 = add nuw i64 %55, 1
  %83 = icmp eq i64 %82, %6
  br i1 %83, label %51, label %54
}

declare void @_ZN5angle2A87averageEPS0_PKS0_S3_(%"struct.angle::A8"*, %"struct.angle::A8"*, %"struct.angle::A8"*) local_unnamed_addr #3

declare void @_ZN5angle2A89readColorEPNS_5ColorIfEEPKS0_(%"struct.angle::Color"*, %"struct.angle::A8"*) local_unnamed_addr #3

declare void @_ZN5angle2A810writeColorEPS0_PKNS_5ColorIfEE(%"struct.angle::A8"*, %"struct.angle::Color"*) local_unnamed_addr #3

; Function Attrs: nounwind ssp uwtable
define internal void @_ZN5angle4privL13GenerateMip_XINS_11B10G10R10A2EEEvmmmPKhmmmmmPhmm(i64, i64, i64, i8*, i64, i64, i64, i64, i64, i8*, i64, i64) unnamed_addr #0 {
  %13 = icmp eq i64 %6, 0
  br i1 %13, label %14, label %15

14:                                               ; preds = %15, %12
  ret void

15:                                               ; preds = %12, %15
  %16 = phi i64 [ %26, %15 ], [ 0, %12 ]
  %17 = shl i64 %16, 3
  %18 = getelementptr inbounds i8, i8* %3, i64 %17
  %19 = bitcast i8* %18 to %"struct.angle::B10G10R10A2"*
  %20 = or i64 %17, 4
  %21 = getelementptr inbounds i8, i8* %3, i64 %20
  %22 = bitcast i8* %21 to %"struct.angle::B10G10R10A2"*
  %23 = shl i64 %16, 2
  %24 = getelementptr inbounds i8, i8* %9, i64 %23
  %25 = bitcast i8* %24 to %"struct.angle::B10G10R10A2"*
  tail call void @_ZN5angle11B10G10R10A27averageEPS0_PKS0_S3_(%"struct.angle::B10G10R10A2"* %25, %"struct.angle::B10G10R10A2"* %19, %"struct.angle::B10G10R10A2"* %22) #5
  %26 = add nuw i64 %16, 1
  %27 = icmp eq i64 %26, %6
  br i1 %27, label %14, label %15
}

; Function Attrs: nounwind ssp uwtable
define internal void @_ZN5angle4privL13GenerateMip_YINS_11B10G10R10A2EEEvmmmPKhmmmmmPhmm(i64, i64, i64, i8*, i64, i64, i64, i64, i64, i8*, i64, i64) unnamed_addr #0 {
  %13 = icmp eq i64 %7, 0
  br i1 %13, label %14, label %15

14:                                               ; preds = %15, %12
  ret void

15:                                               ; preds = %12, %15
  %16 = phi i64 [ %28, %15 ], [ 0, %12 ]
  %17 = shl i64 %16, 1
  %18 = mul i64 %17, %4
  %19 = getelementptr inbounds i8, i8* %3, i64 %18
  %20 = bitcast i8* %19 to %"struct.angle::B10G10R10A2"*
  %21 = or i64 %17, 1
  %22 = mul i64 %21, %4
  %23 = getelementptr inbounds i8, i8* %3, i64 %22
  %24 = bitcast i8* %23 to %"struct.angle::B10G10R10A2"*
  %25 = mul i64 %16, %10
  %26 = getelementptr inbounds i8, i8* %9, i64 %25
  %27 = bitcast i8* %26 to %"struct.angle::B10G10R10A2"*
  tail call void @_ZN5angle11B10G10R10A27averageEPS0_PKS0_S3_(%"struct.angle::B10G10R10A2"* %27, %"struct.angle::B10G10R10A2"* %20, %"struct.angle::B10G10R10A2"* %24) #5
  %28 = add nuw i64 %16, 1
  %29 = icmp eq i64 %28, %7
  br i1 %29, label %14, label %15
}

; Function Attrs: nounwind ssp uwtable
define internal void @_ZN5angle4privL14GenerateMip_XYINS_11B10G10R10A2EEEvmmmPKhmmmmmPhmm(i64, i64, i64, i8*, i64, i64, i64, i64, i64, i8*, i64, i64) unnamed_addr #0 {
  %13 = alloca %"struct.angle::B10G10R10A2", align 4
  %14 = alloca %"struct.angle::B10G10R10A2", align 4
  %15 = icmp eq i64 %7, 0
  br i1 %15, label %31, label %16

16:                                               ; preds = %12
  %17 = icmp eq i64 %6, 0
  %18 = bitcast %"struct.angle::B10G10R10A2"* %13 to i8*
  %19 = getelementptr inbounds %"struct.angle::B10G10R10A2", %"struct.angle::B10G10R10A2"* %13, i64 0, i32 0
  %20 = bitcast %"struct.angle::B10G10R10A2"* %14 to i8*
  %21 = getelementptr inbounds %"struct.angle::B10G10R10A2", %"struct.angle::B10G10R10A2"* %14, i64 0, i32 0
  br label %22

22:                                               ; preds = %32, %16
  %23 = phi i64 [ 0, %16 ], [ %33, %32 ]
  br i1 %17, label %32, label %24

24:                                               ; preds = %22
  %25 = shl i64 %23, 1
  %26 = mul i64 %25, %4
  %27 = or i64 %25, 1
  %28 = mul i64 %27, %4
  %29 = mul i64 %23, %10
  %30 = getelementptr inbounds i8, i8* %9, i64 %29
  br label %35

31:                                               ; preds = %32, %12
  ret void

32:                                               ; preds = %35, %22
  %33 = add nuw i64 %23, 1
  %34 = icmp eq i64 %33, %7
  br i1 %34, label %31, label %22

35:                                               ; preds = %35, %24
  %36 = phi i64 [ 0, %24 ], [ %52, %35 ]
  %37 = shl i64 %36, 3
  %38 = getelementptr inbounds i8, i8* %3, i64 %37
  %39 = getelementptr inbounds i8, i8* %38, i64 %26
  %40 = bitcast i8* %39 to %"struct.angle::B10G10R10A2"*
  %41 = getelementptr inbounds i8, i8* %38, i64 %28
  %42 = bitcast i8* %41 to %"struct.angle::B10G10R10A2"*
  %43 = or i64 %37, 4
  %44 = getelementptr inbounds i8, i8* %3, i64 %43
  %45 = getelementptr inbounds i8, i8* %44, i64 %26
  %46 = bitcast i8* %45 to %"struct.angle::B10G10R10A2"*
  %47 = getelementptr inbounds i8, i8* %44, i64 %28
  %48 = bitcast i8* %47 to %"struct.angle::B10G10R10A2"*
  %49 = shl i64 %36, 2
  %50 = getelementptr inbounds i8, i8* %30, i64 %49
  %51 = bitcast i8* %50 to %"struct.angle::B10G10R10A2"*
  call void @llvm.lifetime.start.p0i8(i64 4, i8* nonnull %18) #5
  store i32 -1431655766, i32* %19, align 4
  call void @llvm.lifetime.start.p0i8(i64 4, i8* nonnull %20) #5
  store i32 -1431655766, i32* %21, align 4
  call void @_ZN5angle11B10G10R10A27averageEPS0_PKS0_S3_(%"struct.angle::B10G10R10A2"* nonnull %13, %"struct.angle::B10G10R10A2"* %40, %"struct.angle::B10G10R10A2"* %42) #5
  call void @_ZN5angle11B10G10R10A27averageEPS0_PKS0_S3_(%"struct.angle::B10G10R10A2"* nonnull %14, %"struct.angle::B10G10R10A2"* %46, %"struct.angle::B10G10R10A2"* %48) #5
  call void @_ZN5angle11B10G10R10A27averageEPS0_PKS0_S3_(%"struct.angle::B10G10R10A2"* %51, %"struct.angle::B10G10R10A2"* nonnull %13, %"struct.angle::B10G10R10A2"* nonnull %14) #5
  call void @llvm.lifetime.end.p0i8(i64 4, i8* nonnull %20) #5
  call void @llvm.lifetime.end.p0i8(i64 4, i8* nonnull %18) #5
  %52 = add nuw i64 %36, 1
  %53 = icmp eq i64 %52, %6
  br i1 %53, label %32, label %35
}

; Function Attrs: nounwind ssp uwtable
define internal void @_ZN5angle4privL13GenerateMip_ZINS_11B10G10R10A2EEEvmmmPKhmmmmmPhmm(i64, i64, i64, i8*, i64, i64, i64, i64, i64, i8*, i64, i64) unnamed_addr #0 {
  %13 = icmp eq i64 %8, 0
  br i1 %13, label %14, label %15

14:                                               ; preds = %15, %12
  ret void

15:                                               ; preds = %12, %15
  %16 = phi i64 [ %28, %15 ], [ 0, %12 ]
  %17 = shl i64 %16, 1
  %18 = mul i64 %17, %5
  %19 = getelementptr inbounds i8, i8* %3, i64 %18
  %20 = bitcast i8* %19 to %"struct.angle::B10G10R10A2"*
  %21 = or i64 %17, 1
  %22 = mul i64 %21, %5
  %23 = getelementptr inbounds i8, i8* %3, i64 %22
  %24 = bitcast i8* %23 to %"struct.angle::B10G10R10A2"*
  %25 = mul i64 %16, %11
  %26 = getelementptr inbounds i8, i8* %9, i64 %25
  %27 = bitcast i8* %26 to %"struct.angle::B10G10R10A2"*
  tail call void @_ZN5angle11B10G10R10A27averageEPS0_PKS0_S3_(%"struct.angle::B10G10R10A2"* %27, %"struct.angle::B10G10R10A2"* %20, %"struct.angle::B10G10R10A2"* %24) #5
  %28 = add nuw i64 %16, 1
  %29 = icmp eq i64 %28, %8
  br i1 %29, label %14, label %15
}

; Function Attrs: nounwind ssp uwtable
define internal void @_ZN5angle4privL14GenerateMip_XZINS_11B10G10R10A2EEEvmmmPKhmmmmmPhmm(i64, i64, i64, i8*, i64, i64, i64, i64, i64, i8*, i64, i64) unnamed_addr #0 {
  %13 = alloca %"struct.angle::B10G10R10A2", align 4
  %14 = alloca %"struct.angle::B10G10R10A2", align 4
  %15 = icmp eq i64 %8, 0
  br i1 %15, label %31, label %16

16:                                               ; preds = %12
  %17 = icmp eq i64 %6, 0
  %18 = bitcast %"struct.angle::B10G10R10A2"* %13 to i8*
  %19 = getelementptr inbounds %"struct.angle::B10G10R10A2", %"struct.angle::B10G10R10A2"* %13, i64 0, i32 0
  %20 = bitcast %"struct.angle::B10G10R10A2"* %14 to i8*
  %21 = getelementptr inbounds %"struct.angle::B10G10R10A2", %"struct.angle::B10G10R10A2"* %14, i64 0, i32 0
  br label %22

22:                                               ; preds = %32, %16
  %23 = phi i64 [ 0, %16 ], [ %33, %32 ]
  br i1 %17, label %32, label %24

24:                                               ; preds = %22
  %25 = shl i64 %23, 1
  %26 = mul i64 %25, %5
  %27 = or i64 %25, 1
  %28 = mul i64 %27, %5
  %29 = mul i64 %23, %11
  %30 = getelementptr inbounds i8, i8* %9, i64 %29
  br label %35

31:                                               ; preds = %32, %12
  ret void

32:                                               ; preds = %35, %22
  %33 = add nuw i64 %23, 1
  %34 = icmp eq i64 %33, %8
  br i1 %34, label %31, label %22

35:                                               ; preds = %35, %24
  %36 = phi i64 [ 0, %24 ], [ %52, %35 ]
  %37 = shl i64 %36, 3
  %38 = getelementptr inbounds i8, i8* %3, i64 %37
  %39 = getelementptr inbounds i8, i8* %38, i64 %26
  %40 = bitcast i8* %39 to %"struct.angle::B10G10R10A2"*
  %41 = getelementptr inbounds i8, i8* %38, i64 %28
  %42 = bitcast i8* %41 to %"struct.angle::B10G10R10A2"*
  %43 = or i64 %37, 4
  %44 = getelementptr inbounds i8, i8* %3, i64 %43
  %45 = getelementptr inbounds i8, i8* %44, i64 %26
  %46 = bitcast i8* %45 to %"struct.angle::B10G10R10A2"*
  %47 = getelementptr inbounds i8, i8* %44, i64 %28
  %48 = bitcast i8* %47 to %"struct.angle::B10G10R10A2"*
  %49 = shl i64 %36, 2
  %50 = getelementptr inbounds i8, i8* %30, i64 %49
  %51 = bitcast i8* %50 to %"struct.angle::B10G10R10A2"*
  call void @llvm.lifetime.start.p0i8(i64 4, i8* nonnull %18) #5
  store i32 -1431655766, i32* %19, align 4
  call void @llvm.lifetime.start.p0i8(i64 4, i8* nonnull %20) #5
  store i32 -1431655766, i32* %21, align 4
  call void @_ZN5angle11B10G10R10A27averageEPS0_PKS0_S3_(%"struct.angle::B10G10R10A2"* nonnull %13, %"struct.angle::B10G10R10A2"* %40, %"struct.angle::B10G10R10A2"* %42) #5
  call void @_ZN5angle11B10G10R10A27averageEPS0_PKS0_S3_(%"struct.angle::B10G10R10A2"* nonnull %14, %"struct.angle::B10G10R10A2"* %46, %"struct.angle::B10G10R10A2"* %48) #5
  call void @_ZN5angle11B10G10R10A27averageEPS0_PKS0_S3_(%"struct.angle::B10G10R10A2"* %51, %"struct.angle::B10G10R10A2"* nonnull %13, %"struct.angle::B10G10R10A2"* nonnull %14) #5
  call void @llvm.lifetime.end.p0i8(i64 4, i8* nonnull %20) #5
  call void @llvm.lifetime.end.p0i8(i64 4, i8* nonnull %18) #5
  %52 = add nuw i64 %36, 1
  %53 = icmp eq i64 %52, %6
  br i1 %53, label %32, label %35
}

; Function Attrs: nounwind ssp uwtable
define internal void @_ZN5angle4privL14GenerateMip_YZINS_11B10G10R10A2EEEvmmmPKhmmmmmPhmm(i64, i64, i64, i8*, i64, i64, i64, i64, i64, i8*, i64, i64) unnamed_addr #0 {
  %13 = alloca %"struct.angle::B10G10R10A2", align 4
  %14 = alloca %"struct.angle::B10G10R10A2", align 4
  %15 = icmp eq i64 %8, 0
  br i1 %15, label %31, label %16

16:                                               ; preds = %12
  %17 = icmp eq i64 %7, 0
  %18 = bitcast %"struct.angle::B10G10R10A2"* %13 to i8*
  %19 = getelementptr inbounds %"struct.angle::B10G10R10A2", %"struct.angle::B10G10R10A2"* %13, i64 0, i32 0
  %20 = bitcast %"struct.angle::B10G10R10A2"* %14 to i8*
  %21 = getelementptr inbounds %"struct.angle::B10G10R10A2", %"struct.angle::B10G10R10A2"* %14, i64 0, i32 0
  br label %22

22:                                               ; preds = %32, %16
  %23 = phi i64 [ 0, %16 ], [ %33, %32 ]
  br i1 %17, label %32, label %24

24:                                               ; preds = %22
  %25 = shl i64 %23, 1
  %26 = mul i64 %25, %5
  %27 = or i64 %25, 1
  %28 = mul i64 %27, %5
  %29 = mul i64 %23, %11
  %30 = getelementptr inbounds i8, i8* %9, i64 %29
  br label %35

31:                                               ; preds = %32, %12
  ret void

32:                                               ; preds = %35, %22
  %33 = add nuw i64 %23, 1
  %34 = icmp eq i64 %33, %8
  br i1 %34, label %31, label %22

35:                                               ; preds = %35, %24
  %36 = phi i64 [ 0, %24 ], [ %54, %35 ]
  %37 = shl i64 %36, 1
  %38 = mul i64 %37, %4
  %39 = getelementptr inbounds i8, i8* %3, i64 %38
  %40 = getelementptr inbounds i8, i8* %39, i64 %26
  %41 = bitcast i8* %40 to %"struct.angle::B10G10R10A2"*
  %42 = getelementptr inbounds i8, i8* %39, i64 %28
  %43 = bitcast i8* %42 to %"struct.angle::B10G10R10A2"*
  %44 = or i64 %37, 1
  %45 = mul i64 %44, %4
  %46 = getelementptr inbounds i8, i8* %3, i64 %45
  %47 = getelementptr inbounds i8, i8* %46, i64 %26
  %48 = bitcast i8* %47 to %"struct.angle::B10G10R10A2"*
  %49 = getelementptr inbounds i8, i8* %46, i64 %28
  %50 = bitcast i8* %49 to %"struct.angle::B10G10R10A2"*
  %51 = mul i64 %36, %10
  %52 = getelementptr inbounds i8, i8* %30, i64 %51
  %53 = bitcast i8* %52 to %"struct.angle::B10G10R10A2"*
  call void @llvm.lifetime.start.p0i8(i64 4, i8* nonnull %18) #5
  store i32 -1431655766, i32* %19, align 4
  call void @llvm.lifetime.start.p0i8(i64 4, i8* nonnull %20) #5
  store i32 -1431655766, i32* %21, align 4
  call void @_ZN5angle11B10G10R10A27averageEPS0_PKS0_S3_(%"struct.angle::B10G10R10A2"* nonnull %13, %"struct.angle::B10G10R10A2"* %41, %"struct.angle::B10G10R10A2"* %43) #5
  call void @_ZN5angle11B10G10R10A27averageEPS0_PKS0_S3_(%"struct.angle::B10G10R10A2"* nonnull %14, %"struct.angle::B10G10R10A2"* %48, %"struct.angle::B10G10R10A2"* %50) #5
  call void @_ZN5angle11B10G10R10A27averageEPS0_PKS0_S3_(%"struct.angle::B10G10R10A2"* %53, %"struct.angle::B10G10R10A2"* nonnull %13, %"struct.angle::B10G10R10A2"* nonnull %14) #5
  call void @llvm.lifetime.end.p0i8(i64 4, i8* nonnull %20) #5
  call void @llvm.lifetime.end.p0i8(i64 4, i8* nonnull %18) #5
  %54 = add nuw i64 %36, 1
  %55 = icmp eq i64 %54, %7
  br i1 %55, label %32, label %35
}

; Function Attrs: nounwind ssp uwtable
define internal void @_ZN5angle4privL15GenerateMip_XYZINS_11B10G10R10A2EEEvmmmPKhmmmmmPhmm(i64, i64, i64, i8*, i64, i64, i64, i64, i64, i8*, i64, i64) unnamed_addr #0 {
  %13 = alloca %"struct.angle::B10G10R10A2", align 4
  %14 = alloca %"struct.angle::B10G10R10A2", align 4
  %15 = alloca %"struct.angle::B10G10R10A2", align 4
  %16 = alloca %"struct.angle::B10G10R10A2", align 4
  %17 = alloca %"struct.angle::B10G10R10A2", align 4
  %18 = alloca %"struct.angle::B10G10R10A2", align 4
  %19 = icmp eq i64 %8, 0
  br i1 %19, label %44, label %20

20:                                               ; preds = %12
  %21 = icmp eq i64 %7, 0
  %22 = icmp eq i64 %6, 0
  %23 = bitcast %"struct.angle::B10G10R10A2"* %13 to i8*
  %24 = getelementptr inbounds %"struct.angle::B10G10R10A2", %"struct.angle::B10G10R10A2"* %13, i64 0, i32 0
  %25 = bitcast %"struct.angle::B10G10R10A2"* %14 to i8*
  %26 = getelementptr inbounds %"struct.angle::B10G10R10A2", %"struct.angle::B10G10R10A2"* %14, i64 0, i32 0
  %27 = bitcast %"struct.angle::B10G10R10A2"* %15 to i8*
  %28 = getelementptr inbounds %"struct.angle::B10G10R10A2", %"struct.angle::B10G10R10A2"* %15, i64 0, i32 0
  %29 = bitcast %"struct.angle::B10G10R10A2"* %16 to i8*
  %30 = getelementptr inbounds %"struct.angle::B10G10R10A2", %"struct.angle::B10G10R10A2"* %16, i64 0, i32 0
  %31 = bitcast %"struct.angle::B10G10R10A2"* %17 to i8*
  %32 = getelementptr inbounds %"struct.angle::B10G10R10A2", %"struct.angle::B10G10R10A2"* %17, i64 0, i32 0
  %33 = bitcast %"struct.angle::B10G10R10A2"* %18 to i8*
  %34 = getelementptr inbounds %"struct.angle::B10G10R10A2", %"struct.angle::B10G10R10A2"* %18, i64 0, i32 0
  br label %35

35:                                               ; preds = %54, %20
  %36 = phi i64 [ 0, %20 ], [ %55, %54 ]
  br i1 %21, label %54, label %37

37:                                               ; preds = %35
  %38 = shl i64 %36, 1
  %39 = mul i64 %38, %5
  %40 = or i64 %38, 1
  %41 = mul i64 %40, %5
  %42 = mul i64 %36, %11
  %43 = getelementptr inbounds i8, i8* %9, i64 %42
  br label %45

44:                                               ; preds = %54, %12
  ret void

45:                                               ; preds = %57, %37
  %46 = phi i64 [ 0, %37 ], [ %58, %57 ]
  br i1 %22, label %57, label %47

47:                                               ; preds = %45
  %48 = shl i64 %46, 1
  %49 = mul i64 %48, %4
  %50 = or i64 %48, 1
  %51 = mul i64 %50, %4
  %52 = mul i64 %46, %10
  %53 = getelementptr inbounds i8, i8* %43, i64 %52
  br label %60

54:                                               ; preds = %57, %35
  %55 = add nuw i64 %36, 1
  %56 = icmp eq i64 %55, %8
  br i1 %56, label %44, label %35

57:                                               ; preds = %60, %45
  %58 = add nuw i64 %46, 1
  %59 = icmp eq i64 %58, %7
  br i1 %59, label %54, label %45

60:                                               ; preds = %60, %47
  %61 = phi i64 [ 0, %47 ], [ %89, %60 ]
  %62 = shl i64 %61, 3
  %63 = getelementptr inbounds i8, i8* %3, i64 %62
  %64 = getelementptr inbounds i8, i8* %63, i64 %49
  %65 = getelementptr inbounds i8, i8* %64, i64 %39
  %66 = bitcast i8* %65 to %"struct.angle::B10G10R10A2"*
  %67 = getelementptr inbounds i8, i8* %64, i64 %41
  %68 = bitcast i8* %67 to %"struct.angle::B10G10R10A2"*
  %69 = getelementptr inbounds i8, i8* %63, i64 %51
  %70 = getelementptr inbounds i8, i8* %69, i64 %39
  %71 = bitcast i8* %70 to %"struct.angle::B10G10R10A2"*
  %72 = getelementptr inbounds i8, i8* %69, i64 %41
  %73 = bitcast i8* %72 to %"struct.angle::B10G10R10A2"*
  %74 = or i64 %62, 4
  %75 = getelementptr inbounds i8, i8* %3, i64 %74
  %76 = getelementptr inbounds i8, i8* %75, i64 %49
  %77 = getelementptr inbounds i8, i8* %76, i64 %39
  %78 = bitcast i8* %77 to %"struct.angle::B10G10R10A2"*
  %79 = getelementptr inbounds i8, i8* %76, i64 %41
  %80 = bitcast i8* %79 to %"struct.angle::B10G10R10A2"*
  %81 = getelementptr inbounds i8, i8* %75, i64 %51
  %82 = getelementptr inbounds i8, i8* %81, i64 %39
  %83 = bitcast i8* %82 to %"struct.angle::B10G10R10A2"*
  %84 = getelementptr inbounds i8, i8* %81, i64 %41
  %85 = bitcast i8* %84 to %"struct.angle::B10G10R10A2"*
  %86 = shl i64 %61, 2
  %87 = getelementptr inbounds i8, i8* %53, i64 %86
  %88 = bitcast i8* %87 to %"struct.angle::B10G10R10A2"*
  call void @llvm.lifetime.start.p0i8(i64 4, i8* nonnull %23) #5
  store i32 -1431655766, i32* %24, align 4
  call void @llvm.lifetime.start.p0i8(i64 4, i8* nonnull %25) #5
  store i32 -1431655766, i32* %26, align 4
  call void @llvm.lifetime.start.p0i8(i64 4, i8* nonnull %27) #5
  store i32 -1431655766, i32* %28, align 4
  call void @llvm.lifetime.start.p0i8(i64 4, i8* nonnull %29) #5
  store i32 -1431655766, i32* %30, align 4
  call void @llvm.lifetime.start.p0i8(i64 4, i8* nonnull %31) #5
  store i32 -1431655766, i32* %32, align 4
  call void @llvm.lifetime.start.p0i8(i64 4, i8* nonnull %33) #5
  store i32 -1431655766, i32* %34, align 4
  call void @_ZN5angle11B10G10R10A27averageEPS0_PKS0_S3_(%"struct.angle::B10G10R10A2"* nonnull %13, %"struct.angle::B10G10R10A2"* %66, %"struct.angle::B10G10R10A2"* %68) #5
  call void @_ZN5angle11B10G10R10A27averageEPS0_PKS0_S3_(%"struct.angle::B10G10R10A2"* nonnull %14, %"struct.angle::B10G10R10A2"* %71, %"struct.angle::B10G10R10A2"* %73) #5
  call void @_ZN5angle11B10G10R10A27averageEPS0_PKS0_S3_(%"struct.angle::B10G10R10A2"* nonnull %15, %"struct.angle::B10G10R10A2"* %78, %"struct.angle::B10G10R10A2"* %80) #5
  call void @_ZN5angle11B10G10R10A27averageEPS0_PKS0_S3_(%"struct.angle::B10G10R10A2"* nonnull %16, %"struct.angle::B10G10R10A2"* %83, %"struct.angle::B10G10R10A2"* %85) #5
  call void @_ZN5angle11B10G10R10A27averageEPS0_PKS0_S3_(%"struct.angle::B10G10R10A2"* nonnull %17, %"struct.angle::B10G10R10A2"* nonnull %13, %"struct.angle::B10G10R10A2"* nonnull %14) #5
  call void @_ZN5angle11B10G10R10A27averageEPS0_PKS0_S3_(%"struct.angle::B10G10R10A2"* nonnull %18, %"struct.angle::B10G10R10A2"* nonnull %15, %"struct.angle::B10G10R10A2"* nonnull %16) #5
  call void @_ZN5angle11B10G10R10A27averageEPS0_PKS0_S3_(%"struct.angle::B10G10R10A2"* %88, %"struct.angle::B10G10R10A2"* nonnull %17, %"struct.angle::B10G10R10A2"* nonnull %18) #5
  call void @llvm.lifetime.end.p0i8(i64 4, i8* nonnull %33) #5
  call void @llvm.lifetime.end.p0i8(i64 4, i8* nonnull %31) #5
  call void @llvm.lifetime.end.p0i8(i64 4, i8* nonnull %29) #5
  call void @llvm.lifetime.end.p0i8(i64 4, i8* nonnull %27) #5
  call void @llvm.lifetime.end.p0i8(i64 4, i8* nonnull %25) #5
  call void @llvm.lifetime.end.p0i8(i64 4, i8* nonnull %23) #5
  %89 = add nuw i64 %61, 1
  %90 = icmp eq i64 %89, %6
  br i1 %90, label %57, label %60
}

declare void @_ZN5angle11B10G10R10A27averageEPS0_PKS0_S3_(%"struct.angle::B10G10R10A2"*, %"struct.angle::B10G10R10A2"*, %"struct.angle::B10G10R10A2"*) local_unnamed_addr #3

declare void @_ZN5angle11B10G10R10A29readColorEPNS_5ColorIfEEPKS0_(%"struct.angle::Color"*, %"struct.angle::B10G10R10A2"*) local_unnamed_addr #3

declare void @_ZN5angle11B10G10R10A210writeColorEPS0_PKNS_5ColorIfEE(%"struct.angle::B10G10R10A2"*, %"struct.angle::Color"*) local_unnamed_addr #3

; Function Attrs: nounwind ssp uwtable
define internal void @_ZN5angle4privL13GenerateMip_XINS_8A4R4G4B4EEEvmmmPKhmmmmmPhmm(i64, i64, i64, i8*, i64, i64, i64, i64, i64, i8*, i64, i64) unnamed_addr #0 {
  %13 = icmp eq i64 %6, 0
  br i1 %13, label %14, label %15

14:                                               ; preds = %15, %12
  ret void

15:                                               ; preds = %12, %15
  %16 = phi i64 [ %26, %15 ], [ 0, %12 ]
  %17 = shl i64 %16, 1
  %18 = shl i64 %16, 2
  %19 = getelementptr inbounds i8, i8* %3, i64 %18
  %20 = bitcast i8* %19 to %"struct.angle::A4R4G4B4"*
  %21 = or i64 %18, 2
  %22 = getelementptr inbounds i8, i8* %3, i64 %21
  %23 = bitcast i8* %22 to %"struct.angle::A4R4G4B4"*
  %24 = getelementptr inbounds i8, i8* %9, i64 %17
  %25 = bitcast i8* %24 to %"struct.angle::A4R4G4B4"*
  tail call void @_ZN5angle8A4R4G4B47averageEPS0_PKS0_S3_(%"struct.angle::A4R4G4B4"* %25, %"struct.angle::A4R4G4B4"* %20, %"struct.angle::A4R4G4B4"* %23) #5
  %26 = add nuw i64 %16, 1
  %27 = icmp eq i64 %26, %6
  br i1 %27, label %14, label %15
}

; Function Attrs: nounwind ssp uwtable
define internal void @_ZN5angle4privL13GenerateMip_YINS_8A4R4G4B4EEEvmmmPKhmmmmmPhmm(i64, i64, i64, i8*, i64, i64, i64, i64, i64, i8*, i64, i64) unnamed_addr #0 {
  %13 = icmp eq i64 %7, 0
  br i1 %13, label %14, label %15

14:                                               ; preds = %15, %12
  ret void

15:                                               ; preds = %12, %15
  %16 = phi i64 [ %28, %15 ], [ 0, %12 ]
  %17 = shl i64 %16, 1
  %18 = mul i64 %17, %4
  %19 = getelementptr inbounds i8, i8* %3, i64 %18
  %20 = bitcast i8* %19 to %"struct.angle::A4R4G4B4"*
  %21 = or i64 %17, 1
  %22 = mul i64 %21, %4
  %23 = getelementptr inbounds i8, i8* %3, i64 %22
  %24 = bitcast i8* %23 to %"struct.angle::A4R4G4B4"*
  %25 = mul i64 %16, %10
  %26 = getelementptr inbounds i8, i8* %9, i64 %25
  %27 = bitcast i8* %26 to %"struct.angle::A4R4G4B4"*
  tail call void @_ZN5angle8A4R4G4B47averageEPS0_PKS0_S3_(%"struct.angle::A4R4G4B4"* %27, %"struct.angle::A4R4G4B4"* %20, %"struct.angle::A4R4G4B4"* %24) #5
  %28 = add nuw i64 %16, 1
  %29 = icmp eq i64 %28, %7
  br i1 %29, label %14, label %15
}

; Function Attrs: nounwind ssp uwtable
define internal void @_ZN5angle4privL14GenerateMip_XYINS_8A4R4G4B4EEEvmmmPKhmmmmmPhmm(i64, i64, i64, i8*, i64, i64, i64, i64, i64, i8*, i64, i64) unnamed_addr #0 {
  %13 = alloca %"struct.angle::A4R4G4B4", align 2
  %14 = alloca %"struct.angle::A4R4G4B4", align 2
  %15 = icmp eq i64 %7, 0
  br i1 %15, label %31, label %16

16:                                               ; preds = %12
  %17 = icmp eq i64 %6, 0
  %18 = bitcast %"struct.angle::A4R4G4B4"* %13 to i8*
  %19 = getelementptr inbounds %"struct.angle::A4R4G4B4", %"struct.angle::A4R4G4B4"* %13, i64 0, i32 0
  %20 = bitcast %"struct.angle::A4R4G4B4"* %14 to i8*
  %21 = getelementptr inbounds %"struct.angle::A4R4G4B4", %"struct.angle::A4R4G4B4"* %14, i64 0, i32 0
  br label %22

22:                                               ; preds = %32, %16
  %23 = phi i64 [ 0, %16 ], [ %33, %32 ]
  br i1 %17, label %32, label %24

24:                                               ; preds = %22
  %25 = shl i64 %23, 1
  %26 = mul i64 %25, %4
  %27 = or i64 %25, 1
  %28 = mul i64 %27, %4
  %29 = mul i64 %23, %10
  %30 = getelementptr inbounds i8, i8* %9, i64 %29
  br label %35

31:                                               ; preds = %32, %12
  ret void

32:                                               ; preds = %35, %22
  %33 = add nuw i64 %23, 1
  %34 = icmp eq i64 %33, %7
  br i1 %34, label %31, label %22

35:                                               ; preds = %35, %24
  %36 = phi i64 [ 0, %24 ], [ %52, %35 ]
  %37 = shl i64 %36, 1
  %38 = shl i64 %36, 2
  %39 = getelementptr inbounds i8, i8* %3, i64 %38
  %40 = getelementptr inbounds i8, i8* %39, i64 %26
  %41 = bitcast i8* %40 to %"struct.angle::A4R4G4B4"*
  %42 = getelementptr inbounds i8, i8* %39, i64 %28
  %43 = bitcast i8* %42 to %"struct.angle::A4R4G4B4"*
  %44 = or i64 %38, 2
  %45 = getelementptr inbounds i8, i8* %3, i64 %44
  %46 = getelementptr inbounds i8, i8* %45, i64 %26
  %47 = bitcast i8* %46 to %"struct.angle::A4R4G4B4"*
  %48 = getelementptr inbounds i8, i8* %45, i64 %28
  %49 = bitcast i8* %48 to %"struct.angle::A4R4G4B4"*
  %50 = getelementptr inbounds i8, i8* %30, i64 %37
  %51 = bitcast i8* %50 to %"struct.angle::A4R4G4B4"*
  call void @llvm.lifetime.start.p0i8(i64 2, i8* nonnull %18) #5
  store i16 -21846, i16* %19, align 2
  call void @llvm.lifetime.start.p0i8(i64 2, i8* nonnull %20) #5
  store i16 -21846, i16* %21, align 2
  call void @_ZN5angle8A4R4G4B47averageEPS0_PKS0_S3_(%"struct.angle::A4R4G4B4"* nonnull %13, %"struct.angle::A4R4G4B4"* %41, %"struct.angle::A4R4G4B4"* %43) #5
  call void @_ZN5angle8A4R4G4B47averageEPS0_PKS0_S3_(%"struct.angle::A4R4G4B4"* nonnull %14, %"struct.angle::A4R4G4B4"* %47, %"struct.angle::A4R4G4B4"* %49) #5
  call void @_ZN5angle8A4R4G4B47averageEPS0_PKS0_S3_(%"struct.angle::A4R4G4B4"* %51, %"struct.angle::A4R4G4B4"* nonnull %13, %"struct.angle::A4R4G4B4"* nonnull %14) #5
  call void @llvm.lifetime.end.p0i8(i64 2, i8* nonnull %20) #5
  call void @llvm.lifetime.end.p0i8(i64 2, i8* nonnull %18) #5
  %52 = add nuw i64 %36, 1
  %53 = icmp eq i64 %52, %6
  br i1 %53, label %32, label %35
}

; Function Attrs: nounwind ssp uwtable
define internal void @_ZN5angle4privL13GenerateMip_ZINS_8A4R4G4B4EEEvmmmPKhmmmmmPhmm(i64, i64, i64, i8*, i64, i64, i64, i64, i64, i8*, i64, i64) unnamed_addr #0 {
  %13 = icmp eq i64 %8, 0
  br i1 %13, label %14, label %15

14:                                               ; preds = %15, %12
  ret void

15:                                               ; preds = %12, %15
  %16 = phi i64 [ %28, %15 ], [ 0, %12 ]
  %17 = shl i64 %16, 1
  %18 = mul i64 %17, %5
  %19 = getelementptr inbounds i8, i8* %3, i64 %18
  %20 = bitcast i8* %19 to %"struct.angle::A4R4G4B4"*
  %21 = or i64 %17, 1
  %22 = mul i64 %21, %5
  %23 = getelementptr inbounds i8, i8* %3, i64 %22
  %24 = bitcast i8* %23 to %"struct.angle::A4R4G4B4"*
  %25 = mul i64 %16, %11
  %26 = getelementptr inbounds i8, i8* %9, i64 %25
  %27 = bitcast i8* %26 to %"struct.angle::A4R4G4B4"*
  tail call void @_ZN5angle8A4R4G4B47averageEPS0_PKS0_S3_(%"struct.angle::A4R4G4B4"* %27, %"struct.angle::A4R4G4B4"* %20, %"struct.angle::A4R4G4B4"* %24) #5
  %28 = add nuw i64 %16, 1
  %29 = icmp eq i64 %28, %8
  br i1 %29, label %14, label %15
}

; Function Attrs: nounwind ssp uwtable
define internal void @_ZN5angle4privL14GenerateMip_XZINS_8A4R4G4B4EEEvmmmPKhmmmmmPhmm(i64, i64, i64, i8*, i64, i64, i64, i64, i64, i8*, i64, i64) unnamed_addr #0 {
  %13 = alloca %"struct.angle::A4R4G4B4", align 2
  %14 = alloca %"struct.angle::A4R4G4B4", align 2
  %15 = icmp eq i64 %8, 0
  br i1 %15, label %31, label %16

16:                                               ; preds = %12
  %17 = icmp eq i64 %6, 0
  %18 = bitcast %"struct.angle::A4R4G4B4"* %13 to i8*
  %19 = getelementptr inbounds %"struct.angle::A4R4G4B4", %"struct.angle::A4R4G4B4"* %13, i64 0, i32 0
  %20 = bitcast %"struct.angle::A4R4G4B4"* %14 to i8*
  %21 = getelementptr inbounds %"struct.angle::A4R4G4B4", %"struct.angle::A4R4G4B4"* %14, i64 0, i32 0
  br label %22

22:                                               ; preds = %32, %16
  %23 = phi i64 [ 0, %16 ], [ %33, %32 ]
  br i1 %17, label %32, label %24

24:                                               ; preds = %22
  %25 = shl i64 %23, 1
  %26 = mul i64 %25, %5
  %27 = or i64 %25, 1
  %28 = mul i64 %27, %5
  %29 = mul i64 %23, %11
  %30 = getelementptr inbounds i8, i8* %9, i64 %29
  br label %35

31:                                               ; preds = %32, %12
  ret void

32:                                               ; preds = %35, %22
  %33 = add nuw i64 %23, 1
  %34 = icmp eq i64 %33, %8
  br i1 %34, label %31, label %22

35:                                               ; preds = %35, %24
  %36 = phi i64 [ 0, %24 ], [ %52, %35 ]
  %37 = shl i64 %36, 1
  %38 = shl i64 %36, 2
  %39 = getelementptr inbounds i8, i8* %3, i64 %38
  %40 = getelementptr inbounds i8, i8* %39, i64 %26
  %41 = bitcast i8* %40 to %"struct.angle::A4R4G4B4"*
  %42 = getelementptr inbounds i8, i8* %39, i64 %28
  %43 = bitcast i8* %42 to %"struct.angle::A4R4G4B4"*
  %44 = or i64 %38, 2
  %45 = getelementptr inbounds i8, i8* %3, i64 %44
  %46 = getelementptr inbounds i8, i8* %45, i64 %26
  %47 = bitcast i8* %46 to %"struct.angle::A4R4G4B4"*
  %48 = getelementptr inbounds i8, i8* %45, i64 %28
  %49 = bitcast i8* %48 to %"struct.angle::A4R4G4B4"*
  %50 = getelementptr inbounds i8, i8* %30, i64 %37
  %51 = bitcast i8* %50 to %"struct.angle::A4R4G4B4"*
  call void @llvm.lifetime.start.p0i8(i64 2, i8* nonnull %18) #5
  store i16 -21846, i16* %19, align 2
  call void @llvm.lifetime.start.p0i8(i64 2, i8* nonnull %20) #5
  store i16 -21846, i16* %21, align 2
  call void @_ZN5angle8A4R4G4B47averageEPS0_PKS0_S3_(%"struct.angle::A4R4G4B4"* nonnull %13, %"struct.angle::A4R4G4B4"* %41, %"struct.angle::A4R4G4B4"* %43) #5
  call void @_ZN5angle8A4R4G4B47averageEPS0_PKS0_S3_(%"struct.angle::A4R4G4B4"* nonnull %14, %"struct.angle::A4R4G4B4"* %47, %"struct.angle::A4R4G4B4"* %49) #5
  call void @_ZN5angle8A4R4G4B47averageEPS0_PKS0_S3_(%"struct.angle::A4R4G4B4"* %51, %"struct.angle::A4R4G4B4"* nonnull %13, %"struct.angle::A4R4G4B4"* nonnull %14) #5
  call void @llvm.lifetime.end.p0i8(i64 2, i8* nonnull %20) #5
  call void @llvm.lifetime.end.p0i8(i64 2, i8* nonnull %18) #5
  %52 = add nuw i64 %36, 1
  %53 = icmp eq i64 %52, %6
  br i1 %53, label %32, label %35
}

; Function Attrs: nounwind ssp uwtable
define internal void @_ZN5angle4privL14GenerateMip_YZINS_8A4R4G4B4EEEvmmmPKhmmmmmPhmm(i64, i64, i64, i8*, i64, i64, i64, i64, i64, i8*, i64, i64) unnamed_addr #0 {
  %13 = alloca %"struct.angle::A4R4G4B4", align 2
  %14 = alloca %"struct.angle::A4R4G4B4", align 2
  %15 = icmp eq i64 %8, 0
  br i1 %15, label %31, label %16

16:                                               ; preds = %12
  %17 = icmp eq i64 %7, 0
  %18 = bitcast %"struct.angle::A4R4G4B4"* %13 to i8*
  %19 = getelementptr inbounds %"struct.angle::A4R4G4B4", %"struct.angle::A4R4G4B4"* %13, i64 0, i32 0
  %20 = bitcast %"struct.angle::A4R4G4B4"* %14 to i8*
  %21 = getelementptr inbounds %"struct.angle::A4R4G4B4", %"struct.angle::A4R4G4B4"* %14, i64 0, i32 0
  br label %22

22:                                               ; preds = %32, %16
  %23 = phi i64 [ 0, %16 ], [ %33, %32 ]
  br i1 %17, label %32, label %24

24:                                               ; preds = %22
  %25 = shl i64 %23, 1
  %26 = mul i64 %25, %5
  %27 = or i64 %25, 1
  %28 = mul i64 %27, %5
  %29 = mul i64 %23, %11
  %30 = getelementptr inbounds i8, i8* %9, i64 %29
  br label %35

31:                                               ; preds = %32, %12
  ret void

32:                                               ; preds = %35, %22
  %33 = add nuw i64 %23, 1
  %34 = icmp eq i64 %33, %8
  br i1 %34, label %31, label %22

35:                                               ; preds = %35, %24
  %36 = phi i64 [ 0, %24 ], [ %54, %35 ]
  %37 = shl i64 %36, 1
  %38 = mul i64 %37, %4
  %39 = getelementptr inbounds i8, i8* %3, i64 %38
  %40 = getelementptr inbounds i8, i8* %39, i64 %26
  %41 = bitcast i8* %40 to %"struct.angle::A4R4G4B4"*
  %42 = getelementptr inbounds i8, i8* %39, i64 %28
  %43 = bitcast i8* %42 to %"struct.angle::A4R4G4B4"*
  %44 = or i64 %37, 1
  %45 = mul i64 %44, %4
  %46 = getelementptr inbounds i8, i8* %3, i64 %45
  %47 = getelementptr inbounds i8, i8* %46, i64 %26
  %48 = bitcast i8* %47 to %"struct.angle::A4R4G4B4"*
  %49 = getelementptr inbounds i8, i8* %46, i64 %28
  %50 = bitcast i8* %49 to %"struct.angle::A4R4G4B4"*
  %51 = mul i64 %36, %10
  %52 = getelementptr inbounds i8, i8* %30, i64 %51
  %53 = bitcast i8* %52 to %"struct.angle::A4R4G4B4"*
  call void @llvm.lifetime.start.p0i8(i64 2, i8* nonnull %18) #5
  store i16 -21846, i16* %19, align 2
  call void @llvm.lifetime.start.p0i8(i64 2, i8* nonnull %20) #5
  store i16 -21846, i16* %21, align 2
  call void @_ZN5angle8A4R4G4B47averageEPS0_PKS0_S3_(%"struct.angle::A4R4G4B4"* nonnull %13, %"struct.angle::A4R4G4B4"* %41, %"struct.angle::A4R4G4B4"* %43) #5
  call void @_ZN5angle8A4R4G4B47averageEPS0_PKS0_S3_(%"struct.angle::A4R4G4B4"* nonnull %14, %"struct.angle::A4R4G4B4"* %48, %"struct.angle::A4R4G4B4"* %50) #5
  call void @_ZN5angle8A4R4G4B47averageEPS0_PKS0_S3_(%"struct.angle::A4R4G4B4"* %53, %"struct.angle::A4R4G4B4"* nonnull %13, %"struct.angle::A4R4G4B4"* nonnull %14) #5
  call void @llvm.lifetime.end.p0i8(i64 2, i8* nonnull %20) #5
  call void @llvm.lifetime.end.p0i8(i64 2, i8* nonnull %18) #5
  %54 = add nuw i64 %36, 1
  %55 = icmp eq i64 %54, %7
  br i1 %55, label %32, label %35
}

; Function Attrs: nounwind ssp uwtable
define internal void @_ZN5angle4privL15GenerateMip_XYZINS_8A4R4G4B4EEEvmmmPKhmmmmmPhmm(i64, i64, i64, i8*, i64, i64, i64, i64, i64, i8*, i64, i64) unnamed_addr #0 {
  %13 = alloca %"struct.angle::A4R4G4B4", align 2
  %14 = alloca %"struct.angle::A4R4G4B4", align 2
  %15 = alloca %"struct.angle::A4R4G4B4", align 2
  %16 = alloca %"struct.angle::A4R4G4B4", align 2
  %17 = alloca %"struct.angle::A4R4G4B4", align 2
  %18 = alloca %"struct.angle::A4R4G4B4", align 2
  %19 = icmp eq i64 %8, 0
  br i1 %19, label %44, label %20

20:                                               ; preds = %12
  %21 = icmp eq i64 %7, 0
  %22 = icmp eq i64 %6, 0
  %23 = bitcast %"struct.angle::A4R4G4B4"* %13 to i8*
  %24 = getelementptr inbounds %"struct.angle::A4R4G4B4", %"struct.angle::A4R4G4B4"* %13, i64 0, i32 0
  %25 = bitcast %"struct.angle::A4R4G4B4"* %14 to i8*
  %26 = getelementptr inbounds %"struct.angle::A4R4G4B4", %"struct.angle::A4R4G4B4"* %14, i64 0, i32 0
  %27 = bitcast %"struct.angle::A4R4G4B4"* %15 to i8*
  %28 = getelementptr inbounds %"struct.angle::A4R4G4B4", %"struct.angle::A4R4G4B4"* %15, i64 0, i32 0
  %29 = bitcast %"struct.angle::A4R4G4B4"* %16 to i8*
  %30 = getelementptr inbounds %"struct.angle::A4R4G4B4", %"struct.angle::A4R4G4B4"* %16, i64 0, i32 0
  %31 = bitcast %"struct.angle::A4R4G4B4"* %17 to i8*
  %32 = getelementptr inbounds %"struct.angle::A4R4G4B4", %"struct.angle::A4R4G4B4"* %17, i64 0, i32 0
  %33 = bitcast %"struct.angle::A4R4G4B4"* %18 to i8*
  %34 = getelementptr inbounds %"struct.angle::A4R4G4B4", %"struct.angle::A4R4G4B4"* %18, i64 0, i32 0
  br label %35

35:                                               ; preds = %54, %20
  %36 = phi i64 [ 0, %20 ], [ %55, %54 ]
  br i1 %21, label %54, label %37

37:                                               ; preds = %35
  %38 = shl i64 %36, 1
  %39 = mul i64 %38, %5
  %40 = or i64 %38, 1
  %41 = mul i64 %40, %5
  %42 = mul i64 %36, %11
  %43 = getelementptr inbounds i8, i8* %9, i64 %42
  br label %45

44:                                               ; preds = %54, %12
  ret void

45:                                               ; preds = %57, %37
  %46 = phi i64 [ 0, %37 ], [ %58, %57 ]
  br i1 %22, label %57, label %47

47:                                               ; preds = %45
  %48 = shl i64 %46, 1
  %49 = mul i64 %48, %4
  %50 = or i64 %48, 1
  %51 = mul i64 %50, %4
  %52 = mul i64 %46, %10
  %53 = getelementptr inbounds i8, i8* %43, i64 %52
  br label %60

54:                                               ; preds = %57, %35
  %55 = add nuw i64 %36, 1
  %56 = icmp eq i64 %55, %8
  br i1 %56, label %44, label %35

57:                                               ; preds = %60, %45
  %58 = add nuw i64 %46, 1
  %59 = icmp eq i64 %58, %7
  br i1 %59, label %54, label %45

60:                                               ; preds = %60, %47
  %61 = phi i64 [ 0, %47 ], [ %89, %60 ]
  %62 = shl i64 %61, 1
  %63 = shl i64 %61, 2
  %64 = getelementptr inbounds i8, i8* %3, i64 %63
  %65 = getelementptr inbounds i8, i8* %64, i64 %49
  %66 = getelementptr inbounds i8, i8* %65, i64 %39
  %67 = bitcast i8* %66 to %"struct.angle::A4R4G4B4"*
  %68 = getelementptr inbounds i8, i8* %65, i64 %41
  %69 = bitcast i8* %68 to %"struct.angle::A4R4G4B4"*
  %70 = getelementptr inbounds i8, i8* %64, i64 %51
  %71 = getelementptr inbounds i8, i8* %70, i64 %39
  %72 = bitcast i8* %71 to %"struct.angle::A4R4G4B4"*
  %73 = getelementptr inbounds i8, i8* %70, i64 %41
  %74 = bitcast i8* %73 to %"struct.angle::A4R4G4B4"*
  %75 = or i64 %63, 2
  %76 = getelementptr inbounds i8, i8* %3, i64 %75
  %77 = getelementptr inbounds i8, i8* %76, i64 %49
  %78 = getelementptr inbounds i8, i8* %77, i64 %39
  %79 = bitcast i8* %78 to %"struct.angle::A4R4G4B4"*
  %80 = getelementptr inbounds i8, i8* %77, i64 %41
  %81 = bitcast i8* %80 to %"struct.angle::A4R4G4B4"*
  %82 = getelementptr inbounds i8, i8* %76, i64 %51
  %83 = getelementptr inbounds i8, i8* %82, i64 %39
  %84 = bitcast i8* %83 to %"struct.angle::A4R4G4B4"*
  %85 = getelementptr inbounds i8, i8* %82, i64 %41
  %86 = bitcast i8* %85 to %"struct.angle::A4R4G4B4"*
  %87 = getelementptr inbounds i8, i8* %53, i64 %62
  %88 = bitcast i8* %87 to %"struct.angle::A4R4G4B4"*
  call void @llvm.lifetime.start.p0i8(i64 2, i8* nonnull %23) #5
  store i16 -21846, i16* %24, align 2
  call void @llvm.lifetime.start.p0i8(i64 2, i8* nonnull %25) #5
  store i16 -21846, i16* %26, align 2
  call void @llvm.lifetime.start.p0i8(i64 2, i8* nonnull %27) #5
  store i16 -21846, i16* %28, align 2
  call void @llvm.lifetime.start.p0i8(i64 2, i8* nonnull %29) #5
  store i16 -21846, i16* %30, align 2
  call void @llvm.lifetime.start.p0i8(i64 2, i8* nonnull %31) #5
  store i16 -21846, i16* %32, align 2
  call void @llvm.lifetime.start.p0i8(i64 2, i8* nonnull %33) #5
  store i16 -21846, i16* %34, align 2
  call void @_ZN5angle8A4R4G4B47averageEPS0_PKS0_S3_(%"struct.angle::A4R4G4B4"* nonnull %13, %"struct.angle::A4R4G4B4"* %67, %"struct.angle::A4R4G4B4"* %69) #5
  call void @_ZN5angle8A4R4G4B47averageEPS0_PKS0_S3_(%"struct.angle::A4R4G4B4"* nonnull %14, %"struct.angle::A4R4G4B4"* %72, %"struct.angle::A4R4G4B4"* %74) #5
  call void @_ZN5angle8A4R4G4B47averageEPS0_PKS0_S3_(%"struct.angle::A4R4G4B4"* nonnull %15, %"struct.angle::A4R4G4B4"* %79, %"struct.angle::A4R4G4B4"* %81) #5
  call void @_ZN5angle8A4R4G4B47averageEPS0_PKS0_S3_(%"struct.angle::A4R4G4B4"* nonnull %16, %"struct.angle::A4R4G4B4"* %84, %"struct.angle::A4R4G4B4"* %86) #5
  call void @_ZN5angle8A4R4G4B47averageEPS0_PKS0_S3_(%"struct.angle::A4R4G4B4"* nonnull %17, %"struct.angle::A4R4G4B4"* nonnull %13, %"struct.angle::A4R4G4B4"* nonnull %14) #5
  call void @_ZN5angle8A4R4G4B47averageEPS0_PKS0_S3_(%"struct.angle::A4R4G4B4"* nonnull %18, %"struct.angle::A4R4G4B4"* nonnull %15, %"struct.angle::A4R4G4B4"* nonnull %16) #5
  call void @_ZN5angle8A4R4G4B47averageEPS0_PKS0_S3_(%"struct.angle::A4R4G4B4"* %88, %"struct.angle::A4R4G4B4"* nonnull %17, %"struct.angle::A4R4G4B4"* nonnull %18) #5
  call void @llvm.lifetime.end.p0i8(i64 2, i8* nonnull %33) #5
  call void @llvm.lifetime.end.p0i8(i64 2, i8* nonnull %31) #5
  call void @llvm.lifetime.end.p0i8(i64 2, i8* nonnull %29) #5
  call void @llvm.lifetime.end.p0i8(i64 2, i8* nonnull %27) #5
  call void @llvm.lifetime.end.p0i8(i64 2, i8* nonnull %25) #5
  call void @llvm.lifetime.end.p0i8(i64 2, i8* nonnull %23) #5
  %89 = add nuw i64 %61, 1
  %90 = icmp eq i64 %89, %6
  br i1 %90, label %57, label %60
}

declare void @_ZN5angle8A4R4G4B47averageEPS0_PKS0_S3_(%"struct.angle::A4R4G4B4"*, %"struct.angle::A4R4G4B4"*, %"struct.angle::A4R4G4B4"*) local_unnamed_addr #3

declare void @_ZN5angle8A4R4G4B49readColorEPNS_5ColorIfEEPKS0_(%"struct.angle::Color"*, %"struct.angle::A4R4G4B4"*) local_unnamed_addr #3

declare void @_ZN5angle8A4R4G4B410writeColorEPS0_PKNS_5ColorIfEE(%"struct.angle::A4R4G4B4"*, %"struct.angle::Color"*) local_unnamed_addr #3

; Function Attrs: nounwind ssp uwtable
define internal void @_ZN5angle4privL13GenerateMip_XINS_6B5G6R5EEEvmmmPKhmmmmmPhmm(i64, i64, i64, i8*, i64, i64, i64, i64, i64, i8*, i64, i64) unnamed_addr #0 {
  %13 = icmp eq i64 %6, 0
  br i1 %13, label %14, label %15

14:                                               ; preds = %15, %12
  ret void

15:                                               ; preds = %12, %15
  %16 = phi i64 [ %26, %15 ], [ 0, %12 ]
  %17 = shl i64 %16, 1
  %18 = shl i64 %16, 2
  %19 = getelementptr inbounds i8, i8* %3, i64 %18
  %20 = bitcast i8* %19 to %"struct.angle::B5G6R5"*
  %21 = or i64 %18, 2
  %22 = getelementptr inbounds i8, i8* %3, i64 %21
  %23 = bitcast i8* %22 to %"struct.angle::B5G6R5"*
  %24 = getelementptr inbounds i8, i8* %9, i64 %17
  %25 = bitcast i8* %24 to %"struct.angle::B5G6R5"*
  tail call void @_ZN5angle6B5G6R57averageEPS0_PKS0_S3_(%"struct.angle::B5G6R5"* %25, %"struct.angle::B5G6R5"* %20, %"struct.angle::B5G6R5"* %23) #5
  %26 = add nuw i64 %16, 1
  %27 = icmp eq i64 %26, %6
  br i1 %27, label %14, label %15
}

; Function Attrs: nounwind ssp uwtable
define internal void @_ZN5angle4privL13GenerateMip_YINS_6B5G6R5EEEvmmmPKhmmmmmPhmm(i64, i64, i64, i8*, i64, i64, i64, i64, i64, i8*, i64, i64) unnamed_addr #0 {
  %13 = icmp eq i64 %7, 0
  br i1 %13, label %14, label %15

14:                                               ; preds = %15, %12
  ret void

15:                                               ; preds = %12, %15
  %16 = phi i64 [ %28, %15 ], [ 0, %12 ]
  %17 = shl i64 %16, 1
  %18 = mul i64 %17, %4
  %19 = getelementptr inbounds i8, i8* %3, i64 %18
  %20 = bitcast i8* %19 to %"struct.angle::B5G6R5"*
  %21 = or i64 %17, 1
  %22 = mul i64 %21, %4
  %23 = getelementptr inbounds i8, i8* %3, i64 %22
  %24 = bitcast i8* %23 to %"struct.angle::B5G6R5"*
  %25 = mul i64 %16, %10
  %26 = getelementptr inbounds i8, i8* %9, i64 %25
  %27 = bitcast i8* %26 to %"struct.angle::B5G6R5"*
  tail call void @_ZN5angle6B5G6R57averageEPS0_PKS0_S3_(%"struct.angle::B5G6R5"* %27, %"struct.angle::B5G6R5"* %20, %"struct.angle::B5G6R5"* %24) #5
  %28 = add nuw i64 %16, 1
  %29 = icmp eq i64 %28, %7
  br i1 %29, label %14, label %15
}

; Function Attrs: nounwind ssp uwtable
define internal void @_ZN5angle4privL14GenerateMip_XYINS_6B5G6R5EEEvmmmPKhmmmmmPhmm(i64, i64, i64, i8*, i64, i64, i64, i64, i64, i8*, i64, i64) unnamed_addr #0 {
  %13 = alloca %"struct.angle::B5G6R5", align 2
  %14 = alloca %"struct.angle::B5G6R5", align 2
  %15 = icmp eq i64 %7, 0
  br i1 %15, label %31, label %16

16:                                               ; preds = %12
  %17 = icmp eq i64 %6, 0
  %18 = bitcast %"struct.angle::B5G6R5"* %13 to i8*
  %19 = getelementptr inbounds %"struct.angle::B5G6R5", %"struct.angle::B5G6R5"* %13, i64 0, i32 0
  %20 = bitcast %"struct.angle::B5G6R5"* %14 to i8*
  %21 = getelementptr inbounds %"struct.angle::B5G6R5", %"struct.angle::B5G6R5"* %14, i64 0, i32 0
  br label %22

22:                                               ; preds = %32, %16
  %23 = phi i64 [ 0, %16 ], [ %33, %32 ]
  br i1 %17, label %32, label %24

24:                                               ; preds = %22
  %25 = shl i64 %23, 1
  %26 = mul i64 %25, %4
  %27 = or i64 %25, 1
  %28 = mul i64 %27, %4
  %29 = mul i64 %23, %10
  %30 = getelementptr inbounds i8, i8* %9, i64 %29
  br label %35

31:                                               ; preds = %32, %12
  ret void

32:                                               ; preds = %35, %22
  %33 = add nuw i64 %23, 1
  %34 = icmp eq i64 %33, %7
  br i1 %34, label %31, label %22

35:                                               ; preds = %35, %24
  %36 = phi i64 [ 0, %24 ], [ %52, %35 ]
  %37 = shl i64 %36, 1
  %38 = shl i64 %36, 2
  %39 = getelementptr inbounds i8, i8* %3, i64 %38
  %40 = getelementptr inbounds i8, i8* %39, i64 %26
  %41 = bitcast i8* %40 to %"struct.angle::B5G6R5"*
  %42 = getelementptr inbounds i8, i8* %39, i64 %28
  %43 = bitcast i8* %42 to %"struct.angle::B5G6R5"*
  %44 = or i64 %38, 2
  %45 = getelementptr inbounds i8, i8* %3, i64 %44
  %46 = getelementptr inbounds i8, i8* %45, i64 %26
  %47 = bitcast i8* %46 to %"struct.angle::B5G6R5"*
  %48 = getelementptr inbounds i8, i8* %45, i64 %28
  %49 = bitcast i8* %48 to %"struct.angle::B5G6R5"*
  %50 = getelementptr inbounds i8, i8* %30, i64 %37
  %51 = bitcast i8* %50 to %"struct.angle::B5G6R5"*
  call void @llvm.lifetime.start.p0i8(i64 2, i8* nonnull %18) #5
  store i16 -21846, i16* %19, align 2
  call void @llvm.lifetime.start.p0i8(i64 2, i8* nonnull %20) #5
  store i16 -21846, i16* %21, align 2
  call void @_ZN5angle6B5G6R57averageEPS0_PKS0_S3_(%"struct.angle::B5G6R5"* nonnull %13, %"struct.angle::B5G6R5"* %41, %"struct.angle::B5G6R5"* %43) #5
  call void @_ZN5angle6B5G6R57averageEPS0_PKS0_S3_(%"struct.angle::B5G6R5"* nonnull %14, %"struct.angle::B5G6R5"* %47, %"struct.angle::B5G6R5"* %49) #5
  call void @_ZN5angle6B5G6R57averageEPS0_PKS0_S3_(%"struct.angle::B5G6R5"* %51, %"struct.angle::B5G6R5"* nonnull %13, %"struct.angle::B5G6R5"* nonnull %14) #5
  call void @llvm.lifetime.end.p0i8(i64 2, i8* nonnull %20) #5
  call void @llvm.lifetime.end.p0i8(i64 2, i8* nonnull %18) #5
  %52 = add nuw i64 %36, 1
  %53 = icmp eq i64 %52, %6
  br i1 %53, label %32, label %35
}

; Function Attrs: nounwind ssp uwtable
define internal void @_ZN5angle4privL13GenerateMip_ZINS_6B5G6R5EEEvmmmPKhmmmmmPhmm(i64, i64, i64, i8*, i64, i64, i64, i64, i64, i8*, i64, i64) unnamed_addr #0 {
  %13 = icmp eq i64 %8, 0
  br i1 %13, label %14, label %15

14:                                               ; preds = %15, %12
  ret void

15:                                               ; preds = %12, %15
  %16 = phi i64 [ %28, %15 ], [ 0, %12 ]
  %17 = shl i64 %16, 1
  %18 = mul i64 %17, %5
  %19 = getelementptr inbounds i8, i8* %3, i64 %18
  %20 = bitcast i8* %19 to %"struct.angle::B5G6R5"*
  %21 = or i64 %17, 1
  %22 = mul i64 %21, %5
  %23 = getelementptr inbounds i8, i8* %3, i64 %22
  %24 = bitcast i8* %23 to %"struct.angle::B5G6R5"*
  %25 = mul i64 %16, %11
  %26 = getelementptr inbounds i8, i8* %9, i64 %25
  %27 = bitcast i8* %26 to %"struct.angle::B5G6R5"*
  tail call void @_ZN5angle6B5G6R57averageEPS0_PKS0_S3_(%"struct.angle::B5G6R5"* %27, %"struct.angle::B5G6R5"* %20, %"struct.angle::B5G6R5"* %24) #5
  %28 = add nuw i64 %16, 1
  %29 = icmp eq i64 %28, %8
  br i1 %29, label %14, label %15
}

; Function Attrs: nounwind ssp uwtable
define internal void @_ZN5angle4privL14GenerateMip_XZINS_6B5G6R5EEEvmmmPKhmmmmmPhmm(i64, i64, i64, i8*, i64, i64, i64, i64, i64, i8*, i64, i64) unnamed_addr #0 {
  %13 = alloca %"struct.angle::B5G6R5", align 2
  %14 = alloca %"struct.angle::B5G6R5", align 2
  %15 = icmp eq i64 %8, 0
  br i1 %15, label %31, label %16

16:                                               ; preds = %12
  %17 = icmp eq i64 %6, 0
  %18 = bitcast %"struct.angle::B5G6R5"* %13 to i8*
  %19 = getelementptr inbounds %"struct.angle::B5G6R5", %"struct.angle::B5G6R5"* %13, i64 0, i32 0
  %20 = bitcast %"struct.angle::B5G6R5"* %14 to i8*
  %21 = getelementptr inbounds %"struct.angle::B5G6R5", %"struct.angle::B5G6R5"* %14, i64 0, i32 0
  br label %22

22:                                               ; preds = %32, %16
  %23 = phi i64 [ 0, %16 ], [ %33, %32 ]
  br i1 %17, label %32, label %24

24:                                               ; preds = %22
  %25 = shl i64 %23, 1
  %26 = mul i64 %25, %5
  %27 = or i64 %25, 1
  %28 = mul i64 %27, %5
  %29 = mul i64 %23, %11
  %30 = getelementptr inbounds i8, i8* %9, i64 %29
  br label %35

31:                                               ; preds = %32, %12
  ret void

32:                                               ; preds = %35, %22
  %33 = add nuw i64 %23, 1
  %34 = icmp eq i64 %33, %8
  br i1 %34, label %31, label %22

35:                                               ; preds = %35, %24
  %36 = phi i64 [ 0, %24 ], [ %52, %35 ]
  %37 = shl i64 %36, 1
  %38 = shl i64 %36, 2
  %39 = getelementptr inbounds i8, i8* %3, i64 %38
  %40 = getelementptr inbounds i8, i8* %39, i64 %26
  %41 = bitcast i8* %40 to %"struct.angle::B5G6R5"*
  %42 = getelementptr inbounds i8, i8* %39, i64 %28
  %43 = bitcast i8* %42 to %"struct.angle::B5G6R5"*
  %44 = or i64 %38, 2
  %45 = getelementptr inbounds i8, i8* %3, i64 %44
  %46 = getelementptr inbounds i8, i8* %45, i64 %26
  %47 = bitcast i8* %46 to %"struct.angle::B5G6R5"*
  %48 = getelementptr inbounds i8, i8* %45, i64 %28
  %49 = bitcast i8* %48 to %"struct.angle::B5G6R5"*
  %50 = getelementptr inbounds i8, i8* %30, i64 %37
  %51 = bitcast i8* %50 to %"struct.angle::B5G6R5"*
  call void @llvm.lifetime.start.p0i8(i64 2, i8* nonnull %18) #5
  store i16 -21846, i16* %19, align 2
  call void @llvm.lifetime.start.p0i8(i64 2, i8* nonnull %20) #5
  store i16 -21846, i16* %21, align 2
  call void @_ZN5angle6B5G6R57averageEPS0_PKS0_S3_(%"struct.angle::B5G6R5"* nonnull %13, %"struct.angle::B5G6R5"* %41, %"struct.angle::B5G6R5"* %43) #5
  call void @_ZN5angle6B5G6R57averageEPS0_PKS0_S3_(%"struct.angle::B5G6R5"* nonnull %14, %"struct.angle::B5G6R5"* %47, %"struct.angle::B5G6R5"* %49) #5
  call void @_ZN5angle6B5G6R57averageEPS0_PKS0_S3_(%"struct.angle::B5G6R5"* %51, %"struct.angle::B5G6R5"* nonnull %13, %"struct.angle::B5G6R5"* nonnull %14) #5
  call void @llvm.lifetime.end.p0i8(i64 2, i8* nonnull %20) #5
  call void @llvm.lifetime.end.p0i8(i64 2, i8* nonnull %18) #5
  %52 = add nuw i64 %36, 1
  %53 = icmp eq i64 %52, %6
  br i1 %53, label %32, label %35
}

; Function Attrs: nounwind ssp uwtable
define internal void @_ZN5angle4privL14GenerateMip_YZINS_6B5G6R5EEEvmmmPKhmmmmmPhmm(i64, i64, i64, i8*, i64, i64, i64, i64, i64, i8*, i64, i64) unnamed_addr #0 {
  %13 = alloca %"struct.angle::B5G6R5", align 2
  %14 = alloca %"struct.angle::B5G6R5", align 2
  %15 = icmp eq i64 %8, 0
  br i1 %15, label %31, label %16

16:                                               ; preds = %12
  %17 = icmp eq i64 %7, 0
  %18 = bitcast %"struct.angle::B5G6R5"* %13 to i8*
  %19 = getelementptr inbounds %"struct.angle::B5G6R5", %"struct.angle::B5G6R5"* %13, i64 0, i32 0
  %20 = bitcast %"struct.angle::B5G6R5"* %14 to i8*
  %21 = getelementptr inbounds %"struct.angle::B5G6R5", %"struct.angle::B5G6R5"* %14, i64 0, i32 0
  br label %22

22:                                               ; preds = %32, %16
  %23 = phi i64 [ 0, %16 ], [ %33, %32 ]
  br i1 %17, label %32, label %24

24:                                               ; preds = %22
  %25 = shl i64 %23, 1
  %26 = mul i64 %25, %5
  %27 = or i64 %25, 1
  %28 = mul i64 %27, %5
  %29 = mul i64 %23, %11
  %30 = getelementptr inbounds i8, i8* %9, i64 %29
  br label %35

31:                                               ; preds = %32, %12
  ret void

32:                                               ; preds = %35, %22
  %33 = add nuw i64 %23, 1
  %34 = icmp eq i64 %33, %8
  br i1 %34, label %31, label %22

35:                                               ; preds = %35, %24
  %36 = phi i64 [ 0, %24 ], [ %54, %35 ]
  %37 = shl i64 %36, 1
  %38 = mul i64 %37, %4
  %39 = getelementptr inbounds i8, i8* %3, i64 %38
  %40 = getelementptr inbounds i8, i8* %39, i64 %26
  %41 = bitcast i8* %40 to %"struct.angle::B5G6R5"*
  %42 = getelementptr inbounds i8, i8* %39, i64 %28
  %43 = bitcast i8* %42 to %"struct.angle::B5G6R5"*
  %44 = or i64 %37, 1
  %45 = mul i64 %44, %4
  %46 = getelementptr inbounds i8, i8* %3, i64 %45
  %47 = getelementptr inbounds i8, i8* %46, i64 %26
  %48 = bitcast i8* %47 to %"struct.angle::B5G6R5"*
  %49 = getelementptr inbounds i8, i8* %46, i64 %28
  %50 = bitcast i8* %49 to %"struct.angle::B5G6R5"*
  %51 = mul i64 %36, %10
  %52 = getelementptr inbounds i8, i8* %30, i64 %51
  %53 = bitcast i8* %52 to %"struct.angle::B5G6R5"*
  call void @llvm.lifetime.start.p0i8(i64 2, i8* nonnull %18) #5
  store i16 -21846, i16* %19, align 2
  call void @llvm.lifetime.start.p0i8(i64 2, i8* nonnull %20) #5
  store i16 -21846, i16* %21, align 2
  call void @_ZN5angle6B5G6R57averageEPS0_PKS0_S3_(%"struct.angle::B5G6R5"* nonnull %13, %"struct.angle::B5G6R5"* %41, %"struct.angle::B5G6R5"* %43) #5
  call void @_ZN5angle6B5G6R57averageEPS0_PKS0_S3_(%"struct.angle::B5G6R5"* nonnull %14, %"struct.angle::B5G6R5"* %48, %"struct.angle::B5G6R5"* %50) #5
  call void @_ZN5angle6B5G6R57averageEPS0_PKS0_S3_(%"struct.angle::B5G6R5"* %53, %"struct.angle::B5G6R5"* nonnull %13, %"struct.angle::B5G6R5"* nonnull %14) #5
  call void @llvm.lifetime.end.p0i8(i64 2, i8* nonnull %20) #5
  call void @llvm.lifetime.end.p0i8(i64 2, i8* nonnull %18) #5
  %54 = add nuw i64 %36, 1
  %55 = icmp eq i64 %54, %7
  br i1 %55, label %32, label %35
}

; Function Attrs: nounwind ssp uwtable
define internal void @_ZN5angle4privL15GenerateMip_XYZINS_6B5G6R5EEEvmmmPKhmmmmmPhmm(i64, i64, i64, i8*, i64, i64, i64, i64, i64, i8*, i64, i64) unnamed_addr #0 {
  %13 = alloca %"struct.angle::B5G6R5", align 2
  %14 = alloca %"struct.angle::B5G6R5", align 2
  %15 = alloca %"struct.angle::B5G6R5", align 2
  %16 = alloca %"struct.angle::B5G6R5", align 2
  %17 = alloca %"struct.angle::B5G6R5", align 2
  %18 = alloca %"struct.angle::B5G6R5", align 2
  %19 = icmp eq i64 %8, 0
  br i1 %19, label %44, label %20

20:                                               ; preds = %12
  %21 = icmp eq i64 %7, 0
  %22 = icmp eq i64 %6, 0
  %23 = bitcast %"struct.angle::B5G6R5"* %13 to i8*
  %24 = getelementptr inbounds %"struct.angle::B5G6R5", %"struct.angle::B5G6R5"* %13, i64 0, i32 0
  %25 = bitcast %"struct.angle::B5G6R5"* %14 to i8*
  %26 = getelementptr inbounds %"struct.angle::B5G6R5", %"struct.angle::B5G6R5"* %14, i64 0, i32 0
  %27 = bitcast %"struct.angle::B5G6R5"* %15 to i8*
  %28 = getelementptr inbounds %"struct.angle::B5G6R5", %"struct.angle::B5G6R5"* %15, i64 0, i32 0
  %29 = bitcast %"struct.angle::B5G6R5"* %16 to i8*
  %30 = getelementptr inbounds %"struct.angle::B5G6R5", %"struct.angle::B5G6R5"* %16, i64 0, i32 0
  %31 = bitcast %"struct.angle::B5G6R5"* %17 to i8*
  %32 = getelementptr inbounds %"struct.angle::B5G6R5", %"struct.angle::B5G6R5"* %17, i64 0, i32 0
  %33 = bitcast %"struct.angle::B5G6R5"* %18 to i8*
  %34 = getelementptr inbounds %"struct.angle::B5G6R5", %"struct.angle::B5G6R5"* %18, i64 0, i32 0
  br label %35

35:                                               ; preds = %54, %20
  %36 = phi i64 [ 0, %20 ], [ %55, %54 ]
  br i1 %21, label %54, label %37

37:                                               ; preds = %35
  %38 = shl i64 %36, 1
  %39 = mul i64 %38, %5
  %40 = or i64 %38, 1
  %41 = mul i64 %40, %5
  %42 = mul i64 %36, %11
  %43 = getelementptr inbounds i8, i8* %9, i64 %42
  br label %45

44:                                               ; preds = %54, %12
  ret void

45:                                               ; preds = %57, %37
  %46 = phi i64 [ 0, %37 ], [ %58, %57 ]
  br i1 %22, label %57, label %47

47:                                               ; preds = %45
  %48 = shl i64 %46, 1
  %49 = mul i64 %48, %4
  %50 = or i64 %48, 1
  %51 = mul i64 %50, %4
  %52 = mul i64 %46, %10
  %53 = getelementptr inbounds i8, i8* %43, i64 %52
  br label %60

54:                                               ; preds = %57, %35
  %55 = add nuw i64 %36, 1
  %56 = icmp eq i64 %55, %8
  br i1 %56, label %44, label %35

57:                                               ; preds = %60, %45
  %58 = add nuw i64 %46, 1
  %59 = icmp eq i64 %58, %7
  br i1 %59, label %54, label %45

60:                                               ; preds = %60, %47
  %61 = phi i64 [ 0, %47 ], [ %89, %60 ]
  %62 = shl i64 %61, 1
  %63 = shl i64 %61, 2
  %64 = getelementptr inbounds i8, i8* %3, i64 %63
  %65 = getelementptr inbounds i8, i8* %64, i64 %49
  %66 = getelementptr inbounds i8, i8* %65, i64 %39
  %67 = bitcast i8* %66 to %"struct.angle::B5G6R5"*
  %68 = getelementptr inbounds i8, i8* %65, i64 %41
  %69 = bitcast i8* %68 to %"struct.angle::B5G6R5"*
  %70 = getelementptr inbounds i8, i8* %64, i64 %51
  %71 = getelementptr inbounds i8, i8* %70, i64 %39
  %72 = bitcast i8* %71 to %"struct.angle::B5G6R5"*
  %73 = getelementptr inbounds i8, i8* %70, i64 %41
  %74 = bitcast i8* %73 to %"struct.angle::B5G6R5"*
  %75 = or i64 %63, 2
  %76 = getelementptr inbounds i8, i8* %3, i64 %75
  %77 = getelementptr inbounds i8, i8* %76, i64 %49
  %78 = getelementptr inbounds i8, i8* %77, i64 %39
  %79 = bitcast i8* %78 to %"struct.angle::B5G6R5"*
  %80 = getelementptr inbounds i8, i8* %77, i64 %41
  %81 = bitcast i8* %80 to %"struct.angle::B5G6R5"*
  %82 = getelementptr inbounds i8, i8* %76, i64 %51
  %83 = getelementptr inbounds i8, i8* %82, i64 %39
  %84 = bitcast i8* %83 to %"struct.angle::B5G6R5"*
  %85 = getelementptr inbounds i8, i8* %82, i64 %41
  %86 = bitcast i8* %85 to %"struct.angle::B5G6R5"*
  %87 = getelementptr inbounds i8, i8* %53, i64 %62
  %88 = bitcast i8* %87 to %"struct.angle::B5G6R5"*
  call void @llvm.lifetime.start.p0i8(i64 2, i8* nonnull %23) #5
  store i16 -21846, i16* %24, align 2
  call void @llvm.lifetime.start.p0i8(i64 2, i8* nonnull %25) #5
  store i16 -21846, i16* %26, align 2
  call void @llvm.lifetime.start.p0i8(i64 2, i8* nonnull %27) #5
  store i16 -21846, i16* %28, align 2
  call void @llvm.lifetime.start.p0i8(i64 2, i8* nonnull %29) #5
  store i16 -21846, i16* %30, align 2
  call void @llvm.lifetime.start.p0i8(i64 2, i8* nonnull %31) #5
  store i16 -21846, i16* %32, align 2
  call void @llvm.lifetime.start.p0i8(i64 2, i8* nonnull %33) #5
  store i16 -21846, i16* %34, align 2
  call void @_ZN5angle6B5G6R57averageEPS0_PKS0_S3_(%"struct.angle::B5G6R5"* nonnull %13, %"struct.angle::B5G6R5"* %67, %"struct.angle::B5G6R5"* %69) #5
  call void @_ZN5angle6B5G6R57averageEPS0_PKS0_S3_(%"struct.angle::B5G6R5"* nonnull %14, %"struct.angle::B5G6R5"* %72, %"struct.angle::B5G6R5"* %74) #5
  call void @_ZN5angle6B5G6R57averageEPS0_PKS0_S3_(%"struct.angle::B5G6R5"* nonnull %15, %"struct.angle::B5G6R5"* %79, %"struct.angle::B5G6R5"* %81) #5
  call void @_ZN5angle6B5G6R57averageEPS0_PKS0_S3_(%"struct.angle::B5G6R5"* nonnull %16, %"struct.angle::B5G6R5"* %84, %"struct.angle::B5G6R5"* %86) #5
  call void @_ZN5angle6B5G6R57averageEPS0_PKS0_S3_(%"struct.angle::B5G6R5"* nonnull %17, %"struct.angle::B5G6R5"* nonnull %13, %"struct.angle::B5G6R5"* nonnull %14) #5
  call void @_ZN5angle6B5G6R57averageEPS0_PKS0_S3_(%"struct.angle::B5G6R5"* nonnull %18, %"struct.angle::B5G6R5"* nonnull %15, %"struct.angle::B5G6R5"* nonnull %16) #5
  call void @_ZN5angle6B5G6R57averageEPS0_PKS0_S3_(%"struct.angle::B5G6R5"* %88, %"struct.angle::B5G6R5"* nonnull %17, %"struct.angle::B5G6R5"* nonnull %18) #5
  call void @llvm.lifetime.end.p0i8(i64 2, i8* nonnull %33) #5
  call void @llvm.lifetime.end.p0i8(i64 2, i8* nonnull %31) #5
  call void @llvm.lifetime.end.p0i8(i64 2, i8* nonnull %29) #5
  call void @llvm.lifetime.end.p0i8(i64 2, i8* nonnull %27) #5
  call void @llvm.lifetime.end.p0i8(i64 2, i8* nonnull %25) #5
  call void @llvm.lifetime.end.p0i8(i64 2, i8* nonnull %23) #5
  %89 = add nuw i64 %61, 1
  %90 = icmp eq i64 %89, %6
  br i1 %90, label %57, label %60
}

declare void @_ZN5angle6B5G6R57averageEPS0_PKS0_S3_(%"struct.angle::B5G6R5"*, %"struct.angle::B5G6R5"*, %"struct.angle::B5G6R5"*) local_unnamed_addr #3

declare void @_ZN5angle6B5G6R59readColorEPNS_5ColorIfEEPKS0_(%"struct.angle::Color"*, %"struct.angle::B5G6R5"*) local_unnamed_addr #3

declare void @_ZN5angle6B5G6R510writeColorEPS0_PKNS_5ColorIfEE(%"struct.angle::B5G6R5"*, %"struct.angle::Color"*) local_unnamed_addr #3

; Function Attrs: nounwind ssp uwtable
define internal void @_ZN5angle4privL13GenerateMip_XINS_8B8G8R8A8EEEvmmmPKhmmmmmPhmm(i64, i64, i64, i8*, i64, i64, i64, i64, i64, i8*, i64, i64) unnamed_addr #0 {
  %13 = icmp eq i64 %6, 0
  br i1 %13, label %14, label %15

14:                                               ; preds = %15, %12
  ret void

15:                                               ; preds = %12, %15
  %16 = phi i64 [ %26, %15 ], [ 0, %12 ]
  %17 = shl i64 %16, 3
  %18 = getelementptr inbounds i8, i8* %3, i64 %17
  %19 = bitcast i8* %18 to %"struct.angle::B8G8R8A8"*
  %20 = or i64 %17, 4
  %21 = getelementptr inbounds i8, i8* %3, i64 %20
  %22 = bitcast i8* %21 to %"struct.angle::B8G8R8A8"*
  %23 = shl i64 %16, 2
  %24 = getelementptr inbounds i8, i8* %9, i64 %23
  %25 = bitcast i8* %24 to %"struct.angle::B8G8R8A8"*
  tail call void @_ZN5angle8B8G8R8A87averageEPS0_PKS0_S3_(%"struct.angle::B8G8R8A8"* %25, %"struct.angle::B8G8R8A8"* %19, %"struct.angle::B8G8R8A8"* %22) #5
  %26 = add nuw i64 %16, 1
  %27 = icmp eq i64 %26, %6
  br i1 %27, label %14, label %15
}

; Function Attrs: nounwind ssp uwtable
define internal void @_ZN5angle4privL13GenerateMip_YINS_8B8G8R8A8EEEvmmmPKhmmmmmPhmm(i64, i64, i64, i8*, i64, i64, i64, i64, i64, i8*, i64, i64) unnamed_addr #0 {
  %13 = icmp eq i64 %7, 0
  br i1 %13, label %14, label %15

14:                                               ; preds = %15, %12
  ret void

15:                                               ; preds = %12, %15
  %16 = phi i64 [ %28, %15 ], [ 0, %12 ]
  %17 = shl i64 %16, 1
  %18 = mul i64 %17, %4
  %19 = getelementptr inbounds i8, i8* %3, i64 %18
  %20 = bitcast i8* %19 to %"struct.angle::B8G8R8A8"*
  %21 = or i64 %17, 1
  %22 = mul i64 %21, %4
  %23 = getelementptr inbounds i8, i8* %3, i64 %22
  %24 = bitcast i8* %23 to %"struct.angle::B8G8R8A8"*
  %25 = mul i64 %16, %10
  %26 = getelementptr inbounds i8, i8* %9, i64 %25
  %27 = bitcast i8* %26 to %"struct.angle::B8G8R8A8"*
  tail call void @_ZN5angle8B8G8R8A87averageEPS0_PKS0_S3_(%"struct.angle::B8G8R8A8"* %27, %"struct.angle::B8G8R8A8"* %20, %"struct.angle::B8G8R8A8"* %24) #5
  %28 = add nuw i64 %16, 1
  %29 = icmp eq i64 %28, %7
  br i1 %29, label %14, label %15
}

; Function Attrs: nounwind ssp uwtable
define internal void @_ZN5angle4privL14GenerateMip_XYINS_8B8G8R8A8EEEvmmmPKhmmmmmPhmm(i64, i64, i64, i8*, i64, i64, i64, i64, i64, i8*, i64, i64) unnamed_addr #0 {
  %13 = alloca i32, align 4
  %14 = bitcast i32* %13 to %"struct.angle::B8G8R8A8"*
  %15 = alloca i32, align 4
  %16 = bitcast i32* %15 to %"struct.angle::B8G8R8A8"*
  %17 = icmp eq i64 %7, 0
  br i1 %17, label %31, label %18

18:                                               ; preds = %12
  %19 = icmp eq i64 %6, 0
  %20 = bitcast i32* %13 to i8*
  %21 = bitcast i32* %15 to i8*
  br label %22

22:                                               ; preds = %32, %18
  %23 = phi i64 [ 0, %18 ], [ %33, %32 ]
  br i1 %19, label %32, label %24

24:                                               ; preds = %22
  %25 = shl i64 %23, 1
  %26 = mul i64 %25, %4
  %27 = or i64 %25, 1
  %28 = mul i64 %27, %4
  %29 = mul i64 %23, %10
  %30 = getelementptr inbounds i8, i8* %9, i64 %29
  br label %35

31:                                               ; preds = %32, %12
  ret void

32:                                               ; preds = %35, %22
  %33 = add nuw i64 %23, 1
  %34 = icmp eq i64 %33, %7
  br i1 %34, label %31, label %22

35:                                               ; preds = %35, %24
  %36 = phi i64 [ 0, %24 ], [ %52, %35 ]
  %37 = shl i64 %36, 3
  %38 = getelementptr inbounds i8, i8* %3, i64 %37
  %39 = getelementptr inbounds i8, i8* %38, i64 %26
  %40 = bitcast i8* %39 to %"struct.angle::B8G8R8A8"*
  %41 = getelementptr inbounds i8, i8* %38, i64 %28
  %42 = bitcast i8* %41 to %"struct.angle::B8G8R8A8"*
  %43 = or i64 %37, 4
  %44 = getelementptr inbounds i8, i8* %3, i64 %43
  %45 = getelementptr inbounds i8, i8* %44, i64 %26
  %46 = bitcast i8* %45 to %"struct.angle::B8G8R8A8"*
  %47 = getelementptr inbounds i8, i8* %44, i64 %28
  %48 = bitcast i8* %47 to %"struct.angle::B8G8R8A8"*
  %49 = shl i64 %36, 2
  %50 = getelementptr inbounds i8, i8* %30, i64 %49
  %51 = bitcast i8* %50 to %"struct.angle::B8G8R8A8"*
  call void @llvm.lifetime.start.p0i8(i64 4, i8* nonnull %20) #5
  store i32 -1431655766, i32* %13, align 4
  call void @llvm.lifetime.start.p0i8(i64 4, i8* nonnull %21) #5
  store i32 -1431655766, i32* %15, align 4
  call void @_ZN5angle8B8G8R8A87averageEPS0_PKS0_S3_(%"struct.angle::B8G8R8A8"* nonnull %14, %"struct.angle::B8G8R8A8"* %40, %"struct.angle::B8G8R8A8"* %42) #5
  call void @_ZN5angle8B8G8R8A87averageEPS0_PKS0_S3_(%"struct.angle::B8G8R8A8"* nonnull %16, %"struct.angle::B8G8R8A8"* %46, %"struct.angle::B8G8R8A8"* %48) #5
  call void @_ZN5angle8B8G8R8A87averageEPS0_PKS0_S3_(%"struct.angle::B8G8R8A8"* %51, %"struct.angle::B8G8R8A8"* nonnull %14, %"struct.angle::B8G8R8A8"* nonnull %16) #5
  call void @llvm.lifetime.end.p0i8(i64 4, i8* nonnull %21) #5
  call void @llvm.lifetime.end.p0i8(i64 4, i8* nonnull %20) #5
  %52 = add nuw i64 %36, 1
  %53 = icmp eq i64 %52, %6
  br i1 %53, label %32, label %35
}

; Function Attrs: nounwind ssp uwtable
define internal void @_ZN5angle4privL13GenerateMip_ZINS_8B8G8R8A8EEEvmmmPKhmmmmmPhmm(i64, i64, i64, i8*, i64, i64, i64, i64, i64, i8*, i64, i64) unnamed_addr #0 {
  %13 = icmp eq i64 %8, 0
  br i1 %13, label %14, label %15

14:                                               ; preds = %15, %12
  ret void

15:                                               ; preds = %12, %15
  %16 = phi i64 [ %28, %15 ], [ 0, %12 ]
  %17 = shl i64 %16, 1
  %18 = mul i64 %17, %5
  %19 = getelementptr inbounds i8, i8* %3, i64 %18
  %20 = bitcast i8* %19 to %"struct.angle::B8G8R8A8"*
  %21 = or i64 %17, 1
  %22 = mul i64 %21, %5
  %23 = getelementptr inbounds i8, i8* %3, i64 %22
  %24 = bitcast i8* %23 to %"struct.angle::B8G8R8A8"*
  %25 = mul i64 %16, %11
  %26 = getelementptr inbounds i8, i8* %9, i64 %25
  %27 = bitcast i8* %26 to %"struct.angle::B8G8R8A8"*
  tail call void @_ZN5angle8B8G8R8A87averageEPS0_PKS0_S3_(%"struct.angle::B8G8R8A8"* %27, %"struct.angle::B8G8R8A8"* %20, %"struct.angle::B8G8R8A8"* %24) #5
  %28 = add nuw i64 %16, 1
  %29 = icmp eq i64 %28, %8
  br i1 %29, label %14, label %15
}

; Function Attrs: nounwind ssp uwtable
define internal void @_ZN5angle4privL14GenerateMip_XZINS_8B8G8R8A8EEEvmmmPKhmmmmmPhmm(i64, i64, i64, i8*, i64, i64, i64, i64, i64, i8*, i64, i64) unnamed_addr #0 {
  %13 = alloca i32, align 4
  %14 = bitcast i32* %13 to %"struct.angle::B8G8R8A8"*
  %15 = alloca i32, align 4
  %16 = bitcast i32* %15 to %"struct.angle::B8G8R8A8"*
  %17 = icmp eq i64 %8, 0
  br i1 %17, label %31, label %18

18:                                               ; preds = %12
  %19 = icmp eq i64 %6, 0
  %20 = bitcast i32* %13 to i8*
  %21 = bitcast i32* %15 to i8*
  br label %22

22:                                               ; preds = %32, %18
  %23 = phi i64 [ 0, %18 ], [ %33, %32 ]
  br i1 %19, label %32, label %24

24:                                               ; preds = %22
  %25 = shl i64 %23, 1
  %26 = mul i64 %25, %5
  %27 = or i64 %25, 1
  %28 = mul i64 %27, %5
  %29 = mul i64 %23, %11
  %30 = getelementptr inbounds i8, i8* %9, i64 %29
  br label %35

31:                                               ; preds = %32, %12
  ret void

32:                                               ; preds = %35, %22
  %33 = add nuw i64 %23, 1
  %34 = icmp eq i64 %33, %8
  br i1 %34, label %31, label %22

35:                                               ; preds = %35, %24
  %36 = phi i64 [ 0, %24 ], [ %52, %35 ]
  %37 = shl i64 %36, 3
  %38 = getelementptr inbounds i8, i8* %3, i64 %37
  %39 = getelementptr inbounds i8, i8* %38, i64 %26
  %40 = bitcast i8* %39 to %"struct.angle::B8G8R8A8"*
  %41 = getelementptr inbounds i8, i8* %38, i64 %28
  %42 = bitcast i8* %41 to %"struct.angle::B8G8R8A8"*
  %43 = or i64 %37, 4
  %44 = getelementptr inbounds i8, i8* %3, i64 %43
  %45 = getelementptr inbounds i8, i8* %44, i64 %26
  %46 = bitcast i8* %45 to %"struct.angle::B8G8R8A8"*
  %47 = getelementptr inbounds i8, i8* %44, i64 %28
  %48 = bitcast i8* %47 to %"struct.angle::B8G8R8A8"*
  %49 = shl i64 %36, 2
  %50 = getelementptr inbounds i8, i8* %30, i64 %49
  %51 = bitcast i8* %50 to %"struct.angle::B8G8R8A8"*
  call void @llvm.lifetime.start.p0i8(i64 4, i8* nonnull %20) #5
  store i32 -1431655766, i32* %13, align 4
  call void @llvm.lifetime.start.p0i8(i64 4, i8* nonnull %21) #5
  store i32 -1431655766, i32* %15, align 4
  call void @_ZN5angle8B8G8R8A87averageEPS0_PKS0_S3_(%"struct.angle::B8G8R8A8"* nonnull %14, %"struct.angle::B8G8R8A8"* %40, %"struct.angle::B8G8R8A8"* %42) #5
  call void @_ZN5angle8B8G8R8A87averageEPS0_PKS0_S3_(%"struct.angle::B8G8R8A8"* nonnull %16, %"struct.angle::B8G8R8A8"* %46, %"struct.angle::B8G8R8A8"* %48) #5
  call void @_ZN5angle8B8G8R8A87averageEPS0_PKS0_S3_(%"struct.angle::B8G8R8A8"* %51, %"struct.angle::B8G8R8A8"* nonnull %14, %"struct.angle::B8G8R8A8"* nonnull %16) #5
  call void @llvm.lifetime.end.p0i8(i64 4, i8* nonnull %21) #5
  call void @llvm.lifetime.end.p0i8(i64 4, i8* nonnull %20) #5
  %52 = add nuw i64 %36, 1
  %53 = icmp eq i64 %52, %6
  br i1 %53, label %32, label %35
}

; Function Attrs: nounwind ssp uwtable
define internal void @_ZN5angle4privL14GenerateMip_YZINS_8B8G8R8A8EEEvmmmPKhmmmmmPhmm(i64, i64, i64, i8*, i64, i64, i64, i64, i64, i8*, i64, i64) unnamed_addr #0 {
  %13 = alloca i32, align 4
  %14 = bitcast i32* %13 to %"struct.angle::B8G8R8A8"*
  %15 = alloca i32, align 4
  %16 = bitcast i32* %15 to %"struct.angle::B8G8R8A8"*
  %17 = icmp eq i64 %8, 0
  br i1 %17, label %31, label %18

18:                                               ; preds = %12
  %19 = icmp eq i64 %7, 0
  %20 = bitcast i32* %13 to i8*
  %21 = bitcast i32* %15 to i8*
  br label %22

22:                                               ; preds = %32, %18
  %23 = phi i64 [ 0, %18 ], [ %33, %32 ]
  br i1 %19, label %32, label %24

24:                                               ; preds = %22
  %25 = shl i64 %23, 1
  %26 = mul i64 %25, %5
  %27 = or i64 %25, 1
  %28 = mul i64 %27, %5
  %29 = mul i64 %23, %11
  %30 = getelementptr inbounds i8, i8* %9, i64 %29
  br label %35

31:                                               ; preds = %32, %12
  ret void

32:                                               ; preds = %35, %22
  %33 = add nuw i64 %23, 1
  %34 = icmp eq i64 %33, %8
  br i1 %34, label %31, label %22

35:                                               ; preds = %35, %24
  %36 = phi i64 [ 0, %24 ], [ %54, %35 ]
  %37 = shl i64 %36, 1
  %38 = mul i64 %37, %4
  %39 = getelementptr inbounds i8, i8* %3, i64 %38
  %40 = getelementptr inbounds i8, i8* %39, i64 %26
  %41 = bitcast i8* %40 to %"struct.angle::B8G8R8A8"*
  %42 = getelementptr inbounds i8, i8* %39, i64 %28
  %43 = bitcast i8* %42 to %"struct.angle::B8G8R8A8"*
  %44 = or i64 %37, 1
  %45 = mul i64 %44, %4
  %46 = getelementptr inbounds i8, i8* %3, i64 %45
  %47 = getelementptr inbounds i8, i8* %46, i64 %26
  %48 = bitcast i8* %47 to %"struct.angle::B8G8R8A8"*
  %49 = getelementptr inbounds i8, i8* %46, i64 %28
  %50 = bitcast i8* %49 to %"struct.angle::B8G8R8A8"*
  %51 = mul i64 %36, %10
  %52 = getelementptr inbounds i8, i8* %30, i64 %51
  %53 = bitcast i8* %52 to %"struct.angle::B8G8R8A8"*
  call void @llvm.lifetime.start.p0i8(i64 4, i8* nonnull %20) #5
  store i32 -1431655766, i32* %13, align 4
  call void @llvm.lifetime.start.p0i8(i64 4, i8* nonnull %21) #5
  store i32 -1431655766, i32* %15, align 4
  call void @_ZN5angle8B8G8R8A87averageEPS0_PKS0_S3_(%"struct.angle::B8G8R8A8"* nonnull %14, %"struct.angle::B8G8R8A8"* %41, %"struct.angle::B8G8R8A8"* %43) #5
  call void @_ZN5angle8B8G8R8A87averageEPS0_PKS0_S3_(%"struct.angle::B8G8R8A8"* nonnull %16, %"struct.angle::B8G8R8A8"* %48, %"struct.angle::B8G8R8A8"* %50) #5
  call void @_ZN5angle8B8G8R8A87averageEPS0_PKS0_S3_(%"struct.angle::B8G8R8A8"* %53, %"struct.angle::B8G8R8A8"* nonnull %14, %"struct.angle::B8G8R8A8"* nonnull %16) #5
  call void @llvm.lifetime.end.p0i8(i64 4, i8* nonnull %21) #5
  call void @llvm.lifetime.end.p0i8(i64 4, i8* nonnull %20) #5
  %54 = add nuw i64 %36, 1
  %55 = icmp eq i64 %54, %7
  br i1 %55, label %32, label %35
}

; Function Attrs: nounwind ssp uwtable
define internal void @_ZN5angle4privL15GenerateMip_XYZINS_8B8G8R8A8EEEvmmmPKhmmmmmPhmm(i64, i64, i64, i8*, i64, i64, i64, i64, i64, i8*, i64, i64) unnamed_addr #0 {
  %13 = alloca i32, align 4
  %14 = bitcast i32* %13 to %"struct.angle::B8G8R8A8"*
  %15 = alloca i32, align 4
  %16 = bitcast i32* %15 to %"struct.angle::B8G8R8A8"*
  %17 = alloca i32, align 4
  %18 = bitcast i32* %17 to %"struct.angle::B8G8R8A8"*
  %19 = alloca i32, align 4
  %20 = bitcast i32* %19 to %"struct.angle::B8G8R8A8"*
  %21 = alloca i32, align 4
  %22 = bitcast i32* %21 to %"struct.angle::B8G8R8A8"*
  %23 = alloca i32, align 4
  %24 = bitcast i32* %23 to %"struct.angle::B8G8R8A8"*
  %25 = icmp eq i64 %8, 0
  br i1 %25, label %44, label %26

26:                                               ; preds = %12
  %27 = icmp eq i64 %7, 0
  %28 = icmp eq i64 %6, 0
  %29 = bitcast i32* %13 to i8*
  %30 = bitcast i32* %15 to i8*
  %31 = bitcast i32* %17 to i8*
  %32 = bitcast i32* %19 to i8*
  %33 = bitcast i32* %21 to i8*
  %34 = bitcast i32* %23 to i8*
  br label %35

35:                                               ; preds = %54, %26
  %36 = phi i64 [ 0, %26 ], [ %55, %54 ]
  br i1 %27, label %54, label %37

37:                                               ; preds = %35
  %38 = shl i64 %36, 1
  %39 = mul i64 %38, %5
  %40 = or i64 %38, 1
  %41 = mul i64 %40, %5
  %42 = mul i64 %36, %11
  %43 = getelementptr inbounds i8, i8* %9, i64 %42
  br label %45

44:                                               ; preds = %54, %12
  ret void

45:                                               ; preds = %57, %37
  %46 = phi i64 [ 0, %37 ], [ %58, %57 ]
  br i1 %28, label %57, label %47

