; ModuleID = '../../third_party/icu/source/i18n/fphdlimp.cpp'
source_filename = "../../third_party/icu/source/i18n/fphdlimp.cpp"
target datalayout = "e-m:e-i64:64-f80:128-n8:16:32:64-S128"
target triple = "x86_64-unknown-linux-gnu"

%"class.icu_69::FieldPositionHandler" = type <{ i32 (...)**, i32, [4 x i8] }>
%"class.icu_69::FieldPositionOnlyHandler" = type <{ %"class.icu_69::FieldPositionHandler.base", [4 x i8], %"class.icu_69::FieldPosition"*, i8, i8, [6 x i8] }>
%"class.icu_69::FieldPositionHandler.base" = type <{ i32 (...)**, i32 }>
%"class.icu_69::FieldPosition" = type <{ %"class.icu_69::UObject", i32, i32, i32, [4 x i8] }>
%"class.icu_69::UObject" = type { i32 (...)** }
%"class.icu_69::FieldPositionIteratorHandler" = type { %"class.icu_69::FieldPositionHandler.base", %"class.icu_69::FieldPositionIterator"*, %"class.icu_69::UVector32"*, i32, i32 }
%"class.icu_69::UVector32" = type { %"class.icu_69::UObject", i32, i32, i32, i32* }
%"class.icu_69::FieldPositionIterator" = type <{ %"class.icu_69::UObject", %"class.icu_69::UVector32"*, i32, [4 x i8] }>

$_ZTSN6icu_697UMemoryE = comdat any

$_ZTIN6icu_697UMemoryE = comdat any

@_ZTVN6icu_6924FieldPositionOnlyHandlerE = hidden unnamed_addr constant { [7 x i8*] } { [7 x i8*] [i8* null, i8* bitcast ({ i8*, i8*, i8* }* @_ZTIN6icu_6924FieldPositionOnlyHandlerE to i8*), i8* bitcast (void (%"class.icu_69::FieldPositionHandler"*)* @_ZN6icu_6920FieldPositionHandlerD2Ev to i8*), i8* bitcast (void (%"class.icu_69::FieldPositionOnlyHandler"*)* @_ZN6icu_6924FieldPositionOnlyHandlerD0Ev to i8*), i8* bitcast (void (%"class.icu_69::FieldPositionOnlyHandler"*, i32, i32, i32)* @_ZN6icu_6924FieldPositionOnlyHandler12addAttributeEiii to i8*), i8* bitcast (void (%"class.icu_69::FieldPositionOnlyHandler"*, i32)* @_ZN6icu_6924FieldPositionOnlyHandler9shiftLastEi to i8*), i8* bitcast (i8 (%"class.icu_69::FieldPositionOnlyHandler"*)* @_ZNK6icu_6924FieldPositionOnlyHandler11isRecordingEv to i8*)] }, align 8
@_ZTVN6icu_6928FieldPositionIteratorHandlerE = hidden unnamed_addr constant { [7 x i8*] } { [7 x i8*] [i8* null, i8* bitcast ({ i8*, i8*, i8* }* @_ZTIN6icu_6928FieldPositionIteratorHandlerE to i8*), i8* bitcast (void (%"class.icu_69::FieldPositionIteratorHandler"*)* @_ZN6icu_6928FieldPositionIteratorHandlerD2Ev to i8*), i8* bitcast (void (%"class.icu_69::FieldPositionIteratorHandler"*)* @_ZN6icu_6928FieldPositionIteratorHandlerD0Ev to i8*), i8* bitcast (void (%"class.icu_69::FieldPositionIteratorHandler"*, i32, i32, i32)* @_ZN6icu_6928FieldPositionIteratorHandler12addAttributeEiii to i8*), i8* bitcast (void (%"class.icu_69::FieldPositionIteratorHandler"*, i32)* @_ZN6icu_6928FieldPositionIteratorHandler9shiftLastEi to i8*), i8* bitcast (i8 (%"class.icu_69::FieldPositionIteratorHandler"*)* @_ZNK6icu_6928FieldPositionIteratorHandler11isRecordingEv to i8*)] }, align 8
@_ZTVN6icu_6920FieldPositionHandlerE = hidden unnamed_addr constant { [7 x i8*] } { [7 x i8*] [i8* null, i8* bitcast ({ i8*, i8*, i8* }* @_ZTIN6icu_6920FieldPositionHandlerE to i8*), i8* bitcast (void (%"class.icu_69::FieldPositionHandler"*)* @_ZN6icu_6920FieldPositionHandlerD2Ev to i8*), i8* bitcast (void (%"class.icu_69::FieldPositionHandler"*)* @_ZN6icu_6920FieldPositionHandlerD0Ev to i8*), i8* bitcast (void ()* @__cxa_pure_virtual to i8*), i8* bitcast (void ()* @__cxa_pure_virtual to i8*), i8* bitcast (void ()* @__cxa_pure_virtual to i8*)] }, align 8
@_ZTVN10__cxxabiv120__si_class_type_infoE = external global i8*
@_ZTSN6icu_6920FieldPositionHandlerE = hidden constant [32 x i8] c"N6icu_6920FieldPositionHandlerE\00", align 1
@_ZTVN10__cxxabiv117__class_type_infoE = external global i8*
@_ZTSN6icu_697UMemoryE = linkonce_odr hidden constant [18 x i8] c"N6icu_697UMemoryE\00", comdat, align 1
@_ZTIN6icu_697UMemoryE = linkonce_odr hidden constant { i8*, i8* } { i8* bitcast (i8** getelementptr inbounds (i8*, i8** @_ZTVN10__cxxabiv117__class_type_infoE, i64 2) to i8*), i8* getelementptr inbounds ([18 x i8], [18 x i8]* @_ZTSN6icu_697UMemoryE, i32 0, i32 0) }, comdat, align 8
@_ZTIN6icu_6920FieldPositionHandlerE = hidden constant { i8*, i8*, i8* } { i8* bitcast (i8** getelementptr inbounds (i8*, i8** @_ZTVN10__cxxabiv120__si_class_type_infoE, i64 2) to i8*), i8* getelementptr inbounds ([32 x i8], [32 x i8]* @_ZTSN6icu_6920FieldPositionHandlerE, i32 0, i32 0), i8* bitcast ({ i8*, i8* }* @_ZTIN6icu_697UMemoryE to i8*) }, align 8
@_ZTSN6icu_6924FieldPositionOnlyHandlerE = hidden constant [36 x i8] c"N6icu_6924FieldPositionOnlyHandlerE\00", align 1
@_ZTIN6icu_6924FieldPositionOnlyHandlerE = hidden constant { i8*, i8*, i8* } { i8* bitcast (i8** getelementptr inbounds (i8*, i8** @_ZTVN10__cxxabiv120__si_class_type_infoE, i64 2) to i8*), i8* getelementptr inbounds ([36 x i8], [36 x i8]* @_ZTSN6icu_6924FieldPositionOnlyHandlerE, i32 0, i32 0), i8* bitcast ({ i8*, i8*, i8* }* @_ZTIN6icu_6920FieldPositionHandlerE to i8*) }, align 8
@_ZTSN6icu_6928FieldPositionIteratorHandlerE = hidden constant [40 x i8] c"N6icu_6928FieldPositionIteratorHandlerE\00", align 1
@_ZTIN6icu_6928FieldPositionIteratorHandlerE = hidden constant { i8*, i8*, i8* } { i8* bitcast (i8** getelementptr inbounds (i8*, i8** @_ZTVN10__cxxabiv120__si_class_type_infoE, i64 2) to i8*), i8* getelementptr inbounds ([40 x i8], [40 x i8]* @_ZTSN6icu_6928FieldPositionIteratorHandlerE, i32 0, i32 0), i8* bitcast ({ i8*, i8*, i8* }* @_ZTIN6icu_6920FieldPositionHandlerE to i8*) }, align 8

@_ZN6icu_6920FieldPositionHandlerD1Ev = hidden unnamed_addr alias void (%"class.icu_69::FieldPositionHandler"*), void (%"class.icu_69::FieldPositionHandler"*)* @_ZN6icu_6920FieldPositionHandlerD2Ev
@_ZN6icu_6924FieldPositionOnlyHandlerC1ERNS_13FieldPositionE = hidden unnamed_addr alias void (%"class.icu_69::FieldPositionOnlyHandler"*, %"class.icu_69::FieldPosition"*), void (%"class.icu_69::FieldPositionOnlyHandler"*, %"class.icu_69::FieldPosition"*)* @_ZN6icu_6924FieldPositionOnlyHandlerC2ERNS_13FieldPositionE
@_ZN6icu_6924FieldPositionOnlyHandlerD2Ev = hidden unnamed_addr alias void (%"class.icu_69::FieldPositionOnlyHandler"*), bitcast (void (%"class.icu_69::FieldPositionHandler"*)* @_ZN6icu_6920FieldPositionHandlerD2Ev to void (%"class.icu_69::FieldPositionOnlyHandler"*)*)
@_ZN6icu_6924FieldPositionOnlyHandlerD1Ev = hidden unnamed_addr alias void (%"class.icu_69::FieldPositionOnlyHandler"*), bitcast (void (%"class.icu_69::FieldPositionHandler"*)* @_ZN6icu_6920FieldPositionHandlerD2Ev to void (%"class.icu_69::FieldPositionOnlyHandler"*)*)
@_ZN6icu_6928FieldPositionIteratorHandlerC1EPNS_21FieldPositionIteratorER10UErrorCode = hidden unnamed_addr alias void (%"class.icu_69::FieldPositionIteratorHandler"*, %"class.icu_69::FieldPositionIterator"*, i32*), void (%"class.icu_69::FieldPositionIteratorHandler"*, %"class.icu_69::FieldPositionIterator"*, i32*)* @_ZN6icu_6928FieldPositionIteratorHandlerC2EPNS_21FieldPositionIteratorER10UErrorCode
@_ZN6icu_6928FieldPositionIteratorHandlerC1EPNS_9UVector32ER10UErrorCode = hidden unnamed_addr alias void (%"class.icu_69::FieldPositionIteratorHandler"*, %"class.icu_69::UVector32"*, i32*), void (%"class.icu_69::FieldPositionIteratorHandler"*, %"class.icu_69::UVector32"*, i32*)* @_ZN6icu_6928FieldPositionIteratorHandlerC2EPNS_9UVector32ER10UErrorCode
@_ZN6icu_6928FieldPositionIteratorHandlerD1Ev = hidden unnamed_addr alias void (%"class.icu_69::FieldPositionIteratorHandler"*), void (%"class.icu_69::FieldPositionIteratorHandler"*)* @_ZN6icu_6928FieldPositionIteratorHandlerD2Ev

; Function Attrs: norecurse nounwind readnone ssp uwtable
define hidden void @_ZN6icu_6920FieldPositionHandlerD2Ev(%"class.icu_69::FieldPositionHandler"* nocapture) unnamed_addr #0 align 2 {
  ret void
}

; Function Attrs: noreturn nounwind ssp uwtable
define hidden void @_ZN6icu_6920FieldPositionHandlerD0Ev(%"class.icu_69::FieldPositionHandler"* nocapture readnone) unnamed_addr #1 align 2 {
  tail call void @llvm.trap() #9
  unreachable
}

; Function Attrs: cold noreturn nounwind
declare void @llvm.trap() #2

; Function Attrs: nofree norecurse nounwind ssp uwtable writeonly
define hidden void @_ZN6icu_6920FieldPositionHandler8setShiftEi(%"class.icu_69::FieldPositionHandler"* nocapture, i32) local_unnamed_addr #3 align 2 {
  %3 = getelementptr inbounds %"class.icu_69::FieldPositionHandler", %"class.icu_69::FieldPositionHandler"* %0, i64 0, i32 1
  store i32 %1, i32* %3, align 8
  ret void
}

; Function Attrs: nofree norecurse nounwind ssp uwtable writeonly
define hidden void @_ZN6icu_6924FieldPositionOnlyHandlerC2ERNS_13FieldPositionE(%"class.icu_69::FieldPositionOnlyHandler"* nocapture, %"class.icu_69::FieldPosition"* dereferenceable(24)) unnamed_addr #3 align 2 {
  %3 = getelementptr inbounds %"class.icu_69::FieldPositionOnlyHandler", %"class.icu_69::FieldPositionOnlyHandler"* %0, i64 0, i32 0, i32 0
  %4 = getelementptr inbounds %"class.icu_69::FieldPositionOnlyHandler", %"class.icu_69::FieldPositionOnlyHandler"* %0, i64 0, i32 0, i32 1
  store i32 0, i32* %4, align 8
  store i32 (...)** bitcast (i8** getelementptr inbounds ({ [7 x i8*] }, { [7 x i8*] }* @_ZTVN6icu_6924FieldPositionOnlyHandlerE, i64 0, inrange i32 0, i64 2) to i32 (...)**), i32 (...)*** %3, align 8
  %5 = getelementptr inbounds %"class.icu_69::FieldPositionOnlyHandler", %"class.icu_69::FieldPositionOnlyHandler"* %0, i64 0, i32 2
  store %"class.icu_69::FieldPosition"* %1, %"class.icu_69::FieldPosition"** %5, align 8
  %6 = getelementptr inbounds %"class.icu_69::FieldPositionOnlyHandler", %"class.icu_69::FieldPositionOnlyHandler"* %0, i64 0, i32 3
  store i8 0, i8* %6, align 8
  %7 = getelementptr inbounds %"class.icu_69::FieldPositionOnlyHandler", %"class.icu_69::FieldPositionOnlyHandler"* %0, i64 0, i32 4
  store i8 0, i8* %7, align 1
  ret void
}

; Function Attrs: nounwind ssp uwtable
define hidden void @_ZN6icu_6924FieldPositionOnlyHandlerD0Ev(%"class.icu_69::FieldPositionOnlyHandler"*) unnamed_addr #4 align 2 {
  %2 = bitcast %"class.icu_69::FieldPositionOnlyHandler"* %0 to i8*
  tail call void @_ZN6icu_697UMemorydlEPv(i8* %2) #10
  ret void
}

; Function Attrs: nounwind
declare void @_ZN6icu_697UMemorydlEPv(i8*) local_unnamed_addr #5

; Function Attrs: nofree norecurse nounwind ssp uwtable
define hidden void @_ZN6icu_6924FieldPositionOnlyHandler12addAttributeEiii(%"class.icu_69::FieldPositionOnlyHandler"* nocapture, i32, i32, i32) unnamed_addr #6 align 2 {
  %5 = getelementptr inbounds %"class.icu_69::FieldPositionOnlyHandler", %"class.icu_69::FieldPositionOnlyHandler"* %0, i64 0, i32 2
  %6 = load %"class.icu_69::FieldPosition"*, %"class.icu_69::FieldPosition"** %5, align 8
  %7 = getelementptr inbounds %"class.icu_69::FieldPosition", %"class.icu_69::FieldPosition"* %6, i64 0, i32 1
  %8 = load i32, i32* %7, align 8
  %9 = icmp eq i32 %8, %1
  br i1 %9, label %10, label %28

10:                                               ; preds = %4
  %11 = getelementptr inbounds %"class.icu_69::FieldPositionOnlyHandler", %"class.icu_69::FieldPositionOnlyHandler"* %0, i64 0, i32 3
  %12 = load i8, i8* %11, align 8
  %13 = icmp eq i8 %12, 0
  br i1 %13, label %18, label %14

14:                                               ; preds = %10
  %15 = getelementptr inbounds %"class.icu_69::FieldPositionOnlyHandler", %"class.icu_69::FieldPositionOnlyHandler"* %0, i64 0, i32 4
  %16 = load i8, i8* %15, align 1
  %17 = icmp eq i8 %16, 0
  br i1 %17, label %18, label %28

18:                                               ; preds = %14, %10
  %19 = getelementptr inbounds %"class.icu_69::FieldPositionOnlyHandler", %"class.icu_69::FieldPositionOnlyHandler"* %0, i64 0, i32 4
  store i8 1, i8* %19, align 1
  %20 = getelementptr inbounds %"class.icu_69::FieldPositionOnlyHandler", %"class.icu_69::FieldPositionOnlyHandler"* %0, i64 0, i32 0, i32 1
  %21 = load i32, i32* %20, align 8
  %22 = add nsw i32 %21, %2
  %23 = getelementptr inbounds %"class.icu_69::FieldPosition", %"class.icu_69::FieldPosition"* %6, i64 0, i32 2
  store i32 %22, i32* %23, align 4
  %24 = load %"class.icu_69::FieldPosition"*, %"class.icu_69::FieldPosition"** %5, align 8
  %25 = load i32, i32* %20, align 8
  %26 = add nsw i32 %25, %3
  %27 = getelementptr inbounds %"class.icu_69::FieldPosition", %"class.icu_69::FieldPosition"* %24, i64 0, i32 3
  store i32 %26, i32* %27, align 8
  br label %28

28:                                               ; preds = %14, %18, %4
  ret void
}

; Function Attrs: nofree norecurse nounwind ssp uwtable
define hidden void @_ZN6icu_6924FieldPositionOnlyHandler9shiftLastEi(%"class.icu_69::FieldPositionOnlyHandler"* nocapture readonly, i32) unnamed_addr #6 align 2 {
  %3 = icmp eq i32 %1, 0
  br i1 %3, label %20, label %4

4:                                                ; preds = %2
  %5 = getelementptr inbounds %"class.icu_69::FieldPositionOnlyHandler", %"class.icu_69::FieldPositionOnlyHandler"* %0, i64 0, i32 2
  %6 = load %"class.icu_69::FieldPosition"*, %"class.icu_69::FieldPosition"** %5, align 8
  %7 = getelementptr inbounds %"class.icu_69::FieldPosition", %"class.icu_69::FieldPosition"* %6, i64 0, i32 1
  %8 = load i32, i32* %7, align 8
  %9 = icmp eq i32 %8, -1
  br i1 %9, label %20, label %10

10:                                               ; preds = %4
  %11 = getelementptr inbounds %"class.icu_69::FieldPosition", %"class.icu_69::FieldPosition"* %6, i64 0, i32 2
  %12 = load i32, i32* %11, align 4
  %13 = icmp eq i32 %12, -1
  br i1 %13, label %20, label %14

14:                                               ; preds = %10
  %15 = add nsw i32 %12, %1
  store i32 %15, i32* %11, align 4
  %16 = load %"class.icu_69::FieldPosition"*, %"class.icu_69::FieldPosition"** %5, align 8
  %17 = getelementptr inbounds %"class.icu_69::FieldPosition", %"class.icu_69::FieldPosition"* %16, i64 0, i32 3
  %18 = load i32, i32* %17, align 8
  %19 = add nsw i32 %18, %1
  store i32 %19, i32* %17, align 8
  br label %20

20:                                               ; preds = %10, %4, %2, %14
  ret void
}

; Function Attrs: norecurse nounwind readonly ssp uwtable
define hidden signext i8 @_ZNK6icu_6924FieldPositionOnlyHandler11isRecordingEv(%"class.icu_69::FieldPositionOnlyHandler"* nocapture readonly) unnamed_addr #7 align 2 {
  %2 = getelementptr inbounds %"class.icu_69::FieldPositionOnlyHandler", %"class.icu_69::FieldPositionOnlyHandler"* %0, i64 0, i32 2
  %3 = load %"class.icu_69::FieldPosition"*, %"class.icu_69::FieldPosition"** %2, align 8
  %4 = getelementptr inbounds %"class.icu_69::FieldPosition", %"class.icu_69::FieldPosition"* %3, i64 0, i32 1
  %5 = load i32, i32* %4, align 8
  %6 = icmp ne i32 %5, -1
  %7 = zext i1 %6 to i8
  ret i8 %7
}

; Function Attrs: nofree norecurse nounwind ssp uwtable writeonly
define hidden void @_ZN6icu_6924FieldPositionOnlyHandler18setAcceptFirstOnlyEa(%"class.icu_69::FieldPositionOnlyHandler"* nocapture, i8 signext) local_unnamed_addr #3 align 2 {
  %3 = getelementptr inbounds %"class.icu_69::FieldPositionOnlyHandler", %"class.icu_69::FieldPositionOnlyHandler"* %0, i64 0, i32 3
  store i8 %1, i8* %3, align 8
  ret void
}

; Function Attrs: nounwind ssp uwtable
define hidden void @_ZN6icu_6928FieldPositionIteratorHandlerC2EPNS_21FieldPositionIteratorER10UErrorCode(%"class.icu_69::FieldPositionIteratorHandler"*, %"class.icu_69::FieldPositionIterator"*, i32* nocapture readonly dereferenceable(4)) unnamed_addr #4 align 2 {
  %4 = getelementptr inbounds %"class.icu_69::FieldPositionIteratorHandler", %"class.icu_69::FieldPositionIteratorHandler"* %0, i64 0, i32 0, i32 0
  %5 = getelementptr inbounds %"class.icu_69::FieldPositionIteratorHandler", %"class.icu_69::FieldPositionIteratorHandler"* %0, i64 0, i32 0, i32 1
  store i32 0, i32* %5, align 8
  store i32 (...)** bitcast (i8** getelementptr inbounds ({ [7 x i8*] }, { [7 x i8*] }* @_ZTVN6icu_6928FieldPositionIteratorHandlerE, i64 0, inrange i32 0, i64 2) to i32 (...)**), i32 (...)*** %4, align 8
  %6 = getelementptr inbounds %"class.icu_69::FieldPositionIteratorHandler", %"class.icu_69::FieldPositionIteratorHandler"* %0, i64 0, i32 1
  store %"class.icu_69::FieldPositionIterator"* %1, %"class.icu_69::FieldPositionIterator"** %6, align 8
  %7 = getelementptr inbounds %"class.icu_69::FieldPositionIteratorHandler", %"class.icu_69::FieldPositionIteratorHandler"* %0, i64 0, i32 2
  store %"class.icu_69::UVector32"* null, %"class.icu_69::UVector32"** %7, align 8
  %8 = getelementptr inbounds %"class.icu_69::FieldPositionIteratorHandler", %"class.icu_69::FieldPositionIteratorHandler"* %0, i64 0, i32 3
  %9 = load i32, i32* %2, align 4
  store i32 %9, i32* %8, align 8
  %10 = getelementptr inbounds %"class.icu_69::FieldPositionIteratorHandler", %"class.icu_69::FieldPositionIteratorHandler"* %0, i64 0, i32 4
  store i32 0, i32* %10, align 4
  %11 = icmp eq %"class.icu_69::FieldPositionIterator"* %1, null
  %12 = icmp sgt i32 %9, 0
  %13 = or i1 %11, %12
  br i1 %13, label %21, label %14

14:                                               ; preds = %3
  %15 = tail call i8* @_ZN6icu_697UMemorynwEm(i64 32) #10
  %16 = icmp eq i8* %15, null
  br i1 %16, label %19, label %17

17:                                               ; preds = %14
  %18 = bitcast i8* %15 to %"class.icu_69::UVector32"*
  tail call void @_ZN6icu_699UVector32C1ER10UErrorCode(%"class.icu_69::UVector32"* nonnull %18, i32* dereferenceable(4) %8) #10
  br label %19

19:                                               ; preds = %17, %14
  %20 = phi %"class.icu_69::UVector32"* [ %18, %17 ], [ null, %14 ]
  store %"class.icu_69::UVector32"* %20, %"class.icu_69::UVector32"** %7, align 8
  br label %21

21:                                               ; preds = %3, %19
  ret void
}

; Function Attrs: nounwind
declare i8* @_ZN6icu_697UMemorynwEm(i64) local_unnamed_addr #5

declare void @_ZN6icu_699UVector32C1ER10UErrorCode(%"class.icu_69::UVector32"*, i32* dereferenceable(4)) unnamed_addr #8

; Function Attrs: nofree norecurse nounwind ssp uwtable
define hidden void @_ZN6icu_6928FieldPositionIteratorHandlerC2EPNS_9UVector32ER10UErrorCode(%"class.icu_69::FieldPositionIteratorHandler"* nocapture, %"class.icu_69::UVector32"*, i32* nocapture readonly dereferenceable(4)) unnamed_addr #6 align 2 {
  %4 = getelementptr inbounds %"class.icu_69::FieldPositionIteratorHandler", %"class.icu_69::FieldPositionIteratorHandler"* %0, i64 0, i32 0, i32 0
  %5 = getelementptr inbounds %"class.icu_69::FieldPositionIteratorHandler", %"class.icu_69::FieldPositionIteratorHandler"* %0, i64 0, i32 0, i32 1
  store i32 0, i32* %5, align 8
  store i32 (...)** bitcast (i8** getelementptr inbounds ({ [7 x i8*] }, { [7 x i8*] }* @_ZTVN6icu_6928FieldPositionIteratorHandlerE, i64 0, inrange i32 0, i64 2) to i32 (...)**), i32 (...)*** %4, align 8
  %6 = getelementptr inbounds %"class.icu_69::FieldPositionIteratorHandler", %"class.icu_69::FieldPositionIteratorHandler"* %0, i64 0, i32 1
  store %"class.icu_69::FieldPositionIterator"* null, %"class.icu_69::FieldPositionIterator"** %6, align 8
  %7 = getelementptr inbounds %"class.icu_69::FieldPositionIteratorHandler", %"class.icu_69::FieldPositionIteratorHandler"* %0, i64 0, i32 2
  store %"class.icu_69::UVector32"* %1, %"class.icu_69::UVector32"** %7, align 8
  %8 = getelementptr inbounds %"class.icu_69::FieldPositionIteratorHandler", %"class.icu_69::FieldPositionIteratorHandler"* %0, i64 0, i32 3
  %9 = load i32, i32* %2, align 4
  store i32 %9, i32* %8, align 8
  %10 = getelementptr inbounds %"class.icu_69::FieldPositionIteratorHandler", %"class.icu_69::FieldPositionIteratorHandler"* %0, i64 0, i32 4
  store i32 0, i32* %10, align 4
  ret void
}

; Function Attrs: nounwind ssp uwtable
define hidden void @_ZN6icu_6928FieldPositionIteratorHandlerD2Ev(%"class.icu_69::FieldPositionIteratorHandler"*) unnamed_addr #4 align 2 {
  %2 = getelementptr inbounds %"class.icu_69::FieldPositionIteratorHandler", %"class.icu_69::FieldPositionIteratorHandler"* %0, i64 0, i32 0, i32 0
  store i32 (...)** bitcast (i8** getelementptr inbounds ({ [7 x i8*] }, { [7 x i8*] }* @_ZTVN6icu_6928FieldPositionIteratorHandlerE, i64 0, inrange i32 0, i64 2) to i32 (...)**), i32 (...)*** %2, align 8
  %3 = getelementptr inbounds %"class.icu_69::FieldPositionIteratorHandler", %"class.icu_69::FieldPositionIteratorHandler"* %0, i64 0, i32 1
  %4 = load %"class.icu_69::FieldPositionIterator"*, %"class.icu_69::FieldPositionIterator"** %3, align 8
  %5 = icmp eq %"class.icu_69::FieldPositionIterator"* %4, null
  br i1 %5, label %10, label %6

6:                                                ; preds = %1
  %7 = getelementptr inbounds %"class.icu_69::FieldPositionIteratorHandler", %"class.icu_69::FieldPositionIteratorHandler"* %0, i64 0, i32 2
  %8 = load %"class.icu_69::UVector32"*, %"class.icu_69::UVector32"** %7, align 8
  %9 = getelementptr inbounds %"class.icu_69::FieldPositionIteratorHandler", %"class.icu_69::FieldPositionIteratorHandler"* %0, i64 0, i32 3
  tail call void @_ZN6icu_6921FieldPositionIterator7setDataEPNS_9UVector32ER10UErrorCode(%"class.icu_69::FieldPositionIterator"* nonnull %4, %"class.icu_69::UVector32"* %8, i32* dereferenceable(4) %9) #10
  br label %10

10:                                               ; preds = %1, %6
  %11 = getelementptr inbounds %"class.icu_69::FieldPositionIteratorHandler", %"class.icu_69::FieldPositionIteratorHandler"* %0, i64 0, i32 2
  store %"class.icu_69::UVector32"* null, %"class.icu_69::UVector32"** %11, align 8
  ret void
}

declare void @_ZN6icu_6921FieldPositionIterator7setDataEPNS_9UVector32ER10UErrorCode(%"class.icu_69::FieldPositionIterator"*, %"class.icu_69::UVector32"*, i32* dereferenceable(4)) local_unnamed_addr #8

; Function Attrs: nounwind ssp uwtable
define hidden void @_ZN6icu_6928FieldPositionIteratorHandlerD0Ev(%"class.icu_69::FieldPositionIteratorHandler"*) unnamed_addr #4 align 2 {
  %2 = getelementptr inbounds %"class.icu_69::FieldPositionIteratorHandler", %"class.icu_69::FieldPositionIteratorHandler"* %0, i64 0, i32 0, i32 0
  store i32 (...)** bitcast (i8** getelementptr inbounds ({ [7 x i8*] }, { [7 x i8*] }* @_ZTVN6icu_6928FieldPositionIteratorHandlerE, i64 0, inrange i32 0, i64 2) to i32 (...)**), i32 (...)*** %2, align 8
  %3 = getelementptr inbounds %"class.icu_69::FieldPositionIteratorHandler", %"class.icu_69::FieldPositionIteratorHandler"* %0, i64 0, i32 1
  %4 = load %"class.icu_69::FieldPositionIterator"*, %"class.icu_69::FieldPositionIterator"** %3, align 8
  %5 = icmp eq %"class.icu_69::FieldPositionIterator"* %4, null
  br i1 %5, label %10, label %6

6:                                                ; preds = %1
  %7 = getelementptr inbounds %"class.icu_69::FieldPositionIteratorHandler", %"class.icu_69::FieldPositionIteratorHandler"* %0, i64 0, i32 2
  %8 = load %"class.icu_69::UVector32"*, %"class.icu_69::UVector32"** %7, align 8
  %9 = getelementptr inbounds %"class.icu_69::FieldPositionIteratorHandler", %"class.icu_69::FieldPositionIteratorHandler"* %0, i64 0, i32 3
  tail call void @_ZN6icu_6921FieldPositionIterator7setDataEPNS_9UVector32ER10UErrorCode(%"class.icu_69::FieldPositionIterator"* nonnull %4, %"class.icu_69::UVector32"* %8, i32* dereferenceable(4) %9) #10
  br label %10

10:                                               ; preds = %1, %6
  %11 = getelementptr inbounds %"class.icu_69::FieldPositionIteratorHandler", %"class.icu_69::FieldPositionIteratorHandler"* %0, i64 0, i32 2
  store %"class.icu_69::UVector32"* null, %"class.icu_69::UVector32"** %11, align 8
  %12 = bitcast %"class.icu_69::FieldPositionIteratorHandler"* %0 to i8*
  tail call void @_ZN6icu_697UMemorydlEPv(i8* %12) #10
  ret void
}

; Function Attrs: nounwind ssp uwtable
define hidden void @_ZN6icu_6928FieldPositionIteratorHandler12addAttributeEiii(%"class.icu_69::FieldPositionIteratorHandler"*, i32, i32, i32) unnamed_addr #4 align 2 {
  %5 = getelementptr inbounds %"class.icu_69::FieldPositionIteratorHandler", %"class.icu_69::FieldPositionIteratorHandler"* %0, i64 0, i32 2
  %6 = load %"class.icu_69::UVector32"*, %"class.icu_69::UVector32"** %5, align 8
  %7 = icmp eq %"class.icu_69::UVector32"* %6, null
  br i1 %7, label %117, label %8

8:                                                ; preds = %4
  %9 = getelementptr inbounds %"class.icu_69::FieldPositionIteratorHandler", %"class.icu_69::FieldPositionIteratorHandler"* %0, i64 0, i32 3
  %10 = load i32, i32* %9, align 8
  %11 = icmp slt i32 %10, 1
  %12 = icmp slt i32 %2, %3
  %13 = and i1 %12, %11
  br i1 %13, label %14, label %117

14:                                               ; preds = %8
  %15 = getelementptr inbounds %"class.icu_69::UVector32", %"class.icu_69::UVector32"* %6, i64 0, i32 1
  %16 = load i32, i32* %15, align 8
  %17 = getelementptr inbounds %"class.icu_69::FieldPositionIteratorHandler", %"class.icu_69::FieldPositionIteratorHandler"* %0, i64 0, i32 4
  %18 = load i32, i32* %17, align 4
  %19 = add nsw i32 %16, 1
  %20 = icmp sgt i32 %16, -2
  br i1 %20, label %21, label %25

21:                                               ; preds = %14
  %22 = getelementptr inbounds %"class.icu_69::UVector32", %"class.icu_69::UVector32"* %6, i64 0, i32 2
  %23 = load i32, i32* %22, align 4
  %24 = icmp sgt i32 %23, %16
  br i1 %24, label %30, label %25

25:                                               ; preds = %21, %14
  %26 = tail call signext i8 @_ZN6icu_699UVector3214expandCapacityEiR10UErrorCode(%"class.icu_69::UVector32"* nonnull %6, i32 %19, i32* dereferenceable(4) %9) #10
  %27 = icmp eq i8 %26, 0
  br i1 %27, label %38, label %28

28:                                               ; preds = %25
  %29 = load i32, i32* %15, align 8
  br label %30

30:                                               ; preds = %28, %21
  %31 = phi i32 [ %29, %28 ], [ %16, %21 ]
  %32 = getelementptr inbounds %"class.icu_69::UVector32", %"class.icu_69::UVector32"* %6, i64 0, i32 4
  %33 = load i32*, i32** %32, align 8
  %34 = sext i32 %31 to i64
  %35 = getelementptr inbounds i32, i32* %33, i64 %34
  store i32 %18, i32* %35, align 4
  %36 = load i32, i32* %15, align 8
  %37 = add nsw i32 %36, 1
  store i32 %37, i32* %15, align 8
  br label %38

38:                                               ; preds = %25, %30
  %39 = load %"class.icu_69::UVector32"*, %"class.icu_69::UVector32"** %5, align 8
  %40 = getelementptr inbounds %"class.icu_69::UVector32", %"class.icu_69::UVector32"* %39, i64 0, i32 1
  %41 = load i32, i32* %40, align 8
  %42 = add nsw i32 %41, 1
  %43 = icmp sgt i32 %41, -2
  br i1 %43, label %44, label %48

44:                                               ; preds = %38
  %45 = getelementptr inbounds %"class.icu_69::UVector32", %"class.icu_69::UVector32"* %39, i64 0, i32 2
  %46 = load i32, i32* %45, align 4
  %47 = icmp sgt i32 %46, %41
  br i1 %47, label %53, label %48

48:                                               ; preds = %44, %38
  %49 = tail call signext i8 @_ZN6icu_699UVector3214expandCapacityEiR10UErrorCode(%"class.icu_69::UVector32"* %39, i32 %42, i32* dereferenceable(4) %9) #10
  %50 = icmp eq i8 %49, 0
  br i1 %50, label %61, label %51

51:                                               ; preds = %48
  %52 = load i32, i32* %40, align 8
  br label %53

53:                                               ; preds = %51, %44
  %54 = phi i32 [ %52, %51 ], [ %41, %44 ]
  %55 = getelementptr inbounds %"class.icu_69::UVector32", %"class.icu_69::UVector32"* %39, i64 0, i32 4
  %56 = load i32*, i32** %55, align 8
  %57 = sext i32 %54 to i64
  %58 = getelementptr inbounds i32, i32* %56, i64 %57
  store i32 %1, i32* %58, align 4
  %59 = load i32, i32* %40, align 8
  %60 = add nsw i32 %59, 1
  store i32 %60, i32* %40, align 8
  br label %61

61:                                               ; preds = %48, %53
  %62 = load %"class.icu_69::UVector32"*, %"class.icu_69::UVector32"** %5, align 8
  %63 = getelementptr inbounds %"class.icu_69::FieldPositionIteratorHandler", %"class.icu_69::FieldPositionIteratorHandler"* %0, i64 0, i32 0, i32 1
  %64 = load i32, i32* %63, align 8
  %65 = add nsw i32 %64, %2
  %66 = getelementptr inbounds %"class.icu_69::UVector32", %"class.icu_69::UVector32"* %62, i64 0, i32 1
  %67 = load i32, i32* %66, align 8
  %68 = add nsw i32 %67, 1
  %69 = icmp sgt i32 %67, -2
  br i1 %69, label %70, label %74

70:                                               ; preds = %61
  %71 = getelementptr inbounds %"class.icu_69::UVector32", %"class.icu_69::UVector32"* %62, i64 0, i32 2
  %72 = load i32, i32* %71, align 4
  %73 = icmp sgt i32 %72, %67
  br i1 %73, label %79, label %74

74:                                               ; preds = %70, %61
  %75 = tail call signext i8 @_ZN6icu_699UVector3214expandCapacityEiR10UErrorCode(%"class.icu_69::UVector32"* %62, i32 %68, i32* dereferenceable(4) %9) #10
  %76 = icmp eq i8 %75, 0
  br i1 %76, label %87, label %77

77:                                               ; preds = %74
  %78 = load i32, i32* %66, align 8
  br label %79

79:                                               ; preds = %77, %70
  %80 = phi i32 [ %78, %77 ], [ %67, %70 ]
  %81 = getelementptr inbounds %"class.icu_69::UVector32", %"class.icu_69::UVector32"* %62, i64 0, i32 4
  %82 = load i32*, i32** %81, align 8
  %83 = sext i32 %80 to i64
  %84 = getelementptr inbounds i32, i32* %82, i64 %83
  store i32 %65, i32* %84, align 4
  %85 = load i32, i32* %66, align 8
  %86 = add nsw i32 %85, 1
  store i32 %86, i32* %66, align 8
  br label %87

87:                                               ; preds = %74, %79
  %88 = load %"class.icu_69::UVector32"*, %"class.icu_69::UVector32"** %5, align 8
  %89 = load i32, i32* %63, align 8
  %90 = add nsw i32 %89, %3
  %91 = getelementptr inbounds %"class.icu_69::UVector32", %"class.icu_69::UVector32"* %88, i64 0, i32 1
  %92 = load i32, i32* %91, align 8
  %93 = add nsw i32 %92, 1
  %94 = icmp sgt i32 %92, -2
  br i1 %94, label %95, label %99

95:                                               ; preds = %87
  %96 = getelementptr inbounds %"class.icu_69::UVector32", %"class.icu_69::UVector32"* %88, i64 0, i32 2
  %97 = load i32, i32* %96, align 4
  %98 = icmp sgt i32 %97, %92
  br i1 %98, label %104, label %99

99:                                               ; preds = %95, %87
  %100 = tail call signext i8 @_ZN6icu_699UVector3214expandCapacityEiR10UErrorCode(%"class.icu_69::UVector32"* %88, i32 %93, i32* dereferenceable(4) %9) #10
  %101 = icmp eq i8 %100, 0
  br i1 %101, label %112, label %102

102:                                              ; preds = %99
  %103 = load i32, i32* %91, align 8
  br label %104

104:                                              ; preds = %102, %95
  %105 = phi i32 [ %103, %102 ], [ %92, %95 ]
  %106 = getelementptr inbounds %"class.icu_69::UVector32", %"class.icu_69::UVector32"* %88, i64 0, i32 4
  %107 = load i32*, i32** %106, align 8
  %108 = sext i32 %105 to i64
  %109 = getelementptr inbounds i32, i32* %107, i64 %108
  store i32 %90, i32* %109, align 4
  %110 = load i32, i32* %91, align 8
  %111 = add nsw i32 %110, 1
  store i32 %111, i32* %91, align 8
  br label %112

112:                                              ; preds = %99, %104
  %113 = load i32, i32* %9, align 8
  %114 = icmp sgt i32 %113, 0
  br i1 %114, label %115, label %117

115:                                              ; preds = %112
  %116 = load %"class.icu_69::UVector32"*, %"class.icu_69::UVector32"** %5, align 8
  tail call void @_ZN6icu_699UVector327setSizeEi(%"class.icu_69::UVector32"* %116, i32 %16) #10
  br label %117

117:                                              ; preds = %115, %112, %8, %4
  ret void
}

declare void @_ZN6icu_699UVector327setSizeEi(%"class.icu_69::UVector32"*, i32) local_unnamed_addr #8

; Function Attrs: nounwind ssp uwtable
define hidden void @_ZN6icu_6928FieldPositionIteratorHandler9shiftLastEi(%"class.icu_69::FieldPositionIteratorHandler"* nocapture readonly, i32) unnamed_addr #4 align 2 {
  %3 = getelementptr inbounds %"class.icu_69::FieldPositionIteratorHandler", %"class.icu_69::FieldPositionIteratorHandler"* %0, i64 0, i32 3
  %4 = load i32, i32* %3, align 8
  %5 = icmp slt i32 %4, 1
  %6 = icmp ne i32 %1, 0
  %7 = and i1 %6, %5
  br i1 %7, label %8, label %40

8:                                                ; preds = %2
  %9 = getelementptr inbounds %"class.icu_69::FieldPositionIteratorHandler", %"class.icu_69::FieldPositionIteratorHandler"* %0, i64 0, i32 2
  %10 = load %"class.icu_69::UVector32"*, %"class.icu_69::UVector32"** %9, align 8
  %11 = getelementptr inbounds %"class.icu_69::UVector32", %"class.icu_69::UVector32"* %10, i64 0, i32 1
  %12 = load i32, i32* %11, align 8
  %13 = icmp sgt i32 %12, 0
  br i1 %13, label %14, label %40

14:                                               ; preds = %8
  %15 = add nsw i32 %12, -1
  %16 = getelementptr inbounds %"class.icu_69::UVector32", %"class.icu_69::UVector32"* %10, i64 0, i32 4
  %17 = load i32*, i32** %16, align 8
  %18 = sext i32 %15 to i64
  %19 = getelementptr inbounds i32, i32* %17, i64 %18
  %20 = load i32, i32* %19, align 4
  %21 = add nsw i32 %20, %1
  tail call void @_ZN6icu_699UVector3212setElementAtEii(%"class.icu_69::UVector32"* %10, i32 %21, i32 %15) #10
  %22 = add nsw i32 %12, -2
  %23 = load %"class.icu_69::UVector32"*, %"class.icu_69::UVector32"** %9, align 8
  %24 = icmp sgt i32 %22, -1
  br i1 %24, label %25, label %37

25:                                               ; preds = %14
  %26 = getelementptr inbounds %"class.icu_69::UVector32", %"class.icu_69::UVector32"* %23, i64 0, i32 1
  %27 = load i32, i32* %26, align 8
  %28 = icmp sgt i32 %27, 0
  %29 = icmp sgt i32 %27, %22
  %30 = and i1 %28, %29
  br i1 %30, label %31, label %37

31:                                               ; preds = %25
  %32 = getelementptr inbounds %"class.icu_69::UVector32", %"class.icu_69::UVector32"* %23, i64 0, i32 4
  %33 = load i32*, i32** %32, align 8
  %34 = sext i32 %22 to i64
  %35 = getelementptr inbounds i32, i32* %33, i64 %34
  %36 = load i32, i32* %35, align 4
  br label %37

37:                                               ; preds = %14, %25, %31
  %38 = phi i32 [ %36, %31 ], [ 0, %25 ], [ 0, %14 ]
  %39 = add nsw i32 %38, %1
  tail call void @_ZN6icu_699UVector3212setElementAtEii(%"class.icu_69::UVector32"* %23, i32 %39, i32 %22) #10
  br label %40

40:                                               ; preds = %8, %37, %2
  ret void
}

declare void @_ZN6icu_699UVector3212setElementAtEii(%"class.icu_69::UVector32"*, i32, i32) local_unnamed_addr #8

; Function Attrs: norecurse nounwind readonly ssp uwtable
define hidden signext i8 @_ZNK6icu_6928FieldPositionIteratorHandler11isRecordingEv(%"class.icu_69::FieldPositionIteratorHandler"* nocapture readonly) unnamed_addr #7 align 2 {
  %2 = getelementptr inbounds %"class.icu_69::FieldPositionIteratorHandler", %"class.icu_69::FieldPositionIteratorHandler"* %0, i64 0, i32 3
  %3 = load i32, i32* %2, align 8
  %4 = icmp slt i32 %3, 1
  %5 = zext i1 %4 to i8
  ret i8 %5
}

declare void @__cxa_pure_virtual() unnamed_addr

declare signext i8 @_ZN6icu_699UVector3214expandCapacityEiR10UErrorCode(%"class.icu_69::UVector32"*, i32, i32* dereferenceable(4)) local_unnamed_addr #8

attributes #0 = { norecurse nounwind readnone ssp uwtable "correctly-rounded-divide-sqrt-fp-math"="false" "disable-tail-calls"="false" "less-precise-fpmad"="false" "min-legal-vector-width"="0" "no-frame-pointer-elim"="false" "no-frame-pointer-elim-non-leaf" "no-infs-fp-math"="false" "no-jump-tables"="false" "no-nans-fp-math"="false" "no-signed-zeros-fp-math"="false" "no-trapping-math"="false" "null-pointer-is-valid"="true" "stack-protector-buffer-size"="4" "target-cpu"="x86-64" "target-features"="+cx8,+fxsr,+mmx,+sse,+sse2,+sse3,+x87" "unsafe-fp-math"="false" "use-soft-float"="false" }
attributes #1 = { noreturn nounwind ssp uwtable "correctly-rounded-divide-sqrt-fp-math"="false" "disable-tail-calls"="false" "less-precise-fpmad"="false" "min-legal-vector-width"="0" "no-frame-pointer-elim"="false" "no-frame-pointer-elim-non-leaf" "no-infs-fp-math"="false" "no-jump-tables"="false" "no-nans-fp-math"="false" "no-signed-zeros-fp-math"="false" "no-trapping-math"="false" "null-pointer-is-valid"="true" "stack-protector-buffer-size"="4" "target-cpu"="x86-64" "target-features"="+cx8,+fxsr,+mmx,+sse,+sse2,+sse3,+x87" "unsafe-fp-math"="false" "use-soft-float"="false" }
attributes #2 = { cold noreturn nounwind }
attributes #3 = { nofree norecurse nounwind ssp uwtable writeonly "correctly-rounded-divide-sqrt-fp-math"="false" "disable-tail-calls"="false" "less-precise-fpmad"="false" "min-legal-vector-width"="0" "no-frame-pointer-elim"="false" "no-frame-pointer-elim-non-leaf" "no-infs-fp-math"="false" "no-jump-tables"="false" "no-nans-fp-math"="false" "no-signed-zeros-fp-math"="false" "no-trapping-math"="false" "null-pointer-is-valid"="true" "stack-protector-buffer-size"="4" "target-cpu"="x86-64" "target-features"="+cx8,+fxsr,+mmx,+sse,+sse2,+sse3,+x87" "unsafe-fp-math"="false" "use-soft-float"="false" }
attributes #4 = { nounwind ssp uwtable "correctly-rounded-divide-sqrt-fp-math"="false" "disable-tail-calls"="false" "less-precise-fpmad"="false" "min-legal-vector-width"="0" "no-frame-pointer-elim"="false" "no-frame-pointer-elim-non-leaf" "no-infs-fp-math"="false" "no-jump-tables"="false" "no-nans-fp-math"="false" "no-signed-zeros-fp-math"="false" "no-trapping-math"="false" "null-pointer-is-valid"="true" "stack-protector-buffer-size"="4" "target-cpu"="x86-64" "target-features"="+cx8,+fxsr,+mmx,+sse,+sse2,+sse3,+x87" "unsafe-fp-math"="false" "use-soft-float"="false" }
attributes #5 = { nounwind "correctly-rounded-divide-sqrt-fp-math"="false" "disable-tail-calls"="false" "less-precise-fpmad"="false" "no-frame-pointer-elim"="false" "no-frame-pointer-elim-non-leaf" "no-infs-fp-math"="false" "no-nans-fp-math"="false" "no-signed-zeros-fp-math"="false" "no-trapping-math"="false" "null-pointer-is-valid"="true" "stack-protector-buffer-size"="4" "target-cpu"="x86-64" "target-features"="+cx8,+fxsr,+mmx,+sse,+sse2,+sse3,+x87" "unsafe-fp-math"="false" "use-soft-float"="false" }
attributes #6 = { nofree norecurse nounwind ssp uwtable "correctly-rounded-divide-sqrt-fp-math"="false" "disable-tail-calls"="false" "less-precise-fpmad"="false" "min-legal-vector-width"="0" "no-frame-pointer-elim"="false" "no-frame-pointer-elim-non-leaf" "no-infs-fp-math"="false" "no-jump-tables"="false" "no-nans-fp-math"="false" "no-signed-zeros-fp-math"="false" "no-trapping-math"="false" "null-pointer-is-valid"="true" "stack-protector-buffer-size"="4" "target-cpu"="x86-64" "target-features"="+cx8,+fxsr,+mmx,+sse,+sse2,+sse3,+x87" "unsafe-fp-math"="false" "use-soft-float"="false" }
attributes #7 = { norecurse nounwind readonly ssp uwtable "correctly-rounded-divide-sqrt-fp-math"="false" "disable-tail-calls"="false" "less-precise-fpmad"="false" "min-legal-vector-width"="0" "no-frame-pointer-elim"="false" "no-frame-pointer-elim-non-leaf" "no-infs-fp-math"="false" "no-jump-tables"="false" "no-nans-fp-math"="false" "no-signed-zeros-fp-math"="false" "no-trapping-math"="false" "null-pointer-is-valid"="true" "stack-protector-buffer-size"="4" "target-cpu"="x86-64" "target-features"="+cx8,+fxsr,+mmx,+sse,+sse2,+sse3,+x87" "unsafe-fp-math"="false" "use-soft-float"="false" }
attributes #8 = { "correctly-rounded-divide-sqrt-fp-math"="false" "disable-tail-calls"="false" "less-precise-fpmad"="false" "no-frame-pointer-elim"="false" "no-frame-pointer-elim-non-leaf" "no-infs-fp-math"="false" "no-nans-fp-math"="false" "no-signed-zeros-fp-math"="false" "no-trapping-math"="false" "null-pointer-is-valid"="true" "stack-protector-buffer-size"="4" "target-cpu"="x86-64" "target-features"="+cx8,+fxsr,+mmx,+sse,+sse2,+sse3,+x87" "unsafe-fp-math"="false" "use-soft-float"="false" }
attributes #9 = { noreturn nounwind }
attributes #10 = { nounwind }

!llvm.module.flags = !{!0, !1}

!0 = !{i32 1, !"wchar_size", i32 4}
!1 = !{i32 7, !"PIC Level", i32 2}
