; ModuleID = '../../chrome/browser/ui/interventions/framebust_block_message_delegate.cc'
source_filename = "../../chrome/browser/ui/interventions/framebust_block_message_delegate.cc"
target datalayout = "e-m:e-i64:64-f80:128-n8:16:32:64-S128"
target triple = "x86_64-unknown-linux-gnu"

module asm ".symver exp, exp@GLIBC_2.2.5"
module asm ".symver exp2, exp2@GLIBC_2.2.5"
module asm ".symver exp2f, exp2f@GLIBC_2.2.5"
module asm ".symver expf, expf@GLIBC_2.2.5"
module asm ".symver lgamma, lgamma@GLIBC_2.2.5"
module asm ".symver lgammaf, lgammaf@GLIBC_2.2.5"
module asm ".symver lgammal, lgammal@GLIBC_2.2.5"
module asm ".symver log, log@GLIBC_2.2.5"
module asm ".symver log2, log2@GLIBC_2.2.5"
module asm ".symver log2f, log2f@GLIBC_2.2.5"
module asm ".symver logf, logf@GLIBC_2.2.5"
module asm ".symver pow, pow@GLIBC_2.2.5"
module asm ".symver powf, powf@GLIBC_2.2.5"

%class.FramebustBlockMessageDelegate = type { %class.InterventionDelegate, %"class.base::OnceCallback", %"class.content::WebContents"*, %class.GURL }
%class.InterventionDelegate = type { i32 (...)** }
%"class.base::OnceCallback" = type { %"class.base::internal::CallbackBase" }
%"class.base::internal::CallbackBase" = type { %class.scoped_refptr }
%class.scoped_refptr = type { %"class.base::internal::BindStateBase"* }
%"class.base::internal::BindStateBase" = type { %"class.base::RefCountedThreadSafe", void ()*, void (%"class.base::internal::BindStateBase"*)*, i1 (%"class.base::internal::BindStateBase"*, i32)* }
%"class.base::RefCountedThreadSafe" = type { %"class.base::subtle::RefCountedThreadSafeBase" }
%"class.base::subtle::RefCountedThreadSafeBase" = type { %"class.base::AtomicRefCount" }
%"class.base::AtomicRefCount" = type { %"struct.std::__1::atomic" }
%"struct.std::__1::atomic" = type { %"struct.std::__1::__atomic_base" }
%"struct.std::__1::__atomic_base" = type { %"struct.std::__1::__atomic_base.0" }
%"struct.std::__1::__atomic_base.0" = type { %"struct.std::__1::__cxx_atomic_impl" }
%"struct.std::__1::__cxx_atomic_impl" = type { %"struct.std::__1::__cxx_atomic_base_impl" }
%"struct.std::__1::__cxx_atomic_base_impl" = type { i32 }
%class.GURL = type { %"class.std::__1::basic_string", i8, %"struct.url::Parsed", %"class.std::__1::unique_ptr" }
%"class.std::__1::basic_string" = type { %"class.std::__1::__compressed_pair.5" }
%"class.std::__1::__compressed_pair.5" = type { %"struct.std::__1::__compressed_pair_elem.6" }
%"struct.std::__1::__compressed_pair_elem.6" = type { %"struct.std::__1::basic_string<char, std::__1::char_traits<char>, std::__1::allocator<char> >::__rep" }
%"struct.std::__1::basic_string<char, std::__1::char_traits<char>, std::__1::allocator<char> >::__rep" = type { %union.anon }
%union.anon = type { %"struct.std::__1::basic_string<char, std::__1::char_traits<char>, std::__1::allocator<char> >::__long" }
%"struct.std::__1::basic_string<char, std::__1::char_traits<char>, std::__1::allocator<char> >::__long" = type { i8*, i64, i64 }
%"struct.url::Parsed" = type { %"struct.url::Component", %"struct.url::Component", %"struct.url::Component", %"struct.url::Component", %"struct.url::Component", %"struct.url::Component", %"struct.url::Component", %"struct.url::Component", i8, %"struct.url::Parsed"* }
%"struct.url::Component" = type { i32, i32 }
%"class.std::__1::unique_ptr" = type { %"class.std::__1::__compressed_pair.10" }
%"class.std::__1::__compressed_pair.10" = type { %"struct.std::__1::__compressed_pair_elem.11" }
%"struct.std::__1::__compressed_pair_elem.11" = type { %class.GURL* }
%"class.content::WebContents" = type <{ %"class.content::PageNavigator", %"class.base::SupportsUserData.base", [7 x i8] }>
%"class.content::PageNavigator" = type { i32 (...)** }
%"class.base::SupportsUserData.base" = type <{ i32 (...)**, %"class.std::__1::map", %"class.base::SequenceCheckerDoNothing" }>
%"class.std::__1::map" = type { %"class.std::__1::__tree" }
%"class.std::__1::__tree" = type { %"class.std::__1::__tree_end_node"*, %"class.std::__1::__compressed_pair", %"class.std::__1::__compressed_pair.2" }
%"class.std::__1::__tree_end_node" = type { %"class.std::__1::__tree_node_base"* }
%"class.std::__1::__tree_node_base" = type <{ %"class.std::__1::__tree_end_node", %"class.std::__1::__tree_node_base"*, %"class.std::__1::__tree_end_node"*, i8, [7 x i8] }>
%"class.std::__1::__compressed_pair" = type { %"struct.std::__1::__compressed_pair_elem" }
%"struct.std::__1::__compressed_pair_elem" = type { %"class.std::__1::__tree_end_node" }
%"class.std::__1::__compressed_pair.2" = type { %"struct.std::__1::__compressed_pair_elem.3" }
%"struct.std::__1::__compressed_pair_elem.3" = type { i64 }
%"class.base::SequenceCheckerDoNothing" = type { i8 }
%"struct.content::OpenURLParams" = type { %class.GURL, %"struct.content::Referrer", %"class.absl::optional", i32, %"class.absl::optional.14", %class.scoped_refptr.24, %"class.std::__1::vector", %class.scoped_refptr.29, %"class.std::__1::basic_string", i32, i32, i32, i32, i32, i8, i8, i8, i32, i8, %class.scoped_refptr.52, i8, %"class.std::__1::basic_string", i32, %"class.absl::optional.54" }
%"struct.content::Referrer" = type <{ %class.GURL, i32, [4 x i8] }>
%"class.absl::optional" = type { %"class.absl::optional_internal::optional_data" }
%"class.absl::optional_internal::optional_data" = type { %"class.absl::optional_internal::optional_data_base" }
%"class.absl::optional_internal::optional_data_base" = type { %"class.absl::optional_internal::optional_data_dtor_base" }
%"class.absl::optional_internal::optional_data_dtor_base" = type { i8, %union.anon.13 }
%union.anon.13 = type { %"class.util::TokenType" }
%"class.util::TokenType" = type { %"class.base::StrongAlias" }
%"class.base::StrongAlias" = type { %"class.base::UnguessableToken" }
%"class.base::UnguessableToken" = type { %"class.base::Token" }
%"class.base::Token" = type { i64, i64 }
%"class.absl::optional.14" = type { %"class.absl::optional_internal::optional_data.15" }
%"class.absl::optional_internal::optional_data.15" = type { %"class.absl::optional_internal::optional_data_base.16" }
%"class.absl::optional_internal::optional_data_base.16" = type { %"class.absl::optional_internal::optional_data_dtor_base.17" }
%"class.absl::optional_internal::optional_data_dtor_base.17" = type { i8, %union.anon.18 }
%union.anon.18 = type { %"class.url::Origin" }
%"class.url::Origin" = type { %"class.url::SchemeHostPort", %"class.absl::optional.19" }
%"class.url::SchemeHostPort" = type <{ %"class.std::__1::basic_string", %"class.std::__1::basic_string", i16, [6 x i8] }>
%"class.absl::optional.19" = type { %"class.absl::optional_internal::optional_data.20" }
%"class.absl::optional_internal::optional_data.20" = type { %"class.absl::optional_internal::optional_data_base.21" }
%"class.absl::optional_internal::optional_data_base.21" = type { %"class.absl::optional_internal::optional_data_dtor_base.22" }
%"class.absl::optional_internal::optional_data_dtor_base.22" = type { i8, %union.anon.23 }
%union.anon.23 = type { %"class.url::Origin::Nonce" }
%"class.url::Origin::Nonce" = type { %"class.base::UnguessableToken" }
%class.scoped_refptr.24 = type { %"class.content::SiteInstance"* }
%"class.content::SiteInstance" = type <{ i32 (...)**, %"class.base::RefCounted", [4 x i8] }>
%"class.base::RefCounted" = type { %"class.base::subtle::RefCountedBase" }
%"class.base::subtle::RefCountedBase" = type { i32 }
%"class.std::__1::vector" = type { %"class.std::__1::__vector_base" }
%"class.std::__1::__vector_base" = type { %class.GURL*, %class.GURL*, %"class.std::__1::__compressed_pair.25" }
%"class.std::__1::__compressed_pair.25" = type { %"struct.std::__1::__compressed_pair_elem.11" }
%class.scoped_refptr.29 = type { %"class.network::ResourceRequestBody"* }
%"class.network::ResourceRequestBody" = type <{ %"class.base::RefCountedThreadSafe.30", [4 x i8], %"class.std::__1::vector.31", i64, i8, i8, [6 x i8] }>
%"class.base::RefCountedThreadSafe.30" = type { %"class.base::subtle::RefCountedThreadSafeBase" }
%"class.std::__1::vector.31" = type { %"class.std::__1::__vector_base.32" }
%"class.std::__1::__vector_base.32" = type { %"class.network::DataElement"*, %"class.network::DataElement"*, %"class.std::__1::__compressed_pair.47" }
%"class.network::DataElement" = type { %"class.absl::variant" }
%"class.absl::variant" = type { %"class.absl::variant_internal::VariantMoveAssignBaseNontrivial" }
%"class.absl::variant_internal::VariantMoveAssignBaseNontrivial" = type { %"class.absl::variant_internal::VariantMoveBaseNontrivial" }
%"class.absl::variant_internal::VariantMoveBaseNontrivial" = type { %"class.absl::variant_internal::VariantStateBaseDestructorNontrivial" }
%"class.absl::variant_internal::VariantStateBaseDestructorNontrivial" = type { %"class.absl::variant_internal::VariantStateBase" }
%"class.absl::variant_internal::VariantStateBase" = type { %"union.absl::variant_internal::DestructibleUnionImpl", i64 }
%"union.absl::variant_internal::DestructibleUnionImpl" = type { %"union.absl::variant_internal::DestructibleUnionImpl.33" }
%"union.absl::variant_internal::DestructibleUnionImpl.33" = type { %"union.absl::variant_internal::DestructibleUnionImpl.41" }
%"union.absl::variant_internal::DestructibleUnionImpl.41" = type { %"union.absl::variant_internal::DestructibleUnionImpl.42" }
%"union.absl::variant_internal::DestructibleUnionImpl.42" = type { %"union.absl::variant_internal::DestructibleUnionImpl.45" }
%"union.absl::variant_internal::DestructibleUnionImpl.45" = type { %"class.network::DataElementFile" }
%"class.network::DataElementFile" = type { %"class.base::FilePath", i64, i64, %"class.base::Time" }
%"class.base::FilePath" = type { %"class.std::__1::basic_string" }
%"class.base::Time" = type { %"class.base::time_internal::TimeBase" }
%"class.base::time_internal::TimeBase" = type { i64 }
%"class.std::__1::__compressed_pair.47" = type { %"struct.std::__1::__compressed_pair_elem.48" }
%"struct.std::__1::__compressed_pair_elem.48" = type { %"class.network::DataElement"* }
%class.scoped_refptr.52 = type { %"class.network::SharedURLLoaderFactory"* }
%"class.network::SharedURLLoaderFactory" = type <{ %"class.network::mojom::URLLoaderFactory", %"class.base::RefCounted.53", [4 x i8] }>
%"class.network::mojom::URLLoaderFactory" = type { i32 (...)** }
%"class.base::RefCounted.53" = type { %"class.base::subtle::RefCountedBase" }
%"class.absl::optional.54" = type { %"class.absl::optional_internal::optional_data.55" }
%"class.absl::optional_internal::optional_data.55" = type { %"class.absl::optional_internal::optional_data_base.56" }
%"class.absl::optional_internal::optional_data_base.56" = type { %"class.absl::optional_internal::optional_data_dtor_base.57" }
%"class.absl::optional_internal::optional_data_dtor_base.57" = type { i8, %union.anon.58 }
%union.anon.58 = type { %"struct.blink::Impression" }
%"struct.blink::Impression" = type { %"class.url::Origin", %"class.absl::optional.14", i64, %"class.absl::optional.59", i64 }
%"class.absl::optional.59" = type { %"class.absl::optional_internal::optional_data.60" }
%"class.absl::optional_internal::optional_data.60" = type { %"class.absl::optional_internal::optional_data_base.61" }
%"class.absl::optional_internal::optional_data_base.61" = type { %"class.absl::optional_internal::optional_data_dtor_base.62" }
%"class.absl::optional_internal::optional_data_dtor_base.62" = type { i8, %union.anon.63 }
%union.anon.63 = type { %"class.base::TimeDelta" }
%"class.base::TimeDelta" = type { i64 }
%"class.content::BrowserContext" = type { %"class.base::SupportsUserData.base", %"class.std::__1::unique_ptr.103" }
%"class.std::__1::unique_ptr.103" = type { %"class.std::__1::__compressed_pair.104" }
%"class.std::__1::__compressed_pair.104" = type { %"struct.std::__1::__compressed_pair_elem.105" }
%"struct.std::__1::__compressed_pair_elem.105" = type { %"class.content::BrowserContext::Impl"* }
%"class.content::BrowserContext::Impl" = type opaque
%class.Profile = type { %"class.content::BrowserContext", %"class.std::__1::unique_ptr.109", i8, i8, i32, %"class.base::ObserverList.115", %"class.std::__1::unique_ptr.127" }
%"class.std::__1::unique_ptr.109" = type { %"class.std::__1::__compressed_pair.110" }
%"class.std::__1::__compressed_pair.110" = type { %"struct.std::__1::__compressed_pair_elem.111" }
%"struct.std::__1::__compressed_pair_elem.111" = type { %"class.content::ResourceContext"* }
%"class.content::ResourceContext" = type opaque
%"class.base::ObserverList.115" = type <{ %"class.std::__1::vector.116", %"class.base::LinkedList.124", i64, i32, [4 x i8] }>
%"class.std::__1::vector.116" = type { %"class.std::__1::__vector_base.117" }
%"class.std::__1::__vector_base.117" = type { %"class.base::internal::CheckedObserverAdapter"*, %"class.base::internal::CheckedObserverAdapter"*, %"class.std::__1::__compressed_pair.119" }
%"class.base::internal::CheckedObserverAdapter" = type { %"class.base::WeakPtr" }
%"class.base::WeakPtr" = type { %"class.base::internal::WeakPtrBase" }
%"class.base::internal::WeakPtrBase" = type { %"class.base::internal::WeakReference", i64 }
%"class.base::internal::WeakReference" = type { %class.scoped_refptr.118 }
%class.scoped_refptr.118 = type { %"class.base::internal::WeakReference::Flag"* }
%"class.base::internal::WeakReference::Flag" = type <{ %"class.base::RefCountedThreadSafe.97", %"class.base::AtomicFlag", [3 x i8] }>
%"class.base::RefCountedThreadSafe.97" = type { %"class.base::subtle::RefCountedThreadSafeBase" }
%"class.base::AtomicFlag" = type { %"struct.std::__1::atomic.98" }
%"struct.std::__1::atomic.98" = type { %"struct.std::__1::__atomic_base.99" }
%"struct.std::__1::__atomic_base.99" = type { %"struct.std::__1::__atomic_base.100" }
%"struct.std::__1::__atomic_base.100" = type { %"struct.std::__1::__cxx_atomic_impl.101" }
%"struct.std::__1::__cxx_atomic_impl.101" = type { %"struct.std::__1::__cxx_atomic_base_impl.102" }
%"struct.std::__1::__cxx_atomic_base_impl.102" = type { i8 }
%"class.std::__1::__compressed_pair.119" = type { %"struct.std::__1::__compressed_pair_elem.120" }
%"struct.std::__1::__compressed_pair_elem.120" = type { %"class.base::internal::CheckedObserverAdapter"* }
%"class.base::LinkedList.124" = type { %"class.base::LinkNode.125" }
%"class.base::LinkNode.125" = type { %"class.base::internal::LinkNodeBase" }
%"class.base::internal::LinkNodeBase" = type { %"class.base::internal::LinkNodeBase"*, %"class.base::internal::LinkNodeBase"* }
%"class.std::__1::unique_ptr.127" = type { %"class.std::__1::__compressed_pair.128" }
%"class.std::__1::__compressed_pair.128" = type { %"struct.std::__1::__compressed_pair_elem.129" }
%"struct.std::__1::__compressed_pair_elem.129" = type { %"class.variations::VariationsClient"* }
%"class.variations::VariationsClient" = type opaque
%class.HostContentSettingsMap = type { %"class.content_settings::Observer", %class.RefcountedKeyedService, %class.PrefService*, i8, i8, %"class.std::__1::map.67", %"class.std::__1::vector.78", %"class.content_settings::PrefProvider"*, %"class.base::ThreadChecker", [7 x i8], %"class.base::ObserverList.92", i8, %"class.base::WeakPtrFactory" }
%"class.content_settings::Observer" = type { i32 (...)** }
%class.RefcountedKeyedService = type { i32 (...)**, %"class.base::RefCountedThreadSafe.64", %class.scoped_refptr.65 }
%"class.base::RefCountedThreadSafe.64" = type { %"class.base::subtle::RefCountedThreadSafeBase" }
%class.scoped_refptr.65 = type { %"class.base::SequencedTaskRunner"* }
%"class.base::SequencedTaskRunner" = type { %"class.base::TaskRunner.base", [4 x i8] }
%"class.base::TaskRunner.base" = type <{ i32 (...)**, %"class.base::RefCountedThreadSafe.66" }>
%"class.base::RefCountedThreadSafe.66" = type { %"class.base::subtle::RefCountedThreadSafeBase" }
%class.PrefService = type opaque
%"class.std::__1::map.67" = type { %"class.std::__1::__tree.68" }
%"class.std::__1::__tree.68" = type { %"class.std::__1::__tree_end_node"*, %"class.std::__1::__compressed_pair.69", %"class.std::__1::__compressed_pair.73" }
%"class.std::__1::__compressed_pair.69" = type { %"struct.std::__1::__compressed_pair_elem" }
%"class.std::__1::__compressed_pair.73" = type { %"struct.std::__1::__compressed_pair_elem.3" }
%"class.std::__1::vector.78" = type { %"class.std::__1::__vector_base.79" }
%"class.std::__1::__vector_base.79" = type { %"class.content_settings::UserModifiableProvider"**, %"class.content_settings::UserModifiableProvider"**, %"class.std::__1::__compressed_pair.87" }
%"class.content_settings::UserModifiableProvider" = type { %"class.content_settings::ObservableProvider" }
%"class.content_settings::ObservableProvider" = type { %"class.content_settings::ProviderInterface", %"class.base::ThreadChecker", [7 x i8], %"class.base::ObserverList" }
%"class.content_settings::ProviderInterface" = type { i32 (...)** }
%"class.base::ObserverList" = type <{ %"class.std::__1::vector.80", %"class.base::LinkedList", i64, i32, [4 x i8] }>
%"class.std::__1::vector.80" = type { %"class.std::__1::__vector_base.81" }
%"class.std::__1::__vector_base.81" = type { %"class.base::internal::UncheckedObserverAdapter"*, %"class.base::internal::UncheckedObserverAdapter"*, %"class.std::__1::__compressed_pair.82" }
%"class.base::internal::UncheckedObserverAdapter" = type { i8* }
%"class.std::__1::__compressed_pair.82" = type { %"struct.std::__1::__compressed_pair_elem.83" }
%"struct.std::__1::__compressed_pair_elem.83" = type { %"class.base::internal::UncheckedObserverAdapter"* }
%"class.base::LinkedList" = type { %"class.base::LinkNode" }
%"class.base::LinkNode" = type { %"class.base::internal::LinkNodeBase" }
%"class.std::__1::__compressed_pair.87" = type { %"struct.std::__1::__compressed_pair_elem.88" }
%"struct.std::__1::__compressed_pair_elem.88" = type { %"class.content_settings::UserModifiableProvider"** }
%"class.content_settings::PrefProvider" = type opaque
%"class.base::ThreadChecker" = type { i8 }
%"class.base::ObserverList.92" = type <{ %"class.std::__1::vector.80", %"class.base::LinkedList.93", i64, i32, [4 x i8] }>
%"class.base::LinkedList.93" = type { %"class.base::LinkNode.94" }
%"class.base::LinkNode.94" = type { %"class.base::internal::LinkNodeBase" }
%"class.base::WeakPtrFactory" = type { %"class.base::internal::WeakPtrFactoryBase" }
%"class.base::internal::WeakPtrFactoryBase" = type { %"class.base::internal::WeakReferenceOwner", i64 }
%"class.base::internal::WeakReferenceOwner" = type { %class.scoped_refptr.96 }
%class.scoped_refptr.96 = type { %"class.base::internal::WeakReference::Flag"* }
%"struct.content_settings::ContentSettingConstraints" = type <{ %"class.base::Time", i32, [4 x i8] }>

@_ZTV29FramebustBlockMessageDelegate = hidden unnamed_addr constant { [8 x i8*] } { [8 x i8*] [i8* null, i8* null, i8* bitcast (void (%class.FramebustBlockMessageDelegate*)* @_ZN29FramebustBlockMessageDelegate18AcceptInterventionEv to i8*), i8* bitcast (void (%class.FramebustBlockMessageDelegate*)* @_ZN29FramebustBlockMessageDelegate19DeclineInterventionEv to i8*), i8* bitcast (void (%class.FramebustBlockMessageDelegate*)* @_ZN29FramebustBlockMessageDelegate29DeclineInterventionWithReloadEv to i8*), i8* bitcast (void (%class.FramebustBlockMessageDelegate*)* @_ZN29FramebustBlockMessageDelegate25DeclineInterventionStickyEv to i8*), i8* bitcast (void (%class.FramebustBlockMessageDelegate*)* @_ZN29FramebustBlockMessageDelegateD2Ev to i8*), i8* bitcast (void (%class.FramebustBlockMessageDelegate*)* @_ZN29FramebustBlockMessageDelegateD0Ev to i8*)] }, align 8
@.ref.tmp = private constant { { i64 }, i32 } zeroinitializer, align 8

@_ZN29FramebustBlockMessageDelegateC1EPN7content11WebContentsERK4GURLN4base12OnceCallbackIFvNS_19InterventionOutcomeEEEE = hidden unnamed_addr alias void (%class.FramebustBlockMessageDelegate*, %"class.content::WebContents"*, %class.GURL*, %"class.base::OnceCallback"*), void (%class.FramebustBlockMessageDelegate*, %"class.content::WebContents"*, %class.GURL*, %"class.base::OnceCallback"*)* @_ZN29FramebustBlockMessageDelegateC2EPN7content11WebContentsERK4GURLN4base12OnceCallbackIFvNS_19InterventionOutcomeEEEE
@_ZN29FramebustBlockMessageDelegateD1Ev = hidden unnamed_addr alias void (%class.FramebustBlockMessageDelegate*), void (%class.FramebustBlockMessageDelegate*)* @_ZN29FramebustBlockMessageDelegateD2Ev

; Function Attrs: nounwind ssp uwtable
define hidden void @_ZN29FramebustBlockMessageDelegateC2EPN7content11WebContentsERK4GURLN4base12OnceCallbackIFvNS_19InterventionOutcomeEEEE(%class.FramebustBlockMessageDelegate*, %"class.content::WebContents"*, %class.GURL* dereferenceable(120), %"class.base::OnceCallback"* nocapture) unnamed_addr #0 align 2 {
  %5 = getelementptr inbounds %class.FramebustBlockMessageDelegate, %class.FramebustBlockMessageDelegate* %0, i64 0, i32 0, i32 0
  store i32 (...)** bitcast (i8** getelementptr inbounds ({ [8 x i8*] }, { [8 x i8*] }* @_ZTV29FramebustBlockMessageDelegate, i64 0, inrange i32 0, i64 2) to i32 (...)**), i32 (...)*** %5, align 8
  %6 = getelementptr inbounds %class.FramebustBlockMessageDelegate, %class.FramebustBlockMessageDelegate* %0, i64 0, i32 1
  %7 = getelementptr inbounds %"class.base::OnceCallback", %"class.base::OnceCallback"* %3, i64 0, i32 0, i32 0, i32 0
  %8 = bitcast %"class.base::OnceCallback"* %3 to i64*
  %9 = load i64, i64* %8, align 8
  %10 = bitcast %"class.base::OnceCallback"* %6 to i64*
  store i64 %9, i64* %10, align 8
  store %"class.base::internal::BindStateBase"* null, %"class.base::internal::BindStateBase"** %7, align 8
  %11 = getelementptr inbounds %class.FramebustBlockMessageDelegate, %class.FramebustBlockMessageDelegate* %0, i64 0, i32 2
  store %"class.content::WebContents"* %1, %"class.content::WebContents"** %11, align 8
  %12 = getelementptr inbounds %class.FramebustBlockMessageDelegate, %class.FramebustBlockMessageDelegate* %0, i64 0, i32 3
  tail call void @_ZN4GURLC1ERKS_(%class.GURL* %12, %class.GURL* dereferenceable(120) %2) #6
  ret void
}

declare void @_ZN4GURLC1ERKS_(%class.GURL*, %class.GURL* dereferenceable(120)) unnamed_addr #1

; Function Attrs: nounwind ssp uwtable
define hidden void @_ZN29FramebustBlockMessageDelegateD2Ev(%class.FramebustBlockMessageDelegate*) unnamed_addr #0 align 2 {
  %2 = getelementptr inbounds %class.FramebustBlockMessageDelegate, %class.FramebustBlockMessageDelegate* %0, i64 0, i32 0, i32 0
  store i32 (...)** bitcast (i8** getelementptr inbounds ({ [8 x i8*] }, { [8 x i8*] }* @_ZTV29FramebustBlockMessageDelegate, i64 0, inrange i32 0, i64 2) to i32 (...)**), i32 (...)*** %2, align 8
  %3 = getelementptr inbounds %class.FramebustBlockMessageDelegate, %class.FramebustBlockMessageDelegate* %0, i64 0, i32 3
  tail call void @_ZN4GURLD1Ev(%class.GURL* %3) #6
  %4 = getelementptr inbounds %class.FramebustBlockMessageDelegate, %class.FramebustBlockMessageDelegate* %0, i64 0, i32 1, i32 0
  tail call void @_ZN4base8internal12CallbackBaseD2Ev(%"class.base::internal::CallbackBase"* %4) #6
  ret void
}

; Function Attrs: nounwind
declare void @_ZN4GURLD1Ev(%class.GURL*) unnamed_addr #2

; Function Attrs: nounwind
declare void @_ZN4base8internal12CallbackBaseD2Ev(%"class.base::internal::CallbackBase"*) unnamed_addr #2

; Function Attrs: nounwind ssp uwtable
define hidden void @_ZN29FramebustBlockMessageDelegateD0Ev(%class.FramebustBlockMessageDelegate*) unnamed_addr #0 align 2 {
  %2 = getelementptr inbounds %class.FramebustBlockMessageDelegate, %class.FramebustBlockMessageDelegate* %0, i64 0, i32 0, i32 0
  store i32 (...)** bitcast (i8** getelementptr inbounds ({ [8 x i8*] }, { [8 x i8*] }* @_ZTV29FramebustBlockMessageDelegate, i64 0, inrange i32 0, i64 2) to i32 (...)**), i32 (...)*** %2, align 8
  %3 = getelementptr inbounds %class.FramebustBlockMessageDelegate, %class.FramebustBlockMessageDelegate* %0, i64 0, i32 3
  tail call void @_ZN4GURLD1Ev(%class.GURL* %3) #6
  %4 = getelementptr inbounds %class.FramebustBlockMessageDelegate, %class.FramebustBlockMessageDelegate* %0, i64 0, i32 1, i32 0
  tail call void @_ZN4base8internal12CallbackBaseD2Ev(%"class.base::internal::CallbackBase"* %4) #6
  %5 = bitcast %class.FramebustBlockMessageDelegate* %0 to i8*
  tail call void @_ZdlPv(i8* %5) #7
  ret void
}

; Function Attrs: nobuiltin nounwind
declare void @_ZdlPv(i8*) local_unnamed_addr #3

; Function Attrs: norecurse nounwind readnone ssp uwtable
define hidden dereferenceable(120) %class.GURL* @_ZNK29FramebustBlockMessageDelegate13GetBlockedUrlEv(%class.FramebustBlockMessageDelegate* readnone) local_unnamed_addr #4 align 2 {
  %2 = getelementptr inbounds %class.FramebustBlockMessageDelegate, %class.FramebustBlockMessageDelegate* %0, i64 0, i32 3
  ret %class.GURL* %2
}

; Function Attrs: nounwind ssp uwtable
define hidden void @_ZN29FramebustBlockMessageDelegate18AcceptInterventionEv(%class.FramebustBlockMessageDelegate* nocapture) unnamed_addr #0 align 2 {
  %2 = alloca %"class.base::OnceCallback", align 8
  %3 = getelementptr inbounds %class.FramebustBlockMessageDelegate, %class.FramebustBlockMessageDelegate* %0, i64 0, i32 1, i32 0, i32 0, i32 0
  %4 = load %"class.base::internal::BindStateBase"*, %"class.base::internal::BindStateBase"** %3, align 8
  %5 = icmp eq %"class.base::internal::BindStateBase"* %4, null
  br i1 %5, label %14, label %6

6:                                                ; preds = %1
  %7 = ptrtoint %"class.base::internal::BindStateBase"* %4 to i64
  %8 = bitcast %"class.base::OnceCallback"* %2 to i8*
  call void @llvm.lifetime.start.p0i8(i64 8, i8* nonnull %8) #6
  %9 = bitcast %"class.base::OnceCallback"* %2 to i64*
  store i64 %7, i64* %9, align 8
  store %"class.base::internal::BindStateBase"* null, %"class.base::internal::BindStateBase"** %3, align 8
  %10 = getelementptr inbounds %"class.base::OnceCallback", %"class.base::OnceCallback"* %2, i64 0, i32 0
  %11 = getelementptr inbounds %"class.base::internal::BindStateBase", %"class.base::internal::BindStateBase"* %4, i64 0, i32 1
  %12 = bitcast void ()** %11 to void (%"class.base::internal::BindStateBase"*, i32)**
  %13 = load void (%"class.base::internal::BindStateBase"*, i32)*, void (%"class.base::internal::BindStateBase"*, i32)** %12, align 8
  tail call void %13(%"class.base::internal::BindStateBase"* nonnull %4, i32 0) #6
  call void @_ZN4base8internal12CallbackBaseD2Ev(%"class.base::internal::CallbackBase"* nonnull %10) #6
  call void @llvm.lifetime.end.p0i8(i64 8, i8* nonnull %8) #6
  br label %14

14:                                               ; preds = %6, %1
  ret void
}

; Function Attrs: nounwind ssp uwtable
define hidden void @_ZN29FramebustBlockMessageDelegate19DeclineInterventionEv(%class.FramebustBlockMessageDelegate*) unnamed_addr #0 align 2 {
  %2 = alloca %"class.base::OnceCallback", align 8
  %3 = alloca %"struct.content::OpenURLParams", align 8
  %4 = alloca %"struct.content::Referrer", align 8
  %5 = getelementptr inbounds %class.FramebustBlockMessageDelegate, %class.FramebustBlockMessageDelegate* %0, i64 0, i32 1, i32 0, i32 0, i32 0
  %6 = load %"class.base::internal::BindStateBase"*, %"class.base::internal::BindStateBase"** %5, align 8
  %7 = icmp eq %"class.base::internal::BindStateBase"* %6, null
  br i1 %7, label %16, label %8

8:                                                ; preds = %1
  %9 = ptrtoint %"class.base::internal::BindStateBase"* %6 to i64
  %10 = bitcast %"class.base::OnceCallback"* %2 to i8*
  call void @llvm.lifetime.start.p0i8(i64 8, i8* nonnull %10) #6
  %11 = bitcast %"class.base::OnceCallback"* %2 to i64*
  store i64 %9, i64* %11, align 8
  store %"class.base::internal::BindStateBase"* null, %"class.base::internal::BindStateBase"** %5, align 8
  %12 = getelementptr inbounds %"class.base::OnceCallback", %"class.base::OnceCallback"* %2, i64 0, i32 0
  %13 = getelementptr inbounds %"class.base::internal::BindStateBase", %"class.base::internal::BindStateBase"* %6, i64 0, i32 1
  %14 = bitcast void ()** %13 to void (%"class.base::internal::BindStateBase"*, i32)**
  %15 = load void (%"class.base::internal::BindStateBase"*, i32)*, void (%"class.base::internal::BindStateBase"*, i32)** %14, align 8
  tail call void %15(%"class.base::internal::BindStateBase"* nonnull %6, i32 1) #6
  call void @_ZN4base8internal12CallbackBaseD2Ev(%"class.base::internal::CallbackBase"* nonnull %12) #6
  call void @llvm.lifetime.end.p0i8(i64 8, i8* nonnull %10) #6
  br label %16

16:                                               ; preds = %8, %1
  %17 = getelementptr inbounds %class.FramebustBlockMessageDelegate, %class.FramebustBlockMessageDelegate* %0, i64 0, i32 2
  %18 = bitcast %"class.content::WebContents"** %17 to %"class.content::PageNavigator"**
  %19 = load %"class.content::PageNavigator"*, %"class.content::PageNavigator"** %18, align 8
  %20 = bitcast %"struct.content::OpenURLParams"* %3 to i8*
  call void @llvm.lifetime.start.p0i8(i64 720, i8* nonnull %20) #6
  %21 = getelementptr inbounds %class.FramebustBlockMessageDelegate, %class.FramebustBlockMessageDelegate* %0, i64 0, i32 3
  %22 = bitcast %"struct.content::Referrer"* %4 to i8*
  call void @llvm.lifetime.start.p0i8(i64 128, i8* nonnull %22) #6
  %23 = getelementptr inbounds %"struct.content::Referrer", %"struct.content::Referrer"* %4, i64 0, i32 0
  call void @_ZN4GURLC1Ev(%class.GURL* nonnull %23) #6
  %24 = getelementptr inbounds %"struct.content::Referrer", %"struct.content::Referrer"* %4, i64 0, i32 1
  store i32 1, i32* %24, align 8
  call void @_ZN7content13OpenURLParamsC1ERK4GURLRKNS_8ReferrerE21WindowOpenDispositionN2ui14PageTransitionEb(%"struct.content::OpenURLParams"* nonnull %3, %class.GURL* dereferenceable(120) %21, %"struct.content::Referrer"* nonnull dereferenceable(128) %4, i32 1, i32 0, i1 zeroext false) #6
  %25 = bitcast %"class.content::PageNavigator"* %19 to %"class.content::WebContents"* (%"class.content::PageNavigator"*, %"struct.content::OpenURLParams"*)***
  %26 = load %"class.content::WebContents"* (%"class.content::PageNavigator"*, %"struct.content::OpenURLParams"*)**, %"class.content::WebContents"* (%"class.content::PageNavigator"*, %"struct.content::OpenURLParams"*)*** %25, align 8
  %27 = getelementptr inbounds %"class.content::WebContents"* (%"class.content::PageNavigator"*, %"struct.content::OpenURLParams"*)*, %"class.content::WebContents"* (%"class.content::PageNavigator"*, %"struct.content::OpenURLParams"*)** %26, i64 2
  %28 = load %"class.content::WebContents"* (%"class.content::PageNavigator"*, %"struct.content::OpenURLParams"*)*, %"class.content::WebContents"* (%"class.content::PageNavigator"*, %"struct.content::OpenURLParams"*)** %27, align 8
  %29 = call %"class.content::WebContents"* %28(%"class.content::PageNavigator"* %19, %"struct.content::OpenURLParams"* nonnull dereferenceable(720) %3) #6
  call void @_ZN7content13OpenURLParamsD1Ev(%"struct.content::OpenURLParams"* nonnull %3) #6
  call void @_ZN4GURLD1Ev(%class.GURL* nonnull %23) #6
  call void @llvm.lifetime.end.p0i8(i64 128, i8* nonnull %22) #6
  call void @llvm.lifetime.end.p0i8(i64 720, i8* nonnull %20) #6
  ret void
}

; Function Attrs: argmemonly nounwind
declare void @llvm.lifetime.start.p0i8(i64 immarg, i8* nocapture) #5

declare void @_ZN7content13OpenURLParamsC1ERK4GURLRKNS_8ReferrerE21WindowOpenDispositionN2ui14PageTransitionEb(%"struct.content::OpenURLParams"*, %class.GURL* dereferenceable(120), %"struct.content::Referrer"* dereferenceable(128), i32, i32, i1 zeroext) unnamed_addr #1

; Function Attrs: nounwind
declare void @_ZN7content13OpenURLParamsD1Ev(%"struct.content::OpenURLParams"*) unnamed_addr #2

; Function Attrs: argmemonly nounwind
declare void @llvm.lifetime.end.p0i8(i64 immarg, i8* nocapture) #5

; Function Attrs: nounwind ssp uwtable
define hidden void @_ZN29FramebustBlockMessageDelegate29DeclineInterventionWithReloadEv(%class.FramebustBlockMessageDelegate*) unnamed_addr #0 align 2 {
  %2 = bitcast %class.FramebustBlockMessageDelegate* %0 to void (%class.FramebustBlockMessageDelegate*)***
  %3 = load void (%class.FramebustBlockMessageDelegate*)**, void (%class.FramebustBlockMessageDelegate*)*** %2, align 8
  %4 = getelementptr inbounds void (%class.FramebustBlockMessageDelegate*)*, void (%class.FramebustBlockMessageDelegate*)** %3, i64 1
  %5 = load void (%class.FramebustBlockMessageDelegate*)*, void (%class.FramebustBlockMessageDelegate*)** %4, align 8
  tail call void %5(%class.FramebustBlockMessageDelegate* %0) #6
  ret void
}

; Function Attrs: nounwind ssp uwtable
define hidden void @_ZN29FramebustBlockMessageDelegate25DeclineInterventionStickyEv(%class.FramebustBlockMessageDelegate*) unnamed_addr #0 align 2 {
  %2 = alloca %class.GURL, align 8
  %3 = getelementptr inbounds %class.FramebustBlockMessageDelegate, %class.FramebustBlockMessageDelegate* %0, i64 0, i32 2
  %4 = load %"class.content::WebContents"*, %"class.content::WebContents"** %3, align 8
  %5 = bitcast %"class.content::WebContents"* %4 to %"class.content::BrowserContext"* (%"class.content::WebContents"*)***
  %6 = load %"class.content::BrowserContext"* (%"class.content::WebContents"*)**, %"class.content::BrowserContext"* (%"class.content::WebContents"*)*** %5, align 8
  %7 = getelementptr inbounds %"class.content::BrowserContext"* (%"class.content::WebContents"*)*, %"class.content::BrowserContext"* (%"class.content::WebContents"*)** %6, i64 6
  %8 = load %"class.content::BrowserContext"* (%"class.content::WebContents"*)*, %"class.content::BrowserContext"* (%"class.content::WebContents"*)** %7, align 8
  %9 = tail call %"class.content::BrowserContext"* %8(%"class.content::WebContents"* %4) #6
  %10 = tail call %class.Profile* @_ZN7Profile18FromBrowserContextEPN7content14BrowserContextE(%"class.content::BrowserContext"* %9) #6
  %11 = getelementptr inbounds %class.Profile, %class.Profile* %10, i64 0, i32 0
  %12 = tail call %class.HostContentSettingsMap* @_ZN29HostContentSettingsMapFactory13GetForProfileEPN7content14BrowserContextE(%"class.content::BrowserContext"* %11) #6
  %13 = load %"class.content::WebContents"*, %"class.content::WebContents"** %3, align 8
  %14 = bitcast %"class.content::WebContents"* %13 to %class.GURL* (%"class.content::WebContents"*)***
  %15 = load %class.GURL* (%"class.content::WebContents"*)**, %class.GURL* (%"class.content::WebContents"*)*** %14, align 8
  %16 = getelementptr inbounds %class.GURL* (%"class.content::WebContents"*)*, %class.GURL* (%"class.content::WebContents"*)** %15, i64 9
  %17 = load %class.GURL* (%"class.content::WebContents"*)*, %class.GURL* (%"class.content::WebContents"*)** %16, align 8
  %18 = tail call dereferenceable(120) %class.GURL* %17(%"class.content::WebContents"* %13) #6
  %19 = bitcast %class.GURL* %2 to i8*
  call void @llvm.lifetime.start.p0i8(i64 120, i8* nonnull %19) #6
  call void @_ZN4GURLC1Ev(%class.GURL* nonnull %2) #6
  call void @_ZN22HostContentSettingsMap29SetContentSettingDefaultScopeERK4GURLS2_19ContentSettingsType14ContentSettingRKN16content_settings25ContentSettingConstraintsE(%class.HostContentSettingsMap* %12, %class.GURL* dereferenceable(120) %18, %class.GURL* nonnull dereferenceable(120) %2, i32 3, i32 1, %"struct.content_settings::ContentSettingConstraints"* dereferenceable(16) bitcast ({ { i64 }, i32 }* @.ref.tmp to %"struct.content_settings::ContentSettingConstraints"*)) #6
  call void @_ZN4GURLD1Ev(%class.GURL* nonnull %2) #6
  call void @llvm.lifetime.end.p0i8(i64 120, i8* nonnull %19) #6
  %20 = bitcast %class.FramebustBlockMessageDelegate* %0 to void (%class.FramebustBlockMessageDelegate*)***
  %21 = load void (%class.FramebustBlockMessageDelegate*)**, void (%class.FramebustBlockMessageDelegate*)*** %20, align 8
  %22 = getelementptr inbounds void (%class.FramebustBlockMessageDelegate*)*, void (%class.FramebustBlockMessageDelegate*)** %21, i64 1
  %23 = load void (%class.FramebustBlockMessageDelegate*)*, void (%class.FramebustBlockMessageDelegate*)** %22, align 8
  call void %23(%class.FramebustBlockMessageDelegate* %0) #6
  ret void
}

declare %class.HostContentSettingsMap* @_ZN29HostContentSettingsMapFactory13GetForProfileEPN7content14BrowserContextE(%"class.content::BrowserContext"*) local_unnamed_addr #1

declare %class.Profile* @_ZN7Profile18FromBrowserContextEPN7content14BrowserContextE(%"class.content::BrowserContext"*) local_unnamed_addr #1

declare void @_ZN22HostContentSettingsMap29SetContentSettingDefaultScopeERK4GURLS2_19ContentSettingsType14ContentSettingRKN16content_settings25ContentSettingConstraintsE(%class.HostContentSettingsMap*, %class.GURL* dereferenceable(120), %class.GURL* dereferenceable(120), i32, i32, %"struct.content_settings::ContentSettingConstraints"* dereferenceable(16)) local_unnamed_addr #1

declare void @_ZN4GURLC1Ev(%class.GURL*) unnamed_addr #1

attributes #0 = { nounwind ssp uwtable "correctly-rounded-divide-sqrt-fp-math"="false" "disable-tail-calls"="false" "less-precise-fpmad"="false" "min-legal-vector-width"="0" "no-frame-pointer-elim"="false" "no-frame-pointer-elim-non-leaf" "no-infs-fp-math"="false" "no-jump-tables"="false" "no-nans-fp-math"="false" "no-signed-zeros-fp-math"="false" "no-trapping-math"="false" "null-pointer-is-valid"="true" "stack-protector-buffer-size"="4" "target-cpu"="x86-64" "target-features"="+cx8,+fxsr,+mmx,+sse,+sse2,+sse3,+x87" "unsafe-fp-math"="false" "use-soft-float"="false" }
attributes #1 = { "correctly-rounded-divide-sqrt-fp-math"="false" "disable-tail-calls"="false" "less-precise-fpmad"="false" "no-frame-pointer-elim"="false" "no-frame-pointer-elim-non-leaf" "no-infs-fp-math"="false" "no-nans-fp-math"="false" "no-signed-zeros-fp-math"="false" "no-trapping-math"="false" "null-pointer-is-valid"="true" "stack-protector-buffer-size"="4" "target-cpu"="x86-64" "target-features"="+cx8,+fxsr,+mmx,+sse,+sse2,+sse3,+x87" "unsafe-fp-math"="false" "use-soft-float"="false" }
attributes #2 = { nounwind "correctly-rounded-divide-sqrt-fp-math"="false" "disable-tail-calls"="false" "less-precise-fpmad"="false" "no-frame-pointer-elim"="false" "no-frame-pointer-elim-non-leaf" "no-infs-fp-math"="false" "no-nans-fp-math"="false" "no-signed-zeros-fp-math"="false" "no-trapping-math"="false" "null-pointer-is-valid"="true" "stack-protector-buffer-size"="4" "target-cpu"="x86-64" "target-features"="+cx8,+fxsr,+mmx,+sse,+sse2,+sse3,+x87" "unsafe-fp-math"="false" "use-soft-float"="false" }
attributes #3 = { nobuiltin nounwind "correctly-rounded-divide-sqrt-fp-math"="false" "disable-tail-calls"="false" "less-precise-fpmad"="false" "no-frame-pointer-elim"="false" "no-frame-pointer-elim-non-leaf" "no-infs-fp-math"="false" "no-nans-fp-math"="false" "no-signed-zeros-fp-math"="false" "no-trapping-math"="false" "null-pointer-is-valid"="true" "stack-protector-buffer-size"="4" "target-cpu"="x86-64" "target-features"="+cx8,+fxsr,+mmx,+sse,+sse2,+sse3,+x87" "unsafe-fp-math"="false" "use-soft-float"="false" }
attributes #4 = { norecurse nounwind readnone ssp uwtable "correctly-rounded-divide-sqrt-fp-math"="false" "disable-tail-calls"="false" "less-precise-fpmad"="false" "min-legal-vector-width"="0" "no-frame-pointer-elim"="false" "no-frame-pointer-elim-non-leaf" "no-infs-fp-math"="false" "no-jump-tables"="false" "no-nans-fp-math"="false" "no-signed-zeros-fp-math"="false" "no-trapping-math"="false" "null-pointer-is-valid"="true" "stack-protector-buffer-size"="4" "target-cpu"="x86-64" "target-features"="+cx8,+fxsr,+mmx,+sse,+sse2,+sse3,+x87" "unsafe-fp-math"="false" "use-soft-float"="false" }
attributes #5 = { argmemonly nounwind }
attributes #6 = { nounwind }
attributes #7 = { builtin nounwind }

!llvm.module.flags = !{!0, !1}

!0 = !{i32 1, !"wchar_size", i32 4}
!1 = !{i32 7, !"PIC Level", i32 2}
