; ModuleID = 'gen/third_party/perfetto/protos/perfetto/config/ftrace/ftrace_config.pb.cc'
source_filename = "gen/third_party/perfetto/protos/perfetto/config/ftrace/ftrace_config.pb.cc"
target datalayout = "e-m:e-i64:64-f80:128-n8:16:32:64-S128"
target triple = "x86_64-unknown-linux-gnu"

module asm ".symver exp, exp@GLIBC_2.2.5"
module asm ".symver exp2, exp2@GLIBC_2.2.5"
module asm ".symver exp2f, exp2f@GLIBC_2.2.5"
module asm ".symver expf, expf@GLIBC_2.2.5"
module asm ".symver lgamma, lgamma@GLIBC_2.2.5"
module asm ".symver lgammaf, lgammaf@GLIBC_2.2.5"
module asm ".symver lgammal, lgammal@GLIBC_2.2.5"
module asm ".symver log, log@GLIBC_2.2.5"
module asm ".symver log2, log2@GLIBC_2.2.5"
module asm ".symver log2f, log2f@GLIBC_2.2.5"
module asm ".symver logf, logf@GLIBC_2.2.5"
module asm ".symver pow, pow@GLIBC_2.2.5"
module asm ".symver powf, powf@GLIBC_2.2.5"

%"class.perfetto::protos::FtraceConfig_CompactSchedConfigDefaultTypeInternal" = type { %"class.google::protobuf::internal::ExplicitlyConstructed" }
%"class.google::protobuf::internal::ExplicitlyConstructed" = type { %"union.google::protobuf::internal::ExplicitlyConstructed<perfetto::protos::FtraceConfig_CompactSchedConfig>::AlignedUnion" }
%"union.google::protobuf::internal::ExplicitlyConstructed<perfetto::protos::FtraceConfig_CompactSchedConfig>::AlignedUnion" = type { i64, [24 x i8] }
%"class.perfetto::protos::FtraceConfigDefaultTypeInternal" = type { %"class.google::protobuf::internal::ExplicitlyConstructed.0" }
%"class.google::protobuf::internal::ExplicitlyConstructed.0" = type { %"union.google::protobuf::internal::ExplicitlyConstructed<perfetto::protos::FtraceConfig>::AlignedUnion" }
%"union.google::protobuf::internal::ExplicitlyConstructed<perfetto::protos::FtraceConfig>::AlignedUnion" = type { i64, [112 x i8] }
%"class.perfetto::protos::FtraceConfig_CompactSchedConfig" = type <{ %"class.google::protobuf::MessageLite", %"class.google::protobuf::internal::HasBits", %"class.google::protobuf::internal::CachedSize", i8, [7 x i8] }>
%"class.google::protobuf::MessageLite" = type { i32 (...)**, %"class.google::protobuf::internal::InternalMetadata" }
%"class.google::protobuf::internal::InternalMetadata" = type { i8* }
%"class.google::protobuf::internal::HasBits" = type { [1 x i32] }
%"class.google::protobuf::internal::CachedSize" = type { %"struct.std::__1::atomic" }
%"struct.std::__1::atomic" = type { %"struct.std::__1::__atomic_base" }
%"struct.std::__1::__atomic_base" = type { %"struct.std::__1::__atomic_base.1" }
%"struct.std::__1::__atomic_base.1" = type { %"struct.std::__1::__cxx_atomic_impl" }
%"struct.std::__1::__cxx_atomic_impl" = type { %"struct.std::__1::__cxx_atomic_base_impl" }
%"struct.std::__1::__cxx_atomic_base_impl" = type { i32 }
%"class.google::protobuf::Arena" = type { %"class.google::protobuf::internal::ArenaImpl", void (%"class.std::type_info"*, i64, i8*)*, void (%"class.google::protobuf::Arena"*, i8*, i64)*, void (%"class.google::protobuf::Arena"*, i8*, i64)*, i8* }
%"class.google::protobuf::internal::ArenaImpl" = type { %"struct.std::__1::atomic.3", %"struct.std::__1::atomic.3", %"struct.std::__1::atomic.7", %"class.google::protobuf::internal::ArenaImpl::Block"*, i64, %"struct.google::protobuf::internal::ArenaImpl::Options" }
%"struct.std::__1::atomic.3" = type { %"struct.std::__1::__atomic_base.4" }
%"struct.std::__1::__atomic_base.4" = type { %"struct.std::__1::__cxx_atomic_impl.5" }
%"struct.std::__1::__cxx_atomic_impl.5" = type { %"struct.std::__1::__cxx_atomic_base_impl.6" }
%"struct.std::__1::__cxx_atomic_base_impl.6" = type { %"class.google::protobuf::internal::ArenaImpl::SerialArena"* }
%"class.google::protobuf::internal::ArenaImpl::SerialArena" = type { %"class.google::protobuf::internal::ArenaImpl"*, i8*, %"class.google::protobuf::internal::ArenaImpl::Block"*, %"struct.google::protobuf::internal::ArenaImpl::CleanupChunk"*, %"class.google::protobuf::internal::ArenaImpl::SerialArena"*, i8*, i8*, %"struct.google::protobuf::internal::ArenaImpl::CleanupNode"*, %"struct.google::protobuf::internal::ArenaImpl::CleanupNode"* }
%"struct.google::protobuf::internal::ArenaImpl::CleanupChunk" = type { i64, %"struct.google::protobuf::internal::ArenaImpl::CleanupChunk"*, [1 x %"struct.google::protobuf::internal::ArenaImpl::CleanupNode"] }
%"struct.google::protobuf::internal::ArenaImpl::CleanupNode" = type { i8*, void (i8*)* }
%"struct.std::__1::atomic.7" = type { %"struct.std::__1::__atomic_base.8" }
%"struct.std::__1::__atomic_base.8" = type { %"struct.std::__1::__atomic_base.9" }
%"struct.std::__1::__atomic_base.9" = type { %"struct.std::__1::__cxx_atomic_impl.10" }
%"struct.std::__1::__cxx_atomic_impl.10" = type { %"struct.std::__1::__cxx_atomic_base_impl.11" }
%"struct.std::__1::__cxx_atomic_base_impl.11" = type { i64 }
%"class.google::protobuf::internal::ArenaImpl::Block" = type { %"class.google::protobuf::internal::ArenaImpl::Block"*, i64, i64 }
%"struct.google::protobuf::internal::ArenaImpl::Options" = type { i64, i64, i8*, i64, i8* (i64)*, void (i8*, i64)* }
%"class.std::type_info" = type { i32 (...)**, i8* }
%"class.perfetto::protos::FtraceConfig" = type <{ %"class.google::protobuf::MessageLite", %"class.google::protobuf::internal::HasBits", %"class.google::protobuf::internal::CachedSize", %"class.google::protobuf::RepeatedPtrField", %"class.google::protobuf::RepeatedPtrField", %"class.google::protobuf::RepeatedPtrField", %"class.perfetto::protos::FtraceConfig_CompactSchedConfig"*, i8, i8, [2 x i8], i32, i32, [4 x i8] }>
%"class.google::protobuf::RepeatedPtrField" = type { %"class.google::protobuf::internal::RepeatedPtrFieldBase" }
%"class.google::protobuf::internal::RepeatedPtrFieldBase" = type { %"class.google::protobuf::Arena"*, i32, i32, %"struct.google::protobuf::internal::RepeatedPtrFieldBase::Rep"* }
%"struct.google::protobuf::internal::RepeatedPtrFieldBase::Rep" = type { i32, [268435454 x i8*] }
%"struct.google::protobuf::internal::SCCInfoBase" = type { %"struct.std::__1::atomic", i32, i32, void ()* }
%"struct.google::protobuf::internal::InternalMetadata::Container" = type { %"struct.google::protobuf::internal::InternalMetadata::ContainerBase", %"class.std::__1::basic_string" }
%"struct.google::protobuf::internal::InternalMetadata::ContainerBase" = type { %"class.google::protobuf::Arena"* }
%"class.std::__1::basic_string" = type { %"class.std::__1::__compressed_pair" }
%"class.std::__1::__compressed_pair" = type { %"struct.std::__1::__compressed_pair_elem" }
%"struct.std::__1::__compressed_pair_elem" = type { %"struct.std::__1::basic_string<char, std::__1::char_traits<char>, std::__1::allocator<char> >::__rep" }
%"struct.std::__1::basic_string<char, std::__1::char_traits<char>, std::__1::allocator<char> >::__rep" = type { %union.anon }
%union.anon = type { %"struct.std::__1::basic_string<char, std::__1::char_traits<char>, std::__1::allocator<char> >::__long" }
%"struct.std::__1::basic_string<char, std::__1::char_traits<char>, std::__1::allocator<char> >::__long" = type { i8*, i64, i64 }
%"struct.std::__1::basic_string<char, std::__1::char_traits<char>, std::__1::allocator<char> >::__short" = type { [23 x i8], %struct.anon }
%struct.anon = type { i8 }
%"class.google::protobuf::internal::ParseContext" = type { %"class.google::protobuf::internal::EpsCopyInputStream", i32, i32, %"struct.google::protobuf::internal::ParseContext::Data" }
%"class.google::protobuf::internal::EpsCopyInputStream" = type { i8*, i8*, i8*, i32, i32, %"class.google::protobuf::io::ZeroCopyInputStream"*, [32 x i8], i64, i32, i32 }
%"class.google::protobuf::io::ZeroCopyInputStream" = type { i32 (...)** }
%"struct.google::protobuf::internal::ParseContext::Data" = type { %"class.google::protobuf::DescriptorPool"*, %"class.google::protobuf::MessageFactory"* }
%"class.google::protobuf::DescriptorPool" = type opaque
%"class.google::protobuf::MessageFactory" = type opaque
%"class.google::protobuf::io::EpsCopyOutputStream" = type <{ i8*, i8*, [32 x i8], %"class.google::protobuf::io::ZeroCopyOutputStream"*, i8, i8, i8, [5 x i8] }>
%"class.google::protobuf::io::ZeroCopyOutputStream" = type { i32 (...)** }

$_ZN6google8protobuf8internal12ParseContext12ParseMessageIN8perfetto6protos31FtraceConfig_CompactSchedConfigEEEPKcPT_S8_ = comdat any

$_ZNK8perfetto6protos31FtraceConfig_CompactSchedConfig3NewEv = comdat any

$_ZNK8perfetto6protos31FtraceConfig_CompactSchedConfig3NewEPN6google8protobuf5ArenaE = comdat any

$_ZNK8perfetto6protos31FtraceConfig_CompactSchedConfig13GetCachedSizeEv = comdat any

$_ZNK6google8protobuf11MessageLite16InternalGetTableEv = comdat any

$_ZNK8perfetto6protos12FtraceConfig3NewEv = comdat any

$_ZNK8perfetto6protos12FtraceConfig3NewEPN6google8protobuf5ArenaE = comdat any

$_ZNK8perfetto6protos12FtraceConfig13GetCachedSizeEv = comdat any

$_ZN6google8protobuf8internal21arena_destruct_objectINSt3__112basic_stringIcNS3_11char_traitsIcEENS3_9allocatorIcEEEEEEvPv = comdat any

$_ZN6google8protobuf8internal16InternalMetadata27mutable_unknown_fields_slowINSt3__112basic_stringIcNS4_11char_traitsIcEENS4_9allocatorIcEEEEEEPT_v = comdat any

$_ZN6google8protobuf8internal21arena_destruct_objectINS1_16InternalMetadata9ContainerINSt3__112basic_stringIcNS5_11char_traitsIcEENS5_9allocatorIcEEEEEEEEvPv = comdat any

$_ZN6google8protobuf8internal20RepeatedPtrFieldBase9MergeFromINS0_16RepeatedPtrFieldINSt3__112basic_stringIcNS5_11char_traitsIcEENS5_9allocatorIcEEEEE11TypeHandlerEEEvRKS2_ = comdat any

$_ZNSt3__112basic_stringIcNS_11char_traitsIcEENS_9allocatorIcEEEaSERKS5_ = comdat any

@_ZN8perfetto6protos50_FtraceConfig_CompactSchedConfig_default_instance_E = hidden global %"class.perfetto::protos::FtraceConfig_CompactSchedConfigDefaultTypeInternal" zeroinitializer, align 8
@_ZN8perfetto6protos31_FtraceConfig_default_instance_E = hidden global %"class.perfetto::protos::FtraceConfigDefaultTypeInternal" zeroinitializer, align 8
@scc_info_FtraceConfig_protos_2fperfetto_2fconfig_2fftrace_2fftrace_5fconfig_2eproto = hidden global { { { { i32 } }, i32, i32, void ()* }, [1 x i8*] } { { { { i32 } }, i32, i32, void ()* } { { { i32 } } { { i32 } { i32 -1 } }, i32 1, i32 0, void ()* @_ZL95InitDefaultsscc_info_FtraceConfig_protos_2fperfetto_2fconfig_2fftrace_2fftrace_5fconfig_2eprotov }, [1 x i8*] [i8* bitcast ({ { { { i32 } }, i32, i32, void ()* }, [0 x i8*] }* @scc_info_FtraceConfig_CompactSchedConfig_protos_2fperfetto_2fconfig_2fftrace_2fftrace_5fconfig_2eproto to i8*)] }, align 8
@scc_info_FtraceConfig_CompactSchedConfig_protos_2fperfetto_2fconfig_2fftrace_2fftrace_5fconfig_2eproto = hidden global { { { { i32 } }, i32, i32, void ()* }, [0 x i8*] } { { { { i32 } }, i32, i32, void ()* } { { { i32 } } { { i32 } { i32 -1 } }, i32 0, i32 0, void ()* @_ZL114InitDefaultsscc_info_FtraceConfig_CompactSchedConfig_protos_2fperfetto_2fconfig_2fftrace_2fftrace_5fconfig_2eprotov }, [0 x i8*] zeroinitializer }, align 8
@_ZTVN8perfetto6protos31FtraceConfig_CompactSchedConfigE = hidden unnamed_addr constant { [16 x i8*] } { [16 x i8*] [i8* null, i8* null, i8* bitcast (void (%"class.perfetto::protos::FtraceConfig_CompactSchedConfig"*)* @_ZN8perfetto6protos31FtraceConfig_CompactSchedConfigD2Ev to i8*), i8* bitcast (void (%"class.perfetto::protos::FtraceConfig_CompactSchedConfig"*)* @_ZN8perfetto6protos31FtraceConfig_CompactSchedConfigD0Ev to i8*), i8* bitcast (void (%"class.std::__1::basic_string"*, %"class.perfetto::protos::FtraceConfig_CompactSchedConfig"*)* @_ZNK8perfetto6protos31FtraceConfig_CompactSchedConfig11GetTypeNameEv to i8*), i8* bitcast (%"class.perfetto::protos::FtraceConfig_CompactSchedConfig"* (%"class.perfetto::protos::FtraceConfig_CompactSchedConfig"*)* @_ZNK8perfetto6protos31FtraceConfig_CompactSchedConfig3NewEv to i8*), i8* bitcast (%"class.perfetto::protos::FtraceConfig_CompactSchedConfig"* (%"class.perfetto::protos::FtraceConfig_CompactSchedConfig"*, %"class.google::protobuf::Arena"*)* @_ZNK8perfetto6protos31FtraceConfig_CompactSchedConfig3NewEPN6google8protobuf5ArenaE to i8*), i8* bitcast (void (%"class.perfetto::protos::FtraceConfig_CompactSchedConfig"*)* @_ZN8perfetto6protos31FtraceConfig_CompactSchedConfig5ClearEv to i8*), i8* bitcast (i1 (%"class.perfetto::protos::FtraceConfig_CompactSchedConfig"*)* @_ZNK8perfetto6protos31FtraceConfig_CompactSchedConfig13IsInitializedEv to i8*), i8* bitcast (void (%"class.std::__1::basic_string"*, %"class.google::protobuf::MessageLite"*)* @_ZNK6google8protobuf11MessageLite25InitializationErrorStringEv to i8*), i8* bitcast (void (%"class.perfetto::protos::FtraceConfig_CompactSchedConfig"*, %"class.google::protobuf::MessageLite"*)* @_ZN8perfetto6protos31FtraceConfig_CompactSchedConfig21CheckTypeAndMergeFromERKN6google8protobuf11MessageLiteE to i8*), i8* bitcast (i64 (%"class.perfetto::protos::FtraceConfig_CompactSchedConfig"*)* @_ZNK8perfetto6protos31FtraceConfig_CompactSchedConfig12ByteSizeLongEv to i8*), i8* bitcast (i32 (%"class.perfetto::protos::FtraceConfig_CompactSchedConfig"*)* @_ZNK8perfetto6protos31FtraceConfig_CompactSchedConfig13GetCachedSizeEv to i8*), i8* bitcast (i8* (%"class.perfetto::protos::FtraceConfig_CompactSchedConfig"*, i8*, %"class.google::protobuf::internal::ParseContext"*)* @_ZN8perfetto6protos31FtraceConfig_CompactSchedConfig14_InternalParseEPKcPN6google8protobuf8internal12ParseContextE to i8*), i8* bitcast (i8* (%"class.perfetto::protos::FtraceConfig_CompactSchedConfig"*, i8*, %"class.google::protobuf::io::EpsCopyOutputStream"*)* @_ZNK8perfetto6protos31FtraceConfig_CompactSchedConfig18_InternalSerializeEPhPN6google8protobuf2io19EpsCopyOutputStreamE to i8*), i8* bitcast (i8* (%"class.google::protobuf::MessageLite"*)* @_ZNK6google8protobuf11MessageLite16InternalGetTableEv to i8*)] }, align 8
@.str = private unnamed_addr constant [75 x i8] c"gen/third_party/perfetto/protos/perfetto/config/ftrace/ftrace_config.pb.cc\00", align 1
@.str.3 = private unnamed_addr constant [48 x i8] c"perfetto.protos.FtraceConfig.CompactSchedConfig\00", align 1
@_ZTVN8perfetto6protos12FtraceConfigE = hidden unnamed_addr constant { [16 x i8*] } { [16 x i8*] [i8* null, i8* null, i8* bitcast (void (%"class.perfetto::protos::FtraceConfig"*)* @_ZN8perfetto6protos12FtraceConfigD2Ev to i8*), i8* bitcast (void (%"class.perfetto::protos::FtraceConfig"*)* @_ZN8perfetto6protos12FtraceConfigD0Ev to i8*), i8* bitcast (void (%"class.std::__1::basic_string"*, %"class.perfetto::protos::FtraceConfig"*)* @_ZNK8perfetto6protos12FtraceConfig11GetTypeNameEv to i8*), i8* bitcast (%"class.perfetto::protos::FtraceConfig"* (%"class.perfetto::protos::FtraceConfig"*)* @_ZNK8perfetto6protos12FtraceConfig3NewEv to i8*), i8* bitcast (%"class.perfetto::protos::FtraceConfig"* (%"class.perfetto::protos::FtraceConfig"*, %"class.google::protobuf::Arena"*)* @_ZNK8perfetto6protos12FtraceConfig3NewEPN6google8protobuf5ArenaE to i8*), i8* bitcast (void (%"class.perfetto::protos::FtraceConfig"*)* @_ZN8perfetto6protos12FtraceConfig5ClearEv to i8*), i8* bitcast (i1 (%"class.perfetto::protos::FtraceConfig"*)* @_ZNK8perfetto6protos12FtraceConfig13IsInitializedEv to i8*), i8* bitcast (void (%"class.std::__1::basic_string"*, %"class.google::protobuf::MessageLite"*)* @_ZNK6google8protobuf11MessageLite25InitializationErrorStringEv to i8*), i8* bitcast (void (%"class.perfetto::protos::FtraceConfig"*, %"class.google::protobuf::MessageLite"*)* @_ZN8perfetto6protos12FtraceConfig21CheckTypeAndMergeFromERKN6google8protobuf11MessageLiteE to i8*), i8* bitcast (i64 (%"class.perfetto::protos::FtraceConfig"*)* @_ZNK8perfetto6protos12FtraceConfig12ByteSizeLongEv to i8*), i8* bitcast (i32 (%"class.perfetto::protos::FtraceConfig"*)* @_ZNK8perfetto6protos12FtraceConfig13GetCachedSizeEv to i8*), i8* bitcast (i8* (%"class.perfetto::protos::FtraceConfig"*, i8*, %"class.google::protobuf::internal::ParseContext"*)* @_ZN8perfetto6protos12FtraceConfig14_InternalParseEPKcPN6google8protobuf8internal12ParseContextE to i8*), i8* bitcast (i8* (%"class.perfetto::protos::FtraceConfig"*, i8*, %"class.google::protobuf::io::EpsCopyOutputStream"*)* @_ZNK8perfetto6protos12FtraceConfig18_InternalSerializeEPhPN6google8protobuf2io19EpsCopyOutputStreamE to i8*), i8* bitcast (i8* (%"class.google::protobuf::MessageLite"*)* @_ZNK6google8protobuf11MessageLite16InternalGetTableEv to i8*)] }, align 8
@.str.5 = private unnamed_addr constant [29 x i8] c"perfetto.protos.FtraceConfig\00", align 1

@_ZN8perfetto6protos31FtraceConfig_CompactSchedConfigC1EPN6google8protobuf5ArenaE = hidden unnamed_addr alias void (%"class.perfetto::protos::FtraceConfig_CompactSchedConfig"*, %"class.google::protobuf::Arena"*), void (%"class.perfetto::protos::FtraceConfig_CompactSchedConfig"*, %"class.google::protobuf::Arena"*)* @_ZN8perfetto6protos31FtraceConfig_CompactSchedConfigC2EPN6google8protobuf5ArenaE
@_ZN8perfetto6protos31FtraceConfig_CompactSchedConfigC1ERKS1_ = hidden unnamed_addr alias void (%"class.perfetto::protos::FtraceConfig_CompactSchedConfig"*, %"class.perfetto::protos::FtraceConfig_CompactSchedConfig"*), void (%"class.perfetto::protos::FtraceConfig_CompactSchedConfig"*, %"class.perfetto::protos::FtraceConfig_CompactSchedConfig"*)* @_ZN8perfetto6protos31FtraceConfig_CompactSchedConfigC2ERKS1_
@_ZN8perfetto6protos31FtraceConfig_CompactSchedConfigD1Ev = hidden unnamed_addr alias void (%"class.perfetto::protos::FtraceConfig_CompactSchedConfig"*), void (%"class.perfetto::protos::FtraceConfig_CompactSchedConfig"*)* @_ZN8perfetto6protos31FtraceConfig_CompactSchedConfigD2Ev
@_ZN8perfetto6protos12FtraceConfigC1EPN6google8protobuf5ArenaE = hidden unnamed_addr alias void (%"class.perfetto::protos::FtraceConfig"*, %"class.google::protobuf::Arena"*), void (%"class.perfetto::protos::FtraceConfig"*, %"class.google::protobuf::Arena"*)* @_ZN8perfetto6protos12FtraceConfigC2EPN6google8protobuf5ArenaE
@_ZN8perfetto6protos12FtraceConfigC1ERKS1_ = hidden unnamed_addr alias void (%"class.perfetto::protos::FtraceConfig"*, %"class.perfetto::protos::FtraceConfig"*), void (%"class.perfetto::protos::FtraceConfig"*, %"class.perfetto::protos::FtraceConfig"*)* @_ZN8perfetto6protos12FtraceConfigC2ERKS1_
@_ZN8perfetto6protos12FtraceConfigD1Ev = hidden unnamed_addr alias void (%"class.perfetto::protos::FtraceConfig"*), void (%"class.perfetto::protos::FtraceConfig"*)* @_ZN8perfetto6protos12FtraceConfigD2Ev

; Function Attrs: nounwind ssp uwtable
define internal void @_ZL95InitDefaultsscc_info_FtraceConfig_protos_2fperfetto_2fconfig_2fftrace_2fftrace_5fconfig_2eprotov() #0 {
  tail call void @_ZN6google8protobuf8internal13VerifyVersionEiiPKc(i32 3013000, i32 3013000, i8* getelementptr inbounds ([75 x i8], [75 x i8]* @.str, i64 0, i64 0)) #13
  store %"class.google::protobuf::Arena"* null, %"class.google::protobuf::Arena"** bitcast (i8* getelementptr inbounds (%"class.perfetto::protos::FtraceConfigDefaultTypeInternal", %"class.perfetto::protos::FtraceConfigDefaultTypeInternal"* @_ZN8perfetto6protos31_FtraceConfig_default_instance_E, i64 0, i32 0, i32 0, i32 1, i64 0) to %"class.google::protobuf::Arena"**), align 8
  store i32 (...)** bitcast (i8** getelementptr inbounds ({ [16 x i8*] }, { [16 x i8*] }* @_ZTVN8perfetto6protos12FtraceConfigE, i64 0, inrange i32 0, i64 2) to i32 (...)**), i32 (...)*** bitcast (%"class.perfetto::protos::FtraceConfigDefaultTypeInternal"* @_ZN8perfetto6protos31_FtraceConfig_default_instance_E to i32 (...)***), align 8
  tail call void @llvm.memset.p0i8.i64(i8* align 8 getelementptr inbounds (%"class.perfetto::protos::FtraceConfigDefaultTypeInternal", %"class.perfetto::protos::FtraceConfigDefaultTypeInternal"* @_ZN8perfetto6protos31_FtraceConfig_default_instance_E, i64 0, i32 0, i32 0, i32 1, i64 8), i8 0, i64 80, i1 false) #13
  %1 = load atomic i32, i32* getelementptr inbounds ({ { { { i32 } }, i32, i32, void ()* }, [1 x i8*] }, { { { { i32 } }, i32, i32, void ()* }, [1 x i8*] }* @scc_info_FtraceConfig_protos_2fperfetto_2fconfig_2fftrace_2fftrace_5fconfig_2eproto, i64 0, i32 0, i32 0, i32 0, i32 0) acquire, align 8
  %2 = icmp eq i32 %1, 0
  br i1 %2, label %4, label %3, !prof !2

3:                                                ; preds = %0
  tail call void @_ZN6google8protobuf8internal11InitSCCImplEPNS1_11SCCInfoBaseE(%"struct.google::protobuf::internal::SCCInfoBase"* bitcast ({ { { { i32 } }, i32, i32, void ()* }, [1 x i8*] }* @scc_info_FtraceConfig_protos_2fperfetto_2fconfig_2fftrace_2fftrace_5fconfig_2eproto to %"struct.google::protobuf::internal::SCCInfoBase"*)) #13
  br label %4

4:                                                ; preds = %0, %3
  tail call void @llvm.memset.p0i8.i64(i8* align 8 getelementptr inbounds (%"class.perfetto::protos::FtraceConfigDefaultTypeInternal", %"class.perfetto::protos::FtraceConfigDefaultTypeInternal"* @_ZN8perfetto6protos31_FtraceConfig_default_instance_E, i64 0, i32 0, i32 0, i32 1, i64 88), i8 0, i64 20, i1 false) #13
  tail call void @_ZN6google8protobuf8internal13OnShutdownRunEPFvPKvES3_(void (i8*)* nonnull @_ZN6google8protobuf8internal14DestroyMessageEPKv, i8* bitcast (%"class.perfetto::protos::FtraceConfigDefaultTypeInternal"* @_ZN8perfetto6protos31_FtraceConfig_default_instance_E to i8*)) #13
  ret void
}

; Function Attrs: nounwind ssp uwtable
define internal void @_ZL114InitDefaultsscc_info_FtraceConfig_CompactSchedConfig_protos_2fperfetto_2fconfig_2fftrace_2fftrace_5fconfig_2eprotov() #0 {
  tail call void @_ZN6google8protobuf8internal13VerifyVersionEiiPKc(i32 3013000, i32 3013000, i8* getelementptr inbounds ([75 x i8], [75 x i8]* @.str, i64 0, i64 0)) #13
  store %"class.google::protobuf::Arena"* null, %"class.google::protobuf::Arena"** bitcast (i8* getelementptr inbounds (%"class.perfetto::protos::FtraceConfig_CompactSchedConfigDefaultTypeInternal", %"class.perfetto::protos::FtraceConfig_CompactSchedConfigDefaultTypeInternal"* @_ZN8perfetto6protos50_FtraceConfig_CompactSchedConfig_default_instance_E, i64 0, i32 0, i32 0, i32 1, i64 0) to %"class.google::protobuf::Arena"**), align 8
  store i32 (...)** bitcast (i8** getelementptr inbounds ({ [16 x i8*] }, { [16 x i8*] }* @_ZTVN8perfetto6protos31FtraceConfig_CompactSchedConfigE, i64 0, inrange i32 0, i64 2) to i32 (...)**), i32 (...)*** bitcast (%"class.perfetto::protos::FtraceConfig_CompactSchedConfigDefaultTypeInternal"* @_ZN8perfetto6protos50_FtraceConfig_CompactSchedConfig_default_instance_E to i32 (...)***), align 8
  tail call void @llvm.memset.p0i8.i64(i8* align 8 getelementptr inbounds (%"class.perfetto::protos::FtraceConfig_CompactSchedConfigDefaultTypeInternal", %"class.perfetto::protos::FtraceConfig_CompactSchedConfigDefaultTypeInternal"* @_ZN8perfetto6protos50_FtraceConfig_CompactSchedConfig_default_instance_E, i64 0, i32 0, i32 0, i32 1, i64 8), i8 0, i64 9, i1 false) #13
  tail call void @_ZN6google8protobuf8internal13OnShutdownRunEPFvPKvES3_(void (i8*)* nonnull @_ZN6google8protobuf8internal14DestroyMessageEPKv, i8* bitcast (%"class.perfetto::protos::FtraceConfig_CompactSchedConfigDefaultTypeInternal"* @_ZN8perfetto6protos50_FtraceConfig_CompactSchedConfig_default_instance_E to i8*)) #13
  ret void
}

; Function Attrs: nofree norecurse nounwind ssp uwtable writeonly
define hidden void @_ZN8perfetto6protos31FtraceConfig_CompactSchedConfigC2EPN6google8protobuf5ArenaE(%"class.perfetto::protos::FtraceConfig_CompactSchedConfig"* nocapture, %"class.google::protobuf::Arena"*) unnamed_addr #1 align 2 {
  %3 = getelementptr inbounds %"class.perfetto::protos::FtraceConfig_CompactSchedConfig", %"class.perfetto::protos::FtraceConfig_CompactSchedConfig"* %0, i64 0, i32 0, i32 0
  %4 = getelementptr inbounds %"class.perfetto::protos::FtraceConfig_CompactSchedConfig", %"class.perfetto::protos::FtraceConfig_CompactSchedConfig"* %0, i64 0, i32 0, i32 1
  %5 = bitcast %"class.google::protobuf::internal::InternalMetadata"* %4 to %"class.google::protobuf::Arena"**
  store %"class.google::protobuf::Arena"* %1, %"class.google::protobuf::Arena"** %5, align 8
  store i32 (...)** bitcast (i8** getelementptr inbounds ({ [16 x i8*] }, { [16 x i8*] }* @_ZTVN8perfetto6protos31FtraceConfig_CompactSchedConfigE, i64 0, inrange i32 0, i64 2) to i32 (...)**), i32 (...)*** %3, align 8
  %6 = getelementptr inbounds %"class.perfetto::protos::FtraceConfig_CompactSchedConfig", %"class.perfetto::protos::FtraceConfig_CompactSchedConfig"* %0, i64 0, i32 1, i32 0, i64 0
  %7 = bitcast i32* %6 to i8*
  call void @llvm.memset.p0i8.i64(i8* align 4 %7, i8 0, i64 9, i1 false)
  ret void
}

; Function Attrs: nounwind ssp uwtable
define hidden void @_ZN8perfetto6protos31FtraceConfig_CompactSchedConfigC2ERKS1_(%"class.perfetto::protos::FtraceConfig_CompactSchedConfig"*, %"class.perfetto::protos::FtraceConfig_CompactSchedConfig"* nocapture readonly dereferenceable(32)) unnamed_addr #0 align 2 {
  %3 = getelementptr inbounds %"class.perfetto::protos::FtraceConfig_CompactSchedConfig", %"class.perfetto::protos::FtraceConfig_CompactSchedConfig"* %0, i64 0, i32 0, i32 0
  %4 = getelementptr inbounds %"class.perfetto::protos::FtraceConfig_CompactSchedConfig", %"class.perfetto::protos::FtraceConfig_CompactSchedConfig"* %0, i64 0, i32 0, i32 1, i32 0
  store i8* null, i8** %4, align 8
  store i32 (...)** bitcast (i8** getelementptr inbounds ({ [16 x i8*] }, { [16 x i8*] }* @_ZTVN8perfetto6protos31FtraceConfig_CompactSchedConfigE, i64 0, inrange i32 0, i64 2) to i32 (...)**), i32 (...)*** %3, align 8
  %5 = getelementptr inbounds %"class.perfetto::protos::FtraceConfig_CompactSchedConfig", %"class.perfetto::protos::FtraceConfig_CompactSchedConfig"* %1, i64 0, i32 1, i32 0, i64 0
  %6 = getelementptr inbounds %"class.perfetto::protos::FtraceConfig_CompactSchedConfig", %"class.perfetto::protos::FtraceConfig_CompactSchedConfig"* %0, i64 0, i32 1, i32 0, i64 0
  %7 = load i32, i32* %5, align 8
  store i32 %7, i32* %6, align 8
  %8 = getelementptr inbounds %"class.perfetto::protos::FtraceConfig_CompactSchedConfig", %"class.perfetto::protos::FtraceConfig_CompactSchedConfig"* %0, i64 0, i32 2, i32 0, i32 0, i32 0, i32 0, i32 0, i32 0
  store i32 0, i32* %8, align 4
  %9 = getelementptr inbounds %"class.perfetto::protos::FtraceConfig_CompactSchedConfig", %"class.perfetto::protos::FtraceConfig_CompactSchedConfig"* %1, i64 0, i32 0, i32 1
  %10 = bitcast %"class.google::protobuf::internal::InternalMetadata"* %9 to i64*
  %11 = load i64, i64* %10, align 8
  %12 = and i64 %11, 1
  %13 = icmp eq i64 %12, 0
  br i1 %13, label %33, label %14

14:                                               ; preds = %2
  %15 = getelementptr inbounds %"class.perfetto::protos::FtraceConfig_CompactSchedConfig", %"class.perfetto::protos::FtraceConfig_CompactSchedConfig"* %0, i64 0, i32 0, i32 1
  %16 = and i64 %11, -2
  %17 = inttoptr i64 %16 to %"struct.google::protobuf::internal::InternalMetadata::Container"*
  %18 = getelementptr inbounds %"struct.google::protobuf::internal::InternalMetadata::Container", %"struct.google::protobuf::internal::InternalMetadata::Container"* %17, i64 0, i32 1
  %19 = tail call %"class.std::__1::basic_string"* @_ZN6google8protobuf8internal16InternalMetadata27mutable_unknown_fields_slowINSt3__112basic_stringIcNS4_11char_traitsIcEENS4_9allocatorIcEEEEEEPT_v(%"class.google::protobuf::internal::InternalMetadata"* %15) #13
  %20 = bitcast %"class.std::__1::basic_string"* %18 to %"struct.std::__1::basic_string<char, std::__1::char_traits<char>, std::__1::allocator<char> >::__short"*
  %21 = getelementptr inbounds %"struct.std::__1::basic_string<char, std::__1::char_traits<char>, std::__1::allocator<char> >::__short", %"struct.std::__1::basic_string<char, std::__1::char_traits<char>, std::__1::allocator<char> >::__short"* %20, i64 0, i32 1, i32 0
  %22 = load i8, i8* %21, align 1
  %23 = icmp slt i8 %22, 0
  %24 = getelementptr inbounds %"class.std::__1::basic_string", %"class.std::__1::basic_string"* %18, i64 0, i32 0, i32 0, i32 0, i32 0, i32 0, i32 0
  %25 = load i8*, i8** %24, align 8
  %26 = getelementptr inbounds %"struct.google::protobuf::internal::InternalMetadata::Container", %"struct.google::protobuf::internal::InternalMetadata::Container"* %17, i64 0, i32 1, i32 0, i32 0, i32 0, i32 0, i32 0, i32 1
  %27 = load i64, i64* %26, align 8
  %28 = bitcast %"class.std::__1::basic_string"* %18 to i8*
  %29 = zext i8 %22 to i64
  %30 = select i1 %23, i8* %25, i8* %28
  %31 = select i1 %23, i64 %27, i64 %29
  %32 = tail call dereferenceable(24) %"class.std::__1::basic_string"* @_ZNSt3__112basic_stringIcNS_11char_traitsIcEENS_9allocatorIcEEE6appendEPKcm(%"class.std::__1::basic_string"* %19, i8* %30, i64 %31) #13
  br label %33

33:                                               ; preds = %2, %14
  %34 = getelementptr inbounds %"class.perfetto::protos::FtraceConfig_CompactSchedConfig", %"class.perfetto::protos::FtraceConfig_CompactSchedConfig"* %1, i64 0, i32 3
  %35 = load i8, i8* %34, align 8, !range !3
  %36 = getelementptr inbounds %"class.perfetto::protos::FtraceConfig_CompactSchedConfig", %"class.perfetto::protos::FtraceConfig_CompactSchedConfig"* %0, i64 0, i32 3
  store i8 %35, i8* %36, align 8
  ret void
}

; Function Attrs: argmemonly nounwind
declare void @llvm.memcpy.p0i8.p0i8.i64(i8* nocapture writeonly, i8* nocapture readonly, i64, i1 immarg) #2

; Function Attrs: nounwind ssp uwtable
define hidden void @_ZN8perfetto6protos31FtraceConfig_CompactSchedConfigD2Ev(%"class.perfetto::protos::FtraceConfig_CompactSchedConfig"* nocapture) unnamed_addr #0 align 2 {
  %2 = getelementptr inbounds %"class.perfetto::protos::FtraceConfig_CompactSchedConfig", %"class.perfetto::protos::FtraceConfig_CompactSchedConfig"* %0, i64 0, i32 0, i32 0
  store i32 (...)** bitcast (i8** getelementptr inbounds ({ [16 x i8*] }, { [16 x i8*] }* @_ZTVN8perfetto6protos31FtraceConfig_CompactSchedConfigE, i64 0, inrange i32 0, i64 2) to i32 (...)**), i32 (...)*** %2, align 8
  %3 = getelementptr inbounds %"class.perfetto::protos::FtraceConfig_CompactSchedConfig", %"class.perfetto::protos::FtraceConfig_CompactSchedConfig"* %0, i64 0, i32 0, i32 1
  %4 = bitcast %"class.google::protobuf::internal::InternalMetadata"* %3 to i64*
  %5 = load i64, i64* %4, align 8
  %6 = and i64 %5, 1
  %7 = icmp eq i64 %6, 0
  br i1 %7, label %28, label %8

8:                                                ; preds = %1
  %9 = and i64 %5, -2
  %10 = inttoptr i64 %9 to %"struct.google::protobuf::internal::InternalMetadata::ContainerBase"*
  %11 = getelementptr inbounds %"struct.google::protobuf::internal::InternalMetadata::ContainerBase", %"struct.google::protobuf::internal::InternalMetadata::ContainerBase"* %10, i64 0, i32 0
  %12 = load %"class.google::protobuf::Arena"*, %"class.google::protobuf::Arena"** %11, align 8
  %13 = icmp ne %"class.google::protobuf::Arena"* %12, null
  %14 = icmp eq i64 %9, 0
  %15 = or i1 %14, %13
  br i1 %15, label %28, label %16

16:                                               ; preds = %8
  %17 = inttoptr i64 %9 to %"struct.google::protobuf::internal::InternalMetadata::Container"*
  %18 = getelementptr inbounds %"struct.google::protobuf::internal::InternalMetadata::Container", %"struct.google::protobuf::internal::InternalMetadata::Container"* %17, i64 0, i32 1
  %19 = bitcast %"class.std::__1::basic_string"* %18 to %"struct.std::__1::basic_string<char, std::__1::char_traits<char>, std::__1::allocator<char> >::__short"*
  %20 = getelementptr inbounds %"struct.std::__1::basic_string<char, std::__1::char_traits<char>, std::__1::allocator<char> >::__short", %"struct.std::__1::basic_string<char, std::__1::char_traits<char>, std::__1::allocator<char> >::__short"* %19, i64 0, i32 1, i32 0
  %21 = load i8, i8* %20, align 1
  %22 = icmp slt i8 %21, 0
  br i1 %22, label %23, label %26

23:                                               ; preds = %16
  %24 = getelementptr inbounds %"class.std::__1::basic_string", %"class.std::__1::basic_string"* %18, i64 0, i32 0, i32 0, i32 0, i32 0, i32 0, i32 0
  %25 = load i8*, i8** %24, align 8
  tail call void @_ZdlPv(i8* %25) #14
  br label %26

26:                                               ; preds = %23, %16
  %27 = inttoptr i64 %9 to i8*
  tail call void @_ZdlPv(i8* %27) #14
  br label %28

28:                                               ; preds = %1, %8, %26
  ret void
}

; Function Attrs: nounwind ssp uwtable
define hidden void @_ZN8perfetto6protos31FtraceConfig_CompactSchedConfigD0Ev(%"class.perfetto::protos::FtraceConfig_CompactSchedConfig"*) unnamed_addr #0 align 2 {
  %2 = getelementptr inbounds %"class.perfetto::protos::FtraceConfig_CompactSchedConfig", %"class.perfetto::protos::FtraceConfig_CompactSchedConfig"* %0, i64 0, i32 0, i32 0
  store i32 (...)** bitcast (i8** getelementptr inbounds ({ [16 x i8*] }, { [16 x i8*] }* @_ZTVN8perfetto6protos31FtraceConfig_CompactSchedConfigE, i64 0, inrange i32 0, i64 2) to i32 (...)**), i32 (...)*** %2, align 8
  %3 = getelementptr inbounds %"class.perfetto::protos::FtraceConfig_CompactSchedConfig", %"class.perfetto::protos::FtraceConfig_CompactSchedConfig"* %0, i64 0, i32 0, i32 1
  %4 = bitcast %"class.google::protobuf::internal::InternalMetadata"* %3 to i64*
  %5 = load i64, i64* %4, align 8
  %6 = and i64 %5, 1
  %7 = icmp eq i64 %6, 0
  br i1 %7, label %28, label %8

8:                                                ; preds = %1
  %9 = and i64 %5, -2
  %10 = inttoptr i64 %9 to %"struct.google::protobuf::internal::InternalMetadata::ContainerBase"*
  %11 = getelementptr inbounds %"struct.google::protobuf::internal::InternalMetadata::ContainerBase", %"struct.google::protobuf::internal::InternalMetadata::ContainerBase"* %10, i64 0, i32 0
  %12 = load %"class.google::protobuf::Arena"*, %"class.google::protobuf::Arena"** %11, align 8
  %13 = icmp ne %"class.google::protobuf::Arena"* %12, null
  %14 = icmp eq i64 %9, 0
  %15 = or i1 %14, %13
  br i1 %15, label %28, label %16

16:                                               ; preds = %8
  %17 = inttoptr i64 %9 to %"struct.google::protobuf::internal::InternalMetadata::Container"*
  %18 = getelementptr inbounds %"struct.google::protobuf::internal::InternalMetadata::Container", %"struct.google::protobuf::internal::InternalMetadata::Container"* %17, i64 0, i32 1
  %19 = bitcast %"class.std::__1::basic_string"* %18 to %"struct.std::__1::basic_string<char, std::__1::char_traits<char>, std::__1::allocator<char> >::__short"*
  %20 = getelementptr inbounds %"struct.std::__1::basic_string<char, std::__1::char_traits<char>, std::__1::allocator<char> >::__short", %"struct.std::__1::basic_string<char, std::__1::char_traits<char>, std::__1::allocator<char> >::__short"* %19, i64 0, i32 1, i32 0
  %21 = load i8, i8* %20, align 1
  %22 = icmp slt i8 %21, 0
  br i1 %22, label %23, label %26

23:                                               ; preds = %16
  %24 = getelementptr inbounds %"class.std::__1::basic_string", %"class.std::__1::basic_string"* %18, i64 0, i32 0, i32 0, i32 0, i32 0, i32 0, i32 0
  %25 = load i8*, i8** %24, align 8
  tail call void @_ZdlPv(i8* %25) #14
  br label %26

26:                                               ; preds = %23, %16
  %27 = inttoptr i64 %9 to i8*
  tail call void @_ZdlPv(i8* %27) #14
  br label %28

28:                                               ; preds = %1, %8, %26
  %29 = bitcast %"class.perfetto::protos::FtraceConfig_CompactSchedConfig"* %0 to i8*
  tail call void @_ZdlPv(i8* %29) #14
  ret void
}

; Function Attrs: nobuiltin nounwind
declare void @_ZdlPv(i8*) local_unnamed_addr #3

; Function Attrs: norecurse nounwind readnone ssp uwtable
define hidden void @_ZN8perfetto6protos31FtraceConfig_CompactSchedConfig9ArenaDtorEPv(i8* nocapture) local_unnamed_addr #4 align 2 {
  ret void
}

; Function Attrs: nofree norecurse nounwind ssp uwtable
define hidden void @_ZNK8perfetto6protos31FtraceConfig_CompactSchedConfig13SetCachedSizeEi(%"class.perfetto::protos::FtraceConfig_CompactSchedConfig"* nocapture, i32) local_unnamed_addr #5 align 2 {
  %3 = getelementptr inbounds %"class.perfetto::protos::FtraceConfig_CompactSchedConfig", %"class.perfetto::protos::FtraceConfig_CompactSchedConfig"* %0, i64 0, i32 2, i32 0, i32 0, i32 0, i32 0, i32 0, i32 0
  store atomic i32 %1, i32* %3 monotonic, align 4
  ret void
}

; Function Attrs: nounwind ssp uwtable
define hidden dereferenceable(32) %"class.perfetto::protos::FtraceConfig_CompactSchedConfig"* @_ZN8perfetto6protos31FtraceConfig_CompactSchedConfig16default_instanceEv() local_unnamed_addr #0 align 2 {
  %1 = load atomic i32, i32* getelementptr inbounds ({ { { { i32 } }, i32, i32, void ()* }, [0 x i8*] }, { { { { i32 } }, i32, i32, void ()* }, [0 x i8*] }* @scc_info_FtraceConfig_CompactSchedConfig_protos_2fperfetto_2fconfig_2fftrace_2fftrace_5fconfig_2eproto, i64 0, i32 0, i32 0, i32 0, i32 0) acquire, align 8
  %2 = icmp eq i32 %1, 0
  br i1 %2, label %4, label %3, !prof !2

3:                                                ; preds = %0
  tail call void @_ZN6google8protobuf8internal11InitSCCImplEPNS1_11SCCInfoBaseE(%"struct.google::protobuf::internal::SCCInfoBase"* bitcast ({ { { { i32 } }, i32, i32, void ()* }, [0 x i8*] }* @scc_info_FtraceConfig_CompactSchedConfig_protos_2fperfetto_2fconfig_2fftrace_2fftrace_5fconfig_2eproto to %"struct.google::protobuf::internal::SCCInfoBase"*)) #13
  br label %4

4:                                                ; preds = %0, %3
  ret %"class.perfetto::protos::FtraceConfig_CompactSchedConfig"* bitcast (%"class.perfetto::protos::FtraceConfig_CompactSchedConfigDefaultTypeInternal"* @_ZN8perfetto6protos50_FtraceConfig_CompactSchedConfig_default_instance_E to %"class.perfetto::protos::FtraceConfig_CompactSchedConfig"*)
}

; Function Attrs: nofree norecurse nounwind ssp uwtable
define hidden void @_ZN8perfetto6protos31FtraceConfig_CompactSchedConfig5ClearEv(%"class.perfetto::protos::FtraceConfig_CompactSchedConfig"* nocapture) unnamed_addr #5 align 2 {
  %2 = getelementptr inbounds %"class.perfetto::protos::FtraceConfig_CompactSchedConfig", %"class.perfetto::protos::FtraceConfig_CompactSchedConfig"* %0, i64 0, i32 3
  store i8 0, i8* %2, align 8
  %3 = getelementptr inbounds %"class.perfetto::protos::FtraceConfig_CompactSchedConfig", %"class.perfetto::protos::FtraceConfig_CompactSchedConfig"* %0, i64 0, i32 1, i32 0, i64 0
  store i32 0, i32* %3, align 4
  %4 = getelementptr inbounds %"class.perfetto::protos::FtraceConfig_CompactSchedConfig", %"class.perfetto::protos::FtraceConfig_CompactSchedConfig"* %0, i64 0, i32 0, i32 1
  %5 = bitcast %"class.google::protobuf::internal::InternalMetadata"* %4 to i64*
  %6 = load i64, i64* %5, align 8
  %7 = and i64 %6, 1
  %8 = icmp eq i64 %7, 0
  br i1 %8, label %23, label %9

9:                                                ; preds = %1
  %10 = and i64 %6, -2
  %11 = inttoptr i64 %10 to %"struct.google::protobuf::internal::InternalMetadata::Container"*
  %12 = getelementptr inbounds %"struct.google::protobuf::internal::InternalMetadata::Container", %"struct.google::protobuf::internal::InternalMetadata::Container"* %11, i64 0, i32 1
  %13 = bitcast %"class.std::__1::basic_string"* %12 to %"struct.std::__1::basic_string<char, std::__1::char_traits<char>, std::__1::allocator<char> >::__short"*
  %14 = getelementptr inbounds %"struct.std::__1::basic_string<char, std::__1::char_traits<char>, std::__1::allocator<char> >::__short", %"struct.std::__1::basic_string<char, std::__1::char_traits<char>, std::__1::allocator<char> >::__short"* %13, i64 0, i32 1, i32 0
  %15 = load i8, i8* %14, align 1
  %16 = icmp slt i8 %15, 0
  br i1 %16, label %17, label %21

17:                                               ; preds = %9
  %18 = getelementptr inbounds %"class.std::__1::basic_string", %"class.std::__1::basic_string"* %12, i64 0, i32 0, i32 0, i32 0, i32 0, i32 0, i32 0
  %19 = load i8*, i8** %18, align 8
  store i8 0, i8* %19, align 1
  %20 = getelementptr inbounds %"struct.google::protobuf::internal::InternalMetadata::Container", %"struct.google::protobuf::internal::InternalMetadata::Container"* %11, i64 0, i32 1, i32 0, i32 0, i32 0, i32 0, i32 0, i32 1
  store i64 0, i64* %20, align 8
  br label %23

21:                                               ; preds = %9
  %22 = bitcast %"class.std::__1::basic_string"* %12 to i8*
  store i8 0, i8* %22, align 2
  store i8 0, i8* %14, align 1
  br label %23

23:                                               ; preds = %1, %17, %21
  ret void
}

; Function Attrs: nounwind ssp uwtable
define hidden i8* @_ZN8perfetto6protos31FtraceConfig_CompactSchedConfig14_InternalParseEPKcPN6google8protobuf8internal12ParseContextE(%"class.perfetto::protos::FtraceConfig_CompactSchedConfig"*, i8*, %"class.google::protobuf::internal::ParseContext"*) unnamed_addr #0 align 2 {
  %4 = getelementptr inbounds %"class.google::protobuf::internal::ParseContext", %"class.google::protobuf::internal::ParseContext"* %2, i64 0, i32 0
  %5 = getelementptr inbounds %"class.google::protobuf::internal::ParseContext", %"class.google::protobuf::internal::ParseContext"* %2, i64 0, i32 2
  %6 = getelementptr inbounds %"class.google::protobuf::internal::ParseContext", %"class.google::protobuf::internal::ParseContext"* %2, i64 0, i32 0, i32 0
  %7 = getelementptr inbounds %"class.google::protobuf::internal::ParseContext", %"class.google::protobuf::internal::ParseContext"* %2, i64 0, i32 0, i32 1
  %8 = bitcast i8** %7 to i64*
  %9 = getelementptr inbounds %"class.google::protobuf::internal::ParseContext", %"class.google::protobuf::internal::ParseContext"* %2, i64 0, i32 0, i32 4
  %10 = getelementptr inbounds %"class.perfetto::protos::FtraceConfig_CompactSchedConfig", %"class.perfetto::protos::FtraceConfig_CompactSchedConfig"* %0, i64 0, i32 0, i32 1
  %11 = bitcast %"class.google::protobuf::internal::InternalMetadata"* %10 to i64*
  %12 = getelementptr inbounds %"class.perfetto::protos::FtraceConfig_CompactSchedConfig", %"class.perfetto::protos::FtraceConfig_CompactSchedConfig"* %0, i64 0, i32 3
  br label %13

13:                                               ; preds = %82, %3
  %14 = phi i8* [ %84, %82 ], [ %1, %3 ]
  %15 = phi i32 [ %60, %82 ], [ 0, %3 ]
  br label %16

16:                                               ; preds = %13, %106
  %17 = phi i8* [ %108, %106 ], [ %14, %13 ]
  %18 = load i32, i32* %5, align 4
  %19 = load i8*, i8** %6, align 8
  %20 = icmp ult i8* %17, %19
  br i1 %20, label %34, label %21, !prof !2

21:                                               ; preds = %16
  %22 = load i64, i64* %8, align 8
  %23 = ptrtoint i8* %17 to i64
  %24 = sub i64 %23, %22
  %25 = load i32, i32* %9, align 4
  %26 = sext i32 %25 to i64
  %27 = icmp eq i64 %24, %26
  br i1 %27, label %110, label %28

28:                                               ; preds = %21
  %29 = tail call { i8*, i8 } @_ZN6google8protobuf8internal18EpsCopyInputStream12DoneFallbackEPKci(%"class.google::protobuf::internal::EpsCopyInputStream"* %4, i8* %17, i32 %18) #13
  %30 = extractvalue { i8*, i8 } %29, 0
  %31 = extractvalue { i8*, i8 } %29, 1
  %32 = and i8 %31, 1
  %33 = icmp eq i8 %32, 0
  br i1 %33, label %34, label %110

34:                                               ; preds = %28, %16
  %35 = phi i8* [ %30, %28 ], [ %17, %16 ]
  %36 = load i8, i8* %35, align 1
  %37 = zext i8 %36 to i32
  %38 = icmp sgt i8 %36, -1
  %39 = getelementptr inbounds i8, i8* %35, i64 1
  br i1 %38, label %53, label %40

40:                                               ; preds = %34
  %41 = load i8, i8* %39, align 1
  %42 = zext i8 %41 to i32
  %43 = shl nuw nsw i32 %42, 7
  %44 = add nsw i32 %37, -128
  %45 = add nsw i32 %44, %43
  %46 = icmp sgt i8 %41, -1
  br i1 %46, label %47, label %49

47:                                               ; preds = %40
  %48 = getelementptr inbounds i8, i8* %35, i64 2
  br label %53

49:                                               ; preds = %40
  %50 = tail call { i8*, i32 } @_ZN6google8protobuf8internal15ReadTagFallbackEPKcj(i8* %35, i32 %45) #13
  %51 = extractvalue { i8*, i32 } %50, 0
  %52 = extractvalue { i8*, i32 } %50, 1
  br label %53

53:                                               ; preds = %34, %47, %49
  %54 = phi i32 [ %45, %47 ], [ %52, %49 ], [ %37, %34 ]
  %55 = phi i8* [ %48, %47 ], [ %51, %49 ], [ %39, %34 ]
  %56 = icmp eq i8* %55, null
  br i1 %56, label %110, label %57, !prof !4

57:                                               ; preds = %53
  %58 = icmp eq i32 %54, 8
  br i1 %58, label %59, label %88, !prof !5

59:                                               ; preds = %57
  %60 = or i32 %15, 1
  %61 = load i8, i8* %55, align 1
  %62 = icmp slt i8 %61, 0
  br i1 %62, label %66, label %63

63:                                               ; preds = %59
  %64 = zext i8 %61 to i64
  %65 = getelementptr inbounds i8, i8* %55, i64 1
  br label %82

66:                                               ; preds = %59
  %67 = zext i8 %61 to i32
  %68 = getelementptr inbounds i8, i8* %55, i64 1
  %69 = load i8, i8* %68, align 1
  %70 = zext i8 %69 to i32
  %71 = shl nuw nsw i32 %70, 7
  %72 = add nsw i32 %67, -128
  %73 = add nuw nsw i32 %72, %71
  %74 = icmp slt i8 %69, 0
  br i1 %74, label %78, label %75

75:                                               ; preds = %66
  %76 = zext i32 %73 to i64
  %77 = getelementptr inbounds i8, i8* %55, i64 2
  br label %82

78:                                               ; preds = %66
  %79 = tail call { i8*, i64 } @_ZN6google8protobuf8internal17VarintParseSlow64EPKcj(i8* nonnull %55, i32 %73) #13
  %80 = extractvalue { i8*, i64 } %79, 0
  %81 = extractvalue { i8*, i64 } %79, 1
  br label %82

82:                                               ; preds = %63, %75, %78
  %83 = phi i64 [ %81, %78 ], [ %76, %75 ], [ %64, %63 ]
  %84 = phi i8* [ %80, %78 ], [ %77, %75 ], [ %65, %63 ]
  %85 = icmp ne i64 %83, 0
  %86 = zext i1 %85 to i8
  store i8 %86, i8* %12, align 8
  %87 = icmp eq i8* %84, null
  br i1 %87, label %110, label %13

88:                                               ; preds = %57
  %89 = and i32 %54, 7
  %90 = icmp eq i32 %89, 4
  %91 = icmp eq i32 %54, 0
  %92 = or i1 %91, %90
  br i1 %92, label %93, label %96

93:                                               ; preds = %88
  %94 = add i32 %54, -1
  %95 = getelementptr inbounds %"class.google::protobuf::internal::ParseContext", %"class.google::protobuf::internal::ParseContext"* %2, i64 0, i32 0, i32 8
  store i32 %94, i32* %95, align 8
  br label %110

96:                                               ; preds = %88
  %97 = load i64, i64* %11, align 8
  %98 = and i64 %97, 1
  %99 = icmp eq i64 %98, 0
  br i1 %99, label %104, label %100, !prof !4

100:                                              ; preds = %96
  %101 = and i64 %97, -2
  %102 = inttoptr i64 %101 to %"struct.google::protobuf::internal::InternalMetadata::Container"*
  %103 = getelementptr inbounds %"struct.google::protobuf::internal::InternalMetadata::Container", %"struct.google::protobuf::internal::InternalMetadata::Container"* %102, i64 0, i32 1
  br label %106

104:                                              ; preds = %96
  %105 = tail call %"class.std::__1::basic_string"* @_ZN6google8protobuf8internal16InternalMetadata27mutable_unknown_fields_slowINSt3__112basic_stringIcNS4_11char_traitsIcEENS4_9allocatorIcEEEEEEPT_v(%"class.google::protobuf::internal::InternalMetadata"* %10) #13
  br label %106

106:                                              ; preds = %100, %104
  %107 = phi %"class.std::__1::basic_string"* [ %103, %100 ], [ %105, %104 ]
  %108 = tail call i8* @_ZN6google8protobuf8internal17UnknownFieldParseEjPNSt3__112basic_stringIcNS2_11char_traitsIcEENS2_9allocatorIcEEEEPKcPNS1_12ParseContextE(i32 %54, %"class.std::__1::basic_string"* %107, i8* nonnull %55, %"class.google::protobuf::internal::ParseContext"* %2) #13
  %109 = icmp eq i8* %108, null
  br i1 %109, label %110, label %16

110:                                              ; preds = %28, %106, %21, %53, %82, %93
  %111 = phi i8* [ %55, %93 ], [ %30, %28 ], [ null, %53 ], [ %17, %21 ], [ null, %106 ], [ null, %82 ]
  %112 = phi i32 [ %15, %93 ], [ %15, %28 ], [ %15, %106 ], [ %15, %21 ], [ %15, %53 ], [ %60, %82 ]
  %113 = getelementptr inbounds %"class.perfetto::protos::FtraceConfig_CompactSchedConfig", %"class.perfetto::protos::FtraceConfig_CompactSchedConfig"* %0, i64 0, i32 1, i32 0, i64 0
  %114 = load i32, i32* %113, align 4
  %115 = or i32 %114, %112
  store i32 %115, i32* %113, align 4
  ret i8* %111
}

declare i8* @_ZN6google8protobuf8internal17UnknownFieldParseEjPNSt3__112basic_stringIcNS2_11char_traitsIcEENS2_9allocatorIcEEEEPKcPNS1_12ParseContextE(i32, %"class.std::__1::basic_string"*, i8*, %"class.google::protobuf::internal::ParseContext"*) local_unnamed_addr #6

; Function Attrs: nounwind ssp uwtable
define hidden i8* @_ZNK8perfetto6protos31FtraceConfig_CompactSchedConfig18_InternalSerializeEPhPN6google8protobuf2io19EpsCopyOutputStreamE(%"class.perfetto::protos::FtraceConfig_CompactSchedConfig"* nocapture readonly, i8*, %"class.google::protobuf::io::EpsCopyOutputStream"*) unnamed_addr #0 align 2 {
  %4 = getelementptr inbounds %"class.perfetto::protos::FtraceConfig_CompactSchedConfig", %"class.perfetto::protos::FtraceConfig_CompactSchedConfig"* %0, i64 0, i32 1, i32 0, i64 0
  %5 = load i32, i32* %4, align 4
  %6 = and i32 %5, 1
  %7 = icmp eq i32 %6, 0
  br i1 %7, label %20, label %8

8:                                                ; preds = %3
  %9 = getelementptr inbounds %"class.google::protobuf::io::EpsCopyOutputStream", %"class.google::protobuf::io::EpsCopyOutputStream"* %2, i64 0, i32 0
  %10 = load i8*, i8** %9, align 8
  %11 = icmp ugt i8* %10, %1
  br i1 %11, label %14, label %12, !prof !2

12:                                               ; preds = %8
  %13 = tail call i8* @_ZN6google8protobuf2io19EpsCopyOutputStream19EnsureSpaceFallbackEPh(%"class.google::protobuf::io::EpsCopyOutputStream"* %2, i8* %1) #13
  br label %14

14:                                               ; preds = %8, %12
  %15 = phi i8* [ %13, %12 ], [ %1, %8 ]
  %16 = getelementptr inbounds %"class.perfetto::protos::FtraceConfig_CompactSchedConfig", %"class.perfetto::protos::FtraceConfig_CompactSchedConfig"* %0, i64 0, i32 3
  %17 = load i8, i8* %16, align 8, !range !3
  store i8 8, i8* %15, align 1
  %18 = getelementptr inbounds i8, i8* %15, i64 1
  store i8 %17, i8* %18, align 1
  %19 = getelementptr inbounds i8, i8* %15, i64 2
  br label %20

20:                                               ; preds = %3, %14
  %21 = phi i8* [ %19, %14 ], [ %1, %3 ]
  %22 = getelementptr inbounds %"class.perfetto::protos::FtraceConfig_CompactSchedConfig", %"class.perfetto::protos::FtraceConfig_CompactSchedConfig"* %0, i64 0, i32 0, i32 1
  %23 = bitcast %"class.google::protobuf::internal::InternalMetadata"* %22 to i64*
  %24 = load i64, i64* %23, align 8
  %25 = and i64 %24, 1
  %26 = icmp eq i64 %25, 0
  br i1 %26, label %58, label %27, !prof !2

27:                                               ; preds = %20
  %28 = and i64 %24, -2
  %29 = inttoptr i64 %28 to %"struct.google::protobuf::internal::InternalMetadata::Container"*
  %30 = getelementptr inbounds %"struct.google::protobuf::internal::InternalMetadata::Container", %"struct.google::protobuf::internal::InternalMetadata::Container"* %29, i64 0, i32 1
  %31 = bitcast %"class.std::__1::basic_string"* %30 to %"struct.std::__1::basic_string<char, std::__1::char_traits<char>, std::__1::allocator<char> >::__short"*
  %32 = getelementptr inbounds %"struct.std::__1::basic_string<char, std::__1::char_traits<char>, std::__1::allocator<char> >::__short", %"struct.std::__1::basic_string<char, std::__1::char_traits<char>, std::__1::allocator<char> >::__short"* %31, i64 0, i32 1, i32 0
  %33 = load i8, i8* %32, align 1
  %34 = icmp slt i8 %33, 0
  br i1 %34, label %35, label %40

35:                                               ; preds = %27
  %36 = getelementptr inbounds %"class.std::__1::basic_string", %"class.std::__1::basic_string"* %30, i64 0, i32 0, i32 0, i32 0, i32 0, i32 0, i32 0
  %37 = load i8*, i8** %36, align 8
  %38 = getelementptr inbounds %"struct.google::protobuf::internal::InternalMetadata::Container", %"struct.google::protobuf::internal::InternalMetadata::Container"* %29, i64 0, i32 1, i32 0, i32 0, i32 0, i32 0, i32 0, i32 1
  %39 = load i64, i64* %38, align 8
  br label %43

40:                                               ; preds = %27
  %41 = bitcast %"class.std::__1::basic_string"* %30 to i8*
  %42 = zext i8 %33 to i64
  br label %43

43:                                               ; preds = %35, %40
  %44 = phi i8* [ %37, %35 ], [ %41, %40 ]
  %45 = phi i64 [ %39, %35 ], [ %42, %40 ]
  %46 = bitcast %"class.google::protobuf::io::EpsCopyOutputStream"* %2 to i64*
  %47 = load i64, i64* %46, align 8
  %48 = ptrtoint i8* %21 to i64
  %49 = sub i64 %47, %48
  %50 = shl i64 %45, 32
  %51 = ashr exact i64 %50, 32
  %52 = icmp slt i64 %49, %51
  br i1 %52, label %53, label %56, !prof !4

53:                                               ; preds = %43
  %54 = trunc i64 %45 to i32
  %55 = tail call i8* @_ZN6google8protobuf2io19EpsCopyOutputStream16WriteRawFallbackEPKviPh(%"class.google::protobuf::io::EpsCopyOutputStream"* %2, i8* %44, i32 %54, i8* %21) #13
  br label %58

56:                                               ; preds = %43
  tail call void @llvm.memcpy.p0i8.p0i8.i64(i8* align 1 %21, i8* align 1 %44, i64 %51, i1 false) #13
  %57 = getelementptr inbounds i8, i8* %21, i64 %51
  br label %58

58:                                               ; preds = %20, %56, %53
  %59 = phi i8* [ %21, %20 ], [ %55, %53 ], [ %57, %56 ]
  ret i8* %59
}

; Function Attrs: nounwind ssp uwtable
define hidden i64 @_ZNK8perfetto6protos31FtraceConfig_CompactSchedConfig12ByteSizeLongEv(%"class.perfetto::protos::FtraceConfig_CompactSchedConfig"* nocapture) unnamed_addr #0 align 2 {
  %2 = getelementptr inbounds %"class.perfetto::protos::FtraceConfig_CompactSchedConfig", %"class.perfetto::protos::FtraceConfig_CompactSchedConfig"* %0, i64 0, i32 1, i32 0, i64 0
  %3 = load i32, i32* %2, align 4
  %4 = shl i32 %3, 1
  %5 = and i32 %4, 2
  %6 = zext i32 %5 to i64
  %7 = getelementptr inbounds %"class.perfetto::protos::FtraceConfig_CompactSchedConfig", %"class.perfetto::protos::FtraceConfig_CompactSchedConfig"* %0, i64 0, i32 0, i32 1
  %8 = bitcast %"class.google::protobuf::internal::InternalMetadata"* %7 to i64*
  %9 = load i64, i64* %8, align 8
  %10 = and i64 %9, 1
  %11 = icmp eq i64 %10, 0
  br i1 %11, label %28, label %12, !prof !2

12:                                               ; preds = %1
  %13 = and i64 %9, -2
  %14 = inttoptr i64 %13 to %"struct.google::protobuf::internal::InternalMetadata::Container"*
  %15 = getelementptr inbounds %"struct.google::protobuf::internal::InternalMetadata::Container", %"struct.google::protobuf::internal::InternalMetadata::Container"* %14, i64 0, i32 1
  %16 = bitcast %"class.std::__1::basic_string"* %15 to %"struct.std::__1::basic_string<char, std::__1::char_traits<char>, std::__1::allocator<char> >::__short"*
  %17 = getelementptr inbounds %"struct.std::__1::basic_string<char, std::__1::char_traits<char>, std::__1::allocator<char> >::__short", %"struct.std::__1::basic_string<char, std::__1::char_traits<char>, std::__1::allocator<char> >::__short"* %16, i64 0, i32 1, i32 0
  %18 = load i8, i8* %17, align 1
  %19 = icmp slt i8 %18, 0
  br i1 %19, label %20, label %23

20:                                               ; preds = %12
  %21 = getelementptr inbounds %"struct.google::protobuf::internal::InternalMetadata::Container", %"struct.google::protobuf::internal::InternalMetadata::Container"* %14, i64 0, i32 1, i32 0, i32 0, i32 0, i32 0, i32 0, i32 1
  %22 = load i64, i64* %21, align 8
  br label %25

23:                                               ; preds = %12
  %24 = zext i8 %18 to i64
  br label %25

25:                                               ; preds = %20, %23
  %26 = phi i64 [ %22, %20 ], [ %24, %23 ]
  %27 = add i64 %26, %6
  br label %28

28:                                               ; preds = %1, %25
  %29 = phi i64 [ %27, %25 ], [ %6, %1 ]
  %30 = trunc i64 %29 to i32
  %31 = getelementptr inbounds %"class.perfetto::protos::FtraceConfig_CompactSchedConfig", %"class.perfetto::protos::FtraceConfig_CompactSchedConfig"* %0, i64 0, i32 2, i32 0, i32 0, i32 0, i32 0, i32 0, i32 0
  store atomic i32 %30, i32* %31 monotonic, align 4
  ret i64 %29
}

; Function Attrs: nounwind ssp uwtable
define hidden void @_ZN8perfetto6protos31FtraceConfig_CompactSchedConfig21CheckTypeAndMergeFromERKN6google8protobuf11MessageLiteE(%"class.perfetto::protos::FtraceConfig_CompactSchedConfig"*, %"class.google::protobuf::MessageLite"* nocapture readonly dereferenceable(16)) unnamed_addr #0 align 2 {
  %3 = getelementptr inbounds %"class.perfetto::protos::FtraceConfig_CompactSchedConfig", %"class.perfetto::protos::FtraceConfig_CompactSchedConfig"* %0, i64 0, i32 0, i32 1
  %4 = getelementptr inbounds %"class.google::protobuf::MessageLite", %"class.google::protobuf::MessageLite"* %1, i64 0, i32 1
  %5 = bitcast %"class.google::protobuf::internal::InternalMetadata"* %4 to i64*
  %6 = load i64, i64* %5, align 8
  %7 = and i64 %6, 1
  %8 = icmp eq i64 %7, 0
  br i1 %8, label %38, label %9

9:                                                ; preds = %2
  %10 = and i64 %6, -2
  %11 = inttoptr i64 %10 to %"struct.google::protobuf::internal::InternalMetadata::Container"*
  %12 = getelementptr inbounds %"struct.google::protobuf::internal::InternalMetadata::Container", %"struct.google::protobuf::internal::InternalMetadata::Container"* %11, i64 0, i32 1
  %13 = bitcast %"class.google::protobuf::internal::InternalMetadata"* %3 to i64*
  %14 = load i64, i64* %13, align 8
  %15 = and i64 %14, 1
  %16 = icmp eq i64 %15, 0
  br i1 %16, label %21, label %17, !prof !4

17:                                               ; preds = %9
  %18 = and i64 %14, -2
  %19 = inttoptr i64 %18 to %"struct.google::protobuf::internal::InternalMetadata::Container"*
  %20 = getelementptr inbounds %"struct.google::protobuf::internal::InternalMetadata::Container", %"struct.google::protobuf::internal::InternalMetadata::Container"* %19, i64 0, i32 1
  br label %23

21:                                               ; preds = %9
  %22 = tail call %"class.std::__1::basic_string"* @_ZN6google8protobuf8internal16InternalMetadata27mutable_unknown_fields_slowINSt3__112basic_stringIcNS4_11char_traitsIcEENS4_9allocatorIcEEEEEEPT_v(%"class.google::protobuf::internal::InternalMetadata"* %3) #13
  br label %23

23:                                               ; preds = %21, %17
  %24 = phi %"class.std::__1::basic_string"* [ %20, %17 ], [ %22, %21 ]
  %25 = bitcast %"class.std::__1::basic_string"* %12 to %"struct.std::__1::basic_string<char, std::__1::char_traits<char>, std::__1::allocator<char> >::__short"*
  %26 = getelementptr inbounds %"struct.std::__1::basic_string<char, std::__1::char_traits<char>, std::__1::allocator<char> >::__short", %"struct.std::__1::basic_string<char, std::__1::char_traits<char>, std::__1::allocator<char> >::__short"* %25, i64 0, i32 1, i32 0
  %27 = load i8, i8* %26, align 1
  %28 = icmp slt i8 %27, 0
  %29 = getelementptr inbounds %"class.std::__1::basic_string", %"class.std::__1::basic_string"* %12, i64 0, i32 0, i32 0, i32 0, i32 0, i32 0, i32 0
  %30 = load i8*, i8** %29, align 8
  %31 = getelementptr inbounds %"struct.google::protobuf::internal::InternalMetadata::Container", %"struct.google::protobuf::internal::InternalMetadata::Container"* %11, i64 0, i32 1, i32 0, i32 0, i32 0, i32 0, i32 0, i32 1
  %32 = load i64, i64* %31, align 8
  %33 = bitcast %"class.std::__1::basic_string"* %12 to i8*
  %34 = zext i8 %27 to i64
  %35 = select i1 %28, i8* %30, i8* %33
  %36 = select i1 %28, i64 %32, i64 %34
  %37 = tail call dereferenceable(24) %"class.std::__1::basic_string"* @_ZNSt3__112basic_stringIcNS_11char_traitsIcEENS_9allocatorIcEEE6appendEPKcm(%"class.std::__1::basic_string"* %24, i8* %35, i64 %36) #13
  br label %38

38:                                               ; preds = %23, %2
  %39 = getelementptr inbounds %"class.google::protobuf::MessageLite", %"class.google::protobuf::MessageLite"* %1, i64 1
  %40 = bitcast %"class.google::protobuf::MessageLite"* %39 to i32*
  %41 = load i32, i32* %40, align 4
  %42 = and i32 %41, 1
  %43 = icmp eq i32 %42, 0
  br i1 %43, label %52, label %44

44:                                               ; preds = %38
  %45 = getelementptr inbounds %"class.google::protobuf::MessageLite", %"class.google::protobuf::MessageLite"* %1, i64 1, i32 1
  %46 = bitcast %"class.google::protobuf::internal::InternalMetadata"* %45 to i8*
  %47 = load i8, i8* %46, align 8, !range !3
  %48 = getelementptr inbounds %"class.perfetto::protos::FtraceConfig_CompactSchedConfig", %"class.perfetto::protos::FtraceConfig_CompactSchedConfig"* %0, i64 0, i32 1, i32 0, i64 0
  %49 = load i32, i32* %48, align 4
  %50 = or i32 %49, 1
  store i32 %50, i32* %48, align 4
  %51 = getelementptr inbounds %"class.perfetto::protos::FtraceConfig_CompactSchedConfig", %"class.perfetto::protos::FtraceConfig_CompactSchedConfig"* %0, i64 0, i32 3
  store i8 %47, i8* %51, align 8
  br label %52

52:                                               ; preds = %38, %44
  ret void
}

; Function Attrs: nounwind ssp uwtable
define hidden void @_ZN8perfetto6protos31FtraceConfig_CompactSchedConfig9MergeFromERKS1_(%"class.perfetto::protos::FtraceConfig_CompactSchedConfig"*, %"class.perfetto::protos::FtraceConfig_CompactSchedConfig"* nocapture readonly dereferenceable(32)) local_unnamed_addr #0 align 2 {
  %3 = getelementptr inbounds %"class.perfetto::protos::FtraceConfig_CompactSchedConfig", %"class.perfetto::protos::FtraceConfig_CompactSchedConfig"* %0, i64 0, i32 0, i32 1
  %4 = getelementptr inbounds %"class.perfetto::protos::FtraceConfig_CompactSchedConfig", %"class.perfetto::protos::FtraceConfig_CompactSchedConfig"* %1, i64 0, i32 0, i32 1
  %5 = bitcast %"class.google::protobuf::internal::InternalMetadata"* %4 to i64*
  %6 = load i64, i64* %5, align 8
  %7 = and i64 %6, 1
  %8 = icmp eq i64 %7, 0
  br i1 %8, label %38, label %9

9:                                                ; preds = %2
  %10 = and i64 %6, -2
  %11 = inttoptr i64 %10 to %"struct.google::protobuf::internal::InternalMetadata::Container"*
  %12 = getelementptr inbounds %"struct.google::protobuf::internal::InternalMetadata::Container", %"struct.google::protobuf::internal::InternalMetadata::Container"* %11, i64 0, i32 1
  %13 = bitcast %"class.google::protobuf::internal::InternalMetadata"* %3 to i64*
  %14 = load i64, i64* %13, align 8
  %15 = and i64 %14, 1
  %16 = icmp eq i64 %15, 0
  br i1 %16, label %21, label %17, !prof !4

17:                                               ; preds = %9
  %18 = and i64 %14, -2
  %19 = inttoptr i64 %18 to %"struct.google::protobuf::internal::InternalMetadata::Container"*
  %20 = getelementptr inbounds %"struct.google::protobuf::internal::InternalMetadata::Container", %"struct.google::protobuf::internal::InternalMetadata::Container"* %19, i64 0, i32 1
  br label %23

21:                                               ; preds = %9
  %22 = tail call %"class.std::__1::basic_string"* @_ZN6google8protobuf8internal16InternalMetadata27mutable_unknown_fields_slowINSt3__112basic_stringIcNS4_11char_traitsIcEENS4_9allocatorIcEEEEEEPT_v(%"class.google::protobuf::internal::InternalMetadata"* %3) #13
  br label %23

23:                                               ; preds = %21, %17
  %24 = phi %"class.std::__1::basic_string"* [ %20, %17 ], [ %22, %21 ]
  %25 = bitcast %"class.std::__1::basic_string"* %12 to %"struct.std::__1::basic_string<char, std::__1::char_traits<char>, std::__1::allocator<char> >::__short"*
  %26 = getelementptr inbounds %"struct.std::__1::basic_string<char, std::__1::char_traits<char>, std::__1::allocator<char> >::__short", %"struct.std::__1::basic_string<char, std::__1::char_traits<char>, std::__1::allocator<char> >::__short"* %25, i64 0, i32 1, i32 0
  %27 = load i8, i8* %26, align 1
  %28 = icmp slt i8 %27, 0
  %29 = getelementptr inbounds %"class.std::__1::basic_string", %"class.std::__1::basic_string"* %12, i64 0, i32 0, i32 0, i32 0, i32 0, i32 0, i32 0
  %30 = load i8*, i8** %29, align 8
  %31 = getelementptr inbounds %"struct.google::protobuf::internal::InternalMetadata::Container", %"struct.google::protobuf::internal::InternalMetadata::Container"* %11, i64 0, i32 1, i32 0, i32 0, i32 0, i32 0, i32 0, i32 1
  %32 = load i64, i64* %31, align 8
  %33 = bitcast %"class.std::__1::basic_string"* %12 to i8*
  %34 = zext i8 %27 to i64
  %35 = select i1 %28, i8* %30, i8* %33
  %36 = select i1 %28, i64 %32, i64 %34
  %37 = tail call dereferenceable(24) %"class.std::__1::basic_string"* @_ZNSt3__112basic_stringIcNS_11char_traitsIcEENS_9allocatorIcEEE6appendEPKcm(%"class.std::__1::basic_string"* %24, i8* %35, i64 %36) #13
  br label %38

38:                                               ; preds = %2, %23
  %39 = getelementptr inbounds %"class.perfetto::protos::FtraceConfig_CompactSchedConfig", %"class.perfetto::protos::FtraceConfig_CompactSchedConfig"* %1, i64 0, i32 1, i32 0, i64 0
  %40 = load i32, i32* %39, align 4
  %41 = and i32 %40, 1
  %42 = icmp eq i32 %41, 0
  br i1 %42, label %50, label %43

43:                                               ; preds = %38
  %44 = getelementptr inbounds %"class.perfetto::protos::FtraceConfig_CompactSchedConfig", %"class.perfetto::protos::FtraceConfig_CompactSchedConfig"* %1, i64 0, i32 3
  %45 = load i8, i8* %44, align 8, !range !3
  %46 = getelementptr inbounds %"class.perfetto::protos::FtraceConfig_CompactSchedConfig", %"class.perfetto::protos::FtraceConfig_CompactSchedConfig"* %0, i64 0, i32 1, i32 0, i64 0
  %47 = load i32, i32* %46, align 4
  %48 = or i32 %47, 1
  store i32 %48, i32* %46, align 4
  %49 = getelementptr inbounds %"class.perfetto::protos::FtraceConfig_CompactSchedConfig", %"class.perfetto::protos::FtraceConfig_CompactSchedConfig"* %0, i64 0, i32 3
  store i8 %45, i8* %49, align 8
  br label %50

50:                                               ; preds = %38, %43
  ret void
}

; Function Attrs: nounwind ssp uwtable
define hidden void @_ZN8perfetto6protos31FtraceConfig_CompactSchedConfig8CopyFromERKS1_(%"class.perfetto::protos::FtraceConfig_CompactSchedConfig"*, %"class.perfetto::protos::FtraceConfig_CompactSchedConfig"* readonly dereferenceable(32)) local_unnamed_addr #0 align 2 {
  %3 = icmp eq %"class.perfetto::protos::FtraceConfig_CompactSchedConfig"* %1, %0
  br i1 %3, label %70, label %4

4:                                                ; preds = %2
  %5 = getelementptr inbounds %"class.perfetto::protos::FtraceConfig_CompactSchedConfig", %"class.perfetto::protos::FtraceConfig_CompactSchedConfig"* %0, i64 0, i32 3
  store i8 0, i8* %5, align 8
  %6 = getelementptr inbounds %"class.perfetto::protos::FtraceConfig_CompactSchedConfig", %"class.perfetto::protos::FtraceConfig_CompactSchedConfig"* %0, i64 0, i32 1, i32 0, i64 0
  store i32 0, i32* %6, align 4
  %7 = getelementptr inbounds %"class.perfetto::protos::FtraceConfig_CompactSchedConfig", %"class.perfetto::protos::FtraceConfig_CompactSchedConfig"* %0, i64 0, i32 0, i32 1
  %8 = bitcast %"class.google::protobuf::internal::InternalMetadata"* %7 to i64*
  %9 = load i64, i64* %8, align 8
  %10 = and i64 %9, 1
  %11 = icmp eq i64 %10, 0
  br i1 %11, label %26, label %12

12:                                               ; preds = %4
  %13 = and i64 %9, -2
  %14 = inttoptr i64 %13 to %"struct.google::protobuf::internal::InternalMetadata::Container"*
  %15 = getelementptr inbounds %"struct.google::protobuf::internal::InternalMetadata::Container", %"struct.google::protobuf::internal::InternalMetadata::Container"* %14, i64 0, i32 1
  %16 = bitcast %"class.std::__1::basic_string"* %15 to %"struct.std::__1::basic_string<char, std::__1::char_traits<char>, std::__1::allocator<char> >::__short"*
  %17 = getelementptr inbounds %"struct.std::__1::basic_string<char, std::__1::char_traits<char>, std::__1::allocator<char> >::__short", %"struct.std::__1::basic_string<char, std::__1::char_traits<char>, std::__1::allocator<char> >::__short"* %16, i64 0, i32 1, i32 0
  %18 = load i8, i8* %17, align 1
  %19 = icmp slt i8 %18, 0
  br i1 %19, label %20, label %24

20:                                               ; preds = %12
  %21 = getelementptr inbounds %"class.std::__1::basic_string", %"class.std::__1::basic_string"* %15, i64 0, i32 0, i32 0, i32 0, i32 0, i32 0, i32 0
  %22 = load i8*, i8** %21, align 8
  store i8 0, i8* %22, align 1
  %23 = getelementptr inbounds %"struct.google::protobuf::internal::InternalMetadata::Container", %"struct.google::protobuf::internal::InternalMetadata::Container"* %14, i64 0, i32 1, i32 0, i32 0, i32 0, i32 0, i32 0, i32 1
  store i64 0, i64* %23, align 8
  br label %26

24:                                               ; preds = %12
  %25 = bitcast %"class.std::__1::basic_string"* %15 to i8*
  store i8 0, i8* %25, align 2
  store i8 0, i8* %17, align 1
  br label %26

26:                                               ; preds = %4, %20, %24
  %27 = getelementptr inbounds %"class.perfetto::protos::FtraceConfig_CompactSchedConfig", %"class.perfetto::protos::FtraceConfig_CompactSchedConfig"* %1, i64 0, i32 0, i32 1
  %28 = bitcast %"class.google::protobuf::internal::InternalMetadata"* %27 to i64*
  %29 = load i64, i64* %28, align 8
  %30 = and i64 %29, 1
  %31 = icmp eq i64 %30, 0
  br i1 %31, label %60, label %32

32:                                               ; preds = %26
  %33 = and i64 %29, -2
  %34 = inttoptr i64 %33 to %"struct.google::protobuf::internal::InternalMetadata::Container"*
  %35 = getelementptr inbounds %"struct.google::protobuf::internal::InternalMetadata::Container", %"struct.google::protobuf::internal::InternalMetadata::Container"* %34, i64 0, i32 1
  %36 = load i64, i64* %8, align 8
  %37 = and i64 %36, 1
  %38 = icmp eq i64 %37, 0
  br i1 %38, label %43, label %39, !prof !4

39:                                               ; preds = %32
  %40 = and i64 %36, -2
  %41 = inttoptr i64 %40 to %"struct.google::protobuf::internal::InternalMetadata::Container"*
  %42 = getelementptr inbounds %"struct.google::protobuf::internal::InternalMetadata::Container", %"struct.google::protobuf::internal::InternalMetadata::Container"* %41, i64 0, i32 1
  br label %45

43:                                               ; preds = %32
  %44 = tail call %"class.std::__1::basic_string"* @_ZN6google8protobuf8internal16InternalMetadata27mutable_unknown_fields_slowINSt3__112basic_stringIcNS4_11char_traitsIcEENS4_9allocatorIcEEEEEEPT_v(%"class.google::protobuf::internal::InternalMetadata"* %7) #13
  br label %45

45:                                               ; preds = %43, %39
  %46 = phi %"class.std::__1::basic_string"* [ %42, %39 ], [ %44, %43 ]
  %47 = bitcast %"class.std::__1::basic_string"* %35 to %"struct.std::__1::basic_string<char, std::__1::char_traits<char>, std::__1::allocator<char> >::__short"*
  %48 = getelementptr inbounds %"struct.std::__1::basic_string<char, std::__1::char_traits<char>, std::__1::allocator<char> >::__short", %"struct.std::__1::basic_string<char, std::__1::char_traits<char>, std::__1::allocator<char> >::__short"* %47, i64 0, i32 1, i32 0
  %49 = load i8, i8* %48, align 1
  %50 = icmp slt i8 %49, 0
  %51 = getelementptr inbounds %"class.std::__1::basic_string", %"class.std::__1::basic_string"* %35, i64 0, i32 0, i32 0, i32 0, i32 0, i32 0, i32 0
  %52 = load i8*, i8** %51, align 8
  %53 = getelementptr inbounds %"struct.google::protobuf::internal::InternalMetadata::Container", %"struct.google::protobuf::internal::InternalMetadata::Container"* %34, i64 0, i32 1, i32 0, i32 0, i32 0, i32 0, i32 0, i32 1
  %54 = load i64, i64* %53, align 8
  %55 = bitcast %"class.std::__1::basic_string"* %35 to i8*
  %56 = zext i8 %49 to i64
  %57 = select i1 %50, i8* %52, i8* %55
  %58 = select i1 %50, i64 %54, i64 %56
  %59 = tail call dereferenceable(24) %"class.std::__1::basic_string"* @_ZNSt3__112basic_stringIcNS_11char_traitsIcEENS_9allocatorIcEEE6appendEPKcm(%"class.std::__1::basic_string"* %46, i8* %57, i64 %58) #13
  br label %60

60:                                               ; preds = %45, %26
  %61 = getelementptr inbounds %"class.perfetto::protos::FtraceConfig_CompactSchedConfig", %"class.perfetto::protos::FtraceConfig_CompactSchedConfig"* %1, i64 0, i32 1, i32 0, i64 0
  %62 = load i32, i32* %61, align 4
  %63 = and i32 %62, 1
  %64 = icmp eq i32 %63, 0
  br i1 %64, label %70, label %65

65:                                               ; preds = %60
  %66 = getelementptr inbounds %"class.perfetto::protos::FtraceConfig_CompactSchedConfig", %"class.perfetto::protos::FtraceConfig_CompactSchedConfig"* %1, i64 0, i32 3
  %67 = load i8, i8* %66, align 8, !range !3
  %68 = load i32, i32* %6, align 4
  %69 = or i32 %68, 1
  store i32 %69, i32* %6, align 4
  store i8 %67, i8* %5, align 8
  br label %70

70:                                               ; preds = %65, %60, %2
  ret void
}

; Function Attrs: norecurse nounwind readnone ssp uwtable
define hidden zeroext i1 @_ZNK8perfetto6protos31FtraceConfig_CompactSchedConfig13IsInitializedEv(%"class.perfetto::protos::FtraceConfig_CompactSchedConfig"* nocapture readnone) unnamed_addr #4 align 2 {
  ret i1 true
}

; Function Attrs: nounwind ssp uwtable
define hidden void @_ZN8perfetto6protos31FtraceConfig_CompactSchedConfig12InternalSwapEPS1_(%"class.perfetto::protos::FtraceConfig_CompactSchedConfig"*, %"class.perfetto::protos::FtraceConfig_CompactSchedConfig"*) local_unnamed_addr #0 align 2 {
  %3 = getelementptr inbounds %"class.perfetto::protos::FtraceConfig_CompactSchedConfig", %"class.perfetto::protos::FtraceConfig_CompactSchedConfig"* %0, i64 0, i32 0, i32 1
  %4 = getelementptr inbounds %"class.perfetto::protos::FtraceConfig_CompactSchedConfig", %"class.perfetto::protos::FtraceConfig_CompactSchedConfig"* %1, i64 0, i32 0, i32 1
  %5 = bitcast %"class.google::protobuf::internal::InternalMetadata"* %3 to i64*
  %6 = load i64, i64* %5, align 8
  %7 = bitcast %"class.google::protobuf::internal::InternalMetadata"* %4 to i64*
  %8 = load i64, i64* %7, align 8
  %9 = or i64 %8, %6
  %10 = and i64 %9, 1
  %11 = icmp eq i64 %10, 0
  br i1 %11, label %43, label %12

12:                                               ; preds = %2
  %13 = and i64 %8, 1
  %14 = icmp eq i64 %13, 0
  br i1 %14, label %19, label %15, !prof !4

15:                                               ; preds = %12
  %16 = and i64 %8, -2
  %17 = inttoptr i64 %16 to %"struct.google::protobuf::internal::InternalMetadata::Container"*
  %18 = getelementptr inbounds %"struct.google::protobuf::internal::InternalMetadata::Container", %"struct.google::protobuf::internal::InternalMetadata::Container"* %17, i64 0, i32 1
  br label %22

19:                                               ; preds = %12
  %20 = tail call %"class.std::__1::basic_string"* @_ZN6google8protobuf8internal16InternalMetadata27mutable_unknown_fields_slowINSt3__112basic_stringIcNS4_11char_traitsIcEENS4_9allocatorIcEEEEEEPT_v(%"class.google::protobuf::internal::InternalMetadata"* %4) #13
  %21 = load i64, i64* %5, align 8
  br label %22

22:                                               ; preds = %19, %15
  %23 = phi i64 [ %6, %15 ], [ %21, %19 ]
  %24 = phi %"class.std::__1::basic_string"* [ %18, %15 ], [ %20, %19 ]
  %25 = and i64 %23, 1
  %26 = icmp eq i64 %25, 0
  br i1 %26, label %31, label %27, !prof !4

27:                                               ; preds = %22
  %28 = and i64 %23, -2
  %29 = inttoptr i64 %28 to %"struct.google::protobuf::internal::InternalMetadata::Container"*
  %30 = getelementptr inbounds %"struct.google::protobuf::internal::InternalMetadata::Container", %"struct.google::protobuf::internal::InternalMetadata::Container"* %29, i64 0, i32 1
  br label %33

31:                                               ; preds = %22
  %32 = tail call %"class.std::__1::basic_string"* @_ZN6google8protobuf8internal16InternalMetadata27mutable_unknown_fields_slowINSt3__112basic_stringIcNS4_11char_traitsIcEENS4_9allocatorIcEEEEEEPT_v(%"class.google::protobuf::internal::InternalMetadata"* %3) #13
  br label %33

33:                                               ; preds = %31, %27
  %34 = phi %"class.std::__1::basic_string"* [ %30, %27 ], [ %32, %31 ]
  %35 = bitcast %"class.std::__1::basic_string"* %34 to <2 x i64>*
  %36 = load <2 x i64>, <2 x i64>* %35, align 8
  %37 = getelementptr inbounds %"class.std::__1::basic_string", %"class.std::__1::basic_string"* %34, i64 0, i32 0, i32 0, i32 0, i32 0, i32 0, i32 2
  %38 = load i64, i64* %37, align 8
  %39 = bitcast %"class.std::__1::basic_string"* %34 to i8*
  %40 = bitcast %"class.std::__1::basic_string"* %24 to i8*
  tail call void @llvm.memcpy.p0i8.p0i8.i64(i8* align 8 %39, i8* align 8 %40, i64 24, i1 false) #13
  %41 = bitcast %"class.std::__1::basic_string"* %24 to <2 x i64>*
  store <2 x i64> %36, <2 x i64>* %41, align 8
  %42 = getelementptr inbounds %"class.std::__1::basic_string", %"class.std::__1::basic_string"* %24, i64 0, i32 0, i32 0, i32 0, i32 0, i32 0, i32 2
  store i64 %38, i64* %42, align 8
  br label %43

43:                                               ; preds = %2, %33
  %44 = getelementptr inbounds %"class.perfetto::protos::FtraceConfig_CompactSchedConfig", %"class.perfetto::protos::FtraceConfig_CompactSchedConfig"* %0, i64 0, i32 1, i32 0, i64 0
  %45 = getelementptr inbounds %"class.perfetto::protos::FtraceConfig_CompactSchedConfig", %"class.perfetto::protos::FtraceConfig_CompactSchedConfig"* %1, i64 0, i32 1, i32 0, i64 0
  %46 = load i32, i32* %44, align 4
  %47 = load i32, i32* %45, align 4
  store i32 %47, i32* %44, align 4
  store i32 %46, i32* %45, align 4
  %48 = getelementptr inbounds %"class.perfetto::protos::FtraceConfig_CompactSchedConfig", %"class.perfetto::protos::FtraceConfig_CompactSchedConfig"* %0, i64 0, i32 3
  %49 = getelementptr inbounds %"class.perfetto::protos::FtraceConfig_CompactSchedConfig", %"class.perfetto::protos::FtraceConfig_CompactSchedConfig"* %1, i64 0, i32 3
  %50 = load i8, i8* %48, align 1, !range !3
  %51 = load i8, i8* %49, align 1, !range !3
  store i8 %51, i8* %48, align 1
  store i8 %50, i8* %49, align 1
  ret void
}

; Function Attrs: nounwind ssp uwtable
define hidden void @_ZNK8perfetto6protos31FtraceConfig_CompactSchedConfig11GetTypeNameEv(%"class.std::__1::basic_string"* noalias sret, %"class.perfetto::protos::FtraceConfig_CompactSchedConfig"* nocapture readnone) unnamed_addr #0 align 2 {
  %3 = tail call i8* @_Znwm(i64 48) #14
  %4 = getelementptr inbounds %"class.std::__1::basic_string", %"class.std::__1::basic_string"* %0, i64 0, i32 0, i32 0, i32 0, i32 0, i32 0, i32 0
  store i8* %3, i8** %4, align 8
  %5 = getelementptr inbounds %"class.std::__1::basic_string", %"class.std::__1::basic_string"* %0, i64 0, i32 0, i32 0, i32 0, i32 0, i32 0, i32 1
  %6 = bitcast i64* %5 to <2 x i64>*
  store <2 x i64> <i64 47, i64 -9223372036854775760>, <2 x i64>* %6, align 8
  tail call void @llvm.memcpy.p0i8.p0i8.i64(i8* nonnull align 1 %3, i8* align 1 getelementptr inbounds ([48 x i8], [48 x i8]* @.str.3, i64 0, i64 0), i64 47, i1 false) #13
  %7 = getelementptr inbounds i8, i8* %3, i64 47
  store i8 0, i8* %7, align 1
  ret void
}

; Function Attrs: norecurse nounwind readonly ssp uwtable
define hidden dereferenceable(32) %"class.perfetto::protos::FtraceConfig_CompactSchedConfig"* @_ZN8perfetto6protos12FtraceConfig9_Internal13compact_schedEPKS1_(%"class.perfetto::protos::FtraceConfig"* nocapture readonly) local_unnamed_addr #7 align 2 {
  %2 = getelementptr inbounds %"class.perfetto::protos::FtraceConfig", %"class.perfetto::protos::FtraceConfig"* %0, i64 0, i32 6
  %3 = load %"class.perfetto::protos::FtraceConfig_CompactSchedConfig"*, %"class.perfetto::protos::FtraceConfig_CompactSchedConfig"** %2, align 8
  ret %"class.perfetto::protos::FtraceConfig_CompactSchedConfig"* %3
}

; Function Attrs: nounwind ssp uwtable
define hidden void @_ZN8perfetto6protos12FtraceConfigC2EPN6google8protobuf5ArenaE(%"class.perfetto::protos::FtraceConfig"* nocapture, %"class.google::protobuf::Arena"*) unnamed_addr #0 align 2 {
  %3 = getelementptr inbounds %"class.perfetto::protos::FtraceConfig", %"class.perfetto::protos::FtraceConfig"* %0, i64 0, i32 0, i32 0
  %4 = getelementptr inbounds %"class.perfetto::protos::FtraceConfig", %"class.perfetto::protos::FtraceConfig"* %0, i64 0, i32 0, i32 1
  %5 = bitcast %"class.google::protobuf::internal::InternalMetadata"* %4 to %"class.google::protobuf::Arena"**
  store %"class.google::protobuf::Arena"* %1, %"class.google::protobuf::Arena"** %5, align 8
  store i32 (...)** bitcast (i8** getelementptr inbounds ({ [16 x i8*] }, { [16 x i8*] }* @_ZTVN8perfetto6protos12FtraceConfigE, i64 0, inrange i32 0, i64 2) to i32 (...)**), i32 (...)*** %3, align 8
  %6 = getelementptr inbounds %"class.perfetto::protos::FtraceConfig", %"class.perfetto::protos::FtraceConfig"* %0, i64 0, i32 1, i32 0, i64 0
  store i32 0, i32* %6, align 4
  %7 = getelementptr inbounds %"class.perfetto::protos::FtraceConfig", %"class.perfetto::protos::FtraceConfig"* %0, i64 0, i32 2, i32 0, i32 0, i32 0, i32 0, i32 0, i32 0
  store i32 0, i32* %7, align 4
  %8 = getelementptr inbounds %"class.perfetto::protos::FtraceConfig", %"class.perfetto::protos::FtraceConfig"* %0, i64 0, i32 3, i32 0, i32 0
  store %"class.google::protobuf::Arena"* %1, %"class.google::protobuf::Arena"** %8, align 8
  %9 = getelementptr inbounds %"class.perfetto::protos::FtraceConfig", %"class.perfetto::protos::FtraceConfig"* %0, i64 0, i32 3, i32 0, i32 1
  %10 = bitcast i32* %9 to i8*
  tail call void @llvm.memset.p0i8.i64(i8* align 8 %10, i8 0, i64 16, i1 false) #13
  %11 = getelementptr inbounds %"class.perfetto::protos::FtraceConfig", %"class.perfetto::protos::FtraceConfig"* %0, i64 0, i32 4, i32 0, i32 0
  store %"class.google::protobuf::Arena"* %1, %"class.google::protobuf::Arena"** %11, align 8
  %12 = getelementptr inbounds %"class.perfetto::protos::FtraceConfig", %"class.perfetto::protos::FtraceConfig"* %0, i64 0, i32 4, i32 0, i32 1
  %13 = bitcast i32* %12 to i8*
  tail call void @llvm.memset.p0i8.i64(i8* align 8 %13, i8 0, i64 16, i1 false) #13
  %14 = getelementptr inbounds %"class.perfetto::protos::FtraceConfig", %"class.perfetto::protos::FtraceConfig"* %0, i64 0, i32 5, i32 0, i32 0
  store %"class.google::protobuf::Arena"* %1, %"class.google::protobuf::Arena"** %14, align 8
  %15 = getelementptr inbounds %"class.perfetto::protos::FtraceConfig", %"class.perfetto::protos::FtraceConfig"* %0, i64 0, i32 5, i32 0, i32 1
  %16 = bitcast i32* %15 to i8*
  tail call void @llvm.memset.p0i8.i64(i8* align 8 %16, i8 0, i64 16, i1 false) #13
  %17 = load atomic i32, i32* getelementptr inbounds ({ { { { i32 } }, i32, i32, void ()* }, [1 x i8*] }, { { { { i32 } }, i32, i32, void ()* }, [1 x i8*] }* @scc_info_FtraceConfig_protos_2fperfetto_2fconfig_2fftrace_2fftrace_5fconfig_2eproto, i64 0, i32 0, i32 0, i32 0, i32 0) acquire, align 8
  %18 = icmp eq i32 %17, 0
  br i1 %18, label %20, label %19, !prof !2

19:                                               ; preds = %2
  tail call void @_ZN6google8protobuf8internal11InitSCCImplEPNS1_11SCCInfoBaseE(%"struct.google::protobuf::internal::SCCInfoBase"* bitcast ({ { { { i32 } }, i32, i32, void ()* }, [1 x i8*] }* @scc_info_FtraceConfig_protos_2fperfetto_2fconfig_2fftrace_2fftrace_5fconfig_2eproto to %"struct.google::protobuf::internal::SCCInfoBase"*)) #13
  br label %20

20:                                               ; preds = %2, %19
  %21 = getelementptr inbounds %"class.perfetto::protos::FtraceConfig", %"class.perfetto::protos::FtraceConfig"* %0, i64 0, i32 6
  %22 = bitcast %"class.perfetto::protos::FtraceConfig_CompactSchedConfig"** %21 to i8*
  tail call void @llvm.memset.p0i8.i64(i8* align 1 %22, i8 0, i64 20, i1 false) #13
  ret void
}

; Function Attrs: nounwind ssp uwtable
define hidden void @_ZN8perfetto6protos12FtraceConfigC2ERKS1_(%"class.perfetto::protos::FtraceConfig"*, %"class.perfetto::protos::FtraceConfig"* dereferenceable(120)) unnamed_addr #0 align 2 {
  %3 = getelementptr inbounds %"class.perfetto::protos::FtraceConfig", %"class.perfetto::protos::FtraceConfig"* %0, i64 0, i32 0, i32 0
  %4 = getelementptr inbounds %"class.perfetto::protos::FtraceConfig", %"class.perfetto::protos::FtraceConfig"* %0, i64 0, i32 0, i32 1, i32 0
  store i8* null, i8** %4, align 8
  store i32 (...)** bitcast (i8** getelementptr inbounds ({ [16 x i8*] }, { [16 x i8*] }* @_ZTVN8perfetto6protos12FtraceConfigE, i64 0, inrange i32 0, i64 2) to i32 (...)**), i32 (...)*** %3, align 8
  %5 = getelementptr inbounds %"class.perfetto::protos::FtraceConfig", %"class.perfetto::protos::FtraceConfig"* %1, i64 0, i32 1, i32 0, i64 0
  %6 = getelementptr inbounds %"class.perfetto::protos::FtraceConfig", %"class.perfetto::protos::FtraceConfig"* %0, i64 0, i32 1, i32 0, i64 0
  %7 = load i32, i32* %5, align 8
  store i32 %7, i32* %6, align 8
  %8 = getelementptr inbounds %"class.perfetto::protos::FtraceConfig", %"class.perfetto::protos::FtraceConfig"* %0, i64 0, i32 2, i32 0, i32 0, i32 0, i32 0, i32 0, i32 0
  %9 = getelementptr inbounds %"class.perfetto::protos::FtraceConfig", %"class.perfetto::protos::FtraceConfig"* %0, i64 0, i32 3, i32 0
  %10 = getelementptr inbounds %"class.perfetto::protos::FtraceConfig", %"class.perfetto::protos::FtraceConfig"* %1, i64 0, i32 3, i32 0
  %11 = bitcast i32* %8 to i8*
  call void @llvm.memset.p0i8.i64(i8* align 4 %11, i8 0, i64 28, i1 false)
  tail call void @_ZN6google8protobuf8internal20RepeatedPtrFieldBase9MergeFromINS0_16RepeatedPtrFieldINSt3__112basic_stringIcNS5_11char_traitsIcEENS5_9allocatorIcEEEEE11TypeHandlerEEEvRKS2_(%"class.google::protobuf::internal::RepeatedPtrFieldBase"* %9, %"class.google::protobuf::internal::RepeatedPtrFieldBase"* dereferenceable(24) %10) #13
  %12 = getelementptr inbounds %"class.perfetto::protos::FtraceConfig", %"class.perfetto::protos::FtraceConfig"* %0, i64 0, i32 4
  %13 = getelementptr inbounds %"class.google::protobuf::RepeatedPtrField", %"class.google::protobuf::RepeatedPtrField"* %12, i64 0, i32 0
  %14 = bitcast %"class.google::protobuf::RepeatedPtrField"* %12 to i8*
  tail call void @llvm.memset.p0i8.i64(i8* align 8 %14, i8 0, i64 24, i1 false) #13
  %15 = getelementptr inbounds %"class.perfetto::protos::FtraceConfig", %"class.perfetto::protos::FtraceConfig"* %1, i64 0, i32 4, i32 0
  tail call void @_ZN6google8protobuf8internal20RepeatedPtrFieldBase9MergeFromINS0_16RepeatedPtrFieldINSt3__112basic_stringIcNS5_11char_traitsIcEENS5_9allocatorIcEEEEE11TypeHandlerEEEvRKS2_(%"class.google::protobuf::internal::RepeatedPtrFieldBase"* %13, %"class.google::protobuf::internal::RepeatedPtrFieldBase"* dereferenceable(24) %15) #13
  %16 = getelementptr inbounds %"class.perfetto::protos::FtraceConfig", %"class.perfetto::protos::FtraceConfig"* %0, i64 0, i32 5
  %17 = getelementptr inbounds %"class.google::protobuf::RepeatedPtrField", %"class.google::protobuf::RepeatedPtrField"* %16, i64 0, i32 0
  %18 = bitcast %"class.google::protobuf::RepeatedPtrField"* %16 to i8*
  tail call void @llvm.memset.p0i8.i64(i8* align 8 %18, i8 0, i64 24, i1 false) #13
  %19 = getelementptr inbounds %"class.perfetto::protos::FtraceConfig", %"class.perfetto::protos::FtraceConfig"* %1, i64 0, i32 5, i32 0
  tail call void @_ZN6google8protobuf8internal20RepeatedPtrFieldBase9MergeFromINS0_16RepeatedPtrFieldINSt3__112basic_stringIcNS5_11char_traitsIcEENS5_9allocatorIcEEEEE11TypeHandlerEEEvRKS2_(%"class.google::protobuf::internal::RepeatedPtrFieldBase"* %17, %"class.google::protobuf::internal::RepeatedPtrFieldBase"* dereferenceable(24) %19) #13
  %20 = getelementptr inbounds %"class.perfetto::protos::FtraceConfig", %"class.perfetto::protos::FtraceConfig"* %0, i64 0, i32 0, i32 1
  %21 = getelementptr inbounds %"class.perfetto::protos::FtraceConfig", %"class.perfetto::protos::FtraceConfig"* %1, i64 0, i32 0, i32 1
  %22 = bitcast %"class.google::protobuf::internal::InternalMetadata"* %21 to i64*
  %23 = load i64, i64* %22, align 8
  %24 = and i64 %23, 1
  %25 = icmp eq i64 %24, 0
  br i1 %25, label %55, label %26

26:                                               ; preds = %2
  %27 = and i64 %23, -2
  %28 = inttoptr i64 %27 to %"struct.google::protobuf::internal::InternalMetadata::Container"*
  %29 = getelementptr inbounds %"struct.google::protobuf::internal::InternalMetadata::Container", %"struct.google::protobuf::internal::InternalMetadata::Container"* %28, i64 0, i32 1
  %30 = bitcast %"class.google::protobuf::internal::InternalMetadata"* %20 to i64*
  %31 = load i64, i64* %30, align 8
  %32 = and i64 %31, 1
  %33 = icmp eq i64 %32, 0
  br i1 %33, label %38, label %34, !prof !4

34:                                               ; preds = %26
  %35 = and i64 %31, -2
  %36 = inttoptr i64 %35 to %"struct.google::protobuf::internal::InternalMetadata::Container"*
  %37 = getelementptr inbounds %"struct.google::protobuf::internal::InternalMetadata::Container", %"struct.google::protobuf::internal::InternalMetadata::Container"* %36, i64 0, i32 1
  br label %40

38:                                               ; preds = %26
  %39 = tail call %"class.std::__1::basic_string"* @_ZN6google8protobuf8internal16InternalMetadata27mutable_unknown_fields_slowINSt3__112basic_stringIcNS4_11char_traitsIcEENS4_9allocatorIcEEEEEEPT_v(%"class.google::protobuf::internal::InternalMetadata"* %20) #13
  br label %40

40:                                               ; preds = %38, %34
  %41 = phi %"class.std::__1::basic_string"* [ %37, %34 ], [ %39, %38 ]
  %42 = bitcast %"class.std::__1::basic_string"* %29 to %"struct.std::__1::basic_string<char, std::__1::char_traits<char>, std::__1::allocator<char> >::__short"*
  %43 = getelementptr inbounds %"struct.std::__1::basic_string<char, std::__1::char_traits<char>, std::__1::allocator<char> >::__short", %"struct.std::__1::basic_string<char, std::__1::char_traits<char>, std::__1::allocator<char> >::__short"* %42, i64 0, i32 1, i32 0
  %44 = load i8, i8* %43, align 1
  %45 = icmp slt i8 %44, 0
  %46 = getelementptr inbounds %"class.std::__1::basic_string", %"class.std::__1::basic_string"* %29, i64 0, i32 0, i32 0, i32 0, i32 0, i32 0, i32 0
  %47 = load i8*, i8** %46, align 8
  %48 = getelementptr inbounds %"struct.google::protobuf::internal::InternalMetadata::Container", %"struct.google::protobuf::internal::InternalMetadata::Container"* %28, i64 0, i32 1, i32 0, i32 0, i32 0, i32 0, i32 0, i32 1
  %49 = load i64, i64* %48, align 8
  %50 = bitcast %"class.std::__1::basic_string"* %29 to i8*
  %51 = zext i8 %44 to i64
  %52 = select i1 %45, i8* %47, i8* %50
  %53 = select i1 %45, i64 %49, i64 %51
  %54 = tail call dereferenceable(24) %"class.std::__1::basic_string"* @_ZNSt3__112basic_stringIcNS_11char_traitsIcEENS_9allocatorIcEEE6appendEPKcm(%"class.std::__1::basic_string"* %41, i8* %52, i64 %53) #13
  br label %55

55:                                               ; preds = %2, %40
  %56 = load i32, i32* %5, align 4
  %57 = and i32 %56, 1
  %58 = icmp eq i32 %57, 0
  br i1 %58, label %102, label %59

59:                                               ; preds = %55
  %60 = getelementptr inbounds %"class.perfetto::protos::FtraceConfig", %"class.perfetto::protos::FtraceConfig"* %1, i64 0, i32 6
  %61 = load %"class.perfetto::protos::FtraceConfig_CompactSchedConfig"*, %"class.perfetto::protos::FtraceConfig_CompactSchedConfig"** %60, align 8, !nonnull !6
  %62 = tail call i8* @_Znwm(i64 32) #14
  %63 = bitcast i8* %62 to i32 (...)***
  %64 = getelementptr inbounds i8, i8* %62, i64 8
  %65 = bitcast i8* %64 to i8**
  store i8* null, i8** %65, align 8
  store i32 (...)** bitcast (i8** getelementptr inbounds ({ [16 x i8*] }, { [16 x i8*] }* @_ZTVN8perfetto6protos31FtraceConfig_CompactSchedConfigE, i64 0, inrange i32 0, i64 2) to i32 (...)**), i32 (...)*** %63, align 8
  %66 = getelementptr inbounds %"class.perfetto::protos::FtraceConfig_CompactSchedConfig", %"class.perfetto::protos::FtraceConfig_CompactSchedConfig"* %61, i64 0, i32 1, i32 0, i64 0
  %67 = getelementptr inbounds i8, i8* %62, i64 16
  %68 = bitcast i8* %67 to i32*
  %69 = load i32, i32* %66, align 8
  store i32 %69, i32* %68, align 8
  %70 = getelementptr inbounds i8, i8* %62, i64 20
  %71 = bitcast i8* %70 to i32*
  store i32 0, i32* %71, align 4
  %72 = getelementptr inbounds %"class.perfetto::protos::FtraceConfig_CompactSchedConfig", %"class.perfetto::protos::FtraceConfig_CompactSchedConfig"* %61, i64 0, i32 0, i32 1
  %73 = bitcast %"class.google::protobuf::internal::InternalMetadata"* %72 to i64*
  %74 = load i64, i64* %73, align 8
  %75 = and i64 %74, 1
  %76 = icmp eq i64 %75, 0
  br i1 %76, label %96, label %77

77:                                               ; preds = %59
  %78 = bitcast i8* %64 to %"class.google::protobuf::internal::InternalMetadata"*
  %79 = and i64 %74, -2
  %80 = inttoptr i64 %79 to %"struct.google::protobuf::internal::InternalMetadata::Container"*
  %81 = getelementptr inbounds %"struct.google::protobuf::internal::InternalMetadata::Container", %"struct.google::protobuf::internal::InternalMetadata::Container"* %80, i64 0, i32 1
  %82 = tail call %"class.std::__1::basic_string"* @_ZN6google8protobuf8internal16InternalMetadata27mutable_unknown_fields_slowINSt3__112basic_stringIcNS4_11char_traitsIcEENS4_9allocatorIcEEEEEEPT_v(%"class.google::protobuf::internal::InternalMetadata"* %78) #13
  %83 = bitcast %"class.std::__1::basic_string"* %81 to %"struct.std::__1::basic_string<char, std::__1::char_traits<char>, std::__1::allocator<char> >::__short"*
  %84 = getelementptr inbounds %"struct.std::__1::basic_string<char, std::__1::char_traits<char>, std::__1::allocator<char> >::__short", %"struct.std::__1::basic_string<char, std::__1::char_traits<char>, std::__1::allocator<char> >::__short"* %83, i64 0, i32 1, i32 0
  %85 = load i8, i8* %84, align 1
  %86 = icmp slt i8 %85, 0
  %87 = getelementptr inbounds %"class.std::__1::basic_string", %"class.std::__1::basic_string"* %81, i64 0, i32 0, i32 0, i32 0, i32 0, i32 0, i32 0
  %88 = load i8*, i8** %87, align 8
  %89 = getelementptr inbounds %"struct.google::protobuf::internal::InternalMetadata::Container", %"struct.google::protobuf::internal::InternalMetadata::Container"* %80, i64 0, i32 1, i32 0, i32 0, i32 0, i32 0, i32 0, i32 1
  %90 = load i64, i64* %89, align 8
  %91 = bitcast %"class.std::__1::basic_string"* %81 to i8*
  %92 = zext i8 %85 to i64
  %93 = select i1 %86, i8* %88, i8* %91
  %94 = select i1 %86, i64 %90, i64 %92
  %95 = tail call dereferenceable(24) %"class.std::__1::basic_string"* @_ZNSt3__112basic_stringIcNS_11char_traitsIcEENS_9allocatorIcEEE6appendEPKcm(%"class.std::__1::basic_string"* %82, i8* %93, i64 %94) #13
  br label %96

96:                                               ; preds = %59, %77
  %97 = getelementptr inbounds %"class.perfetto::protos::FtraceConfig_CompactSchedConfig", %"class.perfetto::protos::FtraceConfig_CompactSchedConfig"* %61, i64 0, i32 3
  %98 = load i8, i8* %97, align 8, !range !3
  %99 = getelementptr inbounds i8, i8* %62, i64 24
  store i8 %98, i8* %99, align 8
  %100 = getelementptr inbounds %"class.perfetto::protos::FtraceConfig", %"class.perfetto::protos::FtraceConfig"* %0, i64 0, i32 6
  %101 = bitcast %"class.perfetto::protos::FtraceConfig_CompactSchedConfig"** %100 to i8**
  store i8* %62, i8** %101, align 8
  br label %104

102:                                              ; preds = %55
  %103 = getelementptr inbounds %"class.perfetto::protos::FtraceConfig", %"class.perfetto::protos::FtraceConfig"* %0, i64 0, i32 6
  store %"class.perfetto::protos::FtraceConfig_CompactSchedConfig"* null, %"class.perfetto::protos::FtraceConfig_CompactSchedConfig"** %103, align 8
  br label %104

104:                                              ; preds = %102, %96
  %105 = getelementptr inbounds %"class.perfetto::protos::FtraceConfig", %"class.perfetto::protos::FtraceConfig"* %0, i64 0, i32 7
  %106 = getelementptr inbounds %"class.perfetto::protos::FtraceConfig", %"class.perfetto::protos::FtraceConfig"* %1, i64 0, i32 7
  tail call void @llvm.memcpy.p0i8.p0i8.i64(i8* align 8 %105, i8* align 8 %106, i64 12, i1 false)
  ret void
}

; Function Attrs: nobuiltin nofree
declare noalias nonnull i8* @_Znwm(i64) local_unnamed_addr #8

; Function Attrs: nounwind ssp uwtable
define hidden void @_ZN8perfetto6protos12FtraceConfigD2Ev(%"class.perfetto::protos::FtraceConfig"*) unnamed_addr #0 align 2 {
  %2 = getelementptr inbounds %"class.perfetto::protos::FtraceConfig", %"class.perfetto::protos::FtraceConfig"* %0, i64 0, i32 0, i32 0
  store i32 (...)** bitcast (i8** getelementptr inbounds ({ [16 x i8*] }, { [16 x i8*] }* @_ZTVN8perfetto6protos12FtraceConfigE, i64 0, inrange i32 0, i64 2) to i32 (...)**), i32 (...)*** %2, align 8
  %3 = icmp eq %"class.perfetto::protos::FtraceConfig"* %0, bitcast (%"class.perfetto::protos::FtraceConfigDefaultTypeInternal"* @_ZN8perfetto6protos31_FtraceConfig_default_instance_E to %"class.perfetto::protos::FtraceConfig"*)
  br i1 %3, label %13, label %4

4:                                                ; preds = %1
  %5 = getelementptr inbounds %"class.perfetto::protos::FtraceConfig", %"class.perfetto::protos::FtraceConfig"* %0, i64 0, i32 6
  %6 = load %"class.perfetto::protos::FtraceConfig_CompactSchedConfig"*, %"class.perfetto::protos::FtraceConfig_CompactSchedConfig"** %5, align 8
  %7 = icmp eq %"class.perfetto::protos::FtraceConfig_CompactSchedConfig"* %6, null
  br i1 %7, label %13, label %8

8:                                                ; preds = %4
  %9 = bitcast %"class.perfetto::protos::FtraceConfig_CompactSchedConfig"* %6 to void (%"class.perfetto::protos::FtraceConfig_CompactSchedConfig"*)***
  %10 = load void (%"class.perfetto::protos::FtraceConfig_CompactSchedConfig"*)**, void (%"class.perfetto::protos::FtraceConfig_CompactSchedConfig"*)*** %9, align 8
  %11 = getelementptr inbounds void (%"class.perfetto::protos::FtraceConfig_CompactSchedConfig"*)*, void (%"class.perfetto::protos::FtraceConfig_CompactSchedConfig"*)** %10, i64 1
  %12 = load void (%"class.perfetto::protos::FtraceConfig_CompactSchedConfig"*)*, void (%"class.perfetto::protos::FtraceConfig_CompactSchedConfig"*)** %11, align 8
  tail call void %12(%"class.perfetto::protos::FtraceConfig_CompactSchedConfig"* nonnull %6) #13
  br label %13

13:                                               ; preds = %1, %4, %8
  %14 = getelementptr inbounds %"class.perfetto::protos::FtraceConfig", %"class.perfetto::protos::FtraceConfig"* %0, i64 0, i32 0, i32 1
  %15 = bitcast %"class.google::protobuf::internal::InternalMetadata"* %14 to i64*
  %16 = load i64, i64* %15, align 8
  %17 = and i64 %16, 1
  %18 = icmp eq i64 %17, 0
  br i1 %18, label %39, label %19

19:                                               ; preds = %13
  %20 = and i64 %16, -2
  %21 = inttoptr i64 %20 to %"struct.google::protobuf::internal::InternalMetadata::ContainerBase"*
  %22 = getelementptr inbounds %"struct.google::protobuf::internal::InternalMetadata::ContainerBase", %"struct.google::protobuf::internal::InternalMetadata::ContainerBase"* %21, i64 0, i32 0
  %23 = load %"class.google::protobuf::Arena"*, %"class.google::protobuf::Arena"** %22, align 8
  %24 = icmp ne %"class.google::protobuf::Arena"* %23, null
  %25 = icmp eq i64 %20, 0
  %26 = or i1 %25, %24
  br i1 %26, label %39, label %27

27:                                               ; preds = %19
  %28 = inttoptr i64 %20 to %"struct.google::protobuf::internal::InternalMetadata::Container"*
  %29 = getelementptr inbounds %"struct.google::protobuf::internal::InternalMetadata::Container", %"struct.google::protobuf::internal::InternalMetadata::Container"* %28, i64 0, i32 1
  %30 = bitcast %"class.std::__1::basic_string"* %29 to %"struct.std::__1::basic_string<char, std::__1::char_traits<char>, std::__1::allocator<char> >::__short"*
  %31 = getelementptr inbounds %"struct.std::__1::basic_string<char, std::__1::char_traits<char>, std::__1::allocator<char> >::__short", %"struct.std::__1::basic_string<char, std::__1::char_traits<char>, std::__1::allocator<char> >::__short"* %30, i64 0, i32 1, i32 0
  %32 = load i8, i8* %31, align 1
  %33 = icmp slt i8 %32, 0
  br i1 %33, label %34, label %37

34:                                               ; preds = %27
  %35 = getelementptr inbounds %"class.std::__1::basic_string", %"class.std::__1::basic_string"* %29, i64 0, i32 0, i32 0, i32 0, i32 0, i32 0, i32 0
  %36 = load i8*, i8** %35, align 8
  tail call void @_ZdlPv(i8* %36) #14
  br label %37

37:                                               ; preds = %34, %27
  %38 = inttoptr i64 %20 to i8*
  tail call void @_ZdlPv(i8* %38) #14
  br label %39

39:                                               ; preds = %13, %19, %37
  %40 = getelementptr inbounds %"class.perfetto::protos::FtraceConfig", %"class.perfetto::protos::FtraceConfig"* %0, i64 0, i32 5
  tail call void @_ZN6google8protobuf16RepeatedPtrFieldINSt3__112basic_stringIcNS2_11char_traitsIcEENS2_9allocatorIcEEEEED1Ev(%"class.google::protobuf::RepeatedPtrField"* %40) #13
  %41 = getelementptr inbounds %"class.perfetto::protos::FtraceConfig", %"class.perfetto::protos::FtraceConfig"* %0, i64 0, i32 4
  tail call void @_ZN6google8protobuf16RepeatedPtrFieldINSt3__112basic_stringIcNS2_11char_traitsIcEENS2_9allocatorIcEEEEED1Ev(%"class.google::protobuf::RepeatedPtrField"* %41) #13
  %42 = getelementptr inbounds %"class.perfetto::protos::FtraceConfig", %"class.perfetto::protos::FtraceConfig"* %0, i64 0, i32 3
  tail call void @_ZN6google8protobuf16RepeatedPtrFieldINSt3__112basic_stringIcNS2_11char_traitsIcEENS2_9allocatorIcEEEEED1Ev(%"class.google::protobuf::RepeatedPtrField"* %42) #13
  ret void
}

; Function Attrs: nounwind
declare void @_ZN6google8protobuf16RepeatedPtrFieldINSt3__112basic_stringIcNS2_11char_traitsIcEENS2_9allocatorIcEEEEED1Ev(%"class.google::protobuf::RepeatedPtrField"*) unnamed_addr #9

; Function Attrs: nounwind ssp uwtable
define hidden void @_ZN8perfetto6protos12FtraceConfigD0Ev(%"class.perfetto::protos::FtraceConfig"*) unnamed_addr #0 align 2 {
  tail call void @_ZN8perfetto6protos12FtraceConfigD2Ev(%"class.perfetto::protos::FtraceConfig"* %0) #13
  %2 = bitcast %"class.perfetto::protos::FtraceConfig"* %0 to i8*
  tail call void @_ZdlPv(i8* %2) #14
  ret void
}

; Function Attrs: norecurse nounwind readnone ssp uwtable
define hidden void @_ZN8perfetto6protos12FtraceConfig9ArenaDtorEPv(i8* nocapture) local_unnamed_addr #4 align 2 {
  ret void
}

; Function Attrs: nofree norecurse nounwind ssp uwtable
define hidden void @_ZNK8perfetto6protos12FtraceConfig13SetCachedSizeEi(%"class.perfetto::protos::FtraceConfig"* nocapture, i32) local_unnamed_addr #5 align 2 {
  %3 = getelementptr inbounds %"class.perfetto::protos::FtraceConfig", %"class.perfetto::protos::FtraceConfig"* %0, i64 0, i32 2, i32 0, i32 0, i32 0, i32 0, i32 0, i32 0
  store atomic i32 %1, i32* %3 monotonic, align 4
  ret void
}

; Function Attrs: nounwind ssp uwtable
define hidden dereferenceable(120) %"class.perfetto::protos::FtraceConfig"* @_ZN8perfetto6protos12FtraceConfig16default_instanceEv() local_unnamed_addr #0 align 2 {
  %1 = load atomic i32, i32* getelementptr inbounds ({ { { { i32 } }, i32, i32, void ()* }, [1 x i8*] }, { { { { i32 } }, i32, i32, void ()* }, [1 x i8*] }* @scc_info_FtraceConfig_protos_2fperfetto_2fconfig_2fftrace_2fftrace_5fconfig_2eproto, i64 0, i32 0, i32 0, i32 0, i32 0) acquire, align 8
  %2 = icmp eq i32 %1, 0
  br i1 %2, label %4, label %3, !prof !2

3:                                                ; preds = %0
  tail call void @_ZN6google8protobuf8internal11InitSCCImplEPNS1_11SCCInfoBaseE(%"struct.google::protobuf::internal::SCCInfoBase"* bitcast ({ { { { i32 } }, i32, i32, void ()* }, [1 x i8*] }* @scc_info_FtraceConfig_protos_2fperfetto_2fconfig_2fftrace_2fftrace_5fconfig_2eproto to %"struct.google::protobuf::internal::SCCInfoBase"*)) #13
  br label %4

4:                                                ; preds = %0, %3
  ret %"class.perfetto::protos::FtraceConfig"* bitcast (%"class.perfetto::protos::FtraceConfigDefaultTypeInternal"* @_ZN8perfetto6protos31_FtraceConfig_default_instance_E to %"class.perfetto::protos::FtraceConfig"*)
}

; Function Attrs: nounwind ssp uwtable
define hidden void @_ZN8perfetto6protos12FtraceConfig5ClearEv(%"class.perfetto::protos::FtraceConfig"* nocapture) unnamed_addr #0 align 2 {
  %2 = getelementptr inbounds %"class.perfetto::protos::FtraceConfig", %"class.perfetto::protos::FtraceConfig"* %0, i64 0, i32 3, i32 0, i32 1
  %3 = load i32, i32* %2, align 8
  %4 = icmp sgt i32 %3, 0
  br i1 %4, label %5, label %51

5:                                                ; preds = %1
  %6 = getelementptr inbounds %"class.perfetto::protos::FtraceConfig", %"class.perfetto::protos::FtraceConfig"* %0, i64 0, i32 3, i32 0, i32 3
  %7 = load %"struct.google::protobuf::internal::RepeatedPtrFieldBase::Rep"*, %"struct.google::protobuf::internal::RepeatedPtrFieldBase::Rep"** %6, align 8
  %8 = zext i32 %3 to i64
  %9 = and i64 %8, 1
  %10 = icmp eq i32 %3, 1
  br i1 %10, label %35, label %11

11:                                               ; preds = %5
  %12 = sub nsw i64 %8, %9
  br label %13

13:                                               ; preds = %230, %11
  %14 = phi i64 [ 0, %11 ], [ %29, %230 ]
  %15 = phi i64 [ %12, %11 ], [ %231, %230 ]
  %16 = or i64 %14, 1
  %17 = getelementptr inbounds %"struct.google::protobuf::internal::RepeatedPtrFieldBase::Rep", %"struct.google::protobuf::internal::RepeatedPtrFieldBase::Rep"* %7, i64 0, i32 1, i64 %14
  %18 = load i8*, i8** %17, align 8
  %19 = getelementptr inbounds i8, i8* %18, i64 23
  %20 = load i8, i8* %19, align 1
  %21 = icmp slt i8 %20, 0
  br i1 %21, label %22, label %27

22:                                               ; preds = %13
  %23 = bitcast i8* %18 to i8**
  %24 = load i8*, i8** %23, align 8
  store i8 0, i8* %24, align 1
  %25 = getelementptr inbounds i8, i8* %18, i64 8
  %26 = bitcast i8* %25 to i64*
  store i64 0, i64* %26, align 8
  br label %28

27:                                               ; preds = %13
  store i8 0, i8* %18, align 1
  store i8 0, i8* %19, align 1
  br label %28

28:                                               ; preds = %27, %22
  %29 = add nuw nsw i64 %14, 2
  %30 = getelementptr inbounds %"struct.google::protobuf::internal::RepeatedPtrFieldBase::Rep", %"struct.google::protobuf::internal::RepeatedPtrFieldBase::Rep"* %7, i64 0, i32 1, i64 %16
  %31 = load i8*, i8** %30, align 8
  %32 = getelementptr inbounds i8, i8* %31, i64 23
  %33 = load i8, i8* %32, align 1
  %34 = icmp slt i8 %33, 0
  br i1 %34, label %225, label %224

35:                                               ; preds = %230, %5
  %36 = phi i64 [ 0, %5 ], [ %29, %230 ]
  %37 = icmp eq i64 %9, 0
  br i1 %37, label %50, label %38

38:                                               ; preds = %35
  %39 = getelementptr inbounds %"struct.google::protobuf::internal::RepeatedPtrFieldBase::Rep", %"struct.google::protobuf::internal::RepeatedPtrFieldBase::Rep"* %7, i64 0, i32 1, i64 %36
  %40 = load i8*, i8** %39, align 8
  %41 = getelementptr inbounds i8, i8* %40, i64 23
  %42 = load i8, i8* %41, align 1
  %43 = icmp slt i8 %42, 0
  br i1 %43, label %45, label %44

44:                                               ; preds = %38
  store i8 0, i8* %40, align 1
  store i8 0, i8* %41, align 1
  br label %50

45:                                               ; preds = %38
  %46 = bitcast i8* %40 to i8**
  %47 = load i8*, i8** %46, align 8
  store i8 0, i8* %47, align 1
  %48 = getelementptr inbounds i8, i8* %40, i64 8
  %49 = bitcast i8* %48 to i64*
  store i64 0, i64* %49, align 8
  br label %50

50:                                               ; preds = %45, %44, %35
  store i32 0, i32* %2, align 8
  br label %51

51:                                               ; preds = %1, %50
  %52 = getelementptr inbounds %"class.perfetto::protos::FtraceConfig", %"class.perfetto::protos::FtraceConfig"* %0, i64 0, i32 4, i32 0, i32 1
  %53 = load i32, i32* %52, align 8
  %54 = icmp sgt i32 %53, 0
  br i1 %54, label %55, label %101

55:                                               ; preds = %51
  %56 = getelementptr inbounds %"class.perfetto::protos::FtraceConfig", %"class.perfetto::protos::FtraceConfig"* %0, i64 0, i32 4, i32 0, i32 3
  %57 = load %"struct.google::protobuf::internal::RepeatedPtrFieldBase::Rep"*, %"struct.google::protobuf::internal::RepeatedPtrFieldBase::Rep"** %56, align 8
  %58 = zext i32 %53 to i64
  %59 = and i64 %58, 1
  %60 = icmp eq i32 %53, 1
  br i1 %60, label %85, label %61

61:                                               ; preds = %55
  %62 = sub nsw i64 %58, %59
  br label %63

63:                                               ; preds = %221, %61
  %64 = phi i64 [ 0, %61 ], [ %79, %221 ]
  %65 = phi i64 [ %62, %61 ], [ %222, %221 ]
  %66 = or i64 %64, 1
  %67 = getelementptr inbounds %"struct.google::protobuf::internal::RepeatedPtrFieldBase::Rep", %"struct.google::protobuf::internal::RepeatedPtrFieldBase::Rep"* %57, i64 0, i32 1, i64 %64
  %68 = load i8*, i8** %67, align 8
  %69 = getelementptr inbounds i8, i8* %68, i64 23
  %70 = load i8, i8* %69, align 1
  %71 = icmp slt i8 %70, 0
  br i1 %71, label %72, label %77

72:                                               ; preds = %63
  %73 = bitcast i8* %68 to i8**
  %74 = load i8*, i8** %73, align 8
  store i8 0, i8* %74, align 1
  %75 = getelementptr inbounds i8, i8* %68, i64 8
  %76 = bitcast i8* %75 to i64*
  store i64 0, i64* %76, align 8
  br label %78

77:                                               ; preds = %63
  store i8 0, i8* %68, align 1
  store i8 0, i8* %69, align 1
  br label %78

78:                                               ; preds = %77, %72
  %79 = add nuw nsw i64 %64, 2
  %80 = getelementptr inbounds %"struct.google::protobuf::internal::RepeatedPtrFieldBase::Rep", %"struct.google::protobuf::internal::RepeatedPtrFieldBase::Rep"* %57, i64 0, i32 1, i64 %66
  %81 = load i8*, i8** %80, align 8
  %82 = getelementptr inbounds i8, i8* %81, i64 23
  %83 = load i8, i8* %82, align 1
  %84 = icmp slt i8 %83, 0
  br i1 %84, label %216, label %215

85:                                               ; preds = %221, %55
  %86 = phi i64 [ 0, %55 ], [ %79, %221 ]
  %87 = icmp eq i64 %59, 0
  br i1 %87, label %100, label %88

88:                                               ; preds = %85
  %89 = getelementptr inbounds %"struct.google::protobuf::internal::RepeatedPtrFieldBase::Rep", %"struct.google::protobuf::internal::RepeatedPtrFieldBase::Rep"* %57, i64 0, i32 1, i64 %86
  %90 = load i8*, i8** %89, align 8
  %91 = getelementptr inbounds i8, i8* %90, i64 23
  %92 = load i8, i8* %91, align 1
  %93 = icmp slt i8 %92, 0
  br i1 %93, label %95, label %94

94:                                               ; preds = %88
  store i8 0, i8* %90, align 1
  store i8 0, i8* %91, align 1
  br label %100

95:                                               ; preds = %88
  %96 = bitcast i8* %90 to i8**
  %97 = load i8*, i8** %96, align 8
  store i8 0, i8* %97, align 1
  %98 = getelementptr inbounds i8, i8* %90, i64 8
  %99 = bitcast i8* %98 to i64*
  store i64 0, i64* %99, align 8
  br label %100

100:                                              ; preds = %95, %94, %85
  store i32 0, i32* %52, align 8
  br label %101

101:                                              ; preds = %51, %100
  %102 = getelementptr inbounds %"class.perfetto::protos::FtraceConfig", %"class.perfetto::protos::FtraceConfig"* %0, i64 0, i32 5, i32 0, i32 1
  %103 = load i32, i32* %102, align 8
  %104 = icmp sgt i32 %103, 0
  br i1 %104, label %105, label %151

105:                                              ; preds = %101
  %106 = getelementptr inbounds %"class.perfetto::protos::FtraceConfig", %"class.perfetto::protos::FtraceConfig"* %0, i64 0, i32 5, i32 0, i32 3
  %107 = load %"struct.google::protobuf::internal::RepeatedPtrFieldBase::Rep"*, %"struct.google::protobuf::internal::RepeatedPtrFieldBase::Rep"** %106, align 8
  %108 = zext i32 %103 to i64
  %109 = and i64 %108, 1
  %110 = icmp eq i32 %103, 1
  br i1 %110, label %135, label %111

111:                                              ; preds = %105
  %112 = sub nsw i64 %108, %109
  br label %113

113:                                              ; preds = %212, %111
  %114 = phi i64 [ 0, %111 ], [ %129, %212 ]
  %115 = phi i64 [ %112, %111 ], [ %213, %212 ]
  %116 = or i64 %114, 1
  %117 = getelementptr inbounds %"struct.google::protobuf::internal::RepeatedPtrFieldBase::Rep", %"struct.google::protobuf::internal::RepeatedPtrFieldBase::Rep"* %107, i64 0, i32 1, i64 %114
  %118 = load i8*, i8** %117, align 8
  %119 = getelementptr inbounds i8, i8* %118, i64 23
  %120 = load i8, i8* %119, align 1
  %121 = icmp slt i8 %120, 0
  br i1 %121, label %122, label %127

122:                                              ; preds = %113
  %123 = bitcast i8* %118 to i8**
  %124 = load i8*, i8** %123, align 8
  store i8 0, i8* %124, align 1
  %125 = getelementptr inbounds i8, i8* %118, i64 8
  %126 = bitcast i8* %125 to i64*
  store i64 0, i64* %126, align 8
  br label %128

127:                                              ; preds = %113
  store i8 0, i8* %118, align 1
  store i8 0, i8* %119, align 1
  br label %128

128:                                              ; preds = %127, %122
  %129 = add nuw nsw i64 %114, 2
  %130 = getelementptr inbounds %"struct.google::protobuf::internal::RepeatedPtrFieldBase::Rep", %"struct.google::protobuf::internal::RepeatedPtrFieldBase::Rep"* %107, i64 0, i32 1, i64 %116
  %131 = load i8*, i8** %130, align 8
  %132 = getelementptr inbounds i8, i8* %131, i64 23
  %133 = load i8, i8* %132, align 1
  %134 = icmp slt i8 %133, 0
  br i1 %134, label %207, label %206

135:                                              ; preds = %212, %105
  %136 = phi i64 [ 0, %105 ], [ %129, %212 ]
  %137 = icmp eq i64 %109, 0
  br i1 %137, label %150, label %138

138:                                              ; preds = %135
  %139 = getelementptr inbounds %"struct.google::protobuf::internal::RepeatedPtrFieldBase::Rep", %"struct.google::protobuf::internal::RepeatedPtrFieldBase::Rep"* %107, i64 0, i32 1, i64 %136
  %140 = load i8*, i8** %139, align 8
  %141 = getelementptr inbounds i8, i8* %140, i64 23
  %142 = load i8, i8* %141, align 1
  %143 = icmp slt i8 %142, 0
  br i1 %143, label %145, label %144

144:                                              ; preds = %138
  store i8 0, i8* %140, align 1
  store i8 0, i8* %141, align 1
  br label %150

145:                                              ; preds = %138
  %146 = bitcast i8* %140 to i8**
  %147 = load i8*, i8** %146, align 8
  store i8 0, i8* %147, align 1
  %148 = getelementptr inbounds i8, i8* %140, i64 8
  %149 = bitcast i8* %148 to i64*
  store i64 0, i64* %149, align 8
  br label %150

150:                                              ; preds = %145, %144, %135
  store i32 0, i32* %102, align 8
  br label %151

151:                                              ; preds = %101, %150
  %152 = getelementptr inbounds %"class.perfetto::protos::FtraceConfig", %"class.perfetto::protos::FtraceConfig"* %0, i64 0, i32 1, i32 0, i64 0
  %153 = load i32, i32* %152, align 4
  %154 = and i32 %153, 1
  %155 = icmp eq i32 %154, 0
  br i1 %155, label %180, label %156

156:                                              ; preds = %151
  %157 = getelementptr inbounds %"class.perfetto::protos::FtraceConfig", %"class.perfetto::protos::FtraceConfig"* %0, i64 0, i32 6
  %158 = load %"class.perfetto::protos::FtraceConfig_CompactSchedConfig"*, %"class.perfetto::protos::FtraceConfig_CompactSchedConfig"** %157, align 8
  %159 = getelementptr inbounds %"class.perfetto::protos::FtraceConfig_CompactSchedConfig", %"class.perfetto::protos::FtraceConfig_CompactSchedConfig"* %158, i64 0, i32 3
  store i8 0, i8* %159, align 8
  %160 = getelementptr inbounds %"class.perfetto::protos::FtraceConfig_CompactSchedConfig", %"class.perfetto::protos::FtraceConfig_CompactSchedConfig"* %158, i64 0, i32 1, i32 0, i64 0
  store i32 0, i32* %160, align 4
  %161 = getelementptr inbounds %"class.perfetto::protos::FtraceConfig_CompactSchedConfig", %"class.perfetto::protos::FtraceConfig_CompactSchedConfig"* %158, i64 0, i32 0, i32 1
  %162 = bitcast %"class.google::protobuf::internal::InternalMetadata"* %161 to i64*
  %163 = load i64, i64* %162, align 8
  %164 = and i64 %163, 1
  %165 = icmp eq i64 %164, 0
  br i1 %165, label %180, label %166

166:                                              ; preds = %156
  %167 = and i64 %163, -2
  %168 = inttoptr i64 %167 to %"struct.google::protobuf::internal::InternalMetadata::Container"*
  %169 = getelementptr inbounds %"struct.google::protobuf::internal::InternalMetadata::Container", %"struct.google::protobuf::internal::InternalMetadata::Container"* %168, i64 0, i32 1
  %170 = bitcast %"class.std::__1::basic_string"* %169 to %"struct.std::__1::basic_string<char, std::__1::char_traits<char>, std::__1::allocator<char> >::__short"*
  %171 = getelementptr inbounds %"struct.std::__1::basic_string<char, std::__1::char_traits<char>, std::__1::allocator<char> >::__short", %"struct.std::__1::basic_string<char, std::__1::char_traits<char>, std::__1::allocator<char> >::__short"* %170, i64 0, i32 1, i32 0
  %172 = load i8, i8* %171, align 1
  %173 = icmp slt i8 %172, 0
  br i1 %173, label %174, label %178

174:                                              ; preds = %166
  %175 = getelementptr inbounds %"class.std::__1::basic_string", %"class.std::__1::basic_string"* %169, i64 0, i32 0, i32 0, i32 0, i32 0, i32 0, i32 0
  %176 = load i8*, i8** %175, align 8
  store i8 0, i8* %176, align 1
  %177 = getelementptr inbounds %"struct.google::protobuf::internal::InternalMetadata::Container", %"struct.google::protobuf::internal::InternalMetadata::Container"* %168, i64 0, i32 1, i32 0, i32 0, i32 0, i32 0, i32 0, i32 1
  store i64 0, i64* %177, align 8
  br label %180

178:                                              ; preds = %166
  %179 = bitcast %"class.std::__1::basic_string"* %169 to i8*
  store i8 0, i8* %179, align 2
  store i8 0, i8* %171, align 1
  br label %180

180:                                              ; preds = %178, %174, %156, %151
  %181 = and i32 %153, 30
  %182 = icmp eq i32 %181, 0
  br i1 %182, label %185, label %183

183:                                              ; preds = %180
  %184 = getelementptr inbounds %"class.perfetto::protos::FtraceConfig", %"class.perfetto::protos::FtraceConfig"* %0, i64 0, i32 7
  tail call void @llvm.memset.p0i8.i64(i8* align 8 %184, i8 0, i64 12, i1 false)
  br label %185

185:                                              ; preds = %180, %183
  store i32 0, i32* %152, align 4
  %186 = getelementptr inbounds %"class.perfetto::protos::FtraceConfig", %"class.perfetto::protos::FtraceConfig"* %0, i64 0, i32 0, i32 1
  %187 = bitcast %"class.google::protobuf::internal::InternalMetadata"* %186 to i64*
  %188 = load i64, i64* %187, align 8
  %189 = and i64 %188, 1
  %190 = icmp eq i64 %189, 0
  br i1 %190, label %205, label %191

191:                                              ; preds = %185
  %192 = and i64 %188, -2
  %193 = inttoptr i64 %192 to %"struct.google::protobuf::internal::InternalMetadata::Container"*
  %194 = getelementptr inbounds %"struct.google::protobuf::internal::InternalMetadata::Container", %"struct.google::protobuf::internal::InternalMetadata::Container"* %193, i64 0, i32 1
  %195 = bitcast %"class.std::__1::basic_string"* %194 to %"struct.std::__1::basic_string<char, std::__1::char_traits<char>, std::__1::allocator<char> >::__short"*
  %196 = getelementptr inbounds %"struct.std::__1::basic_string<char, std::__1::char_traits<char>, std::__1::allocator<char> >::__short", %"struct.std::__1::basic_string<char, std::__1::char_traits<char>, std::__1::allocator<char> >::__short"* %195, i64 0, i32 1, i32 0
  %197 = load i8, i8* %196, align 1
  %198 = icmp slt i8 %197, 0
  br i1 %198, label %199, label %203

199:                                              ; preds = %191
  %200 = getelementptr inbounds %"class.std::__1::basic_string", %"class.std::__1::basic_string"* %194, i64 0, i32 0, i32 0, i32 0, i32 0, i32 0, i32 0
  %201 = load i8*, i8** %200, align 8
  store i8 0, i8* %201, align 1
  %202 = getelementptr inbounds %"struct.google::protobuf::internal::InternalMetadata::Container", %"struct.google::protobuf::internal::InternalMetadata::Container"* %193, i64 0, i32 1, i32 0, i32 0, i32 0, i32 0, i32 0, i32 1
  store i64 0, i64* %202, align 8
  br label %205

203:                                              ; preds = %191
  %204 = bitcast %"class.std::__1::basic_string"* %194 to i8*
  store i8 0, i8* %204, align 2
  store i8 0, i8* %196, align 1
  br label %205

205:                                              ; preds = %185, %199, %203
  ret void

206:                                              ; preds = %128
  store i8 0, i8* %131, align 1
  store i8 0, i8* %132, align 1
  br label %212

207:                                              ; preds = %128
  %208 = bitcast i8* %131 to i8**
  %209 = load i8*, i8** %208, align 8
  store i8 0, i8* %209, align 1
  %210 = getelementptr inbounds i8, i8* %131, i64 8
  %211 = bitcast i8* %210 to i64*
  store i64 0, i64* %211, align 8
  br label %212

212:                                              ; preds = %207, %206
  %213 = add i64 %115, -2
  %214 = icmp eq i64 %213, 0
  br i1 %214, label %135, label %113

215:                                              ; preds = %78
  store i8 0, i8* %81, align 1
  store i8 0, i8* %82, align 1
  br label %221

216:                                              ; preds = %78
  %217 = bitcast i8* %81 to i8**
  %218 = load i8*, i8** %217, align 8
  store i8 0, i8* %218, align 1
  %219 = getelementptr inbounds i8, i8* %81, i64 8
  %220 = bitcast i8* %219 to i64*
  store i64 0, i64* %220, align 8
  br label %221

221:                                              ; preds = %216, %215
  %222 = add i64 %65, -2
  %223 = icmp eq i64 %222, 0
  br i1 %223, label %85, label %63

224:                                              ; preds = %28
  store i8 0, i8* %31, align 1
  store i8 0, i8* %32, align 1
  br label %230

225:                                              ; preds = %28
  %226 = bitcast i8* %31 to i8**
  %227 = load i8*, i8** %226, align 8
  store i8 0, i8* %227, align 1
  %228 = getelementptr inbounds i8, i8* %31, i64 8
  %229 = bitcast i8* %228 to i64*
  store i64 0, i64* %229, align 8
  br label %230

230:                                              ; preds = %225, %224
  %231 = add i64 %15, -2
  %232 = icmp eq i64 %231, 0
  br i1 %232, label %35, label %13
}

; Function Attrs: argmemonly nounwind
declare void @llvm.memset.p0i8.i64(i8* nocapture writeonly, i8, i64, i1 immarg) #2

; Function Attrs: nounwind ssp uwtable
define hidden i8* @_ZN8perfetto6protos12FtraceConfig14_InternalParseEPKcPN6google8protobuf8internal12ParseContextE(%"class.perfetto::protos::FtraceConfig"*, i8*, %"class.google::protobuf::internal::ParseContext"*) unnamed_addr #0 align 2 {
  %4 = getelementptr inbounds %"class.google::protobuf::internal::ParseContext", %"class.google::protobuf::internal::ParseContext"* %2, i64 0, i32 0
  %5 = getelementptr inbounds %"class.google::protobuf::internal::ParseContext", %"class.google::protobuf::internal::ParseContext"* %2, i64 0, i32 2
  %6 = getelementptr inbounds %"class.google::protobuf::internal::ParseContext", %"class.google::protobuf::internal::ParseContext"* %2, i64 0, i32 0, i32 0
  %7 = getelementptr inbounds %"class.google::protobuf::internal::ParseContext", %"class.google::protobuf::internal::ParseContext"* %2, i64 0, i32 0, i32 1
  %8 = bitcast i8** %7 to i64*
  %9 = getelementptr inbounds %"class.google::protobuf::internal::ParseContext", %"class.google::protobuf::internal::ParseContext"* %2, i64 0, i32 0, i32 4
  %10 = getelementptr inbounds %"class.perfetto::protos::FtraceConfig", %"class.perfetto::protos::FtraceConfig"* %0, i64 0, i32 8
  %11 = getelementptr inbounds %"class.perfetto::protos::FtraceConfig", %"class.perfetto::protos::FtraceConfig"* %0, i64 0, i32 7
  %12 = getelementptr inbounds %"class.perfetto::protos::FtraceConfig", %"class.perfetto::protos::FtraceConfig"* %0, i64 0, i32 1, i32 0, i64 0
  %13 = getelementptr inbounds %"class.perfetto::protos::FtraceConfig", %"class.perfetto::protos::FtraceConfig"* %0, i64 0, i32 6
  %14 = getelementptr inbounds %"class.perfetto::protos::FtraceConfig", %"class.perfetto::protos::FtraceConfig"* %0, i64 0, i32 0, i32 1
  %15 = bitcast %"class.google::protobuf::internal::InternalMetadata"* %14 to i64*
  %16 = getelementptr inbounds %"class.perfetto::protos::FtraceConfig", %"class.perfetto::protos::FtraceConfig"* %0, i64 0, i32 11
  %17 = getelementptr inbounds %"class.perfetto::protos::FtraceConfig", %"class.perfetto::protos::FtraceConfig"* %0, i64 0, i32 10
  %18 = getelementptr inbounds %"class.perfetto::protos::FtraceConfig", %"class.perfetto::protos::FtraceConfig"* %0, i64 0, i32 5
  %19 = getelementptr inbounds %"class.google::protobuf::RepeatedPtrField", %"class.google::protobuf::RepeatedPtrField"* %18, i64 0, i32 0
  %20 = getelementptr inbounds %"class.perfetto::protos::FtraceConfig", %"class.perfetto::protos::FtraceConfig"* %0, i64 0, i32 5, i32 0, i32 3
  %21 = getelementptr inbounds %"class.perfetto::protos::FtraceConfig", %"class.perfetto::protos::FtraceConfig"* %0, i64 0, i32 5, i32 0, i32 1
  %22 = getelementptr inbounds %"class.perfetto::protos::FtraceConfig", %"class.perfetto::protos::FtraceConfig"* %0, i64 0, i32 5, i32 0, i32 2
  %23 = getelementptr inbounds %"class.google::protobuf::RepeatedPtrField", %"class.google::protobuf::RepeatedPtrField"* %18, i64 0, i32 0, i32 0
  %24 = getelementptr inbounds %"class.perfetto::protos::FtraceConfig", %"class.perfetto::protos::FtraceConfig"* %0, i64 0, i32 4
  %25 = getelementptr inbounds %"class.google::protobuf::RepeatedPtrField", %"class.google::protobuf::RepeatedPtrField"* %24, i64 0, i32 0
  %26 = getelementptr inbounds %"class.perfetto::protos::FtraceConfig", %"class.perfetto::protos::FtraceConfig"* %0, i64 0, i32 4, i32 0, i32 3
  %27 = getelementptr inbounds %"class.perfetto::protos::FtraceConfig", %"class.perfetto::protos::FtraceConfig"* %0, i64 0, i32 4, i32 0, i32 1
  %28 = getelementptr inbounds %"class.perfetto::protos::FtraceConfig", %"class.perfetto::protos::FtraceConfig"* %0, i64 0, i32 4, i32 0, i32 2
  %29 = getelementptr inbounds %"class.google::protobuf::RepeatedPtrField", %"class.google::protobuf::RepeatedPtrField"* %24, i64 0, i32 0, i32 0
  %30 = getelementptr inbounds %"class.perfetto::protos::FtraceConfig", %"class.perfetto::protos::FtraceConfig"* %0, i64 0, i32 3
  %31 = getelementptr inbounds %"class.google::protobuf::RepeatedPtrField", %"class.google::protobuf::RepeatedPtrField"* %30, i64 0, i32 0
  %32 = getelementptr inbounds %"class.perfetto::protos::FtraceConfig", %"class.perfetto::protos::FtraceConfig"* %0, i64 0, i32 3, i32 0, i32 3
  %33 = getelementptr inbounds %"class.perfetto::protos::FtraceConfig", %"class.perfetto::protos::FtraceConfig"* %0, i64 0, i32 3, i32 0, i32 1
  %34 = getelementptr inbounds %"class.perfetto::protos::FtraceConfig", %"class.perfetto::protos::FtraceConfig"* %0, i64 0, i32 3, i32 0, i32 2
  %35 = getelementptr inbounds %"class.google::protobuf::RepeatedPtrField", %"class.google::protobuf::RepeatedPtrField"* %30, i64 0, i32 0, i32 0
  br label %36

36:                                               ; preds = %442, %3
  %37 = phi i8* [ %1, %3 ], [ %443, %442 ]
  %38 = phi i32 [ 0, %3 ], [ %444, %442 ]
  %39 = load i32, i32* %5, align 4
  %40 = load i8*, i8** %6, align 8
  %41 = icmp ult i8* %37, %40
  br i1 %41, label %55, label %42, !prof !2

42:                                               ; preds = %36
  %43 = load i64, i64* %8, align 8
  %44 = ptrtoint i8* %37 to i64
  %45 = sub i64 %44, %43
  %46 = load i32, i32* %9, align 4
  %47 = sext i32 %46 to i64
  %48 = icmp eq i64 %45, %47
  br i1 %48, label %445, label %49

49:                                               ; preds = %42
  %50 = tail call { i8*, i8 } @_ZN6google8protobuf8internal18EpsCopyInputStream12DoneFallbackEPKci(%"class.google::protobuf::internal::EpsCopyInputStream"* %4, i8* %37, i32 %39) #13
  %51 = extractvalue { i8*, i8 } %50, 0
  %52 = extractvalue { i8*, i8 } %50, 1
  %53 = and i8 %52, 1
  %54 = icmp eq i8 %53, 0
  br i1 %54, label %55, label %445

55:                                               ; preds = %49, %36
  %56 = phi i8* [ %51, %49 ], [ %37, %36 ]
  %57 = load i8, i8* %56, align 1
  %58 = zext i8 %57 to i32
  %59 = icmp sgt i8 %57, -1
  %60 = getelementptr inbounds i8, i8* %56, i64 1
  br i1 %59, label %74, label %61

61:                                               ; preds = %55
  %62 = load i8, i8* %60, align 1
  %63 = zext i8 %62 to i32
  %64 = shl nuw nsw i32 %63, 7
  %65 = add nsw i32 %58, -128
  %66 = add nsw i32 %65, %64
  %67 = icmp sgt i8 %62, -1
  br i1 %67, label %68, label %70

68:                                               ; preds = %61
  %69 = getelementptr inbounds i8, i8* %56, i64 2
  br label %74

70:                                               ; preds = %61
  %71 = tail call { i8*, i32 } @_ZN6google8protobuf8internal15ReadTagFallbackEPKcj(i8* %56, i32 %66) #13
  %72 = extractvalue { i8*, i32 } %71, 0
  %73 = extractvalue { i8*, i32 } %71, 1
  br label %74

74:                                               ; preds = %55, %68, %70
  %75 = phi i32 [ %66, %68 ], [ %73, %70 ], [ %58, %55 ]
  %76 = phi i8* [ %69, %68 ], [ %72, %70 ], [ %60, %55 ]
  %77 = icmp eq i8* %76, null
  br i1 %77, label %445, label %78, !prof !4

78:                                               ; preds = %74
  %79 = lshr i32 %75, 3
  switch i32 %79, label %420 [
    i32 1, label %80
    i32 2, label %146
    i32 3, label %212
    i32 10, label %278
    i32 11, label %304
    i32 12, label %330
    i32 13, label %356
    i32 14, label %388
  ]

80:                                               ; preds = %78
  %81 = and i32 %75, 255
  %82 = icmp eq i32 %81, 10
  br i1 %82, label %83, label %420, !prof !2

83:                                               ; preds = %80
  %84 = getelementptr inbounds i8, i8* %76, i64 -1
  br label %85

85:                                               ; preds = %143, %83
  %86 = phi i8* [ %84, %83 ], [ %138, %143 ]
  %87 = getelementptr inbounds i8, i8* %86, i64 1
  %88 = load %"struct.google::protobuf::internal::RepeatedPtrFieldBase::Rep"*, %"struct.google::protobuf::internal::RepeatedPtrFieldBase::Rep"** %32, align 8
  %89 = icmp eq %"struct.google::protobuf::internal::RepeatedPtrFieldBase::Rep"* %88, null
  br i1 %89, label %90, label %92

90:                                               ; preds = %85
  %91 = load i32, i32* %34, align 4
  br label %105

92:                                               ; preds = %85
  %93 = load i32, i32* %33, align 8
  %94 = getelementptr inbounds %"struct.google::protobuf::internal::RepeatedPtrFieldBase::Rep", %"struct.google::protobuf::internal::RepeatedPtrFieldBase::Rep"* %88, i64 0, i32 0
  %95 = load i32, i32* %94, align 8
  %96 = icmp slt i32 %93, %95
  br i1 %96, label %97, label %102

97:                                               ; preds = %92
  %98 = add nsw i32 %93, 1
  store i32 %98, i32* %33, align 8
  %99 = sext i32 %93 to i64
  %100 = getelementptr inbounds %"struct.google::protobuf::internal::RepeatedPtrFieldBase::Rep", %"struct.google::protobuf::internal::RepeatedPtrFieldBase::Rep"* %88, i64 0, i32 1, i64 %99
  %101 = load i8*, i8** %100, align 8
  br label %135

102:                                              ; preds = %92
  %103 = load i32, i32* %34, align 4
  %104 = icmp eq i32 %95, %103
  br i1 %104, label %105, label %111

105:                                              ; preds = %102, %90
  %106 = phi i32 [ %91, %90 ], [ %95, %102 ]
  %107 = add nsw i32 %106, 1
  tail call void @_ZN6google8protobuf8internal20RepeatedPtrFieldBase7ReserveEi(%"class.google::protobuf::internal::RepeatedPtrFieldBase"* %31, i32 %107) #13
  %108 = load %"struct.google::protobuf::internal::RepeatedPtrFieldBase::Rep"*, %"struct.google::protobuf::internal::RepeatedPtrFieldBase::Rep"** %32, align 8
  %109 = getelementptr inbounds %"struct.google::protobuf::internal::RepeatedPtrFieldBase::Rep", %"struct.google::protobuf::internal::RepeatedPtrFieldBase::Rep"* %108, i64 0, i32 0
  %110 = load i32, i32* %109, align 8
  br label %111

111:                                              ; preds = %105, %102
  %112 = phi i32 [ %110, %105 ], [ %95, %102 ]
  %113 = phi %"struct.google::protobuf::internal::RepeatedPtrFieldBase::Rep"* [ %108, %105 ], [ %88, %102 ]
  %114 = getelementptr inbounds %"struct.google::protobuf::internal::RepeatedPtrFieldBase::Rep", %"struct.google::protobuf::internal::RepeatedPtrFieldBase::Rep"* %113, i64 0, i32 0
  %115 = add nsw i32 %112, 1
  store i32 %115, i32* %114, align 8
  %116 = load %"class.google::protobuf::Arena"*, %"class.google::protobuf::Arena"** %35, align 8
  %117 = icmp eq %"class.google::protobuf::Arena"* %116, null
  br i1 %117, label %118, label %120

118:                                              ; preds = %111
  %119 = tail call i8* @_Znwm(i64 24) #14
  tail call void @llvm.memset.p0i8.i64(i8* nonnull align 8 %119, i8 0, i64 24, i1 false) #13
  br label %128

120:                                              ; preds = %111
  %121 = getelementptr inbounds %"class.google::protobuf::Arena", %"class.google::protobuf::Arena"* %116, i64 0, i32 4
  %122 = load i8*, i8** %121, align 8
  %123 = icmp eq i8* %122, null
  br i1 %123, label %125, label %124, !prof !2

124:                                              ; preds = %120
  tail call void @_ZNK6google8protobuf5Arena17OnArenaAllocationEPKSt9type_infom(%"class.google::protobuf::Arena"* nonnull %116, %"class.std::type_info"* null, i64 24) #13
  br label %125

125:                                              ; preds = %124, %120
  %126 = getelementptr inbounds %"class.google::protobuf::Arena", %"class.google::protobuf::Arena"* %116, i64 0, i32 0
  %127 = tail call i8* @_ZN6google8protobuf8internal9ArenaImpl28AllocateAlignedAndAddCleanupEmPFvPvE(%"class.google::protobuf::internal::ArenaImpl"* %126, i64 24, void (i8*)* nonnull @_ZN6google8protobuf8internal21arena_destruct_objectINSt3__112basic_stringIcNS3_11char_traitsIcEENS3_9allocatorIcEEEEEEvPv) #13
  tail call void @llvm.memset.p0i8.i64(i8* align 8 %127, i8 0, i64 24, i1 false) #13
  br label %128

128:                                              ; preds = %125, %118
  %129 = phi i8* [ %119, %118 ], [ %127, %125 ]
  %130 = load %"struct.google::protobuf::internal::RepeatedPtrFieldBase::Rep"*, %"struct.google::protobuf::internal::RepeatedPtrFieldBase::Rep"** %32, align 8
  %131 = load i32, i32* %33, align 8
  %132 = add nsw i32 %131, 1
  store i32 %132, i32* %33, align 8
  %133 = sext i32 %131 to i64
  %134 = getelementptr inbounds %"struct.google::protobuf::internal::RepeatedPtrFieldBase::Rep", %"struct.google::protobuf::internal::RepeatedPtrFieldBase::Rep"* %130, i64 0, i32 1, i64 %133
  store i8* %129, i8** %134, align 8
  br label %135

135:                                              ; preds = %97, %128
  %136 = phi i8* [ %101, %97 ], [ %129, %128 ]
  %137 = bitcast i8* %136 to %"class.std::__1::basic_string"*
  %138 = tail call i8* @_ZN6google8protobuf8internal24InlineGreedyStringParserEPNSt3__112basic_stringIcNS2_11char_traitsIcEENS2_9allocatorIcEEEEPKcPNS1_12ParseContextE(%"class.std::__1::basic_string"* %137, i8* %87, %"class.google::protobuf::internal::ParseContext"* %2) #13
  %139 = icmp eq i8* %138, null
  br i1 %139, label %445, label %140, !prof !4

140:                                              ; preds = %135
  %141 = load i8*, i8** %6, align 8
  %142 = icmp ugt i8* %141, %138
  br i1 %142, label %143, label %442

143:                                              ; preds = %140
  %144 = load i8, i8* %138, align 1
  %145 = icmp eq i8 %144, 10
  br i1 %145, label %85, label %442

146:                                              ; preds = %78
  %147 = and i32 %75, 255
  %148 = icmp eq i32 %147, 18
  br i1 %148, label %149, label %420, !prof !2

149:                                              ; preds = %146
  %150 = getelementptr inbounds i8, i8* %76, i64 -1
  br label %151

151:                                              ; preds = %209, %149
  %152 = phi i8* [ %150, %149 ], [ %204, %209 ]
  %153 = getelementptr inbounds i8, i8* %152, i64 1
  %154 = load %"struct.google::protobuf::internal::RepeatedPtrFieldBase::Rep"*, %"struct.google::protobuf::internal::RepeatedPtrFieldBase::Rep"** %26, align 8
  %155 = icmp eq %"struct.google::protobuf::internal::RepeatedPtrFieldBase::Rep"* %154, null
  br i1 %155, label %156, label %158

156:                                              ; preds = %151
  %157 = load i32, i32* %28, align 4
  br label %171

158:                                              ; preds = %151
  %159 = load i32, i32* %27, align 8
  %160 = getelementptr inbounds %"struct.google::protobuf::internal::RepeatedPtrFieldBase::Rep", %"struct.google::protobuf::internal::RepeatedPtrFieldBase::Rep"* %154, i64 0, i32 0
  %161 = load i32, i32* %160, align 8
  %162 = icmp slt i32 %159, %161
  br i1 %162, label %163, label %168

163:                                              ; preds = %158
  %164 = add nsw i32 %159, 1
  store i32 %164, i32* %27, align 8
  %165 = sext i32 %159 to i64
  %166 = getelementptr inbounds %"struct.google::protobuf::internal::RepeatedPtrFieldBase::Rep", %"struct.google::protobuf::internal::RepeatedPtrFieldBase::Rep"* %154, i64 0, i32 1, i64 %165
  %167 = load i8*, i8** %166, align 8
  br label %201

168:                                              ; preds = %158
  %169 = load i32, i32* %28, align 4
  %170 = icmp eq i32 %161, %169
  br i1 %170, label %171, label %177

171:                                              ; preds = %168, %156
  %172 = phi i32 [ %157, %156 ], [ %161, %168 ]
  %173 = add nsw i32 %172, 1
  tail call void @_ZN6google8protobuf8internal20RepeatedPtrFieldBase7ReserveEi(%"class.google::protobuf::internal::RepeatedPtrFieldBase"* %25, i32 %173) #13
  %174 = load %"struct.google::protobuf::internal::RepeatedPtrFieldBase::Rep"*, %"struct.google::protobuf::internal::RepeatedPtrFieldBase::Rep"** %26, align 8
  %175 = getelementptr inbounds %"struct.google::protobuf::internal::RepeatedPtrFieldBase::Rep", %"struct.google::protobuf::internal::RepeatedPtrFieldBase::Rep"* %174, i64 0, i32 0
  %176 = load i32, i32* %175, align 8
  br label %177

177:                                              ; preds = %171, %168
  %178 = phi i32 [ %176, %171 ], [ %161, %168 ]
  %179 = phi %"struct.google::protobuf::internal::RepeatedPtrFieldBase::Rep"* [ %174, %171 ], [ %154, %168 ]
  %180 = getelementptr inbounds %"struct.google::protobuf::internal::RepeatedPtrFieldBase::Rep", %"struct.google::protobuf::internal::RepeatedPtrFieldBase::Rep"* %179, i64 0, i32 0
  %181 = add nsw i32 %178, 1
  store i32 %181, i32* %180, align 8
  %182 = load %"class.google::protobuf::Arena"*, %"class.google::protobuf::Arena"** %29, align 8
  %183 = icmp eq %"class.google::protobuf::Arena"* %182, null
  br i1 %183, label %184, label %186

184:                                              ; preds = %177
  %185 = tail call i8* @_Znwm(i64 24) #14
  tail call void @llvm.memset.p0i8.i64(i8* nonnull align 8 %185, i8 0, i64 24, i1 false) #13
  br label %194

186:                                              ; preds = %177
  %187 = getelementptr inbounds %"class.google::protobuf::Arena", %"class.google::protobuf::Arena"* %182, i64 0, i32 4
  %188 = load i8*, i8** %187, align 8
  %189 = icmp eq i8* %188, null
  br i1 %189, label %191, label %190, !prof !2

190:                                              ; preds = %186
  tail call void @_ZNK6google8protobuf5Arena17OnArenaAllocationEPKSt9type_infom(%"class.google::protobuf::Arena"* nonnull %182, %"class.std::type_info"* null, i64 24) #13
  br label %191

191:                                              ; preds = %190, %186
  %192 = getelementptr inbounds %"class.google::protobuf::Arena", %"class.google::protobuf::Arena"* %182, i64 0, i32 0
  %193 = tail call i8* @_ZN6google8protobuf8internal9ArenaImpl28AllocateAlignedAndAddCleanupEmPFvPvE(%"class.google::protobuf::internal::ArenaImpl"* %192, i64 24, void (i8*)* nonnull @_ZN6google8protobuf8internal21arena_destruct_objectINSt3__112basic_stringIcNS3_11char_traitsIcEENS3_9allocatorIcEEEEEEvPv) #13
  tail call void @llvm.memset.p0i8.i64(i8* align 8 %193, i8 0, i64 24, i1 false) #13
  br label %194

194:                                              ; preds = %191, %184
  %195 = phi i8* [ %185, %184 ], [ %193, %191 ]
  %196 = load %"struct.google::protobuf::internal::RepeatedPtrFieldBase::Rep"*, %"struct.google::protobuf::internal::RepeatedPtrFieldBase::Rep"** %26, align 8
  %197 = load i32, i32* %27, align 8
  %198 = add nsw i32 %197, 1
  store i32 %198, i32* %27, align 8
  %199 = sext i32 %197 to i64
  %200 = getelementptr inbounds %"struct.google::protobuf::internal::RepeatedPtrFieldBase::Rep", %"struct.google::protobuf::internal::RepeatedPtrFieldBase::Rep"* %196, i64 0, i32 1, i64 %199
  store i8* %195, i8** %200, align 8
  br label %201

201:                                              ; preds = %163, %194
  %202 = phi i8* [ %167, %163 ], [ %195, %194 ]
  %203 = bitcast i8* %202 to %"class.std::__1::basic_string"*
  %204 = tail call i8* @_ZN6google8protobuf8internal24InlineGreedyStringParserEPNSt3__112basic_stringIcNS2_11char_traitsIcEENS2_9allocatorIcEEEEPKcPNS1_12ParseContextE(%"class.std::__1::basic_string"* %203, i8* %153, %"class.google::protobuf::internal::ParseContext"* %2) #13
  %205 = icmp eq i8* %204, null
  br i1 %205, label %445, label %206, !prof !4

206:                                              ; preds = %201
  %207 = load i8*, i8** %6, align 8
  %208 = icmp ugt i8* %207, %204
  br i1 %208, label %209, label %442

209:                                              ; preds = %206
  %210 = load i8, i8* %204, align 1
  %211 = icmp eq i8 %210, 18
  br i1 %211, label %151, label %442

212:                                              ; preds = %78
  %213 = and i32 %75, 255
  %214 = icmp eq i32 %213, 26
  br i1 %214, label %215, label %420, !prof !2

215:                                              ; preds = %212
  %216 = getelementptr inbounds i8, i8* %76, i64 -1
  br label %217

217:                                              ; preds = %275, %215
  %218 = phi i8* [ %216, %215 ], [ %270, %275 ]
  %219 = getelementptr inbounds i8, i8* %218, i64 1
  %220 = load %"struct.google::protobuf::internal::RepeatedPtrFieldBase::Rep"*, %"struct.google::protobuf::internal::RepeatedPtrFieldBase::Rep"** %20, align 8
  %221 = icmp eq %"struct.google::protobuf::internal::RepeatedPtrFieldBase::Rep"* %220, null
  br i1 %221, label %222, label %224

222:                                              ; preds = %217
  %223 = load i32, i32* %22, align 4
  br label %237

224:                                              ; preds = %217
  %225 = load i32, i32* %21, align 8
  %226 = getelementptr inbounds %"struct.google::protobuf::internal::RepeatedPtrFieldBase::Rep", %"struct.google::protobuf::internal::RepeatedPtrFieldBase::Rep"* %220, i64 0, i32 0
  %227 = load i32, i32* %226, align 8
  %228 = icmp slt i32 %225, %227
  br i1 %228, label %229, label %234

229:                                              ; preds = %224
  %230 = add nsw i32 %225, 1
  store i32 %230, i32* %21, align 8
  %231 = sext i32 %225 to i64
  %232 = getelementptr inbounds %"struct.google::protobuf::internal::RepeatedPtrFieldBase::Rep", %"struct.google::protobuf::internal::RepeatedPtrFieldBase::Rep"* %220, i64 0, i32 1, i64 %231
  %233 = load i8*, i8** %232, align 8
  br label %267

234:                                              ; preds = %224
  %235 = load i32, i32* %22, align 4
  %236 = icmp eq i32 %227, %235
  br i1 %236, label %237, label %243

237:                                              ; preds = %234, %222
  %238 = phi i32 [ %223, %222 ], [ %227, %234 ]
  %239 = add nsw i32 %238, 1
  tail call void @_ZN6google8protobuf8internal20RepeatedPtrFieldBase7ReserveEi(%"class.google::protobuf::internal::RepeatedPtrFieldBase"* %19, i32 %239) #13
  %240 = load %"struct.google::protobuf::internal::RepeatedPtrFieldBase::Rep"*, %"struct.google::protobuf::internal::RepeatedPtrFieldBase::Rep"** %20, align 8
  %241 = getelementptr inbounds %"struct.google::protobuf::internal::RepeatedPtrFieldBase::Rep", %"struct.google::protobuf::internal::RepeatedPtrFieldBase::Rep"* %240, i64 0, i32 0
  %242 = load i32, i32* %241, align 8
  br label %243

243:                                              ; preds = %237, %234
  %244 = phi i32 [ %242, %237 ], [ %227, %234 ]
  %245 = phi %"struct.google::protobuf::internal::RepeatedPtrFieldBase::Rep"* [ %240, %237 ], [ %220, %234 ]
  %246 = getelementptr inbounds %"struct.google::protobuf::internal::RepeatedPtrFieldBase::Rep", %"struct.google::protobuf::internal::RepeatedPtrFieldBase::Rep"* %245, i64 0, i32 0
  %247 = add nsw i32 %244, 1
  store i32 %247, i32* %246, align 8
  %248 = load %"class.google::protobuf::Arena"*, %"class.google::protobuf::Arena"** %23, align 8
  %249 = icmp eq %"class.google::protobuf::Arena"* %248, null
  br i1 %249, label %250, label %252

250:                                              ; preds = %243
  %251 = tail call i8* @_Znwm(i64 24) #14
  tail call void @llvm.memset.p0i8.i64(i8* nonnull align 8 %251, i8 0, i64 24, i1 false) #13
  br label %260

252:                                              ; preds = %243
  %253 = getelementptr inbounds %"class.google::protobuf::Arena", %"class.google::protobuf::Arena"* %248, i64 0, i32 4
  %254 = load i8*, i8** %253, align 8
  %255 = icmp eq i8* %254, null
  br i1 %255, label %257, label %256, !prof !2

256:                                              ; preds = %252
  tail call void @_ZNK6google8protobuf5Arena17OnArenaAllocationEPKSt9type_infom(%"class.google::protobuf::Arena"* nonnull %248, %"class.std::type_info"* null, i64 24) #13
  br label %257

257:                                              ; preds = %256, %252
  %258 = getelementptr inbounds %"class.google::protobuf::Arena", %"class.google::protobuf::Arena"* %248, i64 0, i32 0
  %259 = tail call i8* @_ZN6google8protobuf8internal9ArenaImpl28AllocateAlignedAndAddCleanupEmPFvPvE(%"class.google::protobuf::internal::ArenaImpl"* %258, i64 24, void (i8*)* nonnull @_ZN6google8protobuf8internal21arena_destruct_objectINSt3__112basic_stringIcNS3_11char_traitsIcEENS3_9allocatorIcEEEEEEvPv) #13
  tail call void @llvm.memset.p0i8.i64(i8* align 8 %259, i8 0, i64 24, i1 false) #13
  br label %260

260:                                              ; preds = %257, %250
  %261 = phi i8* [ %251, %250 ], [ %259, %257 ]
  %262 = load %"struct.google::protobuf::internal::RepeatedPtrFieldBase::Rep"*, %"struct.google::protobuf::internal::RepeatedPtrFieldBase::Rep"** %20, align 8
  %263 = load i32, i32* %21, align 8
  %264 = add nsw i32 %263, 1
  store i32 %264, i32* %21, align 8
  %265 = sext i32 %263 to i64
  %266 = getelementptr inbounds %"struct.google::protobuf::internal::RepeatedPtrFieldBase::Rep", %"struct.google::protobuf::internal::RepeatedPtrFieldBase::Rep"* %262, i64 0, i32 1, i64 %265
  store i8* %261, i8** %266, align 8
  br label %267

267:                                              ; preds = %229, %260
  %268 = phi i8* [ %233, %229 ], [ %261, %260 ]
  %269 = bitcast i8* %268 to %"class.std::__1::basic_string"*
  %270 = tail call i8* @_ZN6google8protobuf8internal24InlineGreedyStringParserEPNSt3__112basic_stringIcNS2_11char_traitsIcEENS2_9allocatorIcEEEEPKcPNS1_12ParseContextE(%"class.std::__1::basic_string"* %269, i8* %219, %"class.google::protobuf::internal::ParseContext"* %2) #13
  %271 = icmp eq i8* %270, null
  br i1 %271, label %445, label %272, !prof !4

272:                                              ; preds = %267
  %273 = load i8*, i8** %6, align 8
  %274 = icmp ugt i8* %273, %270
  br i1 %274, label %275, label %442

275:                                              ; preds = %272
  %276 = load i8, i8* %270, align 1
  %277 = icmp eq i8 %276, 26
  br i1 %277, label %217, label %442

278:                                              ; preds = %78
  %279 = and i32 %75, 255
  %280 = icmp eq i32 %279, 80
  br i1 %280, label %281, label %420, !prof !2

281:                                              ; preds = %278
  %282 = or i32 %38, 8
  %283 = load i8, i8* %76, align 1
  %284 = zext i8 %283 to i32
  %285 = icmp slt i8 %283, 0
  %286 = getelementptr inbounds i8, i8* %76, i64 1
  br i1 %285, label %287, label %300

287:                                              ; preds = %281
  %288 = load i8, i8* %286, align 1
  %289 = zext i8 %288 to i32
  %290 = shl nuw nsw i32 %289, 7
  %291 = add nsw i32 %284, -128
  %292 = add nsw i32 %291, %290
  %293 = icmp slt i8 %288, 0
  br i1 %293, label %296, label %294

294:                                              ; preds = %287
  %295 = getelementptr inbounds i8, i8* %76, i64 2
  br label %300

296:                                              ; preds = %287
  %297 = tail call { i8*, i32 } @_ZN6google8protobuf8internal17VarintParseSlow32EPKcj(i8* nonnull %76, i32 %292) #13
  %298 = extractvalue { i8*, i32 } %297, 0
  %299 = extractvalue { i8*, i32 } %297, 1
  br label %300

300:                                              ; preds = %281, %294, %296
  %301 = phi i32 [ %299, %296 ], [ %292, %294 ], [ %284, %281 ]
  %302 = phi i8* [ %298, %296 ], [ %295, %294 ], [ %286, %281 ]
  store i32 %301, i32* %17, align 4
  %303 = icmp eq i8* %302, null
  br i1 %303, label %445, label %442

304:                                              ; preds = %78
  %305 = and i32 %75, 255
  %306 = icmp eq i32 %305, 88
  br i1 %306, label %307, label %420, !prof !2

307:                                              ; preds = %304
  %308 = or i32 %38, 16
  %309 = load i8, i8* %76, align 1
  %310 = zext i8 %309 to i32
  %311 = icmp slt i8 %309, 0
  %312 = getelementptr inbounds i8, i8* %76, i64 1
  br i1 %311, label %313, label %326

313:                                              ; preds = %307
  %314 = load i8, i8* %312, align 1
  %315 = zext i8 %314 to i32
  %316 = shl nuw nsw i32 %315, 7
  %317 = add nsw i32 %310, -128
  %318 = add nsw i32 %317, %316
  %319 = icmp slt i8 %314, 0
  br i1 %319, label %322, label %320

320:                                              ; preds = %313
  %321 = getelementptr inbounds i8, i8* %76, i64 2
  br label %326

322:                                              ; preds = %313
  %323 = tail call { i8*, i32 } @_ZN6google8protobuf8internal17VarintParseSlow32EPKcj(i8* nonnull %76, i32 %318) #13
  %324 = extractvalue { i8*, i32 } %323, 0
  %325 = extractvalue { i8*, i32 } %323, 1
  br label %326

326:                                              ; preds = %307, %320, %322
  %327 = phi i32 [ %325, %322 ], [ %318, %320 ], [ %310, %307 ]
  %328 = phi i8* [ %324, %322 ], [ %321, %320 ], [ %312, %307 ]
  store i32 %327, i32* %16, align 8
  %329 = icmp eq i8* %328, null
  br i1 %329, label %445, label %442

330:                                              ; preds = %78
  %331 = and i32 %75, 255
  %332 = icmp eq i32 %331, 98
  br i1 %332, label %333, label %420, !prof !2

333:                                              ; preds = %330
  %334 = load i32, i32* %12, align 4
  %335 = or i32 %334, 1
  store i32 %335, i32* %12, align 4
  %336 = load %"class.perfetto::protos::FtraceConfig_CompactSchedConfig"*, %"class.perfetto::protos::FtraceConfig_CompactSchedConfig"** %13, align 8
  %337 = icmp eq %"class.perfetto::protos::FtraceConfig_CompactSchedConfig"* %336, null
  br i1 %337, label %338, label %352

338:                                              ; preds = %333
  %339 = load i64, i64* %15, align 8
  %340 = and i64 %339, 1
  %341 = icmp eq i64 %340, 0
  %342 = and i64 %339, -2
  br i1 %341, label %347, label %343, !prof !2

343:                                              ; preds = %338
  %344 = inttoptr i64 %342 to %"struct.google::protobuf::internal::InternalMetadata::ContainerBase"*
  %345 = getelementptr inbounds %"struct.google::protobuf::internal::InternalMetadata::ContainerBase", %"struct.google::protobuf::internal::InternalMetadata::ContainerBase"* %344, i64 0, i32 0
  %346 = load %"class.google::protobuf::Arena"*, %"class.google::protobuf::Arena"** %345, align 8
  br label %349

347:                                              ; preds = %338
  %348 = inttoptr i64 %342 to %"class.google::protobuf::Arena"*
  br label %349

349:                                              ; preds = %347, %343
  %350 = phi %"class.google::protobuf::Arena"* [ %346, %343 ], [ %348, %347 ]
  %351 = tail call %"class.perfetto::protos::FtraceConfig_CompactSchedConfig"* @_ZN6google8protobuf5Arena18CreateMaybeMessageIN8perfetto6protos31FtraceConfig_CompactSchedConfigEJEEEPT_PS1_DpOT0_(%"class.google::protobuf::Arena"* %350) #13
  store %"class.perfetto::protos::FtraceConfig_CompactSchedConfig"* %351, %"class.perfetto::protos::FtraceConfig_CompactSchedConfig"** %13, align 8
  br label %352

352:                                              ; preds = %333, %349
  %353 = phi %"class.perfetto::protos::FtraceConfig_CompactSchedConfig"* [ %351, %349 ], [ %336, %333 ]
  %354 = tail call i8* @_ZN6google8protobuf8internal12ParseContext12ParseMessageIN8perfetto6protos31FtraceConfig_CompactSchedConfigEEEPKcPT_S8_(%"class.google::protobuf::internal::ParseContext"* %2, %"class.perfetto::protos::FtraceConfig_CompactSchedConfig"* %353, i8* nonnull %76)
  %355 = icmp eq i8* %354, null
  br i1 %355, label %445, label %442

356:                                              ; preds = %78
  %357 = and i32 %75, 255
  %358 = icmp eq i32 %357, 104
  br i1 %358, label %359, label %420, !prof !2

359:                                              ; preds = %356
  %360 = or i32 %38, 2
  %361 = load i8, i8* %76, align 1
  %362 = icmp slt i8 %361, 0
  br i1 %362, label %366, label %363

363:                                              ; preds = %359
  %364 = zext i8 %361 to i64
  %365 = getelementptr inbounds i8, i8* %76, i64 1
  br label %382

366:                                              ; preds = %359
  %367 = zext i8 %361 to i32
  %368 = getelementptr inbounds i8, i8* %76, i64 1
  %369 = load i8, i8* %368, align 1
  %370 = zext i8 %369 to i32
  %371 = shl nuw nsw i32 %370, 7
  %372 = add nsw i32 %367, -128
  %373 = add nuw nsw i32 %372, %371
  %374 = icmp slt i8 %369, 0
  br i1 %374, label %378, label %375

375:                                              ; preds = %366
  %376 = zext i32 %373 to i64
  %377 = getelementptr inbounds i8, i8* %76, i64 2
  br label %382

378:                                              ; preds = %366
  %379 = tail call { i8*, i64 } @_ZN6google8protobuf8internal17VarintParseSlow64EPKcj(i8* nonnull %76, i32 %373) #13
  %380 = extractvalue { i8*, i64 } %379, 0
  %381 = extractvalue { i8*, i64 } %379, 1
  br label %382

382:                                              ; preds = %363, %375, %378
  %383 = phi i64 [ %381, %378 ], [ %376, %375 ], [ %364, %363 ]
  %384 = phi i8* [ %380, %378 ], [ %377, %375 ], [ %365, %363 ]
  %385 = icmp ne i64 %383, 0
  %386 = zext i1 %385 to i8
  store i8 %386, i8* %11, align 8
  %387 = icmp eq i8* %384, null
  br i1 %387, label %445, label %442

388:                                              ; preds = %78
  %389 = and i32 %75, 255
  %390 = icmp eq i32 %389, 112
  br i1 %390, label %391, label %420, !prof !2

391:                                              ; preds = %388
  %392 = or i32 %38, 4
  %393 = load i8, i8* %76, align 1
  %394 = icmp slt i8 %393, 0
  br i1 %394, label %398, label %395

395:                                              ; preds = %391
  %396 = zext i8 %393 to i64
  %397 = getelementptr inbounds i8, i8* %76, i64 1
  br label %414

398:                                              ; preds = %391
  %399 = zext i8 %393 to i32
  %400 = getelementptr inbounds i8, i8* %76, i64 1
  %401 = load i8, i8* %400, align 1
  %402 = zext i8 %401 to i32
  %403 = shl nuw nsw i32 %402, 7
  %404 = add nsw i32 %399, -128
  %405 = add nuw nsw i32 %404, %403
  %406 = icmp slt i8 %401, 0
  br i1 %406, label %410, label %407

407:                                              ; preds = %398
  %408 = zext i32 %405 to i64
  %409 = getelementptr inbounds i8, i8* %76, i64 2
  br label %414

410:                                              ; preds = %398
  %411 = tail call { i8*, i64 } @_ZN6google8protobuf8internal17VarintParseSlow64EPKcj(i8* nonnull %76, i32 %405) #13
  %412 = extractvalue { i8*, i64 } %411, 0
  %413 = extractvalue { i8*, i64 } %411, 1
  br label %414

414:                                              ; preds = %395, %407, %410
  %415 = phi i64 [ %413, %410 ], [ %408, %407 ], [ %396, %395 ]
  %416 = phi i8* [ %412, %410 ], [ %409, %407 ], [ %397, %395 ]
  %417 = icmp ne i64 %415, 0
  %418 = zext i1 %417 to i8
  store i8 %418, i8* %10, align 1
  %419 = icmp eq i8* %416, null
  br i1 %419, label %445, label %442

420:                                              ; preds = %78, %388, %356, %330, %304, %278, %212, %146, %80
  %421 = and i32 %75, 7
  %422 = icmp eq i32 %421, 4
  %423 = icmp eq i32 %75, 0
  %424 = or i1 %423, %422
  br i1 %424, label %425, label %428

425:                                              ; preds = %420
  %426 = add i32 %75, -1
  %427 = getelementptr inbounds %"class.google::protobuf::internal::ParseContext", %"class.google::protobuf::internal::ParseContext"* %2, i64 0, i32 0, i32 8
  store i32 %426, i32* %427, align 8
  br label %445

428:                                              ; preds = %420
  %429 = load i64, i64* %15, align 8
  %430 = and i64 %429, 1
  %431 = icmp eq i64 %430, 0
  br i1 %431, label %436, label %432, !prof !4

432:                                              ; preds = %428
  %433 = and i64 %429, -2
  %434 = inttoptr i64 %433 to %"struct.google::protobuf::internal::InternalMetadata::Container"*
  %435 = getelementptr inbounds %"struct.google::protobuf::internal::InternalMetadata::Container", %"struct.google::protobuf::internal::InternalMetadata::Container"* %434, i64 0, i32 1
  br label %438

436:                                              ; preds = %428
  %437 = tail call %"class.std::__1::basic_string"* @_ZN6google8protobuf8internal16InternalMetadata27mutable_unknown_fields_slowINSt3__112basic_stringIcNS4_11char_traitsIcEENS4_9allocatorIcEEEEEEPT_v(%"class.google::protobuf::internal::InternalMetadata"* %14) #13
  br label %438

438:                                              ; preds = %432, %436
  %439 = phi %"class.std::__1::basic_string"* [ %435, %432 ], [ %437, %436 ]
  %440 = tail call i8* @_ZN6google8protobuf8internal17UnknownFieldParseEjPNSt3__112basic_stringIcNS2_11char_traitsIcEENS2_9allocatorIcEEEEPKcPNS1_12ParseContextE(i32 %75, %"class.std::__1::basic_string"* %439, i8* nonnull %76, %"class.google::protobuf::internal::ParseContext"* %2) #13
  %441 = icmp eq i8* %440, null
  br i1 %441, label %445, label %442

442:                                              ; preds = %272, %275, %206, %209, %140, %143, %438, %414, %382, %352, %326, %300
  %443 = phi i8* [ %440, %438 ], [ %416, %414 ], [ %384, %382 ], [ %354, %352 ], [ %328, %326 ], [ %302, %300 ], [ %138, %143 ], [ %138, %140 ], [ %204, %209 ], [ %204, %206 ], [ %270, %275 ], [ %270, %272 ]
  %444 = phi i32 [ %38, %438 ], [ %392, %414 ], [ %360, %382 ], [ %38, %352 ], [ %308, %326 ], [ %282, %300 ], [ %38, %143 ], [ %38, %140 ], [ %38, %209 ], [ %38, %206 ], [ %38, %275 ], [ %38, %272 ]
  br label %36

445:                                              ; preds = %49, %438, %414, %382, %352, %326, %300, %42, %74, %267, %201, %135, %425
  %446 = phi i8* [ %76, %425 ], [ null, %135 ], [ null, %201 ], [ null, %267 ], [ null, %438 ], [ null, %414 ], [ null, %382 ], [ null, %352 ], [ null, %326 ], [ null, %300 ], [ %37, %42 ], [ null, %74 ], [ %51, %49 ]
  %447 = phi i32 [ %38, %425 ], [ %38, %135 ], [ %38, %201 ], [ %38, %267 ], [ %38, %438 ], [ %392, %414 ], [ %360, %382 ], [ %38, %352 ], [ %308, %326 ], [ %282, %300 ], [ %38, %42 ], [ %38, %74 ], [ %38, %49 ]
  %448 = load i32, i32* %12, align 4
  %449 = or i32 %448, %447
  store i32 %449, i32* %12, align 4
  ret i8* %446
}

declare i8* @_ZN6google8protobuf8internal24InlineGreedyStringParserEPNSt3__112basic_stringIcNS2_11char_traitsIcEENS2_9allocatorIcEEEEPKcPNS1_12ParseContextE(%"class.std::__1::basic_string"*, i8*, %"class.google::protobuf::internal::ParseContext"*) local_unnamed_addr #6

; Function Attrs: nounwind ssp uwtable
define linkonce_odr hidden i8* @_ZN6google8protobuf8internal12ParseContext12ParseMessageIN8perfetto6protos31FtraceConfig_CompactSchedConfigEEEPKcPT_S8_(%"class.google::protobuf::internal::ParseContext"*, %"class.perfetto::protos::FtraceConfig_CompactSchedConfig"*, i8*) local_unnamed_addr #0 comdat align 2 {
  %4 = load i8, i8* %2, align 1
  %5 = zext i8 %4 to i32
  %6 = icmp sgt i8 %4, -1
  br i1 %6, label %7, label %9

7:                                                ; preds = %3
  %8 = getelementptr inbounds i8, i8* %2, i64 1
  br label %13

9:                                                ; preds = %3
  %10 = tail call { i8*, i32 } @_ZN6google8protobuf8internal16ReadSizeFallbackEPKcj(i8* %2, i32 %5) #13
  %11 = extractvalue { i8*, i32 } %10, 0
  %12 = extractvalue { i8*, i32 } %10, 1
  br label %13

13:                                               ; preds = %7, %9
  %14 = phi i8* [ %11, %9 ], [ %8, %7 ]
  %15 = phi i32 [ %12, %9 ], [ %5, %7 ]
  %16 = icmp eq i8* %14, null
  br i1 %16, label %55, label %17

17:                                               ; preds = %13
  %18 = getelementptr inbounds %"class.google::protobuf::internal::ParseContext", %"class.google::protobuf::internal::ParseContext"* %0, i64 0, i32 0, i32 1
  %19 = bitcast i8** %18 to i64*
  %20 = load i64, i64* %19, align 8
  %21 = ptrtoint i8* %14 to i64
  %22 = sub i64 %21, %20
  %23 = trunc i64 %22 to i32
  %24 = add nsw i32 %15, %23
  %25 = inttoptr i64 %20 to i8*
  %26 = icmp slt i32 %24, 0
  %27 = select i1 %26, i32 %24, i32 0
  %28 = sext i32 %27 to i64
  %29 = getelementptr inbounds i8, i8* %25, i64 %28
  %30 = getelementptr inbounds %"class.google::protobuf::internal::ParseContext", %"class.google::protobuf::internal::ParseContext"* %0, i64 0, i32 0, i32 0
  store i8* %29, i8** %30, align 8
  %31 = getelementptr inbounds %"class.google::protobuf::internal::ParseContext", %"class.google::protobuf::internal::ParseContext"* %0, i64 0, i32 0, i32 4
  %32 = load i32, i32* %31, align 4
  store i32 %24, i32* %31, align 4
  %33 = sub nsw i32 %32, %24
  %34 = getelementptr inbounds %"class.google::protobuf::internal::ParseContext", %"class.google::protobuf::internal::ParseContext"* %0, i64 0, i32 1
  %35 = load i32, i32* %34, align 8
  %36 = add nsw i32 %35, -1
  store i32 %36, i32* %34, align 8
  %37 = icmp slt i32 %35, 1
  br i1 %37, label %55, label %38

38:                                               ; preds = %17
  %39 = tail call i8* @_ZN8perfetto6protos31FtraceConfig_CompactSchedConfig14_InternalParseEPKcPN6google8protobuf8internal12ParseContextE(%"class.perfetto::protos::FtraceConfig_CompactSchedConfig"* %1, i8* nonnull %14, %"class.google::protobuf::internal::ParseContext"* %0)
  %40 = icmp eq i8* %39, null
  br i1 %40, label %55, label %41, !prof !4

41:                                               ; preds = %38
  %42 = load i32, i32* %34, align 8
  %43 = add nsw i32 %42, 1
  store i32 %43, i32* %34, align 8
  %44 = getelementptr inbounds %"class.google::protobuf::internal::ParseContext", %"class.google::protobuf::internal::ParseContext"* %0, i64 0, i32 0, i32 8
  %45 = load i32, i32* %44, align 8
  %46 = icmp eq i32 %45, 0
  br i1 %46, label %47, label %55, !prof !2

47:                                               ; preds = %41
  %48 = load i32, i32* %31, align 4
  %49 = add nsw i32 %48, %33
  store i32 %49, i32* %31, align 4
  %50 = load i8*, i8** %18, align 8
  %51 = icmp slt i32 %49, 0
  %52 = select i1 %51, i32 %49, i32 0
  %53 = sext i32 %52 to i64
  %54 = getelementptr inbounds i8, i8* %50, i64 %53
  store i8* %54, i8** %30, align 8
  br label %55

55:                                               ; preds = %13, %38, %17, %41, %47
  %56 = phi i8* [ %39, %47 ], [ null, %41 ], [ null, %17 ], [ null, %38 ], [ null, %13 ]
  ret i8* %56
}

; Function Attrs: nounwind ssp uwtable
define hidden i8* @_ZNK8perfetto6protos12FtraceConfig18_InternalSerializeEPhPN6google8protobuf2io19EpsCopyOutputStreamE(%"class.perfetto::protos::FtraceConfig"* nocapture readonly, i8*, %"class.google::protobuf::io::EpsCopyOutputStream"*) unnamed_addr #0 align 2 {
  %4 = getelementptr inbounds %"class.perfetto::protos::FtraceConfig", %"class.perfetto::protos::FtraceConfig"* %0, i64 0, i32 3, i32 0, i32 1
  %5 = load i32, i32* %4, align 8
  %6 = icmp sgt i32 %5, 0
  br i1 %6, label %7, label %11

7:                                                ; preds = %3
  %8 = getelementptr inbounds %"class.perfetto::protos::FtraceConfig", %"class.perfetto::protos::FtraceConfig"* %0, i64 0, i32 3, i32 0, i32 3
  %9 = bitcast %"class.google::protobuf::io::EpsCopyOutputStream"* %2 to i64*
  %10 = zext i32 %5 to i64
  br label %20

11:                                               ; preds = %57, %3
  %12 = phi i8* [ %1, %3 ], [ %58, %57 ]
  %13 = getelementptr inbounds %"class.perfetto::protos::FtraceConfig", %"class.perfetto::protos::FtraceConfig"* %0, i64 0, i32 4, i32 0, i32 1
  %14 = load i32, i32* %13, align 8
  %15 = icmp sgt i32 %14, 0
  br i1 %15, label %16, label %61

16:                                               ; preds = %11
  %17 = getelementptr inbounds %"class.perfetto::protos::FtraceConfig", %"class.perfetto::protos::FtraceConfig"* %0, i64 0, i32 4, i32 0, i32 3
  %18 = bitcast %"class.google::protobuf::io::EpsCopyOutputStream"* %2 to i64*
  %19 = zext i32 %14 to i64
  br label %70

20:                                               ; preds = %57, %7
  %21 = phi i64 [ 0, %7 ], [ %59, %57 ]
  %22 = phi i8* [ %1, %7 ], [ %58, %57 ]
  %23 = load %"struct.google::protobuf::internal::RepeatedPtrFieldBase::Rep"*, %"struct.google::protobuf::internal::RepeatedPtrFieldBase::Rep"** %8, align 8
  %24 = getelementptr inbounds %"struct.google::protobuf::internal::RepeatedPtrFieldBase::Rep", %"struct.google::protobuf::internal::RepeatedPtrFieldBase::Rep"* %23, i64 0, i32 1, i64 %21
  %25 = bitcast i8** %24 to %"class.std::__1::basic_string"**
  %26 = load %"class.std::__1::basic_string"*, %"class.std::__1::basic_string"** %25, align 8
  %27 = bitcast %"class.std::__1::basic_string"* %26 to %"struct.std::__1::basic_string<char, std::__1::char_traits<char>, std::__1::allocator<char> >::__short"*
  %28 = getelementptr inbounds %"struct.std::__1::basic_string<char, std::__1::char_traits<char>, std::__1::allocator<char> >::__short", %"struct.std::__1::basic_string<char, std::__1::char_traits<char>, std::__1::allocator<char> >::__short"* %27, i64 0, i32 1, i32 0
  %29 = load i8, i8* %28, align 1
  %30 = icmp slt i8 %29, 0
  br i1 %30, label %33, label %31

31:                                               ; preds = %20
  %32 = zext i8 %29 to i64
  br label %37

33:                                               ; preds = %20
  %34 = getelementptr inbounds %"class.std::__1::basic_string", %"class.std::__1::basic_string"* %26, i64 0, i32 0, i32 0, i32 0, i32 0, i32 0, i32 1
  %35 = load i64, i64* %34, align 8
  %36 = icmp sgt i64 %35, 127
  br i1 %36, label %44, label %37, !prof !4

37:                                               ; preds = %33, %31
  %38 = phi i64 [ %32, %31 ], [ %35, %33 ]
  %39 = load i64, i64* %9, align 8
  %40 = ptrtoint i8* %22 to i64
  %41 = sub i64 14, %40
  %42 = add i64 %41, %39
  %43 = icmp slt i64 %42, %38
  br i1 %43, label %44, label %46, !prof !4

44:                                               ; preds = %37, %33
  %45 = tail call i8* @_ZN6google8protobuf2io19EpsCopyOutputStream18WriteStringOutlineEjRKNSt3__112basic_stringIcNS3_11char_traitsIcEENS3_9allocatorIcEEEEPh(%"class.google::protobuf::io::EpsCopyOutputStream"* %2, i32 1, %"class.std::__1::basic_string"* dereferenceable(24) %26, i8* %22) #13
  br label %57

46:                                               ; preds = %37
  store i8 10, i8* %22, align 1
  %47 = getelementptr inbounds i8, i8* %22, i64 1
  %48 = trunc i64 %38 to i8
  %49 = getelementptr inbounds i8, i8* %22, i64 2
  store i8 %48, i8* %47, align 1
  %50 = load i8, i8* %28, align 1
  %51 = icmp slt i8 %50, 0
  %52 = getelementptr inbounds %"class.std::__1::basic_string", %"class.std::__1::basic_string"* %26, i64 0, i32 0, i32 0, i32 0, i32 0, i32 0, i32 0
  %53 = load i8*, i8** %52, align 8
  %54 = bitcast %"class.std::__1::basic_string"* %26 to i8*
  %55 = select i1 %51, i8* %53, i8* %54
  tail call void @llvm.memcpy.p0i8.p0i8.i64(i8* align 1 %49, i8* align 1 %55, i64 %38, i1 false) #13
  %56 = getelementptr inbounds i8, i8* %49, i64 %38
  br label %57

57:                                               ; preds = %44, %46
  %58 = phi i8* [ %45, %44 ], [ %56, %46 ]
  %59 = add nuw nsw i64 %21, 1
  %60 = icmp eq i64 %59, %10
  br i1 %60, label %11, label %20

61:                                               ; preds = %107, %11
  %62 = phi i8* [ %12, %11 ], [ %108, %107 ]
  %63 = getelementptr inbounds %"class.perfetto::protos::FtraceConfig", %"class.perfetto::protos::FtraceConfig"* %0, i64 0, i32 5, i32 0, i32 1
  %64 = load i32, i32* %63, align 8
  %65 = icmp sgt i32 %64, 0
  br i1 %65, label %66, label %111

66:                                               ; preds = %61
  %67 = getelementptr inbounds %"class.perfetto::protos::FtraceConfig", %"class.perfetto::protos::FtraceConfig"* %0, i64 0, i32 5, i32 0, i32 3
  %68 = bitcast %"class.google::protobuf::io::EpsCopyOutputStream"* %2 to i64*
  %69 = zext i32 %64 to i64
  br label %117

70:                                               ; preds = %107, %16
  %71 = phi i64 [ 0, %16 ], [ %109, %107 ]
  %72 = phi i8* [ %12, %16 ], [ %108, %107 ]
  %73 = load %"struct.google::protobuf::internal::RepeatedPtrFieldBase::Rep"*, %"struct.google::protobuf::internal::RepeatedPtrFieldBase::Rep"** %17, align 8
  %74 = getelementptr inbounds %"struct.google::protobuf::internal::RepeatedPtrFieldBase::Rep", %"struct.google::protobuf::internal::RepeatedPtrFieldBase::Rep"* %73, i64 0, i32 1, i64 %71
  %75 = bitcast i8** %74 to %"class.std::__1::basic_string"**
  %76 = load %"class.std::__1::basic_string"*, %"class.std::__1::basic_string"** %75, align 8
  %77 = bitcast %"class.std::__1::basic_string"* %76 to %"struct.std::__1::basic_string<char, std::__1::char_traits<char>, std::__1::allocator<char> >::__short"*
  %78 = getelementptr inbounds %"struct.std::__1::basic_string<char, std::__1::char_traits<char>, std::__1::allocator<char> >::__short", %"struct.std::__1::basic_string<char, std::__1::char_traits<char>, std::__1::allocator<char> >::__short"* %77, i64 0, i32 1, i32 0
  %79 = load i8, i8* %78, align 1
  %80 = icmp slt i8 %79, 0
  br i1 %80, label %83, label %81

81:                                               ; preds = %70
  %82 = zext i8 %79 to i64
  br label %87

83:                                               ; preds = %70
  %84 = getelementptr inbounds %"class.std::__1::basic_string", %"class.std::__1::basic_string"* %76, i64 0, i32 0, i32 0, i32 0, i32 0, i32 0, i32 1
  %85 = load i64, i64* %84, align 8
  %86 = icmp sgt i64 %85, 127
  br i1 %86, label %94, label %87, !prof !4

87:                                               ; preds = %83, %81
  %88 = phi i64 [ %82, %81 ], [ %85, %83 ]
  %89 = load i64, i64* %18, align 8
  %90 = ptrtoint i8* %72 to i64
  %91 = sub i64 14, %90
  %92 = add i64 %91, %89
  %93 = icmp slt i64 %92, %88
  br i1 %93, label %94, label %96, !prof !4

94:                                               ; preds = %87, %83
  %95 = tail call i8* @_ZN6google8protobuf2io19EpsCopyOutputStream18WriteStringOutlineEjRKNSt3__112basic_stringIcNS3_11char_traitsIcEENS3_9allocatorIcEEEEPh(%"class.google::protobuf::io::EpsCopyOutputStream"* %2, i32 2, %"class.std::__1::basic_string"* dereferenceable(24) %76, i8* %72) #13
  br label %107

96:                                               ; preds = %87
  store i8 18, i8* %72, align 1
  %97 = getelementptr inbounds i8, i8* %72, i64 1
  %98 = trunc i64 %88 to i8
  %99 = getelementptr inbounds i8, i8* %72, i64 2
  store i8 %98, i8* %97, align 1
  %100 = load i8, i8* %78, align 1
  %101 = icmp slt i8 %100, 0
  %102 = getelementptr inbounds %"class.std::__1::basic_string", %"class.std::__1::basic_string"* %76, i64 0, i32 0, i32 0, i32 0, i32 0, i32 0, i32 0
  %103 = load i8*, i8** %102, align 8
  %104 = bitcast %"class.std::__1::basic_string"* %76 to i8*
  %105 = select i1 %101, i8* %103, i8* %104
  tail call void @llvm.memcpy.p0i8.p0i8.i64(i8* align 1 %99, i8* align 1 %105, i64 %88, i1 false) #13
  %106 = getelementptr inbounds i8, i8* %99, i64 %88
  br label %107

107:                                              ; preds = %94, %96
  %108 = phi i8* [ %95, %94 ], [ %106, %96 ]
  %109 = add nuw nsw i64 %71, 1
  %110 = icmp eq i64 %109, %19
  br i1 %110, label %61, label %70

111:                                              ; preds = %154, %61
  %112 = phi i8* [ %62, %61 ], [ %155, %154 ]
  %113 = getelementptr inbounds %"class.perfetto::protos::FtraceConfig", %"class.perfetto::protos::FtraceConfig"* %0, i64 0, i32 1, i32 0, i64 0
  %114 = load i32, i32* %113, align 4
  %115 = and i32 %114, 8
  %116 = icmp eq i32 %115, 0
  br i1 %116, label %194, label %158

117:                                              ; preds = %154, %66
  %118 = phi i64 [ 0, %66 ], [ %156, %154 ]
  %119 = phi i8* [ %62, %66 ], [ %155, %154 ]
  %120 = load %"struct.google::protobuf::internal::RepeatedPtrFieldBase::Rep"*, %"struct.google::protobuf::internal::RepeatedPtrFieldBase::Rep"** %67, align 8
  %121 = getelementptr inbounds %"struct.google::protobuf::internal::RepeatedPtrFieldBase::Rep", %"struct.google::protobuf::internal::RepeatedPtrFieldBase::Rep"* %120, i64 0, i32 1, i64 %118
  %122 = bitcast i8** %121 to %"class.std::__1::basic_string"**
  %123 = load %"class.std::__1::basic_string"*, %"class.std::__1::basic_string"** %122, align 8
  %124 = bitcast %"class.std::__1::basic_string"* %123 to %"struct.std::__1::basic_string<char, std::__1::char_traits<char>, std::__1::allocator<char> >::__short"*
  %125 = getelementptr inbounds %"struct.std::__1::basic_string<char, std::__1::char_traits<char>, std::__1::allocator<char> >::__short", %"struct.std::__1::basic_string<char, std::__1::char_traits<char>, std::__1::allocator<char> >::__short"* %124, i64 0, i32 1, i32 0
  %126 = load i8, i8* %125, align 1
  %127 = icmp slt i8 %126, 0
  br i1 %127, label %130, label %128

128:                                              ; preds = %117
  %129 = zext i8 %126 to i64
  br label %134

130:                                              ; preds = %117
  %131 = getelementptr inbounds %"class.std::__1::basic_string", %"class.std::__1::basic_string"* %123, i64 0, i32 0, i32 0, i32 0, i32 0, i32 0, i32 1
  %132 = load i64, i64* %131, align 8
  %133 = icmp sgt i64 %132, 127
  br i1 %133, label %141, label %134, !prof !4

134:                                              ; preds = %130, %128
  %135 = phi i64 [ %129, %128 ], [ %132, %130 ]
  %136 = load i64, i64* %68, align 8
  %137 = ptrtoint i8* %119 to i64
  %138 = sub i64 14, %137
  %139 = add i64 %138, %136
  %140 = icmp slt i64 %139, %135
  br i1 %140, label %141, label %143, !prof !4

141:                                              ; preds = %134, %130
  %142 = tail call i8* @_ZN6google8protobuf2io19EpsCopyOutputStream18WriteStringOutlineEjRKNSt3__112basic_stringIcNS3_11char_traitsIcEENS3_9allocatorIcEEEEPh(%"class.google::protobuf::io::EpsCopyOutputStream"* %2, i32 3, %"class.std::__1::basic_string"* dereferenceable(24) %123, i8* %119) #13
  br label %154

143:                                              ; preds = %134
  store i8 26, i8* %119, align 1
  %144 = getelementptr inbounds i8, i8* %119, i64 1
  %145 = trunc i64 %135 to i8
  %146 = getelementptr inbounds i8, i8* %119, i64 2
  store i8 %145, i8* %144, align 1
  %147 = load i8, i8* %125, align 1
  %148 = icmp slt i8 %147, 0
  %149 = getelementptr inbounds %"class.std::__1::basic_string", %"class.std::__1::basic_string"* %123, i64 0, i32 0, i32 0, i32 0, i32 0, i32 0, i32 0
  %150 = load i8*, i8** %149, align 8
  %151 = bitcast %"class.std::__1::basic_string"* %123 to i8*
  %152 = select i1 %148, i8* %150, i8* %151
  tail call void @llvm.memcpy.p0i8.p0i8.i64(i8* align 1 %146, i8* align 1 %152, i64 %135, i1 false) #13
  %153 = getelementptr inbounds i8, i8* %146, i64 %135
  br label %154

154:                                              ; preds = %141, %143
  %155 = phi i8* [ %142, %141 ], [ %153, %143 ]
  %156 = add nuw nsw i64 %118, 1
  %157 = icmp eq i64 %156, %69
  br i1 %157, label %111, label %117

158:                                              ; preds = %111
  %159 = getelementptr inbounds %"class.google::protobuf::io::EpsCopyOutputStream", %"class.google::protobuf::io::EpsCopyOutputStream"* %2, i64 0, i32 0
  %160 = load i8*, i8** %159, align 8
  %161 = icmp ugt i8* %160, %112
  br i1 %161, label %164, label %162, !prof !2

162:                                              ; preds = %158
  %163 = tail call i8* @_ZN6google8protobuf2io19EpsCopyOutputStream19EnsureSpaceFallbackEPh(%"class.google::protobuf::io::EpsCopyOutputStream"* %2, i8* %112) #13
  br label %164

164:                                              ; preds = %158, %162
  %165 = phi i8* [ %163, %162 ], [ %112, %158 ]
  %166 = getelementptr inbounds %"class.perfetto::protos::FtraceConfig", %"class.perfetto::protos::FtraceConfig"* %0, i64 0, i32 10
  %167 = load i32, i32* %166, align 4
  store i8 80, i8* %165, align 1
  %168 = getelementptr inbounds i8, i8* %165, i64 1
  %169 = icmp ult i32 %167, 128
  %170 = trunc i32 %167 to i8
  br i1 %169, label %171, label %173

171:                                              ; preds = %164
  store i8 %170, i8* %168, align 1
  %172 = getelementptr inbounds i8, i8* %165, i64 2
  br label %194

173:                                              ; preds = %164
  %174 = or i8 %170, -128
  store i8 %174, i8* %168, align 1
  %175 = lshr i32 %167, 7
  %176 = icmp ult i32 %167, 16384
  br i1 %176, label %177, label %181

177:                                              ; preds = %173
  %178 = trunc i32 %175 to i8
  %179 = getelementptr inbounds i8, i8* %165, i64 2
  store i8 %178, i8* %179, align 1
  %180 = getelementptr inbounds i8, i8* %165, i64 3
  br label %194

181:                                              ; preds = %173
  %182 = getelementptr inbounds i8, i8* %165, i64 2
  br label %183

183:                                              ; preds = %183, %181
  %184 = phi i32 [ %175, %181 ], [ %188, %183 ]
  %185 = phi i8* [ %182, %181 ], [ %189, %183 ]
  %186 = trunc i32 %184 to i8
  %187 = or i8 %186, -128
  store i8 %187, i8* %185, align 1
  %188 = lshr i32 %184, 7
  %189 = getelementptr inbounds i8, i8* %185, i64 1
  %190 = icmp ugt i32 %184, 16383
  br i1 %190, label %183, label %191, !prof !4

191:                                              ; preds = %183
  %192 = trunc i32 %188 to i8
  %193 = getelementptr inbounds i8, i8* %185, i64 2
  store i8 %192, i8* %189, align 1
  br label %194

194:                                              ; preds = %191, %177, %171, %111
  %195 = phi i8* [ %112, %111 ], [ %172, %171 ], [ %180, %177 ], [ %193, %191 ]
  %196 = and i32 %114, 16
  %197 = icmp eq i32 %196, 0
  br i1 %197, label %234, label %198

198:                                              ; preds = %194
  %199 = getelementptr inbounds %"class.google::protobuf::io::EpsCopyOutputStream", %"class.google::protobuf::io::EpsCopyOutputStream"* %2, i64 0, i32 0
  %200 = load i8*, i8** %199, align 8
  %201 = icmp ugt i8* %200, %195
  br i1 %201, label %204, label %202, !prof !2

202:                                              ; preds = %198
  %203 = tail call i8* @_ZN6google8protobuf2io19EpsCopyOutputStream19EnsureSpaceFallbackEPh(%"class.google::protobuf::io::EpsCopyOutputStream"* %2, i8* %195) #13
  br label %204

204:                                              ; preds = %198, %202
  %205 = phi i8* [ %203, %202 ], [ %195, %198 ]
  %206 = getelementptr inbounds %"class.perfetto::protos::FtraceConfig", %"class.perfetto::protos::FtraceConfig"* %0, i64 0, i32 11
  %207 = load i32, i32* %206, align 8
  store i8 88, i8* %205, align 1
  %208 = getelementptr inbounds i8, i8* %205, i64 1
  %209 = icmp ult i32 %207, 128
  %210 = trunc i32 %207 to i8
  br i1 %209, label %211, label %213

211:                                              ; preds = %204
  store i8 %210, i8* %208, align 1
  %212 = getelementptr inbounds i8, i8* %205, i64 2
  br label %234

213:                                              ; preds = %204
  %214 = or i8 %210, -128
  store i8 %214, i8* %208, align 1
  %215 = lshr i32 %207, 7
  %216 = icmp ult i32 %207, 16384
  br i1 %216, label %217, label %221

217:                                              ; preds = %213
  %218 = trunc i32 %215 to i8
  %219 = getelementptr inbounds i8, i8* %205, i64 2
  store i8 %218, i8* %219, align 1
  %220 = getelementptr inbounds i8, i8* %205, i64 3
  br label %234

221:                                              ; preds = %213
  %222 = getelementptr inbounds i8, i8* %205, i64 2
  br label %223

223:                                              ; preds = %223, %221
  %224 = phi i32 [ %215, %221 ], [ %228, %223 ]
  %225 = phi i8* [ %222, %221 ], [ %229, %223 ]
  %226 = trunc i32 %224 to i8
  %227 = or i8 %226, -128
  store i8 %227, i8* %225, align 1
  %228 = lshr i32 %224, 7
  %229 = getelementptr inbounds i8, i8* %225, i64 1
  %230 = icmp ugt i32 %224, 16383
  br i1 %230, label %223, label %231, !prof !4

231:                                              ; preds = %223
  %232 = trunc i32 %228 to i8
  %233 = getelementptr inbounds i8, i8* %225, i64 2
  store i8 %232, i8* %229, align 1
  br label %234

234:                                              ; preds = %231, %217, %211, %194
  %235 = phi i8* [ %195, %194 ], [ %212, %211 ], [ %220, %217 ], [ %233, %231 ]
  %236 = and i32 %114, 1
  %237 = icmp eq i32 %236, 0
  br i1 %237, label %331, label %238

238:                                              ; preds = %234
  %239 = getelementptr inbounds %"class.google::protobuf::io::EpsCopyOutputStream", %"class.google::protobuf::io::EpsCopyOutputStream"* %2, i64 0, i32 0
  %240 = load i8*, i8** %239, align 8
  %241 = icmp ugt i8* %240, %235
  br i1 %241, label %244, label %242, !prof !2

242:                                              ; preds = %238
  %243 = tail call i8* @_ZN6google8protobuf2io19EpsCopyOutputStream19EnsureSpaceFallbackEPh(%"class.google::protobuf::io::EpsCopyOutputStream"* %2, i8* %235) #13
  br label %244

244:                                              ; preds = %238, %242
  %245 = phi i8* [ %243, %242 ], [ %235, %238 ]
  %246 = getelementptr inbounds %"class.perfetto::protos::FtraceConfig", %"class.perfetto::protos::FtraceConfig"* %0, i64 0, i32 6
  %247 = load %"class.perfetto::protos::FtraceConfig_CompactSchedConfig"*, %"class.perfetto::protos::FtraceConfig_CompactSchedConfig"** %246, align 8
  store i8 98, i8* %245, align 1
  %248 = getelementptr inbounds i8, i8* %245, i64 1
  %249 = getelementptr inbounds %"class.perfetto::protos::FtraceConfig_CompactSchedConfig", %"class.perfetto::protos::FtraceConfig_CompactSchedConfig"* %247, i64 0, i32 2, i32 0, i32 0, i32 0, i32 0, i32 0, i32 0
  %250 = load atomic i32, i32* %249 monotonic, align 4
  %251 = icmp ult i32 %250, 128
  %252 = trunc i32 %250 to i8
  br i1 %251, label %253, label %255

253:                                              ; preds = %244
  store i8 %252, i8* %248, align 1
  %254 = getelementptr inbounds i8, i8* %245, i64 2
  br label %276

255:                                              ; preds = %244
  %256 = or i8 %252, -128
  store i8 %256, i8* %248, align 1
  %257 = lshr i32 %250, 7
  %258 = icmp ult i32 %250, 16384
  br i1 %258, label %259, label %263

259:                                              ; preds = %255
  %260 = trunc i32 %257 to i8
  %261 = getelementptr inbounds i8, i8* %245, i64 2
  store i8 %260, i8* %261, align 1
  %262 = getelementptr inbounds i8, i8* %245, i64 3
  br label %276

263:                                              ; preds = %255
  %264 = getelementptr inbounds i8, i8* %245, i64 2
  br label %265

265:                                              ; preds = %265, %263
  %266 = phi i32 [ %257, %263 ], [ %270, %265 ]
  %267 = phi i8* [ %264, %263 ], [ %271, %265 ]
  %268 = trunc i32 %266 to i8
  %269 = or i8 %268, -128
  store i8 %269, i8* %267, align 1
  %270 = lshr i32 %266, 7
  %271 = getelementptr inbounds i8, i8* %267, i64 1
  %272 = icmp ugt i32 %266, 16383
  br i1 %272, label %265, label %273, !prof !4

273:                                              ; preds = %265
  %274 = trunc i32 %270 to i8
  %275 = getelementptr inbounds i8, i8* %267, i64 2
  store i8 %274, i8* %271, align 1
  br label %276

276:                                              ; preds = %273, %259, %253
  %277 = phi i8* [ %254, %253 ], [ %262, %259 ], [ %275, %273 ]
  %278 = getelementptr inbounds %"class.perfetto::protos::FtraceConfig_CompactSchedConfig", %"class.perfetto::protos::FtraceConfig_CompactSchedConfig"* %247, i64 0, i32 1, i32 0, i64 0
  %279 = load i32, i32* %278, align 4
  %280 = and i32 %279, 1
  %281 = icmp eq i32 %280, 0
  br i1 %281, label %293, label %282

282:                                              ; preds = %276
  %283 = load i8*, i8** %239, align 8
  %284 = icmp ugt i8* %283, %277
  br i1 %284, label %287, label %285, !prof !2

285:                                              ; preds = %282
  %286 = tail call i8* @_ZN6google8protobuf2io19EpsCopyOutputStream19EnsureSpaceFallbackEPh(%"class.google::protobuf::io::EpsCopyOutputStream"* %2, i8* %277) #13
  br label %287

287:                                              ; preds = %285, %282
  %288 = phi i8* [ %286, %285 ], [ %277, %282 ]
  %289 = getelementptr inbounds %"class.perfetto::protos::FtraceConfig_CompactSchedConfig", %"class.perfetto::protos::FtraceConfig_CompactSchedConfig"* %247, i64 0, i32 3
  %290 = load i8, i8* %289, align 8, !range !3
  store i8 8, i8* %288, align 1
  %291 = getelementptr inbounds i8, i8* %288, i64 1
  store i8 %290, i8* %291, align 1
  %292 = getelementptr inbounds i8, i8* %288, i64 2
  br label %293

293:                                              ; preds = %287, %276
  %294 = phi i8* [ %292, %287 ], [ %277, %276 ]
  %295 = getelementptr inbounds %"class.perfetto::protos::FtraceConfig_CompactSchedConfig", %"class.perfetto::protos::FtraceConfig_CompactSchedConfig"* %247, i64 0, i32 0, i32 1
  %296 = bitcast %"class.google::protobuf::internal::InternalMetadata"* %295 to i64*
  %297 = load i64, i64* %296, align 8
  %298 = and i64 %297, 1
  %299 = icmp eq i64 %298, 0
  br i1 %299, label %331, label %300, !prof !2

300:                                              ; preds = %293
  %301 = and i64 %297, -2
  %302 = inttoptr i64 %301 to %"struct.google::protobuf::internal::InternalMetadata::Container"*
  %303 = getelementptr inbounds %"struct.google::protobuf::internal::InternalMetadata::Container", %"struct.google::protobuf::internal::InternalMetadata::Container"* %302, i64 0, i32 1
  %304 = bitcast %"class.std::__1::basic_string"* %303 to %"struct.std::__1::basic_string<char, std::__1::char_traits<char>, std::__1::allocator<char> >::__short"*
  %305 = getelementptr inbounds %"struct.std::__1::basic_string<char, std::__1::char_traits<char>, std::__1::allocator<char> >::__short", %"struct.std::__1::basic_string<char, std::__1::char_traits<char>, std::__1::allocator<char> >::__short"* %304, i64 0, i32 1, i32 0
  %306 = load i8, i8* %305, align 1
  %307 = icmp slt i8 %306, 0
  br i1 %307, label %308, label %313

308:                                              ; preds = %300
  %309 = getelementptr inbounds %"class.std::__1::basic_string", %"class.std::__1::basic_string"* %303, i64 0, i32 0, i32 0, i32 0, i32 0, i32 0, i32 0
  %310 = load i8*, i8** %309, align 8
  %311 = getelementptr inbounds %"struct.google::protobuf::internal::InternalMetadata::Container", %"struct.google::protobuf::internal::InternalMetadata::Container"* %302, i64 0, i32 1, i32 0, i32 0, i32 0, i32 0, i32 0, i32 1
  %312 = load i64, i64* %311, align 8
  br label %316

313:                                              ; preds = %300
  %314 = bitcast %"class.std::__1::basic_string"* %303 to i8*
  %315 = zext i8 %306 to i64
  br label %316

316:                                              ; preds = %313, %308
  %317 = phi i8* [ %310, %308 ], [ %314, %313 ]
  %318 = phi i64 [ %312, %308 ], [ %315, %313 ]
  %319 = bitcast %"class.google::protobuf::io::EpsCopyOutputStream"* %2 to i64*
  %320 = load i64, i64* %319, align 8
  %321 = ptrtoint i8* %294 to i64
  %322 = sub i64 %320, %321
  %323 = shl i64 %318, 32
  %324 = ashr exact i64 %323, 32
  %325 = icmp slt i64 %322, %324
  br i1 %325, label %326, label %329, !prof !4

326:                                              ; preds = %316
  %327 = trunc i64 %318 to i32
  %328 = tail call i8* @_ZN6google8protobuf2io19EpsCopyOutputStream16WriteRawFallbackEPKviPh(%"class.google::protobuf::io::EpsCopyOutputStream"* %2, i8* %317, i32 %327, i8* %294) #13
  br label %331

329:                                              ; preds = %316
  tail call void @llvm.memcpy.p0i8.p0i8.i64(i8* align 1 %294, i8* align 1 %317, i64 %324, i1 false) #13
  %330 = getelementptr inbounds i8, i8* %294, i64 %324
  br label %331

331:                                              ; preds = %329, %326, %293, %234
  %332 = phi i8* [ %235, %234 ], [ %294, %293 ], [ %328, %326 ], [ %330, %329 ]
  %333 = and i32 %114, 2
  %334 = icmp eq i32 %333, 0
  br i1 %334, label %347, label %335

335:                                              ; preds = %331
  %336 = getelementptr inbounds %"class.google::protobuf::io::EpsCopyOutputStream", %"class.google::protobuf::io::EpsCopyOutputStream"* %2, i64 0, i32 0
  %337 = load i8*, i8** %336, align 8
  %338 = icmp ugt i8* %337, %332
  br i1 %338, label %341, label %339, !prof !2

339:                                              ; preds = %335
  %340 = tail call i8* @_ZN6google8protobuf2io19EpsCopyOutputStream19EnsureSpaceFallbackEPh(%"class.google::protobuf::io::EpsCopyOutputStream"* %2, i8* %332) #13
  br label %341

341:                                              ; preds = %335, %339
  %342 = phi i8* [ %340, %339 ], [ %332, %335 ]
  %343 = getelementptr inbounds %"class.perfetto::protos::FtraceConfig", %"class.perfetto::protos::FtraceConfig"* %0, i64 0, i32 7
  %344 = load i8, i8* %343, align 8, !range !3
  store i8 104, i8* %342, align 1
  %345 = getelementptr inbounds i8, i8* %342, i64 1
  store i8 %344, i8* %345, align 1
  %346 = getelementptr inbounds i8, i8* %342, i64 2
  br label %347

347:                                              ; preds = %331, %341
  %348 = phi i8* [ %346, %341 ], [ %332, %331 ]
  %349 = and i32 %114, 4
  %350 = icmp eq i32 %349, 0
  br i1 %350, label %363, label %351

351:                                              ; preds = %347
  %352 = getelementptr inbounds %"class.google::protobuf::io::EpsCopyOutputStream", %"class.google::protobuf::io::EpsCopyOutputStream"* %2, i64 0, i32 0
  %353 = load i8*, i8** %352, align 8
  %354 = icmp ugt i8* %353, %348
  br i1 %354, label %357, label %355, !prof !2

355:                                              ; preds = %351
  %356 = tail call i8* @_ZN6google8protobuf2io19EpsCopyOutputStream19EnsureSpaceFallbackEPh(%"class.google::protobuf::io::EpsCopyOutputStream"* %2, i8* %348) #13
  br label %357

357:                                              ; preds = %351, %355
  %358 = phi i8* [ %356, %355 ], [ %348, %351 ]
  %359 = getelementptr inbounds %"class.perfetto::protos::FtraceConfig", %"class.perfetto::protos::FtraceConfig"* %0, i64 0, i32 8
  %360 = load i8, i8* %359, align 1, !range !3
  store i8 112, i8* %358, align 1
  %361 = getelementptr inbounds i8, i8* %358, i64 1
  store i8 %360, i8* %361, align 1
  %362 = getelementptr inbounds i8, i8* %358, i64 2
  br label %363

363:                                              ; preds = %347, %357
  %364 = phi i8* [ %362, %357 ], [ %348, %347 ]
  %365 = getelementptr inbounds %"class.perfetto::protos::FtraceConfig", %"class.perfetto::protos::FtraceConfig"* %0, i64 0, i32 0, i32 1
  %366 = bitcast %"class.google::protobuf::internal::InternalMetadata"* %365 to i64*
  %367 = load i64, i64* %366, align 8
  %368 = and i64 %367, 1
  %369 = icmp eq i64 %368, 0
  br i1 %369, label %401, label %370, !prof !2

370:                                              ; preds = %363
  %371 = and i64 %367, -2
  %372 = inttoptr i64 %371 to %"struct.google::protobuf::internal::InternalMetadata::Container"*
  %373 = getelementptr inbounds %"struct.google::protobuf::internal::InternalMetadata::Container", %"struct.google::protobuf::internal::InternalMetadata::Container"* %372, i64 0, i32 1
  %374 = bitcast %"class.std::__1::basic_string"* %373 to %"struct.std::__1::basic_string<char, std::__1::char_traits<char>, std::__1::allocator<char> >::__short"*
  %375 = getelementptr inbounds %"struct.std::__1::basic_string<char, std::__1::char_traits<char>, std::__1::allocator<char> >::__short", %"struct.std::__1::basic_string<char, std::__1::char_traits<char>, std::__1::allocator<char> >::__short"* %374, i64 0, i32 1, i32 0
  %376 = load i8, i8* %375, align 1
  %377 = icmp slt i8 %376, 0
  br i1 %377, label %378, label %383

378:                                              ; preds = %370
  %379 = getelementptr inbounds %"class.std::__1::basic_string", %"class.std::__1::basic_string"* %373, i64 0, i32 0, i32 0, i32 0, i32 0, i32 0, i32 0
  %380 = load i8*, i8** %379, align 8
  %381 = getelementptr inbounds %"struct.google::protobuf::internal::InternalMetadata::Container", %"struct.google::protobuf::internal::InternalMetadata::Container"* %372, i64 0, i32 1, i32 0, i32 0, i32 0, i32 0, i32 0, i32 1
  %382 = load i64, i64* %381, align 8
  br label %386

383:                                              ; preds = %370
  %384 = bitcast %"class.std::__1::basic_string"* %373 to i8*
  %385 = zext i8 %376 to i64
  br label %386

386:                                              ; preds = %378, %383
  %387 = phi i8* [ %380, %378 ], [ %384, %383 ]
  %388 = phi i64 [ %382, %378 ], [ %385, %383 ]
  %389 = bitcast %"class.google::protobuf::io::EpsCopyOutputStream"* %2 to i64*
  %390 = load i64, i64* %389, align 8
  %391 = ptrtoint i8* %364 to i64
  %392 = sub i64 %390, %391
  %393 = shl i64 %388, 32
  %394 = ashr exact i64 %393, 32
  %395 = icmp slt i64 %392, %394
  br i1 %395, label %396, label %399, !prof !4

396:                                              ; preds = %386
  %397 = trunc i64 %388 to i32
  %398 = tail call i8* @_ZN6google8protobuf2io19EpsCopyOutputStream16WriteRawFallbackEPKviPh(%"class.google::protobuf::io::EpsCopyOutputStream"* %2, i8* %387, i32 %397, i8* %364) #13
  br label %401

399:                                              ; preds = %386
  tail call void @llvm.memcpy.p0i8.p0i8.i64(i8* align 1 %364, i8* align 1 %387, i64 %394, i1 false) #13
  %400 = getelementptr inbounds i8, i8* %364, i64 %394
  br label %401

401:                                              ; preds = %363, %399, %396
  %402 = phi i8* [ %364, %363 ], [ %398, %396 ], [ %400, %399 ]
  ret i8* %402
}

; Function Attrs: nounwind ssp uwtable
define hidden i64 @_ZNK8perfetto6protos12FtraceConfig12ByteSizeLongEv(%"class.perfetto::protos::FtraceConfig"* nocapture) unnamed_addr #0 align 2 {
  %2 = getelementptr inbounds %"class.perfetto::protos::FtraceConfig", %"class.perfetto::protos::FtraceConfig"* %0, i64 0, i32 3, i32 0, i32 1
  %3 = load i32, i32* %2, align 8
  %4 = zext i32 %3 to i64
  %5 = icmp sgt i32 %3, 0
  br i1 %5, label %6, label %9

6:                                                ; preds = %1
  %7 = getelementptr inbounds %"class.perfetto::protos::FtraceConfig", %"class.perfetto::protos::FtraceConfig"* %0, i64 0, i32 3, i32 0, i32 3
  %8 = load %"struct.google::protobuf::internal::RepeatedPtrFieldBase::Rep"*, %"struct.google::protobuf::internal::RepeatedPtrFieldBase::Rep"** %7, align 8
  br label %19

9:                                                ; preds = %19, %1
  %10 = phi i64 [ %4, %1 ], [ %42, %19 ]
  %11 = getelementptr inbounds %"class.perfetto::protos::FtraceConfig", %"class.perfetto::protos::FtraceConfig"* %0, i64 0, i32 4, i32 0, i32 1
  %12 = load i32, i32* %11, align 8
  %13 = zext i32 %12 to i64
  %14 = add i64 %10, %13
  %15 = icmp sgt i32 %12, 0
  br i1 %15, label %16, label %45

16:                                               ; preds = %9
  %17 = getelementptr inbounds %"class.perfetto::protos::FtraceConfig", %"class.perfetto::protos::FtraceConfig"* %0, i64 0, i32 4, i32 0, i32 3
  %18 = load %"struct.google::protobuf::internal::RepeatedPtrFieldBase::Rep"*, %"struct.google::protobuf::internal::RepeatedPtrFieldBase::Rep"** %17, align 8
  br label %55

19:                                               ; preds = %19, %6
  %20 = phi i64 [ 0, %6 ], [ %43, %19 ]
  %21 = phi i64 [ %4, %6 ], [ %42, %19 ]
  %22 = getelementptr inbounds %"struct.google::protobuf::internal::RepeatedPtrFieldBase::Rep", %"struct.google::protobuf::internal::RepeatedPtrFieldBase::Rep"* %8, i64 0, i32 1, i64 %20
  %23 = bitcast i8** %22 to %"class.std::__1::basic_string"**
  %24 = load %"class.std::__1::basic_string"*, %"class.std::__1::basic_string"** %23, align 8
  %25 = bitcast %"class.std::__1::basic_string"* %24 to %"struct.std::__1::basic_string<char, std::__1::char_traits<char>, std::__1::allocator<char> >::__short"*
  %26 = getelementptr inbounds %"struct.std::__1::basic_string<char, std::__1::char_traits<char>, std::__1::allocator<char> >::__short", %"struct.std::__1::basic_string<char, std::__1::char_traits<char>, std::__1::allocator<char> >::__short"* %25, i64 0, i32 1, i32 0
  %27 = load i8, i8* %26, align 1
  %28 = icmp slt i8 %27, 0
  %29 = getelementptr inbounds %"class.std::__1::basic_string", %"class.std::__1::basic_string"* %24, i64 0, i32 0, i32 0, i32 0, i32 0, i32 0, i32 1
  %30 = load i64, i64* %29, align 8
  %31 = zext i8 %27 to i64
  %32 = select i1 %28, i64 %30, i64 %31
  %33 = trunc i64 %32 to i32
  %34 = or i32 %33, 1
  %35 = tail call i32 @llvm.ctlz.i32(i32 %34, i1 true) #13, !range !7
  %36 = xor i32 %35, 31
  %37 = mul nuw nsw i32 %36, 9
  %38 = add nuw nsw i32 %37, 73
  %39 = lshr i32 %38, 6
  %40 = zext i32 %39 to i64
  %41 = add i64 %32, %21
  %42 = add i64 %41, %40
  %43 = add nuw nsw i64 %20, 1
  %44 = icmp eq i64 %43, %4
  br i1 %44, label %9, label %19

45:                                               ; preds = %55, %9
  %46 = phi i64 [ %14, %9 ], [ %78, %55 ]
  %47 = getelementptr inbounds %"class.perfetto::protos::FtraceConfig", %"class.perfetto::protos::FtraceConfig"* %0, i64 0, i32 5, i32 0, i32 1
  %48 = load i32, i32* %47, align 8
  %49 = zext i32 %48 to i64
  %50 = add i64 %46, %49
  %51 = icmp sgt i32 %48, 0
  br i1 %51, label %52, label %81

52:                                               ; preds = %45
  %53 = getelementptr inbounds %"class.perfetto::protos::FtraceConfig", %"class.perfetto::protos::FtraceConfig"* %0, i64 0, i32 5, i32 0, i32 3
  %54 = load %"struct.google::protobuf::internal::RepeatedPtrFieldBase::Rep"*, %"struct.google::protobuf::internal::RepeatedPtrFieldBase::Rep"** %53, align 8
  br label %87

55:                                               ; preds = %55, %16
  %56 = phi i64 [ 0, %16 ], [ %79, %55 ]
  %57 = phi i64 [ %14, %16 ], [ %78, %55 ]
  %58 = getelementptr inbounds %"struct.google::protobuf::internal::RepeatedPtrFieldBase::Rep", %"struct.google::protobuf::internal::RepeatedPtrFieldBase::Rep"* %18, i64 0, i32 1, i64 %56
  %59 = bitcast i8** %58 to %"class.std::__1::basic_string"**
  %60 = load %"class.std::__1::basic_string"*, %"class.std::__1::basic_string"** %59, align 8
  %61 = bitcast %"class.std::__1::basic_string"* %60 to %"struct.std::__1::basic_string<char, std::__1::char_traits<char>, std::__1::allocator<char> >::__short"*
  %62 = getelementptr inbounds %"struct.std::__1::basic_string<char, std::__1::char_traits<char>, std::__1::allocator<char> >::__short", %"struct.std::__1::basic_string<char, std::__1::char_traits<char>, std::__1::allocator<char> >::__short"* %61, i64 0, i32 1, i32 0
  %63 = load i8, i8* %62, align 1
  %64 = icmp slt i8 %63, 0
  %65 = getelementptr inbounds %"class.std::__1::basic_string", %"class.std::__1::basic_string"* %60, i64 0, i32 0, i32 0, i32 0, i32 0, i32 0, i32 1
  %66 = load i64, i64* %65, align 8
  %67 = zext i8 %63 to i64
  %68 = select i1 %64, i64 %66, i64 %67
  %69 = trunc i64 %68 to i32
  %70 = or i32 %69, 1
  %71 = tail call i32 @llvm.ctlz.i32(i32 %70, i1 true) #13, !range !7
  %72 = xor i32 %71, 31
  %73 = mul nuw nsw i32 %72, 9
  %74 = add nuw nsw i32 %73, 73
  %75 = lshr i32 %74, 6
  %76 = zext i32 %75 to i64
  %77 = add i64 %68, %57
  %78 = add i64 %77, %76
  %79 = add nuw nsw i64 %56, 1
  %80 = icmp eq i64 %79, %13
  br i1 %80, label %45, label %55

81:                                               ; preds = %87, %45
  %82 = phi i64 [ %50, %45 ], [ %110, %87 ]
  %83 = getelementptr inbounds %"class.perfetto::protos::FtraceConfig", %"class.perfetto::protos::FtraceConfig"* %0, i64 0, i32 1, i32 0, i64 0
  %84 = load i32, i32* %83, align 4
  %85 = and i32 %84, 31
  %86 = icmp eq i32 %85, 0
  br i1 %86, label %199, label %113

87:                                               ; preds = %87, %52
  %88 = phi i64 [ 0, %52 ], [ %111, %87 ]
  %89 = phi i64 [ %50, %52 ], [ %110, %87 ]
  %90 = getelementptr inbounds %"struct.google::protobuf::internal::RepeatedPtrFieldBase::Rep", %"struct.google::protobuf::internal::RepeatedPtrFieldBase::Rep"* %54, i64 0, i32 1, i64 %88
  %91 = bitcast i8** %90 to %"class.std::__1::basic_string"**
  %92 = load %"class.std::__1::basic_string"*, %"class.std::__1::basic_string"** %91, align 8
  %93 = bitcast %"class.std::__1::basic_string"* %92 to %"struct.std::__1::basic_string<char, std::__1::char_traits<char>, std::__1::allocator<char> >::__short"*
  %94 = getelementptr inbounds %"struct.std::__1::basic_string<char, std::__1::char_traits<char>, std::__1::allocator<char> >::__short", %"struct.std::__1::basic_string<char, std::__1::char_traits<char>, std::__1::allocator<char> >::__short"* %93, i64 0, i32 1, i32 0
  %95 = load i8, i8* %94, align 1
  %96 = icmp slt i8 %95, 0
  %97 = getelementptr inbounds %"class.std::__1::basic_string", %"class.std::__1::basic_string"* %92, i64 0, i32 0, i32 0, i32 0, i32 0, i32 0, i32 1
  %98 = load i64, i64* %97, align 8
  %99 = zext i8 %95 to i64
  %100 = select i1 %96, i64 %98, i64 %99
  %101 = trunc i64 %100 to i32
  %102 = or i32 %101, 1
  %103 = tail call i32 @llvm.ctlz.i32(i32 %102, i1 true) #13, !range !7
  %104 = xor i32 %103, 31
  %105 = mul nuw nsw i32 %104, 9
  %106 = add nuw nsw i32 %105, 73
  %107 = lshr i32 %106, 6
  %108 = zext i32 %107 to i64
  %109 = add i64 %100, %89
  %110 = add i64 %109, %108
  %111 = add nuw nsw i64 %88, 1
  %112 = icmp eq i64 %111, %49
  br i1 %112, label %81, label %87

113:                                              ; preds = %81
  %114 = and i32 %84, 1
  %115 = icmp eq i32 %114, 0
  br i1 %115, label %159, label %116

116:                                              ; preds = %113
  %117 = getelementptr inbounds %"class.perfetto::protos::FtraceConfig", %"class.perfetto::protos::FtraceConfig"* %0, i64 0, i32 6
  %118 = load %"class.perfetto::protos::FtraceConfig_CompactSchedConfig"*, %"class.perfetto::protos::FtraceConfig_CompactSchedConfig"** %117, align 8
  %119 = getelementptr inbounds %"class.perfetto::protos::FtraceConfig_CompactSchedConfig", %"class.perfetto::protos::FtraceConfig_CompactSchedConfig"* %118, i64 0, i32 1, i32 0, i64 0
  %120 = load i32, i32* %119, align 4
  %121 = shl i32 %120, 1
  %122 = and i32 %121, 2
  %123 = zext i32 %122 to i64
  %124 = getelementptr inbounds %"class.perfetto::protos::FtraceConfig_CompactSchedConfig", %"class.perfetto::protos::FtraceConfig_CompactSchedConfig"* %118, i64 0, i32 0, i32 1
  %125 = bitcast %"class.google::protobuf::internal::InternalMetadata"* %124 to i64*
  %126 = load i64, i64* %125, align 8
  %127 = and i64 %126, 1
  %128 = icmp eq i64 %127, 0
  br i1 %128, label %145, label %129, !prof !2

129:                                              ; preds = %116
  %130 = and i64 %126, -2
  %131 = inttoptr i64 %130 to %"struct.google::protobuf::internal::InternalMetadata::Container"*
  %132 = getelementptr inbounds %"struct.google::protobuf::internal::InternalMetadata::Container", %"struct.google::protobuf::internal::InternalMetadata::Container"* %131, i64 0, i32 1
  %133 = bitcast %"class.std::__1::basic_string"* %132 to %"struct.std::__1::basic_string<char, std::__1::char_traits<char>, std::__1::allocator<char> >::__short"*
  %134 = getelementptr inbounds %"struct.std::__1::basic_string<char, std::__1::char_traits<char>, std::__1::allocator<char> >::__short", %"struct.std::__1::basic_string<char, std::__1::char_traits<char>, std::__1::allocator<char> >::__short"* %133, i64 0, i32 1, i32 0
  %135 = load i8, i8* %134, align 1
  %136 = icmp slt i8 %135, 0
  br i1 %136, label %137, label %140

137:                                              ; preds = %129
  %138 = getelementptr inbounds %"struct.google::protobuf::internal::InternalMetadata::Container", %"struct.google::protobuf::internal::InternalMetadata::Container"* %131, i64 0, i32 1, i32 0, i32 0, i32 0, i32 0, i32 0, i32 1
  %139 = load i64, i64* %138, align 8
  br label %142

140:                                              ; preds = %129
  %141 = zext i8 %135 to i64
  br label %142

142:                                              ; preds = %140, %137
  %143 = phi i64 [ %139, %137 ], [ %141, %140 ]
  %144 = add i64 %143, %123
  br label %145

145:                                              ; preds = %116, %142
  %146 = phi i64 [ %144, %142 ], [ %123, %116 ]
  %147 = trunc i64 %146 to i32
  %148 = getelementptr inbounds %"class.perfetto::protos::FtraceConfig_CompactSchedConfig", %"class.perfetto::protos::FtraceConfig_CompactSchedConfig"* %118, i64 0, i32 2, i32 0, i32 0, i32 0, i32 0, i32 0, i32 0
  store atomic i32 %147, i32* %148 monotonic, align 4
  %149 = or i32 %147, 1
  %150 = tail call i32 @llvm.ctlz.i32(i32 %149, i1 true) #13, !range !7
  %151 = xor i32 %150, 31
  %152 = mul nuw nsw i32 %151, 9
  %153 = add nuw nsw i32 %152, 73
  %154 = lshr i32 %153, 6
  %155 = zext i32 %154 to i64
  %156 = add i64 %82, 1
  %157 = add i64 %156, %146
  %158 = add i64 %157, %155
  br label %159

159:                                              ; preds = %113, %145
  %160 = phi i64 [ %158, %145 ], [ %82, %113 ]
  %161 = and i32 %84, 2
  %162 = icmp eq i32 %161, 0
  %163 = add i64 %160, 2
  %164 = select i1 %162, i64 %160, i64 %163
  %165 = and i32 %84, 4
  %166 = icmp eq i32 %165, 0
  %167 = add i64 %164, 2
  %168 = select i1 %166, i64 %164, i64 %167
  %169 = and i32 %84, 8
  %170 = icmp eq i32 %169, 0
  br i1 %170, label %183, label %171

171:                                              ; preds = %159
  %172 = getelementptr inbounds %"class.perfetto::protos::FtraceConfig", %"class.perfetto::protos::FtraceConfig"* %0, i64 0, i32 10
  %173 = load i32, i32* %172, align 4
  %174 = or i32 %173, 1
  %175 = tail call i32 @llvm.ctlz.i32(i32 %174, i1 true) #13, !range !7
  %176 = xor i32 %175, 31
  %177 = mul nuw nsw i32 %176, 9
  %178 = add nuw nsw i32 %177, 73
  %179 = lshr i32 %178, 6
  %180 = add nuw nsw i32 %179, 1
  %181 = zext i32 %180 to i64
  %182 = add i64 %168, %181
  br label %183

183:                                              ; preds = %159, %171
  %184 = phi i64 [ %182, %171 ], [ %168, %159 ]
  %185 = and i32 %84, 16
  %186 = icmp eq i32 %185, 0
  br i1 %186, label %199, label %187

187:                                              ; preds = %183
  %188 = getelementptr inbounds %"class.perfetto::protos::FtraceConfig", %"class.perfetto::protos::FtraceConfig"* %0, i64 0, i32 11
  %189 = load i32, i32* %188, align 8
  %190 = or i32 %189, 1
  %191 = tail call i32 @llvm.ctlz.i32(i32 %190, i1 true) #13, !range !7
  %192 = xor i32 %191, 31
  %193 = mul nuw nsw i32 %192, 9
  %194 = add nuw nsw i32 %193, 73
  %195 = lshr i32 %194, 6
  %196 = add nuw nsw i32 %195, 1
  %197 = zext i32 %196 to i64
  %198 = add i64 %184, %197
  br label %199

199:                                              ; preds = %183, %81, %187
  %200 = phi i64 [ %198, %187 ], [ %184, %183 ], [ %82, %81 ]
  %201 = getelementptr inbounds %"class.perfetto::protos::FtraceConfig", %"class.perfetto::protos::FtraceConfig"* %0, i64 0, i32 0, i32 1
  %202 = bitcast %"class.google::protobuf::internal::InternalMetadata"* %201 to i64*
  %203 = load i64, i64* %202, align 8
  %204 = and i64 %203, 1
  %205 = icmp eq i64 %204, 0
  br i1 %205, label %222, label %206, !prof !2

206:                                              ; preds = %199
  %207 = and i64 %203, -2
  %208 = inttoptr i64 %207 to %"struct.google::protobuf::internal::InternalMetadata::Container"*
  %209 = getelementptr inbounds %"struct.google::protobuf::internal::InternalMetadata::Container", %"struct.google::protobuf::internal::InternalMetadata::Container"* %208, i64 0, i32 1
  %210 = bitcast %"class.std::__1::basic_string"* %209 to %"struct.std::__1::basic_string<char, std::__1::char_traits<char>, std::__1::allocator<char> >::__short"*
  %211 = getelementptr inbounds %"struct.std::__1::basic_string<char, std::__1::char_traits<char>, std::__1::allocator<char> >::__short", %"struct.std::__1::basic_string<char, std::__1::char_traits<char>, std::__1::allocator<char> >::__short"* %210, i64 0, i32 1, i32 0
  %212 = load i8, i8* %211, align 1
  %213 = icmp slt i8 %212, 0
  br i1 %213, label %214, label %217

214:                                              ; preds = %206
  %215 = getelementptr inbounds %"struct.google::protobuf::internal::InternalMetadata::Container", %"struct.google::protobuf::internal::InternalMetadata::Container"* %208, i64 0, i32 1, i32 0, i32 0, i32 0, i32 0, i32 0, i32 1
  %216 = load i64, i64* %215, align 8
  br label %219

217:                                              ; preds = %206
  %218 = zext i8 %212 to i64
  br label %219

219:                                              ; preds = %214, %217
  %220 = phi i64 [ %216, %214 ], [ %218, %217 ]
  %221 = add i64 %220, %200
  br label %222

222:                                              ; preds = %199, %219
  %223 = phi i64 [ %221, %219 ], [ %200, %199 ]
  %224 = trunc i64 %223 to i32
  %225 = getelementptr inbounds %"class.perfetto::protos::FtraceConfig", %"class.perfetto::protos::FtraceConfig"* %0, i64 0, i32 2, i32 0, i32 0, i32 0, i32 0, i32 0, i32 0
  store atomic i32 %224, i32* %225 monotonic, align 4
  ret i64 %223
}

; Function Attrs: nounwind ssp uwtable
define hidden void @_ZN8perfetto6protos12FtraceConfig21CheckTypeAndMergeFromERKN6google8protobuf11MessageLiteE(%"class.perfetto::protos::FtraceConfig"*, %"class.google::protobuf::MessageLite"* dereferenceable(16)) unnamed_addr #0 align 2 {
  %3 = bitcast %"class.google::protobuf::MessageLite"* %1 to %"class.perfetto::protos::FtraceConfig"*
  tail call void @_ZN8perfetto6protos12FtraceConfig9MergeFromERKS1_(%"class.perfetto::protos::FtraceConfig"* %0, %"class.perfetto::protos::FtraceConfig"* dereferenceable(120) %3)
  ret void
}

; Function Attrs: nounwind ssp uwtable
define hidden void @_ZN8perfetto6protos12FtraceConfig9MergeFromERKS1_(%"class.perfetto::protos::FtraceConfig"*, %"class.perfetto::protos::FtraceConfig"* dereferenceable(120)) local_unnamed_addr #0 align 2 {
  %3 = getelementptr inbounds %"class.perfetto::protos::FtraceConfig", %"class.perfetto::protos::FtraceConfig"* %0, i64 0, i32 0, i32 1
  %4 = getelementptr inbounds %"class.perfetto::protos::FtraceConfig", %"class.perfetto::protos::FtraceConfig"* %1, i64 0, i32 0, i32 1
  %5 = bitcast %"class.google::protobuf::internal::InternalMetadata"* %4 to i64*
  %6 = load i64, i64* %5, align 8
  %7 = and i64 %6, 1
  %8 = icmp eq i64 %7, 0
  br i1 %8, label %38, label %9

9:                                                ; preds = %2
  %10 = and i64 %6, -2
  %11 = inttoptr i64 %10 to %"struct.google::protobuf::internal::InternalMetadata::Container"*
  %12 = getelementptr inbounds %"struct.google::protobuf::internal::InternalMetadata::Container", %"struct.google::protobuf::internal::InternalMetadata::Container"* %11, i64 0, i32 1
  %13 = bitcast %"class.google::protobuf::internal::InternalMetadata"* %3 to i64*
  %14 = load i64, i64* %13, align 8
  %15 = and i64 %14, 1
  %16 = icmp eq i64 %15, 0
  br i1 %16, label %21, label %17, !prof !4

17:                                               ; preds = %9
  %18 = and i64 %14, -2
  %19 = inttoptr i64 %18 to %"struct.google::protobuf::internal::InternalMetadata::Container"*
  %20 = getelementptr inbounds %"struct.google::protobuf::internal::InternalMetadata::Container", %"struct.google::protobuf::internal::InternalMetadata::Container"* %19, i64 0, i32 1
  br label %23

21:                                               ; preds = %9
  %22 = tail call %"class.std::__1::basic_string"* @_ZN6google8protobuf8internal16InternalMetadata27mutable_unknown_fields_slowINSt3__112basic_stringIcNS4_11char_traitsIcEENS4_9allocatorIcEEEEEEPT_v(%"class.google::protobuf::internal::InternalMetadata"* %3) #13
  br label %23

23:                                               ; preds = %21, %17
  %24 = phi %"class.std::__1::basic_string"* [ %20, %17 ], [ %22, %21 ]
  %25 = bitcast %"class.std::__1::basic_string"* %12 to %"struct.std::__1::basic_string<char, std::__1::char_traits<char>, std::__1::allocator<char> >::__short"*
  %26 = getelementptr inbounds %"struct.std::__1::basic_string<char, std::__1::char_traits<char>, std::__1::allocator<char> >::__short", %"struct.std::__1::basic_string<char, std::__1::char_traits<char>, std::__1::allocator<char> >::__short"* %25, i64 0, i32 1, i32 0
  %27 = load i8, i8* %26, align 1
  %28 = icmp slt i8 %27, 0
  %29 = getelementptr inbounds %"class.std::__1::basic_string", %"class.std::__1::basic_string"* %12, i64 0, i32 0, i32 0, i32 0, i32 0, i32 0, i32 0
  %30 = load i8*, i8** %29, align 8
  %31 = getelementptr inbounds %"struct.google::protobuf::internal::InternalMetadata::Container", %"struct.google::protobuf::internal::InternalMetadata::Container"* %11, i64 0, i32 1, i32 0, i32 0, i32 0, i32 0, i32 0, i32 1
  %32 = load i64, i64* %31, align 8
  %33 = bitcast %"class.std::__1::basic_string"* %12 to i8*
  %34 = zext i8 %27 to i64
  %35 = select i1 %28, i8* %30, i8* %33
  %36 = select i1 %28, i64 %32, i64 %34
  %37 = tail call dereferenceable(24) %"class.std::__1::basic_string"* @_ZNSt3__112basic_stringIcNS_11char_traitsIcEENS_9allocatorIcEEE6appendEPKcm(%"class.std::__1::basic_string"* %24, i8* %35, i64 %36) #13
  br label %38

38:                                               ; preds = %2, %23
  %39 = getelementptr inbounds %"class.perfetto::protos::FtraceConfig", %"class.perfetto::protos::FtraceConfig"* %0, i64 0, i32 3, i32 0
  %40 = getelementptr inbounds %"class.perfetto::protos::FtraceConfig", %"class.perfetto::protos::FtraceConfig"* %1, i64 0, i32 3, i32 0
  tail call void @_ZN6google8protobuf8internal20RepeatedPtrFieldBase9MergeFromINS0_16RepeatedPtrFieldINSt3__112basic_stringIcNS5_11char_traitsIcEENS5_9allocatorIcEEEEE11TypeHandlerEEEvRKS2_(%"class.google::protobuf::internal::RepeatedPtrFieldBase"* %39, %"class.google::protobuf::internal::RepeatedPtrFieldBase"* dereferenceable(24) %40) #13
  %41 = getelementptr inbounds %"class.perfetto::protos::FtraceConfig", %"class.perfetto::protos::FtraceConfig"* %0, i64 0, i32 4, i32 0
  %42 = getelementptr inbounds %"class.perfetto::protos::FtraceConfig", %"class.perfetto::protos::FtraceConfig"* %1, i64 0, i32 4, i32 0
  tail call void @_ZN6google8protobuf8internal20RepeatedPtrFieldBase9MergeFromINS0_16RepeatedPtrFieldINSt3__112basic_stringIcNS5_11char_traitsIcEENS5_9allocatorIcEEEEE11TypeHandlerEEEvRKS2_(%"class.google::protobuf::internal::RepeatedPtrFieldBase"* %41, %"class.google::protobuf::internal::RepeatedPtrFieldBase"* dereferenceable(24) %42) #13
  %43 = getelementptr inbounds %"class.perfetto::protos::FtraceConfig", %"class.perfetto::protos::FtraceConfig"* %0, i64 0, i32 5, i32 0
  %44 = getelementptr inbounds %"class.perfetto::protos::FtraceConfig", %"class.perfetto::protos::FtraceConfig"* %1, i64 0, i32 5, i32 0
  tail call void @_ZN6google8protobuf8internal20RepeatedPtrFieldBase9MergeFromINS0_16RepeatedPtrFieldINSt3__112basic_stringIcNS5_11char_traitsIcEENS5_9allocatorIcEEEEE11TypeHandlerEEEvRKS2_(%"class.google::protobuf::internal::RepeatedPtrFieldBase"* %43, %"class.google::protobuf::internal::RepeatedPtrFieldBase"* dereferenceable(24) %44) #13
  %45 = getelementptr inbounds %"class.perfetto::protos::FtraceConfig", %"class.perfetto::protos::FtraceConfig"* %1, i64 0, i32 1, i32 0, i64 0
  %46 = load i32, i32* %45, align 4
  %47 = and i32 %46, 31
  %48 = icmp eq i32 %47, 0
  br i1 %48, label %159, label %49

49:                                               ; preds = %38
  %50 = and i32 %46, 1
  %51 = icmp eq i32 %50, 0
  br i1 %51, label %127, label %52

52:                                               ; preds = %49
  %53 = getelementptr inbounds %"class.perfetto::protos::FtraceConfig", %"class.perfetto::protos::FtraceConfig"* %0, i64 0, i32 1, i32 0, i64 0
  %54 = load i32, i32* %53, align 4
  %55 = or i32 %54, 1
  store i32 %55, i32* %53, align 4
  %56 = getelementptr inbounds %"class.perfetto::protos::FtraceConfig", %"class.perfetto::protos::FtraceConfig"* %0, i64 0, i32 6
  %57 = load %"class.perfetto::protos::FtraceConfig_CompactSchedConfig"*, %"class.perfetto::protos::FtraceConfig_CompactSchedConfig"** %56, align 8
  %58 = icmp eq %"class.perfetto::protos::FtraceConfig_CompactSchedConfig"* %57, null
  br i1 %58, label %59, label %74

59:                                               ; preds = %52
  %60 = bitcast %"class.google::protobuf::internal::InternalMetadata"* %3 to i64*
  %61 = load i64, i64* %60, align 8
  %62 = and i64 %61, 1
  %63 = icmp eq i64 %62, 0
  %64 = and i64 %61, -2
  br i1 %63, label %69, label %65, !prof !2

65:                                               ; preds = %59
  %66 = inttoptr i64 %64 to %"struct.google::protobuf::internal::InternalMetadata::ContainerBase"*
  %67 = getelementptr inbounds %"struct.google::protobuf::internal::InternalMetadata::ContainerBase", %"struct.google::protobuf::internal::InternalMetadata::ContainerBase"* %66, i64 0, i32 0
  %68 = load %"class.google::protobuf::Arena"*, %"class.google::protobuf::Arena"** %67, align 8
  br label %71

69:                                               ; preds = %59
  %70 = inttoptr i64 %64 to %"class.google::protobuf::Arena"*
  br label %71

71:                                               ; preds = %69, %65
  %72 = phi %"class.google::protobuf::Arena"* [ %68, %65 ], [ %70, %69 ]
  %73 = tail call %"class.perfetto::protos::FtraceConfig_CompactSchedConfig"* @_ZN6google8protobuf5Arena18CreateMaybeMessageIN8perfetto6protos31FtraceConfig_CompactSchedConfigEJEEEPT_PS1_DpOT0_(%"class.google::protobuf::Arena"* %72) #13
  store %"class.perfetto::protos::FtraceConfig_CompactSchedConfig"* %73, %"class.perfetto::protos::FtraceConfig_CompactSchedConfig"** %56, align 8
  br label %74

74:                                               ; preds = %52, %71
  %75 = phi %"class.perfetto::protos::FtraceConfig_CompactSchedConfig"* [ %73, %71 ], [ %57, %52 ]
  %76 = getelementptr inbounds %"class.perfetto::protos::FtraceConfig", %"class.perfetto::protos::FtraceConfig"* %1, i64 0, i32 6
  %77 = load %"class.perfetto::protos::FtraceConfig_CompactSchedConfig"*, %"class.perfetto::protos::FtraceConfig_CompactSchedConfig"** %76, align 8
  %78 = icmp eq %"class.perfetto::protos::FtraceConfig_CompactSchedConfig"* %77, null
  %79 = select i1 %78, %"class.perfetto::protos::FtraceConfig_CompactSchedConfig"* bitcast (%"class.perfetto::protos::FtraceConfig_CompactSchedConfigDefaultTypeInternal"* @_ZN8perfetto6protos50_FtraceConfig_CompactSchedConfig_default_instance_E to %"class.perfetto::protos::FtraceConfig_CompactSchedConfig"*), %"class.perfetto::protos::FtraceConfig_CompactSchedConfig"* %77
  %80 = getelementptr inbounds %"class.perfetto::protos::FtraceConfig_CompactSchedConfig", %"class.perfetto::protos::FtraceConfig_CompactSchedConfig"* %75, i64 0, i32 0, i32 1
  %81 = getelementptr inbounds %"class.perfetto::protos::FtraceConfig_CompactSchedConfig", %"class.perfetto::protos::FtraceConfig_CompactSchedConfig"* %79, i64 0, i32 0, i32 1
  %82 = bitcast %"class.google::protobuf::internal::InternalMetadata"* %81 to i64*
  %83 = load i64, i64* %82, align 8
  %84 = and i64 %83, 1
  %85 = icmp eq i64 %84, 0
  br i1 %85, label %115, label %86

86:                                               ; preds = %74
  %87 = and i64 %83, -2
  %88 = inttoptr i64 %87 to %"struct.google::protobuf::internal::InternalMetadata::Container"*
  %89 = getelementptr inbounds %"struct.google::protobuf::internal::InternalMetadata::Container", %"struct.google::protobuf::internal::InternalMetadata::Container"* %88, i64 0, i32 1
  %90 = bitcast %"class.google::protobuf::internal::InternalMetadata"* %80 to i64*
  %91 = load i64, i64* %90, align 8
  %92 = and i64 %91, 1
  %93 = icmp eq i64 %92, 0
  br i1 %93, label %98, label %94, !prof !4

94:                                               ; preds = %86
  %95 = and i64 %91, -2
  %96 = inttoptr i64 %95 to %"struct.google::protobuf::internal::InternalMetadata::Container"*
  %97 = getelementptr inbounds %"struct.google::protobuf::internal::InternalMetadata::Container", %"struct.google::protobuf::internal::InternalMetadata::Container"* %96, i64 0, i32 1
  br label %100

98:                                               ; preds = %86
  %99 = tail call %"class.std::__1::basic_string"* @_ZN6google8protobuf8internal16InternalMetadata27mutable_unknown_fields_slowINSt3__112basic_stringIcNS4_11char_traitsIcEENS4_9allocatorIcEEEEEEPT_v(%"class.google::protobuf::internal::InternalMetadata"* %80) #13
  br label %100

100:                                              ; preds = %98, %94
  %101 = phi %"class.std::__1::basic_string"* [ %97, %94 ], [ %99, %98 ]
  %102 = bitcast %"class.std::__1::basic_string"* %89 to %"struct.std::__1::basic_string<char, std::__1::char_traits<char>, std::__1::allocator<char> >::__short"*
  %103 = getelementptr inbounds %"struct.std::__1::basic_string<char, std::__1::char_traits<char>, std::__1::allocator<char> >::__short", %"struct.std::__1::basic_string<char, std::__1::char_traits<char>, std::__1::allocator<char> >::__short"* %102, i64 0, i32 1, i32 0
  %104 = load i8, i8* %103, align 1
  %105 = icmp slt i8 %104, 0
  %106 = getelementptr inbounds %"class.std::__1::basic_string", %"class.std::__1::basic_string"* %89, i64 0, i32 0, i32 0, i32 0, i32 0, i32 0, i32 0
  %107 = load i8*, i8** %106, align 8
  %108 = getelementptr inbounds %"struct.google::protobuf::internal::InternalMetadata::Container", %"struct.google::protobuf::internal::InternalMetadata::Container"* %88, i64 0, i32 1, i32 0, i32 0, i32 0, i32 0, i32 0, i32 1
  %109 = load i64, i64* %108, align 8
  %110 = bitcast %"class.std::__1::basic_string"* %89 to i8*
  %111 = zext i8 %104 to i64
  %112 = select i1 %105, i8* %107, i8* %110
  %113 = select i1 %105, i64 %109, i64 %111
  %114 = tail call dereferenceable(24) %"class.std::__1::basic_string"* @_ZNSt3__112basic_stringIcNS_11char_traitsIcEENS_9allocatorIcEEE6appendEPKcm(%"class.std::__1::basic_string"* %101, i8* %112, i64 %113) #13
  br label %115

115:                                              ; preds = %100, %74
  %116 = getelementptr inbounds %"class.perfetto::protos::FtraceConfig_CompactSchedConfig", %"class.perfetto::protos::FtraceConfig_CompactSchedConfig"* %79, i64 0, i32 1, i32 0, i64 0
  %117 = load i32, i32* %116, align 4
  %118 = and i32 %117, 1
  %119 = icmp eq i32 %118, 0
  br i1 %119, label %127, label %120

120:                                              ; preds = %115
  %121 = getelementptr inbounds %"class.perfetto::protos::FtraceConfig_CompactSchedConfig", %"class.perfetto::protos::FtraceConfig_CompactSchedConfig"* %79, i64 0, i32 3
  %122 = load i8, i8* %121, align 8, !range !3
  %123 = getelementptr inbounds %"class.perfetto::protos::FtraceConfig_CompactSchedConfig", %"class.perfetto::protos::FtraceConfig_CompactSchedConfig"* %75, i64 0, i32 1, i32 0, i64 0
  %124 = load i32, i32* %123, align 4
  %125 = or i32 %124, 1
  store i32 %125, i32* %123, align 4
  %126 = getelementptr inbounds %"class.perfetto::protos::FtraceConfig_CompactSchedConfig", %"class.perfetto::protos::FtraceConfig_CompactSchedConfig"* %75, i64 0, i32 3
  store i8 %122, i8* %126, align 8
  br label %127

127:                                              ; preds = %120, %115, %49
  %128 = and i32 %46, 2
  %129 = icmp eq i32 %128, 0
  br i1 %129, label %134, label %130

130:                                              ; preds = %127
  %131 = getelementptr inbounds %"class.perfetto::protos::FtraceConfig", %"class.perfetto::protos::FtraceConfig"* %1, i64 0, i32 7
  %132 = load i8, i8* %131, align 8, !range !3
  %133 = getelementptr inbounds %"class.perfetto::protos::FtraceConfig", %"class.perfetto::protos::FtraceConfig"* %0, i64 0, i32 7
  store i8 %132, i8* %133, align 8
  br label %134

134:                                              ; preds = %127, %130
  %135 = and i32 %46, 4
  %136 = icmp eq i32 %135, 0
  br i1 %136, label %141, label %137

137:                                              ; preds = %134
  %138 = getelementptr inbounds %"class.perfetto::protos::FtraceConfig", %"class.perfetto::protos::FtraceConfig"* %1, i64 0, i32 8
  %139 = load i8, i8* %138, align 1, !range !3
  %140 = getelementptr inbounds %"class.perfetto::protos::FtraceConfig", %"class.perfetto::protos::FtraceConfig"* %0, i64 0, i32 8
  store i8 %139, i8* %140, align 1
  br label %141

141:                                              ; preds = %134, %137
  %142 = and i32 %46, 8
  %143 = icmp eq i32 %142, 0
  br i1 %143, label %148, label %144

144:                                              ; preds = %141
  %145 = getelementptr inbounds %"class.perfetto::protos::FtraceConfig", %"class.perfetto::protos::FtraceConfig"* %1, i64 0, i32 10
  %146 = load i32, i32* %145, align 4
  %147 = getelementptr inbounds %"class.perfetto::protos::FtraceConfig", %"class.perfetto::protos::FtraceConfig"* %0, i64 0, i32 10
  store i32 %146, i32* %147, align 4
  br label %148

148:                                              ; preds = %141, %144
  %149 = and i32 %46, 16
  %150 = icmp eq i32 %149, 0
  br i1 %150, label %155, label %151

151:                                              ; preds = %148
  %152 = getelementptr inbounds %"class.perfetto::protos::FtraceConfig", %"class.perfetto::protos::FtraceConfig"* %1, i64 0, i32 11
  %153 = load i32, i32* %152, align 8
  %154 = getelementptr inbounds %"class.perfetto::protos::FtraceConfig", %"class.perfetto::protos::FtraceConfig"* %0, i64 0, i32 11
  store i32 %153, i32* %154, align 8
  br label %155

155:                                              ; preds = %148, %151
  %156 = getelementptr inbounds %"class.perfetto::protos::FtraceConfig", %"class.perfetto::protos::FtraceConfig"* %0, i64 0, i32 1, i32 0, i64 0
  %157 = load i32, i32* %156, align 4
  %158 = or i32 %157, %46
  store i32 %158, i32* %156, align 4
  br label %159

159:                                              ; preds = %38, %155
  ret void
}

; Function Attrs: nounwind ssp uwtable
define hidden void @_ZN8perfetto6protos12FtraceConfig8CopyFromERKS1_(%"class.perfetto::protos::FtraceConfig"*, %"class.perfetto::protos::FtraceConfig"* dereferenceable(120)) local_unnamed_addr #0 align 2 {
  %3 = icmp eq %"class.perfetto::protos::FtraceConfig"* %1, %0
  br i1 %3, label %5, label %4

4:                                                ; preds = %2
  tail call void @_ZN8perfetto6protos12FtraceConfig5ClearEv(%"class.perfetto::protos::FtraceConfig"* %0)
  tail call void @_ZN8perfetto6protos12FtraceConfig9MergeFromERKS1_(%"class.perfetto::protos::FtraceConfig"* %0, %"class.perfetto::protos::FtraceConfig"* dereferenceable(120) %1)
  br label %5

5:                                                ; preds = %2, %4
  ret void
}

; Function Attrs: norecurse nounwind readnone ssp uwtable
define hidden zeroext i1 @_ZNK8perfetto6protos12FtraceConfig13IsInitializedEv(%"class.perfetto::protos::FtraceConfig"* nocapture readnone) unnamed_addr #4 align 2 {
  ret i1 true
}

; Function Attrs: nounwind ssp uwtable
define hidden void @_ZN8perfetto6protos12FtraceConfig12InternalSwapEPS1_(%"class.perfetto::protos::FtraceConfig"*, %"class.perfetto::protos::FtraceConfig"*) local_unnamed_addr #0 align 2 {
  %3 = getelementptr inbounds %"class.perfetto::protos::FtraceConfig", %"class.perfetto::protos::FtraceConfig"* %0, i64 0, i32 0, i32 1
  %4 = getelementptr inbounds %"class.perfetto::protos::FtraceConfig", %"class.perfetto::protos::FtraceConfig"* %1, i64 0, i32 0, i32 1
  %5 = bitcast %"class.google::protobuf::internal::InternalMetadata"* %3 to i64*
  %6 = load i64, i64* %5, align 8
  %7 = bitcast %"class.google::protobuf::internal::InternalMetadata"* %4 to i64*
  %8 = load i64, i64* %7, align 8
  %9 = or i64 %8, %6
  %10 = and i64 %9, 1
  %11 = icmp eq i64 %10, 0
  br i1 %11, label %43, label %12

12:                                               ; preds = %2
  %13 = and i64 %8, 1
  %14 = icmp eq i64 %13, 0
  br i1 %14, label %19, label %15, !prof !4

15:                                               ; preds = %12
  %16 = and i64 %8, -2
  %17 = inttoptr i64 %16 to %"struct.google::protobuf::internal::InternalMetadata::Container"*
  %18 = getelementptr inbounds %"struct.google::protobuf::internal::InternalMetadata::Container", %"struct.google::protobuf::internal::InternalMetadata::Container"* %17, i64 0, i32 1
  br label %22

19:                                               ; preds = %12
  %20 = tail call %"class.std::__1::basic_string"* @_ZN6google8protobuf8internal16InternalMetadata27mutable_unknown_fields_slowINSt3__112basic_stringIcNS4_11char_traitsIcEENS4_9allocatorIcEEEEEEPT_v(%"class.google::protobuf::internal::InternalMetadata"* %4) #13
  %21 = load i64, i64* %5, align 8
  br label %22

22:                                               ; preds = %19, %15
  %23 = phi i64 [ %6, %15 ], [ %21, %19 ]
  %24 = phi %"class.std::__1::basic_string"* [ %18, %15 ], [ %20, %19 ]
  %25 = and i64 %23, 1
  %26 = icmp eq i64 %25, 0
  br i1 %26, label %31, label %27, !prof !4

27:                                               ; preds = %22
  %28 = and i64 %23, -2
  %29 = inttoptr i64 %28 to %"struct.google::protobuf::internal::InternalMetadata::Container"*
  %30 = getelementptr inbounds %"struct.google::protobuf::internal::InternalMetadata::Container", %"struct.google::protobuf::internal::InternalMetadata::Container"* %29, i64 0, i32 1
  br label %33

31:                                               ; preds = %22
  %32 = tail call %"class.std::__1::basic_string"* @_ZN6google8protobuf8internal16InternalMetadata27mutable_unknown_fields_slowINSt3__112basic_stringIcNS4_11char_traitsIcEENS4_9allocatorIcEEEEEEPT_v(%"class.google::protobuf::internal::InternalMetadata"* %3) #13
  br label %33

33:                                               ; preds = %31, %27
  %34 = phi %"class.std::__1::basic_string"* [ %30, %27 ], [ %32, %31 ]
  %35 = bitcast %"class.std::__1::basic_string"* %34 to <2 x i64>*
  %36 = load <2 x i64>, <2 x i64>* %35, align 8
  %37 = getelementptr inbounds %"class.std::__1::basic_string", %"class.std::__1::basic_string"* %34, i64 0, i32 0, i32 0, i32 0, i32 0, i32 0, i32 2
  %38 = load i64, i64* %37, align 8
  %39 = bitcast %"class.std::__1::basic_string"* %34 to i8*
  %40 = bitcast %"class.std::__1::basic_string"* %24 to i8*
  tail call void @llvm.memcpy.p0i8.p0i8.i64(i8* align 8 %39, i8* align 8 %40, i64 24, i1 false) #13
  %41 = bitcast %"class.std::__1::basic_string"* %24 to <2 x i64>*
  store <2 x i64> %36, <2 x i64>* %41, align 8
  %42 = getelementptr inbounds %"class.std::__1::basic_string", %"class.std::__1::basic_string"* %24, i64 0, i32 0, i32 0, i32 0, i32 0, i32 0, i32 2
  store i64 %38, i64* %42, align 8
  br label %43

43:                                               ; preds = %2, %33
  %44 = getelementptr inbounds %"class.perfetto::protos::FtraceConfig", %"class.perfetto::protos::FtraceConfig"* %0, i64 0, i32 1, i32 0, i64 0
  %45 = getelementptr inbounds %"class.perfetto::protos::FtraceConfig", %"class.perfetto::protos::FtraceConfig"* %1, i64 0, i32 1, i32 0, i64 0
  %46 = load i32, i32* %44, align 4
  %47 = load i32, i32* %45, align 4
  store i32 %47, i32* %44, align 4
  store i32 %46, i32* %45, align 4
  %48 = getelementptr inbounds %"class.perfetto::protos::FtraceConfig", %"class.perfetto::protos::FtraceConfig"* %0, i64 0, i32 3, i32 0, i32 1
  %49 = bitcast i32* %48 to i8*
  %50 = getelementptr inbounds %"class.perfetto::protos::FtraceConfig", %"class.perfetto::protos::FtraceConfig"* %1, i64 0, i32 3, i32 0, i32 1
  %51 = bitcast i32* %50 to i8*
  %52 = bitcast i32* %48 to i128*
  %53 = load i128, i128* %52, align 1
  tail call void @llvm.memcpy.p0i8.p0i8.i64(i8* align 1 %49, i8* align 1 %51, i64 16, i1 false) #13
  %54 = bitcast i32* %50 to i128*
  store i128 %53, i128* %54, align 1
  %55 = getelementptr inbounds %"class.perfetto::protos::FtraceConfig", %"class.perfetto::protos::FtraceConfig"* %0, i64 0, i32 4, i32 0, i32 1
  %56 = bitcast i32* %55 to i8*
  %57 = getelementptr inbounds %"class.perfetto::protos::FtraceConfig", %"class.perfetto::protos::FtraceConfig"* %1, i64 0, i32 4, i32 0, i32 1
  %58 = bitcast i32* %57 to i8*
  %59 = bitcast i32* %55 to i128*
  %60 = load i128, i128* %59, align 1
  tail call void @llvm.memcpy.p0i8.p0i8.i64(i8* align 1 %56, i8* align 1 %58, i64 16, i1 false) #13
  %61 = bitcast i32* %57 to i128*
  store i128 %60, i128* %61, align 1
  %62 = getelementptr inbounds %"class.perfetto::protos::FtraceConfig", %"class.perfetto::protos::FtraceConfig"* %0, i64 0, i32 5, i32 0, i32 1
  %63 = bitcast i32* %62 to i8*
  %64 = getelementptr inbounds %"class.perfetto::protos::FtraceConfig", %"class.perfetto::protos::FtraceConfig"* %1, i64 0, i32 5, i32 0, i32 1
  %65 = bitcast i32* %64 to i8*
  %66 = bitcast i32* %62 to i128*
  %67 = load i128, i128* %66, align 1
  tail call void @llvm.memcpy.p0i8.p0i8.i64(i8* align 1 %63, i8* align 1 %65, i64 16, i1 false) #13
  %68 = bitcast i32* %64 to i128*
  store i128 %67, i128* %68, align 1
  %69 = getelementptr inbounds %"class.perfetto::protos::FtraceConfig", %"class.perfetto::protos::FtraceConfig"* %0, i64 0, i32 6
  %70 = bitcast %"class.perfetto::protos::FtraceConfig_CompactSchedConfig"** %69 to i8*
  %71 = getelementptr inbounds %"class.perfetto::protos::FtraceConfig", %"class.perfetto::protos::FtraceConfig"* %1, i64 0, i32 6
  %72 = bitcast %"class.perfetto::protos::FtraceConfig_CompactSchedConfig"** %71 to i8*
  %73 = bitcast %"class.perfetto::protos::FtraceConfig_CompactSchedConfig"** %69 to i128*
  %74 = load i128, i128* %73, align 1
  tail call void @llvm.memcpy.p0i8.p0i8.i64(i8* align 1 %70, i8* align 1 %72, i64 16, i1 false) #13
  %75 = bitcast %"class.perfetto::protos::FtraceConfig_CompactSchedConfig"** %71 to i128*
  store i128 %74, i128* %75, align 1
  %76 = getelementptr inbounds %"class.perfetto::protos::FtraceConfig_CompactSchedConfig"*, %"class.perfetto::protos::FtraceConfig_CompactSchedConfig"** %69, i64 2
  %77 = getelementptr inbounds %"class.perfetto::protos::FtraceConfig_CompactSchedConfig"*, %"class.perfetto::protos::FtraceConfig_CompactSchedConfig"** %71, i64 2
  %78 = bitcast %"class.perfetto::protos::FtraceConfig_CompactSchedConfig"** %76 to i32*
  %79 = load i32, i32* %78, align 1
  %80 = bitcast %"class.perfetto::protos::FtraceConfig_CompactSchedConfig"** %77 to i32*
  %81 = load i32, i32* %80, align 1
  store i32 %81, i32* %78, align 1
  store i32 %79, i32* %80, align 1
  ret void
}

; Function Attrs: nounwind ssp uwtable
define hidden void @_ZNK8perfetto6protos12FtraceConfig11GetTypeNameEv(%"class.std::__1::basic_string"* noalias sret, %"class.perfetto::protos::FtraceConfig"* nocapture readnone) unnamed_addr #0 align 2 {
  %3 = tail call i8* @_Znwm(i64 32) #14
  %4 = getelementptr inbounds %"class.std::__1::basic_string", %"class.std::__1::basic_string"* %0, i64 0, i32 0, i32 0, i32 0, i32 0, i32 0, i32 0
  store i8* %3, i8** %4, align 8
  %5 = getelementptr inbounds %"class.std::__1::basic_string", %"class.std::__1::basic_string"* %0, i64 0, i32 0, i32 0, i32 0, i32 0, i32 0, i32 1
  %6 = bitcast i64* %5 to <2 x i64>*
  store <2 x i64> <i64 28, i64 -9223372036854775776>, <2 x i64>* %6, align 8
  tail call void @llvm.memcpy.p0i8.p0i8.i64(i8* nonnull align 1 %3, i8* align 1 getelementptr inbounds ([29 x i8], [29 x i8]* @.str.5, i64 0, i64 0), i64 28, i1 false) #13
  %7 = getelementptr inbounds i8, i8* %3, i64 28
  store i8 0, i8* %7, align 1
  ret void
}

; Function Attrs: noinline nounwind ssp uwtable
define hidden %"class.perfetto::protos::FtraceConfig_CompactSchedConfig"* @_ZN6google8protobuf5Arena18CreateMaybeMessageIN8perfetto6protos31FtraceConfig_CompactSchedConfigEJEEEPT_PS1_DpOT0_(%"class.google::protobuf::Arena"*) local_unnamed_addr #10 align 2 {
  %2 = icmp eq %"class.google::protobuf::Arena"* %0, null
  br i1 %2, label %3, label %7

3:                                                ; preds = %1
  %4 = tail call i8* @_Znwm(i64 32) #14
  %5 = getelementptr inbounds i8, i8* %4, i64 8
  %6 = bitcast i8* %5 to %"class.google::protobuf::Arena"**
  store %"class.google::protobuf::Arena"* null, %"class.google::protobuf::Arena"** %6, align 8
  br label %17

7:                                                ; preds = %1
  %8 = getelementptr inbounds %"class.google::protobuf::Arena", %"class.google::protobuf::Arena"* %0, i64 0, i32 4
  %9 = load i8*, i8** %8, align 8
  %10 = icmp eq i8* %9, null
  br i1 %10, label %12, label %11, !prof !2

11:                                               ; preds = %7
  tail call void @_ZNK6google8protobuf5Arena17OnArenaAllocationEPKSt9type_infom(%"class.google::protobuf::Arena"* nonnull %0, %"class.std::type_info"* null, i64 32) #13
  br label %12

12:                                               ; preds = %11, %7
  %13 = tail call i8* @_ZN6google8protobuf5Arena21AllocateAlignedNoHookEm(%"class.google::protobuf::Arena"* nonnull %0, i64 32) #13
  %14 = ptrtoint %"class.google::protobuf::Arena"* %0 to i64
  %15 = getelementptr inbounds i8, i8* %13, i64 8
  %16 = bitcast i8* %15 to i64*
  store i64 %14, i64* %16, align 8
  br label %17

17:                                               ; preds = %3, %12
  %18 = phi i8* [ %4, %3 ], [ %13, %12 ]
  %19 = bitcast i8* %18 to i32 (...)***
  store i32 (...)** bitcast (i8** getelementptr inbounds ({ [16 x i8*] }, { [16 x i8*] }* @_ZTVN8perfetto6protos31FtraceConfig_CompactSchedConfigE, i64 0, inrange i32 0, i64 2) to i32 (...)**), i32 (...)*** %19, align 8
  %20 = getelementptr inbounds i8, i8* %18, i64 16
  tail call void @llvm.memset.p0i8.i64(i8* align 4 %20, i8 0, i64 9, i1 false) #13
  %21 = bitcast i8* %18 to %"class.perfetto::protos::FtraceConfig_CompactSchedConfig"*
  ret %"class.perfetto::protos::FtraceConfig_CompactSchedConfig"* %21
}

; Function Attrs: noinline nounwind ssp uwtable
define hidden %"class.perfetto::protos::FtraceConfig"* @_ZN6google8protobuf5Arena18CreateMaybeMessageIN8perfetto6protos12FtraceConfigEJEEEPT_PS1_DpOT0_(%"class.google::protobuf::Arena"*) local_unnamed_addr #10 align 2 {
  %2 = icmp eq %"class.google::protobuf::Arena"* %0, null
  br i1 %2, label %3, label %12

3:                                                ; preds = %1
  %4 = tail call i8* @_Znwm(i64 120) #14
  %5 = bitcast i8* %4 to i32 (...)***
  %6 = getelementptr inbounds i8, i8* %4, i64 8
  %7 = bitcast i8* %6 to %"class.google::protobuf::Arena"**
  store %"class.google::protobuf::Arena"* null, %"class.google::protobuf::Arena"** %7, align 8
  store i32 (...)** bitcast (i8** getelementptr inbounds ({ [16 x i8*] }, { [16 x i8*] }* @_ZTVN8perfetto6protos12FtraceConfigE, i64 0, inrange i32 0, i64 2) to i32 (...)**), i32 (...)*** %5, align 8
  %8 = getelementptr inbounds i8, i8* %4, i64 16
  tail call void @llvm.memset.p0i8.i64(i8* align 4 %8, i8 0, i64 80, i1 false) #13
  %9 = load atomic i32, i32* getelementptr inbounds ({ { { { i32 } }, i32, i32, void ()* }, [1 x i8*] }, { { { { i32 } }, i32, i32, void ()* }, [1 x i8*] }* @scc_info_FtraceConfig_protos_2fperfetto_2fconfig_2fftrace_2fftrace_5fconfig_2eproto, i64 0, i32 0, i32 0, i32 0, i32 0) acquire, align 8
  %10 = icmp eq i32 %9, 0
  br i1 %10, label %39, label %11, !prof !2

11:                                               ; preds = %3
  tail call void @_ZN6google8protobuf8internal11InitSCCImplEPNS1_11SCCInfoBaseE(%"struct.google::protobuf::internal::SCCInfoBase"* bitcast ({ { { { i32 } }, i32, i32, void ()* }, [1 x i8*] }* @scc_info_FtraceConfig_protos_2fperfetto_2fconfig_2fftrace_2fftrace_5fconfig_2eproto to %"struct.google::protobuf::internal::SCCInfoBase"*)) #13
  br label %39

12:                                               ; preds = %1
  %13 = getelementptr inbounds %"class.google::protobuf::Arena", %"class.google::protobuf::Arena"* %0, i64 0, i32 4
  %14 = load i8*, i8** %13, align 8
  %15 = icmp eq i8* %14, null
  br i1 %15, label %17, label %16, !prof !2

16:                                               ; preds = %12
  tail call void @_ZNK6google8protobuf5Arena17OnArenaAllocationEPKSt9type_infom(%"class.google::protobuf::Arena"* nonnull %0, %"class.std::type_info"* null, i64 120) #13
  br label %17

17:                                               ; preds = %16, %12
  %18 = tail call i8* @_ZN6google8protobuf5Arena21AllocateAlignedNoHookEm(%"class.google::protobuf::Arena"* nonnull %0, i64 120) #13
  %19 = ptrtoint %"class.google::protobuf::Arena"* %0 to i64
  %20 = bitcast i8* %18 to i32 (...)***
  %21 = getelementptr inbounds i8, i8* %18, i64 8
  %22 = bitcast i8* %21 to i64*
  store i64 %19, i64* %22, align 8
  store i32 (...)** bitcast (i8** getelementptr inbounds ({ [16 x i8*] }, { [16 x i8*] }* @_ZTVN8perfetto6protos12FtraceConfigE, i64 0, inrange i32 0, i64 2) to i32 (...)**), i32 (...)*** %20, align 8
  %23 = getelementptr inbounds i8, i8* %18, i64 16
  %24 = bitcast i8* %23 to i32*
  store i32 0, i32* %24, align 4
  %25 = getelementptr inbounds i8, i8* %18, i64 20
  %26 = bitcast i8* %25 to i32*
  store i32 0, i32* %26, align 4
  %27 = getelementptr inbounds i8, i8* %18, i64 24
  %28 = bitcast i8* %27 to i64*
  store i64 %19, i64* %28, align 8
  %29 = getelementptr inbounds i8, i8* %18, i64 32
  tail call void @llvm.memset.p0i8.i64(i8* align 8 %29, i8 0, i64 16, i1 false) #13
  %30 = getelementptr inbounds i8, i8* %18, i64 48
  %31 = bitcast i8* %30 to i64*
  store i64 %19, i64* %31, align 8
  %32 = getelementptr inbounds i8, i8* %18, i64 56
  tail call void @llvm.memset.p0i8.i64(i8* align 8 %32, i8 0, i64 16, i1 false) #13
  %33 = getelementptr inbounds i8, i8* %18, i64 72
  %34 = bitcast i8* %33 to i64*
  store i64 %19, i64* %34, align 8
  %35 = getelementptr inbounds i8, i8* %18, i64 80
  tail call void @llvm.memset.p0i8.i64(i8* align 8 %35, i8 0, i64 16, i1 false) #13
  %36 = load atomic i32, i32* getelementptr inbounds ({ { { { i32 } }, i32, i32, void ()* }, [1 x i8*] }, { { { { i32 } }, i32, i32, void ()* }, [1 x i8*] }* @scc_info_FtraceConfig_protos_2fperfetto_2fconfig_2fftrace_2fftrace_5fconfig_2eproto, i64 0, i32 0, i32 0, i32 0, i32 0) acquire, align 8
  %37 = icmp eq i32 %36, 0
  br i1 %37, label %39, label %38, !prof !2

38:                                               ; preds = %17
  tail call void @_ZN6google8protobuf8internal11InitSCCImplEPNS1_11SCCInfoBaseE(%"struct.google::protobuf::internal::SCCInfoBase"* bitcast ({ { { { i32 } }, i32, i32, void ()* }, [1 x i8*] }* @scc_info_FtraceConfig_protos_2fperfetto_2fconfig_2fftrace_2fftrace_5fconfig_2eproto to %"struct.google::protobuf::internal::SCCInfoBase"*)) #13
  br label %39

39:                                               ; preds = %17, %38, %3, %11
  %40 = phi i8* [ %4, %11 ], [ %4, %3 ], [ %18, %38 ], [ %18, %17 ]
  %41 = getelementptr inbounds i8, i8* %40, i64 96
  tail call void @llvm.memset.p0i8.i64(i8* align 1 %41, i8 0, i64 20, i1 false) #13
  %42 = bitcast i8* %40 to %"class.perfetto::protos::FtraceConfig"*
  ret %"class.perfetto::protos::FtraceConfig"* %42
}

; Function Attrs: inlinehint nounwind ssp uwtable
define linkonce_odr hidden %"class.perfetto::protos::FtraceConfig_CompactSchedConfig"* @_ZNK8perfetto6protos31FtraceConfig_CompactSchedConfig3NewEv(%"class.perfetto::protos::FtraceConfig_CompactSchedConfig"*) unnamed_addr #11 comdat align 2 {
  %2 = tail call %"class.perfetto::protos::FtraceConfig_CompactSchedConfig"* @_ZN6google8protobuf5Arena18CreateMaybeMessageIN8perfetto6protos31FtraceConfig_CompactSchedConfigEJEEEPT_PS1_DpOT0_(%"class.google::protobuf::Arena"* null) #13
  ret %"class.perfetto::protos::FtraceConfig_CompactSchedConfig"* %2
}

; Function Attrs: nounwind ssp uwtable
define linkonce_odr hidden %"class.perfetto::protos::FtraceConfig_CompactSchedConfig"* @_ZNK8perfetto6protos31FtraceConfig_CompactSchedConfig3NewEPN6google8protobuf5ArenaE(%"class.perfetto::protos::FtraceConfig_CompactSchedConfig"*, %"class.google::protobuf::Arena"*) unnamed_addr #0 comdat align 2 {
  %3 = tail call %"class.perfetto::protos::FtraceConfig_CompactSchedConfig"* @_ZN6google8protobuf5Arena18CreateMaybeMessageIN8perfetto6protos31FtraceConfig_CompactSchedConfigEJEEEPT_PS1_DpOT0_(%"class.google::protobuf::Arena"* %1) #13
  ret %"class.perfetto::protos::FtraceConfig_CompactSchedConfig"* %3
}

declare void @_ZNK6google8protobuf11MessageLite25InitializationErrorStringEv(%"class.std::__1::basic_string"* sret, %"class.google::protobuf::MessageLite"*) unnamed_addr #6

; Function Attrs: nounwind ssp uwtable
define linkonce_odr hidden i32 @_ZNK8perfetto6protos31FtraceConfig_CompactSchedConfig13GetCachedSizeEv(%"class.perfetto::protos::FtraceConfig_CompactSchedConfig"*) unnamed_addr #0 comdat align 2 {
  %2 = getelementptr inbounds %"class.perfetto::protos::FtraceConfig_CompactSchedConfig", %"class.perfetto::protos::FtraceConfig_CompactSchedConfig"* %0, i64 0, i32 2, i32 0, i32 0, i32 0, i32 0, i32 0, i32 0
  %3 = load atomic i32, i32* %2 monotonic, align 4
  ret i32 %3
}

; Function Attrs: nounwind ssp uwtable
define linkonce_odr hidden i8* @_ZNK6google8protobuf11MessageLite16InternalGetTableEv(%"class.google::protobuf::MessageLite"*) unnamed_addr #0 comdat align 2 {
  ret i8* null
}

; Function Attrs: inlinehint nounwind ssp uwtable
define linkonce_odr hidden %"class.perfetto::protos::FtraceConfig"* @_ZNK8perfetto6protos12FtraceConfig3NewEv(%"class.perfetto::protos::FtraceConfig"*) unnamed_addr #11 comdat align 2 {
  %2 = tail call %"class.perfetto::protos::FtraceConfig"* @_ZN6google8protobuf5Arena18CreateMaybeMessageIN8perfetto6protos12FtraceConfigEJEEEPT_PS1_DpOT0_(%"class.google::protobuf::Arena"* null) #13
  ret %"class.perfetto::protos::FtraceConfig"* %2
}

; Function Attrs: nounwind ssp uwtable
define linkonce_odr hidden %"class.perfetto::protos::FtraceConfig"* @_ZNK8perfetto6protos12FtraceConfig3NewEPN6google8protobuf5ArenaE(%"class.perfetto::protos::FtraceConfig"*, %"class.google::protobuf::Arena"*) unnamed_addr #0 comdat align 2 {
  %3 = tail call %"class.perfetto::protos::FtraceConfig"* @_ZN6google8protobuf5Arena18CreateMaybeMessageIN8perfetto6protos12FtraceConfigEJEEEPT_PS1_DpOT0_(%"class.google::protobuf::Arena"* %1) #13
  ret %"class.perfetto::protos::FtraceConfig"* %3
}

; Function Attrs: nounwind ssp uwtable
define linkonce_odr hidden i32 @_ZNK8perfetto6protos12FtraceConfig13GetCachedSizeEv(%"class.perfetto::protos::FtraceConfig"*) unnamed_addr #0 comdat align 2 {
  %2 = getelementptr inbounds %"class.perfetto::protos::FtraceConfig", %"class.perfetto::protos::FtraceConfig"* %0, i64 0, i32 2, i32 0, i32 0, i32 0, i32 0, i32 0, i32 0
  %3 = load atomic i32, i32* %2 monotonic, align 4
  ret i32 %3
}

declare void @_ZN6google8protobuf8internal13VerifyVersionEiiPKc(i32, i32, i8*) local_unnamed_addr #6

declare void @_ZN6google8protobuf8internal13OnShutdownRunEPFvPKvES3_(void (i8*)*, i8*) local_unnamed_addr #6

declare void @_ZN6google8protobuf8internal14DestroyMessageEPKv(i8*) #6

declare void @_ZN6google8protobuf8internal11InitSCCImplEPNS1_11SCCInfoBaseE(%"struct.google::protobuf::internal::SCCInfoBase"*) local_unnamed_addr #6

declare { i8*, i8 } @_ZN6google8protobuf8internal18EpsCopyInputStream12DoneFallbackEPKci(%"class.google::protobuf::internal::EpsCopyInputStream"*, i8*, i32) local_unnamed_addr #6

declare { i8*, i32 } @_ZN6google8protobuf8internal15ReadTagFallbackEPKcj(i8*, i32) local_unnamed_addr #6

declare { i8*, i64 } @_ZN6google8protobuf8internal17VarintParseSlow64EPKcj(i8*, i32) local_unnamed_addr #6

declare i8* @_ZN6google8protobuf2io19EpsCopyOutputStream19EnsureSpaceFallbackEPh(%"class.google::protobuf::io::EpsCopyOutputStream"*, i8*) local_unnamed_addr #6

declare i8* @_ZN6google8protobuf2io19EpsCopyOutputStream16WriteRawFallbackEPKviPh(%"class.google::protobuf::io::EpsCopyOutputStream"*, i8*, i32, i8*) local_unnamed_addr #6

declare void @_ZN6google8protobuf8internal20RepeatedPtrFieldBase7ReserveEi(%"class.google::protobuf::internal::RepeatedPtrFieldBase"*, i32) local_unnamed_addr #6

declare i8* @_ZN6google8protobuf5Arena21AllocateAlignedNoHookEm(%"class.google::protobuf::Arena"*, i64) local_unnamed_addr #6

