; ModuleID = '../../third_party/tflite/src/tensorflow/lite/kernels/fully_connected.cc'
source_filename = "../../third_party/tflite/src/tensorflow/lite/kernels/fully_connected.cc"
target datalayout = "e-m:e-i64:64-f80:128-n8:16:32:64-S128"
target triple = "x86_64-unknown-linux-gnu"

module asm ".symver exp, exp@GLIBC_2.2.5"
module asm ".symver exp2, exp2@GLIBC_2.2.5"
module asm ".symver exp2f, exp2f@GLIBC_2.2.5"
module asm ".symver expf, expf@GLIBC_2.2.5"
module asm ".symver lgamma, lgamma@GLIBC_2.2.5"
module asm ".symver lgammaf, lgammaf@GLIBC_2.2.5"
module asm ".symver lgammal, lgammal@GLIBC_2.2.5"
module asm ".symver log, log@GLIBC_2.2.5"
module asm ".symver log2, log2@GLIBC_2.2.5"
module asm ".symver log2f, log2f@GLIBC_2.2.5"
module asm ".symver logf, logf@GLIBC_2.2.5"
module asm ".symver pow, pow@GLIBC_2.2.5"
module asm ".symver powf, powf@GLIBC_2.2.5"

%struct.TfLiteContext = type { i64, i32 (%struct.TfLiteContext*, %struct.TfLiteIntArray**)*, %struct.TfLiteTensor*, i8*, i32 (%struct.TfLiteContext*, %struct.TfLiteTensor*, %struct.TfLiteIntArray*)*, void (%struct.TfLiteContext*, i8*, ...)*, i32 (%struct.TfLiteContext*, i32, i32*)*, i32 (%struct.TfLiteContext*, i32, %struct.TfLiteNode**, %struct.TfLiteRegistration**)*, i32 (%struct.TfLiteContext*, %struct.TfLiteRegistration*, %struct.TfLiteIntArray*, %struct.TfLiteDelegate*)*, i32, %struct.TfLiteExternalContext* (%struct.TfLiteContext*, i32)*, void (%struct.TfLiteContext*, i32, %struct.TfLiteExternalContext*)*, i8, i8*, i32 (%struct.TfLiteContext*, i64, i8**)*, i32 (%struct.TfLiteContext*, i64, i8**)*, i32 (%struct.TfLiteContext*, i64, i32*)*, i8* (%struct.TfLiteContext*, i32)*, i32 (%struct.TfLiteContext*, %struct.TfLiteTensor*, i32, i32*)*, i32 (%struct.TfLiteContext*, %struct.TfLiteIntArray*, %struct.TfLiteDelegateParams**, i32*)* }
%struct.TfLiteIntArray = type { i32, [0 x i32] }
%struct.TfLiteTensor = type { i32, %union.TfLitePtrUnion, %struct.TfLiteIntArray*, %struct.TfLiteQuantizationParams, i32, i64, i8*, i8*, %struct.TfLiteDelegate*, i32, i8, i8, %struct.TfLiteQuantization, %struct.TfLiteSparsity*, %struct.TfLiteIntArray* }
%union.TfLitePtrUnion = type { i32* }
%struct.TfLiteQuantizationParams = type { float, i32 }
%struct.TfLiteDelegate = type { i8*, i32 (%struct.TfLiteContext*, %struct.TfLiteDelegate*)*, i32 (%struct.TfLiteContext*, %struct.TfLiteDelegate*, i32, %struct.TfLiteTensor*)*, i32 (%struct.TfLiteContext*, %struct.TfLiteDelegate*, i32, %struct.TfLiteTensor*)*, void (%struct.TfLiteContext*, %struct.TfLiteDelegate*, i32*)*, i64 }
%struct.TfLiteQuantization = type { i32, i8* }
%struct.TfLiteSparsity = type { %struct.TfLiteIntArray*, %struct.TfLiteIntArray*, %struct.TfLiteDimensionMetadata*, i32 }
%struct.TfLiteDimensionMetadata = type { i32, i32, %struct.TfLiteIntArray*, %struct.TfLiteIntArray* }
%struct.TfLiteNode = type { %struct.TfLiteIntArray*, %struct.TfLiteIntArray*, %struct.TfLiteIntArray*, %struct.TfLiteIntArray*, i8*, i8*, i8*, i32, %struct.TfLiteDelegate* }
%struct.TfLiteRegistration = type { {}*, void (%struct.TfLiteContext*, i8*)*, i32 (%struct.TfLiteContext*, %struct.TfLiteNode*)*, i32 (%struct.TfLiteContext*, %struct.TfLiteNode*)*, i8* (%struct.TfLiteContext*, %struct.TfLiteNode*)*, i32, i8*, i32 }
%struct.TfLiteExternalContext = type { i32, i32 (%struct.TfLiteContext*)* }
%struct.TfLiteDelegateParams = type { %struct.TfLiteDelegate*, %struct.TfLiteIntArray*, %struct.TfLiteIntArray*, %struct.TfLiteIntArray* }
%"struct.ruy::KernelParamsFloat" = type <{ float*, float*, float*, float*, i32, i32, i32, i32, i32, i32, i32, i32, i32, i32, float, float, i8, [3 x i8], [16 x float], [256 x float], [4 x i8] }>
%"struct.ruy::KernelParamsFloat.110" = type <{ float*, float*, float*, float*, i32, i32, i32, i32, i32, i32, i32, i32, i32, i32, float, float, i8, [3 x i8], [8 x float], [64 x float], [4 x i8] }>
%struct._IO_FILE = type { i32, i8*, i8*, i8*, i8*, i8*, i8*, i8*, i8*, i8*, i8*, i8*, %struct._IO_marker*, %struct._IO_FILE*, i32, i32, i64, i16, i8, [1 x i8], i8*, i64, %struct._IO_codecvt*, %struct._IO_wide_data*, %struct._IO_FILE*, i8*, i64, i32, [20 x i8] }
%struct._IO_marker = type opaque
%struct._IO_codecvt = type opaque
%struct._IO_wide_data = type opaque
%struct.TfLiteFullyConnectedParams = type { i32, i32, i8, i8 }
%"struct.tflite::ops::builtin::fully_connected::OpData" = type <{ i32, i32, i32, i32, i32, i8, [3 x i8] }>
%"struct.Eigen::internal::evaluator" = type { %"struct.Eigen::internal::unary_evaluator" }
%"struct.Eigen::internal::unary_evaluator" = type { %"class.Eigen::internal::unary_evaluator<Eigen::CwiseUnaryOp<Eigen::internal::scalar_tanh_op<float>, const Eigen::ArrayWrapper<Eigen::Map<Eigen::Matrix<float, -1, 1, 0, -1, 1>, 0, Eigen::Stride<0, 0> > > >, Eigen::internal::IndexBased, float>::Data" }
%"class.Eigen::internal::unary_evaluator<Eigen::CwiseUnaryOp<Eigen::internal::scalar_tanh_op<float>, const Eigen::ArrayWrapper<Eigen::Map<Eigen::Matrix<float, -1, 1, 0, -1, 1>, 0, Eigen::Stride<0, 0> > > >, Eigen::internal::IndexBased, float>::Data" = type { %"struct.Eigen::internal::evaluator.34" }
%"struct.Eigen::internal::evaluator.34" = type { %"struct.Eigen::internal::evaluator.35" }
%"struct.Eigen::internal::evaluator.35" = type { %"struct.Eigen::internal::unary_evaluator.36" }
%"struct.Eigen::internal::unary_evaluator.36" = type { %"struct.Eigen::internal::evaluator_wrapper_base" }
%"struct.Eigen::internal::evaluator_wrapper_base" = type { %"struct.Eigen::internal::evaluator.39" }
%"struct.Eigen::internal::evaluator.39" = type { %"struct.Eigen::internal::mapbase_evaluator" }
%"struct.Eigen::internal::mapbase_evaluator" = type { float*, %"class.Eigen::internal::variable_if_dynamic.21", %"class.Eigen::internal::variable_if_dynamic" }
%"class.Eigen::internal::variable_if_dynamic.21" = type { i8 }
%"class.Eigen::internal::variable_if_dynamic" = type { i64 }
%"class.Eigen::internal::generic_dense_assignment_kernel" = type { %"struct.Eigen::internal::evaluator.35"*, %"struct.Eigen::internal::evaluator"*, %"struct.Eigen::internal::assign_op"*, %"class.Eigen::ArrayWrapper"* }
%"struct.Eigen::internal::assign_op" = type { i8 }
%"class.Eigen::ArrayWrapper" = type { %"class.Eigen::Map" }
%"class.Eigen::Map" = type { %"class.Eigen::MapBase.base.22", %"class.Eigen::Stride", [5 x i8] }
%"class.Eigen::MapBase.base.22" = type { %"class.Eigen::MapBase.base" }
%"class.Eigen::MapBase.base" = type <{ float*, %"class.Eigen::internal::variable_if_dynamic", %"class.Eigen::internal::variable_if_dynamic.21" }>
%"class.Eigen::Stride" = type { %"class.Eigen::internal::variable_if_dynamic.23", %"class.Eigen::internal::variable_if_dynamic.23" }
%"class.Eigen::internal::variable_if_dynamic.23" = type { i8 }
%"class.Eigen::CwiseUnaryOp.42" = type { %"class.Eigen::ArrayWrapper", %"struct.Eigen::internal::scalar_logistic_op", [7 x i8] }
%"struct.Eigen::internal::scalar_logistic_op" = type { i8 }
%"class.tflite::CpuBackendContext" = type <{ %"class.tflite::TfLiteInternalBackendContext", %"class.std::__1::unique_ptr", %"class.std::__1::unique_ptr.2", i32, i8, [3 x i8] }>
%"class.tflite::TfLiteInternalBackendContext" = type { i32 (...)** }
%"class.std::__1::unique_ptr" = type { %"class.std::__1::__compressed_pair" }
%"class.std::__1::__compressed_pair" = type { %"struct.std::__1::__compressed_pair_elem" }
%"struct.std::__1::__compressed_pair_elem" = type { %"class.ruy::Context"* }
%"class.ruy::Context" = type { %"class.ruy::CtxImpl"* }
%"class.ruy::CtxImpl" = type opaque
%"class.std::__1::unique_ptr.2" = type { %"class.std::__1::__compressed_pair.3" }
%"class.std::__1::__compressed_pair.3" = type { %"struct.std::__1::__compressed_pair_elem.4" }
%"struct.std::__1::__compressed_pair_elem.4" = type { %"class.gemmlowp::GemmContext"* }
%"class.gemmlowp::GemmContext" = type { %"class.gemmlowp::MultiThreadGemmContext" }
%"class.gemmlowp::MultiThreadGemmContext" = type { %"class.gemmlowp::MultiThreadGemmContextBase", %"class.gemmlowp::WorkersPool" }
%"class.gemmlowp::MultiThreadGemmContextBase" = type { %"class.gemmlowp::SingleThreadGemmContext.base", i32 }
%"class.gemmlowp::SingleThreadGemmContext.base" = type <{ %"class.gemmlowp::Allocator", i32, i32, float }>
%"class.gemmlowp::Allocator" = type { i8, i64, i8*, i64, i64, [5 x i64], i64 }
%"class.gemmlowp::WorkersPool" = type { %"class.std::__1::vector", %"class.gemmlowp::BlockingCounter", %"class.gemmlowp::Allocator" }
%"class.std::__1::vector" = type { %"class.std::__1::__vector_base" }
%"class.std::__1::__vector_base" = type { %"class.gemmlowp::Worker"**, %"class.gemmlowp::Worker"**, %"class.std::__1::__compressed_pair.12" }
%"class.gemmlowp::Worker" = type { i64, %"struct.gemmlowp::Task"*, %union.pthread_cond_t, %union.pthread_mutex_t, %"struct.std::__1::atomic", %"class.gemmlowp::Allocator", %"class.gemmlowp::BlockingCounter"* }
%"struct.gemmlowp::Task" = type { i32 (...)**, %"class.gemmlowp::Allocator"* }
%union.pthread_cond_t = type { %struct.__pthread_cond_s }
%struct.__pthread_cond_s = type { %union.anon, %union.anon.5, [2 x i32], [2 x i32], i32, i32, [2 x i32] }
%union.anon = type { i64 }
%union.anon.5 = type { i64 }
%union.pthread_mutex_t = type { %struct.__pthread_mutex_s }
%struct.__pthread_mutex_s = type { i32, i32, i32, i32, i32, i16, i16, %struct.__pthread_internal_list }
%struct.__pthread_internal_list = type { %struct.__pthread_internal_list*, %struct.__pthread_internal_list* }
%"struct.std::__1::atomic" = type { %"struct.std::__1::__atomic_base" }
%"struct.std::__1::__atomic_base" = type { %"struct.std::__1::__cxx_atomic_impl" }
%"struct.std::__1::__cxx_atomic_impl" = type { %"struct.std::__1::__cxx_atomic_base_impl" }
%"struct.std::__1::__cxx_atomic_base_impl" = type { i32 }
%"class.std::__1::__compressed_pair.12" = type { %"struct.std::__1::__compressed_pair_elem.13" }
%"struct.std::__1::__compressed_pair_elem.13" = type { %"class.gemmlowp::Worker"** }
%"class.gemmlowp::BlockingCounter" = type { %"struct.std::__1::atomic.7" }
%"struct.std::__1::atomic.7" = type { %"struct.std::__1::__atomic_base.8" }
%"struct.std::__1::__atomic_base.8" = type { %"struct.std::__1::__atomic_base.9" }
%"struct.std::__1::__atomic_base.9" = type { %"struct.std::__1::__cxx_atomic_impl.10" }
%"struct.std::__1::__cxx_atomic_impl.10" = type { %"struct.std::__1::__cxx_atomic_base_impl.11" }
%"struct.std::__1::__cxx_atomic_base_impl.11" = type { i64 }
%"struct.Eigen::EigenBase.33" = type { i8 }
%"struct.tflite::FullyConnectedParams" = type { i32, i32, i32, i32, i32, i32, i32, float, float, i8, i8, i8 }
%"class.tflite::RuntimeShape" = type { i32, %union.anon.54 }
%union.anon.54 = type { i32*, [16 x i8] }
%"class.std::__1::vector.55" = type { %"class.std::__1::__vector_base.56" }
%"class.std::__1::__vector_base.56" = type { i32*, i32*, %"class.std::__1::__compressed_pair.57" }
%"class.std::__1::__compressed_pair.57" = type { %"struct.std::__1::__compressed_pair_elem.58" }
%"struct.std::__1::__compressed_pair_elem.58" = type { i32* }
%"class.tflite::optimize::sparsity::FormatConverter" = type { %"class.std::__1::vector.55", %"class.std::__1::vector.55", i64, %"class.std::__1::vector.55", %"class.std::__1::vector.62", %"class.std::__1::vector.55", %"class.std::__1::vector.55", %"class.std::__1::vector.69", %"class.std::__1::vector.76" }
%"class.std::__1::vector.62" = type { %"class.std::__1::__vector_base.63" }
%"class.std::__1::__vector_base.63" = type { i32*, i32*, %"class.std::__1::__compressed_pair.64" }
%"class.std::__1::__compressed_pair.64" = type { %"struct.std::__1::__compressed_pair_elem.65" }
%"struct.std::__1::__compressed_pair_elem.65" = type { i32* }
%"class.std::__1::vector.69" = type { %"class.std::__1::__vector_base.70" }
%"class.std::__1::__vector_base.70" = type { %"class.std::__1::vector.55"*, %"class.std::__1::vector.55"*, %"class.std::__1::__compressed_pair.71" }
%"class.std::__1::__compressed_pair.71" = type { %"struct.std::__1::__compressed_pair_elem.72" }
%"struct.std::__1::__compressed_pair_elem.72" = type { %"class.std::__1::vector.55"* }
%"class.std::__1::vector.76" = type { %"class.std::__1::__vector_base.77" }
%"class.std::__1::__vector_base.77" = type { float*, float*, %"class.std::__1::__compressed_pair.78" }
%"class.std::__1::__compressed_pair.78" = type { %"struct.std::__1::__compressed_pair_elem.79" }
%"struct.std::__1::__compressed_pair_elem.79" = type { float* }
%"class.std::__1::__vector_base_common" = type { i8 }
%"struct.tflite::cpu_backend_gemm::MatrixParams.429" = type <{ i32, i32, i32, i8, i8, [2 x i8] }>
%"struct.tflite::cpu_backend_gemm::GemmParams.431" = type <{ i32, i32, i32*, i32*, i32*, i8, i8, [6 x i8] }>
%"class.std::__1::vector.85" = type { %"class.std::__1::__vector_base.86" }
%"class.std::__1::__vector_base.86" = type { %"struct.tflite::optimized_ops::FullyConnectedSparseWeight1x4Task"*, %"struct.tflite::optimized_ops::FullyConnectedSparseWeight1x4Task"*, %"class.std::__1::__compressed_pair.87" }
%"struct.tflite::optimized_ops::FullyConnectedSparseWeight1x4Task" = type { %"struct.gemmlowp::Task", %struct.TfLiteSparsity*, %"struct.tflite::FullyConnectedParams"*, %"class.tflite::RuntimeShape"*, float*, %"class.tflite::RuntimeShape"*, float*, %"class.tflite::RuntimeShape"*, float*, %"class.tflite::RuntimeShape"*, float*, i32, i32, %"class.tflite::CpuBackendContext"* }
%"class.std::__1::__compressed_pair.87" = type { %"struct.std::__1::__compressed_pair_elem.88" }
%"struct.std::__1::__compressed_pair_elem.88" = type { %"struct.tflite::optimized_ops::FullyConnectedSparseWeight1x4Task"* }
%"struct.tflite::cpu_backend_gemm::MatrixParams" = type <{ i32, i32, i32, float, i8, [3 x i8] }>
%"struct.tflite::cpu_backend_gemm::GemmParams" = type { float, i32, float*, i32*, float*, float, float }
%"class.std::__1::chrono::duration.98" = type { i64 }
%union.pthread_condattr_t = type { i32 }
%union.pthread_mutexattr_t = type { i32 }
%union.pthread_attr_t = type { i64, [48 x i8] }
%"struct.ruy::Mat" = type <{ %"class.ruy::detail::ConstCheckingPtr", %"struct.ruy::MatLayout", float, i8, [3 x i8] }>
%"class.ruy::detail::ConstCheckingPtr" = type { float* }
%"struct.ruy::MatLayout" = type <{ i32, i32, i32, i8, [3 x i8] }>
%"class.ruy::MulParams" = type { float*, float, i32, float*, i32*, float, float }
%"class.ruy::Ctx" = type { i8 }
%"struct.ruy::TrMulParams" = type { i8, %"class.ruy::SidePair", void (i32, %"class.ruy::SidePair.104"*, i8*, %"class.ruy::SidePair.105"*, %"class.ruy::SidePair.105"*, %"struct.ruy::EMat"*)*, %"class.ruy::SidePair.106", %"struct.ruy::EMat", %"class.ruy::SidePair.104", %"class.ruy::SidePair.107", i8* }
%"class.ruy::SidePair" = type { [2 x void (i32, %"struct.ruy::EMat"*, %"struct.ruy::PEMat"*, i32, i32)*] }
%"struct.ruy::PEMat" = type <{ %"struct.ruy::Type", [5 x i8], i8*, %"struct.ruy::Type", [5 x i8], i8*, %"struct.ruy::PMatLayout", i32, [4 x i8] }>
%"struct.ruy::Type" = type { i8, i8, i8 }
%"struct.ruy::PMatLayout" = type { i32, i32, i32, i8, %"struct.ruy::KernelLayout" }
%"struct.ruy::KernelLayout" = type { i8, i8, i8 }
%"class.ruy::SidePair.105" = type { [2 x i32] }
%"class.ruy::SidePair.106" = type { [2 x %"struct.ruy::EMat"] }
%"struct.ruy::EMat" = type <{ %"struct.ruy::Type", [5 x i8], i8*, %"struct.ruy::MatLayout", i32, i8, [3 x i8] }>
%"class.ruy::SidePair.104" = type { [2 x %"struct.ruy::PEMat"] }
%"class.ruy::SidePair.107" = type { [2 x i8] }
%"class.ruy::PrepackedCache" = type { %"class.std::__1::unordered_map", i32, i32, i64 }
%"class.std::__1::unordered_map" = type { %"class.std::__1::__hash_table" }
%"class.std::__1::__hash_table" = type <{ %"class.std::__1::unique_ptr.112", %"class.std::__1::__compressed_pair.121", %"class.std::__1::__compressed_pair.126", %"class.std::__1::__compressed_pair.128", [4 x i8] }>
%"class.std::__1::unique_ptr.112" = type { %"class.std::__1::__compressed_pair.113" }
%"class.std::__1::__compressed_pair.113" = type { %"struct.std::__1::__compressed_pair_elem.114", %"struct.std::__1::__compressed_pair_elem.115" }
%"struct.std::__1::__compressed_pair_elem.114" = type { %"struct.std::__1::__hash_node_base"** }
%"struct.std::__1::__hash_node_base" = type { %"struct.std::__1::__hash_node_base"* }
%"struct.std::__1::__compressed_pair_elem.115" = type { %"class.std::__1::__bucket_list_deallocator" }
%"class.std::__1::__bucket_list_deallocator" = type { %"class.std::__1::__compressed_pair.116" }
%"class.std::__1::__compressed_pair.116" = type { %"struct.std::__1::__compressed_pair_elem.117" }
%"struct.std::__1::__compressed_pair_elem.117" = type { i64 }
%"class.std::__1::__compressed_pair.121" = type { %"struct.std::__1::__compressed_pair_elem.122" }
%"struct.std::__1::__compressed_pair_elem.122" = type { %"struct.std::__1::__hash_node_base" }
%"class.std::__1::__compressed_pair.126" = type { %"struct.std::__1::__compressed_pair_elem.117" }
%"class.std::__1::__compressed_pair.128" = type { %"struct.std::__1::__compressed_pair_elem.129" }
%"struct.std::__1::__compressed_pair_elem.129" = type { float }
%"struct.ruy::PMat" = type <{ float*, float*, %"struct.ruy::PMatLayout", i32, [4 x i8] }>
%"struct.ruy::Kernel" = type { i8 }
%"class.std::__1::vector.143" = type { %"class.std::__1::__vector_base.144" }
%"class.std::__1::__vector_base.144" = type { %"struct.tflite::optimized_ops::ShuffledFullyConnectedWorkerTask"*, %"struct.tflite::optimized_ops::ShuffledFullyConnectedWorkerTask"*, %"class.std::__1::__compressed_pair.145" }
%"struct.tflite::optimized_ops::ShuffledFullyConnectedWorkerTask" = type { %"struct.gemmlowp::Task", i8*, i8*, i32, i32, i32, i32, i32*, i32, i32, i16* }
%"class.std::__1::__compressed_pair.145" = type { %"struct.std::__1::__compressed_pair_elem.146" }
%"struct.std::__1::__compressed_pair_elem.146" = type { %"struct.tflite::optimized_ops::ShuffledFullyConnectedWorkerTask"* }
%"struct.tflite::cpu_backend_gemm::MatrixParams.153" = type <{ i32, i32, i32, i8, i8, [2 x i8] }>
%"struct.tflite::cpu_backend_gemm::GemmParams.155" = type <{ i32, i32, i32*, i32*, i32*, i8, i8, [6 x i8] }>
%"struct.tflite::cpu_backend_gemm::MatrixParams.454" = type <{ i32, i32, i32, i16, i8, i8 }>
%"struct.tflite::cpu_backend_gemm::GemmParams.456" = type <{ i32, i32, i32*, i32*, i32*, i16, i16, [4 x i8] }>
%"struct.ruy::Mat.160" = type <{ %"class.ruy::detail::ConstCheckingPtr.158", %"struct.ruy::MatLayout", i8, i8, [6 x i8] }>
%"class.ruy::detail::ConstCheckingPtr.158" = type { i8* }
%"class.ruy::MulParams.159" = type <{ i32*, i32, i32, i32*, i32*, i8, i8, [6 x i8] }>
%"class.gemmlowp::VectorDup" = type { i32, i32 }
%"class.gemmlowp::VectorDup.194" = type { i32, i32 }
%"class.gemmlowp::MatrixMap" = type <{ i8*, i32, i32, i32, [4 x i8] }>
%"class.gemmlowp::MatrixMap.180" = type <{ i8*, i32, i32, i32, [4 x i8] }>
%"class.gemmlowp::MatrixMap.182" = type <{ i8*, i32, i32, i32, [4 x i8] }>
%"class.std::__1::tuple" = type { %"struct.std::__1::__tuple_impl" }
%"struct.std::__1::__tuple_impl" = type { %"class.std::__1::__tuple_leaf", %"class.std::__1::__tuple_leaf.184", %"class.std::__1::__tuple_leaf.185", [4 x i8] }
%"class.std::__1::__tuple_leaf" = type { %"struct.gemmlowp::OutputStageBiasAddition" }
%"struct.gemmlowp::OutputStageBiasAddition" = type { %"class.gemmlowp::VectorMap" }
%"class.gemmlowp::VectorMap" = type <{ i32*, i32, [4 x i8] }>
%"class.std::__1::__tuple_leaf.184" = type { %"struct.gemmlowp::OutputStageScaleInt32ByFixedPointAndExponent" }
%"struct.gemmlowp::OutputStageScaleInt32ByFixedPointAndExponent" = type { i32, i32, i32 }
%"class.std::__1::__tuple_leaf.185" = type { %"struct.gemmlowp::OutputStageClamp" }
%"struct.gemmlowp::OutputStageClamp" = type { i32, i32 }
%"class.std::__1::tuple.187" = type { %"struct.std::__1::__tuple_impl.188" }
%"struct.std::__1::__tuple_impl.188" = type { %"class.std::__1::__tuple_leaf.189", %"class.std::__1::__tuple_leaf.190" }
%"class.std::__1::__tuple_leaf.189" = type { %"struct.gemmlowp::OutputStageScaleInt32ByFixedPointAndExponent" }
%"class.std::__1::__tuple_leaf.190" = type { %"struct.gemmlowp::OutputStageClamp" }
%"struct.ruy::KernelParams8bit" = type <{ i32*, i32*, i32*, i8*, i32*, i32*, i8*, i8*, i32, i32, i32, i32, i32, i32, i32, i32, i32, i32, i32, i32, i32, i32, i32, i32, i8, i8, [2 x i8], [16 x i32], [1024 x i8], [16 x i32], [16 x i32], [4 x i8] }>
%"struct.ruy::PMat.161" = type <{ i8*, i32*, %"struct.ruy::PMatLayout", i32, [4 x i8] }>
%"struct.ruy::Kernel.162" = type { i8 }
%"struct.ruy::KernelParams8bit.167" = type <{ i32*, i32*, i32*, i8*, i32*, i32*, i8*, i8*, i32, i32, i32, i32, i32, i32, i32, i32, i32, i32, i32, i32, i32, i32, i32, i32, i8, i8, [2 x i8], [8 x i32], [256 x i8], [8 x i32], [8 x i32], [4 x i8] }>
%"class.gemmlowp::MatrixMap.195" = type <{ i8*, i32, i32, i32, [4 x i8] }>
%"class.std::__1::tuple.197" = type { %"struct.std::__1::__tuple_impl.198" }
%"struct.std::__1::__tuple_impl.198" = type { %"class.std::__1::__tuple_leaf.199", %"class.std::__1::__tuple_leaf.184", %"class.std::__1::__tuple_leaf.185", [4 x i8] }
%"class.std::__1::__tuple_leaf.199" = type { %"struct.gemmlowp::OutputStageBiasAddition.200" }
%"struct.gemmlowp::OutputStageBiasAddition.200" = type { %"class.gemmlowp::VectorMap.201" }
%"class.gemmlowp::VectorMap.201" = type <{ i32*, i32, [4 x i8] }>
%"struct.gemmlowp::DefaultKernel" = type { %"struct.gemmlowp::DefaultKernelImpl" }
%"struct.gemmlowp::DefaultKernelImpl" = type { %"struct.gemmlowp::DefaultKernelImpl.204" }
%"struct.gemmlowp::DefaultKernelImpl.204" = type { %"struct.gemmlowp::ReferenceKernel" }
%"struct.gemmlowp::ReferenceKernel" = type { %"struct.gemmlowp::KernelBase" }
%"struct.gemmlowp::KernelBase" = type { i32 (...)** }
%"class.gemmlowp::SideMap" = type <{ i8*, i32, i32, i32, [4 x i8] }>
%"class.gemmlowp::PackSideBlockImpl" = type { %"class.gemmlowp::PackedSideBlock"*, %"class.gemmlowp::SideMap"* }
%"class.gemmlowp::PackedSideBlock" = type <{ %"struct.gemmlowp::SideBlockParams", %"class.gemmlowp::Allocator"*, %"class.gemmlowp::Allocator::Handle", %"class.gemmlowp::Allocator::Handle", i32, [4 x i8] }>
%"struct.gemmlowp::SideBlockParams" = type { i32, i32, i32, i32 }
%"class.gemmlowp::Allocator::Handle" = type <{ i8, [7 x i8], i64, i8, [7 x i8] }>
%"struct.gemmlowp::BlockParams" = type { i32, i32, i32, i32, i32, i32 }
%"class.std::__1::vector.205" = type { %"class.std::__1::__vector_base.206" }
%"class.std::__1::__vector_base.206" = type { %"struct.gemmlowp::Task"**, %"struct.gemmlowp::Task"**, %"class.std::__1::__compressed_pair.207" }
%"class.std::__1::__compressed_pair.207" = type { %"struct.std::__1::__compressed_pair_elem.208" }
%"struct.std::__1::__compressed_pair_elem.208" = type { %"struct.gemmlowp::Task"** }
%"class.gemmlowp::SingleThreadGemmContext" = type <{ %"class.gemmlowp::Allocator", i32, i32, float, [4 x i8] }>
%"class.gemmlowp::ComputeImpl" = type { %"struct.gemmlowp::KernelBase"*, %"struct.gemmlowp::BlockParams"*, %"class.gemmlowp::PackedResult"*, %"class.gemmlowp::PackedSideBlock"*, %"class.gemmlowp::PackedSideBlock"* }
%"class.gemmlowp::PackedResult" = type { %"class.gemmlowp::Allocator"*, %"class.gemmlowp::Allocator::Handle", %"struct.gemmlowp::BlockParams"* }
%"struct.gemmlowp::MatrixBlockBounds" = type { i32, i32, i32, i32 }
%"struct.gemmlowp::RegisterBlock" = type { %"struct.gemmlowp::RegisterBuffer" }
%"struct.gemmlowp::RegisterBuffer" = type { [64 x i8] }
%"class.gemmlowp::MatrixMap.214" = type <{ i32*, i32, i32, i32, [4 x i8] }>
%"struct.gemmlowp::OutputPipelineExecutor" = type { %"struct.gemmlowp::OutputPipelineEvalImpl" }
%"struct.gemmlowp::OutputPipelineEvalImpl" = type { %"struct.gemmlowp::OutputStageEvalImpl", %"struct.gemmlowp::OutputPipelineEvalImpl.216" }
%"struct.gemmlowp::OutputStageEvalImpl" = type { %"struct.gemmlowp::OutputStageBiasAddition.200"* }
%"struct.gemmlowp::OutputPipelineEvalImpl.216" = type { %"struct.gemmlowp::OutputStageEvalImpl.217", %"struct.gemmlowp::OutputPipelineEvalImpl.218" }
%"struct.gemmlowp::OutputStageEvalImpl.217" = type { %"struct.gemmlowp::OutputStageEvalBufferImpl" }
%"struct.gemmlowp::OutputStageEvalBufferImpl" = type { %"struct.gemmlowp::OutputStageScaleInt32ByFixedPointAndExponent"*, i32, i32 }
%"struct.gemmlowp::OutputPipelineEvalImpl.218" = type <{ %"struct.gemmlowp::OutputStageEvalImpl.219", %"struct.gemmlowp::OutputPipelineEvalImpl.221", [6 x i8] }>
%"struct.gemmlowp::OutputStageEvalImpl.219" = type { %"struct.gemmlowp::OutputStageEvalBufferImpl.220" }
%"struct.gemmlowp::OutputStageEvalBufferImpl.220" = type { %"struct.gemmlowp::OutputStageClamp"* }
%"struct.gemmlowp::OutputPipelineEvalImpl.221" = type { %"struct.gemmlowp::OutputStageEvalImpl.222", %"struct.gemmlowp::OutputPipelineEvalImpl.224" }
%"struct.gemmlowp::OutputStageEvalImpl.222" = type { %"struct.gemmlowp::OutputStageEvalBufferImpl.223" }
%"struct.gemmlowp::OutputStageEvalBufferImpl.223" = type { i8 }
%"struct.gemmlowp::OutputPipelineEvalImpl.224" = type { i8 }
%"struct.gemmlowp::OutputPipelineExecutor.226" = type { %"struct.gemmlowp::OutputPipelineEvalImpl.227" }
%"struct.gemmlowp::OutputPipelineEvalImpl.227" = type { %"struct.gemmlowp::OutputStageEvalImpl.228", %"struct.gemmlowp::OutputPipelineEvalImpl.229" }
%"struct.gemmlowp::OutputStageEvalImpl.228" = type { %"struct.gemmlowp::OutputStageBiasAddition.200"* }
%"struct.gemmlowp::OutputPipelineEvalImpl.229" = type { %"struct.gemmlowp::OutputStageEvalImpl.230", %"struct.gemmlowp::OutputPipelineEvalImpl.232" }
%"struct.gemmlowp::OutputStageEvalImpl.230" = type { %"struct.gemmlowp::OutputStageEvalBufferImpl.231" }
%"struct.gemmlowp::OutputStageEvalBufferImpl.231" = type { %"struct.gemmlowp::OutputStageScaleInt32ByFixedPointAndExponent"*, i32, i32 }
%"struct.gemmlowp::OutputPipelineEvalImpl.232" = type <{ %"struct.gemmlowp::OutputStageEvalImpl.233", %"struct.gemmlowp::OutputPipelineEvalImpl.235", [6 x i8] }>
%"struct.gemmlowp::OutputStageEvalImpl.233" = type { %"struct.gemmlowp::OutputStageEvalBufferImpl.234" }
%"struct.gemmlowp::OutputStageEvalBufferImpl.234" = type { %"struct.gemmlowp::OutputStageClamp"* }
%"struct.gemmlowp::OutputPipelineEvalImpl.235" = type { %"struct.gemmlowp::OutputStageEvalImpl.236", %"struct.gemmlowp::OutputPipelineEvalImpl.239" }
%"struct.gemmlowp::OutputStageEvalImpl.236" = type { %"struct.gemmlowp::OutputStageEvalBufferImpl.237" }
%"struct.gemmlowp::OutputStageEvalBufferImpl.237" = type { i8 }
%"struct.gemmlowp::OutputPipelineEvalImpl.239" = type { i8 }
%"struct.gemmlowp::OutputPipelineExecutor.242" = type { %"struct.gemmlowp::OutputPipelineEvalImpl.243" }
%"struct.gemmlowp::OutputPipelineEvalImpl.243" = type { %"struct.gemmlowp::OutputStageEvalImpl.244", %"struct.gemmlowp::OutputPipelineEvalImpl.245" }
%"struct.gemmlowp::OutputStageEvalImpl.244" = type { %"struct.gemmlowp::OutputStageBiasAddition.200"* }
%"struct.gemmlowp::OutputPipelineEvalImpl.245" = type { %"struct.gemmlowp::OutputStageEvalImpl.246", %"struct.gemmlowp::OutputPipelineEvalImpl.248" }
%"struct.gemmlowp::OutputStageEvalImpl.246" = type { %"struct.gemmlowp::OutputStageEvalBufferImpl.247" }
%"struct.gemmlowp::OutputStageEvalBufferImpl.247" = type { %"struct.gemmlowp::OutputStageScaleInt32ByFixedPointAndExponent"*, i32, i32 }
%"struct.gemmlowp::OutputPipelineEvalImpl.248" = type <{ %"struct.gemmlowp::OutputStageEvalImpl.249", %"struct.gemmlowp::OutputPipelineEvalImpl.251", [6 x i8] }>
%"struct.gemmlowp::OutputStageEvalImpl.249" = type { %"struct.gemmlowp::OutputStageEvalBufferImpl.250" }
%"struct.gemmlowp::OutputStageEvalBufferImpl.250" = type { %"struct.gemmlowp::OutputStageClamp"* }
%"struct.gemmlowp::OutputPipelineEvalImpl.251" = type { %"struct.gemmlowp::OutputStageEvalImpl.252", %"struct.gemmlowp::OutputPipelineEvalImpl.255" }
%"struct.gemmlowp::OutputStageEvalImpl.252" = type { %"struct.gemmlowp::OutputStageEvalBufferImpl.253" }
%"struct.gemmlowp::OutputStageEvalBufferImpl.253" = type { i8 }
%"struct.gemmlowp::OutputPipelineEvalImpl.255" = type { i8 }
%"struct.gemmlowp::OutputPipelineExecutor.258" = type { %"struct.gemmlowp::OutputPipelineEvalImpl.259" }
%"struct.gemmlowp::OutputPipelineEvalImpl.259" = type { %"struct.gemmlowp::OutputStageEvalImpl.260", %"struct.gemmlowp::OutputPipelineEvalImpl.261" }
%"struct.gemmlowp::OutputStageEvalImpl.260" = type { %"struct.gemmlowp::OutputStageBiasAddition.200"* }
%"struct.gemmlowp::OutputPipelineEvalImpl.261" = type { %"struct.gemmlowp::OutputStageEvalImpl.262", %"struct.gemmlowp::OutputPipelineEvalImpl.263" }
%"struct.gemmlowp::OutputStageEvalImpl.262" = type { %"struct.gemmlowp::OutputStageEvalBufferImpl.231" }
%"struct.gemmlowp::OutputPipelineEvalImpl.263" = type <{ %"struct.gemmlowp::OutputStageEvalImpl.264", %"struct.gemmlowp::OutputPipelineEvalImpl.265", [6 x i8] }>
%"struct.gemmlowp::OutputStageEvalImpl.264" = type { %"struct.gemmlowp::OutputStageEvalBufferImpl.234" }
%"struct.gemmlowp::OutputPipelineEvalImpl.265" = type { %"struct.gemmlowp::OutputStageEvalImpl.266", %"struct.gemmlowp::OutputPipelineEvalImpl.267" }
%"struct.gemmlowp::OutputStageEvalImpl.266" = type { %"struct.gemmlowp::OutputStageEvalBufferImpl.237" }
%"struct.gemmlowp::OutputPipelineEvalImpl.267" = type { i8 }
%"struct.gemmlowp::OutputPipelineExecutor.270" = type { %"struct.gemmlowp::OutputPipelineEvalImpl.271" }
%"struct.gemmlowp::OutputPipelineEvalImpl.271" = type { %"struct.gemmlowp::OutputStageEvalImpl.272", %"struct.gemmlowp::OutputPipelineEvalImpl.273" }
%"struct.gemmlowp::OutputStageEvalImpl.272" = type { %"struct.gemmlowp::OutputStageBiasAddition.200"* }
%"struct.gemmlowp::OutputPipelineEvalImpl.273" = type { %"struct.gemmlowp::OutputStageEvalImpl.274", %"struct.gemmlowp::OutputPipelineEvalImpl.276" }
%"struct.gemmlowp::OutputStageEvalImpl.274" = type { %"struct.gemmlowp::OutputStageEvalBufferImpl.275" }
%"struct.gemmlowp::OutputStageEvalBufferImpl.275" = type { %"struct.gemmlowp::OutputStageScaleInt32ByFixedPointAndExponent"*, i32, i32 }
%"struct.gemmlowp::OutputPipelineEvalImpl.276" = type <{ %"struct.gemmlowp::OutputStageEvalImpl.277", %"struct.gemmlowp::OutputPipelineEvalImpl.279", [6 x i8] }>
%"struct.gemmlowp::OutputStageEvalImpl.277" = type { %"struct.gemmlowp::OutputStageEvalBufferImpl.278" }
%"struct.gemmlowp::OutputStageEvalBufferImpl.278" = type { %"struct.gemmlowp::OutputStageClamp"* }
%"struct.gemmlowp::OutputPipelineEvalImpl.279" = type { %"struct.gemmlowp::OutputStageEvalImpl.280", %"struct.gemmlowp::OutputPipelineEvalImpl.283" }
%"struct.gemmlowp::OutputStageEvalImpl.280" = type { %"struct.gemmlowp::OutputStageEvalBufferImpl.281" }
%"struct.gemmlowp::OutputStageEvalBufferImpl.281" = type { i8 }
%"struct.gemmlowp::OutputPipelineEvalImpl.283" = type { i8 }
%"struct.gemmlowp::OutputPipelineExecutor.286" = type { %"struct.gemmlowp::OutputPipelineEvalImpl.287" }
%"struct.gemmlowp::OutputPipelineEvalImpl.287" = type { %"struct.gemmlowp::OutputStageEvalImpl.288", %"struct.gemmlowp::OutputPipelineEvalImpl.289" }
%"struct.gemmlowp::OutputStageEvalImpl.288" = type { %"struct.gemmlowp::OutputStageBiasAddition.200"* }
%"struct.gemmlowp::OutputPipelineEvalImpl.289" = type { %"struct.gemmlowp::OutputStageEvalImpl.290", %"struct.gemmlowp::OutputPipelineEvalImpl.292" }
%"struct.gemmlowp::OutputStageEvalImpl.290" = type { %"struct.gemmlowp::OutputStageEvalBufferImpl.291" }
%"struct.gemmlowp::OutputStageEvalBufferImpl.291" = type { %"struct.gemmlowp::OutputStageScaleInt32ByFixedPointAndExponent"*, i32, i32 }
%"struct.gemmlowp::OutputPipelineEvalImpl.292" = type <{ %"struct.gemmlowp::OutputStageEvalImpl.293", %"struct.gemmlowp::OutputPipelineEvalImpl.295", [6 x i8] }>
%"struct.gemmlowp::OutputStageEvalImpl.293" = type { %"struct.gemmlowp::OutputStageEvalBufferImpl.294" }
%"struct.gemmlowp::OutputStageEvalBufferImpl.294" = type { %"struct.gemmlowp::OutputStageClamp"* }
%"struct.gemmlowp::OutputPipelineEvalImpl.295" = type { %"struct.gemmlowp::OutputStageEvalImpl.296", %"struct.gemmlowp::OutputPipelineEvalImpl.299" }
%"struct.gemmlowp::OutputStageEvalImpl.296" = type { %"struct.gemmlowp::OutputStageEvalBufferImpl.297" }
%"struct.gemmlowp::OutputStageEvalBufferImpl.297" = type { i8 }
%"struct.gemmlowp::OutputPipelineEvalImpl.299" = type { i8 }
%"class.gemmlowp::PackingRegisterBlock" = type { %"class.gemmlowp::PackingRegisterBlockBase" }
%"class.gemmlowp::PackingRegisterBlockBase" = type { %"class.gemmlowp::SideMap", [64 x i8] }
%"struct.gemmlowp::RegisterBlock.302" = type { %"struct.gemmlowp::RegisterBuffer.303" }
%"struct.gemmlowp::RegisterBuffer.303" = type { [32 x i32] }
%"struct.gemmlowp::RegisterBlock.312" = type { %"struct.gemmlowp::RegisterBuffer.313" }
%"struct.gemmlowp::RegisterBuffer.313" = type { [16 x i32] }
%"struct.gemmlowp::RegisterBlock.304" = type { %"struct.gemmlowp::RegisterBuffer.305" }
%"struct.gemmlowp::RegisterBuffer.305" = type { [8 x i32] }
%"struct.gemmlowp::RegisterBlock.310" = type { %"struct.gemmlowp::RegisterBuffer.311" }
%"struct.gemmlowp::RegisterBuffer.311" = type { [32 x i8] }
%"struct.gemmlowp::GemmWithPackedRhsTask" = type { %"struct.gemmlowp::Task", %"class.gemmlowp::GemmContext"*, %"struct.gemmlowp::KernelBase"*, %"class.gemmlowp::MatrixMap", %"class.gemmlowp::PackedSideBlock", %"class.gemmlowp::MatrixMap.195", %"struct.gemmlowp::MatrixBlockBounds", %"class.gemmlowp::VectorDup.194"*, %"class.gemmlowp::VectorDup"*, %"struct.gemmlowp::BlockParams"*, %"class.std::__1::tuple.197"* }
%"struct.gemmlowp::OutputPipelineExecutor.329" = type { %"struct.gemmlowp::OutputPipelineEvalImpl.330" }
%"struct.gemmlowp::OutputPipelineEvalImpl.330" = type { %"struct.gemmlowp::OutputStageEvalImpl.331", %"struct.gemmlowp::OutputPipelineEvalImpl.332" }
%"struct.gemmlowp::OutputStageEvalImpl.331" = type { %"struct.gemmlowp::OutputStageBiasAddition"* }
%"struct.gemmlowp::OutputPipelineEvalImpl.332" = type { %"struct.gemmlowp::OutputStageEvalImpl.217", %"struct.gemmlowp::OutputPipelineEvalImpl.333" }
%"struct.gemmlowp::OutputPipelineEvalImpl.333" = type <{ %"struct.gemmlowp::OutputStageEvalImpl.219", %"struct.gemmlowp::OutputPipelineEvalImpl.334", [6 x i8] }>
%"struct.gemmlowp::OutputPipelineEvalImpl.334" = type { %"struct.gemmlowp::OutputStageEvalImpl.222", %"struct.gemmlowp::OutputPipelineEvalImpl.335" }
%"struct.gemmlowp::OutputPipelineEvalImpl.335" = type { i8 }
%"struct.gemmlowp::OutputPipelineExecutor.338" = type { %"struct.gemmlowp::OutputPipelineEvalImpl.339" }
%"struct.gemmlowp::OutputPipelineEvalImpl.339" = type { %"struct.gemmlowp::OutputStageEvalImpl.340", %"struct.gemmlowp::OutputPipelineEvalImpl.341" }
%"struct.gemmlowp::OutputStageEvalImpl.340" = type { %"struct.gemmlowp::OutputStageBiasAddition"* }
%"struct.gemmlowp::OutputPipelineEvalImpl.341" = type { %"struct.gemmlowp::OutputStageEvalImpl.230", %"struct.gemmlowp::OutputPipelineEvalImpl.342" }
%"struct.gemmlowp::OutputPipelineEvalImpl.342" = type <{ %"struct.gemmlowp::OutputStageEvalImpl.233", %"struct.gemmlowp::OutputPipelineEvalImpl.343", [6 x i8] }>
%"struct.gemmlowp::OutputPipelineEvalImpl.343" = type { %"struct.gemmlowp::OutputStageEvalImpl.236", %"struct.gemmlowp::OutputPipelineEvalImpl.344" }
%"struct.gemmlowp::OutputPipelineEvalImpl.344" = type { i8 }
%"struct.gemmlowp::OutputPipelineExecutor.347" = type { %"struct.gemmlowp::OutputPipelineEvalImpl.348" }
%"struct.gemmlowp::OutputPipelineEvalImpl.348" = type { %"struct.gemmlowp::OutputStageEvalImpl.349", %"struct.gemmlowp::OutputPipelineEvalImpl.350" }
%"struct.gemmlowp::OutputStageEvalImpl.349" = type { %"struct.gemmlowp::OutputStageBiasAddition"* }
%"struct.gemmlowp::OutputPipelineEvalImpl.350" = type { %"struct.gemmlowp::OutputStageEvalImpl.246", %"struct.gemmlowp::OutputPipelineEvalImpl.351" }
%"struct.gemmlowp::OutputPipelineEvalImpl.351" = type <{ %"struct.gemmlowp::OutputStageEvalImpl.249", %"struct.gemmlowp::OutputPipelineEvalImpl.352", [6 x i8] }>
%"struct.gemmlowp::OutputPipelineEvalImpl.352" = type { %"struct.gemmlowp::OutputStageEvalImpl.252", %"struct.gemmlowp::OutputPipelineEvalImpl.353" }
%"struct.gemmlowp::OutputPipelineEvalImpl.353" = type { i8 }
%"struct.gemmlowp::OutputPipelineExecutor.356" = type { %"struct.gemmlowp::OutputPipelineEvalImpl.357" }
%"struct.gemmlowp::OutputPipelineEvalImpl.357" = type { %"struct.gemmlowp::OutputStageEvalImpl.358", %"struct.gemmlowp::OutputPipelineEvalImpl.359" }
%"struct.gemmlowp::OutputStageEvalImpl.358" = type { %"struct.gemmlowp::OutputStageBiasAddition"* }
%"struct.gemmlowp::OutputPipelineEvalImpl.359" = type { %"struct.gemmlowp::OutputStageEvalImpl.262", %"struct.gemmlowp::OutputPipelineEvalImpl.360" }
%"struct.gemmlowp::OutputPipelineEvalImpl.360" = type <{ %"struct.gemmlowp::OutputStageEvalImpl.264", %"struct.gemmlowp::OutputPipelineEvalImpl.361", [6 x i8] }>
%"struct.gemmlowp::OutputPipelineEvalImpl.361" = type { %"struct.gemmlowp::OutputStageEvalImpl.266", %"struct.gemmlowp::OutputPipelineEvalImpl.362" }
%"struct.gemmlowp::OutputPipelineEvalImpl.362" = type { i8 }
%"struct.gemmlowp::OutputPipelineExecutor.365" = type { %"struct.gemmlowp::OutputPipelineEvalImpl.366" }
%"struct.gemmlowp::OutputPipelineEvalImpl.366" = type { %"struct.gemmlowp::OutputStageEvalImpl.367", %"struct.gemmlowp::OutputPipelineEvalImpl.368" }
%"struct.gemmlowp::OutputStageEvalImpl.367" = type { %"struct.gemmlowp::OutputStageBiasAddition"* }
%"struct.gemmlowp::OutputPipelineEvalImpl.368" = type { %"struct.gemmlowp::OutputStageEvalImpl.274", %"struct.gemmlowp::OutputPipelineEvalImpl.369" }
%"struct.gemmlowp::OutputPipelineEvalImpl.369" = type <{ %"struct.gemmlowp::OutputStageEvalImpl.277", %"struct.gemmlowp::OutputPipelineEvalImpl.370", [6 x i8] }>
%"struct.gemmlowp::OutputPipelineEvalImpl.370" = type { %"struct.gemmlowp::OutputStageEvalImpl.280", %"struct.gemmlowp::OutputPipelineEvalImpl.371" }
%"struct.gemmlowp::OutputPipelineEvalImpl.371" = type { i8 }
%"struct.gemmlowp::OutputPipelineExecutor.374" = type { %"struct.gemmlowp::OutputPipelineEvalImpl.375" }
%"struct.gemmlowp::OutputPipelineEvalImpl.375" = type { %"struct.gemmlowp::OutputStageEvalImpl.376", %"struct.gemmlowp::OutputPipelineEvalImpl.377" }
%"struct.gemmlowp::OutputStageEvalImpl.376" = type { %"struct.gemmlowp::OutputStageBiasAddition"* }
%"struct.gemmlowp::OutputPipelineEvalImpl.377" = type { %"struct.gemmlowp::OutputStageEvalImpl.290", %"struct.gemmlowp::OutputPipelineEvalImpl.378" }
%"struct.gemmlowp::OutputPipelineEvalImpl.378" = type <{ %"struct.gemmlowp::OutputStageEvalImpl.293", %"struct.gemmlowp::OutputPipelineEvalImpl.379", [6 x i8] }>
%"struct.gemmlowp::OutputPipelineEvalImpl.379" = type { %"struct.gemmlowp::OutputStageEvalImpl.296", %"struct.gemmlowp::OutputPipelineEvalImpl.380" }
%"struct.gemmlowp::OutputPipelineEvalImpl.380" = type { i8 }
%"struct.gemmlowp::GemmWithPackedRhsTask.328" = type { %"struct.gemmlowp::Task", %"class.gemmlowp::GemmContext"*, %"struct.gemmlowp::KernelBase"*, %"class.gemmlowp::MatrixMap", %"class.gemmlowp::PackedSideBlock", %"class.gemmlowp::MatrixMap.182", %"struct.gemmlowp::MatrixBlockBounds", %"class.gemmlowp::VectorDup"*, %"class.gemmlowp::VectorDup.194"*, %"struct.gemmlowp::BlockParams"*, %"class.std::__1::tuple"* }
%"struct.gemmlowp::OutputPipelineExecutor.393" = type { %"struct.gemmlowp::OutputPipelineEvalImpl.394" }
%"struct.gemmlowp::OutputPipelineEvalImpl.394" = type { %"struct.gemmlowp::OutputStageEvalImpl.230", %"struct.gemmlowp::OutputPipelineEvalImpl.395" }
%"struct.gemmlowp::OutputPipelineEvalImpl.395" = type <{ %"struct.gemmlowp::OutputStageEvalImpl.233", %"struct.gemmlowp::OutputPipelineEvalImpl.396", [6 x i8] }>
%"struct.gemmlowp::OutputPipelineEvalImpl.396" = type { %"struct.gemmlowp::OutputStageEvalImpl.236", %"struct.gemmlowp::OutputPipelineEvalImpl.397" }
%"struct.gemmlowp::OutputPipelineEvalImpl.397" = type { i8 }
%"struct.gemmlowp::OutputPipelineExecutor.400" = type { %"struct.gemmlowp::OutputPipelineEvalImpl.401" }
%"struct.gemmlowp::OutputPipelineEvalImpl.401" = type { %"struct.gemmlowp::OutputStageEvalImpl.246", %"struct.gemmlowp::OutputPipelineEvalImpl.402" }
%"struct.gemmlowp::OutputPipelineEvalImpl.402" = type <{ %"struct.gemmlowp::OutputStageEvalImpl.249", %"struct.gemmlowp::OutputPipelineEvalImpl.403", [6 x i8] }>
%"struct.gemmlowp::OutputPipelineEvalImpl.403" = type { %"struct.gemmlowp::OutputStageEvalImpl.252", %"struct.gemmlowp::OutputPipelineEvalImpl.404" }
%"struct.gemmlowp::OutputPipelineEvalImpl.404" = type { i8 }
%"struct.gemmlowp::OutputPipelineExecutor.407" = type { %"struct.gemmlowp::OutputPipelineEvalImpl.408" }
%"struct.gemmlowp::OutputPipelineEvalImpl.408" = type { %"struct.gemmlowp::OutputStageEvalImpl.262", %"struct.gemmlowp::OutputPipelineEvalImpl.409" }
%"struct.gemmlowp::OutputPipelineEvalImpl.409" = type <{ %"struct.gemmlowp::OutputStageEvalImpl.264", %"struct.gemmlowp::OutputPipelineEvalImpl.410", [6 x i8] }>
%"struct.gemmlowp::OutputPipelineEvalImpl.410" = type { %"struct.gemmlowp::OutputStageEvalImpl.266", %"struct.gemmlowp::OutputPipelineEvalImpl.411" }
%"struct.gemmlowp::OutputPipelineEvalImpl.411" = type { i8 }
%"struct.gemmlowp::OutputPipelineExecutor.414" = type { %"struct.gemmlowp::OutputPipelineEvalImpl.415" }
%"struct.gemmlowp::OutputPipelineEvalImpl.415" = type { %"struct.gemmlowp::OutputStageEvalImpl.274", %"struct.gemmlowp::OutputPipelineEvalImpl.416" }
%"struct.gemmlowp::OutputPipelineEvalImpl.416" = type <{ %"struct.gemmlowp::OutputStageEvalImpl.277", %"struct.gemmlowp::OutputPipelineEvalImpl.417", [6 x i8] }>
%"struct.gemmlowp::OutputPipelineEvalImpl.417" = type { %"struct.gemmlowp::OutputStageEvalImpl.280", %"struct.gemmlowp::OutputPipelineEvalImpl.418" }
%"struct.gemmlowp::OutputPipelineEvalImpl.418" = type { i8 }
%"struct.gemmlowp::OutputPipelineExecutor.421" = type { %"struct.gemmlowp::OutputPipelineEvalImpl.422" }
%"struct.gemmlowp::OutputPipelineEvalImpl.422" = type { %"struct.gemmlowp::OutputStageEvalImpl.290", %"struct.gemmlowp::OutputPipelineEvalImpl.423" }
%"struct.gemmlowp::OutputPipelineEvalImpl.423" = type <{ %"struct.gemmlowp::OutputStageEvalImpl.293", %"struct.gemmlowp::OutputPipelineEvalImpl.424", [6 x i8] }>
%"struct.gemmlowp::OutputPipelineEvalImpl.424" = type { %"struct.gemmlowp::OutputStageEvalImpl.296", %"struct.gemmlowp::OutputPipelineEvalImpl.425" }
%"struct.gemmlowp::OutputPipelineEvalImpl.425" = type { i8 }
%"struct.gemmlowp::GemmWithPackedRhsTask.385" = type { %"struct.gemmlowp::Task", %"class.gemmlowp::GemmContext"*, %"struct.gemmlowp::KernelBase"*, %"class.gemmlowp::MatrixMap", %"class.gemmlowp::PackedSideBlock", %"class.gemmlowp::MatrixMap.195", %"struct.gemmlowp::MatrixBlockBounds", %"class.gemmlowp::VectorDup.194"*, %"class.gemmlowp::VectorDup"*, %"struct.gemmlowp::BlockParams"*, %"class.std::__1::tuple.187"* }
%"struct.gemmlowp::GemmWithPackedRhsTask.428" = type { %"struct.gemmlowp::Task", %"class.gemmlowp::GemmContext"*, %"struct.gemmlowp::KernelBase"*, %"class.gemmlowp::MatrixMap", %"class.gemmlowp::PackedSideBlock", %"class.gemmlowp::MatrixMap.182", %"struct.gemmlowp::MatrixBlockBounds", %"class.gemmlowp::VectorDup"*, %"class.gemmlowp::VectorDup.194"*, %"struct.gemmlowp::BlockParams"*, %"class.std::__1::tuple.187"* }
%"struct.ruy::Mat.438" = type <{ %"class.ruy::detail::ConstCheckingPtr.435", %"struct.ruy::MatLayout", i8, i8, [6 x i8] }>
%"class.ruy::detail::ConstCheckingPtr.435" = type { i8* }
%"class.ruy::MulParams.436" = type <{ i32*, i32, i32, i32*, i32*, i8, i8, [6 x i8] }>
%"struct.ruy::PMat.164" = type <{ i8*, i32*, %"struct.ruy::PMatLayout", i32, [4 x i8] }>
%"struct.ruy::Kernel.439" = type { i8 }
%"struct.ruy::Mat.463" = type <{ %"class.ruy::detail::ConstCheckingPtr.460", %"struct.ruy::MatLayout", i16, i8, [5 x i8] }>
%"class.ruy::detail::ConstCheckingPtr.460" = type { i16* }
%"class.ruy::MulParams.461" = type <{ i32*, i32, i32, i32*, i32*, i16, i16, [4 x i8] }>
%"class.gemmlowp::MatrixMap.479" = type <{ i16*, i32, i32, i32, [4 x i8] }>
%"class.std::__1::tuple.481" = type { %"struct.std::__1::__tuple_impl.482" }
%"struct.std::__1::__tuple_impl.482" = type { %"class.std::__1::__tuple_leaf", %"class.std::__1::__tuple_leaf.184", %"class.std::__1::__tuple_leaf.185", [4 x i8] }
%"class.std::__1::tuple.485" = type { %"struct.std::__1::__tuple_impl.486" }
%"struct.std::__1::__tuple_impl.486" = type { %"class.std::__1::__tuple_leaf.189", %"class.std::__1::__tuple_leaf.190" }
%"struct.ruy::Kernel.464" = type { i8 }
%"class.gemmlowp::MatrixMap.489" = type <{ i16*, i32, i32, i32, [4 x i8] }>
%"class.std::__1::tuple.491" = type { %"struct.std::__1::__tuple_impl.492" }
%"struct.std::__1::__tuple_impl.492" = type { %"class.std::__1::__tuple_leaf.199", %"class.std::__1::__tuple_leaf.184", %"class.std::__1::__tuple_leaf.185", [4 x i8] }
%"struct.gemmlowp::RegisterBlock.559" = type { %"struct.gemmlowp::RegisterBuffer.560" }
%"struct.gemmlowp::RegisterBuffer.560" = type { [64 x i16] }
%"struct.gemmlowp::OutputPipelineExecutor.495" = type { %"struct.gemmlowp::OutputPipelineEvalImpl.496" }
%"struct.gemmlowp::OutputPipelineEvalImpl.496" = type { %"struct.gemmlowp::OutputStageEvalImpl", %"struct.gemmlowp::OutputPipelineEvalImpl.497" }
%"struct.gemmlowp::OutputPipelineEvalImpl.497" = type { %"struct.gemmlowp::OutputStageEvalImpl.217", %"struct.gemmlowp::OutputPipelineEvalImpl.498" }
%"struct.gemmlowp::OutputPipelineEvalImpl.498" = type <{ %"struct.gemmlowp::OutputStageEvalImpl.219", %"struct.gemmlowp::OutputPipelineEvalImpl.499", [6 x i8] }>
%"struct.gemmlowp::OutputPipelineEvalImpl.499" = type { %"struct.gemmlowp::OutputStageEvalImpl.500", %"struct.gemmlowp::OutputPipelineEvalImpl.503" }
%"struct.gemmlowp::OutputStageEvalImpl.500" = type { %"struct.gemmlowp::OutputStageEvalBufferImpl.501" }
%"struct.gemmlowp::OutputStageEvalBufferImpl.501" = type { i8 }
%"struct.gemmlowp::OutputPipelineEvalImpl.503" = type { i8 }
%"struct.gemmlowp::OutputPipelineExecutor.506" = type { %"struct.gemmlowp::OutputPipelineEvalImpl.507" }
%"struct.gemmlowp::OutputPipelineEvalImpl.507" = type { %"struct.gemmlowp::OutputStageEvalImpl.228", %"struct.gemmlowp::OutputPipelineEvalImpl.508" }
%"struct.gemmlowp::OutputPipelineEvalImpl.508" = type { %"struct.gemmlowp::OutputStageEvalImpl.230", %"struct.gemmlowp::OutputPipelineEvalImpl.509" }
%"struct.gemmlowp::OutputPipelineEvalImpl.509" = type <{ %"struct.gemmlowp::OutputStageEvalImpl.233", %"struct.gemmlowp::OutputPipelineEvalImpl.510", [6 x i8] }>
%"struct.gemmlowp::OutputPipelineEvalImpl.510" = type { %"struct.gemmlowp::OutputStageEvalImpl.511", %"struct.gemmlowp::OutputPipelineEvalImpl.514" }
%"struct.gemmlowp::OutputStageEvalImpl.511" = type { %"struct.gemmlowp::OutputStageEvalBufferImpl.512" }
%"struct.gemmlowp::OutputStageEvalBufferImpl.512" = type { i8 }
%"struct.gemmlowp::OutputPipelineEvalImpl.514" = type { i8 }
%"struct.gemmlowp::OutputPipelineExecutor.517" = type { %"struct.gemmlowp::OutputPipelineEvalImpl.518" }
%"struct.gemmlowp::OutputPipelineEvalImpl.518" = type { %"struct.gemmlowp::OutputStageEvalImpl.244", %"struct.gemmlowp::OutputPipelineEvalImpl.519" }
%"struct.gemmlowp::OutputPipelineEvalImpl.519" = type { %"struct.gemmlowp::OutputStageEvalImpl.246", %"struct.gemmlowp::OutputPipelineEvalImpl.520" }
%"struct.gemmlowp::OutputPipelineEvalImpl.520" = type <{ %"struct.gemmlowp::OutputStageEvalImpl.249", %"struct.gemmlowp::OutputPipelineEvalImpl.521", [6 x i8] }>
%"struct.gemmlowp::OutputPipelineEvalImpl.521" = type { %"struct.gemmlowp::OutputStageEvalImpl.522", %"struct.gemmlowp::OutputPipelineEvalImpl.525" }
%"struct.gemmlowp::OutputStageEvalImpl.522" = type { %"struct.gemmlowp::OutputStageEvalBufferImpl.523" }
%"struct.gemmlowp::OutputStageEvalBufferImpl.523" = type { i8 }
%"struct.gemmlowp::OutputPipelineEvalImpl.525" = type { i8 }
%"struct.gemmlowp::OutputPipelineExecutor.528" = type { %"struct.gemmlowp::OutputPipelineEvalImpl.529" }
%"struct.gemmlowp::OutputPipelineEvalImpl.529" = type { %"struct.gemmlowp::OutputStageEvalImpl.260", %"struct.gemmlowp::OutputPipelineEvalImpl.530" }
%"struct.gemmlowp::OutputPipelineEvalImpl.530" = type { %"struct.gemmlowp::OutputStageEvalImpl.262", %"struct.gemmlowp::OutputPipelineEvalImpl.531" }
%"struct.gemmlowp::OutputPipelineEvalImpl.531" = type <{ %"struct.gemmlowp::OutputStageEvalImpl.264", %"struct.gemmlowp::OutputPipelineEvalImpl.532", [6 x i8] }>
%"struct.gemmlowp::OutputPipelineEvalImpl.532" = type { %"struct.gemmlowp::OutputStageEvalImpl.533", %"struct.gemmlowp::OutputPipelineEvalImpl.534" }
%"struct.gemmlowp::OutputStageEvalImpl.533" = type { %"struct.gemmlowp::OutputStageEvalBufferImpl.512" }
%"struct.gemmlowp::OutputPipelineEvalImpl.534" = type { i8 }
%"struct.gemmlowp::OutputPipelineExecutor.537" = type { %"struct.gemmlowp::OutputPipelineEvalImpl.538" }
%"struct.gemmlowp::OutputPipelineEvalImpl.538" = type { %"struct.gemmlowp::OutputStageEvalImpl.272", %"struct.gemmlowp::OutputPipelineEvalImpl.539" }
%"struct.gemmlowp::OutputPipelineEvalImpl.539" = type { %"struct.gemmlowp::OutputStageEvalImpl.274", %"struct.gemmlowp::OutputPipelineEvalImpl.540" }
%"struct.gemmlowp::OutputPipelineEvalImpl.540" = type <{ %"struct.gemmlowp::OutputStageEvalImpl.277", %"struct.gemmlowp::OutputPipelineEvalImpl.541", [6 x i8] }>
%"struct.gemmlowp::OutputPipelineEvalImpl.541" = type { %"struct.gemmlowp::OutputStageEvalImpl.542", %"struct.gemmlowp::OutputPipelineEvalImpl.545" }
%"struct.gemmlowp::OutputStageEvalImpl.542" = type { %"struct.gemmlowp::OutputStageEvalBufferImpl.543" }
%"struct.gemmlowp::OutputStageEvalBufferImpl.543" = type { i8 }
%"struct.gemmlowp::OutputPipelineEvalImpl.545" = type { i8 }
%"struct.gemmlowp::OutputPipelineExecutor.548" = type { %"struct.gemmlowp::OutputPipelineEvalImpl.549" }
%"struct.gemmlowp::OutputPipelineEvalImpl.549" = type { %"struct.gemmlowp::OutputStageEvalImpl.288", %"struct.gemmlowp::OutputPipelineEvalImpl.550" }
%"struct.gemmlowp::OutputPipelineEvalImpl.550" = type { %"struct.gemmlowp::OutputStageEvalImpl.290", %"struct.gemmlowp::OutputPipelineEvalImpl.551" }
%"struct.gemmlowp::OutputPipelineEvalImpl.551" = type <{ %"struct.gemmlowp::OutputStageEvalImpl.293", %"struct.gemmlowp::OutputPipelineEvalImpl.552", [6 x i8] }>
%"struct.gemmlowp::OutputPipelineEvalImpl.552" = type { %"struct.gemmlowp::OutputStageEvalImpl.553", %"struct.gemmlowp::OutputPipelineEvalImpl.556" }
%"struct.gemmlowp::OutputStageEvalImpl.553" = type { %"struct.gemmlowp::OutputStageEvalBufferImpl.554" }
%"struct.gemmlowp::OutputStageEvalBufferImpl.554" = type { i8 }
%"struct.gemmlowp::OutputPipelineEvalImpl.556" = type { i8 }
%"struct.gemmlowp::RegisterBlock.563" = type { %"struct.gemmlowp::RegisterBuffer.564" }
%"struct.gemmlowp::RegisterBuffer.564" = type { [16 x i16] }
%"struct.gemmlowp::RegisterBlock.561" = type { %"struct.gemmlowp::RegisterBuffer.562" }
%"struct.gemmlowp::RegisterBuffer.562" = type { [32 x i16] }
%"struct.gemmlowp::GemmWithPackedRhsTask.494" = type { %"struct.gemmlowp::Task", %"class.gemmlowp::GemmContext"*, %"struct.gemmlowp::KernelBase"*, %"class.gemmlowp::MatrixMap", %"class.gemmlowp::PackedSideBlock", %"class.gemmlowp::MatrixMap.489", %"struct.gemmlowp::MatrixBlockBounds", %"class.gemmlowp::VectorDup.194"*, %"class.gemmlowp::VectorDup"*, %"struct.gemmlowp::BlockParams"*, %"class.std::__1::tuple.491"* }
%"struct.gemmlowp::OutputPipelineExecutor.574" = type { %"struct.gemmlowp::OutputPipelineEvalImpl.575" }
%"struct.gemmlowp::OutputPipelineEvalImpl.575" = type { %"struct.gemmlowp::OutputStageEvalImpl.331", %"struct.gemmlowp::OutputPipelineEvalImpl.576" }
%"struct.gemmlowp::OutputPipelineEvalImpl.576" = type { %"struct.gemmlowp::OutputStageEvalImpl.217", %"struct.gemmlowp::OutputPipelineEvalImpl.577" }
%"struct.gemmlowp::OutputPipelineEvalImpl.577" = type <{ %"struct.gemmlowp::OutputStageEvalImpl.219", %"struct.gemmlowp::OutputPipelineEvalImpl.578", [6 x i8] }>
%"struct.gemmlowp::OutputPipelineEvalImpl.578" = type { %"struct.gemmlowp::OutputStageEvalImpl.500", %"struct.gemmlowp::OutputPipelineEvalImpl.579" }
%"struct.gemmlowp::OutputPipelineEvalImpl.579" = type { i8 }
%"struct.gemmlowp::OutputPipelineExecutor.582" = type { %"struct.gemmlowp::OutputPipelineEvalImpl.583" }
%"struct.gemmlowp::OutputPipelineEvalImpl.583" = type { %"struct.gemmlowp::OutputStageEvalImpl.340", %"struct.gemmlowp::OutputPipelineEvalImpl.584" }
%"struct.gemmlowp::OutputPipelineEvalImpl.584" = type { %"struct.gemmlowp::OutputStageEvalImpl.230", %"struct.gemmlowp::OutputPipelineEvalImpl.585" }
%"struct.gemmlowp::OutputPipelineEvalImpl.585" = type <{ %"struct.gemmlowp::OutputStageEvalImpl.233", %"struct.gemmlowp::OutputPipelineEvalImpl.586", [6 x i8] }>
%"struct.gemmlowp::OutputPipelineEvalImpl.586" = type { %"struct.gemmlowp::OutputStageEvalImpl.511", %"struct.gemmlowp::OutputPipelineEvalImpl.587" }
%"struct.gemmlowp::OutputPipelineEvalImpl.587" = type { i8 }
%"struct.gemmlowp::OutputPipelineExecutor.590" = type { %"struct.gemmlowp::OutputPipelineEvalImpl.591" }
%"struct.gemmlowp::OutputPipelineEvalImpl.591" = type { %"struct.gemmlowp::OutputStageEvalImpl.349", %"struct.gemmlowp::OutputPipelineEvalImpl.592" }
%"struct.gemmlowp::OutputPipelineEvalImpl.592" = type { %"struct.gemmlowp::OutputStageEvalImpl.246", %"struct.gemmlowp::OutputPipelineEvalImpl.593" }
%"struct.gemmlowp::OutputPipelineEvalImpl.593" = type <{ %"struct.gemmlowp::OutputStageEvalImpl.249", %"struct.gemmlowp::OutputPipelineEvalImpl.594", [6 x i8] }>
%"struct.gemmlowp::OutputPipelineEvalImpl.594" = type { %"struct.gemmlowp::OutputStageEvalImpl.522", %"struct.gemmlowp::OutputPipelineEvalImpl.595" }
%"struct.gemmlowp::OutputPipelineEvalImpl.595" = type { i8 }
%"struct.gemmlowp::OutputPipelineExecutor.598" = type { %"struct.gemmlowp::OutputPipelineEvalImpl.599" }
%"struct.gemmlowp::OutputPipelineEvalImpl.599" = type { %"struct.gemmlowp::OutputStageEvalImpl.358", %"struct.gemmlowp::OutputPipelineEvalImpl.600" }
%"struct.gemmlowp::OutputPipelineEvalImpl.600" = type { %"struct.gemmlowp::OutputStageEvalImpl.262", %"struct.gemmlowp::OutputPipelineEvalImpl.601" }
%"struct.gemmlowp::OutputPipelineEvalImpl.601" = type <{ %"struct.gemmlowp::OutputStageEvalImpl.264", %"struct.gemmlowp::OutputPipelineEvalImpl.602", [6 x i8] }>
%"struct.gemmlowp::OutputPipelineEvalImpl.602" = type { %"struct.gemmlowp::OutputStageEvalImpl.533", %"struct.gemmlowp::OutputPipelineEvalImpl.603" }
%"struct.gemmlowp::OutputPipelineEvalImpl.603" = type { i8 }
%"struct.gemmlowp::OutputPipelineExecutor.606" = type { %"struct.gemmlowp::OutputPipelineEvalImpl.607" }
%"struct.gemmlowp::OutputPipelineEvalImpl.607" = type { %"struct.gemmlowp::OutputStageEvalImpl.367", %"struct.gemmlowp::OutputPipelineEvalImpl.608" }
%"struct.gemmlowp::OutputPipelineEvalImpl.608" = type { %"struct.gemmlowp::OutputStageEvalImpl.274", %"struct.gemmlowp::OutputPipelineEvalImpl.609" }
%"struct.gemmlowp::OutputPipelineEvalImpl.609" = type <{ %"struct.gemmlowp::OutputStageEvalImpl.277", %"struct.gemmlowp::OutputPipelineEvalImpl.610", [6 x i8] }>
%"struct.gemmlowp::OutputPipelineEvalImpl.610" = type { %"struct.gemmlowp::OutputStageEvalImpl.542", %"struct.gemmlowp::OutputPipelineEvalImpl.611" }
%"struct.gemmlowp::OutputPipelineEvalImpl.611" = type { i8 }
%"struct.gemmlowp::OutputPipelineExecutor.614" = type { %"struct.gemmlowp::OutputPipelineEvalImpl.615" }
%"struct.gemmlowp::OutputPipelineEvalImpl.615" = type { %"struct.gemmlowp::OutputStageEvalImpl.376", %"struct.gemmlowp::OutputPipelineEvalImpl.616" }
%"struct.gemmlowp::OutputPipelineEvalImpl.616" = type { %"struct.gemmlowp::OutputStageEvalImpl.290", %"struct.gemmlowp::OutputPipelineEvalImpl.617" }
%"struct.gemmlowp::OutputPipelineEvalImpl.617" = type <{ %"struct.gemmlowp::OutputStageEvalImpl.293", %"struct.gemmlowp::OutputPipelineEvalImpl.618", [6 x i8] }>
%"struct.gemmlowp::OutputPipelineEvalImpl.618" = type { %"struct.gemmlowp::OutputStageEvalImpl.553", %"struct.gemmlowp::OutputPipelineEvalImpl.619" }
%"struct.gemmlowp::OutputPipelineEvalImpl.619" = type { i8 }
%"struct.gemmlowp::GemmWithPackedRhsTask.573" = type { %"struct.gemmlowp::Task", %"class.gemmlowp::GemmContext"*, %"struct.gemmlowp::KernelBase"*, %"class.gemmlowp::MatrixMap", %"class.gemmlowp::PackedSideBlock", %"class.gemmlowp::MatrixMap.479", %"struct.gemmlowp::MatrixBlockBounds", %"class.gemmlowp::VectorDup"*, %"class.gemmlowp::VectorDup.194"*, %"struct.gemmlowp::BlockParams"*, %"class.std::__1::tuple.481"* }
%"struct.gemmlowp::OutputPipelineExecutor.631" = type { %"struct.gemmlowp::OutputPipelineEvalImpl.632" }
%"struct.gemmlowp::OutputPipelineEvalImpl.632" = type { %"struct.gemmlowp::OutputStageEvalImpl.230", %"struct.gemmlowp::OutputPipelineEvalImpl.633" }
%"struct.gemmlowp::OutputPipelineEvalImpl.633" = type <{ %"struct.gemmlowp::OutputStageEvalImpl.233", %"struct.gemmlowp::OutputPipelineEvalImpl.634", [6 x i8] }>
%"struct.gemmlowp::OutputPipelineEvalImpl.634" = type { %"struct.gemmlowp::OutputStageEvalImpl.511", %"struct.gemmlowp::OutputPipelineEvalImpl.635" }
%"struct.gemmlowp::OutputPipelineEvalImpl.635" = type { i8 }
%"struct.gemmlowp::OutputPipelineExecutor.638" = type { %"struct.gemmlowp::OutputPipelineEvalImpl.639" }
%"struct.gemmlowp::OutputPipelineEvalImpl.639" = type { %"struct.gemmlowp::OutputStageEvalImpl.246", %"struct.gemmlowp::OutputPipelineEvalImpl.640" }
%"struct.gemmlowp::OutputPipelineEvalImpl.640" = type <{ %"struct.gemmlowp::OutputStageEvalImpl.249", %"struct.gemmlowp::OutputPipelineEvalImpl.641", [6 x i8] }>
%"struct.gemmlowp::OutputPipelineEvalImpl.641" = type { %"struct.gemmlowp::OutputStageEvalImpl.522", %"struct.gemmlowp::OutputPipelineEvalImpl.642" }
%"struct.gemmlowp::OutputPipelineEvalImpl.642" = type { i8 }
%"struct.gemmlowp::OutputPipelineExecutor.645" = type { %"struct.gemmlowp::OutputPipelineEvalImpl.646" }
%"struct.gemmlowp::OutputPipelineEvalImpl.646" = type { %"struct.gemmlowp::OutputStageEvalImpl.262", %"struct.gemmlowp::OutputPipelineEvalImpl.647" }
%"struct.gemmlowp::OutputPipelineEvalImpl.647" = type <{ %"struct.gemmlowp::OutputStageEvalImpl.264", %"struct.gemmlowp::OutputPipelineEvalImpl.648", [6 x i8] }>
%"struct.gemmlowp::OutputPipelineEvalImpl.648" = type { %"struct.gemmlowp::OutputStageEvalImpl.533", %"struct.gemmlowp::OutputPipelineEvalImpl.649" }
%"struct.gemmlowp::OutputPipelineEvalImpl.649" = type { i8 }
%"struct.gemmlowp::OutputPipelineExecutor.652" = type { %"struct.gemmlowp::OutputPipelineEvalImpl.653" }
%"struct.gemmlowp::OutputPipelineEvalImpl.653" = type { %"struct.gemmlowp::OutputStageEvalImpl.274", %"struct.gemmlowp::OutputPipelineEvalImpl.654" }
%"struct.gemmlowp::OutputPipelineEvalImpl.654" = type <{ %"struct.gemmlowp::OutputStageEvalImpl.277", %"struct.gemmlowp::OutputPipelineEvalImpl.655", [6 x i8] }>
%"struct.gemmlowp::OutputPipelineEvalImpl.655" = type { %"struct.gemmlowp::OutputStageEvalImpl.542", %"struct.gemmlowp::OutputPipelineEvalImpl.656" }
%"struct.gemmlowp::OutputPipelineEvalImpl.656" = type { i8 }
%"struct.gemmlowp::OutputPipelineExecutor.659" = type { %"struct.gemmlowp::OutputPipelineEvalImpl.660" }
%"struct.gemmlowp::OutputPipelineEvalImpl.660" = type { %"struct.gemmlowp::OutputStageEvalImpl.290", %"struct.gemmlowp::OutputPipelineEvalImpl.661" }
%"struct.gemmlowp::OutputPipelineEvalImpl.661" = type <{ %"struct.gemmlowp::OutputStageEvalImpl.293", %"struct.gemmlowp::OutputPipelineEvalImpl.662", [6 x i8] }>
%"struct.gemmlowp::OutputPipelineEvalImpl.662" = type { %"struct.gemmlowp::OutputStageEvalImpl.553", %"struct.gemmlowp::OutputPipelineEvalImpl.663" }
%"struct.gemmlowp::OutputPipelineEvalImpl.663" = type { i8 }
%"struct.gemmlowp::GemmWithPackedRhsTask.623" = type { %"struct.gemmlowp::Task", %"class.gemmlowp::GemmContext"*, %"struct.gemmlowp::KernelBase"*, %"class.gemmlowp::MatrixMap", %"class.gemmlowp::PackedSideBlock", %"class.gemmlowp::MatrixMap.489", %"struct.gemmlowp::MatrixBlockBounds", %"class.gemmlowp::VectorDup.194"*, %"class.gemmlowp::VectorDup"*, %"struct.gemmlowp::BlockParams"*, %"class.std::__1::tuple.485"* }
%"struct.gemmlowp::GemmWithPackedRhsTask.666" = type { %"struct.gemmlowp::Task", %"class.gemmlowp::GemmContext"*, %"struct.gemmlowp::KernelBase"*, %"class.gemmlowp::MatrixMap", %"class.gemmlowp::PackedSideBlock", %"class.gemmlowp::MatrixMap.479", %"struct.gemmlowp::MatrixBlockBounds", %"class.gemmlowp::VectorDup"*, %"class.gemmlowp::VectorDup.194"*, %"struct.gemmlowp::BlockParams"*, %"class.std::__1::tuple.485"* }

$_ZN6tflite3ops7builtin15fully_connected10CheckTypesEP13TfLiteContextPK12TfLiteTensorS7_S7_PS5_P26TfLiteFullyConnectedParams = comdat any

$_ZN6tflite12tensor_utils23ApplyActivationToVectorEPKfi21TfLiteFusedActivationPf = comdat any

$_ZN6tflite3ops7builtin15fully_connected7PrepareILNS2_10KernelTypeE0EEE12TfLiteStatusP13TfLiteContextP10TfLiteNode = comdat any

$_ZN6tflite3ops7builtin15fully_connected4EvalILNS2_10KernelTypeE0EEE12TfLiteStatusP13TfLiteContextP10TfLiteNode = comdat any

$_ZN6tflite3ops7builtin15fully_connected7PrepareILNS2_10KernelTypeE1EEE12TfLiteStatusP13TfLiteContextP10TfLiteNode = comdat any

$_ZN6tflite3ops7builtin15fully_connected4EvalILNS2_10KernelTypeE1EEE12TfLiteStatusP13TfLiteContextP10TfLiteNode = comdat any

$_ZN6tflite3ops7builtin15fully_connected7PrepareILNS2_10KernelTypeE2EEE12TfLiteStatusP13TfLiteContextP10TfLiteNode = comdat any

$_ZN6tflite3ops7builtin15fully_connected4EvalILNS2_10KernelTypeE2EEE12TfLiteStatusP13TfLiteContextP10TfLiteNode = comdat any

$_ZN5Eigen8internal21dense_assignment_loopINS0_31generic_dense_assignment_kernelINS0_9evaluatorINS_12ArrayWrapperINS_3MapINS_6MatrixIfLin1ELi1ELi0ELin1ELi1EEELi0ENS_6StrideILi0ELi0EEEEEEEEENS3_INS_12CwiseUnaryOpINS0_14scalar_tanh_opIfEEKSB_EEEENS0_9assign_opIffEELi0EEELi3ELi0EE3runERSL_ = comdat any

$_ZN5Eigen8internal26call_dense_assignment_loopINS_12ArrayWrapperINS_3MapINS_6MatrixIfLin1ELi1ELi0ELin1ELi1EEELi0ENS_6StrideILi0ELi0EEEEEEENS_12CwiseUnaryOpINS0_18scalar_logistic_opIfEEKS9_EENS0_9assign_opIffEEEEvRT_RKT0_RKT1_ = comdat any

$_ZN6tflite3ops7builtin15fully_connected9EvalFloatILNS2_10KernelTypeE0EEE12TfLiteStatusP13TfLiteContextP10TfLiteNodeP26TfLiteFullyConnectedParamsPNS2_6OpDataEPK12TfLiteTensorSG_SG_PSE_ = comdat any

$_ZN6tflite3ops7builtin15fully_connected21EvalShuffledQuantizedILNS2_10KernelTypeE0EEE12TfLiteStatusP13TfLiteContextP10TfLiteNodeP26TfLiteFullyConnectedParamsPNS2_6OpDataEPK12TfLiteTensorSG_SG_PSE_SH_ = comdat any

$_ZN6tflite3ops7builtin15fully_connected13EvalQuantizedILNS2_10KernelTypeE0EEE12TfLiteStatusP13TfLiteContextP10TfLiteNodeP26TfLiteFullyConnectedParamsPNS2_6OpDataEPK12TfLiteTensorSG_SG_PSE_ = comdat any

$_ZN6tflite13reference_ops26FullyConnectedSparseWeightERK14TfLiteSparsityRKNS_20FullyConnectedParamsERKNS_12RuntimeShapeEPKfS9_SB_S9_SB_S9_Pf = comdat any

$_ZN6tflite8optimize8sparsity15FormatConverterIfED2Ev = comdat any

$_ZN6tflite13reference_ops22ShuffledFullyConnectedERKNS_20FullyConnectedParamsERKNS_12RuntimeShapeEPKhS6_S8_S6_PKiS6_PsPh = comdat any

$_ZN6tflite13reference_ops14FullyConnectedERKNS_20FullyConnectedParamsERKNS_12RuntimeShapeEPKhS6_S8_S6_PKiS6_Ph = comdat any

$_ZN6tflite13reference_ops14FullyConnectedERKNS_20FullyConnectedParamsERKNS_12RuntimeShapeEPKhS6_S8_S6_PKiS6_Ps = comdat any

$_ZN6tflite3ops7builtin15fully_connected9EvalFloatILNS2_10KernelTypeE1EEE12TfLiteStatusP13TfLiteContextP10TfLiteNodeP26TfLiteFullyConnectedParamsPNS2_6OpDataEPK12TfLiteTensorSG_SG_PSE_ = comdat any

$_ZN6tflite3ops7builtin15fully_connected21EvalShuffledQuantizedILNS2_10KernelTypeE1EEE12TfLiteStatusP13TfLiteContextP10TfLiteNodeP26TfLiteFullyConnectedParamsPNS2_6OpDataEPK12TfLiteTensorSG_SG_PSE_SH_ = comdat any

$_ZN6tflite3ops7builtin15fully_connected13EvalQuantizedILNS2_10KernelTypeE1EEE12TfLiteStatusP13TfLiteContextP10TfLiteNodeP26TfLiteFullyConnectedParamsPNS2_6OpDataEPK12TfLiteTensorSG_SG_PSE_ = comdat any

$_ZN6tflite13optimized_ops26FullyConnectedSparseWeightERK14TfLiteSparsityRKNS_20FullyConnectedParamsERKNS_12RuntimeShapeEPKfS9_SB_S9_SB_S9_Pf = comdat any

$_ZN6tflite13optimized_ops29FullyConnectedSparseWeight1x4ERK14TfLiteSparsityRKNS_20FullyConnectedParamsERKNS_12RuntimeShapeEPKfS9_SB_S9_SB_S9_PfPNS_17CpuBackendContextE = comdat any

$_ZN6tflite13optimized_ops14FullyConnectedERKNS_20FullyConnectedParamsERKNS_12RuntimeShapeEPKfS6_S8_S6_S8_S6_PfPNS_17CpuBackendContextE = comdat any

$_ZN6tflite13optimized_ops33FullyConnectedSparseWeight1x4TaskD0Ev = comdat any

$_ZN6tflite13optimized_ops33FullyConnectedSparseWeight1x4Task3RunEv = comdat any

$_ZN8gemmlowp4TaskD0Ev = comdat any

$_ZNSt3__16vectorIN6tflite13optimized_ops33FullyConnectedSparseWeight1x4TaskENS_9allocatorIS3_EEE24__emplace_back_slow_pathIJRK14TfLiteSparsityRKNS1_20FullyConnectedParamsERKNS1_12RuntimeShapeERPKfSG_SJ_SG_SJ_SG_RPfRiSM_RNS1_17CpuBackendContextEEEEvDpOT_ = comdat any

$_ZN8gemmlowp11WorkersPool7ExecuteIN6tflite13optimized_ops33FullyConnectedSparseWeight1x4TaskEEEviPT_ = comdat any

$_ZN8gemmlowp11WorkersPool13CreateWorkersEm = comdat any

$_ZN8gemmlowp6Worker10ThreadFuncEPv = comdat any

$_ZN8gemmlowp6Worker10ThreadFuncEv = comdat any

$_ZN6tflite16cpu_backend_gemm6detail16GemmImplUsingRuyIffffLNS0_18QuantizationFlavorE0EE3RunERKNS0_12MatrixParamsIfEEPKfS8_SA_S8_PfRKNS0_10GemmParamsIffLS3_0EEEPNS_17CpuBackendContextE = comdat any

$_ZN3ruy11DispatchMulILNS_4PathE26EfffNS_9MulParamsIffEEEEvRKNS_3MatIT0_EERKNS4_IT1_EERKT3_PNS_3CtxEPNS4_IT2_EE = comdat any

$_ZN3ruy22HandlePrepackedCachingEPNS_11TrMulParamsEPNS_3CtxE = comdat any

$_ZN3ruy7RunPackILNS_4PathE16ENS_17FixedKernelLayoutILNS_5OrderE1ELi1ELi16EEEffEEvNS_6TuningERKNS_4EMatEPNS_5PEMatEii = comdat any

$_ZN3ruy9RunKernelILNS_4PathE16EfffNS_9MulParamsIffEEEEvNS_6TuningERKNS_8SidePairINS_5PEMatEEEPvRKNS5_IiEESD_PNS_4EMatE = comdat any

$_ZN3ruy7RunPackILNS_4PathE2ENS_17FixedKernelLayoutILNS_5OrderE0ELi1ELi1EEEffEEvNS_6TuningERKNS_4EMatEPNS_5PEMatEii = comdat any

$_ZN3ruy9RunKernelILNS_4PathE2EfffNS_9MulParamsIffEEEEvNS_6TuningERKNS_8SidePairINS_5PEMatEEEPvRKNS5_IiEESD_PNS_4EMatE = comdat any

$_ZN3ruy8PackImplILNS_4PathE2ENS_17FixedKernelLayoutILNS_5OrderE0ELi1ELi1EEEfffE3RunENS_6TuningERKNS_3MatIfEEPNS_4PMatIfEEii = comdat any

$_ZNK3ruy6KernelILNS_4PathE2EfffNS_9MulParamsIffEEE3RunERKNS_4PMatIfEES8_RKS3_iiiiPNS_3MatIfEE = comdat any

$_ZN3ruy27PathSearchOnlyCompiledPathsILNS_4PathE26ELb1ELi3EfffNS_9MulParamsIffEEE6SearchES1_PNS_11TrMulParamsE = comdat any

$_ZN3ruy19PopulateTrMulParamsILNS_4PathE8EfffNS_9MulParamsIffEEEEvPNS_11TrMulParamsE = comdat any

$_ZN3ruy7RunPackILNS_4PathE8ENS_17FixedKernelLayoutILNS_5OrderE1ELi1ELi8EEEffEEvNS_6TuningERKNS_4EMatEPNS_5PEMatEii = comdat any

$_ZN3ruy9RunKernelILNS_4PathE8EfffNS_9MulParamsIffEEEEvNS_6TuningERKNS_8SidePairINS_5PEMatEEEPvRKNS5_IiEESD_PNS_4EMatE = comdat any

$_ZN6tflite13optimized_ops22ShuffledFullyConnectedERKNS_20FullyConnectedParamsERKNS_12RuntimeShapeEPKhS6_S8_S6_PKiS6_PsPhPNS_17CpuBackendContextE = comdat any

$_ZN6tflite13optimized_ops32ShuffledFullyConnectedWorkerImplEPKhPKaiiiiPKiiiPs = comdat any

$_ZN6tflite13optimized_ops32ShuffledFullyConnectedWorkerTaskD0Ev = comdat any

$_ZN6tflite13optimized_ops32ShuffledFullyConnectedWorkerTask3RunEv = comdat any

$_ZNSt3__16vectorIN6tflite13optimized_ops32ShuffledFullyConnectedWorkerTaskENS_9allocatorIS3_EEE24__emplace_back_slow_pathIJRPhPKaRKiiSD_SD_PSC_SD_SD_PsEEEvDpOT_ = comdat any

$_ZN8gemmlowp11WorkersPool7ExecuteIN6tflite13optimized_ops32ShuffledFullyConnectedWorkerTaskEEEviPT_ = comdat any

$_ZN6tflite13optimized_ops14FullyConnectedERKNS_20FullyConnectedParamsERKNS_12RuntimeShapeEPKhS6_S8_S6_PKiS6_PhPNS_17CpuBackendContextE = comdat any

$_ZN6tflite13optimized_ops14FullyConnectedERKNS_20FullyConnectedParamsERKNS_12RuntimeShapeEPKhS6_S8_S6_PKiS6_PsPNS_17CpuBackendContextE = comdat any

$_ZN6tflite16cpu_backend_gemm6detail16GemmImplUsingRuyIhhihLNS0_18QuantizationFlavorE1EE3RunERKNS0_12MatrixParamsIhEEPKhS8_SA_S8_PhRKNS0_10GemmParamsIihLS3_1EEEPNS_17CpuBackendContextE = comdat any

$_ZN6tflite16cpu_backend_gemm6detail21GemmImplUsingGemmlowpIhhihLNS0_18QuantizationFlavorE1EE3RunERKNS0_12MatrixParamsIhEEPKhS8_SA_S8_PhRKNS0_10GemmParamsIihLS3_1EEEPNS_17CpuBackendContextE = comdat any

$_ZN3ruy11DispatchMulILNS_4PathE26EhhhNS_9MulParamsIihEEEEvRKNS_3MatIT0_EERKNS4_IT1_EERKT3_PNS_3CtxEPNS4_IT2_EE = comdat any

$_ZN3ruy17CreateTrMulParamsILNS_4PathE26EhhhNS_9MulParamsIihEEEEvRKNS_3MatIT0_EERKNS4_IT1_EERKT3_PNS4_IT2_EES1_PNS_11TrMulParamsE = comdat any

$_ZN3ruy19PopulateTrMulParamsILNS_4PathE16EhhhNS_9MulParamsIihEEEEvPNS_11TrMulParamsE = comdat any

$_ZN3ruy7RunPackILNS_4PathE16ENS_17FixedKernelLayoutILNS_5OrderE0ELi4ELi16EEEhaEEvNS_6TuningERKNS_4EMatEPNS_5PEMatEii = comdat any

$_ZN3ruy9RunKernelILNS_4PathE16EaahNS_9MulParamsIihEEEEvNS_6TuningERKNS_8SidePairINS_5PEMatEEEPvRKNS5_IiEESD_PNS_4EMatE = comdat any

$_ZN3ruy7RunPackILNS_4PathE2ENS_17FixedKernelLayoutILNS_5OrderE0ELi1ELi1EEEhhEEvNS_6TuningERKNS_4EMatEPNS_5PEMatEii = comdat any

$_ZN3ruy9RunKernelILNS_4PathE2EhhhNS_9MulParamsIihEEEEvNS_6TuningERKNS_8SidePairINS_5PEMatEEEPvRKNS5_IiEESD_PNS_4EMatE = comdat any

$_ZN3ruy8PackImplILNS_4PathE2ENS_17FixedKernelLayoutILNS_5OrderE0ELi1ELi1EEEhhiE3RunENS_6TuningERKNS_3MatIhEEPNS_4PMatIhEEii = comdat any

$_ZNK3ruy6KernelILNS_4PathE2EhhhNS_9MulParamsIihEEE3RunERKNS_4PMatIhEES8_RKS3_iiiiPNS_3MatIhEE = comdat any

$_ZN3ruy19PopulateTrMulParamsILNS_4PathE8EhhhNS_9MulParamsIihEEEEvPNS_11TrMulParamsE = comdat any

$_ZN3ruy7RunPackILNS_4PathE8ENS_17FixedKernelLayoutILNS_5OrderE0ELi4ELi8EEEhaEEvNS_6TuningERKNS_4EMatEPNS_5PEMatEii = comdat any

$_ZN3ruy9RunKernelILNS_4PathE8EaahNS_9MulParamsIihEEEEvNS_6TuningERKNS_8SidePairINS_5PEMatEEEPvRKNS5_IiEESD_PNS_4EMatE = comdat any

$_ZN8gemmlowp17DispatchGemmShapeIhhNS_14BitDepthParamsINS_12OperandRangeILi1ELi255EEENS2_ILi0ELi255EEEEELNS_8MapOrderE1ELS6_0ELS6_0ENS_9VectorDupIKiLNS_11VectorShapeE0EEENS7_IS8_LS9_1EEENSt3__15tupleIJNS_23OutputStageBiasAdditionINS_9VectorMapIS8_LS9_0EEEEENS_44OutputStageScaleInt32ByFixedPointAndExponentENS_16OutputStageClampENS_32OutputStageSaturatingCastToUint8EEEENS_11GemmContextEEEvPT8_RKNS_9MatrixMapIKT_XT2_EEERKNSP_ISR_XT3_EEEPNSP_IT0_XT4_EEERKT5_RKT6_RKT7_ = comdat any

$_ZN8gemmlowp17DispatchGemmShapeIhhNS_14BitDepthParamsINS_12OperandRangeILi1ELi255EEENS2_ILi0ELi255EEEEELNS_8MapOrderE1ELS6_0ELS6_1ENS_9VectorDupIKiLNS_11VectorShapeE1EEENS7_IS8_LS9_0EEENSt3__15tupleIJNS_23OutputStageBiasAdditionINS_9VectorMapIS8_LS9_1EEEEENS_44OutputStageScaleInt32ByFixedPointAndExponentENS_16OutputStageClampENS_32OutputStageSaturatingCastToUint8EEEENS_11GemmContextEEEvPT8_RKNS_9MatrixMapIKT_XT2_EEERKNSP_ISR_XT3_EEEPNSP_IT0_XT4_EEERKT5_RKT6_RKT7_ = comdat any

$_ZN8gemmlowp15MultiThreadGemmINS_12KernelFormatINS_16KernelSideFormatINS_10CellFormatILi4ELi16ELNS_9CellOrderE1EEELi1EEES6_EEhhNS_14BitDepthParamsINS_12OperandRangeILi1ELi255EEENS9_ILi0ELi255EEEEELNS_8MapOrderE1ELSD_0ELSD_0ENS_9VectorDupIKiLNS_11VectorShapeE0EEENSE_ISF_LSG_1EEENSt3__15tupleIJNS_23OutputStageBiasAdditionINS_9VectorMapISF_LSG_0EEEEENS_44OutputStageScaleInt32ByFixedPointAndExponentENS_16OutputStageClampENS_32OutputStageSaturatingCastToUint8EEEENS_11GemmContextEEEvPT9_RKNS_10KernelBaseERKNS_9MatrixMapIKT0_XT3_EEERKNSZ_IS11_XT4_EEEPNSZ_IT1_XT5_EEERKT6_RKT7_RKT8_ = comdat any

$_ZN8gemmlowp15MultiThreadGemmINS_12KernelFormatINS_16KernelSideFormatINS_10CellFormatILi4ELi16ELNS_9CellOrderE1EEELi1EEES6_EEhhNS_14BitDepthParamsINS_12OperandRangeILi1ELi255EEENS9_ILi0ELi255EEEEELNS_8MapOrderE1ELSD_0ELSD_1ENS_9VectorDupIKiLNS_11VectorShapeE1EEENSE_ISF_LSG_0EEENSt3__15tupleIJNS_23OutputStageBiasAdditionINS_9VectorMapISF_LSG_1EEEEENS_44OutputStageScaleInt32ByFixedPointAndExponentENS_16OutputStageClampENS_32OutputStageSaturatingCastToUint8EEEENS_11GemmContextEEEvPT9_RKNS_10KernelBaseERKNS_9MatrixMapIKT0_XT3_EEERKNSZ_IS11_XT4_EEEPNSZ_IT1_XT5_EEERKT6_RKT7_RKT8_ = comdat any

$_ZN8gemmlowp16SingleThreadGemmINS_12KernelFormatINS_16KernelSideFormatINS_10CellFormatILi4ELi16ELNS_9CellOrderE1EEELi1EEES6_EEhhNS_14BitDepthParamsINS_12OperandRangeILi1ELi255EEENS9_ILi0ELi255EEEEELNS_8MapOrderE1ELSD_0ELSD_1ENS_9VectorDupIKiLNS_11VectorShapeE1EEENSE_ISF_LSG_0EEENSt3__15tupleIJNS_23OutputStageBiasAdditionINS_9VectorMapISF_LSG_1EEEEENS_44OutputStageScaleInt32ByFixedPointAndExponentENS_16OutputStageClampENS_32OutputStageSaturatingCastToUint8EEEEEEvPNS_23SingleThreadGemmContextERKNS_10KernelBaseERKNS_9MatrixMapIKT0_XT3_EEERKNSY_IS10_XT4_EEEPNSY_IT1_XT5_EEERKT6_RKT7_RKT8_ = comdat any

$_ZN8gemmlowp11BlockParams4InitINS_12KernelFormatINS_16KernelSideFormatINS_10CellFormatILi4ELi16ELNS_9CellOrderE1EEELi1EEES7_EEEEviiiiiif = comdat any

$_ZN8gemmlowp9Allocator6CommitEv = comdat any

$_ZN8gemmlowp12UnpackResultINS_12KernelFormatINS_16KernelSideFormatINS_10CellFormatILi4ELi16ELNS_9CellOrderE1EEELi1EEES6_EENS_9MatrixMapIhLNS_8MapOrderE1EEENS_12PackedResultENS_9VectorDupIKiLNS_11VectorShapeE1EEENSC_ISD_LSE_0EEENSt3__15tupleIJNS_23OutputStageBiasAdditionINS_9VectorMapISD_LSE_1EEEEENS_44OutputStageScaleInt32ByFixedPointAndExponentENS_16OutputStageClampENS_32OutputStageSaturatingCastToUint8EEEEEEvPT0_RKNS_17MatrixBlockBoundsERKT1_iPSD_SZ_RKT2_RKT3_RKT4_ = comdat any

$_ZN8gemmlowp17PackSideBlockImplINS_7SideMapIKhLNS_12SideMapOrderE0EEENS_15PackedSideBlockINS_16KernelSideFormatINS_10CellFormatILi4ELi16ELNS_9CellOrderE1EEELi1EEEEEE6PackL2Ev = comdat any

$_ZN8gemmlowp17PackSideBlockImplINS_7SideMapIKhLNS_12SideMapOrderE0EEENS_15PackedSideBlockINS_16KernelSideFormatINS_10CellFormatILi4ELi16ELNS_9CellOrderE1EEELi1EEEEEE7PackRunEiiii = comdat any

$_ZN8gemmlowp24PackingRegisterBlockBaseINS_7SideMapIKhLNS_12SideMapOrderE0EEENS_15PackedSideBlockINS_16KernelSideFormatINS_10CellFormatILi4ELi16ELNS_9CellOrderE1EEELi1EEEEEE4PackEPSB_i = comdat any

$_ZN8gemmlowp11ComputeImplINS_15PackedSideBlockINS_16KernelSideFormatINS_10CellFormatILi4ELi16ELNS_9CellOrderE1EEELi1EEEEES7_NS_12PackedResultEE10ComputeRunEiiii = comdat any

$_ZN8gemmlowp17UnpackResultBlockINS_12KernelFormatINS_16KernelSideFormatINS_10CellFormatILi4ELi16ELNS_9CellOrderE1EEELi1EEES6_EENS_13RegisterBlockIiLi8ELi4EEENS_9MatrixMapIKiLNS_8MapOrderE0EEENS_9VectorDupISB_LNS_11VectorShapeE1EEENSE_ISB_LSF_0EEENS_22OutputPipelineExecutorINSt3__15tupleIJNS_23OutputStageBiasAdditionINS_9VectorMapISB_LSF_1EEEEENS_44OutputStageScaleInt32ByFixedPointAndExponentENS_16OutputStageClampENS_32OutputStageSaturatingCastToUint8EEEES9_EENSA_IhLSC_0EEEEEvRKT1_RKT4_PT5_RKNSM_ISB_LSF_0EEERKSN_RKT2_RKT3_iiiiiii = comdat any

$_ZN8gemmlowp17UnpackResultBlockINS_12KernelFormatINS_16KernelSideFormatINS_10CellFormatILi4ELi16ELNS_9CellOrderE1EEELi1EEES6_EENS_13RegisterBlockIiLi4ELi4EEENS_9MatrixMapIKiLNS_8MapOrderE0EEENS_9VectorDupISB_LNS_11VectorShapeE1EEENSE_ISB_LSF_0EEENS_22OutputPipelineExecutorINSt3__15tupleIJNS_23OutputStageBiasAdditionINS_9VectorMapISB_LSF_1EEEEENS_44OutputStageScaleInt32ByFixedPointAndExponentENS_16OutputStageClampENS_32OutputStageSaturatingCastToUint8EEEES9_EENSA_IhLSC_1EEEEEvRKT1_RKT4_PT5_RKNSM_ISB_LSF_0EEERKSN_RKT2_RKT3_iiiiiii = comdat any

$_ZN8gemmlowp17UnpackResultBlockINS_12KernelFormatINS_16KernelSideFormatINS_10CellFormatILi4ELi16ELNS_9CellOrderE1EEELi1EEES6_EENS_13RegisterBlockIiLi8ELi4EEENS_9MatrixMapIKiLNS_8MapOrderE0EEENS_9VectorDupISB_LNS_11VectorShapeE1EEENSE_ISB_LSF_0EEENS_22OutputPipelineExecutorINSt3__15tupleIJNS_23OutputStageBiasAdditionINS_9VectorMapISB_LSF_1EEEEENS_44OutputStageScaleInt32ByFixedPointAndExponentENS_16OutputStageClampENS_32OutputStageSaturatingCastToUint8EEEES9_EENSA_IhLSC_1EEEEEvRKT1_RKT4_PT5_RKNSM_ISB_LSF_0EEERKSN_RKT2_RKT3_iiiiiii = comdat any

$_ZN8gemmlowp17UnpackResultBlockINS_12KernelFormatINS_16KernelSideFormatINS_10CellFormatILi4ELi16ELNS_9CellOrderE1EEELi1EEES6_EENS_13RegisterBlockIiLi8ELi1EEENS_9MatrixMapIKiLNS_8MapOrderE0EEENS_9VectorDupISB_LNS_11VectorShapeE1EEENSE_ISB_LSF_0EEENS_22OutputPipelineExecutorINSt3__15tupleIJNS_23OutputStageBiasAdditionINS_9VectorMapISB_LSF_1EEEEENS_44OutputStageScaleInt32ByFixedPointAndExponentENS_16OutputStageClampENS_32OutputStageSaturatingCastToUint8EEEES9_EENSA_IhLSC_1EEEEEvRKT1_RKT4_PT5_RKNSM_ISB_LSF_0EEERKSN_RKT2_RKT3_iiiiiii = comdat any

$_ZN8gemmlowp17UnpackResultBlockINS_12KernelFormatINS_16KernelSideFormatINS_10CellFormatILi4ELi16ELNS_9CellOrderE1EEELi1EEES6_EENS_13RegisterBlockIiLi1ELi1EEENS_9MatrixMapIKiLNS_8MapOrderE0EEENS_9VectorDupISB_LNS_11VectorShapeE1EEENSE_ISB_LSF_0EEENS_22OutputPipelineExecutorINSt3__15tupleIJNS_23OutputStageBiasAdditionINS_9VectorMapISB_LSF_1EEEEENS_44OutputStageScaleInt32ByFixedPointAndExponentENS_16OutputStageClampENS_32OutputStageSaturatingCastToUint8EEEES9_EENSA_IhLSC_1EEEEEvRKT1_RKT4_PT5_RKNSM_ISB_LSF_0EEERKSN_RKT2_RKT3_iiiiiii = comdat any

$_ZNK8gemmlowp22OutputPipelineExecutorINSt3__15tupleIJNS_23OutputStageBiasAdditionINS_9VectorMapIKiLNS_11VectorShapeE1EEEEENS_44OutputStageScaleInt32ByFixedPointAndExponentENS_16OutputStageClampENS_32OutputStageSaturatingCastToUint8EEEENS_13RegisterBlockIiLi8ELi4EEEE7ExecuteINS_9MatrixMapIhLNS_8MapOrderE0EEEEEvSE_PT_iiii = comdat any

$_ZNK8gemmlowp22OutputPipelineEvalImplINSt3__15tupleIJNS_23OutputStageBiasAdditionINS_9VectorMapIKiLNS_11VectorShapeE1EEEEENS_44OutputStageScaleInt32ByFixedPointAndExponentENS_16OutputStageClampENS_32OutputStageSaturatingCastToUint8EEEELi1ENS_13RegisterBlockIiLi8ELi4EEELb0EE4EvalESE_ii = comdat any

$_ZNK8gemmlowp22OutputPipelineEvalImplINSt3__15tupleIJNS_23OutputStageBiasAdditionINS_9VectorMapIKiLNS_11VectorShapeE1EEEEENS_44OutputStageScaleInt32ByFixedPointAndExponentENS_16OutputStageClampENS_32OutputStageSaturatingCastToUint8EEEELi3ENS_13RegisterBlockIiLi8ELi4EEELb0EE4EvalESE_ii = comdat any

$_ZN8gemmlowp20StoreFinalOutputImplINS_13RegisterBlockIhLi8ELi8EEENS_9MatrixMapIhLNS_8MapOrderE1EEEE3RunERKS2_PS5_ii = comdat any

$_ZNK8gemmlowp22OutputPipelineEvalImplINSt3__15tupleIJNS_23OutputStageBiasAdditionINS_9VectorMapIKiLNS_11VectorShapeE1EEEEENS_44OutputStageScaleInt32ByFixedPointAndExponentENS_16OutputStageClampENS_32OutputStageSaturatingCastToUint8EEEELi0ENS_13RegisterBlockIiLi4ELi4EEELb0EE4EvalESE_ii = comdat any

$_ZN8gemmlowp16StoreFinalOutputINS_13RegisterBlockIhLi4ELi4EEENS_9MatrixMapIhLNS_8MapOrderE1EEEEEvT_PT0_ii = comdat any

$_ZNK8gemmlowp22OutputPipelineEvalImplINSt3__15tupleIJNS_23OutputStageBiasAdditionINS_9VectorMapIKiLNS_11VectorShapeE1EEEEENS_44OutputStageScaleInt32ByFixedPointAndExponentENS_16OutputStageClampENS_32OutputStageSaturatingCastToUint8EEEELi2ENS_13RegisterBlockIiLi4ELi4EEELb0EE4EvalESE_ii = comdat any

$_ZNK8gemmlowp19OutputStageEvalImplINS_32OutputStageSaturatingCastToUint8ENS_13RegisterBlockIiLi4ELi4EEEE4EvalES3_ii = comdat any

$_ZNK8gemmlowp22OutputPipelineExecutorINSt3__15tupleIJNS_23OutputStageBiasAdditionINS_9VectorMapIKiLNS_11VectorShapeE1EEEEENS_44OutputStageScaleInt32ByFixedPointAndExponentENS_16OutputStageClampENS_32OutputStageSaturatingCastToUint8EEEENS_13RegisterBlockIiLi1ELi4EEEE7ExecuteINS_9MatrixMapIhLNS_8MapOrderE1EEEEEvSE_PT_iiii = comdat any

$_ZNK8gemmlowp25OutputStageEvalBufferImplINS_44OutputStageScaleInt32ByFixedPointAndExponentENS_14RegisterBufferIiLi4EEEE4EvalES3_ = comdat any

$_ZNK8gemmlowp22OutputPipelineExecutorINSt3__15tupleIJNS_23OutputStageBiasAdditionINS_9VectorMapIKiLNS_11VectorShapeE1EEEEENS_44OutputStageScaleInt32ByFixedPointAndExponentENS_16OutputStageClampENS_32OutputStageSaturatingCastToUint8EEEENS_13RegisterBlockIiLi8ELi4EEEE7ExecuteINS_9MatrixMapIhLNS_8MapOrderE1EEEEEvSE_PT_iiii = comdat any

$_ZNK8gemmlowp22OutputPipelineEvalImplINSt3__15tupleIJNS_23OutputStageBiasAdditionINS_9VectorMapIKiLNS_11VectorShapeE1EEEEENS_44OutputStageScaleInt32ByFixedPointAndExponentENS_16OutputStageClampENS_32OutputStageSaturatingCastToUint8EEEELi1ENS_13RegisterBlockIiLi8ELi1EEELb0EE4EvalESE_ii = comdat any

$_ZNK8gemmlowp22OutputPipelineExecutorINSt3__15tupleIJNS_23OutputStageBiasAdditionINS_9VectorMapIKiLNS_11VectorShapeE1EEEEENS_44OutputStageScaleInt32ByFixedPointAndExponentENS_16OutputStageClampENS_32OutputStageSaturatingCastToUint8EEEENS_13RegisterBlockIiLi4ELi1EEEE7ExecuteINS_9MatrixMapIhLNS_8MapOrderE1EEEEEvSE_PT_iiii = comdat any

$_ZN8gemmlowp21GemmWithPackedRhsTaskINS_12KernelFormatINS_16KernelSideFormatINS_10CellFormatILi4ELi16ELNS_9CellOrderE1EEELi1EEES6_EEhhNS_14BitDepthParamsINS_12OperandRangeILi1ELi255EEENS9_ILi0ELi255EEEEELNS_8MapOrderE1ELSD_0ELSD_1ENS_9VectorDupIKiLNS_11VectorShapeE1EEENSE_ISF_LSG_0EEENSt3__15tupleIJNS_23OutputStageBiasAdditionINS_9VectorMapISF_LSG_1EEEEENS_44OutputStageScaleInt32ByFixedPointAndExponentENS_16OutputStageClampENS_32OutputStageSaturatingCastToUint8EEEENS_11GemmContextEED2Ev = comdat any

$_ZN8gemmlowp21GemmWithPackedRhsTaskINS_12KernelFormatINS_16KernelSideFormatINS_10CellFormatILi4ELi16ELNS_9CellOrderE1EEELi1EEES6_EEhhNS_14BitDepthParamsINS_12OperandRangeILi1ELi255EEENS9_ILi0ELi255EEEEELNS_8MapOrderE1ELSD_0ELSD_1ENS_9VectorDupIKiLNS_11VectorShapeE1EEENSE_ISF_LSG_0EEENSt3__15tupleIJNS_23OutputStageBiasAdditionINS_9VectorMapISF_LSG_1EEEEENS_44OutputStageScaleInt32ByFixedPointAndExponentENS_16OutputStageClampENS_32OutputStageSaturatingCastToUint8EEEENS_11GemmContextEED0Ev = comdat any

$_ZN8gemmlowp21GemmWithPackedRhsTaskINS_12KernelFormatINS_16KernelSideFormatINS_10CellFormatILi4ELi16ELNS_9CellOrderE1EEELi1EEES6_EEhhNS_14BitDepthParamsINS_12OperandRangeILi1ELi255EEENS9_ILi0ELi255EEEEELNS_8MapOrderE1ELSD_0ELSD_1ENS_9VectorDupIKiLNS_11VectorShapeE1EEENSE_ISF_LSG_0EEENSt3__15tupleIJNS_23OutputStageBiasAdditionINS_9VectorMapISF_LSG_1EEEEENS_44OutputStageScaleInt32ByFixedPointAndExponentENS_16OutputStageClampENS_32OutputStageSaturatingCastToUint8EEEENS_11GemmContextEE3RunEv = comdat any

$_ZN8gemmlowp11WorkersPool28LegacyExecuteAndDestroyTasksERKNSt3__16vectorIPNS_4TaskENS1_9allocatorIS4_EEEE = comdat any

$_ZN8gemmlowp16SingleThreadGemmINS_12KernelFormatINS_16KernelSideFormatINS_10CellFormatILi4ELi16ELNS_9CellOrderE1EEELi1EEES6_EEhhNS_14BitDepthParamsINS_12OperandRangeILi1ELi255EEENS9_ILi0ELi255EEEEELNS_8MapOrderE1ELSD_0ELSD_0ENS_9VectorDupIKiLNS_11VectorShapeE0EEENSE_ISF_LSG_1EEENSt3__15tupleIJNS_23OutputStageBiasAdditionINS_9VectorMapISF_LSG_0EEEEENS_44OutputStageScaleInt32ByFixedPointAndExponentENS_16OutputStageClampENS_32OutputStageSaturatingCastToUint8EEEEEEvPNS_23SingleThreadGemmContextERKNS_10KernelBaseERKNS_9MatrixMapIKT0_XT3_EEERKNSY_IS10_XT4_EEEPNSY_IT1_XT5_EEERKT6_RKT7_RKT8_ = comdat any

$_ZN8gemmlowp12UnpackResultINS_12KernelFormatINS_16KernelSideFormatINS_10CellFormatILi4ELi16ELNS_9CellOrderE1EEELi1EEES6_EENS_9MatrixMapIhLNS_8MapOrderE0EEENS_12PackedResultENS_9VectorDupIKiLNS_11VectorShapeE0EEENSC_ISD_LSE_1EEENSt3__15tupleIJNS_23OutputStageBiasAdditionINS_9VectorMapISD_LSE_0EEEEENS_44OutputStageScaleInt32ByFixedPointAndExponentENS_16OutputStageClampENS_32OutputStageSaturatingCastToUint8EEEEEEvPT0_RKNS_17MatrixBlockBoundsERKT1_iPSD_SZ_RKT2_RKT3_RKT4_ = comdat any

$_ZN8gemmlowp17UnpackResultBlockINS_12KernelFormatINS_16KernelSideFormatINS_10CellFormatILi4ELi16ELNS_9CellOrderE1EEELi1EEES6_EENS_13RegisterBlockIiLi8ELi4EEENS_9MatrixMapIKiLNS_8MapOrderE0EEENS_9VectorDupISB_LNS_11VectorShapeE0EEENSE_ISB_LSF_1EEENS_22OutputPipelineExecutorINSt3__15tupleIJNS_23OutputStageBiasAdditionINS_9VectorMapISB_LSF_0EEEEENS_44OutputStageScaleInt32ByFixedPointAndExponentENS_16OutputStageClampENS_32OutputStageSaturatingCastToUint8EEEES9_EENSA_IhLSC_0EEEEEvRKT1_RKT4_PT5_RKSN_RKNSM_ISB_LSF_1EEERKT2_RKT3_iiiiiii = comdat any

$_ZN8gemmlowp17UnpackResultBlockINS_12KernelFormatINS_16KernelSideFormatINS_10CellFormatILi4ELi16ELNS_9CellOrderE1EEELi1EEES6_EENS_13RegisterBlockIiLi4ELi4EEENS_9MatrixMapIKiLNS_8MapOrderE0EEENS_9VectorDupISB_LNS_11VectorShapeE0EEENSE_ISB_LSF_1EEENS_22OutputPipelineExecutorINSt3__15tupleIJNS_23OutputStageBiasAdditionINS_9VectorMapISB_LSF_0EEEEENS_44OutputStageScaleInt32ByFixedPointAndExponentENS_16OutputStageClampENS_32OutputStageSaturatingCastToUint8EEEES9_EENSA_IhLSC_0EEEEEvRKT1_RKT4_PT5_RKSN_RKNSM_ISB_LSF_1EEERKT2_RKT3_iiiiiii = comdat any

$_ZN8gemmlowp17UnpackResultBlockINS_12KernelFormatINS_16KernelSideFormatINS_10CellFormatILi4ELi16ELNS_9CellOrderE1EEELi1EEES6_EENS_13RegisterBlockIiLi8ELi1EEENS_9MatrixMapIKiLNS_8MapOrderE0EEENS_9VectorDupISB_LNS_11VectorShapeE0EEENSE_ISB_LSF_1EEENS_22OutputPipelineExecutorINSt3__15tupleIJNS_23OutputStageBiasAdditionINS_9VectorMapISB_LSF_0EEEEENS_44OutputStageScaleInt32ByFixedPointAndExponentENS_16OutputStageClampENS_32OutputStageSaturatingCastToUint8EEEES9_EENSA_IhLSC_0EEEEEvRKT1_RKT4_PT5_RKSN_RKNSM_ISB_LSF_1EEERKT2_RKT3_iiiiiii = comdat any

$_ZN8gemmlowp17UnpackResultBlockINS_12KernelFormatINS_16KernelSideFormatINS_10CellFormatILi4ELi16ELNS_9CellOrderE1EEELi1EEES6_EENS_13RegisterBlockIiLi1ELi1EEENS_9MatrixMapIKiLNS_8MapOrderE0EEENS_9VectorDupISB_LNS_11VectorShapeE0EEENSE_ISB_LSF_1EEENS_22OutputPipelineExecutorINSt3__15tupleIJNS_23OutputStageBiasAdditionINS_9VectorMapISB_LSF_0EEEEENS_44OutputStageScaleInt32ByFixedPointAndExponentENS_16OutputStageClampENS_32OutputStageSaturatingCastToUint8EEEES9_EENSA_IhLSC_0EEEEEvRKT1_RKT4_PT5_RKSN_RKNSM_ISB_LSF_1EEERKT2_RKT3_iiiiiii = comdat any

$_ZNK8gemmlowp22OutputPipelineExecutorINSt3__15tupleIJNS_23OutputStageBiasAdditionINS_9VectorMapIKiLNS_11VectorShapeE0EEEEENS_44OutputStageScaleInt32ByFixedPointAndExponentENS_16OutputStageClampENS_32OutputStageSaturatingCastToUint8EEEENS_13RegisterBlockIiLi8ELi4EEEE7ExecuteINS_9MatrixMapIhLNS_8MapOrderE0EEEEEvSE_PT_iiii = comdat any

$_ZNK8gemmlowp22OutputPipelineEvalImplINSt3__15tupleIJNS_23OutputStageBiasAdditionINS_9VectorMapIKiLNS_11VectorShapeE0EEEEENS_44OutputStageScaleInt32ByFixedPointAndExponentENS_16OutputStageClampENS_32OutputStageSaturatingCastToUint8EEEELi1ENS_13RegisterBlockIiLi8ELi4EEELb0EE4EvalESE_ii = comdat any

$_ZNK8gemmlowp22OutputPipelineEvalImplINSt3__15tupleIJNS_23OutputStageBiasAdditionINS_9VectorMapIKiLNS_11VectorShapeE0EEEEENS_44OutputStageScaleInt32ByFixedPointAndExponentENS_16OutputStageClampENS_32OutputStageSaturatingCastToUint8EEEELi3ENS_13RegisterBlockIiLi8ELi4EEELb0EE4EvalESE_ii = comdat any

$_ZNK8gemmlowp22OutputPipelineEvalImplINSt3__15tupleIJNS_23OutputStageBiasAdditionINS_9VectorMapIKiLNS_11VectorShapeE0EEEEENS_44OutputStageScaleInt32ByFixedPointAndExponentENS_16OutputStageClampENS_32OutputStageSaturatingCastToUint8EEEELi0ENS_13RegisterBlockIiLi4ELi4EEELb0EE4EvalESE_ii = comdat any

$_ZN8gemmlowp16StoreFinalOutputINS_13RegisterBlockIhLi4ELi4EEENS_9MatrixMapIhLNS_8MapOrderE0EEEEEvT_PT0_ii = comdat any

$_ZNK8gemmlowp22OutputPipelineEvalImplINSt3__15tupleIJNS_23OutputStageBiasAdditionINS_9VectorMapIKiLNS_11VectorShapeE0EEEEENS_44OutputStageScaleInt32ByFixedPointAndExponentENS_16OutputStageClampENS_32OutputStageSaturatingCastToUint8EEEELi2ENS_13RegisterBlockIiLi4ELi4EEELb0EE4EvalESE_ii = comdat any

$_ZNK8gemmlowp22OutputPipelineExecutorINSt3__15tupleIJNS_23OutputStageBiasAdditionINS_9VectorMapIKiLNS_11VectorShapeE0EEEEENS_44OutputStageScaleInt32ByFixedPointAndExponentENS_16OutputStageClampENS_32OutputStageSaturatingCastToUint8EEEENS_13RegisterBlockIiLi1ELi4EEEE7ExecuteINS_9MatrixMapIhLNS_8MapOrderE0EEEEEvSE_PT_iiii = comdat any

$_ZNK8gemmlowp22OutputPipelineEvalImplINSt3__15tupleIJNS_23OutputStageBiasAdditionINS_9VectorMapIKiLNS_11VectorShapeE0EEEEENS_44OutputStageScaleInt32ByFixedPointAndExponentENS_16OutputStageClampENS_32OutputStageSaturatingCastToUint8EEEELi1ENS_13RegisterBlockIiLi8ELi1EEELb0EE4EvalESE_ii = comdat any

$_ZNK8gemmlowp22OutputPipelineExecutorINSt3__15tupleIJNS_23OutputStageBiasAdditionINS_9VectorMapIKiLNS_11VectorShapeE0EEEEENS_44OutputStageScaleInt32ByFixedPointAndExponentENS_16OutputStageClampENS_32OutputStageSaturatingCastToUint8EEEENS_13RegisterBlockIiLi4ELi1EEEE7ExecuteINS_9MatrixMapIhLNS_8MapOrderE0EEEEEvSE_PT_iiii = comdat any

$_ZN8gemmlowp21GemmWithPackedRhsTaskINS_12KernelFormatINS_16KernelSideFormatINS_10CellFormatILi4ELi16ELNS_9CellOrderE1EEELi1EEES6_EEhhNS_14BitDepthParamsINS_12OperandRangeILi1ELi255EEENS9_ILi0ELi255EEEEELNS_8MapOrderE1ELSD_0ELSD_0ENS_9VectorDupIKiLNS_11VectorShapeE0EEENSE_ISF_LSG_1EEENSt3__15tupleIJNS_23OutputStageBiasAdditionINS_9VectorMapISF_LSG_0EEEEENS_44OutputStageScaleInt32ByFixedPointAndExponentENS_16OutputStageClampENS_32OutputStageSaturatingCastToUint8EEEENS_11GemmContextEED2Ev = comdat any

$_ZN8gemmlowp21GemmWithPackedRhsTaskINS_12KernelFormatINS_16KernelSideFormatINS_10CellFormatILi4ELi16ELNS_9CellOrderE1EEELi1EEES6_EEhhNS_14BitDepthParamsINS_12OperandRangeILi1ELi255EEENS9_ILi0ELi255EEEEELNS_8MapOrderE1ELSD_0ELSD_0ENS_9VectorDupIKiLNS_11VectorShapeE0EEENSE_ISF_LSG_1EEENSt3__15tupleIJNS_23OutputStageBiasAdditionINS_9VectorMapISF_LSG_0EEEEENS_44OutputStageScaleInt32ByFixedPointAndExponentENS_16OutputStageClampENS_32OutputStageSaturatingCastToUint8EEEENS_11GemmContextEED0Ev = comdat any

$_ZN8gemmlowp21GemmWithPackedRhsTaskINS_12KernelFormatINS_16KernelSideFormatINS_10CellFormatILi4ELi16ELNS_9CellOrderE1EEELi1EEES6_EEhhNS_14BitDepthParamsINS_12OperandRangeILi1ELi255EEENS9_ILi0ELi255EEEEELNS_8MapOrderE1ELSD_0ELSD_0ENS_9VectorDupIKiLNS_11VectorShapeE0EEENSE_ISF_LSG_1EEENSt3__15tupleIJNS_23OutputStageBiasAdditionINS_9VectorMapISF_LSG_0EEEEENS_44OutputStageScaleInt32ByFixedPointAndExponentENS_16OutputStageClampENS_32OutputStageSaturatingCastToUint8EEEENS_11GemmContextEE3RunEv = comdat any

$_ZNK8gemmlowp15ReferenceKernelINS_12KernelFormatINS_16KernelSideFormatINS_10CellFormatILi4ELi16ELNS_9CellOrderE1EEELi1EEES6_EEE4NameEv = comdat any

$_ZNK8gemmlowp15ReferenceKernelINS_12KernelFormatINS_16KernelSideFormatINS_10CellFormatILi4ELi16ELNS_9CellOrderE1EEELi1EEES6_EEE3RunEPimmPKhSB_mm = comdat any

$_ZN8gemmlowp13DefaultKernelINS_14BitDepthParamsINS_12OperandRangeILi1ELi255EEENS2_ILi0ELi255EEEEEED0Ev = comdat any

$_ZN8gemmlowp10KernelBaseD2Ev = comdat any

$_ZN8gemmlowp17DispatchGemmShapeIhhNS_14BitDepthParamsINS_12OperandRangeILi1ELi255EEENS2_ILi0ELi255EEEEELNS_8MapOrderE1ELS6_0ELS6_0ENS_9VectorDupIKiLNS_11VectorShapeE0EEENS7_IS8_LS9_1EEENSt3__15tupleIJNS_44OutputStageScaleInt32ByFixedPointAndExponentENS_16OutputStageClampENS_32OutputStageSaturatingCastToUint8EEEENS_11GemmContextEEEvPT8_RKNS_9MatrixMapIKT_XT2_EEERKNSL_ISN_XT3_EEEPNSL_IT0_XT4_EEERKT5_RKT6_RKT7_ = comdat any

$_ZN8gemmlowp17DispatchGemmShapeIhhNS_14BitDepthParamsINS_12OperandRangeILi1ELi255EEENS2_ILi0ELi255EEEEELNS_8MapOrderE1ELS6_0ELS6_1ENS_9VectorDupIKiLNS_11VectorShapeE1EEENS7_IS8_LS9_0EEENSt3__15tupleIJNS_44OutputStageScaleInt32ByFixedPointAndExponentENS_16OutputStageClampENS_32OutputStageSaturatingCastToUint8EEEENS_11GemmContextEEEvPT8_RKNS_9MatrixMapIKT_XT2_EEERKNSL_ISN_XT3_EEEPNSL_IT0_XT4_EEERKT5_RKT6_RKT7_ = comdat any

$_ZN8gemmlowp15MultiThreadGemmINS_12KernelFormatINS_16KernelSideFormatINS_10CellFormatILi4ELi16ELNS_9CellOrderE1EEELi1EEES6_EEhhNS_14BitDepthParamsINS_12OperandRangeILi1ELi255EEENS9_ILi0ELi255EEEEELNS_8MapOrderE1ELSD_0ELSD_0ENS_9VectorDupIKiLNS_11VectorShapeE0EEENSE_ISF_LSG_1EEENSt3__15tupleIJNS_44OutputStageScaleInt32ByFixedPointAndExponentENS_16OutputStageClampENS_32OutputStageSaturatingCastToUint8EEEENS_11GemmContextEEEvPT9_RKNS_10KernelBaseERKNS_9MatrixMapIKT0_XT3_EEERKNSV_ISX_XT4_EEEPNSV_IT1_XT5_EEERKT6_RKT7_RKT8_ = comdat any

$_ZN8gemmlowp15MultiThreadGemmINS_12KernelFormatINS_16KernelSideFormatINS_10CellFormatILi4ELi16ELNS_9CellOrderE1EEELi1EEES6_EEhhNS_14BitDepthParamsINS_12OperandRangeILi1ELi255EEENS9_ILi0ELi255EEEEELNS_8MapOrderE1ELSD_0ELSD_1ENS_9VectorDupIKiLNS_11VectorShapeE1EEENSE_ISF_LSG_0EEENSt3__15tupleIJNS_44OutputStageScaleInt32ByFixedPointAndExponentENS_16OutputStageClampENS_32OutputStageSaturatingCastToUint8EEEENS_11GemmContextEEEvPT9_RKNS_10KernelBaseERKNS_9MatrixMapIKT0_XT3_EEERKNSV_ISX_XT4_EEEPNSV_IT1_XT5_EEERKT6_RKT7_RKT8_ = comdat any

$_ZN8gemmlowp16SingleThreadGemmINS_12KernelFormatINS_16KernelSideFormatINS_10CellFormatILi4ELi16ELNS_9CellOrderE1EEELi1EEES6_EEhhNS_14BitDepthParamsINS_12OperandRangeILi1ELi255EEENS9_ILi0ELi255EEEEELNS_8MapOrderE1ELSD_0ELSD_1ENS_9VectorDupIKiLNS_11VectorShapeE1EEENSE_ISF_LSG_0EEENSt3__15tupleIJNS_44OutputStageScaleInt32ByFixedPointAndExponentENS_16OutputStageClampENS_32OutputStageSaturatingCastToUint8EEEEEEvPNS_23SingleThreadGemmContextERKNS_10KernelBaseERKNS_9MatrixMapIKT0_XT3_EEERKNSU_ISW_XT4_EEEPNSU_IT1_XT5_EEERKT6_RKT7_RKT8_ = comdat any

$_ZN8gemmlowp12UnpackResultINS_12KernelFormatINS_16KernelSideFormatINS_10CellFormatILi4ELi16ELNS_9CellOrderE1EEELi1EEES6_EENS_9MatrixMapIhLNS_8MapOrderE1EEENS_12PackedResultENS_9VectorDupIKiLNS_11VectorShapeE1EEENSC_ISD_LSE_0EEENSt3__15tupleIJNS_44OutputStageScaleInt32ByFixedPointAndExponentENS_16OutputStageClampENS_32OutputStageSaturatingCastToUint8EEEEEEvPT0_RKNS_17MatrixBlockBoundsERKT1_iPSD_SV_RKT2_RKT3_RKT4_ = comdat any

$_ZN8gemmlowp17UnpackResultBlockINS_12KernelFormatINS_16KernelSideFormatINS_10CellFormatILi4ELi16ELNS_9CellOrderE1EEELi1EEES6_EENS_13RegisterBlockIiLi8ELi4EEENS_9MatrixMapIKiLNS_8MapOrderE0EEENS_9VectorDupISB_LNS_11VectorShapeE1EEENSE_ISB_LSF_0EEENS_22OutputPipelineExecutorINSt3__15tupleIJNS_44OutputStageScaleInt32ByFixedPointAndExponentENS_16OutputStageClampENS_32OutputStageSaturatingCastToUint8EEEES9_EENSA_IhLSC_0EEEEEvRKT1_RKT4_PT5_RKNS_9VectorMapISB_LSF_0EEERKNSZ_ISB_LSF_1EEERKT2_RKT3_iiiiiii = comdat any

$_ZN8gemmlowp17UnpackResultBlockINS_12KernelFormatINS_16KernelSideFormatINS_10CellFormatILi4ELi16ELNS_9CellOrderE1EEELi1EEES6_EENS_13RegisterBlockIiLi4ELi4EEENS_9MatrixMapIKiLNS_8MapOrderE0EEENS_9VectorDupISB_LNS_11VectorShapeE1EEENSE_ISB_LSF_0EEENS_22OutputPipelineExecutorINSt3__15tupleIJNS_44OutputStageScaleInt32ByFixedPointAndExponentENS_16OutputStageClampENS_32OutputStageSaturatingCastToUint8EEEES9_EENSA_IhLSC_1EEEEEvRKT1_RKT4_PT5_RKNS_9VectorMapISB_LSF_0EEERKNSZ_ISB_LSF_1EEERKT2_RKT3_iiiiiii = comdat any

$_ZN8gemmlowp17UnpackResultBlockINS_12KernelFormatINS_16KernelSideFormatINS_10CellFormatILi4ELi16ELNS_9CellOrderE1EEELi1EEES6_EENS_13RegisterBlockIiLi1ELi4EEENS_9MatrixMapIKiLNS_8MapOrderE0EEENS_9VectorDupISB_LNS_11VectorShapeE1EEENSE_ISB_LSF_0EEENS_22OutputPipelineExecutorINSt3__15tupleIJNS_44OutputStageScaleInt32ByFixedPointAndExponentENS_16OutputStageClampENS_32OutputStageSaturatingCastToUint8EEEES9_EENSA_IhLSC_1EEEEEvRKT1_RKT4_PT5_RKNS_9VectorMapISB_LSF_0EEERKNSZ_ISB_LSF_1EEERKT2_RKT3_iiiiiii = comdat any

$_ZN8gemmlowp17UnpackResultBlockINS_12KernelFormatINS_16KernelSideFormatINS_10CellFormatILi4ELi16ELNS_9CellOrderE1EEELi1EEES6_EENS_13RegisterBlockIiLi8ELi4EEENS_9MatrixMapIKiLNS_8MapOrderE0EEENS_9VectorDupISB_LNS_11VectorShapeE1EEENSE_ISB_LSF_0EEENS_22OutputPipelineExecutorINSt3__15tupleIJNS_44OutputStageScaleInt32ByFixedPointAndExponentENS_16OutputStageClampENS_32OutputStageSaturatingCastToUint8EEEES9_EENSA_IhLSC_1EEEEEvRKT1_RKT4_PT5_RKNS_9VectorMapISB_LSF_0EEERKNSZ_ISB_LSF_1EEERKT2_RKT3_iiiiiii = comdat any

$_ZN8gemmlowp17UnpackResultBlockINS_12KernelFormatINS_16KernelSideFormatINS_10CellFormatILi4ELi16ELNS_9CellOrderE1EEELi1EEES6_EENS_13RegisterBlockIiLi8ELi1EEENS_9MatrixMapIKiLNS_8MapOrderE0EEENS_9VectorDupISB_LNS_11VectorShapeE1EEENSE_ISB_LSF_0EEENS_22OutputPipelineExecutorINSt3__15tupleIJNS_44OutputStageScaleInt32ByFixedPointAndExponentENS_16OutputStageClampENS_32OutputStageSaturatingCastToUint8EEEES9_EENSA_IhLSC_1EEEEEvRKT1_RKT4_PT5_RKNS_9VectorMapISB_LSF_0EEERKNSZ_ISB_LSF_1EEERKT2_RKT3_iiiiiii = comdat any

$_ZN8gemmlowp17UnpackResultBlockINS_12KernelFormatINS_16KernelSideFormatINS_10CellFormatILi4ELi16ELNS_9CellOrderE1EEELi1EEES6_EENS_13RegisterBlockIiLi4ELi1EEENS_9MatrixMapIKiLNS_8MapOrderE0EEENS_9VectorDupISB_LNS_11VectorShapeE1EEENSE_ISB_LSF_0EEENS_22OutputPipelineExecutorINSt3__15tupleIJNS_44OutputStageScaleInt32ByFixedPointAndExponentENS_16OutputStageClampENS_32OutputStageSaturatingCastToUint8EEEES9_EENSA_IhLSC_1EEEEEvRKT1_RKT4_PT5_RKNS_9VectorMapISB_LSF_0EEERKNSZ_ISB_LSF_1EEERKT2_RKT3_iiiiiii = comdat any

$_ZNK8gemmlowp22OutputPipelineEvalImplINSt3__15tupleIJNS_44OutputStageScaleInt32ByFixedPointAndExponentENS_16OutputStageClampENS_32OutputStageSaturatingCastToUint8EEEELi0ENS_13RegisterBlockIiLi8ELi4EEELb0EE4EvalES8_ii = comdat any

$_ZNK8gemmlowp22OutputPipelineEvalImplINSt3__15tupleIJNS_44OutputStageScaleInt32ByFixedPointAndExponentENS_16OutputStageClampENS_32OutputStageSaturatingCastToUint8EEEELi2ENS_13RegisterBlockIiLi8ELi4EEELb0EE4EvalES8_ii = comdat any

$_ZNK8gemmlowp22OutputPipelineEvalImplINSt3__15tupleIJNS_44OutputStageScaleInt32ByFixedPointAndExponentENS_16OutputStageClampENS_32OutputStageSaturatingCastToUint8EEEELi1ENS_13RegisterBlockIiLi4ELi4EEELb0EE4EvalES8_ii = comdat any

$_ZNK8gemmlowp22OutputPipelineEvalImplINSt3__15tupleIJNS_44OutputStageScaleInt32ByFixedPointAndExponentENS_16OutputStageClampENS_32OutputStageSaturatingCastToUint8EEEELi0ENS_13RegisterBlockIiLi8ELi1EEELb0EE4EvalES8_ii = comdat any

$_ZN8gemmlowp21GemmWithPackedRhsTaskINS_12KernelFormatINS_16KernelSideFormatINS_10CellFormatILi4ELi16ELNS_9CellOrderE1EEELi1EEES6_EEhhNS_14BitDepthParamsINS_12OperandRangeILi1ELi255EEENS9_ILi0ELi255EEEEELNS_8MapOrderE1ELSD_0ELSD_1ENS_9VectorDupIKiLNS_11VectorShapeE1EEENSE_ISF_LSG_0EEENSt3__15tupleIJNS_44OutputStageScaleInt32ByFixedPointAndExponentENS_16OutputStageClampENS_32OutputStageSaturatingCastToUint8EEEENS_11GemmContextEED2Ev = comdat any

$_ZN8gemmlowp21GemmWithPackedRhsTaskINS_12KernelFormatINS_16KernelSideFormatINS_10CellFormatILi4ELi16ELNS_9CellOrderE1EEELi1EEES6_EEhhNS_14BitDepthParamsINS_12OperandRangeILi1ELi255EEENS9_ILi0ELi255EEEEELNS_8MapOrderE1ELSD_0ELSD_1ENS_9VectorDupIKiLNS_11VectorShapeE1EEENSE_ISF_LSG_0EEENSt3__15tupleIJNS_44OutputStageScaleInt32ByFixedPointAndExponentENS_16OutputStageClampENS_32OutputStageSaturatingCastToUint8EEEENS_11GemmContextEED0Ev = comdat any

$_ZN8gemmlowp21GemmWithPackedRhsTaskINS_12KernelFormatINS_16KernelSideFormatINS_10CellFormatILi4ELi16ELNS_9CellOrderE1EEELi1EEES6_EEhhNS_14BitDepthParamsINS_12OperandRangeILi1ELi255EEENS9_ILi0ELi255EEEEELNS_8MapOrderE1ELSD_0ELSD_1ENS_9VectorDupIKiLNS_11VectorShapeE1EEENSE_ISF_LSG_0EEENSt3__15tupleIJNS_44OutputStageScaleInt32ByFixedPointAndExponentENS_16OutputStageClampENS_32OutputStageSaturatingCastToUint8EEEENS_11GemmContextEE3RunEv = comdat any

$_ZN8gemmlowp16SingleThreadGemmINS_12KernelFormatINS_16KernelSideFormatINS_10CellFormatILi4ELi16ELNS_9CellOrderE1EEELi1EEES6_EEhhNS_14BitDepthParamsINS_12OperandRangeILi1ELi255EEENS9_ILi0ELi255EEEEELNS_8MapOrderE1ELSD_0ELSD_0ENS_9VectorDupIKiLNS_11VectorShapeE0EEENSE_ISF_LSG_1EEENSt3__15tupleIJNS_44OutputStageScaleInt32ByFixedPointAndExponentENS_16OutputStageClampENS_32OutputStageSaturatingCastToUint8EEEEEEvPNS_23SingleThreadGemmContextERKNS_10KernelBaseERKNS_9MatrixMapIKT0_XT3_EEERKNSU_ISW_XT4_EEEPNSU_IT1_XT5_EEERKT6_RKT7_RKT8_ = comdat any

$_ZN8gemmlowp12UnpackResultINS_12KernelFormatINS_16KernelSideFormatINS_10CellFormatILi4ELi16ELNS_9CellOrderE1EEELi1EEES6_EENS_9MatrixMapIhLNS_8MapOrderE0EEENS_12PackedResultENS_9VectorDupIKiLNS_11VectorShapeE0EEENSC_ISD_LSE_1EEENSt3__15tupleIJNS_44OutputStageScaleInt32ByFixedPointAndExponentENS_16OutputStageClampENS_32OutputStageSaturatingCastToUint8EEEEEEvPT0_RKNS_17MatrixBlockBoundsERKT1_iPSD_SV_RKT2_RKT3_RKT4_ = comdat any

$_ZN8gemmlowp17UnpackResultBlockINS_12KernelFormatINS_16KernelSideFormatINS_10CellFormatILi4ELi16ELNS_9CellOrderE1EEELi1EEES6_EENS_13RegisterBlockIiLi8ELi4EEENS_9MatrixMapIKiLNS_8MapOrderE0EEENS_9VectorDupISB_LNS_11VectorShapeE0EEENSE_ISB_LSF_1EEENS_22OutputPipelineExecutorINSt3__15tupleIJNS_44OutputStageScaleInt32ByFixedPointAndExponentENS_16OutputStageClampENS_32OutputStageSaturatingCastToUint8EEEES9_EENSA_IhLSC_0EEEEEvRKT1_RKT4_PT5_RKNS_9VectorMapISB_LSF_0EEERKNSZ_ISB_LSF_1EEERKT2_RKT3_iiiiiii = comdat any

$_ZN8gemmlowp17UnpackResultBlockINS_12KernelFormatINS_16KernelSideFormatINS_10CellFormatILi4ELi16ELNS_9CellOrderE1EEELi1EEES6_EENS_13RegisterBlockIiLi4ELi4EEENS_9MatrixMapIKiLNS_8MapOrderE0EEENS_9VectorDupISB_LNS_11VectorShapeE0EEENSE_ISB_LSF_1EEENS_22OutputPipelineExecutorINSt3__15tupleIJNS_44OutputStageScaleInt32ByFixedPointAndExponentENS_16OutputStageClampENS_32OutputStageSaturatingCastToUint8EEEES9_EENSA_IhLSC_0EEEEEvRKT1_RKT4_PT5_RKNS_9VectorMapISB_LSF_0EEERKNSZ_ISB_LSF_1EEERKT2_RKT3_iiiiiii = comdat any

$_ZN8gemmlowp17UnpackResultBlockINS_12KernelFormatINS_16KernelSideFormatINS_10CellFormatILi4ELi16ELNS_9CellOrderE1EEELi1EEES6_EENS_13RegisterBlockIiLi1ELi4EEENS_9MatrixMapIKiLNS_8MapOrderE0EEENS_9VectorDupISB_LNS_11VectorShapeE0EEENSE_ISB_LSF_1EEENS_22OutputPipelineExecutorINSt3__15tupleIJNS_44OutputStageScaleInt32ByFixedPointAndExponentENS_16OutputStageClampENS_32OutputStageSaturatingCastToUint8EEEES9_EENSA_IhLSC_0EEEEEvRKT1_RKT4_PT5_RKNS_9VectorMapISB_LSF_0EEERKNSZ_ISB_LSF_1EEERKT2_RKT3_iiiiiii = comdat any

$_ZN8gemmlowp17UnpackResultBlockINS_12KernelFormatINS_16KernelSideFormatINS_10CellFormatILi4ELi16ELNS_9CellOrderE1EEELi1EEES6_EENS_13RegisterBlockIiLi8ELi1EEENS_9MatrixMapIKiLNS_8MapOrderE0EEENS_9VectorDupISB_LNS_11VectorShapeE0EEENSE_ISB_LSF_1EEENS_22OutputPipelineExecutorINSt3__15tupleIJNS_44OutputStageScaleInt32ByFixedPointAndExponentENS_16OutputStageClampENS_32OutputStageSaturatingCastToUint8EEEES9_EENSA_IhLSC_0EEEEEvRKT1_RKT4_PT5_RKNS_9VectorMapISB_LSF_0EEERKNSZ_ISB_LSF_1EEERKT2_RKT3_iiiiiii = comdat any

$_ZN8gemmlowp17UnpackResultBlockINS_12KernelFormatINS_16KernelSideFormatINS_10CellFormatILi4ELi16ELNS_9CellOrderE1EEELi1EEES6_EENS_13RegisterBlockIiLi4ELi1EEENS_9MatrixMapIKiLNS_8MapOrderE0EEENS_9VectorDupISB_LNS_11VectorShapeE0EEENSE_ISB_LSF_1EEENS_22OutputPipelineExecutorINSt3__15tupleIJNS_44OutputStageScaleInt32ByFixedPointAndExponentENS_16OutputStageClampENS_32OutputStageSaturatingCastToUint8EEEES9_EENSA_IhLSC_0EEEEEvRKT1_RKT4_PT5_RKNS_9VectorMapISB_LSF_0EEERKNSZ_ISB_LSF_1EEERKT2_RKT3_iiiiiii = comdat any

$_ZN8gemmlowp21GemmWithPackedRhsTaskINS_12KernelFormatINS_16KernelSideFormatINS_10CellFormatILi4ELi16ELNS_9CellOrderE1EEELi1EEES6_EEhhNS_14BitDepthParamsINS_12OperandRangeILi1ELi255EEENS9_ILi0ELi255EEEEELNS_8MapOrderE1ELSD_0ELSD_0ENS_9VectorDupIKiLNS_11VectorShapeE0EEENSE_ISF_LSG_1EEENSt3__15tupleIJNS_44OutputStageScaleInt32ByFixedPointAndExponentENS_16OutputStageClampENS_32OutputStageSaturatingCastToUint8EEEENS_11GemmContextEED2Ev = comdat any

$_ZN8gemmlowp21GemmWithPackedRhsTaskINS_12KernelFormatINS_16KernelSideFormatINS_10CellFormatILi4ELi16ELNS_9CellOrderE1EEELi1EEES6_EEhhNS_14BitDepthParamsINS_12OperandRangeILi1ELi255EEENS9_ILi0ELi255EEEEELNS_8MapOrderE1ELSD_0ELSD_0ENS_9VectorDupIKiLNS_11VectorShapeE0EEENSE_ISF_LSG_1EEENSt3__15tupleIJNS_44OutputStageScaleInt32ByFixedPointAndExponentENS_16OutputStageClampENS_32OutputStageSaturatingCastToUint8EEEENS_11GemmContextEED0Ev = comdat any

$_ZN8gemmlowp21GemmWithPackedRhsTaskINS_12KernelFormatINS_16KernelSideFormatINS_10CellFormatILi4ELi16ELNS_9CellOrderE1EEELi1EEES6_EEhhNS_14BitDepthParamsINS_12OperandRangeILi1ELi255EEENS9_ILi0ELi255EEEEELNS_8MapOrderE1ELSD_0ELSD_0ENS_9VectorDupIKiLNS_11VectorShapeE0EEENSE_ISF_LSG_1EEENSt3__15tupleIJNS_44OutputStageScaleInt32ByFixedPointAndExponentENS_16OutputStageClampENS_32OutputStageSaturatingCastToUint8EEEENS_11GemmContextEE3RunEv = comdat any

$_ZN6tflite16cpu_backend_gemm6detail16GemmImplUsingRuyIaaiaLNS0_18QuantizationFlavorE1EE3RunERKNS0_12MatrixParamsIaEEPKaS8_SA_S8_PaRKNS0_10GemmParamsIiaLS3_1EEEPNS_17CpuBackendContextE = comdat any

$_ZN3ruy11DispatchMulILNS_4PathE26EaaaNS_9MulParamsIiaEEEEvRKNS_3MatIT0_EERKNS4_IT1_EERKT3_PNS_3CtxEPNS4_IT2_EE = comdat any

$_ZN3ruy7RunPackILNS_4PathE16ENS_17FixedKernelLayoutILNS_5OrderE0ELi4ELi16EEEaaEEvNS_6TuningERKNS_4EMatEPNS_5PEMatEii = comdat any

$_ZN3ruy9RunKernelILNS_4PathE16EaaaNS_9MulParamsIiaEEEEvNS_6TuningERKNS_8SidePairINS_5PEMatEEEPvRKNS5_IiEESD_PNS_4EMatE = comdat any

$_ZN3ruy7RunPackILNS_4PathE2ENS_17FixedKernelLayoutILNS_5OrderE0ELi1ELi1EEEaaEEvNS_6TuningERKNS_4EMatEPNS_5PEMatEii = comdat any

$_ZN3ruy9RunKernelILNS_4PathE2EaaaNS_9MulParamsIiaEEEEvNS_6TuningERKNS_8SidePairINS_5PEMatEEEPvRKNS5_IiEESD_PNS_4EMatE = comdat any

$_ZN3ruy8PackImplILNS_4PathE2ENS_17FixedKernelLayoutILNS_5OrderE0ELi1ELi1EEEaaiE3RunENS_6TuningERKNS_3MatIaEEPNS_4PMatIaEEii = comdat any

$_ZNK3ruy6KernelILNS_4PathE2EaaaNS_9MulParamsIiaEEE3RunERKNS_4PMatIaEES8_RKS3_iiiiPNS_3MatIaEE = comdat any

$_ZN3ruy27PathSearchOnlyCompiledPathsILNS_4PathE26ELb1ELi3EaaaNS_9MulParamsIiaEEE6SearchES1_PNS_11TrMulParamsE = comdat any

$_ZN3ruy19PopulateTrMulParamsILNS_4PathE8EaaaNS_9MulParamsIiaEEEEvPNS_11TrMulParamsE = comdat any

$_ZN3ruy7RunPackILNS_4PathE8ENS_17FixedKernelLayoutILNS_5OrderE0ELi4ELi8EEEaaEEvNS_6TuningERKNS_4EMatEPNS_5PEMatEii = comdat any

$_ZN3ruy9RunKernelILNS_4PathE8EaaaNS_9MulParamsIiaEEEEvNS_6TuningERKNS_8SidePairINS_5PEMatEEEPvRKNS5_IiEESD_PNS_4EMatE = comdat any

$_ZN8gemmlowp4TaskD2Ev = comdat any

$_ZN6tflite16cpu_backend_gemm6detail16GemmImplUsingRuyIhhisLNS0_18QuantizationFlavorE1EE3RunERKNS0_12MatrixParamsIhEEPKhS8_SA_RKNS5_IsEEPsRKNS0_10GemmParamsIisLS3_1EEEPNS_17CpuBackendContextE = comdat any

$_ZN6tflite16cpu_backend_gemm6detail21GemmImplUsingGemmlowpIhhisLNS0_18QuantizationFlavorE1EE3RunERKNS0_12MatrixParamsIhEEPKhS8_SA_RKNS5_IsEEPsRKNS0_10GemmParamsIisLS3_1EEEPNS_17CpuBackendContextE = comdat any

$_ZN3ruy11DispatchMulILNS_4PathE26EhhsNS_9MulParamsIisEEEEvRKNS_3MatIT0_EERKNS4_IT1_EERKT3_PNS_3CtxEPNS4_IT2_EE = comdat any

$_ZN3ruy17CreateTrMulParamsILNS_4PathE26EhhsNS_9MulParamsIisEEEEvRKNS_3MatIT0_EERKNS4_IT1_EERKT3_PNS4_IT2_EES1_PNS_11TrMulParamsE = comdat any

$_ZN3ruy19PopulateTrMulParamsILNS_4PathE16EhhsNS_9MulParamsIisEEEEvPNS_11TrMulParamsE = comdat any

$_ZN3ruy9RunKernelILNS_4PathE16EaasNS_9MulParamsIisEEEEvNS_6TuningERKNS_8SidePairINS_5PEMatEEEPvRKNS5_IiEESD_PNS_4EMatE = comdat any

$_ZN3ruy9RunKernelILNS_4PathE2EhhsNS_9MulParamsIisEEEEvNS_6TuningERKNS_8SidePairINS_5PEMatEEEPvRKNS5_IiEESD_PNS_4EMatE = comdat any

$_ZNK3ruy6KernelILNS_4PathE2EhhsNS_9MulParamsIisEEE3RunERKNS_4PMatIhEES8_RKS3_iiiiPNS_3MatIsEE = comdat any

$_ZN3ruy19PopulateTrMulParamsILNS_4PathE8EhhsNS_9MulParamsIisEEEEvPNS_11TrMulParamsE = comdat any

$_ZN3ruy9RunKernelILNS_4PathE8EaasNS_9MulParamsIisEEEEvNS_6TuningERKNS_8SidePairINS_5PEMatEEEPvRKNS5_IiEESD_PNS_4EMatE = comdat any

$_ZN8gemmlowp17DispatchGemmShapeIhsNS_14BitDepthParamsINS_12OperandRangeILi1ELi255EEENS2_ILi0ELi255EEEEELNS_8MapOrderE1ELS6_0ELS6_0ENS_9VectorDupIKiLNS_11VectorShapeE0EEENS7_IS8_LS9_1EEENSt3__15tupleIJNS_23OutputStageBiasAdditionINS_9VectorMapIS8_LS9_0EEEEENS_44OutputStageScaleInt32ByFixedPointAndExponentENS_16OutputStageClampENS_32OutputStageSaturatingCastToInt16EEEENS_11GemmContextEEEvPT8_RKNS_9MatrixMapIKT_XT2_EEERKNSP_ISR_XT3_EEEPNSP_IT0_XT4_EEERKT5_RKT6_RKT7_ = comdat any

$_ZN8gemmlowp17DispatchGemmShapeIhsNS_14BitDepthParamsINS_12OperandRangeILi1ELi255EEENS2_ILi0ELi255EEEEELNS_8MapOrderE1ELS6_0ELS6_1ENS_9VectorDupIKiLNS_11VectorShapeE1EEENS7_IS8_LS9_0EEENSt3__15tupleIJNS_23OutputStageBiasAdditionINS_9VectorMapIS8_LS9_1EEEEENS_44OutputStageScaleInt32ByFixedPointAndExponentENS_16OutputStageClampENS_32OutputStageSaturatingCastToInt16EEEENS_11GemmContextEEEvPT8_RKNS_9MatrixMapIKT_XT2_EEERKNSP_ISR_XT3_EEEPNSP_IT0_XT4_EEERKT5_RKT6_RKT7_ = comdat any

$_ZN8gemmlowp15MultiThreadGemmINS_12KernelFormatINS_16KernelSideFormatINS_10CellFormatILi4ELi16ELNS_9CellOrderE1EEELi1EEES6_EEhsNS_14BitDepthParamsINS_12OperandRangeILi1ELi255EEENS9_ILi0ELi255EEEEELNS_8MapOrderE1ELSD_0ELSD_0ENS_9VectorDupIKiLNS_11VectorShapeE0EEENSE_ISF_LSG_1EEENSt3__15tupleIJNS_23OutputStageBiasAdditionINS_9VectorMapISF_LSG_0EEEEENS_44OutputStageScaleInt32ByFixedPointAndExponentENS_16OutputStageClampENS_32OutputStageSaturatingCastToInt16EEEENS_11GemmContextEEEvPT9_RKNS_10KernelBaseERKNS_9MatrixMapIKT0_XT3_EEERKNSZ_IS11_XT4_EEEPNSZ_IT1_XT5_EEERKT6_RKT7_RKT8_ = comdat any

$_ZN8gemmlowp15MultiThreadGemmINS_12KernelFormatINS_16KernelSideFormatINS_10CellFormatILi4ELi16ELNS_9CellOrderE1EEELi1EEES6_EEhsNS_14BitDepthParamsINS_12OperandRangeILi1ELi255EEENS9_ILi0ELi255EEEEELNS_8MapOrderE1ELSD_0ELSD_1ENS_9VectorDupIKiLNS_11VectorShapeE1EEENSE_ISF_LSG_0EEENSt3__15tupleIJNS_23OutputStageBiasAdditionINS_9VectorMapISF_LSG_1EEEEENS_44OutputStageScaleInt32ByFixedPointAndExponentENS_16OutputStageClampENS_32OutputStageSaturatingCastToInt16EEEENS_11GemmContextEEEvPT9_RKNS_10KernelBaseERKNS_9MatrixMapIKT0_XT3_EEERKNSZ_IS11_XT4_EEEPNSZ_IT1_XT5_EEERKT6_RKT7_RKT8_ = comdat any

$_ZN8gemmlowp16SingleThreadGemmINS_12KernelFormatINS_16KernelSideFormatINS_10CellFormatILi4ELi16ELNS_9CellOrderE1EEELi1EEES6_EEhsNS_14BitDepthParamsINS_12OperandRangeILi1ELi255EEENS9_ILi0ELi255EEEEELNS_8MapOrderE1ELSD_0ELSD_1ENS_9VectorDupIKiLNS_11VectorShapeE1EEENSE_ISF_LSG_0EEENSt3__15tupleIJNS_23OutputStageBiasAdditionINS_9VectorMapISF_LSG_1EEEEENS_44OutputStageScaleInt32ByFixedPointAndExponentENS_16OutputStageClampENS_32OutputStageSaturatingCastToInt16EEEEEEvPNS_23SingleThreadGemmContextERKNS_10KernelBaseERKNS_9MatrixMapIKT0_XT3_EEERKNSY_IS10_XT4_EEEPNSY_IT1_XT5_EEERKT6_RKT7_RKT8_ = comdat any

$_ZN8gemmlowp12UnpackResultINS_12KernelFormatINS_16KernelSideFormatINS_10CellFormatILi4ELi16ELNS_9CellOrderE1EEELi1EEES6_EENS_9MatrixMapIsLNS_8MapOrderE1EEENS_12PackedResultENS_9VectorDupIKiLNS_11VectorShapeE1EEENSC_ISD_LSE_0EEENSt3__15tupleIJNS_23OutputStageBiasAdditionINS_9VectorMapISD_LSE_1EEEEENS_44OutputStageScaleInt32ByFixedPointAndExponentENS_16OutputStageClampENS_32OutputStageSaturatingCastToInt16EEEEEEvPT0_RKNS_17MatrixBlockBoundsERKT1_iPSD_SZ_RKT2_RKT3_RKT4_ = comdat any

$_ZN8gemmlowp17UnpackResultBlockINS_12KernelFormatINS_16KernelSideFormatINS_10CellFormatILi4ELi16ELNS_9CellOrderE1EEELi1EEES6_EENS_13RegisterBlockIiLi8ELi4EEENS_9MatrixMapIKiLNS_8MapOrderE0EEENS_9VectorDupISB_LNS_11VectorShapeE1EEENSE_ISB_LSF_0EEENS_22OutputPipelineExecutorINSt3__15tupleIJNS_23OutputStageBiasAdditionINS_9VectorMapISB_LSF_1EEEEENS_44OutputStageScaleInt32ByFixedPointAndExponentENS_16OutputStageClampENS_32OutputStageSaturatingCastToInt16EEEES9_EENSA_IsLSC_0EEEEEvRKT1_RKT4_PT5_RKNSM_ISB_LSF_0EEERKSN_RKT2_RKT3_iiiiiii = comdat any

$_ZN8gemmlowp17UnpackResultBlockINS_12KernelFormatINS_16KernelSideFormatINS_10CellFormatILi4ELi16ELNS_9CellOrderE1EEELi1EEES6_EENS_13RegisterBlockIiLi4ELi4EEENS_9MatrixMapIKiLNS_8MapOrderE0EEENS_9VectorDupISB_LNS_11VectorShapeE1EEENSE_ISB_LSF_0EEENS_22OutputPipelineExecutorINSt3__15tupleIJNS_23OutputStageBiasAdditionINS_9VectorMapISB_LSF_1EEEEENS_44OutputStageScaleInt32ByFixedPointAndExponentENS_16OutputStageClampENS_32OutputStageSaturatingCastToInt16EEEES9_EENSA_IsLSC_1EEEEEvRKT1_RKT4_PT5_RKNSM_ISB_LSF_0EEERKSN_RKT2_RKT3_iiiiiii = comdat any

$_ZN8gemmlowp17UnpackResultBlockINS_12KernelFormatINS_16KernelSideFormatINS_10CellFormatILi4ELi16ELNS_9CellOrderE1EEELi1EEES6_EENS_13RegisterBlockIiLi1ELi4EEENS_9MatrixMapIKiLNS_8MapOrderE0EEENS_9VectorDupISB_LNS_11VectorShapeE1EEENSE_ISB_LSF_0EEENS_22OutputPipelineExecutorINSt3__15tupleIJNS_23OutputStageBiasAdditionINS_9VectorMapISB_LSF_1EEEEENS_44OutputStageScaleInt32ByFixedPointAndExponentENS_16OutputStageClampENS_32OutputStageSaturatingCastToInt16EEEES9_EENSA_IsLSC_1EEEEEvRKT1_RKT4_PT5_RKNSM_ISB_LSF_0EEERKSN_RKT2_RKT3_iiiiiii = comdat any

$_ZN8gemmlowp17UnpackResultBlockINS_12KernelFormatINS_16KernelSideFormatINS_10CellFormatILi4ELi16ELNS_9CellOrderE1EEELi1EEES6_EENS_13RegisterBlockIiLi8ELi4EEENS_9MatrixMapIKiLNS_8MapOrderE0EEENS_9VectorDupISB_LNS_11VectorShapeE1EEENSE_ISB_LSF_0EEENS_22OutputPipelineExecutorINSt3__15tupleIJNS_23OutputStageBiasAdditionINS_9VectorMapISB_LSF_1EEEEENS_44OutputStageScaleInt32ByFixedPointAndExponentENS_16OutputStageClampENS_32OutputStageSaturatingCastToInt16EEEES9_EENSA_IsLSC_1EEEEEvRKT1_RKT4_PT5_RKNSM_ISB_LSF_0EEERKSN_RKT2_RKT3_iiiiiii = comdat any

$_ZN8gemmlowp17UnpackResultBlockINS_12KernelFormatINS_16KernelSideFormatINS_10CellFormatILi4ELi16ELNS_9CellOrderE1EEELi1EEES6_EENS_13RegisterBlockIiLi8ELi1EEENS_9MatrixMapIKiLNS_8MapOrderE0EEENS_9VectorDupISB_LNS_11VectorShapeE1EEENSE_ISB_LSF_0EEENS_22OutputPipelineExecutorINSt3__15tupleIJNS_23OutputStageBiasAdditionINS_9VectorMapISB_LSF_1EEEEENS_44OutputStageScaleInt32ByFixedPointAndExponentENS_16OutputStageClampENS_32OutputStageSaturatingCastToInt16EEEES9_EENSA_IsLSC_1EEEEEvRKT1_RKT4_PT5_RKNSM_ISB_LSF_0EEERKSN_RKT2_RKT3_iiiiiii = comdat any

$_ZN8gemmlowp17UnpackResultBlockINS_12KernelFormatINS_16KernelSideFormatINS_10CellFormatILi4ELi16ELNS_9CellOrderE1EEELi1EEES6_EENS_13RegisterBlockIiLi1ELi1EEENS_9MatrixMapIKiLNS_8MapOrderE0EEENS_9VectorDupISB_LNS_11VectorShapeE1EEENSE_ISB_LSF_0EEENS_22OutputPipelineExecutorINSt3__15tupleIJNS_23OutputStageBiasAdditionINS_9VectorMapISB_LSF_1EEEEENS_44OutputStageScaleInt32ByFixedPointAndExponentENS_16OutputStageClampENS_32OutputStageSaturatingCastToInt16EEEES9_EENSA_IsLSC_1EEEEEvRKT1_RKT4_PT5_RKNSM_ISB_LSF_0EEERKSN_RKT2_RKT3_iiiiiii = comdat any

$_ZNK8gemmlowp22OutputPipelineExecutorINSt3__15tupleIJNS_23OutputStageBiasAdditionINS_9VectorMapIKiLNS_11VectorShapeE1EEEEENS_44OutputStageScaleInt32ByFixedPointAndExponentENS_16OutputStageClampENS_32OutputStageSaturatingCastToInt16EEEENS_13RegisterBlockIiLi8ELi4EEEE7ExecuteINS_9MatrixMapIsLNS_8MapOrderE0EEEEEvSE_PT_iiii = comdat any

$_ZNK8gemmlowp22OutputPipelineEvalImplINSt3__15tupleIJNS_23OutputStageBiasAdditionINS_9VectorMapIKiLNS_11VectorShapeE1EEEEENS_44OutputStageScaleInt32ByFixedPointAndExponentENS_16OutputStageClampENS_32OutputStageSaturatingCastToInt16EEEELi1ENS_13RegisterBlockIiLi8ELi4EEELb0EE4EvalESE_ii = comdat any

$_ZN8gemmlowp20StoreFinalOutputImplINS_13RegisterBlockIsLi8ELi8EEENS_9MatrixMapIsLNS_8MapOrderE1EEEE3RunERKS2_PS5_ii = comdat any

$_ZNK8gemmlowp22OutputPipelineEvalImplINSt3__15tupleIJNS_23OutputStageBiasAdditionINS_9VectorMapIKiLNS_11VectorShapeE1EEEEENS_44OutputStageScaleInt32ByFixedPointAndExponentENS_16OutputStageClampENS_32OutputStageSaturatingCastToInt16EEEELi0ENS_13RegisterBlockIiLi4ELi4EEELb0EE4EvalESE_ii = comdat any

$_ZNK8gemmlowp22OutputPipelineEvalImplINSt3__15tupleIJNS_23OutputStageBiasAdditionINS_9VectorMapIKiLNS_11VectorShapeE1EEEEENS_44OutputStageScaleInt32ByFixedPointAndExponentENS_16OutputStageClampENS_32OutputStageSaturatingCastToInt16EEEELi2ENS_13RegisterBlockIiLi4ELi4EEELb0EE4EvalESE_ii = comdat any

$_ZNK8gemmlowp22OutputPipelineExecutorINSt3__15tupleIJNS_23OutputStageBiasAdditionINS_9VectorMapIKiLNS_11VectorShapeE1EEEEENS_44OutputStageScaleInt32ByFixedPointAndExponentENS_16OutputStageClampENS_32OutputStageSaturatingCastToInt16EEEENS_13RegisterBlockIiLi8ELi4EEEE7ExecuteINS_9MatrixMapIsLNS_8MapOrderE1EEEEEvSE_PT_iiii = comdat any

$_ZNK8gemmlowp22OutputPipelineEvalImplINSt3__15tupleIJNS_23OutputStageBiasAdditionINS_9VectorMapIKiLNS_11VectorShapeE1EEEEENS_44OutputStageScaleInt32ByFixedPointAndExponentENS_16OutputStageClampENS_32OutputStageSaturatingCastToInt16EEEELi1ENS_13RegisterBlockIiLi8ELi1EEELb0EE4EvalESE_ii = comdat any

$_ZNK8gemmlowp22OutputPipelineEvalImplINSt3__15tupleIJNS_23OutputStageBiasAdditionINS_9VectorMapIKiLNS_11VectorShapeE1EEEEENS_44OutputStageScaleInt32ByFixedPointAndExponentENS_16OutputStageClampENS_32OutputStageSaturatingCastToInt16EEEELi2ENS_13RegisterBlockIiLi8ELi1EEELb0EE4EvalESE_ii = comdat any

$_ZNK8gemmlowp22OutputPipelineExecutorINSt3__15tupleIJNS_23OutputStageBiasAdditionINS_9VectorMapIKiLNS_11VectorShapeE1EEEEENS_44OutputStageScaleInt32ByFixedPointAndExponentENS_16OutputStageClampENS_32OutputStageSaturatingCastToInt16EEEENS_13RegisterBlockIiLi4ELi1EEEE7ExecuteINS_9MatrixMapIsLNS_8MapOrderE1EEEEEvSE_PT_iiii = comdat any

$_ZN8gemmlowp21GemmWithPackedRhsTaskINS_12KernelFormatINS_16KernelSideFormatINS_10CellFormatILi4ELi16ELNS_9CellOrderE1EEELi1EEES6_EEhsNS_14BitDepthParamsINS_12OperandRangeILi1ELi255EEENS9_ILi0ELi255EEEEELNS_8MapOrderE1ELSD_0ELSD_1ENS_9VectorDupIKiLNS_11VectorShapeE1EEENSE_ISF_LSG_0EEENSt3__15tupleIJNS_23OutputStageBiasAdditionINS_9VectorMapISF_LSG_1EEEEENS_44OutputStageScaleInt32ByFixedPointAndExponentENS_16OutputStageClampENS_32OutputStageSaturatingCastToInt16EEEENS_11GemmContextEED2Ev = comdat any

$_ZN8gemmlowp21GemmWithPackedRhsTaskINS_12KernelFormatINS_16KernelSideFormatINS_10CellFormatILi4ELi16ELNS_9CellOrderE1EEELi1EEES6_EEhsNS_14BitDepthParamsINS_12OperandRangeILi1ELi255EEENS9_ILi0ELi255EEEEELNS_8MapOrderE1ELSD_0ELSD_1ENS_9VectorDupIKiLNS_11VectorShapeE1EEENSE_ISF_LSG_0EEENSt3__15tupleIJNS_23OutputStageBiasAdditionINS_9VectorMapISF_LSG_1EEEEENS_44OutputStageScaleInt32ByFixedPointAndExponentENS_16OutputStageClampENS_32OutputStageSaturatingCastToInt16EEEENS_11GemmContextEED0Ev = comdat any

$_ZN8gemmlowp21GemmWithPackedRhsTaskINS_12KernelFormatINS_16KernelSideFormatINS_10CellFormatILi4ELi16ELNS_9CellOrderE1EEELi1EEES6_EEhsNS_14BitDepthParamsINS_12OperandRangeILi1ELi255EEENS9_ILi0ELi255EEEEELNS_8MapOrderE1ELSD_0ELSD_1ENS_9VectorDupIKiLNS_11VectorShapeE1EEENSE_ISF_LSG_0EEENSt3__15tupleIJNS_23OutputStageBiasAdditionINS_9VectorMapISF_LSG_1EEEEENS_44OutputStageScaleInt32ByFixedPointAndExponentENS_16OutputStageClampENS_32OutputStageSaturatingCastToInt16EEEENS_11GemmContextEE3RunEv = comdat any

$_ZN8gemmlowp16SingleThreadGemmINS_12KernelFormatINS_16KernelSideFormatINS_10CellFormatILi4ELi16ELNS_9CellOrderE1EEELi1EEES6_EEhsNS_14BitDepthParamsINS_12OperandRangeILi1ELi255EEENS9_ILi0ELi255EEEEELNS_8MapOrderE1ELSD_0ELSD_0ENS_9VectorDupIKiLNS_11VectorShapeE0EEENSE_ISF_LSG_1EEENSt3__15tupleIJNS_23OutputStageBiasAdditionINS_9VectorMapISF_LSG_0EEEEENS_44OutputStageScaleInt32ByFixedPointAndExponentENS_16OutputStageClampENS_32OutputStageSaturatingCastToInt16EEEEEEvPNS_23SingleThreadGemmContextERKNS_10KernelBaseERKNS_9MatrixMapIKT0_XT3_EEERKNSY_IS10_XT4_EEEPNSY_IT1_XT5_EEERKT6_RKT7_RKT8_ = comdat any

$_ZN8gemmlowp12UnpackResultINS_12KernelFormatINS_16KernelSideFormatINS_10CellFormatILi4ELi16ELNS_9CellOrderE1EEELi1EEES6_EENS_9MatrixMapIsLNS_8MapOrderE0EEENS_12PackedResultENS_9VectorDupIKiLNS_11VectorShapeE0EEENSC_ISD_LSE_1EEENSt3__15tupleIJNS_23OutputStageBiasAdditionINS_9VectorMapISD_LSE_0EEEEENS_44OutputStageScaleInt32ByFixedPointAndExponentENS_16OutputStageClampENS_32OutputStageSaturatingCastToInt16EEEEEEvPT0_RKNS_17MatrixBlockBoundsERKT1_iPSD_SZ_RKT2_RKT3_RKT4_ = comdat any

$_ZN8gemmlowp17UnpackResultBlockINS_12KernelFormatINS_16KernelSideFormatINS_10CellFormatILi4ELi16ELNS_9CellOrderE1EEELi1EEES6_EENS_13RegisterBlockIiLi8ELi4EEENS_9MatrixMapIKiLNS_8MapOrderE0EEENS_9VectorDupISB_LNS_11VectorShapeE0EEENSE_ISB_LSF_1EEENS_22OutputPipelineExecutorINSt3__15tupleIJNS_23OutputStageBiasAdditionINS_9VectorMapISB_LSF_0EEEEENS_44OutputStageScaleInt32ByFixedPointAndExponentENS_16OutputStageClampENS_32OutputStageSaturatingCastToInt16EEEES9_EENSA_IsLSC_0EEEEEvRKT1_RKT4_PT5_RKSN_RKNSM_ISB_LSF_1EEERKT2_RKT3_iiiiiii = comdat any

$_ZN8gemmlowp17UnpackResultBlockINS_12KernelFormatINS_16KernelSideFormatINS_10CellFormatILi4ELi16ELNS_9CellOrderE1EEELi1EEES6_EENS_13RegisterBlockIiLi4ELi4EEENS_9MatrixMapIKiLNS_8MapOrderE0EEENS_9VectorDupISB_LNS_11VectorShapeE0EEENSE_ISB_LSF_1EEENS_22OutputPipelineExecutorINSt3__15tupleIJNS_23OutputStageBiasAdditionINS_9VectorMapISB_LSF_0EEEEENS_44OutputStageScaleInt32ByFixedPointAndExponentENS_16OutputStageClampENS_32OutputStageSaturatingCastToInt16EEEES9_EENSA_IsLSC_0EEEEEvRKT1_RKT4_PT5_RKSN_RKNSM_ISB_LSF_1EEERKT2_RKT3_iiiiiii = comdat any

$_ZN8gemmlowp17UnpackResultBlockINS_12KernelFormatINS_16KernelSideFormatINS_10CellFormatILi4ELi16ELNS_9CellOrderE1EEELi1EEES6_EENS_13RegisterBlockIiLi4ELi1EEENS_9MatrixMapIKiLNS_8MapOrderE0EEENS_9VectorDupISB_LNS_11VectorShapeE0EEENSE_ISB_LSF_1EEENS_22OutputPipelineExecutorINSt3__15tupleIJNS_23OutputStageBiasAdditionINS_9VectorMapISB_LSF_0EEEEENS_44OutputStageScaleInt32ByFixedPointAndExponentENS_16OutputStageClampENS_32OutputStageSaturatingCastToInt16EEEES9_EENSA_IsLSC_0EEEEEvRKT1_RKT4_PT5_RKSN_RKNSM_ISB_LSF_1EEERKT2_RKT3_iiiiiii = comdat any

$_ZN8gemmlowp17UnpackResultBlockINS_12KernelFormatINS_16KernelSideFormatINS_10CellFormatILi4ELi16ELNS_9CellOrderE1EEELi1EEES6_EENS_13RegisterBlockIiLi1ELi1EEENS_9MatrixMapIKiLNS_8MapOrderE0EEENS_9VectorDupISB_LNS_11VectorShapeE0EEENSE_ISB_LSF_1EEENS_22OutputPipelineExecutorINSt3__15tupleIJNS_23OutputStageBiasAdditionINS_9VectorMapISB_LSF_0EEEEENS_44OutputStageScaleInt32ByFixedPointAndExponentENS_16OutputStageClampENS_32OutputStageSaturatingCastToInt16EEEES9_EENSA_IsLSC_0EEEEEvRKT1_RKT4_PT5_RKSN_RKNSM_ISB_LSF_1EEERKT2_RKT3_iiiiiii = comdat any

$_ZNK8gemmlowp22OutputPipelineExecutorINSt3__15tupleIJNS_23OutputStageBiasAdditionINS_9VectorMapIKiLNS_11VectorShapeE0EEEEENS_44OutputStageScaleInt32ByFixedPointAndExponentENS_16OutputStageClampENS_32OutputStageSaturatingCastToInt16EEEENS_13RegisterBlockIiLi8ELi4EEEE7ExecuteINS_9MatrixMapIsLNS_8MapOrderE0EEEEEvSE_PT_iiii = comdat any

$_ZNK8gemmlowp22OutputPipelineEvalImplINSt3__15tupleIJNS_23OutputStageBiasAdditionINS_9VectorMapIKiLNS_11VectorShapeE0EEEEENS_44OutputStageScaleInt32ByFixedPointAndExponentENS_16OutputStageClampENS_32OutputStageSaturatingCastToInt16EEEELi1ENS_13RegisterBlockIiLi8ELi4EEELb0EE4EvalESE_ii = comdat any

$_ZNK8gemmlowp22OutputPipelineEvalImplINSt3__15tupleIJNS_23OutputStageBiasAdditionINS_9VectorMapIKiLNS_11VectorShapeE0EEEEENS_44OutputStageScaleInt32ByFixedPointAndExponentENS_16OutputStageClampENS_32OutputStageSaturatingCastToInt16EEEELi0ENS_13RegisterBlockIiLi4ELi4EEELb0EE4EvalESE_ii = comdat any

$_ZNK8gemmlowp22OutputPipelineEvalImplINSt3__15tupleIJNS_23OutputStageBiasAdditionINS_9VectorMapIKiLNS_11VectorShapeE0EEEEENS_44OutputStageScaleInt32ByFixedPointAndExponentENS_16OutputStageClampENS_32OutputStageSaturatingCastToInt16EEEELi2ENS_13RegisterBlockIiLi4ELi4EEELb0EE4EvalESE_ii = comdat any

$_ZNK8gemmlowp22OutputPipelineExecutorINSt3__15tupleIJNS_23OutputStageBiasAdditionINS_9VectorMapIKiLNS_11VectorShapeE0EEEEENS_44OutputStageScaleInt32ByFixedPointAndExponentENS_16OutputStageClampENS_32OutputStageSaturatingCastToInt16EEEENS_13RegisterBlockIiLi1ELi4EEEE7ExecuteINS_9MatrixMapIsLNS_8MapOrderE0EEEEEvSE_PT_iiii = comdat any

$_ZNK8gemmlowp22OutputPipelineExecutorINSt3__15tupleIJNS_23OutputStageBiasAdditionINS_9VectorMapIKiLNS_11VectorShapeE0EEEEENS_44OutputStageScaleInt32ByFixedPointAndExponentENS_16OutputStageClampENS_32OutputStageSaturatingCastToInt16EEEENS_13RegisterBlockIiLi8ELi1EEEE7ExecuteINS_9MatrixMapIsLNS_8MapOrderE0EEEEEvSE_PT_iiii = comdat any

$_ZNK8gemmlowp22OutputPipelineEvalImplINSt3__15tupleIJNS_23OutputStageBiasAdditionINS_9VectorMapIKiLNS_11VectorShapeE0EEEEENS_44OutputStageScaleInt32ByFixedPointAndExponentENS_16OutputStageClampENS_32OutputStageSaturatingCastToInt16EEEELi1ENS_13RegisterBlockIiLi8ELi1EEELb0EE4EvalESE_ii = comdat any

$_ZNK8gemmlowp22OutputPipelineEvalImplINSt3__15tupleIJNS_23OutputStageBiasAdditionINS_9VectorMapIKiLNS_11VectorShapeE0EEEEENS_44OutputStageScaleInt32ByFixedPointAndExponentENS_16OutputStageClampENS_32OutputStageSaturatingCastToInt16EEEELi2ENS_13RegisterBlockIiLi8ELi1EEELb0EE4EvalESE_ii = comdat any

$_ZN8gemmlowp21GemmWithPackedRhsTaskINS_12KernelFormatINS_16KernelSideFormatINS_10CellFormatILi4ELi16ELNS_9CellOrderE1EEELi1EEES6_EEhsNS_14BitDepthParamsINS_12OperandRangeILi1ELi255EEENS9_ILi0ELi255EEEEELNS_8MapOrderE1ELSD_0ELSD_0ENS_9VectorDupIKiLNS_11VectorShapeE0EEENSE_ISF_LSG_1EEENSt3__15tupleIJNS_23OutputStageBiasAdditionINS_9VectorMapISF_LSG_0EEEEENS_44OutputStageScaleInt32ByFixedPointAndExponentENS_16OutputStageClampENS_32OutputStageSaturatingCastToInt16EEEENS_11GemmContextEED2Ev = comdat any

$_ZN8gemmlowp21GemmWithPackedRhsTaskINS_12KernelFormatINS_16KernelSideFormatINS_10CellFormatILi4ELi16ELNS_9CellOrderE1EEELi1EEES6_EEhsNS_14BitDepthParamsINS_12OperandRangeILi1ELi255EEENS9_ILi0ELi255EEEEELNS_8MapOrderE1ELSD_0ELSD_0ENS_9VectorDupIKiLNS_11VectorShapeE0EEENSE_ISF_LSG_1EEENSt3__15tupleIJNS_23OutputStageBiasAdditionINS_9VectorMapISF_LSG_0EEEEENS_44OutputStageScaleInt32ByFixedPointAndExponentENS_16OutputStageClampENS_32OutputStageSaturatingCastToInt16EEEENS_11GemmContextEED0Ev = comdat any

$_ZN8gemmlowp21GemmWithPackedRhsTaskINS_12KernelFormatINS_16KernelSideFormatINS_10CellFormatILi4ELi16ELNS_9CellOrderE1EEELi1EEES6_EEhsNS_14BitDepthParamsINS_12OperandRangeILi1ELi255EEENS9_ILi0ELi255EEEEELNS_8MapOrderE1ELSD_0ELSD_0ENS_9VectorDupIKiLNS_11VectorShapeE0EEENSE_ISF_LSG_1EEENSt3__15tupleIJNS_23OutputStageBiasAdditionINS_9VectorMapISF_LSG_0EEEEENS_44OutputStageScaleInt32ByFixedPointAndExponentENS_16OutputStageClampENS_32OutputStageSaturatingCastToInt16EEEENS_11GemmContextEE3RunEv = comdat any

$_ZN8gemmlowp17DispatchGemmShapeIhsNS_14BitDepthParamsINS_12OperandRangeILi1ELi255EEENS2_ILi0ELi255EEEEELNS_8MapOrderE1ELS6_0ELS6_0ENS_9VectorDupIKiLNS_11VectorShapeE0EEENS7_IS8_LS9_1EEENSt3__15tupleIJNS_44OutputStageScaleInt32ByFixedPointAndExponentENS_16OutputStageClampENS_32OutputStageSaturatingCastToInt16EEEENS_11GemmContextEEEvPT8_RKNS_9MatrixMapIKT_XT2_EEERKNSL_ISN_XT3_EEEPNSL_IT0_XT4_EEERKT5_RKT6_RKT7_ = comdat any

$_ZN8gemmlowp17DispatchGemmShapeIhsNS_14BitDepthParamsINS_12OperandRangeILi1ELi255EEENS2_ILi0ELi255EEEEELNS_8MapOrderE1ELS6_0ELS6_1ENS_9VectorDupIKiLNS_11VectorShapeE1EEENS7_IS8_LS9_0EEENSt3__15tupleIJNS_44OutputStageScaleInt32ByFixedPointAndExponentENS_16OutputStageClampENS_32OutputStageSaturatingCastToInt16EEEENS_11GemmContextEEEvPT8_RKNS_9MatrixMapIKT_XT2_EEERKNSL_ISN_XT3_EEEPNSL_IT0_XT4_EEERKT5_RKT6_RKT7_ = comdat any

$_ZN8gemmlowp15MultiThreadGemmINS_12KernelFormatINS_16KernelSideFormatINS_10CellFormatILi4ELi16ELNS_9CellOrderE1EEELi1EEES6_EEhsNS_14BitDepthParamsINS_12OperandRangeILi1ELi255EEENS9_ILi0ELi255EEEEELNS_8MapOrderE1ELSD_0ELSD_0ENS_9VectorDupIKiLNS_11VectorShapeE0EEENSE_ISF_LSG_1EEENSt3__15tupleIJNS_44OutputStageScaleInt32ByFixedPointAndExponentENS_16OutputStageClampENS_32OutputStageSaturatingCastToInt16EEEENS_11GemmContextEEEvPT9_RKNS_10KernelBaseERKNS_9MatrixMapIKT0_XT3_EEERKNSV_ISX_XT4_EEEPNSV_IT1_XT5_EEERKT6_RKT7_RKT8_ = comdat any

$_ZN8gemmlowp15MultiThreadGemmINS_12KernelFormatINS_16KernelSideFormatINS_10CellFormatILi4ELi16ELNS_9CellOrderE1EEELi1EEES6_EEhsNS_14BitDepthParamsINS_12OperandRangeILi1ELi255EEENS9_ILi0ELi255EEEEELNS_8MapOrderE1ELSD_0ELSD_1ENS_9VectorDupIKiLNS_11VectorShapeE1EEENSE_ISF_LSG_0EEENSt3__15tupleIJNS_44OutputStageScaleInt32ByFixedPointAndExponentENS_16OutputStageClampENS_32OutputStageSaturatingCastToInt16EEEENS_11GemmContextEEEvPT9_RKNS_10KernelBaseERKNS_9MatrixMapIKT0_XT3_EEERKNSV_ISX_XT4_EEEPNSV_IT1_XT5_EEERKT6_RKT7_RKT8_ = comdat any

$_ZN8gemmlowp16SingleThreadGemmINS_12KernelFormatINS_16KernelSideFormatINS_10CellFormatILi4ELi16ELNS_9CellOrderE1EEELi1EEES6_EEhsNS_14BitDepthParamsINS_12OperandRangeILi1ELi255EEENS9_ILi0ELi255EEEEELNS_8MapOrderE1ELSD_0ELSD_1ENS_9VectorDupIKiLNS_11VectorShapeE1EEENSE_ISF_LSG_0EEENSt3__15tupleIJNS_44OutputStageScaleInt32ByFixedPointAndExponentENS_16OutputStageClampENS_32OutputStageSaturatingCastToInt16EEEEEEvPNS_23SingleThreadGemmContextERKNS_10KernelBaseERKNS_9MatrixMapIKT0_XT3_EEERKNSU_ISW_XT4_EEEPNSU_IT1_XT5_EEERKT6_RKT7_RKT8_ = comdat any

$_ZN8gemmlowp12UnpackResultINS_12KernelFormatINS_16KernelSideFormatINS_10CellFormatILi4ELi16ELNS_9CellOrderE1EEELi1EEES6_EENS_9MatrixMapIsLNS_8MapOrderE1EEENS_12PackedResultENS_9VectorDupIKiLNS_11VectorShapeE1EEENSC_ISD_LSE_0EEENSt3__15tupleIJNS_44OutputStageScaleInt32ByFixedPointAndExponentENS_16OutputStageClampENS_32OutputStageSaturatingCastToInt16EEEEEEvPT0_RKNS_17MatrixBlockBoundsERKT1_iPSD_SV_RKT2_RKT3_RKT4_ = comdat any

$_ZN8gemmlowp17UnpackResultBlockINS_12KernelFormatINS_16KernelSideFormatINS_10CellFormatILi4ELi16ELNS_9CellOrderE1EEELi1EEES6_EENS_13RegisterBlockIiLi8ELi4EEENS_9MatrixMapIKiLNS_8MapOrderE0EEENS_9VectorDupISB_LNS_11VectorShapeE1EEENSE_ISB_LSF_0EEENS_22OutputPipelineExecutorINSt3__15tupleIJNS_44OutputStageScaleInt32ByFixedPointAndExponentENS_16OutputStageClampENS_32OutputStageSaturatingCastToInt16EEEES9_EENSA_IsLSC_0EEEEEvRKT1_RKT4_PT5_RKNS_9VectorMapISB_LSF_0EEERKNSZ_ISB_LSF_1EEERKT2_RKT3_iiiiiii = comdat any

$_ZN8gemmlowp17UnpackResultBlockINS_12KernelFormatINS_16KernelSideFormatINS_10CellFormatILi4ELi16ELNS_9CellOrderE1EEELi1EEES6_EENS_13RegisterBlockIiLi4ELi4EEENS_9MatrixMapIKiLNS_8MapOrderE0EEENS_9VectorDupISB_LNS_11VectorShapeE1EEENSE_ISB_LSF_0EEENS_22OutputPipelineExecutorINSt3__15tupleIJNS_44OutputStageScaleInt32ByFixedPointAndExponentENS_16OutputStageClampENS_32OutputStageSaturatingCastToInt16EEEES9_EENSA_IsLSC_1EEEEEvRKT1_RKT4_PT5_RKNS_9VectorMapISB_LSF_0EEERKNSZ_ISB_LSF_1EEERKT2_RKT3_iiiiiii = comdat any

$_ZN8gemmlowp17UnpackResultBlockINS_12KernelFormatINS_16KernelSideFormatINS_10CellFormatILi4ELi16ELNS_9CellOrderE1EEELi1EEES6_EENS_13RegisterBlockIiLi1ELi4EEENS_9MatrixMapIKiLNS_8MapOrderE0EEENS_9VectorDupISB_LNS_11VectorShapeE1EEENSE_ISB_LSF_0EEENS_22OutputPipelineExecutorINSt3__15tupleIJNS_44OutputStageScaleInt32ByFixedPointAndExponentENS_16OutputStageClampENS_32OutputStageSaturatingCastToInt16EEEES9_EENSA_IsLSC_1EEEEEvRKT1_RKT4_PT5_RKNS_9VectorMapISB_LSF_0EEERKNSZ_ISB_LSF_1EEERKT2_RKT3_iiiiiii = comdat any

$_ZN8gemmlowp17UnpackResultBlockINS_12KernelFormatINS_16KernelSideFormatINS_10CellFormatILi4ELi16ELNS_9CellOrderE1EEELi1EEES6_EENS_13RegisterBlockIiLi8ELi4EEENS_9MatrixMapIKiLNS_8MapOrderE0EEENS_9VectorDupISB_LNS_11VectorShapeE1EEENSE_ISB_LSF_0EEENS_22OutputPipelineExecutorINSt3__15tupleIJNS_44OutputStageScaleInt32ByFixedPointAndExponentENS_16OutputStageClampENS_32OutputStageSaturatingCastToInt16EEEES9_EENSA_IsLSC_1EEEEEvRKT1_RKT4_PT5_RKNS_9VectorMapISB_LSF_0EEERKNSZ_ISB_LSF_1EEERKT2_RKT3_iiiiiii = comdat any

$_ZN8gemmlowp17UnpackResultBlockINS_12KernelFormatINS_16KernelSideFormatINS_10CellFormatILi4ELi16ELNS_9CellOrderE1EEELi1EEES6_EENS_13RegisterBlockIiLi8ELi1EEENS_9MatrixMapIKiLNS_8MapOrderE0EEENS_9VectorDupISB_LNS_11VectorShapeE1EEENSE_ISB_LSF_0EEENS_22OutputPipelineExecutorINSt3__15tupleIJNS_44OutputStageScaleInt32ByFixedPointAndExponentENS_16OutputStageClampENS_32OutputStageSaturatingCastToInt16EEEES9_EENSA_IsLSC_1EEEEEvRKT1_RKT4_PT5_RKNS_9VectorMapISB_LSF_0EEERKNSZ_ISB_LSF_1EEERKT2_RKT3_iiiiiii = comdat any

$_ZN8gemmlowp17UnpackResultBlockINS_12KernelFormatINS_16KernelSideFormatINS_10CellFormatILi4ELi16ELNS_9CellOrderE1EEELi1EEES6_EENS_13RegisterBlockIiLi4ELi1EEENS_9MatrixMapIKiLNS_8MapOrderE0EEENS_9VectorDupISB_LNS_11VectorShapeE1EEENSE_ISB_LSF_0EEENS_22OutputPipelineExecutorINSt3__15tupleIJNS_44OutputStageScaleInt32ByFixedPointAndExponentENS_16OutputStageClampENS_32OutputStageSaturatingCastToInt16EEEES9_EENSA_IsLSC_1EEEEEvRKT1_RKT4_PT5_RKNS_9VectorMapISB_LSF_0EEERKNSZ_ISB_LSF_1EEERKT2_RKT3_iiiiiii = comdat any

$_ZNK8gemmlowp22OutputPipelineEvalImplINSt3__15tupleIJNS_44OutputStageScaleInt32ByFixedPointAndExponentENS_16OutputStageClampENS_32OutputStageSaturatingCastToInt16EEEELi0ENS_13RegisterBlockIiLi8ELi4EEELb0EE4EvalES8_ii = comdat any

$_ZNK8gemmlowp22OutputPipelineExecutorINSt3__15tupleIJNS_44OutputStageScaleInt32ByFixedPointAndExponentENS_16OutputStageClampENS_32OutputStageSaturatingCastToInt16EEEENS_13RegisterBlockIiLi4ELi4EEEE7ExecuteINS_9MatrixMapIsLNS_8MapOrderE1EEEEEvS8_PT_iiii = comdat any

$_ZNK8gemmlowp22OutputPipelineEvalImplINSt3__15tupleIJNS_44OutputStageScaleInt32ByFixedPointAndExponentENS_16OutputStageClampENS_32OutputStageSaturatingCastToInt16EEEELi1ENS_13RegisterBlockIiLi4ELi4EEELb0EE4EvalES8_ii = comdat any

$_ZNK8gemmlowp22OutputPipelineEvalImplINSt3__15tupleIJNS_44OutputStageScaleInt32ByFixedPointAndExponentENS_16OutputStageClampENS_32OutputStageSaturatingCastToInt16EEEELi0ENS_13RegisterBlockIiLi8ELi1EEELb0EE4EvalES8_ii = comdat any

$_ZNK8gemmlowp22OutputPipelineEvalImplINSt3__15tupleIJNS_44OutputStageScaleInt32ByFixedPointAndExponentENS_16OutputStageClampENS_32OutputStageSaturatingCastToInt16EEEELi1ENS_13RegisterBlockIiLi8ELi1EEELb0EE4EvalES8_ii = comdat any

$_ZN8gemmlowp21GemmWithPackedRhsTaskINS_12KernelFormatINS_16KernelSideFormatINS_10CellFormatILi4ELi16ELNS_9CellOrderE1EEELi1EEES6_EEhsNS_14BitDepthParamsINS_12OperandRangeILi1ELi255EEENS9_ILi0ELi255EEEEELNS_8MapOrderE1ELSD_0ELSD_1ENS_9VectorDupIKiLNS_11VectorShapeE1EEENSE_ISF_LSG_0EEENSt3__15tupleIJNS_44OutputStageScaleInt32ByFixedPointAndExponentENS_16OutputStageClampENS_32OutputStageSaturatingCastToInt16EEEENS_11GemmContextEED2Ev = comdat any

$_ZN8gemmlowp21GemmWithPackedRhsTaskINS_12KernelFormatINS_16KernelSideFormatINS_10CellFormatILi4ELi16ELNS_9CellOrderE1EEELi1EEES6_EEhsNS_14BitDepthParamsINS_12OperandRangeILi1ELi255EEENS9_ILi0ELi255EEEEELNS_8MapOrderE1ELSD_0ELSD_1ENS_9VectorDupIKiLNS_11VectorShapeE1EEENSE_ISF_LSG_0EEENSt3__15tupleIJNS_44OutputStageScaleInt32ByFixedPointAndExponentENS_16OutputStageClampENS_32OutputStageSaturatingCastToInt16EEEENS_11GemmContextEED0Ev = comdat any

$_ZN8gemmlowp21GemmWithPackedRhsTaskINS_12KernelFormatINS_16KernelSideFormatINS_10CellFormatILi4ELi16ELNS_9CellOrderE1EEELi1EEES6_EEhsNS_14BitDepthParamsINS_12OperandRangeILi1ELi255EEENS9_ILi0ELi255EEEEELNS_8MapOrderE1ELSD_0ELSD_1ENS_9VectorDupIKiLNS_11VectorShapeE1EEENSE_ISF_LSG_0EEENSt3__15tupleIJNS_44OutputStageScaleInt32ByFixedPointAndExponentENS_16OutputStageClampENS_32OutputStageSaturatingCastToInt16EEEENS_11GemmContextEE3RunEv = comdat any

$_ZN8gemmlowp16SingleThreadGemmINS_12KernelFormatINS_16KernelSideFormatINS_10CellFormatILi4ELi16ELNS_9CellOrderE1EEELi1EEES6_EEhsNS_14BitDepthParamsINS_12OperandRangeILi1ELi255EEENS9_ILi0ELi255EEEEELNS_8MapOrderE1ELSD_0ELSD_0ENS_9VectorDupIKiLNS_11VectorShapeE0EEENSE_ISF_LSG_1EEENSt3__15tupleIJNS_44OutputStageScaleInt32ByFixedPointAndExponentENS_16OutputStageClampENS_32OutputStageSaturatingCastToInt16EEEEEEvPNS_23SingleThreadGemmContextERKNS_10KernelBaseERKNS_9MatrixMapIKT0_XT3_EEERKNSU_ISW_XT4_EEEPNSU_IT1_XT5_EEERKT6_RKT7_RKT8_ = comdat any

$_ZN8gemmlowp12UnpackResultINS_12KernelFormatINS_16KernelSideFormatINS_10CellFormatILi4ELi16ELNS_9CellOrderE1EEELi1EEES6_EENS_9MatrixMapIsLNS_8MapOrderE0EEENS_12PackedResultENS_9VectorDupIKiLNS_11VectorShapeE0EEENSC_ISD_LSE_1EEENSt3__15tupleIJNS_44OutputStageScaleInt32ByFixedPointAndExponentENS_16OutputStageClampENS_32OutputStageSaturatingCastToInt16EEEEEEvPT0_RKNS_17MatrixBlockBoundsERKT1_iPSD_SV_RKT2_RKT3_RKT4_ = comdat any

$_ZN8gemmlowp17UnpackResultBlockINS_12KernelFormatINS_16KernelSideFormatINS_10CellFormatILi4ELi16ELNS_9CellOrderE1EEELi1EEES6_EENS_13RegisterBlockIiLi8ELi4EEENS_9MatrixMapIKiLNS_8MapOrderE0EEENS_9VectorDupISB_LNS_11VectorShapeE0EEENSE_ISB_LSF_1EEENS_22OutputPipelineExecutorINSt3__15tupleIJNS_44OutputStageScaleInt32ByFixedPointAndExponentENS_16OutputStageClampENS_32OutputStageSaturatingCastToInt16EEEES9_EENSA_IsLSC_0EEEEEvRKT1_RKT4_PT5_RKNS_9VectorMapISB_LSF_0EEERKNSZ_ISB_LSF_1EEERKT2_RKT3_iiiiiii = comdat any

$_ZN8gemmlowp17UnpackResultBlockINS_12KernelFormatINS_16KernelSideFormatINS_10CellFormatILi4ELi16ELNS_9CellOrderE1EEELi1EEES6_EENS_13RegisterBlockIiLi4ELi4EEENS_9MatrixMapIKiLNS_8MapOrderE0EEENS_9VectorDupISB_LNS_11VectorShapeE0EEENSE_ISB_LSF_1EEENS_22OutputPipelineExecutorINSt3__15tupleIJNS_44OutputStageScaleInt32ByFixedPointAndExponentENS_16OutputStageClampENS_32OutputStageSaturatingCastToInt16EEEES9_EENSA_IsLSC_0EEEEEvRKT1_RKT4_PT5_RKNS_9VectorMapISB_LSF_0EEERKNSZ_ISB_LSF_1EEERKT2_RKT3_iiiiiii = comdat any

$_ZN8gemmlowp17UnpackResultBlockINS_12KernelFormatINS_16KernelSideFormatINS_10CellFormatILi4ELi16ELNS_9CellOrderE1EEELi1EEES6_EENS_13RegisterBlockIiLi1ELi4EEENS_9MatrixMapIKiLNS_8MapOrderE0EEENS_9VectorDupISB_LNS_11VectorShapeE0EEENSE_ISB_LSF_1EEENS_22OutputPipelineExecutorINSt3__15tupleIJNS_44OutputStageScaleInt32ByFixedPointAndExponentENS_16OutputStageClampENS_32OutputStageSaturatingCastToInt16EEEES9_EENSA_IsLSC_0EEEEEvRKT1_RKT4_PT5_RKNS_9VectorMapISB_LSF_0EEERKNSZ_ISB_LSF_1EEERKT2_RKT3_iiiiiii = comdat any

$_ZN8gemmlowp17UnpackResultBlockINS_12KernelFormatINS_16KernelSideFormatINS_10CellFormatILi4ELi16ELNS_9CellOrderE1EEELi1EEES6_EENS_13RegisterBlockIiLi8ELi1EEENS_9MatrixMapIKiLNS_8MapOrderE0EEENS_9VectorDupISB_LNS_11VectorShapeE0EEENSE_ISB_LSF_1EEENS_22OutputPipelineExecutorINSt3__15tupleIJNS_44OutputStageScaleInt32ByFixedPointAndExponentENS_16OutputStageClampENS_32OutputStageSaturatingCastToInt16EEEES9_EENSA_IsLSC_0EEEEEvRKT1_RKT4_PT5_RKNS_9VectorMapISB_LSF_0EEERKNSZ_ISB_LSF_1EEERKT2_RKT3_iiiiiii = comdat any

$_ZN8gemmlowp17UnpackResultBlockINS_12KernelFormatINS_16KernelSideFormatINS_10CellFormatILi4ELi16ELNS_9CellOrderE1EEELi1EEES6_EENS_13RegisterBlockIiLi4ELi1EEENS_9MatrixMapIKiLNS_8MapOrderE0EEENS_9VectorDupISB_LNS_11VectorShapeE0EEENSE_ISB_LSF_1EEENS_22OutputPipelineExecutorINSt3__15tupleIJNS_44OutputStageScaleInt32ByFixedPointAndExponentENS_16OutputStageClampENS_32OutputStageSaturatingCastToInt16EEEES9_EENSA_IsLSC_0EEEEEvRKT1_RKT4_PT5_RKNS_9VectorMapISB_LSF_0EEERKNSZ_ISB_LSF_1EEERKT2_RKT3_iiiiiii = comdat any

$_ZNK8gemmlowp22OutputPipelineExecutorINSt3__15tupleIJNS_44OutputStageScaleInt32ByFixedPointAndExponentENS_16OutputStageClampENS_32OutputStageSaturatingCastToInt16EEEENS_13RegisterBlockIiLi4ELi4EEEE7ExecuteINS_9MatrixMapIsLNS_8MapOrderE0EEEEEvS8_PT_iiii = comdat any

$_ZN8gemmlowp21GemmWithPackedRhsTaskINS_12KernelFormatINS_16KernelSideFormatINS_10CellFormatILi4ELi16ELNS_9CellOrderE1EEELi1EEES6_EEhsNS_14BitDepthParamsINS_12OperandRangeILi1ELi255EEENS9_ILi0ELi255EEEEELNS_8MapOrderE1ELSD_0ELSD_0ENS_9VectorDupIKiLNS_11VectorShapeE0EEENSE_ISF_LSG_1EEENSt3__15tupleIJNS_44OutputStageScaleInt32ByFixedPointAndExponentENS_16OutputStageClampENS_32OutputStageSaturatingCastToInt16EEEENS_11GemmContextEED2Ev = comdat any

$_ZN8gemmlowp21GemmWithPackedRhsTaskINS_12KernelFormatINS_16KernelSideFormatINS_10CellFormatILi4ELi16ELNS_9CellOrderE1EEELi1EEES6_EEhsNS_14BitDepthParamsINS_12OperandRangeILi1ELi255EEENS9_ILi0ELi255EEEEELNS_8MapOrderE1ELSD_0ELSD_0ENS_9VectorDupIKiLNS_11VectorShapeE0EEENSE_ISF_LSG_1EEENSt3__15tupleIJNS_44OutputStageScaleInt32ByFixedPointAndExponentENS_16OutputStageClampENS_32OutputStageSaturatingCastToInt16EEEENS_11GemmContextEED0Ev = comdat any

$_ZN8gemmlowp21GemmWithPackedRhsTaskINS_12KernelFormatINS_16KernelSideFormatINS_10CellFormatILi4ELi16ELNS_9CellOrderE1EEELi1EEES6_EEhsNS_14BitDepthParamsINS_12OperandRangeILi1ELi255EEENS9_ILi0ELi255EEEEELNS_8MapOrderE1ELSD_0ELSD_0ENS_9VectorDupIKiLNS_11VectorShapeE0EEENSE_ISF_LSG_1EEENSt3__15tupleIJNS_44OutputStageScaleInt32ByFixedPointAndExponentENS_16OutputStageClampENS_32OutputStageSaturatingCastToInt16EEEENS_11GemmContextEE3RunEv = comdat any

$_ZN6tflite3ops7builtin15fully_connected21EvalShuffledQuantizedILNS2_10KernelTypeE2EEE12TfLiteStatusP13TfLiteContextP10TfLiteNodeP26TfLiteFullyConnectedParamsPNS2_6OpDataEPK12TfLiteTensorSG_SG_PSE_SH_ = comdat any

$_ZN6tflite3ops7builtin15fully_connected13EvalQuantizedILNS2_10KernelTypeE2EEE12TfLiteStatusP13TfLiteContextP10TfLiteNodeP26TfLiteFullyConnectedParamsPNS2_6OpDataEPK12TfLiteTensorSG_SG_PSE_ = comdat any

$_ZTVN6tflite13optimized_ops33FullyConnectedSparseWeight1x4TaskE = comdat any

$_ZTVN8gemmlowp4TaskE = comdat any

$_ZTVN6tflite13optimized_ops32ShuffledFullyConnectedWorkerTaskE = comdat any

$_ZZN8gemmlowp22GetHardwareConcurrencyEiE22hardware_threads_count = comdat any

$_ZGVZN8gemmlowp22GetHardwareConcurrencyEiE22hardware_threads_count = comdat any

$_ZTVN8gemmlowp21GemmWithPackedRhsTaskINS_12KernelFormatINS_16KernelSideFormatINS_10CellFormatILi4ELi16ELNS_9CellOrderE1EEELi1EEES6_EEhhNS_14BitDepthParamsINS_12OperandRangeILi1ELi255EEENS9_ILi0ELi255EEEEELNS_8MapOrderE1ELSD_0ELSD_1ENS_9VectorDupIKiLNS_11VectorShapeE1EEENSE_ISF_LSG_0EEENSt3__15tupleIJNS_23OutputStageBiasAdditionINS_9VectorMapISF_LSG_1EEEEENS_44OutputStageScaleInt32ByFixedPointAndExponentENS_16OutputStageClampENS_32OutputStageSaturatingCastToUint8EEEENS_11GemmContextEEE = comdat any

$_ZTVN8gemmlowp21GemmWithPackedRhsTaskINS_12KernelFormatINS_16KernelSideFormatINS_10CellFormatILi4ELi16ELNS_9CellOrderE1EEELi1EEES6_EEhhNS_14BitDepthParamsINS_12OperandRangeILi1ELi255EEENS9_ILi0ELi255EEEEELNS_8MapOrderE1ELSD_0ELSD_0ENS_9VectorDupIKiLNS_11VectorShapeE0EEENSE_ISF_LSG_1EEENSt3__15tupleIJNS_23OutputStageBiasAdditionINS_9VectorMapISF_LSG_0EEEEENS_44OutputStageScaleInt32ByFixedPointAndExponentENS_16OutputStageClampENS_32OutputStageSaturatingCastToUint8EEEENS_11GemmContextEEE = comdat any

$_ZTVN8gemmlowp13DefaultKernelINS_14BitDepthParamsINS_12OperandRangeILi1ELi255EEENS2_ILi0ELi255EEEEEEE = comdat any

$_ZZNK8gemmlowp15ReferenceKernelINS_12KernelFormatINS_16KernelSideFormatINS_10CellFormatILi4ELi16ELNS_9CellOrderE1EEELi1EEES6_EEE4NameEvE3buf = comdat any

$_ZTVN8gemmlowp21GemmWithPackedRhsTaskINS_12KernelFormatINS_16KernelSideFormatINS_10CellFormatILi4ELi16ELNS_9CellOrderE1EEELi1EEES6_EEhhNS_14BitDepthParamsINS_12OperandRangeILi1ELi255EEENS9_ILi0ELi255EEEEELNS_8MapOrderE1ELSD_0ELSD_1ENS_9VectorDupIKiLNS_11VectorShapeE1EEENSE_ISF_LSG_0EEENSt3__15tupleIJNS_44OutputStageScaleInt32ByFixedPointAndExponentENS_16OutputStageClampENS_32OutputStageSaturatingCastToUint8EEEENS_11GemmContextEEE = comdat any

$_ZTVN8gemmlowp21GemmWithPackedRhsTaskINS_12KernelFormatINS_16KernelSideFormatINS_10CellFormatILi4ELi16ELNS_9CellOrderE1EEELi1EEES6_EEhhNS_14BitDepthParamsINS_12OperandRangeILi1ELi255EEENS9_ILi0ELi255EEEEELNS_8MapOrderE1ELSD_0ELSD_0ENS_9VectorDupIKiLNS_11VectorShapeE0EEENSE_ISF_LSG_1EEENSt3__15tupleIJNS_44OutputStageScaleInt32ByFixedPointAndExponentENS_16OutputStageClampENS_32OutputStageSaturatingCastToUint8EEEENS_11GemmContextEEE = comdat any

$_ZTVN8gemmlowp21GemmWithPackedRhsTaskINS_12KernelFormatINS_16KernelSideFormatINS_10CellFormatILi4ELi16ELNS_9CellOrderE1EEELi1EEES6_EEhsNS_14BitDepthParamsINS_12OperandRangeILi1ELi255EEENS9_ILi0ELi255EEEEELNS_8MapOrderE1ELSD_0ELSD_1ENS_9VectorDupIKiLNS_11VectorShapeE1EEENSE_ISF_LSG_0EEENSt3__15tupleIJNS_23OutputStageBiasAdditionINS_9VectorMapISF_LSG_1EEEEENS_44OutputStageScaleInt32ByFixedPointAndExponentENS_16OutputStageClampENS_32OutputStageSaturatingCastToInt16EEEENS_11GemmContextEEE = comdat any

$_ZTVN8gemmlowp21GemmWithPackedRhsTaskINS_12KernelFormatINS_16KernelSideFormatINS_10CellFormatILi4ELi16ELNS_9CellOrderE1EEELi1EEES6_EEhsNS_14BitDepthParamsINS_12OperandRangeILi1ELi255EEENS9_ILi0ELi255EEEEELNS_8MapOrderE1ELSD_0ELSD_0ENS_9VectorDupIKiLNS_11VectorShapeE0EEENSE_ISF_LSG_1EEENSt3__15tupleIJNS_23OutputStageBiasAdditionINS_9VectorMapISF_LSG_0EEEEENS_44OutputStageScaleInt32ByFixedPointAndExponentENS_16OutputStageClampENS_32OutputStageSaturatingCastToInt16EEEENS_11GemmContextEEE = comdat any

$_ZTVN8gemmlowp21GemmWithPackedRhsTaskINS_12KernelFormatINS_16KernelSideFormatINS_10CellFormatILi4ELi16ELNS_9CellOrderE1EEELi1EEES6_EEhsNS_14BitDepthParamsINS_12OperandRangeILi1ELi255EEENS9_ILi0ELi255EEEEELNS_8MapOrderE1ELSD_0ELSD_1ENS_9VectorDupIKiLNS_11VectorShapeE1EEENSE_ISF_LSG_0EEENSt3__15tupleIJNS_44OutputStageScaleInt32ByFixedPointAndExponentENS_16OutputStageClampENS_32OutputStageSaturatingCastToInt16EEEENS_11GemmContextEEE = comdat any

$_ZTVN8gemmlowp21GemmWithPackedRhsTaskINS_12KernelFormatINS_16KernelSideFormatINS_10CellFormatILi4ELi16ELNS_9CellOrderE1EEELi1EEES6_EEhsNS_14BitDepthParamsINS_12OperandRangeILi1ELi255EEENS9_ILi0ELi255EEEEELNS_8MapOrderE1ELSD_0ELSD_0ENS_9VectorDupIKiLNS_11VectorShapeE0EEENSE_ISF_LSG_1EEENSt3__15tupleIJNS_44OutputStageScaleInt32ByFixedPointAndExponentENS_16OutputStageClampENS_32OutputStageSaturatingCastToInt16EEEENS_11GemmContextEEE = comdat any

@.str = private unnamed_addr constant [23 x i8] c"%s:%d %s was not true.\00", align 1
@.str.3 = private unnamed_addr constant [72 x i8] c"../../third_party/tflite/src/tensorflow/lite/kernels/fully_connected.cc\00", align 1
@.str.4 = private unnamed_addr constant [51 x i8] c"node->inputs->size == 2 || node->inputs->size == 3\00", align 1
@.str.5 = private unnamed_addr constant [26 x i8] c"%s:%d %s != %s (%d != %d)\00", align 1
@.str.6 = private unnamed_addr constant [20 x i8] c"node->outputs->size\00", align 1
@.str.7 = private unnamed_addr constant [23 x i8] c"expected_outputs_count\00", align 1
@.str.8 = private unnamed_addr constant [22 x i8] c"NumDimensions(filter)\00", align 1
@.str.9 = private unnamed_addr constant [2 x i8] c"2\00", align 1
@.str.10 = private unnamed_addr constant [18 x i8] c"NumElements(bias)\00", align 1
@.str.11 = private unnamed_addr constant [27 x i8] c"SizeOfDimension(filter, 0)\00", align 1
@.str.12 = private unnamed_addr constant [25 x i8] c"input->params.zero_point\00", align 1
@.str.13 = private unnamed_addr constant [2 x i8] c"0\00", align 1
@.str.14 = private unnamed_addr constant [26 x i8] c"output->params.zero_point\00", align 1
@.str.15 = private unnamed_addr constant [41 x i8] c"input->dims->data[input->dims->size - 1]\00", align 1
@.str.16 = private unnamed_addr constant [27 x i8] c"SizeOfDimension(filter, 1)\00", align 1
@_ZZN6tflite3ops7builtin28Register_FULLY_CONNECTED_REFEvE1r = internal global { i8* (%struct.TfLiteContext*, i8*, i64)*, void (%struct.TfLiteContext*, i8*)*, i32 (%struct.TfLiteContext*, %struct.TfLiteNode*)*, i32 (%struct.TfLiteContext*, %struct.TfLiteNode*)*, i8* (%struct.TfLiteContext*, %struct.TfLiteNode*)*, i32, i8*, i32 } { i8* (%struct.TfLiteContext*, i8*, i64)* @_ZN6tflite3ops7builtin15fully_connected4InitEP13TfLiteContextPKcm, void (%struct.TfLiteContext*, i8*)* @_ZN6tflite3ops7builtin15fully_connected4FreeEP13TfLiteContextPv, i32 (%struct.TfLiteContext*, %struct.TfLiteNode*)* @_ZN6tflite3ops7builtin15fully_connected7PrepareILNS2_10KernelTypeE0EEE12TfLiteStatusP13TfLiteContextP10TfLiteNode, i32 (%struct.TfLiteContext*, %struct.TfLiteNode*)* @_ZN6tflite3ops7builtin15fully_connected4EvalILNS2_10KernelTypeE0EEE12TfLiteStatusP13TfLiteContextP10TfLiteNode, i8* (%struct.TfLiteContext*, %struct.TfLiteNode*)* null, i32 0, i8* null, i32 0 }, align 8
@_ZZN6tflite3ops7builtin36Register_FULLY_CONNECTED_GENERIC_OPTEvE1r = internal global { i8* (%struct.TfLiteContext*, i8*, i64)*, void (%struct.TfLiteContext*, i8*)*, i32 (%struct.TfLiteContext*, %struct.TfLiteNode*)*, i32 (%struct.TfLiteContext*, %struct.TfLiteNode*)*, i8* (%struct.TfLiteContext*, %struct.TfLiteNode*)*, i32, i8*, i32 } { i8* (%struct.TfLiteContext*, i8*, i64)* @_ZN6tflite3ops7builtin15fully_connected4InitEP13TfLiteContextPKcm, void (%struct.TfLiteContext*, i8*)* @_ZN6tflite3ops7builtin15fully_connected4FreeEP13TfLiteContextPv, i32 (%struct.TfLiteContext*, %struct.TfLiteNode*)* @_ZN6tflite3ops7builtin15fully_connected7PrepareILNS2_10KernelTypeE1EEE12TfLiteStatusP13TfLiteContextP10TfLiteNode, i32 (%struct.TfLiteContext*, %struct.TfLiteNode*)* @_ZN6tflite3ops7builtin15fully_connected4EvalILNS2_10KernelTypeE1EEE12TfLiteStatusP13TfLiteContextP10TfLiteNode, i8* (%struct.TfLiteContext*, %struct.TfLiteNode*)* null, i32 0, i8* null, i32 0 }, align 8
@_ZZN6tflite3ops7builtin28Register_FULLY_CONNECTED_PIEEvE1r = internal global { i8* (%struct.TfLiteContext*, i8*, i64)*, void (%struct.TfLiteContext*, i8*)*, i32 (%struct.TfLiteContext*, %struct.TfLiteNode*)*, i32 (%struct.TfLiteContext*, %struct.TfLiteNode*)*, i8* (%struct.TfLiteContext*, %struct.TfLiteNode*)*, i32, i8*, i32 } { i8* (%struct.TfLiteContext*, i8*, i64)* @_ZN6tflite3ops7builtin15fully_connected4InitEP13TfLiteContextPKcm, void (%struct.TfLiteContext*, i8*)* @_ZN6tflite3ops7builtin15fully_connected4FreeEP13TfLiteContextPv, i32 (%struct.TfLiteContext*, %struct.TfLiteNode*)* @_ZN6tflite3ops7builtin15fully_connected7PrepareILNS2_10KernelTypeE2EEE12TfLiteStatusP13TfLiteContextP10TfLiteNode, i32 (%struct.TfLiteContext*, %struct.TfLiteNode*)* @_ZN6tflite3ops7builtin15fully_connected4EvalILNS2_10KernelTypeE2EEE12TfLiteStatusP13TfLiteContextP10TfLiteNode, i8* (%struct.TfLiteContext*, %struct.TfLiteNode*)* null, i32 0, i8* null, i32 0 }, align 8
@.str.18 = private unnamed_addr constant [26 x i8] c"%s:%d %s != %s (%s != %s)\00", align 1
@.str.19 = private unnamed_addr constant [12 x i8] c"input->type\00", align 1
@.str.20 = private unnamed_addr constant [13 x i8] c"kTfLiteUInt8\00", align 1
@.str.21 = private unnamed_addr constant [13 x i8] c"filter->type\00", align 1
@.str.22 = private unnamed_addr constant [13 x i8] c"output->type\00", align 1
@.str.23 = private unnamed_addr constant [13 x i8] c"kTfLiteInt16\00", align 1
@.str.24 = private unnamed_addr constant [21 x i8] c"is_optional_bias_int\00", align 1
@.str.25 = private unnamed_addr constant [5 x i8] c"true\00", align 1
@.str.26 = private unnamed_addr constant [15 x i8] c"kTfLiteFloat32\00", align 1
@.str.27 = private unnamed_addr constant [23 x i8] c"is_optional_bias_float\00", align 1
@.str.28 = private unnamed_addr constant [89 x i8] c"input->type == kTfLiteUInt8 || input->type == kTfLiteInt8 || input->type == kTfLiteInt16\00", align 1
@.str.29 = private unnamed_addr constant [92 x i8] c"output->type == kTfLiteUInt8 || output->type == kTfLiteInt8 || output->type == kTfLiteInt16\00", align 1
@.str.30 = private unnamed_addr constant [163 x i8] c"params->activation == kTfLiteActNone || params->activation == kTfLiteActRelu || params->activation == kTfLiteActReluN1To1 || params->activation == kTfLiteActRelu6\00", align 1
@.str.31 = private unnamed_addr constant [41 x i8] c"Unhandled fully-connected weights format\00", align 1
@.str.32 = private unnamed_addr constant [45 x i8] c"Filter data type %s currently not supported.\00", align 1
@.str.34 = private unnamed_addr constant [21 x i8] c"Unexpected data type\00", align 1
@.str.35 = private unnamed_addr constant [71 x i8] c"Quantized FullyConnected expects output data type uint8, int8 or int16\00", align 1
@.str.36 = private unnamed_addr constant [50 x i8] c"Unsupported sparse fully-connected weight format.\00", align 1
@_ZTVN6tflite13optimized_ops33FullyConnectedSparseWeight1x4TaskE = linkonce_odr hidden unnamed_addr constant { [5 x i8*] } { [5 x i8*] [i8* null, i8* null, i8* bitcast (void (%"struct.gemmlowp::Task"*)* @_ZN8gemmlowp4TaskD2Ev to i8*), i8* bitcast (void (%"struct.tflite::optimized_ops::FullyConnectedSparseWeight1x4Task"*)* @_ZN6tflite13optimized_ops33FullyConnectedSparseWeight1x4TaskD0Ev to i8*), i8* bitcast (void (%"struct.tflite::optimized_ops::FullyConnectedSparseWeight1x4Task"*)* @_ZN6tflite13optimized_ops33FullyConnectedSparseWeight1x4Task3RunEv to i8*)] }, comdat, align 8
@_ZTVN8gemmlowp4TaskE = linkonce_odr hidden unnamed_addr constant { [5 x i8*] } { [5 x i8*] [i8* null, i8* null, i8* bitcast (void (%"struct.gemmlowp::Task"*)* @_ZN8gemmlowp4TaskD2Ev to i8*), i8* bitcast (void (%"struct.gemmlowp::Task"*)* @_ZN8gemmlowp4TaskD0Ev to i8*), i8* bitcast (void ()* @__cxa_pure_virtual to i8*)] }, comdat, align 8
@_ZZN3ruy8PackImplILNS_4PathE16ENS_17FixedKernelLayoutILNS_5OrderE1ELi1ELi16EEEfffE3RunENS_6TuningERKNS_3MatIfEEPNS_4PMatIfEEiiE7zerobuf = internal constant [16 x float] zeroinitializer, align 16
@__const._ZNK3ruy6KernelILNS_4PathE16EfffNS_9MulParamsIffEEE3RunERKNS_4PMatIfEES8_RKS3_iiiiPNS_3MatIfEE.params = private unnamed_addr constant %"struct.ruy::KernelParamsFloat" <{ float* inttoptr (i64 -6148914691236517206 to float*), float* inttoptr (i64 -6148914691236517206 to float*), float* inttoptr (i64 -6148914691236517206 to float*), float* inttoptr (i64 -6148914691236517206 to float*), i32 -1431655766, i32 -1431655766, i32 -1431655766, i32 -1431655766, i32 -1431655766, i32 -1431655766, i32 -1431655766, i32 -1431655766, i32 -1431655766, i32 -1431655766, float 0xFFFFFFFFE0000000, float 0xFFFFFFFFE0000000, i8 -86, [3 x i8] c"\AA\AA\AA", [16 x float] [float 0xFFFFFFFFE0000000, float 0xFFFFFFFFE0000000, float 0xFFFFFFFFE0000000, float 0xFFFFFFFFE0000000, float 0xFFFFFFFFE0000000, float 0xFFFFFFFFE0000000, float 0xFFFFFFFFE0000000, float 0xFFFFFFFFE0000000, float 0xFFFFFFFFE0000000, float 0xFFFFFFFFE0000000, float 0xFFFFFFFFE0000000, float 0xFFFFFFFFE0000000, float 0xFFFFFFFFE0000000, float 0xFFFFFFFFE0000000, float 0xFFFFFFFFE0000000, float 0xFFFFFFFFE0000000], [256 x float] [float 0xFFFFFFFFE0000000, float 0xFFFFFFFFE0000000, float 0xFFFFFFFFE0000000, float 0xFFFFFFFFE0000000, float 0xFFFFFFFFE0000000, float 0xFFFFFFFFE0000000, float 0xFFFFFFFFE0000000, float 0xFFFFFFFFE0000000, float 0xFFFFFFFFE0000000, float 0xFFFFFFFFE0000000, float 0xFFFFFFFFE0000000, float 0xFFFFFFFFE0000000, float 0xFFFFFFFFE0000000, float 0xFFFFFFFFE0000000, float 0xFFFFFFFFE0000000, float 0xFFFFFFFFE0000000, float 0xFFFFFFFFE0000000, float 0xFFFFFFFFE0000000, float 0xFFFFFFFFE0000000, float 0xFFFFFFFFE0000000, float 0xFFFFFFFFE0000000, float 0xFFFFFFFFE0000000, float 0xFFFFFFFFE0000000, float 0xFFFFFFFFE0000000, float 0xFFFFFFFFE0000000, float 0xFFFFFFFFE0000000, float 0xFFFFFFFFE0000000, float 0xFFFFFFFFE0000000, float 0xFFFFFFFFE0000000, float 0xFFFFFFFFE0000000, float 0xFFFFFFFFE0000000, float 0xFFFFFFFFE0000000, float 0xFFFFFFFFE0000000, float 0xFFFFFFFFE0000000, float 0xFFFFFFFFE0000000, float 0xFFFFFFFFE0000000, float 0xFFFFFFFFE0000000, float 0xFFFFFFFFE0000000, float 0xFFFFFFFFE0000000, float 0xFFFFFFFFE0000000, float 0xFFFFFFFFE0000000, float 0xFFFFFFFFE0000000, float 0xFFFFFFFFE0000000, float 0xFFFFFFFFE0000000, float 0xFFFFFFFFE0000000, float 0xFFFFFFFFE0000000, float 0xFFFFFFFFE0000000, float 0xFFFFFFFFE0000000, float 0xFFFFFFFFE0000000, float 0xFFFFFFFFE0000000, float 0xFFFFFFFFE0000000, float 0xFFFFFFFFE0000000, float 0xFFFFFFFFE0000000, float 0xFFFFFFFFE0000000, float 0xFFFFFFFFE0000000, float 0xFFFFFFFFE0000000, float 0xFFFFFFFFE0000000, float 0xFFFFFFFFE0000000, float 0xFFFFFFFFE0000000, float 0xFFFFFFFFE0000000, float 0xFFFFFFFFE0000000, float 0xFFFFFFFFE0000000, float 0xFFFFFFFFE0000000, float 0xFFFFFFFFE0000000, float 0xFFFFFFFFE0000000, float 0xFFFFFFFFE0000000, float 0xFFFFFFFFE0000000, float 0xFFFFFFFFE0000000, float 0xFFFFFFFFE0000000, float 0xFFFFFFFFE0000000, float 0xFFFFFFFFE0000000, float 0xFFFFFFFFE0000000, float 0xFFFFFFFFE0000000, float 0xFFFFFFFFE0000000, float 0xFFFFFFFFE0000000, float 0xFFFFFFFFE0000000, float 0xFFFFFFFFE0000000, float 0xFFFFFFFFE0000000, float 0xFFFFFFFFE0000000, float 0xFFFFFFFFE0000000, float 0xFFFFFFFFE0000000, float 0xFFFFFFFFE0000000, float 0xFFFFFFFFE0000000, float 0xFFFFFFFFE0000000, float 0xFFFFFFFFE0000000, float 0xFFFFFFFFE0000000, float 0xFFFFFFFFE0000000, float 0xFFFFFFFFE0000000, float 0xFFFFFFFFE0000000, float 0xFFFFFFFFE0000000, float 0xFFFFFFFFE0000000, float 0xFFFFFFFFE0000000, float 0xFFFFFFFFE0000000, float 0xFFFFFFFFE0000000, float 0xFFFFFFFFE0000000, float 0xFFFFFFFFE0000000, float 0xFFFFFFFFE0000000, float 0xFFFFFFFFE0000000, float 0xFFFFFFFFE0000000, float 0xFFFFFFFFE0000000, float 0xFFFFFFFFE0000000, float 0xFFFFFFFFE0000000, float 0xFFFFFFFFE0000000, float 0xFFFFFFFFE0000000, float 0xFFFFFFFFE0000000, float 0xFFFFFFFFE0000000, float 0xFFFFFFFFE0000000, float 0xFFFFFFFFE0000000, float 0xFFFFFFFFE0000000, float 0xFFFFFFFFE0000000, float 0xFFFFFFFFE0000000, float 0xFFFFFFFFE0000000, float 0xFFFFFFFFE0000000, float 0xFFFFFFFFE0000000, float 0xFFFFFFFFE0000000, float 0xFFFFFFFFE0000000, float 0xFFFFFFFFE0000000, float 0xFFFFFFFFE0000000, float 0xFFFFFFFFE0000000, float 0xFFFFFFFFE0000000, float 0xFFFFFFFFE0000000, float 0xFFFFFFFFE0000000, float 0xFFFFFFFFE0000000, float 0xFFFFFFFFE0000000, float 0xFFFFFFFFE0000000, float 0xFFFFFFFFE0000000, float 0xFFFFFFFFE0000000, float 0xFFFFFFFFE0000000, float 0xFFFFFFFFE0000000, float 0xFFFFFFFFE0000000, float 0xFFFFFFFFE0000000, float 0xFFFFFFFFE0000000, float 0xFFFFFFFFE0000000, float 0xFFFFFFFFE0000000, float 0xFFFFFFFFE0000000, float 0xFFFFFFFFE0000000, float 0xFFFFFFFFE0000000, float 0xFFFFFFFFE0000000, float 0xFFFFFFFFE0000000, float 0xFFFFFFFFE0000000, float 0xFFFFFFFFE0000000, float 0xFFFFFFFFE0000000, float 0xFFFFFFFFE0000000, float 0xFFFFFFFFE0000000, float 0xFFFFFFFFE0000000, float 0xFFFFFFFFE0000000, float 0xFFFFFFFFE0000000, float 0xFFFFFFFFE0000000, float 0xFFFFFFFFE0000000, float 0xFFFFFFFFE0000000, float 0xFFFFFFFFE0000000, float 0xFFFFFFFFE0000000, float 0xFFFFFFFFE0000000, float 0xFFFFFFFFE0000000, float 0xFFFFFFFFE0000000, float 0xFFFFFFFFE0000000, float 0xFFFFFFFFE0000000, float 0xFFFFFFFFE0000000, float 0xFFFFFFFFE0000000, float 0xFFFFFFFFE0000000, float 0xFFFFFFFFE0000000, float 0xFFFFFFFFE0000000, float 0xFFFFFFFFE0000000, float 0xFFFFFFFFE0000000, float 0xFFFFFFFFE0000000, float 0xFFFFFFFFE0000000, float 0xFFFFFFFFE0000000, float 0xFFFFFFFFE0000000, float 0xFFFFFFFFE0000000, float 0xFFFFFFFFE0000000, float 0xFFFFFFFFE0000000, float 0xFFFFFFFFE0000000, float 0xFFFFFFFFE0000000, float 0xFFFFFFFFE0000000, float 0xFFFFFFFFE0000000, float 0xFFFFFFFFE0000000, float 0xFFFFFFFFE0000000, float 0xFFFFFFFFE0000000, float 0xFFFFFFFFE0000000, float 0xFFFFFFFFE0000000, float 0xFFFFFFFFE0000000, float 0xFFFFFFFFE0000000, float 0xFFFFFFFFE0000000, float 0xFFFFFFFFE0000000, float 0xFFFFFFFFE0000000, float 0xFFFFFFFFE0000000, float 0xFFFFFFFFE0000000, float 0xFFFFFFFFE0000000, float 0xFFFFFFFFE0000000, float 0xFFFFFFFFE0000000, float 0xFFFFFFFFE0000000, float 0xFFFFFFFFE0000000, float 0xFFFFFFFFE0000000, float 0xFFFFFFFFE0000000, float 0xFFFFFFFFE0000000, float 0xFFFFFFFFE0000000, float 0xFFFFFFFFE0000000, float 0xFFFFFFFFE0000000, float 0xFFFFFFFFE0000000, float 0xFFFFFFFFE0000000, float 0xFFFFFFFFE0000000, float 0xFFFFFFFFE0000000, float 0xFFFFFFFFE0000000, float 0xFFFFFFFFE0000000, float 0xFFFFFFFFE0000000, float 0xFFFFFFFFE0000000, float 0xFFFFFFFFE0000000, float 0xFFFFFFFFE0000000, float 0xFFFFFFFFE0000000, float 0xFFFFFFFFE0000000, float 0xFFFFFFFFE0000000, float 0xFFFFFFFFE0000000, float 0xFFFFFFFFE0000000, float 0xFFFFFFFFE0000000, float 0xFFFFFFFFE0000000, float 0xFFFFFFFFE0000000, float 0xFFFFFFFFE0000000, float 0xFFFFFFFFE0000000, float 0xFFFFFFFFE0000000, float 0xFFFFFFFFE0000000, float 0xFFFFFFFFE0000000, float 0xFFFFFFFFE0000000, float 0xFFFFFFFFE0000000, float 0xFFFFFFFFE0000000, float 0xFFFFFFFFE0000000, float 0xFFFFFFFFE0000000, float 0xFFFFFFFFE0000000, float 0xFFFFFFFFE0000000, float 0xFFFFFFFFE0000000, float 0xFFFFFFFFE0000000, float 0xFFFFFFFFE0000000, float 0xFFFFFFFFE0000000, float 0xFFFFFFFFE0000000, float 0xFFFFFFFFE0000000, float 0xFFFFFFFFE0000000, float 0xFFFFFFFFE0000000, float 0xFFFFFFFFE0000000, float 0xFFFFFFFFE0000000, float 0xFFFFFFFFE0000000, float 0xFFFFFFFFE0000000, float 0xFFFFFFFFE0000000, float 0xFFFFFFFFE0000000, float 0xFFFFFFFFE0000000, float 0xFFFFFFFFE0000000, float 0xFFFFFFFFE0000000, float 0xFFFFFFFFE0000000, float 0xFFFFFFFFE0000000, float 0xFFFFFFFFE0000000, float 0xFFFFFFFFE0000000, float 0xFFFFFFFFE0000000, float 0xFFFFFFFFE0000000, float 0xFFFFFFFFE0000000, float 0xFFFFFFFFE0000000, float 0xFFFFFFFFE0000000, float 0xFFFFFFFFE0000000, float 0xFFFFFFFFE0000000], [4 x i8] c"\AA\AA\AA\AA" }>, align 8
@_ZZN3ruy8PackImplILNS_4PathE8ENS_17FixedKernelLayoutILNS_5OrderE1ELi1ELi8EEEfffE3RunENS_6TuningERKNS_3MatIfEEPNS_4PMatIfEEiiE7zerobuf = internal constant [8 x float] zeroinitializer, align 16
@__const._ZNK3ruy6KernelILNS_4PathE8EfffNS_9MulParamsIffEEE3RunERKNS_4PMatIfEES8_RKS3_iiiiPNS_3MatIfEE.params = private unnamed_addr constant %"struct.ruy::KernelParamsFloat.110" <{ float* inttoptr (i64 -6148914691236517206 to float*), float* inttoptr (i64 -6148914691236517206 to float*), float* inttoptr (i64 -6148914691236517206 to float*), float* inttoptr (i64 -6148914691236517206 to float*), i32 -1431655766, i32 -1431655766, i32 -1431655766, i32 -1431655766, i32 -1431655766, i32 -1431655766, i32 -1431655766, i32 -1431655766, i32 -1431655766, i32 -1431655766, float 0xFFFFFFFFE0000000, float 0xFFFFFFFFE0000000, i8 -86, [3 x i8] c"\AA\AA\AA", [8 x float] [float 0xFFFFFFFFE0000000, float 0xFFFFFFFFE0000000, float 0xFFFFFFFFE0000000, float 0xFFFFFFFFE0000000, float 0xFFFFFFFFE0000000, float 0xFFFFFFFFE0000000, float 0xFFFFFFFFE0000000, float 0xFFFFFFFFE0000000], [64 x float] [float 0xFFFFFFFFE0000000, float 0xFFFFFFFFE0000000, float 0xFFFFFFFFE0000000, float 0xFFFFFFFFE0000000, float 0xFFFFFFFFE0000000, float 0xFFFFFFFFE0000000, float 0xFFFFFFFFE0000000, float 0xFFFFFFFFE0000000, float 0xFFFFFFFFE0000000, float 0xFFFFFFFFE0000000, float 0xFFFFFFFFE0000000, float 0xFFFFFFFFE0000000, float 0xFFFFFFFFE0000000, float 0xFFFFFFFFE0000000, float 0xFFFFFFFFE0000000, float 0xFFFFFFFFE0000000, float 0xFFFFFFFFE0000000, float 0xFFFFFFFFE0000000, float 0xFFFFFFFFE0000000, float 0xFFFFFFFFE0000000, float 0xFFFFFFFFE0000000, float 0xFFFFFFFFE0000000, float 0xFFFFFFFFE0000000, float 0xFFFFFFFFE0000000, float 0xFFFFFFFFE0000000, float 0xFFFFFFFFE0000000, float 0xFFFFFFFFE0000000, float 0xFFFFFFFFE0000000, float 0xFFFFFFFFE0000000, float 0xFFFFFFFFE0000000, float 0xFFFFFFFFE0000000, float 0xFFFFFFFFE0000000, float 0xFFFFFFFFE0000000, float 0xFFFFFFFFE0000000, float 0xFFFFFFFFE0000000, float 0xFFFFFFFFE0000000, float 0xFFFFFFFFE0000000, float 0xFFFFFFFFE0000000, float 0xFFFFFFFFE0000000, float 0xFFFFFFFFE0000000, float 0xFFFFFFFFE0000000, float 0xFFFFFFFFE0000000, float 0xFFFFFFFFE0000000, float 0xFFFFFFFFE0000000, float 0xFFFFFFFFE0000000, float 0xFFFFFFFFE0000000, float 0xFFFFFFFFE0000000, float 0xFFFFFFFFE0000000, float 0xFFFFFFFFE0000000, float 0xFFFFFFFFE0000000, float 0xFFFFFFFFE0000000, float 0xFFFFFFFFE0000000, float 0xFFFFFFFFE0000000, float 0xFFFFFFFFE0000000, float 0xFFFFFFFFE0000000, float 0xFFFFFFFFE0000000, float 0xFFFFFFFFE0000000, float 0xFFFFFFFFE0000000, float 0xFFFFFFFFE0000000, float 0xFFFFFFFFE0000000, float 0xFFFFFFFFE0000000, float 0xFFFFFFFFE0000000, float 0xFFFFFFFFE0000000, float 0xFFFFFFFFE0000000], [4 x i8] c"\AA\AA\AA\AA" }>, align 8
@_ZTVN6tflite13optimized_ops32ShuffledFullyConnectedWorkerTaskE = linkonce_odr hidden unnamed_addr constant { [5 x i8*] } { [5 x i8*] [i8* null, i8* null, i8* bitcast (void (%"struct.gemmlowp::Task"*)* @_ZN8gemmlowp4TaskD2Ev to i8*), i8* bitcast (void (%"struct.tflite::optimized_ops::ShuffledFullyConnectedWorkerTask"*)* @_ZN6tflite13optimized_ops32ShuffledFullyConnectedWorkerTaskD0Ev to i8*), i8* bitcast (void (%"struct.tflite::optimized_ops::ShuffledFullyConnectedWorkerTask"*)* @_ZN6tflite13optimized_ops32ShuffledFullyConnectedWorkerTask3RunEv to i8*)] }, comdat, align 8
@_ZZN8gemmlowp22GetHardwareConcurrencyEiE22hardware_threads_count = linkonce_odr hidden global i32 0, comdat, align 4
@_ZGVZN8gemmlowp22GetHardwareConcurrencyEiE22hardware_threads_count = linkonce_odr hidden global i64 0, comdat, align 8
@.str.62 = private unnamed_addr constant [19 x i8] c"allocation failure\00", align 1
@stderr = external local_unnamed_addr global %struct._IO_FILE*, align 8
@.str.63 = private unnamed_addr constant [20 x i8] c"gemmlowp error: %s\0A\00", align 1
@_ZTVN8gemmlowp21GemmWithPackedRhsTaskINS_12KernelFormatINS_16KernelSideFormatINS_10CellFormatILi4ELi16ELNS_9CellOrderE1EEELi1EEES6_EEhhNS_14BitDepthParamsINS_12OperandRangeILi1ELi255EEENS9_ILi0ELi255EEEEELNS_8MapOrderE1ELSD_0ELSD_1ENS_9VectorDupIKiLNS_11VectorShapeE1EEENSE_ISF_LSG_0EEENSt3__15tupleIJNS_23OutputStageBiasAdditionINS_9VectorMapISF_LSG_1EEEEENS_44OutputStageScaleInt32ByFixedPointAndExponentENS_16OutputStageClampENS_32OutputStageSaturatingCastToUint8EEEENS_11GemmContextEEE = linkonce_odr hidden unnamed_addr constant { [5 x i8*] } { [5 x i8*] [i8* null, i8* null, i8* bitcast (void (%"struct.gemmlowp::GemmWithPackedRhsTask"*)* @_ZN8gemmlowp21GemmWithPackedRhsTaskINS_12KernelFormatINS_16KernelSideFormatINS_10CellFormatILi4ELi16ELNS_9CellOrderE1EEELi1EEES6_EEhhNS_14BitDepthParamsINS_12OperandRangeILi1ELi255EEENS9_ILi0ELi255EEEEELNS_8MapOrderE1ELSD_0ELSD_1ENS_9VectorDupIKiLNS_11VectorShapeE1EEENSE_ISF_LSG_0EEENSt3__15tupleIJNS_23OutputStageBiasAdditionINS_9VectorMapISF_LSG_1EEEEENS_44OutputStageScaleInt32ByFixedPointAndExponentENS_16OutputStageClampENS_32OutputStageSaturatingCastToUint8EEEENS_11GemmContextEED2Ev to i8*), i8* bitcast (void (%"struct.gemmlowp::GemmWithPackedRhsTask"*)* @_ZN8gemmlowp21GemmWithPackedRhsTaskINS_12KernelFormatINS_16KernelSideFormatINS_10CellFormatILi4ELi16ELNS_9CellOrderE1EEELi1EEES6_EEhhNS_14BitDepthParamsINS_12OperandRangeILi1ELi255EEENS9_ILi0ELi255EEEEELNS_8MapOrderE1ELSD_0ELSD_1ENS_9VectorDupIKiLNS_11VectorShapeE1EEENSE_ISF_LSG_0EEENSt3__15tupleIJNS_23OutputStageBiasAdditionINS_9VectorMapISF_LSG_1EEEEENS_44OutputStageScaleInt32ByFixedPointAndExponentENS_16OutputStageClampENS_32OutputStageSaturatingCastToUint8EEEENS_11GemmContextEED0Ev to i8*), i8* bitcast (void (%"struct.gemmlowp::GemmWithPackedRhsTask"*)* @_ZN8gemmlowp21GemmWithPackedRhsTaskINS_12KernelFormatINS_16KernelSideFormatINS_10CellFormatILi4ELi16ELNS_9CellOrderE1EEELi1EEES6_EEhhNS_14BitDepthParamsINS_12OperandRangeILi1ELi255EEENS9_ILi0ELi255EEEEELNS_8MapOrderE1ELSD_0ELSD_1ENS_9VectorDupIKiLNS_11VectorShapeE1EEENSE_ISF_LSG_0EEENSt3__15tupleIJNS_23OutputStageBiasAdditionINS_9VectorMapISF_LSG_1EEEEENS_44OutputStageScaleInt32ByFixedPointAndExponentENS_16OutputStageClampENS_32OutputStageSaturatingCastToUint8EEEENS_11GemmContextEE3RunEv to i8*)] }, comdat, align 8
@_ZTVN8gemmlowp21GemmWithPackedRhsTaskINS_12KernelFormatINS_16KernelSideFormatINS_10CellFormatILi4ELi16ELNS_9CellOrderE1EEELi1EEES6_EEhhNS_14BitDepthParamsINS_12OperandRangeILi1ELi255EEENS9_ILi0ELi255EEEEELNS_8MapOrderE1ELSD_0ELSD_0ENS_9VectorDupIKiLNS_11VectorShapeE0EEENSE_ISF_LSG_1EEENSt3__15tupleIJNS_23OutputStageBiasAdditionINS_9VectorMapISF_LSG_0EEEEENS_44OutputStageScaleInt32ByFixedPointAndExponentENS_16OutputStageClampENS_32OutputStageSaturatingCastToUint8EEEENS_11GemmContextEEE = linkonce_odr hidden unnamed_addr constant { [5 x i8*] } { [5 x i8*] [i8* null, i8* null, i8* bitcast (void (%"struct.gemmlowp::GemmWithPackedRhsTask.328"*)* @_ZN8gemmlowp21GemmWithPackedRhsTaskINS_12KernelFormatINS_16KernelSideFormatINS_10CellFormatILi4ELi16ELNS_9CellOrderE1EEELi1EEES6_EEhhNS_14BitDepthParamsINS_12OperandRangeILi1ELi255EEENS9_ILi0ELi255EEEEELNS_8MapOrderE1ELSD_0ELSD_0ENS_9VectorDupIKiLNS_11VectorShapeE0EEENSE_ISF_LSG_1EEENSt3__15tupleIJNS_23OutputStageBiasAdditionINS_9VectorMapISF_LSG_0EEEEENS_44OutputStageScaleInt32ByFixedPointAndExponentENS_16OutputStageClampENS_32OutputStageSaturatingCastToUint8EEEENS_11GemmContextEED2Ev to i8*), i8* bitcast (void (%"struct.gemmlowp::GemmWithPackedRhsTask.328"*)* @_ZN8gemmlowp21GemmWithPackedRhsTaskINS_12KernelFormatINS_16KernelSideFormatINS_10CellFormatILi4ELi16ELNS_9CellOrderE1EEELi1EEES6_EEhhNS_14BitDepthParamsINS_12OperandRangeILi1ELi255EEENS9_ILi0ELi255EEEEELNS_8MapOrderE1ELSD_0ELSD_0ENS_9VectorDupIKiLNS_11VectorShapeE0EEENSE_ISF_LSG_1EEENSt3__15tupleIJNS_23OutputStageBiasAdditionINS_9VectorMapISF_LSG_0EEEEENS_44OutputStageScaleInt32ByFixedPointAndExponentENS_16OutputStageClampENS_32OutputStageSaturatingCastToUint8EEEENS_11GemmContextEED0Ev to i8*), i8* bitcast (void (%"struct.gemmlowp::GemmWithPackedRhsTask.328"*)* @_ZN8gemmlowp21GemmWithPackedRhsTaskINS_12KernelFormatINS_16KernelSideFormatINS_10CellFormatILi4ELi16ELNS_9CellOrderE1EEELi1EEES6_EEhhNS_14BitDepthParamsINS_12OperandRangeILi1ELi255EEENS9_ILi0ELi255EEEEELNS_8MapOrderE1ELSD_0ELSD_0ENS_9VectorDupIKiLNS_11VectorShapeE0EEENSE_ISF_LSG_1EEENSt3__15tupleIJNS_23OutputStageBiasAdditionINS_9VectorMapISF_LSG_0EEEEENS_44OutputStageScaleInt32ByFixedPointAndExponentENS_16OutputStageClampENS_32OutputStageSaturatingCastToUint8EEEENS_11GemmContextEE3RunEv to i8*)] }, comdat, align 8
@_ZTVN8gemmlowp13DefaultKernelINS_14BitDepthParamsINS_12OperandRangeILi1ELi255EEENS2_ILi0ELi255EEEEEEE = linkonce_odr hidden unnamed_addr constant { [6 x i8*] } { [6 x i8*] [i8* null, i8* null, i8* bitcast (i8* (%"struct.gemmlowp::ReferenceKernel"*)* @_ZNK8gemmlowp15ReferenceKernelINS_12KernelFormatINS_16KernelSideFormatINS_10CellFormatILi4ELi16ELNS_9CellOrderE1EEELi1EEES6_EEE4NameEv to i8*), i8* bitcast (void (%"struct.gemmlowp::ReferenceKernel"*, i32*, i64, i64, i8*, i8*, i64, i64)* @_ZNK8gemmlowp15ReferenceKernelINS_12KernelFormatINS_16KernelSideFormatINS_10CellFormatILi4ELi16ELNS_9CellOrderE1EEELi1EEES6_EEE3RunEPimmPKhSB_mm to i8*), i8* bitcast (void (%"struct.gemmlowp::KernelBase"*)* @_ZN8gemmlowp10KernelBaseD2Ev to i8*), i8* bitcast (void (%"struct.gemmlowp::DefaultKernel"*)* @_ZN8gemmlowp13DefaultKernelINS_14BitDepthParamsINS_12OperandRangeILi1ELi255EEENS2_ILi0ELi255EEEEEED0Ev to i8*)] }, comdat, align 8
@_ZZNK8gemmlowp15ReferenceKernelINS_12KernelFormatINS_16KernelSideFormatINS_10CellFormatILi4ELi16ELNS_9CellOrderE1EEELi1EEES6_EEE4NameEvE3buf = linkonce_odr hidden global [256 x i8] zeroinitializer, comdat, align 16
@.str.67 = private unnamed_addr constant [58 x i8] c"reference(Lhs: %d cells %dx%d %s, Rhs: %d cells %dx%d %s)\00", align 1
@.str.69 = private unnamed_addr constant [11 x i8] c"WidthMajor\00", align 1
@_ZTVN8gemmlowp21GemmWithPackedRhsTaskINS_12KernelFormatINS_16KernelSideFormatINS_10CellFormatILi4ELi16ELNS_9CellOrderE1EEELi1EEES6_EEhhNS_14BitDepthParamsINS_12OperandRangeILi1ELi255EEENS9_ILi0ELi255EEEEELNS_8MapOrderE1ELSD_0ELSD_1ENS_9VectorDupIKiLNS_11VectorShapeE1EEENSE_ISF_LSG_0EEENSt3__15tupleIJNS_44OutputStageScaleInt32ByFixedPointAndExponentENS_16OutputStageClampENS_32OutputStageSaturatingCastToUint8EEEENS_11GemmContextEEE = linkonce_odr hidden unnamed_addr constant { [5 x i8*] } { [5 x i8*] [i8* null, i8* null, i8* bitcast (void (%"struct.gemmlowp::GemmWithPackedRhsTask.385"*)* @_ZN8gemmlowp21GemmWithPackedRhsTaskINS_12KernelFormatINS_16KernelSideFormatINS_10CellFormatILi4ELi16ELNS_9CellOrderE1EEELi1EEES6_EEhhNS_14BitDepthParamsINS_12OperandRangeILi1ELi255EEENS9_ILi0ELi255EEEEELNS_8MapOrderE1ELSD_0ELSD_1ENS_9VectorDupIKiLNS_11VectorShapeE1EEENSE_ISF_LSG_0EEENSt3__15tupleIJNS_44OutputStageScaleInt32ByFixedPointAndExponentENS_16OutputStageClampENS_32OutputStageSaturatingCastToUint8EEEENS_11GemmContextEED2Ev to i8*), i8* bitcast (void (%"struct.gemmlowp::GemmWithPackedRhsTask.385"*)* @_ZN8gemmlowp21GemmWithPackedRhsTaskINS_12KernelFormatINS_16KernelSideFormatINS_10CellFormatILi4ELi16ELNS_9CellOrderE1EEELi1EEES6_EEhhNS_14BitDepthParamsINS_12OperandRangeILi1ELi255EEENS9_ILi0ELi255EEEEELNS_8MapOrderE1ELSD_0ELSD_1ENS_9VectorDupIKiLNS_11VectorShapeE1EEENSE_ISF_LSG_0EEENSt3__15tupleIJNS_44OutputStageScaleInt32ByFixedPointAndExponentENS_16OutputStageClampENS_32OutputStageSaturatingCastToUint8EEEENS_11GemmContextEED0Ev to i8*), i8* bitcast (void (%"struct.gemmlowp::GemmWithPackedRhsTask.385"*)* @_ZN8gemmlowp21GemmWithPackedRhsTaskINS_12KernelFormatINS_16KernelSideFormatINS_10CellFormatILi4ELi16ELNS_9CellOrderE1EEELi1EEES6_EEhhNS_14BitDepthParamsINS_12OperandRangeILi1ELi255EEENS9_ILi0ELi255EEEEELNS_8MapOrderE1ELSD_0ELSD_1ENS_9VectorDupIKiLNS_11VectorShapeE1EEENSE_ISF_LSG_0EEENSt3__15tupleIJNS_44OutputStageScaleInt32ByFixedPointAndExponentENS_16OutputStageClampENS_32OutputStageSaturatingCastToUint8EEEENS_11GemmContextEE3RunEv to i8*)] }, comdat, align 8
@_ZTVN8gemmlowp21GemmWithPackedRhsTaskINS_12KernelFormatINS_16KernelSideFormatINS_10CellFormatILi4ELi16ELNS_9CellOrderE1EEELi1EEES6_EEhhNS_14BitDepthParamsINS_12OperandRangeILi1ELi255EEENS9_ILi0ELi255EEEEELNS_8MapOrderE1ELSD_0ELSD_0ENS_9VectorDupIKiLNS_11VectorShapeE0EEENSE_ISF_LSG_1EEENSt3__15tupleIJNS_44OutputStageScaleInt32ByFixedPointAndExponentENS_16OutputStageClampENS_32OutputStageSaturatingCastToUint8EEEENS_11GemmContextEEE = linkonce_odr hidden unnamed_addr constant { [5 x i8*] } { [5 x i8*] [i8* null, i8* null, i8* bitcast (void (%"struct.gemmlowp::GemmWithPackedRhsTask.428"*)* @_ZN8gemmlowp21GemmWithPackedRhsTaskINS_12KernelFormatINS_16KernelSideFormatINS_10CellFormatILi4ELi16ELNS_9CellOrderE1EEELi1EEES6_EEhhNS_14BitDepthParamsINS_12OperandRangeILi1ELi255EEENS9_ILi0ELi255EEEEELNS_8MapOrderE1ELSD_0ELSD_0ENS_9VectorDupIKiLNS_11VectorShapeE0EEENSE_ISF_LSG_1EEENSt3__15tupleIJNS_44OutputStageScaleInt32ByFixedPointAndExponentENS_16OutputStageClampENS_32OutputStageSaturatingCastToUint8EEEENS_11GemmContextEED2Ev to i8*), i8* bitcast (void (%"struct.gemmlowp::GemmWithPackedRhsTask.428"*)* @_ZN8gemmlowp21GemmWithPackedRhsTaskINS_12KernelFormatINS_16KernelSideFormatINS_10CellFormatILi4ELi16ELNS_9CellOrderE1EEELi1EEES6_EEhhNS_14BitDepthParamsINS_12OperandRangeILi1ELi255EEENS9_ILi0ELi255EEEEELNS_8MapOrderE1ELSD_0ELSD_0ENS_9VectorDupIKiLNS_11VectorShapeE0EEENSE_ISF_LSG_1EEENSt3__15tupleIJNS_44OutputStageScaleInt32ByFixedPointAndExponentENS_16OutputStageClampENS_32OutputStageSaturatingCastToUint8EEEENS_11GemmContextEED0Ev to i8*), i8* bitcast (void (%"struct.gemmlowp::GemmWithPackedRhsTask.428"*)* @_ZN8gemmlowp21GemmWithPackedRhsTaskINS_12KernelFormatINS_16KernelSideFormatINS_10CellFormatILi4ELi16ELNS_9CellOrderE1EEELi1EEES6_EEhhNS_14BitDepthParamsINS_12OperandRangeILi1ELi255EEENS9_ILi0ELi255EEEEELNS_8MapOrderE1ELSD_0ELSD_0ENS_9VectorDupIKiLNS_11VectorShapeE0EEENSE_ISF_LSG_1EEENSt3__15tupleIJNS_44OutputStageScaleInt32ByFixedPointAndExponentENS_16OutputStageClampENS_32OutputStageSaturatingCastToUint8EEEENS_11GemmContextEE3RunEv to i8*)] }, comdat, align 8
@_ZTVN8gemmlowp21GemmWithPackedRhsTaskINS_12KernelFormatINS_16KernelSideFormatINS_10CellFormatILi4ELi16ELNS_9CellOrderE1EEELi1EEES6_EEhsNS_14BitDepthParamsINS_12OperandRangeILi1ELi255EEENS9_ILi0ELi255EEEEELNS_8MapOrderE1ELSD_0ELSD_1ENS_9VectorDupIKiLNS_11VectorShapeE1EEENSE_ISF_LSG_0EEENSt3__15tupleIJNS_23OutputStageBiasAdditionINS_9VectorMapISF_LSG_1EEEEENS_44OutputStageScaleInt32ByFixedPointAndExponentENS_16OutputStageClampENS_32OutputStageSaturatingCastToInt16EEEENS_11GemmContextEEE = linkonce_odr hidden unnamed_addr constant { [5 x i8*] } { [5 x i8*] [i8* null, i8* null, i8* bitcast (void (%"struct.gemmlowp::GemmWithPackedRhsTask.494"*)* @_ZN8gemmlowp21GemmWithPackedRhsTaskINS_12KernelFormatINS_16KernelSideFormatINS_10CellFormatILi4ELi16ELNS_9CellOrderE1EEELi1EEES6_EEhsNS_14BitDepthParamsINS_12OperandRangeILi1ELi255EEENS9_ILi0ELi255EEEEELNS_8MapOrderE1ELSD_0ELSD_1ENS_9VectorDupIKiLNS_11VectorShapeE1EEENSE_ISF_LSG_0EEENSt3__15tupleIJNS_23OutputStageBiasAdditionINS_9VectorMapISF_LSG_1EEEEENS_44OutputStageScaleInt32ByFixedPointAndExponentENS_16OutputStageClampENS_32OutputStageSaturatingCastToInt16EEEENS_11GemmContextEED2Ev to i8*), i8* bitcast (void (%"struct.gemmlowp::GemmWithPackedRhsTask.494"*)* @_ZN8gemmlowp21GemmWithPackedRhsTaskINS_12KernelFormatINS_16KernelSideFormatINS_10CellFormatILi4ELi16ELNS_9CellOrderE1EEELi1EEES6_EEhsNS_14BitDepthParamsINS_12OperandRangeILi1ELi255EEENS9_ILi0ELi255EEEEELNS_8MapOrderE1ELSD_0ELSD_1ENS_9VectorDupIKiLNS_11VectorShapeE1EEENSE_ISF_LSG_0EEENSt3__15tupleIJNS_23OutputStageBiasAdditionINS_9VectorMapISF_LSG_1EEEEENS_44OutputStageScaleInt32ByFixedPointAndExponentENS_16OutputStageClampENS_32OutputStageSaturatingCastToInt16EEEENS_11GemmContextEED0Ev to i8*), i8* bitcast (void (%"struct.gemmlowp::GemmWithPackedRhsTask.494"*)* @_ZN8gemmlowp21GemmWithPackedRhsTaskINS_12KernelFormatINS_16KernelSideFormatINS_10CellFormatILi4ELi16ELNS_9CellOrderE1EEELi1EEES6_EEhsNS_14BitDepthParamsINS_12OperandRangeILi1ELi255EEENS9_ILi0ELi255EEEEELNS_8MapOrderE1ELSD_0ELSD_1ENS_9VectorDupIKiLNS_11VectorShapeE1EEENSE_ISF_LSG_0EEENSt3__15tupleIJNS_23OutputStageBiasAdditionINS_9VectorMapISF_LSG_1EEEEENS_44OutputStageScaleInt32ByFixedPointAndExponentENS_16OutputStageClampENS_32OutputStageSaturatingCastToInt16EEEENS_11GemmContextEE3RunEv to i8*)] }, comdat, align 8
@_ZTVN8gemmlowp21GemmWithPackedRhsTaskINS_12KernelFormatINS_16KernelSideFormatINS_10CellFormatILi4ELi16ELNS_9CellOrderE1EEELi1EEES6_EEhsNS_14BitDepthParamsINS_12OperandRangeILi1ELi255EEENS9_ILi0ELi255EEEEELNS_8MapOrderE1ELSD_0ELSD_0ENS_9VectorDupIKiLNS_11VectorShapeE0EEENSE_ISF_LSG_1EEENSt3__15tupleIJNS_23OutputStageBiasAdditionINS_9VectorMapISF_LSG_0EEEEENS_44OutputStageScaleInt32ByFixedPointAndExponentENS_16OutputStageClampENS_32OutputStageSaturatingCastToInt16EEEENS_11GemmContextEEE = linkonce_odr hidden unnamed_addr constant { [5 x i8*] } { [5 x i8*] [i8* null, i8* null, i8* bitcast (void (%"struct.gemmlowp::GemmWithPackedRhsTask.573"*)* @_ZN8gemmlowp21GemmWithPackedRhsTaskINS_12KernelFormatINS_16KernelSideFormatINS_10CellFormatILi4ELi16ELNS_9CellOrderE1EEELi1EEES6_EEhsNS_14BitDepthParamsINS_12OperandRangeILi1ELi255EEENS9_ILi0ELi255EEEEELNS_8MapOrderE1ELSD_0ELSD_0ENS_9VectorDupIKiLNS_11VectorShapeE0EEENSE_ISF_LSG_1EEENSt3__15tupleIJNS_23OutputStageBiasAdditionINS_9VectorMapISF_LSG_0EEEEENS_44OutputStageScaleInt32ByFixedPointAndExponentENS_16OutputStageClampENS_32OutputStageSaturatingCastToInt16EEEENS_11GemmContextEED2Ev to i8*), i8* bitcast (void (%"struct.gemmlowp::GemmWithPackedRhsTask.573"*)* @_ZN8gemmlowp21GemmWithPackedRhsTaskINS_12KernelFormatINS_16KernelSideFormatINS_10CellFormatILi4ELi16ELNS_9CellOrderE1EEELi1EEES6_EEhsNS_14BitDepthParamsINS_12OperandRangeILi1ELi255EEENS9_ILi0ELi255EEEEELNS_8MapOrderE1ELSD_0ELSD_0ENS_9VectorDupIKiLNS_11VectorShapeE0EEENSE_ISF_LSG_1EEENSt3__15tupleIJNS_23OutputStageBiasAdditionINS_9VectorMapISF_LSG_0EEEEENS_44OutputStageScaleInt32ByFixedPointAndExponentENS_16OutputStageClampENS_32OutputStageSaturatingCastToInt16EEEENS_11GemmContextEED0Ev to i8*), i8* bitcast (void (%"struct.gemmlowp::GemmWithPackedRhsTask.573"*)* @_ZN8gemmlowp21GemmWithPackedRhsTaskINS_12KernelFormatINS_16KernelSideFormatINS_10CellFormatILi4ELi16ELNS_9CellOrderE1EEELi1EEES6_EEhsNS_14BitDepthParamsINS_12OperandRangeILi1ELi255EEENS9_ILi0ELi255EEEEELNS_8MapOrderE1ELSD_0ELSD_0ENS_9VectorDupIKiLNS_11VectorShapeE0EEENSE_ISF_LSG_1EEENSt3__15tupleIJNS_23OutputStageBiasAdditionINS_9VectorMapISF_LSG_0EEEEENS_44OutputStageScaleInt32ByFixedPointAndExponentENS_16OutputStageClampENS_32OutputStageSaturatingCastToInt16EEEENS_11GemmContextEE3RunEv to i8*)] }, comdat, align 8
@_ZTVN8gemmlowp21GemmWithPackedRhsTaskINS_12KernelFormatINS_16KernelSideFormatINS_10CellFormatILi4ELi16ELNS_9CellOrderE1EEELi1EEES6_EEhsNS_14BitDepthParamsINS_12OperandRangeILi1ELi255EEENS9_ILi0ELi255EEEEELNS_8MapOrderE1ELSD_0ELSD_1ENS_9VectorDupIKiLNS_11VectorShapeE1EEENSE_ISF_LSG_0EEENSt3__15tupleIJNS_44OutputStageScaleInt32ByFixedPointAndExponentENS_16OutputStageClampENS_32OutputStageSaturatingCastToInt16EEEENS_11GemmContextEEE = linkonce_odr hidden unnamed_addr constant { [5 x i8*] } { [5 x i8*] [i8* null, i8* null, i8* bitcast (void (%"struct.gemmlowp::GemmWithPackedRhsTask.623"*)* @_ZN8gemmlowp21GemmWithPackedRhsTaskINS_12KernelFormatINS_16KernelSideFormatINS_10CellFormatILi4ELi16ELNS_9CellOrderE1EEELi1EEES6_EEhsNS_14BitDepthParamsINS_12OperandRangeILi1ELi255EEENS9_ILi0ELi255EEEEELNS_8MapOrderE1ELSD_0ELSD_1ENS_9VectorDupIKiLNS_11VectorShapeE1EEENSE_ISF_LSG_0EEENSt3__15tupleIJNS_44OutputStageScaleInt32ByFixedPointAndExponentENS_16OutputStageClampENS_32OutputStageSaturatingCastToInt16EEEENS_11GemmContextEED2Ev to i8*), i8* bitcast (void (%"struct.gemmlowp::GemmWithPackedRhsTask.623"*)* @_ZN8gemmlowp21GemmWithPackedRhsTaskINS_12KernelFormatINS_16KernelSideFormatINS_10CellFormatILi4ELi16ELNS_9CellOrderE1EEELi1EEES6_EEhsNS_14BitDepthParamsINS_12OperandRangeILi1ELi255EEENS9_ILi0ELi255EEEEELNS_8MapOrderE1ELSD_0ELSD_1ENS_9VectorDupIKiLNS_11VectorShapeE1EEENSE_ISF_LSG_0EEENSt3__15tupleIJNS_44OutputStageScaleInt32ByFixedPointAndExponentENS_16OutputStageClampENS_32OutputStageSaturatingCastToInt16EEEENS_11GemmContextEED0Ev to i8*), i8* bitcast (void (%"struct.gemmlowp::GemmWithPackedRhsTask.623"*)* @_ZN8gemmlowp21GemmWithPackedRhsTaskINS_12KernelFormatINS_16KernelSideFormatINS_10CellFormatILi4ELi16ELNS_9CellOrderE1EEELi1EEES6_EEhsNS_14BitDepthParamsINS_12OperandRangeILi1ELi255EEENS9_ILi0ELi255EEEEELNS_8MapOrderE1ELSD_0ELSD_1ENS_9VectorDupIKiLNS_11VectorShapeE1EEENSE_ISF_LSG_0EEENSt3__15tupleIJNS_44OutputStageScaleInt32ByFixedPointAndExponentENS_16OutputStageClampENS_32OutputStageSaturatingCastToInt16EEEENS_11GemmContextEE3RunEv to i8*)] }, comdat, align 8
@_ZTVN8gemmlowp21GemmWithPackedRhsTaskINS_12KernelFormatINS_16KernelSideFormatINS_10CellFormatILi4ELi16ELNS_9CellOrderE1EEELi1EEES6_EEhsNS_14BitDepthParamsINS_12OperandRangeILi1ELi255EEENS9_ILi0ELi255EEEEELNS_8MapOrderE1ELSD_0ELSD_0ENS_9VectorDupIKiLNS_11VectorShapeE0EEENSE_ISF_LSG_1EEENSt3__15tupleIJNS_44OutputStageScaleInt32ByFixedPointAndExponentENS_16OutputStageClampENS_32OutputStageSaturatingCastToInt16EEEENS_11GemmContextEEE = linkonce_odr hidden unnamed_addr constant { [5 x i8*] } { [5 x i8*] [i8* null, i8* null, i8* bitcast (void (%"struct.gemmlowp::GemmWithPackedRhsTask.666"*)* @_ZN8gemmlowp21GemmWithPackedRhsTaskINS_12KernelFormatINS_16KernelSideFormatINS_10CellFormatILi4ELi16ELNS_9CellOrderE1EEELi1EEES6_EEhsNS_14BitDepthParamsINS_12OperandRangeILi1ELi255EEENS9_ILi0ELi255EEEEELNS_8MapOrderE1ELSD_0ELSD_0ENS_9VectorDupIKiLNS_11VectorShapeE0EEENSE_ISF_LSG_1EEENSt3__15tupleIJNS_44OutputStageScaleInt32ByFixedPointAndExponentENS_16OutputStageClampENS_32OutputStageSaturatingCastToInt16EEEENS_11GemmContextEED2Ev to i8*), i8* bitcast (void (%"struct.gemmlowp::GemmWithPackedRhsTask.666"*)* @_ZN8gemmlowp21GemmWithPackedRhsTaskINS_12KernelFormatINS_16KernelSideFormatINS_10CellFormatILi4ELi16ELNS_9CellOrderE1EEELi1EEES6_EEhsNS_14BitDepthParamsINS_12OperandRangeILi1ELi255EEENS9_ILi0ELi255EEEEELNS_8MapOrderE1ELSD_0ELSD_0ENS_9VectorDupIKiLNS_11VectorShapeE0EEENSE_ISF_LSG_1EEENSt3__15tupleIJNS_44OutputStageScaleInt32ByFixedPointAndExponentENS_16OutputStageClampENS_32OutputStageSaturatingCastToInt16EEEENS_11GemmContextEED0Ev to i8*), i8* bitcast (void (%"struct.gemmlowp::GemmWithPackedRhsTask.666"*)* @_ZN8gemmlowp21GemmWithPackedRhsTaskINS_12KernelFormatINS_16KernelSideFormatINS_10CellFormatILi4ELi16ELNS_9CellOrderE1EEELi1EEES6_EEhsNS_14BitDepthParamsINS_12OperandRangeILi1ELi255EEENS9_ILi0ELi255EEEEELNS_8MapOrderE1ELSD_0ELSD_0ENS_9VectorDupIKiLNS_11VectorShapeE0EEENSE_ISF_LSG_1EEENSt3__15tupleIJNS_44OutputStageScaleInt32ByFixedPointAndExponentENS_16OutputStageClampENS_32OutputStageSaturatingCastToInt16EEEENS_11GemmContextEE3RunEv to i8*)] }, comdat, align 8
@__const._ZN6tflite3ops7builtin15fully_connected13EvalQuantizedILNS2_10KernelTypeE2EEE12TfLiteStatusP13TfLiteContextP10TfLiteNodeP26TfLiteFullyConnectedParamsPNS2_6OpDataEPK12TfLiteTensorSG_SG_PSE_.op_params = private unnamed_addr constant { i32, i32, i32, i32, i32, i32, i32, float, float, i8, i8, i8, [1 x i8] } { i32 -1431655766, i32 -1431655766, i32 -1431655766, i32 -1431655766, i32 -1431655766, i32 -1431655766, i32 -1431655766, float 0xFFFFFFFFE0000000, float 0xFFFFFFFFE0000000, i8 -86, i8 -86, i8 -86, [1 x i8] c"\AA" }, align 4
@llvm.global_ctors = appending global [0 x { i32, void ()*, i8* }] zeroinitializer
@switch.table._ZN6tflite3ops7builtin15fully_connected9EvalFloatILNS2_10KernelTypeE0EEE12TfLiteStatusP13TfLiteContextP10TfLiteNodeP26TfLiteFullyConnectedParamsPNS2_6OpDataEPK12TfLiteTensorSG_SG_PSE_ = private unnamed_addr constant [3 x float] [float 0.000000e+00, float -1.000000e+00, float 0.000000e+00], align 4
@switch.table._ZN6tflite3ops7builtin15fully_connected9EvalFloatILNS2_10KernelTypeE0EEE12TfLiteStatusP13TfLiteContextP10TfLiteNodeP26TfLiteFullyConnectedParamsPNS2_6OpDataEPK12TfLiteTensorSG_SG_PSE_.73 = private unnamed_addr constant [3 x float] [float 0x47EFFFFFE0000000, float 1.000000e+00, float 6.000000e+00], align 4
@switch.table._ZN6tflite3ops7builtin15fully_connected9EvalFloatILNS2_10KernelTypeE1EEE12TfLiteStatusP13TfLiteContextP10TfLiteNodeP26TfLiteFullyConnectedParamsPNS2_6OpDataEPK12TfLiteTensorSG_SG_PSE_ = private unnamed_addr constant [3 x i32] [i32 0, i32 -1082130432, i32 0], align 4
@switch.table._ZN6tflite3ops7builtin15fully_connected9EvalFloatILNS2_10KernelTypeE1EEE12TfLiteStatusP13TfLiteContextP10TfLiteNodeP26TfLiteFullyConnectedParamsPNS2_6OpDataEPK12TfLiteTensorSG_SG_PSE_.74 = private unnamed_addr constant [3 x i32] [i32 2139095039, i32 1065353216, i32 1086324736], align 4

; Function Attrs: argmemonly nounwind
declare {}* @llvm.invariant.start.p0i8(i64 immarg, i8* nocapture) #0

; Function Attrs: nounwind ssp uwtable
define hidden nonnull i8* @_ZN6tflite3ops7builtin15fully_connected4InitEP13TfLiteContextPKcm(%struct.TfLiteContext*, i8* nocapture readnone, i64) #1 {
  %4 = tail call i8* @_Znwm(i64 24) #18
  %5 = getelementptr inbounds %struct.TfLiteContext, %struct.TfLiteContext* %0, i64 0, i32 6
  call void @llvm.memset.p0i8.i64(i8* nonnull align 16 %4, i8 0, i64 24, i1 false)
  %6 = load i32 (%struct.TfLiteContext*, i32, i32*)*, i32 (%struct.TfLiteContext*, i32, i32*)** %5, align 8
  %7 = getelementptr inbounds i8, i8* %4, i64 16
  %8 = bitcast i8* %7 to i32*
  %9 = tail call i32 %6(%struct.TfLiteContext* %0, i32 5, i32* %8) #19
  ret i8* %4
}

; Function Attrs: argmemonly nounwind
declare void @llvm.lifetime.start.p0i8(i64 immarg, i8* nocapture) #0

; Function Attrs: nobuiltin nofree
declare noalias nonnull i8* @_Znwm(i64) local_unnamed_addr #2

; Function Attrs: argmemonly nounwind
declare void @llvm.memset.p0i8.i64(i8* nocapture writeonly, i8, i64, i1 immarg) #0

; Function Attrs: argmemonly nounwind
declare void @llvm.lifetime.end.p0i8(i64 immarg, i8* nocapture) #0

; Function Attrs: nounwind ssp uwtable
define hidden void @_ZN6tflite3ops7builtin15fully_connected4FreeEP13TfLiteContextPv(%struct.TfLiteContext* nocapture readnone, i8*) #1 {
  %3 = icmp eq i8* %1, null
  br i1 %3, label %5, label %4

4:                                                ; preds = %2
  tail call void @_ZdlPv(i8* nonnull %1) #18
  br label %5

5:                                                ; preds = %4, %2
  ret void
}

; Function Attrs: nobuiltin nounwind
declare void @_ZdlPv(i8*) local_unnamed_addr #3

; Function Attrs: nounwind ssp uwtable
define hidden i32 @_ZN6tflite3ops7builtin15fully_connected11PrepareImplEP13TfLiteContextP10TfLiteNode(%struct.TfLiteContext*, %struct.TfLiteNode* nocapture) local_unnamed_addr #1 {
  %3 = alloca double, align 8
  %4 = alloca i32, align 4
  %5 = alloca [1 x i32], align 4
  %6 = alloca [2 x i32], align 4
  %7 = alloca [1 x i32], align 4
  %8 = getelementptr inbounds %struct.TfLiteNode, %struct.TfLiteNode* %1, i64 0, i32 5
  %9 = bitcast i8** %8 to %struct.TfLiteFullyConnectedParams**
  %10 = load %struct.TfLiteFullyConnectedParams*, %struct.TfLiteFullyConnectedParams** %9, align 8
  %11 = getelementptr inbounds %struct.TfLiteNode, %struct.TfLiteNode* %1, i64 0, i32 4
  %12 = bitcast i8** %11 to %"struct.tflite::ops::builtin::fully_connected::OpData"**
  %13 = load %"struct.tflite::ops::builtin::fully_connected::OpData"*, %"struct.tflite::ops::builtin::fully_connected::OpData"** %12, align 8
  %14 = getelementptr inbounds %struct.TfLiteNode, %struct.TfLiteNode* %1, i64 0, i32 0
  %15 = load %struct.TfLiteIntArray*, %struct.TfLiteIntArray** %14, align 8
  %16 = getelementptr inbounds %struct.TfLiteIntArray, %struct.TfLiteIntArray* %15, i64 0, i32 0
  %17 = load i32, i32* %16, align 4
  %18 = and i32 %17, -2
  %19 = icmp eq i32 %18, 2
  br i1 %19, label %23, label %20

20:                                               ; preds = %2
  %21 = getelementptr inbounds %struct.TfLiteContext, %struct.TfLiteContext* %0, i64 0, i32 5
  %22 = load void (%struct.TfLiteContext*, i8*, ...)*, void (%struct.TfLiteContext*, i8*, ...)** %21, align 8
  tail call void (%struct.TfLiteContext*, i8*, ...) %22(%struct.TfLiteContext* %0, i8* getelementptr inbounds ([23 x i8], [23 x i8]* @.str, i64 0, i64 0), i8* getelementptr inbounds ([72 x i8], [72 x i8]* @.str.3, i64 0, i64 0), i32 151, i8* getelementptr inbounds ([51 x i8], [51 x i8]* @.str.4, i64 0, i64 0)) #19
  br label %608

23:                                               ; preds = %2
  %24 = getelementptr inbounds %struct.TfLiteFullyConnectedParams, %struct.TfLiteFullyConnectedParams* %10, i64 0, i32 1
  %25 = load i32, i32* %24, align 4
  %26 = icmp eq i32 %25, 0
  %27 = select i1 %26, i32 1, i32 2
  %28 = getelementptr inbounds %struct.TfLiteNode, %struct.TfLiteNode* %1, i64 0, i32 1
  %29 = load %struct.TfLiteIntArray*, %struct.TfLiteIntArray** %28, align 8
  %30 = getelementptr inbounds %struct.TfLiteIntArray, %struct.TfLiteIntArray* %29, i64 0, i32 0
  %31 = load i32, i32* %30, align 4
  %32 = icmp eq i32 %31, %27
  br i1 %32, label %36, label %33

33:                                               ; preds = %23
  %34 = getelementptr inbounds %struct.TfLiteContext, %struct.TfLiteContext* %0, i64 0, i32 5
  %35 = load void (%struct.TfLiteContext*, i8*, ...)*, void (%struct.TfLiteContext*, i8*, ...)** %34, align 8
  tail call void (%struct.TfLiteContext*, i8*, ...) %35(%struct.TfLiteContext* %0, i8* getelementptr inbounds ([26 x i8], [26 x i8]* @.str.5, i64 0, i64 0), i8* getelementptr inbounds ([72 x i8], [72 x i8]* @.str.3, i64 0, i64 0), i32 156, i8* getelementptr inbounds ([20 x i8], [20 x i8]* @.str.6, i64 0, i64 0), i8* getelementptr inbounds ([23 x i8], [23 x i8]* @.str.7, i64 0, i64 0), i32 %31, i32 %27) #19
  br label %608

36:                                               ; preds = %23
  %37 = getelementptr inbounds %struct.TfLiteIntArray, %struct.TfLiteIntArray* %15, i64 0, i32 1, i64 0
  %38 = load i32, i32* %37, align 4
  %39 = icmp slt i32 %38, 0
  br i1 %39, label %45, label %40

40:                                               ; preds = %36
  %41 = getelementptr inbounds %struct.TfLiteContext, %struct.TfLiteContext* %0, i64 0, i32 2
  %42 = load %struct.TfLiteTensor*, %struct.TfLiteTensor** %41, align 8
  %43 = sext i32 %38 to i64
  %44 = getelementptr inbounds %struct.TfLiteTensor, %struct.TfLiteTensor* %42, i64 %43
  br label %45

45:                                               ; preds = %36, %40
  %46 = phi %struct.TfLiteTensor* [ %44, %40 ], [ null, %36 ]
  %47 = getelementptr inbounds %struct.TfLiteIntArray, %struct.TfLiteIntArray* %15, i64 0, i32 1, i64 1
  %48 = load i32, i32* %47, align 4
  %49 = icmp slt i32 %48, 0
  br i1 %49, label %55, label %50

50:                                               ; preds = %45
  %51 = getelementptr inbounds %struct.TfLiteContext, %struct.TfLiteContext* %0, i64 0, i32 2
  %52 = load %struct.TfLiteTensor*, %struct.TfLiteTensor** %51, align 8
  %53 = sext i32 %48 to i64
  %54 = getelementptr inbounds %struct.TfLiteTensor, %struct.TfLiteTensor* %52, i64 %53
  br label %55

55:                                               ; preds = %45, %50
  %56 = phi %struct.TfLiteTensor* [ %54, %50 ], [ null, %45 ]
  %57 = icmp eq i32 %17, 3
  br i1 %57, label %58, label %67

58:                                               ; preds = %55
  %59 = getelementptr inbounds %struct.TfLiteIntArray, %struct.TfLiteIntArray* %15, i64 0, i32 1, i64 2
  %60 = load i32, i32* %59, align 4
  %61 = icmp slt i32 %60, 0
  br i1 %61, label %67, label %62

62:                                               ; preds = %58
  %63 = getelementptr inbounds %struct.TfLiteContext, %struct.TfLiteContext* %0, i64 0, i32 2
  %64 = load %struct.TfLiteTensor*, %struct.TfLiteTensor** %63, align 8
  %65 = sext i32 %60 to i64
  %66 = getelementptr inbounds %struct.TfLiteTensor, %struct.TfLiteTensor* %64, i64 %65
  br label %67

67:                                               ; preds = %62, %58, %55
  %68 = phi %struct.TfLiteTensor* [ null, %55 ], [ %66, %62 ], [ null, %58 ]
  %69 = getelementptr inbounds %struct.TfLiteIntArray, %struct.TfLiteIntArray* %29, i64 0, i32 1, i64 0
  %70 = load i32, i32* %69, align 4
  %71 = icmp slt i32 %70, 0
  br i1 %71, label %77, label %72

72:                                               ; preds = %67
  %73 = getelementptr inbounds %struct.TfLiteContext, %struct.TfLiteContext* %0, i64 0, i32 2
  %74 = load %struct.TfLiteTensor*, %struct.TfLiteTensor** %73, align 8
  %75 = sext i32 %70 to i64
  %76 = getelementptr inbounds %struct.TfLiteTensor, %struct.TfLiteTensor* %74, i64 %75
  br label %77

77:                                               ; preds = %67, %72
  %78 = phi %struct.TfLiteTensor* [ %76, %72 ], [ null, %67 ]
  %79 = tail call i32 @_ZN6tflite3ops7builtin15fully_connected10CheckTypesEP13TfLiteContextPK12TfLiteTensorS7_S7_PS5_P26TfLiteFullyConnectedParams(%struct.TfLiteContext* %0, %struct.TfLiteTensor* %46, %struct.TfLiteTensor* %56, %struct.TfLiteTensor* %68, %struct.TfLiteTensor* %78, %struct.TfLiteFullyConnectedParams* %10)
  %80 = icmp eq i32 %79, 0
  br i1 %80, label %81, label %608

81:                                               ; preds = %77
  %82 = getelementptr inbounds %struct.TfLiteTensor, %struct.TfLiteTensor* %46, i64 0, i32 2
  %83 = load %struct.TfLiteIntArray*, %struct.TfLiteIntArray** %82, align 8
  %84 = getelementptr inbounds %struct.TfLiteIntArray, %struct.TfLiteIntArray* %83, i64 0, i32 0
  %85 = load i32, i32* %84, align 4
  %86 = icmp sgt i32 %85, 0
  br i1 %86, label %87, label %178

87:                                               ; preds = %81
  %88 = sext i32 %85 to i64
  %89 = icmp ult i32 %85, 8
  br i1 %89, label %90, label %93

90:                                               ; preds = %168, %87
  %91 = phi i64 [ 0, %87 ], [ %94, %168 ]
  %92 = phi i32 [ 1, %87 ], [ %176, %168 ]
  br label %185

93:                                               ; preds = %87
  %94 = and i64 %88, -8
  %95 = add nsw i64 %94, -8
  %96 = lshr exact i64 %95, 3
  %97 = add nuw nsw i64 %96, 1
  %98 = and i64 %97, 3
  %99 = icmp ult i64 %95, 24
  br i1 %99, label %145, label %100

100:                                              ; preds = %93
  %101 = sub nsw i64 %97, %98
  br label %102

102:                                              ; preds = %102, %100
  %103 = phi i64 [ 0, %100 ], [ %142, %102 ]
  %104 = phi <4 x i32> [ <i32 1, i32 1, i32 1, i32 1>, %100 ], [ %140, %102 ]
  %105 = phi <4 x i32> [ <i32 1, i32 1, i32 1, i32 1>, %100 ], [ %141, %102 ]
  %106 = phi i64 [ %101, %100 ], [ %143, %102 ]
  %107 = getelementptr inbounds %struct.TfLiteIntArray, %struct.TfLiteIntArray* %83, i64 0, i32 1, i64 %103
  %108 = bitcast i32* %107 to <4 x i32>*
  %109 = load <4 x i32>, <4 x i32>* %108, align 4
  %110 = getelementptr inbounds i32, i32* %107, i64 4
  %111 = bitcast i32* %110 to <4 x i32>*
  %112 = load <4 x i32>, <4 x i32>* %111, align 4
  %113 = mul nsw <4 x i32> %109, %104
  %114 = mul nsw <4 x i32> %112, %105
  %115 = or i64 %103, 8
  %116 = getelementptr inbounds %struct.TfLiteIntArray, %struct.TfLiteIntArray* %83, i64 0, i32 1, i64 %115
  %117 = bitcast i32* %116 to <4 x i32>*
  %118 = load <4 x i32>, <4 x i32>* %117, align 4
  %119 = getelementptr inbounds i32, i32* %116, i64 4
  %120 = bitcast i32* %119 to <4 x i32>*
  %121 = load <4 x i32>, <4 x i32>* %120, align 4
  %122 = mul nsw <4 x i32> %118, %113
  %123 = mul nsw <4 x i32> %121, %114
  %124 = or i64 %103, 16
  %125 = getelementptr inbounds %struct.TfLiteIntArray, %struct.TfLiteIntArray* %83, i64 0, i32 1, i64 %124
  %126 = bitcast i32* %125 to <4 x i32>*
  %127 = load <4 x i32>, <4 x i32>* %126, align 4
  %128 = getelementptr inbounds i32, i32* %125, i64 4
  %129 = bitcast i32* %128 to <4 x i32>*
  %130 = load <4 x i32>, <4 x i32>* %129, align 4
  %131 = mul nsw <4 x i32> %127, %122
  %132 = mul nsw <4 x i32> %130, %123
  %133 = or i64 %103, 24
  %134 = getelementptr inbounds %struct.TfLiteIntArray, %struct.TfLiteIntArray* %83, i64 0, i32 1, i64 %133
  %135 = bitcast i32* %134 to <4 x i32>*
  %136 = load <4 x i32>, <4 x i32>* %135, align 4
  %137 = getelementptr inbounds i32, i32* %134, i64 4
  %138 = bitcast i32* %137 to <4 x i32>*
  %139 = load <4 x i32>, <4 x i32>* %138, align 4
  %140 = mul nsw <4 x i32> %136, %131
  %141 = mul nsw <4 x i32> %139, %132
  %142 = add i64 %103, 32
  %143 = add i64 %106, -4
  %144 = icmp eq i64 %143, 0
  br i1 %144, label %145, label %102, !llvm.loop !2

145:                                              ; preds = %102, %93
  %146 = phi <4 x i32> [ undef, %93 ], [ %140, %102 ]
  %147 = phi <4 x i32> [ undef, %93 ], [ %141, %102 ]
  %148 = phi i64 [ 0, %93 ], [ %142, %102 ]
  %149 = phi <4 x i32> [ <i32 1, i32 1, i32 1, i32 1>, %93 ], [ %140, %102 ]
  %150 = phi <4 x i32> [ <i32 1, i32 1, i32 1, i32 1>, %93 ], [ %141, %102 ]
  %151 = icmp eq i64 %98, 0
  br i1 %151, label %168, label %152

152:                                              ; preds = %145, %152
  %153 = phi i64 [ %165, %152 ], [ %148, %145 ]
  %154 = phi <4 x i32> [ %163, %152 ], [ %149, %145 ]
  %155 = phi <4 x i32> [ %164, %152 ], [ %150, %145 ]
  %156 = phi i64 [ %166, %152 ], [ %98, %145 ]
  %157 = getelementptr inbounds %struct.TfLiteIntArray, %struct.TfLiteIntArray* %83, i64 0, i32 1, i64 %153
  %158 = bitcast i32* %157 to <4 x i32>*
  %159 = load <4 x i32>, <4 x i32>* %158, align 4
  %160 = getelementptr inbounds i32, i32* %157, i64 4
  %161 = bitcast i32* %160 to <4 x i32>*
  %162 = load <4 x i32>, <4 x i32>* %161, align 4
  %163 = mul nsw <4 x i32> %159, %154
  %164 = mul nsw <4 x i32> %162, %155
  %165 = add i64 %153, 8
  %166 = add i64 %156, -1
  %167 = icmp eq i64 %166, 0
  br i1 %167, label %168, label %152, !llvm.loop !4

168:                                              ; preds = %152, %145
  %169 = phi <4 x i32> [ %146, %145 ], [ %163, %152 ]
  %170 = phi <4 x i32> [ %147, %145 ], [ %164, %152 ]
  %171 = mul <4 x i32> %170, %169
  %172 = shufflevector <4 x i32> %171, <4 x i32> undef, <4 x i32> <i32 2, i32 3, i32 undef, i32 undef>
  %173 = mul <4 x i32> %171, %172
  %174 = shufflevector <4 x i32> %173, <4 x i32> undef, <4 x i32> <i32 1, i32 undef, i32 undef, i32 undef>
  %175 = mul <4 x i32> %173, %174
  %176 = extractelement <4 x i32> %175, i32 0
  %177 = icmp eq i64 %94, %88
  br i1 %177, label %178, label %90

178:                                              ; preds = %185, %168, %81
  %179 = phi i32 [ 1, %81 ], [ %176, %168 ], [ %190, %185 ]
  %180 = getelementptr inbounds %struct.TfLiteTensor, %struct.TfLiteTensor* %56, i64 0, i32 2
  %181 = load %struct.TfLiteIntArray*, %struct.TfLiteIntArray** %180, align 8
  %182 = getelementptr inbounds %struct.TfLiteIntArray, %struct.TfLiteIntArray* %181, i64 0, i32 0
  %183 = load i32, i32* %182, align 4
  %184 = icmp eq i32 %183, 2
  br i1 %184, label %196, label %193

185:                                              ; preds = %90, %185
  %186 = phi i64 [ %191, %185 ], [ %91, %90 ]
  %187 = phi i32 [ %190, %185 ], [ %92, %90 ]
  %188 = getelementptr inbounds %struct.TfLiteIntArray, %struct.TfLiteIntArray* %83, i64 0, i32 1, i64 %186
  %189 = load i32, i32* %188, align 4
  %190 = mul nsw i32 %189, %187
  %191 = add nuw nsw i64 %186, 1
  %192 = icmp slt i64 %191, %88
  br i1 %192, label %185, label %178, !llvm.loop !6

193:                                              ; preds = %178
  %194 = getelementptr inbounds %struct.TfLiteContext, %struct.TfLiteContext* %0, i64 0, i32 5
  %195 = load void (%struct.TfLiteContext*, i8*, ...)*, void (%struct.TfLiteContext*, i8*, ...)** %194, align 8
  tail call void (%struct.TfLiteContext*, i8*, ...) %195(%struct.TfLiteContext* %0, i8* getelementptr inbounds ([26 x i8], [26 x i8]* @.str.5, i64 0, i64 0), i8* getelementptr inbounds ([72 x i8], [72 x i8]* @.str.3, i64 0, i64 0), i32 177, i8* getelementptr inbounds ([22 x i8], [22 x i8]* @.str.8, i64 0, i64 0), i8* getelementptr inbounds ([2 x i8], [2 x i8]* @.str.9, i64 0, i64 0), i32 %183, i32 2) #19
  br label %608

196:                                              ; preds = %178
  %197 = getelementptr inbounds %struct.TfLiteIntArray, %struct.TfLiteIntArray* %181, i64 0, i32 1, i64 1
  %198 = load i32, i32* %197, align 4
  %199 = sdiv i32 %179, %198
  %200 = getelementptr inbounds %struct.TfLiteIntArray, %struct.TfLiteIntArray* %181, i64 0, i32 1, i64 0
  %201 = load i32, i32* %200, align 4
  %202 = icmp eq %struct.TfLiteTensor* %68, null
  br i1 %202, label %356, label %203

203:                                              ; preds = %196
  %204 = getelementptr inbounds %struct.TfLiteTensor, %struct.TfLiteTensor* %68, i64 0, i32 2
  %205 = load %struct.TfLiteIntArray*, %struct.TfLiteIntArray** %204, align 8
  %206 = getelementptr inbounds %struct.TfLiteIntArray, %struct.TfLiteIntArray* %205, i64 0, i32 0
  %207 = load i32, i32* %206, align 4
  %208 = icmp sgt i32 %207, 0
  br i1 %208, label %209, label %278

209:                                              ; preds = %203
  %210 = sext i32 %207 to i64
  %211 = add nsw i64 %210, -1
  %212 = and i64 %210, 7
  %213 = icmp ult i64 %211, 7
  br i1 %213, label %262, label %214

214:                                              ; preds = %209
  %215 = sub nsw i64 %210, %212
  br label %216

216:                                              ; preds = %216, %214
  %217 = phi i64 [ 0, %214 ], [ %259, %216 ]
  %218 = phi i64 [ 1, %214 ], [ %258, %216 ]
  %219 = phi i64 [ %215, %214 ], [ %260, %216 ]
  %220 = getelementptr inbounds %struct.TfLiteIntArray, %struct.TfLiteIntArray* %205, i64 0, i32 1, i64 %217
  %221 = load i32, i32* %220, align 4
  %222 = sext i32 %221 to i64
  %223 = mul nsw i64 %218, %222
  %224 = or i64 %217, 1
  %225 = getelementptr inbounds %struct.TfLiteIntArray, %struct.TfLiteIntArray* %205, i64 0, i32 1, i64 %224
  %226 = load i32, i32* %225, align 4
  %227 = sext i32 %226 to i64
  %228 = mul nsw i64 %223, %227
  %229 = or i64 %217, 2
  %230 = getelementptr inbounds %struct.TfLiteIntArray, %struct.TfLiteIntArray* %205, i64 0, i32 1, i64 %229
  %231 = load i32, i32* %230, align 4
  %232 = sext i32 %231 to i64
  %233 = mul nsw i64 %228, %232
  %234 = or i64 %217, 3
  %235 = getelementptr inbounds %struct.TfLiteIntArray, %struct.TfLiteIntArray* %205, i64 0, i32 1, i64 %234
  %236 = load i32, i32* %235, align 4
  %237 = sext i32 %236 to i64
  %238 = mul nsw i64 %233, %237
  %239 = or i64 %217, 4
  %240 = getelementptr inbounds %struct.TfLiteIntArray, %struct.TfLiteIntArray* %205, i64 0, i32 1, i64 %239
  %241 = load i32, i32* %240, align 4
  %242 = sext i32 %241 to i64
  %243 = mul nsw i64 %238, %242
  %244 = or i64 %217, 5
  %245 = getelementptr inbounds %struct.TfLiteIntArray, %struct.TfLiteIntArray* %205, i64 0, i32 1, i64 %244
  %246 = load i32, i32* %245, align 4
  %247 = sext i32 %246 to i64
  %248 = mul nsw i64 %243, %247
  %249 = or i64 %217, 6
  %250 = getelementptr inbounds %struct.TfLiteIntArray, %struct.TfLiteIntArray* %205, i64 0, i32 1, i64 %249
  %251 = load i32, i32* %250, align 4
  %252 = sext i32 %251 to i64
  %253 = mul nsw i64 %248, %252
  %254 = or i64 %217, 7
  %255 = getelementptr inbounds %struct.TfLiteIntArray, %struct.TfLiteIntArray* %205, i64 0, i32 1, i64 %254
  %256 = load i32, i32* %255, align 4
  %257 = sext i32 %256 to i64
  %258 = mul nsw i64 %253, %257
  %259 = add nuw nsw i64 %217, 8
  %260 = add i64 %219, -8
  %261 = icmp eq i64 %260, 0
  br i1 %261, label %262, label %216

262:                                              ; preds = %216, %209
  %263 = phi i64 [ undef, %209 ], [ %258, %216 ]
  %264 = phi i64 [ 0, %209 ], [ %259, %216 ]
  %265 = phi i64 [ 1, %209 ], [ %258, %216 ]
  %266 = icmp eq i64 %212, 0
  br i1 %266, label %278, label %267

267:                                              ; preds = %262, %267
  %268 = phi i64 [ %275, %267 ], [ %264, %262 ]
  %269 = phi i64 [ %274, %267 ], [ %265, %262 ]
  %270 = phi i64 [ %276, %267 ], [ %212, %262 ]
  %271 = getelementptr inbounds %struct.TfLiteIntArray, %struct.TfLiteIntArray* %205, i64 0, i32 1, i64 %268
  %272 = load i32, i32* %271, align 4
  %273 = sext i32 %272 to i64
  %274 = mul nsw i64 %269, %273
  %275 = add nuw nsw i64 %268, 1
  %276 = add i64 %270, -1
  %277 = icmp eq i64 %276, 0
  br i1 %277, label %278, label %267, !llvm.loop !8

278:                                              ; preds = %262, %267, %203
  %279 = phi i64 [ 1, %203 ], [ %263, %262 ], [ %274, %267 ]
  %280 = sext i32 %201 to i64
  %281 = icmp eq i64 %279, %280
  br i1 %281, label %356, label %282

282:                                              ; preds = %278
  %283 = getelementptr inbounds %struct.TfLiteContext, %struct.TfLiteContext* %0, i64 0, i32 5
  %284 = load void (%struct.TfLiteContext*, i8*, ...)*, void (%struct.TfLiteContext*, i8*, ...)** %283, align 8
  br i1 %208, label %285, label %354

285:                                              ; preds = %282
  %286 = sext i32 %207 to i64
  %287 = add nsw i64 %286, -1
  %288 = and i64 %286, 7
  %289 = icmp ult i64 %287, 7
  br i1 %289, label %338, label %290

290:                                              ; preds = %285
  %291 = sub nsw i64 %286, %288
  br label %292

292:                                              ; preds = %292, %290
  %293 = phi i64 [ 0, %290 ], [ %335, %292 ]
  %294 = phi i64 [ 1, %290 ], [ %334, %292 ]
  %295 = phi i64 [ %291, %290 ], [ %336, %292 ]
  %296 = getelementptr inbounds %struct.TfLiteIntArray, %struct.TfLiteIntArray* %205, i64 0, i32 1, i64 %293
  %297 = load i32, i32* %296, align 4
  %298 = sext i32 %297 to i64
  %299 = mul nsw i64 %294, %298
  %300 = or i64 %293, 1
  %301 = getelementptr inbounds %struct.TfLiteIntArray, %struct.TfLiteIntArray* %205, i64 0, i32 1, i64 %300
  %302 = load i32, i32* %301, align 4
  %303 = sext i32 %302 to i64
  %304 = mul nsw i64 %299, %303
  %305 = or i64 %293, 2
  %306 = getelementptr inbounds %struct.TfLiteIntArray, %struct.TfLiteIntArray* %205, i64 0, i32 1, i64 %305
  %307 = load i32, i32* %306, align 4
  %308 = sext i32 %307 to i64
  %309 = mul nsw i64 %304, %308
  %310 = or i64 %293, 3
  %311 = getelementptr inbounds %struct.TfLiteIntArray, %struct.TfLiteIntArray* %205, i64 0, i32 1, i64 %310
  %312 = load i32, i32* %311, align 4
  %313 = sext i32 %312 to i64
  %314 = mul nsw i64 %309, %313
  %315 = or i64 %293, 4
  %316 = getelementptr inbounds %struct.TfLiteIntArray, %struct.TfLiteIntArray* %205, i64 0, i32 1, i64 %315
  %317 = load i32, i32* %316, align 4
  %318 = sext i32 %317 to i64
  %319 = mul nsw i64 %314, %318
  %320 = or i64 %293, 5
  %321 = getelementptr inbounds %struct.TfLiteIntArray, %struct.TfLiteIntArray* %205, i64 0, i32 1, i64 %320
  %322 = load i32, i32* %321, align 4
  %323 = sext i32 %322 to i64
  %324 = mul nsw i64 %319, %323
  %325 = or i64 %293, 6
  %326 = getelementptr inbounds %struct.TfLiteIntArray, %struct.TfLiteIntArray* %205, i64 0, i32 1, i64 %325
  %327 = load i32, i32* %326, align 4
  %328 = sext i32 %327 to i64
  %329 = mul nsw i64 %324, %328
  %330 = or i64 %293, 7
  %331 = getelementptr inbounds %struct.TfLiteIntArray, %struct.TfLiteIntArray* %205, i64 0, i32 1, i64 %330
  %332 = load i32, i32* %331, align 4
  %333 = sext i32 %332 to i64
  %334 = mul nsw i64 %329, %333
  %335 = add nuw nsw i64 %293, 8
  %336 = add i64 %295, -8
  %337 = icmp eq i64 %336, 0
  br i1 %337, label %338, label %292

338:                                              ; preds = %292, %285
  %339 = phi i64 [ undef, %285 ], [ %334, %292 ]
  %340 = phi i64 [ 0, %285 ], [ %335, %292 ]
  %341 = phi i64 [ 1, %285 ], [ %334, %292 ]
  %342 = icmp eq i64 %288, 0
  br i1 %342, label %354, label %343

343:                                              ; preds = %338, %343
  %344 = phi i64 [ %351, %343 ], [ %340, %338 ]
  %345 = phi i64 [ %350, %343 ], [ %341, %338 ]
  %346 = phi i64 [ %352, %343 ], [ %288, %338 ]
  %347 = getelementptr inbounds %struct.TfLiteIntArray, %struct.TfLiteIntArray* %205, i64 0, i32 1, i64 %344
  %348 = load i32, i32* %347, align 4
  %349 = sext i32 %348 to i64
  %350 = mul nsw i64 %345, %349
  %351 = add nuw nsw i64 %344, 1
  %352 = add i64 %346, -1
  %353 = icmp eq i64 %352, 0
  br i1 %353, label %354, label %343, !llvm.loop !9

354:                                              ; preds = %338, %343, %282
  %355 = phi i64 [ 1, %282 ], [ %339, %338 ], [ %350, %343 ]
  tail call void (%struct.TfLiteContext*, i8*, ...) %284(%struct.TfLiteContext* %0, i8* getelementptr inbounds ([26 x i8], [26 x i8]* @.str.5, i64 0, i64 0), i8* getelementptr inbounds ([72 x i8], [72 x i8]* @.str.3, i64 0, i64 0), i32 182, i8* getelementptr inbounds ([18 x i8], [18 x i8]* @.str.10, i64 0, i64 0), i8* getelementptr inbounds ([27 x i8], [27 x i8]* @.str.11, i64 0, i64 0), i64 %355, i32 %201) #19
  br label %608

356:                                              ; preds = %278, %196
  %357 = getelementptr inbounds %struct.TfLiteTensor, %struct.TfLiteTensor* %46, i64 0, i32 0
  %358 = load i32, i32* %357, align 8
  switch i32 %358, label %398 [
    i32 3, label %359
    i32 9, label %359
    i32 7, label %359
  ]

359:                                              ; preds = %356, %356, %356
  %360 = bitcast double* %3 to i8*
  call void @llvm.lifetime.start.p0i8(i64 8, i8* nonnull %360) #19
  store double 0.000000e+00, double* %3, align 8
  %361 = call i32 @_ZN6tflite32GetQuantizedConvolutionMultiplerEP13TfLiteContextPK12TfLiteTensorS4_S4_PS2_Pd(%struct.TfLiteContext* %0, %struct.TfLiteTensor* %46, %struct.TfLiteTensor* %56, %struct.TfLiteTensor* %68, %struct.TfLiteTensor* %78, double* nonnull %3) #19
  %362 = icmp eq i32 %361, 0
  br i1 %362, label %363, label %378

363:                                              ; preds = %359
  %364 = bitcast i32* %4 to i8*
  call void @llvm.lifetime.start.p0i8(i64 4, i8* nonnull %364) #19
  store i32 -1431655766, i32* %4, align 4
  %365 = load double, double* %3, align 8
  %366 = getelementptr inbounds %"struct.tflite::ops::builtin::fully_connected::OpData", %"struct.tflite::ops::builtin::fully_connected::OpData"* %13, i64 0, i32 0
  call void @_ZN6tflite18QuantizeMultiplierEdPiS0_(double %365, i32* %366, i32* nonnull %4) #19
  %367 = load i32, i32* %4, align 4
  %368 = getelementptr inbounds %"struct.tflite::ops::builtin::fully_connected::OpData", %"struct.tflite::ops::builtin::fully_connected::OpData"* %13, i64 0, i32 1
  store i32 %367, i32* %368, align 4
  %369 = getelementptr inbounds %struct.TfLiteFullyConnectedParams, %struct.TfLiteFullyConnectedParams* %10, i64 0, i32 0
  %370 = load i32, i32* %369, align 4
  %371 = getelementptr inbounds %"struct.tflite::ops::builtin::fully_connected::OpData", %"struct.tflite::ops::builtin::fully_connected::OpData"* %13, i64 0, i32 2
  %372 = getelementptr inbounds %"struct.tflite::ops::builtin::fully_connected::OpData", %"struct.tflite::ops::builtin::fully_connected::OpData"* %13, i64 0, i32 3
  %373 = call i32 @_ZN6tflite33CalculateActivationRangeQuantizedEP13TfLiteContext21TfLiteFusedActivationP12TfLiteTensorPiS5_(%struct.TfLiteContext* %0, i32 %370, %struct.TfLiteTensor* %78, i32* %371, i32* %372) #19
  %374 = icmp eq i32 %373, 0
  call void @llvm.lifetime.end.p0i8(i64 4, i8* nonnull %364) #19
  br i1 %374, label %375, label %378

375:                                              ; preds = %363
  call void @llvm.lifetime.end.p0i8(i64 8, i8* nonnull %360) #19
  %376 = load i32, i32* %357, align 8
  %377 = icmp eq i32 %376, 7
  br i1 %377, label %380, label %398

378:                                              ; preds = %363, %359
  %379 = phi i32 [ %373, %363 ], [ %361, %359 ]
  call void @llvm.lifetime.end.p0i8(i64 8, i8* nonnull %360) #19
  br label %608

380:                                              ; preds = %375
  %381 = getelementptr inbounds %struct.TfLiteTensor, %struct.TfLiteTensor* %78, i64 0, i32 0
  %382 = load i32, i32* %381, align 8
  %383 = icmp eq i32 %382, 7
  br i1 %383, label %384, label %572

384:                                              ; preds = %380
  %385 = getelementptr inbounds %struct.TfLiteTensor, %struct.TfLiteTensor* %46, i64 0, i32 3, i32 1
  %386 = load i32, i32* %385, align 4
  %387 = icmp eq i32 %386, 0
  br i1 %387, label %391, label %388

388:                                              ; preds = %384
  %389 = getelementptr inbounds %struct.TfLiteContext, %struct.TfLiteContext* %0, i64 0, i32 5
  %390 = load void (%struct.TfLiteContext*, i8*, ...)*, void (%struct.TfLiteContext*, i8*, ...)** %389, align 8
  call void (%struct.TfLiteContext*, i8*, ...) %390(%struct.TfLiteContext* %0, i8* getelementptr inbounds ([26 x i8], [26 x i8]* @.str.5, i64 0, i64 0), i8* getelementptr inbounds ([72 x i8], [72 x i8]* @.str.3, i64 0, i64 0), i32 201, i8* getelementptr inbounds ([25 x i8], [25 x i8]* @.str.12, i64 0, i64 0), i8* getelementptr inbounds ([2 x i8], [2 x i8]* @.str.13, i64 0, i64 0), i32 %386, i32 0) #19
  br label %608

391:                                              ; preds = %384
  %392 = getelementptr inbounds %struct.TfLiteTensor, %struct.TfLiteTensor* %78, i64 0, i32 3, i32 1
  %393 = load i32, i32* %392, align 4
  %394 = icmp eq i32 %393, 0
  br i1 %394, label %572, label %395

395:                                              ; preds = %391
  %396 = getelementptr inbounds %struct.TfLiteContext, %struct.TfLiteContext* %0, i64 0, i32 5
  %397 = load void (%struct.TfLiteContext*, i8*, ...)*, void (%struct.TfLiteContext*, i8*, ...)** %396, align 8
  call void (%struct.TfLiteContext*, i8*, ...) %397(%struct.TfLiteContext* %0, i8* getelementptr inbounds ([26 x i8], [26 x i8]* @.str.5, i64 0, i64 0), i8* getelementptr inbounds ([72 x i8], [72 x i8]* @.str.3, i64 0, i64 0), i32 202, i8* getelementptr inbounds ([26 x i8], [26 x i8]* @.str.14, i64 0, i64 0), i8* getelementptr inbounds ([2 x i8], [2 x i8]* @.str.13, i64 0, i64 0), i32 %393, i32 0) #19
  br label %608

398:                                              ; preds = %356, %375
  %399 = phi i32 [ %376, %375 ], [ %358, %356 ]
  %400 = icmp eq i32 %399, 1
  br i1 %400, label %401, label %572

401:                                              ; preds = %398
  %402 = getelementptr inbounds %struct.TfLiteTensor, %struct.TfLiteTensor* %56, i64 0, i32 0
  %403 = load i32, i32* %402, align 8
  switch i32 %403, label %572 [
    i32 3, label %404
    i32 9, label %404
  ]

404:                                              ; preds = %401, %401
  %405 = getelementptr inbounds %struct.TfLiteNode, %struct.TfLiteNode* %1, i64 0, i32 3
  %406 = load %struct.TfLiteIntArray*, %struct.TfLiteIntArray** %405, align 8
  call void @TfLiteIntArrayFree(%struct.TfLiteIntArray* %406) #19
  %407 = getelementptr inbounds %"struct.tflite::ops::builtin::fully_connected::OpData", %"struct.tflite::ops::builtin::fully_connected::OpData"* %13, i64 0, i32 5
  store i8 1, i8* %407, align 4
  %408 = call %struct.TfLiteIntArray* @TfLiteIntArrayCreate(i32 5) #19
  store %struct.TfLiteIntArray* %408, %struct.TfLiteIntArray** %405, align 8
  %409 = getelementptr inbounds %"struct.tflite::ops::builtin::fully_connected::OpData", %"struct.tflite::ops::builtin::fully_connected::OpData"* %13, i64 0, i32 4
  %410 = load i32, i32* %409, align 4
  %411 = getelementptr inbounds %struct.TfLiteIntArray, %struct.TfLiteIntArray* %408, i64 0, i32 1, i64 0
  store i32 %410, i32* %411, align 4
  %412 = load %struct.TfLiteIntArray*, %struct.TfLiteIntArray** %405, align 8
  %413 = getelementptr inbounds %struct.TfLiteIntArray, %struct.TfLiteIntArray* %412, i64 0, i32 1, i64 0
  %414 = load i32, i32* %413, align 4
  %415 = icmp slt i32 %414, 0
  br i1 %415, label %421, label %416

416:                                              ; preds = %404
  %417 = getelementptr inbounds %struct.TfLiteContext, %struct.TfLiteContext* %0, i64 0, i32 2
  %418 = load %struct.TfLiteTensor*, %struct.TfLiteTensor** %417, align 8
  %419 = sext i32 %414 to i64
  %420 = getelementptr inbounds %struct.TfLiteTensor, %struct.TfLiteTensor* %418, i64 %419
  br label %421

421:                                              ; preds = %404, %416
  %422 = phi %struct.TfLiteTensor* [ %420, %416 ], [ null, %404 ]
  %423 = load i32, i32* %402, align 8
  %424 = getelementptr inbounds %struct.TfLiteTensor, %struct.TfLiteTensor* %422, i64 0, i32 0
  store i32 %423, i32* %424, align 8
  %425 = getelementptr inbounds %struct.TfLiteTensor, %struct.TfLiteTensor* %422, i64 0, i32 4
  store i32 2, i32* %425, align 8
  %426 = load %struct.TfLiteIntArray*, %struct.TfLiteIntArray** %82, align 8
  %427 = call %struct.TfLiteIntArray* @TfLiteIntArrayCopy(%struct.TfLiteIntArray* %426) #19
  %428 = getelementptr inbounds %struct.TfLiteContext, %struct.TfLiteContext* %0, i64 0, i32 4
  %429 = load i32 (%struct.TfLiteContext*, %struct.TfLiteTensor*, %struct.TfLiteIntArray*)*, i32 (%struct.TfLiteContext*, %struct.TfLiteTensor*, %struct.TfLiteIntArray*)** %428, align 8
  %430 = call i32 %429(%struct.TfLiteContext* %0, %struct.TfLiteTensor* %422, %struct.TfLiteIntArray* %427) #19
  %431 = icmp eq i32 %430, 0
  br i1 %431, label %432, label %608

432:                                              ; preds = %421
  %433 = load i32, i32* %409, align 4
  %434 = add nsw i32 %433, 1
  %435 = load %struct.TfLiteIntArray*, %struct.TfLiteIntArray** %405, align 8
  %436 = getelementptr inbounds %struct.TfLiteIntArray, %struct.TfLiteIntArray* %435, i64 0, i32 1, i64 1
  store i32 %434, i32* %436, align 4
  %437 = load %struct.TfLiteIntArray*, %struct.TfLiteIntArray** %405, align 8
  %438 = getelementptr inbounds %struct.TfLiteIntArray, %struct.TfLiteIntArray* %437, i64 0, i32 1, i64 1
  %439 = load i32, i32* %438, align 4
  %440 = icmp slt i32 %439, 0
  br i1 %440, label %446, label %441

441:                                              ; preds = %432
  %442 = getelementptr inbounds %struct.TfLiteContext, %struct.TfLiteContext* %0, i64 0, i32 2
  %443 = load %struct.TfLiteTensor*, %struct.TfLiteTensor** %442, align 8
  %444 = sext i32 %439 to i64
  %445 = getelementptr inbounds %struct.TfLiteTensor, %struct.TfLiteTensor* %443, i64 %444
  br label %446

446:                                              ; preds = %432, %441
  %447 = phi %struct.TfLiteTensor* [ %445, %441 ], [ null, %432 ]
  %448 = getelementptr inbounds %struct.TfLiteTensor, %struct.TfLiteTensor* %447, i64 0, i32 0
  store i32 1, i32* %448, align 8
  %449 = getelementptr inbounds %struct.TfLiteTensor, %struct.TfLiteTensor* %447, i64 0, i32 4
  store i32 2, i32* %449, align 8
  %450 = bitcast [1 x i32]* %5 to i8*
  call void @llvm.lifetime.start.p0i8(i64 4, i8* nonnull %450) #19
  %451 = getelementptr inbounds [1 x i32], [1 x i32]* %5, i64 0, i64 0
  store i32 %199, i32* %451, align 4
  %452 = getelementptr inbounds %struct.TfLiteTensor, %struct.TfLiteTensor* %447, i64 0, i32 2
  %453 = load %struct.TfLiteIntArray*, %struct.TfLiteIntArray** %452, align 8
  %454 = call i32 @TfLiteIntArrayEqualsArray(%struct.TfLiteIntArray* %453, i32 1, i32* nonnull %451) #19
  %455 = icmp eq i32 %454, 0
  br i1 %455, label %456, label %464

456:                                              ; preds = %446
  %457 = call %struct.TfLiteIntArray* @TfLiteIntArrayCreate(i32 1) #19
  %458 = getelementptr inbounds %struct.TfLiteIntArray, %struct.TfLiteIntArray* %457, i64 0, i32 1, i64 0
  store i32 %199, i32* %458, align 4
  %459 = load i32 (%struct.TfLiteContext*, %struct.TfLiteTensor*, %struct.TfLiteIntArray*)*, i32 (%struct.TfLiteContext*, %struct.TfLiteTensor*, %struct.TfLiteIntArray*)** %428, align 8
  %460 = call i32 %459(%struct.TfLiteContext* %0, %struct.TfLiteTensor* %447, %struct.TfLiteIntArray* %457) #19
  %461 = icmp eq i32 %460, 0
  %462 = xor i1 %461, true
  %463 = zext i1 %462 to i32
  br i1 %461, label %464, label %568

464:                                              ; preds = %446, %456
  %465 = load i32, i32* %409, align 4
  %466 = add nsw i32 %465, 2
  %467 = load %struct.TfLiteIntArray*, %struct.TfLiteIntArray** %405, align 8
  %468 = getelementptr inbounds %struct.TfLiteIntArray, %struct.TfLiteIntArray* %467, i64 0, i32 1, i64 2
  store i32 %466, i32* %468, align 4
  %469 = load %struct.TfLiteIntArray*, %struct.TfLiteIntArray** %405, align 8
  %470 = getelementptr inbounds %struct.TfLiteIntArray, %struct.TfLiteIntArray* %469, i64 0, i32 1, i64 2
  %471 = load i32, i32* %470, align 4
  %472 = icmp slt i32 %471, 0
  br i1 %472, label %478, label %473

473:                                              ; preds = %464
  %474 = getelementptr inbounds %struct.TfLiteContext, %struct.TfLiteContext* %0, i64 0, i32 2
  %475 = load %struct.TfLiteTensor*, %struct.TfLiteTensor** %474, align 8
  %476 = sext i32 %471 to i64
  %477 = getelementptr inbounds %struct.TfLiteTensor, %struct.TfLiteTensor* %475, i64 %476
  br label %478

478:                                              ; preds = %464, %473
  %479 = phi %struct.TfLiteTensor* [ %477, %473 ], [ null, %464 ]
  %480 = getelementptr inbounds %struct.TfLiteTensor, %struct.TfLiteTensor* %479, i64 0, i32 0
  store i32 2, i32* %480, align 8
  %481 = getelementptr inbounds %struct.TfLiteTensor, %struct.TfLiteTensor* %479, i64 0, i32 4
  store i32 2, i32* %481, align 8
  %482 = bitcast [2 x i32]* %6 to i8*
  call void @llvm.lifetime.start.p0i8(i64 8, i8* nonnull %482) #19
  %483 = getelementptr inbounds [2 x i32], [2 x i32]* %6, i64 0, i64 0
  %484 = getelementptr inbounds [2 x i32], [2 x i32]* %6, i64 0, i64 1
  store i32 %201, i32* %483, align 4
  store i32 %199, i32* %484, align 4
  %485 = getelementptr inbounds %struct.TfLiteTensor, %struct.TfLiteTensor* %479, i64 0, i32 2
  %486 = load %struct.TfLiteIntArray*, %struct.TfLiteIntArray** %485, align 8
  %487 = call i32 @TfLiteIntArrayEqualsArray(%struct.TfLiteIntArray* %486, i32 2, i32* nonnull %483) #19
  %488 = icmp eq i32 %487, 0
  br i1 %488, label %489, label %498

489:                                              ; preds = %478
  %490 = call %struct.TfLiteIntArray* @TfLiteIntArrayCreate(i32 2) #19
  %491 = getelementptr inbounds %struct.TfLiteIntArray, %struct.TfLiteIntArray* %490, i64 0, i32 1, i64 0
  store i32 %201, i32* %491, align 4
  %492 = getelementptr inbounds %struct.TfLiteIntArray, %struct.TfLiteIntArray* %490, i64 0, i32 1, i64 1
  store i32 %199, i32* %492, align 4
  %493 = load i32 (%struct.TfLiteContext*, %struct.TfLiteTensor*, %struct.TfLiteIntArray*)*, i32 (%struct.TfLiteContext*, %struct.TfLiteTensor*, %struct.TfLiteIntArray*)** %428, align 8
  %494 = call i32 %493(%struct.TfLiteContext* %0, %struct.TfLiteTensor* %479, %struct.TfLiteIntArray* %490) #19
  %495 = icmp eq i32 %494, 0
  %496 = xor i1 %495, true
  %497 = zext i1 %496 to i32
  br i1 %495, label %498, label %565

498:                                              ; preds = %478, %489
  %499 = load i32, i32* %409, align 4
  %500 = add nsw i32 %499, 3
  %501 = load %struct.TfLiteIntArray*, %struct.TfLiteIntArray** %405, align 8
  %502 = getelementptr inbounds %struct.TfLiteIntArray, %struct.TfLiteIntArray* %501, i64 0, i32 1, i64 3
  store i32 %500, i32* %502, align 4
  %503 = load %struct.TfLiteIntArray*, %struct.TfLiteIntArray** %405, align 8
  %504 = getelementptr inbounds %struct.TfLiteIntArray, %struct.TfLiteIntArray* %503, i64 0, i32 1, i64 3
  %505 = load i32, i32* %504, align 4
  %506 = icmp slt i32 %505, 0
  br i1 %506, label %512, label %507

507:                                              ; preds = %498
  %508 = getelementptr inbounds %struct.TfLiteContext, %struct.TfLiteContext* %0, i64 0, i32 2
  %509 = load %struct.TfLiteTensor*, %struct.TfLiteTensor** %508, align 8
  %510 = sext i32 %505 to i64
  %511 = getelementptr inbounds %struct.TfLiteTensor, %struct.TfLiteTensor* %509, i64 %510
  br label %512

512:                                              ; preds = %498, %507
  %513 = phi %struct.TfLiteTensor* [ %511, %507 ], [ null, %498 ]
  %514 = getelementptr inbounds %struct.TfLiteTensor, %struct.TfLiteTensor* %513, i64 0, i32 0
  store i32 2, i32* %514, align 8
  %515 = getelementptr inbounds %struct.TfLiteTensor, %struct.TfLiteTensor* %513, i64 0, i32 4
  store i32 2, i32* %515, align 8
  %516 = getelementptr inbounds %struct.TfLiteTensor, %struct.TfLiteTensor* %513, i64 0, i32 2
  %517 = load %struct.TfLiteIntArray*, %struct.TfLiteIntArray** %516, align 8
  %518 = call i32 @TfLiteIntArrayEqualsArray(%struct.TfLiteIntArray* %517, i32 1, i32* nonnull %451) #19
  %519 = icmp eq i32 %518, 0
  br i1 %519, label %520, label %528

520:                                              ; preds = %512
  %521 = call %struct.TfLiteIntArray* @TfLiteIntArrayCreate(i32 1) #19
  %522 = getelementptr inbounds %struct.TfLiteIntArray, %struct.TfLiteIntArray* %521, i64 0, i32 1, i64 0
  store i32 %199, i32* %522, align 4
  %523 = load i32 (%struct.TfLiteContext*, %struct.TfLiteTensor*, %struct.TfLiteIntArray*)*, i32 (%struct.TfLiteContext*, %struct.TfLiteTensor*, %struct.TfLiteIntArray*)** %428, align 8
  %524 = call i32 %523(%struct.TfLiteContext* %0, %struct.TfLiteTensor* %513, %struct.TfLiteIntArray* %521) #19
  %525 = icmp eq i32 %524, 0
  %526 = xor i1 %525, true
  %527 = zext i1 %526 to i32
  br i1 %525, label %528, label %565

528:                                              ; preds = %512, %520
  %529 = load i32, i32* %409, align 4
  %530 = add nsw i32 %529, 4
  %531 = load %struct.TfLiteIntArray*, %struct.TfLiteIntArray** %405, align 8
  %532 = getelementptr inbounds %struct.TfLiteIntArray, %struct.TfLiteIntArray* %531, i64 0, i32 1, i64 4
  store i32 %530, i32* %532, align 4
  %533 = load %struct.TfLiteIntArray*, %struct.TfLiteIntArray** %405, align 8
  %534 = getelementptr inbounds %struct.TfLiteIntArray, %struct.TfLiteIntArray* %533, i64 0, i32 1, i64 4
  %535 = load i32, i32* %534, align 4
  %536 = icmp slt i32 %535, 0
  br i1 %536, label %542, label %537

537:                                              ; preds = %528
  %538 = getelementptr inbounds %struct.TfLiteContext, %struct.TfLiteContext* %0, i64 0, i32 2
  %539 = load %struct.TfLiteTensor*, %struct.TfLiteTensor** %538, align 8
  %540 = sext i32 %535 to i64
  %541 = getelementptr inbounds %struct.TfLiteTensor, %struct.TfLiteTensor* %539, i64 %540
  br label %542

542:                                              ; preds = %528, %537
  %543 = phi %struct.TfLiteTensor* [ %541, %537 ], [ null, %528 ]
  %544 = getelementptr inbounds %struct.TfLiteTensor, %struct.TfLiteTensor* %543, i64 0, i32 0
  store i32 2, i32* %544, align 8
  %545 = getelementptr inbounds %struct.TfLiteTensor, %struct.TfLiteTensor* %543, i64 0, i32 4
  store i32 3, i32* %545, align 8
  %546 = bitcast [1 x i32]* %7 to i8*
  call void @llvm.lifetime.start.p0i8(i64 4, i8* nonnull %546) #19
  %547 = getelementptr inbounds [1 x i32], [1 x i32]* %7, i64 0, i64 0
  store i32 %201, i32* %547, align 4
  %548 = getelementptr inbounds %struct.TfLiteTensor, %struct.TfLiteTensor* %543, i64 0, i32 2
  %549 = load %struct.TfLiteIntArray*, %struct.TfLiteIntArray** %548, align 8
  %550 = call i32 @TfLiteIntArrayEqualsArray(%struct.TfLiteIntArray* %549, i32 1, i32* nonnull %547) #19
  %551 = icmp eq i32 %550, 0
  br i1 %551, label %552, label %561

552:                                              ; preds = %542
  %553 = call %struct.TfLiteIntArray* @TfLiteIntArrayCreate(i32 1) #19
  %554 = load i32, i32* %547, align 4
  %555 = getelementptr inbounds %struct.TfLiteIntArray, %struct.TfLiteIntArray* %553, i64 0, i32 1, i64 0
  store i32 %554, i32* %555, align 4
  %556 = load i32 (%struct.TfLiteContext*, %struct.TfLiteTensor*, %struct.TfLiteIntArray*)*, i32 (%struct.TfLiteContext*, %struct.TfLiteTensor*, %struct.TfLiteIntArray*)** %428, align 8
  %557 = call i32 %556(%struct.TfLiteContext* %0, %struct.TfLiteTensor* %543, %struct.TfLiteIntArray* %553) #19
  %558 = icmp eq i32 %557, 0
  %559 = xor i1 %558, true
  %560 = zext i1 %559 to i32
  br i1 %558, label %561, label %562

561:                                              ; preds = %542, %552
  br label %562

562:                                              ; preds = %552, %561
  %563 = phi i32 [ 0, %561 ], [ %560, %552 ]
  %564 = phi i32 [ 0, %561 ], [ %557, %552 ]
  call void @llvm.lifetime.end.p0i8(i64 4, i8* nonnull %546) #19
  br label %565

565:                                              ; preds = %562, %520, %489
  %566 = phi i32 [ %497, %489 ], [ %563, %562 ], [ %527, %520 ]
  %567 = phi i32 [ %494, %489 ], [ %564, %562 ], [ %524, %520 ]
  call void @llvm.lifetime.end.p0i8(i64 8, i8* nonnull %482) #19
  br label %568

568:                                              ; preds = %565, %456
  %569 = phi i32 [ %566, %565 ], [ %463, %456 ]
  %570 = phi i32 [ %567, %565 ], [ %460, %456 ]
  call void @llvm.lifetime.end.p0i8(i64 4, i8* nonnull %450) #19
  %571 = icmp eq i32 %569, 0
  br i1 %571, label %572, label %608

572:                                              ; preds = %380, %391, %401, %568, %398
  %573 = getelementptr inbounds %struct.TfLiteFullyConnectedParams, %struct.TfLiteFullyConnectedParams* %10, i64 0, i32 2
  %574 = load i8, i8* %573, align 4, !range !10
  %575 = icmp eq i8 %574, 0
  br i1 %575, label %598, label %576

576:                                              ; preds = %572
  %577 = load %struct.TfLiteIntArray*, %struct.TfLiteIntArray** %82, align 8
  %578 = getelementptr inbounds %struct.TfLiteIntArray, %struct.TfLiteIntArray* %577, i64 0, i32 0
  %579 = load i32, i32* %578, align 4
  %580 = add nsw i32 %579, -1
  %581 = sext i32 %580 to i64
  %582 = getelementptr inbounds %struct.TfLiteIntArray, %struct.TfLiteIntArray* %577, i64 0, i32 1, i64 %581
  %583 = load i32, i32* %582, align 4
  %584 = load %struct.TfLiteIntArray*, %struct.TfLiteIntArray** %180, align 8
  %585 = getelementptr inbounds %struct.TfLiteIntArray, %struct.TfLiteIntArray* %584, i64 0, i32 1, i64 1
  %586 = load i32, i32* %585, align 4
  %587 = icmp eq i32 %583, %586
  br i1 %587, label %591, label %588

588:                                              ; preds = %576
  %589 = getelementptr inbounds %struct.TfLiteContext, %struct.TfLiteContext* %0, i64 0, i32 5
  %590 = load void (%struct.TfLiteContext*, i8*, ...)*, void (%struct.TfLiteContext*, i8*, ...)** %589, align 8
  call void (%struct.TfLiteContext*, i8*, ...) %590(%struct.TfLiteContext* %0, i8* getelementptr inbounds ([26 x i8], [26 x i8]* @.str.5, i64 0, i64 0), i8* getelementptr inbounds ([72 x i8], [72 x i8]* @.str.3, i64 0, i64 0), i32 283, i8* getelementptr inbounds ([41 x i8], [41 x i8]* @.str.15, i64 0, i64 0), i8* getelementptr inbounds ([27 x i8], [27 x i8]* @.str.16, i64 0, i64 0), i32 %583, i32 %586) #19
  br label %608

591:                                              ; preds = %576
  %592 = call %struct.TfLiteIntArray* @TfLiteIntArrayCopy(%struct.TfLiteIntArray* %577) #19
  %593 = getelementptr inbounds %struct.TfLiteIntArray, %struct.TfLiteIntArray* %592, i64 0, i32 0
  %594 = load i32, i32* %593, align 4
  %595 = add nsw i32 %594, -1
  %596 = sext i32 %595 to i64
  %597 = getelementptr inbounds %struct.TfLiteIntArray, %struct.TfLiteIntArray* %592, i64 0, i32 1, i64 %596
  br label %602

598:                                              ; preds = %572
  %599 = call %struct.TfLiteIntArray* @TfLiteIntArrayCreate(i32 2) #19
  %600 = getelementptr inbounds %struct.TfLiteIntArray, %struct.TfLiteIntArray* %599, i64 0, i32 1, i64 0
  store i32 %199, i32* %600, align 4
  %601 = getelementptr inbounds %struct.TfLiteIntArray, %struct.TfLiteIntArray* %599, i64 0, i32 1, i64 1
  br label %602

602:                                              ; preds = %591, %598
  %603 = phi i32* [ %597, %591 ], [ %601, %598 ]
  %604 = phi %struct.TfLiteIntArray* [ %592, %591 ], [ %599, %598 ]
  store i32 %201, i32* %603, align 4
  %605 = getelementptr inbounds %struct.TfLiteContext, %struct.TfLiteContext* %0, i64 0, i32 4
  %606 = load i32 (%struct.TfLiteContext*, %struct.TfLiteTensor*, %struct.TfLiteIntArray*)*, i32 (%struct.TfLiteContext*, %struct.TfLiteTensor*, %struct.TfLiteIntArray*)** %605, align 8
  %607 = call i32 %606(%struct.TfLiteContext* %0, %struct.TfLiteTensor* %78, %struct.TfLiteIntArray* %604) #19
  ret i32 %607

608:                                              ; preds = %421, %378, %33, %193, %588, %568, %395, %388, %354, %77, %20
  %609 = phi i32 [ 1, %20 ], [ 1, %33 ], [ %79, %77 ], [ 1, %193 ], [ 1, %354 ], [ 1, %388 ], [ 1, %395 ], [ %570, %568 ], [ %379, %378 ], [ 1, %588 ], [ %430, %421 ]
  ret i32 %609
}

; Function Attrs: inlinehint nounwind ssp uwtable
define linkonce_odr hidden i32 @_ZN6tflite3ops7builtin15fully_connected10CheckTypesEP13TfLiteContextPK12TfLiteTensorS7_S7_PS5_P26TfLiteFullyConnectedParams(%struct.TfLiteContext*, %struct.TfLiteTensor*, %struct.TfLiteTensor*, %struct.TfLiteTensor*, %struct.TfLiteTensor*, %struct.TfLiteFullyConnectedParams*) local_unnamed_addr #4 comdat {
  %7 = getelementptr inbounds %struct.TfLiteTensor, %struct.TfLiteTensor* %2, i64 0, i32 0
  %8 = load i32, i32* %7, align 8
  %9 = icmp eq i32 %8, 3
  switch i32 %8, label %17 [
    i32 9, label %10
    i32 3, label %10
  ]

10:                                               ; preds = %6, %6
  %11 = getelementptr inbounds %struct.TfLiteTensor, %struct.TfLiteTensor* %1, i64 0, i32 0
  %12 = load i32, i32* %11, align 8
  %13 = icmp eq i32 %12, 1
  %14 = getelementptr inbounds %struct.TfLiteFullyConnectedParams, %struct.TfLiteFullyConnectedParams* %5, i64 0, i32 1
  %15 = load i32, i32* %14, align 4
  %16 = icmp eq i32 %15, 1
  br label %17

17:                                               ; preds = %6, %10
  %18 = phi i1 [ %13, %10 ], [ false, %6 ]
  %19 = phi i1 [ %16, %10 ], [ false, %6 ]
  %20 = icmp eq %struct.TfLiteTensor* %3, null
  br i1 %20, label %30, label %21

21:                                               ; preds = %17
  %22 = getelementptr inbounds %struct.TfLiteTensor, %struct.TfLiteTensor* %3, i64 0, i32 0
  %23 = load i32, i32* %22, align 8
  %24 = icmp eq i32 %23, 1
  %25 = zext i1 %24 to i32
  %26 = icmp eq i32 %23, 2
  br i1 %26, label %30, label %27

27:                                               ; preds = %21
  %28 = icmp eq i32 %23, 4
  %29 = zext i1 %28 to i32
  br label %30

30:                                               ; preds = %17, %27, %21
  %31 = phi i32 [ %25, %21 ], [ %25, %27 ], [ 1, %17 ]
  %32 = phi i32 [ 1, %21 ], [ %29, %27 ], [ 1, %17 ]
  %33 = getelementptr inbounds %struct.TfLiteTensor, %struct.TfLiteTensor* %1, i64 0, i32 0
  %34 = load i32, i32* %33, align 8
  switch i32 %8, label %100 [
    i32 9, label %35
    i32 3, label %35
  ]

35:                                               ; preds = %30, %30
  br i1 %19, label %36, label %63

36:                                               ; preds = %35
  %37 = icmp eq i32 %34, 3
  br i1 %37, label %43, label %38

38:                                               ; preds = %36
  %39 = getelementptr inbounds %struct.TfLiteContext, %struct.TfLiteContext* %0, i64 0, i32 5
  %40 = load void (%struct.TfLiteContext*, i8*, ...)*, void (%struct.TfLiteContext*, i8*, ...)** %39, align 8
  %41 = tail call i8* @TfLiteTypeGetName(i32 %34) #19
  %42 = tail call i8* @TfLiteTypeGetName(i32 3) #19
  tail call void (%struct.TfLiteContext*, i8*, ...) %40(%struct.TfLiteContext* %0, i8* getelementptr inbounds ([26 x i8], [26 x i8]* @.str.18, i64 0, i64 0), i8* getelementptr inbounds ([72 x i8], [72 x i8]* @.str.3, i64 0, i64 0), i32 104, i8* getelementptr inbounds ([12 x i8], [12 x i8]* @.str.19, i64 0, i64 0), i8* getelementptr inbounds ([13 x i8], [13 x i8]* @.str.20, i64 0, i64 0), i8* %41, i8* %42) #19
  br label %128

43:                                               ; preds = %36
  br i1 %9, label %49, label %44

44:                                               ; preds = %43
  %45 = getelementptr inbounds %struct.TfLiteContext, %struct.TfLiteContext* %0, i64 0, i32 5
  %46 = load void (%struct.TfLiteContext*, i8*, ...)*, void (%struct.TfLiteContext*, i8*, ...)** %45, align 8
  %47 = tail call i8* @TfLiteTypeGetName(i32 %8) #19
  %48 = tail call i8* @TfLiteTypeGetName(i32 3) #19
  tail call void (%struct.TfLiteContext*, i8*, ...) %46(%struct.TfLiteContext* %0, i8* getelementptr inbounds ([26 x i8], [26 x i8]* @.str.18, i64 0, i64 0), i8* getelementptr inbounds ([72 x i8], [72 x i8]* @.str.3, i64 0, i64 0), i32 105, i8* getelementptr inbounds ([13 x i8], [13 x i8]* @.str.21, i64 0, i64 0), i8* getelementptr inbounds ([13 x i8], [13 x i8]* @.str.20, i64 0, i64 0), i8* %47, i8* %48) #19
  br label %128

49:                                               ; preds = %43
  %50 = getelementptr inbounds %struct.TfLiteTensor, %struct.TfLiteTensor* %4, i64 0, i32 0
  %51 = load i32, i32* %50, align 8
  %52 = icmp eq i32 %51, 7
  br i1 %52, label %58, label %53

53:                                               ; preds = %49
  %54 = getelementptr inbounds %struct.TfLiteContext, %struct.TfLiteContext* %0, i64 0, i32 5
  %55 = load void (%struct.TfLiteContext*, i8*, ...)*, void (%struct.TfLiteContext*, i8*, ...)** %54, align 8
  %56 = tail call i8* @TfLiteTypeGetName(i32 %51) #19
  %57 = tail call i8* @TfLiteTypeGetName(i32 7) #19
  tail call void (%struct.TfLiteContext*, i8*, ...) %55(%struct.TfLiteContext* %0, i8* getelementptr inbounds ([26 x i8], [26 x i8]* @.str.18, i64 0, i64 0), i8* getelementptr inbounds ([72 x i8], [72 x i8]* @.str.3, i64 0, i64 0), i32 106, i8* getelementptr inbounds ([13 x i8], [13 x i8]* @.str.22, i64 0, i64 0), i8* getelementptr inbounds ([13 x i8], [13 x i8]* @.str.23, i64 0, i64 0), i8* %56, i8* %57) #19
  br label %128

58:                                               ; preds = %49
  %59 = icmp eq i32 %32, 1
  br i1 %59, label %128, label %60

60:                                               ; preds = %58
  %61 = getelementptr inbounds %struct.TfLiteContext, %struct.TfLiteContext* %0, i64 0, i32 5
  %62 = load void (%struct.TfLiteContext*, i8*, ...)*, void (%struct.TfLiteContext*, i8*, ...)** %61, align 8
  tail call void (%struct.TfLiteContext*, i8*, ...) %62(%struct.TfLiteContext* %0, i8* getelementptr inbounds ([26 x i8], [26 x i8]* @.str.5, i64 0, i64 0), i8* getelementptr inbounds ([72 x i8], [72 x i8]* @.str.3, i64 0, i64 0), i32 107, i8* getelementptr inbounds ([21 x i8], [21 x i8]* @.str.24, i64 0, i64 0), i8* getelementptr inbounds ([5 x i8], [5 x i8]* @.str.25, i64 0, i64 0), i32 %32, i32 1) #19
  br label %128

63:                                               ; preds = %35
  br i1 %18, label %64, label %85

64:                                               ; preds = %63
  %65 = icmp eq i32 %34, 1
  br i1 %65, label %71, label %66

66:                                               ; preds = %64
  %67 = getelementptr inbounds %struct.TfLiteContext, %struct.TfLiteContext* %0, i64 0, i32 5
  %68 = load void (%struct.TfLiteContext*, i8*, ...)*, void (%struct.TfLiteContext*, i8*, ...)** %67, align 8
  %69 = tail call i8* @TfLiteTypeGetName(i32 %34) #19
  %70 = tail call i8* @TfLiteTypeGetName(i32 1) #19
  tail call void (%struct.TfLiteContext*, i8*, ...) %68(%struct.TfLiteContext* %0, i8* getelementptr inbounds ([26 x i8], [26 x i8]* @.str.18, i64 0, i64 0), i8* getelementptr inbounds ([72 x i8], [72 x i8]* @.str.3, i64 0, i64 0), i32 109, i8* getelementptr inbounds ([12 x i8], [12 x i8]* @.str.19, i64 0, i64 0), i8* getelementptr inbounds ([15 x i8], [15 x i8]* @.str.26, i64 0, i64 0), i8* %69, i8* %70) #19
  br label %128

71:                                               ; preds = %64
  %72 = getelementptr inbounds %struct.TfLiteTensor, %struct.TfLiteTensor* %4, i64 0, i32 0
  %73 = load i32, i32* %72, align 8
  %74 = icmp eq i32 %73, 1
  br i1 %74, label %80, label %75

75:                                               ; preds = %71
  %76 = getelementptr inbounds %struct.TfLiteContext, %struct.TfLiteContext* %0, i64 0, i32 5
  %77 = load void (%struct.TfLiteContext*, i8*, ...)*, void (%struct.TfLiteContext*, i8*, ...)** %76, align 8
  %78 = tail call i8* @TfLiteTypeGetName(i32 %73) #19
  %79 = tail call i8* @TfLiteTypeGetName(i32 1) #19
  tail call void (%struct.TfLiteContext*, i8*, ...) %77(%struct.TfLiteContext* %0, i8* getelementptr inbounds ([26 x i8], [26 x i8]* @.str.18, i64 0, i64 0), i8* getelementptr inbounds ([72 x i8], [72 x i8]* @.str.3, i64 0, i64 0), i32 110, i8* getelementptr inbounds ([13 x i8], [13 x i8]* @.str.22, i64 0, i64 0), i8* getelementptr inbounds ([15 x i8], [15 x i8]* @.str.26, i64 0, i64 0), i8* %78, i8* %79) #19
  br label %128

80:                                               ; preds = %71
  %81 = icmp eq i32 %31, 1
  br i1 %81, label %128, label %82

82:                                               ; preds = %80
  %83 = getelementptr inbounds %struct.TfLiteContext, %struct.TfLiteContext* %0, i64 0, i32 5
  %84 = load void (%struct.TfLiteContext*, i8*, ...)*, void (%struct.TfLiteContext*, i8*, ...)** %83, align 8
  tail call void (%struct.TfLiteContext*, i8*, ...) %84(%struct.TfLiteContext* %0, i8* getelementptr inbounds ([26 x i8], [26 x i8]* @.str.5, i64 0, i64 0), i8* getelementptr inbounds ([72 x i8], [72 x i8]* @.str.3, i64 0, i64 0), i32 111, i8* getelementptr inbounds ([23 x i8], [23 x i8]* @.str.27, i64 0, i64 0), i8* getelementptr inbounds ([5 x i8], [5 x i8]* @.str.25, i64 0, i64 0), i32 %31, i32 1) #19
  br label %128

85:                                               ; preds = %63
  switch i32 %34, label %86 [
    i32 3, label %89
    i32 9, label %89
    i32 7, label %89
  ]

86:                                               ; preds = %85
  %87 = getelementptr inbounds %struct.TfLiteContext, %struct.TfLiteContext* %0, i64 0, i32 5
  %88 = load void (%struct.TfLiteContext*, i8*, ...)*, void (%struct.TfLiteContext*, i8*, ...)** %87, align 8
  tail call void (%struct.TfLiteContext*, i8*, ...) %88(%struct.TfLiteContext* %0, i8* getelementptr inbounds ([23 x i8], [23 x i8]* @.str, i64 0, i64 0), i8* getelementptr inbounds ([72 x i8], [72 x i8]* @.str.3, i64 0, i64 0), i32 115, i8* getelementptr inbounds ([89 x i8], [89 x i8]* @.str.28, i64 0, i64 0)) #19
  br label %128

89:                                               ; preds = %85, %85, %85
  %90 = getelementptr inbounds %struct.TfLiteTensor, %struct.TfLiteTensor* %4, i64 0, i32 0
  %91 = load i32, i32* %90, align 8
  switch i32 %91, label %92 [
    i32 3, label %95
    i32 9, label %95
    i32 7, label %95
  ]

92:                                               ; preds = %89
  %93 = getelementptr inbounds %struct.TfLiteContext, %struct.TfLiteContext* %0, i64 0, i32 5
  %94 = load void (%struct.TfLiteContext*, i8*, ...)*, void (%struct.TfLiteContext*, i8*, ...)** %93, align 8
  tail call void (%struct.TfLiteContext*, i8*, ...) %94(%struct.TfLiteContext* %0, i8* getelementptr inbounds ([23 x i8], [23 x i8]* @.str, i64 0, i64 0), i8* getelementptr inbounds ([72 x i8], [72 x i8]* @.str.3, i64 0, i64 0), i32 118, i8* getelementptr inbounds ([92 x i8], [92 x i8]* @.str.29, i64 0, i64 0)) #19
  br label %128

95:                                               ; preds = %89, %89, %89
  %96 = icmp eq i32 %32, 1
  br i1 %96, label %128, label %97

97:                                               ; preds = %95
  %98 = getelementptr inbounds %struct.TfLiteContext, %struct.TfLiteContext* %0, i64 0, i32 5
  %99 = load void (%struct.TfLiteContext*, i8*, ...)*, void (%struct.TfLiteContext*, i8*, ...)** %98, align 8
  tail call void (%struct.TfLiteContext*, i8*, ...) %99(%struct.TfLiteContext* %0, i8* getelementptr inbounds ([26 x i8], [26 x i8]* @.str.5, i64 0, i64 0), i8* getelementptr inbounds ([72 x i8], [72 x i8]* @.str.3, i64 0, i64 0), i32 119, i8* getelementptr inbounds ([21 x i8], [21 x i8]* @.str.24, i64 0, i64 0), i8* getelementptr inbounds ([5 x i8], [5 x i8]* @.str.25, i64 0, i64 0), i32 %32, i32 1) #19
  br label %128

100:                                              ; preds = %30
  %101 = icmp eq i32 %34, 1
  br i1 %101, label %107, label %102

102:                                              ; preds = %100
  %103 = getelementptr inbounds %struct.TfLiteContext, %struct.TfLiteContext* %0, i64 0, i32 5
  %104 = load void (%struct.TfLiteContext*, i8*, ...)*, void (%struct.TfLiteContext*, i8*, ...)** %103, align 8
  %105 = tail call i8* @TfLiteTypeGetName(i32 %34) #19
  %106 = tail call i8* @TfLiteTypeGetName(i32 1) #19
  tail call void (%struct.TfLiteContext*, i8*, ...) %104(%struct.TfLiteContext* %0, i8* getelementptr inbounds ([26 x i8], [26 x i8]* @.str.18, i64 0, i64 0), i8* getelementptr inbounds ([72 x i8], [72 x i8]* @.str.3, i64 0, i64 0), i32 123, i8* getelementptr inbounds ([12 x i8], [12 x i8]* @.str.19, i64 0, i64 0), i8* getelementptr inbounds ([15 x i8], [15 x i8]* @.str.26, i64 0, i64 0), i8* %105, i8* %106) #19
  br label %128

107:                                              ; preds = %100
  %108 = getelementptr inbounds %struct.TfLiteTensor, %struct.TfLiteTensor* %4, i64 0, i32 0
  %109 = load i32, i32* %108, align 8
  %110 = icmp eq i32 %109, 1
  br i1 %110, label %116, label %111

111:                                              ; preds = %107
  %112 = getelementptr inbounds %struct.TfLiteContext, %struct.TfLiteContext* %0, i64 0, i32 5
  %113 = load void (%struct.TfLiteContext*, i8*, ...)*, void (%struct.TfLiteContext*, i8*, ...)** %112, align 8
  %114 = tail call i8* @TfLiteTypeGetName(i32 %109) #19
  %115 = tail call i8* @TfLiteTypeGetName(i32 1) #19
  tail call void (%struct.TfLiteContext*, i8*, ...) %113(%struct.TfLiteContext* %0, i8* getelementptr inbounds ([26 x i8], [26 x i8]* @.str.18, i64 0, i64 0), i8* getelementptr inbounds ([72 x i8], [72 x i8]* @.str.3, i64 0, i64 0), i32 124, i8* getelementptr inbounds ([13 x i8], [13 x i8]* @.str.22, i64 0, i64 0), i8* getelementptr inbounds ([15 x i8], [15 x i8]* @.str.26, i64 0, i64 0), i8* %114, i8* %115) #19
  br label %128

116:                                              ; preds = %107
  %117 = icmp eq i32 %8, 1
  br i1 %117, label %123, label %118

118:                                              ; preds = %116
  %119 = getelementptr inbounds %struct.TfLiteContext, %struct.TfLiteContext* %0, i64 0, i32 5
  %120 = load void (%struct.TfLiteContext*, i8*, ...)*, void (%struct.TfLiteContext*, i8*, ...)** %119, align 8
  %121 = tail call i8* @TfLiteTypeGetName(i32 %8) #19
  %122 = tail call i8* @TfLiteTypeGetName(i32 1) #19
  tail call void (%struct.TfLiteContext*, i8*, ...) %120(%struct.TfLiteContext* %0, i8* getelementptr inbounds ([26 x i8], [26 x i8]* @.str.18, i64 0, i64 0), i8* getelementptr inbounds ([72 x i8], [72 x i8]* @.str.3, i64 0, i64 0), i32 125, i8* getelementptr inbounds ([13 x i8], [13 x i8]* @.str.21, i64 0, i64 0), i8* getelementptr inbounds ([15 x i8], [15 x i8]* @.str.26, i64 0, i64 0), i8* %121, i8* %122) #19
  br label %128

123:                                              ; preds = %116
  %124 = icmp eq i32 %31, 1
  br i1 %124, label %128, label %125

125:                                              ; preds = %123
  %126 = getelementptr inbounds %struct.TfLiteContext, %struct.TfLiteContext* %0, i64 0, i32 5
  %127 = load void (%struct.TfLiteContext*, i8*, ...)*, void (%struct.TfLiteContext*, i8*, ...)** %126, align 8
  tail call void (%struct.TfLiteContext*, i8*, ...) %127(%struct.TfLiteContext* %0, i8* getelementptr inbounds ([26 x i8], [26 x i8]* @.str.5, i64 0, i64 0), i8* getelementptr inbounds ([72 x i8], [72 x i8]* @.str.3, i64 0, i64 0), i32 126, i8* getelementptr inbounds ([23 x i8], [23 x i8]* @.str.27, i64 0, i64 0), i8* getelementptr inbounds ([5 x i8], [5 x i8]* @.str.25, i64 0, i64 0), i32 %31, i32 1) #19
  br label %128

128:                                              ; preds = %123, %95, %80, %58, %125, %118, %111, %102, %97, %92, %86, %82, %75, %66, %60, %53, %44, %38
  %129 = phi i32 [ 1, %38 ], [ 1, %44 ], [ 1, %53 ], [ 1, %60 ], [ 1, %66 ], [ 1, %75 ], [ 1, %82 ], [ 1, %97 ], [ 1, %92 ], [ 1, %86 ], [ 1, %102 ], [ 1, %111 ], [ 1, %118 ], [ 1, %125 ], [ 0, %58 ], [ 0, %80 ], [ 0, %95 ], [ 0, %123 ]
  ret i32 %129
}

declare i32 @_ZN6tflite32GetQuantizedConvolutionMultiplerEP13TfLiteContextPK12TfLiteTensorS4_S4_PS2_Pd(%struct.TfLiteContext*, %struct.TfLiteTensor*, %struct.TfLiteTensor*, %struct.TfLiteTensor*, %struct.TfLiteTensor*, double*) local_unnamed_addr #5

declare void @_ZN6tflite18QuantizeMultiplierEdPiS0_(double, i32*, i32*) local_unnamed_addr #5

declare i32 @_ZN6tflite33CalculateActivationRangeQuantizedEP13TfLiteContext21TfLiteFusedActivationP12TfLiteTensorPiS5_(%struct.TfLiteContext*, i32, %struct.TfLiteTensor*, i32*, i32*) local_unnamed_addr #5

declare void @TfLiteIntArrayFree(%struct.TfLiteIntArray*) local_unnamed_addr #5

declare %struct.TfLiteIntArray* @TfLiteIntArrayCreate(i32) local_unnamed_addr #5

declare %struct.TfLiteIntArray* @TfLiteIntArrayCopy(%struct.TfLiteIntArray*) local_unnamed_addr #5

declare i32 @TfLiteIntArrayEqualsArray(%struct.TfLiteIntArray*, i32, i32*) local_unnamed_addr #5

; Function Attrs: nounwind ssp uwtable
define hidden i32 @_ZN6tflite3ops7builtin15fully_connected7EvalPieEP13TfLiteContextP10TfLiteNodeP26TfLiteFullyConnectedParamsPNS2_6OpDataEPK12TfLiteTensorSD_SD_PSB_(%struct.TfLiteContext* nocapture readnone, %struct.TfLiteNode* nocapture readnone, %struct.TfLiteFullyConnectedParams* nocapture readonly, %"struct.tflite::ops::builtin::fully_connected::OpData"* nocapture readnone, %struct.TfLiteTensor* readonly, %struct.TfLiteTensor* readonly, %struct.TfLiteTensor* readonly, %struct.TfLiteTensor* readonly) local_unnamed_addr #1 {
  %9 = getelementptr inbounds %struct.TfLiteTensor, %struct.TfLiteTensor* %4, i64 0, i32 2
  %10 = load %struct.TfLiteIntArray*, %struct.TfLiteIntArray** %9, align 8
  %11 = getelementptr inbounds %struct.TfLiteIntArray, %struct.TfLiteIntArray* %10, i64 0, i32 0
  %12 = load i32, i32* %11, align 4
  %13 = icmp sgt i32 %12, 0
  br i1 %13, label %14, label %105

14:                                               ; preds = %8
  %15 = sext i32 %12 to i64
  %16 = icmp ult i32 %12, 8
  br i1 %16, label %17, label %20

17:                                               ; preds = %95, %14
  %18 = phi i64 [ 0, %14 ], [ %21, %95 ]
  %19 = phi i32 [ 1, %14 ], [ %103, %95 ]
  br label %115

20:                                               ; preds = %14
  %21 = and i64 %15, -8
  %22 = add nsw i64 %21, -8
  %23 = lshr exact i64 %22, 3
  %24 = add nuw nsw i64 %23, 1
  %25 = and i64 %24, 3
  %26 = icmp ult i64 %22, 24
  br i1 %26, label %72, label %27

27:                                               ; preds = %20
  %28 = sub nsw i64 %24, %25
  br label %29

29:                                               ; preds = %29, %27
  %30 = phi i64 [ 0, %27 ], [ %69, %29 ]
  %31 = phi <4 x i32> [ <i32 1, i32 1, i32 1, i32 1>, %27 ], [ %67, %29 ]
  %32 = phi <4 x i32> [ <i32 1, i32 1, i32 1, i32 1>, %27 ], [ %68, %29 ]
  %33 = phi i64 [ %28, %27 ], [ %70, %29 ]
  %34 = getelementptr inbounds %struct.TfLiteIntArray, %struct.TfLiteIntArray* %10, i64 0, i32 1, i64 %30
  %35 = bitcast i32* %34 to <4 x i32>*
  %36 = load <4 x i32>, <4 x i32>* %35, align 4
  %37 = getelementptr inbounds i32, i32* %34, i64 4
  %38 = bitcast i32* %37 to <4 x i32>*
  %39 = load <4 x i32>, <4 x i32>* %38, align 4
  %40 = mul nsw <4 x i32> %36, %31
  %41 = mul nsw <4 x i32> %39, %32
  %42 = or i64 %30, 8
  %43 = getelementptr inbounds %struct.TfLiteIntArray, %struct.TfLiteIntArray* %10, i64 0, i32 1, i64 %42
  %44 = bitcast i32* %43 to <4 x i32>*
  %45 = load <4 x i32>, <4 x i32>* %44, align 4
  %46 = getelementptr inbounds i32, i32* %43, i64 4
  %47 = bitcast i32* %46 to <4 x i32>*
  %48 = load <4 x i32>, <4 x i32>* %47, align 4
  %49 = mul nsw <4 x i32> %45, %40
  %50 = mul nsw <4 x i32> %48, %41
  %51 = or i64 %30, 16
  %52 = getelementptr inbounds %struct.TfLiteIntArray, %struct.TfLiteIntArray* %10, i64 0, i32 1, i64 %51
  %53 = bitcast i32* %52 to <4 x i32>*
  %54 = load <4 x i32>, <4 x i32>* %53, align 4
  %55 = getelementptr inbounds i32, i32* %52, i64 4
  %56 = bitcast i32* %55 to <4 x i32>*
  %57 = load <4 x i32>, <4 x i32>* %56, align 4
  %58 = mul nsw <4 x i32> %54, %49
  %59 = mul nsw <4 x i32> %57, %50
  %60 = or i64 %30, 24
  %61 = getelementptr inbounds %struct.TfLiteIntArray, %struct.TfLiteIntArray* %10, i64 0, i32 1, i64 %60
  %62 = bitcast i32* %61 to <4 x i32>*
  %63 = load <4 x i32>, <4 x i32>* %62, align 4
  %64 = getelementptr inbounds i32, i32* %61, i64 4
  %65 = bitcast i32* %64 to <4 x i32>*
  %66 = load <4 x i32>, <4 x i32>* %65, align 4
  %67 = mul nsw <4 x i32> %63, %58
  %68 = mul nsw <4 x i32> %66, %59
  %69 = add i64 %30, 32
  %70 = add i64 %33, -4
  %71 = icmp eq i64 %70, 0
  br i1 %71, label %72, label %29, !llvm.loop !11

72:                                               ; preds = %29, %20
  %73 = phi <4 x i32> [ undef, %20 ], [ %67, %29 ]
  %74 = phi <4 x i32> [ undef, %20 ], [ %68, %29 ]
  %75 = phi i64 [ 0, %20 ], [ %69, %29 ]
  %76 = phi <4 x i32> [ <i32 1, i32 1, i32 1, i32 1>, %20 ], [ %67, %29 ]
  %77 = phi <4 x i32> [ <i32 1, i32 1, i32 1, i32 1>, %20 ], [ %68, %29 ]
  %78 = icmp eq i64 %25, 0
  br i1 %78, label %95, label %79

79:                                               ; preds = %72, %79
  %80 = phi i64 [ %92, %79 ], [ %75, %72 ]
  %81 = phi <4 x i32> [ %90, %79 ], [ %76, %72 ]
  %82 = phi <4 x i32> [ %91, %79 ], [ %77, %72 ]
  %83 = phi i64 [ %93, %79 ], [ %25, %72 ]
  %84 = getelementptr inbounds %struct.TfLiteIntArray, %struct.TfLiteIntArray* %10, i64 0, i32 1, i64 %80
  %85 = bitcast i32* %84 to <4 x i32>*
  %86 = load <4 x i32>, <4 x i32>* %85, align 4
  %87 = getelementptr inbounds i32, i32* %84, i64 4
  %88 = bitcast i32* %87 to <4 x i32>*
  %89 = load <4 x i32>, <4 x i32>* %88, align 4
  %90 = mul nsw <4 x i32> %86, %81
  %91 = mul nsw <4 x i32> %89, %82
  %92 = add i64 %80, 8
  %93 = add i64 %83, -1
  %94 = icmp eq i64 %93, 0
  br i1 %94, label %95, label %79, !llvm.loop !12

95:                                               ; preds = %79, %72
  %96 = phi <4 x i32> [ %73, %72 ], [ %90, %79 ]
  %97 = phi <4 x i32> [ %74, %72 ], [ %91, %79 ]
  %98 = mul <4 x i32> %97, %96
  %99 = shufflevector <4 x i32> %98, <4 x i32> undef, <4 x i32> <i32 2, i32 3, i32 undef, i32 undef>
  %100 = mul <4 x i32> %98, %99
  %101 = shufflevector <4 x i32> %100, <4 x i32> undef, <4 x i32> <i32 1, i32 undef, i32 undef, i32 undef>
  %102 = mul <4 x i32> %100, %101
  %103 = extractelement <4 x i32> %102, i32 0
  %104 = icmp eq i64 %21, %15
  br i1 %104, label %105, label %17

105:                                              ; preds = %115, %95, %8
  %106 = phi i32 [ 1, %8 ], [ %103, %95 ], [ %120, %115 ]
  %107 = getelementptr inbounds %struct.TfLiteTensor, %struct.TfLiteTensor* %5, i64 0, i32 2
  %108 = load %struct.TfLiteIntArray*, %struct.TfLiteIntArray** %107, align 8
  %109 = getelementptr inbounds %struct.TfLiteIntArray, %struct.TfLiteIntArray* %108, i64 0, i32 1, i64 1
  %110 = load i32, i32* %109, align 4
  %111 = sdiv i32 %106, %110
  %112 = getelementptr inbounds %struct.TfLiteIntArray, %struct.TfLiteIntArray* %108, i64 0, i32 1, i64 0
  %113 = load i32, i32* %112, align 4
  %114 = icmp eq %struct.TfLiteTensor* %6, null
  br i1 %114, label %164, label %123

115:                                              ; preds = %17, %115
  %116 = phi i64 [ %121, %115 ], [ %18, %17 ]
  %117 = phi i32 [ %120, %115 ], [ %19, %17 ]
  %118 = getelementptr inbounds %struct.TfLiteIntArray, %struct.TfLiteIntArray* %10, i64 0, i32 1, i64 %116
  %119 = load i32, i32* %118, align 4
  %120 = mul nsw i32 %119, %117
  %121 = add nuw nsw i64 %116, 1
  %122 = icmp slt i64 %121, %15
  br i1 %122, label %115, label %105, !llvm.loop !13

123:                                              ; preds = %105
  %124 = getelementptr inbounds %struct.TfLiteTensor, %struct.TfLiteTensor* %6, i64 0, i32 1
  %125 = bitcast %union.TfLitePtrUnion* %124 to i8**
  %126 = load i8*, i8** %125, align 8
  %127 = icmp eq %struct.TfLiteTensor* %7, null
  br i1 %127, label %132, label %128

128:                                              ; preds = %123
  %129 = getelementptr inbounds %struct.TfLiteTensor, %struct.TfLiteTensor* %7, i64 0, i32 1
  %130 = bitcast %union.TfLitePtrUnion* %129 to float**
  %131 = load float*, float** %130, align 8
  br label %132

132:                                              ; preds = %123, %128
  %133 = phi float* [ %131, %128 ], [ null, %123 ]
  %134 = icmp sgt i32 %111, 0
  br i1 %134, label %135, label %191

135:                                              ; preds = %132
  %136 = icmp eq i32 %113, 0
  %137 = sext i32 %113 to i64
  %138 = shl nuw nsw i64 %137, 2
  %139 = zext i32 %111 to i64
  %140 = add nsw i64 %139, -1
  %141 = and i64 %139, 3
  %142 = icmp ult i64 %140, 3
  br i1 %142, label %177, label %143

143:                                              ; preds = %135
  %144 = sub nsw i64 %139, %141
  br label %145

145:                                              ; preds = %218, %143
  %146 = phi i64 [ 0, %143 ], [ %219, %218 ]
  %147 = phi i64 [ %144, %143 ], [ %220, %218 ]
  br i1 %136, label %218, label %148

148:                                              ; preds = %145
  %149 = mul nsw i64 %146, %137
  %150 = getelementptr inbounds float, float* %133, i64 %149
  %151 = bitcast float* %150 to i8*
  tail call void @llvm.memmove.p0i8.p0i8.i64(i8* align 4 %151, i8* align 4 %126, i64 %138, i1 false) #19
  %152 = or i64 %146, 1
  %153 = mul nsw i64 %152, %137
  %154 = getelementptr inbounds float, float* %133, i64 %153
  %155 = bitcast float* %154 to i8*
  tail call void @llvm.memmove.p0i8.p0i8.i64(i8* align 4 %155, i8* align 4 %126, i64 %138, i1 false) #19
  %156 = or i64 %146, 2
  %157 = mul nsw i64 %156, %137
  %158 = getelementptr inbounds float, float* %133, i64 %157
  %159 = bitcast float* %158 to i8*
  tail call void @llvm.memmove.p0i8.p0i8.i64(i8* align 4 %159, i8* align 4 %126, i64 %138, i1 false) #19
  %160 = or i64 %146, 3
  %161 = mul nsw i64 %160, %137
  %162 = getelementptr inbounds float, float* %133, i64 %161
  %163 = bitcast float* %162 to i8*
  tail call void @llvm.memmove.p0i8.p0i8.i64(i8* align 4 %163, i8* align 4 %126, i64 %138, i1 false) #19
  br label %218

164:                                              ; preds = %105
  %165 = icmp eq %struct.TfLiteTensor* %7, null
  br i1 %165, label %170, label %166

166:                                              ; preds = %164
  %167 = getelementptr inbounds %struct.TfLiteTensor, %struct.TfLiteTensor* %7, i64 0, i32 1
  %168 = bitcast %union.TfLitePtrUnion* %167 to i8**
  %169 = load i8*, i8** %168, align 8
  br label %170

170:                                              ; preds = %164, %166
  %171 = phi i8* [ %169, %166 ], [ null, %164 ]
  %172 = mul i32 %113, %111
  %173 = icmp sgt i32 %172, 0
  br i1 %173, label %174, label %191

174:                                              ; preds = %170
  %175 = zext i32 %172 to i64
  %176 = shl nuw nsw i64 %175, 2
  call void @llvm.memset.p0i8.i64(i8* align 4 %171, i8 0, i64 %176, i1 false)
  br label %191

177:                                              ; preds = %218, %135
  %178 = phi i64 [ 0, %135 ], [ %219, %218 ]
  %179 = icmp eq i64 %141, 0
  br i1 %179, label %191, label %180

180:                                              ; preds = %177, %187
  %181 = phi i64 [ %188, %187 ], [ %178, %177 ]
  %182 = phi i64 [ %189, %187 ], [ %141, %177 ]
  br i1 %136, label %187, label %183

183:                                              ; preds = %180
  %184 = mul nsw i64 %181, %137
  %185 = getelementptr inbounds float, float* %133, i64 %184
  %186 = bitcast float* %185 to i8*
  tail call void @llvm.memmove.p0i8.p0i8.i64(i8* align 4 %186, i8* align 4 %126, i64 %138, i1 false) #19
  br label %187

187:                                              ; preds = %183, %180
  %188 = add nuw nsw i64 %181, 1
  %189 = add i64 %182, -1
  %190 = icmp eq i64 %189, 0
  br i1 %190, label %191, label %180, !llvm.loop !14

191:                                              ; preds = %177, %187, %174, %170, %132
  %192 = icmp eq %struct.TfLiteTensor* %5, null
  br i1 %192, label %197, label %193

193:                                              ; preds = %191
  %194 = getelementptr inbounds %struct.TfLiteTensor, %struct.TfLiteTensor* %5, i64 0, i32 1
  %195 = bitcast %union.TfLitePtrUnion* %194 to float**
  %196 = load float*, float** %195, align 8
  br label %197

197:                                              ; preds = %191, %193
  %198 = phi float* [ %196, %193 ], [ null, %191 ]
  %199 = icmp eq %struct.TfLiteTensor* %4, null
  br i1 %199, label %204, label %200

200:                                              ; preds = %197
  %201 = getelementptr inbounds %struct.TfLiteTensor, %struct.TfLiteTensor* %4, i64 0, i32 1
  %202 = bitcast %union.TfLitePtrUnion* %201 to float**
  %203 = load float*, float** %202, align 8
  br label %204

204:                                              ; preds = %197, %200
  %205 = phi float* [ %203, %200 ], [ null, %197 ]
  %206 = icmp eq %struct.TfLiteTensor* %7, null
  br i1 %206, label %207, label %208

207:                                              ; preds = %204
  tail call void @_ZN6tflite12tensor_utils35MatrixBatchVectorMultiplyAccumulateEPKfiiS2_iPf(float* %198, i32 %113, i32 %110, float* %205, i32 %111, float* null) #19
  br label %213

208:                                              ; preds = %204
  %209 = getelementptr inbounds %struct.TfLiteTensor, %struct.TfLiteTensor* %7, i64 0, i32 1
  %210 = bitcast %union.TfLitePtrUnion* %209 to float**
  %211 = load float*, float** %210, align 8
  tail call void @_ZN6tflite12tensor_utils35MatrixBatchVectorMultiplyAccumulateEPKfiiS2_iPf(float* %198, i32 %113, i32 %110, float* %205, i32 %111, float* %211) #19
  %212 = load float*, float** %210, align 8
  br label %213

213:                                              ; preds = %207, %208
  %214 = phi float* [ %212, %208 ], [ null, %207 ]
  %215 = getelementptr inbounds %struct.TfLiteFullyConnectedParams, %struct.TfLiteFullyConnectedParams* %2, i64 0, i32 0
  %216 = mul nsw i32 %113, %111
  %217 = load i32, i32* %215, align 4
  tail call void @_ZN6tflite12tensor_utils23ApplyActivationToVectorEPKfi21TfLiteFusedActivationPf(float* %214, i32 %216, i32 %217, float* %214)
  ret i32 0

218:                                              ; preds = %145, %148
  %219 = add nuw nsw i64 %146, 4
  %220 = add i64 %147, -4
  %221 = icmp eq i64 %220, 0
  br i1 %221, label %177, label %145
}

declare void @_ZN6tflite12tensor_utils35MatrixBatchVectorMultiplyAccumulateEPKfiiS2_iPf(float*, i32, i32, float*, i32, float*) local_unnamed_addr #5

; Function Attrs: inlinehint nounwind ssp uwtable
define linkonce_odr hidden void @_ZN6tflite12tensor_utils23ApplyActivationToVectorEPKfi21TfLiteFusedActivationPf(float* noalias, i32, i32, float* noalias) local_unnamed_addr #4 comdat {
  %5 = alloca float, align 4
  %6 = alloca float, align 4
  %7 = alloca %"struct.Eigen::internal::evaluator", align 8
  %8 = alloca %"struct.Eigen::internal::evaluator.35", align 8
  %9 = alloca %"class.Eigen::internal::generic_dense_assignment_kernel", align 8
  %10 = alloca %"struct.Eigen::internal::assign_op", align 1
  %11 = alloca %"class.Eigen::ArrayWrapper", align 8
  %12 = alloca float, align 4
  %13 = alloca float, align 4
  %14 = alloca %"struct.Eigen::internal::assign_op", align 1
  %15 = alloca %"class.Eigen::CwiseUnaryOp.42", align 8
  %16 = alloca %"class.Eigen::ArrayWrapper", align 8
  %17 = alloca float, align 4
  switch i32 %2, label %283 [
    i32 6, label %232
    i32 1, label %18
    i32 2, label %50
    i32 3, label %89
    i32 4, label %128
    i32 5, label %151
  ]

18:                                               ; preds = %4
  %19 = icmp sgt i32 %1, 0
  br i1 %19, label %20, label %283

20:                                               ; preds = %18
  %21 = zext i32 %1 to i64
  %22 = bitcast float* %17 to i8*
  %23 = and i64 %21, 1
  %24 = icmp eq i32 %1, 1
  br i1 %24, label %241, label %25

25:                                               ; preds = %20
  %26 = sub nsw i64 %21, %23
  br label %27

27:                                               ; preds = %27, %25
  %28 = phi i64 [ 0, %25 ], [ %47, %27 ]
  %29 = phi i64 [ %26, %25 ], [ %48, %27 ]
  call void @llvm.lifetime.start.p0i8(i64 4, i8* nonnull %22)
  store float 0.000000e+00, float* %17, align 4, !noalias !15
  %30 = getelementptr inbounds float, float* %0, i64 %28
  %31 = load float, float* %30, align 4, !alias.scope !19, !noalias !20
  %32 = fcmp ogt float %31, 0.000000e+00
  %33 = select i1 %32, float* %30, float* %17
  %34 = bitcast float* %33 to i32*
  %35 = load i32, i32* %34, align 4, !noalias !20
  %36 = getelementptr inbounds float, float* %3, i64 %28
  %37 = bitcast float* %36 to i32*
  store i32 %35, i32* %37, align 4, !alias.scope !20, !noalias !19
  call void @llvm.lifetime.end.p0i8(i64 4, i8* nonnull %22)
  %38 = or i64 %28, 1
  call void @llvm.lifetime.start.p0i8(i64 4, i8* nonnull %22)
  store float 0.000000e+00, float* %17, align 4, !noalias !15
  %39 = getelementptr inbounds float, float* %0, i64 %38
  %40 = load float, float* %39, align 4, !alias.scope !19, !noalias !20
  %41 = fcmp ogt float %40, 0.000000e+00
  %42 = select i1 %41, float* %39, float* %17
  %43 = bitcast float* %42 to i32*
  %44 = load i32, i32* %43, align 4, !noalias !20
  %45 = getelementptr inbounds float, float* %3, i64 %38
  %46 = bitcast float* %45 to i32*
  store i32 %44, i32* %46, align 4, !alias.scope !20, !noalias !19
  call void @llvm.lifetime.end.p0i8(i64 4, i8* nonnull %22)
  %47 = add nuw nsw i64 %28, 2
  %48 = add i64 %29, -2
  %49 = icmp eq i64 %48, 0
  br i1 %49, label %241, label %27

50:                                               ; preds = %4
  %51 = icmp sgt i32 %1, 0
  br i1 %51, label %52, label %283

52:                                               ; preds = %50
  %53 = zext i32 %1 to i64
  %54 = bitcast float* %12 to i8*
  %55 = bitcast float* %13 to i8*
  %56 = and i64 %53, 1
  %57 = icmp eq i32 %1, 1
  br i1 %57, label %253, label %58

58:                                               ; preds = %52
  %59 = sub nsw i64 %53, %56
  br label %60

60:                                               ; preds = %60, %58
  %61 = phi i64 [ 0, %58 ], [ %86, %60 ]
  %62 = phi i64 [ %59, %58 ], [ %87, %60 ]
  call void @llvm.lifetime.start.p0i8(i64 4, i8* nonnull %54)
  store float -1.000000e+00, float* %12, align 4, !noalias !21
  %63 = getelementptr inbounds float, float* %0, i64 %61
  call void @llvm.lifetime.start.p0i8(i64 4, i8* nonnull %55)
  store float 1.000000e+00, float* %13, align 4, !noalias !21
  %64 = load float, float* %63, align 4, !alias.scope !25, !noalias !26
  %65 = fcmp ogt float %64, 1.000000e+00
  %66 = select i1 %65, float* %13, float* %63
  %67 = load float, float* %66, align 4, !noalias !26
  %68 = fcmp ogt float %67, -1.000000e+00
  %69 = select i1 %68, float* %66, float* %12
  %70 = bitcast float* %69 to i32*
  %71 = load i32, i32* %70, align 4, !noalias !26
  %72 = getelementptr inbounds float, float* %3, i64 %61
  %73 = bitcast float* %72 to i32*
  store i32 %71, i32* %73, align 4, !alias.scope !26, !noalias !25
  call void @llvm.lifetime.end.p0i8(i64 4, i8* nonnull %55)
  call void @llvm.lifetime.end.p0i8(i64 4, i8* nonnull %54)
  %74 = or i64 %61, 1
  call void @llvm.lifetime.start.p0i8(i64 4, i8* nonnull %54)
  store float -1.000000e+00, float* %12, align 4, !noalias !21
  %75 = getelementptr inbounds float, float* %0, i64 %74
  call void @llvm.lifetime.start.p0i8(i64 4, i8* nonnull %55)
  store float 1.000000e+00, float* %13, align 4, !noalias !21
  %76 = load float, float* %75, align 4, !alias.scope !25, !noalias !26
  %77 = fcmp ogt float %76, 1.000000e+00
  %78 = select i1 %77, float* %13, float* %75
  %79 = load float, float* %78, align 4, !noalias !26
  %80 = fcmp ogt float %79, -1.000000e+00
  %81 = select i1 %80, float* %78, float* %12
  %82 = bitcast float* %81 to i32*
  %83 = load i32, i32* %82, align 4, !noalias !26
  %84 = getelementptr inbounds float, float* %3, i64 %74
  %85 = bitcast float* %84 to i32*
  store i32 %83, i32* %85, align 4, !alias.scope !26, !noalias !25
  call void @llvm.lifetime.end.p0i8(i64 4, i8* nonnull %55)
  call void @llvm.lifetime.end.p0i8(i64 4, i8* nonnull %54)
  %86 = add nuw nsw i64 %61, 2
  %87 = add i64 %62, -2
  %88 = icmp eq i64 %87, 0
  br i1 %88, label %253, label %60

89:                                               ; preds = %4
  %90 = icmp sgt i32 %1, 0
  br i1 %90, label %91, label %283

91:                                               ; preds = %89
  %92 = zext i32 %1 to i64
  %93 = bitcast float* %5 to i8*
  %94 = bitcast float* %6 to i8*
  %95 = and i64 %92, 1
  %96 = icmp eq i32 %1, 1
  br i1 %96, label %268, label %97

97:                                               ; preds = %91
  %98 = sub nsw i64 %92, %95
  br label %99

99:                                               ; preds = %99, %97
  %100 = phi i64 [ 0, %97 ], [ %125, %99 ]
  %101 = phi i64 [ %98, %97 ], [ %126, %99 ]
  call void @llvm.lifetime.start.p0i8(i64 4, i8* nonnull %93)
  store float 0.000000e+00, float* %5, align 4, !noalias !27
  %102 = getelementptr inbounds float, float* %0, i64 %100
  call void @llvm.lifetime.start.p0i8(i64 4, i8* nonnull %94)
  store float 6.000000e+00, float* %6, align 4, !noalias !27
  %103 = load float, float* %102, align 4, !alias.scope !31, !noalias !32
  %104 = fcmp ogt float %103, 6.000000e+00
  %105 = select i1 %104, float* %6, float* %102
  %106 = load float, float* %105, align 4, !noalias !32
  %107 = fcmp ogt float %106, 0.000000e+00
  %108 = select i1 %107, float* %105, float* %5
  %109 = bitcast float* %108 to i32*
  %110 = load i32, i32* %109, align 4, !noalias !32
  %111 = getelementptr inbounds float, float* %3, i64 %100
  %112 = bitcast float* %111 to i32*
  store i32 %110, i32* %112, align 4, !alias.scope !32, !noalias !31
  call void @llvm.lifetime.end.p0i8(i64 4, i8* nonnull %94)
  call void @llvm.lifetime.end.p0i8(i64 4, i8* nonnull %93)
  %113 = or i64 %100, 1
  call void @llvm.lifetime.start.p0i8(i64 4, i8* nonnull %93)
  store float 0.000000e+00, float* %5, align 4, !noalias !27
  %114 = getelementptr inbounds float, float* %0, i64 %113
  call void @llvm.lifetime.start.p0i8(i64 4, i8* nonnull %94)
  store float 6.000000e+00, float* %6, align 4, !noalias !27
  %115 = load float, float* %114, align 4, !alias.scope !31, !noalias !32
  %116 = fcmp ogt float %115, 6.000000e+00
  %117 = select i1 %116, float* %6, float* %114
  %118 = load float, float* %117, align 4, !noalias !32
  %119 = fcmp ogt float %118, 0.000000e+00
  %120 = select i1 %119, float* %117, float* %5
  %121 = bitcast float* %120 to i32*
  %122 = load i32, i32* %121, align 4, !noalias !32
  %123 = getelementptr inbounds float, float* %3, i64 %113
  %124 = bitcast float* %123 to i32*
  store i32 %122, i32* %124, align 4, !alias.scope !32, !noalias !31
  call void @llvm.lifetime.end.p0i8(i64 4, i8* nonnull %94)
  call void @llvm.lifetime.end.p0i8(i64 4, i8* nonnull %93)
  %125 = add nuw nsw i64 %100, 2
  %126 = add i64 %101, -2
  %127 = icmp eq i64 %126, 0
  br i1 %127, label %268, label %99

128:                                              ; preds = %4
  %129 = sext i32 %1 to i64
  %130 = ptrtoint float* %0 to i64
  %131 = bitcast %"class.Eigen::ArrayWrapper"* %11 to i8*
  call void @llvm.lifetime.start.p0i8(i64 24, i8* nonnull %131) #19, !noalias !33
  %132 = getelementptr inbounds %"class.Eigen::ArrayWrapper", %"class.Eigen::ArrayWrapper"* %11, i64 0, i32 0, i32 0, i32 0, i32 0
  store float* %3, float** %132, align 8, !noalias !33
  %133 = getelementptr inbounds %"class.Eigen::ArrayWrapper", %"class.Eigen::ArrayWrapper"* %11, i64 0, i32 0, i32 0, i32 0, i32 1, i32 0
  store i64 %129, i64* %133, align 8, !noalias !33
  %134 = getelementptr inbounds %"struct.Eigen::internal::assign_op", %"struct.Eigen::internal::assign_op"* %10, i64 0, i32 0
  call void @llvm.lifetime.start.p0i8(i64 1, i8* nonnull %134) #19, !noalias !33
  %135 = bitcast %"struct.Eigen::internal::evaluator"* %7 to i8*
  call void @llvm.lifetime.start.p0i8(i64 24, i8* nonnull %135) #19, !noalias !33
  %136 = getelementptr inbounds %"struct.Eigen::internal::evaluator", %"struct.Eigen::internal::evaluator"* %7, i64 0, i32 0, i32 0, i32 0, i32 0, i32 0, i32 0, i32 0, i32 0, i32 1, i32 0
  %137 = bitcast i8* %136 to i64*
  store i64 -6148914691236517206, i64* %137, align 8, !noalias !33
  %138 = bitcast %"struct.Eigen::internal::evaluator"* %7 to i64*
  store i64 %130, i64* %138, align 8, !noalias !33
  %139 = getelementptr inbounds %"struct.Eigen::internal::evaluator", %"struct.Eigen::internal::evaluator"* %7, i64 0, i32 0, i32 0, i32 0, i32 0, i32 0, i32 0, i32 0, i32 0, i32 2, i32 0
  store i64 %129, i64* %139, align 8, !noalias !33
  %140 = bitcast %"struct.Eigen::internal::evaluator.35"* %8 to i8*
  call void @llvm.lifetime.start.p0i8(i64 24, i8* nonnull %140) #19, !noalias !33
  %141 = getelementptr inbounds %"struct.Eigen::internal::evaluator.35", %"struct.Eigen::internal::evaluator.35"* %8, i64 0, i32 0, i32 0, i32 0, i32 0, i32 1, i32 0
  %142 = bitcast i8* %141 to i64*
  store i64 -6148914691236517206, i64* %142, align 8, !noalias !33
  %143 = ptrtoint float* %3 to i64
  %144 = bitcast %"struct.Eigen::internal::evaluator.35"* %8 to i64*
  store i64 %143, i64* %144, align 8, !noalias !33
  %145 = getelementptr inbounds %"struct.Eigen::internal::evaluator.35", %"struct.Eigen::internal::evaluator.35"* %8, i64 0, i32 0, i32 0, i32 0, i32 0, i32 2, i32 0
  store i64 %129, i64* %145, align 8, !noalias !33
  %146 = bitcast %"class.Eigen::internal::generic_dense_assignment_kernel"* %9 to i8*
  call void @llvm.lifetime.start.p0i8(i64 32, i8* nonnull %146) #19, !noalias !33
  %147 = getelementptr inbounds %"class.Eigen::internal::generic_dense_assignment_kernel", %"class.Eigen::internal::generic_dense_assignment_kernel"* %9, i64 0, i32 0
  %148 = getelementptr inbounds %"class.Eigen::internal::generic_dense_assignment_kernel", %"class.Eigen::internal::generic_dense_assignment_kernel"* %9, i64 0, i32 1
  %149 = getelementptr inbounds %"class.Eigen::internal::generic_dense_assignment_kernel", %"class.Eigen::internal::generic_dense_assignment_kernel"* %9, i64 0, i32 2
  %150 = getelementptr inbounds %"class.Eigen::internal::generic_dense_assignment_kernel", %"class.Eigen::internal::generic_dense_assignment_kernel"* %9, i64 0, i32 3
  store %"struct.Eigen::internal::evaluator.35"* %8, %"struct.Eigen::internal::evaluator.35"** %147, align 8, !noalias !33
  store %"struct.Eigen::internal::evaluator"* %7, %"struct.Eigen::internal::evaluator"** %148, align 8, !noalias !33
  store %"struct.Eigen::internal::assign_op"* %10, %"struct.Eigen::internal::assign_op"** %149, align 8, !noalias !33
  store %"class.Eigen::ArrayWrapper"* %11, %"class.Eigen::ArrayWrapper"** %150, align 8, !noalias !33
  call void @_ZN5Eigen8internal21dense_assignment_loopINS0_31generic_dense_assignment_kernelINS0_9evaluatorINS_12ArrayWrapperINS_3MapINS_6MatrixIfLin1ELi1ELi0ELin1ELi1EEELi0ENS_6StrideILi0ELi0EEEEEEEEENS3_INS_12CwiseUnaryOpINS0_14scalar_tanh_opIfEEKSB_EEEENS0_9assign_opIffEELi0EEELi3ELi0EE3runERSL_(%"class.Eigen::internal::generic_dense_assignment_kernel"* nonnull dereferenceable(32) %9) #19
  call void @llvm.lifetime.end.p0i8(i64 32, i8* nonnull %146) #19, !noalias !33
  call void @llvm.lifetime.end.p0i8(i64 24, i8* nonnull %140) #19, !noalias !33
  call void @llvm.lifetime.end.p0i8(i64 24, i8* nonnull %135) #19, !noalias !33
  call void @llvm.lifetime.end.p0i8(i64 1, i8* nonnull %134) #19, !noalias !33
  call void @llvm.lifetime.end.p0i8(i64 24, i8* nonnull %131) #19, !noalias !33
  br label %283

151:                                              ; preds = %4
  %152 = icmp sgt i32 %1, 0
  br i1 %152, label %153, label %283

153:                                              ; preds = %151
  %154 = zext i32 %1 to i64
  %155 = icmp ult i32 %1, 8
  br i1 %155, label %220, label %156

156:                                              ; preds = %153
  %157 = and i64 %154, 4294967288
  %158 = add nsw i64 %157, -8
  %159 = lshr exact i64 %158, 3
  %160 = add nuw nsw i64 %159, 1
  %161 = and i64 %160, 1
  %162 = icmp eq i64 %158, 0
  br i1 %162, label %200, label %163

163:                                              ; preds = %156
  %164 = sub nuw nsw i64 %160, %161
  br label %165

165:                                              ; preds = %165, %163
  %166 = phi i64 [ 0, %163 ], [ %197, %165 ]
  %167 = phi i64 [ %164, %163 ], [ %198, %165 ]
  %168 = getelementptr inbounds float, float* %0, i64 %166
  %169 = bitcast float* %168 to <4 x i32>*
  %170 = load <4 x i32>, <4 x i32>* %169, align 4, !alias.scope !37, !noalias !40
  %171 = getelementptr inbounds float, float* %168, i64 4
  %172 = bitcast float* %171 to <4 x i32>*
  %173 = load <4 x i32>, <4 x i32>* %172, align 4, !alias.scope !37, !noalias !40
  %174 = icmp slt <4 x i32> %170, zeroinitializer
  %175 = icmp slt <4 x i32> %173, zeroinitializer
  %176 = uitofp <4 x i1> %174 to <4 x float>
  %177 = uitofp <4 x i1> %175 to <4 x float>
  %178 = getelementptr inbounds float, float* %3, i64 %166
  %179 = bitcast float* %178 to <4 x float>*
  store <4 x float> %176, <4 x float>* %179, align 4, !alias.scope !40, !noalias !37
  %180 = getelementptr inbounds float, float* %178, i64 4
  %181 = bitcast float* %180 to <4 x float>*
  store <4 x float> %177, <4 x float>* %181, align 4, !alias.scope !40, !noalias !37
  %182 = or i64 %166, 8
  %183 = getelementptr inbounds float, float* %0, i64 %182
  %184 = bitcast float* %183 to <4 x i32>*
  %185 = load <4 x i32>, <4 x i32>* %184, align 4, !alias.scope !37, !noalias !40
  %186 = getelementptr inbounds float, float* %183, i64 4
  %187 = bitcast float* %186 to <4 x i32>*
  %188 = load <4 x i32>, <4 x i32>* %187, align 4, !alias.scope !37, !noalias !40
  %189 = icmp slt <4 x i32> %185, zeroinitializer
  %190 = icmp slt <4 x i32> %188, zeroinitializer
  %191 = uitofp <4 x i1> %189 to <4 x float>
  %192 = uitofp <4 x i1> %190 to <4 x float>
  %193 = getelementptr inbounds float, float* %3, i64 %182
  %194 = bitcast float* %193 to <4 x float>*
  store <4 x float> %191, <4 x float>* %194, align 4, !alias.scope !40, !noalias !37
  %195 = getelementptr inbounds float, float* %193, i64 4
  %196 = bitcast float* %195 to <4 x float>*
  store <4 x float> %192, <4 x float>* %196, align 4, !alias.scope !40, !noalias !37
  %197 = add i64 %166, 16
  %198 = add i64 %167, -2
  %199 = icmp eq i64 %198, 0
  br i1 %199, label %200, label %165, !llvm.loop !42

200:                                              ; preds = %165, %156
  %201 = phi i64 [ 0, %156 ], [ %197, %165 ]
  %202 = icmp eq i64 %161, 0
  br i1 %202, label %218, label %203

203:                                              ; preds = %200
  %204 = getelementptr inbounds float, float* %0, i64 %201
  %205 = bitcast float* %204 to <4 x i32>*
  %206 = load <4 x i32>, <4 x i32>* %205, align 4, !alias.scope !37, !noalias !40
  %207 = getelementptr inbounds float, float* %204, i64 4
  %208 = bitcast float* %207 to <4 x i32>*
  %209 = load <4 x i32>, <4 x i32>* %208, align 4, !alias.scope !37, !noalias !40
  %210 = icmp slt <4 x i32> %206, zeroinitializer
  %211 = icmp slt <4 x i32> %209, zeroinitializer
  %212 = uitofp <4 x i1> %210 to <4 x float>
  %213 = uitofp <4 x i1> %211 to <4 x float>
  %214 = getelementptr inbounds float, float* %3, i64 %201
  %215 = bitcast float* %214 to <4 x float>*
  store <4 x float> %212, <4 x float>* %215, align 4, !alias.scope !40, !noalias !37
  %216 = getelementptr inbounds float, float* %214, i64 4
  %217 = bitcast float* %216 to <4 x float>*
  store <4 x float> %213, <4 x float>* %217, align 4, !alias.scope !40, !noalias !37
  br label %218

218:                                              ; preds = %200, %203
  %219 = icmp eq i64 %157, %154
  br i1 %219, label %283, label %220

220:                                              ; preds = %218, %153
  %221 = phi i64 [ 0, %153 ], [ %157, %218 ]
  br label %222

222:                                              ; preds = %220, %222
  %223 = phi i64 [ %230, %222 ], [ %221, %220 ]
  %224 = getelementptr inbounds float, float* %0, i64 %223
  %225 = bitcast float* %224 to i32*
  %226 = load i32, i32* %225, align 4, !alias.scope !37, !noalias !40
  %227 = icmp slt i32 %226, 0
  %228 = uitofp i1 %227 to float
  %229 = getelementptr inbounds float, float* %3, i64 %223
  store float %228, float* %229, align 4, !alias.scope !40, !noalias !37
  %230 = add nuw nsw i64 %223, 1
  %231 = icmp eq i64 %230, %154
  br i1 %231, label %283, label %222, !llvm.loop !43

232:                                              ; preds = %4
  %233 = sext i32 %1 to i64
  %234 = bitcast %"class.Eigen::CwiseUnaryOp.42"* %15 to i8*
  call void @llvm.lifetime.start.p0i8(i64 32, i8* nonnull %234) #19, !noalias !44
  %235 = getelementptr inbounds %"class.Eigen::CwiseUnaryOp.42", %"class.Eigen::CwiseUnaryOp.42"* %15, i64 0, i32 0, i32 0, i32 0, i32 0, i32 0
  store float* %0, float** %235, align 8, !noalias !44
  %236 = getelementptr inbounds %"class.Eigen::CwiseUnaryOp.42", %"class.Eigen::CwiseUnaryOp.42"* %15, i64 0, i32 0, i32 0, i32 0, i32 0, i32 1, i32 0
  store i64 %233, i64* %236, align 8, !noalias !44
  %237 = bitcast %"class.Eigen::ArrayWrapper"* %16 to i8*
  call void @llvm.lifetime.start.p0i8(i64 24, i8* nonnull %237) #19, !noalias !44
  %238 = getelementptr inbounds %"class.Eigen::ArrayWrapper", %"class.Eigen::ArrayWrapper"* %16, i64 0, i32 0, i32 0, i32 0, i32 0
  store float* %3, float** %238, align 8, !noalias !44
  %239 = getelementptr inbounds %"class.Eigen::ArrayWrapper", %"class.Eigen::ArrayWrapper"* %16, i64 0, i32 0, i32 0, i32 0, i32 1, i32 0
  store i64 %233, i64* %239, align 8, !noalias !44
  %240 = getelementptr inbounds %"struct.Eigen::internal::assign_op", %"struct.Eigen::internal::assign_op"* %14, i64 0, i32 0
  call void @llvm.lifetime.start.p0i8(i64 1, i8* nonnull %240) #19, !noalias !44
  call void @_ZN5Eigen8internal26call_dense_assignment_loopINS_12ArrayWrapperINS_3MapINS_6MatrixIfLin1ELi1ELi0ELin1ELi1EEELi0ENS_6StrideILi0ELi0EEEEEEENS_12CwiseUnaryOpINS0_18scalar_logistic_opIfEEKS9_EENS0_9assign_opIffEEEEvRT_RKT0_RKT1_(%"class.Eigen::ArrayWrapper"* nonnull dereferenceable(24) %16, %"class.Eigen::CwiseUnaryOp.42"* nonnull dereferenceable(32) %15, %"struct.Eigen::internal::assign_op"* nonnull dereferenceable(1) %14) #19
  call void @llvm.lifetime.end.p0i8(i64 1, i8* nonnull %240) #19, !noalias !44
  call void @llvm.lifetime.end.p0i8(i64 24, i8* nonnull %237) #19, !noalias !44
  call void @llvm.lifetime.end.p0i8(i64 32, i8* nonnull %234) #19, !noalias !44
  br label %283

241:                                              ; preds = %27, %20
  %242 = phi i64 [ 0, %20 ], [ %47, %27 ]
  %243 = icmp eq i64 %23, 0
  br i1 %243, label %283, label %244

244:                                              ; preds = %241
  call void @llvm.lifetime.start.p0i8(i64 4, i8* nonnull %22)
  store float 0.000000e+00, float* %17, align 4, !noalias !15
  %245 = getelementptr inbounds float, float* %0, i64 %242
  %246 = load float, float* %245, align 4, !alias.scope !19, !noalias !20
  %247 = fcmp ogt float %246, 0.000000e+00
  %248 = select i1 %247, float* %245, float* %17
  %249 = bitcast float* %248 to i32*
  %250 = load i32, i32* %249, align 4, !noalias !20
  %251 = getelementptr inbounds float, float* %3, i64 %242
  %252 = bitcast float* %251 to i32*
  store i32 %250, i32* %252, align 4, !alias.scope !20, !noalias !19
  call void @llvm.lifetime.end.p0i8(i64 4, i8* nonnull %22)
  br label %283

253:                                              ; preds = %60, %52
  %254 = phi i64 [ 0, %52 ], [ %86, %60 ]
  %255 = icmp eq i64 %56, 0
  br i1 %255, label %283, label %256

256:                                              ; preds = %253
  call void @llvm.lifetime.start.p0i8(i64 4, i8* nonnull %54)
  store float -1.000000e+00, float* %12, align 4, !noalias !21
  %257 = getelementptr inbounds float, float* %0, i64 %254
  call void @llvm.lifetime.start.p0i8(i64 4, i8* nonnull %55)
  store float 1.000000e+00, float* %13, align 4, !noalias !21
  %258 = load float, float* %257, align 4, !alias.scope !25, !noalias !26
  %259 = fcmp ogt float %258, 1.000000e+00
  %260 = select i1 %259, float* %13, float* %257
  %261 = load float, float* %260, align 4, !noalias !26
  %262 = fcmp ogt float %261, -1.000000e+00
  %263 = select i1 %262, float* %260, float* %12
  %264 = bitcast float* %263 to i32*
  %265 = load i32, i32* %264, align 4, !noalias !26
  %266 = getelementptr inbounds float, float* %3, i64 %254
  %267 = bitcast float* %266 to i32*
  store i32 %265, i32* %267, align 4, !alias.scope !26, !noalias !25
  call void @llvm.lifetime.end.p0i8(i64 4, i8* nonnull %55)
  call void @llvm.lifetime.end.p0i8(i64 4, i8* nonnull %54)
  br label %283

268:                                              ; preds = %99, %91
  %269 = phi i64 [ 0, %91 ], [ %125, %99 ]
  %270 = icmp eq i64 %95, 0
  br i1 %270, label %283, label %271

271:                                              ; preds = %268
  call void @llvm.lifetime.start.p0i8(i64 4, i8* nonnull %93)
  store float 0.000000e+00, float* %5, align 4, !noalias !27
  %272 = getelementptr inbounds float, float* %0, i64 %269
  call void @llvm.lifetime.start.p0i8(i64 4, i8* nonnull %94)
  store float 6.000000e+00, float* %6, align 4, !noalias !27
  %273 = load float, float* %272, align 4, !alias.scope !31, !noalias !32
  %274 = fcmp ogt float %273, 6.000000e+00
  %275 = select i1 %274, float* %6, float* %272
  %276 = load float, float* %275, align 4, !noalias !32
  %277 = fcmp ogt float %276, 0.000000e+00
  %278 = select i1 %277, float* %275, float* %5
  %279 = bitcast float* %278 to i32*
  %280 = load i32, i32* %279, align 4, !noalias !32
  %281 = getelementptr inbounds float, float* %3, i64 %269
  %282 = bitcast float* %281 to i32*
  store i32 %280, i32* %282, align 4, !alias.scope !32, !noalias !31
  call void @llvm.lifetime.end.p0i8(i64 4, i8* nonnull %94)
  call void @llvm.lifetime.end.p0i8(i64 4, i8* nonnull %93)
  br label %283

283:                                              ; preds = %222, %271, %268, %256, %253, %244, %241, %218, %151, %89, %50, %18, %128, %232, %4
  ret void
}

; Function Attrs: nounwind ssp uwtable
define hidden i32 @_ZN6tflite3ops7builtin15fully_connected10EvalHybridEP13TfLiteContextP10TfLiteNodeP26TfLiteFullyConnectedParamsPNS2_6OpDataEPK12TfLiteTensorSD_SD_PSB_SE_SE_SE_SE_SE_(%struct.TfLiteContext*, %struct.TfLiteNode* nocapture readnone, %struct.TfLiteFullyConnectedParams* nocapture readonly, %"struct.tflite::ops::builtin::fully_connected::OpData"*, %struct.TfLiteTensor* readonly, %struct.TfLiteTensor* readonly, %struct.TfLiteTensor* readonly, %struct.TfLiteTensor* readonly, %struct.TfLiteTensor* readonly, %struct.TfLiteTensor* readonly, %struct.TfLiteTensor* readonly, %struct.TfLiteTensor* readonly, %struct.TfLiteTensor* readonly) local_unnamed_addr #1 {
  %14 = alloca float, align 4
  %15 = alloca float, align 4
  %16 = getelementptr inbounds %struct.TfLiteTensor, %struct.TfLiteTensor* %4, i64 0, i32 2
  %17 = load %struct.TfLiteIntArray*, %struct.TfLiteIntArray** %16, align 8
  %18 = getelementptr inbounds %struct.TfLiteIntArray, %struct.TfLiteIntArray* %17, i64 0, i32 0
  %19 = load i32, i32* %18, align 4
  %20 = icmp sgt i32 %19, 0
  br i1 %20, label %21, label %112

21:                                               ; preds = %13
  %22 = sext i32 %19 to i64
  %23 = icmp ult i32 %19, 8
  br i1 %23, label %24, label %27

24:                                               ; preds = %102, %21
  %25 = phi i64 [ 0, %21 ], [ %28, %102 ]
  %26 = phi i32 [ 1, %21 ], [ %110, %102 ]
  br label %122

27:                                               ; preds = %21
  %28 = and i64 %22, -8
  %29 = add nsw i64 %28, -8
  %30 = lshr exact i64 %29, 3
  %31 = add nuw nsw i64 %30, 1
  %32 = and i64 %31, 3
  %33 = icmp ult i64 %29, 24
  br i1 %33, label %79, label %34

34:                                               ; preds = %27
  %35 = sub nsw i64 %31, %32
  br label %36

36:                                               ; preds = %36, %34
  %37 = phi i64 [ 0, %34 ], [ %76, %36 ]
  %38 = phi <4 x i32> [ <i32 1, i32 1, i32 1, i32 1>, %34 ], [ %74, %36 ]
  %39 = phi <4 x i32> [ <i32 1, i32 1, i32 1, i32 1>, %34 ], [ %75, %36 ]
  %40 = phi i64 [ %35, %34 ], [ %77, %36 ]
  %41 = getelementptr inbounds %struct.TfLiteIntArray, %struct.TfLiteIntArray* %17, i64 0, i32 1, i64 %37
  %42 = bitcast i32* %41 to <4 x i32>*
  %43 = load <4 x i32>, <4 x i32>* %42, align 4
  %44 = getelementptr inbounds i32, i32* %41, i64 4
  %45 = bitcast i32* %44 to <4 x i32>*
  %46 = load <4 x i32>, <4 x i32>* %45, align 4
  %47 = mul nsw <4 x i32> %43, %38
  %48 = mul nsw <4 x i32> %46, %39
  %49 = or i64 %37, 8
  %50 = getelementptr inbounds %struct.TfLiteIntArray, %struct.TfLiteIntArray* %17, i64 0, i32 1, i64 %49
  %51 = bitcast i32* %50 to <4 x i32>*
  %52 = load <4 x i32>, <4 x i32>* %51, align 4
  %53 = getelementptr inbounds i32, i32* %50, i64 4
  %54 = bitcast i32* %53 to <4 x i32>*
  %55 = load <4 x i32>, <4 x i32>* %54, align 4
  %56 = mul nsw <4 x i32> %52, %47
  %57 = mul nsw <4 x i32> %55, %48
  %58 = or i64 %37, 16
  %59 = getelementptr inbounds %struct.TfLiteIntArray, %struct.TfLiteIntArray* %17, i64 0, i32 1, i64 %58
  %60 = bitcast i32* %59 to <4 x i32>*
  %61 = load <4 x i32>, <4 x i32>* %60, align 4
  %62 = getelementptr inbounds i32, i32* %59, i64 4
  %63 = bitcast i32* %62 to <4 x i32>*
  %64 = load <4 x i32>, <4 x i32>* %63, align 4
  %65 = mul nsw <4 x i32> %61, %56
  %66 = mul nsw <4 x i32> %64, %57
  %67 = or i64 %37, 24
  %68 = getelementptr inbounds %struct.TfLiteIntArray, %struct.TfLiteIntArray* %17, i64 0, i32 1, i64 %67
  %69 = bitcast i32* %68 to <4 x i32>*
  %70 = load <4 x i32>, <4 x i32>* %69, align 4
  %71 = getelementptr inbounds i32, i32* %68, i64 4
  %72 = bitcast i32* %71 to <4 x i32>*
  %73 = load <4 x i32>, <4 x i32>* %72, align 4
  %74 = mul nsw <4 x i32> %70, %65
  %75 = mul nsw <4 x i32> %73, %66
  %76 = add i64 %37, 32
  %77 = add i64 %40, -4
  %78 = icmp eq i64 %77, 0
  br i1 %78, label %79, label %36, !llvm.loop !48

79:                                               ; preds = %36, %27
  %80 = phi <4 x i32> [ undef, %27 ], [ %74, %36 ]
  %81 = phi <4 x i32> [ undef, %27 ], [ %75, %36 ]
  %82 = phi i64 [ 0, %27 ], [ %76, %36 ]
  %83 = phi <4 x i32> [ <i32 1, i32 1, i32 1, i32 1>, %27 ], [ %74, %36 ]
  %84 = phi <4 x i32> [ <i32 1, i32 1, i32 1, i32 1>, %27 ], [ %75, %36 ]
  %85 = icmp eq i64 %32, 0
  br i1 %85, label %102, label %86

86:                                               ; preds = %79, %86
  %87 = phi i64 [ %99, %86 ], [ %82, %79 ]
  %88 = phi <4 x i32> [ %97, %86 ], [ %83, %79 ]
  %89 = phi <4 x i32> [ %98, %86 ], [ %84, %79 ]
  %90 = phi i64 [ %100, %86 ], [ %32, %79 ]
  %91 = getelementptr inbounds %struct.TfLiteIntArray, %struct.TfLiteIntArray* %17, i64 0, i32 1, i64 %87
  %92 = bitcast i32* %91 to <4 x i32>*
  %93 = load <4 x i32>, <4 x i32>* %92, align 4
  %94 = getelementptr inbounds i32, i32* %91, i64 4
  %95 = bitcast i32* %94 to <4 x i32>*
  %96 = load <4 x i32>, <4 x i32>* %95, align 4
  %97 = mul nsw <4 x i32> %93, %88
  %98 = mul nsw <4 x i32> %96, %89
  %99 = add i64 %87, 8
  %100 = add i64 %90, -1
  %101 = icmp eq i64 %100, 0
  br i1 %101, label %102, label %86, !llvm.loop !49

102:                                              ; preds = %86, %79
  %103 = phi <4 x i32> [ %80, %79 ], [ %97, %86 ]
  %104 = phi <4 x i32> [ %81, %79 ], [ %98, %86 ]
  %105 = mul <4 x i32> %104, %103
  %106 = shufflevector <4 x i32> %105, <4 x i32> undef, <4 x i32> <i32 2, i32 3, i32 undef, i32 undef>
  %107 = mul <4 x i32> %105, %106
  %108 = shufflevector <4 x i32> %107, <4 x i32> undef, <4 x i32> <i32 1, i32 undef, i32 undef, i32 undef>
  %109 = mul <4 x i32> %107, %108
  %110 = extractelement <4 x i32> %109, i32 0
  %111 = icmp eq i64 %28, %22
  br i1 %111, label %112, label %24

112:                                              ; preds = %122, %102, %13
  %113 = phi i32 [ 1, %13 ], [ %110, %102 ], [ %127, %122 ]
  %114 = getelementptr inbounds %struct.TfLiteTensor, %struct.TfLiteTensor* %5, i64 0, i32 2
  %115 = load %struct.TfLiteIntArray*, %struct.TfLiteIntArray** %114, align 8
  %116 = getelementptr inbounds %struct.TfLiteIntArray, %struct.TfLiteIntArray* %115, i64 0, i32 1, i64 1
  %117 = load i32, i32* %116, align 4
  %118 = sdiv i32 %113, %117
  %119 = getelementptr inbounds %struct.TfLiteIntArray, %struct.TfLiteIntArray* %115, i64 0, i32 1, i64 0
  %120 = load i32, i32* %119, align 4
  %121 = icmp eq %struct.TfLiteTensor* %6, null
  br i1 %121, label %171, label %130

122:                                              ; preds = %24, %122
  %123 = phi i64 [ %128, %122 ], [ %25, %24 ]
  %124 = phi i32 [ %127, %122 ], [ %26, %24 ]
  %125 = getelementptr inbounds %struct.TfLiteIntArray, %struct.TfLiteIntArray* %17, i64 0, i32 1, i64 %123
  %126 = load i32, i32* %125, align 4
  %127 = mul nsw i32 %126, %124
  %128 = add nuw nsw i64 %123, 1
  %129 = icmp slt i64 %128, %22
  br i1 %129, label %122, label %112, !llvm.loop !50

130:                                              ; preds = %112
  %131 = getelementptr inbounds %struct.TfLiteTensor, %struct.TfLiteTensor* %6, i64 0, i32 1
  %132 = bitcast %union.TfLitePtrUnion* %131 to i8**
  %133 = load i8*, i8** %132, align 8
  %134 = icmp eq %struct.TfLiteTensor* %12, null
  br i1 %134, label %139, label %135

135:                                              ; preds = %130
  %136 = getelementptr inbounds %struct.TfLiteTensor, %struct.TfLiteTensor* %12, i64 0, i32 1
  %137 = bitcast %union.TfLitePtrUnion* %136 to float**
  %138 = load float*, float** %137, align 8
  br label %139

139:                                              ; preds = %130, %135
  %140 = phi float* [ %138, %135 ], [ null, %130 ]
  %141 = icmp sgt i32 %118, 0
  br i1 %141, label %142, label %198

142:                                              ; preds = %139
  %143 = icmp eq i32 %120, 0
  %144 = sext i32 %120 to i64
  %145 = shl nuw nsw i64 %144, 2
  %146 = zext i32 %118 to i64
  %147 = add nsw i64 %146, -1
  %148 = and i64 %146, 3
  %149 = icmp ult i64 %147, 3
  br i1 %149, label %184, label %150

150:                                              ; preds = %142
  %151 = sub nsw i64 %146, %148
  br label %152

152:                                              ; preds = %432, %150
  %153 = phi i64 [ 0, %150 ], [ %433, %432 ]
  %154 = phi i64 [ %151, %150 ], [ %434, %432 ]
  br i1 %143, label %432, label %155

155:                                              ; preds = %152
  %156 = mul nsw i64 %153, %144
  %157 = getelementptr inbounds float, float* %140, i64 %156
  %158 = bitcast float* %157 to i8*
  tail call void @llvm.memmove.p0i8.p0i8.i64(i8* align 4 %158, i8* align 4 %133, i64 %145, i1 false) #19
  %159 = or i64 %153, 1
  %160 = mul nsw i64 %159, %144
  %161 = getelementptr inbounds float, float* %140, i64 %160
  %162 = bitcast float* %161 to i8*
  tail call void @llvm.memmove.p0i8.p0i8.i64(i8* align 4 %162, i8* align 4 %133, i64 %145, i1 false) #19
  %163 = or i64 %153, 2
  %164 = mul nsw i64 %163, %144
  %165 = getelementptr inbounds float, float* %140, i64 %164
  %166 = bitcast float* %165 to i8*
  tail call void @llvm.memmove.p0i8.p0i8.i64(i8* align 4 %166, i8* align 4 %133, i64 %145, i1 false) #19
  %167 = or i64 %153, 3
  %168 = mul nsw i64 %167, %144
  %169 = getelementptr inbounds float, float* %140, i64 %168
  %170 = bitcast float* %169 to i8*
  tail call void @llvm.memmove.p0i8.p0i8.i64(i8* align 4 %170, i8* align 4 %133, i64 %145, i1 false) #19
  br label %432

171:                                              ; preds = %112
  %172 = icmp eq %struct.TfLiteTensor* %12, null
  br i1 %172, label %177, label %173

173:                                              ; preds = %171
  %174 = getelementptr inbounds %struct.TfLiteTensor, %struct.TfLiteTensor* %12, i64 0, i32 1
  %175 = bitcast %union.TfLitePtrUnion* %174 to i8**
  %176 = load i8*, i8** %175, align 8
  br label %177

177:                                              ; preds = %171, %173
  %178 = phi i8* [ %176, %173 ], [ null, %171 ]
  %179 = mul i32 %120, %118
  %180 = icmp sgt i32 %179, 0
  br i1 %180, label %181, label %198

181:                                              ; preds = %177
  %182 = zext i32 %179 to i64
  %183 = shl nuw nsw i64 %182, 2
  call void @llvm.memset.p0i8.i64(i8* align 4 %178, i8 0, i64 %183, i1 false)
  br label %198

184:                                              ; preds = %432, %142
  %185 = phi i64 [ 0, %142 ], [ %433, %432 ]
  %186 = icmp eq i64 %148, 0
  br i1 %186, label %198, label %187

187:                                              ; preds = %184, %194
  %188 = phi i64 [ %195, %194 ], [ %185, %184 ]
  %189 = phi i64 [ %196, %194 ], [ %148, %184 ]
  br i1 %143, label %194, label %190

190:                                              ; preds = %187
  %191 = mul nsw i64 %188, %144
  %192 = getelementptr inbounds float, float* %140, i64 %191
  %193 = bitcast float* %192 to i8*
  tail call void @llvm.memmove.p0i8.p0i8.i64(i8* align 4 %193, i8* align 4 %133, i64 %145, i1 false) #19
  br label %194

194:                                              ; preds = %190, %187
  %195 = add nuw nsw i64 %188, 1
  %196 = add i64 %189, -1
  %197 = icmp eq i64 %196, 0
  br i1 %197, label %198, label %187, !llvm.loop !51

198:                                              ; preds = %184, %194, %181, %177, %139
  %199 = icmp eq %struct.TfLiteTensor* %4, null
  br i1 %199, label %204, label %200

200:                                              ; preds = %198
  %201 = getelementptr inbounds %struct.TfLiteTensor, %struct.TfLiteTensor* %4, i64 0, i32 1
  %202 = bitcast %union.TfLitePtrUnion* %201 to float**
  %203 = load float*, float** %202, align 8
  br label %204

204:                                              ; preds = %198, %200
  %205 = phi float* [ %203, %200 ], [ null, %198 ]
  %206 = tail call zeroext i1 @_ZN6tflite12tensor_utils12IsZeroVectorEPKfi(float* %205, i32 %113) #19
  br i1 %206, label %207, label %218

207:                                              ; preds = %204
  %208 = icmp eq %struct.TfLiteTensor* %12, null
  br i1 %208, label %213, label %209

209:                                              ; preds = %207
  %210 = getelementptr inbounds %struct.TfLiteTensor, %struct.TfLiteTensor* %12, i64 0, i32 1
  %211 = bitcast %union.TfLitePtrUnion* %210 to float**
  %212 = load float*, float** %211, align 8
  br label %213

213:                                              ; preds = %207, %209
  %214 = phi float* [ %212, %209 ], [ null, %207 ]
  %215 = getelementptr inbounds %struct.TfLiteFullyConnectedParams, %struct.TfLiteFullyConnectedParams* %2, i64 0, i32 0
  %216 = mul nsw i32 %120, %118
  %217 = load i32, i32* %215, align 4
  tail call void @_ZN6tflite12tensor_utils23ApplyActivationToVectorEPKfi21TfLiteFusedActivationPf(float* %214, i32 %216, i32 %217, float* %214)
  br label %431

218:                                              ; preds = %204
  %219 = icmp eq %struct.TfLiteTensor* %8, null
  br i1 %219, label %225, label %220

220:                                              ; preds = %218
  %221 = getelementptr inbounds %struct.TfLiteTensor, %struct.TfLiteTensor* %8, i64 0, i32 1
  %222 = bitcast %union.TfLitePtrUnion* %221 to float**
  %223 = load float*, float** %222, align 8
  %224 = bitcast float* %223 to i8*
  br label %225

225:                                              ; preds = %218, %220
  %226 = phi i8* [ %224, %220 ], [ null, %218 ]
  %227 = phi float* [ %223, %220 ], [ null, %218 ]
  %228 = getelementptr inbounds %struct.TfLiteFullyConnectedParams, %struct.TfLiteFullyConnectedParams* %2, i64 0, i32 3
  %229 = load i8, i8* %228, align 1, !range !10
  %230 = icmp eq i8 %229, 0
  br i1 %230, label %242, label %231

231:                                              ; preds = %225
  %232 = icmp eq %struct.TfLiteTensor* %11, null
  br i1 %232, label %236, label %233

233:                                              ; preds = %231
  %234 = getelementptr inbounds %struct.TfLiteTensor, %struct.TfLiteTensor* %11, i64 0, i32 1, i32 0
  %235 = load i32*, i32** %234, align 8
  br label %236

236:                                              ; preds = %231, %233
  %237 = phi i32* [ %235, %233 ], [ null, %231 ]
  %238 = icmp eq %struct.TfLiteTensor* %10, null
  br i1 %238, label %242, label %239

239:                                              ; preds = %236
  %240 = getelementptr inbounds %struct.TfLiteTensor, %struct.TfLiteTensor* %10, i64 0, i32 1, i32 0
  %241 = load i32*, i32** %240, align 8
  br label %242

242:                                              ; preds = %239, %236, %225
  %243 = phi i32* [ null, %225 ], [ %237, %236 ], [ %237, %239 ]
  %244 = phi i32* [ null, %225 ], [ null, %236 ], [ %241, %239 ]
  %245 = icmp eq %struct.TfLiteTensor* %7, null
  br i1 %245, label %250, label %246

246:                                              ; preds = %242
  %247 = getelementptr inbounds %struct.TfLiteTensor, %struct.TfLiteTensor* %7, i64 0, i32 1
  %248 = bitcast %union.TfLitePtrUnion* %247 to i8**
  %249 = load i8*, i8** %248, align 8
  br label %250

250:                                              ; preds = %242, %246
  %251 = phi i8* [ %249, %246 ], [ null, %242 ]
  %252 = icmp eq %struct.TfLiteTensor* %5, null
  br i1 %252, label %257, label %253

253:                                              ; preds = %250
  %254 = getelementptr inbounds %struct.TfLiteTensor, %struct.TfLiteTensor* %5, i64 0, i32 1
  %255 = bitcast %union.TfLitePtrUnion* %254 to i8**
  %256 = load i8*, i8** %255, align 8
  br label %257

257:                                              ; preds = %250, %253
  %258 = phi i8* [ %256, %253 ], [ null, %250 ]
  br i1 %199, label %263, label %259

259:                                              ; preds = %257
  %260 = getelementptr inbounds %struct.TfLiteTensor, %struct.TfLiteTensor* %4, i64 0, i32 1
  %261 = bitcast %union.TfLitePtrUnion* %260 to float**
  %262 = load float*, float** %261, align 8
  br label %263

263:                                              ; preds = %257, %259
  %264 = phi float* [ %262, %259 ], [ null, %257 ]
  %265 = icmp sgt i32 %118, 0
  br i1 %265, label %266, label %385

266:                                              ; preds = %263
  %267 = bitcast float* %14 to i8*
  %268 = bitcast float* %15 to i8*
  %269 = sext i32 %117 to i64
  %270 = zext i32 %118 to i64
  br label %271

271:                                              ; preds = %283, %266
  %272 = phi i64 [ 0, %266 ], [ %284, %283 ]
  %273 = mul nsw i64 %272, %269
  br i1 %230, label %279, label %274

274:                                              ; preds = %271
  %275 = getelementptr inbounds float, float* %264, i64 %273
  %276 = getelementptr inbounds i8, i8* %251, i64 %273
  %277 = getelementptr inbounds float, float* %227, i64 %272
  %278 = getelementptr inbounds i32, i32* %243, i64 %272
  call void @_ZN6tflite12tensor_utils24AsymmetricQuantizeFloatsEPKfiPaPfPi(float* %275, i32 %117, i8* %276, float* %277, i32* %278) #19
  br label %283

279:                                              ; preds = %271
  call void @llvm.lifetime.start.p0i8(i64 4, i8* nonnull %267) #19
  store float 0xFFFFFFFFE0000000, float* %14, align 4
  call void @llvm.lifetime.start.p0i8(i64 4, i8* nonnull %268) #19
  store float 0xFFFFFFFFE0000000, float* %15, align 4
  %280 = getelementptr inbounds float, float* %264, i64 %273
  %281 = getelementptr inbounds i8, i8* %251, i64 %273
  %282 = getelementptr inbounds float, float* %227, i64 %272
  call void @_ZN6tflite12tensor_utils23SymmetricQuantizeFloatsEPKfiPaPfS4_S4_(float* %280, i32 %117, i8* %281, float* nonnull %14, float* nonnull %15, float* %282) #19
  call void @llvm.lifetime.end.p0i8(i64 4, i8* nonnull %268) #19
  call void @llvm.lifetime.end.p0i8(i64 4, i8* nonnull %267) #19
  br label %283

283:                                              ; preds = %279, %274
  %284 = add nuw nsw i64 %272, 1
  %285 = icmp eq i64 %284, %270
  br i1 %285, label %286, label %271

286:                                              ; preds = %283
  br i1 %265, label %287, label %385

287:                                              ; preds = %286
  %288 = getelementptr inbounds %struct.TfLiteTensor, %struct.TfLiteTensor* %5, i64 0, i32 3, i32 0
  %289 = zext i32 %118 to i64
  %290 = icmp ult i32 %118, 8
  br i1 %290, label %291, label %310

291:                                              ; preds = %383, %310, %287
  %292 = phi i64 [ 0, %310 ], [ 0, %287 ], [ %319, %383 ]
  %293 = xor i64 %292, -1
  %294 = add nsw i64 %293, %289
  %295 = and i64 %289, 3
  %296 = icmp eq i64 %295, 0
  br i1 %296, label %307, label %297

297:                                              ; preds = %291, %297
  %298 = phi i64 [ %304, %297 ], [ %292, %291 ]
  %299 = phi i64 [ %305, %297 ], [ %295, %291 ]
  %300 = load float, float* %288, align 8
  %301 = getelementptr inbounds float, float* %227, i64 %298
  %302 = load float, float* %301, align 4
  %303 = fmul float %300, %302
  store float %303, float* %301, align 4
  %304 = add nuw nsw i64 %298, 1
  %305 = add i64 %299, -1
  %306 = icmp eq i64 %305, 0
  br i1 %306, label %307, label %297, !llvm.loop !52

307:                                              ; preds = %297, %291
  %308 = phi i64 [ %292, %291 ], [ %304, %297 ]
  %309 = icmp ult i64 %294, 3
  br i1 %309, label %385, label %408

310:                                              ; preds = %287
  %311 = getelementptr float, float* %227, i64 %289
  %312 = getelementptr %struct.TfLiteTensor, %struct.TfLiteTensor* %5, i64 0, i32 3, i32 0
  %313 = bitcast float* %312 to i8*
  %314 = getelementptr i8, i8* %313, i64 1
  %315 = icmp ult i8* %226, %314
  %316 = icmp ult float* %288, %311
  %317 = and i1 %315, %316
  br i1 %317, label %291, label %318

318:                                              ; preds = %310
  %319 = and i64 %289, 4294967288
  %320 = add nsw i64 %319, -8
  %321 = lshr exact i64 %320, 3
  %322 = add nuw nsw i64 %321, 1
  %323 = and i64 %322, 1
  %324 = icmp eq i64 %320, 0
  br i1 %324, label %364, label %325

325:                                              ; preds = %318
  %326 = sub nuw nsw i64 %322, %323
  %327 = load float, float* %288, align 8, !alias.scope !53
  %328 = insertelement <4 x float> undef, float %327, i32 0
  %329 = shufflevector <4 x float> %328, <4 x float> undef, <4 x i32> zeroinitializer
  %330 = insertelement <4 x float> undef, float %327, i32 0
  %331 = shufflevector <4 x float> %330, <4 x float> undef, <4 x i32> zeroinitializer
  %332 = load float, float* %288, align 8, !alias.scope !53
  %333 = insertelement <4 x float> undef, float %332, i32 0
  %334 = shufflevector <4 x float> %333, <4 x float> undef, <4 x i32> zeroinitializer
  %335 = insertelement <4 x float> undef, float %332, i32 0
  %336 = shufflevector <4 x float> %335, <4 x float> undef, <4 x i32> zeroinitializer
  br label %337

337:                                              ; preds = %337, %325
  %338 = phi i64 [ 0, %325 ], [ %361, %337 ]
  %339 = phi i64 [ %326, %325 ], [ %362, %337 ]
  %340 = getelementptr inbounds float, float* %227, i64 %338
  %341 = bitcast float* %340 to <4 x float>*
  %342 = load <4 x float>, <4 x float>* %341, align 4, !alias.scope !56, !noalias !53
  %343 = getelementptr inbounds float, float* %340, i64 4
  %344 = bitcast float* %343 to <4 x float>*
  %345 = load <4 x float>, <4 x float>* %344, align 4, !alias.scope !56, !noalias !53
  %346 = fmul <4 x float> %329, %342
  %347 = fmul <4 x float> %331, %345
  %348 = bitcast float* %340 to <4 x float>*
  store <4 x float> %346, <4 x float>* %348, align 4, !alias.scope !56, !noalias !53
  %349 = bitcast float* %343 to <4 x float>*
  store <4 x float> %347, <4 x float>* %349, align 4, !alias.scope !56, !noalias !53
  %350 = or i64 %338, 8
  %351 = getelementptr inbounds float, float* %227, i64 %350
  %352 = bitcast float* %351 to <4 x float>*
  %353 = load <4 x float>, <4 x float>* %352, align 4, !alias.scope !56, !noalias !53
  %354 = getelementptr inbounds float, float* %351, i64 4
  %355 = bitcast float* %354 to <4 x float>*
  %356 = load <4 x float>, <4 x float>* %355, align 4, !alias.scope !56, !noalias !53
  %357 = fmul <4 x float> %334, %353
  %358 = fmul <4 x float> %336, %356
  %359 = bitcast float* %351 to <4 x float>*
  store <4 x float> %357, <4 x float>* %359, align 4, !alias.scope !56, !noalias !53
  %360 = bitcast float* %354 to <4 x float>*
  store <4 x float> %358, <4 x float>* %360, align 4, !alias.scope !56, !noalias !53
  %361 = add i64 %338, 16
  %362 = add i64 %339, -2
  %363 = icmp eq i64 %362, 0
  br i1 %363, label %364, label %337, !llvm.loop !58

364:                                              ; preds = %337, %318
  %365 = phi i64 [ 0, %318 ], [ %361, %337 ]
  %366 = icmp eq i64 %323, 0
  br i1 %366, label %383, label %367

367:                                              ; preds = %364
  %368 = load float, float* %288, align 8, !alias.scope !53
  %369 = insertelement <4 x float> undef, float %368, i32 0
  %370 = shufflevector <4 x float> %369, <4 x float> undef, <4 x i32> zeroinitializer
  %371 = insertelement <4 x float> undef, float %368, i32 0
  %372 = shufflevector <4 x float> %371, <4 x float> undef, <4 x i32> zeroinitializer
  %373 = getelementptr inbounds float, float* %227, i64 %365
  %374 = bitcast float* %373 to <4 x float>*
  %375 = load <4 x float>, <4 x float>* %374, align 4, !alias.scope !56, !noalias !53
  %376 = getelementptr inbounds float, float* %373, i64 4
  %377 = bitcast float* %376 to <4 x float>*
  %378 = load <4 x float>, <4 x float>* %377, align 4, !alias.scope !56, !noalias !53
  %379 = fmul <4 x float> %370, %375
  %380 = fmul <4 x float> %372, %378
  %381 = bitcast float* %373 to <4 x float>*
  store <4 x float> %379, <4 x float>* %381, align 4, !alias.scope !56, !noalias !53
  %382 = bitcast float* %376 to <4 x float>*
  store <4 x float> %380, <4 x float>* %382, align 4, !alias.scope !56, !noalias !53
  br label %383

383:                                              ; preds = %364, %367
  %384 = icmp eq i64 %319, %289
  br i1 %384, label %385, label %291

385:                                              ; preds = %307, %408, %383, %263, %286
  %386 = icmp eq %struct.TfLiteTensor* %9, null
  br i1 %386, label %390, label %387

387:                                              ; preds = %385
  %388 = getelementptr inbounds %struct.TfLiteTensor, %struct.TfLiteTensor* %9, i64 0, i32 1, i32 0
  %389 = load i32*, i32** %388, align 8
  br label %390

390:                                              ; preds = %385, %387
  %391 = phi i32* [ %389, %387 ], [ null, %385 ]
  %392 = icmp eq %struct.TfLiteTensor* %12, null
  br i1 %392, label %400, label %393

393:                                              ; preds = %390
  %394 = getelementptr inbounds %struct.TfLiteTensor, %struct.TfLiteTensor* %12, i64 0, i32 1
  %395 = bitcast %union.TfLitePtrUnion* %394 to float**
  %396 = load float*, float** %395, align 8
  %397 = getelementptr inbounds %"struct.tflite::ops::builtin::fully_connected::OpData", %"struct.tflite::ops::builtin::fully_connected::OpData"* %3, i64 0, i32 5
  %398 = call %"class.tflite::CpuBackendContext"* @_ZN6tflite17CpuBackendContext14GetFromContextEP13TfLiteContext(%struct.TfLiteContext* %0) #19
  call void @_ZN6tflite12tensor_utils35MatrixBatchVectorMultiplyAccumulateEPKaiiS2_PKfiPfS4_PKiPiS8_PbPNS_17CpuBackendContextE(i8* %258, i32 %120, i32 %117, i8* %251, float* %227, i32 %118, float* %396, float* null, i32* %243, i32* %391, i32* %244, i8* %397, %"class.tflite::CpuBackendContext"* %398) #19
  %399 = load float*, float** %395, align 8
  br label %403

400:                                              ; preds = %390
  %401 = getelementptr inbounds %"struct.tflite::ops::builtin::fully_connected::OpData", %"struct.tflite::ops::builtin::fully_connected::OpData"* %3, i64 0, i32 5
  %402 = call %"class.tflite::CpuBackendContext"* @_ZN6tflite17CpuBackendContext14GetFromContextEP13TfLiteContext(%struct.TfLiteContext* %0) #19
  call void @_ZN6tflite12tensor_utils35MatrixBatchVectorMultiplyAccumulateEPKaiiS2_PKfiPfS4_PKiPiS8_PbPNS_17CpuBackendContextE(i8* %258, i32 %120, i32 %117, i8* %251, float* %227, i32 %118, float* null, float* null, i32* %243, i32* %391, i32* %244, i8* %401, %"class.tflite::CpuBackendContext"* %402) #19
  br label %403

403:                                              ; preds = %400, %393
  %404 = phi float* [ %399, %393 ], [ null, %400 ]
  %405 = getelementptr inbounds %struct.TfLiteFullyConnectedParams, %struct.TfLiteFullyConnectedParams* %2, i64 0, i32 0
  %406 = mul nsw i32 %120, %118
  %407 = load i32, i32* %405, align 4
  call void @_ZN6tflite12tensor_utils23ApplyActivationToVectorEPKfi21TfLiteFusedActivationPf(float* %404, i32 %406, i32 %407, float* %404)
  br label %431

408:                                              ; preds = %307, %408
  %409 = phi i64 [ %429, %408 ], [ %308, %307 ]
  %410 = load float, float* %288, align 8
  %411 = getelementptr inbounds float, float* %227, i64 %409
  %412 = load float, float* %411, align 4
  %413 = fmul float %410, %412
  store float %413, float* %411, align 4
  %414 = add nuw nsw i64 %409, 1
  %415 = load float, float* %288, align 8
  %416 = getelementptr inbounds float, float* %227, i64 %414
  %417 = load float, float* %416, align 4
  %418 = fmul float %415, %417
  store float %418, float* %416, align 4
  %419 = add nuw nsw i64 %409, 2
  %420 = load float, float* %288, align 8
  %421 = getelementptr inbounds float, float* %227, i64 %419
  %422 = load float, float* %421, align 4
  %423 = fmul float %420, %422
  store float %423, float* %421, align 4
  %424 = add nuw nsw i64 %409, 3
  %425 = load float, float* %288, align 8
  %426 = getelementptr inbounds float, float* %227, i64 %424
  %427 = load float, float* %426, align 4
  %428 = fmul float %425, %427
  store float %428, float* %426, align 4
  %429 = add nuw nsw i64 %409, 4
  %430 = icmp eq i64 %429, %289
  br i1 %430, label %385, label %408, !llvm.loop !59

431:                                              ; preds = %403, %213
  ret i32 0

432:                                              ; preds = %152, %155
  %433 = add nuw nsw i64 %153, 4
  %434 = add i64 %154, -4
  %435 = icmp eq i64 %434, 0
  br i1 %435, label %184, label %152
}

declare zeroext i1 @_ZN6tflite12tensor_utils12IsZeroVectorEPKfi(float*, i32) local_unnamed_addr #5

declare void @_ZN6tflite12tensor_utils35MatrixBatchVectorMultiplyAccumulateEPKaiiS2_PKfiPfS4_PKiPiS8_PbPNS_17CpuBackendContextE(i8*, i32, i32, i8*, float*, i32, float*, float*, i32*, i32*, i32*, i8*, %"class.tflite::CpuBackendContext"*) local_unnamed_addr #5

declare %"class.tflite::CpuBackendContext"* @_ZN6tflite17CpuBackendContext14GetFromContextEP13TfLiteContext(%struct.TfLiteContext*) local_unnamed_addr #5

; Function Attrs: norecurse nounwind readnone ssp uwtable
define hidden %struct.TfLiteRegistration* @_ZN6tflite3ops7builtin28Register_FULLY_CONNECTED_REFEv() local_unnamed_addr #6 {
  ret %struct.TfLiteRegistration* bitcast ({ i8* (%struct.TfLiteContext*, i8*, i64)*, void (%struct.TfLiteContext*, i8*)*, i32 (%struct.TfLiteContext*, %struct.TfLiteNode*)*, i32 (%struct.TfLiteContext*, %struct.TfLiteNode*)*, i8* (%struct.TfLiteContext*, %struct.TfLiteNode*)*, i32, i8*, i32 }* @_ZZN6tflite3ops7builtin28Register_FULLY_CONNECTED_REFEvE1r to %struct.TfLiteRegistration*)
}

; Function Attrs: nounwind ssp uwtable
define linkonce_odr hidden i32 @_ZN6tflite3ops7builtin15fully_connected7PrepareILNS2_10KernelTypeE0EEE12TfLiteStatusP13TfLiteContextP10TfLiteNode(%struct.TfLiteContext*, %struct.TfLiteNode*) #1 comdat {
  %3 = getelementptr inbounds %struct.TfLiteNode, %struct.TfLiteNode* %1, i64 0, i32 5
  %4 = bitcast i8** %3 to %struct.TfLiteFullyConnectedParams**
  %5 = load %struct.TfLiteFullyConnectedParams*, %struct.TfLiteFullyConnectedParams** %4, align 8
  %6 = getelementptr inbounds %struct.TfLiteNode, %struct.TfLiteNode* %1, i64 0, i32 0
  %7 = load %struct.TfLiteIntArray*, %struct.TfLiteIntArray** %6, align 8
  %8 = getelementptr inbounds %struct.TfLiteIntArray, %struct.TfLiteIntArray* %7, i64 0, i32 1, i64 1
  %9 = load i32, i32* %8, align 4
  %10 = icmp slt i32 %9, 0
  br i1 %10, label %16, label %11

11:                                               ; preds = %2
  %12 = getelementptr inbounds %struct.TfLiteContext, %struct.TfLiteContext* %0, i64 0, i32 2
  %13 = load %struct.TfLiteTensor*, %struct.TfLiteTensor** %12, align 8
  %14 = sext i32 %9 to i64
  %15 = getelementptr inbounds %struct.TfLiteTensor, %struct.TfLiteTensor* %13, i64 %14
  br label %16

16:                                               ; preds = %2, %11
  %17 = phi %struct.TfLiteTensor* [ %15, %11 ], [ null, %2 ]
  %18 = getelementptr inbounds %struct.TfLiteIntArray, %struct.TfLiteIntArray* %7, i64 0, i32 1, i64 0
  %19 = load i32, i32* %18, align 4
  %20 = icmp slt i32 %19, 0
  br i1 %20, label %26, label %21

21:                                               ; preds = %16
  %22 = getelementptr inbounds %struct.TfLiteContext, %struct.TfLiteContext* %0, i64 0, i32 2
  %23 = load %struct.TfLiteTensor*, %struct.TfLiteTensor** %22, align 8
  %24 = sext i32 %19 to i64
  %25 = getelementptr inbounds %struct.TfLiteTensor, %struct.TfLiteTensor* %23, i64 %24
  br label %26

26:                                               ; preds = %16, %21
  %27 = phi %struct.TfLiteTensor* [ %25, %21 ], [ null, %16 ]
  %28 = getelementptr inbounds %struct.TfLiteTensor, %struct.TfLiteTensor* %17, i64 0, i32 0
  %29 = load i32, i32* %28, align 8
  switch i32 %29, label %34 [
    i32 9, label %30
    i32 3, label %30
  ]

30:                                               ; preds = %26, %26
  %31 = getelementptr inbounds %struct.TfLiteTensor, %struct.TfLiteTensor* %27, i64 0, i32 0
  %32 = load i32, i32* %31, align 8
  %33 = icmp eq i32 %32, 1
  br i1 %33, label %41, label %34

34:                                               ; preds = %26, %30
  %35 = getelementptr inbounds %struct.TfLiteFullyConnectedParams, %struct.TfLiteFullyConnectedParams* %5, i64 0, i32 0
  %36 = load i32, i32* %35, align 4
  %37 = icmp ult i32 %36, 4
  br i1 %37, label %41, label %38

38:                                               ; preds = %34
  %39 = getelementptr inbounds %struct.TfLiteContext, %struct.TfLiteContext* %0, i64 0, i32 5
  %40 = load void (%struct.TfLiteContext*, i8*, ...)*, void (%struct.TfLiteContext*, i8*, ...)** %39, align 8
  tail call void (%struct.TfLiteContext*, i8*, ...) %40(%struct.TfLiteContext* %0, i8* getelementptr inbounds ([23 x i8], [23 x i8]* @.str, i64 0, i64 0), i8* getelementptr inbounds ([72 x i8], [72 x i8]* @.str.3, i64 0, i64 0), i32 316, i8* getelementptr inbounds ([163 x i8], [163 x i8]* @.str.30, i64 0, i64 0)) #19
  br label %43

41:                                               ; preds = %34, %30
  %42 = tail call i32 @_ZN6tflite3ops7builtin15fully_connected11PrepareImplEP13TfLiteContextP10TfLiteNode(%struct.TfLiteContext* %0, %struct.TfLiteNode* %1)
  br label %43

43:                                               ; preds = %41, %38
  %44 = phi i32 [ %42, %41 ], [ 1, %38 ]
  ret i32 %44
}

; Function Attrs: nounwind ssp uwtable
define linkonce_odr hidden i32 @_ZN6tflite3ops7builtin15fully_connected4EvalILNS2_10KernelTypeE0EEE12TfLiteStatusP13TfLiteContextP10TfLiteNode(%struct.TfLiteContext*, %struct.TfLiteNode*) #1 comdat {
  %3 = getelementptr inbounds %struct.TfLiteNode, %struct.TfLiteNode* %1, i64 0, i32 5
  %4 = bitcast i8** %3 to %struct.TfLiteFullyConnectedParams**
  %5 = load %struct.TfLiteFullyConnectedParams*, %struct.TfLiteFullyConnectedParams** %4, align 8
  %6 = getelementptr inbounds %struct.TfLiteNode, %struct.TfLiteNode* %1, i64 0, i32 4
  %7 = bitcast i8** %6 to %"struct.tflite::ops::builtin::fully_connected::OpData"**
  %8 = load %"struct.tflite::ops::builtin::fully_connected::OpData"*, %"struct.tflite::ops::builtin::fully_connected::OpData"** %7, align 8
  %9 = getelementptr inbounds %struct.TfLiteNode, %struct.TfLiteNode* %1, i64 0, i32 0
  %10 = load %struct.TfLiteIntArray*, %struct.TfLiteIntArray** %9, align 8
  %11 = getelementptr inbounds %struct.TfLiteIntArray, %struct.TfLiteIntArray* %10, i64 0, i32 1, i64 0
  %12 = load i32, i32* %11, align 4
  %13 = icmp slt i32 %12, 0
  br i1 %13, label %19, label %14

14:                                               ; preds = %2
  %15 = getelementptr inbounds %struct.TfLiteContext, %struct.TfLiteContext* %0, i64 0, i32 2
  %16 = load %struct.TfLiteTensor*, %struct.TfLiteTensor** %15, align 8
  %17 = sext i32 %12 to i64
  %18 = getelementptr inbounds %struct.TfLiteTensor, %struct.TfLiteTensor* %16, i64 %17
  br label %19

19:                                               ; preds = %2, %14
  %20 = phi %struct.TfLiteTensor* [ %18, %14 ], [ null, %2 ]
  %21 = getelementptr inbounds %struct.TfLiteIntArray, %struct.TfLiteIntArray* %10, i64 0, i32 1, i64 1
  %22 = load i32, i32* %21, align 4
  %23 = icmp slt i32 %22, 0
  br i1 %23, label %29, label %24

24:                                               ; preds = %19
  %25 = getelementptr inbounds %struct.TfLiteContext, %struct.TfLiteContext* %0, i64 0, i32 2
  %26 = load %struct.TfLiteTensor*, %struct.TfLiteTensor** %25, align 8
  %27 = sext i32 %22 to i64
  %28 = getelementptr inbounds %struct.TfLiteTensor, %struct.TfLiteTensor* %26, i64 %27
  br label %29

29:                                               ; preds = %19, %24
  %30 = phi %struct.TfLiteTensor* [ %28, %24 ], [ null, %19 ]
  %31 = getelementptr inbounds %struct.TfLiteIntArray, %struct.TfLiteIntArray* %10, i64 0, i32 0
  %32 = load i32, i32* %31, align 4
  %33 = icmp eq i32 %32, 3
  br i1 %33, label %34, label %43

34:                                               ; preds = %29
  %35 = getelementptr inbounds %struct.TfLiteIntArray, %struct.TfLiteIntArray* %10, i64 0, i32 1, i64 2
  %36 = load i32, i32* %35, align 4
  %37 = icmp slt i32 %36, 0
  br i1 %37, label %43, label %38

38:                                               ; preds = %34
  %39 = getelementptr inbounds %struct.TfLiteContext, %struct.TfLiteContext* %0, i64 0, i32 2
  %40 = load %struct.TfLiteTensor*, %struct.TfLiteTensor** %39, align 8
  %41 = sext i32 %36 to i64
  %42 = getelementptr inbounds %struct.TfLiteTensor, %struct.TfLiteTensor* %40, i64 %41
  br label %43

43:                                               ; preds = %38, %34, %29
  %44 = phi %struct.TfLiteTensor* [ null, %29 ], [ %42, %38 ], [ null, %34 ]
  %45 = getelementptr inbounds %struct.TfLiteNode, %struct.TfLiteNode* %1, i64 0, i32 1
  %46 = load %struct.TfLiteIntArray*, %struct.TfLiteIntArray** %45, align 8
  %47 = getelementptr inbounds %struct.TfLiteIntArray, %struct.TfLiteIntArray* %46, i64 0, i32 1, i64 0
  %48 = load i32, i32* %47, align 4
  %49 = icmp slt i32 %48, 0
  br i1 %49, label %55, label %50

50:                                               ; preds = %43
  %51 = getelementptr inbounds %struct.TfLiteContext, %struct.TfLiteContext* %0, i64 0, i32 2
  %52 = load %struct.TfLiteTensor*, %struct.TfLiteTensor** %51, align 8
  %53 = sext i32 %48 to i64
  %54 = getelementptr inbounds %struct.TfLiteTensor, %struct.TfLiteTensor* %52, i64 %53
  br label %55

55:                                               ; preds = %43, %50
  %56 = phi %struct.TfLiteTensor* [ %54, %50 ], [ null, %43 ]
  %57 = getelementptr inbounds %struct.TfLiteTensor, %struct.TfLiteTensor* %30, i64 0, i32 0
  %58 = load i32, i32* %57, align 8
  switch i32 %58, label %90 [
    i32 1, label %59
    i32 3, label %61
    i32 9, label %81
  ]

59:                                               ; preds = %55
  %60 = tail call i32 @_ZN6tflite3ops7builtin15fully_connected9EvalFloatILNS2_10KernelTypeE0EEE12TfLiteStatusP13TfLiteContextP10TfLiteNodeP26TfLiteFullyConnectedParamsPNS2_6OpDataEPK12TfLiteTensorSG_SG_PSE_(%struct.TfLiteContext* %0, %struct.TfLiteNode* %1, %struct.TfLiteFullyConnectedParams* %5, %"struct.tflite::ops::builtin::fully_connected::OpData"* %8, %struct.TfLiteTensor* %20, %struct.TfLiteTensor* %30, %struct.TfLiteTensor* %44, %struct.TfLiteTensor* %56)
  br label %94

61:                                               ; preds = %55
  %62 = getelementptr inbounds %struct.TfLiteFullyConnectedParams, %struct.TfLiteFullyConnectedParams* %5, i64 0, i32 1
  %63 = load i32, i32* %62, align 4
  switch i32 %63, label %78 [
    i32 1, label %64
    i32 0, label %76
  ]

64:                                               ; preds = %61
  %65 = getelementptr inbounds %struct.TfLiteIntArray, %struct.TfLiteIntArray* %46, i64 0, i32 1, i64 1
  %66 = load i32, i32* %65, align 4
  %67 = icmp slt i32 %66, 0
  br i1 %67, label %73, label %68

68:                                               ; preds = %64
  %69 = getelementptr inbounds %struct.TfLiteContext, %struct.TfLiteContext* %0, i64 0, i32 2
  %70 = load %struct.TfLiteTensor*, %struct.TfLiteTensor** %69, align 8
  %71 = sext i32 %66 to i64
  %72 = getelementptr inbounds %struct.TfLiteTensor, %struct.TfLiteTensor* %70, i64 %71
  br label %73

73:                                               ; preds = %64, %68
  %74 = phi %struct.TfLiteTensor* [ %72, %68 ], [ null, %64 ]
  %75 = tail call i32 @_ZN6tflite3ops7builtin15fully_connected21EvalShuffledQuantizedILNS2_10KernelTypeE0EEE12TfLiteStatusP13TfLiteContextP10TfLiteNodeP26TfLiteFullyConnectedParamsPNS2_6OpDataEPK12TfLiteTensorSG_SG_PSE_SH_(%struct.TfLiteContext* %0, %struct.TfLiteNode* %1, %struct.TfLiteFullyConnectedParams* %5, %"struct.tflite::ops::builtin::fully_connected::OpData"* %8, %struct.TfLiteTensor* %20, %struct.TfLiteTensor* %30, %struct.TfLiteTensor* %44, %struct.TfLiteTensor* %56, %struct.TfLiteTensor* %74)
  br label %94

76:                                               ; preds = %61
  %77 = tail call i32 @_ZN6tflite3ops7builtin15fully_connected13EvalQuantizedILNS2_10KernelTypeE0EEE12TfLiteStatusP13TfLiteContextP10TfLiteNodeP26TfLiteFullyConnectedParamsPNS2_6OpDataEPK12TfLiteTensorSG_SG_PSE_(%struct.TfLiteContext* %0, %struct.TfLiteNode* %1, %struct.TfLiteFullyConnectedParams* %5, %"struct.tflite::ops::builtin::fully_connected::OpData"* %8, %struct.TfLiteTensor* %20, %struct.TfLiteTensor* %30, %struct.TfLiteTensor* %44, %struct.TfLiteTensor* %56)
  br label %94

78:                                               ; preds = %61
  %79 = getelementptr inbounds %struct.TfLiteContext, %struct.TfLiteContext* %0, i64 0, i32 5
  %80 = load void (%struct.TfLiteContext*, i8*, ...)*, void (%struct.TfLiteContext*, i8*, ...)** %79, align 8
  tail call void (%struct.TfLiteContext*, i8*, ...) %80(%struct.TfLiteContext* %0, i8* getelementptr inbounds ([41 x i8], [41 x i8]* @.str.31, i64 0, i64 0)) #19
  br label %94

81:                                               ; preds = %55
  %82 = getelementptr inbounds %struct.TfLiteFullyConnectedParams, %struct.TfLiteFullyConnectedParams* %5, i64 0, i32 1
  %83 = load i32, i32* %82, align 4
  %84 = icmp eq i32 %83, 0
  br i1 %84, label %85, label %87

85:                                               ; preds = %81
  %86 = tail call i32 @_ZN6tflite3ops7builtin15fully_connected13EvalQuantizedILNS2_10KernelTypeE0EEE12TfLiteStatusP13TfLiteContextP10TfLiteNodeP26TfLiteFullyConnectedParamsPNS2_6OpDataEPK12TfLiteTensorSG_SG_PSE_(%struct.TfLiteContext* %0, %struct.TfLiteNode* %1, %struct.TfLiteFullyConnectedParams* %5, %"struct.tflite::ops::builtin::fully_connected::OpData"* %8, %struct.TfLiteTensor* %20, %struct.TfLiteTensor* %30, %struct.TfLiteTensor* %44, %struct.TfLiteTensor* %56)
  br label %94

87:                                               ; preds = %81
  %88 = getelementptr inbounds %struct.TfLiteContext, %struct.TfLiteContext* %0, i64 0, i32 5
  %89 = load void (%struct.TfLiteContext*, i8*, ...)*, void (%struct.TfLiteContext*, i8*, ...)** %88, align 8
  tail call void (%struct.TfLiteContext*, i8*, ...) %89(%struct.TfLiteContext* %0, i8* getelementptr inbounds ([41 x i8], [41 x i8]* @.str.31, i64 0, i64 0)) #19
  br label %94

90:                                               ; preds = %55
  %91 = getelementptr inbounds %struct.TfLiteContext, %struct.TfLiteContext* %0, i64 0, i32 5
  %92 = load void (%struct.TfLiteContext*, i8*, ...)*, void (%struct.TfLiteContext*, i8*, ...)** %91, align 8
  %93 = tail call i8* @TfLiteTypeGetName(i32 %58) #19
  tail call void (%struct.TfLiteContext*, i8*, ...) %92(%struct.TfLiteContext* %0, i8* getelementptr inbounds ([45 x i8], [45 x i8]* @.str.32, i64 0, i64 0), i8* %93) #19
  br label %94

94:                                               ; preds = %90, %87, %85, %78, %76, %73, %59
  %95 = phi i32 [ 1, %90 ], [ %86, %85 ], [ 1, %87 ], [ %75, %73 ], [ %77, %76 ], [ 1, %78 ], [ %60, %59 ]
  ret i32 %95
}

; Function Attrs: norecurse nounwind readnone ssp uwtable
define hidden %struct.TfLiteRegistration* @_ZN6tflite3ops7builtin36Register_FULLY_CONNECTED_GENERIC_OPTEv() local_unnamed_addr #6 {
  ret %struct.TfLiteRegistration* bitcast ({ i8* (%struct.TfLiteContext*, i8*, i64)*, void (%struct.TfLiteContext*, i8*)*, i32 (%struct.TfLiteContext*, %struct.TfLiteNode*)*, i32 (%struct.TfLiteContext*, %struct.TfLiteNode*)*, i8* (%struct.TfLiteContext*, %struct.TfLiteNode*)*, i32, i8*, i32 }* @_ZZN6tflite3ops7builtin36Register_FULLY_CONNECTED_GENERIC_OPTEvE1r to %struct.TfLiteRegistration*)
}

; Function Attrs: nounwind ssp uwtable
define linkonce_odr hidden i32 @_ZN6tflite3ops7builtin15fully_connected7PrepareILNS2_10KernelTypeE1EEE12TfLiteStatusP13TfLiteContextP10TfLiteNode(%struct.TfLiteContext*, %struct.TfLiteNode*) #1 comdat {
  %3 = getelementptr inbounds %struct.TfLiteNode, %struct.TfLiteNode* %1, i64 0, i32 5
  %4 = bitcast i8** %3 to %struct.TfLiteFullyConnectedParams**
  %5 = load %struct.TfLiteFullyConnectedParams*, %struct.TfLiteFullyConnectedParams** %4, align 8
  %6 = getelementptr inbounds %struct.TfLiteNode, %struct.TfLiteNode* %1, i64 0, i32 0
  %7 = load %struct.TfLiteIntArray*, %struct.TfLiteIntArray** %6, align 8
  %8 = getelementptr inbounds %struct.TfLiteIntArray, %struct.TfLiteIntArray* %7, i64 0, i32 1, i64 1
  %9 = load i32, i32* %8, align 4
  %10 = icmp slt i32 %9, 0
  br i1 %10, label %16, label %11

11:                                               ; preds = %2
  %12 = getelementptr inbounds %struct.TfLiteContext, %struct.TfLiteContext* %0, i64 0, i32 2
  %13 = load %struct.TfLiteTensor*, %struct.TfLiteTensor** %12, align 8
  %14 = sext i32 %9 to i64
  %15 = getelementptr inbounds %struct.TfLiteTensor, %struct.TfLiteTensor* %13, i64 %14
  br label %16

16:                                               ; preds = %2, %11
  %17 = phi %struct.TfLiteTensor* [ %15, %11 ], [ null, %2 ]
  %18 = getelementptr inbounds %struct.TfLiteIntArray, %struct.TfLiteIntArray* %7, i64 0, i32 1, i64 0
  %19 = load i32, i32* %18, align 4
  %20 = icmp slt i32 %19, 0
  br i1 %20, label %26, label %21

21:                                               ; preds = %16
  %22 = getelementptr inbounds %struct.TfLiteContext, %struct.TfLiteContext* %0, i64 0, i32 2
  %23 = load %struct.TfLiteTensor*, %struct.TfLiteTensor** %22, align 8
  %24 = sext i32 %19 to i64
  %25 = getelementptr inbounds %struct.TfLiteTensor, %struct.TfLiteTensor* %23, i64 %24
  br label %26

26:                                               ; preds = %16, %21
  %27 = phi %struct.TfLiteTensor* [ %25, %21 ], [ null, %16 ]
  %28 = getelementptr inbounds %struct.TfLiteTensor, %struct.TfLiteTensor* %17, i64 0, i32 0
  %29 = load i32, i32* %28, align 8
  switch i32 %29, label %34 [
    i32 9, label %30
    i32 3, label %30
  ]

30:                                               ; preds = %26, %26
  %31 = getelementptr inbounds %struct.TfLiteTensor, %struct.TfLiteTensor* %27, i64 0, i32 0
  %32 = load i32, i32* %31, align 8
  %33 = icmp eq i32 %32, 1
  br i1 %33, label %41, label %34

34:                                               ; preds = %26, %30
  %35 = getelementptr inbounds %struct.TfLiteFullyConnectedParams, %struct.TfLiteFullyConnectedParams* %5, i64 0, i32 0
  %36 = load i32, i32* %35, align 4
  %37 = icmp ult i32 %36, 4
  br i1 %37, label %41, label %38

38:                                               ; preds = %34
  %39 = getelementptr inbounds %struct.TfLiteContext, %struct.TfLiteContext* %0, i64 0, i32 5
  %40 = load void (%struct.TfLiteContext*, i8*, ...)*, void (%struct.TfLiteContext*, i8*, ...)** %39, align 8
  tail call void (%struct.TfLiteContext*, i8*, ...) %40(%struct.TfLiteContext* %0, i8* getelementptr inbounds ([23 x i8], [23 x i8]* @.str, i64 0, i64 0), i8* getelementptr inbounds ([72 x i8], [72 x i8]* @.str.3, i64 0, i64 0), i32 316, i8* getelementptr inbounds ([163 x i8], [163 x i8]* @.str.30, i64 0, i64 0)) #19
  br label %43

41:                                               ; preds = %34, %30
  %42 = tail call i32 @_ZN6tflite3ops7builtin15fully_connected11PrepareImplEP13TfLiteContextP10TfLiteNode(%struct.TfLiteContext* %0, %struct.TfLiteNode* %1)
  br label %43

43:                                               ; preds = %41, %38
  %44 = phi i32 [ %42, %41 ], [ 1, %38 ]
  ret i32 %44
}

; Function Attrs: nounwind ssp uwtable
define linkonce_odr hidden i32 @_ZN6tflite3ops7builtin15fully_connected4EvalILNS2_10KernelTypeE1EEE12TfLiteStatusP13TfLiteContextP10TfLiteNode(%struct.TfLiteContext*, %struct.TfLiteNode*) #1 comdat {
  %3 = getelementptr inbounds %struct.TfLiteNode, %struct.TfLiteNode* %1, i64 0, i32 5
  %4 = bitcast i8** %3 to %struct.TfLiteFullyConnectedParams**
  %5 = load %struct.TfLiteFullyConnectedParams*, %struct.TfLiteFullyConnectedParams** %4, align 8
  %6 = getelementptr inbounds %struct.TfLiteNode, %struct.TfLiteNode* %1, i64 0, i32 4
  %7 = bitcast i8** %6 to %"struct.tflite::ops::builtin::fully_connected::OpData"**
  %8 = load %"struct.tflite::ops::builtin::fully_connected::OpData"*, %"struct.tflite::ops::builtin::fully_connected::OpData"** %7, align 8
  %9 = getelementptr inbounds %struct.TfLiteNode, %struct.TfLiteNode* %1, i64 0, i32 0
  %10 = load %struct.TfLiteIntArray*, %struct.TfLiteIntArray** %9, align 8
  %11 = getelementptr inbounds %struct.TfLiteIntArray, %struct.TfLiteIntArray* %10, i64 0, i32 1, i64 0
  %12 = load i32, i32* %11, align 4
  %13 = icmp slt i32 %12, 0
  br i1 %13, label %19, label %14

14:                                               ; preds = %2
  %15 = getelementptr inbounds %struct.TfLiteContext, %struct.TfLiteContext* %0, i64 0, i32 2
  %16 = load %struct.TfLiteTensor*, %struct.TfLiteTensor** %15, align 8
  %17 = sext i32 %12 to i64
  %18 = getelementptr inbounds %struct.TfLiteTensor, %struct.TfLiteTensor* %16, i64 %17
  br label %19

19:                                               ; preds = %2, %14
  %20 = phi %struct.TfLiteTensor* [ %18, %14 ], [ null, %2 ]
  %21 = getelementptr inbounds %struct.TfLiteIntArray, %struct.TfLiteIntArray* %10, i64 0, i32 1, i64 1
  %22 = load i32, i32* %21, align 4
  %23 = icmp slt i32 %22, 0
  br i1 %23, label %29, label %24

24:                                               ; preds = %19
  %25 = getelementptr inbounds %struct.TfLiteContext, %struct.TfLiteContext* %0, i64 0, i32 2
  %26 = load %struct.TfLiteTensor*, %struct.TfLiteTensor** %25, align 8
  %27 = sext i32 %22 to i64
  %28 = getelementptr inbounds %struct.TfLiteTensor, %struct.TfLiteTensor* %26, i64 %27
  br label %29

29:                                               ; preds = %19, %24
  %30 = phi %struct.TfLiteTensor* [ %28, %24 ], [ null, %19 ]
  %31 = getelementptr inbounds %struct.TfLiteIntArray, %struct.TfLiteIntArray* %10, i64 0, i32 0
  %32 = load i32, i32* %31, align 4
  %33 = icmp eq i32 %32, 3
  br i1 %33, label %34, label %43

34:                                               ; preds = %29
  %35 = getelementptr inbounds %struct.TfLiteIntArray, %struct.TfLiteIntArray* %10, i64 0, i32 1, i64 2
  %36 = load i32, i32* %35, align 4
  %37 = icmp slt i32 %36, 0
  br i1 %37, label %43, label %38

38:                                               ; preds = %34
  %39 = getelementptr inbounds %struct.TfLiteContext, %struct.TfLiteContext* %0, i64 0, i32 2
  %40 = load %struct.TfLiteTensor*, %struct.TfLiteTensor** %39, align 8
  %41 = sext i32 %36 to i64
  %42 = getelementptr inbounds %struct.TfLiteTensor, %struct.TfLiteTensor* %40, i64 %41
  br label %43

43:                                               ; preds = %38, %34, %29
  %44 = phi %struct.TfLiteTensor* [ null, %29 ], [ %42, %38 ], [ null, %34 ]
  %45 = getelementptr inbounds %struct.TfLiteNode, %struct.TfLiteNode* %1, i64 0, i32 1
  %46 = load %struct.TfLiteIntArray*, %struct.TfLiteIntArray** %45, align 8
  %47 = getelementptr inbounds %struct.TfLiteIntArray, %struct.TfLiteIntArray* %46, i64 0, i32 1, i64 0
  %48 = load i32, i32* %47, align 4
  %49 = icmp slt i32 %48, 0
  br i1 %49, label %55, label %50

50:                                               ; preds = %43
  %51 = getelementptr inbounds %struct.TfLiteContext, %struct.TfLiteContext* %0, i64 0, i32 2
  %52 = load %struct.TfLiteTensor*, %struct.TfLiteTensor** %51, align 8
  %53 = sext i32 %48 to i64
  %54 = getelementptr inbounds %struct.TfLiteTensor, %struct.TfLiteTensor* %52, i64 %53
  br label %55

55:                                               ; preds = %43, %50
  %56 = phi %struct.TfLiteTensor* [ %54, %50 ], [ null, %43 ]
  %57 = getelementptr inbounds %struct.TfLiteTensor, %struct.TfLiteTensor* %30, i64 0, i32 0
  %58 = load i32, i32* %57, align 8
  switch i32 %58, label %90 [
    i32 1, label %59
    i32 3, label %61
    i32 9, label %81
  ]

59:                                               ; preds = %55
  %60 = tail call i32 @_ZN6tflite3ops7builtin15fully_connected9EvalFloatILNS2_10KernelTypeE1EEE12TfLiteStatusP13TfLiteContextP10TfLiteNodeP26TfLiteFullyConnectedParamsPNS2_6OpDataEPK12TfLiteTensorSG_SG_PSE_(%struct.TfLiteContext* %0, %struct.TfLiteNode* %1, %struct.TfLiteFullyConnectedParams* %5, %"struct.tflite::ops::builtin::fully_connected::OpData"* %8, %struct.TfLiteTensor* %20, %struct.TfLiteTensor* %30, %struct.TfLiteTensor* %44, %struct.TfLiteTensor* %56)
  br label %94

61:                                               ; preds = %55
  %62 = getelementptr inbounds %struct.TfLiteFullyConnectedParams, %struct.TfLiteFullyConnectedParams* %5, i64 0, i32 1
  %63 = load i32, i32* %62, align 4
  switch i32 %63, label %78 [
    i32 1, label %64
    i32 0, label %76
  ]

64:                                               ; preds = %61
  %65 = getelementptr inbounds %struct.TfLiteIntArray, %struct.TfLiteIntArray* %46, i64 0, i32 1, i64 1
  %66 = load i32, i32* %65, align 4
  %67 = icmp slt i32 %66, 0
  br i1 %67, label %73, label %68

68:                                               ; preds = %64
  %69 = getelementptr inbounds %struct.TfLiteContext, %struct.TfLiteContext* %0, i64 0, i32 2
  %70 = load %struct.TfLiteTensor*, %struct.TfLiteTensor** %69, align 8
  %71 = sext i32 %66 to i64
  %72 = getelementptr inbounds %struct.TfLiteTensor, %struct.TfLiteTensor* %70, i64 %71
  br label %73

73:                                               ; preds = %64, %68
  %74 = phi %struct.TfLiteTensor* [ %72, %68 ], [ null, %64 ]
  %75 = tail call i32 @_ZN6tflite3ops7builtin15fully_connected21EvalShuffledQuantizedILNS2_10KernelTypeE1EEE12TfLiteStatusP13TfLiteContextP10TfLiteNodeP26TfLiteFullyConnectedParamsPNS2_6OpDataEPK12TfLiteTensorSG_SG_PSE_SH_(%struct.TfLiteContext* %0, %struct.TfLiteNode* %1, %struct.TfLiteFullyConnectedParams* %5, %"struct.tflite::ops::builtin::fully_connected::OpData"* %8, %struct.TfLiteTensor* %20, %struct.TfLiteTensor* %30, %struct.TfLiteTensor* %44, %struct.TfLiteTensor* %56, %struct.TfLiteTensor* %74)
  br label %94

76:                                               ; preds = %61
  %77 = tail call i32 @_ZN6tflite3ops7builtin15fully_connected13EvalQuantizedILNS2_10KernelTypeE1EEE12TfLiteStatusP13TfLiteContextP10TfLiteNodeP26TfLiteFullyConnectedParamsPNS2_6OpDataEPK12TfLiteTensorSG_SG_PSE_(%struct.TfLiteContext* %0, %struct.TfLiteNode* %1, %struct.TfLiteFullyConnectedParams* %5, %"struct.tflite::ops::builtin::fully_connected::OpData"* %8, %struct.TfLiteTensor* %20, %struct.TfLiteTensor* %30, %struct.TfLiteTensor* %44, %struct.TfLiteTensor* %56)
  br label %94

78:                                               ; preds = %61
  %79 = getelementptr inbounds %struct.TfLiteContext, %struct.TfLiteContext* %0, i64 0, i32 5
  %80 = load void (%struct.TfLiteContext*, i8*, ...)*, void (%struct.TfLiteContext*, i8*, ...)** %79, align 8
  tail call void (%struct.TfLiteContext*, i8*, ...) %80(%struct.TfLiteContext* %0, i8* getelementptr inbounds ([41 x i8], [41 x i8]* @.str.31, i64 0, i64 0)) #19
  br label %94

81:                                               ; preds = %55
  %82 = getelementptr inbounds %struct.TfLiteFullyConnectedParams, %struct.TfLiteFullyConnectedParams* %5, i64 0, i32 1
  %83 = load i32, i32* %82, align 4
  %84 = icmp eq i32 %83, 0
  br i1 %84, label %85, label %87

85:                                               ; preds = %81
  %86 = tail call i32 @_ZN6tflite3ops7builtin15fully_connected13EvalQuantizedILNS2_10KernelTypeE1EEE12TfLiteStatusP13TfLiteContextP10TfLiteNodeP26TfLiteFullyConnectedParamsPNS2_6OpDataEPK12TfLiteTensorSG_SG_PSE_(%struct.TfLiteContext* %0, %struct.TfLiteNode* %1, %struct.TfLiteFullyConnectedParams* %5, %"struct.tflite::ops::builtin::fully_connected::OpData"* %8, %struct.TfLiteTensor* %20, %struct.TfLiteTensor* %30, %struct.TfLiteTensor* %44, %struct.TfLiteTensor* %56)
  br label %94

87:                                               ; preds = %81
  %88 = getelementptr inbounds %struct.TfLiteContext, %struct.TfLiteContext* %0, i64 0, i32 5
  %89 = load void (%struct.TfLiteContext*, i8*, ...)*, void (%struct.TfLiteContext*, i8*, ...)** %88, align 8
  tail call void (%struct.TfLiteContext*, i8*, ...) %89(%struct.TfLiteContext* %0, i8* getelementptr inbounds ([41 x i8], [41 x i8]* @.str.31, i64 0, i64 0)) #19
  br label %94

90:                                               ; preds = %55
  %91 = getelementptr inbounds %struct.TfLiteContext, %struct.TfLiteContext* %0, i64 0, i32 5
  %92 = load void (%struct.TfLiteContext*, i8*, ...)*, void (%struct.TfLiteContext*, i8*, ...)** %91, align 8
  %93 = tail call i8* @TfLiteTypeGetName(i32 %58) #19
  tail call void (%struct.TfLiteContext*, i8*, ...) %92(%struct.TfLiteContext* %0, i8* getelementptr inbounds ([45 x i8], [45 x i8]* @.str.32, i64 0, i64 0), i8* %93) #19
  br label %94

94:                                               ; preds = %90, %87, %85, %78, %76, %73, %59
  %95 = phi i32 [ 1, %90 ], [ %86, %85 ], [ 1, %87 ], [ %75, %73 ], [ %77, %76 ], [ 1, %78 ], [ %60, %59 ]
  ret i32 %95
}

; Function Attrs: norecurse nounwind readnone ssp uwtable
define hidden %struct.TfLiteRegistration* @_ZN6tflite3ops7builtin28Register_FULLY_CONNECTED_PIEEv() local_unnamed_addr #6 {
  ret %struct.TfLiteRegistration* bitcast ({ i8* (%struct.TfLiteContext*, i8*, i64)*, void (%struct.TfLiteContext*, i8*)*, i32 (%struct.TfLiteContext*, %struct.TfLiteNode*)*, i32 (%struct.TfLiteContext*, %struct.TfLiteNode*)*, i8* (%struct.TfLiteContext*, %struct.TfLiteNode*)*, i32, i8*, i32 }* @_ZZN6tflite3ops7builtin28Register_FULLY_CONNECTED_PIEEvE1r to %struct.TfLiteRegistration*)
}

; Function Attrs: nounwind ssp uwtable
define linkonce_odr hidden i32 @_ZN6tflite3ops7builtin15fully_connected7PrepareILNS2_10KernelTypeE2EEE12TfLiteStatusP13TfLiteContextP10TfLiteNode(%struct.TfLiteContext*, %struct.TfLiteNode*) #1 comdat {
  %3 = tail call i32 @_ZN6tflite3ops7builtin15fully_connected11PrepareImplEP13TfLiteContextP10TfLiteNode(%struct.TfLiteContext* %0, %struct.TfLiteNode* %1)
  ret i32 %3
}

; Function Attrs: nounwind ssp uwtable
define linkonce_odr hidden i32 @_ZN6tflite3ops7builtin15fully_connected4EvalILNS2_10KernelTypeE2EEE12TfLiteStatusP13TfLiteContextP10TfLiteNode(%struct.TfLiteContext*, %struct.TfLiteNode*) #1 comdat {
  %3 = getelementptr inbounds %struct.TfLiteNode, %struct.TfLiteNode* %1, i64 0, i32 5
  %4 = bitcast i8** %3 to %struct.TfLiteFullyConnectedParams**
  %5 = load %struct.TfLiteFullyConnectedParams*, %struct.TfLiteFullyConnectedParams** %4, align 8
  %6 = getelementptr inbounds %struct.TfLiteNode, %struct.TfLiteNode* %1, i64 0, i32 4
  %7 = bitcast i8** %6 to %"struct.tflite::ops::builtin::fully_connected::OpData"**
  %8 = load %"struct.tflite::ops::builtin::fully_connected::OpData"*, %"struct.tflite::ops::builtin::fully_connected::OpData"** %7, align 8
  %9 = getelementptr inbounds %struct.TfLiteNode, %struct.TfLiteNode* %1, i64 0, i32 0
  %10 = load %struct.TfLiteIntArray*, %struct.TfLiteIntArray** %9, align 8
  %11 = getelementptr inbounds %struct.TfLiteIntArray, %struct.TfLiteIntArray* %10, i64 0, i32 1, i64 0
  %12 = load i32, i32* %11, align 4
  %13 = icmp slt i32 %12, 0
  br i1 %13, label %19, label %14

14:                                               ; preds = %2
  %15 = getelementptr inbounds %struct.TfLiteContext, %struct.TfLiteContext* %0, i64 0, i32 2
  %16 = load %struct.TfLiteTensor*, %struct.TfLiteTensor** %15, align 8
  %17 = sext i32 %12 to i64
  %18 = getelementptr inbounds %struct.TfLiteTensor, %struct.TfLiteTensor* %16, i64 %17
  br label %19

19:                                               ; preds = %2, %14
  %20 = phi %struct.TfLiteTensor* [ %18, %14 ], [ null, %2 ]
  %21 = getelementptr inbounds %struct.TfLiteIntArray, %struct.TfLiteIntArray* %10, i64 0, i32 1, i64 1
  %22 = load i32, i32* %21, align 4
  %23 = icmp slt i32 %22, 0
  br i1 %23, label %29, label %24

24:                                               ; preds = %19
  %25 = getelementptr inbounds %struct.TfLiteContext, %struct.TfLiteContext* %0, i64 0, i32 2
  %26 = load %struct.TfLiteTensor*, %struct.TfLiteTensor** %25, align 8
  %27 = sext i32 %22 to i64
  %28 = getelementptr inbounds %struct.TfLiteTensor, %struct.TfLiteTensor* %26, i64 %27
  br label %29

29:                                               ; preds = %19, %24
  %30 = phi %struct.TfLiteTensor* [ %28, %24 ], [ null, %19 ]
  %31 = getelementptr inbounds %struct.TfLiteIntArray, %struct.TfLiteIntArray* %10, i64 0, i32 0
  %32 = load i32, i32* %31, align 4
  %33 = icmp eq i32 %32, 3
  br i1 %33, label %34, label %43

34:                                               ; preds = %29
  %35 = getelementptr inbounds %struct.TfLiteIntArray, %struct.TfLiteIntArray* %10, i64 0, i32 1, i64 2
  %36 = load i32, i32* %35, align 4
  %37 = icmp slt i32 %36, 0
  br i1 %37, label %43, label %38

38:                                               ; preds = %34
  %39 = getelementptr inbounds %struct.TfLiteContext, %struct.TfLiteContext* %0, i64 0, i32 2
  %40 = load %struct.TfLiteTensor*, %struct.TfLiteTensor** %39, align 8
  %41 = sext i32 %36 to i64
  %42 = getelementptr inbounds %struct.TfLiteTensor, %struct.TfLiteTensor* %40, i64 %41
  br label %43

43:                                               ; preds = %38, %34, %29
  %44 = phi %struct.TfLiteTensor* [ null, %29 ], [ %42, %38 ], [ null, %34 ]
  %45 = getelementptr inbounds %struct.TfLiteNode, %struct.TfLiteNode* %1, i64 0, i32 1
  %46 = load %struct.TfLiteIntArray*, %struct.TfLiteIntArray** %45, align 8
  %47 = getelementptr inbounds %struct.TfLiteIntArray, %struct.TfLiteIntArray* %46, i64 0, i32 1, i64 0
  %48 = load i32, i32* %47, align 4
  %49 = icmp slt i32 %48, 0
  br i1 %49, label %55, label %50

50:                                               ; preds = %43
  %51 = getelementptr inbounds %struct.TfLiteContext, %struct.TfLiteContext* %0, i64 0, i32 2
  %52 = load %struct.TfLiteTensor*, %struct.TfLiteTensor** %51, align 8
  %53 = sext i32 %48 to i64
  %54 = getelementptr inbounds %struct.TfLiteTensor, %struct.TfLiteTensor* %52, i64 %53
  br label %55

55:                                               ; preds = %43, %50
  %56 = phi %struct.TfLiteTensor* [ %54, %50 ], [ null, %43 ]
  %57 = getelementptr inbounds %struct.TfLiteTensor, %struct.TfLiteTensor* %30, i64 0, i32 0
  %58 = load i32, i32* %57, align 8
  switch i32 %58, label %90 [
    i32 1, label %59
    i32 3, label %61
    i32 9, label %81
  ]

59:                                               ; preds = %55
  %60 = tail call i32 @_ZN6tflite3ops7builtin15fully_connected7EvalPieEP13TfLiteContextP10TfLiteNodeP26TfLiteFullyConnectedParamsPNS2_6OpDataEPK12TfLiteTensorSD_SD_PSB_(%struct.TfLiteContext* undef, %struct.TfLiteNode* undef, %struct.TfLiteFullyConnectedParams* %5, %"struct.tflite::ops::builtin::fully_connected::OpData"* undef, %struct.TfLiteTensor* %20, %struct.TfLiteTensor* %30, %struct.TfLiteTensor* %44, %struct.TfLiteTensor* %56) #19
  br label %94

61:                                               ; preds = %55
  %62 = getelementptr inbounds %struct.TfLiteFullyConnectedParams, %struct.TfLiteFullyConnectedParams* %5, i64 0, i32 1
  %63 = load i32, i32* %62, align 4
  switch i32 %63, label %78 [
    i32 1, label %64
    i32 0, label %76
  ]

64:                                               ; preds = %61
  %65 = getelementptr inbounds %struct.TfLiteIntArray, %struct.TfLiteIntArray* %46, i64 0, i32 1, i64 1
  %66 = load i32, i32* %65, align 4
  %67 = icmp slt i32 %66, 0
  br i1 %67, label %73, label %68

68:                                               ; preds = %64
  %69 = getelementptr inbounds %struct.TfLiteContext, %struct.TfLiteContext* %0, i64 0, i32 2
  %70 = load %struct.TfLiteTensor*, %struct.TfLiteTensor** %69, align 8
  %71 = sext i32 %66 to i64
  %72 = getelementptr inbounds %struct.TfLiteTensor, %struct.TfLiteTensor* %70, i64 %71
  br label %73

73:                                               ; preds = %64, %68
  %74 = phi %struct.TfLiteTensor* [ %72, %68 ], [ null, %64 ]
  %75 = tail call i32 @_ZN6tflite3ops7builtin15fully_connected21EvalShuffledQuantizedILNS2_10KernelTypeE2EEE12TfLiteStatusP13TfLiteContextP10TfLiteNodeP26TfLiteFullyConnectedParamsPNS2_6OpDataEPK12TfLiteTensorSG_SG_PSE_SH_(%struct.TfLiteContext* %0, %struct.TfLiteNode* %1, %struct.TfLiteFullyConnectedParams* %5, %"struct.tflite::ops::builtin::fully_connected::OpData"* %8, %struct.TfLiteTensor* %20, %struct.TfLiteTensor* %30, %struct.TfLiteTensor* %44, %struct.TfLiteTensor* %56, %struct.TfLiteTensor* %74)
  br label %94

76:                                               ; preds = %61
  %77 = tail call i32 @_ZN6tflite3ops7builtin15fully_connected13EvalQuantizedILNS2_10KernelTypeE2EEE12TfLiteStatusP13TfLiteContextP10TfLiteNodeP26TfLiteFullyConnectedParamsPNS2_6OpDataEPK12TfLiteTensorSG_SG_PSE_(%struct.TfLiteContext* %0, %struct.TfLiteNode* %1, %struct.TfLiteFullyConnectedParams* %5, %"struct.tflite::ops::builtin::fully_connected::OpData"* %8, %struct.TfLiteTensor* %20, %struct.TfLiteTensor* %30, %struct.TfLiteTensor* %44, %struct.TfLiteTensor* %56)
  br label %94

78:                                               ; preds = %61
  %79 = getelementptr inbounds %struct.TfLiteContext, %struct.TfLiteContext* %0, i64 0, i32 5
  %80 = load void (%struct.TfLiteContext*, i8*, ...)*, void (%struct.TfLiteContext*, i8*, ...)** %79, align 8
  tail call void (%struct.TfLiteContext*, i8*, ...) %80(%struct.TfLiteContext* %0, i8* getelementptr inbounds ([41 x i8], [41 x i8]* @.str.31, i64 0, i64 0)) #19
  br label %94

81:                                               ; preds = %55
  %82 = getelementptr inbounds %struct.TfLiteFullyConnectedParams, %struct.TfLiteFullyConnectedParams* %5, i64 0, i32 1
  %83 = load i32, i32* %82, align 4
  %84 = icmp eq i32 %83, 0
  br i1 %84, label %85, label %87

85:                                               ; preds = %81
  %86 = tail call i32 @_ZN6tflite3ops7builtin15fully_connected13EvalQuantizedILNS2_10KernelTypeE2EEE12TfLiteStatusP13TfLiteContextP10TfLiteNodeP26TfLiteFullyConnectedParamsPNS2_6OpDataEPK12TfLiteTensorSG_SG_PSE_(%struct.TfLiteContext* %0, %struct.TfLiteNode* %1, %struct.TfLiteFullyConnectedParams* %5, %"struct.tflite::ops::builtin::fully_connected::OpData"* %8, %struct.TfLiteTensor* %20, %struct.TfLiteTensor* %30, %struct.TfLiteTensor* %44, %struct.TfLiteTensor* %56)
  br label %94

87:                                               ; preds = %81
  %88 = getelementptr inbounds %struct.TfLiteContext, %struct.TfLiteContext* %0, i64 0, i32 5
  %89 = load void (%struct.TfLiteContext*, i8*, ...)*, void (%struct.TfLiteContext*, i8*, ...)** %88, align 8
  tail call void (%struct.TfLiteContext*, i8*, ...) %89(%struct.TfLiteContext* %0, i8* getelementptr inbounds ([41 x i8], [41 x i8]* @.str.31, i64 0, i64 0)) #19
  br label %94

90:                                               ; preds = %55
  %91 = getelementptr inbounds %struct.TfLiteContext, %struct.TfLiteContext* %0, i64 0, i32 5
  %92 = load void (%struct.TfLiteContext*, i8*, ...)*, void (%struct.TfLiteContext*, i8*, ...)** %91, align 8
  %93 = tail call i8* @TfLiteTypeGetName(i32 %58) #19
  tail call void (%struct.TfLiteContext*, i8*, ...) %92(%struct.TfLiteContext* %0, i8* getelementptr inbounds ([45 x i8], [45 x i8]* @.str.32, i64 0, i64 0), i8* %93) #19
  br label %94

94:                                               ; preds = %90, %87, %85, %78, %76, %73, %59
  %95 = phi i32 [ 1, %90 ], [ %86, %85 ], [ 1, %87 ], [ %75, %73 ], [ %77, %76 ], [ 1, %78 ], [ 0, %59 ]
  ret i32 %95
}

; Function Attrs: norecurse nounwind readnone ssp uwtable
define hidden %struct.TfLiteRegistration* @_ZN6tflite3ops7builtin24Register_FULLY_CONNECTEDEv() local_unnamed_addr #6 {
  ret %struct.TfLiteRegistration* bitcast ({ i8* (%struct.TfLiteContext*, i8*, i64)*, void (%struct.TfLiteContext*, i8*)*, i32 (%struct.TfLiteContext*, %struct.TfLiteNode*)*, i32 (%struct.TfLiteContext*, %struct.TfLiteNode*)*, i8* (%struct.TfLiteContext*, %struct.TfLiteNode*)*, i32, i8*, i32 }* @_ZZN6tflite3ops7builtin36Register_FULLY_CONNECTED_GENERIC_OPTEvE1r to %struct.TfLiteRegistration*)
}

declare i8* @TfLiteTypeGetName(i32) local_unnamed_addr #5

; Function Attrs: argmemonly nounwind
declare void @llvm.memcpy.p0i8.p0i8.i64(i8* nocapture writeonly, i8* nocapture readonly, i64, i1 immarg) #0

; Function Attrs: inlinehint nounwind ssp uwtable
define linkonce_odr hidden void @_ZN5Eigen8internal21dense_assignment_loopINS0_31generic_dense_assignment_kernelINS0_9evaluatorINS_12ArrayWrapperINS_3MapINS_6MatrixIfLin1ELi1ELi0ELin1ELi1EEELi0ENS_6StrideILi0ELi0EEEEEEEEENS3_INS_12CwiseUnaryOpINS0_14scalar_tanh_opIfEEKSB_EEEENS0_9assign_opIffEELi0EEELi3ELi0EE3runERSL_(%"class.Eigen::internal::generic_dense_assignment_kernel"* dereferenceable(32)) local_unnamed_addr #7 comdat align 2 {
  %2 = getelementptr inbounds %"class.Eigen::internal::generic_dense_assignment_kernel", %"class.Eigen::internal::generic_dense_assignment_kernel"* %0, i64 0, i32 3
  %3 = bitcast %"class.Eigen::ArrayWrapper"** %2 to %"struct.Eigen::EigenBase.33"**
  %4 = load %"struct.Eigen::EigenBase.33"*, %"struct.Eigen::EigenBase.33"** %3, align 8
  %5 = getelementptr inbounds %"struct.Eigen::EigenBase.33", %"struct.Eigen::EigenBase.33"* %4, i64 8
  %6 = bitcast %"struct.Eigen::EigenBase.33"* %5 to i64*
  %7 = load i64, i64* %6, align 8
  %8 = bitcast %"struct.Eigen::EigenBase.33"* %4 to i64*
  %9 = load i64, i64* %8, align 8
  %10 = and i64 %9, 3
  %11 = icmp eq i64 %10, 0
  br i1 %11, label %12, label %18

12:                                               ; preds = %1
  %13 = lshr i64 %9, 2
  %14 = sub nsw i64 0, %13
  %15 = and i64 %14, 3
  %16 = icmp slt i64 %15, %7
  %17 = select i1 %16, i64 %15, i64 %7
  br label %18

18:                                               ; preds = %1, %12
  %19 = phi i64 [ %17, %12 ], [ %7, %1 ]
  %20 = sub nsw i64 %7, %19
  %21 = sdiv i64 %20, 4
  %22 = shl nsw i64 %21, 2
  %23 = add nsw i64 %22, %19
  %24 = icmp sgt i64 %19, 0
  br i1 %24, label %25, label %72

25:                                               ; preds = %18
  %26 = bitcast %"class.Eigen::internal::generic_dense_assignment_kernel"* %0 to %"struct.Eigen::internal::evaluator_wrapper_base"**
  %27 = getelementptr inbounds %"class.Eigen::internal::generic_dense_assignment_kernel", %"class.Eigen::internal::generic_dense_assignment_kernel"* %0, i64 0, i32 1
  %28 = bitcast %"struct.Eigen::internal::evaluator"** %27 to %"struct.Eigen::internal::unary_evaluator"**
  br label %29

29:                                               ; preds = %29, %25
  %30 = phi i64 [ 0, %25 ], [ %70, %29 ]
  %31 = load %"struct.Eigen::internal::evaluator_wrapper_base"*, %"struct.Eigen::internal::evaluator_wrapper_base"** %26, align 8
  %32 = getelementptr inbounds %"struct.Eigen::internal::evaluator_wrapper_base", %"struct.Eigen::internal::evaluator_wrapper_base"* %31, i64 0, i32 0, i32 0, i32 0
  %33 = load float*, float** %32, align 8
  %34 = getelementptr inbounds float, float* %33, i64 %30
  %35 = load %"struct.Eigen::internal::unary_evaluator"*, %"struct.Eigen::internal::unary_evaluator"** %28, align 8
  %36 = getelementptr inbounds %"struct.Eigen::internal::unary_evaluator", %"struct.Eigen::internal::unary_evaluator"* %35, i64 0, i32 0, i32 0, i32 0, i32 0, i32 0, i32 0, i32 0, i32 0
  %37 = load float*, float** %36, align 8
  %38 = getelementptr inbounds float, float* %37, i64 %30
  %39 = load float, float* %38, align 4
  %40 = fcmp ogt float %39, 0x401F9F09E0000000
  %41 = select i1 %40, float 0x401F9F09E0000000, float %39
  %42 = fcmp olt float %41, 0xC01F9F09E0000000
  %43 = select i1 %42, float 0xC01F9F09E0000000, float %41
  %44 = tail call float @llvm.fabs.f32(float %39) #19
  %45 = fcmp olt float %44, 0x3F3A36E2E0000000
  %46 = select i1 %45, float 0xFFFFFFFFE0000000, float 0.000000e+00
  %47 = fmul float %43, %43
  %48 = fmul float %47, 0x3CB3E4B800000000
  %49 = fsub float 0x3D4C266FC0000000, %48
  %50 = fmul float %47, %49
  %51 = fadd float %50, 0xBDD7A6FFE0000000
  %52 = fmul float %47, %51
  %53 = fadd float %52, 0x3E6B800820000000
  %54 = fmul float %47, %53
  %55 = fadd float %54, 0x3EEF286940000000
  %56 = fmul float %47, %55
  %57 = fadd float %56, 0x3F44E1BDA0000000
  %58 = fmul float %47, %57
  %59 = fadd float %58, 0x3F740B3B80000000
  %60 = fmul float %43, %59
  %61 = fmul float %47, 0x3EB41A7B00000000
  %62 = fadd float %61, 0x3F1F12BAC0000000
  %63 = fmul float %47, %62
  %64 = fadd float %63, 0x3F629540A0000000
  %65 = fmul float %47, %64
  %66 = fadd float %65, 0x3F740B3BA0000000
  %67 = fdiv float %60, %66
  %68 = fcmp oeq float %46, 0.000000e+00
  %69 = select i1 %68, float %67, float %43
  store float %69, float* %34, align 4
  %70 = add nuw nsw i64 %30, 1
  %71 = icmp eq i64 %70, %19
  br i1 %71, label %72, label %29

72:                                               ; preds = %29, %18
  %73 = icmp sgt i64 %20, 3
  br i1 %73, label %74, label %78

74:                                               ; preds = %72
  %75 = bitcast %"class.Eigen::internal::generic_dense_assignment_kernel"* %0 to %"struct.Eigen::internal::evaluator_wrapper_base"**
  %76 = getelementptr inbounds %"class.Eigen::internal::generic_dense_assignment_kernel", %"class.Eigen::internal::generic_dense_assignment_kernel"* %0, i64 0, i32 1
  %77 = bitcast %"struct.Eigen::internal::evaluator"** %76 to %"struct.Eigen::internal::unary_evaluator"**
  br label %128

78:                                               ; preds = %128, %72
  %79 = icmp slt i64 %23, %7
  br i1 %79, label %80, label %127

80:                                               ; preds = %78
  %81 = bitcast %"class.Eigen::internal::generic_dense_assignment_kernel"* %0 to %"struct.Eigen::internal::evaluator_wrapper_base"**
  %82 = getelementptr inbounds %"class.Eigen::internal::generic_dense_assignment_kernel", %"class.Eigen::internal::generic_dense_assignment_kernel"* %0, i64 0, i32 1
  %83 = bitcast %"struct.Eigen::internal::evaluator"** %82 to %"struct.Eigen::internal::unary_evaluator"**
  br label %84

84:                                               ; preds = %84, %80
  %85 = phi i64 [ %23, %80 ], [ %125, %84 ]
  %86 = load %"struct.Eigen::internal::evaluator_wrapper_base"*, %"struct.Eigen::internal::evaluator_wrapper_base"** %81, align 8
  %87 = getelementptr inbounds %"struct.Eigen::internal::evaluator_wrapper_base", %"struct.Eigen::internal::evaluator_wrapper_base"* %86, i64 0, i32 0, i32 0, i32 0
  %88 = load float*, float** %87, align 8
  %89 = getelementptr inbounds float, float* %88, i64 %85
  %90 = load %"struct.Eigen::internal::unary_evaluator"*, %"struct.Eigen::internal::unary_evaluator"** %83, align 8
  %91 = getelementptr inbounds %"struct.Eigen::internal::unary_evaluator", %"struct.Eigen::internal::unary_evaluator"* %90, i64 0, i32 0, i32 0, i32 0, i32 0, i32 0, i32 0, i32 0, i32 0
  %92 = load float*, float** %91, align 8
  %93 = getelementptr inbounds float, float* %92, i64 %85
  %94 = load float, float* %93, align 4
  %95 = fcmp ogt float %94, 0x401F9F09E0000000
  %96 = select i1 %95, float 0x401F9F09E0000000, float %94
  %97 = fcmp olt float %96, 0xC01F9F09E0000000
  %98 = select i1 %97, float 0xC01F9F09E0000000, float %96
  %99 = tail call float @llvm.fabs.f32(float %94) #19
  %100 = fcmp olt float %99, 0x3F3A36E2E0000000
  %101 = select i1 %100, float 0xFFFFFFFFE0000000, float 0.000000e+00
  %102 = fmul float %98, %98
  %103 = fmul float %102, 0x3CB3E4B800000000
  %104 = fsub float 0x3D4C266FC0000000, %103
  %105 = fmul float %102, %104
  %106 = fadd float %105, 0xBDD7A6FFE0000000
  %107 = fmul float %102, %106
  %108 = fadd float %107, 0x3E6B800820000000
  %109 = fmul float %102, %108
  %110 = fadd float %109, 0x3EEF286940000000
  %111 = fmul float %102, %110
  %112 = fadd float %111, 0x3F44E1BDA0000000
  %113 = fmul float %102, %112
  %114 = fadd float %113, 0x3F740B3B80000000
  %115 = fmul float %98, %114
  %116 = fmul float %102, 0x3EB41A7B00000000
  %117 = fadd float %116, 0x3F1F12BAC0000000
  %118 = fmul float %102, %117
  %119 = fadd float %118, 0x3F629540A0000000
  %120 = fmul float %102, %119
  %121 = fadd float %120, 0x3F740B3BA0000000
  %122 = fdiv float %115, %121
  %123 = fcmp oeq float %101, 0.000000e+00
  %124 = select i1 %123, float %122, float %98
  store float %124, float* %89, align 4
  %125 = add nsw i64 %85, 1
  %126 = icmp eq i64 %125, %7
  br i1 %126, label %127, label %84

127:                                              ; preds = %84, %78
  ret void

128:                                              ; preds = %74, %128
  %129 = phi i64 [ %19, %74 ], [ %169, %128 ]
  %130 = load %"struct.Eigen::internal::evaluator_wrapper_base"*, %"struct.Eigen::internal::evaluator_wrapper_base"** %75, align 8
  %131 = getelementptr inbounds %"struct.Eigen::internal::evaluator_wrapper_base", %"struct.Eigen::internal::evaluator_wrapper_base"* %130, i64 0, i32 0, i32 0, i32 0
  %132 = load float*, float** %131, align 8
  %133 = getelementptr inbounds float, float* %132, i64 %129
  %134 = load %"struct.Eigen::internal::unary_evaluator"*, %"struct.Eigen::internal::unary_evaluator"** %77, align 8
  %135 = getelementptr inbounds %"struct.Eigen::internal::unary_evaluator", %"struct.Eigen::internal::unary_evaluator"* %134, i64 0, i32 0, i32 0, i32 0, i32 0, i32 0, i32 0, i32 0, i32 0
  %136 = load float*, float** %135, align 8
  %137 = getelementptr inbounds float, float* %136, i64 %129
  %138 = bitcast float* %137 to <4 x float>*
  %139 = load <4 x float>, <4 x float>* %138, align 1
  %140 = tail call <4 x float> asm "minps $1, $0", "=x,x,0,~{dirflag},~{fpsr},~{flags}"(<4 x float> %139, <4 x float> <float 0x401F9F09E0000000, float 0x401F9F09E0000000, float 0x401F9F09E0000000, float 0x401F9F09E0000000>) #10, !srcloc !60
  %141 = tail call <4 x float> asm "maxps $1, $0", "=x,x,0,~{dirflag},~{fpsr},~{flags}"(<4 x float> %140, <4 x float> <float 0xC01F9F09E0000000, float 0xC01F9F09E0000000, float 0xC01F9F09E0000000, float 0xC01F9F09E0000000>) #10, !srcloc !61
  %142 = bitcast <4 x float> %139 to <4 x i32>
  %143 = and <4 x i32> %142, <i32 2147483647, i32 2147483647, i32 2147483647, i32 2147483647>
  %144 = bitcast <4 x i32> %143 to <4 x float>
  %145 = fcmp uge <4 x float> %144, <float 0x3F3A36E2E0000000, float 0x3F3A36E2E0000000, float 0x3F3A36E2E0000000, float 0x3F3A36E2E0000000>
  %146 = fmul <4 x float> %141, %141
  %147 = fmul <4 x float> %146, <float 0xBCB3E4B800000000, float 0xBCB3E4B800000000, float 0xBCB3E4B800000000, float 0xBCB3E4B800000000>
  %148 = fadd <4 x float> %147, <float 0x3D4C266FC0000000, float 0x3D4C266FC0000000, float 0x3D4C266FC0000000, float 0x3D4C266FC0000000>
  %149 = fmul <4 x float> %146, %148
  %150 = fadd <4 x float> %149, <float 0xBDD7A6FFE0000000, float 0xBDD7A6FFE0000000, float 0xBDD7A6FFE0000000, float 0xBDD7A6FFE0000000>
  %151 = fmul <4 x float> %146, %150
  %152 = fadd <4 x float> %151, <float 0x3E6B800820000000, float 0x3E6B800820000000, float 0x3E6B800820000000, float 0x3E6B800820000000>
  %153 = fmul <4 x float> %146, %152
  %154 = fadd <4 x float> %153, <float 0x3EEF286940000000, float 0x3EEF286940000000, float 0x3EEF286940000000, float 0x3EEF286940000000>
  %155 = fmul <4 x float> %146, %154
  %156 = fadd <4 x float> %155, <float 0x3F44E1BDA0000000, float 0x3F44E1BDA0000000, float 0x3F44E1BDA0000000, float 0x3F44E1BDA0000000>
  %157 = fmul <4 x float> %146, %156
  %158 = fadd <4 x float> %157, <float 0x3F740B3B80000000, float 0x3F740B3B80000000, float 0x3F740B3B80000000, float 0x3F740B3B80000000>
  %159 = fmul <4 x float> %141, %158
  %160 = fmul <4 x float> %146, <float 0x3EB41A7B00000000, float 0x3EB41A7B00000000, float 0x3EB41A7B00000000, float 0x3EB41A7B00000000>
  %161 = fadd <4 x float> %160, <float 0x3F1F12BAC0000000, float 0x3F1F12BAC0000000, float 0x3F1F12BAC0000000, float 0x3F1F12BAC0000000>
  %162 = fmul <4 x float> %146, %161
  %163 = fadd <4 x float> %162, <float 0x3F629540A0000000, float 0x3F629540A0000000, float 0x3F629540A0000000, float 0x3F629540A0000000>
  %164 = fmul <4 x float> %146, %163
  %165 = fadd <4 x float> %164, <float 0x3F740B3BA0000000, float 0x3F740B3BA0000000, float 0x3F740B3BA0000000, float 0x3F740B3BA0000000>
  %166 = fdiv <4 x float> %159, %165
  %167 = select <4 x i1> %145, <4 x float> %166, <4 x float> %141
  %168 = bitcast float* %133 to <4 x float>*
  store <4 x float> %167, <4 x float>* %168, align 16
  %169 = add nsw i64 %129, 4
  %170 = icmp slt i64 %169, %23
  br i1 %170, label %128, label %78
}

; Function Attrs: nounwind readnone speculatable
declare float @llvm.fabs.f32(float) #8

; Function Attrs: inlinehint nounwind ssp uwtable
define linkonce_odr hidden void @_ZN5Eigen8internal26call_dense_assignment_loopINS_12ArrayWrapperINS_3MapINS_6MatrixIfLin1ELi1ELi0ELin1ELi1EEELi0ENS_6StrideILi0ELi0EEEEEEENS_12CwiseUnaryOpINS0_18scalar_logistic_opIfEEKS9_EENS0_9assign_opIffEEEEvRT_RKT0_RKT1_(%"class.Eigen::ArrayWrapper"* dereferenceable(24), %"class.Eigen::CwiseUnaryOp.42"* dereferenceable(32), %"struct.Eigen::internal::assign_op"* dereferenceable(1)) local_unnamed_addr #7 comdat {
  %4 = bitcast %"class.Eigen::CwiseUnaryOp.42"* %1 to i64*
  %5 = load i64, i64* %4, align 8
  %6 = bitcast %"class.Eigen::ArrayWrapper"* %0 to i64*
  %7 = load i64, i64* %6, align 8
  %8 = getelementptr inbounds %"class.Eigen::ArrayWrapper", %"class.Eigen::ArrayWrapper"* %0, i64 0, i32 0, i32 0, i32 0, i32 1, i32 0
  %9 = load i64, i64* %8, align 8
  %10 = and i64 %7, 3
  %11 = icmp eq i64 %10, 0
  br i1 %11, label %12, label %18

12:                                               ; preds = %3
  %13 = lshr i64 %7, 2
  %14 = sub nsw i64 0, %13
  %15 = and i64 %14, 3
  %16 = icmp slt i64 %15, %9
  %17 = select i1 %16, i64 %15, i64 %9
  br label %18

18:                                               ; preds = %12, %3
  %19 = phi i64 [ %17, %12 ], [ %9, %3 ]
  %20 = sub nsw i64 %9, %19
  %21 = sdiv i64 %20, 4
  %22 = shl nsw i64 %21, 2
  %23 = add nsw i64 %22, %19
  %24 = icmp sgt i64 %19, 0
  br i1 %24, label %25, label %92

25:                                               ; preds = %18
  %26 = inttoptr i64 %7 to float*
  %27 = inttoptr i64 %5 to float*
  br label %28

28:                                               ; preds = %25, %88
  %29 = phi i64 [ %90, %88 ], [ 0, %25 ]
  %30 = getelementptr inbounds float, float* %26, i64 %29
  %31 = getelementptr inbounds float, float* %27, i64 %29
  %32 = load float, float* %31, align 4
  %33 = fcmp olt float %32, -9.000000e+00
  %34 = fcmp ogt float %32, 0x402F499C60000000
  %35 = select i1 %34, float 0x402F499C60000000, float %32
  %36 = fmul float %35, %35
  %37 = fmul float %36, 0x3DC806AA20000000
  %38 = fadd float %37, 0x3E7F09D960000000
  %39 = fmul float %36, %38
  %40 = fadd float %39, 0x3F0FE82760000000
  %41 = fmul float %36, %40
  %42 = fadd float %41, 0x3F816FAB00000000
  %43 = fmul float %36, %42
  %44 = fadd float %43, 0x3FCFC7E640000000
  %45 = fmul float %35, %44
  %46 = fmul float %36, 0x3D65789EA0000000
  %47 = fadd float %46, 0x3E38BE4F60000000
  %48 = fmul float %36, %47
  %49 = fadd float %48, 0x3EDA62FBA0000000
  %50 = fmul float %36, %49
  %51 = fadd float %50, 0x3F5BE2A7E0000000
  %52 = fmul float %36, %51
  %53 = fadd float %52, 0x3FBDE7C300000000
  %54 = fmul float %36, %53
  %55 = fadd float %54, 0x3FEFC7E680000000
  %56 = fdiv float %45, %55
  %57 = fadd float %56, 5.000000e-01
  br i1 %33, label %58, label %88, !prof !62

58:                                               ; preds = %28
  %59 = fcmp ogt float %32, 0x40561814C0000000
  %60 = select i1 %59, float 0x40561814C0000000, float %32
  %61 = fcmp olt float %60, 0xC0561814A0000000
  %62 = select i1 %61, float 0xC0561814A0000000, float %60
  %63 = fmul float %62, 0x3FF7154760000000
  %64 = fadd float %63, 5.000000e-01
  %65 = tail call float @llvm.floor.f32(float %64) #19
  %66 = fmul float %65, 0x3FE6300000000000
  %67 = fsub float %62, %66
  %68 = fmul float %65, 0x3F2BD01060000000
  %69 = fadd float %68, %67
  %70 = fmul float %69, %69
  %71 = fmul float %69, 0x3F2A0D2CE0000000
  %72 = fadd float %71, 0x3F56E879C0000000
  %73 = fmul float %69, %72
  %74 = fadd float %73, 0x3F81112100000000
  %75 = fmul float %69, %74
  %76 = fadd float %75, 0x3FA5553820000000
  %77 = fmul float %69, %76
  %78 = fadd float %77, 0x3FC5555540000000
  %79 = fmul float %69, %78
  %80 = fadd float %79, 5.000000e-01
  %81 = fmul float %70, %80
  %82 = fadd float %69, %81
  %83 = fadd float %82, 1.000000e+00
  %84 = fptosi float %65 to i32
  %85 = tail call float @ldexpf(float %83, i32 %84) #19
  %86 = fcmp olt float %85, %32
  %87 = select i1 %86, float %32, float %85
  br label %88

88:                                               ; preds = %58, %28
  %89 = phi float [ %87, %58 ], [ %57, %28 ]
  store float %89, float* %30, align 4
  %90 = add nuw i64 %29, 1
  %91 = icmp eq i64 %90, %19
  br i1 %91, label %92, label %28

92:                                               ; preds = %88, %18
  %93 = icmp sgt i64 %20, 3
  br i1 %93, label %94, label %169

94:                                               ; preds = %92
  %95 = inttoptr i64 %7 to float*
  %96 = inttoptr i64 %5 to float*
  br label %97

97:                                               ; preds = %94, %164
  %98 = phi i64 [ %167, %164 ], [ %19, %94 ]
  %99 = getelementptr inbounds float, float* %95, i64 %98
  %100 = getelementptr inbounds float, float* %96, i64 %98
  %101 = bitcast float* %100 to <4 x float>*
  %102 = load <4 x float>, <4 x float>* %101, align 1
  %103 = fcmp olt <4 x float> %102, <float -9.000000e+00, float -9.000000e+00, float -9.000000e+00, float -9.000000e+00>
  %104 = bitcast <4 x i1> %103 to i4
  %105 = icmp eq i4 %104, 0
  %106 = tail call <4 x float> asm "minps $1, $0", "=x,x,0,~{dirflag},~{fpsr},~{flags}"(<4 x float> %102, <4 x float> <float 0x402F499C60000000, float 0x402F499C60000000, float 0x402F499C60000000, float 0x402F499C60000000>) #10, !srcloc !60
  %107 = fmul <4 x float> %106, %106
  %108 = fmul <4 x float> %107, <float 0x3DC806AA20000000, float 0x3DC806AA20000000, float 0x3DC806AA20000000, float 0x3DC806AA20000000>
  %109 = fadd <4 x float> %108, <float 0x3E7F09D960000000, float 0x3E7F09D960000000, float 0x3E7F09D960000000, float 0x3E7F09D960000000>
  %110 = fmul <4 x float> %107, %109
  %111 = fadd <4 x float> %110, <float 0x3F0FE82760000000, float 0x3F0FE82760000000, float 0x3F0FE82760000000, float 0x3F0FE82760000000>
  %112 = fmul <4 x float> %107, %111
  %113 = fadd <4 x float> %112, <float 0x3F816FAB00000000, float 0x3F816FAB00000000, float 0x3F816FAB00000000, float 0x3F816FAB00000000>
  %114 = fmul <4 x float> %107, %113
  %115 = fadd <4 x float> %114, <float 0x3FCFC7E640000000, float 0x3FCFC7E640000000, float 0x3FCFC7E640000000, float 0x3FCFC7E640000000>
  %116 = fmul <4 x float> %106, %115
  %117 = fmul <4 x float> %107, <float 0x3D65789EA0000000, float 0x3D65789EA0000000, float 0x3D65789EA0000000, float 0x3D65789EA0000000>
  %118 = fadd <4 x float> %117, <float 0x3E38BE4F60000000, float 0x3E38BE4F60000000, float 0x3E38BE4F60000000, float 0x3E38BE4F60000000>
  %119 = fmul <4 x float> %107, %118
  %120 = fadd <4 x float> %119, <float 0x3EDA62FBA0000000, float 0x3EDA62FBA0000000, float 0x3EDA62FBA0000000, float 0x3EDA62FBA0000000>
  %121 = fmul <4 x float> %107, %120
  %122 = fadd <4 x float> %121, <float 0x3F5BE2A7E0000000, float 0x3F5BE2A7E0000000, float 0x3F5BE2A7E0000000, float 0x3F5BE2A7E0000000>
  %123 = fmul <4 x float> %107, %122
  %124 = fadd <4 x float> %123, <float 0x3FBDE7C300000000, float 0x3FBDE7C300000000, float 0x3FBDE7C300000000, float 0x3FBDE7C300000000>
  %125 = fmul <4 x float> %107, %124
  %126 = fadd <4 x float> %125, <float 0x3FEFC7E680000000, float 0x3FEFC7E680000000, float 0x3FEFC7E680000000, float 0x3FEFC7E680000000>
  %127 = fdiv <4 x float> %116, %126
  %128 = fadd <4 x float> %127, <float 5.000000e-01, float 5.000000e-01, float 5.000000e-01, float 5.000000e-01>
  br i1 %105, label %164, label %129, !prof !63

129:                                              ; preds = %97
  %130 = tail call <4 x float> asm "minps $1, $0", "=x,x,0,~{dirflag},~{fpsr},~{flags}"(<4 x float> %102, <4 x float> <float 0x40561814C0000000, float 0x40561814C0000000, float 0x40561814C0000000, float 0x40561814C0000000>) #10, !srcloc !60
  %131 = tail call <4 x float> asm "maxps $1, $0", "=x,x,0,~{dirflag},~{fpsr},~{flags}"(<4 x float> %130, <4 x float> <float 0xC0561814A0000000, float 0xC0561814A0000000, float 0xC0561814A0000000, float 0xC0561814A0000000>) #10, !srcloc !61
  %132 = fmul <4 x float> %131, <float 0x3FF7154760000000, float 0x3FF7154760000000, float 0x3FF7154760000000, float 0x3FF7154760000000>
  %133 = fadd <4 x float> %132, <float 5.000000e-01, float 5.000000e-01, float 5.000000e-01, float 5.000000e-01>
  %134 = tail call <4 x i32> @llvm.x86.sse2.cvttps2dq(<4 x float> %133) #19
  %135 = sitofp <4 x i32> %134 to <4 x float>
  %136 = fcmp olt <4 x float> %133, %135
  %137 = select <4 x i1> %136, <4 x float> <float 1.000000e+00, float 1.000000e+00, float 1.000000e+00, float 1.000000e+00>, <4 x float> zeroinitializer
  %138 = fsub <4 x float> %135, %137
  %139 = fmul <4 x float> %138, <float 0x3FE6300000000000, float 0x3FE6300000000000, float 0x3FE6300000000000, float 0x3FE6300000000000>
  %140 = fsub <4 x float> %131, %139
  %141 = fmul <4 x float> %138, <float 0xBF2BD01060000000, float 0xBF2BD01060000000, float 0xBF2BD01060000000, float 0xBF2BD01060000000>
  %142 = fsub <4 x float> %140, %141
  %143 = fmul <4 x float> %142, %142
  %144 = fmul <4 x float> %142, <float 0x3F2A0D2CE0000000, float 0x3F2A0D2CE0000000, float 0x3F2A0D2CE0000000, float 0x3F2A0D2CE0000000>
  %145 = fadd <4 x float> %144, <float 0x3F56E879C0000000, float 0x3F56E879C0000000, float 0x3F56E879C0000000, float 0x3F56E879C0000000>
  %146 = fmul <4 x float> %142, %145
  %147 = fadd <4 x float> %146, <float 0x3F81112100000000, float 0x3F81112100000000, float 0x3F81112100000000, float 0x3F81112100000000>
  %148 = fmul <4 x float> %142, %147
  %149 = fadd <4 x float> %148, <float 0x3FA5553820000000, float 0x3FA5553820000000, float 0x3FA5553820000000, float 0x3FA5553820000000>
  %150 = fmul <4 x float> %142, %149
  %151 = fadd <4 x float> %150, <float 0x3FC5555540000000, float 0x3FC5555540000000, float 0x3FC5555540000000, float 0x3FC5555540000000>
  %152 = fmul <4 x float> %142, %151
  %153 = fadd <4 x float> %152, <float 5.000000e-01, float 5.000000e-01, float 5.000000e-01, float 5.000000e-01>
  %154 = fmul <4 x float> %143, %153
  %155 = fadd <4 x float> %142, %154
  %156 = fadd <4 x float> %155, <float 1.000000e+00, float 1.000000e+00, float 1.000000e+00, float 1.000000e+00>
  %157 = fadd <4 x float> %138, <float 1.270000e+02, float 1.270000e+02, float 1.270000e+02, float 1.270000e+02>
  %158 = tail call <4 x i32> @llvm.x86.sse2.cvttps2dq(<4 x float> %157) #19
  %159 = shl <4 x i32> %158, <i32 23, i32 23, i32 23, i32 23>
  %160 = bitcast <4 x i32> %159 to <4 x float>
  %161 = fmul <4 x float> %156, %160
  %162 = tail call <4 x float> asm "maxps $1, $0", "=x,x,0,~{dirflag},~{fpsr},~{flags}"(<4 x float> %161, <4 x float> %102) #10, !srcloc !61
  %163 = select <4 x i1> %103, <4 x float> %162, <4 x float> %128
  br label %164

164:                                              ; preds = %97, %129
  %165 = phi <4 x float> [ %163, %129 ], [ %128, %97 ]
  %166 = bitcast float* %99 to <4 x float>*
  store <4 x float> %165, <4 x float>* %166, align 16
  %167 = add nsw i64 %98, 4
  %168 = icmp slt i64 %167, %23
  br i1 %168, label %97, label %169

169:                                              ; preds = %164, %92
  %170 = icmp slt i64 %23, %9
  br i1 %170, label %171, label %238

171:                                              ; preds = %169
  %172 = inttoptr i64 %7 to float*
  %173 = inttoptr i64 %5 to float*
  br label %174

174:                                              ; preds = %171, %234
  %175 = phi i64 [ %236, %234 ], [ %23, %171 ]
  %176 = getelementptr inbounds float, float* %172, i64 %175
  %177 = getelementptr inbounds float, float* %173, i64 %175
  %178 = load float, float* %177, align 4
  %179 = fcmp olt float %178, -9.000000e+00
  %180 = fcmp ogt float %178, 0x402F499C60000000
  %181 = select i1 %180, float 0x402F499C60000000, float %178
  %182 = fmul float %181, %181
  %183 = fmul float %182, 0x3DC806AA20000000
  %184 = fadd float %183, 0x3E7F09D960000000
  %185 = fmul float %182, %184
  %186 = fadd float %185, 0x3F0FE82760000000
  %187 = fmul float %182, %186
  %188 = fadd float %187, 0x3F816FAB00000000
  %189 = fmul float %182, %188
  %190 = fadd float %189, 0x3FCFC7E640000000
  %191 = fmul float %181, %190
  %192 = fmul float %182, 0x3D65789EA0000000
  %193 = fadd float %192, 0x3E38BE4F60000000
  %194 = fmul float %182, %193
  %195 = fadd float %194, 0x3EDA62FBA0000000
  %196 = fmul float %182, %195
  %197 = fadd float %196, 0x3F5BE2A7E0000000
  %198 = fmul float %182, %197
  %199 = fadd float %198, 0x3FBDE7C300000000
  %200 = fmul float %182, %199
  %201 = fadd float %200, 0x3FEFC7E680000000
  %202 = fdiv float %191, %201
  %203 = fadd float %202, 5.000000e-01
  br i1 %179, label %204, label %234, !prof !62

204:                                              ; preds = %174
  %205 = fcmp ogt float %178, 0x40561814C0000000
  %206 = select i1 %205, float 0x40561814C0000000, float %178
  %207 = fcmp olt float %206, 0xC0561814A0000000
  %208 = select i1 %207, float 0xC0561814A0000000, float %206
  %209 = fmul float %208, 0x3FF7154760000000
  %210 = fadd float %209, 5.000000e-01
  %211 = tail call float @llvm.floor.f32(float %210) #19
  %212 = fmul float %211, 0x3FE6300000000000
  %213 = fsub float %208, %212
  %214 = fmul float %211, 0x3F2BD01060000000
  %215 = fadd float %214, %213
  %216 = fmul float %215, %215
  %217 = fmul float %215, 0x3F2A0D2CE0000000
  %218 = fadd float %217, 0x3F56E879C0000000
  %219 = fmul float %215, %218
  %220 = fadd float %219, 0x3F81112100000000
  %221 = fmul float %215, %220
  %222 = fadd float %221, 0x3FA5553820000000
  %223 = fmul float %215, %222
  %224 = fadd float %223, 0x3FC5555540000000
  %225 = fmul float %215, %224
  %226 = fadd float %225, 5.000000e-01
  %227 = fmul float %216, %226
  %228 = fadd float %215, %227
  %229 = fadd float %228, 1.000000e+00
  %230 = fptosi float %211 to i32
  %231 = tail call float @ldexpf(float %229, i32 %230) #19
  %232 = fcmp olt float %231, %178
  %233 = select i1 %232, float %178, float %231
  br label %234

234:                                              ; preds = %204, %174
  %235 = phi float [ %233, %204 ], [ %203, %174 ]
  store float %235, float* %176, align 4
  %236 = add i64 %175, 1
  %237 = icmp eq i64 %236, %9
  br i1 %237, label %238, label %174

238:                                              ; preds = %234, %169
  ret void
}

; Function Attrs: nounwind readnone speculatable
declare float @llvm.floor.f32(float) #8

; Function Attrs: nofree nounwind
declare float @ldexpf(float, i32) local_unnamed_addr #9

; Function Attrs: nounwind readnone
declare <4 x i32> @llvm.x86.sse2.cvttps2dq(<4 x float>) #10

declare void @_ZN6tflite12tensor_utils24AsymmetricQuantizeFloatsEPKfiPaPfPi(float*, i32, i8*, float*, i32*) local_unnamed_addr #5

declare void @_ZN6tflite12tensor_utils23SymmetricQuantizeFloatsEPKfiPaPfS4_S4_(float*, i32, i8*, float*, float*, float*) local_unnamed_addr #5

; Function Attrs: argmemonly nounwind
declare void @llvm.memmove.p0i8.p0i8.i64(i8* nocapture, i8* nocapture readonly, i64, i1 immarg) #0

; Function Attrs: nounwind ssp uwtable
define linkonce_odr hidden i32 @_ZN6tflite3ops7builtin15fully_connected9EvalFloatILNS2_10KernelTypeE0EEE12TfLiteStatusP13TfLiteContextP10TfLiteNodeP26TfLiteFullyConnectedParamsPNS2_6OpDataEPK12TfLiteTensorSG_SG_PSE_(%struct.TfLiteContext*, %struct.TfLiteNode*, %struct.TfLiteFullyConnectedParams*, %"struct.tflite::ops::builtin::fully_connected::OpData"*, %struct.TfLiteTensor*, %struct.TfLiteTensor*, %struct.TfLiteTensor*, %struct.TfLiteTensor*) local_unnamed_addr #1 comdat {
  %9 = alloca %"struct.tflite::FullyConnectedParams", align 4
  %10 = alloca %"class.tflite::RuntimeShape", align 8
  %11 = alloca %"class.tflite::RuntimeShape", align 8
  %12 = alloca %"class.tflite::RuntimeShape", align 8
  %13 = alloca %"class.tflite::RuntimeShape", align 8
  %14 = alloca %"class.tflite::RuntimeShape", align 8
  %15 = alloca %"class.tflite::RuntimeShape", align 8
  %16 = alloca %"class.tflite::RuntimeShape", align 8
  %17 = alloca %"class.tflite::RuntimeShape", align 8
  %18 = getelementptr inbounds %struct.TfLiteFullyConnectedParams, %struct.TfLiteFullyConnectedParams* %2, i64 0, i32 0
  %19 = load i32, i32* %18, align 4
  %20 = add i32 %19, -1
  %21 = icmp ult i32 %20, 3
  br i1 %21, label %22, label %29

22:                                               ; preds = %8
  %23 = sext i32 %20 to i64
  %24 = getelementptr inbounds [3 x float], [3 x float]* @switch.table._ZN6tflite3ops7builtin15fully_connected9EvalFloatILNS2_10KernelTypeE0EEE12TfLiteStatusP13TfLiteContextP10TfLiteNodeP26TfLiteFullyConnectedParamsPNS2_6OpDataEPK12TfLiteTensorSG_SG_PSE_, i64 0, i64 %23
  %25 = load float, float* %24, align 4
  %26 = sext i32 %20 to i64
  %27 = getelementptr inbounds [3 x float], [3 x float]* @switch.table._ZN6tflite3ops7builtin15fully_connected9EvalFloatILNS2_10KernelTypeE0EEE12TfLiteStatusP13TfLiteContextP10TfLiteNodeP26TfLiteFullyConnectedParamsPNS2_6OpDataEPK12TfLiteTensorSG_SG_PSE_.73, i64 0, i64 %26
  %28 = load float, float* %27, align 4
  br label %29

29:                                               ; preds = %8, %22
  %30 = phi float [ %25, %22 ], [ 0xC7EFFFFFE0000000, %8 ]
  %31 = phi float [ %28, %22 ], [ 0x47EFFFFFE0000000, %8 ]
  %32 = bitcast %"struct.tflite::FullyConnectedParams"* %9 to i8*
  call void @llvm.lifetime.start.p0i8(i64 40, i8* nonnull %32) #19
  call void @llvm.memcpy.p0i8.p0i8.i64(i8* nonnull align 4 %32, i8* align 4 bitcast ({ i32, i32, i32, i32, i32, i32, i32, float, float, i8, i8, i8, [1 x i8] }* @__const._ZN6tflite3ops7builtin15fully_connected13EvalQuantizedILNS2_10KernelTypeE2EEE12TfLiteStatusP13TfLiteContextP10TfLiteNodeP26TfLiteFullyConnectedParamsPNS2_6OpDataEPK12TfLiteTensorSG_SG_PSE_.op_params to i8*), i64 40, i1 false)
  %33 = getelementptr inbounds %"struct.tflite::FullyConnectedParams", %"struct.tflite::FullyConnectedParams"* %9, i64 0, i32 7
  store float %30, float* %33, align 4
  %34 = getelementptr inbounds %"struct.tflite::FullyConnectedParams", %"struct.tflite::FullyConnectedParams"* %9, i64 0, i32 8
  store float %31, float* %34, align 4
  %35 = getelementptr inbounds %struct.TfLiteTensor, %struct.TfLiteTensor* %5, i64 0, i32 13
  %36 = load %struct.TfLiteSparsity*, %struct.TfLiteSparsity** %35, align 8
  %37 = icmp eq %struct.TfLiteSparsity* %36, null
  br i1 %37, label %214, label %38

38:                                               ; preds = %29
  %39 = bitcast %"class.tflite::RuntimeShape"* %10 to i8*
  call void @llvm.lifetime.start.p0i8(i64 32, i8* nonnull %39) #19
  %40 = icmp eq %struct.TfLiteTensor* %4, null
  br i1 %40, label %41, label %43

41:                                               ; preds = %38
  %42 = getelementptr inbounds %"class.tflite::RuntimeShape", %"class.tflite::RuntimeShape"* %10, i64 0, i32 0
  store i32 0, i32* %42, align 8, !alias.scope !64
  br label %71

43:                                               ; preds = %38
  %44 = getelementptr inbounds %struct.TfLiteTensor, %struct.TfLiteTensor* %4, i64 0, i32 2
  %45 = load %struct.TfLiteIntArray*, %struct.TfLiteIntArray** %44, align 8, !noalias !64
  %46 = getelementptr inbounds %struct.TfLiteIntArray, %struct.TfLiteIntArray* %45, i64 0, i32 0
  %47 = load i32, i32* %46, align 4, !noalias !64
  %48 = getelementptr inbounds %struct.TfLiteIntArray, %struct.TfLiteIntArray* %45, i64 0, i32 1, i64 0
  %49 = getelementptr inbounds %"class.tflite::RuntimeShape", %"class.tflite::RuntimeShape"* %10, i64 0, i32 0
  store i32 %47, i32* %49, align 8, !alias.scope !64
  %50 = icmp sgt i32 %47, 5
  br i1 %50, label %51, label %58

51:                                               ; preds = %43
  %52 = sext i32 %47 to i64
  %53 = shl nsw i64 %52, 2
  %54 = tail call i8* @_Znam(i64 %53) #18, !noalias !64
  %55 = getelementptr inbounds %"class.tflite::RuntimeShape", %"class.tflite::RuntimeShape"* %10, i64 0, i32 1, i32 0
  %56 = bitcast i32** %55 to i8**
  store i8* %54, i8** %56, align 8, !alias.scope !64
  %57 = bitcast i8* %54 to i32*
  br label %63

58:                                               ; preds = %43
  %59 = getelementptr inbounds %"class.tflite::RuntimeShape", %"class.tflite::RuntimeShape"* %10, i64 0, i32 1
  %60 = bitcast %union.anon.54* %59 to i32*
  %61 = sext i32 %47 to i64
  %62 = shl nsw i64 %61, 2
  br label %63

63:                                               ; preds = %58, %51
  %64 = phi i64 [ %53, %51 ], [ %62, %58 ]
  %65 = phi i32* [ %57, %51 ], [ %60, %58 ]
  %66 = bitcast i32* %65 to i8*
  %67 = bitcast i32* %48 to i8*
  call void @llvm.memcpy.p0i8.p0i8.i64(i8* align 4 %66, i8* align 4 %67, i64 %64, i1 false) #19
  %68 = getelementptr inbounds %struct.TfLiteTensor, %struct.TfLiteTensor* %4, i64 0, i32 1
  %69 = bitcast %union.TfLitePtrUnion* %68 to float**
  %70 = load float*, float** %69, align 8
  br label %71

71:                                               ; preds = %41, %63
  %72 = phi float* [ %70, %63 ], [ null, %41 ]
  %73 = bitcast %"class.tflite::RuntimeShape"* %11 to i8*
  call void @llvm.lifetime.start.p0i8(i64 32, i8* nonnull %73) #19
  %74 = icmp eq %struct.TfLiteTensor* %5, null
  br i1 %74, label %75, label %77

75:                                               ; preds = %71
  %76 = getelementptr inbounds %"class.tflite::RuntimeShape", %"class.tflite::RuntimeShape"* %11, i64 0, i32 0
  store i32 0, i32* %76, align 8, !alias.scope !67
  br label %105

77:                                               ; preds = %71
  %78 = getelementptr inbounds %struct.TfLiteTensor, %struct.TfLiteTensor* %5, i64 0, i32 2
  %79 = load %struct.TfLiteIntArray*, %struct.TfLiteIntArray** %78, align 8, !noalias !67
  %80 = getelementptr inbounds %struct.TfLiteIntArray, %struct.TfLiteIntArray* %79, i64 0, i32 0
  %81 = load i32, i32* %80, align 4, !noalias !67
  %82 = getelementptr inbounds %struct.TfLiteIntArray, %struct.TfLiteIntArray* %79, i64 0, i32 1, i64 0
  %83 = getelementptr inbounds %"class.tflite::RuntimeShape", %"class.tflite::RuntimeShape"* %11, i64 0, i32 0
  store i32 %81, i32* %83, align 8, !alias.scope !67
  %84 = icmp sgt i32 %81, 5
  br i1 %84, label %85, label %92

85:                                               ; preds = %77
  %86 = sext i32 %81 to i64
  %87 = shl nsw i64 %86, 2
  %88 = tail call i8* @_Znam(i64 %87) #18, !noalias !67
  %89 = getelementptr inbounds %"class.tflite::RuntimeShape", %"class.tflite::RuntimeShape"* %11, i64 0, i32 1, i32 0
  %90 = bitcast i32** %89 to i8**
  store i8* %88, i8** %90, align 8, !alias.scope !67
  %91 = bitcast i8* %88 to i32*
  br label %97

92:                                               ; preds = %77
  %93 = getelementptr inbounds %"class.tflite::RuntimeShape", %"class.tflite::RuntimeShape"* %11, i64 0, i32 1
  %94 = bitcast %union.anon.54* %93 to i32*
  %95 = sext i32 %81 to i64
  %96 = shl nsw i64 %95, 2
  br label %97

97:                                               ; preds = %92, %85
  %98 = phi i64 [ %87, %85 ], [ %96, %92 ]
  %99 = phi i32* [ %91, %85 ], [ %94, %92 ]
  %100 = bitcast i32* %99 to i8*
  %101 = bitcast i32* %82 to i8*
  call void @llvm.memcpy.p0i8.p0i8.i64(i8* align 4 %100, i8* align 4 %101, i64 %98, i1 false) #19
  %102 = getelementptr inbounds %struct.TfLiteTensor, %struct.TfLiteTensor* %5, i64 0, i32 1
  %103 = bitcast %union.TfLitePtrUnion* %102 to float**
  %104 = load float*, float** %103, align 8
  br label %105

105:                                              ; preds = %75, %97
  %106 = phi float* [ %104, %97 ], [ null, %75 ]
  %107 = bitcast %"class.tflite::RuntimeShape"* %12 to i8*
  call void @llvm.lifetime.start.p0i8(i64 32, i8* nonnull %107) #19
  %108 = icmp eq %struct.TfLiteTensor* %6, null
  br i1 %108, label %109, label %111

109:                                              ; preds = %105
  %110 = getelementptr inbounds %"class.tflite::RuntimeShape", %"class.tflite::RuntimeShape"* %12, i64 0, i32 0
  store i32 0, i32* %110, align 8, !alias.scope !70
  br label %139

111:                                              ; preds = %105
  %112 = getelementptr inbounds %struct.TfLiteTensor, %struct.TfLiteTensor* %6, i64 0, i32 2
  %113 = load %struct.TfLiteIntArray*, %struct.TfLiteIntArray** %112, align 8, !noalias !70
  %114 = getelementptr inbounds %struct.TfLiteIntArray, %struct.TfLiteIntArray* %113, i64 0, i32 0
  %115 = load i32, i32* %114, align 4, !noalias !70
  %116 = getelementptr inbounds %struct.TfLiteIntArray, %struct.TfLiteIntArray* %113, i64 0, i32 1, i64 0
  %117 = getelementptr inbounds %"class.tflite::RuntimeShape", %"class.tflite::RuntimeShape"* %12, i64 0, i32 0
  store i32 %115, i32* %117, align 8, !alias.scope !70
  %118 = icmp sgt i32 %115, 5
  br i1 %118, label %119, label %126

119:                                              ; preds = %111
  %120 = sext i32 %115 to i64
  %121 = shl nsw i64 %120, 2
  %122 = tail call i8* @_Znam(i64 %121) #18, !noalias !70
  %123 = getelementptr inbounds %"class.tflite::RuntimeShape", %"class.tflite::RuntimeShape"* %12, i64 0, i32 1, i32 0
  %124 = bitcast i32** %123 to i8**
  store i8* %122, i8** %124, align 8, !alias.scope !70
  %125 = bitcast i8* %122 to i32*
  br label %131

126:                                              ; preds = %111
  %127 = getelementptr inbounds %"class.tflite::RuntimeShape", %"class.tflite::RuntimeShape"* %12, i64 0, i32 1
  %128 = bitcast %union.anon.54* %127 to i32*
  %129 = sext i32 %115 to i64
  %130 = shl nsw i64 %129, 2
  br label %131

131:                                              ; preds = %126, %119
  %132 = phi i64 [ %121, %119 ], [ %130, %126 ]
  %133 = phi i32* [ %125, %119 ], [ %128, %126 ]
  %134 = bitcast i32* %133 to i8*
  %135 = bitcast i32* %116 to i8*
  call void @llvm.memcpy.p0i8.p0i8.i64(i8* align 4 %134, i8* align 4 %135, i64 %132, i1 false) #19
  %136 = getelementptr inbounds %struct.TfLiteTensor, %struct.TfLiteTensor* %6, i64 0, i32 1
  %137 = bitcast %union.TfLitePtrUnion* %136 to float**
  %138 = load float*, float** %137, align 8
  br label %139

139:                                              ; preds = %109, %131
  %140 = phi float* [ %138, %131 ], [ null, %109 ]
  %141 = bitcast %"class.tflite::RuntimeShape"* %13 to i8*
  call void @llvm.lifetime.start.p0i8(i64 32, i8* nonnull %141) #19
  %142 = icmp eq %struct.TfLiteTensor* %7, null
  br i1 %142, label %143, label %145

143:                                              ; preds = %139
  %144 = getelementptr inbounds %"class.tflite::RuntimeShape", %"class.tflite::RuntimeShape"* %13, i64 0, i32 0
  store i32 0, i32* %144, align 8, !alias.scope !73
  br label %173

145:                                              ; preds = %139
  %146 = getelementptr inbounds %struct.TfLiteTensor, %struct.TfLiteTensor* %7, i64 0, i32 2
  %147 = load %struct.TfLiteIntArray*, %struct.TfLiteIntArray** %146, align 8, !noalias !73
  %148 = getelementptr inbounds %struct.TfLiteIntArray, %struct.TfLiteIntArray* %147, i64 0, i32 0
  %149 = load i32, i32* %148, align 4, !noalias !73
  %150 = getelementptr inbounds %struct.TfLiteIntArray, %struct.TfLiteIntArray* %147, i64 0, i32 1, i64 0
  %151 = getelementptr inbounds %"class.tflite::RuntimeShape", %"class.tflite::RuntimeShape"* %13, i64 0, i32 0
  store i32 %149, i32* %151, align 8, !alias.scope !73
  %152 = icmp sgt i32 %149, 5
  br i1 %152, label %153, label %160

153:                                              ; preds = %145
  %154 = sext i32 %149 to i64
  %155 = shl nsw i64 %154, 2
  %156 = tail call i8* @_Znam(i64 %155) #18, !noalias !73
  %157 = getelementptr inbounds %"class.tflite::RuntimeShape", %"class.tflite::RuntimeShape"* %13, i64 0, i32 1, i32 0
  %158 = bitcast i32** %157 to i8**
  store i8* %156, i8** %158, align 8, !alias.scope !73
  %159 = bitcast i8* %156 to i32*
  br label %165

160:                                              ; preds = %145
  %161 = getelementptr inbounds %"class.tflite::RuntimeShape", %"class.tflite::RuntimeShape"* %13, i64 0, i32 1
  %162 = bitcast %union.anon.54* %161 to i32*
  %163 = sext i32 %149 to i64
  %164 = shl nsw i64 %163, 2
  br label %165

165:                                              ; preds = %160, %153
  %166 = phi i64 [ %155, %153 ], [ %164, %160 ]
  %167 = phi i32* [ %159, %153 ], [ %162, %160 ]
  %168 = bitcast i32* %167 to i8*
  %169 = bitcast i32* %150 to i8*
  call void @llvm.memcpy.p0i8.p0i8.i64(i8* align 4 %168, i8* align 4 %169, i64 %166, i1 false) #19
  %170 = getelementptr inbounds %struct.TfLiteTensor, %struct.TfLiteTensor* %7, i64 0, i32 1
  %171 = bitcast %union.TfLitePtrUnion* %170 to float**
  %172 = load float*, float** %171, align 8
  br label %173

173:                                              ; preds = %143, %165
  %174 = phi float* [ %172, %165 ], [ null, %143 ]
  call void @_ZN6tflite13reference_ops26FullyConnectedSparseWeightERK14TfLiteSparsityRKNS_20FullyConnectedParamsERKNS_12RuntimeShapeEPKfS9_SB_S9_SB_S9_Pf(%struct.TfLiteSparsity* nonnull dereferenceable(32) %36, %"struct.tflite::FullyConnectedParams"* nonnull dereferenceable(40) %9, %"class.tflite::RuntimeShape"* nonnull dereferenceable(32) %10, float* %72, %"class.tflite::RuntimeShape"* nonnull dereferenceable(32) %11, float* %106, %"class.tflite::RuntimeShape"* nonnull dereferenceable(32) %12, float* %140, %"class.tflite::RuntimeShape"* nonnull dereferenceable(32) %13, float* %174)
  %175 = getelementptr inbounds %"class.tflite::RuntimeShape", %"class.tflite::RuntimeShape"* %13, i64 0, i32 0
  %176 = load i32, i32* %175, align 8
  %177 = icmp sgt i32 %176, 5
  br i1 %177, label %178, label %184

178:                                              ; preds = %173
  %179 = getelementptr inbounds %"class.tflite::RuntimeShape", %"class.tflite::RuntimeShape"* %13, i64 0, i32 1, i32 0
  %180 = load i32*, i32** %179, align 8
  %181 = icmp eq i32* %180, null
  br i1 %181, label %184, label %182

182:                                              ; preds = %178
  %183 = bitcast i32* %180 to i8*
  call void @_ZdaPv(i8* %183) #18
  br label %184

184:                                              ; preds = %173, %178, %182
  call void @llvm.lifetime.end.p0i8(i64 32, i8* nonnull %141) #19
  %185 = getelementptr inbounds %"class.tflite::RuntimeShape", %"class.tflite::RuntimeShape"* %12, i64 0, i32 0
  %186 = load i32, i32* %185, align 8
  %187 = icmp sgt i32 %186, 5
  br i1 %187, label %188, label %194

188:                                              ; preds = %184
  %189 = getelementptr inbounds %"class.tflite::RuntimeShape", %"class.tflite::RuntimeShape"* %12, i64 0, i32 1, i32 0
  %190 = load i32*, i32** %189, align 8
  %191 = icmp eq i32* %190, null
  br i1 %191, label %194, label %192

192:                                              ; preds = %188
  %193 = bitcast i32* %190 to i8*
  call void @_ZdaPv(i8* %193) #18
  br label %194

194:                                              ; preds = %184, %188, %192
  call void @llvm.lifetime.end.p0i8(i64 32, i8* nonnull %107) #19
  %195 = getelementptr inbounds %"class.tflite::RuntimeShape", %"class.tflite::RuntimeShape"* %11, i64 0, i32 0
  %196 = load i32, i32* %195, align 8
  %197 = icmp sgt i32 %196, 5
  br i1 %197, label %198, label %204

198:                                              ; preds = %194
  %199 = getelementptr inbounds %"class.tflite::RuntimeShape", %"class.tflite::RuntimeShape"* %11, i64 0, i32 1, i32 0
  %200 = load i32*, i32** %199, align 8
  %201 = icmp eq i32* %200, null
  br i1 %201, label %204, label %202

202:                                              ; preds = %198
  %203 = bitcast i32* %200 to i8*
  call void @_ZdaPv(i8* %203) #18
  br label %204

204:                                              ; preds = %194, %198, %202
  call void @llvm.lifetime.end.p0i8(i64 32, i8* nonnull %73) #19
  %205 = getelementptr inbounds %"class.tflite::RuntimeShape", %"class.tflite::RuntimeShape"* %10, i64 0, i32 0
  %206 = load i32, i32* %205, align 8
  %207 = icmp sgt i32 %206, 5
  br i1 %207, label %208, label %540

208:                                              ; preds = %204
  %209 = getelementptr inbounds %"class.tflite::RuntimeShape", %"class.tflite::RuntimeShape"* %10, i64 0, i32 1, i32 0
  %210 = load i32*, i32** %209, align 8
  %211 = icmp eq i32* %210, null
  br i1 %211, label %540, label %212

212:                                              ; preds = %208
  %213 = bitcast i32* %210 to i8*
  call void @_ZdaPv(i8* %213) #18
  br label %540

214:                                              ; preds = %29
  %215 = bitcast %"class.tflite::RuntimeShape"* %14 to i8*
  call void @llvm.lifetime.start.p0i8(i64 32, i8* nonnull %215) #19
  %216 = icmp eq %struct.TfLiteTensor* %4, null
  br i1 %216, label %217, label %219

217:                                              ; preds = %214
  %218 = getelementptr inbounds %"class.tflite::RuntimeShape", %"class.tflite::RuntimeShape"* %14, i64 0, i32 0
  store i32 0, i32* %218, align 8, !alias.scope !76
  br label %247

219:                                              ; preds = %214
  %220 = getelementptr inbounds %struct.TfLiteTensor, %struct.TfLiteTensor* %4, i64 0, i32 2
  %221 = load %struct.TfLiteIntArray*, %struct.TfLiteIntArray** %220, align 8, !noalias !76
  %222 = getelementptr inbounds %struct.TfLiteIntArray, %struct.TfLiteIntArray* %221, i64 0, i32 0
  %223 = load i32, i32* %222, align 4, !noalias !76
  %224 = getelementptr inbounds %struct.TfLiteIntArray, %struct.TfLiteIntArray* %221, i64 0, i32 1, i64 0
  %225 = getelementptr inbounds %"class.tflite::RuntimeShape", %"class.tflite::RuntimeShape"* %14, i64 0, i32 0
  store i32 %223, i32* %225, align 8, !alias.scope !76
  %226 = icmp sgt i32 %223, 5
  br i1 %226, label %227, label %234

227:                                              ; preds = %219
  %228 = sext i32 %223 to i64
  %229 = shl nsw i64 %228, 2
  %230 = tail call i8* @_Znam(i64 %229) #18, !noalias !76
  %231 = getelementptr inbounds %"class.tflite::RuntimeShape", %"class.tflite::RuntimeShape"* %14, i64 0, i32 1, i32 0
  %232 = bitcast i32** %231 to i8**
  store i8* %230, i8** %232, align 8, !alias.scope !76
  %233 = bitcast i8* %230 to i32*
  br label %239

234:                                              ; preds = %219
  %235 = getelementptr inbounds %"class.tflite::RuntimeShape", %"class.tflite::RuntimeShape"* %14, i64 0, i32 1
  %236 = bitcast %union.anon.54* %235 to i32*
  %237 = sext i32 %223 to i64
  %238 = shl nsw i64 %237, 2
  br label %239

239:                                              ; preds = %234, %227
  %240 = phi i64 [ %229, %227 ], [ %238, %234 ]
  %241 = phi i32* [ %233, %227 ], [ %236, %234 ]
  %242 = bitcast i32* %241 to i8*
  %243 = bitcast i32* %224 to i8*
  call void @llvm.memcpy.p0i8.p0i8.i64(i8* align 4 %242, i8* align 4 %243, i64 %240, i1 false) #19
  %244 = getelementptr inbounds %struct.TfLiteTensor, %struct.TfLiteTensor* %4, i64 0, i32 1
  %245 = bitcast %union.TfLitePtrUnion* %244 to float**
  %246 = load float*, float** %245, align 8
  br label %247

247:                                              ; preds = %217, %239
  %248 = phi i32 [ %223, %239 ], [ 0, %217 ]
  %249 = phi float* [ %246, %239 ], [ null, %217 ]
  %250 = bitcast %"class.tflite::RuntimeShape"* %15 to i8*
  call void @llvm.lifetime.start.p0i8(i64 32, i8* nonnull %250) #19
  %251 = icmp eq %struct.TfLiteTensor* %5, null
  br i1 %251, label %252, label %254

252:                                              ; preds = %247
  %253 = getelementptr inbounds %"class.tflite::RuntimeShape", %"class.tflite::RuntimeShape"* %15, i64 0, i32 0
  store i32 0, i32* %253, align 8, !alias.scope !79
  br label %282

254:                                              ; preds = %247
  %255 = getelementptr inbounds %struct.TfLiteTensor, %struct.TfLiteTensor* %5, i64 0, i32 2
  %256 = load %struct.TfLiteIntArray*, %struct.TfLiteIntArray** %255, align 8, !noalias !79
  %257 = getelementptr inbounds %struct.TfLiteIntArray, %struct.TfLiteIntArray* %256, i64 0, i32 0
  %258 = load i32, i32* %257, align 4, !noalias !79
  %259 = getelementptr inbounds %struct.TfLiteIntArray, %struct.TfLiteIntArray* %256, i64 0, i32 1, i64 0
  %260 = getelementptr inbounds %"class.tflite::RuntimeShape", %"class.tflite::RuntimeShape"* %15, i64 0, i32 0
  store i32 %258, i32* %260, align 8, !alias.scope !79
  %261 = icmp sgt i32 %258, 5
  br i1 %261, label %262, label %269

262:                                              ; preds = %254
  %263 = sext i32 %258 to i64
  %264 = shl nsw i64 %263, 2
  %265 = tail call i8* @_Znam(i64 %264) #18, !noalias !79
  %266 = getelementptr inbounds %"class.tflite::RuntimeShape", %"class.tflite::RuntimeShape"* %15, i64 0, i32 1, i32 0
  %267 = bitcast i32** %266 to i8**
  store i8* %265, i8** %267, align 8, !alias.scope !79
  %268 = bitcast i8* %265 to i32*
  br label %274

269:                                              ; preds = %254
  %270 = getelementptr inbounds %"class.tflite::RuntimeShape", %"class.tflite::RuntimeShape"* %15, i64 0, i32 1
  %271 = bitcast %union.anon.54* %270 to i32*
  %272 = sext i32 %258 to i64
  %273 = shl nsw i64 %272, 2
  br label %274

274:                                              ; preds = %269, %262
  %275 = phi i64 [ %264, %262 ], [ %273, %269 ]
  %276 = phi i32* [ %268, %262 ], [ %271, %269 ]
  %277 = bitcast i32* %276 to i8*
  %278 = bitcast i32* %259 to i8*
  call void @llvm.memcpy.p0i8.p0i8.i64(i8* align 4 %277, i8* align 4 %278, i64 %275, i1 false) #19
  %279 = getelementptr inbounds %struct.TfLiteTensor, %struct.TfLiteTensor* %5, i64 0, i32 1
  %280 = bitcast %union.TfLitePtrUnion* %279 to float**
  %281 = load float*, float** %280, align 8
  br label %282

282:                                              ; preds = %252, %274
  %283 = phi i32 [ %258, %274 ], [ 0, %252 ]
  %284 = phi float* [ %281, %274 ], [ null, %252 ]
  %285 = bitcast %"class.tflite::RuntimeShape"* %16 to i8*
  call void @llvm.lifetime.start.p0i8(i64 32, i8* nonnull %285) #19
  %286 = icmp eq %struct.TfLiteTensor* %6, null
  br i1 %286, label %287, label %289

287:                                              ; preds = %282
  %288 = getelementptr inbounds %"class.tflite::RuntimeShape", %"class.tflite::RuntimeShape"* %16, i64 0, i32 0
  store i32 0, i32* %288, align 8, !alias.scope !82
  br label %317

289:                                              ; preds = %282
  %290 = getelementptr inbounds %struct.TfLiteTensor, %struct.TfLiteTensor* %6, i64 0, i32 2
  %291 = load %struct.TfLiteIntArray*, %struct.TfLiteIntArray** %290, align 8, !noalias !82
  %292 = getelementptr inbounds %struct.TfLiteIntArray, %struct.TfLiteIntArray* %291, i64 0, i32 0
  %293 = load i32, i32* %292, align 4, !noalias !82
  %294 = getelementptr inbounds %struct.TfLiteIntArray, %struct.TfLiteIntArray* %291, i64 0, i32 1, i64 0
  %295 = getelementptr inbounds %"class.tflite::RuntimeShape", %"class.tflite::RuntimeShape"* %16, i64 0, i32 0
  store i32 %293, i32* %295, align 8, !alias.scope !82
  %296 = icmp sgt i32 %293, 5
  br i1 %296, label %297, label %304

297:                                              ; preds = %289
  %298 = sext i32 %293 to i64
  %299 = shl nsw i64 %298, 2
  %300 = tail call i8* @_Znam(i64 %299) #18, !noalias !82
  %301 = getelementptr inbounds %"class.tflite::RuntimeShape", %"class.tflite::RuntimeShape"* %16, i64 0, i32 1, i32 0
  %302 = bitcast i32** %301 to i8**
  store i8* %300, i8** %302, align 8, !alias.scope !82
  %303 = bitcast i8* %300 to i32*
  br label %309

304:                                              ; preds = %289
  %305 = getelementptr inbounds %"class.tflite::RuntimeShape", %"class.tflite::RuntimeShape"* %16, i64 0, i32 1
  %306 = bitcast %union.anon.54* %305 to i32*
  %307 = sext i32 %293 to i64
  %308 = shl nsw i64 %307, 2
  br label %309

309:                                              ; preds = %304, %297
  %310 = phi i64 [ %299, %297 ], [ %308, %304 ]
  %311 = phi i32* [ %303, %297 ], [ %306, %304 ]
  %312 = bitcast i32* %311 to i8*
  %313 = bitcast i32* %294 to i8*
  call void @llvm.memcpy.p0i8.p0i8.i64(i8* align 4 %312, i8* align 4 %313, i64 %310, i1 false) #19
  %314 = getelementptr inbounds %struct.TfLiteTensor, %struct.TfLiteTensor* %6, i64 0, i32 1
  %315 = bitcast %union.TfLitePtrUnion* %314 to float**
  %316 = load float*, float** %315, align 8
  br label %317

317:                                              ; preds = %287, %309
  %318 = phi i32 [ %293, %309 ], [ 0, %287 ]
  %319 = phi float* [ %316, %309 ], [ null, %287 ]
  %320 = bitcast %"class.tflite::RuntimeShape"* %17 to i8*
  call void @llvm.lifetime.start.p0i8(i64 32, i8* nonnull %320) #19
  %321 = icmp eq %struct.TfLiteTensor* %7, null
  br i1 %321, label %322, label %325

322:                                              ; preds = %317
  %323 = getelementptr inbounds %"class.tflite::RuntimeShape", %"class.tflite::RuntimeShape"* %17, i64 0, i32 0
  store i32 0, i32* %323, align 8, !alias.scope !85
  %324 = getelementptr inbounds %"class.tflite::RuntimeShape", %"class.tflite::RuntimeShape"* %17, i64 0, i32 1
  br label %402

325:                                              ; preds = %317
  %326 = getelementptr inbounds %struct.TfLiteTensor, %struct.TfLiteTensor* %7, i64 0, i32 2
  %327 = load %struct.TfLiteIntArray*, %struct.TfLiteIntArray** %326, align 8, !noalias !85
  %328 = getelementptr inbounds %struct.TfLiteIntArray, %struct.TfLiteIntArray* %327, i64 0, i32 0
  %329 = load i32, i32* %328, align 4, !noalias !85
  %330 = getelementptr inbounds %struct.TfLiteIntArray, %struct.TfLiteIntArray* %327, i64 0, i32 1, i64 0
  %331 = getelementptr inbounds %"class.tflite::RuntimeShape", %"class.tflite::RuntimeShape"* %17, i64 0, i32 0
  store i32 %329, i32* %331, align 8, !alias.scope !85
  %332 = icmp sgt i32 %329, 5
  br i1 %332, label %333, label %340

333:                                              ; preds = %325
  %334 = sext i32 %329 to i64
  %335 = shl nsw i64 %334, 2
  %336 = tail call i8* @_Znam(i64 %335) #18, !noalias !85
  %337 = getelementptr inbounds %"class.tflite::RuntimeShape", %"class.tflite::RuntimeShape"* %17, i64 0, i32 1, i32 0
  %338 = bitcast i32** %337 to i8**
  store i8* %336, i8** %338, align 8, !alias.scope !85
  %339 = bitcast i8* %336 to i32*
  br label %345

340:                                              ; preds = %325
  %341 = getelementptr inbounds %"class.tflite::RuntimeShape", %"class.tflite::RuntimeShape"* %17, i64 0, i32 1
  %342 = bitcast %union.anon.54* %341 to i32*
  %343 = sext i32 %329 to i64
  %344 = shl nsw i64 %343, 2
  br label %345

345:                                              ; preds = %333, %340
  %346 = phi i64 [ %335, %333 ], [ %344, %340 ]
  %347 = phi i32* [ %339, %333 ], [ %342, %340 ]
  %348 = bitcast i32* %347 to i8*
  %349 = bitcast i32* %330 to i8*
  call void @llvm.memcpy.p0i8.p0i8.i64(i8* align 4 %348, i8* align 4 %349, i64 %346, i1 false) #19
  %350 = getelementptr inbounds %struct.TfLiteTensor, %struct.TfLiteTensor* %7, i64 0, i32 1
  %351 = bitcast %union.TfLitePtrUnion* %350 to float**
  %352 = load float*, float** %351, align 8
  %353 = getelementptr inbounds %"class.tflite::RuntimeShape", %"class.tflite::RuntimeShape"* %17, i64 0, i32 1, i32 0
  %354 = load i32*, i32** %353, align 8
  %355 = bitcast i32* %354 to i8*
  %356 = add nsw i32 %329, -1
  %357 = icmp sgt i32 %329, 5
  %358 = getelementptr inbounds %"class.tflite::RuntimeShape", %"class.tflite::RuntimeShape"* %17, i64 0, i32 1
  %359 = bitcast %union.anon.54* %358 to i32*
  %360 = select i1 %357, i32* %354, i32* %359
  %361 = icmp sgt i32 %329, 0
  br i1 %361, label %362, label %402

362:                                              ; preds = %345
  %363 = zext i32 %356 to i64
  %364 = zext i32 %329 to i64
  %365 = add nsw i64 %364, -1
  %366 = and i64 %364, 3
  %367 = icmp ult i64 %365, 3
  br i1 %367, label %383, label %368

368:                                              ; preds = %362
  %369 = sub nsw i64 %364, %366
  br label %370

370:                                              ; preds = %561, %368
  %371 = phi i64 [ 0, %368 ], [ %564, %561 ]
  %372 = phi i32 [ 1, %368 ], [ %563, %561 ]
  %373 = phi i64 [ %369, %368 ], [ %565, %561 ]
  %374 = icmp eq i64 %371, %363
  br i1 %374, label %378, label %375

375:                                              ; preds = %370
  %376 = getelementptr inbounds i32, i32* %360, i64 %371
  %377 = load i32, i32* %376, align 4
  br label %378

378:                                              ; preds = %375, %370
  %379 = phi i32 [ %377, %375 ], [ 1, %370 ]
  %380 = mul nsw i32 %379, %372
  %381 = or i64 %371, 1
  %382 = icmp eq i64 %381, %363
  br i1 %382, label %545, label %542

383:                                              ; preds = %561, %362
  %384 = phi i32 [ undef, %362 ], [ %563, %561 ]
  %385 = phi i64 [ 0, %362 ], [ %564, %561 ]
  %386 = phi i32 [ 1, %362 ], [ %563, %561 ]
  %387 = icmp eq i64 %366, 0
  br i1 %387, label %402, label %388

388:                                              ; preds = %383, %396
  %389 = phi i64 [ %399, %396 ], [ %385, %383 ]
  %390 = phi i32 [ %398, %396 ], [ %386, %383 ]
  %391 = phi i64 [ %400, %396 ], [ %366, %383 ]
  %392 = icmp eq i64 %389, %363
  br i1 %392, label %396, label %393

393:                                              ; preds = %388
  %394 = getelementptr inbounds i32, i32* %360, i64 %389
  %395 = load i32, i32* %394, align 4
  br label %396

396:                                              ; preds = %393, %388
  %397 = phi i32 [ %395, %393 ], [ 1, %388 ]
  %398 = mul nsw i32 %397, %390
  %399 = add nuw nsw i64 %389, 1
  %400 = add i64 %391, -1
  %401 = icmp eq i64 %400, 0
  br i1 %401, label %402, label %388, !llvm.loop !88

402:                                              ; preds = %383, %396, %322, %345
  %403 = phi %union.anon.54* [ %358, %345 ], [ %324, %322 ], [ %358, %396 ], [ %358, %383 ]
  %404 = phi i1 [ %357, %345 ], [ false, %322 ], [ %357, %396 ], [ %357, %383 ]
  %405 = phi i32 [ %356, %345 ], [ -1, %322 ], [ %356, %396 ], [ %356, %383 ]
  %406 = phi float* [ %352, %345 ], [ null, %322 ], [ %352, %396 ], [ %352, %383 ]
  %407 = phi i32* [ %354, %345 ], [ undef, %322 ], [ %354, %396 ], [ %354, %383 ]
  %408 = phi i8* [ %355, %345 ], [ undef, %322 ], [ %355, %396 ], [ %355, %383 ]
  %409 = phi i32 [ 1, %345 ], [ 1, %322 ], [ %384, %383 ], [ %398, %396 ]
  %410 = add nsw i32 %283, -2
  %411 = icmp sgt i32 %283, 5
  %412 = getelementptr inbounds %"class.tflite::RuntimeShape", %"class.tflite::RuntimeShape"* %15, i64 0, i32 1
  %413 = getelementptr inbounds %union.anon.54, %union.anon.54* %412, i64 0, i32 0
  %414 = load i32*, i32** %413, align 8
  %415 = sext i32 %410 to i64
  %416 = getelementptr inbounds i32, i32* %414, i64 %415
  %417 = bitcast %union.anon.54* %412 to [5 x i32]*
  %418 = getelementptr inbounds [5 x i32], [5 x i32]* %417, i64 0, i64 %415
  %419 = select i1 %411, i32* %416, i32* %418
  %420 = load i32, i32* %419, align 4
  %421 = sext i32 %405 to i64
  %422 = getelementptr inbounds i32, i32* %407, i64 %421
  %423 = bitcast %union.anon.54* %403 to [5 x i32]*
  %424 = getelementptr inbounds [5 x i32], [5 x i32]* %423, i64 0, i64 %421
  %425 = select i1 %404, i32* %422, i32* %424
  %426 = load i32, i32* %425, align 4
  %427 = icmp slt i32 %426, %420
  %428 = select i1 %427, i32 %426, i32 %420
  %429 = add nsw i32 %283, -1
  %430 = sext i32 %429 to i64
  %431 = getelementptr inbounds i32, i32* %414, i64 %430
  %432 = getelementptr inbounds [5 x i32], [5 x i32]* %417, i64 0, i64 %430
  %433 = select i1 %411, i32* %431, i32* %432
  %434 = load i32, i32* %433, align 4
  %435 = icmp sgt i32 %409, 0
  br i1 %435, label %436, label %513

436:                                              ; preds = %402
  %437 = icmp sgt i32 %428, 0
  %438 = icmp sgt i32 %434, 0
  %439 = icmp eq float* %319, null
  %440 = sext i32 %434 to i64
  %441 = sext i32 %428 to i64
  %442 = zext i32 %409 to i64
  %443 = zext i32 %434 to i64
  %444 = and i64 %443, 1
  %445 = icmp eq i32 %434, 1
  %446 = sub nsw i64 %443, %444
  %447 = icmp eq i64 %444, 0
  br label %448

448:                                              ; preds = %457, %436
  %449 = phi i64 [ 0, %436 ], [ %458, %457 ]
  br i1 %437, label %450, label %457

450:                                              ; preds = %448
  %451 = mul nsw i64 %449, %440
  %452 = mul nsw i64 %449, %441
  br label %453

453:                                              ; preds = %502, %450
  %454 = phi i64 [ 0, %450 ], [ %511, %502 ]
  br i1 %438, label %455, label %473

455:                                              ; preds = %453
  %456 = mul nsw i64 %454, %440
  br i1 %445, label %460, label %475

457:                                              ; preds = %502, %448
  %458 = add nuw nsw i64 %449, 1
  %459 = icmp eq i64 %458, %442
  br i1 %459, label %513, label %448

460:                                              ; preds = %475, %455
  %461 = phi float [ undef, %455 ], [ %495, %475 ]
  %462 = phi i64 [ 0, %455 ], [ %496, %475 ]
  %463 = phi float [ 0.000000e+00, %455 ], [ %495, %475 ]
  br i1 %447, label %473, label %464

464:                                              ; preds = %460
  %465 = add nsw i64 %462, %451
  %466 = getelementptr inbounds float, float* %249, i64 %465
  %467 = load float, float* %466, align 4
  %468 = add nsw i64 %462, %456
  %469 = getelementptr inbounds float, float* %284, i64 %468
  %470 = load float, float* %469, align 4
  %471 = fmul float %467, %470
  %472 = fadd float %463, %471
  br label %473

473:                                              ; preds = %464, %460, %453
  %474 = phi float [ 0.000000e+00, %453 ], [ %461, %460 ], [ %472, %464 ]
  br i1 %439, label %502, label %499

475:                                              ; preds = %455, %475
  %476 = phi i64 [ %496, %475 ], [ 0, %455 ]
  %477 = phi float [ %495, %475 ], [ 0.000000e+00, %455 ]
  %478 = phi i64 [ %497, %475 ], [ %446, %455 ]
  %479 = add nsw i64 %476, %451
  %480 = getelementptr inbounds float, float* %249, i64 %479
  %481 = load float, float* %480, align 4
  %482 = add nsw i64 %476, %456
  %483 = getelementptr inbounds float, float* %284, i64 %482
  %484 = load float, float* %483, align 4
  %485 = fmul float %481, %484
  %486 = fadd float %477, %485
  %487 = or i64 %476, 1
  %488 = add nsw i64 %487, %451
  %489 = getelementptr inbounds float, float* %249, i64 %488
  %490 = load float, float* %489, align 4
  %491 = add nsw i64 %487, %456
  %492 = getelementptr inbounds float, float* %284, i64 %491
  %493 = load float, float* %492, align 4
  %494 = fmul float %490, %493
  %495 = fadd float %486, %494
  %496 = add nuw nsw i64 %476, 2
  %497 = add i64 %478, -2
  %498 = icmp eq i64 %497, 0
  br i1 %498, label %460, label %475

499:                                              ; preds = %473
  %500 = getelementptr inbounds float, float* %319, i64 %454
  %501 = load float, float* %500, align 4
  br label %502

502:                                              ; preds = %499, %473
  %503 = phi float [ %501, %499 ], [ 0.000000e+00, %473 ]
  %504 = fadd float %474, %503
  %505 = fcmp olt float %504, %30
  %506 = select i1 %505, float %30, float %504
  %507 = fcmp ogt float %506, %31
  %508 = select i1 %507, float %31, float %506
  %509 = add nsw i64 %454, %452
  %510 = getelementptr inbounds float, float* %406, i64 %509
  store float %508, float* %510, align 4
  %511 = add nuw nsw i64 %454, 1
  %512 = icmp slt i64 %511, %441
  br i1 %512, label %453, label %457

513:                                              ; preds = %457, %402
  %514 = xor i1 %404, true
  %515 = icmp eq i32* %407, null
  %516 = or i1 %515, %514
  br i1 %516, label %518, label %517

517:                                              ; preds = %513
  tail call void @_ZdaPv(i8* %408) #18
  br label %518

518:                                              ; preds = %513, %517
  call void @llvm.lifetime.end.p0i8(i64 32, i8* nonnull %320) #19
  %519 = icmp sgt i32 %318, 5
  br i1 %519, label %520, label %526

520:                                              ; preds = %518
  %521 = getelementptr inbounds %"class.tflite::RuntimeShape", %"class.tflite::RuntimeShape"* %16, i64 0, i32 1, i32 0
  %522 = load i32*, i32** %521, align 8
  %523 = icmp eq i32* %522, null
  br i1 %523, label %526, label %524

524:                                              ; preds = %520
  %525 = bitcast i32* %522 to i8*
  tail call void @_ZdaPv(i8* %525) #18
  br label %526

526:                                              ; preds = %518, %520, %524
  call void @llvm.lifetime.end.p0i8(i64 32, i8* nonnull %285) #19
  %527 = xor i1 %411, true
  %528 = icmp eq i32* %414, null
  %529 = or i1 %528, %527
  br i1 %529, label %532, label %530

530:                                              ; preds = %526
  %531 = bitcast i32* %414 to i8*
  tail call void @_ZdaPv(i8* %531) #18
  br label %532

532:                                              ; preds = %526, %530
  call void @llvm.lifetime.end.p0i8(i64 32, i8* nonnull %250) #19
  %533 = icmp sgt i32 %248, 5
  br i1 %533, label %534, label %540

534:                                              ; preds = %532
  %535 = getelementptr inbounds %"class.tflite::RuntimeShape", %"class.tflite::RuntimeShape"* %14, i64 0, i32 1, i32 0
  %536 = load i32*, i32** %535, align 8
  %537 = icmp eq i32* %536, null
  br i1 %537, label %540, label %538

538:                                              ; preds = %534
  %539 = bitcast i32* %536 to i8*
  tail call void @_ZdaPv(i8* %539) #18
  br label %540

540:                                              ; preds = %538, %534, %532, %212, %208, %204
  %541 = phi i8* [ %39, %204 ], [ %39, %208 ], [ %39, %212 ], [ %215, %532 ], [ %215, %534 ], [ %215, %538 ]
  call void @llvm.lifetime.end.p0i8(i64 32, i8* nonnull %541) #19
  call void @llvm.lifetime.end.p0i8(i64 40, i8* nonnull %32) #19
  ret i32 0

542:                                              ; preds = %378
  %543 = getelementptr inbounds i32, i32* %360, i64 %381
  %544 = load i32, i32* %543, align 4
  br label %545

545:                                              ; preds = %542, %378
  %546 = phi i32 [ %544, %542 ], [ 1, %378 ]
  %547 = mul nsw i32 %546, %380
  %548 = or i64 %371, 2
  %549 = icmp eq i64 %548, %363
  br i1 %549, label %553, label %550

550:                                              ; preds = %545
  %551 = getelementptr inbounds i32, i32* %360, i64 %548
  %552 = load i32, i32* %551, align 4
  br label %553

553:                                              ; preds = %550, %545
  %554 = phi i32 [ %552, %550 ], [ 1, %545 ]
  %555 = mul nsw i32 %554, %547
  %556 = or i64 %371, 3
  %557 = icmp eq i64 %556, %363
  br i1 %557, label %561, label %558

558:                                              ; preds = %553
  %559 = getelementptr inbounds i32, i32* %360, i64 %556
  %560 = load i32, i32* %559, align 4
  br label %561

561:                                              ; preds = %558, %553
  %562 = phi i32 [ %560, %558 ], [ 1, %553 ]
  %563 = mul nsw i32 %562, %555
  %564 = add nuw nsw i64 %371, 4
  %565 = add i64 %373, -4
  %566 = icmp eq i64 %565, 0
  br i1 %566, label %383, label %370
}

; Function Attrs: nounwind ssp uwtable
define linkonce_odr hidden i32 @_ZN6tflite3ops7builtin15fully_connected21EvalShuffledQuantizedILNS2_10KernelTypeE0EEE12TfLiteStatusP13TfLiteContextP10TfLiteNodeP26TfLiteFullyConnectedParamsPNS2_6OpDataEPK12TfLiteTensorSG_SG_PSE_SH_(%struct.TfLiteContext*, %struct.TfLiteNode*, %struct.TfLiteFullyConnectedParams*, %"struct.tflite::ops::builtin::fully_connected::OpData"*, %struct.TfLiteTensor*, %struct.TfLiteTensor*, %struct.TfLiteTensor*, %struct.TfLiteTensor*, %struct.TfLiteTensor*) local_unnamed_addr #1 comdat {
  %10 = alloca %"struct.tflite::FullyConnectedParams", align 4
  %11 = alloca %"class.tflite::RuntimeShape", align 8
  %12 = alloca %"class.tflite::RuntimeShape", align 8
  %13 = alloca %"class.tflite::RuntimeShape", align 8
  %14 = alloca %"class.tflite::RuntimeShape", align 8
  %15 = getelementptr inbounds %struct.TfLiteTensor, %struct.TfLiteTensor* %8, i64 0, i32 0
  %16 = load i32, i32* %15, align 8
  %17 = icmp eq i32 %16, 3
  br i1 %17, label %21, label %18

18:                                               ; preds = %9
  %19 = getelementptr inbounds %struct.TfLiteContext, %struct.TfLiteContext* %0, i64 0, i32 5
  %20 = load void (%struct.TfLiteContext*, i8*, ...)*, void (%struct.TfLiteContext*, i8*, ...)** %19, align 8
  tail call void (%struct.TfLiteContext*, i8*, ...) %20(%struct.TfLiteContext* %0, i8* getelementptr inbounds ([21 x i8], [21 x i8]* @.str.34, i64 0, i64 0)) #19
  br label %219

21:                                               ; preds = %9
  %22 = bitcast %"struct.tflite::FullyConnectedParams"* %10 to i8*
  call void @llvm.lifetime.start.p0i8(i64 40, i8* nonnull %22) #19
  call void @llvm.memcpy.p0i8.p0i8.i64(i8* nonnull align 4 %22, i8* align 4 bitcast ({ i32, i32, i32, i32, i32, i32, i32, float, float, i8, i8, i8, [1 x i8] }* @__const._ZN6tflite3ops7builtin15fully_connected13EvalQuantizedILNS2_10KernelTypeE2EEE12TfLiteStatusP13TfLiteContextP10TfLiteNodeP26TfLiteFullyConnectedParamsPNS2_6OpDataEPK12TfLiteTensorSG_SG_PSE_.op_params to i8*), i64 40, i1 false)
  %23 = getelementptr inbounds %"struct.tflite::FullyConnectedParams", %"struct.tflite::FullyConnectedParams"* %10, i64 0, i32 3
  %24 = bitcast %"struct.tflite::ops::builtin::fully_connected::OpData"* %3 to <4 x i32>*
  %25 = load <4 x i32>, <4 x i32>* %24, align 4
  %26 = bitcast i32* %23 to <4 x i32>*
  store <4 x i32> %25, <4 x i32>* %26, align 4
  %27 = getelementptr inbounds %struct.TfLiteTensor, %struct.TfLiteTensor* %5, i64 0, i32 4
  %28 = load i32, i32* %27, align 8
  %29 = icmp eq i32 %28, 1
  %30 = getelementptr inbounds %"struct.tflite::FullyConnectedParams", %"struct.tflite::FullyConnectedParams"* %10, i64 0, i32 9
  %31 = zext i1 %29 to i8
  store i8 %31, i8* %30, align 4
  %32 = getelementptr inbounds %struct.TfLiteTensor, %struct.TfLiteTensor* %4, i64 0, i32 4
  %33 = load i32, i32* %32, align 8
  %34 = icmp eq i32 %33, 1
  %35 = getelementptr inbounds %"struct.tflite::FullyConnectedParams", %"struct.tflite::FullyConnectedParams"* %10, i64 0, i32 10
  %36 = zext i1 %34 to i8
  store i8 %36, i8* %35, align 1
  %37 = bitcast %"class.tflite::RuntimeShape"* %11 to i8*
  call void @llvm.lifetime.start.p0i8(i64 32, i8* nonnull %37) #19
  %38 = icmp eq %struct.TfLiteTensor* %4, null
  br i1 %38, label %39, label %41

39:                                               ; preds = %21
  %40 = getelementptr inbounds %"class.tflite::RuntimeShape", %"class.tflite::RuntimeShape"* %11, i64 0, i32 0
  store i32 0, i32* %40, align 8, !alias.scope !89
  br label %69

41:                                               ; preds = %21
  %42 = getelementptr inbounds %struct.TfLiteTensor, %struct.TfLiteTensor* %4, i64 0, i32 2
  %43 = load %struct.TfLiteIntArray*, %struct.TfLiteIntArray** %42, align 8, !noalias !89
  %44 = getelementptr inbounds %struct.TfLiteIntArray, %struct.TfLiteIntArray* %43, i64 0, i32 0
  %45 = load i32, i32* %44, align 4, !noalias !89
  %46 = getelementptr inbounds %struct.TfLiteIntArray, %struct.TfLiteIntArray* %43, i64 0, i32 1, i64 0
  %47 = getelementptr inbounds %"class.tflite::RuntimeShape", %"class.tflite::RuntimeShape"* %11, i64 0, i32 0
  store i32 %45, i32* %47, align 8, !alias.scope !89
  %48 = icmp sgt i32 %45, 5
  br i1 %48, label %49, label %56

49:                                               ; preds = %41
  %50 = sext i32 %45 to i64
  %51 = shl nsw i64 %50, 2
  %52 = tail call i8* @_Znam(i64 %51) #18, !noalias !89
  %53 = getelementptr inbounds %"class.tflite::RuntimeShape", %"class.tflite::RuntimeShape"* %11, i64 0, i32 1, i32 0
  %54 = bitcast i32** %53 to i8**
  store i8* %52, i8** %54, align 8, !alias.scope !89
  %55 = bitcast i8* %52 to i32*
  br label %61

56:                                               ; preds = %41
  %57 = getelementptr inbounds %"class.tflite::RuntimeShape", %"class.tflite::RuntimeShape"* %11, i64 0, i32 1
  %58 = bitcast %union.anon.54* %57 to i32*
  %59 = sext i32 %45 to i64
  %60 = shl nsw i64 %59, 2
  br label %61

61:                                               ; preds = %56, %49
  %62 = phi i64 [ %51, %49 ], [ %60, %56 ]
  %63 = phi i32* [ %55, %49 ], [ %58, %56 ]
  %64 = bitcast i32* %63 to i8*
  %65 = bitcast i32* %46 to i8*
  call void @llvm.memcpy.p0i8.p0i8.i64(i8* align 4 %64, i8* align 4 %65, i64 %62, i1 false) #19
  %66 = getelementptr inbounds %struct.TfLiteTensor, %struct.TfLiteTensor* %4, i64 0, i32 1
  %67 = bitcast %union.TfLitePtrUnion* %66 to i8**
  %68 = load i8*, i8** %67, align 8
  br label %69

69:                                               ; preds = %39, %61
  %70 = phi i8* [ %68, %61 ], [ null, %39 ]
  %71 = bitcast %"class.tflite::RuntimeShape"* %12 to i8*
  call void @llvm.lifetime.start.p0i8(i64 32, i8* nonnull %71) #19
  %72 = icmp eq %struct.TfLiteTensor* %5, null
  br i1 %72, label %73, label %75

73:                                               ; preds = %69
  %74 = getelementptr inbounds %"class.tflite::RuntimeShape", %"class.tflite::RuntimeShape"* %12, i64 0, i32 0
  store i32 0, i32* %74, align 8, !alias.scope !92
  br label %103

75:                                               ; preds = %69
  %76 = getelementptr inbounds %struct.TfLiteTensor, %struct.TfLiteTensor* %5, i64 0, i32 2
  %77 = load %struct.TfLiteIntArray*, %struct.TfLiteIntArray** %76, align 8, !noalias !92
  %78 = getelementptr inbounds %struct.TfLiteIntArray, %struct.TfLiteIntArray* %77, i64 0, i32 0
  %79 = load i32, i32* %78, align 4, !noalias !92
  %80 = getelementptr inbounds %struct.TfLiteIntArray, %struct.TfLiteIntArray* %77, i64 0, i32 1, i64 0
  %81 = getelementptr inbounds %"class.tflite::RuntimeShape", %"class.tflite::RuntimeShape"* %12, i64 0, i32 0
  store i32 %79, i32* %81, align 8, !alias.scope !92
  %82 = icmp sgt i32 %79, 5
  br i1 %82, label %83, label %90

83:                                               ; preds = %75
  %84 = sext i32 %79 to i64
  %85 = shl nsw i64 %84, 2
  %86 = tail call i8* @_Znam(i64 %85) #18, !noalias !92
  %87 = getelementptr inbounds %"class.tflite::RuntimeShape", %"class.tflite::RuntimeShape"* %12, i64 0, i32 1, i32 0
  %88 = bitcast i32** %87 to i8**
  store i8* %86, i8** %88, align 8, !alias.scope !92
  %89 = bitcast i8* %86 to i32*
  br label %95

90:                                               ; preds = %75
  %91 = getelementptr inbounds %"class.tflite::RuntimeShape", %"class.tflite::RuntimeShape"* %12, i64 0, i32 1
  %92 = bitcast %union.anon.54* %91 to i32*
  %93 = sext i32 %79 to i64
  %94 = shl nsw i64 %93, 2
  br label %95

95:                                               ; preds = %90, %83
  %96 = phi i64 [ %85, %83 ], [ %94, %90 ]
  %97 = phi i32* [ %89, %83 ], [ %92, %90 ]
  %98 = bitcast i32* %97 to i8*
  %99 = bitcast i32* %80 to i8*
  call void @llvm.memcpy.p0i8.p0i8.i64(i8* align 4 %98, i8* align 4 %99, i64 %96, i1 false) #19
  %100 = getelementptr inbounds %struct.TfLiteTensor, %struct.TfLiteTensor* %5, i64 0, i32 1
  %101 = bitcast %union.TfLitePtrUnion* %100 to i8**
  %102 = load i8*, i8** %101, align 8
  br label %103

103:                                              ; preds = %73, %95
  %104 = phi i8* [ %102, %95 ], [ null, %73 ]
  %105 = bitcast %"class.tflite::RuntimeShape"* %13 to i8*
  call void @llvm.lifetime.start.p0i8(i64 32, i8* nonnull %105) #19
  %106 = icmp eq %struct.TfLiteTensor* %6, null
  br i1 %106, label %107, label %109

107:                                              ; preds = %103
  %108 = getelementptr inbounds %"class.tflite::RuntimeShape", %"class.tflite::RuntimeShape"* %13, i64 0, i32 0
  store i32 0, i32* %108, align 8, !alias.scope !95
  br label %136

109:                                              ; preds = %103
  %110 = getelementptr inbounds %struct.TfLiteTensor, %struct.TfLiteTensor* %6, i64 0, i32 2
  %111 = load %struct.TfLiteIntArray*, %struct.TfLiteIntArray** %110, align 8, !noalias !95
  %112 = getelementptr inbounds %struct.TfLiteIntArray, %struct.TfLiteIntArray* %111, i64 0, i32 0
  %113 = load i32, i32* %112, align 4, !noalias !95
  %114 = getelementptr inbounds %struct.TfLiteIntArray, %struct.TfLiteIntArray* %111, i64 0, i32 1, i64 0
  %115 = getelementptr inbounds %"class.tflite::RuntimeShape", %"class.tflite::RuntimeShape"* %13, i64 0, i32 0
  store i32 %113, i32* %115, align 8, !alias.scope !95
  %116 = icmp sgt i32 %113, 5
  br i1 %116, label %117, label %124

117:                                              ; preds = %109
  %118 = sext i32 %113 to i64
  %119 = shl nsw i64 %118, 2
  %120 = tail call i8* @_Znam(i64 %119) #18, !noalias !95
  %121 = getelementptr inbounds %"class.tflite::RuntimeShape", %"class.tflite::RuntimeShape"* %13, i64 0, i32 1, i32 0
  %122 = bitcast i32** %121 to i8**
  store i8* %120, i8** %122, align 8, !alias.scope !95
  %123 = bitcast i8* %120 to i32*
  br label %129

124:                                              ; preds = %109
  %125 = getelementptr inbounds %"class.tflite::RuntimeShape", %"class.tflite::RuntimeShape"* %13, i64 0, i32 1
  %126 = bitcast %union.anon.54* %125 to i32*
  %127 = sext i32 %113 to i64
  %128 = shl nsw i64 %127, 2
  br label %129

129:                                              ; preds = %124, %117
  %130 = phi i64 [ %119, %117 ], [ %128, %124 ]
  %131 = phi i32* [ %123, %117 ], [ %126, %124 ]
  %132 = bitcast i32* %131 to i8*
  %133 = bitcast i32* %114 to i8*
  call void @llvm.memcpy.p0i8.p0i8.i64(i8* align 4 %132, i8* align 4 %133, i64 %130, i1 false) #19
  %134 = getelementptr inbounds %struct.TfLiteTensor, %struct.TfLiteTensor* %6, i64 0, i32 1, i32 0
  %135 = load i32*, i32** %134, align 8
  br label %136

136:                                              ; preds = %107, %129
  %137 = phi i32* [ %135, %129 ], [ null, %107 ]
  %138 = bitcast %"class.tflite::RuntimeShape"* %14 to i8*
  call void @llvm.lifetime.start.p0i8(i64 32, i8* nonnull %138) #19
  %139 = icmp eq %struct.TfLiteTensor* %7, null
  br i1 %139, label %140, label %142

140:                                              ; preds = %136
  %141 = getelementptr inbounds %"class.tflite::RuntimeShape", %"class.tflite::RuntimeShape"* %14, i64 0, i32 0
  store i32 0, i32* %141, align 8, !alias.scope !98
  br label %170

142:                                              ; preds = %136
  %143 = getelementptr inbounds %struct.TfLiteTensor, %struct.TfLiteTensor* %7, i64 0, i32 2
  %144 = load %struct.TfLiteIntArray*, %struct.TfLiteIntArray** %143, align 8, !noalias !98
  %145 = getelementptr inbounds %struct.TfLiteIntArray, %struct.TfLiteIntArray* %144, i64 0, i32 0
  %146 = load i32, i32* %145, align 4, !noalias !98
  %147 = getelementptr inbounds %struct.TfLiteIntArray, %struct.TfLiteIntArray* %144, i64 0, i32 1, i64 0
  %148 = getelementptr inbounds %"class.tflite::RuntimeShape", %"class.tflite::RuntimeShape"* %14, i64 0, i32 0
  store i32 %146, i32* %148, align 8, !alias.scope !98
  %149 = icmp sgt i32 %146, 5
  br i1 %149, label %150, label %157

150:                                              ; preds = %142
  %151 = sext i32 %146 to i64
  %152 = shl nsw i64 %151, 2
  %153 = tail call i8* @_Znam(i64 %152) #18, !noalias !98
  %154 = getelementptr inbounds %"class.tflite::RuntimeShape", %"class.tflite::RuntimeShape"* %14, i64 0, i32 1, i32 0
  %155 = bitcast i32** %154 to i8**
  store i8* %153, i8** %155, align 8, !alias.scope !98
  %156 = bitcast i8* %153 to i32*
  br label %162

157:                                              ; preds = %142
  %158 = getelementptr inbounds %"class.tflite::RuntimeShape", %"class.tflite::RuntimeShape"* %14, i64 0, i32 1
  %159 = bitcast %union.anon.54* %158 to i32*
  %160 = sext i32 %146 to i64
  %161 = shl nsw i64 %160, 2
  br label %162

162:                                              ; preds = %157, %150
  %163 = phi i64 [ %152, %150 ], [ %161, %157 ]
  %164 = phi i32* [ %156, %150 ], [ %159, %157 ]
  %165 = bitcast i32* %164 to i8*
  %166 = bitcast i32* %147 to i8*
  call void @llvm.memcpy.p0i8.p0i8.i64(i8* align 4 %165, i8* align 4 %166, i64 %163, i1 false) #19
  %167 = getelementptr inbounds %struct.TfLiteTensor, %struct.TfLiteTensor* %7, i64 0, i32 1
  %168 = bitcast %union.TfLitePtrUnion* %167 to i16**
  %169 = load i16*, i16** %168, align 8
  br label %170

170:                                              ; preds = %140, %162
  %171 = phi i16* [ %169, %162 ], [ null, %140 ]
  %172 = icmp eq %struct.TfLiteTensor* %8, null
  br i1 %172, label %177, label %173

173:                                              ; preds = %170
  %174 = getelementptr inbounds %struct.TfLiteTensor, %struct.TfLiteTensor* %8, i64 0, i32 1
  %175 = bitcast %union.TfLitePtrUnion* %174 to i8**
  %176 = load i8*, i8** %175, align 8
  br label %177

177:                                              ; preds = %170, %173
  %178 = phi i8* [ %176, %173 ], [ null, %170 ]
  call void @_ZN6tflite13reference_ops22ShuffledFullyConnectedERKNS_20FullyConnectedParamsERKNS_12RuntimeShapeEPKhS6_S8_S6_PKiS6_PsPh(%"struct.tflite::FullyConnectedParams"* nonnull dereferenceable(40) %10, %"class.tflite::RuntimeShape"* nonnull dereferenceable(32) %11, i8* %70, %"class.tflite::RuntimeShape"* nonnull dereferenceable(32) %12, i8* %104, %"class.tflite::RuntimeShape"* nonnull dereferenceable(32) %13, i32* %137, %"class.tflite::RuntimeShape"* nonnull dereferenceable(32) %14, i16* %171, i8* %178)
  %179 = getelementptr inbounds %"class.tflite::RuntimeShape", %"class.tflite::RuntimeShape"* %14, i64 0, i32 0
  %180 = load i32, i32* %179, align 8
  %181 = icmp sgt i32 %180, 5
  br i1 %181, label %182, label %188

182:                                              ; preds = %177
  %183 = getelementptr inbounds %"class.tflite::RuntimeShape", %"class.tflite::RuntimeShape"* %14, i64 0, i32 1, i32 0
  %184 = load i32*, i32** %183, align 8
  %185 = icmp eq i32* %184, null
  br i1 %185, label %188, label %186

186:                                              ; preds = %182
  %187 = bitcast i32* %184 to i8*
  call void @_ZdaPv(i8* %187) #18
  br label %188

188:                                              ; preds = %177, %182, %186
  call void @llvm.lifetime.end.p0i8(i64 32, i8* nonnull %138) #19
  %189 = getelementptr inbounds %"class.tflite::RuntimeShape", %"class.tflite::RuntimeShape"* %13, i64 0, i32 0
  %190 = load i32, i32* %189, align 8
  %191 = icmp sgt i32 %190, 5
  br i1 %191, label %192, label %198

192:                                              ; preds = %188
  %193 = getelementptr inbounds %"class.tflite::RuntimeShape", %"class.tflite::RuntimeShape"* %13, i64 0, i32 1, i32 0
  %194 = load i32*, i32** %193, align 8
  %195 = icmp eq i32* %194, null
  br i1 %195, label %198, label %196

196:                                              ; preds = %192
  %197 = bitcast i32* %194 to i8*
  call void @_ZdaPv(i8* %197) #18
  br label %198

198:                                              ; preds = %188, %192, %196
  call void @llvm.lifetime.end.p0i8(i64 32, i8* nonnull %105) #19
  %199 = getelementptr inbounds %"class.tflite::RuntimeShape", %"class.tflite::RuntimeShape"* %12, i64 0, i32 0
  %200 = load i32, i32* %199, align 8
  %201 = icmp sgt i32 %200, 5
  br i1 %201, label %202, label %208

202:                                              ; preds = %198
  %203 = getelementptr inbounds %"class.tflite::RuntimeShape", %"class.tflite::RuntimeShape"* %12, i64 0, i32 1, i32 0
  %204 = load i32*, i32** %203, align 8
  %205 = icmp eq i32* %204, null
  br i1 %205, label %208, label %206

206:                                              ; preds = %202
  %207 = bitcast i32* %204 to i8*
  call void @_ZdaPv(i8* %207) #18
  br label %208

208:                                              ; preds = %198, %202, %206
  call void @llvm.lifetime.end.p0i8(i64 32, i8* nonnull %71) #19
  %209 = getelementptr inbounds %"class.tflite::RuntimeShape", %"class.tflite::RuntimeShape"* %11, i64 0, i32 0
  %210 = load i32, i32* %209, align 8
  %211 = icmp sgt i32 %210, 5
  br i1 %211, label %212, label %218

212:                                              ; preds = %208
  %213 = getelementptr inbounds %"class.tflite::RuntimeShape", %"class.tflite::RuntimeShape"* %11, i64 0, i32 1, i32 0
  %214 = load i32*, i32** %213, align 8
  %215 = icmp eq i32* %214, null
  br i1 %215, label %218, label %216

216:                                              ; preds = %212
  %217 = bitcast i32* %214 to i8*
  call void @_ZdaPv(i8* %217) #18
  br label %218

218:                                              ; preds = %208, %212, %216
  call void @llvm.lifetime.end.p0i8(i64 32, i8* nonnull %37) #19
  call void @llvm.lifetime.end.p0i8(i64 40, i8* nonnull %22) #19
  br label %219

219:                                              ; preds = %218, %18
  %220 = phi i32 [ 1, %18 ], [ 0, %218 ]
  ret i32 %220
}

; Function Attrs: nounwind ssp uwtable
define linkonce_odr hidden i32 @_ZN6tflite3ops7builtin15fully_connected13EvalQuantizedILNS2_10KernelTypeE0EEE12TfLiteStatusP13TfLiteContextP10TfLiteNodeP26TfLiteFullyConnectedParamsPNS2_6OpDataEPK12TfLiteTensorSG_SG_PSE_(%struct.TfLiteContext*, %struct.TfLiteNode*, %struct.TfLiteFullyConnectedParams*, %"struct.tflite::ops::builtin::fully_connected::OpData"*, %struct.TfLiteTensor*, %struct.TfLiteTensor*, %struct.TfLiteTensor*, %struct.TfLiteTensor*) local_unnamed_addr #1 comdat {
  %9 = alloca %"class.tflite::RuntimeShape", align 8
  %10 = alloca %"class.tflite::RuntimeShape", align 8
  %11 = alloca %"class.tflite::RuntimeShape", align 8
  %12 = alloca %"class.tflite::RuntimeShape", align 8
  %13 = alloca %"class.tflite::RuntimeShape", align 8
  %14 = alloca %"class.tflite::RuntimeShape", align 8
  %15 = alloca %"class.tflite::RuntimeShape", align 8
  %16 = alloca %"class.tflite::RuntimeShape", align 8
  %17 = alloca %"struct.tflite::FullyConnectedParams", align 4
  %18 = alloca %"class.tflite::RuntimeShape", align 8
  %19 = alloca %"class.tflite::RuntimeShape", align 8
  %20 = alloca %"class.tflite::RuntimeShape", align 8
  %21 = alloca %"class.tflite::RuntimeShape", align 8
  %22 = alloca %"class.tflite::RuntimeShape", align 8
  %23 = alloca %"class.tflite::RuntimeShape", align 8
  %24 = alloca %"class.tflite::RuntimeShape", align 8
  %25 = alloca %"class.tflite::RuntimeShape", align 8
  %26 = getelementptr inbounds %struct.TfLiteTensor, %struct.TfLiteTensor* %4, i64 0, i32 0
  %27 = load i32, i32* %26, align 8
  %28 = icmp eq i32 %27, 1
  br i1 %28, label %29, label %83

29:                                               ; preds = %8
  %30 = getelementptr inbounds %struct.TfLiteNode, %struct.TfLiteNode* %1, i64 0, i32 3
  %31 = load %struct.TfLiteIntArray*, %struct.TfLiteIntArray** %30, align 8
  %32 = getelementptr inbounds %struct.TfLiteIntArray, %struct.TfLiteIntArray* %31, i64 0, i32 1, i64 0
  %33 = load i32, i32* %32, align 4
  %34 = icmp slt i32 %33, 0
  br i1 %34, label %40, label %35

35:                                               ; preds = %29
  %36 = getelementptr inbounds %struct.TfLiteContext, %struct.TfLiteContext* %0, i64 0, i32 2
  %37 = load %struct.TfLiteTensor*, %struct.TfLiteTensor** %36, align 8
  %38 = sext i32 %33 to i64
  %39 = getelementptr inbounds %struct.TfLiteTensor, %struct.TfLiteTensor* %37, i64 %38
  br label %40

40:                                               ; preds = %29, %35
  %41 = phi %struct.TfLiteTensor* [ %39, %35 ], [ null, %29 ]
  %42 = getelementptr inbounds %struct.TfLiteIntArray, %struct.TfLiteIntArray* %31, i64 0, i32 1, i64 1
  %43 = load i32, i32* %42, align 4
  %44 = icmp slt i32 %43, 0
  br i1 %44, label %50, label %45

45:                                               ; preds = %40
  %46 = getelementptr inbounds %struct.TfLiteContext, %struct.TfLiteContext* %0, i64 0, i32 2
  %47 = load %struct.TfLiteTensor*, %struct.TfLiteTensor** %46, align 8
  %48 = sext i32 %43 to i64
  %49 = getelementptr inbounds %struct.TfLiteTensor, %struct.TfLiteTensor* %47, i64 %48
  br label %50

50:                                               ; preds = %40, %45
  %51 = phi %struct.TfLiteTensor* [ %49, %45 ], [ null, %40 ]
  %52 = getelementptr inbounds %struct.TfLiteIntArray, %struct.TfLiteIntArray* %31, i64 0, i32 1, i64 2
  %53 = load i32, i32* %52, align 4
  %54 = icmp slt i32 %53, 0
  br i1 %54, label %60, label %55

55:                                               ; preds = %50
  %56 = getelementptr inbounds %struct.TfLiteContext, %struct.TfLiteContext* %0, i64 0, i32 2
  %57 = load %struct.TfLiteTensor*, %struct.TfLiteTensor** %56, align 8
  %58 = sext i32 %53 to i64
  %59 = getelementptr inbounds %struct.TfLiteTensor, %struct.TfLiteTensor* %57, i64 %58
  br label %60

60:                                               ; preds = %50, %55
  %61 = phi %struct.TfLiteTensor* [ %59, %55 ], [ null, %50 ]
  %62 = getelementptr inbounds %struct.TfLiteIntArray, %struct.TfLiteIntArray* %31, i64 0, i32 1, i64 3
  %63 = load i32, i32* %62, align 4
  %64 = icmp slt i32 %63, 0
  br i1 %64, label %70, label %65

65:                                               ; preds = %60
  %66 = getelementptr inbounds %struct.TfLiteContext, %struct.TfLiteContext* %0, i64 0, i32 2
  %67 = load %struct.TfLiteTensor*, %struct.TfLiteTensor** %66, align 8
  %68 = sext i32 %63 to i64
  %69 = getelementptr inbounds %struct.TfLiteTensor, %struct.TfLiteTensor* %67, i64 %68
  br label %70

70:                                               ; preds = %60, %65
  %71 = phi %struct.TfLiteTensor* [ %69, %65 ], [ null, %60 ]
  %72 = getelementptr inbounds %struct.TfLiteIntArray, %struct.TfLiteIntArray* %31, i64 0, i32 1, i64 4
  %73 = load i32, i32* %72, align 4
  %74 = icmp slt i32 %73, 0
  br i1 %74, label %80, label %75

75:                                               ; preds = %70
  %76 = getelementptr inbounds %struct.TfLiteContext, %struct.TfLiteContext* %0, i64 0, i32 2
  %77 = load %struct.TfLiteTensor*, %struct.TfLiteTensor** %76, align 8
  %78 = sext i32 %73 to i64
  %79 = getelementptr inbounds %struct.TfLiteTensor, %struct.TfLiteTensor* %77, i64 %78
  br label %80

80:                                               ; preds = %70, %75
  %81 = phi %struct.TfLiteTensor* [ %79, %75 ], [ null, %70 ]
  %82 = tail call i32 @_ZN6tflite3ops7builtin15fully_connected10EvalHybridEP13TfLiteContextP10TfLiteNodeP26TfLiteFullyConnectedParamsPNS2_6OpDataEPK12TfLiteTensorSD_SD_PSB_SE_SE_SE_SE_SE_(%struct.TfLiteContext* %0, %struct.TfLiteNode* undef, %struct.TfLiteFullyConnectedParams* %2, %"struct.tflite::ops::builtin::fully_connected::OpData"* %3, %struct.TfLiteTensor* %4, %struct.TfLiteTensor* %5, %struct.TfLiteTensor* %6, %struct.TfLiteTensor* %41, %struct.TfLiteTensor* %51, %struct.TfLiteTensor* %61, %struct.TfLiteTensor* %81, %struct.TfLiteTensor* %71, %struct.TfLiteTensor* %7)
  ret i32 0

83:                                               ; preds = %8
  %84 = getelementptr inbounds %struct.TfLiteTensor, %struct.TfLiteTensor* %7, i64 0, i32 3, i32 1
  %85 = load i32, i32* %84, align 4
  %86 = getelementptr inbounds %struct.TfLiteTensor, %struct.TfLiteTensor* %5, i64 0, i32 3, i32 1
  %87 = load i32, i32* %86, align 4
  %88 = sub nsw i32 0, %87
  %89 = getelementptr inbounds %struct.TfLiteTensor, %struct.TfLiteTensor* %4, i64 0, i32 3, i32 1
  %90 = load i32, i32* %89, align 4
  %91 = sub nsw i32 0, %90
  %92 = bitcast %"struct.tflite::FullyConnectedParams"* %17 to i8*
  call void @llvm.lifetime.start.p0i8(i64 40, i8* nonnull %92) #19
  call void @llvm.memcpy.p0i8.p0i8.i64(i8* nonnull align 4 %92, i8* align 4 bitcast ({ i32, i32, i32, i32, i32, i32, i32, float, float, i8, i8, i8, [1 x i8] }* @__const._ZN6tflite3ops7builtin15fully_connected13EvalQuantizedILNS2_10KernelTypeE2EEE12TfLiteStatusP13TfLiteContextP10TfLiteNodeP26TfLiteFullyConnectedParamsPNS2_6OpDataEPK12TfLiteTensorSG_SG_PSE_.op_params to i8*), i64 40, i1 false)
  %93 = getelementptr inbounds %"struct.tflite::FullyConnectedParams", %"struct.tflite::FullyConnectedParams"* %17, i64 0, i32 0
  store i32 %91, i32* %93, align 4
  %94 = getelementptr inbounds %"struct.tflite::FullyConnectedParams", %"struct.tflite::FullyConnectedParams"* %17, i64 0, i32 1
  store i32 %88, i32* %94, align 4
  %95 = getelementptr inbounds %"struct.tflite::FullyConnectedParams", %"struct.tflite::FullyConnectedParams"* %17, i64 0, i32 2
  store i32 %85, i32* %95, align 4
  %96 = getelementptr inbounds %"struct.tflite::FullyConnectedParams", %"struct.tflite::FullyConnectedParams"* %17, i64 0, i32 3
  %97 = bitcast %"struct.tflite::ops::builtin::fully_connected::OpData"* %3 to <4 x i32>*
  %98 = load <4 x i32>, <4 x i32>* %97, align 4
  %99 = bitcast i32* %96 to <4 x i32>*
  store <4 x i32> %98, <4 x i32>* %99, align 4
  %100 = getelementptr inbounds %struct.TfLiteTensor, %struct.TfLiteTensor* %5, i64 0, i32 4
  %101 = load i32, i32* %100, align 8
  %102 = icmp eq i32 %101, 1
  %103 = getelementptr inbounds %"struct.tflite::FullyConnectedParams", %"struct.tflite::FullyConnectedParams"* %17, i64 0, i32 9
  %104 = zext i1 %102 to i8
  store i8 %104, i8* %103, align 4
  %105 = getelementptr inbounds %struct.TfLiteTensor, %struct.TfLiteTensor* %4, i64 0, i32 4
  %106 = load i32, i32* %105, align 8
  %107 = icmp eq i32 %106, 1
  %108 = getelementptr inbounds %"struct.tflite::FullyConnectedParams", %"struct.tflite::FullyConnectedParams"* %17, i64 0, i32 10
  %109 = zext i1 %107 to i8
  store i8 %109, i8* %108, align 1
  %110 = getelementptr inbounds %struct.TfLiteTensor, %struct.TfLiteTensor* %7, i64 0, i32 0
  %111 = load i32, i32* %110, align 8
  switch i32 %111, label %1151 [
    i32 3, label %112
    i32 9, label %287
    i32 7, label %668
  ]

112:                                              ; preds = %83
  %113 = bitcast %"class.tflite::RuntimeShape"* %18 to i8*
  call void @llvm.lifetime.start.p0i8(i64 32, i8* nonnull %113) #19
  %114 = icmp eq %struct.TfLiteTensor* %4, null
  br i1 %114, label %115, label %117

115:                                              ; preds = %112
  %116 = getelementptr inbounds %"class.tflite::RuntimeShape", %"class.tflite::RuntimeShape"* %18, i64 0, i32 0
  store i32 0, i32* %116, align 8, !alias.scope !101
  br label %145

117:                                              ; preds = %112
  %118 = getelementptr inbounds %struct.TfLiteTensor, %struct.TfLiteTensor* %4, i64 0, i32 2
  %119 = load %struct.TfLiteIntArray*, %struct.TfLiteIntArray** %118, align 8, !noalias !101
  %120 = getelementptr inbounds %struct.TfLiteIntArray, %struct.TfLiteIntArray* %119, i64 0, i32 0
  %121 = load i32, i32* %120, align 4, !noalias !101
  %122 = getelementptr inbounds %struct.TfLiteIntArray, %struct.TfLiteIntArray* %119, i64 0, i32 1, i64 0
  %123 = getelementptr inbounds %"class.tflite::RuntimeShape", %"class.tflite::RuntimeShape"* %18, i64 0, i32 0
  store i32 %121, i32* %123, align 8, !alias.scope !101
  %124 = icmp sgt i32 %121, 5
  br i1 %124, label %125, label %132

125:                                              ; preds = %117
  %126 = sext i32 %121 to i64
  %127 = shl nsw i64 %126, 2
  %128 = tail call i8* @_Znam(i64 %127) #18, !noalias !101
  %129 = getelementptr inbounds %"class.tflite::RuntimeShape", %"class.tflite::RuntimeShape"* %18, i64 0, i32 1, i32 0
  %130 = bitcast i32** %129 to i8**
  store i8* %128, i8** %130, align 8, !alias.scope !101
  %131 = bitcast i8* %128 to i32*
  br label %137

132:                                              ; preds = %117
  %133 = getelementptr inbounds %"class.tflite::RuntimeShape", %"class.tflite::RuntimeShape"* %18, i64 0, i32 1
  %134 = bitcast %union.anon.54* %133 to i32*
  %135 = sext i32 %121 to i64
  %136 = shl nsw i64 %135, 2
  br label %137

137:                                              ; preds = %132, %125
  %138 = phi i64 [ %127, %125 ], [ %136, %132 ]
  %139 = phi i32* [ %131, %125 ], [ %134, %132 ]
  %140 = bitcast i32* %139 to i8*
  %141 = bitcast i32* %122 to i8*
  call void @llvm.memcpy.p0i8.p0i8.i64(i8* align 4 %140, i8* align 4 %141, i64 %138, i1 false) #19
  %142 = getelementptr inbounds %struct.TfLiteTensor, %struct.TfLiteTensor* %4, i64 0, i32 1
  %143 = bitcast %union.TfLitePtrUnion* %142 to i8**
  %144 = load i8*, i8** %143, align 8
  br label %145

145:                                              ; preds = %115, %137
  %146 = phi i8* [ %144, %137 ], [ null, %115 ]
  %147 = bitcast %"class.tflite::RuntimeShape"* %19 to i8*
  call void @llvm.lifetime.start.p0i8(i64 32, i8* nonnull %147) #19
  %148 = icmp eq %struct.TfLiteTensor* %5, null
  br i1 %148, label %149, label %151

149:                                              ; preds = %145
  %150 = getelementptr inbounds %"class.tflite::RuntimeShape", %"class.tflite::RuntimeShape"* %19, i64 0, i32 0
  store i32 0, i32* %150, align 8, !alias.scope !104
  br label %179

151:                                              ; preds = %145
  %152 = getelementptr inbounds %struct.TfLiteTensor, %struct.TfLiteTensor* %5, i64 0, i32 2
  %153 = load %struct.TfLiteIntArray*, %struct.TfLiteIntArray** %152, align 8, !noalias !104
  %154 = getelementptr inbounds %struct.TfLiteIntArray, %struct.TfLiteIntArray* %153, i64 0, i32 0
  %155 = load i32, i32* %154, align 4, !noalias !104
  %156 = getelementptr inbounds %struct.TfLiteIntArray, %struct.TfLiteIntArray* %153, i64 0, i32 1, i64 0
  %157 = getelementptr inbounds %"class.tflite::RuntimeShape", %"class.tflite::RuntimeShape"* %19, i64 0, i32 0
  store i32 %155, i32* %157, align 8, !alias.scope !104
  %158 = icmp sgt i32 %155, 5
  br i1 %158, label %159, label %166

159:                                              ; preds = %151
  %160 = sext i32 %155 to i64
  %161 = shl nsw i64 %160, 2
  %162 = tail call i8* @_Znam(i64 %161) #18, !noalias !104
  %163 = getelementptr inbounds %"class.tflite::RuntimeShape", %"class.tflite::RuntimeShape"* %19, i64 0, i32 1, i32 0
  %164 = bitcast i32** %163 to i8**
  store i8* %162, i8** %164, align 8, !alias.scope !104
  %165 = bitcast i8* %162 to i32*
  br label %171

166:                                              ; preds = %151
  %167 = getelementptr inbounds %"class.tflite::RuntimeShape", %"class.tflite::RuntimeShape"* %19, i64 0, i32 1
  %168 = bitcast %union.anon.54* %167 to i32*
  %169 = sext i32 %155 to i64
  %170 = shl nsw i64 %169, 2
  br label %171

171:                                              ; preds = %166, %159
  %172 = phi i64 [ %161, %159 ], [ %170, %166 ]
  %173 = phi i32* [ %165, %159 ], [ %168, %166 ]
  %174 = bitcast i32* %173 to i8*
  %175 = bitcast i32* %156 to i8*
  call void @llvm.memcpy.p0i8.p0i8.i64(i8* align 4 %174, i8* align 4 %175, i64 %172, i1 false) #19
  %176 = getelementptr inbounds %struct.TfLiteTensor, %struct.TfLiteTensor* %5, i64 0, i32 1
  %177 = bitcast %union.TfLitePtrUnion* %176 to i8**
  %178 = load i8*, i8** %177, align 8
  br label %179

179:                                              ; preds = %149, %171
  %180 = phi i8* [ %178, %171 ], [ null, %149 ]
  %181 = bitcast %"class.tflite::RuntimeShape"* %20 to i8*
  call void @llvm.lifetime.start.p0i8(i64 32, i8* nonnull %181) #19
  %182 = icmp eq %struct.TfLiteTensor* %6, null
  br i1 %182, label %183, label %185

183:                                              ; preds = %179
  %184 = getelementptr inbounds %"class.tflite::RuntimeShape", %"class.tflite::RuntimeShape"* %20, i64 0, i32 0
  store i32 0, i32* %184, align 8, !alias.scope !107
  br label %212

185:                                              ; preds = %179
  %186 = getelementptr inbounds %struct.TfLiteTensor, %struct.TfLiteTensor* %6, i64 0, i32 2
  %187 = load %struct.TfLiteIntArray*, %struct.TfLiteIntArray** %186, align 8, !noalias !107
  %188 = getelementptr inbounds %struct.TfLiteIntArray, %struct.TfLiteIntArray* %187, i64 0, i32 0
  %189 = load i32, i32* %188, align 4, !noalias !107
  %190 = getelementptr inbounds %struct.TfLiteIntArray, %struct.TfLiteIntArray* %187, i64 0, i32 1, i64 0
  %191 = getelementptr inbounds %"class.tflite::RuntimeShape", %"class.tflite::RuntimeShape"* %20, i64 0, i32 0
  store i32 %189, i32* %191, align 8, !alias.scope !107
  %192 = icmp sgt i32 %189, 5
  br i1 %192, label %193, label %200

193:                                              ; preds = %185
  %194 = sext i32 %189 to i64
  %195 = shl nsw i64 %194, 2
  %196 = tail call i8* @_Znam(i64 %195) #18, !noalias !107
  %197 = getelementptr inbounds %"class.tflite::RuntimeShape", %"class.tflite::RuntimeShape"* %20, i64 0, i32 1, i32 0
  %198 = bitcast i32** %197 to i8**
  store i8* %196, i8** %198, align 8, !alias.scope !107
  %199 = bitcast i8* %196 to i32*
  br label %205

200:                                              ; preds = %185
  %201 = getelementptr inbounds %"class.tflite::RuntimeShape", %"class.tflite::RuntimeShape"* %20, i64 0, i32 1
  %202 = bitcast %union.anon.54* %201 to i32*
  %203 = sext i32 %189 to i64
  %204 = shl nsw i64 %203, 2
  br label %205

205:                                              ; preds = %200, %193
  %206 = phi i64 [ %195, %193 ], [ %204, %200 ]
  %207 = phi i32* [ %199, %193 ], [ %202, %200 ]
  %208 = bitcast i32* %207 to i8*
  %209 = bitcast i32* %190 to i8*
  call void @llvm.memcpy.p0i8.p0i8.i64(i8* align 4 %208, i8* align 4 %209, i64 %206, i1 false) #19
  %210 = getelementptr inbounds %struct.TfLiteTensor, %struct.TfLiteTensor* %6, i64 0, i32 1, i32 0
  %211 = load i32*, i32** %210, align 8
  br label %212

212:                                              ; preds = %183, %205
  %213 = phi i32* [ %211, %205 ], [ null, %183 ]
  %214 = bitcast %"class.tflite::RuntimeShape"* %21 to i8*
  call void @llvm.lifetime.start.p0i8(i64 32, i8* nonnull %214) #19
  %215 = icmp eq %struct.TfLiteTensor* %7, null
  br i1 %215, label %216, label %218

216:                                              ; preds = %212
  %217 = getelementptr inbounds %"class.tflite::RuntimeShape", %"class.tflite::RuntimeShape"* %21, i64 0, i32 0
  store i32 0, i32* %217, align 8, !alias.scope !110
  br label %246

218:                                              ; preds = %212
  %219 = getelementptr inbounds %struct.TfLiteTensor, %struct.TfLiteTensor* %7, i64 0, i32 2
  %220 = load %struct.TfLiteIntArray*, %struct.TfLiteIntArray** %219, align 8, !noalias !110
  %221 = getelementptr inbounds %struct.TfLiteIntArray, %struct.TfLiteIntArray* %220, i64 0, i32 0
  %222 = load i32, i32* %221, align 4, !noalias !110
  %223 = getelementptr inbounds %struct.TfLiteIntArray, %struct.TfLiteIntArray* %220, i64 0, i32 1, i64 0
  %224 = getelementptr inbounds %"class.tflite::RuntimeShape", %"class.tflite::RuntimeShape"* %21, i64 0, i32 0
  store i32 %222, i32* %224, align 8, !alias.scope !110
  %225 = icmp sgt i32 %222, 5
  br i1 %225, label %226, label %233

226:                                              ; preds = %218
  %227 = sext i32 %222 to i64
  %228 = shl nsw i64 %227, 2
  %229 = tail call i8* @_Znam(i64 %228) #18, !noalias !110
  %230 = getelementptr inbounds %"class.tflite::RuntimeShape", %"class.tflite::RuntimeShape"* %21, i64 0, i32 1, i32 0
  %231 = bitcast i32** %230 to i8**
  store i8* %229, i8** %231, align 8, !alias.scope !110
  %232 = bitcast i8* %229 to i32*
  br label %238

233:                                              ; preds = %218
  %234 = getelementptr inbounds %"class.tflite::RuntimeShape", %"class.tflite::RuntimeShape"* %21, i64 0, i32 1
  %235 = bitcast %union.anon.54* %234 to i32*
  %236 = sext i32 %222 to i64
  %237 = shl nsw i64 %236, 2
  br label %238

238:                                              ; preds = %233, %226
  %239 = phi i64 [ %228, %226 ], [ %237, %233 ]
  %240 = phi i32* [ %232, %226 ], [ %235, %233 ]
  %241 = bitcast i32* %240 to i8*
  %242 = bitcast i32* %223 to i8*
  call void @llvm.memcpy.p0i8.p0i8.i64(i8* align 4 %241, i8* align 4 %242, i64 %239, i1 false) #19
  %243 = getelementptr inbounds %struct.TfLiteTensor, %struct.TfLiteTensor* %7, i64 0, i32 1
  %244 = bitcast %union.TfLitePtrUnion* %243 to i8**
  %245 = load i8*, i8** %244, align 8
  br label %246

246:                                              ; preds = %216, %238
  %247 = phi i8* [ %245, %238 ], [ null, %216 ]
  call void @_ZN6tflite13reference_ops14FullyConnectedERKNS_20FullyConnectedParamsERKNS_12RuntimeShapeEPKhS6_S8_S6_PKiS6_Ph(%"struct.tflite::FullyConnectedParams"* nonnull dereferenceable(40) %17, %"class.tflite::RuntimeShape"* nonnull dereferenceable(32) %18, i8* %146, %"class.tflite::RuntimeShape"* nonnull dereferenceable(32) %19, i8* %180, %"class.tflite::RuntimeShape"* nonnull dereferenceable(32) %20, i32* %213, %"class.tflite::RuntimeShape"* nonnull dereferenceable(32) %21, i8* %247)
  %248 = getelementptr inbounds %"class.tflite::RuntimeShape", %"class.tflite::RuntimeShape"* %21, i64 0, i32 0
  %249 = load i32, i32* %248, align 8
  %250 = icmp sgt i32 %249, 5
  br i1 %250, label %251, label %257

251:                                              ; preds = %246
  %252 = getelementptr inbounds %"class.tflite::RuntimeShape", %"class.tflite::RuntimeShape"* %21, i64 0, i32 1, i32 0
  %253 = load i32*, i32** %252, align 8
  %254 = icmp eq i32* %253, null
  br i1 %254, label %257, label %255

255:                                              ; preds = %251
  %256 = bitcast i32* %253 to i8*
  call void @_ZdaPv(i8* %256) #18
  br label %257

257:                                              ; preds = %246, %251, %255
  call void @llvm.lifetime.end.p0i8(i64 32, i8* nonnull %214) #19
  %258 = getelementptr inbounds %"class.tflite::RuntimeShape", %"class.tflite::RuntimeShape"* %20, i64 0, i32 0
  %259 = load i32, i32* %258, align 8
  %260 = icmp sgt i32 %259, 5
  br i1 %260, label %261, label %267

261:                                              ; preds = %257
  %262 = getelementptr inbounds %"class.tflite::RuntimeShape", %"class.tflite::RuntimeShape"* %20, i64 0, i32 1, i32 0
  %263 = load i32*, i32** %262, align 8
  %264 = icmp eq i32* %263, null
  br i1 %264, label %267, label %265

265:                                              ; preds = %261
  %266 = bitcast i32* %263 to i8*
  call void @_ZdaPv(i8* %266) #18
  br label %267

267:                                              ; preds = %257, %261, %265
  call void @llvm.lifetime.end.p0i8(i64 32, i8* nonnull %181) #19
  %268 = getelementptr inbounds %"class.tflite::RuntimeShape", %"class.tflite::RuntimeShape"* %19, i64 0, i32 0
  %269 = load i32, i32* %268, align 8
  %270 = icmp sgt i32 %269, 5
  br i1 %270, label %271, label %277

271:                                              ; preds = %267
  %272 = getelementptr inbounds %"class.tflite::RuntimeShape", %"class.tflite::RuntimeShape"* %19, i64 0, i32 1, i32 0
  %273 = load i32*, i32** %272, align 8
  %274 = icmp eq i32* %273, null
  br i1 %274, label %277, label %275

275:                                              ; preds = %271
  %276 = bitcast i32* %273 to i8*
  call void @_ZdaPv(i8* %276) #18
  br label %277

277:                                              ; preds = %267, %271, %275
  call void @llvm.lifetime.end.p0i8(i64 32, i8* nonnull %147) #19
  %278 = getelementptr inbounds %"class.tflite::RuntimeShape", %"class.tflite::RuntimeShape"* %18, i64 0, i32 0
  %279 = load i32, i32* %278, align 8
  %280 = icmp sgt i32 %279, 5
  br i1 %280, label %281, label %1154

281:                                              ; preds = %277
  %282 = getelementptr inbounds %"class.tflite::RuntimeShape", %"class.tflite::RuntimeShape"* %18, i64 0, i32 1, i32 0
  %283 = load i32*, i32** %282, align 8
  %284 = icmp eq i32* %283, null
  br i1 %284, label %1154, label %285

285:                                              ; preds = %281
  %286 = bitcast i32* %283 to i8*
  call void @_ZdaPv(i8* %286) #18
  br label %1154

287:                                              ; preds = %83
  %288 = getelementptr inbounds %"struct.tflite::ops::builtin::fully_connected::OpData", %"struct.tflite::ops::builtin::fully_connected::OpData"* %3, i64 0, i32 0
  %289 = getelementptr inbounds %"struct.tflite::ops::builtin::fully_connected::OpData", %"struct.tflite::ops::builtin::fully_connected::OpData"* %3, i64 0, i32 3
  %290 = getelementptr inbounds %"struct.tflite::ops::builtin::fully_connected::OpData", %"struct.tflite::ops::builtin::fully_connected::OpData"* %3, i64 0, i32 2
  %291 = getelementptr inbounds %"struct.tflite::ops::builtin::fully_connected::OpData", %"struct.tflite::ops::builtin::fully_connected::OpData"* %3, i64 0, i32 1
  %292 = tail call %"class.tflite::CpuBackendContext"* @_ZN6tflite17CpuBackendContext14GetFromContextEP13TfLiteContext(%struct.TfLiteContext* %0) #19
  %293 = load i32, i32* %89, align 4
  %294 = load i32, i32* %86, align 4
  %295 = load i32, i32* %84, align 4
  %296 = load i32, i32* %288, align 4
  %297 = load i32, i32* %291, align 4
  %298 = load i32, i32* %290, align 4
  %299 = load i32, i32* %289, align 4
  %300 = bitcast %"class.tflite::RuntimeShape"* %9 to i8*
  call void @llvm.lifetime.start.p0i8(i64 32, i8* nonnull %300) #19
  %301 = icmp eq %struct.TfLiteTensor* %4, null
  br i1 %301, label %302, label %304

302:                                              ; preds = %287
  %303 = getelementptr inbounds %"class.tflite::RuntimeShape", %"class.tflite::RuntimeShape"* %9, i64 0, i32 0
  store i32 0, i32* %303, align 8, !alias.scope !113
  br label %332

304:                                              ; preds = %287
  %305 = getelementptr inbounds %struct.TfLiteTensor, %struct.TfLiteTensor* %4, i64 0, i32 2
  %306 = load %struct.TfLiteIntArray*, %struct.TfLiteIntArray** %305, align 8, !noalias !113
  %307 = getelementptr inbounds %struct.TfLiteIntArray, %struct.TfLiteIntArray* %306, i64 0, i32 0
  %308 = load i32, i32* %307, align 4, !noalias !113
  %309 = getelementptr inbounds %struct.TfLiteIntArray, %struct.TfLiteIntArray* %306, i64 0, i32 1, i64 0
  %310 = getelementptr inbounds %"class.tflite::RuntimeShape", %"class.tflite::RuntimeShape"* %9, i64 0, i32 0
  store i32 %308, i32* %310, align 8, !alias.scope !113
  %311 = icmp sgt i32 %308, 5
  br i1 %311, label %312, label %319

312:                                              ; preds = %304
  %313 = sext i32 %308 to i64
  %314 = shl nsw i64 %313, 2
  %315 = tail call i8* @_Znam(i64 %314) #18, !noalias !113
  %316 = getelementptr inbounds %"class.tflite::RuntimeShape", %"class.tflite::RuntimeShape"* %9, i64 0, i32 1, i32 0
  %317 = bitcast i32** %316 to i8**
  store i8* %315, i8** %317, align 8, !alias.scope !113
  %318 = bitcast i8* %315 to i32*
  br label %324

319:                                              ; preds = %304
  %320 = getelementptr inbounds %"class.tflite::RuntimeShape", %"class.tflite::RuntimeShape"* %9, i64 0, i32 1
  %321 = bitcast %union.anon.54* %320 to i32*
  %322 = sext i32 %308 to i64
  %323 = shl nsw i64 %322, 2
  br label %324

324:                                              ; preds = %319, %312
  %325 = phi i64 [ %314, %312 ], [ %323, %319 ]
  %326 = phi i32* [ %318, %312 ], [ %321, %319 ]
  %327 = bitcast i32* %326 to i8*
  %328 = bitcast i32* %309 to i8*
  call void @llvm.memcpy.p0i8.p0i8.i64(i8* align 4 %327, i8* align 4 %328, i64 %325, i1 false) #19
  %329 = getelementptr inbounds %struct.TfLiteTensor, %struct.TfLiteTensor* %4, i64 0, i32 1
  %330 = bitcast %union.TfLitePtrUnion* %329 to i8**
  %331 = load i8*, i8** %330, align 8
  br label %332

332:                                              ; preds = %324, %302
  %333 = phi i32 [ %308, %324 ], [ 0, %302 ]
  %334 = phi i8* [ %331, %324 ], [ null, %302 ]
  %335 = bitcast %"class.tflite::RuntimeShape"* %10 to i8*
  call void @llvm.lifetime.start.p0i8(i64 32, i8* nonnull %335) #19
  %336 = icmp eq %struct.TfLiteTensor* %5, null
  br i1 %336, label %337, label %339

337:                                              ; preds = %332
  %338 = getelementptr inbounds %"class.tflite::RuntimeShape", %"class.tflite::RuntimeShape"* %10, i64 0, i32 0
  store i32 0, i32* %338, align 8, !alias.scope !116
  br label %367

339:                                              ; preds = %332
  %340 = getelementptr inbounds %struct.TfLiteTensor, %struct.TfLiteTensor* %5, i64 0, i32 2
  %341 = load %struct.TfLiteIntArray*, %struct.TfLiteIntArray** %340, align 8, !noalias !116
  %342 = getelementptr inbounds %struct.TfLiteIntArray, %struct.TfLiteIntArray* %341, i64 0, i32 0
  %343 = load i32, i32* %342, align 4, !noalias !116
  %344 = getelementptr inbounds %struct.TfLiteIntArray, %struct.TfLiteIntArray* %341, i64 0, i32 1, i64 0
  %345 = getelementptr inbounds %"class.tflite::RuntimeShape", %"class.tflite::RuntimeShape"* %10, i64 0, i32 0
  store i32 %343, i32* %345, align 8, !alias.scope !116
  %346 = icmp sgt i32 %343, 5
  br i1 %346, label %347, label %354

347:                                              ; preds = %339
  %348 = sext i32 %343 to i64
  %349 = shl nsw i64 %348, 2
  %350 = tail call i8* @_Znam(i64 %349) #18, !noalias !116
  %351 = getelementptr inbounds %"class.tflite::RuntimeShape", %"class.tflite::RuntimeShape"* %10, i64 0, i32 1, i32 0
  %352 = bitcast i32** %351 to i8**
  store i8* %350, i8** %352, align 8, !alias.scope !116
  %353 = bitcast i8* %350 to i32*
  br label %359

354:                                              ; preds = %339
  %355 = getelementptr inbounds %"class.tflite::RuntimeShape", %"class.tflite::RuntimeShape"* %10, i64 0, i32 1
  %356 = bitcast %union.anon.54* %355 to i32*
  %357 = sext i32 %343 to i64
  %358 = shl nsw i64 %357, 2
  br label %359

359:                                              ; preds = %354, %347
  %360 = phi i64 [ %349, %347 ], [ %358, %354 ]
  %361 = phi i32* [ %353, %347 ], [ %356, %354 ]
  %362 = bitcast i32* %361 to i8*
  %363 = bitcast i32* %344 to i8*
  call void @llvm.memcpy.p0i8.p0i8.i64(i8* align 4 %362, i8* align 4 %363, i64 %360, i1 false) #19
  %364 = getelementptr inbounds %struct.TfLiteTensor, %struct.TfLiteTensor* %5, i64 0, i32 1
  %365 = bitcast %union.TfLitePtrUnion* %364 to i8**
  %366 = load i8*, i8** %365, align 8
  br label %367

367:                                              ; preds = %359, %337
  %368 = phi i32 [ %343, %359 ], [ 0, %337 ]
  %369 = phi i8* [ %366, %359 ], [ null, %337 ]
  %370 = bitcast %"class.tflite::RuntimeShape"* %11 to i8*
  call void @llvm.lifetime.start.p0i8(i64 32, i8* nonnull %370) #19
  %371 = icmp eq %struct.TfLiteTensor* %6, null
  br i1 %371, label %372, label %374

372:                                              ; preds = %367
  %373 = getelementptr inbounds %"class.tflite::RuntimeShape", %"class.tflite::RuntimeShape"* %11, i64 0, i32 0
  store i32 0, i32* %373, align 8, !alias.scope !119
  br label %401

374:                                              ; preds = %367
  %375 = getelementptr inbounds %struct.TfLiteTensor, %struct.TfLiteTensor* %6, i64 0, i32 2
  %376 = load %struct.TfLiteIntArray*, %struct.TfLiteIntArray** %375, align 8, !noalias !119
  %377 = getelementptr inbounds %struct.TfLiteIntArray, %struct.TfLiteIntArray* %376, i64 0, i32 0
  %378 = load i32, i32* %377, align 4, !noalias !119
  %379 = getelementptr inbounds %struct.TfLiteIntArray, %struct.TfLiteIntArray* %376, i64 0, i32 1, i64 0
  %380 = getelementptr inbounds %"class.tflite::RuntimeShape", %"class.tflite::RuntimeShape"* %11, i64 0, i32 0
  store i32 %378, i32* %380, align 8, !alias.scope !119
  %381 = icmp sgt i32 %378, 5
  br i1 %381, label %382, label %389

382:                                              ; preds = %374
  %383 = sext i32 %378 to i64
  %384 = shl nsw i64 %383, 2
  %385 = tail call i8* @_Znam(i64 %384) #18, !noalias !119
  %386 = getelementptr inbounds %"class.tflite::RuntimeShape", %"class.tflite::RuntimeShape"* %11, i64 0, i32 1, i32 0
  %387 = bitcast i32** %386 to i8**
  store i8* %385, i8** %387, align 8, !alias.scope !119
  %388 = bitcast i8* %385 to i32*
  br label %394

389:                                              ; preds = %374
  %390 = getelementptr inbounds %"class.tflite::RuntimeShape", %"class.tflite::RuntimeShape"* %11, i64 0, i32 1
  %391 = bitcast %union.anon.54* %390 to i32*
  %392 = sext i32 %378 to i64
  %393 = shl nsw i64 %392, 2
  br label %394

394:                                              ; preds = %389, %382
  %395 = phi i64 [ %384, %382 ], [ %393, %389 ]
  %396 = phi i32* [ %388, %382 ], [ %391, %389 ]
  %397 = bitcast i32* %396 to i8*
  %398 = bitcast i32* %379 to i8*
  call void @llvm.memcpy.p0i8.p0i8.i64(i8* align 4 %397, i8* align 4 %398, i64 %395, i1 false) #19
  %399 = getelementptr inbounds %struct.TfLiteTensor, %struct.TfLiteTensor* %6, i64 0, i32 1, i32 0
  %400 = load i32*, i32** %399, align 8
  br label %401

401:                                              ; preds = %394, %372
  %402 = phi i32 [ %378, %394 ], [ 0, %372 ]
  %403 = phi i32* [ %400, %394 ], [ null, %372 ]
  %404 = bitcast %"class.tflite::RuntimeShape"* %12 to i8*
  call void @llvm.lifetime.start.p0i8(i64 32, i8* nonnull %404) #19
  %405 = icmp eq %struct.TfLiteTensor* %7, null
  br i1 %405, label %406, label %409

406:                                              ; preds = %401
  %407 = getelementptr inbounds %"class.tflite::RuntimeShape", %"class.tflite::RuntimeShape"* %12, i64 0, i32 0
  store i32 0, i32* %407, align 8, !alias.scope !122
  %408 = getelementptr inbounds %"class.tflite::RuntimeShape", %"class.tflite::RuntimeShape"* %12, i64 0, i32 1
  br label %442

409:                                              ; preds = %401
  %410 = getelementptr inbounds %struct.TfLiteTensor, %struct.TfLiteTensor* %7, i64 0, i32 2
  %411 = load %struct.TfLiteIntArray*, %struct.TfLiteIntArray** %410, align 8, !noalias !122
  %412 = getelementptr inbounds %struct.TfLiteIntArray, %struct.TfLiteIntArray* %411, i64 0, i32 0
  %413 = load i32, i32* %412, align 4, !noalias !122
  %414 = getelementptr inbounds %struct.TfLiteIntArray, %struct.TfLiteIntArray* %411, i64 0, i32 1, i64 0
  %415 = getelementptr inbounds %"class.tflite::RuntimeShape", %"class.tflite::RuntimeShape"* %12, i64 0, i32 0
  store i32 %413, i32* %415, align 8, !alias.scope !122
  %416 = icmp sgt i32 %413, 5
  br i1 %416, label %417, label %424

417:                                              ; preds = %409
  %418 = sext i32 %413 to i64
  %419 = shl nsw i64 %418, 2
  %420 = tail call i8* @_Znam(i64 %419) #18, !noalias !122
  %421 = getelementptr inbounds %"class.tflite::RuntimeShape", %"class.tflite::RuntimeShape"* %12, i64 0, i32 1, i32 0
  %422 = bitcast i32** %421 to i8**
  store i8* %420, i8** %422, align 8, !alias.scope !122
  %423 = bitcast i8* %420 to i32*
  br label %429

424:                                              ; preds = %409
  %425 = getelementptr inbounds %"class.tflite::RuntimeShape", %"class.tflite::RuntimeShape"* %12, i64 0, i32 1
  %426 = bitcast %union.anon.54* %425 to i32*
  %427 = sext i32 %413 to i64
  %428 = shl nsw i64 %427, 2
  br label %429

429:                                              ; preds = %424, %417
  %430 = phi i64 [ %419, %417 ], [ %428, %424 ]
  %431 = phi i32* [ %423, %417 ], [ %426, %424 ]
  %432 = bitcast i32* %431 to i8*
  %433 = bitcast i32* %414 to i8*
  call void @llvm.memcpy.p0i8.p0i8.i64(i8* align 4 %432, i8* align 4 %433, i64 %430, i1 false) #19
  %434 = getelementptr inbounds %struct.TfLiteTensor, %struct.TfLiteTensor* %7, i64 0, i32 1
  %435 = bitcast %union.TfLitePtrUnion* %434 to i8**
  %436 = load i8*, i8** %435, align 8
  %437 = getelementptr inbounds %"class.tflite::RuntimeShape", %"class.tflite::RuntimeShape"* %12, i64 0, i32 1, i32 0
  %438 = load i32*, i32** %437, align 8
  %439 = bitcast i32* %438 to i8*
  %440 = getelementptr inbounds %"class.tflite::RuntimeShape", %"class.tflite::RuntimeShape"* %12, i64 0, i32 1
  %441 = getelementptr inbounds i32, i32* %438, i64 1
  br i1 %416, label %450, label %442

442:                                              ; preds = %429, %406
  %443 = phi %union.anon.54* [ %408, %406 ], [ %440, %429 ]
  %444 = phi i8* [ null, %406 ], [ %436, %429 ]
  %445 = phi i32* [ undef, %406 ], [ %438, %429 ]
  %446 = phi i8* [ undef, %406 ], [ %439, %429 ]
  %447 = bitcast %union.anon.54* %443 to [5 x i32]*
  %448 = bitcast %union.anon.54* %443 to i32*
  %449 = getelementptr inbounds [5 x i32], [5 x i32]* %447, i64 0, i64 1
  br label %450

450:                                              ; preds = %442, %429
  %451 = phi i32* [ %448, %442 ], [ %438, %429 ]
  %452 = phi i8* [ %446, %442 ], [ %439, %429 ]
  %453 = phi i32* [ %445, %442 ], [ %438, %429 ]
  %454 = phi i1 [ true, %442 ], [ false, %429 ]
  %455 = phi i8* [ %444, %442 ], [ %436, %429 ]
  %456 = phi i32* [ %449, %442 ], [ %441, %429 ]
  %457 = load i32, i32* %451, align 4
  %458 = load i32, i32* %456, align 4
  %459 = icmp sgt i32 %368, 5
  %460 = getelementptr inbounds %"class.tflite::RuntimeShape", %"class.tflite::RuntimeShape"* %10, i64 0, i32 1
  %461 = add nsw i32 %368, -1
  %462 = getelementptr inbounds %union.anon.54, %union.anon.54* %460, i64 0, i32 0
  %463 = load i32*, i32** %462, align 8
  %464 = sext i32 %461 to i64
  %465 = getelementptr inbounds i32, i32* %463, i64 %464
  %466 = bitcast %union.anon.54* %460 to [5 x i32]*
  %467 = getelementptr inbounds [5 x i32], [5 x i32]* %466, i64 0, i64 %464
  %468 = select i1 %459, i32* %465, i32* %467
  %469 = load i32, i32* %468, align 4
  %470 = icmp sgt i32 %457, 0
  br i1 %470, label %471, label %642

471:                                              ; preds = %450
  %472 = icmp sgt i32 %458, 0
  %473 = icmp sgt i32 %469, 0
  %474 = icmp eq i32* %403, null
  %475 = icmp sgt i32 %297, 0
  %476 = sub nsw i32 0, %297
  %477 = select i1 %475, i32 0, i32 %476
  %478 = shl i32 1, %297
  %479 = select i1 %475, i32 %478, i32 1
  %480 = sext i32 %296 to i64
  %481 = icmp eq i32 %296, -2147483648
  %482 = zext i32 %477 to i64
  %483 = shl nsw i64 -1, %482
  %484 = trunc i64 %483 to i32
  %485 = xor i32 %484, -1
  %486 = ashr i32 %485, 1
  %487 = sext i32 %469 to i64
  %488 = sext i32 %458 to i64
  %489 = zext i32 %457 to i64
  %490 = zext i32 %458 to i64
  %491 = zext i32 %469 to i64
  %492 = and i64 %491, 4294967292
  %493 = add nsw i64 %492, -4
  %494 = lshr exact i64 %493, 2
  %495 = add nuw nsw i64 %494, 1
  %496 = icmp ult i32 %469, 4
  %497 = and i64 %491, 4294967292
  %498 = insertelement <4 x i32> undef, i32 %294, i32 0
  %499 = shufflevector <4 x i32> %498, <4 x i32> undef, <4 x i32> zeroinitializer
  %500 = insertelement <4 x i32> undef, i32 %293, i32 0
  %501 = shufflevector <4 x i32> %500, <4 x i32> undef, <4 x i32> zeroinitializer
  %502 = and i64 %495, 1
  %503 = icmp eq i64 %493, 0
  %504 = sub nuw nsw i64 %495, %502
  %505 = icmp eq i64 %502, 0
  %506 = icmp eq i64 %497, %491
  br label %507

507:                                              ; preds = %582, %471
  %508 = phi i64 [ 0, %471 ], [ %583, %582 ]
  br i1 %472, label %509, label %582

509:                                              ; preds = %507
  %510 = mul nsw i64 %508, %487
  %511 = mul nsw i64 %508, %488
  br label %512

512:                                              ; preds = %623, %509
  %513 = phi i64 [ 0, %509 ], [ %640, %623 ]
  br i1 %473, label %514, label %585

514:                                              ; preds = %512
  %515 = mul nsw i64 %513, %487
  br i1 %496, label %516, label %519

516:                                              ; preds = %575, %514
  %517 = phi i64 [ 0, %514 ], [ %497, %575 ]
  %518 = phi i32 [ 0, %514 ], [ %581, %575 ]
  br label %587

519:                                              ; preds = %514
  br i1 %503, label %556, label %520

520:                                              ; preds = %519, %520
  %521 = phi i64 [ %553, %520 ], [ 0, %519 ]
  %522 = phi <4 x i32> [ %552, %520 ], [ zeroinitializer, %519 ]
  %523 = phi i64 [ %554, %520 ], [ %504, %519 ]
  %524 = add nsw i64 %521, %510
  %525 = getelementptr inbounds i8, i8* %334, i64 %524
  %526 = bitcast i8* %525 to <4 x i8>*
  %527 = load <4 x i8>, <4 x i8>* %526, align 1
  %528 = sext <4 x i8> %527 to <4 x i32>
  %529 = add nsw i64 %521, %515
  %530 = getelementptr inbounds i8, i8* %369, i64 %529
  %531 = bitcast i8* %530 to <4 x i8>*
  %532 = load <4 x i8>, <4 x i8>* %531, align 1
  %533 = sext <4 x i8> %532 to <4 x i32>
  %534 = sub <4 x i32> %533, %499
  %535 = sub <4 x i32> %528, %501
  %536 = mul nsw <4 x i32> %534, %535
  %537 = add nsw <4 x i32> %536, %522
  %538 = or i64 %521, 4
  %539 = add nsw i64 %538, %510
  %540 = getelementptr inbounds i8, i8* %334, i64 %539
  %541 = bitcast i8* %540 to <4 x i8>*
  %542 = load <4 x i8>, <4 x i8>* %541, align 1
  %543 = sext <4 x i8> %542 to <4 x i32>
  %544 = add nsw i64 %538, %515
  %545 = getelementptr inbounds i8, i8* %369, i64 %544
  %546 = bitcast i8* %545 to <4 x i8>*
  %547 = load <4 x i8>, <4 x i8>* %546, align 1
  %548 = sext <4 x i8> %547 to <4 x i32>
  %549 = sub <4 x i32> %548, %499
  %550 = sub <4 x i32> %543, %501
  %551 = mul nsw <4 x i32> %549, %550
  %552 = add nsw <4 x i32> %551, %537
  %553 = add i64 %521, 8
  %554 = add i64 %523, -2
  %555 = icmp eq i64 %554, 0
  br i1 %555, label %556, label %520, !llvm.loop !125

556:                                              ; preds = %520, %519
  %557 = phi <4 x i32> [ undef, %519 ], [ %552, %520 ]
  %558 = phi i64 [ 0, %519 ], [ %553, %520 ]
  %559 = phi <4 x i32> [ zeroinitializer, %519 ], [ %552, %520 ]
  br i1 %505, label %575, label %560

560:                                              ; preds = %556
  %561 = add nsw i64 %558, %515
  %562 = getelementptr inbounds i8, i8* %369, i64 %561
  %563 = bitcast i8* %562 to <4 x i8>*
  %564 = load <4 x i8>, <4 x i8>* %563, align 1
  %565 = sext <4 x i8> %564 to <4 x i32>
  %566 = sub <4 x i32> %565, %499
  %567 = add nsw i64 %558, %510
  %568 = getelementptr inbounds i8, i8* %334, i64 %567
  %569 = bitcast i8* %568 to <4 x i8>*
  %570 = load <4 x i8>, <4 x i8>* %569, align 1
  %571 = sext <4 x i8> %570 to <4 x i32>
  %572 = sub <4 x i32> %571, %501
  %573 = mul nsw <4 x i32> %566, %572
  %574 = add nsw <4 x i32> %573, %559
  br label %575

575:                                              ; preds = %556, %560
  %576 = phi <4 x i32> [ %557, %556 ], [ %574, %560 ]
  %577 = shufflevector <4 x i32> %576, <4 x i32> undef, <4 x i32> <i32 2, i32 3, i32 undef, i32 undef>
  %578 = add <4 x i32> %576, %577
  %579 = shufflevector <4 x i32> %578, <4 x i32> undef, <4 x i32> <i32 1, i32 undef, i32 undef, i32 undef>
  %580 = add <4 x i32> %578, %579
  %581 = extractelement <4 x i32> %580, i32 0
  br i1 %506, label %585, label %516

582:                                              ; preds = %623, %507
  %583 = add nuw nsw i64 %508, 1
  %584 = icmp eq i64 %583, %489
  br i1 %584, label %642, label %507

585:                                              ; preds = %587, %575, %512
  %586 = phi i32 [ 0, %512 ], [ %581, %575 ], [ %601, %587 ]
  br i1 %474, label %608, label %604

587:                                              ; preds = %516, %587
  %588 = phi i64 [ %602, %587 ], [ %517, %516 ]
  %589 = phi i32 [ %601, %587 ], [ %518, %516 ]
  %590 = add nsw i64 %588, %510
  %591 = getelementptr inbounds i8, i8* %334, i64 %590
  %592 = load i8, i8* %591, align 1
  %593 = sext i8 %592 to i32
  %594 = add nsw i64 %588, %515
  %595 = getelementptr inbounds i8, i8* %369, i64 %594
  %596 = load i8, i8* %595, align 1
  %597 = sext i8 %596 to i32
  %598 = sub i32 %597, %294
  %599 = sub i32 %593, %293
  %600 = mul nsw i32 %598, %599
  %601 = add nsw i32 %600, %589
  %602 = add nuw nsw i64 %588, 1
  %603 = icmp eq i64 %602, %491
  br i1 %603, label %585, label %587, !llvm.loop !126

604:                                              ; preds = %585
  %605 = getelementptr inbounds i32, i32* %403, i64 %513
  %606 = load i32, i32* %605, align 4
  %607 = add nsw i32 %606, %586
  br label %608

608:                                              ; preds = %604, %585
  %609 = phi i32 [ %586, %585 ], [ %607, %604 ]
  %610 = mul nsw i32 %609, %479
  %611 = icmp eq i32 %610, %296
  br i1 %611, label %614, label %612

612:                                              ; preds = %608
  %613 = sext i32 %610 to i64
  br label %615

614:                                              ; preds = %608
  br i1 %481, label %623, label %615

615:                                              ; preds = %614, %612
  %616 = phi i64 [ %613, %612 ], [ %480, %614 ]
  %617 = mul nsw i64 %616, %480
  %618 = icmp sgt i64 %617, -1
  %619 = select i1 %618, i64 1073741824, i64 -1073741823
  %620 = add nsw i64 %619, %617
  %621 = sdiv i64 %620, 2147483648
  %622 = trunc i64 %621 to i32
  br label %623

623:                                              ; preds = %615, %614
  %624 = phi i32 [ %622, %615 ], [ 2147483647, %614 ]
  %625 = and i32 %624, %485
  %626 = lshr i32 %624, 31
  %627 = add nsw i32 %626, %486
  %628 = ashr i32 %624, %477
  %629 = icmp sgt i32 %625, %627
  %630 = zext i1 %629 to i32
  %631 = add i32 %628, %295
  %632 = add i32 %631, %630
  %633 = icmp slt i32 %632, %298
  %634 = select i1 %633, i32 %298, i32 %632
  %635 = icmp slt i32 %299, %634
  %636 = select i1 %635, i32 %299, i32 %634
  %637 = trunc i32 %636 to i8
  %638 = add nsw i64 %513, %511
  %639 = getelementptr inbounds i8, i8* %455, i64 %638
  store i8 %637, i8* %639, align 1
  %640 = add nuw nsw i64 %513, 1
  %641 = icmp eq i64 %640, %490
  br i1 %641, label %582, label %512

642:                                              ; preds = %582, %450
  %643 = icmp eq i32* %453, null
  %644 = or i1 %454, %643
  br i1 %644, label %646, label %645

645:                                              ; preds = %642
  tail call void @_ZdaPv(i8* %452) #18
  br label %646

646:                                              ; preds = %645, %642
  call void @llvm.lifetime.end.p0i8(i64 32, i8* nonnull %404) #19
  %647 = icmp sgt i32 %402, 5
  br i1 %647, label %648, label %654

648:                                              ; preds = %646
  %649 = getelementptr inbounds %"class.tflite::RuntimeShape", %"class.tflite::RuntimeShape"* %11, i64 0, i32 1, i32 0
  %650 = load i32*, i32** %649, align 8
  %651 = icmp eq i32* %650, null
  br i1 %651, label %654, label %652

652:                                              ; preds = %648
  %653 = bitcast i32* %650 to i8*
  tail call void @_ZdaPv(i8* %653) #18
  br label %654

654:                                              ; preds = %652, %648, %646
  call void @llvm.lifetime.end.p0i8(i64 32, i8* nonnull %370) #19
  %655 = xor i1 %459, true
  %656 = icmp eq i32* %463, null
  %657 = or i1 %656, %655
  br i1 %657, label %660, label %658

658:                                              ; preds = %654
  %659 = bitcast i32* %463 to i8*
  tail call void @_ZdaPv(i8* %659) #18
  br label %660

660:                                              ; preds = %658, %654
  call void @llvm.lifetime.end.p0i8(i64 32, i8* nonnull %335) #19
  %661 = icmp sgt i32 %333, 5
  br i1 %661, label %662, label %1154

662:                                              ; preds = %660
  %663 = getelementptr inbounds %"class.tflite::RuntimeShape", %"class.tflite::RuntimeShape"* %9, i64 0, i32 1, i32 0
  %664 = load i32*, i32** %663, align 8
  %665 = icmp eq i32* %664, null
  br i1 %665, label %1154, label %666

666:                                              ; preds = %662
  %667 = bitcast i32* %664 to i8*
  tail call void @_ZdaPv(i8* %667) #18
  br label %1154

668:                                              ; preds = %83
  %669 = icmp eq i32 %27, 7
  br i1 %669, label %670, label %976

670:                                              ; preds = %668
  %671 = bitcast %"class.tflite::RuntimeShape"* %13 to i8*
  call void @llvm.lifetime.start.p0i8(i64 32, i8* nonnull %671) #19
  %672 = icmp eq %struct.TfLiteTensor* %4, null
  br i1 %672, label %673, label %675

673:                                              ; preds = %670
  %674 = getelementptr inbounds %"class.tflite::RuntimeShape", %"class.tflite::RuntimeShape"* %13, i64 0, i32 0
  store i32 0, i32* %674, align 8, !alias.scope !127
  br label %703

675:                                              ; preds = %670
  %676 = getelementptr inbounds %struct.TfLiteTensor, %struct.TfLiteTensor* %4, i64 0, i32 2
  %677 = load %struct.TfLiteIntArray*, %struct.TfLiteIntArray** %676, align 8, !noalias !127
  %678 = getelementptr inbounds %struct.TfLiteIntArray, %struct.TfLiteIntArray* %677, i64 0, i32 0
  %679 = load i32, i32* %678, align 4, !noalias !127
  %680 = getelementptr inbounds %struct.TfLiteIntArray, %struct.TfLiteIntArray* %677, i64 0, i32 1, i64 0
  %681 = getelementptr inbounds %"class.tflite::RuntimeShape", %"class.tflite::RuntimeShape"* %13, i64 0, i32 0
  store i32 %679, i32* %681, align 8, !alias.scope !127
  %682 = icmp sgt i32 %679, 5
  br i1 %682, label %683, label %690

683:                                              ; preds = %675
  %684 = sext i32 %679 to i64
  %685 = shl nsw i64 %684, 2
  %686 = tail call i8* @_Znam(i64 %685) #18, !noalias !127
  %687 = getelementptr inbounds %"class.tflite::RuntimeShape", %"class.tflite::RuntimeShape"* %13, i64 0, i32 1, i32 0
  %688 = bitcast i32** %687 to i8**
  store i8* %686, i8** %688, align 8, !alias.scope !127
  %689 = bitcast i8* %686 to i32*
  br label %695

690:                                              ; preds = %675
  %691 = getelementptr inbounds %"class.tflite::RuntimeShape", %"class.tflite::RuntimeShape"* %13, i64 0, i32 1
  %692 = bitcast %union.anon.54* %691 to i32*
  %693 = sext i32 %679 to i64
  %694 = shl nsw i64 %693, 2
  br label %695

695:                                              ; preds = %690, %683
  %696 = phi i64 [ %685, %683 ], [ %694, %690 ]
  %697 = phi i32* [ %689, %683 ], [ %692, %690 ]
  %698 = bitcast i32* %697 to i8*
  %699 = bitcast i32* %680 to i8*
  call void @llvm.memcpy.p0i8.p0i8.i64(i8* align 4 %698, i8* align 4 %699, i64 %696, i1 false) #19
  %700 = getelementptr inbounds %struct.TfLiteTensor, %struct.TfLiteTensor* %4, i64 0, i32 1
  %701 = bitcast %union.TfLitePtrUnion* %700 to i16**
  %702 = load i16*, i16** %701, align 8
  br label %703

703:                                              ; preds = %695, %673
  %704 = phi i32 [ %679, %695 ], [ 0, %673 ]
  %705 = phi i16* [ %702, %695 ], [ null, %673 ]
  %706 = bitcast %"class.tflite::RuntimeShape"* %14 to i8*
  call void @llvm.lifetime.start.p0i8(i64 32, i8* nonnull %706) #19
  %707 = icmp eq %struct.TfLiteTensor* %5, null
  br i1 %707, label %708, label %710

708:                                              ; preds = %703
  %709 = getelementptr inbounds %"class.tflite::RuntimeShape", %"class.tflite::RuntimeShape"* %14, i64 0, i32 0
  store i32 0, i32* %709, align 8, !alias.scope !130
  br label %738

710:                                              ; preds = %703
  %711 = getelementptr inbounds %struct.TfLiteTensor, %struct.TfLiteTensor* %5, i64 0, i32 2
  %712 = load %struct.TfLiteIntArray*, %struct.TfLiteIntArray** %711, align 8, !noalias !130
  %713 = getelementptr inbounds %struct.TfLiteIntArray, %struct.TfLiteIntArray* %712, i64 0, i32 0
  %714 = load i32, i32* %713, align 4, !noalias !130
  %715 = getelementptr inbounds %struct.TfLiteIntArray, %struct.TfLiteIntArray* %712, i64 0, i32 1, i64 0
  %716 = getelementptr inbounds %"class.tflite::RuntimeShape", %"class.tflite::RuntimeShape"* %14, i64 0, i32 0
  store i32 %714, i32* %716, align 8, !alias.scope !130
  %717 = icmp sgt i32 %714, 5
  br i1 %717, label %718, label %725

718:                                              ; preds = %710
  %719 = sext i32 %714 to i64
  %720 = shl nsw i64 %719, 2
  %721 = tail call i8* @_Znam(i64 %720) #18, !noalias !130
  %722 = getelementptr inbounds %"class.tflite::RuntimeShape", %"class.tflite::RuntimeShape"* %14, i64 0, i32 1, i32 0
  %723 = bitcast i32** %722 to i8**
  store i8* %721, i8** %723, align 8, !alias.scope !130
  %724 = bitcast i8* %721 to i32*
  br label %730

725:                                              ; preds = %710
  %726 = getelementptr inbounds %"class.tflite::RuntimeShape", %"class.tflite::RuntimeShape"* %14, i64 0, i32 1
  %727 = bitcast %union.anon.54* %726 to i32*
  %728 = sext i32 %714 to i64
  %729 = shl nsw i64 %728, 2
  br label %730

730:                                              ; preds = %725, %718
  %731 = phi i64 [ %720, %718 ], [ %729, %725 ]
  %732 = phi i32* [ %724, %718 ], [ %727, %725 ]
  %733 = bitcast i32* %732 to i8*
  %734 = bitcast i32* %715 to i8*
  call void @llvm.memcpy.p0i8.p0i8.i64(i8* align 4 %733, i8* align 4 %734, i64 %731, i1 false) #19
  %735 = getelementptr inbounds %struct.TfLiteTensor, %struct.TfLiteTensor* %5, i64 0, i32 1
  %736 = bitcast %union.TfLitePtrUnion* %735 to i8**
  %737 = load i8*, i8** %736, align 8
  br label %738

738:                                              ; preds = %730, %708
  %739 = phi i32 [ %714, %730 ], [ 0, %708 ]
  %740 = phi i8* [ %737, %730 ], [ null, %708 ]
  %741 = bitcast %"class.tflite::RuntimeShape"* %15 to i8*
  call void @llvm.lifetime.start.p0i8(i64 32, i8* nonnull %741) #19
  %742 = icmp eq %struct.TfLiteTensor* %6, null
  br i1 %742, label %743, label %745

743:                                              ; preds = %738
  %744 = getelementptr inbounds %"class.tflite::RuntimeShape", %"class.tflite::RuntimeShape"* %15, i64 0, i32 0
  store i32 0, i32* %744, align 8, !alias.scope !133
  br label %773

745:                                              ; preds = %738
  %746 = getelementptr inbounds %struct.TfLiteTensor, %struct.TfLiteTensor* %6, i64 0, i32 2
  %747 = load %struct.TfLiteIntArray*, %struct.TfLiteIntArray** %746, align 8, !noalias !133
  %748 = getelementptr inbounds %struct.TfLiteIntArray, %struct.TfLiteIntArray* %747, i64 0, i32 0
  %749 = load i32, i32* %748, align 4, !noalias !133
  %750 = getelementptr inbounds %struct.TfLiteIntArray, %struct.TfLiteIntArray* %747, i64 0, i32 1, i64 0
  %751 = getelementptr inbounds %"class.tflite::RuntimeShape", %"class.tflite::RuntimeShape"* %15, i64 0, i32 0
  store i32 %749, i32* %751, align 8, !alias.scope !133
  %752 = icmp sgt i32 %749, 5
  br i1 %752, label %753, label %760

753:                                              ; preds = %745
  %754 = sext i32 %749 to i64
  %755 = shl nsw i64 %754, 2
  %756 = tail call i8* @_Znam(i64 %755) #18, !noalias !133
  %757 = getelementptr inbounds %"class.tflite::RuntimeShape", %"class.tflite::RuntimeShape"* %15, i64 0, i32 1, i32 0
  %758 = bitcast i32** %757 to i8**
  store i8* %756, i8** %758, align 8, !alias.scope !133
  %759 = bitcast i8* %756 to i32*
  br label %765

760:                                              ; preds = %745
  %761 = getelementptr inbounds %"class.tflite::RuntimeShape", %"class.tflite::RuntimeShape"* %15, i64 0, i32 1
  %762 = bitcast %union.anon.54* %761 to i32*
  %763 = sext i32 %749 to i64
  %764 = shl nsw i64 %763, 2
  br label %765

765:                                              ; preds = %760, %753
  %766 = phi i64 [ %755, %753 ], [ %764, %760 ]
  %767 = phi i32* [ %759, %753 ], [ %762, %760 ]
  %768 = bitcast i32* %767 to i8*
  %769 = bitcast i32* %750 to i8*
  call void @llvm.memcpy.p0i8.p0i8.i64(i8* align 4 %768, i8* align 4 %769, i64 %766, i1 false) #19
  %770 = getelementptr inbounds %struct.TfLiteTensor, %struct.TfLiteTensor* %6, i64 0, i32 1
  %771 = bitcast %union.TfLitePtrUnion* %770 to i64**
  %772 = load i64*, i64** %771, align 8
  br label %773

773:                                              ; preds = %765, %743
  %774 = phi i32 [ %749, %765 ], [ 0, %743 ]
  %775 = phi i64* [ %772, %765 ], [ null, %743 ]
  %776 = bitcast %"class.tflite::RuntimeShape"* %16 to i8*
  call void @llvm.lifetime.start.p0i8(i64 32, i8* nonnull %776) #19
  %777 = icmp eq %struct.TfLiteTensor* %7, null
  br i1 %777, label %778, label %781

778:                                              ; preds = %773
  %779 = getelementptr inbounds %"class.tflite::RuntimeShape", %"class.tflite::RuntimeShape"* %16, i64 0, i32 0
  store i32 0, i32* %779, align 8, !alias.scope !136
  %780 = getelementptr inbounds %"class.tflite::RuntimeShape", %"class.tflite::RuntimeShape"* %16, i64 0, i32 1
  br label %814

781:                                              ; preds = %773
  %782 = getelementptr inbounds %struct.TfLiteTensor, %struct.TfLiteTensor* %7, i64 0, i32 2
  %783 = load %struct.TfLiteIntArray*, %struct.TfLiteIntArray** %782, align 8, !noalias !136
  %784 = getelementptr inbounds %struct.TfLiteIntArray, %struct.TfLiteIntArray* %783, i64 0, i32 0
  %785 = load i32, i32* %784, align 4, !noalias !136
  %786 = getelementptr inbounds %struct.TfLiteIntArray, %struct.TfLiteIntArray* %783, i64 0, i32 1, i64 0
  %787 = getelementptr inbounds %"class.tflite::RuntimeShape", %"class.tflite::RuntimeShape"* %16, i64 0, i32 0
  store i32 %785, i32* %787, align 8, !alias.scope !136
  %788 = icmp sgt i32 %785, 5
  br i1 %788, label %789, label %796

789:                                              ; preds = %781
  %790 = sext i32 %785 to i64
  %791 = shl nsw i64 %790, 2
  %792 = tail call i8* @_Znam(i64 %791) #18, !noalias !136
  %793 = getelementptr inbounds %"class.tflite::RuntimeShape", %"class.tflite::RuntimeShape"* %16, i64 0, i32 1, i32 0
  %794 = bitcast i32** %793 to i8**
  store i8* %792, i8** %794, align 8, !alias.scope !136
  %795 = bitcast i8* %792 to i32*
  br label %801

796:                                              ; preds = %781
  %797 = getelementptr inbounds %"class.tflite::RuntimeShape", %"class.tflite::RuntimeShape"* %16, i64 0, i32 1
  %798 = bitcast %union.anon.54* %797 to i32*
  %799 = sext i32 %785 to i64
  %800 = shl nsw i64 %799, 2
  br label %801

801:                                              ; preds = %796, %789
  %802 = phi i64 [ %791, %789 ], [ %800, %796 ]
  %803 = phi i32* [ %795, %789 ], [ %798, %796 ]
  %804 = bitcast i32* %803 to i8*
  %805 = bitcast i32* %786 to i8*
  call void @llvm.memcpy.p0i8.p0i8.i64(i8* align 4 %804, i8* align 4 %805, i64 %802, i1 false) #19
  %806 = getelementptr inbounds %struct.TfLiteTensor, %struct.TfLiteTensor* %7, i64 0, i32 1
  %807 = bitcast %union.TfLitePtrUnion* %806 to i16**
  %808 = load i16*, i16** %807, align 8
  %809 = getelementptr inbounds %"class.tflite::RuntimeShape", %"class.tflite::RuntimeShape"* %16, i64 0, i32 1, i32 0
  %810 = load i32*, i32** %809, align 8
  %811 = bitcast i32* %810 to i8*
  %812 = getelementptr inbounds %"class.tflite::RuntimeShape", %"class.tflite::RuntimeShape"* %16, i64 0, i32 1
  %813 = getelementptr inbounds i32, i32* %810, i64 1
  br i1 %788, label %822, label %814

814:                                              ; preds = %801, %778
  %815 = phi %union.anon.54* [ %780, %778 ], [ %812, %801 ]
  %816 = phi i16* [ null, %778 ], [ %808, %801 ]
  %817 = phi i32* [ undef, %778 ], [ %810, %801 ]
  %818 = phi i8* [ undef, %778 ], [ %811, %801 ]
  %819 = bitcast %union.anon.54* %815 to [5 x i32]*
  %820 = bitcast %union.anon.54* %815 to i32*
  %821 = getelementptr inbounds [5 x i32], [5 x i32]* %819, i64 0, i64 1
  br label %822

822:                                              ; preds = %814, %801
  %823 = phi i32* [ %820, %814 ], [ %810, %801 ]
  %824 = phi i8* [ %818, %814 ], [ %811, %801 ]
  %825 = phi i32* [ %817, %814 ], [ %810, %801 ]
  %826 = phi i1 [ true, %814 ], [ false, %801 ]
  %827 = phi i16* [ %816, %814 ], [ %808, %801 ]
  %828 = phi i32* [ %821, %814 ], [ %813, %801 ]
  %829 = load i32, i32* %823, align 4
  %830 = load i32, i32* %828, align 4
  %831 = icmp sgt i32 %739, 5
  %832 = getelementptr inbounds %"class.tflite::RuntimeShape", %"class.tflite::RuntimeShape"* %14, i64 0, i32 1
  %833 = add nsw i32 %739, -1
  %834 = getelementptr inbounds %union.anon.54, %union.anon.54* %832, i64 0, i32 0
  %835 = load i32*, i32** %834, align 8
  %836 = sext i32 %833 to i64
  %837 = getelementptr inbounds i32, i32* %835, i64 %836
  %838 = bitcast %union.anon.54* %832 to [5 x i32]*
  %839 = getelementptr inbounds [5 x i32], [5 x i32]* %838, i64 0, i64 %836
  %840 = select i1 %831, i32* %837, i32* %839
  %841 = load i32, i32* %840, align 4
  %842 = icmp sgt i32 %829, 0
  br i1 %842, label %843, label %950

843:                                              ; preds = %822
  %844 = icmp sgt i32 %830, 0
  %845 = icmp sgt i32 %841, 0
  %846 = icmp eq i64* %775, null
  %847 = extractelement <4 x i32> %98, i32 0
  %848 = add nsw i32 %847, 32768
  %849 = ashr i32 %848, 16
  %850 = extractelement <4 x i32> %98, i32 1
  %851 = sub nsw i32 15, %850
  %852 = sext i32 %849 to i64
  %853 = sub i32 14, %850
  %854 = zext i32 %853 to i64
  %855 = shl i64 1, %854
  %856 = zext i32 %851 to i64
  %857 = sext i32 %841 to i64
  %858 = sext i32 %830 to i64
  %859 = zext i32 %829 to i64
  %860 = zext i32 %830 to i64
  %861 = zext i32 %841 to i64
  %862 = and i64 %861, 1
  %863 = icmp eq i32 %841, 1
  %864 = sub nsw i64 %861, %862
  %865 = icmp eq i64 %862, 0
  %866 = extractelement <4 x i32> %98, i32 2
  %867 = extractelement <4 x i32> %98, i32 3
  br label %868

868:                                              ; preds = %877, %843
  %869 = phi i64 [ 0, %843 ], [ %878, %877 ]
  br i1 %844, label %870, label %877

870:                                              ; preds = %868
  %871 = mul nsw i64 %869, %857
  %872 = mul nsw i64 %869, %858
  br label %873

873:                                              ; preds = %935, %870
  %874 = phi i64 [ 0, %870 ], [ %948, %935 ]
  br i1 %845, label %875, label %897

875:                                              ; preds = %873
  %876 = mul nsw i64 %874, %857
  br i1 %863, label %880, label %899

877:                                              ; preds = %935, %868
  %878 = add nuw nsw i64 %869, 1
  %879 = icmp eq i64 %878, %859
  br i1 %879, label %950, label %868

880:                                              ; preds = %899, %875
  %881 = phi i64 [ undef, %875 ], [ %927, %899 ]
  %882 = phi i64 [ 0, %875 ], [ %928, %899 ]
  %883 = phi i64 [ 0, %875 ], [ %927, %899 ]
  br i1 %865, label %897, label %884

884:                                              ; preds = %880
  %885 = add nsw i64 %882, %876
  %886 = getelementptr inbounds i8, i8* %740, i64 %885
  %887 = load i8, i8* %886, align 1
  %888 = sext i8 %887 to i32
  %889 = sub i32 %888, %87
  %890 = add nsw i64 %882, %871
  %891 = getelementptr inbounds i16, i16* %705, i64 %890
  %892 = load i16, i16* %891, align 2
  %893 = sext i16 %892 to i32
  %894 = mul nsw i32 %889, %893
  %895 = sext i32 %894 to i64
  %896 = add nsw i64 %883, %895
  br label %897

897:                                              ; preds = %884, %880, %873
  %898 = phi i64 [ 0, %873 ], [ %881, %880 ], [ %896, %884 ]
  br i1 %846, label %935, label %931

899:                                              ; preds = %875, %899
  %900 = phi i64 [ %928, %899 ], [ 0, %875 ]
  %901 = phi i64 [ %927, %899 ], [ 0, %875 ]
  %902 = phi i64 [ %929, %899 ], [ %864, %875 ]
  %903 = add nsw i64 %900, %871
  %904 = getelementptr inbounds i16, i16* %705, i64 %903
  %905 = load i16, i16* %904, align 2
  %906 = sext i16 %905 to i32
  %907 = add nsw i64 %900, %876
  %908 = getelementptr inbounds i8, i8* %740, i64 %907
  %909 = load i8, i8* %908, align 1
  %910 = sext i8 %909 to i32
  %911 = sub i32 %910, %87
  %912 = mul nsw i32 %911, %906
  %913 = sext i32 %912 to i64
  %914 = add nsw i64 %901, %913
  %915 = or i64 %900, 1
  %916 = add nsw i64 %915, %871
  %917 = getelementptr inbounds i16, i16* %705, i64 %916
  %918 = load i16, i16* %917, align 2
  %919 = sext i16 %918 to i32
  %920 = add nsw i64 %915, %876
  %921 = getelementptr inbounds i8, i8* %740, i64 %920
  %922 = load i8, i8* %921, align 1
  %923 = sext i8 %922 to i32
  %924 = sub i32 %923, %87
  %925 = mul nsw i32 %924, %919
  %926 = sext i32 %925 to i64
  %927 = add nsw i64 %914, %926
  %928 = add nuw nsw i64 %900, 2
  %929 = add i64 %902, -2
  %930 = icmp eq i64 %929, 0
  br i1 %930, label %880, label %899

931:                                              ; preds = %897
  %932 = getelementptr inbounds i64, i64* %775, i64 %874
  %933 = load i64, i64* %932, align 8
  %934 = add nsw i64 %933, %898
  br label %935

935:                                              ; preds = %931, %897
  %936 = phi i64 [ %934, %931 ], [ %898, %897 ]
  %937 = mul nsw i64 %936, %852
  %938 = add nsw i64 %937, %855
  %939 = ashr i64 %938, %856
  %940 = trunc i64 %939 to i32
  %941 = icmp sgt i32 %866, %940
  %942 = select i1 %941, i32 %866, i32 %940
  %943 = icmp slt i32 %867, %942
  %944 = select i1 %943, i32 %867, i32 %942
  %945 = trunc i32 %944 to i16
  %946 = add nsw i64 %874, %872
  %947 = getelementptr inbounds i16, i16* %827, i64 %946
  store i16 %945, i16* %947, align 2
  %948 = add nuw nsw i64 %874, 1
  %949 = icmp eq i64 %948, %860
  br i1 %949, label %877, label %873

950:                                              ; preds = %877, %822
  %951 = icmp eq i32* %825, null
  %952 = or i1 %826, %951
  br i1 %952, label %954, label %953

953:                                              ; preds = %950
  tail call void @_ZdaPv(i8* %824) #18
  br label %954

954:                                              ; preds = %953, %950
  call void @llvm.lifetime.end.p0i8(i64 32, i8* nonnull %776) #19
  %955 = icmp sgt i32 %774, 5
  br i1 %955, label %956, label %962

956:                                              ; preds = %954
  %957 = getelementptr inbounds %"class.tflite::RuntimeShape", %"class.tflite::RuntimeShape"* %15, i64 0, i32 1, i32 0
  %958 = load i32*, i32** %957, align 8
