; ModuleID = '../../ppapi/cpp/fullscreen.cc'
source_filename = "../../ppapi/cpp/fullscreen.cc"
target datalayout = "e-m:e-i64:64-f80:128-n8:16:32:64-S128"
target triple = "x86_64-unknown-linux-gnu"

%struct.PPB_Fullscreen_1_0 = type { i32 (i32)*, i32 (i32, i32)*, i32 (i32, %struct.PP_Size*)* }
%struct.PP_Size = type { i32, i32 }
%"class.pp::Fullscreen" = type <{ i32 (...)**, %"class.pp::InstanceHandle", [4 x i8] }>
%"class.pp::InstanceHandle" = type { i32 }
%"class.pp::Module" = type { i32 (...)**, %"class.std::__1::map", i32, i8* (i8*)*, %"class.pp::Core"*, %"class.std::__1::map.4" }
%"class.std::__1::map" = type { %"class.std::__1::__tree" }
%"class.std::__1::__tree" = type { %"class.std::__1::__tree_end_node"*, %"class.std::__1::__compressed_pair", %"class.std::__1::__compressed_pair.1" }
%"class.std::__1::__tree_end_node" = type { %"class.std::__1::__tree_node_base"* }
%"class.std::__1::__tree_node_base" = type opaque
%"class.std::__1::__compressed_pair" = type { %"struct.std::__1::__compressed_pair_elem" }
%"struct.std::__1::__compressed_pair_elem" = type { %"class.std::__1::__tree_end_node" }
%"class.std::__1::__compressed_pair.1" = type { %"struct.std::__1::__compressed_pair_elem.2" }
%"struct.std::__1::__compressed_pair_elem.2" = type { i64 }
%"class.pp::Core" = type { %struct.PPB_Core_1_0* }
%struct.PPB_Core_1_0 = type { void (i32)*, void (i32)*, double ()*, double ()*, void (i32, %struct.PP_CompletionCallback*, i32)*, i32 ()* }
%struct.PP_CompletionCallback = type { void (i8*, i32)*, i8*, i32 }
%"class.std::__1::map.4" = type { %"class.std::__1::__tree.5" }
%"class.std::__1::__tree.5" = type { %"class.std::__1::__tree_end_node"*, %"class.std::__1::__compressed_pair.6", %"class.std::__1::__compressed_pair.10" }
%"class.std::__1::__compressed_pair.6" = type { %"struct.std::__1::__compressed_pair_elem" }
%"class.std::__1::__compressed_pair.10" = type { %"struct.std::__1::__compressed_pair_elem.2" }
%"class.pp::Size" = type { %struct.PP_Size }

@_ZTVN2pp10FullscreenE = hidden unnamed_addr constant { [4 x i8*] } { [4 x i8*] [i8* null, i8* null, i8* bitcast (void (%"class.pp::Fullscreen"*)* @_ZN2pp10FullscreenD2Ev to i8*), i8* bitcast (void (%"class.pp::Fullscreen"*)* @_ZN2pp10FullscreenD0Ev to i8*)] }, align 8
@_ZZN2pp12_GLOBAL__N_113get_interfaceI18PPB_Fullscreen_1_0EEPKT_vE5funcs = internal unnamed_addr global %struct.PPB_Fullscreen_1_0* null, align 8
@_ZGVZN2pp12_GLOBAL__N_113get_interfaceI18PPB_Fullscreen_1_0EEPKT_vE5funcs = internal global i64 0, align 8
@.str = private unnamed_addr constant [19 x i8] c"PPB_Fullscreen;1.0\00", align 1

@_ZN2pp10FullscreenC1ERKNS_14InstanceHandleE = hidden unnamed_addr alias void (%"class.pp::Fullscreen"*, %"class.pp::InstanceHandle"*), void (%"class.pp::Fullscreen"*, %"class.pp::InstanceHandle"*)* @_ZN2pp10FullscreenC2ERKNS_14InstanceHandleE
@_ZN2pp10FullscreenD1Ev = hidden unnamed_addr alias void (%"class.pp::Fullscreen"*), void (%"class.pp::Fullscreen"*)* @_ZN2pp10FullscreenD2Ev

; Function Attrs: nofree norecurse nounwind ssp uwtable
define hidden void @_ZN2pp10FullscreenC2ERKNS_14InstanceHandleE(%"class.pp::Fullscreen"* nocapture, %"class.pp::InstanceHandle"* nocapture readonly dereferenceable(4)) unnamed_addr #0 align 2 {
  %3 = getelementptr inbounds %"class.pp::Fullscreen", %"class.pp::Fullscreen"* %0, i64 0, i32 0
  store i32 (...)** bitcast (i8** getelementptr inbounds ({ [4 x i8*] }, { [4 x i8*] }* @_ZTVN2pp10FullscreenE, i64 0, inrange i32 0, i64 2) to i32 (...)**), i32 (...)*** %3, align 8
  %4 = getelementptr inbounds %"class.pp::InstanceHandle", %"class.pp::InstanceHandle"* %1, i64 0, i32 0
  %5 = getelementptr inbounds %"class.pp::Fullscreen", %"class.pp::Fullscreen"* %0, i64 0, i32 1, i32 0
  %6 = load i32, i32* %4, align 4
  store i32 %6, i32* %5, align 8
  ret void
}

; Function Attrs: norecurse nounwind readnone ssp uwtable
define hidden void @_ZN2pp10FullscreenD2Ev(%"class.pp::Fullscreen"* nocapture) unnamed_addr #1 align 2 {
  ret void
}

; Function Attrs: nounwind ssp uwtable
define hidden void @_ZN2pp10FullscreenD0Ev(%"class.pp::Fullscreen"*) unnamed_addr #2 align 2 {
  %2 = bitcast %"class.pp::Fullscreen"* %0 to i8*
  tail call void @_ZdlPv(i8* %2) #6
  ret void
}

; Function Attrs: nobuiltin nounwind
declare void @_ZdlPv(i8*) local_unnamed_addr #3

; Function Attrs: nounwind ssp uwtable
define hidden zeroext i1 @_ZN2pp10Fullscreen12IsFullscreenEv(%"class.pp::Fullscreen"* nocapture readonly) local_unnamed_addr #2 align 2 {
  %2 = load atomic i8, i8* bitcast (i64* @_ZGVZN2pp12_GLOBAL__N_113get_interfaceI18PPB_Fullscreen_1_0EEPKT_vE5funcs to i8*) acquire, align 8
  %3 = icmp eq i8 %2, 0
  br i1 %3, label %4, label %10, !prof !2

4:                                                ; preds = %1
  %5 = tail call i32 @__cxa_guard_acquire(i64* nonnull @_ZGVZN2pp12_GLOBAL__N_113get_interfaceI18PPB_Fullscreen_1_0EEPKT_vE5funcs) #7
  %6 = icmp eq i32 %5, 0
  br i1 %6, label %10, label %7

7:                                                ; preds = %4
  %8 = tail call %"class.pp::Module"* @_ZN2pp6Module3GetEv() #7
  %9 = tail call i8* @_ZN2pp6Module19GetBrowserInterfaceEPKc(%"class.pp::Module"* %8, i8* getelementptr inbounds ([19 x i8], [19 x i8]* @.str, i64 0, i64 0)) #7
  store i8* %9, i8** bitcast (%struct.PPB_Fullscreen_1_0** @_ZZN2pp12_GLOBAL__N_113get_interfaceI18PPB_Fullscreen_1_0EEPKT_vE5funcs to i8**), align 8
  tail call void @__cxa_guard_release(i64* nonnull @_ZGVZN2pp12_GLOBAL__N_113get_interfaceI18PPB_Fullscreen_1_0EEPKT_vE5funcs) #7
  br label %10

10:                                               ; preds = %1, %4, %7
  %11 = load %struct.PPB_Fullscreen_1_0*, %struct.PPB_Fullscreen_1_0** @_ZZN2pp12_GLOBAL__N_113get_interfaceI18PPB_Fullscreen_1_0EEPKT_vE5funcs, align 8
  %12 = icmp eq %struct.PPB_Fullscreen_1_0* %11, null
  br i1 %12, label %30, label %13

13:                                               ; preds = %10
  %14 = load atomic i8, i8* bitcast (i64* @_ZGVZN2pp12_GLOBAL__N_113get_interfaceI18PPB_Fullscreen_1_0EEPKT_vE5funcs to i8*) acquire, align 8
  %15 = icmp eq i8 %14, 0
  br i1 %15, label %16, label %22, !prof !2

16:                                               ; preds = %13
  %17 = tail call i32 @__cxa_guard_acquire(i64* nonnull @_ZGVZN2pp12_GLOBAL__N_113get_interfaceI18PPB_Fullscreen_1_0EEPKT_vE5funcs) #7
  %18 = icmp eq i32 %17, 0
  br i1 %18, label %22, label %19

19:                                               ; preds = %16
  %20 = tail call %"class.pp::Module"* @_ZN2pp6Module3GetEv() #7
  %21 = tail call i8* @_ZN2pp6Module19GetBrowserInterfaceEPKc(%"class.pp::Module"* %20, i8* getelementptr inbounds ([19 x i8], [19 x i8]* @.str, i64 0, i64 0)) #7
  store i8* %21, i8** bitcast (%struct.PPB_Fullscreen_1_0** @_ZZN2pp12_GLOBAL__N_113get_interfaceI18PPB_Fullscreen_1_0EEPKT_vE5funcs to i8**), align 8
  tail call void @__cxa_guard_release(i64* nonnull @_ZGVZN2pp12_GLOBAL__N_113get_interfaceI18PPB_Fullscreen_1_0EEPKT_vE5funcs) #7
  br label %22

22:                                               ; preds = %13, %16, %19
  %23 = load %struct.PPB_Fullscreen_1_0*, %struct.PPB_Fullscreen_1_0** @_ZZN2pp12_GLOBAL__N_113get_interfaceI18PPB_Fullscreen_1_0EEPKT_vE5funcs, align 8
  %24 = getelementptr inbounds %struct.PPB_Fullscreen_1_0, %struct.PPB_Fullscreen_1_0* %23, i64 0, i32 0
  %25 = load i32 (i32)*, i32 (i32)** %24, align 8
  %26 = getelementptr inbounds %"class.pp::Fullscreen", %"class.pp::Fullscreen"* %0, i64 0, i32 1, i32 0
  %27 = load i32, i32* %26, align 4
  %28 = tail call i32 %25(i32 %27) #7
  %29 = icmp ne i32 %28, 0
  br label %30

30:                                               ; preds = %10, %22
  %31 = phi i1 [ false, %10 ], [ %29, %22 ]
  ret i1 %31
}

; Function Attrs: nounwind ssp uwtable
define hidden zeroext i1 @_ZN2pp10Fullscreen13SetFullscreenEb(%"class.pp::Fullscreen"* nocapture readonly, i1 zeroext) local_unnamed_addr #2 align 2 {
  %3 = load atomic i8, i8* bitcast (i64* @_ZGVZN2pp12_GLOBAL__N_113get_interfaceI18PPB_Fullscreen_1_0EEPKT_vE5funcs to i8*) acquire, align 8
  %4 = icmp eq i8 %3, 0
  br i1 %4, label %5, label %11, !prof !2

5:                                                ; preds = %2
  %6 = tail call i32 @__cxa_guard_acquire(i64* nonnull @_ZGVZN2pp12_GLOBAL__N_113get_interfaceI18PPB_Fullscreen_1_0EEPKT_vE5funcs) #7
  %7 = icmp eq i32 %6, 0
  br i1 %7, label %11, label %8

8:                                                ; preds = %5
  %9 = tail call %"class.pp::Module"* @_ZN2pp6Module3GetEv() #7
  %10 = tail call i8* @_ZN2pp6Module19GetBrowserInterfaceEPKc(%"class.pp::Module"* %9, i8* getelementptr inbounds ([19 x i8], [19 x i8]* @.str, i64 0, i64 0)) #7
  store i8* %10, i8** bitcast (%struct.PPB_Fullscreen_1_0** @_ZZN2pp12_GLOBAL__N_113get_interfaceI18PPB_Fullscreen_1_0EEPKT_vE5funcs to i8**), align 8
  tail call void @__cxa_guard_release(i64* nonnull @_ZGVZN2pp12_GLOBAL__N_113get_interfaceI18PPB_Fullscreen_1_0EEPKT_vE5funcs) #7
  br label %11

11:                                               ; preds = %2, %5, %8
  %12 = load %struct.PPB_Fullscreen_1_0*, %struct.PPB_Fullscreen_1_0** @_ZZN2pp12_GLOBAL__N_113get_interfaceI18PPB_Fullscreen_1_0EEPKT_vE5funcs, align 8
  %13 = icmp eq %struct.PPB_Fullscreen_1_0* %12, null
  br i1 %13, label %32, label %14

14:                                               ; preds = %11
  %15 = load atomic i8, i8* bitcast (i64* @_ZGVZN2pp12_GLOBAL__N_113get_interfaceI18PPB_Fullscreen_1_0EEPKT_vE5funcs to i8*) acquire, align 8
  %16 = icmp eq i8 %15, 0
  br i1 %16, label %17, label %23, !prof !2

17:                                               ; preds = %14
  %18 = tail call i32 @__cxa_guard_acquire(i64* nonnull @_ZGVZN2pp12_GLOBAL__N_113get_interfaceI18PPB_Fullscreen_1_0EEPKT_vE5funcs) #7
  %19 = icmp eq i32 %18, 0
  br i1 %19, label %23, label %20

20:                                               ; preds = %17
  %21 = tail call %"class.pp::Module"* @_ZN2pp6Module3GetEv() #7
  %22 = tail call i8* @_ZN2pp6Module19GetBrowserInterfaceEPKc(%"class.pp::Module"* %21, i8* getelementptr inbounds ([19 x i8], [19 x i8]* @.str, i64 0, i64 0)) #7
  store i8* %22, i8** bitcast (%struct.PPB_Fullscreen_1_0** @_ZZN2pp12_GLOBAL__N_113get_interfaceI18PPB_Fullscreen_1_0EEPKT_vE5funcs to i8**), align 8
  tail call void @__cxa_guard_release(i64* nonnull @_ZGVZN2pp12_GLOBAL__N_113get_interfaceI18PPB_Fullscreen_1_0EEPKT_vE5funcs) #7
  br label %23

23:                                               ; preds = %14, %17, %20
  %24 = load %struct.PPB_Fullscreen_1_0*, %struct.PPB_Fullscreen_1_0** @_ZZN2pp12_GLOBAL__N_113get_interfaceI18PPB_Fullscreen_1_0EEPKT_vE5funcs, align 8
  %25 = getelementptr inbounds %struct.PPB_Fullscreen_1_0, %struct.PPB_Fullscreen_1_0* %24, i64 0, i32 1
  %26 = load i32 (i32, i32)*, i32 (i32, i32)** %25, align 8
  %27 = getelementptr inbounds %"class.pp::Fullscreen", %"class.pp::Fullscreen"* %0, i64 0, i32 1, i32 0
  %28 = load i32, i32* %27, align 4
  %29 = zext i1 %1 to i32
  %30 = tail call i32 %26(i32 %28, i32 %29) #7
  %31 = icmp ne i32 %30, 0
  br label %32

32:                                               ; preds = %11, %23
  %33 = phi i1 [ %31, %23 ], [ false, %11 ]
  ret i1 %33
}

; Function Attrs: nounwind ssp uwtable
define hidden zeroext i1 @_ZN2pp10Fullscreen13GetScreenSizeEPNS_4SizeE(%"class.pp::Fullscreen"* nocapture readonly, %"class.pp::Size"*) local_unnamed_addr #2 align 2 {
  %3 = load atomic i8, i8* bitcast (i64* @_ZGVZN2pp12_GLOBAL__N_113get_interfaceI18PPB_Fullscreen_1_0EEPKT_vE5funcs to i8*) acquire, align 8
  %4 = icmp eq i8 %3, 0
  br i1 %4, label %5, label %11, !prof !2

5:                                                ; preds = %2
  %6 = tail call i32 @__cxa_guard_acquire(i64* nonnull @_ZGVZN2pp12_GLOBAL__N_113get_interfaceI18PPB_Fullscreen_1_0EEPKT_vE5funcs) #7
  %7 = icmp eq i32 %6, 0
  br i1 %7, label %11, label %8

8:                                                ; preds = %5
  %9 = tail call %"class.pp::Module"* @_ZN2pp6Module3GetEv() #7
  %10 = tail call i8* @_ZN2pp6Module19GetBrowserInterfaceEPKc(%"class.pp::Module"* %9, i8* getelementptr inbounds ([19 x i8], [19 x i8]* @.str, i64 0, i64 0)) #7
  store i8* %10, i8** bitcast (%struct.PPB_Fullscreen_1_0** @_ZZN2pp12_GLOBAL__N_113get_interfaceI18PPB_Fullscreen_1_0EEPKT_vE5funcs to i8**), align 8
  tail call void @__cxa_guard_release(i64* nonnull @_ZGVZN2pp12_GLOBAL__N_113get_interfaceI18PPB_Fullscreen_1_0EEPKT_vE5funcs) #7
  br label %11

11:                                               ; preds = %2, %5, %8
  %12 = load %struct.PPB_Fullscreen_1_0*, %struct.PPB_Fullscreen_1_0** @_ZZN2pp12_GLOBAL__N_113get_interfaceI18PPB_Fullscreen_1_0EEPKT_vE5funcs, align 8
  %13 = icmp eq %struct.PPB_Fullscreen_1_0* %12, null
  br i1 %13, label %32, label %14

14:                                               ; preds = %11
  %15 = load atomic i8, i8* bitcast (i64* @_ZGVZN2pp12_GLOBAL__N_113get_interfaceI18PPB_Fullscreen_1_0EEPKT_vE5funcs to i8*) acquire, align 8
  %16 = icmp eq i8 %15, 0
  br i1 %16, label %17, label %23, !prof !2

17:                                               ; preds = %14
  %18 = tail call i32 @__cxa_guard_acquire(i64* nonnull @_ZGVZN2pp12_GLOBAL__N_113get_interfaceI18PPB_Fullscreen_1_0EEPKT_vE5funcs) #7
  %19 = icmp eq i32 %18, 0
  br i1 %19, label %23, label %20

20:                                               ; preds = %17
  %21 = tail call %"class.pp::Module"* @_ZN2pp6Module3GetEv() #7
  %22 = tail call i8* @_ZN2pp6Module19GetBrowserInterfaceEPKc(%"class.pp::Module"* %21, i8* getelementptr inbounds ([19 x i8], [19 x i8]* @.str, i64 0, i64 0)) #7
  store i8* %22, i8** bitcast (%struct.PPB_Fullscreen_1_0** @_ZZN2pp12_GLOBAL__N_113get_interfaceI18PPB_Fullscreen_1_0EEPKT_vE5funcs to i8**), align 8
  tail call void @__cxa_guard_release(i64* nonnull @_ZGVZN2pp12_GLOBAL__N_113get_interfaceI18PPB_Fullscreen_1_0EEPKT_vE5funcs) #7
  br label %23

23:                                               ; preds = %14, %17, %20
  %24 = load %struct.PPB_Fullscreen_1_0*, %struct.PPB_Fullscreen_1_0** @_ZZN2pp12_GLOBAL__N_113get_interfaceI18PPB_Fullscreen_1_0EEPKT_vE5funcs, align 8
  %25 = getelementptr inbounds %struct.PPB_Fullscreen_1_0, %struct.PPB_Fullscreen_1_0* %24, i64 0, i32 2
  %26 = load i32 (i32, %struct.PP_Size*)*, i32 (i32, %struct.PP_Size*)** %25, align 8
  %27 = getelementptr inbounds %"class.pp::Fullscreen", %"class.pp::Fullscreen"* %0, i64 0, i32 1, i32 0
  %28 = load i32, i32* %27, align 4
  %29 = getelementptr inbounds %"class.pp::Size", %"class.pp::Size"* %1, i64 0, i32 0
  %30 = tail call i32 %26(i32 %28, %struct.PP_Size* %29) #7
  %31 = icmp ne i32 %30, 0
  br label %32

32:                                               ; preds = %11, %23
  %33 = phi i1 [ %31, %23 ], [ false, %11 ]
  ret i1 %33
}

; Function Attrs: nofree nounwind
declare i32 @__cxa_guard_acquire(i64*) local_unnamed_addr #4

declare %"class.pp::Module"* @_ZN2pp6Module3GetEv() local_unnamed_addr #5

declare i8* @_ZN2pp6Module19GetBrowserInterfaceEPKc(%"class.pp::Module"*, i8*) local_unnamed_addr #5

; Function Attrs: nofree nounwind
declare void @__cxa_guard_release(i64*) local_unnamed_addr #4

attributes #0 = { nofree norecurse nounwind ssp uwtable "correctly-rounded-divide-sqrt-fp-math"="false" "disable-tail-calls"="false" "less-precise-fpmad"="false" "min-legal-vector-width"="0" "no-frame-pointer-elim"="false" "no-frame-pointer-elim-non-leaf" "no-infs-fp-math"="false" "no-jump-tables"="false" "no-nans-fp-math"="false" "no-signed-zeros-fp-math"="false" "no-trapping-math"="false" "null-pointer-is-valid"="true" "stack-protector-buffer-size"="4" "target-cpu"="x86-64" "target-features"="+cx8,+fxsr,+mmx,+sse,+sse2,+sse3,+x87" "unsafe-fp-math"="false" "use-soft-float"="false" }
attributes #1 = { norecurse nounwind readnone ssp uwtable "correctly-rounded-divide-sqrt-fp-math"="false" "disable-tail-calls"="false" "less-precise-fpmad"="false" "min-legal-vector-width"="0" "no-frame-pointer-elim"="false" "no-frame-pointer-elim-non-leaf" "no-infs-fp-math"="false" "no-jump-tables"="false" "no-nans-fp-math"="false" "no-signed-zeros-fp-math"="false" "no-trapping-math"="false" "null-pointer-is-valid"="true" "stack-protector-buffer-size"="4" "target-cpu"="x86-64" "target-features"="+cx8,+fxsr,+mmx,+sse,+sse2,+sse3,+x87" "unsafe-fp-math"="false" "use-soft-float"="false" }
attributes #2 = { nounwind ssp uwtable "correctly-rounded-divide-sqrt-fp-math"="false" "disable-tail-calls"="false" "less-precise-fpmad"="false" "min-legal-vector-width"="0" "no-frame-pointer-elim"="false" "no-frame-pointer-elim-non-leaf" "no-infs-fp-math"="false" "no-jump-tables"="false" "no-nans-fp-math"="false" "no-signed-zeros-fp-math"="false" "no-trapping-math"="false" "null-pointer-is-valid"="true" "stack-protector-buffer-size"="4" "target-cpu"="x86-64" "target-features"="+cx8,+fxsr,+mmx,+sse,+sse2,+sse3,+x87" "unsafe-fp-math"="false" "use-soft-float"="false" }
attributes #3 = { nobuiltin nounwind "correctly-rounded-divide-sqrt-fp-math"="false" "disable-tail-calls"="false" "less-precise-fpmad"="false" "no-frame-pointer-elim"="false" "no-frame-pointer-elim-non-leaf" "no-infs-fp-math"="false" "no-nans-fp-math"="false" "no-signed-zeros-fp-math"="false" "no-trapping-math"="false" "null-pointer-is-valid"="true" "stack-protector-buffer-size"="4" "target-cpu"="x86-64" "target-features"="+cx8,+fxsr,+mmx,+sse,+sse2,+sse3,+x87" "unsafe-fp-math"="false" "use-soft-float"="false" }
attributes #4 = { nofree nounwind }
attributes #5 = { "correctly-rounded-divide-sqrt-fp-math"="false" "disable-tail-calls"="false" "less-precise-fpmad"="false" "no-frame-pointer-elim"="false" "no-frame-pointer-elim-non-leaf" "no-infs-fp-math"="false" "no-nans-fp-math"="false" "no-signed-zeros-fp-math"="false" "no-trapping-math"="false" "null-pointer-is-valid"="true" "stack-protector-buffer-size"="4" "target-cpu"="x86-64" "target-features"="+cx8,+fxsr,+mmx,+sse,+sse2,+sse3,+x87" "unsafe-fp-math"="false" "use-soft-float"="false" }
attributes #6 = { builtin nounwind }
attributes #7 = { nounwind }

!llvm.module.flags = !{!0, !1}

!0 = !{i32 1, !"wchar_size", i32 4}
!1 = !{i32 7, !"PIC Level", i32 2}
!2 = !{!"branch_weights", i32 1, i32 1048575}
