; ModuleID = '../../v8/src/wasm/function-body-decoder.cc'
source_filename = "../../v8/src/wasm/function-body-decoder.cc"
target datalayout = "e-m:e-i64:64-f80:128-n8:16:32:64-S128"
target triple = "x86_64-unknown-linux-gnu"

module asm ".symver exp, exp@GLIBC_2.2.5"
module asm ".symver exp2, exp2@GLIBC_2.2.5"
module asm ".symver exp2f, exp2f@GLIBC_2.2.5"
module asm ".symver expf, expf@GLIBC_2.2.5"
module asm ".symver lgamma, lgamma@GLIBC_2.2.5"
module asm ".symver lgammaf, lgammaf@GLIBC_2.2.5"
module asm ".symver lgammal, lgammal@GLIBC_2.2.5"
module asm ".symver log, log@GLIBC_2.2.5"
module asm ".symver log2, log2@GLIBC_2.2.5"
module asm ".symver log2f, log2f@GLIBC_2.2.5"
module asm ".symver logf, logf@GLIBC_2.2.5"
module asm ".symver pow, pow@GLIBC_2.2.5"
module asm ".symver powf, powf@GLIBC_2.2.5"

%struct._IO_FILE = type { i32, i8*, i8*, i8*, i8*, i8*, i8*, i8*, i8*, i8*, i8*, i8*, %struct._IO_marker*, %struct._IO_FILE*, i32, i32, i64, i16, i8, [1 x i8], i8*, i64, %struct._IO_codecvt*, %struct._IO_wide_data*, %struct._IO_FILE*, i8*, i64, i32, [20 x i8] }
%struct._IO_marker = type opaque
%struct._IO_codecvt = type opaque
%struct._IO_wide_data = type opaque
%"class.std::__1::locale::id" = type <{ %"struct.std::__1::once_flag", i32, [4 x i8] }>
%"struct.std::__1::once_flag" = type { i64 }
%"class.v8::internal::wasm::ValueType" = type { i32 }
%"struct.std::__1::array.224" = type { [256 x i32 (%"class.v8::internal::wasm::WasmFullDecoder"*, i32)*] }
%"class.v8::internal::wasm::WasmFullDecoder" = type { %"class.v8::internal::wasm::WasmDecoder", i32, %"class.v8::internal::wasm::EmptyInterface", %"struct.v8::internal::wasm::ValueBase"*, %"struct.v8::internal::wasm::ValueBase"*, %"struct.v8::internal::wasm::ValueBase"*, %"class.v8::internal::ZoneVector.200", i8, i32 }
%"class.v8::internal::wasm::WasmDecoder" = type { %"class.v8::internal::wasm::Decoder", %"class.v8::internal::ZoneVector", i32, %"struct.v8::internal::wasm::WasmModule"*, %"class.v8::internal::wasm::WasmFeatures", %"class.v8::internal::wasm::WasmFeatures"*, %"class.v8::internal::Signature"* }
%"class.v8::internal::wasm::Decoder" = type { i32 (...)**, i8*, i8*, i8*, i32, %"class.v8::internal::wasm::WasmError" }
%"class.v8::internal::wasm::WasmError" = type { i32, %"class.std::__1::basic_string" }
%"class.std::__1::basic_string" = type { %"class.std::__1::__compressed_pair.193" }
%"class.std::__1::__compressed_pair.193" = type { %"struct.std::__1::__compressed_pair_elem.194" }
%"struct.std::__1::__compressed_pair_elem.194" = type { %"struct.std::__1::basic_string<char, std::__1::char_traits<char>, std::__1::allocator<char> >::__rep" }
%"struct.std::__1::basic_string<char, std::__1::char_traits<char>, std::__1::allocator<char> >::__rep" = type { %union.anon.195 }
%union.anon.195 = type { %"struct.std::__1::basic_string<char, std::__1::char_traits<char>, std::__1::allocator<char> >::__long" }
%"struct.std::__1::basic_string<char, std::__1::char_traits<char>, std::__1::allocator<char> >::__long" = type { i8*, i64, i64 }
%"class.v8::internal::ZoneVector" = type { %"class.std::__1::vector" }
%"class.std::__1::vector" = type { %"class.std::__1::__vector_base" }
%"class.std::__1::__vector_base" = type { %"class.v8::internal::wasm::ValueType"*, %"class.v8::internal::wasm::ValueType"*, %"class.std::__1::__compressed_pair" }
%"class.std::__1::__compressed_pair" = type { %"struct.std::__1::__compressed_pair_elem", %"struct.std::__1::__compressed_pair_elem.0" }
%"struct.std::__1::__compressed_pair_elem" = type { %"class.v8::internal::wasm::ValueType"* }
%"struct.std::__1::__compressed_pair_elem.0" = type { %"class.v8::internal::ZoneAllocator" }
%"class.v8::internal::ZoneAllocator" = type { %"class.v8::internal::Zone"* }
%"class.v8::internal::Zone" = type <{ i64, i64, i64, i64, %"class.v8::internal::AccountingAllocator"*, %"class.v8::internal::Segment"*, i8*, i8, i8, [6 x i8] }>
%"class.v8::internal::AccountingAllocator" = type { i32 (...)**, %"struct.std::__1::atomic", %"struct.std::__1::atomic", %"class.std::__1::unique_ptr", %"class.std::__1::unique_ptr.5" }
%"struct.std::__1::atomic" = type { %"struct.std::__1::__atomic_base" }
%"struct.std::__1::__atomic_base" = type { %"struct.std::__1::__atomic_base.1" }
%"struct.std::__1::__atomic_base.1" = type { %"struct.std::__1::__cxx_atomic_impl" }
%"struct.std::__1::__cxx_atomic_impl" = type { %"struct.std::__1::__cxx_atomic_base_impl" }
%"struct.std::__1::__cxx_atomic_base_impl" = type { i64 }
%"class.std::__1::unique_ptr" = type { %"class.std::__1::__compressed_pair.2" }
%"class.std::__1::__compressed_pair.2" = type { %"struct.std::__1::__compressed_pair_elem.3" }
%"struct.std::__1::__compressed_pair_elem.3" = type { %"class.v8::internal::VirtualMemory"* }
%"class.v8::internal::VirtualMemory" = type { %"class.v8::PageAllocator"*, %"class.v8::base::AddressRegion" }
%"class.v8::PageAllocator" = type { i32 (...)** }
%"class.v8::base::AddressRegion" = type { i64, i64 }
%"class.std::__1::unique_ptr.5" = type { %"class.std::__1::__compressed_pair.6" }
%"class.std::__1::__compressed_pair.6" = type { %"struct.std::__1::__compressed_pair_elem.7" }
%"struct.std::__1::__compressed_pair_elem.7" = type { %"class.v8::base::BoundedPageAllocator"* }
%"class.v8::base::BoundedPageAllocator" = type { %"class.v8::PageAllocator", %"class.v8::base::Mutex", i64, i64, %"class.v8::PageAllocator"*, %"class.v8::base::RegionAllocator" }
%"class.v8::base::Mutex" = type { %union.pthread_mutex_t }
%union.pthread_mutex_t = type { %struct.__pthread_mutex_s }
%struct.__pthread_mutex_s = type { i32, i32, i32, i32, i32, i16, i16, %struct.__pthread_internal_list }
%struct.__pthread_internal_list = type { %struct.__pthread_internal_list*, %struct.__pthread_internal_list* }
%"class.v8::base::RegionAllocator" = type { %"class.v8::base::RegionAllocator::Region", i64, i64, i64, i64, %"class.std::__1::set", %"class.std::__1::set.14" }
%"class.v8::base::RegionAllocator::Region" = type <{ %"class.v8::base::AddressRegion", i32, [4 x i8] }>
%"class.std::__1::set" = type { %"class.std::__1::__tree" }
%"class.std::__1::__tree" = type { %"class.std::__1::__tree_end_node"*, %"class.std::__1::__compressed_pair.8", %"class.std::__1::__compressed_pair.11" }
%"class.std::__1::__tree_end_node" = type { %"class.std::__1::__tree_node_base"* }
%"class.std::__1::__tree_node_base" = type <{ %"class.std::__1::__tree_end_node", %"class.std::__1::__tree_node_base"*, %"class.std::__1::__tree_end_node"*, i8, [7 x i8] }>
%"class.std::__1::__compressed_pair.8" = type { %"struct.std::__1::__compressed_pair_elem.9" }
%"struct.std::__1::__compressed_pair_elem.9" = type { %"class.std::__1::__tree_end_node" }
%"class.std::__1::__compressed_pair.11" = type { %"struct.std::__1::__compressed_pair_elem.12" }
%"struct.std::__1::__compressed_pair_elem.12" = type { i64 }
%"class.std::__1::set.14" = type { %"class.std::__1::__tree.15" }
%"class.std::__1::__tree.15" = type { %"class.std::__1::__tree_end_node"*, %"class.std::__1::__compressed_pair.8", %"class.std::__1::__compressed_pair.16" }
%"class.std::__1::__compressed_pair.16" = type { %"struct.std::__1::__compressed_pair_elem.12" }
%"class.v8::internal::Segment" = type { %"class.v8::internal::Zone"*, %"class.v8::internal::Segment"*, i64 }
%"struct.v8::internal::wasm::WasmModule" = type { %"class.std::__1::unique_ptr.21", i32, i32, i8, i8, i8, i8, i8, i32, %"class.std::__1::vector.27", i32, i32, i32, i32, i32, i32, i32, i32, %"class.v8::internal::wasm::WireBytesRef", %"class.v8::internal::wasm::WireBytesRef", %"class.std::__1::vector.40", %"class.std::__1::vector.48", %"class.std::__1::vector.55", %"class.std::__1::vector.62", %"class.std::__1::vector.69", %"class.std::__1::vector.76", %"class.std::__1::vector.83", %"class.std::__1::vector.90", %"class.std::__1::vector.97", %"class.std::__1::vector.104", %"class.std::__1::vector.117", %"class.std::__1::unordered_map", %"class.v8::internal::wasm::SignatureMap", i8, %"class.v8::internal::wasm::LazilyGeneratedNames", %"struct.v8::internal::wasm::WasmDebugSymbols", %"class.std::__1::unique_ptr.175" }
%"class.std::__1::unique_ptr.21" = type { %"class.std::__1::__compressed_pair.22" }
%"class.std::__1::__compressed_pair.22" = type { %"struct.std::__1::__compressed_pair_elem.23" }
%"struct.std::__1::__compressed_pair_elem.23" = type { %"class.v8::internal::Zone"* }
%"class.std::__1::vector.27" = type { %"class.std::__1::__vector_base.28" }
%"class.std::__1::__vector_base.28" = type { %"struct.v8::internal::wasm::WasmGlobal"*, %"struct.v8::internal::wasm::WasmGlobal"*, %"class.std::__1::__compressed_pair.35" }
%"struct.v8::internal::wasm::WasmGlobal" = type <{ %"class.v8::internal::wasm::ValueType", i8, [3 x i8], %"class.v8::internal::wasm::WasmInitExpr", %union.anon, i8, i8, [2 x i8] }>
%"class.v8::internal::wasm::WasmInitExpr" = type { %"union.v8::internal::wasm::WasmInitExpr::Immediate", i32, %"class.std::__1::unique_ptr.29" }
%"union.v8::internal::wasm::WasmInitExpr::Immediate" = type { i64, [8 x i8] }
%"class.std::__1::unique_ptr.29" = type { %"class.std::__1::__compressed_pair.30" }
%"class.std::__1::__compressed_pair.30" = type { %"struct.std::__1::__compressed_pair_elem.31" }
%"struct.std::__1::__compressed_pair_elem.31" = type { %"class.v8::internal::wasm::WasmInitExpr"* }
%union.anon = type { i32 }
%"class.std::__1::__compressed_pair.35" = type { %"struct.std::__1::__compressed_pair_elem.36" }
%"struct.std::__1::__compressed_pair_elem.36" = type { %"struct.v8::internal::wasm::WasmGlobal"* }
%"class.v8::internal::wasm::WireBytesRef" = type { i32, i32 }
%"class.std::__1::vector.40" = type { %"class.std::__1::__vector_base.41" }
%"class.std::__1::__vector_base.41" = type { %"struct.v8::internal::wasm::TypeDefinition"*, %"struct.v8::internal::wasm::TypeDefinition"*, %"class.std::__1::__compressed_pair.43" }
%"struct.v8::internal::wasm::TypeDefinition" = type { %union.anon.42 }
%union.anon.42 = type { %"class.v8::internal::Signature"* }
%"class.std::__1::__compressed_pair.43" = type { %"struct.std::__1::__compressed_pair_elem.44" }
%"struct.std::__1::__compressed_pair_elem.44" = type { %"struct.v8::internal::wasm::TypeDefinition"* }
%"class.std::__1::vector.48" = type { %"class.std::__1::__vector_base.49" }
%"class.std::__1::__vector_base.49" = type { i8*, i8*, %"class.std::__1::__compressed_pair.50" }
%"class.std::__1::__compressed_pair.50" = type { %"struct.std::__1::__compressed_pair_elem.51" }
%"struct.std::__1::__compressed_pair_elem.51" = type { i8* }
%"class.std::__1::vector.55" = type { %"class.std::__1::__vector_base.56" }
%"class.std::__1::__vector_base.56" = type { i32*, i32*, %"class.std::__1::__compressed_pair.57" }
%"class.std::__1::__compressed_pair.57" = type { %"struct.std::__1::__compressed_pair_elem.58" }
%"struct.std::__1::__compressed_pair_elem.58" = type { i32* }
%"class.std::__1::vector.62" = type { %"class.std::__1::__vector_base.63" }
%"class.std::__1::__vector_base.63" = type { %"struct.v8::internal::wasm::WasmFunction"*, %"struct.v8::internal::wasm::WasmFunction"*, %"class.std::__1::__compressed_pair.64" }
%"struct.v8::internal::wasm::WasmFunction" = type <{ %"class.v8::internal::Signature"*, i32, i32, %"class.v8::internal::wasm::WireBytesRef", i8, i8, i8, [5 x i8] }>
%"class.std::__1::__compressed_pair.64" = type { %"struct.std::__1::__compressed_pair_elem.65" }
%"struct.std::__1::__compressed_pair_elem.65" = type { %"struct.v8::internal::wasm::WasmFunction"* }
%"class.std::__1::vector.69" = type { %"class.std::__1::__vector_base.70" }
%"class.std::__1::__vector_base.70" = type { %"struct.v8::internal::wasm::WasmDataSegment"*, %"struct.v8::internal::wasm::WasmDataSegment"*, %"class.std::__1::__compressed_pair.71" }
%"struct.v8::internal::wasm::WasmDataSegment" = type <{ %"class.v8::internal::wasm::WasmInitExpr", %"class.v8::internal::wasm::WireBytesRef", i8, [7 x i8] }>
%"class.std::__1::__compressed_pair.71" = type { %"struct.std::__1::__compressed_pair_elem.72" }
%"struct.std::__1::__compressed_pair_elem.72" = type { %"struct.v8::internal::wasm::WasmDataSegment"* }
%"class.std::__1::vector.76" = type { %"class.std::__1::__vector_base.77" }
%"class.std::__1::__vector_base.77" = type { %"struct.v8::internal::wasm::WasmTable"*, %"struct.v8::internal::wasm::WasmTable"*, %"class.std::__1::__compressed_pair.78" }
%"struct.v8::internal::wasm::WasmTable" = type { %"class.v8::internal::wasm::ValueType", i32, i32, i8, i8, i8, %"class.v8::internal::wasm::WasmInitExpr" }
%"class.std::__1::__compressed_pair.78" = type { %"struct.std::__1::__compressed_pair_elem.79" }
%"struct.std::__1::__compressed_pair_elem.79" = type { %"struct.v8::internal::wasm::WasmTable"* }
%"class.std::__1::vector.83" = type { %"class.std::__1::__vector_base.84" }
%"class.std::__1::__vector_base.84" = type { %"struct.v8::internal::wasm::WasmImport"*, %"struct.v8::internal::wasm::WasmImport"*, %"class.std::__1::__compressed_pair.85" }
%"struct.v8::internal::wasm::WasmImport" = type { %"class.v8::internal::wasm::WireBytesRef", %"class.v8::internal::wasm::WireBytesRef", i8, i32 }
%"class.std::__1::__compressed_pair.85" = type { %"struct.std::__1::__compressed_pair_elem.86" }
%"struct.std::__1::__compressed_pair_elem.86" = type { %"struct.v8::internal::wasm::WasmImport"* }
%"class.std::__1::vector.90" = type { %"class.std::__1::__vector_base.91" }
%"class.std::__1::__vector_base.91" = type { %"struct.v8::internal::wasm::WasmExport"*, %"struct.v8::internal::wasm::WasmExport"*, %"class.std::__1::__compressed_pair.92" }
%"struct.v8::internal::wasm::WasmExport" = type { %"class.v8::internal::wasm::WireBytesRef", i8, i32 }
%"class.std::__1::__compressed_pair.92" = type { %"struct.std::__1::__compressed_pair_elem.93" }
%"struct.std::__1::__compressed_pair_elem.93" = type { %"struct.v8::internal::wasm::WasmExport"* }
%"class.std::__1::vector.97" = type { %"class.std::__1::__vector_base.98" }
%"class.std::__1::__vector_base.98" = type { %"struct.v8::internal::wasm::WasmException"*, %"struct.v8::internal::wasm::WasmException"*, %"class.std::__1::__compressed_pair.99" }
%"struct.v8::internal::wasm::WasmException" = type { %"class.v8::internal::Signature"* }
%"class.std::__1::__compressed_pair.99" = type { %"struct.std::__1::__compressed_pair_elem.100" }
%"struct.std::__1::__compressed_pair_elem.100" = type { %"struct.v8::internal::wasm::WasmException"* }
%"class.std::__1::vector.104" = type { %"class.std::__1::__vector_base.105" }
%"class.std::__1::__vector_base.105" = type { %"struct.v8::internal::wasm::WasmElemSegment"*, %"struct.v8::internal::wasm::WasmElemSegment"*, %"class.std::__1::__compressed_pair.112" }
%"struct.v8::internal::wasm::WasmElemSegment" = type <{ %"class.v8::internal::wasm::ValueType", i32, %"class.v8::internal::wasm::WasmInitExpr", %"class.std::__1::vector.106", i32, [4 x i8] }>
%"class.std::__1::vector.106" = type { %"class.std::__1::__vector_base.107" }
%"class.std::__1::__vector_base.107" = type { %"class.v8::internal::wasm::WasmInitExpr"*, %"class.v8::internal::wasm::WasmInitExpr"*, %"class.std::__1::__compressed_pair.108" }
%"class.std::__1::__compressed_pair.108" = type { %"struct.std::__1::__compressed_pair_elem.31" }
%"class.std::__1::__compressed_pair.112" = type { %"struct.std::__1::__compressed_pair_elem.113" }
%"struct.std::__1::__compressed_pair_elem.113" = type { %"struct.v8::internal::wasm::WasmElemSegment"* }
%"class.std::__1::vector.117" = type { %"class.std::__1::__vector_base.118" }
%"class.std::__1::__vector_base.118" = type { %"struct.v8::internal::wasm::WasmCompilationHint"*, %"struct.v8::internal::wasm::WasmCompilationHint"*, %"class.std::__1::__compressed_pair.119" }
%"struct.v8::internal::wasm::WasmCompilationHint" = type { i8, i8, i8 }
%"class.std::__1::__compressed_pair.119" = type { %"struct.std::__1::__compressed_pair_elem.120" }
%"struct.std::__1::__compressed_pair_elem.120" = type { %"struct.v8::internal::wasm::WasmCompilationHint"* }
%"class.std::__1::unordered_map" = type { %"class.std::__1::__hash_table" }
%"class.std::__1::__hash_table" = type <{ %"class.std::__1::unique_ptr.124", %"class.std::__1::__compressed_pair.132", %"class.std::__1::__compressed_pair.137", %"class.std::__1::__compressed_pair.139", [4 x i8] }>
%"class.std::__1::unique_ptr.124" = type { %"class.std::__1::__compressed_pair.125" }
%"class.std::__1::__compressed_pair.125" = type { %"struct.std::__1::__compressed_pair_elem.126", %"struct.std::__1::__compressed_pair_elem.127" }
%"struct.std::__1::__compressed_pair_elem.126" = type { %"struct.std::__1::__hash_node_base"** }
%"struct.std::__1::__hash_node_base" = type { %"struct.std::__1::__hash_node_base"* }
%"struct.std::__1::__compressed_pair_elem.127" = type { %"class.std::__1::__bucket_list_deallocator" }
%"class.std::__1::__bucket_list_deallocator" = type { %"class.std::__1::__compressed_pair.128" }
%"class.std::__1::__compressed_pair.128" = type { %"struct.std::__1::__compressed_pair_elem.12" }
%"class.std::__1::__compressed_pair.132" = type { %"struct.std::__1::__compressed_pair_elem.133" }
%"struct.std::__1::__compressed_pair_elem.133" = type { %"struct.std::__1::__hash_node_base" }
%"class.std::__1::__compressed_pair.137" = type { %"struct.std::__1::__compressed_pair_elem.12" }
%"class.std::__1::__compressed_pair.139" = type { %"struct.std::__1::__compressed_pair_elem.140" }
%"struct.std::__1::__compressed_pair_elem.140" = type { float }
%"class.v8::internal::wasm::SignatureMap" = type { i8, [7 x i8], %"class.std::__1::unordered_map.142" }
%"class.std::__1::unordered_map.142" = type { %"class.std::__1::__hash_table.143" }
%"class.std::__1::__hash_table.143" = type <{ %"class.std::__1::unique_ptr.144", %"class.std::__1::__compressed_pair.154", %"class.std::__1::__compressed_pair.159", %"class.std::__1::__compressed_pair.162", [4 x i8] }>
%"class.std::__1::unique_ptr.144" = type { %"class.std::__1::__compressed_pair.145" }
%"class.std::__1::__compressed_pair.145" = type { %"struct.std::__1::__compressed_pair_elem.146", %"struct.std::__1::__compressed_pair_elem.148" }
%"struct.std::__1::__compressed_pair_elem.146" = type { %"struct.std::__1::__hash_node_base.147"** }
%"struct.std::__1::__hash_node_base.147" = type { %"struct.std::__1::__hash_node_base.147"* }
%"struct.std::__1::__compressed_pair_elem.148" = type { %"class.std::__1::__bucket_list_deallocator.149" }
%"class.std::__1::__bucket_list_deallocator.149" = type { %"class.std::__1::__compressed_pair.150" }
%"class.std::__1::__compressed_pair.150" = type { %"struct.std::__1::__compressed_pair_elem.12" }
%"class.std::__1::__compressed_pair.154" = type { %"struct.std::__1::__compressed_pair_elem.155" }
%"struct.std::__1::__compressed_pair_elem.155" = type { %"struct.std::__1::__hash_node_base.147" }
%"class.std::__1::__compressed_pair.159" = type { %"struct.std::__1::__compressed_pair_elem.12" }
%"class.std::__1::__compressed_pair.162" = type { %"struct.std::__1::__compressed_pair_elem.140" }
%"class.v8::internal::wasm::LazilyGeneratedNames" = type { %"class.v8::base::Mutex", %"class.std::__1::unique_ptr.168" }
%"class.std::__1::unique_ptr.168" = type { %"class.std::__1::__compressed_pair.169" }
%"class.std::__1::__compressed_pair.169" = type { %"struct.std::__1::__compressed_pair_elem.170" }
%"struct.std::__1::__compressed_pair_elem.170" = type { %"class.std::__1::unordered_map.171"* }
%"class.std::__1::unordered_map.171" = type opaque
%"struct.v8::internal::wasm::WasmDebugSymbols" = type { i32, %"class.v8::internal::wasm::WireBytesRef" }
%"class.std::__1::unique_ptr.175" = type { %"class.std::__1::__compressed_pair.176" }
%"class.std::__1::__compressed_pair.176" = type { %"struct.std::__1::__compressed_pair_elem.177" }
%"struct.std::__1::__compressed_pair_elem.177" = type { %"class.v8::internal::wasm::AsmJsOffsetInformation"* }
%"class.v8::internal::wasm::AsmJsOffsetInformation" = type { %"class.v8::base::Mutex", %"class.v8::internal::OwnedVector", %"class.std::__1::unique_ptr.184" }
%"class.v8::internal::OwnedVector" = type { %"class.std::__1::unique_ptr.178", i64 }
%"class.std::__1::unique_ptr.178" = type { %"class.std::__1::__compressed_pair.179" }
%"class.std::__1::__compressed_pair.179" = type { %"struct.std::__1::__compressed_pair_elem.180" }
%"struct.std::__1::__compressed_pair_elem.180" = type { i8* }
%"class.std::__1::unique_ptr.184" = type { %"class.std::__1::__compressed_pair.185" }
%"class.std::__1::__compressed_pair.185" = type { %"struct.std::__1::__compressed_pair_elem.186" }
%"struct.std::__1::__compressed_pair_elem.186" = type { %"struct.v8::internal::wasm::AsmJsOffsets"* }
%"struct.v8::internal::wasm::AsmJsOffsets" = type opaque
%"class.v8::internal::wasm::WasmFeatures" = type { %"class.v8::base::EnumSet" }
%"class.v8::base::EnumSet" = type { i32 }
%"class.v8::internal::Signature" = type { i64, i64, %"class.v8::internal::wasm::ValueType"* }
%"class.v8::internal::wasm::EmptyInterface" = type { i8 }
%"struct.v8::internal::wasm::ValueBase" = type <{ %"struct.v8::internal::wasm::PcForErrors", %"class.v8::internal::wasm::ValueType", [4 x i8] }>
%"struct.v8::internal::wasm::PcForErrors" = type { i8* }
%"class.v8::internal::ZoneVector.200" = type { %"class.std::__1::vector.201" }
%"class.std::__1::vector.201" = type { %"class.std::__1::__vector_base.202" }
%"class.std::__1::__vector_base.202" = type { %"struct.v8::internal::wasm::ControlBase"*, %"struct.v8::internal::wasm::ControlBase"*, %"class.std::__1::__compressed_pair.203" }
%"struct.v8::internal::wasm::ControlBase" = type { %"struct.v8::internal::wasm::PcForErrors", i8, i32, i32, i32, i8, [7 x i8], %"struct.v8::internal::wasm::Merge", %"struct.v8::internal::wasm::Merge" }
%"struct.v8::internal::wasm::Merge" = type <{ i32, [4 x i8], %union.anon.215, i8, [7 x i8] }>
%union.anon.215 = type { %"struct.v8::internal::wasm::ValueBase"*, [8 x i8] }
%"class.std::__1::__compressed_pair.203" = type { %"struct.std::__1::__compressed_pair_elem.204", %"struct.std::__1::__compressed_pair_elem.205" }
%"struct.std::__1::__compressed_pair_elem.204" = type { %"struct.v8::internal::wasm::ControlBase"* }
%"struct.std::__1::__compressed_pair_elem.205" = type { %"class.v8::internal::ZoneAllocator.206" }
%"class.v8::internal::ZoneAllocator.206" = type { %"class.v8::internal::Zone"* }
%"struct.std::__1::array.243" = type { [256 x i8] }
%"class.v8::internal::wasm::LoadType" = type { i8 }
%"class.v8::internal::wasm::StoreType" = type { i8 }
%"class.v8::internal::wasm::BytecodeIterator" = type { %"class.v8::internal::wasm::Decoder" }
%"struct.v8::internal::wasm::BodyLocalDecls" = type { i32, %"class.v8::internal::ZoneVector" }
%"struct.std::__1::basic_string<char, std::__1::char_traits<char>, std::__1::allocator<char> >::__short" = type { [23 x i8], %struct.anon }
%struct.anon = type { i8 }
%"class.v8::internal::wasm::Result" = type { i8*, %"class.v8::internal::wasm::WasmError" }
%"struct.v8::internal::wasm::FunctionBody" = type { %"class.v8::internal::Signature"*, i32, i8*, i8* }
%"class.v8::internal::wasm::WasmDecoder.207" = type { %"class.v8::internal::wasm::Decoder", %"class.v8::internal::ZoneVector", i32, %"struct.v8::internal::wasm::WasmModule"*, %"class.v8::internal::wasm::WasmFeatures", %"class.v8::internal::wasm::WasmFeatures"*, %"class.v8::internal::Signature"* }
%"struct.v8::internal::wasm::TableIndexImmediate.252" = type { i32, i32 }
%"struct.v8::internal::wasm::BlockTypeImmediate" = type { i32, %"class.v8::internal::wasm::ValueType", i32, %"class.v8::internal::Signature"* }
%"struct.v8::internal::wasm::BranchDepthImmediate" = type { i32, i32 }
%"struct.v8::internal::wasm::ExceptionIndexImmediate.246" = type <{ i32, [4 x i8], %"struct.v8::internal::wasm::WasmException"*, i32, [4 x i8] }>
%"struct.v8::internal::wasm::CallFunctionImmediate" = type <{ i32, [4 x i8], %"class.v8::internal::Signature"*, i32, [4 x i8] }>
%"struct.v8::internal::wasm::SelectTypeImmediate.248" = type { i32, %"class.v8::internal::wasm::ValueType" }
%"struct.v8::internal::wasm::LocalIndexImmediate.249" = type { i32, i32 }
%"struct.v8::internal::wasm::GlobalIndexImmediate.250" = type <{ i32, %"class.v8::internal::wasm::ValueType", %"struct.v8::internal::wasm::WasmGlobal"*, i32, [4 x i8] }>
%"struct.v8::internal::wasm::ImmI32Immediate.253" = type { i32, i32 }
%"struct.v8::internal::wasm::ImmI64Immediate.254" = type <{ i64, i32, [4 x i8] }>
%"struct.v8::internal::wasm::HeapTypeImmediate.256" = type { i32, %"class.v8::internal::wasm::HeapType" }
%"class.v8::internal::wasm::HeapType" = type { i32 }
%"struct.v8::internal::wasm::FunctionIndexImmediate.257" = type { i32, i32 }
%"struct.v8::internal::wasm::DataDropImmediate.262" = type { i32, i32 }
%"struct.v8::internal::wasm::ElemDropImmediate.265" = type { i32, i32 }
%"struct.v8::internal::wasm::StructIndexImmediate.267" = type { i32, i32, %"class.v8::internal::wasm::StructType"* }
%"class.v8::internal::wasm::StructType" = type { i32, i32*, %"class.v8::internal::wasm::ValueType"*, i8* }
%"struct.v8::internal::wasm::FieldIndexImmediate.268" = type { %"struct.v8::internal::wasm::StructIndexImmediate.267", i32, i32 }
%"struct.v8::internal::wasm::ArrayIndexImmediate.269" = type { i32, i32, %"class.v8::internal::wasm::ArrayType"* }
%"class.v8::internal::wasm::ArrayType" = type <{ %"class.v8::internal::wasm::ValueType", i8, [3 x i8] }>
%"struct.v8::internal::wasm::TypeIndexImmediate.270" = type { i32, i32 }
%"class.v8::internal::StdoutStream" = type { %"class.v8::internal::OFStream.base", %"class.v8::base::LockGuard", %"class.std::__1::basic_ios.base" }
%"class.v8::internal::OFStream.base" = type { %"class.std::__1::basic_ostream.base", %"class.v8::internal::OFStreamBase" }
%"class.std::__1::basic_ostream.base" = type { i32 (...)** }
%"class.v8::internal::OFStreamBase" = type { %"class.std::__1::basic_streambuf", %struct._IO_FILE* }
%"class.std::__1::basic_streambuf" = type { i32 (...)**, %"class.std::__1::locale", i8*, i8*, i8*, i8*, i8*, i8* }
%"class.std::__1::locale" = type { %"class.std::__1::locale::__imp"* }
%"class.std::__1::locale::__imp" = type opaque
%"class.v8::base::LockGuard" = type { %"class.v8::base::RecursiveMutex"* }
%"class.v8::base::RecursiveMutex" = type { %union.pthread_mutex_t }
%"class.std::__1::basic_ios.base" = type <{ %"class.std::__1::ios_base", %"class.std::__1::basic_ostream"*, i32 }>
%"class.std::__1::ios_base" = type { i32 (...)**, i32, i64, i64, i32, i32, i8*, i8*, void (i32, %"class.std::__1::ios_base"*, i32)**, i32*, i64, i64, i64*, i64, i64, i8**, i64, i64 }
%"class.std::__1::basic_ostream" = type { i32 (...)**, %"class.std::__1::basic_ios.base" }
%"class.v8::internal::OFStream" = type { %"class.std::__1::basic_ostream.base", %"class.v8::internal::OFStreamBase", %"class.std::__1::basic_ios.base" }
%"class.std::__1::vector.208" = type { %"class.std::__1::__vector_base.209" }
%"class.std::__1::__vector_base.209" = type { i32*, i32*, %"class.std::__1::__compressed_pair.210" }
%"class.std::__1::__compressed_pair.210" = type { %"struct.std::__1::__compressed_pair_elem.211" }
%"struct.std::__1::__compressed_pair_elem.211" = type { i32* }
%"class.std::__1::basic_ios" = type <{ %"class.std::__1::ios_base", %"class.std::__1::basic_ostream"*, i32, [4 x i8] }>
%"struct.v8::internal::AsHex" = type <{ i64, i8, i8, [6 x i8] }>
%"class.std::__1::locale::facet" = type { %"class.std::__1::__shared_count" }
%"class.std::__1::__shared_count" = type { i32 (...)**, i64 }
%"class.std::__1::ctype" = type <{ %"class.std::__1::locale::facet", i16*, i8, [7 x i8] }>
%"class.std::__1::__vector_base_common" = type { i8 }
%"class.std::__1::basic_ostringstream" = type { %"class.std::__1::basic_ostream.base", %"class.std::__1::basic_stringbuf", %"class.std::__1::basic_ios.base" }
%"class.std::__1::basic_stringbuf" = type <{ %"class.std::__1::basic_streambuf", %"class.std::__1::basic_string", i8*, i32, [4 x i8] }>
%"class.v8::internal::BitVector" = type { i32, i32, %"union.v8::internal::BitVector::DataStorage" }
%"union.v8::internal::BitVector::DataStorage" = type { i64* }
%"class.v8::base::SmallVector.336" = type { i32*, i32*, i32*, %"struct.std::__1::aligned_storage<32, 4>::type" }
%"struct.std::__1::aligned_storage<32, 4>::type" = type { [32 x i8] }
%"struct.v8::internal::wasm::BlockTypeImmediate.225" = type { i32, %"class.v8::internal::wasm::ValueType", i32, %"class.v8::internal::Signature"* }
%"struct.v8::internal::wasm::LocalIndexImmediate" = type { i32, i32 }
%"class.std::__1::basic_ostream<char, std::__1::char_traits<char> >::sentry" = type { i8, %"class.std::__1::basic_ostream"* }
%struct.__va_list_tag = type { i32, i32, i8*, i8* }
%"class.v8::internal::EmbeddedVector" = type { %"class.v8::internal::Vector", [256 x i8] }
%"class.v8::internal::Vector" = type { i8*, i64 }
%"struct.v8::internal::wasm::ImmI32Immediate" = type { i32, i32 }
%"struct.v8::internal::wasm::ExceptionIndexImmediate" = type <{ i32, [4 x i8], %"struct.v8::internal::wasm::WasmException"*, i32, [4 x i8] }>
%"struct.v8::internal::wasm::BranchDepthImmediate.231" = type { i32, i32 }
%"class.std::__1::vector.233" = type { i64*, i64, %"class.std::__1::__compressed_pair.234" }
%"class.std::__1::__compressed_pair.234" = type { %"struct.std::__1::__compressed_pair_elem.12" }
%"struct.v8::internal::wasm::CallFunctionImmediate.238" = type <{ i32, [4 x i8], %"class.v8::internal::Signature"*, i32, [4 x i8] }>
%"class.v8::base::SmallVector" = type { %"struct.v8::internal::wasm::ValueBase"*, %"struct.v8::internal::wasm::ValueBase"*, %"struct.v8::internal::wasm::ValueBase"*, %"struct.std::__1::aligned_storage<32, 8>::type" }
%"struct.std::__1::aligned_storage<32, 8>::type" = type { [32 x i8] }
%"struct.v8::internal::wasm::TableIndexImmediate" = type { i32, i32 }
%"struct.v8::internal::wasm::CallIndirectImmediate.240" = type <{ i32, i32, %"class.v8::internal::Signature"*, i32, [4 x i8] }>
%"struct.v8::internal::wasm::SelectTypeImmediate" = type { i32, %"class.v8::internal::wasm::ValueType" }
%"struct.v8::internal::wasm::GlobalIndexImmediate" = type <{ i32, %"class.v8::internal::wasm::ValueType", %"struct.v8::internal::wasm::WasmGlobal"*, i32, [4 x i8] }>
%"struct.v8::internal::wasm::ImmI64Immediate" = type <{ i64, i32, [4 x i8] }>
%"struct.v8::internal::wasm::HeapTypeImmediate" = type { i32, %"class.v8::internal::wasm::HeapType" }
%"struct.v8::internal::wasm::FunctionIndexImmediate" = type { i32, i32 }
%"struct.v8::internal::wasm::StructIndexImmediate" = type { i32, i32, %"class.v8::internal::wasm::StructType"* }
%"struct.v8::internal::wasm::FieldIndexImmediate" = type { %"struct.v8::internal::wasm::StructIndexImmediate", i32, i32 }
%"struct.v8::internal::wasm::ArrayIndexImmediate" = type { i32, i32, %"class.v8::internal::wasm::ArrayType"* }
%"struct.v8::internal::wasm::TypeIndexImmediate" = type { i32, i32 }
%"struct.v8::internal::wasm::DataDropImmediate" = type { i32, i32 }
%"struct.v8::internal::wasm::TableInitImmediate" = type { i32, %"struct.v8::internal::wasm::TableIndexImmediate", i32 }
%"struct.v8::internal::wasm::ElemDropImmediate" = type { i32, i32 }
%"struct.v8::internal::wasm::TableCopyImmediate" = type { %"struct.v8::internal::wasm::TableIndexImmediate", %"struct.v8::internal::wasm::TableIndexImmediate", i32 }
%"struct.v8::internal::wasm::Simd128Immediate" = type { [16 x i8] }
%"struct.v8::internal::wasm::SimdLaneImmediate" = type { i8, i32 }

$_ZN2v88internal4wasm11WasmDecoderILNS1_7Decoder12ValidateFlagE2EE12DecodeLocalsEPKhPjNS_4base8OptionalIjEE = comdat any

$_ZN2v88internal4wasm11WasmDecoderILNS1_7Decoder12ValidateFlagE2EED2Ev = comdat any

$_ZN2v88internal4wasm15WasmFullDecoderILNS1_7Decoder12ValidateFlagE2ENS1_14EmptyInterfaceEE6DecodeEv = comdat any

$_ZN2v88internal4wasm15WasmFullDecoderILNS1_7Decoder12ValidateFlagE2ENS1_14EmptyInterfaceEED2Ev = comdat any

$_ZN2v88internal4wasm11WasmDecoderILNS1_7Decoder12ValidateFlagE0EE12OpcodeLengthEPS5_PKh = comdat any

$_ZN2v88internal4wasm11WasmDecoderILNS1_7Decoder12ValidateFlagE0EED2Ev = comdat any

$_ZN2v88internal4wasm11WasmDecoderILNS1_7Decoder12ValidateFlagE0EE11StackEffectEPKh = comdat any

$_ZN2v88internal12StdoutStreamD1Ev = comdat any

$_ZNK2v88internal4wasm9ValueType4nameEv = comdat any

$_ZN2v88internal4wasm17value_type_reader15read_value_typeILNS1_7Decoder12ValidateFlagE0EEENS1_9ValueTypeEPS4_PKhPjPKNS1_10WasmModuleERKNS1_12WasmFeaturesE = comdat any

$_ZN2v88internal4wasm11WasmOpcodes10OpcodeNameENS1_10WasmOpcodeE = comdat any

$_ZN2v88internal4wasm11WasmDecoderILNS1_7Decoder12ValidateFlagE2EE21AnalyzeLoopAssignmentEPS5_PKhjPNS0_4ZoneE = comdat any

$_ZN2v88internal4wasm16BytecodeIteratorD0Ev = comdat any

$_ZN2v88internal4wasm7Decoder12onFirstErrorEv = comdat any

$_ZNSt3__16vectorIN2v88internal4wasm9ValueTypeENS2_13ZoneAllocatorIS4_EEE6assignINS_13move_iteratorINS_11__wrap_iterIPS4_EEEEEENS_9enable_ifIXaasr27__is_cpp17_forward_iteratorIT_EE5valuesr16is_constructibleIS4_NS_15iterator_traitsISF_E9referenceEEE5valueEvE4typeESF_SF_ = comdat any

$_ZN2v88internal4wasm11WasmDecoderILNS1_7Decoder12ValidateFlagE2EED0Ev = comdat any

$_ZN2v88internal4wasm7DecoderD2Ev = comdat any

$_ZN2v88internal4wasm7DecoderD0Ev = comdat any

$_ZN2v88internal4wasm15WasmFullDecoderILNS1_7Decoder12ValidateFlagE2ENS1_14EmptyInterfaceEED0Ev = comdat any

$_ZN2v88internal4wasm15WasmFullDecoderILNS1_7Decoder12ValidateFlagE2ENS1_14EmptyInterfaceEE12onFirstErrorEv = comdat any

$_ZN2v88internal4wasm11WasmDecoderILNS1_7Decoder12ValidateFlagE0EED0Ev = comdat any

$_ZN2v88internal8OFStreamD1Ev = comdat any

$_ZN2v88internal8OFStreamD0Ev = comdat any

$_ZTv0_n24_N2v88internal8OFStreamD1Ev = comdat any

$_ZTv0_n24_N2v88internal8OFStreamD0Ev = comdat any

$_ZN2v88internal12StdoutStreamD0Ev = comdat any

$_ZTv0_n24_N2v88internal12StdoutStreamD1Ev = comdat any

$_ZTv0_n24_N2v88internal12StdoutStreamD0Ev = comdat any

$_ZN2v88internal4wasm7Decoder17read_leb_slowpathIjLNS2_12ValidateFlagE0ELNS2_9TraceFlagE0ELm32EEET_PKhPjPKc = comdat any

$_ZNSt3__124__put_character_sequenceIcNS_11char_traitsIcEEEERNS_13basic_ostreamIT_T0_EES7_PKS4_m = comdat any

$_ZNSt3__116__pad_and_outputIcNS_11char_traitsIcEEEENS_19ostreambuf_iteratorIT_T0_EES6_PKS4_S8_S8_RNS_8ios_baseES4_ = comdat any

$_ZN2v88internal4wasm17value_type_reader15read_value_typeILNS1_7Decoder12ValidateFlagE2EEENS1_9ValueTypeEPS4_PKhPjPKNS1_10WasmModuleERKNS1_12WasmFeaturesE = comdat any

$_ZNSt3__16vectorIN2v88internal4wasm9ValueTypeENS2_13ZoneAllocatorIS4_EEE6insertENS_11__wrap_iterIPKS4_EEmRS9_ = comdat any

$_ZN2v88internal4wasm7Decoder17read_leb_slowpathIjLNS2_12ValidateFlagE2ELNS2_9TraceFlagE0ELm32EEET_PKhPjPKc = comdat any

$_ZN2v88internal4wasm7Decoder6errorfEPKhPKcz = comdat any

$_ZN2v88internal4wasm7Decoder5errorEPKhPKc = comdat any

$_ZN2v88internal4wasm7Decoder6errorfEjPKcz = comdat any

$_ZN2v88internal4wasm7Decoder7verrorfEjPKcP13__va_list_tag = comdat any

$_ZN2v88internal4wasm17value_type_reader14read_heap_typeILNS1_7Decoder12ValidateFlagE2EEENS1_8HeapTypeEPS4_PKhPjPKNS1_10WasmModuleERKNS1_12WasmFeaturesE = comdat any

$_ZN2v88internal4wasm7Decoder17read_leb_slowpathIlLNS2_12ValidateFlagE2ELNS2_9TraceFlagE0ELm33EEET_PKhPjPKc = comdat any

$_ZN2v88internal4wasm15WasmFullDecoderILNS1_7Decoder12ValidateFlagE2ENS1_14EmptyInterfaceEE18DecodeFunctionBodyEv = comdat any

$_ZNSt3__16vectorIN2v88internal4wasm9ValueTypeENS2_13ZoneAllocatorIS4_EEE6assignIPKS4_EENS_9enable_ifIXaasr27__is_cpp17_forward_iteratorIT_EE5valuesr16is_constructibleIS4_NS_15iterator_traitsISC_E9referenceEEE5valueEvE4typeESC_SC_ = comdat any

$_ZN2v88internal4wasm7Decoder6errorfEPKcz = comdat any

$_ZN2v88internal4wasm15WasmFullDecoderILNS1_7Decoder12ValidateFlagE2ENS1_14EmptyInterfaceEE14DecodeLocalGetEPS6_NS1_10WasmOpcodeE = comdat any

$_ZN2v88internal4wasm15WasmFullDecoderILNS1_7Decoder12ValidateFlagE2ENS1_14EmptyInterfaceEE14DecodeI32ConstEPS6_NS1_10WasmOpcodeE = comdat any

$_ZNSt3__16vectorIN2v88internal4wasm11ControlBaseINS3_9ValueBaseILNS3_7Decoder12ValidateFlagE2EEELS7_2EEENS2_13ZoneAllocatorIS9_EEE24__emplace_back_slow_pathIJNS3_11ControlKindEiiRPKhNS3_12ReachabilityEEEEvDpOT_ = comdat any

$_ZN2v88internal4wasm15WasmFullDecoderILNS1_7Decoder12ValidateFlagE2ENS1_14EmptyInterfaceEE14GrowStackSpaceEi = comdat any

$_ZN2v88internal4wasm7Decoder17read_leb_slowpathIiLNS2_12ValidateFlagE2ELNS2_9TraceFlagE0ELm32EEET_PKhPjPKc = comdat any

$_ZN2v88internal4wasm15WasmFullDecoderILNS1_7Decoder12ValidateFlagE2ENS1_14EmptyInterfaceEE17DecodeUnreachableEPS6_NS1_10WasmOpcodeE = comdat any

$_ZN2v88internal4wasm15WasmFullDecoderILNS1_7Decoder12ValidateFlagE2ENS1_14EmptyInterfaceEE9DecodeNopEPS6_NS1_10WasmOpcodeE = comdat any

$_ZN2v88internal4wasm15WasmFullDecoderILNS1_7Decoder12ValidateFlagE2ENS1_14EmptyInterfaceEE11DecodeBlockEPS6_NS1_10WasmOpcodeE = comdat any

$_ZN2v88internal4wasm15WasmFullDecoderILNS1_7Decoder12ValidateFlagE2ENS1_14EmptyInterfaceEE10DecodeLoopEPS6_NS1_10WasmOpcodeE = comdat any

$_ZN2v88internal4wasm15WasmFullDecoderILNS1_7Decoder12ValidateFlagE2ENS1_14EmptyInterfaceEE8DecodeIfEPS6_NS1_10WasmOpcodeE = comdat any

$_ZN2v88internal4wasm15WasmFullDecoderILNS1_7Decoder12ValidateFlagE2ENS1_14EmptyInterfaceEE10DecodeElseEPS6_NS1_10WasmOpcodeE = comdat any

$_ZN2v88internal4wasm15WasmFullDecoderILNS1_7Decoder12ValidateFlagE2ENS1_14EmptyInterfaceEE9DecodeTryEPS6_NS1_10WasmOpcodeE = comdat any

$_ZN2v88internal4wasm15WasmFullDecoderILNS1_7Decoder12ValidateFlagE2ENS1_14EmptyInterfaceEE11DecodeCatchEPS6_NS1_10WasmOpcodeE = comdat any

$_ZN2v88internal4wasm15WasmFullDecoderILNS1_7Decoder12ValidateFlagE2ENS1_14EmptyInterfaceEE11DecodeThrowEPS6_NS1_10WasmOpcodeE = comdat any

$_ZN2v88internal4wasm15WasmFullDecoderILNS1_7Decoder12ValidateFlagE2ENS1_14EmptyInterfaceEE13DecodeRethrowEPS6_NS1_10WasmOpcodeE = comdat any

$_ZN2v88internal4wasm15WasmFullDecoderILNS1_7Decoder12ValidateFlagE2ENS1_14EmptyInterfaceEE12DecodeUnwindEPS6_NS1_10WasmOpcodeE = comdat any

$_ZN2v88internal4wasm15WasmFullDecoderILNS1_7Decoder12ValidateFlagE2ENS1_14EmptyInterfaceEE9DecodeEndEPS6_NS1_10WasmOpcodeE = comdat any

$_ZN2v88internal4wasm15WasmFullDecoderILNS1_7Decoder12ValidateFlagE2ENS1_14EmptyInterfaceEE8DecodeBrEPS6_NS1_10WasmOpcodeE = comdat any

$_ZN2v88internal4wasm15WasmFullDecoderILNS1_7Decoder12ValidateFlagE2ENS1_14EmptyInterfaceEE10DecodeBrIfEPS6_NS1_10WasmOpcodeE = comdat any

$_ZN2v88internal4wasm15WasmFullDecoderILNS1_7Decoder12ValidateFlagE2ENS1_14EmptyInterfaceEE13DecodeBrTableEPS6_NS1_10WasmOpcodeE = comdat any

$_ZN2v88internal4wasm15WasmFullDecoderILNS1_7Decoder12ValidateFlagE2ENS1_14EmptyInterfaceEE12DecodeReturnEPS6_NS1_10WasmOpcodeE = comdat any

$_ZN2v88internal4wasm15WasmFullDecoderILNS1_7Decoder12ValidateFlagE2ENS1_14EmptyInterfaceEE18DecodeCallFunctionEPS6_NS1_10WasmOpcodeE = comdat any

$_ZN2v88internal4wasm15WasmFullDecoderILNS1_7Decoder12ValidateFlagE2ENS1_14EmptyInterfaceEE18DecodeCallIndirectEPS6_NS1_10WasmOpcodeE = comdat any

$_ZN2v88internal4wasm15WasmFullDecoderILNS1_7Decoder12ValidateFlagE2ENS1_14EmptyInterfaceEE16DecodeReturnCallEPS6_NS1_10WasmOpcodeE = comdat any

$_ZN2v88internal4wasm15WasmFullDecoderILNS1_7Decoder12ValidateFlagE2ENS1_14EmptyInterfaceEE24DecodeReturnCallIndirectEPS6_NS1_10WasmOpcodeE = comdat any

$_ZN2v88internal4wasm15WasmFullDecoderILNS1_7Decoder12ValidateFlagE2ENS1_14EmptyInterfaceEE13DecodeCallRefEPS6_NS1_10WasmOpcodeE = comdat any

$_ZN2v88internal4wasm15WasmFullDecoderILNS1_7Decoder12ValidateFlagE2ENS1_14EmptyInterfaceEE19DecodeReturnCallRefEPS6_NS1_10WasmOpcodeE = comdat any

$_ZN2v88internal4wasm15WasmFullDecoderILNS1_7Decoder12ValidateFlagE2ENS1_14EmptyInterfaceEE39DecodeNopForTestingUnsupportedInLiftoffEPS6_NS1_10WasmOpcodeE = comdat any

$_ZN2v88internal4wasm15WasmFullDecoderILNS1_7Decoder12ValidateFlagE2ENS1_14EmptyInterfaceEE9DecodeLetEPS6_NS1_10WasmOpcodeE = comdat any

$_ZN2v88internal4wasm15WasmFullDecoderILNS1_7Decoder12ValidateFlagE2ENS1_14EmptyInterfaceEE14DecodeDelegateEPS6_NS1_10WasmOpcodeE = comdat any

$_ZN2v88internal4wasm15WasmFullDecoderILNS1_7Decoder12ValidateFlagE2ENS1_14EmptyInterfaceEE14DecodeCatchAllEPS6_NS1_10WasmOpcodeE = comdat any

$_ZN2v88internal4wasm15WasmFullDecoderILNS1_7Decoder12ValidateFlagE2ENS1_14EmptyInterfaceEE10DecodeDropEPS6_NS1_10WasmOpcodeE = comdat any

$_ZN2v88internal4wasm15WasmFullDecoderILNS1_7Decoder12ValidateFlagE2ENS1_14EmptyInterfaceEE12DecodeSelectEPS6_NS1_10WasmOpcodeE = comdat any

$_ZN2v88internal4wasm15WasmFullDecoderILNS1_7Decoder12ValidateFlagE2ENS1_14EmptyInterfaceEE20DecodeSelectWithTypeEPS6_NS1_10WasmOpcodeE = comdat any

$_ZN2v88internal4wasm15WasmFullDecoderILNS1_7Decoder12ValidateFlagE2ENS1_14EmptyInterfaceEE20DecodeUnknownOrAsmJsEPS6_NS1_10WasmOpcodeE = comdat any

$_ZN2v88internal4wasm15WasmFullDecoderILNS1_7Decoder12ValidateFlagE2ENS1_14EmptyInterfaceEE14DecodeLocalSetEPS6_NS1_10WasmOpcodeE = comdat any

$_ZN2v88internal4wasm15WasmFullDecoderILNS1_7Decoder12ValidateFlagE2ENS1_14EmptyInterfaceEE14DecodeLocalTeeEPS6_NS1_10WasmOpcodeE = comdat any

$_ZN2v88internal4wasm15WasmFullDecoderILNS1_7Decoder12ValidateFlagE2ENS1_14EmptyInterfaceEE15DecodeGlobalGetEPS6_NS1_10WasmOpcodeE = comdat any

$_ZN2v88internal4wasm15WasmFullDecoderILNS1_7Decoder12ValidateFlagE2ENS1_14EmptyInterfaceEE15DecodeGlobalSetEPS6_NS1_10WasmOpcodeE = comdat any

$_ZN2v88internal4wasm15WasmFullDecoderILNS1_7Decoder12ValidateFlagE2ENS1_14EmptyInterfaceEE14DecodeTableGetEPS6_NS1_10WasmOpcodeE = comdat any

$_ZN2v88internal4wasm15WasmFullDecoderILNS1_7Decoder12ValidateFlagE2ENS1_14EmptyInterfaceEE14DecodeTableSetEPS6_NS1_10WasmOpcodeE = comdat any

$_ZN2v88internal4wasm15WasmFullDecoderILNS1_7Decoder12ValidateFlagE2ENS1_14EmptyInterfaceEE13DecodeLoadMemEPS6_NS1_10WasmOpcodeE = comdat any

$_ZN2v88internal4wasm15WasmFullDecoderILNS1_7Decoder12ValidateFlagE2ENS1_14EmptyInterfaceEE14DecodeStoreMemEPS6_NS1_10WasmOpcodeE = comdat any

$_ZN2v88internal4wasm15WasmFullDecoderILNS1_7Decoder12ValidateFlagE2ENS1_14EmptyInterfaceEE16DecodeMemorySizeEPS6_NS1_10WasmOpcodeE = comdat any

$_ZN2v88internal4wasm15WasmFullDecoderILNS1_7Decoder12ValidateFlagE2ENS1_14EmptyInterfaceEE16DecodeMemoryGrowEPS6_NS1_10WasmOpcodeE = comdat any

$_ZN2v88internal4wasm15WasmFullDecoderILNS1_7Decoder12ValidateFlagE2ENS1_14EmptyInterfaceEE14DecodeI64ConstEPS6_NS1_10WasmOpcodeE = comdat any

$_ZN2v88internal4wasm15WasmFullDecoderILNS1_7Decoder12ValidateFlagE2ENS1_14EmptyInterfaceEE14DecodeF32ConstEPS6_NS1_10WasmOpcodeE = comdat any

$_ZN2v88internal4wasm15WasmFullDecoderILNS1_7Decoder12ValidateFlagE2ENS1_14EmptyInterfaceEE14DecodeF64ConstEPS6_NS1_10WasmOpcodeE = comdat any

$_ZN2v88internal4wasm15WasmFullDecoderILNS1_7Decoder12ValidateFlagE2ENS1_14EmptyInterfaceEE12DecodeI32EqzEPS6_NS1_10WasmOpcodeE = comdat any

$_ZN2v88internal4wasm15WasmFullDecoderILNS1_7Decoder12ValidateFlagE2ENS1_14EmptyInterfaceEE11DecodeI32EqEPS6_NS1_10WasmOpcodeE = comdat any

$_ZN2v88internal4wasm15WasmFullDecoderILNS1_7Decoder12ValidateFlagE2ENS1_14EmptyInterfaceEE11DecodeI32NeEPS6_NS1_10WasmOpcodeE = comdat any

$_ZN2v88internal4wasm15WasmFullDecoderILNS1_7Decoder12ValidateFlagE2ENS1_14EmptyInterfaceEE12DecodeI32LtSEPS6_NS1_10WasmOpcodeE = comdat any

$_ZN2v88internal4wasm15WasmFullDecoderILNS1_7Decoder12ValidateFlagE2ENS1_14EmptyInterfaceEE12DecodeI32LtUEPS6_NS1_10WasmOpcodeE = comdat any

$_ZN2v88internal4wasm15WasmFullDecoderILNS1_7Decoder12ValidateFlagE2ENS1_14EmptyInterfaceEE12DecodeI32GtSEPS6_NS1_10WasmOpcodeE = comdat any

$_ZN2v88internal4wasm15WasmFullDecoderILNS1_7Decoder12ValidateFlagE2ENS1_14EmptyInterfaceEE12DecodeI32GtUEPS6_NS1_10WasmOpcodeE = comdat any

$_ZN2v88internal4wasm15WasmFullDecoderILNS1_7Decoder12ValidateFlagE2ENS1_14EmptyInterfaceEE12DecodeI32LeSEPS6_NS1_10WasmOpcodeE = comdat any

$_ZN2v88internal4wasm15WasmFullDecoderILNS1_7Decoder12ValidateFlagE2ENS1_14EmptyInterfaceEE12DecodeI32LeUEPS6_NS1_10WasmOpcodeE = comdat any

$_ZN2v88internal4wasm15WasmFullDecoderILNS1_7Decoder12ValidateFlagE2ENS1_14EmptyInterfaceEE12DecodeI32GeSEPS6_NS1_10WasmOpcodeE = comdat any

$_ZN2v88internal4wasm15WasmFullDecoderILNS1_7Decoder12ValidateFlagE2ENS1_14EmptyInterfaceEE12DecodeI32GeUEPS6_NS1_10WasmOpcodeE = comdat any

$_ZN2v88internal4wasm15WasmFullDecoderILNS1_7Decoder12ValidateFlagE2ENS1_14EmptyInterfaceEE12DecodeI64EqzEPS6_NS1_10WasmOpcodeE = comdat any

$_ZN2v88internal4wasm15WasmFullDecoderILNS1_7Decoder12ValidateFlagE2ENS1_14EmptyInterfaceEE11DecodeI64EqEPS6_NS1_10WasmOpcodeE = comdat any

$_ZN2v88internal4wasm15WasmFullDecoderILNS1_7Decoder12ValidateFlagE2ENS1_14EmptyInterfaceEE11DecodeI64NeEPS6_NS1_10WasmOpcodeE = comdat any

$_ZN2v88internal4wasm15WasmFullDecoderILNS1_7Decoder12ValidateFlagE2ENS1_14EmptyInterfaceEE12DecodeI64LtSEPS6_NS1_10WasmOpcodeE = comdat any

$_ZN2v88internal4wasm15WasmFullDecoderILNS1_7Decoder12ValidateFlagE2ENS1_14EmptyInterfaceEE12DecodeI64LtUEPS6_NS1_10WasmOpcodeE = comdat any

$_ZN2v88internal4wasm15WasmFullDecoderILNS1_7Decoder12ValidateFlagE2ENS1_14EmptyInterfaceEE12DecodeI64GtSEPS6_NS1_10WasmOpcodeE = comdat any

$_ZN2v88internal4wasm15WasmFullDecoderILNS1_7Decoder12ValidateFlagE2ENS1_14EmptyInterfaceEE12DecodeI64GtUEPS6_NS1_10WasmOpcodeE = comdat any

$_ZN2v88internal4wasm15WasmFullDecoderILNS1_7Decoder12ValidateFlagE2ENS1_14EmptyInterfaceEE12DecodeI64LeSEPS6_NS1_10WasmOpcodeE = comdat any

$_ZN2v88internal4wasm15WasmFullDecoderILNS1_7Decoder12ValidateFlagE2ENS1_14EmptyInterfaceEE12DecodeI64LeUEPS6_NS1_10WasmOpcodeE = comdat any

$_ZN2v88internal4wasm15WasmFullDecoderILNS1_7Decoder12ValidateFlagE2ENS1_14EmptyInterfaceEE12DecodeI64GeSEPS6_NS1_10WasmOpcodeE = comdat any

$_ZN2v88internal4wasm15WasmFullDecoderILNS1_7Decoder12ValidateFlagE2ENS1_14EmptyInterfaceEE12DecodeI64GeUEPS6_NS1_10WasmOpcodeE = comdat any

$_ZN2v88internal4wasm15WasmFullDecoderILNS1_7Decoder12ValidateFlagE2ENS1_14EmptyInterfaceEE11DecodeF32EqEPS6_NS1_10WasmOpcodeE = comdat any

$_ZN2v88internal4wasm15WasmFullDecoderILNS1_7Decoder12ValidateFlagE2ENS1_14EmptyInterfaceEE11DecodeF32NeEPS6_NS1_10WasmOpcodeE = comdat any

$_ZN2v88internal4wasm15WasmFullDecoderILNS1_7Decoder12ValidateFlagE2ENS1_14EmptyInterfaceEE11DecodeF32LtEPS6_NS1_10WasmOpcodeE = comdat any

$_ZN2v88internal4wasm15WasmFullDecoderILNS1_7Decoder12ValidateFlagE2ENS1_14EmptyInterfaceEE11DecodeF32GtEPS6_NS1_10WasmOpcodeE = comdat any

$_ZN2v88internal4wasm15WasmFullDecoderILNS1_7Decoder12ValidateFlagE2ENS1_14EmptyInterfaceEE11DecodeF32LeEPS6_NS1_10WasmOpcodeE = comdat any

$_ZN2v88internal4wasm15WasmFullDecoderILNS1_7Decoder12ValidateFlagE2ENS1_14EmptyInterfaceEE11DecodeF32GeEPS6_NS1_10WasmOpcodeE = comdat any

$_ZN2v88internal4wasm15WasmFullDecoderILNS1_7Decoder12ValidateFlagE2ENS1_14EmptyInterfaceEE11DecodeF64EqEPS6_NS1_10WasmOpcodeE = comdat any

$_ZN2v88internal4wasm15WasmFullDecoderILNS1_7Decoder12ValidateFlagE2ENS1_14EmptyInterfaceEE11DecodeF64NeEPS6_NS1_10WasmOpcodeE = comdat any

$_ZN2v88internal4wasm15WasmFullDecoderILNS1_7Decoder12ValidateFlagE2ENS1_14EmptyInterfaceEE11DecodeF64LtEPS6_NS1_10WasmOpcodeE = comdat any

$_ZN2v88internal4wasm15WasmFullDecoderILNS1_7Decoder12ValidateFlagE2ENS1_14EmptyInterfaceEE11DecodeF64GtEPS6_NS1_10WasmOpcodeE = comdat any

$_ZN2v88internal4wasm15WasmFullDecoderILNS1_7Decoder12ValidateFlagE2ENS1_14EmptyInterfaceEE11DecodeF64LeEPS6_NS1_10WasmOpcodeE = comdat any

$_ZN2v88internal4wasm15WasmFullDecoderILNS1_7Decoder12ValidateFlagE2ENS1_14EmptyInterfaceEE11DecodeF64GeEPS6_NS1_10WasmOpcodeE = comdat any

$_ZN2v88internal4wasm15WasmFullDecoderILNS1_7Decoder12ValidateFlagE2ENS1_14EmptyInterfaceEE12DecodeI32ClzEPS6_NS1_10WasmOpcodeE = comdat any

$_ZN2v88internal4wasm15WasmFullDecoderILNS1_7Decoder12ValidateFlagE2ENS1_14EmptyInterfaceEE12DecodeI32CtzEPS6_NS1_10WasmOpcodeE = comdat any

$_ZN2v88internal4wasm15WasmFullDecoderILNS1_7Decoder12ValidateFlagE2ENS1_14EmptyInterfaceEE15DecodeI32PopcntEPS6_NS1_10WasmOpcodeE = comdat any

$_ZN2v88internal4wasm15WasmFullDecoderILNS1_7Decoder12ValidateFlagE2ENS1_14EmptyInterfaceEE12DecodeI32AddEPS6_NS1_10WasmOpcodeE = comdat any

$_ZN2v88internal4wasm15WasmFullDecoderILNS1_7Decoder12ValidateFlagE2ENS1_14EmptyInterfaceEE12DecodeI32SubEPS6_NS1_10WasmOpcodeE = comdat any

$_ZN2v88internal4wasm15WasmFullDecoderILNS1_7Decoder12ValidateFlagE2ENS1_14EmptyInterfaceEE12DecodeI32MulEPS6_NS1_10WasmOpcodeE = comdat any

$_ZN2v88internal4wasm15WasmFullDecoderILNS1_7Decoder12ValidateFlagE2ENS1_14EmptyInterfaceEE13DecodeI32DivSEPS6_NS1_10WasmOpcodeE = comdat any

$_ZN2v88internal4wasm15WasmFullDecoderILNS1_7Decoder12ValidateFlagE2ENS1_14EmptyInterfaceEE13DecodeI32DivUEPS6_NS1_10WasmOpcodeE = comdat any

$_ZN2v88internal4wasm15WasmFullDecoderILNS1_7Decoder12ValidateFlagE2ENS1_14EmptyInterfaceEE13DecodeI32RemSEPS6_NS1_10WasmOpcodeE = comdat any

$_ZN2v88internal4wasm15WasmFullDecoderILNS1_7Decoder12ValidateFlagE2ENS1_14EmptyInterfaceEE13DecodeI32RemUEPS6_NS1_10WasmOpcodeE = comdat any

$_ZN2v88internal4wasm15WasmFullDecoderILNS1_7Decoder12ValidateFlagE2ENS1_14EmptyInterfaceEE12DecodeI32AndEPS6_NS1_10WasmOpcodeE = comdat any

$_ZN2v88internal4wasm15WasmFullDecoderILNS1_7Decoder12ValidateFlagE2ENS1_14EmptyInterfaceEE12DecodeI32IorEPS6_NS1_10WasmOpcodeE = comdat any

$_ZN2v88internal4wasm15WasmFullDecoderILNS1_7Decoder12ValidateFlagE2ENS1_14EmptyInterfaceEE12DecodeI32XorEPS6_NS1_10WasmOpcodeE = comdat any

$_ZN2v88internal4wasm15WasmFullDecoderILNS1_7Decoder12ValidateFlagE2ENS1_14EmptyInterfaceEE12DecodeI32ShlEPS6_NS1_10WasmOpcodeE = comdat any

$_ZN2v88internal4wasm15WasmFullDecoderILNS1_7Decoder12ValidateFlagE2ENS1_14EmptyInterfaceEE13DecodeI32ShrSEPS6_NS1_10WasmOpcodeE = comdat any

$_ZN2v88internal4wasm15WasmFullDecoderILNS1_7Decoder12ValidateFlagE2ENS1_14EmptyInterfaceEE13DecodeI32ShrUEPS6_NS1_10WasmOpcodeE = comdat any

$_ZN2v88internal4wasm15WasmFullDecoderILNS1_7Decoder12ValidateFlagE2ENS1_14EmptyInterfaceEE12DecodeI32RolEPS6_NS1_10WasmOpcodeE = comdat any

$_ZN2v88internal4wasm15WasmFullDecoderILNS1_7Decoder12ValidateFlagE2ENS1_14EmptyInterfaceEE12DecodeI32RorEPS6_NS1_10WasmOpcodeE = comdat any

$_ZN2v88internal4wasm15WasmFullDecoderILNS1_7Decoder12ValidateFlagE2ENS1_14EmptyInterfaceEE12DecodeI64ClzEPS6_NS1_10WasmOpcodeE = comdat any

$_ZN2v88internal4wasm15WasmFullDecoderILNS1_7Decoder12ValidateFlagE2ENS1_14EmptyInterfaceEE12DecodeI64CtzEPS6_NS1_10WasmOpcodeE = comdat any

$_ZN2v88internal4wasm15WasmFullDecoderILNS1_7Decoder12ValidateFlagE2ENS1_14EmptyInterfaceEE15DecodeI64PopcntEPS6_NS1_10WasmOpcodeE = comdat any

$_ZN2v88internal4wasm15WasmFullDecoderILNS1_7Decoder12ValidateFlagE2ENS1_14EmptyInterfaceEE12DecodeI64AddEPS6_NS1_10WasmOpcodeE = comdat any

$_ZN2v88internal4wasm15WasmFullDecoderILNS1_7Decoder12ValidateFlagE2ENS1_14EmptyInterfaceEE12DecodeI64SubEPS6_NS1_10WasmOpcodeE = comdat any

$_ZN2v88internal4wasm15WasmFullDecoderILNS1_7Decoder12ValidateFlagE2ENS1_14EmptyInterfaceEE12DecodeI64MulEPS6_NS1_10WasmOpcodeE = comdat any

$_ZN2v88internal4wasm15WasmFullDecoderILNS1_7Decoder12ValidateFlagE2ENS1_14EmptyInterfaceEE13DecodeI64DivSEPS6_NS1_10WasmOpcodeE = comdat any

$_ZN2v88internal4wasm15WasmFullDecoderILNS1_7Decoder12ValidateFlagE2ENS1_14EmptyInterfaceEE13DecodeI64DivUEPS6_NS1_10WasmOpcodeE = comdat any

$_ZN2v88internal4wasm15WasmFullDecoderILNS1_7Decoder12ValidateFlagE2ENS1_14EmptyInterfaceEE13DecodeI64RemSEPS6_NS1_10WasmOpcodeE = comdat any

$_ZN2v88internal4wasm15WasmFullDecoderILNS1_7Decoder12ValidateFlagE2ENS1_14EmptyInterfaceEE13DecodeI64RemUEPS6_NS1_10WasmOpcodeE = comdat any

$_ZN2v88internal4wasm15WasmFullDecoderILNS1_7Decoder12ValidateFlagE2ENS1_14EmptyInterfaceEE12DecodeI64AndEPS6_NS1_10WasmOpcodeE = comdat any

$_ZN2v88internal4wasm15WasmFullDecoderILNS1_7Decoder12ValidateFlagE2ENS1_14EmptyInterfaceEE12DecodeI64IorEPS6_NS1_10WasmOpcodeE = comdat any

$_ZN2v88internal4wasm15WasmFullDecoderILNS1_7Decoder12ValidateFlagE2ENS1_14EmptyInterfaceEE12DecodeI64XorEPS6_NS1_10WasmOpcodeE = comdat any

$_ZN2v88internal4wasm15WasmFullDecoderILNS1_7Decoder12ValidateFlagE2ENS1_14EmptyInterfaceEE12DecodeI64ShlEPS6_NS1_10WasmOpcodeE = comdat any

$_ZN2v88internal4wasm15WasmFullDecoderILNS1_7Decoder12ValidateFlagE2ENS1_14EmptyInterfaceEE13DecodeI64ShrSEPS6_NS1_10WasmOpcodeE = comdat any

$_ZN2v88internal4wasm15WasmFullDecoderILNS1_7Decoder12ValidateFlagE2ENS1_14EmptyInterfaceEE13DecodeI64ShrUEPS6_NS1_10WasmOpcodeE = comdat any

$_ZN2v88internal4wasm15WasmFullDecoderILNS1_7Decoder12ValidateFlagE2ENS1_14EmptyInterfaceEE12DecodeI64RolEPS6_NS1_10WasmOpcodeE = comdat any

$_ZN2v88internal4wasm15WasmFullDecoderILNS1_7Decoder12ValidateFlagE2ENS1_14EmptyInterfaceEE12DecodeI64RorEPS6_NS1_10WasmOpcodeE = comdat any

$_ZN2v88internal4wasm15WasmFullDecoderILNS1_7Decoder12ValidateFlagE2ENS1_14EmptyInterfaceEE12DecodeF32AbsEPS6_NS1_10WasmOpcodeE = comdat any

$_ZN2v88internal4wasm15WasmFullDecoderILNS1_7Decoder12ValidateFlagE2ENS1_14EmptyInterfaceEE12DecodeF32NegEPS6_NS1_10WasmOpcodeE = comdat any

$_ZN2v88internal4wasm15WasmFullDecoderILNS1_7Decoder12ValidateFlagE2ENS1_14EmptyInterfaceEE13DecodeF32CeilEPS6_NS1_10WasmOpcodeE = comdat any

$_ZN2v88internal4wasm15WasmFullDecoderILNS1_7Decoder12ValidateFlagE2ENS1_14EmptyInterfaceEE14DecodeF32FloorEPS6_NS1_10WasmOpcodeE = comdat any

$_ZN2v88internal4wasm15WasmFullDecoderILNS1_7Decoder12ValidateFlagE2ENS1_14EmptyInterfaceEE14DecodeF32TruncEPS6_NS1_10WasmOpcodeE = comdat any

$_ZN2v88internal4wasm15WasmFullDecoderILNS1_7Decoder12ValidateFlagE2ENS1_14EmptyInterfaceEE19DecodeF32NearestIntEPS6_NS1_10WasmOpcodeE = comdat any

$_ZN2v88internal4wasm15WasmFullDecoderILNS1_7Decoder12ValidateFlagE2ENS1_14EmptyInterfaceEE13DecodeF32SqrtEPS6_NS1_10WasmOpcodeE = comdat any

$_ZN2v88internal4wasm15WasmFullDecoderILNS1_7Decoder12ValidateFlagE2ENS1_14EmptyInterfaceEE12DecodeF32AddEPS6_NS1_10WasmOpcodeE = comdat any

$_ZN2v88internal4wasm15WasmFullDecoderILNS1_7Decoder12ValidateFlagE2ENS1_14EmptyInterfaceEE12DecodeF32SubEPS6_NS1_10WasmOpcodeE = comdat any

$_ZN2v88internal4wasm15WasmFullDecoderILNS1_7Decoder12ValidateFlagE2ENS1_14EmptyInterfaceEE12DecodeF32MulEPS6_NS1_10WasmOpcodeE = comdat any

$_ZN2v88internal4wasm15WasmFullDecoderILNS1_7Decoder12ValidateFlagE2ENS1_14EmptyInterfaceEE12DecodeF32DivEPS6_NS1_10WasmOpcodeE = comdat any

$_ZN2v88internal4wasm15WasmFullDecoderILNS1_7Decoder12ValidateFlagE2ENS1_14EmptyInterfaceEE12DecodeF32MinEPS6_NS1_10WasmOpcodeE = comdat any

$_ZN2v88internal4wasm15WasmFullDecoderILNS1_7Decoder12ValidateFlagE2ENS1_14EmptyInterfaceEE12DecodeF32MaxEPS6_NS1_10WasmOpcodeE = comdat any

$_ZN2v88internal4wasm15WasmFullDecoderILNS1_7Decoder12ValidateFlagE2ENS1_14EmptyInterfaceEE17DecodeF32CopySignEPS6_NS1_10WasmOpcodeE = comdat any

$_ZN2v88internal4wasm15WasmFullDecoderILNS1_7Decoder12ValidateFlagE2ENS1_14EmptyInterfaceEE12DecodeF64AbsEPS6_NS1_10WasmOpcodeE = comdat any

$_ZN2v88internal4wasm15WasmFullDecoderILNS1_7Decoder12ValidateFlagE2ENS1_14EmptyInterfaceEE12DecodeF64NegEPS6_NS1_10WasmOpcodeE = comdat any

$_ZN2v88internal4wasm15WasmFullDecoderILNS1_7Decoder12ValidateFlagE2ENS1_14EmptyInterfaceEE13DecodeF64CeilEPS6_NS1_10WasmOpcodeE = comdat any

$_ZN2v88internal4wasm15WasmFullDecoderILNS1_7Decoder12ValidateFlagE2ENS1_14EmptyInterfaceEE14DecodeF64FloorEPS6_NS1_10WasmOpcodeE = comdat any

$_ZN2v88internal4wasm15WasmFullDecoderILNS1_7Decoder12ValidateFlagE2ENS1_14EmptyInterfaceEE14DecodeF64TruncEPS6_NS1_10WasmOpcodeE = comdat any

$_ZN2v88internal4wasm15WasmFullDecoderILNS1_7Decoder12ValidateFlagE2ENS1_14EmptyInterfaceEE19DecodeF64NearestIntEPS6_NS1_10WasmOpcodeE = comdat any

$_ZN2v88internal4wasm15WasmFullDecoderILNS1_7Decoder12ValidateFlagE2ENS1_14EmptyInterfaceEE13DecodeF64SqrtEPS6_NS1_10WasmOpcodeE = comdat any

$_ZN2v88internal4wasm15WasmFullDecoderILNS1_7Decoder12ValidateFlagE2ENS1_14EmptyInterfaceEE12DecodeF64AddEPS6_NS1_10WasmOpcodeE = comdat any

$_ZN2v88internal4wasm15WasmFullDecoderILNS1_7Decoder12ValidateFlagE2ENS1_14EmptyInterfaceEE12DecodeF64SubEPS6_NS1_10WasmOpcodeE = comdat any

$_ZN2v88internal4wasm15WasmFullDecoderILNS1_7Decoder12ValidateFlagE2ENS1_14EmptyInterfaceEE12DecodeF64MulEPS6_NS1_10WasmOpcodeE = comdat any

$_ZN2v88internal4wasm15WasmFullDecoderILNS1_7Decoder12ValidateFlagE2ENS1_14EmptyInterfaceEE12DecodeF64DivEPS6_NS1_10WasmOpcodeE = comdat any

$_ZN2v88internal4wasm15WasmFullDecoderILNS1_7Decoder12ValidateFlagE2ENS1_14EmptyInterfaceEE12DecodeF64MinEPS6_NS1_10WasmOpcodeE = comdat any

$_ZN2v88internal4wasm15WasmFullDecoderILNS1_7Decoder12ValidateFlagE2ENS1_14EmptyInterfaceEE12DecodeF64MaxEPS6_NS1_10WasmOpcodeE = comdat any

$_ZN2v88internal4wasm15WasmFullDecoderILNS1_7Decoder12ValidateFlagE2ENS1_14EmptyInterfaceEE17DecodeF64CopySignEPS6_NS1_10WasmOpcodeE = comdat any

$_ZN2v88internal4wasm15WasmFullDecoderILNS1_7Decoder12ValidateFlagE2ENS1_14EmptyInterfaceEE19DecodeI32ConvertI64EPS6_NS1_10WasmOpcodeE = comdat any

$_ZN2v88internal4wasm15WasmFullDecoderILNS1_7Decoder12ValidateFlagE2ENS1_14EmptyInterfaceEE20DecodeI32SConvertF32EPS6_NS1_10WasmOpcodeE = comdat any

$_ZN2v88internal4wasm15WasmFullDecoderILNS1_7Decoder12ValidateFlagE2ENS1_14EmptyInterfaceEE20DecodeI32UConvertF32EPS6_NS1_10WasmOpcodeE = comdat any

$_ZN2v88internal4wasm15WasmFullDecoderILNS1_7Decoder12ValidateFlagE2ENS1_14EmptyInterfaceEE20DecodeI32SConvertF64EPS6_NS1_10WasmOpcodeE = comdat any

$_ZN2v88internal4wasm15WasmFullDecoderILNS1_7Decoder12ValidateFlagE2ENS1_14EmptyInterfaceEE20DecodeI32UConvertF64EPS6_NS1_10WasmOpcodeE = comdat any

$_ZN2v88internal4wasm15WasmFullDecoderILNS1_7Decoder12ValidateFlagE2ENS1_14EmptyInterfaceEE20DecodeI64SConvertI32EPS6_NS1_10WasmOpcodeE = comdat any

$_ZN2v88internal4wasm15WasmFullDecoderILNS1_7Decoder12ValidateFlagE2ENS1_14EmptyInterfaceEE20DecodeI64UConvertI32EPS6_NS1_10WasmOpcodeE = comdat any

$_ZN2v88internal4wasm15WasmFullDecoderILNS1_7Decoder12ValidateFlagE2ENS1_14EmptyInterfaceEE20DecodeI64SConvertF32EPS6_NS1_10WasmOpcodeE = comdat any

$_ZN2v88internal4wasm15WasmFullDecoderILNS1_7Decoder12ValidateFlagE2ENS1_14EmptyInterfaceEE20DecodeI64UConvertF32EPS6_NS1_10WasmOpcodeE = comdat any

$_ZN2v88internal4wasm15WasmFullDecoderILNS1_7Decoder12ValidateFlagE2ENS1_14EmptyInterfaceEE20DecodeI64SConvertF64EPS6_NS1_10WasmOpcodeE = comdat any

$_ZN2v88internal4wasm15WasmFullDecoderILNS1_7Decoder12ValidateFlagE2ENS1_14EmptyInterfaceEE20DecodeI64UConvertF64EPS6_NS1_10WasmOpcodeE = comdat any

$_ZN2v88internal4wasm15WasmFullDecoderILNS1_7Decoder12ValidateFlagE2ENS1_14EmptyInterfaceEE20DecodeF32SConvertI32EPS6_NS1_10WasmOpcodeE = comdat any

$_ZN2v88internal4wasm15WasmFullDecoderILNS1_7Decoder12ValidateFlagE2ENS1_14EmptyInterfaceEE20DecodeF32UConvertI32EPS6_NS1_10WasmOpcodeE = comdat any

$_ZN2v88internal4wasm15WasmFullDecoderILNS1_7Decoder12ValidateFlagE2ENS1_14EmptyInterfaceEE20DecodeF32SConvertI64EPS6_NS1_10WasmOpcodeE = comdat any

$_ZN2v88internal4wasm15WasmFullDecoderILNS1_7Decoder12ValidateFlagE2ENS1_14EmptyInterfaceEE20DecodeF32UConvertI64EPS6_NS1_10WasmOpcodeE = comdat any

$_ZN2v88internal4wasm15WasmFullDecoderILNS1_7Decoder12ValidateFlagE2ENS1_14EmptyInterfaceEE19DecodeF32ConvertF64EPS6_NS1_10WasmOpcodeE = comdat any

$_ZN2v88internal4wasm15WasmFullDecoderILNS1_7Decoder12ValidateFlagE2ENS1_14EmptyInterfaceEE20DecodeF64SConvertI32EPS6_NS1_10WasmOpcodeE = comdat any

$_ZN2v88internal4wasm15WasmFullDecoderILNS1_7Decoder12ValidateFlagE2ENS1_14EmptyInterfaceEE20DecodeF64UConvertI32EPS6_NS1_10WasmOpcodeE = comdat any

$_ZN2v88internal4wasm15WasmFullDecoderILNS1_7Decoder12ValidateFlagE2ENS1_14EmptyInterfaceEE20DecodeF64SConvertI64EPS6_NS1_10WasmOpcodeE = comdat any

$_ZN2v88internal4wasm15WasmFullDecoderILNS1_7Decoder12ValidateFlagE2ENS1_14EmptyInterfaceEE20DecodeF64UConvertI64EPS6_NS1_10WasmOpcodeE = comdat any

$_ZN2v88internal4wasm15WasmFullDecoderILNS1_7Decoder12ValidateFlagE2ENS1_14EmptyInterfaceEE19DecodeF64ConvertF32EPS6_NS1_10WasmOpcodeE = comdat any

$_ZN2v88internal4wasm15WasmFullDecoderILNS1_7Decoder12ValidateFlagE2ENS1_14EmptyInterfaceEE23DecodeI32ReinterpretF32EPS6_NS1_10WasmOpcodeE = comdat any

$_ZN2v88internal4wasm15WasmFullDecoderILNS1_7Decoder12ValidateFlagE2ENS1_14EmptyInterfaceEE23DecodeI64ReinterpretF64EPS6_NS1_10WasmOpcodeE = comdat any

$_ZN2v88internal4wasm15WasmFullDecoderILNS1_7Decoder12ValidateFlagE2ENS1_14EmptyInterfaceEE23DecodeF32ReinterpretI32EPS6_NS1_10WasmOpcodeE = comdat any

$_ZN2v88internal4wasm15WasmFullDecoderILNS1_7Decoder12ValidateFlagE2ENS1_14EmptyInterfaceEE23DecodeF64ReinterpretI64EPS6_NS1_10WasmOpcodeE = comdat any

$_ZN2v88internal4wasm15WasmFullDecoderILNS1_7Decoder12ValidateFlagE2ENS1_14EmptyInterfaceEE18DecodeI32SExtendI8EPS6_NS1_10WasmOpcodeE = comdat any

$_ZN2v88internal4wasm15WasmFullDecoderILNS1_7Decoder12ValidateFlagE2ENS1_14EmptyInterfaceEE19DecodeI32SExtendI16EPS6_NS1_10WasmOpcodeE = comdat any

$_ZN2v88internal4wasm15WasmFullDecoderILNS1_7Decoder12ValidateFlagE2ENS1_14EmptyInterfaceEE18DecodeI64SExtendI8EPS6_NS1_10WasmOpcodeE = comdat any

$_ZN2v88internal4wasm15WasmFullDecoderILNS1_7Decoder12ValidateFlagE2ENS1_14EmptyInterfaceEE19DecodeI64SExtendI16EPS6_NS1_10WasmOpcodeE = comdat any

$_ZN2v88internal4wasm15WasmFullDecoderILNS1_7Decoder12ValidateFlagE2ENS1_14EmptyInterfaceEE19DecodeI64SExtendI32EPS6_NS1_10WasmOpcodeE = comdat any

$_ZN2v88internal4wasm15WasmFullDecoderILNS1_7Decoder12ValidateFlagE2ENS1_14EmptyInterfaceEE13DecodeRefNullEPS6_NS1_10WasmOpcodeE = comdat any

$_ZN2v88internal4wasm15WasmFullDecoderILNS1_7Decoder12ValidateFlagE2ENS1_14EmptyInterfaceEE15DecodeRefIsNullEPS6_NS1_10WasmOpcodeE = comdat any

$_ZN2v88internal4wasm15WasmFullDecoderILNS1_7Decoder12ValidateFlagE2ENS1_14EmptyInterfaceEE13DecodeRefFuncEPS6_NS1_10WasmOpcodeE = comdat any

$_ZN2v88internal4wasm15WasmFullDecoderILNS1_7Decoder12ValidateFlagE2ENS1_14EmptyInterfaceEE18DecodeRefAsNonNullEPS6_NS1_10WasmOpcodeE = comdat any

$_ZN2v88internal4wasm15WasmFullDecoderILNS1_7Decoder12ValidateFlagE2ENS1_14EmptyInterfaceEE14DecodeBrOnNullEPS6_NS1_10WasmOpcodeE = comdat any

$_ZN2v88internal4wasm15WasmFullDecoderILNS1_7Decoder12ValidateFlagE2ENS1_14EmptyInterfaceEE11DecodeRefEqEPS6_NS1_10WasmOpcodeE = comdat any

$_ZN2v88internal4wasm15WasmFullDecoderILNS1_7Decoder12ValidateFlagE2ENS1_14EmptyInterfaceEE17DecodeBrOnNonNullEPS6_NS1_10WasmOpcodeE = comdat any

$_ZN2v88internal4wasm15WasmFullDecoderILNS1_7Decoder12ValidateFlagE2ENS1_14EmptyInterfaceEE8DecodeGCEPS6_NS1_10WasmOpcodeE = comdat any

$_ZN2v88internal4wasm15WasmFullDecoderILNS1_7Decoder12ValidateFlagE2ENS1_14EmptyInterfaceEE13DecodeNumericEPS6_NS1_10WasmOpcodeE = comdat any

$_ZN2v88internal4wasm15WasmFullDecoderILNS1_7Decoder12ValidateFlagE2ENS1_14EmptyInterfaceEE10DecodeSimdEPS6_NS1_10WasmOpcodeE = comdat any

$_ZN2v88internal4wasm15WasmFullDecoderILNS1_7Decoder12ValidateFlagE2ENS1_14EmptyInterfaceEE12DecodeAtomicEPS6_NS1_10WasmOpcodeE = comdat any

$_ZN2v88internal4wasm15WasmFullDecoderILNS1_7Decoder12ValidateFlagE2ENS1_14EmptyInterfaceEE11PushControlENS1_11ControlKindEjj = comdat any

$_ZN2v88internal4wasm15WasmFullDecoderILNS1_7Decoder12ValidateFlagE2ENS1_14EmptyInterfaceEE12SetBlockTypeEPNS1_11ControlBaseINS1_9ValueBaseILS4_2EEELS4_2EEERNS1_18BlockTypeImmediateILS4_2EEEPS9_ = comdat any

$_ZN2v88internal4wasm15WasmFullDecoderILNS1_7Decoder12ValidateFlagE2ENS1_14EmptyInterfaceEE25EnsureStackArguments_SlowEij = comdat any

$_ZN2v88internal4wasm15WasmFullDecoderILNS1_7Decoder12ValidateFlagE2ENS1_14EmptyInterfaceEE23NotEnoughArgumentsErrorEi = comdat any

$_ZN2v88internal4wasm15WasmFullDecoderILNS1_7Decoder12ValidateFlagE2ENS1_14EmptyInterfaceEE16SafeOpcodeNameAtEPKh = comdat any

$_ZN2v88internal4wasm15WasmFullDecoderILNS1_7Decoder12ValidateFlagE2ENS1_14EmptyInterfaceEE12PopTypeErrorEiNS1_9ValueBaseILS4_2EEENS1_9ValueTypeE = comdat any

$_ZN2v88internal4wasm15WasmFullDecoderILNS1_7Decoder12ValidateFlagE2ENS1_14EmptyInterfaceEE12PopTypeErrorEiNS1_9ValueBaseILS4_2EEEPKc = comdat any

$_ZNSt3__16vectorIN2v88internal4wasm11ControlBaseINS3_9ValueBaseILNS3_7Decoder12ValidateFlagE2EEELS7_2EEENS2_13ZoneAllocatorIS9_EEE24__emplace_back_slow_pathIJRNS3_11ControlKindERjSG_RPKhRNS3_12ReachabilityEEEEvDpOT_ = comdat any

$_ZN2v88internal4wasm15WasmFullDecoderILNS1_7Decoder12ValidateFlagE2ENS1_14EmptyInterfaceEE26TypeCheckStackAgainstMergeILNS6_22StackElementsCountModeE1ELb1ELNS6_9MergeTypeE2EEEbjPNS1_5MergeINS1_9ValueBaseILS4_2EEEEE = comdat any

$_ZN2v88internal4wasm7Decoder5errorEPKc = comdat any

$_ZN2v88internal4wasm15WasmFullDecoderILNS1_7Decoder12ValidateFlagE2ENS1_14EmptyInterfaceEE10PopControlEv = comdat any

$_ZN2v88internal4wasm15WasmFullDecoderILNS1_7Decoder12ValidateFlagE2ENS1_14EmptyInterfaceEE19TypeCheckOneArmedIfEPNS1_11ControlBaseINS1_9ValueBaseILS4_2EEELS4_2EEE = comdat any

$_ZN2v88internal4wasm15WasmFullDecoderILNS1_7Decoder12ValidateFlagE2ENS1_14EmptyInterfaceEE26TypeCheckStackAgainstMergeILNS6_22StackElementsCountModeE1ELb0ELNS6_9MergeTypeE2EEEbjPNS1_5MergeINS1_9ValueBaseILS4_2EEEEE = comdat any

$_ZN2v88internal4wasm15WasmFullDecoderILNS1_7Decoder12ValidateFlagE2ENS1_14EmptyInterfaceEE26TypeCheckStackAgainstMergeILNS6_22StackElementsCountModeE0ELb0ELNS6_9MergeTypeE0EEEbjPNS1_5MergeINS1_9ValueBaseILS4_2EEEEE = comdat any

$_ZN2v88internal4wasm15WasmFullDecoderILNS1_7Decoder12ValidateFlagE2ENS1_14EmptyInterfaceEE26TypeCheckStackAgainstMergeILNS6_22StackElementsCountModeE0ELb1ELNS6_9MergeTypeE0EEEbjPNS1_5MergeINS1_9ValueBaseILS4_2EEEEE = comdat any

$_ZN2v88internal4wasm15WasmFullDecoderILNS1_7Decoder12ValidateFlagE2ENS1_14EmptyInterfaceEE26TypeCheckStackAgainstMergeILNS6_22StackElementsCountModeE0ELb0ELNS6_9MergeTypeE1EEEbjPNS1_5MergeINS1_9ValueBaseILS4_2EEEEE = comdat any

$_ZN2v84base11SmallVectorINS_8internal4wasm9ValueBaseILNS3_7Decoder12ValidateFlagE2EEELm2EE4GrowEm = comdat any

$_ZN2v88internal4wasm11WasmDecoderILNS1_7Decoder12ValidateFlagE2EE8ValidateEPKhRNS1_21CallIndirectImmediateILS4_2EEE = comdat any

$_ZN2v88internal4wasm15WasmFullDecoderILNS1_7Decoder12ValidateFlagE2ENS1_14EmptyInterfaceEE19BuildSimpleOperatorENS1_10WasmOpcodeENS1_9ValueTypeES8_ = comdat any

$_ZN2v88internal4wasm15WasmFullDecoderILNS1_7Decoder12ValidateFlagE2ENS1_14EmptyInterfaceEE19BuildSimpleOperatorENS1_10WasmOpcodeENS1_9ValueTypeES8_S8_ = comdat any

$_ZN2v88internal4wasm15WasmFullDecoderILNS1_7Decoder12ValidateFlagE2ENS1_14EmptyInterfaceEE13DecodeLoadMemENS1_8LoadTypeEi = comdat any

$_ZN2v88internal4wasm7Decoder17read_leb_slowpathImLNS2_12ValidateFlagE2ELNS2_9TraceFlagE0ELm64EEET_PKhPjPKc = comdat any

$_ZN2v88internal4wasm15WasmFullDecoderILNS1_7Decoder12ValidateFlagE2ENS1_14EmptyInterfaceEE14DecodeStoreMemENS1_9StoreTypeEi = comdat any

$_ZN2v88internal4wasm7Decoder17read_leb_slowpathIlLNS2_12ValidateFlagE2ELNS2_9TraceFlagE0ELm64EEET_PKhPjPKc = comdat any

$_ZN2v88internal4wasm15WasmFullDecoderILNS1_7Decoder12ValidateFlagE2ENS1_14EmptyInterfaceEE28BuildSimplePrototypeOperatorENS1_10WasmOpcodeE = comdat any

$_ZN2v88internal4wasm15WasmFullDecoderILNS1_7Decoder12ValidateFlagE2ENS1_14EmptyInterfaceEE14DecodeGCOpcodeENS1_10WasmOpcodeEj = comdat any

$_ZN2v88internal4wasm15WasmFullDecoderILNS1_7Decoder12ValidateFlagE2ENS1_14EmptyInterfaceEE12PopTypeErrorEiNS1_9ValueBaseILS4_2EEENSt3__112basic_stringIcNS9_11char_traitsIcEENS9_9allocatorIcEEEE = comdat any

$_ZN2v88internal4wasm15WasmFullDecoderILNS1_7Decoder12ValidateFlagE2ENS1_14EmptyInterfaceEE19DecodeNumericOpcodeENS1_10WasmOpcodeEj = comdat any

$_ZN2v88internal4wasm11WasmDecoderILNS1_7Decoder12ValidateFlagE2EE8ValidateEPKhRNS1_18TableInitImmediateILS4_2EEE = comdat any

$_ZN2v88internal4wasm11WasmDecoderILNS1_7Decoder12ValidateFlagE2EE8ValidateEPKhRNS1_18TableCopyImmediateILS4_2EEE = comdat any

$_ZN2v88internal4wasm15WasmFullDecoderILNS1_7Decoder12ValidateFlagE2ENS1_14EmptyInterfaceEE16DecodeSimdOpcodeENS1_10WasmOpcodeEj = comdat any

$_ZN2v88internal4wasm15WasmFullDecoderILNS1_7Decoder12ValidateFlagE2ENS1_14EmptyInterfaceEE15SimdExtractLaneENS1_10WasmOpcodeENS1_9ValueTypeEj = comdat any

$_ZN2v88internal4wasm15WasmFullDecoderILNS1_7Decoder12ValidateFlagE2ENS1_14EmptyInterfaceEE15SimdReplaceLaneENS1_10WasmOpcodeENS1_9ValueTypeEj = comdat any

$_ZN2v88internal4wasm15WasmFullDecoderILNS1_7Decoder12ValidateFlagE2ENS1_14EmptyInterfaceEE17Simd8x16ShuffleOpEj = comdat any

$_ZN2v88internal4wasm15WasmFullDecoderILNS1_7Decoder12ValidateFlagE2ENS1_14EmptyInterfaceEE22DecodeLoadTransformMemENS1_8LoadTypeENS1_22LoadTransformationKindEj = comdat any

$_ZN2v88internal4wasm15WasmFullDecoderILNS1_7Decoder12ValidateFlagE2ENS1_14EmptyInterfaceEE14DecodeLoadLaneENS1_10WasmOpcodeENS1_8LoadTypeEj = comdat any

$_ZN2v88internal4wasm15WasmFullDecoderILNS1_7Decoder12ValidateFlagE2ENS1_14EmptyInterfaceEE15DecodeStoreLaneENS1_10WasmOpcodeENS1_9StoreTypeEj = comdat any

$_ZN2v88internal4wasm11WasmDecoderILNS1_7Decoder12ValidateFlagE2EE8ValidateEPKhNS1_10WasmOpcodeERNS1_17SimdLaneImmediateILS4_2EEE = comdat any

$_ZN2v88internal4wasm16Simd128ImmediateILNS1_7Decoder12ValidateFlagE2EEC2EPS3_PKh = comdat any

$_ZN2v88internal4wasm15WasmFullDecoderILNS1_7Decoder12ValidateFlagE2ENS1_14EmptyInterfaceEE18DecodeAtomicOpcodeENS1_10WasmOpcodeEj = comdat any

$_ZN2v88internal4wasm11WasmDecoderILNS1_7Decoder12ValidateFlagE0EE12DecodeLocalsEPKhPjNS_4base8OptionalIjEE = comdat any

$_ZN2v88internal4wasm7Decoder17read_leb_slowpathIiLNS2_12ValidateFlagE0ELNS2_9TraceFlagE0ELm32EEET_PKhPjPKc = comdat any

$_ZN2v88internal4wasm7Decoder17read_leb_slowpathIlLNS2_12ValidateFlagE0ELNS2_9TraceFlagE0ELm64EEET_PKhPjPKc = comdat any

$_ZN2v88internal4wasm7Decoder17read_leb_slowpathIlLNS2_12ValidateFlagE0ELNS2_9TraceFlagE0ELm33EEET_PKhPjPKc = comdat any

$_ZN2v88internal4wasm7Decoder17read_leb_slowpathImLNS2_12ValidateFlagE0ELNS2_9TraceFlagE0ELm64EEET_PKhPjPKc = comdat any

$_ZN2v88internal4Zone3NewINS0_9BitVectorEJjRPS1_EEEPT_DpOT0_ = comdat any

$_ZN2v88internal4wasm11WasmDecoderILNS1_7Decoder12ValidateFlagE2EE12OpcodeLengthEPS5_PKh = comdat any

$_ZN2v84base11SmallVectorIjLm8EE4GrowEm = comdat any

$_ZTVN2v88internal4wasm16BytecodeIteratorE = comdat any

$_ZTVN2v88internal4wasm11WasmDecoderILNS1_7Decoder12ValidateFlagE2EEE = comdat any

$_ZTVN2v88internal4wasm7DecoderE = comdat any

$_ZTVN2v88internal4wasm15WasmFullDecoderILNS1_7Decoder12ValidateFlagE2ENS1_14EmptyInterfaceEEE = comdat any

$_ZTVN2v88internal4wasm11WasmDecoderILNS1_7Decoder12ValidateFlagE0EEE = comdat any

$_ZTVN2v88internal12StdoutStreamE = comdat any

$_ZTTN2v88internal12StdoutStreamE = comdat any

$_ZTCN2v88internal12StdoutStreamE0_NS0_8OFStreamE = comdat any

$_ZTCN2v88internal12StdoutStreamE0_NSt3__113basic_ostreamIcNS1_11char_traitsIcEEEE = comdat any

$_ZTVN2v88internal8OFStreamE = comdat any

$_ZTTN2v88internal8OFStreamE = comdat any

$_ZTCN2v88internal8OFStreamE0_NSt3__113basic_ostreamIcNS1_11char_traitsIcEEEE = comdat any

$_ZZN2v88internal4wasm15WasmFullDecoderILNS1_7Decoder12ValidateFlagE2ENS1_14EmptyInterfaceEE16GetOpcodeHandlerEhE15kOpcodeHandlers = comdat any

$_ZZN2v88internal4wasm15WasmFullDecoderILNS1_7Decoder12ValidateFlagE2ENS1_14EmptyInterfaceEE17DecodeLoadMemImplEPNS6_9TraceLineENS1_10WasmOpcodeEE10kLoadTypes = comdat any

$_ZZN2v88internal4wasm15WasmFullDecoderILNS1_7Decoder12ValidateFlagE2ENS1_14EmptyInterfaceEE18DecodeStoreMemImplEPNS6_9TraceLineENS1_10WasmOpcodeEE11kStoreTypes = comdat any

@_ZTVN2v88internal4wasm16BytecodeIteratorE = linkonce_odr hidden unnamed_addr constant { [5 x i8*] } { [5 x i8*] [i8* null, i8* null, i8* bitcast (void (%"class.v8::internal::wasm::Decoder"*)* @_ZN2v88internal4wasm7DecoderD2Ev to i8*), i8* bitcast (void (%"class.v8::internal::wasm::BytecodeIterator"*)* @_ZN2v88internal4wasm16BytecodeIteratorD0Ev to i8*), i8* bitcast (void (%"class.v8::internal::wasm::Decoder"*)* @_ZN2v88internal4wasm7Decoder12onFirstErrorEv to i8*)] }, comdat, align 8
@__func__._ZN2v88internal4wasm14VerifyWasmCodeEPNS0_19AccountingAllocatorERKNS1_12WasmFeaturesEPKNS1_10WasmModuleEPS4_RKNS1_12FunctionBodyE = private unnamed_addr constant [15 x i8] c"VerifyWasmCode\00", align 1
@__func__._ZN2v88internal4wasm16PrintRawWasmCodeEPNS0_19AccountingAllocatorERKNS1_12FunctionBodyEPKNS1_10WasmModuleENS1_11PrintLocalsERNSt3__113basic_ostreamIcNSB_11char_traitsIcEEEEPNSB_6vectorIiNSB_9allocatorIiEEEE = private unnamed_addr constant [17 x i8] c"PrintRawWasmCode\00", align 1
@.str = private unnamed_addr constant [15 x i8] c"// signature: \00", align 1
@.str.1 = private unnamed_addr constant [11 x i8] c"// locals:\00", align 1
@.str.2 = private unnamed_addr constant [2 x i8] c" \00", align 1
@.str.3 = private unnamed_addr constant [3 x i8] c"0x\00", align 1
@.str.4 = private unnamed_addr constant [4 x i8] c" 0x\00", align 1
@.str.5 = private unnamed_addr constant [2 x i8] c",\00", align 1
@.str.6 = private unnamed_addr constant [9 x i8] c"// body:\00", align 1
@.str.7 = private unnamed_addr constant [65 x i8] c"                                                                \00", align 1
@.str.8 = private unnamed_addr constant [3 x i8] c", \00", align 1
@.str.9 = private unnamed_addr constant [6 x i8] c"  // \00", align 1
@.str.10 = private unnamed_addr constant [3 x i8] c" @\00", align 1
@.str.11 = private unnamed_addr constant [8 x i8] c" depth=\00", align 1
@.str.12 = private unnamed_addr constant [10 x i8] c" entries=\00", align 1
@.str.13 = private unnamed_addr constant [7 x i8] c" sig #\00", align 1
@.str.14 = private unnamed_addr constant [3 x i8] c": \00", align 1
@.str.15 = private unnamed_addr constant [12 x i8] c" function #\00", align 1
@_ZTVN2v88internal4wasm11WasmDecoderILNS1_7Decoder12ValidateFlagE2EEE = linkonce_odr hidden unnamed_addr constant { [5 x i8*] } { [5 x i8*] [i8* null, i8* null, i8* bitcast (void (%"class.v8::internal::wasm::WasmDecoder"*)* @_ZN2v88internal4wasm11WasmDecoderILNS1_7Decoder12ValidateFlagE2EED2Ev to i8*), i8* bitcast (void (%"class.v8::internal::wasm::WasmDecoder"*)* @_ZN2v88internal4wasm11WasmDecoderILNS1_7Decoder12ValidateFlagE2EED0Ev to i8*), i8* bitcast (void (%"class.v8::internal::wasm::Decoder"*)* @_ZN2v88internal4wasm7Decoder12onFirstErrorEv to i8*)] }, comdat, align 8
@_ZTVN2v88internal4wasm7DecoderE = linkonce_odr hidden unnamed_addr constant { [5 x i8*] } { [5 x i8*] [i8* null, i8* null, i8* bitcast (void (%"class.v8::internal::wasm::Decoder"*)* @_ZN2v88internal4wasm7DecoderD2Ev to i8*), i8* bitcast (void (%"class.v8::internal::wasm::Decoder"*)* @_ZN2v88internal4wasm7DecoderD0Ev to i8*), i8* bitcast (void (%"class.v8::internal::wasm::Decoder"*)* @_ZN2v88internal4wasm7Decoder12onFirstErrorEv to i8*)] }, comdat, align 8
@_ZTVN2v88internal4wasm15WasmFullDecoderILNS1_7Decoder12ValidateFlagE2ENS1_14EmptyInterfaceEEE = linkonce_odr hidden unnamed_addr constant { [5 x i8*] } { [5 x i8*] [i8* null, i8* null, i8* bitcast (void (%"class.v8::internal::wasm::WasmFullDecoder"*)* @_ZN2v88internal4wasm15WasmFullDecoderILNS1_7Decoder12ValidateFlagE2ENS1_14EmptyInterfaceEED2Ev to i8*), i8* bitcast (void (%"class.v8::internal::wasm::WasmFullDecoder"*)* @_ZN2v88internal4wasm15WasmFullDecoderILNS1_7Decoder12ValidateFlagE2ENS1_14EmptyInterfaceEED0Ev to i8*), i8* bitcast (void (%"class.v8::internal::wasm::WasmFullDecoder"*)* @_ZN2v88internal4wasm15WasmFullDecoderILNS1_7Decoder12ValidateFlagE2ENS1_14EmptyInterfaceEE12onFirstErrorEv to i8*)] }, comdat, align 8
@_ZTVN2v88internal4wasm11WasmDecoderILNS1_7Decoder12ValidateFlagE0EEE = linkonce_odr hidden unnamed_addr constant { [5 x i8*] } { [5 x i8*] [i8* null, i8* null, i8* bitcast (void (%"class.v8::internal::wasm::WasmDecoder.207"*)* @_ZN2v88internal4wasm11WasmDecoderILNS1_7Decoder12ValidateFlagE0EED2Ev to i8*), i8* bitcast (void (%"class.v8::internal::wasm::WasmDecoder.207"*)* @_ZN2v88internal4wasm11WasmDecoderILNS1_7Decoder12ValidateFlagE0EED0Ev to i8*), i8* bitcast (void (%"class.v8::internal::wasm::Decoder"*)* @_ZN2v88internal4wasm7Decoder12onFirstErrorEv to i8*)] }, comdat, align 8
@stdout = external local_unnamed_addr global %struct._IO_FILE*, align 8
@_ZTVN2v88internal12StdoutStreamE = linkonce_odr hidden unnamed_addr constant { [5 x i8*], [5 x i8*] } { [5 x i8*] [i8* inttoptr (i64 88 to i8*), i8* null, i8* null, i8* bitcast (void (%"class.v8::internal::StdoutStream"*)* @_ZN2v88internal12StdoutStreamD1Ev to i8*), i8* bitcast (void (%"class.v8::internal::StdoutStream"*)* @_ZN2v88internal12StdoutStreamD0Ev to i8*)], [5 x i8*] [i8* inttoptr (i64 -88 to i8*), i8* inttoptr (i64 -88 to i8*), i8* null, i8* bitcast (void (%"class.v8::internal::StdoutStream"*)* @_ZTv0_n24_N2v88internal12StdoutStreamD1Ev to i8*), i8* bitcast (void (%"class.v8::internal::StdoutStream"*)* @_ZTv0_n24_N2v88internal12StdoutStreamD0Ev to i8*)] }, comdat, align 8
@_ZTTN2v88internal12StdoutStreamE = linkonce_odr hidden unnamed_addr constant [6 x i8*] [i8* bitcast (i8** getelementptr inbounds ({ [5 x i8*], [5 x i8*] }, { [5 x i8*], [5 x i8*] }* @_ZTVN2v88internal12StdoutStreamE, i32 0, inrange i32 0, i32 3) to i8*), i8* bitcast (i8** getelementptr inbounds ({ [5 x i8*], [5 x i8*] }, { [5 x i8*], [5 x i8*] }* @_ZTCN2v88internal12StdoutStreamE0_NS0_8OFStreamE, i32 0, inrange i32 0, i32 3) to i8*), i8* bitcast (i8** getelementptr inbounds ({ [5 x i8*], [5 x i8*] }, { [5 x i8*], [5 x i8*] }* @_ZTCN2v88internal12StdoutStreamE0_NSt3__113basic_ostreamIcNS1_11char_traitsIcEEEE, i32 0, inrange i32 0, i32 3) to i8*), i8* bitcast (i8** getelementptr inbounds ({ [5 x i8*], [5 x i8*] }, { [5 x i8*], [5 x i8*] }* @_ZTCN2v88internal12StdoutStreamE0_NSt3__113basic_ostreamIcNS1_11char_traitsIcEEEE, i32 0, inrange i32 1, i32 3) to i8*), i8* bitcast (i8** getelementptr inbounds ({ [5 x i8*], [5 x i8*] }, { [5 x i8*], [5 x i8*] }* @_ZTCN2v88internal12StdoutStreamE0_NS0_8OFStreamE, i32 0, inrange i32 1, i32 3) to i8*), i8* bitcast (i8** getelementptr inbounds ({ [5 x i8*], [5 x i8*] }, { [5 x i8*], [5 x i8*] }* @_ZTVN2v88internal12StdoutStreamE, i32 0, inrange i32 1, i32 3) to i8*)], comdat, align 8
@_ZTCN2v88internal12StdoutStreamE0_NS0_8OFStreamE = linkonce_odr hidden unnamed_addr constant { [5 x i8*], [5 x i8*] } { [5 x i8*] [i8* inttoptr (i64 88 to i8*), i8* null, i8* null, i8* bitcast (void (%"class.v8::internal::OFStream"*)* @_ZN2v88internal8OFStreamD1Ev to i8*), i8* bitcast (void (%"class.v8::internal::OFStream"*)* @_ZN2v88internal8OFStreamD0Ev to i8*)], [5 x i8*] [i8* inttoptr (i64 -88 to i8*), i8* inttoptr (i64 -88 to i8*), i8* null, i8* bitcast (void (%"class.v8::internal::OFStream"*)* @_ZTv0_n24_N2v88internal8OFStreamD1Ev to i8*), i8* bitcast (void (%"class.v8::internal::OFStream"*)* @_ZTv0_n24_N2v88internal8OFStreamD0Ev to i8*)] }, comdat, align 8
@_ZTCN2v88internal12StdoutStreamE0_NSt3__113basic_ostreamIcNS1_11char_traitsIcEEEE = linkonce_odr hidden unnamed_addr constant { [5 x i8*], [5 x i8*] } { [5 x i8*] [i8* inttoptr (i64 88 to i8*), i8* null, i8* null, i8* bitcast (void (%"class.std::__1::basic_ostream"*)* @_ZNSt3__113basic_ostreamIcNS_11char_traitsIcEEED1Ev to i8*), i8* bitcast (void (%"class.std::__1::basic_ostream"*)* @_ZNSt3__113basic_ostreamIcNS_11char_traitsIcEEED0Ev to i8*)], [5 x i8*] [i8* inttoptr (i64 -88 to i8*), i8* inttoptr (i64 -88 to i8*), i8* null, i8* bitcast (void (%"class.std::__1::basic_ostream"*)* @_ZTv0_n24_NSt3__113basic_ostreamIcNS_11char_traitsIcEEED1Ev to i8*), i8* bitcast (void (%"class.std::__1::basic_ostream"*)* @_ZTv0_n24_NSt3__113basic_ostreamIcNS_11char_traitsIcEEED0Ev to i8*)] }, comdat, align 8
@_ZTVNSt3__19basic_iosIcNS_11char_traitsIcEEEE = external unnamed_addr constant { [4 x i8*] }, align 8
@_ZTVN2v88internal8OFStreamE = linkonce_odr hidden unnamed_addr constant { [5 x i8*], [5 x i8*] } { [5 x i8*] [i8* inttoptr (i64 80 to i8*), i8* null, i8* null, i8* bitcast (void (%"class.v8::internal::OFStream"*)* @_ZN2v88internal8OFStreamD1Ev to i8*), i8* bitcast (void (%"class.v8::internal::OFStream"*)* @_ZN2v88internal8OFStreamD0Ev to i8*)], [5 x i8*] [i8* inttoptr (i64 -80 to i8*), i8* inttoptr (i64 -80 to i8*), i8* null, i8* bitcast (void (%"class.v8::internal::OFStream"*)* @_ZTv0_n24_N2v88internal8OFStreamD1Ev to i8*), i8* bitcast (void (%"class.v8::internal::OFStream"*)* @_ZTv0_n24_N2v88internal8OFStreamD0Ev to i8*)] }, comdat, align 8
@_ZTTN2v88internal8OFStreamE = linkonce_odr hidden unnamed_addr constant [4 x i8*] [i8* bitcast (i8** getelementptr inbounds ({ [5 x i8*], [5 x i8*] }, { [5 x i8*], [5 x i8*] }* @_ZTVN2v88internal8OFStreamE, i32 0, inrange i32 0, i32 3) to i8*), i8* bitcast (i8** getelementptr inbounds ({ [5 x i8*], [5 x i8*] }, { [5 x i8*], [5 x i8*] }* @_ZTCN2v88internal8OFStreamE0_NSt3__113basic_ostreamIcNS1_11char_traitsIcEEEE, i32 0, inrange i32 0, i32 3) to i8*), i8* bitcast (i8** getelementptr inbounds ({ [5 x i8*], [5 x i8*] }, { [5 x i8*], [5 x i8*] }* @_ZTCN2v88internal8OFStreamE0_NSt3__113basic_ostreamIcNS1_11char_traitsIcEEEE, i32 0, inrange i32 1, i32 3) to i8*), i8* bitcast (i8** getelementptr inbounds ({ [5 x i8*], [5 x i8*] }, { [5 x i8*], [5 x i8*] }* @_ZTVN2v88internal8OFStreamE, i32 0, inrange i32 1, i32 3) to i8*)], comdat, align 8
@_ZTCN2v88internal8OFStreamE0_NSt3__113basic_ostreamIcNS1_11char_traitsIcEEEE = linkonce_odr hidden unnamed_addr constant { [5 x i8*], [5 x i8*] } { [5 x i8*] [i8* inttoptr (i64 80 to i8*), i8* null, i8* null, i8* bitcast (void (%"class.std::__1::basic_ostream"*)* @_ZNSt3__113basic_ostreamIcNS_11char_traitsIcEEED1Ev to i8*), i8* bitcast (void (%"class.std::__1::basic_ostream"*)* @_ZNSt3__113basic_ostreamIcNS_11char_traitsIcEEED0Ev to i8*)], [5 x i8*] [i8* inttoptr (i64 -80 to i8*), i8* inttoptr (i64 -80 to i8*), i8* null, i8* bitcast (void (%"class.std::__1::basic_ostream"*)* @_ZTv0_n24_NSt3__113basic_ostreamIcNS_11char_traitsIcEEED1Ev to i8*), i8* bitcast (void (%"class.std::__1::basic_ostream"*)* @_ZTv0_n24_NSt3__113basic_ostreamIcNS_11char_traitsIcEEED0Ev to i8*)] }, comdat, align 8
@.str.16 = private unnamed_addr constant [6 x i8] c"(ref \00", align 1
@.str.17 = private unnamed_addr constant [6 x i8] c"null \00", align 1
@.str.18 = private unnamed_addr constant [1 x i8] zeroinitializer, align 1
@.str.19 = private unnamed_addr constant [2 x i8] c")\00", align 1
@.str.20 = private unnamed_addr constant [4 x i8] c"ref\00", align 1
@.str.21 = private unnamed_addr constant [6 x i8] c"(rtt \00", align 1
@_ZTVNSt3__119basic_ostringstreamIcNS_11char_traitsIcEENS_9allocatorIcEEEE = external unnamed_addr constant { [5 x i8*], [5 x i8*] }, align 8
@_ZTTNSt3__119basic_ostringstreamIcNS_11char_traitsIcEENS_9allocatorIcEEEE = external unnamed_addr constant [4 x i8*], align 8
@_ZTVNSt3__115basic_stringbufIcNS_11char_traitsIcEENS_9allocatorIcEEEE = external unnamed_addr constant { [16 x i8*] }, align 8
@.str.23 = private unnamed_addr constant [7 x i8] c"extern\00", align 1
@.str.25 = private unnamed_addr constant [4 x i8] c"i31\00", align 1
@.str.27 = private unnamed_addr constant [4 x i8] c"any\00", align 1
@_ZZN2v88internal4wasm4nameENS1_9ValueKindEE9kKindName = internal unnamed_addr constant [13 x i8*] [i8* getelementptr inbounds ([7 x i8], [7 x i8]* @.str.29, i32 0, i32 0), i8* getelementptr inbounds ([4 x i8], [4 x i8]* @.str.30, i32 0, i32 0), i8* getelementptr inbounds ([4 x i8], [4 x i8]* @.str.31, i32 0, i32 0), i8* getelementptr inbounds ([4 x i8], [4 x i8]* @.str.32, i32 0, i32 0), i8* getelementptr inbounds ([4 x i8], [4 x i8]* @.str.33, i32 0, i32 0), i8* getelementptr inbounds ([5 x i8], [5 x i8]* @.str.34, i32 0, i32 0), i8* getelementptr inbounds ([3 x i8], [3 x i8]* @.str.35, i32 0, i32 0), i8* getelementptr inbounds ([4 x i8], [4 x i8]* @.str.36, i32 0, i32 0), i8* getelementptr inbounds ([4 x i8], [4 x i8]* @.str.37, i32 0, i32 0), i8* getelementptr inbounds ([4 x i8], [4 x i8]* @.str.37, i32 0, i32 0), i8* getelementptr inbounds ([4 x i8], [4 x i8]* @.str.20, i32 0, i32 0), i8* getelementptr inbounds ([9 x i8], [9 x i8]* @.str.38, i32 0, i32 0), i8* getelementptr inbounds ([6 x i8], [6 x i8]* @.str.39, i32 0, i32 0)], align 16
@.str.29 = private unnamed_addr constant [7 x i8] c"<void>\00", align 1
@.str.30 = private unnamed_addr constant [4 x i8] c"i32\00", align 1
@.str.31 = private unnamed_addr constant [4 x i8] c"i64\00", align 1
@.str.32 = private unnamed_addr constant [4 x i8] c"f32\00", align 1
@.str.33 = private unnamed_addr constant [4 x i8] c"f64\00", align 1
@.str.34 = private unnamed_addr constant [5 x i8] c"s128\00", align 1
@.str.35 = private unnamed_addr constant [3 x i8] c"i8\00", align 1
@.str.36 = private unnamed_addr constant [4 x i8] c"i16\00", align 1
@.str.37 = private unnamed_addr constant [4 x i8] c"rtt\00", align 1
@.str.38 = private unnamed_addr constant [9 x i8] c"ref null\00", align 1
@.str.39 = private unnamed_addr constant [6 x i8] c"<bot>\00", align 1
@.str.42 = private unnamed_addr constant [22 x i8] c"prefixed opcode index\00", align 1
@.str.43 = private unnamed_addr constant [10 x i8] c"kGCPrefix\00", align 1
@.str.44 = private unnamed_addr constant [15 x i8] c"kNumericPrefix\00", align 1
@.str.45 = private unnamed_addr constant [12 x i8] c"kSimdPrefix\00", align 1
@.str.46 = private unnamed_addr constant [14 x i8] c"kAtomicPrefix\00", align 1
@.str.47 = private unnamed_addr constant [15 x i8] c"Unknown prefix\00", align 1
@.str.48 = private unnamed_addr constant [17 x i8] c"kExprUnreachable\00", align 1
@.str.49 = private unnamed_addr constant [9 x i8] c"kExprNop\00", align 1
@.str.50 = private unnamed_addr constant [11 x i8] c"kExprBlock\00", align 1
@.str.51 = private unnamed_addr constant [10 x i8] c"kExprLoop\00", align 1
@.str.52 = private unnamed_addr constant [8 x i8] c"kExprIf\00", align 1
@.str.53 = private unnamed_addr constant [10 x i8] c"kExprElse\00", align 1
@.str.54 = private unnamed_addr constant [9 x i8] c"kExprTry\00", align 1
@.str.55 = private unnamed_addr constant [11 x i8] c"kExprCatch\00", align 1
@.str.56 = private unnamed_addr constant [11 x i8] c"kExprThrow\00", align 1
@.str.57 = private unnamed_addr constant [13 x i8] c"kExprRethrow\00", align 1
@.str.58 = private unnamed_addr constant [12 x i8] c"kExprUnwind\00", align 1
@.str.59 = private unnamed_addr constant [9 x i8] c"kExprEnd\00", align 1
@.str.60 = private unnamed_addr constant [8 x i8] c"kExprBr\00", align 1
@.str.61 = private unnamed_addr constant [10 x i8] c"kExprBrIf\00", align 1
@.str.62 = private unnamed_addr constant [13 x i8] c"kExprBrTable\00", align 1
@.str.63 = private unnamed_addr constant [12 x i8] c"kExprReturn\00", align 1
@.str.64 = private unnamed_addr constant [9 x i8] c"kExprLet\00", align 1
@.str.65 = private unnamed_addr constant [14 x i8] c"kExprDelegate\00", align 1
@.str.66 = private unnamed_addr constant [14 x i8] c"kExprCatchAll\00", align 1
@.str.67 = private unnamed_addr constant [14 x i8] c"kExprBrOnNull\00", align 1
@.str.68 = private unnamed_addr constant [17 x i8] c"kExprBrOnNonNull\00", align 1
@.str.69 = private unnamed_addr constant [39 x i8] c"kExprNopForTestingUnsupportedInLiftoff\00", align 1
@.str.70 = private unnamed_addr constant [18 x i8] c"kExprCallFunction\00", align 1
@.str.71 = private unnamed_addr constant [18 x i8] c"kExprCallIndirect\00", align 1
@.str.72 = private unnamed_addr constant [16 x i8] c"kExprReturnCall\00", align 1
@.str.73 = private unnamed_addr constant [24 x i8] c"kExprReturnCallIndirect\00", align 1
@.str.74 = private unnamed_addr constant [13 x i8] c"kExprCallRef\00", align 1
@.str.75 = private unnamed_addr constant [19 x i8] c"kExprReturnCallRef\00", align 1
@.str.76 = private unnamed_addr constant [10 x i8] c"kExprDrop\00", align 1
@.str.77 = private unnamed_addr constant [12 x i8] c"kExprSelect\00", align 1
@.str.78 = private unnamed_addr constant [20 x i8] c"kExprSelectWithType\00", align 1
@.str.79 = private unnamed_addr constant [14 x i8] c"kExprLocalGet\00", align 1
@.str.80 = private unnamed_addr constant [14 x i8] c"kExprLocalSet\00", align 1
@.str.81 = private unnamed_addr constant [14 x i8] c"kExprLocalTee\00", align 1
@.str.82 = private unnamed_addr constant [15 x i8] c"kExprGlobalGet\00", align 1
@.str.83 = private unnamed_addr constant [15 x i8] c"kExprGlobalSet\00", align 1
@.str.84 = private unnamed_addr constant [14 x i8] c"kExprTableGet\00", align 1
@.str.85 = private unnamed_addr constant [14 x i8] c"kExprTableSet\00", align 1
@.str.86 = private unnamed_addr constant [14 x i8] c"kExprI32Const\00", align 1
@.str.87 = private unnamed_addr constant [14 x i8] c"kExprI64Const\00", align 1
@.str.88 = private unnamed_addr constant [14 x i8] c"kExprF32Const\00", align 1
@.str.89 = private unnamed_addr constant [14 x i8] c"kExprF64Const\00", align 1
@.str.90 = private unnamed_addr constant [13 x i8] c"kExprRefNull\00", align 1
@.str.91 = private unnamed_addr constant [15 x i8] c"kExprRefIsNull\00", align 1
@.str.92 = private unnamed_addr constant [13 x i8] c"kExprRefFunc\00", align 1
@.str.93 = private unnamed_addr constant [18 x i8] c"kExprRefAsNonNull\00", align 1
@.str.94 = private unnamed_addr constant [12 x i8] c"kExprI32Eqz\00", align 1
@.str.95 = private unnamed_addr constant [11 x i8] c"kExprI32Eq\00", align 1
@.str.96 = private unnamed_addr constant [11 x i8] c"kExprI32Ne\00", align 1
@.str.97 = private unnamed_addr constant [12 x i8] c"kExprI32LtS\00", align 1
@.str.98 = private unnamed_addr constant [12 x i8] c"kExprI32LtU\00", align 1
@.str.99 = private unnamed_addr constant [12 x i8] c"kExprI32GtS\00", align 1
@.str.100 = private unnamed_addr constant [12 x i8] c"kExprI32GtU\00", align 1
@.str.101 = private unnamed_addr constant [12 x i8] c"kExprI32LeS\00", align 1
@.str.102 = private unnamed_addr constant [12 x i8] c"kExprI32LeU\00", align 1
@.str.103 = private unnamed_addr constant [12 x i8] c"kExprI32GeS\00", align 1
@.str.104 = private unnamed_addr constant [12 x i8] c"kExprI32GeU\00", align 1
@.str.105 = private unnamed_addr constant [12 x i8] c"kExprI64Eqz\00", align 1
@.str.106 = private unnamed_addr constant [11 x i8] c"kExprI64Eq\00", align 1
@.str.107 = private unnamed_addr constant [11 x i8] c"kExprI64Ne\00", align 1
@.str.108 = private unnamed_addr constant [12 x i8] c"kExprI64LtS\00", align 1
@.str.109 = private unnamed_addr constant [12 x i8] c"kExprI64LtU\00", align 1
@.str.110 = private unnamed_addr constant [12 x i8] c"kExprI64GtS\00", align 1
@.str.111 = private unnamed_addr constant [12 x i8] c"kExprI64GtU\00", align 1
@.str.112 = private unnamed_addr constant [12 x i8] c"kExprI64LeS\00", align 1
@.str.113 = private unnamed_addr constant [12 x i8] c"kExprI64LeU\00", align 1
@.str.114 = private unnamed_addr constant [12 x i8] c"kExprI64GeS\00", align 1
@.str.115 = private unnamed_addr constant [12 x i8] c"kExprI64GeU\00", align 1
@.str.116 = private unnamed_addr constant [11 x i8] c"kExprF32Eq\00", align 1
@.str.117 = private unnamed_addr constant [11 x i8] c"kExprF32Ne\00", align 1
@.str.118 = private unnamed_addr constant [11 x i8] c"kExprF32Lt\00", align 1
@.str.119 = private unnamed_addr constant [11 x i8] c"kExprF32Gt\00", align 1
@.str.120 = private unnamed_addr constant [11 x i8] c"kExprF32Le\00", align 1
@.str.121 = private unnamed_addr constant [11 x i8] c"kExprF32Ge\00", align 1
@.str.122 = private unnamed_addr constant [11 x i8] c"kExprF64Eq\00", align 1
@.str.123 = private unnamed_addr constant [11 x i8] c"kExprF64Ne\00", align 1
@.str.124 = private unnamed_addr constant [11 x i8] c"kExprF64Lt\00", align 1
@.str.125 = private unnamed_addr constant [11 x i8] c"kExprF64Gt\00", align 1
@.str.126 = private unnamed_addr constant [11 x i8] c"kExprF64Le\00", align 1
@.str.127 = private unnamed_addr constant [11 x i8] c"kExprF64Ge\00", align 1
@.str.128 = private unnamed_addr constant [12 x i8] c"kExprI32Clz\00", align 1
@.str.129 = private unnamed_addr constant [12 x i8] c"kExprI32Ctz\00", align 1
@.str.130 = private unnamed_addr constant [15 x i8] c"kExprI32Popcnt\00", align 1
@.str.131 = private unnamed_addr constant [12 x i8] c"kExprI32Add\00", align 1
@.str.132 = private unnamed_addr constant [12 x i8] c"kExprI32Sub\00", align 1
@.str.133 = private unnamed_addr constant [12 x i8] c"kExprI32Mul\00", align 1
@.str.134 = private unnamed_addr constant [13 x i8] c"kExprI32DivS\00", align 1
@.str.135 = private unnamed_addr constant [13 x i8] c"kExprI32DivU\00", align 1
@.str.136 = private unnamed_addr constant [13 x i8] c"kExprI32RemS\00", align 1
@.str.137 = private unnamed_addr constant [13 x i8] c"kExprI32RemU\00", align 1
@.str.138 = private unnamed_addr constant [12 x i8] c"kExprI32And\00", align 1
@.str.139 = private unnamed_addr constant [12 x i8] c"kExprI32Ior\00", align 1
@.str.140 = private unnamed_addr constant [12 x i8] c"kExprI32Xor\00", align 1
@.str.141 = private unnamed_addr constant [12 x i8] c"kExprI32Shl\00", align 1
@.str.142 = private unnamed_addr constant [13 x i8] c"kExprI32ShrS\00", align 1
@.str.143 = private unnamed_addr constant [13 x i8] c"kExprI32ShrU\00", align 1
@.str.144 = private unnamed_addr constant [12 x i8] c"kExprI32Rol\00", align 1
@.str.145 = private unnamed_addr constant [12 x i8] c"kExprI32Ror\00", align 1
@.str.146 = private unnamed_addr constant [12 x i8] c"kExprI64Clz\00", align 1
@.str.147 = private unnamed_addr constant [12 x i8] c"kExprI64Ctz\00", align 1
@.str.148 = private unnamed_addr constant [15 x i8] c"kExprI64Popcnt\00", align 1
@.str.149 = private unnamed_addr constant [12 x i8] c"kExprI64Add\00", align 1
@.str.150 = private unnamed_addr constant [12 x i8] c"kExprI64Sub\00", align 1
@.str.151 = private unnamed_addr constant [12 x i8] c"kExprI64Mul\00", align 1
@.str.152 = private unnamed_addr constant [13 x i8] c"kExprI64DivS\00", align 1
@.str.153 = private unnamed_addr constant [13 x i8] c"kExprI64DivU\00", align 1
@.str.154 = private unnamed_addr constant [13 x i8] c"kExprI64RemS\00", align 1
@.str.155 = private unnamed_addr constant [13 x i8] c"kExprI64RemU\00", align 1
@.str.156 = private unnamed_addr constant [12 x i8] c"kExprI64And\00", align 1
@.str.157 = private unnamed_addr constant [12 x i8] c"kExprI64Ior\00", align 1
@.str.158 = private unnamed_addr constant [12 x i8] c"kExprI64Xor\00", align 1
@.str.159 = private unnamed_addr constant [12 x i8] c"kExprI64Shl\00", align 1
@.str.160 = private unnamed_addr constant [13 x i8] c"kExprI64ShrS\00", align 1
@.str.161 = private unnamed_addr constant [13 x i8] c"kExprI64ShrU\00", align 1
@.str.162 = private unnamed_addr constant [12 x i8] c"kExprI64Rol\00", align 1
@.str.163 = private unnamed_addr constant [12 x i8] c"kExprI64Ror\00", align 1
@.str.164 = private unnamed_addr constant [12 x i8] c"kExprF32Abs\00", align 1
@.str.165 = private unnamed_addr constant [12 x i8] c"kExprF32Neg\00", align 1
@.str.166 = private unnamed_addr constant [13 x i8] c"kExprF32Ceil\00", align 1
@.str.167 = private unnamed_addr constant [14 x i8] c"kExprF32Floor\00", align 1
@.str.168 = private unnamed_addr constant [14 x i8] c"kExprF32Trunc\00", align 1
@.str.169 = private unnamed_addr constant [19 x i8] c"kExprF32NearestInt\00", align 1
@.str.170 = private unnamed_addr constant [13 x i8] c"kExprF32Sqrt\00", align 1
@.str.171 = private unnamed_addr constant [12 x i8] c"kExprF32Add\00", align 1
@.str.172 = private unnamed_addr constant [12 x i8] c"kExprF32Sub\00", align 1
@.str.173 = private unnamed_addr constant [12 x i8] c"kExprF32Mul\00", align 1
@.str.174 = private unnamed_addr constant [12 x i8] c"kExprF32Div\00", align 1
@.str.175 = private unnamed_addr constant [12 x i8] c"kExprF32Min\00", align 1
@.str.176 = private unnamed_addr constant [12 x i8] c"kExprF32Max\00", align 1
@.str.177 = private unnamed_addr constant [17 x i8] c"kExprF32CopySign\00", align 1
@.str.178 = private unnamed_addr constant [12 x i8] c"kExprF64Abs\00", align 1
@.str.179 = private unnamed_addr constant [12 x i8] c"kExprF64Neg\00", align 1
@.str.180 = private unnamed_addr constant [13 x i8] c"kExprF64Ceil\00", align 1
@.str.181 = private unnamed_addr constant [14 x i8] c"kExprF64Floor\00", align 1
@.str.182 = private unnamed_addr constant [14 x i8] c"kExprF64Trunc\00", align 1
@.str.183 = private unnamed_addr constant [19 x i8] c"kExprF64NearestInt\00", align 1
@.str.184 = private unnamed_addr constant [13 x i8] c"kExprF64Sqrt\00", align 1
@.str.185 = private unnamed_addr constant [12 x i8] c"kExprF64Add\00", align 1
@.str.186 = private unnamed_addr constant [12 x i8] c"kExprF64Sub\00", align 1
@.str.187 = private unnamed_addr constant [12 x i8] c"kExprF64Mul\00", align 1
@.str.188 = private unnamed_addr constant [12 x i8] c"kExprF64Div\00", align 1
@.str.189 = private unnamed_addr constant [12 x i8] c"kExprF64Min\00", align 1
@.str.190 = private unnamed_addr constant [12 x i8] c"kExprF64Max\00", align 1
@.str.191 = private unnamed_addr constant [17 x i8] c"kExprF64CopySign\00", align 1
@.str.192 = private unnamed_addr constant [19 x i8] c"kExprI32ConvertI64\00", align 1
@.str.193 = private unnamed_addr constant [20 x i8] c"kExprI32SConvertF32\00", align 1
@.str.194 = private unnamed_addr constant [20 x i8] c"kExprI32UConvertF32\00", align 1
@.str.195 = private unnamed_addr constant [20 x i8] c"kExprI32SConvertF64\00", align 1
@.str.196 = private unnamed_addr constant [20 x i8] c"kExprI32UConvertF64\00", align 1
@.str.197 = private unnamed_addr constant [20 x i8] c"kExprI64SConvertI32\00", align 1
@.str.198 = private unnamed_addr constant [20 x i8] c"kExprI64UConvertI32\00", align 1
@.str.199 = private unnamed_addr constant [20 x i8] c"kExprI64SConvertF32\00", align 1
@.str.200 = private unnamed_addr constant [20 x i8] c"kExprI64UConvertF32\00", align 1
@.str.201 = private unnamed_addr constant [20 x i8] c"kExprI64SConvertF64\00", align 1
@.str.202 = private unnamed_addr constant [20 x i8] c"kExprI64UConvertF64\00", align 1
@.str.203 = private unnamed_addr constant [20 x i8] c"kExprF32SConvertI32\00", align 1
@.str.204 = private unnamed_addr constant [20 x i8] c"kExprF32UConvertI32\00", align 1
@.str.205 = private unnamed_addr constant [20 x i8] c"kExprF32SConvertI64\00", align 1
@.str.206 = private unnamed_addr constant [20 x i8] c"kExprF32UConvertI64\00", align 1
@.str.207 = private unnamed_addr constant [19 x i8] c"kExprF32ConvertF64\00", align 1
@.str.208 = private unnamed_addr constant [20 x i8] c"kExprF64SConvertI32\00", align 1
@.str.209 = private unnamed_addr constant [20 x i8] c"kExprF64UConvertI32\00", align 1
@.str.210 = private unnamed_addr constant [20 x i8] c"kExprF64SConvertI64\00", align 1
@.str.211 = private unnamed_addr constant [20 x i8] c"kExprF64UConvertI64\00", align 1
@.str.212 = private unnamed_addr constant [19 x i8] c"kExprF64ConvertF32\00", align 1
@.str.213 = private unnamed_addr constant [23 x i8] c"kExprI32ReinterpretF32\00", align 1
@.str.214 = private unnamed_addr constant [23 x i8] c"kExprI64ReinterpretF64\00", align 1
@.str.215 = private unnamed_addr constant [23 x i8] c"kExprF32ReinterpretI32\00", align 1
@.str.216 = private unnamed_addr constant [23 x i8] c"kExprF64ReinterpretI64\00", align 1
@.str.217 = private unnamed_addr constant [18 x i8] c"kExprI32SExtendI8\00", align 1
@.str.218 = private unnamed_addr constant [19 x i8] c"kExprI32SExtendI16\00", align 1
@.str.219 = private unnamed_addr constant [18 x i8] c"kExprI64SExtendI8\00", align 1
@.str.220 = private unnamed_addr constant [19 x i8] c"kExprI64SExtendI16\00", align 1
@.str.221 = private unnamed_addr constant [19 x i8] c"kExprI64SExtendI32\00", align 1
@.str.222 = private unnamed_addr constant [11 x i8] c"kExprRefEq\00", align 1
@.str.223 = private unnamed_addr constant [17 x i8] c"kExprI32StoreMem\00", align 1
@.str.224 = private unnamed_addr constant [17 x i8] c"kExprI64StoreMem\00", align 1
@.str.225 = private unnamed_addr constant [17 x i8] c"kExprF32StoreMem\00", align 1
@.str.226 = private unnamed_addr constant [17 x i8] c"kExprF64StoreMem\00", align 1
@.str.227 = private unnamed_addr constant [18 x i8] c"kExprI32StoreMem8\00", align 1
@.str.228 = private unnamed_addr constant [19 x i8] c"kExprI32StoreMem16\00", align 1
@.str.229 = private unnamed_addr constant [18 x i8] c"kExprI64StoreMem8\00", align 1
@.str.230 = private unnamed_addr constant [19 x i8] c"kExprI64StoreMem16\00", align 1
@.str.231 = private unnamed_addr constant [19 x i8] c"kExprI64StoreMem32\00", align 1
@.str.232 = private unnamed_addr constant [16 x i8] c"kExprI32LoadMem\00", align 1
@.str.233 = private unnamed_addr constant [16 x i8] c"kExprI64LoadMem\00", align 1
@.str.234 = private unnamed_addr constant [16 x i8] c"kExprF32LoadMem\00", align 1
@.str.235 = private unnamed_addr constant [16 x i8] c"kExprF64LoadMem\00", align 1
@.str.236 = private unnamed_addr constant [18 x i8] c"kExprI32LoadMem8S\00", align 1
@.str.237 = private unnamed_addr constant [18 x i8] c"kExprI32LoadMem8U\00", align 1
@.str.238 = private unnamed_addr constant [19 x i8] c"kExprI32LoadMem16S\00", align 1
@.str.239 = private unnamed_addr constant [19 x i8] c"kExprI32LoadMem16U\00", align 1
@.str.240 = private unnamed_addr constant [18 x i8] c"kExprI64LoadMem8S\00", align 1
@.str.241 = private unnamed_addr constant [18 x i8] c"kExprI64LoadMem8U\00", align 1
@.str.242 = private unnamed_addr constant [19 x i8] c"kExprI64LoadMem16S\00", align 1
@.str.243 = private unnamed_addr constant [19 x i8] c"kExprI64LoadMem16U\00", align 1
@.str.244 = private unnamed_addr constant [19 x i8] c"kExprI64LoadMem32S\00", align 1
@.str.245 = private unnamed_addr constant [19 x i8] c"kExprI64LoadMem32U\00", align 1
@.str.246 = private unnamed_addr constant [16 x i8] c"kExprMemorySize\00", align 1
@.str.247 = private unnamed_addr constant [16 x i8] c"kExprMemoryGrow\00", align 1
@.str.248 = private unnamed_addr constant [13 x i8] c"kExprF64Acos\00", align 1
@.str.249 = private unnamed_addr constant [13 x i8] c"kExprF64Asin\00", align 1
@.str.250 = private unnamed_addr constant [13 x i8] c"kExprF64Atan\00", align 1
@.str.251 = private unnamed_addr constant [12 x i8] c"kExprF64Cos\00", align 1
@.str.252 = private unnamed_addr constant [12 x i8] c"kExprF64Sin\00", align 1
@.str.253 = private unnamed_addr constant [12 x i8] c"kExprF64Tan\00", align 1
@.str.254 = private unnamed_addr constant [12 x i8] c"kExprF64Exp\00", align 1
@.str.255 = private unnamed_addr constant [12 x i8] c"kExprF64Log\00", align 1
@.str.256 = private unnamed_addr constant [14 x i8] c"kExprF64Atan2\00", align 1
@.str.257 = private unnamed_addr constant [12 x i8] c"kExprF64Pow\00", align 1
@.str.258 = private unnamed_addr constant [12 x i8] c"kExprF64Mod\00", align 1
@.str.259 = private unnamed_addr constant [18 x i8] c"kExprI32AsmjsDivS\00", align 1
@.str.260 = private unnamed_addr constant [18 x i8] c"kExprI32AsmjsDivU\00", align 1
@.str.261 = private unnamed_addr constant [18 x i8] c"kExprI32AsmjsRemS\00", align 1
@.str.262 = private unnamed_addr constant [18 x i8] c"kExprI32AsmjsRemU\00", align 1
@.str.263 = private unnamed_addr constant [23 x i8] c"kExprI32AsmjsLoadMem8S\00", align 1
@.str.264 = private unnamed_addr constant [23 x i8] c"kExprI32AsmjsLoadMem8U\00", align 1
@.str.265 = private unnamed_addr constant [24 x i8] c"kExprI32AsmjsLoadMem16S\00", align 1
@.str.266 = private unnamed_addr constant [24 x i8] c"kExprI32AsmjsLoadMem16U\00", align 1
@.str.267 = private unnamed_addr constant [21 x i8] c"kExprI32AsmjsLoadMem\00", align 1
@.str.268 = private unnamed_addr constant [21 x i8] c"kExprF32AsmjsLoadMem\00", align 1
@.str.269 = private unnamed_addr constant [21 x i8] c"kExprF64AsmjsLoadMem\00", align 1
@.str.270 = private unnamed_addr constant [23 x i8] c"kExprI32AsmjsStoreMem8\00", align 1
@.str.271 = private unnamed_addr constant [24 x i8] c"kExprI32AsmjsStoreMem16\00", align 1
@.str.272 = private unnamed_addr constant [22 x i8] c"kExprI32AsmjsStoreMem\00", align 1
@.str.273 = private unnamed_addr constant [22 x i8] c"kExprF32AsmjsStoreMem\00", align 1
@.str.274 = private unnamed_addr constant [22 x i8] c"kExprF64AsmjsStoreMem\00", align 1
@.str.275 = private unnamed_addr constant [25 x i8] c"kExprI32AsmjsSConvertF32\00", align 1
@.str.276 = private unnamed_addr constant [25 x i8] c"kExprI32AsmjsUConvertF32\00", align 1
@.str.277 = private unnamed_addr constant [25 x i8] c"kExprI32AsmjsSConvertF64\00", align 1
@.str.278 = private unnamed_addr constant [25 x i8] c"kExprI32AsmjsUConvertF64\00", align 1
@.str.279 = private unnamed_addr constant [18 x i8] c"kExprI8x16Swizzle\00", align 1
@.str.280 = private unnamed_addr constant [16 x i8] c"kExprI8x16Splat\00", align 1
@.str.281 = private unnamed_addr constant [16 x i8] c"kExprI16x8Splat\00", align 1
@.str.282 = private unnamed_addr constant [16 x i8] c"kExprI32x4Splat\00", align 1
@.str.283 = private unnamed_addr constant [16 x i8] c"kExprI64x2Splat\00", align 1
@.str.284 = private unnamed_addr constant [16 x i8] c"kExprF32x4Splat\00", align 1
@.str.285 = private unnamed_addr constant [16 x i8] c"kExprF64x2Splat\00", align 1
@.str.286 = private unnamed_addr constant [13 x i8] c"kExprI8x16Eq\00", align 1
@.str.287 = private unnamed_addr constant [13 x i8] c"kExprI8x16Ne\00", align 1
@.str.288 = private unnamed_addr constant [14 x i8] c"kExprI8x16LtS\00", align 1
@.str.289 = private unnamed_addr constant [14 x i8] c"kExprI8x16LtU\00", align 1
@.str.290 = private unnamed_addr constant [14 x i8] c"kExprI8x16GtS\00", align 1
@.str.291 = private unnamed_addr constant [14 x i8] c"kExprI8x16GtU\00", align 1
@.str.292 = private unnamed_addr constant [14 x i8] c"kExprI8x16LeS\00", align 1
@.str.293 = private unnamed_addr constant [14 x i8] c"kExprI8x16LeU\00", align 1
@.str.294 = private unnamed_addr constant [14 x i8] c"kExprI8x16GeS\00", align 1
@.str.295 = private unnamed_addr constant [14 x i8] c"kExprI8x16GeU\00", align 1
@.str.296 = private unnamed_addr constant [13 x i8] c"kExprI16x8Eq\00", align 1
@.str.297 = private unnamed_addr constant [13 x i8] c"kExprI16x8Ne\00", align 1
@.str.298 = private unnamed_addr constant [14 x i8] c"kExprI16x8LtS\00", align 1
@.str.299 = private unnamed_addr constant [14 x i8] c"kExprI16x8LtU\00", align 1
@.str.300 = private unnamed_addr constant [14 x i8] c"kExprI16x8GtS\00", align 1
@.str.301 = private unnamed_addr constant [14 x i8] c"kExprI16x8GtU\00", align 1
@.str.302 = private unnamed_addr constant [14 x i8] c"kExprI16x8LeS\00", align 1
@.str.303 = private unnamed_addr constant [14 x i8] c"kExprI16x8LeU\00", align 1
@.str.304 = private unnamed_addr constant [14 x i8] c"kExprI16x8GeS\00", align 1
@.str.305 = private unnamed_addr constant [14 x i8] c"kExprI16x8GeU\00", align 1
@.str.306 = private unnamed_addr constant [13 x i8] c"kExprI32x4Eq\00", align 1
@.str.307 = private unnamed_addr constant [13 x i8] c"kExprI32x4Ne\00", align 1
@.str.308 = private unnamed_addr constant [14 x i8] c"kExprI32x4LtS\00", align 1
@.str.309 = private unnamed_addr constant [14 x i8] c"kExprI32x4LtU\00", align 1
@.str.310 = private unnamed_addr constant [14 x i8] c"kExprI32x4GtS\00", align 1
@.str.311 = private unnamed_addr constant [14 x i8] c"kExprI32x4GtU\00", align 1
@.str.312 = private unnamed_addr constant [14 x i8] c"kExprI32x4LeS\00", align 1
@.str.313 = private unnamed_addr constant [14 x i8] c"kExprI32x4LeU\00", align 1
@.str.314 = private unnamed_addr constant [14 x i8] c"kExprI32x4GeS\00", align 1
@.str.315 = private unnamed_addr constant [14 x i8] c"kExprI32x4GeU\00", align 1
@.str.316 = private unnamed_addr constant [13 x i8] c"kExprF32x4Eq\00", align 1
@.str.317 = private unnamed_addr constant [13 x i8] c"kExprF32x4Ne\00", align 1
@.str.318 = private unnamed_addr constant [13 x i8] c"kExprF32x4Lt\00", align 1
@.str.319 = private unnamed_addr constant [13 x i8] c"kExprF32x4Gt\00", align 1
@.str.320 = private unnamed_addr constant [13 x i8] c"kExprF32x4Le\00", align 1
@.str.321 = private unnamed_addr constant [13 x i8] c"kExprF32x4Ge\00", align 1
@.str.322 = private unnamed_addr constant [13 x i8] c"kExprF64x2Eq\00", align 1
@.str.323 = private unnamed_addr constant [13 x i8] c"kExprF64x2Ne\00", align 1
@.str.324 = private unnamed_addr constant [13 x i8] c"kExprF64x2Lt\00", align 1
@.str.325 = private unnamed_addr constant [13 x i8] c"kExprF64x2Gt\00", align 1
@.str.326 = private unnamed_addr constant [13 x i8] c"kExprF64x2Le\00", align 1
@.str.327 = private unnamed_addr constant [13 x i8] c"kExprF64x2Ge\00", align 1
@.str.328 = private unnamed_addr constant [13 x i8] c"kExprS128Not\00", align 1
@.str.329 = private unnamed_addr constant [13 x i8] c"kExprS128And\00", align 1
@.str.330 = private unnamed_addr constant [16 x i8] c"kExprS128AndNot\00", align 1
@.str.331 = private unnamed_addr constant [12 x i8] c"kExprS128Or\00", align 1
@.str.332 = private unnamed_addr constant [13 x i8] c"kExprS128Xor\00", align 1
@.str.333 = private unnamed_addr constant [16 x i8] c"kExprS128Select\00", align 1
@.str.334 = private unnamed_addr constant [17 x i8] c"kExprV128AnyTrue\00", align 1
@.str.335 = private unnamed_addr constant [26 x i8] c"kExprF32x4DemoteF64x2Zero\00", align 1
@.str.336 = private unnamed_addr constant [26 x i8] c"kExprF64x2PromoteLowF32x4\00", align 1
@.str.337 = private unnamed_addr constant [14 x i8] c"kExprI8x16Abs\00", align 1
@.str.338 = private unnamed_addr constant [14 x i8] c"kExprI8x16Neg\00", align 1
@.str.339 = private unnamed_addr constant [17 x i8] c"kExprI8x16Popcnt\00", align 1
@.str.340 = private unnamed_addr constant [18 x i8] c"kExprI8x16AllTrue\00", align 1
@.str.341 = private unnamed_addr constant [18 x i8] c"kExprI8x16BitMask\00", align 1
@.str.342 = private unnamed_addr constant [24 x i8] c"kExprI8x16SConvertI16x8\00", align 1
@.str.343 = private unnamed_addr constant [24 x i8] c"kExprI8x16UConvertI16x8\00", align 1
@.str.344 = private unnamed_addr constant [15 x i8] c"kExprF32x4Ceil\00", align 1
@.str.345 = private unnamed_addr constant [16 x i8] c"kExprF32x4Floor\00", align 1
@.str.346 = private unnamed_addr constant [16 x i8] c"kExprF32x4Trunc\00", align 1
@.str.347 = private unnamed_addr constant [21 x i8] c"kExprF32x4NearestInt\00", align 1
@.str.348 = private unnamed_addr constant [14 x i8] c"kExprI8x16Shl\00", align 1
@.str.349 = private unnamed_addr constant [15 x i8] c"kExprI8x16ShrS\00", align 1
@.str.350 = private unnamed_addr constant [15 x i8] c"kExprI8x16ShrU\00", align 1
@.str.351 = private unnamed_addr constant [14 x i8] c"kExprI8x16Add\00", align 1
@.str.352 = private unnamed_addr constant [18 x i8] c"kExprI8x16AddSatS\00", align 1
@.str.353 = private unnamed_addr constant [18 x i8] c"kExprI8x16AddSatU\00", align 1
@.str.354 = private unnamed_addr constant [14 x i8] c"kExprI8x16Sub\00", align 1
@.str.355 = private unnamed_addr constant [18 x i8] c"kExprI8x16SubSatS\00", align 1
@.str.356 = private unnamed_addr constant [18 x i8] c"kExprI8x16SubSatU\00", align 1
@.str.357 = private unnamed_addr constant [15 x i8] c"kExprF64x2Ceil\00", align 1
@.str.358 = private unnamed_addr constant [16 x i8] c"kExprF64x2Floor\00", align 1
@.str.359 = private unnamed_addr constant [15 x i8] c"kExprI8x16MinS\00", align 1
@.str.360 = private unnamed_addr constant [15 x i8] c"kExprI8x16MinU\00", align 1
@.str.361 = private unnamed_addr constant [15 x i8] c"kExprI8x16MaxS\00", align 1
@.str.362 = private unnamed_addr constant [15 x i8] c"kExprI8x16MaxU\00", align 1
@.str.363 = private unnamed_addr constant [16 x i8] c"kExprF64x2Trunc\00", align 1
@.str.364 = private unnamed_addr constant [27 x i8] c"kExprI8x16RoundingAverageU\00", align 1
@.str.365 = private unnamed_addr constant [31 x i8] c"kExprI16x8ExtAddPairwiseI8x16S\00", align 1
@.str.366 = private unnamed_addr constant [31 x i8] c"kExprI16x8ExtAddPairwiseI8x16U\00", align 1
@.str.367 = private unnamed_addr constant [31 x i8] c"kExprI32x4ExtAddPairwiseI16x8S\00", align 1
@.str.368 = private unnamed_addr constant [31 x i8] c"kExprI32x4ExtAddPairwiseI16x8U\00", align 1
@.str.369 = private unnamed_addr constant [14 x i8] c"kExprI16x8Abs\00", align 1
@.str.370 = private unnamed_addr constant [14 x i8] c"kExprI16x8Neg\00", align 1
@.str.371 = private unnamed_addr constant [22 x i8] c"kExprI16x8Q15MulRSatS\00", align 1
@.str.372 = private unnamed_addr constant [18 x i8] c"kExprI16x8AllTrue\00", align 1
@.str.373 = private unnamed_addr constant [18 x i8] c"kExprI16x8BitMask\00", align 1
@.str.374 = private unnamed_addr constant [24 x i8] c"kExprI16x8SConvertI32x4\00", align 1
@.str.375 = private unnamed_addr constant [24 x i8] c"kExprI16x8UConvertI32x4\00", align 1
@.str.376 = private unnamed_addr constant [27 x i8] c"kExprI16x8SConvertI8x16Low\00", align 1
@.str.377 = private unnamed_addr constant [28 x i8] c"kExprI16x8SConvertI8x16High\00", align 1
@.str.378 = private unnamed_addr constant [27 x i8] c"kExprI16x8UConvertI8x16Low\00", align 1
@.str.379 = private unnamed_addr constant [28 x i8] c"kExprI16x8UConvertI8x16High\00", align 1
@.str.380 = private unnamed_addr constant [14 x i8] c"kExprI16x8Shl\00", align 1
@.str.381 = private unnamed_addr constant [15 x i8] c"kExprI16x8ShrS\00", align 1
@.str.382 = private unnamed_addr constant [15 x i8] c"kExprI16x8ShrU\00", align 1
@.str.383 = private unnamed_addr constant [14 x i8] c"kExprI16x8Add\00", align 1
@.str.384 = private unnamed_addr constant [18 x i8] c"kExprI16x8AddSatS\00", align 1
@.str.385 = private unnamed_addr constant [18 x i8] c"kExprI16x8AddSatU\00", align 1
@.str.386 = private unnamed_addr constant [14 x i8] c"kExprI16x8Sub\00", align 1
@.str.387 = private unnamed_addr constant [18 x i8] c"kExprI16x8SubSatS\00", align 1
@.str.388 = private unnamed_addr constant [18 x i8] c"kExprI16x8SubSatU\00", align 1
@.str.389 = private unnamed_addr constant [21 x i8] c"kExprF64x2NearestInt\00", align 1
@.str.390 = private unnamed_addr constant [14 x i8] c"kExprI16x8Mul\00", align 1
@.str.391 = private unnamed_addr constant [15 x i8] c"kExprI16x8MinS\00", align 1
@.str.392 = private unnamed_addr constant [15 x i8] c"kExprI16x8MinU\00", align 1
@.str.393 = private unnamed_addr constant [15 x i8] c"kExprI16x8MaxS\00", align 1
@.str.394 = private unnamed_addr constant [15 x i8] c"kExprI16x8MaxU\00", align 1
@.str.395 = private unnamed_addr constant [27 x i8] c"kExprI16x8RoundingAverageU\00", align 1
@.str.396 = private unnamed_addr constant [26 x i8] c"kExprI16x8ExtMulLowI8x16S\00", align 1
@.str.397 = private unnamed_addr constant [27 x i8] c"kExprI16x8ExtMulHighI8x16S\00", align 1
@.str.398 = private unnamed_addr constant [26 x i8] c"kExprI16x8ExtMulLowI8x16U\00", align 1
@.str.399 = private unnamed_addr constant [27 x i8] c"kExprI16x8ExtMulHighI8x16U\00", align 1
@.str.400 = private unnamed_addr constant [14 x i8] c"kExprI32x4Abs\00", align 1
@.str.401 = private unnamed_addr constant [14 x i8] c"kExprI32x4Neg\00", align 1
@.str.402 = private unnamed_addr constant [18 x i8] c"kExprI32x4AllTrue\00", align 1
@.str.403 = private unnamed_addr constant [18 x i8] c"kExprI32x4BitMask\00", align 1
@.str.404 = private unnamed_addr constant [27 x i8] c"kExprI32x4SConvertI16x8Low\00", align 1
@.str.405 = private unnamed_addr constant [28 x i8] c"kExprI32x4SConvertI16x8High\00", align 1
@.str.406 = private unnamed_addr constant [27 x i8] c"kExprI32x4UConvertI16x8Low\00", align 1
@.str.407 = private unnamed_addr constant [28 x i8] c"kExprI32x4UConvertI16x8High\00", align 1
@.str.408 = private unnamed_addr constant [14 x i8] c"kExprI32x4Shl\00", align 1
@.str.409 = private unnamed_addr constant [15 x i8] c"kExprI32x4ShrS\00", align 1
@.str.410 = private unnamed_addr constant [15 x i8] c"kExprI32x4ShrU\00", align 1
@.str.411 = private unnamed_addr constant [14 x i8] c"kExprI32x4Add\00", align 1
@.str.412 = private unnamed_addr constant [14 x i8] c"kExprI32x4Sub\00", align 1
@.str.413 = private unnamed_addr constant [14 x i8] c"kExprI32x4Mul\00", align 1
@.str.414 = private unnamed_addr constant [15 x i8] c"kExprI32x4MinS\00", align 1
@.str.415 = private unnamed_addr constant [15 x i8] c"kExprI32x4MinU\00", align 1
@.str.416 = private unnamed_addr constant [15 x i8] c"kExprI32x4MaxS\00", align 1
@.str.417 = private unnamed_addr constant [15 x i8] c"kExprI32x4MaxU\00", align 1
@.str.418 = private unnamed_addr constant [20 x i8] c"kExprI32x4DotI16x8S\00", align 1
@.str.419 = private unnamed_addr constant [26 x i8] c"kExprI32x4ExtMulLowI16x8S\00", align 1
@.str.420 = private unnamed_addr constant [27 x i8] c"kExprI32x4ExtMulHighI16x8S\00", align 1
@.str.421 = private unnamed_addr constant [26 x i8] c"kExprI32x4ExtMulLowI16x8U\00", align 1
@.str.422 = private unnamed_addr constant [27 x i8] c"kExprI32x4ExtMulHighI16x8U\00", align 1
@.str.423 = private unnamed_addr constant [14 x i8] c"kExprI64x2Abs\00", align 1
@.str.424 = private unnamed_addr constant [14 x i8] c"kExprI64x2Neg\00", align 1
@.str.425 = private unnamed_addr constant [18 x i8] c"kExprI64x2AllTrue\00", align 1
@.str.426 = private unnamed_addr constant [18 x i8] c"kExprI64x2BitMask\00", align 1
@.str.427 = private unnamed_addr constant [27 x i8] c"kExprI64x2SConvertI32x4Low\00", align 1
@.str.428 = private unnamed_addr constant [28 x i8] c"kExprI64x2SConvertI32x4High\00", align 1
@.str.429 = private unnamed_addr constant [27 x i8] c"kExprI64x2UConvertI32x4Low\00", align 1
@.str.430 = private unnamed_addr constant [28 x i8] c"kExprI64x2UConvertI32x4High\00", align 1
@.str.431 = private unnamed_addr constant [14 x i8] c"kExprI64x2Shl\00", align 1
@.str.432 = private unnamed_addr constant [15 x i8] c"kExprI64x2ShrS\00", align 1
@.str.433 = private unnamed_addr constant [15 x i8] c"kExprI64x2ShrU\00", align 1
@.str.434 = private unnamed_addr constant [14 x i8] c"kExprI64x2Add\00", align 1
@.str.435 = private unnamed_addr constant [14 x i8] c"kExprI64x2Sub\00", align 1
@.str.436 = private unnamed_addr constant [14 x i8] c"kExprI64x2Mul\00", align 1
@.str.437 = private unnamed_addr constant [13 x i8] c"kExprI64x2Eq\00", align 1
@.str.438 = private unnamed_addr constant [13 x i8] c"kExprI64x2Ne\00", align 1
@.str.439 = private unnamed_addr constant [14 x i8] c"kExprI64x2LtS\00", align 1
@.str.440 = private unnamed_addr constant [14 x i8] c"kExprI64x2GtS\00", align 1
@.str.441 = private unnamed_addr constant [14 x i8] c"kExprI64x2LeS\00", align 1
@.str.442 = private unnamed_addr constant [14 x i8] c"kExprI64x2GeS\00", align 1
@.str.443 = private unnamed_addr constant [26 x i8] c"kExprI64x2ExtMulLowI32x4S\00", align 1
@.str.444 = private unnamed_addr constant [27 x i8] c"kExprI64x2ExtMulHighI32x4S\00", align 1
@.str.445 = private unnamed_addr constant [26 x i8] c"kExprI64x2ExtMulLowI32x4U\00", align 1
@.str.446 = private unnamed_addr constant [27 x i8] c"kExprI64x2ExtMulHighI32x4U\00", align 1
@.str.447 = private unnamed_addr constant [14 x i8] c"kExprF32x4Abs\00", align 1
@.str.448 = private unnamed_addr constant [14 x i8] c"kExprF32x4Neg\00", align 1
@.str.449 = private unnamed_addr constant [15 x i8] c"kExprF32x4Sqrt\00", align 1
@.str.450 = private unnamed_addr constant [14 x i8] c"kExprF32x4Add\00", align 1
@.str.451 = private unnamed_addr constant [14 x i8] c"kExprF32x4Sub\00", align 1
@.str.452 = private unnamed_addr constant [14 x i8] c"kExprF32x4Mul\00", align 1
@.str.453 = private unnamed_addr constant [14 x i8] c"kExprF32x4Div\00", align 1
@.str.454 = private unnamed_addr constant [14 x i8] c"kExprF32x4Min\00", align 1
@.str.455 = private unnamed_addr constant [14 x i8] c"kExprF32x4Max\00", align 1
@.str.456 = private unnamed_addr constant [15 x i8] c"kExprF32x4Pmin\00", align 1
@.str.457 = private unnamed_addr constant [15 x i8] c"kExprF32x4Pmax\00", align 1
@.str.458 = private unnamed_addr constant [14 x i8] c"kExprF64x2Abs\00", align 1
@.str.459 = private unnamed_addr constant [14 x i8] c"kExprF64x2Neg\00", align 1
@.str.460 = private unnamed_addr constant [15 x i8] c"kExprF64x2Sqrt\00", align 1
@.str.461 = private unnamed_addr constant [14 x i8] c"kExprF64x2Add\00", align 1
@.str.462 = private unnamed_addr constant [14 x i8] c"kExprF64x2Sub\00", align 1
@.str.463 = private unnamed_addr constant [14 x i8] c"kExprF64x2Mul\00", align 1
@.str.464 = private unnamed_addr constant [14 x i8] c"kExprF64x2Div\00", align 1
@.str.465 = private unnamed_addr constant [14 x i8] c"kExprF64x2Min\00", align 1
@.str.466 = private unnamed_addr constant [14 x i8] c"kExprF64x2Max\00", align 1
@.str.467 = private unnamed_addr constant [15 x i8] c"kExprF64x2Pmin\00", align 1
@.str.468 = private unnamed_addr constant [15 x i8] c"kExprF64x2Pmax\00", align 1
@.str.469 = private unnamed_addr constant [24 x i8] c"kExprI32x4SConvertF32x4\00", align 1
@.str.470 = private unnamed_addr constant [24 x i8] c"kExprI32x4UConvertF32x4\00", align 1
@.str.471 = private unnamed_addr constant [24 x i8] c"kExprF32x4SConvertI32x4\00", align 1
@.str.472 = private unnamed_addr constant [24 x i8] c"kExprF32x4UConvertI32x4\00", align 1
@.str.473 = private unnamed_addr constant [29 x i8] c"kExprI32x4TruncSatF64x2SZero\00", align 1
@.str.474 = private unnamed_addr constant [29 x i8] c"kExprI32x4TruncSatF64x2UZero\00", align 1
@.str.475 = private unnamed_addr constant [27 x i8] c"kExprF64x2ConvertLowI32x4S\00", align 1
@.str.476 = private unnamed_addr constant [27 x i8] c"kExprF64x2ConvertLowI32x4U\00", align 1
@.str.477 = private unnamed_addr constant [15 x i8] c"kExprF32x4Qfma\00", align 1
@.str.478 = private unnamed_addr constant [15 x i8] c"kExprF32x4Qfms\00", align 1
@.str.479 = private unnamed_addr constant [15 x i8] c"kExprF64x2Qfma\00", align 1
@.str.480 = private unnamed_addr constant [15 x i8] c"kExprF64x2Qfms\00", align 1
@.str.481 = private unnamed_addr constant [22 x i8] c"kExprF32x4RecipApprox\00", align 1
@.str.482 = private unnamed_addr constant [26 x i8] c"kExprF32x4RecipSqrtApprox\00", align 1
@.str.483 = private unnamed_addr constant [23 x i8] c"kExprI8x16ExtractLaneS\00", align 1
@.str.484 = private unnamed_addr constant [23 x i8] c"kExprI8x16ExtractLaneU\00", align 1
@.str.485 = private unnamed_addr constant [23 x i8] c"kExprI16x8ExtractLaneS\00", align 1
@.str.486 = private unnamed_addr constant [23 x i8] c"kExprI16x8ExtractLaneU\00", align 1
@.str.487 = private unnamed_addr constant [22 x i8] c"kExprI32x4ExtractLane\00", align 1
@.str.488 = private unnamed_addr constant [22 x i8] c"kExprI64x2ExtractLane\00", align 1
@.str.489 = private unnamed_addr constant [22 x i8] c"kExprF32x4ExtractLane\00", align 1
@.str.490 = private unnamed_addr constant [22 x i8] c"kExprF64x2ExtractLane\00", align 1
@.str.491 = private unnamed_addr constant [22 x i8] c"kExprI8x16ReplaceLane\00", align 1
@.str.492 = private unnamed_addr constant [22 x i8] c"kExprI16x8ReplaceLane\00", align 1
@.str.493 = private unnamed_addr constant [22 x i8] c"kExprI32x4ReplaceLane\00", align 1
@.str.494 = private unnamed_addr constant [22 x i8] c"kExprI64x2ReplaceLane\00", align 1
@.str.495 = private unnamed_addr constant [22 x i8] c"kExprF32x4ReplaceLane\00", align 1
@.str.496 = private unnamed_addr constant [22 x i8] c"kExprF64x2ReplaceLane\00", align 1
@.str.497 = private unnamed_addr constant [18 x i8] c"kExprI8x16Shuffle\00", align 1
@.str.498 = private unnamed_addr constant [17 x i8] c"kExprS128LoadMem\00", align 1
@.str.499 = private unnamed_addr constant [18 x i8] c"kExprS128Load8x8S\00", align 1
@.str.500 = private unnamed_addr constant [18 x i8] c"kExprS128Load8x8U\00", align 1
@.str.501 = private unnamed_addr constant [19 x i8] c"kExprS128Load16x4S\00", align 1
@.str.502 = private unnamed_addr constant [19 x i8] c"kExprS128Load16x4U\00", align 1
@.str.503 = private unnamed_addr constant [19 x i8] c"kExprS128Load32x2S\00", align 1
@.str.504 = private unnamed_addr constant [19 x i8] c"kExprS128Load32x2U\00", align 1
@.str.505 = private unnamed_addr constant [20 x i8] c"kExprS128Load8Splat\00", align 1
@.str.506 = private unnamed_addr constant [21 x i8] c"kExprS128Load16Splat\00", align 1
@.str.507 = private unnamed_addr constant [21 x i8] c"kExprS128Load32Splat\00", align 1
@.str.508 = private unnamed_addr constant [21 x i8] c"kExprS128Load64Splat\00", align 1
@.str.509 = private unnamed_addr constant [18 x i8] c"kExprS128StoreMem\00", align 1
@.str.510 = private unnamed_addr constant [20 x i8] c"kExprS128Load32Zero\00", align 1
@.str.511 = private unnamed_addr constant [20 x i8] c"kExprS128Load64Zero\00", align 1
@.str.512 = private unnamed_addr constant [19 x i8] c"kExprS128Load8Lane\00", align 1
@.str.513 = private unnamed_addr constant [20 x i8] c"kExprS128Load16Lane\00", align 1
@.str.514 = private unnamed_addr constant [20 x i8] c"kExprS128Load32Lane\00", align 1
@.str.515 = private unnamed_addr constant [20 x i8] c"kExprS128Load64Lane\00", align 1
@.str.516 = private unnamed_addr constant [20 x i8] c"kExprS128Store8Lane\00", align 1
@.str.517 = private unnamed_addr constant [21 x i8] c"kExprS128Store16Lane\00", align 1
@.str.518 = private unnamed_addr constant [21 x i8] c"kExprS128Store32Lane\00", align 1
@.str.519 = private unnamed_addr constant [21 x i8] c"kExprS128Store64Lane\00", align 1
@.str.520 = private unnamed_addr constant [15 x i8] c"kExprS128Const\00", align 1
@.str.521 = private unnamed_addr constant [18 x i8] c"kExprAtomicNotify\00", align 1
@.str.522 = private unnamed_addr constant [19 x i8] c"kExprI32AtomicWait\00", align 1
@.str.523 = private unnamed_addr constant [19 x i8] c"kExprI64AtomicWait\00", align 1
@.str.524 = private unnamed_addr constant [19 x i8] c"kExprI32AtomicLoad\00", align 1
@.str.525 = private unnamed_addr constant [19 x i8] c"kExprI64AtomicLoad\00", align 1
@.str.526 = private unnamed_addr constant [21 x i8] c"kExprI32AtomicLoad8U\00", align 1
@.str.527 = private unnamed_addr constant [22 x i8] c"kExprI32AtomicLoad16U\00", align 1
@.str.528 = private unnamed_addr constant [21 x i8] c"kExprI64AtomicLoad8U\00", align 1
@.str.529 = private unnamed_addr constant [22 x i8] c"kExprI64AtomicLoad16U\00", align 1
@.str.530 = private unnamed_addr constant [22 x i8] c"kExprI64AtomicLoad32U\00", align 1
@.str.531 = private unnamed_addr constant [20 x i8] c"kExprI32AtomicStore\00", align 1
@.str.532 = private unnamed_addr constant [20 x i8] c"kExprI64AtomicStore\00", align 1
@.str.533 = private unnamed_addr constant [22 x i8] c"kExprI32AtomicStore8U\00", align 1
@.str.534 = private unnamed_addr constant [23 x i8] c"kExprI32AtomicStore16U\00", align 1
@.str.535 = private unnamed_addr constant [22 x i8] c"kExprI64AtomicStore8U\00", align 1
@.str.536 = private unnamed_addr constant [23 x i8] c"kExprI64AtomicStore16U\00", align 1
@.str.537 = private unnamed_addr constant [23 x i8] c"kExprI64AtomicStore32U\00", align 1
@.str.538 = private unnamed_addr constant [18 x i8] c"kExprI32AtomicAdd\00", align 1
@.str.539 = private unnamed_addr constant [18 x i8] c"kExprI64AtomicAdd\00", align 1
@.str.540 = private unnamed_addr constant [20 x i8] c"kExprI32AtomicAdd8U\00", align 1
@.str.541 = private unnamed_addr constant [21 x i8] c"kExprI32AtomicAdd16U\00", align 1
@.str.542 = private unnamed_addr constant [20 x i8] c"kExprI64AtomicAdd8U\00", align 1
@.str.543 = private unnamed_addr constant [21 x i8] c"kExprI64AtomicAdd16U\00", align 1
@.str.544 = private unnamed_addr constant [21 x i8] c"kExprI64AtomicAdd32U\00", align 1
@.str.545 = private unnamed_addr constant [18 x i8] c"kExprI32AtomicSub\00", align 1
@.str.546 = private unnamed_addr constant [18 x i8] c"kExprI64AtomicSub\00", align 1
@.str.547 = private unnamed_addr constant [20 x i8] c"kExprI32AtomicSub8U\00", align 1
@.str.548 = private unnamed_addr constant [21 x i8] c"kExprI32AtomicSub16U\00", align 1
@.str.549 = private unnamed_addr constant [20 x i8] c"kExprI64AtomicSub8U\00", align 1
@.str.550 = private unnamed_addr constant [21 x i8] c"kExprI64AtomicSub16U\00", align 1
@.str.551 = private unnamed_addr constant [21 x i8] c"kExprI64AtomicSub32U\00", align 1
@.str.552 = private unnamed_addr constant [18 x i8] c"kExprI32AtomicAnd\00", align 1
@.str.553 = private unnamed_addr constant [18 x i8] c"kExprI64AtomicAnd\00", align 1
@.str.554 = private unnamed_addr constant [20 x i8] c"kExprI32AtomicAnd8U\00", align 1
@.str.555 = private unnamed_addr constant [21 x i8] c"kExprI32AtomicAnd16U\00", align 1
@.str.556 = private unnamed_addr constant [20 x i8] c"kExprI64AtomicAnd8U\00", align 1
@.str.557 = private unnamed_addr constant [21 x i8] c"kExprI64AtomicAnd16U\00", align 1
@.str.558 = private unnamed_addr constant [21 x i8] c"kExprI64AtomicAnd32U\00", align 1
@.str.559 = private unnamed_addr constant [17 x i8] c"kExprI32AtomicOr\00", align 1
@.str.560 = private unnamed_addr constant [17 x i8] c"kExprI64AtomicOr\00", align 1
@.str.561 = private unnamed_addr constant [19 x i8] c"kExprI32AtomicOr8U\00", align 1
@.str.562 = private unnamed_addr constant [20 x i8] c"kExprI32AtomicOr16U\00", align 1
@.str.563 = private unnamed_addr constant [19 x i8] c"kExprI64AtomicOr8U\00", align 1
@.str.564 = private unnamed_addr constant [20 x i8] c"kExprI64AtomicOr16U\00", align 1
@.str.565 = private unnamed_addr constant [20 x i8] c"kExprI64AtomicOr32U\00", align 1
@.str.566 = private unnamed_addr constant [18 x i8] c"kExprI32AtomicXor\00", align 1
@.str.567 = private unnamed_addr constant [18 x i8] c"kExprI64AtomicXor\00", align 1
@.str.568 = private unnamed_addr constant [20 x i8] c"kExprI32AtomicXor8U\00", align 1
@.str.569 = private unnamed_addr constant [21 x i8] c"kExprI32AtomicXor16U\00", align 1
@.str.570 = private unnamed_addr constant [20 x i8] c"kExprI64AtomicXor8U\00", align 1
@.str.571 = private unnamed_addr constant [21 x i8] c"kExprI64AtomicXor16U\00", align 1
@.str.572 = private unnamed_addr constant [21 x i8] c"kExprI64AtomicXor32U\00", align 1
@.str.573 = private unnamed_addr constant [23 x i8] c"kExprI32AtomicExchange\00", align 1
@.str.574 = private unnamed_addr constant [23 x i8] c"kExprI64AtomicExchange\00", align 1
@.str.575 = private unnamed_addr constant [25 x i8] c"kExprI32AtomicExchange8U\00", align 1
@.str.576 = private unnamed_addr constant [26 x i8] c"kExprI32AtomicExchange16U\00", align 1
@.str.577 = private unnamed_addr constant [25 x i8] c"kExprI64AtomicExchange8U\00", align 1
@.str.578 = private unnamed_addr constant [26 x i8] c"kExprI64AtomicExchange16U\00", align 1
@.str.579 = private unnamed_addr constant [26 x i8] c"kExprI64AtomicExchange32U\00", align 1
@.str.580 = private unnamed_addr constant [30 x i8] c"kExprI32AtomicCompareExchange\00", align 1
@.str.581 = private unnamed_addr constant [30 x i8] c"kExprI64AtomicCompareExchange\00", align 1
@.str.582 = private unnamed_addr constant [32 x i8] c"kExprI32AtomicCompareExchange8U\00", align 1
@.str.583 = private unnamed_addr constant [33 x i8] c"kExprI32AtomicCompareExchange16U\00", align 1
@.str.584 = private unnamed_addr constant [32 x i8] c"kExprI64AtomicCompareExchange8U\00", align 1
@.str.585 = private unnamed_addr constant [33 x i8] c"kExprI64AtomicCompareExchange16U\00", align 1
@.str.586 = private unnamed_addr constant [33 x i8] c"kExprI64AtomicCompareExchange32U\00", align 1
@.str.587 = private unnamed_addr constant [17 x i8] c"kExprAtomicFence\00", align 1
@.str.588 = private unnamed_addr constant [23 x i8] c"kExprI32SConvertSatF32\00", align 1
@.str.589 = private unnamed_addr constant [23 x i8] c"kExprI32UConvertSatF32\00", align 1
@.str.590 = private unnamed_addr constant [23 x i8] c"kExprI32SConvertSatF64\00", align 1
@.str.591 = private unnamed_addr constant [23 x i8] c"kExprI32UConvertSatF64\00", align 1
@.str.592 = private unnamed_addr constant [23 x i8] c"kExprI64SConvertSatF32\00", align 1
@.str.593 = private unnamed_addr constant [23 x i8] c"kExprI64UConvertSatF32\00", align 1
@.str.594 = private unnamed_addr constant [23 x i8] c"kExprI64SConvertSatF64\00", align 1
@.str.595 = private unnamed_addr constant [23 x i8] c"kExprI64UConvertSatF64\00", align 1
@.str.596 = private unnamed_addr constant [16 x i8] c"kExprMemoryInit\00", align 1
@.str.597 = private unnamed_addr constant [14 x i8] c"kExprDataDrop\00", align 1
@.str.598 = private unnamed_addr constant [16 x i8] c"kExprMemoryCopy\00", align 1
@.str.599 = private unnamed_addr constant [16 x i8] c"kExprMemoryFill\00", align 1
@.str.600 = private unnamed_addr constant [15 x i8] c"kExprTableInit\00", align 1
@.str.601 = private unnamed_addr constant [14 x i8] c"kExprElemDrop\00", align 1
@.str.602 = private unnamed_addr constant [15 x i8] c"kExprTableCopy\00", align 1
@.str.603 = private unnamed_addr constant [15 x i8] c"kExprTableGrow\00", align 1
@.str.604 = private unnamed_addr constant [15 x i8] c"kExprTableSize\00", align 1
@.str.605 = private unnamed_addr constant [15 x i8] c"kExprTableFill\00", align 1
@.str.606 = private unnamed_addr constant [22 x i8] c"kExprStructNewWithRtt\00", align 1
@.str.607 = private unnamed_addr constant [22 x i8] c"kExprStructNewDefault\00", align 1
@.str.608 = private unnamed_addr constant [15 x i8] c"kExprStructGet\00", align 1
@.str.609 = private unnamed_addr constant [16 x i8] c"kExprStructGetS\00", align 1
@.str.610 = private unnamed_addr constant [16 x i8] c"kExprStructGetU\00", align 1
@.str.611 = private unnamed_addr constant [15 x i8] c"kExprStructSet\00", align 1
@.str.612 = private unnamed_addr constant [21 x i8] c"kExprArrayNewWithRtt\00", align 1
@.str.613 = private unnamed_addr constant [21 x i8] c"kExprArrayNewDefault\00", align 1
@.str.614 = private unnamed_addr constant [14 x i8] c"kExprArrayGet\00", align 1
@.str.615 = private unnamed_addr constant [15 x i8] c"kExprArrayGetS\00", align 1
@.str.616 = private unnamed_addr constant [15 x i8] c"kExprArrayGetU\00", align 1
@.str.617 = private unnamed_addr constant [14 x i8] c"kExprArraySet\00", align 1
@.str.618 = private unnamed_addr constant [14 x i8] c"kExprArrayLen\00", align 1
@.str.619 = private unnamed_addr constant [15 x i8] c"kExprArrayCopy\00", align 1
@.str.620 = private unnamed_addr constant [12 x i8] c"kExprI31New\00", align 1
@.str.621 = private unnamed_addr constant [13 x i8] c"kExprI31GetS\00", align 1
@.str.622 = private unnamed_addr constant [13 x i8] c"kExprI31GetU\00", align 1
@.str.623 = private unnamed_addr constant [14 x i8] c"kExprRttCanon\00", align 1
@.str.624 = private unnamed_addr constant [12 x i8] c"kExprRttSub\00", align 1
@.str.625 = private unnamed_addr constant [13 x i8] c"kExprRefTest\00", align 1
@.str.626 = private unnamed_addr constant [13 x i8] c"kExprRefCast\00", align 1
@.str.627 = private unnamed_addr constant [14 x i8] c"kExprBrOnCast\00", align 1
@.str.628 = private unnamed_addr constant [18 x i8] c"kExprBrOnCastFail\00", align 1
@.str.629 = private unnamed_addr constant [15 x i8] c"kExprRefIsFunc\00", align 1
@.str.630 = private unnamed_addr constant [15 x i8] c"kExprRefIsData\00", align 1
@.str.631 = private unnamed_addr constant [14 x i8] c"kExprRefIsI31\00", align 1
@.str.632 = private unnamed_addr constant [15 x i8] c"kExprRefAsFunc\00", align 1
@.str.633 = private unnamed_addr constant [15 x i8] c"kExprRefAsData\00", align 1
@.str.634 = private unnamed_addr constant [14 x i8] c"kExprRefAsI31\00", align 1
@.str.635 = private unnamed_addr constant [14 x i8] c"kExprBrOnFunc\00", align 1
@.str.636 = private unnamed_addr constant [14 x i8] c"kExprBrOnData\00", align 1
@.str.637 = private unnamed_addr constant [13 x i8] c"kExprBrOnI31\00", align 1
@.str.638 = private unnamed_addr constant [17 x i8] c"kExprBrOnNonFunc\00", align 1
@.str.639 = private unnamed_addr constant [17 x i8] c"kExprBrOnNonData\00", align 1
@.str.640 = private unnamed_addr constant [16 x i8] c"kExprBrOnNonI31\00", align 1
@.str.641 = private unnamed_addr constant [8 x i8] c"Unknown\00", align 1
@.str.642 = private unnamed_addr constant [8 x i8] c"i32.eqz\00", align 1
@.str.643 = private unnamed_addr constant [8 x i8] c"i64.eqz\00", align 1
@.str.644 = private unnamed_addr constant [7 x i8] c"f32.eq\00", align 1
@.str.645 = private unnamed_addr constant [7 x i8] c"f64.eq\00", align 1
@.str.646 = private unnamed_addr constant [7 x i8] c"i32.eq\00", align 1
@.str.647 = private unnamed_addr constant [7 x i8] c"i64.eq\00", align 1
@.str.648 = private unnamed_addr constant [7 x i8] c"f32.ne\00", align 1
@.str.649 = private unnamed_addr constant [7 x i8] c"f64.ne\00", align 1
@.str.650 = private unnamed_addr constant [7 x i8] c"i32.ne\00", align 1
@.str.651 = private unnamed_addr constant [7 x i8] c"i64.ne\00", align 1
@.str.652 = private unnamed_addr constant [8 x i8] c"f32.add\00", align 1
@.str.653 = private unnamed_addr constant [8 x i8] c"f64.add\00", align 1
@.str.654 = private unnamed_addr constant [8 x i8] c"i32.add\00", align 1
@.str.655 = private unnamed_addr constant [8 x i8] c"i64.add\00", align 1
@.str.656 = private unnamed_addr constant [8 x i8] c"f32.sub\00", align 1
@.str.657 = private unnamed_addr constant [8 x i8] c"f64.sub\00", align 1
@.str.658 = private unnamed_addr constant [8 x i8] c"i32.sub\00", align 1
@.str.659 = private unnamed_addr constant [8 x i8] c"i64.sub\00", align 1
@.str.660 = private unnamed_addr constant [8 x i8] c"f32.mul\00", align 1
@.str.661 = private unnamed_addr constant [8 x i8] c"f64.mul\00", align 1
@.str.662 = private unnamed_addr constant [8 x i8] c"i32.mul\00", align 1
@.str.663 = private unnamed_addr constant [8 x i8] c"i64.mul\00", align 1
@.str.664 = private unnamed_addr constant [7 x i8] c"f32.lt\00", align 1
@.str.665 = private unnamed_addr constant [7 x i8] c"f64.lt\00", align 1
@.str.666 = private unnamed_addr constant [9 x i8] c"i32.lt_s\00", align 1
@.str.667 = private unnamed_addr constant [9 x i8] c"i64.lt_s\00", align 1
@.str.668 = private unnamed_addr constant [9 x i8] c"i32.lt_u\00", align 1
@.str.669 = private unnamed_addr constant [9 x i8] c"i64.lt_u\00", align 1
@.str.670 = private unnamed_addr constant [7 x i8] c"f32.gt\00", align 1
@.str.671 = private unnamed_addr constant [7 x i8] c"f64.gt\00", align 1
@.str.672 = private unnamed_addr constant [9 x i8] c"i32.gt_s\00", align 1
@.str.673 = private unnamed_addr constant [9 x i8] c"i64.gt_s\00", align 1
@.str.674 = private unnamed_addr constant [9 x i8] c"i32.gt_u\00", align 1
@.str.675 = private unnamed_addr constant [9 x i8] c"i64.gt_u\00", align 1
@.str.676 = private unnamed_addr constant [7 x i8] c"f32.le\00", align 1
@.str.677 = private unnamed_addr constant [7 x i8] c"f64.le\00", align 1
@.str.678 = private unnamed_addr constant [9 x i8] c"i32.le_s\00", align 1
@.str.679 = private unnamed_addr constant [9 x i8] c"i64.le_s\00", align 1
@.str.680 = private unnamed_addr constant [9 x i8] c"i32.le_u\00", align 1
@.str.681 = private unnamed_addr constant [9 x i8] c"i64.le_u\00", align 1
@.str.682 = private unnamed_addr constant [7 x i8] c"f32.ge\00", align 1
@.str.683 = private unnamed_addr constant [7 x i8] c"f64.ge\00", align 1
@.str.684 = private unnamed_addr constant [9 x i8] c"i32.ge_s\00", align 1
@.str.685 = private unnamed_addr constant [9 x i8] c"i64.ge_s\00", align 1
@.str.686 = private unnamed_addr constant [9 x i8] c"i32.ge_u\00", align 1
@.str.687 = private unnamed_addr constant [9 x i8] c"i64.ge_u\00", align 1
@.str.688 = private unnamed_addr constant [8 x i8] c"i32.clz\00", align 1
@.str.689 = private unnamed_addr constant [8 x i8] c"i64.clz\00", align 1
@.str.690 = private unnamed_addr constant [8 x i8] c"i32.ctz\00", align 1
@.str.691 = private unnamed_addr constant [8 x i8] c"i64.ctz\00", align 1
@.str.692 = private unnamed_addr constant [11 x i8] c"i32.popcnt\00", align 1
@.str.693 = private unnamed_addr constant [11 x i8] c"i64.popcnt\00", align 1
@.str.694 = private unnamed_addr constant [8 x i8] c"f32.div\00", align 1
@.str.695 = private unnamed_addr constant [8 x i8] c"f64.div\00", align 1
@.str.696 = private unnamed_addr constant [10 x i8] c"i32.div_s\00", align 1
@.str.697 = private unnamed_addr constant [10 x i8] c"i64.div_s\00", align 1
@.str.698 = private unnamed_addr constant [10 x i8] c"i32.div_u\00", align 1
@.str.699 = private unnamed_addr constant [10 x i8] c"i64.div_u\00", align 1
@.str.700 = private unnamed_addr constant [10 x i8] c"i32.rem_s\00", align 1
@.str.701 = private unnamed_addr constant [10 x i8] c"i64.rem_s\00", align 1
@.str.702 = private unnamed_addr constant [10 x i8] c"i32.rem_u\00", align 1
@.str.703 = private unnamed_addr constant [10 x i8] c"i64.rem_u\00", align 1
@.str.704 = private unnamed_addr constant [8 x i8] c"i32.and\00", align 1
@.str.705 = private unnamed_addr constant [8 x i8] c"i64.and\00", align 1
@.str.706 = private unnamed_addr constant [7 x i8] c"i32.or\00", align 1
@.str.707 = private unnamed_addr constant [7 x i8] c"i64.or\00", align 1
@.str.708 = private unnamed_addr constant [8 x i8] c"i32.xor\00", align 1
@.str.709 = private unnamed_addr constant [8 x i8] c"i64.xor\00", align 1
@.str.710 = private unnamed_addr constant [8 x i8] c"i32.shl\00", align 1
@.str.711 = private unnamed_addr constant [8 x i8] c"i64.shl\00", align 1
@.str.712 = private unnamed_addr constant [10 x i8] c"i32.shr_s\00", align 1
@.str.713 = private unnamed_addr constant [10 x i8] c"i64.shr_s\00", align 1
@.str.714 = private unnamed_addr constant [10 x i8] c"i32.shr_u\00", align 1
@.str.715 = private unnamed_addr constant [10 x i8] c"i64.shr_u\00", align 1
@.str.716 = private unnamed_addr constant [8 x i8] c"i32.rol\00", align 1
@.str.717 = private unnamed_addr constant [8 x i8] c"i64.rol\00", align 1
@.str.718 = private unnamed_addr constant [8 x i8] c"i32.ror\00", align 1
@.str.719 = private unnamed_addr constant [8 x i8] c"i64.ror\00", align 1
@.str.720 = private unnamed_addr constant [8 x i8] c"f32.abs\00", align 1
@.str.721 = private unnamed_addr constant [8 x i8] c"f64.abs\00", align 1
@.str.722 = private unnamed_addr constant [8 x i8] c"f32.neg\00", align 1
@.str.723 = private unnamed_addr constant [8 x i8] c"f64.neg\00", align 1
@.str.724 = private unnamed_addr constant [9 x i8] c"f32.ceil\00", align 1
@.str.725 = private unnamed_addr constant [9 x i8] c"f64.ceil\00", align 1
@.str.726 = private unnamed_addr constant [10 x i8] c"f32.floor\00", align 1
@.str.727 = private unnamed_addr constant [10 x i8] c"f64.floor\00", align 1
@.str.728 = private unnamed_addr constant [10 x i8] c"f32.trunc\00", align 1
@.str.729 = private unnamed_addr constant [10 x i8] c"f64.trunc\00", align 1
@.str.730 = private unnamed_addr constant [12 x i8] c"f32.nearest\00", align 1
@.str.731 = private unnamed_addr constant [12 x i8] c"f64.nearest\00", align 1
@.str.732 = private unnamed_addr constant [9 x i8] c"f32.sqrt\00", align 1
@.str.733 = private unnamed_addr constant [9 x i8] c"f64.sqrt\00", align 1
@.str.734 = private unnamed_addr constant [8 x i8] c"f32.min\00", align 1
@.str.735 = private unnamed_addr constant [8 x i8] c"f64.min\00", align 1
@.str.736 = private unnamed_addr constant [8 x i8] c"f32.max\00", align 1
@.str.737 = private unnamed_addr constant [8 x i8] c"f64.max\00", align 1
@.str.738 = private unnamed_addr constant [13 x i8] c"f32.copysign\00", align 1
@.str.739 = private unnamed_addr constant [13 x i8] c"f64.copysign\00", align 1
@.str.740 = private unnamed_addr constant [9 x i8] c"ref.null\00", align 1
@.str.741 = private unnamed_addr constant [12 x i8] c"ref.is_null\00", align 1
@.str.742 = private unnamed_addr constant [9 x i8] c"ref.func\00", align 1
@.str.743 = private unnamed_addr constant [16 x i8] c"ref.as_non_null\00", align 1
@.str.744 = private unnamed_addr constant [13 x i8] c"i32.wrap_i64\00", align 1
@.str.745 = private unnamed_addr constant [16 x i8] c"i32.trunc_f32_u\00", align 1
@.str.746 = private unnamed_addr constant [16 x i8] c"i64.trunc_f32_u\00", align 1
@.str.747 = private unnamed_addr constant [16 x i8] c"i32.trunc_f32_s\00", align 1
@.str.748 = private unnamed_addr constant [16 x i8] c"i64.trunc_f32_s\00", align 1
@.str.749 = private unnamed_addr constant [16 x i8] c"i32.trunc_f64_u\00", align 1
@.str.750 = private unnamed_addr constant [16 x i8] c"i64.trunc_f64_u\00", align 1
@.str.751 = private unnamed_addr constant [16 x i8] c"i32.trunc_f64_s\00", align 1
@.str.752 = private unnamed_addr constant [16 x i8] c"i64.trunc_f64_s\00", align 1
@.str.753 = private unnamed_addr constant [17 x i8] c"i64.extend_i32_u\00", align 1
@.str.754 = private unnamed_addr constant [17 x i8] c"i64.extend_i32_s\00", align 1
@.str.755 = private unnamed_addr constant [18 x i8] c"f32.convert_i32_u\00", align 1
@.str.756 = private unnamed_addr constant [18 x i8] c"f32.convert_i32_s\00", align 1
@.str.757 = private unnamed_addr constant [18 x i8] c"f32.convert_i64_u\00", align 1
@.str.758 = private unnamed_addr constant [18 x i8] c"f32.convert_i64_s\00", align 1
@.str.759 = private unnamed_addr constant [15 x i8] c"f32.demote_f64\00", align 1
@.str.760 = private unnamed_addr constant [18 x i8] c"f64.convert_i32_u\00", align 1
@.str.761 = private unnamed_addr constant [18 x i8] c"f64.convert_i32_s\00", align 1
@.str.762 = private unnamed_addr constant [18 x i8] c"f64.convert_i64_u\00", align 1
@.str.763 = private unnamed_addr constant [18 x i8] c"f64.convert_i64_s\00", align 1
@.str.764 = private unnamed_addr constant [16 x i8] c"f64.promote_f32\00", align 1
@.str.765 = private unnamed_addr constant [20 x i8] c"i32.reinterpret_f32\00", align 1
@.str.766 = private unnamed_addr constant [20 x i8] c"i64.reinterpret_f64\00", align 1
@.str.767 = private unnamed_addr constant [20 x i8] c"f32.reinterpret_i32\00", align 1
@.str.768 = private unnamed_addr constant [20 x i8] c"f64.reinterpret_i64\00", align 1
@.str.769 = private unnamed_addr constant [14 x i8] c"i32.extend8_s\00", align 1
@.str.770 = private unnamed_addr constant [14 x i8] c"i64.extend8_s\00", align 1
@.str.771 = private unnamed_addr constant [15 x i8] c"i32.extend16_s\00", align 1
@.str.772 = private unnamed_addr constant [15 x i8] c"i64.extend16_s\00", align 1
@.str.773 = private unnamed_addr constant [15 x i8] c"i64.extend32_s\00", align 1
@.str.774 = private unnamed_addr constant [12 x i8] c"unreachable\00", align 1
@.str.775 = private unnamed_addr constant [4 x i8] c"nop\00", align 1
@.str.776 = private unnamed_addr constant [16 x i8] c"nop_for_testing\00", align 1
@.str.777 = private unnamed_addr constant [6 x i8] c"block\00", align 1
@.str.778 = private unnamed_addr constant [5 x i8] c"loop\00", align 1
@.str.779 = private unnamed_addr constant [3 x i8] c"if\00", align 1
@.str.780 = private unnamed_addr constant [5 x i8] c"else\00", align 1
@.str.781 = private unnamed_addr constant [4 x i8] c"end\00", align 1
@.str.782 = private unnamed_addr constant [3 x i8] c"br\00", align 1
@.str.783 = private unnamed_addr constant [6 x i8] c"br_if\00", align 1
@.str.784 = private unnamed_addr constant [9 x i8] c"br_table\00", align 1
@.str.785 = private unnamed_addr constant [7 x i8] c"return\00", align 1
@.str.786 = private unnamed_addr constant [5 x i8] c"call\00", align 1
@.str.787 = private unnamed_addr constant [14 x i8] c"call_indirect\00", align 1
@.str.788 = private unnamed_addr constant [12 x i8] c"return_call\00", align 1
@.str.789 = private unnamed_addr constant [21 x i8] c"return_call_indirect\00", align 1
@.str.790 = private unnamed_addr constant [9 x i8] c"call_ref\00", align 1
@.str.791 = private unnamed_addr constant [16 x i8] c"return_call_ref\00", align 1
@.str.792 = private unnamed_addr constant [11 x i8] c"br_on_null\00", align 1
@.str.793 = private unnamed_addr constant [15 x i8] c"br_on_non_null\00", align 1
@.str.794 = private unnamed_addr constant [5 x i8] c"drop\00", align 1
@.str.795 = private unnamed_addr constant [7 x i8] c"select\00", align 1
@.str.796 = private unnamed_addr constant [10 x i8] c"local.get\00", align 1
@.str.797 = private unnamed_addr constant [10 x i8] c"local.set\00", align 1
@.str.798 = private unnamed_addr constant [10 x i8] c"local.tee\00", align 1
@.str.799 = private unnamed_addr constant [11 x i8] c"global.get\00", align 1
@.str.800 = private unnamed_addr constant [11 x i8] c"global.set\00", align 1
@.str.801 = private unnamed_addr constant [10 x i8] c"table.get\00", align 1
@.str.802 = private unnamed_addr constant [10 x i8] c"table.set\00", align 1
@.str.803 = private unnamed_addr constant [10 x i8] c"f32.const\00", align 1
@.str.804 = private unnamed_addr constant [10 x i8] c"f64.const\00", align 1
@.str.805 = private unnamed_addr constant [10 x i8] c"i32.const\00", align 1
@.str.806 = private unnamed_addr constant [10 x i8] c"i64.const\00", align 1
@.str.807 = private unnamed_addr constant [12 x i8] c"memory.size\00", align 1
@.str.808 = private unnamed_addr constant [12 x i8] c"memory.grow\00", align 1
@.str.809 = private unnamed_addr constant [9 x i8] c"f32.load\00", align 1
@.str.810 = private unnamed_addr constant [9 x i8] c"f64.load\00", align 1
@.str.811 = private unnamed_addr constant [9 x i8] c"i32.load\00", align 1
@.str.812 = private unnamed_addr constant [9 x i8] c"i64.load\00", align 1
@.str.813 = private unnamed_addr constant [12 x i8] c"i32.load8_s\00", align 1
@.str.814 = private unnamed_addr constant [12 x i8] c"i64.load8_s\00", align 1
@.str.815 = private unnamed_addr constant [12 x i8] c"i32.load8_u\00", align 1
@.str.816 = private unnamed_addr constant [12 x i8] c"i64.load8_u\00", align 1
@.str.817 = private unnamed_addr constant [13 x i8] c"i32.load16_s\00", align 1
@.str.818 = private unnamed_addr constant [13 x i8] c"i64.load16_s\00", align 1
@.str.819 = private unnamed_addr constant [13 x i8] c"i32.load16_u\00", align 1
@.str.820 = private unnamed_addr constant [13 x i8] c"i64.load16_u\00", align 1
@.str.821 = private unnamed_addr constant [13 x i8] c"i64.load32_s\00", align 1
@.str.822 = private unnamed_addr constant [13 x i8] c"i64.load32_u\00", align 1
@.str.823 = private unnamed_addr constant [13 x i8] c"s128.load128\00", align 1
@.str.824 = private unnamed_addr constant [11 x i8] c"s128.const\00", align 1
@.str.825 = private unnamed_addr constant [10 x i8] c"f32.store\00", align 1
@.str.826 = private unnamed_addr constant [10 x i8] c"f64.store\00", align 1
@.str.827 = private unnamed_addr constant [10 x i8] c"i32.store\00", align 1
@.str.828 = private unnamed_addr constant [10 x i8] c"i64.store\00", align 1
@.str.829 = private unnamed_addr constant [11 x i8] c"i32.store8\00", align 1
@.str.830 = private unnamed_addr constant [11 x i8] c"i64.store8\00", align 1
@.str.831 = private unnamed_addr constant [12 x i8] c"i32.store16\00", align 1
@.str.832 = private unnamed_addr constant [12 x i8] c"i64.store16\00", align 1
@.str.833 = private unnamed_addr constant [12 x i8] c"i64.store32\00", align 1
@.str.834 = private unnamed_addr constant [14 x i8] c"s128.store128\00", align 1
@.str.835 = private unnamed_addr constant [7 x i8] c"ref.eq\00", align 1
@.str.836 = private unnamed_addr constant [4 x i8] c"let\00", align 1
@.str.837 = private unnamed_addr constant [4 x i8] c"try\00", align 1
@.str.838 = private unnamed_addr constant [6 x i8] c"catch\00", align 1
@.str.839 = private unnamed_addr constant [9 x i8] c"delegate\00", align 1
@.str.840 = private unnamed_addr constant [6 x i8] c"throw\00", align 1
@.str.841 = private unnamed_addr constant [8 x i8] c"rethrow\00", align 1
@.str.842 = private unnamed_addr constant [10 x i8] c"catch-all\00", align 1
@.str.843 = private unnamed_addr constant [7 x i8] c"unwind\00", align 1
@.str.844 = private unnamed_addr constant [9 x i8] c"f64.acos\00", align 1
@.str.845 = private unnamed_addr constant [9 x i8] c"f64.asin\00", align 1
@.str.846 = private unnamed_addr constant [9 x i8] c"f64.atan\00", align 1
@.str.847 = private unnamed_addr constant [8 x i8] c"f64.cos\00", align 1
@.str.848 = private unnamed_addr constant [8 x i8] c"f64.sin\00", align 1
@.str.849 = private unnamed_addr constant [8 x i8] c"f64.tan\00", align 1
@.str.850 = private unnamed_addr constant [8 x i8] c"f64.exp\00", align 1
@.str.851 = private unnamed_addr constant [8 x i8] c"f64.log\00", align 1
@.str.852 = private unnamed_addr constant [10 x i8] c"f64.atan2\00", align 1
@.str.853 = private unnamed_addr constant [8 x i8] c"f64.pow\00", align 1
@.str.854 = private unnamed_addr constant [8 x i8] c"f64.mod\00", align 1
@.str.855 = private unnamed_addr constant [15 x i8] c"f32.asmjs_load\00", align 1
@.str.856 = private unnamed_addr constant [15 x i8] c"f64.asmjs_load\00", align 1
@.str.857 = private unnamed_addr constant [18 x i8] c"i32.asmjs_load8_s\00", align 1
@.str.858 = private unnamed_addr constant [18 x i8] c"i32.asmjs_load8_u\00", align 1
@.str.859 = private unnamed_addr constant [19 x i8] c"i32.asmjs_load16_s\00", align 1
@.str.860 = private unnamed_addr constant [19 x i8] c"i32.asmjs_load16_u\00", align 1
@.str.861 = private unnamed_addr constant [17 x i8] c"i32.asmjs_load32\00", align 1
@.str.862 = private unnamed_addr constant [16 x i8] c"i32.asmjs_store\00", align 1
@.str.863 = private unnamed_addr constant [16 x i8] c"f32.asmjs_store\00", align 1
@.str.864 = private unnamed_addr constant [16 x i8] c"f64.asmjs_store\00", align 1
@.str.865 = private unnamed_addr constant [17 x i8] c"i32.asmjs_store8\00", align 1
@.str.866 = private unnamed_addr constant [18 x i8] c"i32.asmjs_store16\00", align 1
@.str.867 = private unnamed_addr constant [16 x i8] c"i32.asmjs_div_s\00", align 1
@.str.868 = private unnamed_addr constant [16 x i8] c"i32.asmjs_div_u\00", align 1
@.str.869 = private unnamed_addr constant [16 x i8] c"i32.asmjs_rem_s\00", align 1
@.str.870 = private unnamed_addr constant [16 x i8] c"i32.asmjs_rem_u\00", align 1
@.str.871 = private unnamed_addr constant [24 x i8] c"i32.asmjs_convert_f32_s\00", align 1
@.str.872 = private unnamed_addr constant [24 x i8] c"i32.asmjs_convert_f32_u\00", align 1
@.str.873 = private unnamed_addr constant [24 x i8] c"i32.asmjs_convert_f64_s\00", align 1
@.str.874 = private unnamed_addr constant [24 x i8] c"i32.asmjs_convert_f64_u\00", align 1
@.str.875 = private unnamed_addr constant [20 x i8] c"i32.trunc_sat_f32_u\00", align 1
@.str.876 = private unnamed_addr constant [20 x i8] c"i32.trunc_sat_f32_s\00", align 1
@.str.877 = private unnamed_addr constant [20 x i8] c"i32.trunc_sat_f64_u\00", align 1
@.str.878 = private unnamed_addr constant [20 x i8] c"i32.trunc_sat_f64_s\00", align 1
@.str.879 = private unnamed_addr constant [20 x i8] c"i64.trunc_sat_f32_u\00", align 1
@.str.880 = private unnamed_addr constant [20 x i8] c"i64.trunc_sat_f32_s\00", align 1
@.str.881 = private unnamed_addr constant [20 x i8] c"i64.trunc_sat_f64_u\00", align 1
@.str.882 = private unnamed_addr constant [20 x i8] c"i64.trunc_sat_f64_s\00", align 1
@.str.883 = private unnamed_addr constant [12 x i8] c"memory.init\00", align 1
@.str.884 = private unnamed_addr constant [10 x i8] c"data.drop\00", align 1
@.str.885 = private unnamed_addr constant [12 x i8] c"memory.copy\00", align 1
@.str.886 = private unnamed_addr constant [12 x i8] c"memory.fill\00", align 1
@.str.887 = private unnamed_addr constant [11 x i8] c"table.init\00", align 1
@.str.888 = private unnamed_addr constant [10 x i8] c"elem.drop\00", align 1
@.str.889 = private unnamed_addr constant [11 x i8] c"table.copy\00", align 1
@.str.890 = private unnamed_addr constant [11 x i8] c"table.grow\00", align 1
@.str.891 = private unnamed_addr constant [11 x i8] c"table.size\00", align 1
@.str.892 = private unnamed_addr constant [11 x i8] c"table.fill\00", align 1
@.str.893 = private unnamed_addr constant [12 x i8] c"f64x2.splat\00", align 1
@.str.894 = private unnamed_addr constant [12 x i8] c"i64x2.splat\00", align 1
@.str.895 = private unnamed_addr constant [12 x i8] c"f32x4.splat\00", align 1
@.str.896 = private unnamed_addr constant [12 x i8] c"i32x4.splat\00", align 1
@.str.897 = private unnamed_addr constant [12 x i8] c"i16x8.splat\00", align 1
@.str.898 = private unnamed_addr constant [12 x i8] c"i8x16.splat\00", align 1
@.str.899 = private unnamed_addr constant [10 x i8] c"f64x2.neg\00", align 1
@.str.900 = private unnamed_addr constant [10 x i8] c"i64x2.neg\00", align 1
@.str.901 = private unnamed_addr constant [10 x i8] c"f32x4.neg\00", align 1
@.str.902 = private unnamed_addr constant [10 x i8] c"i32x4.neg\00", align 1
@.str.903 = private unnamed_addr constant [10 x i8] c"i16x8.neg\00", align 1
@.str.904 = private unnamed_addr constant [10 x i8] c"i8x16.neg\00", align 1
@.str.905 = private unnamed_addr constant [11 x i8] c"f32x4.sqrt\00", align 1
@.str.906 = private unnamed_addr constant [11 x i8] c"f64x2.sqrt\00", align 1
@.str.907 = private unnamed_addr constant [9 x i8] c"f64x2.eq\00", align 1
@.str.908 = private unnamed_addr constant [9 x i8] c"i64x2.eq\00", align 1
@.str.909 = private unnamed_addr constant [9 x i8] c"f32x4.eq\00", align 1
@.str.910 = private unnamed_addr constant [9 x i8] c"i32x4.eq\00", align 1
@.str.911 = private unnamed_addr constant [9 x i8] c"i16x8.eq\00", align 1
@.str.912 = private unnamed_addr constant [9 x i8] c"i8x16.eq\00", align 1
@.str.913 = private unnamed_addr constant [9 x i8] c"f64x2.ne\00", align 1
@.str.914 = private unnamed_addr constant [9 x i8] c"i64x2.ne\00", align 1
@.str.915 = private unnamed_addr constant [9 x i8] c"f32x4.ne\00", align 1
@.str.916 = private unnamed_addr constant [9 x i8] c"i32x4.ne\00", align 1
@.str.917 = private unnamed_addr constant [9 x i8] c"i16x8.ne\00", align 1
@.str.918 = private unnamed_addr constant [9 x i8] c"i8x16.ne\00", align 1
@.str.919 = private unnamed_addr constant [10 x i8] c"f64x2.add\00", align 1
@.str.920 = private unnamed_addr constant [10 x i8] c"i64x2.add\00", align 1
@.str.921 = private unnamed_addr constant [10 x i8] c"f32x4.add\00", align 1
@.str.922 = private unnamed_addr constant [10 x i8] c"i32x4.add\00", align 1
@.str.923 = private unnamed_addr constant [10 x i8] c"i16x8.add\00", align 1
@.str.924 = private unnamed_addr constant [10 x i8] c"i8x16.add\00", align 1
@.str.925 = private unnamed_addr constant [10 x i8] c"f64x2.sub\00", align 1
@.str.926 = private unnamed_addr constant [10 x i8] c"i64x2.sub\00", align 1
@.str.927 = private unnamed_addr constant [10 x i8] c"f32x4.sub\00", align 1
@.str.928 = private unnamed_addr constant [10 x i8] c"i32x4.sub\00", align 1
@.str.929 = private unnamed_addr constant [10 x i8] c"i16x8.sub\00", align 1
@.str.930 = private unnamed_addr constant [10 x i8] c"i8x16.sub\00", align 1
@.str.931 = private unnamed_addr constant [10 x i8] c"i16x8.mul\00", align 1
@.str.932 = private unnamed_addr constant [10 x i8] c"i32x4.mul\00", align 1
@.str.933 = private unnamed_addr constant [10 x i8] c"i64x2.mul\00", align 1
@.str.934 = private unnamed_addr constant [10 x i8] c"f32x4.mul\00", align 1
@.str.935 = private unnamed_addr constant [10 x i8] c"f64x2.mul\00", align 1
@.str.936 = private unnamed_addr constant [10 x i8] c"f32x4.div\00", align 1
@.str.937 = private unnamed_addr constant [10 x i8] c"f64x2.div\00", align 1
@.str.938 = private unnamed_addr constant [9 x i8] c"f32x4.lt\00", align 1
@.str.939 = private unnamed_addr constant [9 x i8] c"f64x2.lt\00", align 1
@.str.940 = private unnamed_addr constant [9 x i8] c"f32x4.le\00", align 1
@.str.941 = private unnamed_addr constant [9 x i8] c"f64x2.le\00", align 1
@.str.942 = private unnamed_addr constant [9 x i8] c"f32x4.gt\00", align 1
@.str.943 = private unnamed_addr constant [9 x i8] c"f64x2.gt\00", align 1
@.str.944 = private unnamed_addr constant [9 x i8] c"f32x4.ge\00", align 1
@.str.945 = private unnamed_addr constant [9 x i8] c"f64x2.ge\00", align 1
@.str.946 = private unnamed_addr constant [10 x i8] c"f32x4.abs\00", align 1
@.str.947 = private unnamed_addr constant [10 x i8] c"f64x2.abs\00", align 1
@.str.948 = private unnamed_addr constant [19 x i8] c"f32x4.recip_approx\00", align 1
@.str.949 = private unnamed_addr constant [24 x i8] c"f32x4.recip_sqrt_approx\00", align 1
@.str.950 = private unnamed_addr constant [10 x i8] c"f32x4.min\00", align 1
@.str.951 = private unnamed_addr constant [10 x i8] c"f64x2.min\00", align 1
@.str.952 = private unnamed_addr constant [10 x i8] c"f32x4.max\00", align 1
@.str.953 = private unnamed_addr constant [10 x i8] c"f64x2.max\00", align 1
@.str.954 = private unnamed_addr constant [22 x i8] c"f32x4.convert_i32x4_u\00", align 1
@.str.955 = private unnamed_addr constant [22 x i8] c"f32x4.convert_i32x4_s\00", align 1
@.str.956 = private unnamed_addr constant [22 x i8] c"i32x4.convert_f32x4_u\00", align 1
@.str.957 = private unnamed_addr constant [22 x i8] c"i32x4.convert_f32x4_s\00", align 1
@.str.958 = private unnamed_addr constant [26 x i8] c"i32x4.convert_i16x8_low_u\00", align 1
@.str.959 = private unnamed_addr constant [26 x i8] c"i32x4.convert_i16x8_low_s\00", align 1
@.str.960 = private unnamed_addr constant [27 x i8] c"i32x4.convert_i16x8_high_u\00", align 1
@.str.961 = private unnamed_addr constant [27 x i8] c"i32x4.convert_i16x8_high_s\00", align 1
@.str.962 = private unnamed_addr constant [22 x i8] c"i16x8.convert_i32x4_u\00", align 1
@.str.963 = private unnamed_addr constant [22 x i8] c"i16x8.convert_i32x4_s\00", align 1
@.str.964 = private unnamed_addr constant [26 x i8] c"i16x8.convert_i8x16_low_u\00", align 1
@.str.965 = private unnamed_addr constant [26 x i8] c"i16x8.convert_i8x16_low_s\00", align 1
@.str.966 = private unnamed_addr constant [27 x i8] c"i16x8.convert_i8x16_high_u\00", align 1
@.str.967 = private unnamed_addr constant [27 x i8] c"i16x8.convert_i8x16_high_s\00", align 1
@.str.968 = private unnamed_addr constant [22 x i8] c"i8x16.convert_i16x8_u\00", align 1
@.str.969 = private unnamed_addr constant [22 x i8] c"i8x16.convert_i16x8_s\00", align 1
@.str.970 = private unnamed_addr constant [19 x i8] c"f32x4.extract_lane\00", align 1
@.str.971 = private unnamed_addr constant [19 x i8] c"f64x2.extract_lane\00", align 1
@.str.972 = private unnamed_addr constant [19 x i8] c"f32x4.replace_lane\00", align 1
@.str.973 = private unnamed_addr constant [19 x i8] c"f64x2.replace_lane\00", align 1
@.str.974 = private unnamed_addr constant [19 x i8] c"i64x2.extract_lane\00", align 1
@.str.975 = private unnamed_addr constant [19 x i8] c"i32x4.extract_lane\00", align 1
@.str.976 = private unnamed_addr constant [21 x i8] c"i16x8.extract_lane_s\00", align 1
@.str.977 = private unnamed_addr constant [21 x i8] c"i16x8.extract_lane_u\00", align 1
@.str.978 = private unnamed_addr constant [21 x i8] c"i8x16.extract_lane_s\00", align 1
@.str.979 = private unnamed_addr constant [21 x i8] c"i8x16.extract_lane_u\00", align 1
@.str.980 = private unnamed_addr constant [19 x i8] c"i64x2.replace_lane\00", align 1
@.str.981 = private unnamed_addr constant [19 x i8] c"i32x4.replace_lane\00", align 1
@.str.982 = private unnamed_addr constant [19 x i8] c"i16x8.replace_lane\00", align 1
@.str.983 = private unnamed_addr constant [19 x i8] c"i8x16.replace_lane\00", align 1
@.str.984 = private unnamed_addr constant [12 x i8] c"i32x4.min_s\00", align 1
@.str.985 = private unnamed_addr constant [12 x i8] c"i16x8.min_s\00", align 1
@.str.986 = private unnamed_addr constant [12 x i8] c"i8x16.min_s\00", align 1
@.str.987 = private unnamed_addr constant [12 x i8] c"i32x4.min_u\00", align 1
@.str.988 = private unnamed_addr constant [12 x i8] c"i16x8.min_u\00", align 1
@.str.989 = private unnamed_addr constant [12 x i8] c"i8x16.min_u\00", align 1
@.str.990 = private unnamed_addr constant [12 x i8] c"i32x4.max_s\00", align 1
@.str.991 = private unnamed_addr constant [12 x i8] c"i16x8.max_s\00", align 1
@.str.992 = private unnamed_addr constant [12 x i8] c"i8x16.max_s\00", align 1
@.str.993 = private unnamed_addr constant [12 x i8] c"i32x4.max_u\00", align 1
@.str.994 = private unnamed_addr constant [12 x i8] c"i16x8.max_u\00", align 1
@.str.995 = private unnamed_addr constant [12 x i8] c"i8x16.max_u\00", align 1
@.str.996 = private unnamed_addr constant [11 x i8] c"i32x4.lt_s\00", align 1
@.str.997 = private unnamed_addr constant [11 x i8] c"i16x8.lt_s\00", align 1
@.str.998 = private unnamed_addr constant [11 x i8] c"i8x16.lt_s\00", align 1
@.str.999 = private unnamed_addr constant [11 x i8] c"i32x4.lt_u\00", align 1
@.str.1000 = private unnamed_addr constant [11 x i8] c"i16x8.lt_u\00", align 1
@.str.1001 = private unnamed_addr constant [11 x i8] c"i8x16.lt_u\00", align 1
@.str.1002 = private unnamed_addr constant [11 x i8] c"i64x2.lt_s\00", align 1
@.str.1003 = private unnamed_addr constant [11 x i8] c"i64x2.gt_s\00", align 1
@.str.1004 = private unnamed_addr constant [11 x i8] c"i64x2.le_s\00", align 1
@.str.1005 = private unnamed_addr constant [11 x i8] c"i64x2.ge_s\00", align 1
@.str.1006 = private unnamed_addr constant [11 x i8] c"i32x4.le_s\00", align 1
@.str.1007 = private unnamed_addr constant [11 x i8] c"i16x8.le_s\00", align 1
@.str.1008 = private unnamed_addr constant [11 x i8] c"i8x16.le_s\00", align 1
@.str.1009 = private unnamed_addr constant [11 x i8] c"i32x4.le_u\00", align 1
@.str.1010 = private unnamed_addr constant [11 x i8] c"i16x8.le_u\00", align 1
@.str.1011 = private unnamed_addr constant [11 x i8] c"i8x16.le_u\00", align 1
@.str.1012 = private unnamed_addr constant [11 x i8] c"i32x4.gt_s\00", align 1
@.str.1013 = private unnamed_addr constant [11 x i8] c"i16x8.gt_s\00", align 1
@.str.1014 = private unnamed_addr constant [11 x i8] c"i8x16.gt_s\00", align 1
@.str.1015 = private unnamed_addr constant [11 x i8] c"i32x4.gt_u\00", align 1
@.str.1016 = private unnamed_addr constant [11 x i8] c"i16x8.gt_u\00", align 1
@.str.1017 = private unnamed_addr constant [11 x i8] c"i8x16.gt_u\00", align 1
@.str.1018 = private unnamed_addr constant [11 x i8] c"i32x4.ge_s\00", align 1
@.str.1019 = private unnamed_addr constant [11 x i8] c"i16x8.ge_s\00", align 1
@.str.1020 = private unnamed_addr constant [11 x i8] c"i8x16.ge_s\00", align 1
@.str.1021 = private unnamed_addr constant [11 x i8] c"i32x4.ge_u\00", align 1
@.str.1022 = private unnamed_addr constant [11 x i8] c"i16x8.ge_u\00", align 1
@.str.1023 = private unnamed_addr constant [11 x i8] c"i8x16.ge_u\00", align 1
@.str.1024 = private unnamed_addr constant [26 x i8] c"i64x2.convert_i32x4_low_u\00", align 1
@.str.1025 = private unnamed_addr constant [26 x i8] c"i64x2.convert_i32x4_low_s\00", align 1
@.str.1026 = private unnamed_addr constant [27 x i8] c"i64x2.convert_i32x4_high_u\00", align 1
@.str.1027 = private unnamed_addr constant [27 x i8] c"i64x2.convert_i32x4_high_s\00", align 1
@.str.1028 = private unnamed_addr constant [12 x i8] c"i64x2.shr_s\00", align 1
@.str.1029 = private unnamed_addr constant [12 x i8] c"i32x4.shr_s\00", align 1
@.str.1030 = private unnamed_addr constant [12 x i8] c"i16x8.shr_s\00", align 1
@.str.1031 = private unnamed_addr constant [12 x i8] c"i8x16.shr_s\00", align 1
@.str.1032 = private unnamed_addr constant [12 x i8] c"i64x2.shr_u\00", align 1
@.str.1033 = private unnamed_addr constant [12 x i8] c"i32x4.shr_u\00", align 1
@.str.1034 = private unnamed_addr constant [12 x i8] c"i16x8.shr_u\00", align 1
@.str.1035 = private unnamed_addr constant [12 x i8] c"i8x16.shr_u\00", align 1
@.str.1036 = private unnamed_addr constant [10 x i8] c"i64x2.shl\00", align 1
@.str.1037 = private unnamed_addr constant [10 x i8] c"i32x4.shl\00", align 1
@.str.1038 = private unnamed_addr constant [10 x i8] c"i16x8.shl\00", align 1
@.str.1039 = private unnamed_addr constant [10 x i8] c"i8x16.shl\00", align 1
@.str.1040 = private unnamed_addr constant [16 x i8] c"i16x8.add_sat_s\00", align 1
@.str.1041 = private unnamed_addr constant [16 x i8] c"i16x8.add_sat_u\00", align 1
@.str.1042 = private unnamed_addr constant [16 x i8] c"i8x16.add_sat_s\00", align 1
@.str.1043 = private unnamed_addr constant [16 x i8] c"i8x16.add_sat_u\00", align 1
@.str.1044 = private unnamed_addr constant [16 x i8] c"i16x8.sub_sat_s\00", align 1
@.str.1045 = private unnamed_addr constant [16 x i8] c"i16x8.sub_sat_u\00", align 1
@.str.1046 = private unnamed_addr constant [16 x i8] c"i8x16.sub_sat_s\00", align 1
@.str.1047 = private unnamed_addr constant [16 x i8] c"i8x16.sub_sat_u\00", align 1
@.str.1048 = private unnamed_addr constant [9 x i8] c"s128.and\00", align 1
@.str.1049 = private unnamed_addr constant [8 x i8] c"s128.or\00", align 1
@.str.1050 = private unnamed_addr constant [9 x i8] c"s128.xor\00", align 1
@.str.1051 = private unnamed_addr constant [9 x i8] c"s128.not\00", align 1
@.str.1052 = private unnamed_addr constant [12 x i8] c"s128.select\00", align 1
@.str.1053 = private unnamed_addr constant [12 x i8] c"s128.andnot\00", align 1
@.str.1054 = private unnamed_addr constant [14 x i8] c"i8x16.swizzle\00", align 1
@.str.1055 = private unnamed_addr constant [14 x i8] c"i8x16.shuffle\00", align 1
@.str.1056 = private unnamed_addr constant [14 x i8] c"v128.any_true\00", align 1
@.str.1057 = private unnamed_addr constant [15 x i8] c"i64x2.all_true\00", align 1
@.str.1058 = private unnamed_addr constant [15 x i8] c"i32x4.all_true\00", align 1
@.str.1059 = private unnamed_addr constant [15 x i8] c"i16x8.all_true\00", align 1
@.str.1060 = private unnamed_addr constant [15 x i8] c"i8x16.all_true\00", align 1
@.str.1061 = private unnamed_addr constant [11 x i8] c"f32x4.qfma\00", align 1
@.str.1062 = private unnamed_addr constant [11 x i8] c"f64x2.qfma\00", align 1
@.str.1063 = private unnamed_addr constant [11 x i8] c"f32x4.qfms\00", align 1
@.str.1064 = private unnamed_addr constant [11 x i8] c"f64x2.qfms\00", align 1
@.str.1065 = private unnamed_addr constant [17 x i8] c"s128.load32_zero\00", align 1
@.str.1066 = private unnamed_addr constant [17 x i8] c"s128.load64_zero\00", align 1
@.str.1067 = private unnamed_addr constant [17 x i8] c"s128.load8_splat\00", align 1
@.str.1068 = private unnamed_addr constant [18 x i8] c"s128.load16_splat\00", align 1
@.str.1069 = private unnamed_addr constant [18 x i8] c"s128.load32_splat\00", align 1
@.str.1070 = private unnamed_addr constant [18 x i8] c"s128.load64_splat\00", align 1
@.str.1071 = private unnamed_addr constant [15 x i8] c"s128.load8x8_s\00", align 1
@.str.1072 = private unnamed_addr constant [15 x i8] c"s128.load8x8_u\00", align 1
@.str.1073 = private unnamed_addr constant [16 x i8] c"s128.load16x4_s\00", align 1
@.str.1074 = private unnamed_addr constant [16 x i8] c"s128.load16x4_u\00", align 1
@.str.1075 = private unnamed_addr constant [16 x i8] c"s128.load32x2_s\00", align 1
@.str.1076 = private unnamed_addr constant [16 x i8] c"s128.load32x2_u\00", align 1
@.str.1077 = private unnamed_addr constant [16 x i8] c"s128.load8_lane\00", align 1
@.str.1078 = private unnamed_addr constant [17 x i8] c"s128.load16_lane\00", align 1
@.str.1079 = private unnamed_addr constant [17 x i8] c"s128.load32_lane\00", align 1
@.str.1080 = private unnamed_addr constant [17 x i8] c"s128.load64_lane\00", align 1
@.str.1081 = private unnamed_addr constant [17 x i8] c"s128.store8_lane\00", align 1
@.str.1082 = private unnamed_addr constant [18 x i8] c"s128.store16_lane\00", align 1
@.str.1083 = private unnamed_addr constant [18 x i8] c"s128.store32_lane\00", align 1
@.str.1084 = private unnamed_addr constant [18 x i8] c"s128.store64_lane\00", align 1
@.str.1085 = private unnamed_addr constant [13 x i8] c"i8x16.avgr_u\00", align 1
@.str.1086 = private unnamed_addr constant [13 x i8] c"i16x8.avgr_u\00", align 1
@.str.1087 = private unnamed_addr constant [20 x i8] c"i16x8.q15mulr_sat_s\00", align 1
@.str.1088 = private unnamed_addr constant [10 x i8] c"i64x2.abs\00", align 1
@.str.1089 = private unnamed_addr constant [10 x i8] c"i32x4.abs\00", align 1
@.str.1090 = private unnamed_addr constant [10 x i8] c"i16x8.abs\00", align 1
@.str.1091 = private unnamed_addr constant [10 x i8] c"i8x16.abs\00", align 1
@.str.1092 = private unnamed_addr constant [14 x i8] c"i64x2.bitmask\00", align 1
@.str.1093 = private unnamed_addr constant [14 x i8] c"i32x4.bitmask\00", align 1
@.str.1094 = private unnamed_addr constant [14 x i8] c"i16x8.bitmask\00", align 1
@.str.1095 = private unnamed_addr constant [14 x i8] c"i8x16.bitmask\00", align 1
@.str.1096 = private unnamed_addr constant [13 x i8] c"i8x16.popcnt\00", align 1
@.str.1097 = private unnamed_addr constant [11 x i8] c"f32x4.pmin\00", align 1
@.str.1098 = private unnamed_addr constant [11 x i8] c"f64x2.pmin\00", align 1
@.str.1099 = private unnamed_addr constant [11 x i8] c"f32x4.pmax\00", align 1
@.str.1100 = private unnamed_addr constant [11 x i8] c"f64x2.pmax\00", align 1
@.str.1101 = private unnamed_addr constant [11 x i8] c"f32x4.ceil\00", align 1
@.str.1102 = private unnamed_addr constant [11 x i8] c"f64x2.ceil\00", align 1
@.str.1103 = private unnamed_addr constant [12 x i8] c"f32x4.floor\00", align 1
@.str.1104 = private unnamed_addr constant [12 x i8] c"f64x2.floor\00", align 1
@.str.1105 = private unnamed_addr constant [12 x i8] c"f32x4.trunc\00", align 1
@.str.1106 = private unnamed_addr constant [12 x i8] c"f64x2.trunc\00", align 1
@.str.1107 = private unnamed_addr constant [14 x i8] c"f32x4.nearest\00", align 1
@.str.1108 = private unnamed_addr constant [14 x i8] c"f64x2.nearest\00", align 1
@.str.1109 = private unnamed_addr constant [18 x i8] c"i32x4.dot_i16x8_s\00", align 1
@.str.1110 = private unnamed_addr constant [25 x i8] c"i16x8.extmul_low_i8x16_s\00", align 1
@.str.1111 = private unnamed_addr constant [25 x i8] c"i16x8.extmul_low_i8x16_u\00", align 1
@.str.1112 = private unnamed_addr constant [26 x i8] c"i16x8.extmul_high_i8x16_s\00", align 1
@.str.1113 = private unnamed_addr constant [26 x i8] c"i16x8.extmul_high_i8x16_u\00", align 1
@.str.1114 = private unnamed_addr constant [25 x i8] c"i32x4.extmul_low_i16x8_s\00", align 1
@.str.1115 = private unnamed_addr constant [25 x i8] c"i32x4.extmul_low_i16x8_u\00", align 1
@.str.1116 = private unnamed_addr constant [26 x i8] c"i32x4.extmul_high_i16x8_s\00", align 1
@.str.1117 = private unnamed_addr constant [26 x i8] c"i32x4.extmul_high_i16x8_u\00", align 1
@.str.1118 = private unnamed_addr constant [25 x i8] c"i64x2.extmul_low_i32x4_s\00", align 1
@.str.1119 = private unnamed_addr constant [25 x i8] c"i64x2.extmul_low_i32x4_u\00", align 1
@.str.1120 = private unnamed_addr constant [26 x i8] c"i64x2.extmul_high_i32x4_s\00", align 1
@.str.1121 = private unnamed_addr constant [26 x i8] c"i64x2.extmul_high_i32x4_u\00", align 1
@.str.1122 = private unnamed_addr constant [30 x i8] c"i32x4.extadd_pairwise_i16x8_s\00", align 1
@.str.1123 = private unnamed_addr constant [30 x i8] c"i32x4.extadd_pairwise_i16x8_u\00", align 1
@.str.1124 = private unnamed_addr constant [29 x i8] c"i16x8.extadd_pairwise_i8x6_s\00", align 1
@.str.1125 = private unnamed_addr constant [29 x i8] c"i16x8.extadd_pairwise_i8x6_u\00", align 1
@.str.1126 = private unnamed_addr constant [26 x i8] c"f64x2.convert_low_i32x4_s\00", align 1
@.str.1127 = private unnamed_addr constant [26 x i8] c"f64x2.convert_low_i32x4_u\00", align 1
@.str.1128 = private unnamed_addr constant [29 x i8] c"i32x4.trunc_sat_f64x2_s_zero\00", align 1
@.str.1129 = private unnamed_addr constant [29 x i8] c"i32x4.trunc_sat_f64x2_u_zero\00", align 1
@.str.1130 = private unnamed_addr constant [24 x i8] c"f32x4.demote_f64x2_zero\00", align 1
@.str.1131 = private unnamed_addr constant [24 x i8] c"f64x2.promote_low_f32x4\00", align 1
@.str.1132 = private unnamed_addr constant [14 x i8] c"atomic.notify\00", align 1
@.str.1133 = private unnamed_addr constant [16 x i8] c"i32.atomic.wait\00", align 1
@.str.1134 = private unnamed_addr constant [16 x i8] c"i64.atomic.wait\00", align 1
@.str.1135 = private unnamed_addr constant [13 x i8] c"atomic.fence\00", align 1
@.str.1136 = private unnamed_addr constant [18 x i8] c"i32.atomic.load32\00", align 1
@.str.1137 = private unnamed_addr constant [19 x i8] c"i32.atomic.load8_u\00", align 1
@.str.1138 = private unnamed_addr constant [20 x i8] c"i32.atomic.load16_u\00", align 1
@.str.1139 = private unnamed_addr constant [18 x i8] c"i64.atomic.load64\00", align 1
@.str.1140 = private unnamed_addr constant [19 x i8] c"i64.atomic.load8_u\00", align 1
@.str.1141 = private unnamed_addr constant [20 x i8] c"i64.atomic.load16_u\00", align 1
@.str.1142 = private unnamed_addr constant [20 x i8] c"i64.atomic.load32_u\00", align 1
@.str.1143 = private unnamed_addr constant [19 x i8] c"i32.atomic.store32\00", align 1
@.str.1144 = private unnamed_addr constant [20 x i8] c"i32.atomic.store8_u\00", align 1
@.str.1145 = private unnamed_addr constant [21 x i8] c"i32.atomic.store16_u\00", align 1
@.str.1146 = private unnamed_addr constant [19 x i8] c"i64.atomic.store64\00", align 1
@.str.1147 = private unnamed_addr constant [20 x i8] c"i64.atomic.store8_u\00", align 1
@.str.1148 = private unnamed_addr constant [21 x i8] c"i64.atomic.store16_u\00", align 1
@.str.1149 = private unnamed_addr constant [21 x i8] c"i64.atomic.store32_u\00", align 1
@.str.1150 = private unnamed_addr constant [17 x i8] c"i32.atomic.add32\00", align 1
@.str.1151 = private unnamed_addr constant [18 x i8] c"i32.atomic.add8_u\00", align 1
@.str.1152 = private unnamed_addr constant [19 x i8] c"i32.atomic.add16_u\00", align 1
@.str.1153 = private unnamed_addr constant [17 x i8] c"i64.atomic.add64\00", align 1
@.str.1154 = private unnamed_addr constant [18 x i8] c"i64.atomic.add8_u\00", align 1
@.str.1155 = private unnamed_addr constant [19 x i8] c"i64.atomic.add16_u\00", align 1
@.str.1156 = private unnamed_addr constant [19 x i8] c"i64.atomic.add32_u\00", align 1
@.str.1157 = private unnamed_addr constant [17 x i8] c"i32.atomic.sub32\00", align 1
@.str.1158 = private unnamed_addr constant [18 x i8] c"i32.atomic.sub8_u\00", align 1
@.str.1159 = private unnamed_addr constant [19 x i8] c"i32.atomic.sub16_u\00", align 1
@.str.1160 = private unnamed_addr constant [17 x i8] c"i64.atomic.sub64\00", align 1
@.str.1161 = private unnamed_addr constant [18 x i8] c"i64.atomic.sub8_u\00", align 1
@.str.1162 = private unnamed_addr constant [19 x i8] c"i64.atomic.sub16_u\00", align 1
@.str.1163 = private unnamed_addr constant [19 x i8] c"i64.atomic.sub32_u\00", align 1
@.str.1164 = private unnamed_addr constant [17 x i8] c"i32.atomic.and32\00", align 1
@.str.1165 = private unnamed_addr constant [18 x i8] c"i32.atomic.and8_u\00", align 1
@.str.1166 = private unnamed_addr constant [19 x i8] c"i32.atomic.and16_u\00", align 1
@.str.1167 = private unnamed_addr constant [17 x i8] c"i64.atomic.and64\00", align 1
@.str.1168 = private unnamed_addr constant [18 x i8] c"i64.atomic.and8_u\00", align 1
@.str.1169 = private unnamed_addr constant [19 x i8] c"i64.atomic.and16_u\00", align 1
@.str.1170 = private unnamed_addr constant [19 x i8] c"i64.atomic.and32_u\00", align 1
@.str.1171 = private unnamed_addr constant [16 x i8] c"i32.atomic.or32\00", align 1
@.str.1172 = private unnamed_addr constant [17 x i8] c"i32.atomic.or8_u\00", align 1
@.str.1173 = private unnamed_addr constant [18 x i8] c"i32.atomic.or16_u\00", align 1
@.str.1174 = private unnamed_addr constant [16 x i8] c"i64.atomic.or64\00", align 1
@.str.1175 = private unnamed_addr constant [17 x i8] c"i64.atomic.or8_u\00", align 1
@.str.1176 = private unnamed_addr constant [18 x i8] c"i64.atomic.or16_u\00", align 1
@.str.1177 = private unnamed_addr constant [18 x i8] c"i64.atomic.or32_u\00", align 1
@.str.1178 = private unnamed_addr constant [17 x i8] c"i32.atomic.xor32\00", align 1
@.str.1179 = private unnamed_addr constant [18 x i8] c"i32.atomic.xor8_u\00", align 1
@.str.1180 = private unnamed_addr constant [19 x i8] c"i32.atomic.xor16_u\00", align 1
@.str.1181 = private unnamed_addr constant [17 x i8] c"i64.atomic.xor64\00", align 1
@.str.1182 = private unnamed_addr constant [18 x i8] c"i64.atomic.xor8_u\00", align 1
@.str.1183 = private unnamed_addr constant [19 x i8] c"i64.atomic.xor16_u\00", align 1
@.str.1184 = private unnamed_addr constant [19 x i8] c"i64.atomic.xor32_u\00", align 1
@.str.1185 = private unnamed_addr constant [19 x i8] c"i32.atomic.xchng32\00", align 1
@.str.1186 = private unnamed_addr constant [20 x i8] c"i32.atomic.xchng8_u\00", align 1
@.str.1187 = private unnamed_addr constant [21 x i8] c"i32.atomic.xchng16_u\00", align 1
@.str.1188 = private unnamed_addr constant [19 x i8] c"i64.atomic.xchng64\00", align 1
@.str.1189 = private unnamed_addr constant [20 x i8] c"i64.atomic.xchng8_u\00", align 1
@.str.1190 = private unnamed_addr constant [21 x i8] c"i64.atomic.xchng16_u\00", align 1
@.str.1191 = private unnamed_addr constant [21 x i8] c"i64.atomic.xchng32_u\00", align 1
@.str.1192 = private unnamed_addr constant [22 x i8] c"i32.atomic.cmpxchng32\00", align 1
@.str.1193 = private unnamed_addr constant [23 x i8] c"i32.atomic.cmpxchng8_u\00", align 1
@.str.1194 = private unnamed_addr constant [24 x i8] c"i32.atomic.cmpxchng16_u\00", align 1
@.str.1195 = private unnamed_addr constant [22 x i8] c"i64.atomic.cmpxchng64\00", align 1
@.str.1196 = private unnamed_addr constant [23 x i8] c"i64.atomic.cmpxchng8_u\00", align 1
@.str.1197 = private unnamed_addr constant [24 x i8] c"i64.atomic.cmpxchng16_u\00", align 1
@.str.1198 = private unnamed_addr constant [24 x i8] c"i64.atomic.cmpxchng32_u\00", align 1
@.str.1199 = private unnamed_addr constant [20 x i8] c"struct.new_with_rtt\00", align 1
@.str.1200 = private unnamed_addr constant [19 x i8] c"struct.new_default\00", align 1
@.str.1201 = private unnamed_addr constant [11 x i8] c"struct.get\00", align 1
@.str.1202 = private unnamed_addr constant [13 x i8] c"struct.get_s\00", align 1
@.str.1203 = private unnamed_addr constant [13 x i8] c"struct.get_u\00", align 1
@.str.1204 = private unnamed_addr constant [11 x i8] c"struct.set\00", align 1
@.str.1205 = private unnamed_addr constant [19 x i8] c"array.new_with_rtt\00", align 1
@.str.1206 = private unnamed_addr constant [18 x i8] c"array.new_default\00", align 1
@.str.1207 = private unnamed_addr constant [10 x i8] c"array.get\00", align 1
@.str.1208 = private unnamed_addr constant [12 x i8] c"array.get_s\00", align 1
@.str.1209 = private unnamed_addr constant [12 x i8] c"array.get_u\00", align 1
@.str.1210 = private unnamed_addr constant [10 x i8] c"array.set\00", align 1
@.str.1211 = private unnamed_addr constant [10 x i8] c"array.len\00", align 1
@.str.1212 = private unnamed_addr constant [11 x i8] c"array.copy\00", align 1
@.str.1213 = private unnamed_addr constant [8 x i8] c"i31.new\00", align 1
@.str.1214 = private unnamed_addr constant [10 x i8] c"i31.get_s\00", align 1
@.str.1215 = private unnamed_addr constant [10 x i8] c"i31.get_u\00", align 1
@.str.1216 = private unnamed_addr constant [10 x i8] c"rtt.canon\00", align 1
@.str.1217 = private unnamed_addr constant [8 x i8] c"rtt.sub\00", align 1
@.str.1218 = private unnamed_addr constant [9 x i8] c"ref.test\00", align 1
@.str.1219 = private unnamed_addr constant [9 x i8] c"ref.cast\00", align 1
@.str.1220 = private unnamed_addr constant [11 x i8] c"br_on_cast\00", align 1
@.str.1221 = private unnamed_addr constant [16 x i8] c"br_on_cast_fail\00", align 1
@.str.1222 = private unnamed_addr constant [12 x i8] c"ref.is_func\00", align 1
@.str.1223 = private unnamed_addr constant [12 x i8] c"ref.is_data\00", align 1
@.str.1224 = private unnamed_addr constant [11 x i8] c"ref.is_i31\00", align 1
@.str.1225 = private unnamed_addr constant [12 x i8] c"ref.as_func\00", align 1
@.str.1226 = private unnamed_addr constant [12 x i8] c"ref.as_data\00", align 1
@.str.1227 = private unnamed_addr constant [11 x i8] c"ref.as_i31\00", align 1
@.str.1228 = private unnamed_addr constant [11 x i8] c"br_on_func\00", align 1
@.str.1229 = private unnamed_addr constant [11 x i8] c"br_on_data\00", align 1
@.str.1230 = private unnamed_addr constant [10 x i8] c"br_on_i31\00", align 1
@.str.1231 = private unnamed_addr constant [15 x i8] c"br_on_non_func\00", align 1
@.str.1232 = private unnamed_addr constant [15 x i8] c"br_on_non_data\00", align 1
@.str.1233 = private unnamed_addr constant [14 x i8] c"br_on_non_i31\00", align 1
@.str.1234 = private unnamed_addr constant [8 x i8] c"unknown\00", align 1
@.str.1235 = private unnamed_addr constant [15 x i8] c"invalid opcode\00", align 1
@_ZNSt3__15ctypeIcE2idE = external global %"class.std::__1::locale::id", align 8
@.str.1236 = private unnamed_addr constant [18 x i8] c"local decls count\00", align 1
@.str.1237 = private unnamed_addr constant [26 x i8] c"invalid local decls count\00", align 1
@.str.1238 = private unnamed_addr constant [51 x i8] c"expected more local decls but reached end of input\00", align 1
@.str.1239 = private unnamed_addr constant [12 x i8] c"local count\00", align 1
@.str.1240 = private unnamed_addr constant [20 x i8] c"invalid local count\00", align 1
@.str.1241 = private unnamed_addr constant [22 x i8] c"local count too large\00", align 1
@.str.1242 = private unnamed_addr constant [18 x i8] c"Check failed: %s.\00", align 1
@.str.1243 = private unnamed_addr constant [23 x i8] c"storage_.is_populated_\00", align 1
@.str.1244 = private unnamed_addr constant [12 x i8] c"expected %s\00", align 1
@.str.1245 = private unnamed_addr constant [21 x i8] c"extra bits in varint\00", align 1
@.str.1246 = private unnamed_addr constant [3 x i8] c"%s\00", align 1
@.str.1247 = private unnamed_addr constant [8 x i8] c"0 < len\00", align 1
@.str.1248 = private unnamed_addr constant [18 x i8] c"value type opcode\00", align 1
@.str.1249 = private unnamed_addr constant [60 x i8] c"invalid value type '%s', enable with --experimental-wasm-%s\00", align 1
@_ZN2v88internal4wasmL8kWasmI32E = internal unnamed_addr constant %"class.v8::internal::wasm::ValueType" { i32 1 }, align 4
@_ZN2v88internal4wasmL8kWasmI64E = internal unnamed_addr constant %"class.v8::internal::wasm::ValueType" { i32 2 }, align 4
@.str.1250 = private unnamed_addr constant [81 x i8] c"Invalid type '(ref%s <heaptype>)', enable with --experimental-wasm-typed-funcref\00", align 1
@.str.1251 = private unnamed_addr constant [6 x i8] c" null\00", align 1
@.str.1252 = private unnamed_addr constant [61 x i8] c"invalid value type 'rtt', enable with --experimental-wasm-gc\00", align 1
@.str.1253 = private unnamed_addr constant [6 x i8] c"depth\00", align 1
@.str.1254 = private unnamed_addr constant [72 x i8] c"subtyping depth %u is greater than the maximum depth %u supported by V8\00", align 1
@.str.1255 = private unnamed_addr constant [6 x i8] c"LEB32\00", align 1
@.str.1256 = private unnamed_addr constant [89 x i8] c"Type index %u is greater than the maximum number %zu of type definitions supported by V8\00", align 1
@.str.1257 = private unnamed_addr constant [31 x i8] c"Type index %u is out of bounds\00", align 1
@.str.1258 = private unnamed_addr constant [64 x i8] c"invalid value type 's128', enable with --experimental-wasm-simd\00", align 1
@.str.1259 = private unnamed_addr constant [24 x i8] c"invalid value type 0x%x\00", align 1
@.str.1260 = private unnamed_addr constant [17 x i8] c"unreachable code\00", align 1
@.str.1262 = private unnamed_addr constant [3 x i8] c"gc\00", align 1
@.str.1269 = private unnamed_addr constant [9 x i8] c"reftypes\00", align 1
@.str.1273 = private unnamed_addr constant [10 x i8] c"heap type\00", align 1
@.str.1274 = private unnamed_addr constant [22 x i8] c"Unknown heap type %ld\00", align 1
@.str.1275 = private unnamed_addr constant [59 x i8] c"invalid heap type '%s', enable with --experimental-wasm-%s\00", align 1
@.str.1276 = private unnamed_addr constant [73 x i8] c"Invalid indexed heap type, enable with --experimental-wasm-typed-funcref\00", align 1
@.str.1278 = private unnamed_addr constant [62 x i8] c"Cannot define function-level local of non-defaultable type %s\00", align 1
@.str.1279 = private unnamed_addr constant [31 x i8] c"unterminated control structure\00", align 1
@.str.1280 = private unnamed_addr constant [41 x i8] c"function body must end with \22end\22 opcode\00", align 1
@.str.1281 = private unnamed_addr constant [32 x i8] c"expected %u bytes, fell off end\00", align 1
@.str.1282 = private unnamed_addr constant [19 x i8] c"Beyond end of code\00", align 1
@.str.1283 = private unnamed_addr constant [12 x i8] c"local index\00", align 1
@.str.1284 = private unnamed_addr constant [24 x i8] c"invalid local index: %u\00", align 1
@.str.1285 = private unnamed_addr constant [7 x i8] c"immi32\00", align 1
@_ZZN2v88internal4wasm15WasmFullDecoderILNS1_7Decoder12ValidateFlagE2ENS1_14EmptyInterfaceEE16GetOpcodeHandlerEhE15kOpcodeHandlers = linkonce_odr hidden local_unnamed_addr constant %"struct.std::__1::array.224" { [256 x i32 (%"class.v8::internal::wasm::WasmFullDecoder"*, i32)*] [i32 (%"class.v8::internal::wasm::WasmFullDecoder"*, i32)* @_ZN2v88internal4wasm15WasmFullDecoderILNS1_7Decoder12ValidateFlagE2ENS1_14EmptyInterfaceEE17DecodeUnreachableEPS6_NS1_10WasmOpcodeE, i32 (%"class.v8::internal::wasm::WasmFullDecoder"*, i32)* @_ZN2v88internal4wasm15WasmFullDecoderILNS1_7Decoder12ValidateFlagE2ENS1_14EmptyInterfaceEE9DecodeNopEPS6_NS1_10WasmOpcodeE, i32 (%"class.v8::internal::wasm::WasmFullDecoder"*, i32)* @_ZN2v88internal4wasm15WasmFullDecoderILNS1_7Decoder12ValidateFlagE2ENS1_14EmptyInterfaceEE11DecodeBlockEPS6_NS1_10WasmOpcodeE, i32 (%"class.v8::internal::wasm::WasmFullDecoder"*, i32)* @_ZN2v88internal4wasm15WasmFullDecoderILNS1_7Decoder12ValidateFlagE2ENS1_14EmptyInterfaceEE10DecodeLoopEPS6_NS1_10WasmOpcodeE, i32 (%"class.v8::internal::wasm::WasmFullDecoder"*, i32)* @_ZN2v88internal4wasm15WasmFullDecoderILNS1_7Decoder12ValidateFlagE2ENS1_14EmptyInterfaceEE8DecodeIfEPS6_NS1_10WasmOpcodeE, i32 (%"class.v8::internal::wasm::WasmFullDecoder"*, i32)* @_ZN2v88internal4wasm15WasmFullDecoderILNS1_7Decoder12ValidateFlagE2ENS1_14EmptyInterfaceEE10DecodeElseEPS6_NS1_10WasmOpcodeE, i32 (%"class.v8::internal::wasm::WasmFullDecoder"*, i32)* @_ZN2v88internal4wasm15WasmFullDecoderILNS1_7Decoder12ValidateFlagE2ENS1_14EmptyInterfaceEE9DecodeTryEPS6_NS1_10WasmOpcodeE, i32 (%"class.v8::internal::wasm::WasmFullDecoder"*, i32)* @_ZN2v88internal4wasm15WasmFullDecoderILNS1_7Decoder12ValidateFlagE2ENS1_14EmptyInterfaceEE11DecodeCatchEPS6_NS1_10WasmOpcodeE, i32 (%"class.v8::internal::wasm::WasmFullDecoder"*, i32)* @_ZN2v88internal4wasm15WasmFullDecoderILNS1_7Decoder12ValidateFlagE2ENS1_14EmptyInterfaceEE11DecodeThrowEPS6_NS1_10WasmOpcodeE, i32 (%"class.v8::internal::wasm::WasmFullDecoder"*, i32)* @_ZN2v88internal4wasm15WasmFullDecoderILNS1_7Decoder12ValidateFlagE2ENS1_14EmptyInterfaceEE13DecodeRethrowEPS6_NS1_10WasmOpcodeE, i32 (%"class.v8::internal::wasm::WasmFullDecoder"*, i32)* @_ZN2v88internal4wasm15WasmFullDecoderILNS1_7Decoder12ValidateFlagE2ENS1_14EmptyInterfaceEE12DecodeUnwindEPS6_NS1_10WasmOpcodeE, i32 (%"class.v8::internal::wasm::WasmFullDecoder"*, i32)* @_ZN2v88internal4wasm15WasmFullDecoderILNS1_7Decoder12ValidateFlagE2ENS1_14EmptyInterfaceEE9DecodeEndEPS6_NS1_10WasmOpcodeE, i32 (%"class.v8::internal::wasm::WasmFullDecoder"*, i32)* @_ZN2v88internal4wasm15WasmFullDecoderILNS1_7Decoder12ValidateFlagE2ENS1_14EmptyInterfaceEE8DecodeBrEPS6_NS1_10WasmOpcodeE, i32 (%"class.v8::internal::wasm::WasmFullDecoder"*, i32)* @_ZN2v88internal4wasm15WasmFullDecoderILNS1_7Decoder12ValidateFlagE2ENS1_14EmptyInterfaceEE10DecodeBrIfEPS6_NS1_10WasmOpcodeE, i32 (%"class.v8::internal::wasm::WasmFullDecoder"*, i32)* @_ZN2v88internal4wasm15WasmFullDecoderILNS1_7Decoder12ValidateFlagE2ENS1_14EmptyInterfaceEE13DecodeBrTableEPS6_NS1_10WasmOpcodeE, i32 (%"class.v8::internal::wasm::WasmFullDecoder"*, i32)* @_ZN2v88internal4wasm15WasmFullDecoderILNS1_7Decoder12ValidateFlagE2ENS1_14EmptyInterfaceEE12DecodeReturnEPS6_NS1_10WasmOpcodeE, i32 (%"class.v8::internal::wasm::WasmFullDecoder"*, i32)* @_ZN2v88internal4wasm15WasmFullDecoderILNS1_7Decoder12ValidateFlagE2ENS1_14EmptyInterfaceEE18DecodeCallFunctionEPS6_NS1_10WasmOpcodeE, i32 (%"class.v8::internal::wasm::WasmFullDecoder"*, i32)* @_ZN2v88internal4wasm15WasmFullDecoderILNS1_7Decoder12ValidateFlagE2ENS1_14EmptyInterfaceEE18DecodeCallIndirectEPS6_NS1_10WasmOpcodeE, i32 (%"class.v8::internal::wasm::WasmFullDecoder"*, i32)* @_ZN2v88internal4wasm15WasmFullDecoderILNS1_7Decoder12ValidateFlagE2ENS1_14EmptyInterfaceEE16DecodeReturnCallEPS6_NS1_10WasmOpcodeE, i32 (%"class.v8::internal::wasm::WasmFullDecoder"*, i32)* @_ZN2v88internal4wasm15WasmFullDecoderILNS1_7Decoder12ValidateFlagE2ENS1_14EmptyInterfaceEE24DecodeReturnCallIndirectEPS6_NS1_10WasmOpcodeE, i32 (%"class.v8::internal::wasm::WasmFullDecoder"*, i32)* @_ZN2v88internal4wasm15WasmFullDecoderILNS1_7Decoder12ValidateFlagE2ENS1_14EmptyInterfaceEE13DecodeCallRefEPS6_NS1_10WasmOpcodeE, i32 (%"class.v8::internal::wasm::WasmFullDecoder"*, i32)* @_ZN2v88internal4wasm15WasmFullDecoderILNS1_7Decoder12ValidateFlagE2ENS1_14EmptyInterfaceEE19DecodeReturnCallRefEPS6_NS1_10WasmOpcodeE, i32 (%"class.v8::internal::wasm::WasmFullDecoder"*, i32)* @_ZN2v88internal4wasm15WasmFullDecoderILNS1_7Decoder12ValidateFlagE2ENS1_14EmptyInterfaceEE39DecodeNopForTestingUnsupportedInLiftoffEPS6_NS1_10WasmOpcodeE, i32 (%"class.v8::internal::wasm::WasmFullDecoder"*, i32)* @_ZN2v88internal4wasm15WasmFullDecoderILNS1_7Decoder12ValidateFlagE2ENS1_14EmptyInterfaceEE9DecodeLetEPS6_NS1_10WasmOpcodeE, i32 (%"class.v8::internal::wasm::WasmFullDecoder"*, i32)* @_ZN2v88internal4wasm15WasmFullDecoderILNS1_7Decoder12ValidateFlagE2ENS1_14EmptyInterfaceEE14DecodeDelegateEPS6_NS1_10WasmOpcodeE, i32 (%"class.v8::internal::wasm::WasmFullDecoder"*, i32)* @_ZN2v88internal4wasm15WasmFullDecoderILNS1_7Decoder12ValidateFlagE2ENS1_14EmptyInterfaceEE14DecodeCatchAllEPS6_NS1_10WasmOpcodeE, i32 (%"class.v8::internal::wasm::WasmFullDecoder"*, i32)* @_ZN2v88internal4wasm15WasmFullDecoderILNS1_7Decoder12ValidateFlagE2ENS1_14EmptyInterfaceEE10DecodeDropEPS6_NS1_10WasmOpcodeE, i32 (%"class.v8::internal::wasm::WasmFullDecoder"*, i32)* @_ZN2v88internal4wasm15WasmFullDecoderILNS1_7Decoder12ValidateFlagE2ENS1_14EmptyInterfaceEE12DecodeSelectEPS6_NS1_10WasmOpcodeE, i32 (%"class.v8::internal::wasm::WasmFullDecoder"*, i32)* @_ZN2v88internal4wasm15WasmFullDecoderILNS1_7Decoder12ValidateFlagE2ENS1_14EmptyInterfaceEE20DecodeSelectWithTypeEPS6_NS1_10WasmOpcodeE, i32 (%"class.v8::internal::wasm::WasmFullDecoder"*, i32)* @_ZN2v88internal4wasm15WasmFullDecoderILNS1_7Decoder12ValidateFlagE2ENS1_14EmptyInterfaceEE20DecodeUnknownOrAsmJsEPS6_NS1_10WasmOpcodeE, i32 (%"class.v8::internal::wasm::WasmFullDecoder"*, i32)* @_ZN2v88internal4wasm15WasmFullDecoderILNS1_7Decoder12ValidateFlagE2ENS1_14EmptyInterfaceEE20DecodeUnknownOrAsmJsEPS6_NS1_10WasmOpcodeE, i32 (%"class.v8::internal::wasm::WasmFullDecoder"*, i32)* @_ZN2v88internal4wasm15WasmFullDecoderILNS1_7Decoder12ValidateFlagE2ENS1_14EmptyInterfaceEE20DecodeUnknownOrAsmJsEPS6_NS1_10WasmOpcodeE, i32 (%"class.v8::internal::wasm::WasmFullDecoder"*, i32)* @_ZN2v88internal4wasm15WasmFullDecoderILNS1_7Decoder12ValidateFlagE2ENS1_14EmptyInterfaceEE14DecodeLocalGetEPS6_NS1_10WasmOpcodeE, i32 (%"class.v8::internal::wasm::WasmFullDecoder"*, i32)* @_ZN2v88internal4wasm15WasmFullDecoderILNS1_7Decoder12ValidateFlagE2ENS1_14EmptyInterfaceEE14DecodeLocalSetEPS6_NS1_10WasmOpcodeE, i32 (%"class.v8::internal::wasm::WasmFullDecoder"*, i32)* @_ZN2v88internal4wasm15WasmFullDecoderILNS1_7Decoder12ValidateFlagE2ENS1_14EmptyInterfaceEE14DecodeLocalTeeEPS6_NS1_10WasmOpcodeE, i32 (%"class.v8::internal::wasm::WasmFullDecoder"*, i32)* @_ZN2v88internal4wasm15WasmFullDecoderILNS1_7Decoder12ValidateFlagE2ENS1_14EmptyInterfaceEE15DecodeGlobalGetEPS6_NS1_10WasmOpcodeE, i32 (%"class.v8::internal::wasm::WasmFullDecoder"*, i32)* @_ZN2v88internal4wasm15WasmFullDecoderILNS1_7Decoder12ValidateFlagE2ENS1_14EmptyInterfaceEE15DecodeGlobalSetEPS6_NS1_10WasmOpcodeE, i32 (%"class.v8::internal::wasm::WasmFullDecoder"*, i32)* @_ZN2v88internal4wasm15WasmFullDecoderILNS1_7Decoder12ValidateFlagE2ENS1_14EmptyInterfaceEE14DecodeTableGetEPS6_NS1_10WasmOpcodeE, i32 (%"class.v8::internal::wasm::WasmFullDecoder"*, i32)* @_ZN2v88internal4wasm15WasmFullDecoderILNS1_7Decoder12ValidateFlagE2ENS1_14EmptyInterfaceEE14DecodeTableSetEPS6_NS1_10WasmOpcodeE, i32 (%"class.v8::internal::wasm::WasmFullDecoder"*, i32)* @_ZN2v88internal4wasm15WasmFullDecoderILNS1_7Decoder12ValidateFlagE2ENS1_14EmptyInterfaceEE20DecodeUnknownOrAsmJsEPS6_NS1_10WasmOpcodeE, i32 (%"class.v8::internal::wasm::WasmFullDecoder"*, i32)* @_ZN2v88internal4wasm15WasmFullDecoderILNS1_7Decoder12ValidateFlagE2ENS1_14EmptyInterfaceEE13DecodeLoadMemEPS6_NS1_10WasmOpcodeE, i32 (%"class.v8::internal::wasm::WasmFullDecoder"*, i32)* @_ZN2v88internal4wasm15WasmFullDecoderILNS1_7Decoder12ValidateFlagE2ENS1_14EmptyInterfaceEE13DecodeLoadMemEPS6_NS1_10WasmOpcodeE, i32 (%"class.v8::internal::wasm::WasmFullDecoder"*, i32)* @_ZN2v88internal4wasm15WasmFullDecoderILNS1_7Decoder12ValidateFlagE2ENS1_14EmptyInterfaceEE13DecodeLoadMemEPS6_NS1_10WasmOpcodeE, i32 (%"class.v8::internal::wasm::WasmFullDecoder"*, i32)* @_ZN2v88internal4wasm15WasmFullDecoderILNS1_7Decoder12ValidateFlagE2ENS1_14EmptyInterfaceEE13DecodeLoadMemEPS6_NS1_10WasmOpcodeE, i32 (%"class.v8::internal::wasm::WasmFullDecoder"*, i32)* @_ZN2v88internal4wasm15WasmFullDecoderILNS1_7Decoder12ValidateFlagE2ENS1_14EmptyInterfaceEE13DecodeLoadMemEPS6_NS1_10WasmOpcodeE, i32 (%"class.v8::internal::wasm::WasmFullDecoder"*, i32)* @_ZN2v88internal4wasm15WasmFullDecoderILNS1_7Decoder12ValidateFlagE2ENS1_14EmptyInterfaceEE13DecodeLoadMemEPS6_NS1_10WasmOpcodeE, i32 (%"class.v8::internal::wasm::WasmFullDecoder"*, i32)* @_ZN2v88internal4wasm15WasmFullDecoderILNS1_7Decoder12ValidateFlagE2ENS1_14EmptyInterfaceEE13DecodeLoadMemEPS6_NS1_10WasmOpcodeE, i32 (%"class.v8::internal::wasm::WasmFullDecoder"*, i32)* @_ZN2v88internal4wasm15WasmFullDecoderILNS1_7Decoder12ValidateFlagE2ENS1_14EmptyInterfaceEE13DecodeLoadMemEPS6_NS1_10WasmOpcodeE, i32 (%"class.v8::internal::wasm::WasmFullDecoder"*, i32)* @_ZN2v88internal4wasm15WasmFullDecoderILNS1_7Decoder12ValidateFlagE2ENS1_14EmptyInterfaceEE13DecodeLoadMemEPS6_NS1_10WasmOpcodeE, i32 (%"class.v8::internal::wasm::WasmFullDecoder"*, i32)* @_ZN2v88internal4wasm15WasmFullDecoderILNS1_7Decoder12ValidateFlagE2ENS1_14EmptyInterfaceEE13DecodeLoadMemEPS6_NS1_10WasmOpcodeE, i32 (%"class.v8::internal::wasm::WasmFullDecoder"*, i32)* @_ZN2v88internal4wasm15WasmFullDecoderILNS1_7Decoder12ValidateFlagE2ENS1_14EmptyInterfaceEE13DecodeLoadMemEPS6_NS1_10WasmOpcodeE, i32 (%"class.v8::internal::wasm::WasmFullDecoder"*, i32)* @_ZN2v88internal4wasm15WasmFullDecoderILNS1_7Decoder12ValidateFlagE2ENS1_14EmptyInterfaceEE13DecodeLoadMemEPS6_NS1_10WasmOpcodeE, i32 (%"class.v8::internal::wasm::WasmFullDecoder"*, i32)* @_ZN2v88internal4wasm15WasmFullDecoderILNS1_7Decoder12ValidateFlagE2ENS1_14EmptyInterfaceEE13DecodeLoadMemEPS6_NS1_10WasmOpcodeE, i32 (%"class.v8::internal::wasm::WasmFullDecoder"*, i32)* @_ZN2v88internal4wasm15WasmFullDecoderILNS1_7Decoder12ValidateFlagE2ENS1_14EmptyInterfaceEE13DecodeLoadMemEPS6_NS1_10WasmOpcodeE, i32 (%"class.v8::internal::wasm::WasmFullDecoder"*, i32)* @_ZN2v88internal4wasm15WasmFullDecoderILNS1_7Decoder12ValidateFlagE2ENS1_14EmptyInterfaceEE14DecodeStoreMemEPS6_NS1_10WasmOpcodeE, i32 (%"class.v8::internal::wasm::WasmFullDecoder"*, i32)* @_ZN2v88internal4wasm15WasmFullDecoderILNS1_7Decoder12ValidateFlagE2ENS1_14EmptyInterfaceEE14DecodeStoreMemEPS6_NS1_10WasmOpcodeE, i32 (%"class.v8::internal::wasm::WasmFullDecoder"*, i32)* @_ZN2v88internal4wasm15WasmFullDecoderILNS1_7Decoder12ValidateFlagE2ENS1_14EmptyInterfaceEE14DecodeStoreMemEPS6_NS1_10WasmOpcodeE, i32 (%"class.v8::internal::wasm::WasmFullDecoder"*, i32)* @_ZN2v88internal4wasm15WasmFullDecoderILNS1_7Decoder12ValidateFlagE2ENS1_14EmptyInterfaceEE14DecodeStoreMemEPS6_NS1_10WasmOpcodeE, i32 (%"class.v8::internal::wasm::WasmFullDecoder"*, i32)* @_ZN2v88internal4wasm15WasmFullDecoderILNS1_7Decoder12ValidateFlagE2ENS1_14EmptyInterfaceEE14DecodeStoreMemEPS6_NS1_10WasmOpcodeE, i32 (%"class.v8::internal::wasm::WasmFullDecoder"*, i32)* @_ZN2v88internal4wasm15WasmFullDecoderILNS1_7Decoder12ValidateFlagE2ENS1_14EmptyInterfaceEE14DecodeStoreMemEPS6_NS1_10WasmOpcodeE, i32 (%"class.v8::internal::wasm::WasmFullDecoder"*, i32)* @_ZN2v88internal4wasm15WasmFullDecoderILNS1_7Decoder12ValidateFlagE2ENS1_14EmptyInterfaceEE14DecodeStoreMemEPS6_NS1_10WasmOpcodeE, i32 (%"class.v8::internal::wasm::WasmFullDecoder"*, i32)* @_ZN2v88internal4wasm15WasmFullDecoderILNS1_7Decoder12ValidateFlagE2ENS1_14EmptyInterfaceEE14DecodeStoreMemEPS6_NS1_10WasmOpcodeE, i32 (%"class.v8::internal::wasm::WasmFullDecoder"*, i32)* @_ZN2v88internal4wasm15WasmFullDecoderILNS1_7Decoder12ValidateFlagE2ENS1_14EmptyInterfaceEE14DecodeStoreMemEPS6_NS1_10WasmOpcodeE, i32 (%"class.v8::internal::wasm::WasmFullDecoder"*, i32)* @_ZN2v88internal4wasm15WasmFullDecoderILNS1_7Decoder12ValidateFlagE2ENS1_14EmptyInterfaceEE16DecodeMemorySizeEPS6_NS1_10WasmOpcodeE, i32 (%"class.v8::internal::wasm::WasmFullDecoder"*, i32)* @_ZN2v88internal4wasm15WasmFullDecoderILNS1_7Decoder12ValidateFlagE2ENS1_14EmptyInterfaceEE16DecodeMemoryGrowEPS6_NS1_10WasmOpcodeE, i32 (%"class.v8::internal::wasm::WasmFullDecoder"*, i32)* @_ZN2v88internal4wasm15WasmFullDecoderILNS1_7Decoder12ValidateFlagE2ENS1_14EmptyInterfaceEE14DecodeI32ConstEPS6_NS1_10WasmOpcodeE, i32 (%"class.v8::internal::wasm::WasmFullDecoder"*, i32)* @_ZN2v88internal4wasm15WasmFullDecoderILNS1_7Decoder12ValidateFlagE2ENS1_14EmptyInterfaceEE14DecodeI64ConstEPS6_NS1_10WasmOpcodeE, i32 (%"class.v8::internal::wasm::WasmFullDecoder"*, i32)* @_ZN2v88internal4wasm15WasmFullDecoderILNS1_7Decoder12ValidateFlagE2ENS1_14EmptyInterfaceEE14DecodeF32ConstEPS6_NS1_10WasmOpcodeE, i32 (%"class.v8::internal::wasm::WasmFullDecoder"*, i32)* @_ZN2v88internal4wasm15WasmFullDecoderILNS1_7Decoder12ValidateFlagE2ENS1_14EmptyInterfaceEE14DecodeF64ConstEPS6_NS1_10WasmOpcodeE, i32 (%"class.v8::internal::wasm::WasmFullDecoder"*, i32)* @_ZN2v88internal4wasm15WasmFullDecoderILNS1_7Decoder12ValidateFlagE2ENS1_14EmptyInterfaceEE12DecodeI32EqzEPS6_NS1_10WasmOpcodeE, i32 (%"class.v8::internal::wasm::WasmFullDecoder"*, i32)* @_ZN2v88internal4wasm15WasmFullDecoderILNS1_7Decoder12ValidateFlagE2ENS1_14EmptyInterfaceEE11DecodeI32EqEPS6_NS1_10WasmOpcodeE, i32 (%"class.v8::internal::wasm::WasmFullDecoder"*, i32)* @_ZN2v88internal4wasm15WasmFullDecoderILNS1_7Decoder12ValidateFlagE2ENS1_14EmptyInterfaceEE11DecodeI32NeEPS6_NS1_10WasmOpcodeE, i32 (%"class.v8::internal::wasm::WasmFullDecoder"*, i32)* @_ZN2v88internal4wasm15WasmFullDecoderILNS1_7Decoder12ValidateFlagE2ENS1_14EmptyInterfaceEE12DecodeI32LtSEPS6_NS1_10WasmOpcodeE, i32 (%"class.v8::internal::wasm::WasmFullDecoder"*, i32)* @_ZN2v88internal4wasm15WasmFullDecoderILNS1_7Decoder12ValidateFlagE2ENS1_14EmptyInterfaceEE12DecodeI32LtUEPS6_NS1_10WasmOpcodeE, i32 (%"class.v8::internal::wasm::WasmFullDecoder"*, i32)* @_ZN2v88internal4wasm15WasmFullDecoderILNS1_7Decoder12ValidateFlagE2ENS1_14EmptyInterfaceEE12DecodeI32GtSEPS6_NS1_10WasmOpcodeE, i32 (%"class.v8::internal::wasm::WasmFullDecoder"*, i32)* @_ZN2v88internal4wasm15WasmFullDecoderILNS1_7Decoder12ValidateFlagE2ENS1_14EmptyInterfaceEE12DecodeI32GtUEPS6_NS1_10WasmOpcodeE, i32 (%"class.v8::internal::wasm::WasmFullDecoder"*, i32)* @_ZN2v88internal4wasm15WasmFullDecoderILNS1_7Decoder12ValidateFlagE2ENS1_14EmptyInterfaceEE12DecodeI32LeSEPS6_NS1_10WasmOpcodeE, i32 (%"class.v8::internal::wasm::WasmFullDecoder"*, i32)* @_ZN2v88internal4wasm15WasmFullDecoderILNS1_7Decoder12ValidateFlagE2ENS1_14EmptyInterfaceEE12DecodeI32LeUEPS6_NS1_10WasmOpcodeE, i32 (%"class.v8::internal::wasm::WasmFullDecoder"*, i32)* @_ZN2v88internal4wasm15WasmFullDecoderILNS1_7Decoder12ValidateFlagE2ENS1_14EmptyInterfaceEE12DecodeI32GeSEPS6_NS1_10WasmOpcodeE, i32 (%"class.v8::internal::wasm::WasmFullDecoder"*, i32)* @_ZN2v88internal4wasm15WasmFullDecoderILNS1_7Decoder12ValidateFlagE2ENS1_14EmptyInterfaceEE12DecodeI32GeUEPS6_NS1_10WasmOpcodeE, i32 (%"class.v8::internal::wasm::WasmFullDecoder"*, i32)* @_ZN2v88internal4wasm15WasmFullDecoderILNS1_7Decoder12ValidateFlagE2ENS1_14EmptyInterfaceEE12DecodeI64EqzEPS6_NS1_10WasmOpcodeE, i32 (%"class.v8::internal::wasm::WasmFullDecoder"*, i32)* @_ZN2v88internal4wasm15WasmFullDecoderILNS1_7Decoder12ValidateFlagE2ENS1_14EmptyInterfaceEE11DecodeI64EqEPS6_NS1_10WasmOpcodeE, i32 (%"class.v8::internal::wasm::WasmFullDecoder"*, i32)* @_ZN2v88internal4wasm15WasmFullDecoderILNS1_7Decoder12ValidateFlagE2ENS1_14EmptyInterfaceEE11DecodeI64NeEPS6_NS1_10WasmOpcodeE, i32 (%"class.v8::internal::wasm::WasmFullDecoder"*, i32)* @_ZN2v88internal4wasm15WasmFullDecoderILNS1_7Decoder12ValidateFlagE2ENS1_14EmptyInterfaceEE12DecodeI64LtSEPS6_NS1_10WasmOpcodeE, i32 (%"class.v8::internal::wasm::WasmFullDecoder"*, i32)* @_ZN2v88internal4wasm15WasmFullDecoderILNS1_7Decoder12ValidateFlagE2ENS1_14EmptyInterfaceEE12DecodeI64LtUEPS6_NS1_10WasmOpcodeE, i32 (%"class.v8::internal::wasm::WasmFullDecoder"*, i32)* @_ZN2v88internal4wasm15WasmFullDecoderILNS1_7Decoder12ValidateFlagE2ENS1_14EmptyInterfaceEE12DecodeI64GtSEPS6_NS1_10WasmOpcodeE, i32 (%"class.v8::internal::wasm::WasmFullDecoder"*, i32)* @_ZN2v88internal4wasm15WasmFullDecoderILNS1_7Decoder12ValidateFlagE2ENS1_14EmptyInterfaceEE12DecodeI64GtUEPS6_NS1_10WasmOpcodeE, i32 (%"class.v8::internal::wasm::WasmFullDecoder"*, i32)* @_ZN2v88internal4wasm15WasmFullDecoderILNS1_7Decoder12ValidateFlagE2ENS1_14EmptyInterfaceEE12DecodeI64LeSEPS6_NS1_10WasmOpcodeE, i32 (%"class.v8::internal::wasm::WasmFullDecoder"*, i32)* @_ZN2v88internal4wasm15WasmFullDecoderILNS1_7Decoder12ValidateFlagE2ENS1_14EmptyInterfaceEE12DecodeI64LeUEPS6_NS1_10WasmOpcodeE, i32 (%"class.v8::internal::wasm::WasmFullDecoder"*, i32)* @_ZN2v88internal4wasm15WasmFullDecoderILNS1_7Decoder12ValidateFlagE2ENS1_14EmptyInterfaceEE12DecodeI64GeSEPS6_NS1_10WasmOpcodeE, i32 (%"class.v8::internal::wasm::WasmFullDecoder"*, i32)* @_ZN2v88internal4wasm15WasmFullDecoderILNS1_7Decoder12ValidateFlagE2ENS1_14EmptyInterfaceEE12DecodeI64GeUEPS6_NS1_10WasmOpcodeE, i32 (%"class.v8::internal::wasm::WasmFullDecoder"*, i32)* @_ZN2v88internal4wasm15WasmFullDecoderILNS1_7Decoder12ValidateFlagE2ENS1_14EmptyInterfaceEE11DecodeF32EqEPS6_NS1_10WasmOpcodeE, i32 (%"class.v8::internal::wasm::WasmFullDecoder"*, i32)* @_ZN2v88internal4wasm15WasmFullDecoderILNS1_7Decoder12ValidateFlagE2ENS1_14EmptyInterfaceEE11DecodeF32NeEPS6_NS1_10WasmOpcodeE, i32 (%"class.v8::internal::wasm::WasmFullDecoder"*, i32)* @_ZN2v88internal4wasm15WasmFullDecoderILNS1_7Decoder12ValidateFlagE2ENS1_14EmptyInterfaceEE11DecodeF32LtEPS6_NS1_10WasmOpcodeE, i32 (%"class.v8::internal::wasm::WasmFullDecoder"*, i32)* @_ZN2v88internal4wasm15WasmFullDecoderILNS1_7Decoder12ValidateFlagE2ENS1_14EmptyInterfaceEE11DecodeF32GtEPS6_NS1_10WasmOpcodeE, i32 (%"class.v8::internal::wasm::WasmFullDecoder"*, i32)* @_ZN2v88internal4wasm15WasmFullDecoderILNS1_7Decoder12ValidateFlagE2ENS1_14EmptyInterfaceEE11DecodeF32LeEPS6_NS1_10WasmOpcodeE, i32 (%"class.v8::internal::wasm::WasmFullDecoder"*, i32)* @_ZN2v88internal4wasm15WasmFullDecoderILNS1_7Decoder12ValidateFlagE2ENS1_14EmptyInterfaceEE11DecodeF32GeEPS6_NS1_10WasmOpcodeE, i32 (%"class.v8::internal::wasm::WasmFullDecoder"*, i32)* @_ZN2v88internal4wasm15WasmFullDecoderILNS1_7Decoder12ValidateFlagE2ENS1_14EmptyInterfaceEE11DecodeF64EqEPS6_NS1_10WasmOpcodeE, i32 (%"class.v8::internal::wasm::WasmFullDecoder"*, i32)* @_ZN2v88internal4wasm15WasmFullDecoderILNS1_7Decoder12ValidateFlagE2ENS1_14EmptyInterfaceEE11DecodeF64NeEPS6_NS1_10WasmOpcodeE, i32 (%"class.v8::internal::wasm::WasmFullDecoder"*, i32)* @_ZN2v88internal4wasm15WasmFullDecoderILNS1_7Decoder12ValidateFlagE2ENS1_14EmptyInterfaceEE11DecodeF64LtEPS6_NS1_10WasmOpcodeE, i32 (%"class.v8::internal::wasm::WasmFullDecoder"*, i32)* @_ZN2v88internal4wasm15WasmFullDecoderILNS1_7Decoder12ValidateFlagE2ENS1_14EmptyInterfaceEE11DecodeF64GtEPS6_NS1_10WasmOpcodeE, i32 (%"class.v8::internal::wasm::WasmFullDecoder"*, i32)* @_ZN2v88internal4wasm15WasmFullDecoderILNS1_7Decoder12ValidateFlagE2ENS1_14EmptyInterfaceEE11DecodeF64LeEPS6_NS1_10WasmOpcodeE, i32 (%"class.v8::internal::wasm::WasmFullDecoder"*, i32)* @_ZN2v88internal4wasm15WasmFullDecoderILNS1_7Decoder12ValidateFlagE2ENS1_14EmptyInterfaceEE11DecodeF64GeEPS6_NS1_10WasmOpcodeE, i32 (%"class.v8::internal::wasm::WasmFullDecoder"*, i32)* @_ZN2v88internal4wasm15WasmFullDecoderILNS1_7Decoder12ValidateFlagE2ENS1_14EmptyInterfaceEE12DecodeI32ClzEPS6_NS1_10WasmOpcodeE, i32 (%"class.v8::internal::wasm::WasmFullDecoder"*, i32)* @_ZN2v88internal4wasm15WasmFullDecoderILNS1_7Decoder12ValidateFlagE2ENS1_14EmptyInterfaceEE12DecodeI32CtzEPS6_NS1_10WasmOpcodeE, i32 (%"class.v8::internal::wasm::WasmFullDecoder"*, i32)* @_ZN2v88internal4wasm15WasmFullDecoderILNS1_7Decoder12ValidateFlagE2ENS1_14EmptyInterfaceEE15DecodeI32PopcntEPS6_NS1_10WasmOpcodeE, i32 (%"class.v8::internal::wasm::WasmFullDecoder"*, i32)* @_ZN2v88internal4wasm15WasmFullDecoderILNS1_7Decoder12ValidateFlagE2ENS1_14EmptyInterfaceEE12DecodeI32AddEPS6_NS1_10WasmOpcodeE, i32 (%"class.v8::internal::wasm::WasmFullDecoder"*, i32)* @_ZN2v88internal4wasm15WasmFullDecoderILNS1_7Decoder12ValidateFlagE2ENS1_14EmptyInterfaceEE12DecodeI32SubEPS6_NS1_10WasmOpcodeE, i32 (%"class.v8::internal::wasm::WasmFullDecoder"*, i32)* @_ZN2v88internal4wasm15WasmFullDecoderILNS1_7Decoder12ValidateFlagE2ENS1_14EmptyInterfaceEE12DecodeI32MulEPS6_NS1_10WasmOpcodeE, i32 (%"class.v8::internal::wasm::WasmFullDecoder"*, i32)* @_ZN2v88internal4wasm15WasmFullDecoderILNS1_7Decoder12ValidateFlagE2ENS1_14EmptyInterfaceEE13DecodeI32DivSEPS6_NS1_10WasmOpcodeE, i32 (%"class.v8::internal::wasm::WasmFullDecoder"*, i32)* @_ZN2v88internal4wasm15WasmFullDecoderILNS1_7Decoder12ValidateFlagE2ENS1_14EmptyInterfaceEE13DecodeI32DivUEPS6_NS1_10WasmOpcodeE, i32 (%"class.v8::internal::wasm::WasmFullDecoder"*, i32)* @_ZN2v88internal4wasm15WasmFullDecoderILNS1_7Decoder12ValidateFlagE2ENS1_14EmptyInterfaceEE13DecodeI32RemSEPS6_NS1_10WasmOpcodeE, i32 (%"class.v8::internal::wasm::WasmFullDecoder"*, i32)* @_ZN2v88internal4wasm15WasmFullDecoderILNS1_7Decoder12ValidateFlagE2ENS1_14EmptyInterfaceEE13DecodeI32RemUEPS6_NS1_10WasmOpcodeE, i32 (%"class.v8::internal::wasm::WasmFullDecoder"*, i32)* @_ZN2v88internal4wasm15WasmFullDecoderILNS1_7Decoder12ValidateFlagE2ENS1_14EmptyInterfaceEE12DecodeI32AndEPS6_NS1_10WasmOpcodeE, i32 (%"class.v8::internal::wasm::WasmFullDecoder"*, i32)* @_ZN2v88internal4wasm15WasmFullDecoderILNS1_7Decoder12ValidateFlagE2ENS1_14EmptyInterfaceEE12DecodeI32IorEPS6_NS1_10WasmOpcodeE, i32 (%"class.v8::internal::wasm::WasmFullDecoder"*, i32)* @_ZN2v88internal4wasm15WasmFullDecoderILNS1_7Decoder12ValidateFlagE2ENS1_14EmptyInterfaceEE12DecodeI32XorEPS6_NS1_10WasmOpcodeE, i32 (%"class.v8::internal::wasm::WasmFullDecoder"*, i32)* @_ZN2v88internal4wasm15WasmFullDecoderILNS1_7Decoder12ValidateFlagE2ENS1_14EmptyInterfaceEE12DecodeI32ShlEPS6_NS1_10WasmOpcodeE, i32 (%"class.v8::internal::wasm::WasmFullDecoder"*, i32)* @_ZN2v88internal4wasm15WasmFullDecoderILNS1_7Decoder12ValidateFlagE2ENS1_14EmptyInterfaceEE13DecodeI32ShrSEPS6_NS1_10WasmOpcodeE, i32 (%"class.v8::internal::wasm::WasmFullDecoder"*, i32)* @_ZN2v88internal4wasm15WasmFullDecoderILNS1_7Decoder12ValidateFlagE2ENS1_14EmptyInterfaceEE13DecodeI32ShrUEPS6_NS1_10WasmOpcodeE, i32 (%"class.v8::internal::wasm::WasmFullDecoder"*, i32)* @_ZN2v88internal4wasm15WasmFullDecoderILNS1_7Decoder12ValidateFlagE2ENS1_14EmptyInterfaceEE12DecodeI32RolEPS6_NS1_10WasmOpcodeE, i32 (%"class.v8::internal::wasm::WasmFullDecoder"*, i32)* @_ZN2v88internal4wasm15WasmFullDecoderILNS1_7Decoder12ValidateFlagE2ENS1_14EmptyInterfaceEE12DecodeI32RorEPS6_NS1_10WasmOpcodeE, i32 (%"class.v8::internal::wasm::WasmFullDecoder"*, i32)* @_ZN2v88internal4wasm15WasmFullDecoderILNS1_7Decoder12ValidateFlagE2ENS1_14EmptyInterfaceEE12DecodeI64ClzEPS6_NS1_10WasmOpcodeE, i32 (%"class.v8::internal::wasm::WasmFullDecoder"*, i32)* @_ZN2v88internal4wasm15WasmFullDecoderILNS1_7Decoder12ValidateFlagE2ENS1_14EmptyInterfaceEE12DecodeI64CtzEPS6_NS1_10WasmOpcodeE, i32 (%"class.v8::internal::wasm::WasmFullDecoder"*, i32)* @_ZN2v88internal4wasm15WasmFullDecoderILNS1_7Decoder12ValidateFlagE2ENS1_14EmptyInterfaceEE15DecodeI64PopcntEPS6_NS1_10WasmOpcodeE, i32 (%"class.v8::internal::wasm::WasmFullDecoder"*, i32)* @_ZN2v88internal4wasm15WasmFullDecoderILNS1_7Decoder12ValidateFlagE2ENS1_14EmptyInterfaceEE12DecodeI64AddEPS6_NS1_10WasmOpcodeE, i32 (%"class.v8::internal::wasm::WasmFullDecoder"*, i32)* @_ZN2v88internal4wasm15WasmFullDecoderILNS1_7Decoder12ValidateFlagE2ENS1_14EmptyInterfaceEE12DecodeI64SubEPS6_NS1_10WasmOpcodeE, i32 (%"class.v8::internal::wasm::WasmFullDecoder"*, i32)* @_ZN2v88internal4wasm15WasmFullDecoderILNS1_7Decoder12ValidateFlagE2ENS1_14EmptyInterfaceEE12DecodeI64MulEPS6_NS1_10WasmOpcodeE, i32 (%"class.v8::internal::wasm::WasmFullDecoder"*, i32)* @_ZN2v88internal4wasm15WasmFullDecoderILNS1_7Decoder12ValidateFlagE2ENS1_14EmptyInterfaceEE13DecodeI64DivSEPS6_NS1_10WasmOpcodeE, i32 (%"class.v8::internal::wasm::WasmFullDecoder"*, i32)* @_ZN2v88internal4wasm15WasmFullDecoderILNS1_7Decoder12ValidateFlagE2ENS1_14EmptyInterfaceEE13DecodeI64DivUEPS6_NS1_10WasmOpcodeE, i32 (%"class.v8::internal::wasm::WasmFullDecoder"*, i32)* @_ZN2v88internal4wasm15WasmFullDecoderILNS1_7Decoder12ValidateFlagE2ENS1_14EmptyInterfaceEE13DecodeI64RemSEPS6_NS1_10WasmOpcodeE, i32 (%"class.v8::internal::wasm::WasmFullDecoder"*, i32)* @_ZN2v88internal4wasm15WasmFullDecoderILNS1_7Decoder12ValidateFlagE2ENS1_14EmptyInterfaceEE13DecodeI64RemUEPS6_NS1_10WasmOpcodeE, i32 (%"class.v8::internal::wasm::WasmFullDecoder"*, i32)* @_ZN2v88internal4wasm15WasmFullDecoderILNS1_7Decoder12ValidateFlagE2ENS1_14EmptyInterfaceEE12DecodeI64AndEPS6_NS1_10WasmOpcodeE, i32 (%"class.v8::internal::wasm::WasmFullDecoder"*, i32)* @_ZN2v88internal4wasm15WasmFullDecoderILNS1_7Decoder12ValidateFlagE2ENS1_14EmptyInterfaceEE12DecodeI64IorEPS6_NS1_10WasmOpcodeE, i32 (%"class.v8::internal::wasm::WasmFullDecoder"*, i32)* @_ZN2v88internal4wasm15WasmFullDecoderILNS1_7Decoder12ValidateFlagE2ENS1_14EmptyInterfaceEE12DecodeI64XorEPS6_NS1_10WasmOpcodeE, i32 (%"class.v8::internal::wasm::WasmFullDecoder"*, i32)* @_ZN2v88internal4wasm15WasmFullDecoderILNS1_7Decoder12ValidateFlagE2ENS1_14EmptyInterfaceEE12DecodeI64ShlEPS6_NS1_10WasmOpcodeE, i32 (%"class.v8::internal::wasm::WasmFullDecoder"*, i32)* @_ZN2v88internal4wasm15WasmFullDecoderILNS1_7Decoder12ValidateFlagE2ENS1_14EmptyInterfaceEE13DecodeI64ShrSEPS6_NS1_10WasmOpcodeE, i32 (%"class.v8::internal::wasm::WasmFullDecoder"*, i32)* @_ZN2v88internal4wasm15WasmFullDecoderILNS1_7Decoder12ValidateFlagE2ENS1_14EmptyInterfaceEE13DecodeI64ShrUEPS6_NS1_10WasmOpcodeE, i32 (%"class.v8::internal::wasm::WasmFullDecoder"*, i32)* @_ZN2v88internal4wasm15WasmFullDecoderILNS1_7Decoder12ValidateFlagE2ENS1_14EmptyInterfaceEE12DecodeI64RolEPS6_NS1_10WasmOpcodeE, i32 (%"class.v8::internal::wasm::WasmFullDecoder"*, i32)* @_ZN2v88internal4wasm15WasmFullDecoderILNS1_7Decoder12ValidateFlagE2ENS1_14EmptyInterfaceEE12DecodeI64RorEPS6_NS1_10WasmOpcodeE, i32 (%"class.v8::internal::wasm::WasmFullDecoder"*, i32)* @_ZN2v88internal4wasm15WasmFullDecoderILNS1_7Decoder12ValidateFlagE2ENS1_14EmptyInterfaceEE12DecodeF32AbsEPS6_NS1_10WasmOpcodeE, i32 (%"class.v8::internal::wasm::WasmFullDecoder"*, i32)* @_ZN2v88internal4wasm15WasmFullDecoderILNS1_7Decoder12ValidateFlagE2ENS1_14EmptyInterfaceEE12DecodeF32NegEPS6_NS1_10WasmOpcodeE, i32 (%"class.v8::internal::wasm::WasmFullDecoder"*, i32)* @_ZN2v88internal4wasm15WasmFullDecoderILNS1_7Decoder12ValidateFlagE2ENS1_14EmptyInterfaceEE13DecodeF32CeilEPS6_NS1_10WasmOpcodeE, i32 (%"class.v8::internal::wasm::WasmFullDecoder"*, i32)* @_ZN2v88internal4wasm15WasmFullDecoderILNS1_7Decoder12ValidateFlagE2ENS1_14EmptyInterfaceEE14DecodeF32FloorEPS6_NS1_10WasmOpcodeE, i32 (%"class.v8::internal::wasm::WasmFullDecoder"*, i32)* @_ZN2v88internal4wasm15WasmFullDecoderILNS1_7Decoder12ValidateFlagE2ENS1_14EmptyInterfaceEE14DecodeF32TruncEPS6_NS1_10WasmOpcodeE, i32 (%"class.v8::internal::wasm::WasmFullDecoder"*, i32)* @_ZN2v88internal4wasm15WasmFullDecoderILNS1_7Decoder12ValidateFlagE2ENS1_14EmptyInterfaceEE19DecodeF32NearestIntEPS6_NS1_10WasmOpcodeE, i32 (%"class.v8::internal::wasm::WasmFullDecoder"*, i32)* @_ZN2v88internal4wasm15WasmFullDecoderILNS1_7Decoder12ValidateFlagE2ENS1_14EmptyInterfaceEE13DecodeF32SqrtEPS6_NS1_10WasmOpcodeE, i32 (%"class.v8::internal::wasm::WasmFullDecoder"*, i32)* @_ZN2v88internal4wasm15WasmFullDecoderILNS1_7Decoder12ValidateFlagE2ENS1_14EmptyInterfaceEE12DecodeF32AddEPS6_NS1_10WasmOpcodeE, i32 (%"class.v8::internal::wasm::WasmFullDecoder"*, i32)* @_ZN2v88internal4wasm15WasmFullDecoderILNS1_7Decoder12ValidateFlagE2ENS1_14EmptyInterfaceEE12DecodeF32SubEPS6_NS1_10WasmOpcodeE, i32 (%"class.v8::internal::wasm::WasmFullDecoder"*, i32)* @_ZN2v88internal4wasm15WasmFullDecoderILNS1_7Decoder12ValidateFlagE2ENS1_14EmptyInterfaceEE12DecodeF32MulEPS6_NS1_10WasmOpcodeE, i32 (%"class.v8::internal::wasm::WasmFullDecoder"*, i32)* @_ZN2v88internal4wasm15WasmFullDecoderILNS1_7Decoder12ValidateFlagE2ENS1_14EmptyInterfaceEE12DecodeF32DivEPS6_NS1_10WasmOpcodeE, i32 (%"class.v8::internal::wasm::WasmFullDecoder"*, i32)* @_ZN2v88internal4wasm15WasmFullDecoderILNS1_7Decoder12ValidateFlagE2ENS1_14EmptyInterfaceEE12DecodeF32MinEPS6_NS1_10WasmOpcodeE, i32 (%"class.v8::internal::wasm::WasmFullDecoder"*, i32)* @_ZN2v88internal4wasm15WasmFullDecoderILNS1_7Decoder12ValidateFlagE2ENS1_14EmptyInterfaceEE12DecodeF32MaxEPS6_NS1_10WasmOpcodeE, i32 (%"class.v8::internal::wasm::WasmFullDecoder"*, i32)* @_ZN2v88internal4wasm15WasmFullDecoderILNS1_7Decoder12ValidateFlagE2ENS1_14EmptyInterfaceEE17DecodeF32CopySignEPS6_NS1_10WasmOpcodeE, i32 (%"class.v8::internal::wasm::WasmFullDecoder"*, i32)* @_ZN2v88internal4wasm15WasmFullDecoderILNS1_7Decoder12ValidateFlagE2ENS1_14EmptyInterfaceEE12DecodeF64AbsEPS6_NS1_10WasmOpcodeE, i32 (%"class.v8::internal::wasm::WasmFullDecoder"*, i32)* @_ZN2v88internal4wasm15WasmFullDecoderILNS1_7Decoder12ValidateFlagE2ENS1_14EmptyInterfaceEE12DecodeF64NegEPS6_NS1_10WasmOpcodeE, i32 (%"class.v8::internal::wasm::WasmFullDecoder"*, i32)* @_ZN2v88internal4wasm15WasmFullDecoderILNS1_7Decoder12ValidateFlagE2ENS1_14EmptyInterfaceEE13DecodeF64CeilEPS6_NS1_10WasmOpcodeE, i32 (%"class.v8::internal::wasm::WasmFullDecoder"*, i32)* @_ZN2v88internal4wasm15WasmFullDecoderILNS1_7Decoder12ValidateFlagE2ENS1_14EmptyInterfaceEE14DecodeF64FloorEPS6_NS1_10WasmOpcodeE, i32 (%"class.v8::internal::wasm::WasmFullDecoder"*, i32)* @_ZN2v88internal4wasm15WasmFullDecoderILNS1_7Decoder12ValidateFlagE2ENS1_14EmptyInterfaceEE14DecodeF64TruncEPS6_NS1_10WasmOpcodeE, i32 (%"class.v8::internal::wasm::WasmFullDecoder"*, i32)* @_ZN2v88internal4wasm15WasmFullDecoderILNS1_7Decoder12ValidateFlagE2ENS1_14EmptyInterfaceEE19DecodeF64NearestIntEPS6_NS1_10WasmOpcodeE, i32 (%"class.v8::internal::wasm::WasmFullDecoder"*, i32)* @_ZN2v88internal4wasm15WasmFullDecoderILNS1_7Decoder12ValidateFlagE2ENS1_14EmptyInterfaceEE13DecodeF64SqrtEPS6_NS1_10WasmOpcodeE, i32 (%"class.v8::internal::wasm::WasmFullDecoder"*, i32)* @_ZN2v88internal4wasm15WasmFullDecoderILNS1_7Decoder12ValidateFlagE2ENS1_14EmptyInterfaceEE12DecodeF64AddEPS6_NS1_10WasmOpcodeE, i32 (%"class.v8::internal::wasm::WasmFullDecoder"*, i32)* @_ZN2v88internal4wasm15WasmFullDecoderILNS1_7Decoder12ValidateFlagE2ENS1_14EmptyInterfaceEE12DecodeF64SubEPS6_NS1_10WasmOpcodeE, i32 (%"class.v8::internal::wasm::WasmFullDecoder"*, i32)* @_ZN2v88internal4wasm15WasmFullDecoderILNS1_7Decoder12ValidateFlagE2ENS1_14EmptyInterfaceEE12DecodeF64MulEPS6_NS1_10WasmOpcodeE, i32 (%"class.v8::internal::wasm::WasmFullDecoder"*, i32)* @_ZN2v88internal4wasm15WasmFullDecoderILNS1_7Decoder12ValidateFlagE2ENS1_14EmptyInterfaceEE12DecodeF64DivEPS6_NS1_10WasmOpcodeE, i32 (%"class.v8::internal::wasm::WasmFullDecoder"*, i32)* @_ZN2v88internal4wasm15WasmFullDecoderILNS1_7Decoder12ValidateFlagE2ENS1_14EmptyInterfaceEE12DecodeF64MinEPS6_NS1_10WasmOpcodeE, i32 (%"class.v8::internal::wasm::WasmFullDecoder"*, i32)* @_ZN2v88internal4wasm15WasmFullDecoderILNS1_7Decoder12ValidateFlagE2ENS1_14EmptyInterfaceEE12DecodeF64MaxEPS6_NS1_10WasmOpcodeE, i32 (%"class.v8::internal::wasm::WasmFullDecoder"*, i32)* @_ZN2v88internal4wasm15WasmFullDecoderILNS1_7Decoder12ValidateFlagE2ENS1_14EmptyInterfaceEE17DecodeF64CopySignEPS6_NS1_10WasmOpcodeE, i32 (%"class.v8::internal::wasm::WasmFullDecoder"*, i32)* @_ZN2v88internal4wasm15WasmFullDecoderILNS1_7Decoder12ValidateFlagE2ENS1_14EmptyInterfaceEE19DecodeI32ConvertI64EPS6_NS1_10WasmOpcodeE, i32 (%"class.v8::internal::wasm::WasmFullDecoder"*, i32)* @_ZN2v88internal4wasm15WasmFullDecoderILNS1_7Decoder12ValidateFlagE2ENS1_14EmptyInterfaceEE20DecodeI32SConvertF32EPS6_NS1_10WasmOpcodeE, i32 (%"class.v8::internal::wasm::WasmFullDecoder"*, i32)* @_ZN2v88internal4wasm15WasmFullDecoderILNS1_7Decoder12ValidateFlagE2ENS1_14EmptyInterfaceEE20DecodeI32UConvertF32EPS6_NS1_10WasmOpcodeE, i32 (%"class.v8::internal::wasm::WasmFullDecoder"*, i32)* @_ZN2v88internal4wasm15WasmFullDecoderILNS1_7Decoder12ValidateFlagE2ENS1_14EmptyInterfaceEE20DecodeI32SConvertF64EPS6_NS1_10WasmOpcodeE, i32 (%"class.v8::internal::wasm::WasmFullDecoder"*, i32)* @_ZN2v88internal4wasm15WasmFullDecoderILNS1_7Decoder12ValidateFlagE2ENS1_14EmptyInterfaceEE20DecodeI32UConvertF64EPS6_NS1_10WasmOpcodeE, i32 (%"class.v8::internal::wasm::WasmFullDecoder"*, i32)* @_ZN2v88internal4wasm15WasmFullDecoderILNS1_7Decoder12ValidateFlagE2ENS1_14EmptyInterfaceEE20DecodeI64SConvertI32EPS6_NS1_10WasmOpcodeE, i32 (%"class.v8::internal::wasm::WasmFullDecoder"*, i32)* @_ZN2v88internal4wasm15WasmFullDecoderILNS1_7Decoder12ValidateFlagE2ENS1_14EmptyInterfaceEE20DecodeI64UConvertI32EPS6_NS1_10WasmOpcodeE, i32 (%"class.v8::internal::wasm::WasmFullDecoder"*, i32)* @_ZN2v88internal4wasm15WasmFullDecoderILNS1_7Decoder12ValidateFlagE2ENS1_14EmptyInterfaceEE20DecodeI64SConvertF32EPS6_NS1_10WasmOpcodeE, i32 (%"class.v8::internal::wasm::WasmFullDecoder"*, i32)* @_ZN2v88internal4wasm15WasmFullDecoderILNS1_7Decoder12ValidateFlagE2ENS1_14EmptyInterfaceEE20DecodeI64UConvertF32EPS6_NS1_10WasmOpcodeE, i32 (%"class.v8::internal::wasm::WasmFullDecoder"*, i32)* @_ZN2v88internal4wasm15WasmFullDecoderILNS1_7Decoder12ValidateFlagE2ENS1_14EmptyInterfaceEE20DecodeI64SConvertF64EPS6_NS1_10WasmOpcodeE, i32 (%"class.v8::internal::wasm::WasmFullDecoder"*, i32)* @_ZN2v88internal4wasm15WasmFullDecoderILNS1_7Decoder12ValidateFlagE2ENS1_14EmptyInterfaceEE20DecodeI64UConvertF64EPS6_NS1_10WasmOpcodeE, i32 (%"class.v8::internal::wasm::WasmFullDecoder"*, i32)* @_ZN2v88internal4wasm15WasmFullDecoderILNS1_7Decoder12ValidateFlagE2ENS1_14EmptyInterfaceEE20DecodeF32SConvertI32EPS6_NS1_10WasmOpcodeE, i32 (%"class.v8::internal::wasm::WasmFullDecoder"*, i32)* @_ZN2v88internal4wasm15WasmFullDecoderILNS1_7Decoder12ValidateFlagE2ENS1_14EmptyInterfaceEE20DecodeF32UConvertI32EPS6_NS1_10WasmOpcodeE, i32 (%"class.v8::internal::wasm::WasmFullDecoder"*, i32)* @_ZN2v88internal4wasm15WasmFullDecoderILNS1_7Decoder12ValidateFlagE2ENS1_14EmptyInterfaceEE20DecodeF32SConvertI64EPS6_NS1_10WasmOpcodeE, i32 (%"class.v8::internal::wasm::WasmFullDecoder"*, i32)* @_ZN2v88internal4wasm15WasmFullDecoderILNS1_7Decoder12ValidateFlagE2ENS1_14EmptyInterfaceEE20DecodeF32UConvertI64EPS6_NS1_10WasmOpcodeE, i32 (%"class.v8::internal::wasm::WasmFullDecoder"*, i32)* @_ZN2v88internal4wasm15WasmFullDecoderILNS1_7Decoder12ValidateFlagE2ENS1_14EmptyInterfaceEE19DecodeF32ConvertF64EPS6_NS1_10WasmOpcodeE, i32 (%"class.v8::internal::wasm::WasmFullDecoder"*, i32)* @_ZN2v88internal4wasm15WasmFullDecoderILNS1_7Decoder12ValidateFlagE2ENS1_14EmptyInterfaceEE20DecodeF64SConvertI32EPS6_NS1_10WasmOpcodeE, i32 (%"class.v8::internal::wasm::WasmFullDecoder"*, i32)* @_ZN2v88internal4wasm15WasmFullDecoderILNS1_7Decoder12ValidateFlagE2ENS1_14EmptyInterfaceEE20DecodeF64UConvertI32EPS6_NS1_10WasmOpcodeE, i32 (%"class.v8::internal::wasm::WasmFullDecoder"*, i32)* @_ZN2v88internal4wasm15WasmFullDecoderILNS1_7Decoder12ValidateFlagE2ENS1_14EmptyInterfaceEE20DecodeF64SConvertI64EPS6_NS1_10WasmOpcodeE, i32 (%"class.v8::internal::wasm::WasmFullDecoder"*, i32)* @_ZN2v88internal4wasm15WasmFullDecoderILNS1_7Decoder12ValidateFlagE2ENS1_14EmptyInterfaceEE20DecodeF64UConvertI64EPS6_NS1_10WasmOpcodeE, i32 (%"class.v8::internal::wasm::WasmFullDecoder"*, i32)* @_ZN2v88internal4wasm15WasmFullDecoderILNS1_7Decoder12ValidateFlagE2ENS1_14EmptyInterfaceEE19DecodeF64ConvertF32EPS6_NS1_10WasmOpcodeE, i32 (%"class.v8::internal::wasm::WasmFullDecoder"*, i32)* @_ZN2v88internal4wasm15WasmFullDecoderILNS1_7Decoder12ValidateFlagE2ENS1_14EmptyInterfaceEE23DecodeI32ReinterpretF32EPS6_NS1_10WasmOpcodeE, i32 (%"class.v8::internal::wasm::WasmFullDecoder"*, i32)* @_ZN2v88internal4wasm15WasmFullDecoderILNS1_7Decoder12ValidateFlagE2ENS1_14EmptyInterfaceEE23DecodeI64ReinterpretF64EPS6_NS1_10WasmOpcodeE, i32 (%"class.v8::internal::wasm::WasmFullDecoder"*, i32)* @_ZN2v88internal4wasm15WasmFullDecoderILNS1_7Decoder12ValidateFlagE2ENS1_14EmptyInterfaceEE23DecodeF32ReinterpretI32EPS6_NS1_10WasmOpcodeE, i32 (%"class.v8::internal::wasm::WasmFullDecoder"*, i32)* @_ZN2v88internal4wasm15WasmFullDecoderILNS1_7Decoder12ValidateFlagE2ENS1_14EmptyInterfaceEE23DecodeF64ReinterpretI64EPS6_NS1_10WasmOpcodeE, i32 (%"class.v8::internal::wasm::WasmFullDecoder"*, i32)* @_ZN2v88internal4wasm15WasmFullDecoderILNS1_7Decoder12ValidateFlagE2ENS1_14EmptyInterfaceEE18DecodeI32SExtendI8EPS6_NS1_10WasmOpcodeE, i32 (%"class.v8::internal::wasm::WasmFullDecoder"*, i32)* @_ZN2v88internal4wasm15WasmFullDecoderILNS1_7Decoder12ValidateFlagE2ENS1_14EmptyInterfaceEE19DecodeI32SExtendI16EPS6_NS1_10WasmOpcodeE, i32 (%"class.v8::internal::wasm::WasmFullDecoder"*, i32)* @_ZN2v88internal4wasm15WasmFullDecoderILNS1_7Decoder12ValidateFlagE2ENS1_14EmptyInterfaceEE18DecodeI64SExtendI8EPS6_NS1_10WasmOpcodeE, i32 (%"class.v8::internal::wasm::WasmFullDecoder"*, i32)* @_ZN2v88internal4wasm15WasmFullDecoderILNS1_7Decoder12ValidateFlagE2ENS1_14EmptyInterfaceEE19DecodeI64SExtendI16EPS6_NS1_10WasmOpcodeE, i32 (%"class.v8::internal::wasm::WasmFullDecoder"*, i32)* @_ZN2v88internal4wasm15WasmFullDecoderILNS1_7Decoder12ValidateFlagE2ENS1_14EmptyInterfaceEE19DecodeI64SExtendI32EPS6_NS1_10WasmOpcodeE, i32 (%"class.v8::internal::wasm::WasmFullDecoder"*, i32)* @_ZN2v88internal4wasm15WasmFullDecoderILNS1_7Decoder12ValidateFlagE2ENS1_14EmptyInterfaceEE20DecodeUnknownOrAsmJsEPS6_NS1_10WasmOpcodeE, i32 (%"class.v8::internal::wasm::WasmFullDecoder"*, i32)* @_ZN2v88internal4wasm15WasmFullDecoderILNS1_7Decoder12ValidateFlagE2ENS1_14EmptyInterfaceEE20DecodeUnknownOrAsmJsEPS6_NS1_10WasmOpcodeE, i32 (%"class.v8::internal::wasm::WasmFullDecoder"*, i32)* @_ZN2v88internal4wasm15WasmFullDecoderILNS1_7Decoder12ValidateFlagE2ENS1_14EmptyInterfaceEE20DecodeUnknownOrAsmJsEPS6_NS1_10WasmOpcodeE, i32 (%"class.v8::internal::wasm::WasmFullDecoder"*, i32)* @_ZN2v88internal4wasm15WasmFullDecoderILNS1_7Decoder12ValidateFlagE2ENS1_14EmptyInterfaceEE20DecodeUnknownOrAsmJsEPS6_NS1_10WasmOpcodeE, i32 (%"class.v8::internal::wasm::WasmFullDecoder"*, i32)* @_ZN2v88internal4wasm15WasmFullDecoderILNS1_7Decoder12ValidateFlagE2ENS1_14EmptyInterfaceEE20DecodeUnknownOrAsmJsEPS6_NS1_10WasmOpcodeE, i32 (%"class.v8::internal::wasm::WasmFullDecoder"*, i32)* @_ZN2v88internal4wasm15WasmFullDecoderILNS1_7Decoder12ValidateFlagE2ENS1_14EmptyInterfaceEE20DecodeUnknownOrAsmJsEPS6_NS1_10WasmOpcodeE, i32 (%"class.v8::internal::wasm::WasmFullDecoder"*, i32)* @_ZN2v88internal4wasm15WasmFullDecoderILNS1_7Decoder12ValidateFlagE2ENS1_14EmptyInterfaceEE20DecodeUnknownOrAsmJsEPS6_NS1_10WasmOpcodeE, i32 (%"class.v8::internal::wasm::WasmFullDecoder"*, i32)* @_ZN2v88internal4wasm15WasmFullDecoderILNS1_7Decoder12ValidateFlagE2ENS1_14EmptyInterfaceEE20DecodeUnknownOrAsmJsEPS6_NS1_10WasmOpcodeE, i32 (%"class.v8::internal::wasm::WasmFullDecoder"*, i32)* @_ZN2v88internal4wasm15WasmFullDecoderILNS1_7Decoder12ValidateFlagE2ENS1_14EmptyInterfaceEE20DecodeUnknownOrAsmJsEPS6_NS1_10WasmOpcodeE, i32 (%"class.v8::internal::wasm::WasmFullDecoder"*, i32)* @_ZN2v88internal4wasm15WasmFullDecoderILNS1_7Decoder12ValidateFlagE2ENS1_14EmptyInterfaceEE20DecodeUnknownOrAsmJsEPS6_NS1_10WasmOpcodeE, i32 (%"class.v8::internal::wasm::WasmFullDecoder"*, i32)* @_ZN2v88internal4wasm15WasmFullDecoderILNS1_7Decoder12ValidateFlagE2ENS1_14EmptyInterfaceEE20DecodeUnknownOrAsmJsEPS6_NS1_10WasmOpcodeE, i32 (%"class.v8::internal::wasm::WasmFullDecoder"*, i32)* @_ZN2v88internal4wasm15WasmFullDecoderILNS1_7Decoder12ValidateFlagE2ENS1_14EmptyInterfaceEE13DecodeRefNullEPS6_NS1_10WasmOpcodeE, i32 (%"class.v8::internal::wasm::WasmFullDecoder"*, i32)* @_ZN2v88internal4wasm15WasmFullDecoderILNS1_7Decoder12ValidateFlagE2ENS1_14EmptyInterfaceEE15DecodeRefIsNullEPS6_NS1_10WasmOpcodeE, i32 (%"class.v8::internal::wasm::WasmFullDecoder"*, i32)* @_ZN2v88internal4wasm15WasmFullDecoderILNS1_7Decoder12ValidateFlagE2ENS1_14EmptyInterfaceEE13DecodeRefFuncEPS6_NS1_10WasmOpcodeE, i32 (%"class.v8::internal::wasm::WasmFullDecoder"*, i32)* @_ZN2v88internal4wasm15WasmFullDecoderILNS1_7Decoder12ValidateFlagE2ENS1_14EmptyInterfaceEE18DecodeRefAsNonNullEPS6_NS1_10WasmOpcodeE, i32 (%"class.v8::internal::wasm::WasmFullDecoder"*, i32)* @_ZN2v88internal4wasm15WasmFullDecoderILNS1_7Decoder12ValidateFlagE2ENS1_14EmptyInterfaceEE14DecodeBrOnNullEPS6_NS1_10WasmOpcodeE, i32 (%"class.v8::internal::wasm::WasmFullDecoder"*, i32)* @_ZN2v88internal4wasm15WasmFullDecoderILNS1_7Decoder12ValidateFlagE2ENS1_14EmptyInterfaceEE11DecodeRefEqEPS6_NS1_10WasmOpcodeE, i32 (%"class.v8::internal::wasm::WasmFullDecoder"*, i32)* @_ZN2v88internal4wasm15WasmFullDecoderILNS1_7Decoder12ValidateFlagE2ENS1_14EmptyInterfaceEE17DecodeBrOnNonNullEPS6_NS1_10WasmOpcodeE, i32 (%"class.v8::internal::wasm::WasmFullDecoder"*, i32)* @_ZN2v88internal4wasm15WasmFullDecoderILNS1_7Decoder12ValidateFlagE2ENS1_14EmptyInterfaceEE20DecodeUnknownOrAsmJsEPS6_NS1_10WasmOpcodeE, i32 (%"class.v8::internal::wasm::WasmFullDecoder"*, i32)* @_ZN2v88internal4wasm15WasmFullDecoderILNS1_7Decoder12ValidateFlagE2ENS1_14EmptyInterfaceEE20DecodeUnknownOrAsmJsEPS6_NS1_10WasmOpcodeE, i32 (%"class.v8::internal::wasm::WasmFullDecoder"*, i32)* @_ZN2v88internal4wasm15WasmFullDecoderILNS1_7Decoder12ValidateFlagE2ENS1_14EmptyInterfaceEE20DecodeUnknownOrAsmJsEPS6_NS1_10WasmOpcodeE, i32 (%"class.v8::internal::wasm::WasmFullDecoder"*, i32)* @_ZN2v88internal4wasm15WasmFullDecoderILNS1_7Decoder12ValidateFlagE2ENS1_14EmptyInterfaceEE20DecodeUnknownOrAsmJsEPS6_NS1_10WasmOpcodeE, i32 (%"class.v8::internal::wasm::WasmFullDecoder"*, i32)* @_ZN2v88internal4wasm15WasmFullDecoderILNS1_7Decoder12ValidateFlagE2ENS1_14EmptyInterfaceEE20DecodeUnknownOrAsmJsEPS6_NS1_10WasmOpcodeE, i32 (%"class.v8::internal::wasm::WasmFullDecoder"*, i32)* @_ZN2v88internal4wasm15WasmFullDecoderILNS1_7Decoder12ValidateFlagE2ENS1_14EmptyInterfaceEE20DecodeUnknownOrAsmJsEPS6_NS1_10WasmOpcodeE, i32 (%"class.v8::internal::wasm::WasmFullDecoder"*, i32)* @_ZN2v88internal4wasm15WasmFullDecoderILNS1_7Decoder12ValidateFlagE2ENS1_14EmptyInterfaceEE20DecodeUnknownOrAsmJsEPS6_NS1_10WasmOpcodeE, i32 (%"class.v8::internal::wasm::WasmFullDecoder"*, i32)* @_ZN2v88internal4wasm15WasmFullDecoderILNS1_7Decoder12ValidateFlagE2ENS1_14EmptyInterfaceEE20DecodeUnknownOrAsmJsEPS6_NS1_10WasmOpcodeE, i32 (%"class.v8::internal::wasm::WasmFullDecoder"*, i32)* @_ZN2v88internal4wasm15WasmFullDecoderILNS1_7Decoder12ValidateFlagE2ENS1_14EmptyInterfaceEE20DecodeUnknownOrAsmJsEPS6_NS1_10WasmOpcodeE, i32 (%"class.v8::internal::wasm::WasmFullDecoder"*, i32)* @_ZN2v88internal4wasm15WasmFullDecoderILNS1_7Decoder12ValidateFlagE2ENS1_14EmptyInterfaceEE20DecodeUnknownOrAsmJsEPS6_NS1_10WasmOpcodeE, i32 (%"class.v8::internal::wasm::WasmFullDecoder"*, i32)* @_ZN2v88internal4wasm15WasmFullDecoderILNS1_7Decoder12ValidateFlagE2ENS1_14EmptyInterfaceEE20DecodeUnknownOrAsmJsEPS6_NS1_10WasmOpcodeE, i32 (%"class.v8::internal::wasm::WasmFullDecoder"*, i32)* @_ZN2v88internal4wasm15WasmFullDecoderILNS1_7Decoder12ValidateFlagE2ENS1_14EmptyInterfaceEE20DecodeUnknownOrAsmJsEPS6_NS1_10WasmOpcodeE, i32 (%"class.v8::internal::wasm::WasmFullDecoder"*, i32)* @_ZN2v88internal4wasm15WasmFullDecoderILNS1_7Decoder12ValidateFlagE2ENS1_14EmptyInterfaceEE20DecodeUnknownOrAsmJsEPS6_NS1_10WasmOpcodeE, i32 (%"class.v8::internal::wasm::WasmFullDecoder"*, i32)* @_ZN2v88internal4wasm15WasmFullDecoderILNS1_7Decoder12ValidateFlagE2ENS1_14EmptyInterfaceEE20DecodeUnknownOrAsmJsEPS6_NS1_10WasmOpcodeE, i32 (%"class.v8::internal::wasm::WasmFullDecoder"*, i32)* @_ZN2v88internal4wasm15WasmFullDecoderILNS1_7Decoder12ValidateFlagE2ENS1_14EmptyInterfaceEE20DecodeUnknownOrAsmJsEPS6_NS1_10WasmOpcodeE, i32 (%"class.v8::internal::wasm::WasmFullDecoder"*, i32)* @_ZN2v88internal4wasm15WasmFullDecoderILNS1_7Decoder12ValidateFlagE2ENS1_14EmptyInterfaceEE20DecodeUnknownOrAsmJsEPS6_NS1_10WasmOpcodeE, i32 (%"class.v8::internal::wasm::WasmFullDecoder"*, i32)* @_ZN2v88internal4wasm15WasmFullDecoderILNS1_7Decoder12ValidateFlagE2ENS1_14EmptyInterfaceEE20DecodeUnknownOrAsmJsEPS6_NS1_10WasmOpcodeE, i32 (%"class.v8::internal::wasm::WasmFullDecoder"*, i32)* @_ZN2v88internal4wasm15WasmFullDecoderILNS1_7Decoder12ValidateFlagE2ENS1_14EmptyInterfaceEE20DecodeUnknownOrAsmJsEPS6_NS1_10WasmOpcodeE, i32 (%"class.v8::internal::wasm::WasmFullDecoder"*, i32)* @_ZN2v88internal4wasm15WasmFullDecoderILNS1_7Decoder12ValidateFlagE2ENS1_14EmptyInterfaceEE20DecodeUnknownOrAsmJsEPS6_NS1_10WasmOpcodeE, i32 (%"class.v8::internal::wasm::WasmFullDecoder"*, i32)* @_ZN2v88internal4wasm15WasmFullDecoderILNS1_7Decoder12ValidateFlagE2ENS1_14EmptyInterfaceEE20DecodeUnknownOrAsmJsEPS6_NS1_10WasmOpcodeE, i32 (%"class.v8::internal::wasm::WasmFullDecoder"*, i32)* @_ZN2v88internal4wasm15WasmFullDecoderILNS1_7Decoder12ValidateFlagE2ENS1_14EmptyInterfaceEE20DecodeUnknownOrAsmJsEPS6_NS1_10WasmOpcodeE, i32 (%"class.v8::internal::wasm::WasmFullDecoder"*, i32)* @_ZN2v88internal4wasm15WasmFullDecoderILNS1_7Decoder12ValidateFlagE2ENS1_14EmptyInterfaceEE20DecodeUnknownOrAsmJsEPS6_NS1_10WasmOpcodeE, i32 (%"class.v8::internal::wasm::WasmFullDecoder"*, i32)* @_ZN2v88internal4wasm15WasmFullDecoderILNS1_7Decoder12ValidateFlagE2ENS1_14EmptyInterfaceEE20DecodeUnknownOrAsmJsEPS6_NS1_10WasmOpcodeE, i32 (%"class.v8::internal::wasm::WasmFullDecoder"*, i32)* @_ZN2v88internal4wasm15WasmFullDecoderILNS1_7Decoder12ValidateFlagE2ENS1_14EmptyInterfaceEE20DecodeUnknownOrAsmJsEPS6_NS1_10WasmOpcodeE, i32 (%"class.v8::internal::wasm::WasmFullDecoder"*, i32)* @_ZN2v88internal4wasm15WasmFullDecoderILNS1_7Decoder12ValidateFlagE2ENS1_14EmptyInterfaceEE20DecodeUnknownOrAsmJsEPS6_NS1_10WasmOpcodeE, i32 (%"class.v8::internal::wasm::WasmFullDecoder"*, i32)* @_ZN2v88internal4wasm15WasmFullDecoderILNS1_7Decoder12ValidateFlagE2ENS1_14EmptyInterfaceEE20DecodeUnknownOrAsmJsEPS6_NS1_10WasmOpcodeE, i32 (%"class.v8::internal::wasm::WasmFullDecoder"*, i32)* @_ZN2v88internal4wasm15WasmFullDecoderILNS1_7Decoder12ValidateFlagE2ENS1_14EmptyInterfaceEE20DecodeUnknownOrAsmJsEPS6_NS1_10WasmOpcodeE, i32 (%"class.v8::internal::wasm::WasmFullDecoder"*, i32)* @_ZN2v88internal4wasm15WasmFullDecoderILNS1_7Decoder12ValidateFlagE2ENS1_14EmptyInterfaceEE20DecodeUnknownOrAsmJsEPS6_NS1_10WasmOpcodeE, i32 (%"class.v8::internal::wasm::WasmFullDecoder"*, i32)* @_ZN2v88internal4wasm15WasmFullDecoderILNS1_7Decoder12ValidateFlagE2ENS1_14EmptyInterfaceEE20DecodeUnknownOrAsmJsEPS6_NS1_10WasmOpcodeE, i32 (%"class.v8::internal::wasm::WasmFullDecoder"*, i32)* @_ZN2v88internal4wasm15WasmFullDecoderILNS1_7Decoder12ValidateFlagE2ENS1_14EmptyInterfaceEE20DecodeUnknownOrAsmJsEPS6_NS1_10WasmOpcodeE, i32 (%"class.v8::internal::wasm::WasmFullDecoder"*, i32)* @_ZN2v88internal4wasm15WasmFullDecoderILNS1_7Decoder12ValidateFlagE2ENS1_14EmptyInterfaceEE20DecodeUnknownOrAsmJsEPS6_NS1_10WasmOpcodeE, i32 (%"class.v8::internal::wasm::WasmFullDecoder"*, i32)* @_ZN2v88internal4wasm15WasmFullDecoderILNS1_7Decoder12ValidateFlagE2ENS1_14EmptyInterfaceEE20DecodeUnknownOrAsmJsEPS6_NS1_10WasmOpcodeE, i32 (%"class.v8::internal::wasm::WasmFullDecoder"*, i32)* @_ZN2v88internal4wasm15WasmFullDecoderILNS1_7Decoder12ValidateFlagE2ENS1_14EmptyInterfaceEE20DecodeUnknownOrAsmJsEPS6_NS1_10WasmOpcodeE, i32 (%"class.v8::internal::wasm::WasmFullDecoder"*, i32)* @_ZN2v88internal4wasm15WasmFullDecoderILNS1_7Decoder12ValidateFlagE2ENS1_14EmptyInterfaceEE20DecodeUnknownOrAsmJsEPS6_NS1_10WasmOpcodeE, i32 (%"class.v8::internal::wasm::WasmFullDecoder"*, i32)* @_ZN2v88internal4wasm15WasmFullDecoderILNS1_7Decoder12ValidateFlagE2ENS1_14EmptyInterfaceEE20DecodeUnknownOrAsmJsEPS6_NS1_10WasmOpcodeE, i32 (%"class.v8::internal::wasm::WasmFullDecoder"*, i32)* @_ZN2v88internal4wasm15WasmFullDecoderILNS1_7Decoder12ValidateFlagE2ENS1_14EmptyInterfaceEE20DecodeUnknownOrAsmJsEPS6_NS1_10WasmOpcodeE, i32 (%"class.v8::internal::wasm::WasmFullDecoder"*, i32)* @_ZN2v88internal4wasm15WasmFullDecoderILNS1_7Decoder12ValidateFlagE2ENS1_14EmptyInterfaceEE8DecodeGCEPS6_NS1_10WasmOpcodeE, i32 (%"class.v8::internal::wasm::WasmFullDecoder"*, i32)* @_ZN2v88internal4wasm15WasmFullDecoderILNS1_7Decoder12ValidateFlagE2ENS1_14EmptyInterfaceEE13DecodeNumericEPS6_NS1_10WasmOpcodeE, i32 (%"class.v8::internal::wasm::WasmFullDecoder"*, i32)* @_ZN2v88internal4wasm15WasmFullDecoderILNS1_7Decoder12ValidateFlagE2ENS1_14EmptyInterfaceEE10DecodeSimdEPS6_NS1_10WasmOpcodeE, i32 (%"class.v8::internal::wasm::WasmFullDecoder"*, i32)* @_ZN2v88internal4wasm15WasmFullDecoderILNS1_7Decoder12ValidateFlagE2ENS1_14EmptyInterfaceEE12DecodeAtomicEPS6_NS1_10WasmOpcodeE, i32 (%"class.v8::internal::wasm::WasmFullDecoder"*, i32)* @_ZN2v88internal4wasm15WasmFullDecoderILNS1_7Decoder12ValidateFlagE2ENS1_14EmptyInterfaceEE20DecodeUnknownOrAsmJsEPS6_NS1_10WasmOpcodeE] }, comdat, align 8
@.str.1286 = private unnamed_addr constant [11 x i8] c"block type\00", align 1
@.str.1287 = private unnamed_addr constant [23 x i8] c"invalid block type %ld\00", align 1
@.str.1288 = private unnamed_addr constant [50 x i8] c"block type index %u is not a signature definition\00", align 1
@.str.1289 = private unnamed_addr constant [59 x i8] c"not enough arguments on the stack for %s, expected %d more\00", align 1
@.str.1290 = private unnamed_addr constant [7 x i8] c"<null>\00", align 1
@.str.1291 = private unnamed_addr constant [6 x i8] c"<end>\00", align 1
@.str.1292 = private unnamed_addr constant [27 x i8] c"Invalid prefixed opcode %d\00", align 1
@.str.1293 = private unnamed_addr constant [6 x i8] c"type \00", align 1
@.str.1294 = private unnamed_addr constant [40 x i8] c"%s[%d] expected %s, found %s of type %s\00", align 1
@.str.1295 = private unnamed_addr constant [26 x i8] c"else does not match an if\00", align 1
@.str.1296 = private unnamed_addr constant [28 x i8] c"else already present for if\00", align 1
@.str.1297 = private unnamed_addr constant [9 x i8] c"fallthru\00", align 1
@.str.1298 = private unnamed_addr constant [51 x i8] c"expected %u elements on the stack for %s, found %u\00", align 1
@.str.1299 = private unnamed_addr constant [43 x i8] c"type error in %s[%u] (expected %s, got %s)\00", align 1
@.str.1300 = private unnamed_addr constant [59 x i8] c"Invalid opcode 0x%02x (enable with --experimental-wasm-eh)\00", align 1
@.str.1301 = private unnamed_addr constant [27 x i8] c"catch does not match a try\00", align 1
@.str.1302 = private unnamed_addr constant [30 x i8] c"catch after catch-all for try\00", align 1
@.str.1303 = private unnamed_addr constant [27 x i8] c"catch after unwind for try\00", align 1
@.str.1304 = private unnamed_addr constant [16 x i8] c"exception index\00", align 1
@.str.1305 = private unnamed_addr constant [28 x i8] c"Invalid exception index: %u\00", align 1
@.str.1306 = private unnamed_addr constant [41 x i8] c"rethrow not targeting catch or catch-all\00", align 1
@.str.1307 = private unnamed_addr constant [13 x i8] c"branch depth\00", align 1
@.str.1308 = private unnamed_addr constant [25 x i8] c"invalid branch depth: %u\00", align 1
@.str.1309 = private unnamed_addr constant [28 x i8] c"unwind does not match a try\00", align 1
@.str.1310 = private unnamed_addr constant [51 x i8] c"catch, catch-all or unwind already present for try\00", align 1
@.str.1311 = private unnamed_addr constant [34 x i8] c"missing catch or catch-all in try\00", align 1
@.str.1312 = private unnamed_addr constant [33 x i8] c"trailing code after function end\00", align 1
@.str.1315 = private unnamed_addr constant [53 x i8] c"start-arity and end-arity of one-armed if must match\00", align 1
@.str.1316 = private unnamed_addr constant [46 x i8] c"type error in merge[%u] (expected %s, got %s)\00", align 1
@.str.1317 = private unnamed_addr constant [7 x i8] c"branch\00", align 1
@.str.1318 = private unnamed_addr constant [58 x i8] c"br_table: label arity inconsistent with previous arity %d\00", align 1
@.str.1319 = private unnamed_addr constant [12 x i8] c"table count\00", align 1
@.str.1320 = private unnamed_addr constant [46 x i8] c"invalid table count (> max br_table size): %u\00", align 1
@.str.1321 = private unnamed_addr constant [19 x i8] c"branch table entry\00", align 1
@.str.1322 = private unnamed_addr constant [15 x i8] c"function index\00", align 1
@.str.1323 = private unnamed_addr constant [27 x i8] c"invalid function index: %u\00", align 1
@.str.1324 = private unnamed_addr constant [53 x i8] c"Fatal process out of memory: base::SmallVector::Grow\00", align 1
@.str.1325 = private unnamed_addr constant [16 x i8] c"signature index\00", align 1
@.str.1326 = private unnamed_addr constant [33 x i8] c"expected table index 0, found %u\00", align 1
@.str.1327 = private unnamed_addr constant [12 x i8] c"table index\00", align 1
@.str.1328 = private unnamed_addr constant [51 x i8] c"call_indirect: table index immediate out of bounds\00", align 1
@.str.1329 = private unnamed_addr constant [61 x i8] c"call_indirect: immediate table #%u is not of a function type\00", align 1
@.str.1330 = private unnamed_addr constant [29 x i8] c"invalid signature index: #%u\00", align 1
@.str.1331 = private unnamed_addr constant [79 x i8] c"call_indirect: Immediate signature #%u is not a subtype of immediate table #%u\00", align 1
@.str.1332 = private unnamed_addr constant [68 x i8] c"Invalid opcode 0x%02x (enable with --experimental-wasm-return_call)\00", align 1
@.str.1333 = private unnamed_addr constant [7 x i8] c"%s: %s\00", align 1
@.str.1334 = private unnamed_addr constant [32 x i8] c"tail call return types mismatch\00", align 1
@.str.1335 = private unnamed_addr constant [70 x i8] c"Invalid opcode 0x%02x (enable with --experimental-wasm-typed_funcref)\00", align 1
@.str.1336 = private unnamed_addr constant [19 x i8] c"function reference\00", align 1
@.str.1337 = private unnamed_addr constant [20 x i8] c"Invalid opcode 0x%x\00", align 1
@.str.1338 = private unnamed_addr constant [30 x i8] c"delegate does not match a try\00", align 1
@.str.1339 = private unnamed_addr constant [58 x i8] c"delegate target must be a try block or the function block\00", align 1
@.str.1340 = private unnamed_addr constant [55 x i8] c"cannot delegate inside the catch handler of the target\00", align 1
@.str.1341 = private unnamed_addr constant [31 x i8] c"catch-all does not match a try\00", align 1
@.str.1342 = private unnamed_addr constant [34 x i8] c"catch-all already present for try\00", align 1
@.str.1343 = private unnamed_addr constant [35 x i8] c"cannot have catch-all after unwind\00", align 1
@.str.1344 = private unnamed_addr constant [56 x i8] c"select without type is only valid for value type inputs\00", align 1
@.str.1345 = private unnamed_addr constant [65 x i8] c"Invalid opcode 0x%02x (enable with --experimental-wasm-reftypes)\00", align 1
@.str.1346 = private unnamed_addr constant [23 x i8] c"number of select types\00", align 1
@.str.1347 = private unnamed_addr constant [57 x i8] c"Invalid number of types. Select accepts exactly one type\00", align 1
@_ZN2v88internal4wasm4implL11kCachedSigsE = internal unnamed_addr constant [53 x %"class.v8::internal::Signature"*] [%"class.v8::internal::Signature"* null, %"class.v8::internal::Signature"* @_ZN2v88internal4wasm4implL8kSig_s_sE, %"class.v8::internal::Signature"* @_ZN2v88internal4wasm4implL8kSig_s_fE, %"class.v8::internal::Signature"* @_ZN2v88internal4wasm4implL8kSig_s_dE, %"class.v8::internal::Signature"* @_ZN2v88internal4wasm4implL9kSig_s_ssE, %"class.v8::internal::Signature"* @_ZN2v88internal4wasm4implL8kSig_s_iE, %"class.v8::internal::Signature"* @_ZN2v88internal4wasm4implL8kSig_s_lE, %"class.v8::internal::Signature"* @_ZN2v88internal4wasm4implL9kSig_s_siE, %"class.v8::internal::Signature"* @_ZN2v88internal4wasm4implL8kSig_i_sE, %"class.v8::internal::Signature"* @_ZN2v88internal4wasm4implL9kSig_v_isE, %"class.v8::internal::Signature"* @_ZN2v88internal4wasm4implL10kSig_s_sssE, %"class.v8::internal::Signature"* @_ZN2v88internal4wasm4implL9kSig_s_isE, %"class.v8::internal::Signature"* @_ZN2v88internal4wasm4implL8kSig_v_vE, %"class.v8::internal::Signature"* @_ZN2v88internal4wasm4implL9kSig_i_iiE, %"class.v8::internal::Signature"* @_ZN2v88internal4wasm4implL8kSig_i_iE, %"class.v8::internal::Signature"* @_ZN2v88internal4wasm4implL8kSig_i_vE, %"class.v8::internal::Signature"* @_ZN2v88internal4wasm4implL9kSig_i_ffE, %"class.v8::internal::Signature"* @_ZN2v88internal4wasm4implL8kSig_i_fE, %"class.v8::internal::Signature"* @_ZN2v88internal4wasm4implL9kSig_i_ddE, %"class.v8::internal::Signature"* @_ZN2v88internal4wasm4implL8kSig_i_dE, %"class.v8::internal::Signature"* @_ZN2v88internal4wasm4implL8kSig_i_lE, %"class.v8::internal::Signature"* @_ZN2v88internal4wasm4implL9kSig_l_llE, %"class.v8::internal::Signature"* @_ZN2v88internal4wasm4implL9kSig_i_llE, %"class.v8::internal::Signature"* @_ZN2v88internal4wasm4implL8kSig_l_lE, %"class.v8::internal::Signature"* @_ZN2v88internal4wasm4implL8kSig_l_iE, %"class.v8::internal::Signature"* @_ZN2v88internal4wasm4implL8kSig_l_fE, %"class.v8::internal::Signature"* @_ZN2v88internal4wasm4implL8kSig_l_dE, %"class.v8::internal::Signature"* @_ZN2v88internal4wasm4implL9kSig_f_ffE, %"class.v8::internal::Signature"* @_ZN2v88internal4wasm4implL8kSig_f_fE, %"class.v8::internal::Signature"* @_ZN2v88internal4wasm4implL8kSig_f_dE, %"class.v8::internal::Signature"* @_ZN2v88internal4wasm4implL8kSig_f_iE, %"class.v8::internal::Signature"* @_ZN2v88internal4wasm4implL8kSig_f_lE, %"class.v8::internal::Signature"* @_ZN2v88internal4wasm4implL9kSig_d_ddE, %"class.v8::internal::Signature"* @_ZN2v88internal4wasm4implL8kSig_d_dE, %"class.v8::internal::Signature"* @_ZN2v88internal4wasm4implL8kSig_d_fE, %"class.v8::internal::Signature"* @_ZN2v88internal4wasm4implL8kSig_d_iE, %"class.v8::internal::Signature"* @_ZN2v88internal4wasm4implL8kSig_d_lE, %"class.v8::internal::Signature"* @_ZN2v88internal4wasm4implL8kSig_v_iE, %"class.v8::internal::Signature"* @_ZN2v88internal4wasm4implL9kSig_v_iiE, %"class.v8::internal::Signature"* @_ZN2v88internal4wasm4implL9kSig_v_idE, %"class.v8::internal::Signature"* @_ZN2v88internal4wasm4implL9kSig_d_idE, %"class.v8::internal::Signature"* @_ZN2v88internal4wasm4implL9kSig_v_ifE, %"class.v8::internal::Signature"* @_ZN2v88internal4wasm4implL9kSig_f_ifE, %"class.v8::internal::Signature"* @_ZN2v88internal4wasm4implL9kSig_v_ilE, %"class.v8::internal::Signature"* @_ZN2v88internal4wasm4implL9kSig_l_ilE, %"class.v8::internal::Signature"* @_ZN2v88internal4wasm4implL10kSig_v_iiiE, %"class.v8::internal::Signature"* @_ZN2v88internal4wasm4implL10kSig_i_iiiE, %"class.v8::internal::Signature"* @_ZN2v88internal4wasm4implL10kSig_l_illE, %"class.v8::internal::Signature"* @_ZN2v88internal4wasm4implL10kSig_i_iilE, %"class.v8::internal::Signature"* @_ZN2v88internal4wasm4implL10kSig_i_illE, %"class.v8::internal::Signature"* @_ZN2v88internal4wasm4implL8kSig_i_eE, %"class.v8::internal::Signature"* @_ZN2v88internal4wasm4implL9kSig_i_ciE, %"class.v8::internal::Signature"* @_ZN2v88internal4wasm4implL9kSig_i_qqE], align 16
@_ZN2v88internal4wasm4implL24kSimpleAsmjsExprSigTableE = internal unnamed_addr constant %"struct.std::__1::array.243" { [256 x i8] c"\00\00\00\00\00\00\00\00\00\00\00\00\00\00\00\00\00\00\00\00\00\00\00\00\00\00\00\00\00\00\00\00\00\00\00\00\00\00\00\00\00\00\00\00\00\00\00\00\00\00\00\00\00\00\00\00\00\00\00\00\00\00\00\00\00\00\00\00\00\00\00\00\00\00\00\00\00\00\00\00\00\00\00\00\00\00\00\00\00\00\00\00\00\00\00\00\00\00\00\00\00\00\00\00\00\00\00\00\00\00\00\00\00\00\00\00\00\00\00\00\00\00\00\00\00\00\00\00\00\00\00\00\00\00\00\00\00\00\00\00\00\00\00\00\00\00\00\00\00\00\00\00\00\00\00\00\00\00\00\00\00\00\00\00\00\00\00\00\00\00\00\00\00\00\00\00\00\00\00\00\00\00\00\00\00\00\00\00\00\00\00\00\00\00\00\00\00\00\00\00\00\00\00\00\00\00\00\00\00\00\00\00\00\00\00\00\00\00\00\00!!!!!!!!   \0D\0D\0D\0D\0E\0E\0E\0E\0E\1E#\0D\0D\0D*(\11\11\13\13\00\00\00\00\00" }, align 1
@_ZN2v88internal4wasm4implL8kSig_s_sE = internal constant %"class.v8::internal::Signature" { i64 1, i64 1, %"class.v8::internal::wasm::ValueType"* getelementptr inbounds ([2 x %"class.v8::internal::wasm::ValueType"], [2 x %"class.v8::internal::wasm::ValueType"]* @_ZN2v88internal4wasm4implL10kTypes_s_sE, i32 0, i32 0) }, align 8
@_ZN2v88internal4wasm4implL8kSig_s_fE = internal constant %"class.v8::internal::Signature" { i64 1, i64 1, %"class.v8::internal::wasm::ValueType"* getelementptr inbounds ([2 x %"class.v8::internal::wasm::ValueType"], [2 x %"class.v8::internal::wasm::ValueType"]* @_ZN2v88internal4wasm4implL10kTypes_s_fE, i32 0, i32 0) }, align 8
@_ZN2v88internal4wasm4implL8kSig_s_dE = internal constant %"class.v8::internal::Signature" { i64 1, i64 1, %"class.v8::internal::wasm::ValueType"* getelementptr inbounds ([2 x %"class.v8::internal::wasm::ValueType"], [2 x %"class.v8::internal::wasm::ValueType"]* @_ZN2v88internal4wasm4implL10kTypes_s_dE, i32 0, i32 0) }, align 8
@_ZN2v88internal4wasm4implL9kSig_s_ssE = internal constant %"class.v8::internal::Signature" { i64 1, i64 2, %"class.v8::internal::wasm::ValueType"* getelementptr inbounds ([3 x %"class.v8::internal::wasm::ValueType"], [3 x %"class.v8::internal::wasm::ValueType"]* @_ZN2v88internal4wasm4implL11kTypes_s_ssE, i32 0, i32 0) }, align 8
@_ZN2v88internal4wasm4implL8kSig_s_iE = internal constant %"class.v8::internal::Signature" { i64 1, i64 1, %"class.v8::internal::wasm::ValueType"* getelementptr inbounds ([2 x %"class.v8::internal::wasm::ValueType"], [2 x %"class.v8::internal::wasm::ValueType"]* @_ZN2v88internal4wasm4implL10kTypes_s_iE, i32 0, i32 0) }, align 8
@_ZN2v88internal4wasm4implL8kSig_s_lE = internal constant %"class.v8::internal::Signature" { i64 1, i64 1, %"class.v8::internal::wasm::ValueType"* getelementptr inbounds ([2 x %"class.v8::internal::wasm::ValueType"], [2 x %"class.v8::internal::wasm::ValueType"]* @_ZN2v88internal4wasm4implL10kTypes_s_lE, i32 0, i32 0) }, align 8
@_ZN2v88internal4wasm4implL9kSig_s_siE = internal constant %"class.v8::internal::Signature" { i64 1, i64 2, %"class.v8::internal::wasm::ValueType"* getelementptr inbounds ([3 x %"class.v8::internal::wasm::ValueType"], [3 x %"class.v8::internal::wasm::ValueType"]* @_ZN2v88internal4wasm4implL11kTypes_s_siE, i32 0, i32 0) }, align 8
@_ZN2v88internal4wasm4implL8kSig_i_sE = internal constant %"class.v8::internal::Signature" { i64 1, i64 1, %"class.v8::internal::wasm::ValueType"* getelementptr inbounds ([2 x %"class.v8::internal::wasm::ValueType"], [2 x %"class.v8::internal::wasm::ValueType"]* @_ZN2v88internal4wasm4implL10kTypes_i_sE, i32 0, i32 0) }, align 8
@_ZN2v88internal4wasm4implL9kSig_v_isE = internal constant %"class.v8::internal::Signature" { i64 0, i64 2, %"class.v8::internal::wasm::ValueType"* bitcast (i8* getelementptr (i8, i8* bitcast ([3 x %"class.v8::internal::wasm::ValueType"]* @_ZN2v88internal4wasm4implL11kTypes_v_isE to i8*), i64 4) to %"class.v8::internal::wasm::ValueType"*) }, align 8
@_ZN2v88internal4wasm4implL10kSig_s_sssE = internal constant %"class.v8::internal::Signature" { i64 1, i64 3, %"class.v8::internal::wasm::ValueType"* getelementptr inbounds ([4 x %"class.v8::internal::wasm::ValueType"], [4 x %"class.v8::internal::wasm::ValueType"]* @_ZN2v88internal4wasm4implL12kTypes_s_sssE, i32 0, i32 0) }, align 8
@_ZN2v88internal4wasm4implL9kSig_s_isE = internal constant %"class.v8::internal::Signature" { i64 1, i64 2, %"class.v8::internal::wasm::ValueType"* getelementptr inbounds ([3 x %"class.v8::internal::wasm::ValueType"], [3 x %"class.v8::internal::wasm::ValueType"]* @_ZN2v88internal4wasm4implL11kTypes_s_isE, i32 0, i32 0) }, align 8
@_ZN2v88internal4wasm4implL8kSig_v_vE = internal constant %"class.v8::internal::Signature" { i64 0, i64 0, %"class.v8::internal::wasm::ValueType"* bitcast (i8* getelementptr (i8, i8* bitcast ([1 x %"class.v8::internal::wasm::ValueType"]* @_ZN2v88internal4wasm4implL10kTypes_v_vE to i8*), i64 4) to %"class.v8::internal::wasm::ValueType"*) }, align 8
@_ZN2v88internal4wasm4implL9kSig_i_iiE = internal constant %"class.v8::internal::Signature" { i64 1, i64 2, %"class.v8::internal::wasm::ValueType"* getelementptr inbounds ([3 x %"class.v8::internal::wasm::ValueType"], [3 x %"class.v8::internal::wasm::ValueType"]* @_ZN2v88internal4wasm4implL11kTypes_i_iiE, i32 0, i32 0) }, align 8
@_ZN2v88internal4wasm4implL8kSig_i_iE = internal constant %"class.v8::internal::Signature" { i64 1, i64 1, %"class.v8::internal::wasm::ValueType"* getelementptr inbounds ([2 x %"class.v8::internal::wasm::ValueType"], [2 x %"class.v8::internal::wasm::ValueType"]* @_ZN2v88internal4wasm4implL10kTypes_i_iE, i32 0, i32 0) }, align 8
@_ZN2v88internal4wasm4implL8kSig_i_vE = internal constant %"class.v8::internal::Signature" { i64 1, i64 0, %"class.v8::internal::wasm::ValueType"* getelementptr inbounds ([1 x %"class.v8::internal::wasm::ValueType"], [1 x %"class.v8::internal::wasm::ValueType"]* @_ZN2v88internal4wasm4implL10kTypes_i_vE, i32 0, i32 0) }, align 8
@_ZN2v88internal4wasm4implL9kSig_i_ffE = internal constant %"class.v8::internal::Signature" { i64 1, i64 2, %"class.v8::internal::wasm::ValueType"* getelementptr inbounds ([3 x %"class.v8::internal::wasm::ValueType"], [3 x %"class.v8::internal::wasm::ValueType"]* @_ZN2v88internal4wasm4implL11kTypes_i_ffE, i32 0, i32 0) }, align 8
@_ZN2v88internal4wasm4implL8kSig_i_fE = internal constant %"class.v8::internal::Signature" { i64 1, i64 1, %"class.v8::internal::wasm::ValueType"* getelementptr inbounds ([2 x %"class.v8::internal::wasm::ValueType"], [2 x %"class.v8::internal::wasm::ValueType"]* @_ZN2v88internal4wasm4implL10kTypes_i_fE, i32 0, i32 0) }, align 8
@_ZN2v88internal4wasm4implL9kSig_i_ddE = internal constant %"class.v8::internal::Signature" { i64 1, i64 2, %"class.v8::internal::wasm::ValueType"* getelementptr inbounds ([3 x %"class.v8::internal::wasm::ValueType"], [3 x %"class.v8::internal::wasm::ValueType"]* @_ZN2v88internal4wasm4implL11kTypes_i_ddE, i32 0, i32 0) }, align 8
@_ZN2v88internal4wasm4implL8kSig_i_dE = internal constant %"class.v8::internal::Signature" { i64 1, i64 1, %"class.v8::internal::wasm::ValueType"* getelementptr inbounds ([2 x %"class.v8::internal::wasm::ValueType"], [2 x %"class.v8::internal::wasm::ValueType"]* @_ZN2v88internal4wasm4implL10kTypes_i_dE, i32 0, i32 0) }, align 8
@_ZN2v88internal4wasm4implL8kSig_i_lE = internal constant %"class.v8::internal::Signature" { i64 1, i64 1, %"class.v8::internal::wasm::ValueType"* getelementptr inbounds ([2 x %"class.v8::internal::wasm::ValueType"], [2 x %"class.v8::internal::wasm::ValueType"]* @_ZN2v88internal4wasm4implL10kTypes_i_lE, i32 0, i32 0) }, align 8
@_ZN2v88internal4wasm4implL9kSig_l_llE = internal constant %"class.v8::internal::Signature" { i64 1, i64 2, %"class.v8::internal::wasm::ValueType"* getelementptr inbounds ([3 x %"class.v8::internal::wasm::ValueType"], [3 x %"class.v8::internal::wasm::ValueType"]* @_ZN2v88internal4wasm4implL11kTypes_l_llE, i32 0, i32 0) }, align 8
@_ZN2v88internal4wasm4implL9kSig_i_llE = internal constant %"class.v8::internal::Signature" { i64 1, i64 2, %"class.v8::internal::wasm::ValueType"* getelementptr inbounds ([3 x %"class.v8::internal::wasm::ValueType"], [3 x %"class.v8::internal::wasm::ValueType"]* @_ZN2v88internal4wasm4implL11kTypes_i_llE, i32 0, i32 0) }, align 8
@_ZN2v88internal4wasm4implL8kSig_l_lE = internal constant %"class.v8::internal::Signature" { i64 1, i64 1, %"class.v8::internal::wasm::ValueType"* getelementptr inbounds ([2 x %"class.v8::internal::wasm::ValueType"], [2 x %"class.v8::internal::wasm::ValueType"]* @_ZN2v88internal4wasm4implL10kTypes_l_lE, i32 0, i32 0) }, align 8
@_ZN2v88internal4wasm4implL8kSig_l_iE = internal constant %"class.v8::internal::Signature" { i64 1, i64 1, %"class.v8::internal::wasm::ValueType"* getelementptr inbounds ([2 x %"class.v8::internal::wasm::ValueType"], [2 x %"class.v8::internal::wasm::ValueType"]* @_ZN2v88internal4wasm4implL10kTypes_l_iE, i32 0, i32 0) }, align 8
@_ZN2v88internal4wasm4implL8kSig_l_fE = internal constant %"class.v8::internal::Signature" { i64 1, i64 1, %"class.v8::internal::wasm::ValueType"* getelementptr inbounds ([2 x %"class.v8::internal::wasm::ValueType"], [2 x %"class.v8::internal::wasm::ValueType"]* @_ZN2v88internal4wasm4implL10kTypes_l_fE, i32 0, i32 0) }, align 8
@_ZN2v88internal4wasm4implL8kSig_l_dE = internal constant %"class.v8::internal::Signature" { i64 1, i64 1, %"class.v8::internal::wasm::ValueType"* getelementptr inbounds ([2 x %"class.v8::internal::wasm::ValueType"], [2 x %"class.v8::internal::wasm::ValueType"]* @_ZN2v88internal4wasm4implL10kTypes_l_dE, i32 0, i32 0) }, align 8
@_ZN2v88internal4wasm4implL9kSig_f_ffE = internal constant %"class.v8::internal::Signature" { i64 1, i64 2, %"class.v8::internal::wasm::ValueType"* getelementptr inbounds ([3 x %"class.v8::internal::wasm::ValueType"], [3 x %"class.v8::internal::wasm::ValueType"]* @_ZN2v88internal4wasm4implL11kTypes_f_ffE, i32 0, i32 0) }, align 8
@_ZN2v88internal4wasm4implL8kSig_f_fE = internal constant %"class.v8::internal::Signature" { i64 1, i64 1, %"class.v8::internal::wasm::ValueType"* getelementptr inbounds ([2 x %"class.v8::internal::wasm::ValueType"], [2 x %"class.v8::internal::wasm::ValueType"]* @_ZN2v88internal4wasm4implL10kTypes_f_fE, i32 0, i32 0) }, align 8
@_ZN2v88internal4wasm4implL8kSig_f_dE = internal constant %"class.v8::internal::Signature" { i64 1, i64 1, %"class.v8::internal::wasm::ValueType"* getelementptr inbounds ([2 x %"class.v8::internal::wasm::ValueType"], [2 x %"class.v8::internal::wasm::ValueType"]* @_ZN2v88internal4wasm4implL10kTypes_f_dE, i32 0, i32 0) }, align 8
@_ZN2v88internal4wasm4implL8kSig_f_iE = internal constant %"class.v8::internal::Signature" { i64 1, i64 1, %"class.v8::internal::wasm::ValueType"* getelementptr inbounds ([2 x %"class.v8::internal::wasm::ValueType"], [2 x %"class.v8::internal::wasm::ValueType"]* @_ZN2v88internal4wasm4implL10kTypes_f_iE, i32 0, i32 0) }, align 8
@_ZN2v88internal4wasm4implL8kSig_f_lE = internal constant %"class.v8::internal::Signature" { i64 1, i64 1, %"class.v8::internal::wasm::ValueType"* getelementptr inbounds ([2 x %"class.v8::internal::wasm::ValueType"], [2 x %"class.v8::internal::wasm::ValueType"]* @_ZN2v88internal4wasm4implL10kTypes_f_lE, i32 0, i32 0) }, align 8
@_ZN2v88internal4wasm4implL9kSig_d_ddE = internal constant %"class.v8::internal::Signature" { i64 1, i64 2, %"class.v8::internal::wasm::ValueType"* getelementptr inbounds ([3 x %"class.v8::internal::wasm::ValueType"], [3 x %"class.v8::internal::wasm::ValueType"]* @_ZN2v88internal4wasm4implL11kTypes_d_ddE, i32 0, i32 0) }, align 8
@_ZN2v88internal4wasm4implL8kSig_d_dE = internal constant %"class.v8::internal::Signature" { i64 1, i64 1, %"class.v8::internal::wasm::ValueType"* getelementptr inbounds ([2 x %"class.v8::internal::wasm::ValueType"], [2 x %"class.v8::internal::wasm::ValueType"]* @_ZN2v88internal4wasm4implL10kTypes_d_dE, i32 0, i32 0) }, align 8
@_ZN2v88internal4wasm4implL8kSig_d_fE = internal constant %"class.v8::internal::Signature" { i64 1, i64 1, %"class.v8::internal::wasm::ValueType"* getelementptr inbounds ([2 x %"class.v8::internal::wasm::ValueType"], [2 x %"class.v8::internal::wasm::ValueType"]* @_ZN2v88internal4wasm4implL10kTypes_d_fE, i32 0, i32 0) }, align 8
@_ZN2v88internal4wasm4implL8kSig_d_iE = internal constant %"class.v8::internal::Signature" { i64 1, i64 1, %"class.v8::internal::wasm::ValueType"* getelementptr inbounds ([2 x %"class.v8::internal::wasm::ValueType"], [2 x %"class.v8::internal::wasm::ValueType"]* @_ZN2v88internal4wasm4implL10kTypes_d_iE, i32 0, i32 0) }, align 8
@_ZN2v88internal4wasm4implL8kSig_d_lE = internal constant %"class.v8::internal::Signature" { i64 1, i64 1, %"class.v8::internal::wasm::ValueType"* getelementptr inbounds ([2 x %"class.v8::internal::wasm::ValueType"], [2 x %"class.v8::internal::wasm::ValueType"]* @_ZN2v88internal4wasm4implL10kTypes_d_lE, i32 0, i32 0) }, align 8
@_ZN2v88internal4wasm4implL8kSig_v_iE = internal constant %"class.v8::internal::Signature" { i64 0, i64 1, %"class.v8::internal::wasm::ValueType"* bitcast (i8* getelementptr (i8, i8* bitcast ([2 x %"class.v8::internal::wasm::ValueType"]* @_ZN2v88internal4wasm4implL10kTypes_v_iE to i8*), i64 4) to %"class.v8::internal::wasm::ValueType"*) }, align 8
@_ZN2v88internal4wasm4implL9kSig_v_iiE = internal constant %"class.v8::internal::Signature" { i64 0, i64 2, %"class.v8::internal::wasm::ValueType"* bitcast (i8* getelementptr (i8, i8* bitcast ([3 x %"class.v8::internal::wasm::ValueType"]* @_ZN2v88internal4wasm4implL11kTypes_v_iiE to i8*), i64 4) to %"class.v8::internal::wasm::ValueType"*) }, align 8
@_ZN2v88internal4wasm4implL9kSig_v_idE = internal constant %"class.v8::internal::Signature" { i64 0, i64 2, %"class.v8::internal::wasm::ValueType"* bitcast (i8* getelementptr (i8, i8* bitcast ([3 x %"class.v8::internal::wasm::ValueType"]* @_ZN2v88internal4wasm4implL11kTypes_v_idE to i8*), i64 4) to %"class.v8::internal::wasm::ValueType"*) }, align 8
@_ZN2v88internal4wasm4implL9kSig_d_idE = internal constant %"class.v8::internal::Signature" { i64 1, i64 2, %"class.v8::internal::wasm::ValueType"* getelementptr inbounds ([3 x %"class.v8::internal::wasm::ValueType"], [3 x %"class.v8::internal::wasm::ValueType"]* @_ZN2v88internal4wasm4implL11kTypes_d_idE, i32 0, i32 0) }, align 8
@_ZN2v88internal4wasm4implL9kSig_v_ifE = internal constant %"class.v8::internal::Signature" { i64 0, i64 2, %"class.v8::internal::wasm::ValueType"* bitcast (i8* getelementptr (i8, i8* bitcast ([3 x %"class.v8::internal::wasm::ValueType"]* @_ZN2v88internal4wasm4implL11kTypes_v_ifE to i8*), i64 4) to %"class.v8::internal::wasm::ValueType"*) }, align 8
@_ZN2v88internal4wasm4implL9kSig_f_ifE = internal constant %"class.v8::internal::Signature" { i64 1, i64 2, %"class.v8::internal::wasm::ValueType"* getelementptr inbounds ([3 x %"class.v8::internal::wasm::ValueType"], [3 x %"class.v8::internal::wasm::ValueType"]* @_ZN2v88internal4wasm4implL11kTypes_f_ifE, i32 0, i32 0) }, align 8
@_ZN2v88internal4wasm4implL9kSig_v_ilE = internal constant %"class.v8::internal::Signature" { i64 0, i64 2, %"class.v8::internal::wasm::ValueType"* bitcast (i8* getelementptr (i8, i8* bitcast ([3 x %"class.v8::internal::wasm::ValueType"]* @_ZN2v88internal4wasm4implL11kTypes_v_ilE to i8*), i64 4) to %"class.v8::internal::wasm::ValueType"*) }, align 8
@_ZN2v88internal4wasm4implL9kSig_l_ilE = internal constant %"class.v8::internal::Signature" { i64 1, i64 2, %"class.v8::internal::wasm::ValueType"* getelementptr inbounds ([3 x %"class.v8::internal::wasm::ValueType"], [3 x %"class.v8::internal::wasm::ValueType"]* @_ZN2v88internal4wasm4implL11kTypes_l_ilE, i32 0, i32 0) }, align 8
@_ZN2v88internal4wasm4implL10kSig_v_iiiE = internal constant %"class.v8::internal::Signature" { i64 0, i64 3, %"class.v8::internal::wasm::ValueType"* bitcast (i8* getelementptr (i8, i8* bitcast ([4 x %"class.v8::internal::wasm::ValueType"]* @_ZN2v88internal4wasm4implL12kTypes_v_iiiE to i8*), i64 4) to %"class.v8::internal::wasm::ValueType"*) }, align 8
@_ZN2v88internal4wasm4implL10kSig_i_iiiE = internal constant %"class.v8::internal::Signature" { i64 1, i64 3, %"class.v8::internal::wasm::ValueType"* getelementptr inbounds ([4 x %"class.v8::internal::wasm::ValueType"], [4 x %"class.v8::internal::wasm::ValueType"]* @_ZN2v88internal4wasm4implL12kTypes_i_iiiE, i32 0, i32 0) }, align 8
@_ZN2v88internal4wasm4implL10kSig_l_illE = internal constant %"class.v8::internal::Signature" { i64 1, i64 3, %"class.v8::internal::wasm::ValueType"* getelementptr inbounds ([4 x %"class.v8::internal::wasm::ValueType"], [4 x %"class.v8::internal::wasm::ValueType"]* @_ZN2v88internal4wasm4implL12kTypes_l_illE, i32 0, i32 0) }, align 8
@_ZN2v88internal4wasm4implL10kSig_i_iilE = internal constant %"class.v8::internal::Signature" { i64 1, i64 3, %"class.v8::internal::wasm::ValueType"* getelementptr inbounds ([4 x %"class.v8::internal::wasm::ValueType"], [4 x %"class.v8::internal::wasm::ValueType"]* @_ZN2v88internal4wasm4implL12kTypes_i_iilE, i32 0, i32 0) }, align 8
@_ZN2v88internal4wasm4implL10kSig_i_illE = internal constant %"class.v8::internal::Signature" { i64 1, i64 3, %"class.v8::internal::wasm::ValueType"* getelementptr inbounds ([4 x %"class.v8::internal::wasm::ValueType"], [4 x %"class.v8::internal::wasm::ValueType"]* @_ZN2v88internal4wasm4implL12kTypes_i_illE, i32 0, i32 0) }, align 8
@_ZN2v88internal4wasm4implL8kSig_i_eE = internal constant %"class.v8::internal::Signature" { i64 1, i64 1, %"class.v8::internal::wasm::ValueType"* getelementptr inbounds ([2 x %"class.v8::internal::wasm::ValueType"], [2 x %"class.v8::internal::wasm::ValueType"]* @_ZN2v88internal4wasm4implL10kTypes_i_eE, i32 0, i32 0) }, align 8
@_ZN2v88internal4wasm4implL9kSig_i_ciE = internal constant %"class.v8::internal::Signature" { i64 1, i64 2, %"class.v8::internal::wasm::ValueType"* getelementptr inbounds ([3 x %"class.v8::internal::wasm::ValueType"], [3 x %"class.v8::internal::wasm::ValueType"]* @_ZN2v88internal4wasm4implL11kTypes_i_ciE, i32 0, i32 0) }, align 8
@_ZN2v88internal4wasm4implL9kSig_i_qqE = internal constant %"class.v8::internal::Signature" { i64 1, i64 2, %"class.v8::internal::wasm::ValueType"* getelementptr inbounds ([3 x %"class.v8::internal::wasm::ValueType"], [3 x %"class.v8::internal::wasm::ValueType"]* @_ZN2v88internal4wasm4implL11kTypes_i_qqE, i32 0, i32 0) }, align 8
@_ZN2v88internal4wasm4implL10kTypes_s_sE = internal constant [2 x %"class.v8::internal::wasm::ValueType"] [%"class.v8::internal::wasm::ValueType" { i32 5 }, %"class.v8::internal::wasm::ValueType" { i32 5 }], align 4
@_ZN2v88internal4wasm4implL10kTypes_s_fE = internal constant [2 x %"class.v8::internal::wasm::ValueType"] [%"class.v8::internal::wasm::ValueType" { i32 5 }, %"class.v8::internal::wasm::ValueType" { i32 3 }], align 4
@_ZN2v88internal4wasm4implL10kTypes_s_dE = internal constant [2 x %"class.v8::internal::wasm::ValueType"] [%"class.v8::internal::wasm::ValueType" { i32 5 }, %"class.v8::internal::wasm::ValueType" { i32 4 }], align 4
@_ZN2v88internal4wasm4implL11kTypes_s_ssE = internal constant [3 x %"class.v8::internal::wasm::ValueType"] [%"class.v8::internal::wasm::ValueType" { i32 5 }, %"class.v8::internal::wasm::ValueType" { i32 5 }, %"class.v8::internal::wasm::ValueType" { i32 5 }], align 4
@_ZN2v88internal4wasm4implL10kTypes_s_iE = internal constant [2 x %"class.v8::internal::wasm::ValueType"] [%"class.v8::internal::wasm::ValueType" { i32 5 }, %"class.v8::internal::wasm::ValueType" { i32 1 }], align 4
@_ZN2v88internal4wasm4implL10kTypes_s_lE = internal constant [2 x %"class.v8::internal::wasm::ValueType"] [%"class.v8::internal::wasm::ValueType" { i32 5 }, %"class.v8::internal::wasm::ValueType" { i32 2 }], align 4
@_ZN2v88internal4wasm4implL11kTypes_s_siE = internal constant [3 x %"class.v8::internal::wasm::ValueType"] [%"class.v8::internal::wasm::ValueType" { i32 5 }, %"class.v8::internal::wasm::ValueType" { i32 5 }, %"class.v8::internal::wasm::ValueType" { i32 1 }], align 4
@_ZN2v88internal4wasm4implL10kTypes_i_sE = internal constant [2 x %"class.v8::internal::wasm::ValueType"] [%"class.v8::internal::wasm::ValueType" { i32 1 }, %"class.v8::internal::wasm::ValueType" { i32 5 }], align 4
@_ZN2v88internal4wasm4implL11kTypes_v_isE = internal constant [3 x %"class.v8::internal::wasm::ValueType"] [%"class.v8::internal::wasm::ValueType" zeroinitializer, %"class.v8::internal::wasm::ValueType" { i32 1 }, %"class.v8::internal::wasm::ValueType" { i32 5 }], align 4
@_ZN2v88internal4wasm4implL12kTypes_s_sssE = internal constant [4 x %"class.v8::internal::wasm::ValueType"] [%"class.v8::internal::wasm::ValueType" { i32 5 }, %"class.v8::internal::wasm::ValueType" { i32 5 }, %"class.v8::internal::wasm::ValueType" { i32 5 }, %"class.v8::internal::wasm::ValueType" { i32 5 }], align 16
@_ZN2v88internal4wasm4implL11kTypes_s_isE = internal constant [3 x %"class.v8::internal::wasm::ValueType"] [%"class.v8::internal::wasm::ValueType" { i32 5 }, %"class.v8::internal::wasm::ValueType" { i32 1 }, %"class.v8::internal::wasm::ValueType" { i32 5 }], align 4
@_ZN2v88internal4wasm4implL10kTypes_v_vE = internal constant [1 x %"class.v8::internal::wasm::ValueType"] zeroinitializer, align 4
@_ZN2v88internal4wasm4implL11kTypes_i_iiE = internal constant [3 x %"class.v8::internal::wasm::ValueType"] [%"class.v8::internal::wasm::ValueType" { i32 1 }, %"class.v8::internal::wasm::ValueType" { i32 1 }, %"class.v8::internal::wasm::ValueType" { i32 1 }], align 4
@_ZN2v88internal4wasm4implL10kTypes_i_iE = internal constant [2 x %"class.v8::internal::wasm::ValueType"] [%"class.v8::internal::wasm::ValueType" { i32 1 }, %"class.v8::internal::wasm::ValueType" { i32 1 }], align 4
@_ZN2v88internal4wasm4implL10kTypes_i_vE = internal constant [1 x %"class.v8::internal::wasm::ValueType"] [%"class.v8::internal::wasm::ValueType" { i32 1 }], align 4
@_ZN2v88internal4wasm4implL11kTypes_i_ffE = internal constant [3 x %"class.v8::internal::wasm::ValueType"] [%"class.v8::internal::wasm::ValueType" { i32 1 }, %"class.v8::internal::wasm::ValueType" { i32 3 }, %"class.v8::internal::wasm::ValueType" { i32 3 }], align 4
@_ZN2v88internal4wasm4implL10kTypes_i_fE = internal constant [2 x %"class.v8::internal::wasm::ValueType"] [%"class.v8::internal::wasm::ValueType" { i32 1 }, %"class.v8::internal::wasm::ValueType" { i32 3 }], align 4
@_ZN2v88internal4wasm4implL11kTypes_i_ddE = internal constant [3 x %"class.v8::internal::wasm::ValueType"] [%"class.v8::internal::wasm::ValueType" { i32 1 }, %"class.v8::internal::wasm::ValueType" { i32 4 }, %"class.v8::internal::wasm::ValueType" { i32 4 }], align 4
@_ZN2v88internal4wasm4implL10kTypes_i_dE = internal constant [2 x %"class.v8::internal::wasm::ValueType"] [%"class.v8::internal::wasm::ValueType" { i32 1 }, %"class.v8::internal::wasm::ValueType" { i32 4 }], align 4
@_ZN2v88internal4wasm4implL10kTypes_i_lE = internal constant [2 x %"class.v8::internal::wasm::ValueType"] [%"class.v8::internal::wasm::ValueType" { i32 1 }, %"class.v8::internal::wasm::ValueType" { i32 2 }], align 4
@_ZN2v88internal4wasm4implL11kTypes_l_llE = internal constant [3 x %"class.v8::internal::wasm::ValueType"] [%"class.v8::internal::wasm::ValueType" { i32 2 }, %"class.v8::internal::wasm::ValueType" { i32 2 }, %"class.v8::internal::wasm::ValueType" { i32 2 }], align 4
@_ZN2v88internal4wasm4implL11kTypes_i_llE = internal constant [3 x %"class.v8::internal::wasm::ValueType"] [%"class.v8::internal::wasm::ValueType" { i32 1 }, %"class.v8::internal::wasm::ValueType" { i32 2 }, %"class.v8::internal::wasm::ValueType" { i32 2 }], align 4
@_ZN2v88internal4wasm4implL10kTypes_l_lE = internal constant [2 x %"class.v8::internal::wasm::ValueType"] [%"class.v8::internal::wasm::ValueType" { i32 2 }, %"class.v8::internal::wasm::ValueType" { i32 2 }], align 4
@_ZN2v88internal4wasm4implL10kTypes_l_iE = internal constant [2 x %"class.v8::internal::wasm::ValueType"] [%"class.v8::internal::wasm::ValueType" { i32 2 }, %"class.v8::internal::wasm::ValueType" { i32 1 }], align 4
@_ZN2v88internal4wasm4implL10kTypes_l_fE = internal constant [2 x %"class.v8::internal::wasm::ValueType"] [%"class.v8::internal::wasm::ValueType" { i32 2 }, %"class.v8::internal::wasm::ValueType" { i32 3 }], align 4
@_ZN2v88internal4wasm4implL10kTypes_l_dE = internal constant [2 x %"class.v8::internal::wasm::ValueType"] [%"class.v8::internal::wasm::ValueType" { i32 2 }, %"class.v8::internal::wasm::ValueType" { i32 4 }], align 4
@_ZN2v88internal4wasm4implL11kTypes_f_ffE = internal constant [3 x %"class.v8::internal::wasm::ValueType"] [%"class.v8::internal::wasm::ValueType" { i32 3 }, %"class.v8::internal::wasm::ValueType" { i32 3 }, %"class.v8::internal::wasm::ValueType" { i32 3 }], align 4
@_ZN2v88internal4wasm4implL10kTypes_f_fE = internal constant [2 x %"class.v8::internal::wasm::ValueType"] [%"class.v8::internal::wasm::ValueType" { i32 3 }, %"class.v8::internal::wasm::ValueType" { i32 3 }], align 4
@_ZN2v88internal4wasm4implL10kTypes_f_dE = internal constant [2 x %"class.v8::internal::wasm::ValueType"] [%"class.v8::internal::wasm::ValueType" { i32 3 }, %"class.v8::internal::wasm::ValueType" { i32 4 }], align 4
@_ZN2v88internal4wasm4implL10kTypes_f_iE = internal constant [2 x %"class.v8::internal::wasm::ValueType"] [%"class.v8::internal::wasm::ValueType" { i32 3 }, %"class.v8::internal::wasm::ValueType" { i32 1 }], align 4
@_ZN2v88internal4wasm4implL10kTypes_f_lE = internal constant [2 x %"class.v8::internal::wasm::ValueType"] [%"class.v8::internal::wasm::ValueType" { i32 3 }, %"class.v8::internal::wasm::ValueType" { i32 2 }], align 4
@_ZN2v88internal4wasm4implL11kTypes_d_ddE = internal constant [3 x %"class.v8::internal::wasm::ValueType"] [%"class.v8::internal::wasm::ValueType" { i32 4 }, %"class.v8::internal::wasm::ValueType" { i32 4 }, %"class.v8::internal::wasm::ValueType" { i32 4 }], align 4
@_ZN2v88internal4wasm4implL10kTypes_d_dE = internal constant [2 x %"class.v8::internal::wasm::ValueType"] [%"class.v8::internal::wasm::ValueType" { i32 4 }, %"class.v8::internal::wasm::ValueType" { i32 4 }], align 4
@_ZN2v88internal4wasm4implL10kTypes_d_fE = internal constant [2 x %"class.v8::internal::wasm::ValueType"] [%"class.v8::internal::wasm::ValueType" { i32 4 }, %"class.v8::internal::wasm::ValueType" { i32 3 }], align 4
@_ZN2v88internal4wasm4implL10kTypes_d_iE = internal constant [2 x %"class.v8::internal::wasm::ValueType"] [%"class.v8::internal::wasm::ValueType" { i32 4 }, %"class.v8::internal::wasm::ValueType" { i32 1 }], align 4
@_ZN2v88internal4wasm4implL10kTypes_d_lE = internal constant [2 x %"class.v8::internal::wasm::ValueType"] [%"class.v8::internal::wasm::ValueType" { i32 4 }, %"class.v8::internal::wasm::ValueType" { i32 2 }], align 4
@_ZN2v88internal4wasm4implL10kTypes_v_iE = internal constant [2 x %"class.v8::internal::wasm::ValueType"] [%"class.v8::internal::wasm::ValueType" zeroinitializer, %"class.v8::internal::wasm::ValueType" { i32 1 }], align 4
@_ZN2v88internal4wasm4implL11kTypes_v_iiE = internal constant [3 x %"class.v8::internal::wasm::ValueType"] [%"class.v8::internal::wasm::ValueType" zeroinitializer, %"class.v8::internal::wasm::ValueType" { i32 1 }, %"class.v8::internal::wasm::ValueType" { i32 1 }], align 4
@_ZN2v88internal4wasm4implL11kTypes_v_idE = internal constant [3 x %"class.v8::internal::wasm::ValueType"] [%"class.v8::internal::wasm::ValueType" zeroinitializer, %"class.v8::internal::wasm::ValueType" { i32 1 }, %"class.v8::internal::wasm::ValueType" { i32 4 }], align 4
@_ZN2v88internal4wasm4implL11kTypes_d_idE = internal constant [3 x %"class.v8::internal::wasm::ValueType"] [%"class.v8::internal::wasm::ValueType" { i32 4 }, %"class.v8::internal::wasm::ValueType" { i32 1 }, %"class.v8::internal::wasm::ValueType" { i32 4 }], align 4
@_ZN2v88internal4wasm4implL11kTypes_v_ifE = internal constant [3 x %"class.v8::internal::wasm::ValueType"] [%"class.v8::internal::wasm::ValueType" zeroinitializer, %"class.v8::internal::wasm::ValueType" { i32 1 }, %"class.v8::internal::wasm::ValueType" { i32 3 }], align 4
@_ZN2v88internal4wasm4implL11kTypes_f_ifE = internal constant [3 x %"class.v8::internal::wasm::ValueType"] [%"class.v8::internal::wasm::ValueType" { i32 3 }, %"class.v8::internal::wasm::ValueType" { i32 1 }, %"class.v8::internal::wasm::ValueType" { i32 3 }], align 4
@_ZN2v88internal4wasm4implL11kTypes_v_ilE = internal constant [3 x %"class.v8::internal::wasm::ValueType"] [%"class.v8::internal::wasm::ValueType" zeroinitializer, %"class.v8::internal::wasm::ValueType" { i32 1 }, %"class.v8::internal::wasm::ValueType" { i32 2 }], align 4
@_ZN2v88internal4wasm4implL11kTypes_l_ilE = internal constant [3 x %"class.v8::internal::wasm::ValueType"] [%"class.v8::internal::wasm::ValueType" { i32 2 }, %"class.v8::internal::wasm::ValueType" { i32 1 }, %"class.v8::internal::wasm::ValueType" { i32 2 }], align 4
@_ZN2v88internal4wasm4implL12kTypes_v_iiiE = internal constant [4 x %"class.v8::internal::wasm::ValueType"] [%"class.v8::internal::wasm::ValueType" zeroinitializer, %"class.v8::internal::wasm::ValueType" { i32 1 }, %"class.v8::internal::wasm::ValueType" { i32 1 }, %"class.v8::internal::wasm::ValueType" { i32 1 }], align 16
@_ZN2v88internal4wasm4implL12kTypes_i_iiiE = internal constant [4 x %"class.v8::internal::wasm::ValueType"] [%"class.v8::internal::wasm::ValueType" { i32 1 }, %"class.v8::internal::wasm::ValueType" { i32 1 }, %"class.v8::internal::wasm::ValueType" { i32 1 }, %"class.v8::internal::wasm::ValueType" { i32 1 }], align 16
@_ZN2v88internal4wasm4implL12kTypes_l_illE = internal constant [4 x %"class.v8::internal::wasm::ValueType"] [%"class.v8::internal::wasm::ValueType" { i32 2 }, %"class.v8::internal::wasm::ValueType" { i32 1 }, %"class.v8::internal::wasm::ValueType" { i32 2 }, %"class.v8::internal::wasm::ValueType" { i32 2 }], align 16
@_ZN2v88internal4wasm4implL12kTypes_i_iilE = internal constant [4 x %"class.v8::internal::wasm::ValueType"] [%"class.v8::internal::wasm::ValueType" { i32 1 }, %"class.v8::internal::wasm::ValueType" { i32 1 }, %"class.v8::internal::wasm::ValueType" { i32 1 }, %"class.v8::internal::wasm::ValueType" { i32 2 }], align 16
@_ZN2v88internal4wasm4implL12kTypes_i_illE = internal constant [4 x %"class.v8::internal::wasm::ValueType"] [%"class.v8::internal::wasm::ValueType" { i32 1 }, %"class.v8::internal::wasm::ValueType" { i32 1 }, %"class.v8::internal::wasm::ValueType" { i32 2 }, %"class.v8::internal::wasm::ValueType" { i32 2 }], align 16
@_ZN2v88internal4wasm4implL10kTypes_i_eE = internal constant [2 x %"class.v8::internal::wasm::ValueType"] [%"class.v8::internal::wasm::ValueType" { i32 1 }, %"class.v8::internal::wasm::ValueType" { i32 32000043 }], align 4
@_ZN2v88internal4wasm4implL11kTypes_i_ciE = internal constant [3 x %"class.v8::internal::wasm::ValueType"] [%"class.v8::internal::wasm::ValueType" { i32 1 }, %"class.v8::internal::wasm::ValueType" { i32 32000011 }, %"class.v8::internal::wasm::ValueType" { i32 1 }], align 4
@_ZN2v88internal4wasm4implL11kTypes_i_qqE = internal constant [3 x %"class.v8::internal::wasm::ValueType"] [%"class.v8::internal::wasm::ValueType" { i32 1 }, %"class.v8::internal::wasm::ValueType" { i32 32000075 }, %"class.v8::internal::wasm::ValueType" { i32 32000075 }], align 4
@.str.1348 = private unnamed_addr constant [13 x i8] c"global index\00", align 1
@.str.1349 = private unnamed_addr constant [25 x i8] c"invalid global index: %u\00", align 1
@.str.1350 = private unnamed_addr constant [40 x i8] c"immutable global #%u cannot be assigned\00", align 1
@.str.1351 = private unnamed_addr constant [24 x i8] c"invalid table index: %u\00", align 1
@_ZZN2v88internal4wasm15WasmFullDecoderILNS1_7Decoder12ValidateFlagE2ENS1_14EmptyInterfaceEE17DecodeLoadMemImplEPNS6_9TraceLineENS1_10WasmOpcodeEE10kLoadTypes = linkonce_odr hidden local_unnamed_addr constant [14 x %"class.v8::internal::wasm::LoadType"] [%"class.v8::internal::wasm::LoadType" zeroinitializer, %"class.v8::internal::wasm::LoadType" { i8 5 }, %"class.v8::internal::wasm::LoadType" { i8 12 }, %"class.v8::internal::wasm::LoadType" { i8 13 }, %"class.v8::internal::wasm::LoadType" { i8 1 }, %"class.v8::internal::wasm::LoadType" { i8 2 }, %"class.v8::internal::wasm::LoadType" { i8 3 }, %"class.v8::internal::wasm::LoadType" { i8 4 }, %"class.v8::internal::wasm::LoadType" { i8 6 }, %"class.v8::internal::wasm::LoadType" { i8 7 }, %"class.v8::internal::wasm::LoadType" { i8 8 }, %"class.v8::internal::wasm::LoadType" { i8 9 }, %"class.v8::internal::wasm::LoadType" { i8 10 }, %"class.v8::internal::wasm::LoadType" { i8 11 }], comdat, align 1
@.str.1352 = private unnamed_addr constant [34 x i8] c"memory instruction with no memory\00", align 1
@_ZN2v88internal4wasm8LoadType13kLoadSizeLog2E.const = private unnamed_addr constant [15 x i8] c"\02\00\00\01\01\03\00\00\01\01\02\02\02\03\04", align 1
@.str.1353 = private unnamed_addr constant [10 x i8] c"alignment\00", align 1
@.str.1354 = private unnamed_addr constant [76 x i8] c"invalid alignment; expected maximum alignment is %u, actual alignment is %u\00", align 1
@.str.1355 = private unnamed_addr constant [7 x i8] c"offset\00", align 1
@_ZN2v88internal4wasm8LoadType10kValueTypeE = external local_unnamed_addr constant [15 x %"class.v8::internal::wasm::ValueType"], align 16
@_ZZN2v88internal4wasm15WasmFullDecoderILNS1_7Decoder12ValidateFlagE2ENS1_14EmptyInterfaceEE18DecodeStoreMemImplEPNS6_9TraceLineENS1_10WasmOpcodeEE11kStoreTypes = linkonce_odr hidden local_unnamed_addr constant [9 x %"class.v8::internal::wasm::StoreType"] [%"class.v8::internal::wasm::StoreType" zeroinitializer, %"class.v8::internal::wasm::StoreType" { i8 3 }, %"class.v8::internal::wasm::StoreType" { i8 7 }, %"class.v8::internal::wasm::StoreType" { i8 8 }, %"class.v8::internal::wasm::StoreType" { i8 1 }, %"class.v8::internal::wasm::StoreType" { i8 2 }, %"class.v8::internal::wasm::StoreType" { i8 4 }, %"class.v8::internal::wasm::StoreType" { i8 5 }, %"class.v8::internal::wasm::StoreType" { i8 6 }], comdat, align 1
@_ZN2v88internal4wasm9StoreType14kStoreSizeLog2E.const = private unnamed_addr constant [10 x i8] c"\02\00\01\03\00\01\02\02\03\04", align 1
@_ZN2v88internal4wasm9StoreType10kValueTypeE = external local_unnamed_addr constant [10 x %"class.v8::internal::wasm::ValueType"], align 16
@.str.1356 = private unnamed_addr constant [13 x i8] c"memory index\00", align 1
@.str.1357 = private unnamed_addr constant [34 x i8] c"expected memory index 0, found %u\00", align 1
@.str.1358 = private unnamed_addr constant [7 x i8] c"immi64\00", align 1
@.str.1359 = private unnamed_addr constant [7 x i8] c"immf32\00", align 1
@.str.1360 = private unnamed_addr constant [7 x i8] c"immf64\00", align 1
@.str.1361 = private unnamed_addr constant [15 x i8] c"reference type\00", align 1
@.str.1362 = private unnamed_addr constant [37 x i8] c"undeclared reference to function #%u\00", align 1
@.str.1363 = private unnamed_addr constant [17 x i8] c"object reference\00", align 1
@.str.1364 = private unnamed_addr constant [59 x i8] c"Invalid opcode 0x%02x (enable with --experimental-wasm-gc)\00", align 1
@_ZN2v88internal4wasm4implL17kSimdExprSigTableE = internal unnamed_addr constant %"struct.std::__1::array.243" { [256 x i8] c"\05\05\05\05\05\05\05\05\05\05\05\09\00\00\04\05\05\05\06\02\03\00\00\00\00\00\00\00\00\00\00\00\00\00\00\04\04\04\04\04\04\04\04\04\04\04\04\04\04\04\04\04\04\04\04\04\04\04\04\04\04\04\04\04\04\04\04\04\04\04\04\04\04\04\04\04\04\01\04\04\04\04\0A\08\0B\0B\0B\0B\09\09\09\09\05\05\01\01\01\01\01\08\08\04\04\01\01\01\01\07\07\07\04\04\04\04\04\04\01\01\04\04\04\04\01\04\01\01\01\01\01\01\04\08\08\04\04\01\01\01\01\07\07\07\04\04\04\04\04\04\01\04\04\04\04\04\00\04\04\04\04\04\01\01\00\08\08\00\00\01\01\01\01\07\07\07\04\0A\0A\04\00\00\00\04\04\04\04\04\04\00\04\04\04\04\01\01\00\08\08\00\00\01\01\01\01\07\07\07\04\0A\0A\04\01\01\00\04\04\04\04\04\04\04\04\04\04\04\01\01\00\01\04\04\04\04\04\04\04\04\01\01\00\01\04\04\04\04\04\04\04\04\01\01\01\01\01\01\01\01" }, align 1
@_ZN2v88internal4wasm4implL14kShortSigTableE = internal unnamed_addr constant { <{ [214 x i8], [42 x i8] }> } { <{ [214 x i8], [42 x i8] }> <{ [214 x i8] c"\00\00\00\00\00\00\00\00\00\00\00\00\00\00\00\00\00\00\00\00\00\00\00\00\00\00\00\00\00\00\00\00\00\00\00\00\00\00\00\00\00\00\00\00\00\00\00\00\00\00\00\00\00\00\00\00\00\00\00\00\00\00\00\00\00\00\00\00\00\0E\0D\0D\0D\0D\0D\0D\0D\0D\0D\0D\14\16\16\16\16\16\16\16\16\16\16\10\10\10\10\10\10\12\12\12\12\12\12\0E\0E\0E\0D\0D\0D\0D\0D\0D\0D\0D\0D\0D\0D\0D\0D\0D\0D\17\17\17\15\15\15\15\15\15\15\15\15\15\15\15\15\15\15\1C\1C\1C\1C\1C\1C\1C\1B\1B\1B\1B\1B\1B\1B!!!!!!!       \14\11\11\13\13\18\18\19\19\1A\1A\1E\1E\1F\1F\1D##$$\22\11\1A\1E$\0E\0E\17\17\17\00\00\00\00\00\00\00\00\00\00\00\00\00\00\00\004", [42 x i8] zeroinitializer }> }, align 1
@_ZN2v88internal4wasm4implL19kAtomicExprSigTableE = internal unnamed_addr constant { <{ [79 x i8], [177 x i8] }> } { <{ [79 x i8], [177 x i8] }> <{ [79 x i8] c"\0D01\0C\00\00\00\00\00\00\00\00\00\00\00\00\0E\18\0E\0E\18\18\18&+&&+++\0D,\0D\0D,,,\0D,\0D\0D,,,\0D,\0D\0D,,,\0D,\0D\0D,,,\0D,\0D\0D,,,\0D,\0D\0D,,,./..///", [177 x i8] zeroinitializer }> }, align 1
@_ZN2v88internal4wasm4implL20kNumericExprSigTableE = internal unnamed_addr constant { <{ [18 x i8], [238 x i8] }> } { <{ [18 x i8], [238 x i8] }> <{ [18 x i8] c"\11\11\13\13\19\19\1A\1A-\0C---\0C-3\0F-", [238 x i8] zeroinitializer }> }, align 1
@.str.1369 = private unnamed_addr constant [14 x i8] c"rtt for type \00", align 1
@.str.1370 = private unnamed_addr constant [94 x i8] c"struct.new_default_with_rtt: immediate struct type %d has field %d of non-defaultable type %s\00", align 1
@.str.1371 = private unnamed_addr constant [104 x i8] c"struct.get: Immediate field %d of type %d has packed type %s. Use struct.get_s or struct.get_u instead.\00", align 1
@.str.1372 = private unnamed_addr constant [82 x i8] c"%s: Immediate field %d of type %d has non-packed type %s. Use struct.get instead.\00", align 1
@.str.1373 = private unnamed_addr constant [46 x i8] c"struct.set: Field %d of type %d is immutable.\00", align 1
@.str.1374 = private unnamed_addr constant [88 x i8] c"array.new_default_with_rtt: immediate array type %d has non-defaultable element type %s\00", align 1
@.str.1375 = private unnamed_addr constant [75 x i8] c"%s: Immediate array type %d has non-packed type %s. Use array.get instead.\00", align 1
@.str.1376 = private unnamed_addr constant [95 x i8] c"array.get: Immediate array type %d has packed type %s. Use array.get_s or array.get_u instead.\00", align 1
@.str.1377 = private unnamed_addr constant [48 x i8] c"array.set: immediate array type %d is immutable\00", align 1
@.str.1378 = private unnamed_addr constant [71 x i8] c"Invalid opcode 0x%02x (enable with --experimental-wasm-gc_experiments)\00", align 1
@.str.1379 = private unnamed_addr constant [101 x i8] c"array.copy: source array's #%d element type is not a subtype of destination array's #%d element type\00", align 1
@.str.1380 = private unnamed_addr constant [29 x i8] c"rtt for a supertype of type \00", align 1
@.str.1381 = private unnamed_addr constant [46 x i8] c"subtype of (ref null func) or (ref null data)\00", align 1
@.str.1382 = private unnamed_addr constant [52 x i8] c"br_on_cast must target a branch of arity at least 1\00", align 1
@.str.1383 = private unnamed_addr constant [57 x i8] c"br_on_cast_fail must target a branch of arity at least 1\00", align 1
@.str.1384 = private unnamed_addr constant [44 x i8] c"%s must target a branch of arity at least 1\00", align 1
@.str.1385 = private unnamed_addr constant [18 x i8] c"invalid gc opcode\00", align 1
@.str.1386 = private unnamed_addr constant [13 x i8] c"struct index\00", align 1
@.str.1387 = private unnamed_addr constant [25 x i8] c"invalid struct index: %u\00", align 1
@.str.1388 = private unnamed_addr constant [12 x i8] c"field index\00", align 1
@.str.1389 = private unnamed_addr constant [24 x i8] c"invalid field index: %u\00", align 1
@.str.1390 = private unnamed_addr constant [12 x i8] c"array index\00", align 1
@.str.1391 = private unnamed_addr constant [24 x i8] c"invalid array index: %u\00", align 1
@.str.1392 = private unnamed_addr constant [11 x i8] c"type index\00", align 1
@.str.1393 = private unnamed_addr constant [23 x i8] c"invalid type index: %u\00", align 1
@.str.1395 = private unnamed_addr constant [23 x i8] c"invalid numeric opcode\00", align 1
@.str.1396 = private unnamed_addr constant [19 x i8] c"data segment index\00", align 1
@.str.1397 = private unnamed_addr constant [31 x i8] c"invalid data segment index: %u\00", align 1
@.str.1398 = private unnamed_addr constant [19 x i8] c"elem segment index\00", align 1
@.str.1399 = private unnamed_addr constant [34 x i8] c"invalid element segment index: %u\00", align 1
@.str.1400 = private unnamed_addr constant [35 x i8] c"table %u is not a super-type of %s\00", align 1
@.str.1401 = private unnamed_addr constant [61 x i8] c"Invalid opcode 0x%02x (enable with --experimental-wasm-simd)\00", align 1
@_ZN2v88internal28FLAG_wasm_simd_ssse3_codegenE = external local_unnamed_addr global i8, align 1
@_ZN2v88internal36FLAG_correctness_fuzzer_suppressionsE = external local_unnamed_addr global i8, align 1
@.str.1402 = private unnamed_addr constant [38 x i8] c"Aborting on missing Wasm SIMD support\00", align 1
@.str.1403 = private unnamed_addr constant [22 x i8] c"Wasm SIMD unsupported\00", align 1
@_ZN2v88internal35FLAG_experimental_wasm_relaxed_simdE = external local_unnamed_addr global i8, align 1
@.str.1404 = private unnamed_addr constant [67 x i8] c"simd opcode not available, enable with --experimental-relaxed-simd\00", align 1
@.str.1405 = private unnamed_addr constant [20 x i8] c"invalid simd opcode\00", align 1
@.str.1406 = private unnamed_addr constant [5 x i8] c"lane\00", align 1
@.str.1407 = private unnamed_addr constant [19 x i8] c"invalid lane index\00", align 1
@.str.1408 = private unnamed_addr constant [6 x i8] c"value\00", align 1
@.str.1409 = private unnamed_addr constant [21 x i8] c"invalid shuffle mask\00", align 1
@.str.1410 = private unnamed_addr constant [64 x i8] c"Invalid opcode 0x%02x (enable with --experimental-wasm-threads)\00", align 1
@.str.1412 = private unnamed_addr constant [22 x i8] c"invalid atomic opcode\00", align 1
@.str.1413 = private unnamed_addr constant [5 x i8] c"zero\00", align 1
@.str.1414 = private unnamed_addr constant [23 x i8] c"invalid atomic operand\00", align 1
@.str.1415 = private unnamed_addr constant [28 x i8] c"!this->module_->is_memory64\00", align 1
@.str.1418 = private unnamed_addr constant [80 x i8] c"validate == Decoder::kFullValidation || validate == Decoder::kBooleanValidation\00", align 1
@.str.1420 = private unnamed_addr constant [30 x i8] c"unimplemented opcode: %x (%s)\00", align 1
@.str.1421 = private unnamed_addr constant [20 x i8] c"invalid SIMD opcode\00", align 1
@.str.1422 = private unnamed_addr constant [23 x i8] c"invalid Atomics opcode\00", align 1
@switch.table._ZN2v88internal4wasm11WasmDecoderILNS1_7Decoder12ValidateFlagE0EE12OpcodeLengthEPS5_PKh = private unnamed_addr constant [10 x i32] [i32 1000004, i32 1000006, i32 1000006, i32 1000003, i32 1000006, i32 1000006, i32 1000002, i32 1000005, i32 1000001, i32 1000000], align 4
@switch.table._ZN2v88internal4wasm11WasmDecoderILNS1_7Decoder12ValidateFlagE0EE11StackEffectEPKh = private unnamed_addr constant [23 x i32] [i32 0, i32 2, i32 1, i32 1, i32 1, i32 1, i32 1, i32 1, i32 1, i32 1, i32 1, i32 2, i32 1, i32 1, i32 2, i32 1, i32 2, i32 1, i32 2, i32 1, i32 2, i32 1, i32 2], align 4
@switch.table._ZN2v88internal4wasm16PrintRawWasmCodeEPNS0_19AccountingAllocatorERKNS1_12FunctionBodyEPKNS1_10WasmModuleENS1_11PrintLocalsERNSt3__113basic_ostreamIcNSB_11char_traitsIcEEEEPNSB_6vectorIiNSB_9allocatorIiEEEE = private unnamed_addr constant [4 x i8*] [i8* getelementptr inbounds ([10 x i8], [10 x i8]* @.str.43, i64 0, i64 0), i8* getelementptr inbounds ([15 x i8], [15 x i8]* @.str.44, i64 0, i64 0), i8* getelementptr inbounds ([12 x i8], [12 x i8]* @.str.45, i64 0, i64 0), i8* getelementptr inbounds ([14 x i8], [14 x i8]* @.str.46, i64 0, i64 0)], align 8
@switch.table._ZN2v88internal4wasm17value_type_reader15read_value_typeILNS1_7Decoder12ValidateFlagE0EEENS1_9ValueTypeEPS4_PKhPjPKNS1_10WasmModuleERKNS1_12WasmFeaturesE = private unnamed_addr constant [10 x i32] [i32 1000004, i32 1000000, i32 1000000, i32 1000003, i32 1000000, i32 1000000, i32 1000002, i32 1000005, i32 1000001, i32 1000000], align 4

@_ZN2v88internal4wasm16BytecodeIteratorC1EPKhS4_PNS1_14BodyLocalDeclsE = hidden unnamed_addr alias void (%"class.v8::internal::wasm::BytecodeIterator"*, i8*, i8*, %"struct.v8::internal::wasm::BodyLocalDecls"*), void (%"class.v8::internal::wasm::BytecodeIterator"*, i8*, i8*, %"struct.v8::internal::wasm::BodyLocalDecls"*)* @_ZN2v88internal4wasm16BytecodeIteratorC2EPKhS4_PNS1_14BodyLocalDeclsE

; Function Attrs: nounwind ssp uwtable
define hidden zeroext i1 @_ZN2v88internal4wasm16DecodeLocalDeclsERKNS1_12WasmFeaturesEPNS1_14BodyLocalDeclsEPKNS1_10WasmModuleEPKhSB_(%"class.v8::internal::wasm::WasmFeatures"* nocapture readonly dereferenceable(4), %"struct.v8::internal::wasm::BodyLocalDecls"*, %"struct.v8::internal::wasm::WasmModule"*, i8*, i8*) local_unnamed_addr #0 {
  %6 = alloca %"class.v8::internal::wasm::WasmFeatures", align 4
  %7 = alloca %"class.v8::internal::wasm::WasmDecoder", align 8
  %8 = alloca i32, align 4
  %9 = bitcast %"class.v8::internal::wasm::WasmFeatures"* %6 to i8*
  call void @llvm.lifetime.start.p0i8(i64 4, i8* nonnull %9) #11
  %10 = getelementptr inbounds %"class.v8::internal::wasm::WasmFeatures", %"class.v8::internal::wasm::WasmFeatures"* %6, i64 0, i32 0, i32 0
  store i32 0, i32* %10, align 4
  %11 = getelementptr inbounds %"struct.v8::internal::wasm::BodyLocalDecls", %"struct.v8::internal::wasm::BodyLocalDecls"* %1, i64 0, i32 1
  %12 = getelementptr inbounds %"class.v8::internal::ZoneVector", %"class.v8::internal::ZoneVector"* %11, i64 0, i32 0
  %13 = getelementptr inbounds %"struct.v8::internal::wasm::BodyLocalDecls", %"struct.v8::internal::wasm::BodyLocalDecls"* %1, i64 0, i32 1, i32 0, i32 0, i32 2, i32 1, i32 0, i32 0
  %14 = bitcast %"class.v8::internal::Zone"** %13 to i64*
  %15 = load i64, i64* %14, align 8
  %16 = bitcast %"class.v8::internal::wasm::WasmDecoder"* %7 to i8*
  call void @llvm.lifetime.start.p0i8(i64 144, i8* nonnull %16) #11
  %17 = getelementptr inbounds %"class.v8::internal::wasm::WasmDecoder", %"class.v8::internal::wasm::WasmDecoder"* %7, i64 0, i32 0, i32 0
  %18 = getelementptr inbounds %"class.v8::internal::wasm::WasmDecoder", %"class.v8::internal::wasm::WasmDecoder"* %7, i64 0, i32 0, i32 1
  store i8* %3, i8** %18, align 8
  %19 = getelementptr inbounds %"class.v8::internal::wasm::WasmDecoder", %"class.v8::internal::wasm::WasmDecoder"* %7, i64 0, i32 0, i32 2
  store i8* %3, i8** %19, align 8
  %20 = getelementptr inbounds %"class.v8::internal::wasm::WasmDecoder", %"class.v8::internal::wasm::WasmDecoder"* %7, i64 0, i32 0, i32 3
  store i8* %4, i8** %20, align 8
  %21 = getelementptr inbounds %"class.v8::internal::wasm::WasmDecoder", %"class.v8::internal::wasm::WasmDecoder"* %7, i64 0, i32 0, i32 4
  store i32 0, i32* %21, align 8
  %22 = getelementptr inbounds %"class.v8::internal::wasm::WasmDecoder", %"class.v8::internal::wasm::WasmDecoder"* %7, i64 0, i32 0, i32 5, i32 0
  store i32 0, i32* %22, align 8
  %23 = getelementptr inbounds %"class.v8::internal::wasm::WasmDecoder", %"class.v8::internal::wasm::WasmDecoder"* %7, i64 0, i32 0, i32 5, i32 1
  %24 = bitcast %"class.std::__1::basic_string"* %23 to i8*
  call void @llvm.memset.p0i8.i64(i8* align 8 %24, i8 0, i64 24, i1 false) #11
  store i32 (...)** bitcast (i8** getelementptr inbounds ({ [5 x i8*] }, { [5 x i8*] }* @_ZTVN2v88internal4wasm11WasmDecoderILNS1_7Decoder12ValidateFlagE2EEE, i64 0, inrange i32 0, i64 2) to i32 (...)**), i32 (...)*** %17, align 8
  %25 = getelementptr inbounds %"class.v8::internal::wasm::WasmDecoder", %"class.v8::internal::wasm::WasmDecoder"* %7, i64 0, i32 1
  %26 = getelementptr inbounds %"class.v8::internal::wasm::WasmDecoder", %"class.v8::internal::wasm::WasmDecoder"* %7, i64 0, i32 1, i32 0, i32 0, i32 2, i32 1
  %27 = bitcast %"struct.std::__1::__compressed_pair_elem.0"* %26 to i64*
  %28 = bitcast %"class.v8::internal::ZoneVector"* %25 to i8*
  call void @llvm.memset.p0i8.i64(i8* align 8 %28, i8 0, i64 24, i1 false) #11
  store i64 %15, i64* %27, align 8
  %29 = getelementptr inbounds %"class.v8::internal::wasm::WasmDecoder", %"class.v8::internal::wasm::WasmDecoder"* %7, i64 0, i32 2
  store i32 0, i32* %29, align 8
  %30 = getelementptr inbounds %"class.v8::internal::wasm::WasmDecoder", %"class.v8::internal::wasm::WasmDecoder"* %7, i64 0, i32 3
  store %"struct.v8::internal::wasm::WasmModule"* %2, %"struct.v8::internal::wasm::WasmModule"** %30, align 8
  %31 = getelementptr inbounds %"class.v8::internal::wasm::WasmFeatures", %"class.v8::internal::wasm::WasmFeatures"* %0, i64 0, i32 0, i32 0
  %32 = getelementptr inbounds %"class.v8::internal::wasm::WasmDecoder", %"class.v8::internal::wasm::WasmDecoder"* %7, i64 0, i32 4, i32 0, i32 0
  %33 = load i32, i32* %31, align 4
  store i32 %33, i32* %32, align 8
  %34 = getelementptr inbounds %"class.v8::internal::wasm::WasmDecoder", %"class.v8::internal::wasm::WasmDecoder"* %7, i64 0, i32 5
  store %"class.v8::internal::wasm::WasmFeatures"* %6, %"class.v8::internal::wasm::WasmFeatures"** %34, align 8
  %35 = getelementptr inbounds %"class.v8::internal::wasm::WasmDecoder", %"class.v8::internal::wasm::WasmDecoder"* %7, i64 0, i32 6
  store %"class.v8::internal::Signature"* null, %"class.v8::internal::Signature"** %35, align 8
  %36 = bitcast i32* %8 to i8*
  call void @llvm.lifetime.start.p0i8(i64 4, i8* nonnull %36) #11
  %37 = call i32 @_ZN2v88internal4wasm11WasmDecoderILNS1_7Decoder12ValidateFlagE2EE12DecodeLocalsEPKhPjNS_4base8OptionalIjEE(%"class.v8::internal::wasm::WasmDecoder"* nonnull %7, i8* %3, i32* nonnull %8, i64 1)
  %38 = icmp slt i32 %37, 0
  br i1 %38, label %39, label %41

39:                                               ; preds = %5
  %40 = getelementptr inbounds %"struct.v8::internal::wasm::BodyLocalDecls", %"struct.v8::internal::wasm::BodyLocalDecls"* %1, i64 0, i32 0
  store i32 0, i32* %40, align 8
  br label %68

41:                                               ; preds = %5
  %42 = load i32, i32* %8, align 4
  %43 = getelementptr inbounds %"struct.v8::internal::wasm::BodyLocalDecls", %"struct.v8::internal::wasm::BodyLocalDecls"* %1, i64 0, i32 0
  store i32 %42, i32* %43, align 8
  %44 = load %"class.v8::internal::Zone"*, %"class.v8::internal::Zone"** %13, align 8
  %45 = getelementptr inbounds %"class.v8::internal::wasm::WasmDecoder", %"class.v8::internal::wasm::WasmDecoder"* %7, i64 0, i32 1, i32 0, i32 0, i32 2, i32 1, i32 0, i32 0
  %46 = load %"class.v8::internal::Zone"*, %"class.v8::internal::Zone"** %45, align 8
  %47 = icmp eq %"class.v8::internal::Zone"* %44, %46
  br i1 %47, label %53, label %48

48:                                               ; preds = %41
  %49 = getelementptr inbounds %"class.v8::internal::ZoneVector", %"class.v8::internal::ZoneVector"* %25, i64 0, i32 0, i32 0, i32 0
  %50 = load %"class.v8::internal::wasm::ValueType"*, %"class.v8::internal::wasm::ValueType"** %49, align 8
  %51 = getelementptr inbounds %"class.v8::internal::wasm::WasmDecoder", %"class.v8::internal::wasm::WasmDecoder"* %7, i64 0, i32 1, i32 0, i32 0, i32 1
  %52 = load %"class.v8::internal::wasm::ValueType"*, %"class.v8::internal::wasm::ValueType"** %51, align 8
  call void @_ZNSt3__16vectorIN2v88internal4wasm9ValueTypeENS2_13ZoneAllocatorIS4_EEE6assignINS_13move_iteratorINS_11__wrap_iterIPS4_EEEEEENS_9enable_ifIXaasr27__is_cpp17_forward_iteratorIT_EE5valuesr16is_constructibleIS4_NS_15iterator_traitsISF_E9referenceEEE5valueEvE4typeESF_SF_(%"class.std::__1::vector"* %12, %"class.v8::internal::wasm::ValueType"* %50, %"class.v8::internal::wasm::ValueType"* %52) #11
  br label %68

53:                                               ; preds = %41
  %54 = getelementptr inbounds %"class.v8::internal::ZoneVector", %"class.v8::internal::ZoneVector"* %11, i64 0, i32 0, i32 0, i32 0
  %55 = load %"class.v8::internal::wasm::ValueType"*, %"class.v8::internal::wasm::ValueType"** %54, align 8
  %56 = icmp eq %"class.v8::internal::wasm::ValueType"* %55, null
  br i1 %56, label %59, label %57

57:                                               ; preds = %53
  %58 = bitcast %"class.v8::internal::ZoneVector"* %11 to i8*
  call void @llvm.memset.p0i8.i64(i8* align 8 %58, i8 0, i64 24, i1 false) #11
  br label %59

59:                                               ; preds = %57, %53
  %60 = bitcast %"class.v8::internal::ZoneVector"* %25 to <2 x i64>*
  %61 = load <2 x i64>, <2 x i64>* %60, align 8
  %62 = bitcast %"class.v8::internal::ZoneVector"* %11 to <2 x i64>*
  store <2 x i64> %61, <2 x i64>* %62, align 8
  %63 = getelementptr inbounds %"class.v8::internal::wasm::WasmDecoder", %"class.v8::internal::wasm::WasmDecoder"* %7, i64 0, i32 1, i32 0, i32 0, i32 2, i32 0, i32 0
  %64 = bitcast %"class.v8::internal::wasm::ValueType"** %63 to i64*
  %65 = load i64, i64* %64, align 8
  %66 = getelementptr inbounds %"struct.v8::internal::wasm::BodyLocalDecls", %"struct.v8::internal::wasm::BodyLocalDecls"* %1, i64 0, i32 1, i32 0, i32 0, i32 2, i32 0, i32 0
  %67 = bitcast %"class.v8::internal::wasm::ValueType"** %66 to i64*
  store i64 %65, i64* %67, align 8
  call void @llvm.memset.p0i8.i64(i8* align 8 %28, i8 0, i64 24, i1 false) #11
  br label %68

68:                                               ; preds = %59, %48, %39
  %69 = phi i1 [ false, %39 ], [ true, %48 ], [ true, %59 ]
  call void @llvm.lifetime.end.p0i8(i64 4, i8* nonnull %36) #11
  store i32 (...)** bitcast (i8** getelementptr inbounds ({ [5 x i8*] }, { [5 x i8*] }* @_ZTVN2v88internal4wasm11WasmDecoderILNS1_7Decoder12ValidateFlagE2EEE, i64 0, inrange i32 0, i64 2) to i32 (...)**), i32 (...)*** %17, align 8
  %70 = getelementptr inbounds %"class.v8::internal::wasm::WasmDecoder", %"class.v8::internal::wasm::WasmDecoder"* %7, i64 0, i32 1, i32 0, i32 0, i32 0
  %71 = load %"class.v8::internal::wasm::ValueType"*, %"class.v8::internal::wasm::ValueType"** %70, align 8
  %72 = icmp eq %"class.v8::internal::wasm::ValueType"* %71, null
  br i1 %72, label %77, label %73

73:                                               ; preds = %68
  %74 = ptrtoint %"class.v8::internal::wasm::ValueType"* %71 to i64
  %75 = getelementptr inbounds %"class.v8::internal::wasm::WasmDecoder", %"class.v8::internal::wasm::WasmDecoder"* %7, i64 0, i32 1, i32 0, i32 0, i32 1
  %76 = bitcast %"class.v8::internal::wasm::ValueType"** %75 to i64*
  store i64 %74, i64* %76, align 8
  br label %77

77:                                               ; preds = %73, %68
  store i32 (...)** bitcast (i8** getelementptr inbounds ({ [5 x i8*] }, { [5 x i8*] }* @_ZTVN2v88internal4wasm7DecoderE, i64 0, inrange i32 0, i64 2) to i32 (...)**), i32 (...)*** %17, align 8
  %78 = bitcast %"class.std::__1::basic_string"* %23 to %"struct.std::__1::basic_string<char, std::__1::char_traits<char>, std::__1::allocator<char> >::__short"*
  %79 = getelementptr inbounds %"struct.std::__1::basic_string<char, std::__1::char_traits<char>, std::__1::allocator<char> >::__short", %"struct.std::__1::basic_string<char, std::__1::char_traits<char>, std::__1::allocator<char> >::__short"* %78, i64 0, i32 1, i32 0
  %80 = load i8, i8* %79, align 1
  %81 = icmp slt i8 %80, 0
  br i1 %81, label %82, label %85

82:                                               ; preds = %77
  %83 = getelementptr inbounds %"class.std::__1::basic_string", %"class.std::__1::basic_string"* %23, i64 0, i32 0, i32 0, i32 0, i32 0, i32 0, i32 0
  %84 = load i8*, i8** %83, align 8
  call void @_ZdlPv(i8* %84) #14
  br label %85

85:                                               ; preds = %77, %82
  call void @llvm.lifetime.end.p0i8(i64 144, i8* nonnull %16) #11
  call void @llvm.lifetime.end.p0i8(i64 4, i8* nonnull %9) #11
  ret i1 %69
}

; Function Attrs: argmemonly nounwind
declare void @llvm.lifetime.start.p0i8(i64 immarg, i8* nocapture) #1

; Function Attrs: argmemonly nounwind
declare void @llvm.lifetime.end.p0i8(i64 immarg, i8* nocapture) #1

; Function Attrs: nounwind ssp uwtable
define linkonce_odr hidden i32 @_ZN2v88internal4wasm11WasmDecoderILNS1_7Decoder12ValidateFlagE2EE12DecodeLocalsEPKhPjNS_4base8OptionalIjEE(%"class.v8::internal::wasm::WasmDecoder"*, i8*, i32*, i64) local_unnamed_addr #0 comdat align 2 {
  %5 = alloca i32, align 4
  %6 = alloca %"class.v8::internal::wasm::ValueType", align 4
  %7 = trunc i64 %3 to i8
  %8 = lshr i64 %3, 32
  %9 = bitcast i32* %5 to i8*
  call void @llvm.lifetime.start.p0i8(i64 4, i8* nonnull %9) #11
  store i32 0, i32* %2, align 4
  %10 = icmp ne i8 %7, 0
  %11 = getelementptr inbounds %"class.v8::internal::wasm::WasmDecoder", %"class.v8::internal::wasm::WasmDecoder"* %0, i64 0, i32 1, i32 0
  %12 = getelementptr inbounds %"class.std::__1::vector", %"class.std::__1::vector"* %11, i64 0, i32 0, i32 0
  %13 = load %"class.v8::internal::wasm::ValueType"*, %"class.v8::internal::wasm::ValueType"** %12, align 8
  br i1 %10, label %14, label %19

14:                                               ; preds = %4
  %15 = icmp eq i8 %7, 1
  br i1 %15, label %17, label %16, !prof !2

16:                                               ; preds = %14
  tail call void (i8*, ...) @_Z8V8_FatalPKcz(i8* getelementptr inbounds ([18 x i8], [18 x i8]* @.str.1242, i64 0, i64 0), i8* getelementptr inbounds ([23 x i8], [23 x i8]* @.str.1243, i64 0, i64 0)) #15
  unreachable

17:                                               ; preds = %14
  %18 = getelementptr inbounds %"class.v8::internal::wasm::ValueType", %"class.v8::internal::wasm::ValueType"* %13, i64 %8
  br label %19

19:                                               ; preds = %4, %17
  %20 = phi %"class.v8::internal::wasm::ValueType"* [ %18, %17 ], [ %13, %4 ]
  %21 = getelementptr inbounds %"class.v8::internal::wasm::WasmDecoder", %"class.v8::internal::wasm::WasmDecoder"* %0, i64 0, i32 0
  %22 = getelementptr inbounds %"class.v8::internal::wasm::WasmDecoder", %"class.v8::internal::wasm::WasmDecoder"* %0, i64 0, i32 0, i32 3
  %23 = load i8*, i8** %22, align 8
  %24 = icmp ugt i8* %23, %1
  br i1 %24, label %25, label %30, !prof !2

25:                                               ; preds = %19
  %26 = load i8, i8* %1, align 1
  %27 = icmp slt i8 %26, 0
  br i1 %27, label %30, label %28

28:                                               ; preds = %25
  store i32 1, i32* %5, align 4
  %29 = zext i8 %26 to i32
  br label %32

30:                                               ; preds = %25, %19
  %31 = call i32 @_ZN2v88internal4wasm7Decoder17read_leb_slowpathIjLNS2_12ValidateFlagE2ELNS2_9TraceFlagE0ELm32EEET_PKhPjPKc(%"class.v8::internal::wasm::Decoder"* %21, i8* %1, i32* nonnull %5, i8* getelementptr inbounds ([18 x i8], [18 x i8]* @.str.1236, i64 0, i64 0)) #11
  br label %32

32:                                               ; preds = %28, %30
  %33 = phi i32 [ %31, %30 ], [ %29, %28 ]
  %34 = getelementptr inbounds %"class.v8::internal::wasm::WasmDecoder", %"class.v8::internal::wasm::WasmDecoder"* %0, i64 0, i32 0, i32 5, i32 1
  %35 = bitcast %"class.std::__1::basic_string"* %34 to %"struct.std::__1::basic_string<char, std::__1::char_traits<char>, std::__1::allocator<char> >::__short"*
  %36 = getelementptr inbounds %"struct.std::__1::basic_string<char, std::__1::char_traits<char>, std::__1::allocator<char> >::__short", %"struct.std::__1::basic_string<char, std::__1::char_traits<char>, std::__1::allocator<char> >::__short"* %35, i64 0, i32 1, i32 0
  %37 = load i8, i8* %36, align 1
  %38 = icmp slt i8 %37, 0
  br i1 %38, label %39, label %42

39:                                               ; preds = %32
  %40 = getelementptr inbounds %"class.v8::internal::wasm::WasmDecoder", %"class.v8::internal::wasm::WasmDecoder"* %0, i64 0, i32 0, i32 5, i32 1, i32 0, i32 0, i32 0, i32 0, i32 0, i32 1
  %41 = load i64, i64* %40, align 8
  br label %44

42:                                               ; preds = %32
  %43 = zext i8 %37 to i64
  br label %44

44:                                               ; preds = %39, %42
  %45 = phi i64 [ %41, %39 ], [ %43, %42 ]
  %46 = icmp eq i64 %45, 0
  br i1 %46, label %51, label %47

47:                                               ; preds = %44
  %48 = load i32, i32* %2, align 4
  %49 = zext i32 %48 to i64
  %50 = getelementptr inbounds i8, i8* %1, i64 %49
  call void @_ZN2v88internal4wasm7Decoder5errorEPKhPKc(%"class.v8::internal::wasm::Decoder"* %21, i8* %50, i8* getelementptr inbounds ([26 x i8], [26 x i8]* @.str.1237, i64 0, i64 0)) #11
  br label %190

51:                                               ; preds = %44
  %52 = load i32, i32* %5, align 4
  %53 = load i32, i32* %2, align 4
  %54 = add i32 %53, %52
  store i32 %54, i32* %2, align 4
  %55 = add i32 %33, -1
  %56 = icmp eq i32 %33, 0
  br i1 %56, label %190, label %57

57:                                               ; preds = %51
  %58 = getelementptr inbounds %"class.v8::internal::wasm::WasmDecoder", %"class.v8::internal::wasm::WasmDecoder"* %0, i64 0, i32 0, i32 2
  %59 = getelementptr inbounds %"class.v8::internal::wasm::WasmDecoder", %"class.v8::internal::wasm::WasmDecoder"* %0, i64 0, i32 0, i32 5, i32 1, i32 0, i32 0, i32 0, i32 0, i32 0, i32 1
  %60 = getelementptr inbounds %"class.v8::internal::wasm::WasmDecoder", %"class.v8::internal::wasm::WasmDecoder"* %0, i64 0, i32 1, i32 0, i32 0, i32 1
  %61 = bitcast %"class.v8::internal::wasm::ValueType"** %60 to i64*
  %62 = bitcast %"class.std::__1::vector"* %11 to i64*
  %63 = bitcast %"class.v8::internal::wasm::ValueType"* %6 to i8*
  %64 = getelementptr inbounds %"class.v8::internal::wasm::WasmDecoder", %"class.v8::internal::wasm::WasmDecoder"* %0, i64 0, i32 3
  %65 = getelementptr inbounds %"class.v8::internal::wasm::WasmDecoder", %"class.v8::internal::wasm::WasmDecoder"* %0, i64 0, i32 4
  %66 = getelementptr inbounds %"class.v8::internal::wasm::ValueType", %"class.v8::internal::wasm::ValueType"* %6, i64 0, i32 0
  %67 = getelementptr inbounds %"class.v8::internal::wasm::WasmDecoder", %"class.v8::internal::wasm::WasmDecoder"* %0, i64 0, i32 2
  br i1 %10, label %68, label %126

68:                                               ; preds = %57, %115
  %69 = phi i32 [ %124, %115 ], [ %55, %57 ]
  %70 = phi i32 [ %119, %115 ], [ 0, %57 ]
  %71 = phi %"class.v8::internal::wasm::ValueType"* [ %121, %115 ], [ %20, %57 ]
  %72 = load i8*, i8** %58, align 8
  %73 = load i8*, i8** %22, align 8
  %74 = icmp ult i8* %72, %73
  br i1 %74, label %75, label %133

75:                                               ; preds = %68
  %76 = load i32, i32* %2, align 4
  %77 = zext i32 %76 to i64
  %78 = getelementptr inbounds i8, i8* %1, i64 %77
  %79 = icmp ugt i8* %73, %78
  br i1 %79, label %80, label %85, !prof !2

80:                                               ; preds = %75
  %81 = load i8, i8* %78, align 1
  %82 = icmp slt i8 %81, 0
  br i1 %82, label %85, label %83

83:                                               ; preds = %80
  store i32 1, i32* %5, align 4
  %84 = zext i8 %81 to i32
  br label %87

85:                                               ; preds = %80, %75
  %86 = call i32 @_ZN2v88internal4wasm7Decoder17read_leb_slowpathIjLNS2_12ValidateFlagE2ELNS2_9TraceFlagE0ELm32EEET_PKhPjPKc(%"class.v8::internal::wasm::Decoder"* %21, i8* %78, i32* nonnull %5, i8* getelementptr inbounds ([12 x i8], [12 x i8]* @.str.1239, i64 0, i64 0)) #11
  br label %87

87:                                               ; preds = %85, %83
  %88 = phi i32 [ %86, %85 ], [ %84, %83 ]
  %89 = load i8, i8* %36, align 1
  %90 = icmp slt i8 %89, 0
  br i1 %90, label %93, label %91

91:                                               ; preds = %87
  %92 = zext i8 %89 to i64
  br label %95

93:                                               ; preds = %87
  %94 = load i64, i64* %59, align 8
  br label %95

95:                                               ; preds = %93, %91
  %96 = phi i64 [ %94, %93 ], [ %92, %91 ]
  %97 = icmp eq i64 %96, 0
  br i1 %97, label %98, label %157

98:                                               ; preds = %95
  %99 = zext i32 %88 to i64
  %100 = load i64, i64* %61, align 8
  %101 = load i64, i64* %62, align 8
  %102 = sub i64 %100, %101
  %103 = ashr exact i64 %102, 2
  %104 = sub nsw i64 50000, %103
  %105 = icmp ult i64 %104, %99
  br i1 %105, label %169, label %106

106:                                              ; preds = %98
  %107 = load i32, i32* %5, align 4
  %108 = load i32, i32* %2, align 4
  %109 = add i32 %108, %107
  store i32 %109, i32* %2, align 4
  call void @llvm.lifetime.start.p0i8(i64 4, i8* nonnull %63) #11
  %110 = zext i32 %109 to i64
  %111 = getelementptr inbounds i8, i8* %1, i64 %110
  %112 = load %"struct.v8::internal::wasm::WasmModule"*, %"struct.v8::internal::wasm::WasmModule"** %64, align 8
  %113 = call i32 @_ZN2v88internal4wasm17value_type_reader15read_value_typeILNS1_7Decoder12ValidateFlagE2EEENS1_9ValueTypeEPS4_PKhPjPKNS1_10WasmModuleERKNS1_12WasmFeaturesE(%"class.v8::internal::wasm::Decoder"* %21, i8* %111, i32* nonnull %5, %"struct.v8::internal::wasm::WasmModule"* %112, %"class.v8::internal::wasm::WasmFeatures"* dereferenceable(4) %65)
  store i32 %113, i32* %66, align 4
  %114 = icmp eq i32 %113, 12
  br i1 %114, label %182, label %115

115:                                              ; preds = %106
  %116 = load i32, i32* %5, align 4
  %117 = load i32, i32* %2, align 4
  %118 = add i32 %117, %116
  store i32 %118, i32* %2, align 4
  %119 = add i32 %88, %70
  %120 = call %"class.v8::internal::wasm::ValueType"* @_ZNSt3__16vectorIN2v88internal4wasm9ValueTypeENS2_13ZoneAllocatorIS4_EEE6insertENS_11__wrap_iterIPKS4_EEmRS9_(%"class.std::__1::vector"* %11, %"class.v8::internal::wasm::ValueType"* %71, i64 %99, %"class.v8::internal::wasm::ValueType"* nonnull dereferenceable(4) %6)
  %121 = getelementptr inbounds %"class.v8::internal::wasm::ValueType", %"class.v8::internal::wasm::ValueType"* %120, i64 %99
  %122 = load i32, i32* %67, align 8
  %123 = add i32 %122, %88
  store i32 %123, i32* %67, align 8
  call void @llvm.lifetime.end.p0i8(i64 4, i8* nonnull %63) #11
  %124 = add i32 %69, -1
  %125 = icmp eq i32 %69, 0
  br i1 %125, label %190, label %68

126:                                              ; preds = %57, %183
  %127 = phi i32 [ %186, %183 ], [ %54, %57 ]
  %128 = phi i32 [ %188, %183 ], [ %55, %57 ]
  %129 = phi i32 [ %187, %183 ], [ 0, %57 ]
  %130 = load i8*, i8** %58, align 8
  %131 = load i8*, i8** %22, align 8
  %132 = icmp ult i8* %130, %131
  br i1 %132, label %135, label %133

133:                                              ; preds = %126, %68
  %134 = phi i8* [ %73, %68 ], [ %131, %126 ]
  call void @_ZN2v88internal4wasm7Decoder5errorEPKhPKc(%"class.v8::internal::wasm::Decoder"* %21, i8* %134, i8* getelementptr inbounds ([51 x i8], [51 x i8]* @.str.1238, i64 0, i64 0)) #11
  br label %190

135:                                              ; preds = %126
  %136 = zext i32 %127 to i64
  %137 = getelementptr inbounds i8, i8* %1, i64 %136
  %138 = icmp ugt i8* %131, %137
  br i1 %138, label %139, label %144, !prof !2

139:                                              ; preds = %135
  %140 = load i8, i8* %137, align 1
  %141 = icmp slt i8 %140, 0
  br i1 %141, label %144, label %142

142:                                              ; preds = %139
  store i32 1, i32* %5, align 4
  %143 = zext i8 %140 to i32
  br label %146

144:                                              ; preds = %139, %135
  %145 = call i32 @_ZN2v88internal4wasm7Decoder17read_leb_slowpathIjLNS2_12ValidateFlagE2ELNS2_9TraceFlagE0ELm32EEET_PKhPjPKc(%"class.v8::internal::wasm::Decoder"* %21, i8* %137, i32* nonnull %5, i8* getelementptr inbounds ([12 x i8], [12 x i8]* @.str.1239, i64 0, i64 0)) #11
  br label %146

146:                                              ; preds = %142, %144
  %147 = phi i32 [ %145, %144 ], [ %143, %142 ]
  %148 = load i8, i8* %36, align 1
  %149 = icmp slt i8 %148, 0
  br i1 %149, label %150, label %152

150:                                              ; preds = %146
  %151 = load i64, i64* %59, align 8
  br label %154

152:                                              ; preds = %146
  %153 = zext i8 %148 to i64
  br label %154

154:                                              ; preds = %150, %152
  %155 = phi i64 [ %151, %150 ], [ %153, %152 ]
  %156 = icmp eq i64 %155, 0
  br i1 %156, label %161, label %157

157:                                              ; preds = %154, %95
  %158 = load i32, i32* %2, align 4
  %159 = zext i32 %158 to i64
  %160 = getelementptr inbounds i8, i8* %1, i64 %159
  call void @_ZN2v88internal4wasm7Decoder5errorEPKhPKc(%"class.v8::internal::wasm::Decoder"* %21, i8* %160, i8* getelementptr inbounds ([20 x i8], [20 x i8]* @.str.1240, i64 0, i64 0)) #11
  br label %190

161:                                              ; preds = %154
  %162 = zext i32 %147 to i64
  %163 = load i64, i64* %61, align 8
  %164 = load i64, i64* %62, align 8
  %165 = sub i64 %163, %164
  %166 = ashr exact i64 %165, 2
  %167 = sub nsw i64 50000, %166
  %168 = icmp ult i64 %167, %162
  br i1 %168, label %169, label %173

169:                                              ; preds = %161, %98
  %170 = load i32, i32* %2, align 4
  %171 = zext i32 %170 to i64
  %172 = getelementptr inbounds i8, i8* %1, i64 %171
  call void @_ZN2v88internal4wasm7Decoder5errorEPKhPKc(%"class.v8::internal::wasm::Decoder"* %21, i8* %172, i8* getelementptr inbounds ([22 x i8], [22 x i8]* @.str.1241, i64 0, i64 0)) #11
  br label %190

173:                                              ; preds = %161
  %174 = load i32, i32* %5, align 4
  %175 = load i32, i32* %2, align 4
  %176 = add i32 %175, %174
  store i32 %176, i32* %2, align 4
  call void @llvm.lifetime.start.p0i8(i64 4, i8* nonnull %63) #11
  %177 = zext i32 %176 to i64
  %178 = getelementptr inbounds i8, i8* %1, i64 %177
  %179 = load %"struct.v8::internal::wasm::WasmModule"*, %"struct.v8::internal::wasm::WasmModule"** %64, align 8
  %180 = call i32 @_ZN2v88internal4wasm17value_type_reader15read_value_typeILNS1_7Decoder12ValidateFlagE2EEENS1_9ValueTypeEPS4_PKhPjPKNS1_10WasmModuleERKNS1_12WasmFeaturesE(%"class.v8::internal::wasm::Decoder"* %21, i8* %178, i32* nonnull %5, %"struct.v8::internal::wasm::WasmModule"* %179, %"class.v8::internal::wasm::WasmFeatures"* dereferenceable(4) %65)
  store i32 %180, i32* %66, align 4
  %181 = icmp eq i32 %180, 12
  br i1 %181, label %182, label %183

182:                                              ; preds = %173, %106
  call void @llvm.lifetime.end.p0i8(i64 4, i8* nonnull %63) #11
  br label %190

183:                                              ; preds = %173
  %184 = load i32, i32* %5, align 4
  %185 = load i32, i32* %2, align 4
  %186 = add i32 %185, %184
  store i32 %186, i32* %2, align 4
  %187 = add i32 %147, %129
  call void @llvm.lifetime.end.p0i8(i64 4, i8* nonnull %63) #11
  %188 = add i32 %128, -1
  %189 = icmp eq i32 %128, 0
  br i1 %189, label %190, label %126

190:                                              ; preds = %183, %115, %51, %169, %157, %182, %133, %47
  %191 = phi i32 [ -1, %47 ], [ -1, %133 ], [ -1, %182 ], [ -1, %157 ], [ -1, %169 ], [ 0, %51 ], [ %119, %115 ], [ %187, %183 ]
  call void @llvm.lifetime.end.p0i8(i64 4, i8* nonnull %9) #11
  ret i32 %191
}

; Function Attrs: inlinehint nounwind ssp uwtable
define linkonce_odr hidden void @_ZN2v88internal4wasm11WasmDecoderILNS1_7Decoder12ValidateFlagE2EED2Ev(%"class.v8::internal::wasm::WasmDecoder"*) unnamed_addr #2 comdat align 2 {
  %2 = getelementptr inbounds %"class.v8::internal::wasm::WasmDecoder", %"class.v8::internal::wasm::WasmDecoder"* %0, i64 0, i32 0, i32 0
  store i32 (...)** bitcast (i8** getelementptr inbounds ({ [5 x i8*] }, { [5 x i8*] }* @_ZTVN2v88internal4wasm11WasmDecoderILNS1_7Decoder12ValidateFlagE2EEE, i64 0, inrange i32 0, i64 2) to i32 (...)**), i32 (...)*** %2, align 8
  %3 = getelementptr inbounds %"class.v8::internal::wasm::WasmDecoder", %"class.v8::internal::wasm::WasmDecoder"* %0, i64 0, i32 1, i32 0, i32 0, i32 0
  %4 = load %"class.v8::internal::wasm::ValueType"*, %"class.v8::internal::wasm::ValueType"** %3, align 8
  %5 = icmp eq %"class.v8::internal::wasm::ValueType"* %4, null
  br i1 %5, label %10, label %6

6:                                                ; preds = %1
  %7 = ptrtoint %"class.v8::internal::wasm::ValueType"* %4 to i64
  %8 = getelementptr inbounds %"class.v8::internal::wasm::WasmDecoder", %"class.v8::internal::wasm::WasmDecoder"* %0, i64 0, i32 1, i32 0, i32 0, i32 1
  %9 = bitcast %"class.v8::internal::wasm::ValueType"** %8 to i64*
  store i64 %7, i64* %9, align 8
  br label %10

10:                                               ; preds = %1, %6
  store i32 (...)** bitcast (i8** getelementptr inbounds ({ [5 x i8*] }, { [5 x i8*] }* @_ZTVN2v88internal4wasm7DecoderE, i64 0, inrange i32 0, i64 2) to i32 (...)**), i32 (...)*** %2, align 8
  %11 = getelementptr inbounds %"class.v8::internal::wasm::WasmDecoder", %"class.v8::internal::wasm::WasmDecoder"* %0, i64 0, i32 0, i32 5, i32 1
  %12 = bitcast %"class.std::__1::basic_string"* %11 to %"struct.std::__1::basic_string<char, std::__1::char_traits<char>, std::__1::allocator<char> >::__short"*
  %13 = getelementptr inbounds %"struct.std::__1::basic_string<char, std::__1::char_traits<char>, std::__1::allocator<char> >::__short", %"struct.std::__1::basic_string<char, std::__1::char_traits<char>, std::__1::allocator<char> >::__short"* %12, i64 0, i32 1, i32 0
  %14 = load i8, i8* %13, align 1
  %15 = icmp slt i8 %14, 0
  br i1 %15, label %16, label %19

16:                                               ; preds = %10
  %17 = getelementptr inbounds %"class.std::__1::basic_string", %"class.std::__1::basic_string"* %11, i64 0, i32 0, i32 0, i32 0, i32 0, i32 0, i32 0
  %18 = load i8*, i8** %17, align 8
  tail call void @_ZdlPv(i8* %18) #14
  br label %19

19:                                               ; preds = %10, %16
  ret void
}

; Function Attrs: nounwind ssp uwtable
define hidden void @_ZN2v88internal4wasm16BytecodeIteratorC2EPKhS4_PNS1_14BodyLocalDeclsE(%"class.v8::internal::wasm::BytecodeIterator"* nocapture, i8*, i8*, %"struct.v8::internal::wasm::BodyLocalDecls"*) unnamed_addr #0 align 2 {
  %5 = alloca %"class.v8::internal::wasm::WasmFeatures", align 4
  %6 = getelementptr inbounds %"class.v8::internal::wasm::BytecodeIterator", %"class.v8::internal::wasm::BytecodeIterator"* %0, i64 0, i32 0, i32 0
  %7 = getelementptr inbounds %"class.v8::internal::wasm::BytecodeIterator", %"class.v8::internal::wasm::BytecodeIterator"* %0, i64 0, i32 0, i32 1
  store i8* %1, i8** %7, align 8
  %8 = getelementptr inbounds %"class.v8::internal::wasm::BytecodeIterator", %"class.v8::internal::wasm::BytecodeIterator"* %0, i64 0, i32 0, i32 2
  store i8* %1, i8** %8, align 8
  %9 = getelementptr inbounds %"class.v8::internal::wasm::BytecodeIterator", %"class.v8::internal::wasm::BytecodeIterator"* %0, i64 0, i32 0, i32 3
  store i8* %2, i8** %9, align 8
  %10 = getelementptr inbounds %"class.v8::internal::wasm::BytecodeIterator", %"class.v8::internal::wasm::BytecodeIterator"* %0, i64 0, i32 0, i32 4
  store i32 0, i32* %10, align 8
  %11 = getelementptr inbounds %"class.v8::internal::wasm::BytecodeIterator", %"class.v8::internal::wasm::BytecodeIterator"* %0, i64 0, i32 0, i32 5, i32 0
  store i32 0, i32* %11, align 8
  %12 = getelementptr inbounds %"class.v8::internal::wasm::BytecodeIterator", %"class.v8::internal::wasm::BytecodeIterator"* %0, i64 0, i32 0, i32 5, i32 1
  %13 = bitcast %"class.std::__1::basic_string"* %12 to i8*
  tail call void @llvm.memset.p0i8.i64(i8* align 8 %13, i8 0, i64 24, i1 false) #11
  store i32 (...)** bitcast (i8** getelementptr inbounds ({ [5 x i8*] }, { [5 x i8*] }* @_ZTVN2v88internal4wasm16BytecodeIteratorE, i64 0, inrange i32 0, i64 2) to i32 (...)**), i32 (...)*** %6, align 8
  %14 = icmp eq %"struct.v8::internal::wasm::BodyLocalDecls"* %3, null
  br i1 %14, label %28, label %15

15:                                               ; preds = %4
  %16 = bitcast %"class.v8::internal::wasm::WasmFeatures"* %5 to i8*
  call void @llvm.lifetime.start.p0i8(i64 4, i8* nonnull %16) #11
  %17 = getelementptr inbounds %"class.v8::internal::wasm::WasmFeatures", %"class.v8::internal::wasm::WasmFeatures"* %5, i64 0, i32 0, i32 0
  store i32 8191, i32* %17, align 4
  %18 = call zeroext i1 @_ZN2v88internal4wasm16DecodeLocalDeclsERKNS1_12WasmFeaturesEPNS1_14BodyLocalDeclsEPKNS1_10WasmModuleEPKhSB_(%"class.v8::internal::wasm::WasmFeatures"* nonnull dereferenceable(4) %5, %"struct.v8::internal::wasm::BodyLocalDecls"* nonnull %3, %"struct.v8::internal::wasm::WasmModule"* null, i8* %1, i8* %2)
  call void @llvm.lifetime.end.p0i8(i64 4, i8* nonnull %16) #11
  br i1 %18, label %19, label %28

19:                                               ; preds = %15
  %20 = getelementptr inbounds %"struct.v8::internal::wasm::BodyLocalDecls", %"struct.v8::internal::wasm::BodyLocalDecls"* %3, i64 0, i32 0
  %21 = load i32, i32* %20, align 8
  %22 = load i8*, i8** %8, align 8
  %23 = zext i32 %21 to i64
  %24 = getelementptr inbounds i8, i8* %22, i64 %23
  %25 = load i8*, i8** %9, align 8
  %26 = icmp ugt i8* %24, %25
  %27 = select i1 %26, i8* %25, i8* %24
  store i8* %27, i8** %8, align 8
  ret void

28:                                               ; preds = %4, %15
  ret void
}

; Function Attrs: nounwind ssp uwtable
define hidden void @_ZN2v88internal4wasm14VerifyWasmCodeEPNS0_19AccountingAllocatorERKNS1_12WasmFeaturesEPKNS1_10WasmModuleEPS4_RKNS1_12FunctionBodyE(%"class.v8::internal::wasm::Result"* noalias nocapture sret, %"class.v8::internal::AccountingAllocator"*, %"class.v8::internal::wasm::WasmFeatures"* nocapture readonly dereferenceable(4), %"struct.v8::internal::wasm::WasmModule"*, %"class.v8::internal::wasm::WasmFeatures"*, %"struct.v8::internal::wasm::FunctionBody"* nocapture readonly dereferenceable(32)) local_unnamed_addr #0 {
  %7 = alloca %"class.v8::internal::wasm::WasmError", align 8
  %8 = alloca %"class.v8::internal::Zone", align 8
  %9 = alloca %"class.v8::internal::wasm::WasmFullDecoder", align 8
  %10 = alloca [15 x i8], align 8
  %11 = bitcast %"class.v8::internal::Zone"* %8 to i8*
  call void @llvm.lifetime.start.p0i8(i64 64, i8* nonnull %11) #11
  call void @_ZN2v88internal4ZoneC1EPNS0_19AccountingAllocatorEPKcb(%"class.v8::internal::Zone"* nonnull %8, %"class.v8::internal::AccountingAllocator"* %1, i8* getelementptr inbounds ([15 x i8], [15 x i8]* @__func__._ZN2v88internal4wasm14VerifyWasmCodeEPNS0_19AccountingAllocatorERKNS1_12WasmFeaturesEPKNS1_10WasmModuleEPS4_RKNS1_12FunctionBodyE, i64 0, i64 0), i1 zeroext false) #11
  %12 = bitcast %"class.v8::internal::wasm::WasmFullDecoder"* %9 to i8*
  call void @llvm.lifetime.start.p0i8(i64 216, i8* nonnull %12) #11
  %13 = bitcast %"struct.v8::internal::wasm::FunctionBody"* %5 to i64*
  %14 = load i64, i64* %13, align 8
  %15 = getelementptr inbounds %"struct.v8::internal::wasm::FunctionBody", %"struct.v8::internal::wasm::FunctionBody"* %5, i64 0, i32 2
  %16 = bitcast i8** %15 to <2 x i64>*
  %17 = load <2 x i64>, <2 x i64>* %16, align 8
  %18 = getelementptr inbounds %"struct.v8::internal::wasm::FunctionBody", %"struct.v8::internal::wasm::FunctionBody"* %5, i64 0, i32 1
  %19 = load i32, i32* %18, align 8
  %20 = getelementptr inbounds %"class.v8::internal::wasm::WasmFullDecoder", %"class.v8::internal::wasm::WasmFullDecoder"* %9, i64 0, i32 0, i32 0, i32 0
  %21 = getelementptr inbounds %"class.v8::internal::wasm::WasmFullDecoder", %"class.v8::internal::wasm::WasmFullDecoder"* %9, i64 0, i32 0, i32 0, i32 1
  %22 = bitcast i8** %21 to i64*
  %23 = extractelement <2 x i64> %17, i32 0
  store i64 %23, i64* %22, align 8
  %24 = getelementptr inbounds %"class.v8::internal::wasm::WasmFullDecoder", %"class.v8::internal::wasm::WasmFullDecoder"* %9, i64 0, i32 0, i32 0, i32 2
  %25 = bitcast i8** %24 to <2 x i64>*
  store <2 x i64> %17, <2 x i64>* %25, align 8
  %26 = getelementptr inbounds %"class.v8::internal::wasm::WasmFullDecoder", %"class.v8::internal::wasm::WasmFullDecoder"* %9, i64 0, i32 0, i32 0, i32 4
  store i32 %19, i32* %26, align 8
  %27 = getelementptr inbounds %"class.v8::internal::wasm::WasmFullDecoder", %"class.v8::internal::wasm::WasmFullDecoder"* %9, i64 0, i32 0, i32 0, i32 5, i32 0
  store i32 0, i32* %27, align 8
  %28 = getelementptr inbounds %"class.v8::internal::wasm::WasmFullDecoder", %"class.v8::internal::wasm::WasmFullDecoder"* %9, i64 0, i32 0, i32 0, i32 5, i32 1
  %29 = bitcast %"class.std::__1::basic_string"* %28 to i8*
  call void @llvm.memset.p0i8.i64(i8* align 8 %29, i8 0, i64 24, i1 false) #11
  %30 = getelementptr inbounds %"class.v8::internal::wasm::WasmFullDecoder", %"class.v8::internal::wasm::WasmFullDecoder"* %9, i64 0, i32 0, i32 1
  %31 = ptrtoint %"class.v8::internal::Zone"* %8 to i64
  %32 = getelementptr inbounds %"class.v8::internal::wasm::WasmFullDecoder", %"class.v8::internal::wasm::WasmFullDecoder"* %9, i64 0, i32 0, i32 1, i32 0, i32 0, i32 2, i32 1
  %33 = bitcast %"struct.std::__1::__compressed_pair_elem.0"* %32 to i64*
  %34 = bitcast %"class.v8::internal::ZoneVector"* %30 to i8*
  call void @llvm.memset.p0i8.i64(i8* align 8 %34, i8 0, i64 24, i1 false) #11
  store i64 %31, i64* %33, align 8
  %35 = getelementptr inbounds %"class.v8::internal::wasm::WasmFullDecoder", %"class.v8::internal::wasm::WasmFullDecoder"* %9, i64 0, i32 0, i32 2
  store i32 0, i32* %35, align 8
  %36 = getelementptr inbounds %"class.v8::internal::wasm::WasmFullDecoder", %"class.v8::internal::wasm::WasmFullDecoder"* %9, i64 0, i32 0, i32 3
  store %"struct.v8::internal::wasm::WasmModule"* %3, %"struct.v8::internal::wasm::WasmModule"** %36, align 8
  %37 = getelementptr inbounds %"class.v8::internal::wasm::WasmFeatures", %"class.v8::internal::wasm::WasmFeatures"* %2, i64 0, i32 0, i32 0
  %38 = getelementptr inbounds %"class.v8::internal::wasm::WasmFullDecoder", %"class.v8::internal::wasm::WasmFullDecoder"* %9, i64 0, i32 0, i32 4, i32 0, i32 0
  %39 = load i32, i32* %37, align 4
  store i32 %39, i32* %38, align 8
  %40 = getelementptr inbounds %"class.v8::internal::wasm::WasmFullDecoder", %"class.v8::internal::wasm::WasmFullDecoder"* %9, i64 0, i32 0, i32 5
  store %"class.v8::internal::wasm::WasmFeatures"* %4, %"class.v8::internal::wasm::WasmFeatures"** %40, align 8
  %41 = getelementptr inbounds %"class.v8::internal::wasm::WasmFullDecoder", %"class.v8::internal::wasm::WasmFullDecoder"* %9, i64 0, i32 0, i32 6
  %42 = bitcast %"class.v8::internal::Signature"** %41 to i64*
  store i64 %14, i64* %42, align 8
  store i32 (...)** bitcast (i8** getelementptr inbounds ({ [5 x i8*] }, { [5 x i8*] }* @_ZTVN2v88internal4wasm15WasmFullDecoderILNS1_7Decoder12ValidateFlagE2ENS1_14EmptyInterfaceEEE, i64 0, inrange i32 0, i64 2) to i32 (...)**), i32 (...)*** %20, align 8
  %43 = getelementptr inbounds %"class.v8::internal::wasm::WasmFullDecoder", %"class.v8::internal::wasm::WasmFullDecoder"* %9, i64 0, i32 1
  store i32 0, i32* %43, align 8
  %44 = getelementptr inbounds %"class.v8::internal::wasm::WasmFullDecoder", %"class.v8::internal::wasm::WasmFullDecoder"* %9, i64 0, i32 3
  %45 = getelementptr inbounds %"class.v8::internal::wasm::WasmFullDecoder", %"class.v8::internal::wasm::WasmFullDecoder"* %9, i64 0, i32 6, i32 0, i32 0, i32 2, i32 1
  %46 = bitcast %"struct.std::__1::__compressed_pair_elem.205"* %45 to i64*
  %47 = bitcast %"struct.v8::internal::wasm::ValueBase"** %44 to i8*
  call void @llvm.memset.p0i8.i64(i8* align 8 %47, i8 0, i64 48, i1 false) #11
  store i64 %31, i64* %46, align 8
  %48 = getelementptr inbounds %"class.v8::internal::wasm::WasmFullDecoder", %"class.v8::internal::wasm::WasmFullDecoder"* %9, i64 0, i32 7
  store i8 1, i8* %48, align 8
  %49 = getelementptr inbounds %"class.v8::internal::wasm::WasmFullDecoder", %"class.v8::internal::wasm::WasmFullDecoder"* %9, i64 0, i32 8
  store i32 -1, i32* %49, align 4
  %50 = call zeroext i1 @_ZN2v88internal4wasm15WasmFullDecoderILNS1_7Decoder12ValidateFlagE2ENS1_14EmptyInterfaceEE6DecodeEv(%"class.v8::internal::wasm::WasmFullDecoder"* nonnull %9)
  %51 = getelementptr inbounds [15 x i8], [15 x i8]* %10, i64 0, i64 0
  call void @llvm.lifetime.start.p0i8(i64 15, i8* nonnull %51)
  %52 = bitcast %"class.v8::internal::wasm::WasmError"* %7 to i8*
  call void @llvm.lifetime.start.p0i8(i64 32, i8* nonnull %52)
  %53 = bitcast %"class.std::__1::basic_string"* %28 to %"struct.std::__1::basic_string<char, std::__1::char_traits<char>, std::__1::allocator<char> >::__short"*
  %54 = getelementptr inbounds %"struct.std::__1::basic_string<char, std::__1::char_traits<char>, std::__1::allocator<char> >::__short", %"struct.std::__1::basic_string<char, std::__1::char_traits<char>, std::__1::allocator<char> >::__short"* %53, i64 0, i32 1, i32 0
  %55 = load i8, i8* %54, align 1, !noalias !3
  %56 = icmp slt i8 %55, 0
  %57 = getelementptr inbounds %"class.v8::internal::wasm::WasmFullDecoder", %"class.v8::internal::wasm::WasmFullDecoder"* %9, i64 0, i32 0, i32 0, i32 5, i32 1, i32 0, i32 0, i32 0, i32 0, i32 0, i32 1
  %58 = load i64, i64* %57, align 8
  %59 = zext i8 %55 to i64
  %60 = select i1 %56, i64 %58, i64 %59
  %61 = icmp eq i64 %60, 0
  br i1 %61, label %84, label %62

62:                                               ; preds = %6
  %63 = getelementptr inbounds %"class.v8::internal::wasm::WasmError", %"class.v8::internal::wasm::WasmError"* %7, i64 0, i32 0
  %64 = load i32, i32* %27, align 8, !noalias !3
  store i32 %64, i32* %63, align 8, !noalias !3
  %65 = getelementptr inbounds %"class.v8::internal::wasm::WasmError", %"class.v8::internal::wasm::WasmError"* %7, i64 0, i32 1
  br i1 %56, label %68, label %66

66:                                               ; preds = %62
  %67 = bitcast %"class.std::__1::basic_string"* %65 to i8*
  call void @llvm.memcpy.p0i8.p0i8.i64(i8* align 8 %67, i8* align 8 %29, i64 24, i1 false) #11, !noalias !3
  br label %73

68:                                               ; preds = %62
  %69 = getelementptr inbounds %"class.std::__1::basic_string", %"class.std::__1::basic_string"* %28, i64 0, i32 0, i32 0, i32 0, i32 0, i32 0, i32 0
  %70 = load i8*, i8** %69, align 8, !noalias !3
  call void @_ZNSt3__112basic_stringIcNS_11char_traitsIcEENS_9allocatorIcEEE25__init_copy_ctor_externalEPKcm(%"class.std::__1::basic_string"* %65, i8* %70, i64 %58) #11, !noalias !3
  %71 = load i32, i32* %63, align 8, !noalias !3
  %72 = bitcast %"class.std::__1::basic_string"* %65 to i8*
  br label %73

73:                                               ; preds = %68, %66
  %74 = phi i8* [ %72, %68 ], [ %67, %66 ]
  %75 = phi i32 [ %71, %68 ], [ %64, %66 ]
  %76 = getelementptr inbounds %"class.v8::internal::wasm::WasmError", %"class.v8::internal::wasm::WasmError"* %7, i64 0, i32 1, i32 0, i32 0, i32 0, i32 0, i32 0, i32 0
  %77 = bitcast i8** %76 to i64*
  %78 = load i64, i64* %77, align 8, !noalias !3
  %79 = getelementptr inbounds %"class.v8::internal::wasm::WasmError", %"class.v8::internal::wasm::WasmError"* %7, i64 0, i32 1, i32 0, i32 0, i32 0, i32 0, i32 0, i32 1
  %80 = bitcast i64* %79 to i8*
  %81 = getelementptr inbounds [15 x i8], [15 x i8]* %10, i64 0, i64 0
  call void @llvm.memcpy.p0i8.p0i8.i64(i8* nonnull align 8 %81, i8* align 8 %80, i64 15, i1 false) #11
  %82 = getelementptr inbounds i8, i8* %52, i64 31
  %83 = load i8, i8* %82, align 1, !noalias !3
  call void @llvm.memset.p0i8.i64(i8* align 8 %74, i8 0, i64 24, i1 false) #11, !noalias !3
  br label %85

84:                                               ; preds = %6
  call void @llvm.memset.p0i8.i64(i8* nonnull align 8 %51, i8 0, i64 15, i1 false), !alias.scope !3
  br label %85

85:                                               ; preds = %84, %73
  %86 = phi i8 [ 0, %84 ], [ %83, %73 ]
  %87 = phi i32 [ 0, %84 ], [ %75, %73 ]
  %88 = phi i64 [ 0, %84 ], [ %78, %73 ]
  call void @llvm.lifetime.end.p0i8(i64 32, i8* nonnull %52)
  %89 = getelementptr inbounds %"class.v8::internal::wasm::Result", %"class.v8::internal::wasm::Result"* %0, i64 0, i32 0
  store i8* null, i8** %89, align 8
  %90 = getelementptr inbounds %"class.v8::internal::wasm::Result", %"class.v8::internal::wasm::Result"* %0, i64 0, i32 1, i32 0
  store i32 %87, i32* %90, align 8
  %91 = getelementptr inbounds %"class.v8::internal::wasm::Result", %"class.v8::internal::wasm::Result"* %0, i64 0, i32 1, i32 1
  %92 = bitcast %"class.std::__1::basic_string"* %91 to i64*
  store i64 %88, i64* %92, align 8
  %93 = getelementptr inbounds %"class.v8::internal::wasm::Result", %"class.v8::internal::wasm::Result"* %0, i64 0, i32 1, i32 1, i32 0, i32 0, i32 0, i32 0, i32 0, i32 1
  %94 = bitcast i64* %93 to i8*
  call void @llvm.memcpy.p0i8.p0i8.i64(i8* align 8 %94, i8* nonnull align 8 %51, i64 15, i1 false)
  %95 = bitcast %"class.v8::internal::wasm::Result"* %0 to i8*
  %96 = getelementptr inbounds i8, i8* %95, i64 39
  store i8 %86, i8* %96, align 1
  call void @llvm.lifetime.end.p0i8(i64 15, i8* nonnull %51)
  store i32 (...)** bitcast (i8** getelementptr inbounds ({ [5 x i8*] }, { [5 x i8*] }* @_ZTVN2v88internal4wasm15WasmFullDecoderILNS1_7Decoder12ValidateFlagE2ENS1_14EmptyInterfaceEEE, i64 0, inrange i32 0, i64 2) to i32 (...)**), i32 (...)*** %20, align 8
  %97 = getelementptr inbounds %"class.v8::internal::wasm::WasmFullDecoder", %"class.v8::internal::wasm::WasmFullDecoder"* %9, i64 0, i32 6, i32 0, i32 0, i32 0
  %98 = load %"struct.v8::internal::wasm::ControlBase"*, %"struct.v8::internal::wasm::ControlBase"** %97, align 8
  %99 = icmp eq %"struct.v8::internal::wasm::ControlBase"* %98, null
  br i1 %99, label %104, label %100

100:                                              ; preds = %85
  %101 = ptrtoint %"struct.v8::internal::wasm::ControlBase"* %98 to i64
  %102 = getelementptr inbounds %"class.v8::internal::wasm::WasmFullDecoder", %"class.v8::internal::wasm::WasmFullDecoder"* %9, i64 0, i32 6, i32 0, i32 0, i32 1
  %103 = bitcast %"struct.v8::internal::wasm::ControlBase"** %102 to i64*
  store i64 %101, i64* %103, align 8
  br label %104

104:                                              ; preds = %100, %85
  store i32 (...)** bitcast (i8** getelementptr inbounds ({ [5 x i8*] }, { [5 x i8*] }* @_ZTVN2v88internal4wasm11WasmDecoderILNS1_7Decoder12ValidateFlagE2EEE, i64 0, inrange i32 0, i64 2) to i32 (...)**), i32 (...)*** %20, align 8
  %105 = getelementptr inbounds %"class.v8::internal::wasm::WasmFullDecoder", %"class.v8::internal::wasm::WasmFullDecoder"* %9, i64 0, i32 0, i32 1, i32 0, i32 0, i32 0
  %106 = load %"class.v8::internal::wasm::ValueType"*, %"class.v8::internal::wasm::ValueType"** %105, align 8
  %107 = icmp eq %"class.v8::internal::wasm::ValueType"* %106, null
  br i1 %107, label %112, label %108

108:                                              ; preds = %104
  %109 = ptrtoint %"class.v8::internal::wasm::ValueType"* %106 to i64
  %110 = getelementptr inbounds %"class.v8::internal::wasm::WasmFullDecoder", %"class.v8::internal::wasm::WasmFullDecoder"* %9, i64 0, i32 0, i32 1, i32 0, i32 0, i32 1
  %111 = bitcast %"class.v8::internal::wasm::ValueType"** %110 to i64*
  store i64 %109, i64* %111, align 8
  br label %112

112:                                              ; preds = %108, %104
  store i32 (...)** bitcast (i8** getelementptr inbounds ({ [5 x i8*] }, { [5 x i8*] }* @_ZTVN2v88internal4wasm7DecoderE, i64 0, inrange i32 0, i64 2) to i32 (...)**), i32 (...)*** %20, align 8
  %113 = load i8, i8* %54, align 1
  %114 = icmp slt i8 %113, 0
  br i1 %114, label %115, label %118

115:                                              ; preds = %112
  %116 = getelementptr inbounds %"class.std::__1::basic_string", %"class.std::__1::basic_string"* %28, i64 0, i32 0, i32 0, i32 0, i32 0, i32 0, i32 0
  %117 = load i8*, i8** %116, align 8
  call void @_ZdlPv(i8* %117) #14
  br label %118

118:                                              ; preds = %112, %115
  call void @llvm.lifetime.end.p0i8(i64 216, i8* nonnull %12) #11
  call void @_ZN2v88internal4ZoneD1Ev(%"class.v8::internal::Zone"* nonnull %8) #11
  call void @llvm.lifetime.end.p0i8(i64 64, i8* nonnull %11) #11
  ret void
}

declare void @_ZN2v88internal4ZoneC1EPNS0_19AccountingAllocatorEPKcb(%"class.v8::internal::Zone"*, %"class.v8::internal::AccountingAllocator"*, i8*, i1 zeroext) unnamed_addr #3

; Function Attrs: nounwind ssp uwtable
define linkonce_odr hidden zeroext i1 @_ZN2v88internal4wasm15WasmFullDecoderILNS1_7Decoder12ValidateFlagE2ENS1_14EmptyInterfaceEE6DecodeEv(%"class.v8::internal::wasm::WasmFullDecoder"*) local_unnamed_addr #0 comdat align 2 {
  %2 = alloca i32, align 4
  %3 = alloca %"class.std::__1::basic_string", align 8
  %4 = alloca %"class.v8::internal::wasm::ValueType", align 4
  %5 = getelementptr inbounds %"class.v8::internal::wasm::WasmFullDecoder", %"class.v8::internal::wasm::WasmFullDecoder"* %0, i64 0, i32 0
  %6 = getelementptr inbounds %"class.v8::internal::wasm::WasmFullDecoder", %"class.v8::internal::wasm::WasmFullDecoder"* %0, i64 0, i32 0, i32 1, i32 0
  %7 = getelementptr inbounds %"class.v8::internal::wasm::WasmFullDecoder", %"class.v8::internal::wasm::WasmFullDecoder"* %0, i64 0, i32 0, i32 6
  %8 = load %"class.v8::internal::Signature"*, %"class.v8::internal::Signature"** %7, align 8
  %9 = getelementptr inbounds %"class.v8::internal::Signature", %"class.v8::internal::Signature"* %8, i64 0, i32 2
  %10 = load %"class.v8::internal::wasm::ValueType"*, %"class.v8::internal::wasm::ValueType"** %9, align 8
  %11 = getelementptr inbounds %"class.v8::internal::Signature", %"class.v8::internal::Signature"* %8, i64 0, i32 0
  %12 = load i64, i64* %11, align 8
  %13 = getelementptr inbounds %"class.v8::internal::wasm::ValueType", %"class.v8::internal::wasm::ValueType"* %10, i64 %12
  %14 = getelementptr inbounds %"class.v8::internal::Signature", %"class.v8::internal::Signature"* %8, i64 0, i32 1
  %15 = load i64, i64* %14, align 8
  %16 = getelementptr inbounds %"class.v8::internal::wasm::ValueType", %"class.v8::internal::wasm::ValueType"* %13, i64 %15
  tail call void @_ZNSt3__16vectorIN2v88internal4wasm9ValueTypeENS2_13ZoneAllocatorIS4_EEE6assignIPKS4_EENS_9enable_ifIXaasr27__is_cpp17_forward_iteratorIT_EE5valuesr16is_constructibleIS4_NS_15iterator_traitsISC_E9referenceEEE5valueEvE4typeESC_SC_(%"class.std::__1::vector"* %6, %"class.v8::internal::wasm::ValueType"* %13, %"class.v8::internal::wasm::ValueType"* %16) #11
  %17 = load %"class.v8::internal::Signature"*, %"class.v8::internal::Signature"** %7, align 8
  %18 = getelementptr inbounds %"class.v8::internal::Signature", %"class.v8::internal::Signature"* %17, i64 0, i32 1
  %19 = load i64, i64* %18, align 8
  %20 = trunc i64 %19 to i32
  %21 = getelementptr inbounds %"class.v8::internal::wasm::WasmFullDecoder", %"class.v8::internal::wasm::WasmFullDecoder"* %0, i64 0, i32 0, i32 2
  store i32 %20, i32* %21, align 8
  %22 = bitcast i32* %2 to i8*
  call void @llvm.lifetime.start.p0i8(i64 4, i8* nonnull %22) #11
  %23 = getelementptr inbounds %"class.v8::internal::wasm::WasmFullDecoder", %"class.v8::internal::wasm::WasmFullDecoder"* %0, i64 0, i32 0, i32 0
  %24 = getelementptr inbounds %"class.v8::internal::wasm::WasmFullDecoder", %"class.v8::internal::wasm::WasmFullDecoder"* %0, i64 0, i32 0, i32 0, i32 2
  %25 = load i8*, i8** %24, align 8
  %26 = shl i64 %19, 32
  %27 = or i64 %26, 1
  %28 = call i32 @_ZN2v88internal4wasm11WasmDecoderILNS1_7Decoder12ValidateFlagE2EE12DecodeLocalsEPKhPjNS_4base8OptionalIjEE(%"class.v8::internal::wasm::WasmDecoder"* %5, i8* %25, i32* nonnull %2, i64 %27)
  %29 = getelementptr inbounds %"class.v8::internal::wasm::WasmFullDecoder", %"class.v8::internal::wasm::WasmFullDecoder"* %0, i64 0, i32 0, i32 0, i32 5, i32 1
  %30 = bitcast %"class.std::__1::basic_string"* %29 to %"struct.std::__1::basic_string<char, std::__1::char_traits<char>, std::__1::allocator<char> >::__short"*
  %31 = getelementptr inbounds %"struct.std::__1::basic_string<char, std::__1::char_traits<char>, std::__1::allocator<char> >::__short", %"struct.std::__1::basic_string<char, std::__1::char_traits<char>, std::__1::allocator<char> >::__short"* %30, i64 0, i32 1, i32 0
  %32 = load i8, i8* %31, align 1
  %33 = icmp slt i8 %32, 0
  br i1 %33, label %34, label %37

34:                                               ; preds = %1
  %35 = getelementptr inbounds %"class.v8::internal::wasm::WasmFullDecoder", %"class.v8::internal::wasm::WasmFullDecoder"* %0, i64 0, i32 0, i32 0, i32 5, i32 1, i32 0, i32 0, i32 0, i32 0, i32 0, i32 1
  %36 = load i64, i64* %35, align 8
  br label %39

37:                                               ; preds = %1
  %38 = zext i8 %32 to i64
  br label %39

39:                                               ; preds = %34, %37
  %40 = phi i64 [ %36, %34 ], [ %38, %37 ]
  %41 = icmp eq i64 %40, 0
  br i1 %41, label %42, label %132

42:                                               ; preds = %39
  %43 = load i32, i32* %2, align 4
  %44 = getelementptr inbounds %"class.v8::internal::wasm::WasmFullDecoder", %"class.v8::internal::wasm::WasmFullDecoder"* %0, i64 0, i32 0, i32 0, i32 3
  %45 = bitcast i8** %44 to i64*
  %46 = load i64, i64* %45, align 8
  %47 = load i8*, i8** %24, align 8
  %48 = ptrtoint i8* %47 to i64
  %49 = sub i64 %46, %48
  %50 = trunc i64 %49 to i32
  %51 = icmp ugt i32 %43, %50
  br i1 %51, label %55, label %52, !prof !6

52:                                               ; preds = %42
  %53 = zext i32 %43 to i64
  %54 = getelementptr inbounds i8, i8* %47, i64 %53
  store i8* %54, i8** %24, align 8
  br label %58

55:                                               ; preds = %42
  call void (%"class.v8::internal::wasm::Decoder"*, i8*, i8*, ...) @_ZN2v88internal4wasm7Decoder6errorfEPKhPKcz(%"class.v8::internal::wasm::Decoder"* %23, i8* %47, i8* getelementptr inbounds ([32 x i8], [32 x i8]* @.str.1281, i64 0, i64 0), i32 %43) #11
  %56 = load i64, i64* %45, align 8
  %57 = bitcast i8** %24 to i64*
  store i64 %56, i64* %57, align 8
  br label %58

58:                                               ; preds = %52, %55
  %59 = load i32, i32* %21, align 8
  %60 = icmp ugt i32 %59, %20
  br i1 %60, label %61, label %96

61:                                               ; preds = %58
  %62 = getelementptr inbounds %"class.v8::internal::wasm::WasmFullDecoder", %"class.v8::internal::wasm::WasmFullDecoder"* %0, i64 0, i32 0, i32 1, i32 0, i32 0, i32 0
  %63 = load %"class.v8::internal::wasm::ValueType"*, %"class.v8::internal::wasm::ValueType"** %62, align 8
  %64 = and i64 %19, 4294967295
  %65 = zext i32 %59 to i64
  br label %68

66:                                               ; preds = %68
  %67 = icmp ult i64 %76, %65
  br i1 %67, label %68, label %96

68:                                               ; preds = %61, %66
  %69 = phi i64 [ %64, %61 ], [ %76, %66 ]
  %70 = getelementptr inbounds %"class.v8::internal::wasm::ValueType", %"class.v8::internal::wasm::ValueType"* %63, i64 %69, i32 0
  %71 = load i32, i32* %70, align 4
  %72 = trunc i32 %71 to i8
  %73 = and i8 %72, 31
  %74 = add nsw i8 %73, -8
  %75 = icmp ult i8 %74, 3
  %76 = add nuw nsw i64 %69, 1
  br i1 %75, label %77, label %66

77:                                               ; preds = %68
  %78 = and i64 %69, 4294967295
  %79 = getelementptr inbounds %"class.v8::internal::wasm::ValueType", %"class.v8::internal::wasm::ValueType"* %63, i64 %78, i32 0
  %80 = bitcast %"class.std::__1::basic_string"* %3 to i8*
  call void @llvm.lifetime.start.p0i8(i64 24, i8* nonnull %80) #11
  %81 = bitcast %"class.v8::internal::wasm::ValueType"* %4 to i8*
  call void @llvm.lifetime.start.p0i8(i64 4, i8* nonnull %81) #11
  %82 = load i32, i32* %79, align 4
  %83 = getelementptr inbounds %"class.v8::internal::wasm::ValueType", %"class.v8::internal::wasm::ValueType"* %4, i64 0, i32 0
  store i32 %82, i32* %83, align 4
  call void @_ZNK2v88internal4wasm9ValueType4nameEv(%"class.std::__1::basic_string"* nonnull sret %3, %"class.v8::internal::wasm::ValueType"* nonnull %4)
  %84 = bitcast %"class.std::__1::basic_string"* %3 to %"struct.std::__1::basic_string<char, std::__1::char_traits<char>, std::__1::allocator<char> >::__short"*
  %85 = getelementptr inbounds %"struct.std::__1::basic_string<char, std::__1::char_traits<char>, std::__1::allocator<char> >::__short", %"struct.std::__1::basic_string<char, std::__1::char_traits<char>, std::__1::allocator<char> >::__short"* %84, i64 0, i32 1, i32 0
  %86 = load i8, i8* %85, align 1
  %87 = icmp slt i8 %86, 0
  %88 = getelementptr inbounds %"class.std::__1::basic_string", %"class.std::__1::basic_string"* %3, i64 0, i32 0, i32 0, i32 0, i32 0, i32 0, i32 0
  %89 = load i8*, i8** %88, align 8
  %90 = select i1 %87, i8* %89, i8* %80
  call void (%"class.v8::internal::wasm::Decoder"*, i8*, ...) @_ZN2v88internal4wasm7Decoder6errorfEPKcz(%"class.v8::internal::wasm::Decoder"* %23, i8* getelementptr inbounds ([62 x i8], [62 x i8]* @.str.1278, i64 0, i64 0), i8* %90) #11
  %91 = load i8, i8* %85, align 1
  %92 = icmp slt i8 %91, 0
  br i1 %92, label %93, label %95

93:                                               ; preds = %77
  %94 = load i8*, i8** %88, align 8
  call void @_ZdlPv(i8* %94) #14
  br label %95

95:                                               ; preds = %93, %77
  call void @llvm.lifetime.end.p0i8(i64 4, i8* nonnull %81) #11
  call void @llvm.lifetime.end.p0i8(i64 24, i8* nonnull %80) #11
  br label %132

96:                                               ; preds = %66, %58
  call void @_ZN2v88internal4wasm15WasmFullDecoderILNS1_7Decoder12ValidateFlagE2ENS1_14EmptyInterfaceEE18DecodeFunctionBodyEv(%"class.v8::internal::wasm::WasmFullDecoder"* %0)
  %97 = load i8, i8* %31, align 1
  %98 = icmp slt i8 %97, 0
  br i1 %98, label %99, label %102

99:                                               ; preds = %96
  %100 = getelementptr inbounds %"class.v8::internal::wasm::WasmFullDecoder", %"class.v8::internal::wasm::WasmFullDecoder"* %0, i64 0, i32 0, i32 0, i32 5, i32 1, i32 0, i32 0, i32 0, i32 0, i32 0, i32 1
  %101 = load i64, i64* %100, align 8
  br label %104

102:                                              ; preds = %96
  %103 = zext i8 %97 to i64
  br label %104

104:                                              ; preds = %99, %102
  %105 = phi i64 [ %101, %99 ], [ %103, %102 ]
  %106 = icmp eq i64 %105, 0
  br i1 %106, label %107, label %132

107:                                              ; preds = %104
  %108 = getelementptr inbounds %"class.v8::internal::wasm::WasmFullDecoder", %"class.v8::internal::wasm::WasmFullDecoder"* %0, i64 0, i32 6, i32 0, i32 0, i32 0
  %109 = load %"struct.v8::internal::wasm::ControlBase"*, %"struct.v8::internal::wasm::ControlBase"** %108, align 8
  %110 = getelementptr inbounds %"class.v8::internal::wasm::WasmFullDecoder", %"class.v8::internal::wasm::WasmFullDecoder"* %0, i64 0, i32 6, i32 0, i32 0, i32 1
  %111 = load %"struct.v8::internal::wasm::ControlBase"*, %"struct.v8::internal::wasm::ControlBase"** %110, align 8
  %112 = icmp eq %"struct.v8::internal::wasm::ControlBase"* %109, %111
  br i1 %112, label %123, label %113

113:                                              ; preds = %107
  %114 = ptrtoint %"struct.v8::internal::wasm::ControlBase"* %109 to i64
  %115 = ptrtoint %"struct.v8::internal::wasm::ControlBase"* %111 to i64
  %116 = sub i64 %115, %114
  %117 = sdiv exact i64 %116, 96
  %118 = icmp ugt i64 %117, 1
  br i1 %118, label %119, label %122

119:                                              ; preds = %113
  %120 = getelementptr inbounds %"struct.v8::internal::wasm::ControlBase", %"struct.v8::internal::wasm::ControlBase"* %111, i64 -1, i32 0, i32 0
  %121 = load i8*, i8** %120, align 8
  call void @_ZN2v88internal4wasm7Decoder5errorEPKhPKc(%"class.v8::internal::wasm::Decoder"* %23, i8* %121, i8* getelementptr inbounds ([31 x i8], [31 x i8]* @.str.1279, i64 0, i64 0)) #11
  br label %132

122:                                              ; preds = %113
  call void @_ZN2v88internal4wasm7Decoder5errorEPKc(%"class.v8::internal::wasm::Decoder"* %23, i8* getelementptr inbounds ([41 x i8], [41 x i8]* @.str.1280, i64 0, i64 0)) #11
  br label %132

123:                                              ; preds = %107
  br i1 %98, label %124, label %127

124:                                              ; preds = %123
  %125 = getelementptr inbounds %"class.v8::internal::wasm::WasmFullDecoder", %"class.v8::internal::wasm::WasmFullDecoder"* %0, i64 0, i32 0, i32 0, i32 5, i32 1, i32 0, i32 0, i32 0, i32 0, i32 0, i32 1
  %126 = load i64, i64* %125, align 8
  br label %129

127:                                              ; preds = %123
  %128 = zext i8 %97 to i64
  br label %129

129:                                              ; preds = %124, %127
  %130 = phi i64 [ %126, %124 ], [ %128, %127 ]
  %131 = icmp eq i64 %130, 0
  br label %132

132:                                              ; preds = %104, %39, %129, %119, %122, %95
  %133 = phi i1 [ false, %95 ], [ false, %39 ], [ false, %104 ], [ false, %122 ], [ false, %119 ], [ %131, %129 ]
  call void @llvm.lifetime.end.p0i8(i64 4, i8* nonnull %22) #11
  ret i1 %133
}

; Function Attrs: inlinehint nounwind ssp uwtable
define linkonce_odr hidden void @_ZN2v88internal4wasm15WasmFullDecoderILNS1_7Decoder12ValidateFlagE2ENS1_14EmptyInterfaceEED2Ev(%"class.v8::internal::wasm::WasmFullDecoder"*) unnamed_addr #2 comdat align 2 {
  %2 = getelementptr inbounds %"class.v8::internal::wasm::WasmFullDecoder", %"class.v8::internal::wasm::WasmFullDecoder"* %0, i64 0, i32 0, i32 0, i32 0
  store i32 (...)** bitcast (i8** getelementptr inbounds ({ [5 x i8*] }, { [5 x i8*] }* @_ZTVN2v88internal4wasm15WasmFullDecoderILNS1_7Decoder12ValidateFlagE2ENS1_14EmptyInterfaceEEE, i64 0, inrange i32 0, i64 2) to i32 (...)**), i32 (...)*** %2, align 8
  %3 = getelementptr inbounds %"class.v8::internal::wasm::WasmFullDecoder", %"class.v8::internal::wasm::WasmFullDecoder"* %0, i64 0, i32 6, i32 0, i32 0, i32 0
  %4 = load %"struct.v8::internal::wasm::ControlBase"*, %"struct.v8::internal::wasm::ControlBase"** %3, align 8
  %5 = icmp eq %"struct.v8::internal::wasm::ControlBase"* %4, null
  br i1 %5, label %10, label %6

6:                                                ; preds = %1
  %7 = ptrtoint %"struct.v8::internal::wasm::ControlBase"* %4 to i64
  %8 = getelementptr inbounds %"class.v8::internal::wasm::WasmFullDecoder", %"class.v8::internal::wasm::WasmFullDecoder"* %0, i64 0, i32 6, i32 0, i32 0, i32 1
  %9 = bitcast %"struct.v8::internal::wasm::ControlBase"** %8 to i64*
  store i64 %7, i64* %9, align 8
  br label %10

10:                                               ; preds = %1, %6
  store i32 (...)** bitcast (i8** getelementptr inbounds ({ [5 x i8*] }, { [5 x i8*] }* @_ZTVN2v88internal4wasm11WasmDecoderILNS1_7Decoder12ValidateFlagE2EEE, i64 0, inrange i32 0, i64 2) to i32 (...)**), i32 (...)*** %2, align 8
  %11 = getelementptr inbounds %"class.v8::internal::wasm::WasmFullDecoder", %"class.v8::internal::wasm::WasmFullDecoder"* %0, i64 0, i32 0, i32 1, i32 0, i32 0, i32 0
  %12 = load %"class.v8::internal::wasm::ValueType"*, %"class.v8::internal::wasm::ValueType"** %11, align 8
  %13 = icmp eq %"class.v8::internal::wasm::ValueType"* %12, null
  br i1 %13, label %18, label %14

14:                                               ; preds = %10
  %15 = ptrtoint %"class.v8::internal::wasm::ValueType"* %12 to i64
  %16 = getelementptr inbounds %"class.v8::internal::wasm::WasmFullDecoder", %"class.v8::internal::wasm::WasmFullDecoder"* %0, i64 0, i32 0, i32 1, i32 0, i32 0, i32 1
  %17 = bitcast %"class.v8::internal::wasm::ValueType"** %16 to i64*
  store i64 %15, i64* %17, align 8
  br label %18

18:                                               ; preds = %14, %10
  store i32 (...)** bitcast (i8** getelementptr inbounds ({ [5 x i8*] }, { [5 x i8*] }* @_ZTVN2v88internal4wasm7DecoderE, i64 0, inrange i32 0, i64 2) to i32 (...)**), i32 (...)*** %2, align 8
  %19 = getelementptr inbounds %"class.v8::internal::wasm::WasmFullDecoder", %"class.v8::internal::wasm::WasmFullDecoder"* %0, i64 0, i32 0, i32 0, i32 5, i32 1
  %20 = bitcast %"class.std::__1::basic_string"* %19 to %"struct.std::__1::basic_string<char, std::__1::char_traits<char>, std::__1::allocator<char> >::__short"*
  %21 = getelementptr inbounds %"struct.std::__1::basic_string<char, std::__1::char_traits<char>, std::__1::allocator<char> >::__short", %"struct.std::__1::basic_string<char, std::__1::char_traits<char>, std::__1::allocator<char> >::__short"* %20, i64 0, i32 1, i32 0
  %22 = load i8, i8* %21, align 1
  %23 = icmp slt i8 %22, 0
  br i1 %23, label %24, label %27

24:                                               ; preds = %18
  %25 = getelementptr inbounds %"class.std::__1::basic_string", %"class.std::__1::basic_string"* %19, i64 0, i32 0, i32 0, i32 0, i32 0, i32 0, i32 0
  %26 = load i8*, i8** %25, align 8
  tail call void @_ZdlPv(i8* %26) #14
  br label %27

27:                                               ; preds = %18, %24
  ret void
}

; Function Attrs: nounwind
declare void @_ZN2v88internal4ZoneD1Ev(%"class.v8::internal::Zone"*) unnamed_addr #4

; Function Attrs: nounwind ssp uwtable
define hidden i32 @_ZN2v88internal4wasm12OpcodeLengthEPKhS3_(i8*, i8*) local_unnamed_addr #0 {
  %3 = alloca %"class.v8::internal::wasm::WasmFeatures", align 4
  %4 = alloca %"class.v8::internal::wasm::WasmDecoder.207", align 8
  %5 = bitcast %"class.v8::internal::wasm::WasmFeatures"* %3 to i8*
  call void @llvm.lifetime.start.p0i8(i64 4, i8* nonnull %5) #11
  %6 = getelementptr inbounds %"class.v8::internal::wasm::WasmFeatures", %"class.v8::internal::wasm::WasmFeatures"* %3, i64 0, i32 0, i32 0
  store i32 0, i32* %6, align 4
  %7 = bitcast %"class.v8::internal::wasm::WasmDecoder.207"* %4 to i8*
  call void @llvm.lifetime.start.p0i8(i64 144, i8* nonnull %7) #11
  %8 = getelementptr inbounds %"class.v8::internal::wasm::WasmDecoder.207", %"class.v8::internal::wasm::WasmDecoder.207"* %4, i64 0, i32 0, i32 0
  %9 = getelementptr inbounds %"class.v8::internal::wasm::WasmDecoder.207", %"class.v8::internal::wasm::WasmDecoder.207"* %4, i64 0, i32 0, i32 1
  store i8* %0, i8** %9, align 8
  %10 = getelementptr inbounds %"class.v8::internal::wasm::WasmDecoder.207", %"class.v8::internal::wasm::WasmDecoder.207"* %4, i64 0, i32 0, i32 2
  store i8* %0, i8** %10, align 8
  %11 = getelementptr inbounds %"class.v8::internal::wasm::WasmDecoder.207", %"class.v8::internal::wasm::WasmDecoder.207"* %4, i64 0, i32 0, i32 3
  store i8* %1, i8** %11, align 8
  %12 = getelementptr inbounds %"class.v8::internal::wasm::WasmDecoder.207", %"class.v8::internal::wasm::WasmDecoder.207"* %4, i64 0, i32 0, i32 4
  store i32 0, i32* %12, align 8
  %13 = getelementptr inbounds %"class.v8::internal::wasm::WasmDecoder.207", %"class.v8::internal::wasm::WasmDecoder.207"* %4, i64 0, i32 0, i32 5, i32 0
  store i32 0, i32* %13, align 8
  %14 = getelementptr inbounds %"class.v8::internal::wasm::WasmDecoder.207", %"class.v8::internal::wasm::WasmDecoder.207"* %4, i64 0, i32 0, i32 5, i32 1
  %15 = bitcast %"class.std::__1::basic_string"* %14 to i8*
  call void @llvm.memset.p0i8.i64(i8* align 8 %15, i8 0, i64 24, i1 false) #11
  store i32 (...)** bitcast (i8** getelementptr inbounds ({ [5 x i8*] }, { [5 x i8*] }* @_ZTVN2v88internal4wasm11WasmDecoderILNS1_7Decoder12ValidateFlagE0EEE, i64 0, inrange i32 0, i64 2) to i32 (...)**), i32 (...)*** %8, align 8
  %16 = getelementptr inbounds %"class.v8::internal::wasm::WasmDecoder.207", %"class.v8::internal::wasm::WasmDecoder.207"* %4, i64 0, i32 1
  %17 = getelementptr inbounds %"class.v8::internal::wasm::WasmDecoder.207", %"class.v8::internal::wasm::WasmDecoder.207"* %4, i64 0, i32 3
  store %"struct.v8::internal::wasm::WasmModule"* null, %"struct.v8::internal::wasm::WasmModule"** %17, align 8
  %18 = getelementptr inbounds %"class.v8::internal::wasm::WasmDecoder.207", %"class.v8::internal::wasm::WasmDecoder.207"* %4, i64 0, i32 4, i32 0, i32 0
  store i32 0, i32* %18, align 8
  %19 = getelementptr inbounds %"class.v8::internal::wasm::WasmDecoder.207", %"class.v8::internal::wasm::WasmDecoder.207"* %4, i64 0, i32 5
  %20 = bitcast %"class.v8::internal::ZoneVector"* %16 to i8*
  call void @llvm.memset.p0i8.i64(i8* align 8 %20, i8 0, i64 36, i1 false)
  store %"class.v8::internal::wasm::WasmFeatures"* %3, %"class.v8::internal::wasm::WasmFeatures"** %19, align 8
  %21 = getelementptr inbounds %"class.v8::internal::wasm::WasmDecoder.207", %"class.v8::internal::wasm::WasmDecoder.207"* %4, i64 0, i32 6
  store %"class.v8::internal::Signature"* null, %"class.v8::internal::Signature"** %21, align 8
  %22 = call i32 @_ZN2v88internal4wasm11WasmDecoderILNS1_7Decoder12ValidateFlagE0EE12OpcodeLengthEPS5_PKh(%"class.v8::internal::wasm::WasmDecoder.207"* nonnull %4, i8* %0)
  store i32 (...)** bitcast (i8** getelementptr inbounds ({ [5 x i8*] }, { [5 x i8*] }* @_ZTVN2v88internal4wasm11WasmDecoderILNS1_7Decoder12ValidateFlagE0EEE, i64 0, inrange i32 0, i64 2) to i32 (...)**), i32 (...)*** %8, align 8
  %23 = getelementptr inbounds %"class.v8::internal::wasm::WasmDecoder.207", %"class.v8::internal::wasm::WasmDecoder.207"* %4, i64 0, i32 1, i32 0, i32 0, i32 0
  %24 = load %"class.v8::internal::wasm::ValueType"*, %"class.v8::internal::wasm::ValueType"** %23, align 8
  %25 = icmp eq %"class.v8::internal::wasm::ValueType"* %24, null
  br i1 %25, label %30, label %26

26:                                               ; preds = %2
  %27 = ptrtoint %"class.v8::internal::wasm::ValueType"* %24 to i64
  %28 = getelementptr inbounds %"class.v8::internal::wasm::WasmDecoder.207", %"class.v8::internal::wasm::WasmDecoder.207"* %4, i64 0, i32 1, i32 0, i32 0, i32 1
  %29 = bitcast %"class.v8::internal::wasm::ValueType"** %28 to i64*
  store i64 %27, i64* %29, align 8
  br label %30

30:                                               ; preds = %26, %2
  store i32 (...)** bitcast (i8** getelementptr inbounds ({ [5 x i8*] }, { [5 x i8*] }* @_ZTVN2v88internal4wasm7DecoderE, i64 0, inrange i32 0, i64 2) to i32 (...)**), i32 (...)*** %8, align 8
  %31 = bitcast %"class.std::__1::basic_string"* %14 to %"struct.std::__1::basic_string<char, std::__1::char_traits<char>, std::__1::allocator<char> >::__short"*
  %32 = getelementptr inbounds %"struct.std::__1::basic_string<char, std::__1::char_traits<char>, std::__1::allocator<char> >::__short", %"struct.std::__1::basic_string<char, std::__1::char_traits<char>, std::__1::allocator<char> >::__short"* %31, i64 0, i32 1, i32 0
  %33 = load i8, i8* %32, align 1
  %34 = icmp slt i8 %33, 0
  br i1 %34, label %35, label %38

35:                                               ; preds = %30
  %36 = getelementptr inbounds %"class.std::__1::basic_string", %"class.std::__1::basic_string"* %14, i64 0, i32 0, i32 0, i32 0, i32 0, i32 0, i32 0
  %37 = load i8*, i8** %36, align 8
  call void @_ZdlPv(i8* %37) #14
  br label %38

38:                                               ; preds = %30, %35
  call void @llvm.lifetime.end.p0i8(i64 144, i8* nonnull %7) #11
  call void @llvm.lifetime.end.p0i8(i64 4, i8* nonnull %5) #11
  ret i32 %22
}

; Function Attrs: nounwind ssp uwtable
define linkonce_odr hidden i32 @_ZN2v88internal4wasm11WasmDecoderILNS1_7Decoder12ValidateFlagE0EE12OpcodeLengthEPS5_PKh(%"class.v8::internal::wasm::WasmDecoder.207"*, i8*) local_unnamed_addr #0 comdat align 2 {
  %3 = alloca i32, align 4
  %4 = alloca i32, align 4
  %5 = alloca i32, align 4
  %6 = alloca i32, align 4
  %7 = alloca i32, align 4
  %8 = alloca i32, align 4
  %9 = alloca i64, align 8
  %10 = alloca i64, align 8
  %11 = alloca i32, align 4
  %12 = alloca i64, align 8
  %13 = alloca i32, align 4
  %14 = alloca i32, align 4
  %15 = alloca i32, align 4
  %16 = alloca i32, align 4
  %17 = alloca i32, align 4
  %18 = alloca %"struct.v8::internal::wasm::TableIndexImmediate.252", align 4
  %19 = alloca i32, align 4
  %20 = alloca i32, align 4
  %21 = alloca %"struct.v8::internal::wasm::BlockTypeImmediate", align 8
  %22 = alloca %"class.v8::internal::wasm::WasmFeatures", align 4
  %23 = alloca %"struct.v8::internal::wasm::BranchDepthImmediate", align 4
  %24 = alloca %"struct.v8::internal::wasm::ExceptionIndexImmediate.246", align 8
  %25 = alloca %"struct.v8::internal::wasm::BlockTypeImmediate", align 8
  %26 = alloca %"class.v8::internal::wasm::WasmFeatures", align 4
  %27 = alloca i32, align 4
  %28 = alloca %"struct.v8::internal::wasm::CallFunctionImmediate", align 8
  %29 = alloca %"struct.v8::internal::wasm::SelectTypeImmediate.248", align 4
  %30 = alloca %"class.v8::internal::wasm::WasmFeatures", align 4
  %31 = alloca %"struct.v8::internal::wasm::LocalIndexImmediate.249", align 4
  %32 = alloca %"struct.v8::internal::wasm::GlobalIndexImmediate.250", align 8
  %33 = alloca %"struct.v8::internal::wasm::TableIndexImmediate.252", align 4
  %34 = alloca %"struct.v8::internal::wasm::ImmI32Immediate.253", align 4
  %35 = alloca %"struct.v8::internal::wasm::ImmI64Immediate.254", align 8
  %36 = alloca %"struct.v8::internal::wasm::HeapTypeImmediate.256", align 4
  %37 = alloca %"struct.v8::internal::wasm::FunctionIndexImmediate.257", align 4
  %38 = alloca i32, align 4
  %39 = alloca %"struct.v8::internal::wasm::DataDropImmediate.262", align 4
  %40 = alloca %"struct.v8::internal::wasm::ElemDropImmediate.265", align 4
  %41 = alloca %"struct.v8::internal::wasm::TableIndexImmediate.252", align 4
  %42 = alloca i32, align 4
  %43 = alloca i32, align 4
  %44 = alloca i32, align 4
  %45 = alloca %"struct.v8::internal::wasm::StructIndexImmediate.267", align 8
  %46 = alloca %"struct.v8::internal::wasm::FieldIndexImmediate.268", align 8
  %47 = alloca %"struct.v8::internal::wasm::ArrayIndexImmediate.269", align 8
  %48 = alloca %"struct.v8::internal::wasm::ArrayIndexImmediate.269", align 8
  %49 = alloca %"struct.v8::internal::wasm::ArrayIndexImmediate.269", align 8
  %50 = alloca %"struct.v8::internal::wasm::BranchDepthImmediate", align 4
  %51 = alloca %"struct.v8::internal::wasm::TypeIndexImmediate.270", align 4
  %52 = load i8, i8* %1, align 1
  switch i8 %52, label %871 [
    i8 -5, label %715
    i8 -2, label %662
    i8 -3, label %577
    i8 -4, label %415
    i8 63, label %414
    i8 64, label %414
    i8 6, label %53
    i8 4, label %53
    i8 3, label %53
    i8 2, label %53
    i8 9, label %84
    i8 12, label %84
    i8 13, label %84
    i8 -44, label %84
    i8 -42, label %84
    i8 24, label %84
    i8 14, label %98
    i8 8, label %138
    i8 7, label %138
    i8 23, label %153
    i8 16, label %193
    i8 18, label %193
    i8 17, label %208
    i8 19, label %208
    i8 62, label %386
    i8 61, label %386
    i8 60, label %386
    i8 59, label %386
    i8 58, label %386
    i8 57, label %386
    i8 28, label %237
    i8 32, label %261
    i8 33, label %261
    i8 34, label %261
    i8 35, label %275
    i8 36, label %275
    i8 37, label %291
    i8 38, label %291
    i8 65, label %306
    i8 66, label %320
    i8 67, label %334
    i8 68, label %335
    i8 -48, label %336
    i8 56, label %386
    i8 -46, label %371
    i8 55, label %386
    i8 54, label %386
    i8 53, label %386
    i8 52, label %386
    i8 51, label %386
    i8 50, label %386
    i8 49, label %386
    i8 48, label %386
    i8 47, label %386
    i8 46, label %386
    i8 45, label %386
    i8 44, label %386
    i8 43, label %386
    i8 42, label %386
    i8 41, label %386
    i8 40, label %386
  ]

53:                                               ; preds = %2, %2, %2, %2
  %54 = bitcast %"struct.v8::internal::wasm::BlockTypeImmediate"* %21 to i8*
  call void @llvm.lifetime.start.p0i8(i64 24, i8* nonnull %54) #11
  %55 = bitcast %"class.v8::internal::wasm::WasmFeatures"* %22 to i8*
  call void @llvm.lifetime.start.p0i8(i64 4, i8* nonnull %55) #11
  %56 = getelementptr inbounds %"class.v8::internal::wasm::WasmFeatures", %"class.v8::internal::wasm::WasmFeatures"* %22, i64 0, i32 0, i32 0
  store i32 8191, i32* %56, align 4
  %57 = getelementptr inbounds %"class.v8::internal::wasm::WasmDecoder.207", %"class.v8::internal::wasm::WasmDecoder.207"* %0, i64 0, i32 0
  %58 = getelementptr inbounds i8, i8* %1, i64 1
  %59 = getelementptr inbounds %"struct.v8::internal::wasm::BlockTypeImmediate", %"struct.v8::internal::wasm::BlockTypeImmediate"* %21, i64 0, i32 0
  store i32 1, i32* %59, align 8
  %60 = getelementptr inbounds %"struct.v8::internal::wasm::BlockTypeImmediate", %"struct.v8::internal::wasm::BlockTypeImmediate"* %21, i64 0, i32 1, i32 0
  store i32 0, i32* %60, align 4
  %61 = getelementptr inbounds %"struct.v8::internal::wasm::BlockTypeImmediate", %"struct.v8::internal::wasm::BlockTypeImmediate"* %21, i64 0, i32 2
  store i32 0, i32* %61, align 8
  %62 = getelementptr inbounds %"struct.v8::internal::wasm::BlockTypeImmediate", %"struct.v8::internal::wasm::BlockTypeImmediate"* %21, i64 0, i32 3
  store %"class.v8::internal::Signature"* null, %"class.v8::internal::Signature"** %62, align 8
  %63 = load i8, i8* %58, align 1
  %64 = icmp slt i8 %63, 0
  br i1 %64, label %69, label %65

65:                                               ; preds = %53
  store i32 1, i32* %59, align 8
  %66 = zext i8 %63 to i64
  %67 = shl i64 %66, 57
  %68 = ashr exact i64 %67, 57
  br label %71

69:                                               ; preds = %53
  %70 = call i64 @_ZN2v88internal4wasm7Decoder17read_leb_slowpathIlLNS2_12ValidateFlagE0ELNS2_9TraceFlagE0ELm33EEET_PKhPjPKc(%"class.v8::internal::wasm::Decoder"* %57, i8* %58, i32* nonnull %59, i8* getelementptr inbounds ([11 x i8], [11 x i8]* @.str.1286, i64 0, i64 0)) #11
  br label %71

71:                                               ; preds = %69, %65
  %72 = phi i64 [ %70, %69 ], [ %68, %65 ]
  %73 = icmp slt i64 %72, 0
  br i1 %73, label %74, label %79

74:                                               ; preds = %71
  %75 = and i64 %72, 127
  %76 = icmp eq i64 %75, 64
  br i1 %76, label %81, label %77

77:                                               ; preds = %74
  %78 = call i32 @_ZN2v88internal4wasm17value_type_reader15read_value_typeILNS1_7Decoder12ValidateFlagE0EEENS1_9ValueTypeEPS4_PKhPjPKNS1_10WasmModuleERKNS1_12WasmFeaturesE(%"class.v8::internal::wasm::Decoder"* %57, i8* %58, i32* nonnull %59, %"struct.v8::internal::wasm::WasmModule"* null, %"class.v8::internal::wasm::WasmFeatures"* nonnull dereferenceable(4) %22) #11
  store i32 %78, i32* %60, align 4
  br label %81

79:                                               ; preds = %71
  store i32 12, i32* %60, align 4
  %80 = trunc i64 %72 to i32
  store i32 %80, i32* %61, align 8
  br label %81

81:                                               ; preds = %74, %77, %79
  call void @llvm.lifetime.end.p0i8(i64 4, i8* nonnull %55) #11
  %82 = load i32, i32* %59, align 8
  %83 = add i32 %82, 1
  call void @llvm.lifetime.end.p0i8(i64 24, i8* nonnull %54) #11
  br label %871

84:                                               ; preds = %2, %2, %2, %2, %2, %2
  %85 = bitcast %"struct.v8::internal::wasm::BranchDepthImmediate"* %23 to i8*
  call void @llvm.lifetime.start.p0i8(i64 8, i8* nonnull %85) #11
  %86 = getelementptr inbounds i8, i8* %1, i64 1
  %87 = getelementptr inbounds %"struct.v8::internal::wasm::BranchDepthImmediate", %"struct.v8::internal::wasm::BranchDepthImmediate"* %23, i64 0, i32 1
  %88 = load i8, i8* %86, align 1
  %89 = icmp slt i8 %88, 0
  br i1 %89, label %91, label %90

90:                                               ; preds = %84
  store i32 1, i32* %87, align 4
  br label %96

91:                                               ; preds = %84
  %92 = getelementptr inbounds %"class.v8::internal::wasm::WasmDecoder.207", %"class.v8::internal::wasm::WasmDecoder.207"* %0, i64 0, i32 0
  %93 = call i32 @_ZN2v88internal4wasm7Decoder17read_leb_slowpathIjLNS2_12ValidateFlagE0ELNS2_9TraceFlagE0ELm32EEET_PKhPjPKc(%"class.v8::internal::wasm::Decoder"* %92, i8* %86, i32* %87, i8* getelementptr inbounds ([13 x i8], [13 x i8]* @.str.1307, i64 0, i64 0)) #11
  %94 = load i32, i32* %87, align 4
  %95 = add i32 %94, 1
  br label %96

96:                                               ; preds = %90, %91
  %97 = phi i32 [ %95, %91 ], [ 2, %90 ]
  call void @llvm.lifetime.end.p0i8(i64 8, i8* nonnull %85) #11
  br label %871

98:                                               ; preds = %2
  %99 = getelementptr inbounds %"class.v8::internal::wasm::WasmDecoder.207", %"class.v8::internal::wasm::WasmDecoder.207"* %0, i64 0, i32 0
  %100 = getelementptr inbounds i8, i8* %1, i64 1
  %101 = ptrtoint i8* %100 to i64
  %102 = bitcast i32* %20 to i8*
  call void @llvm.lifetime.start.p0i8(i64 4, i8* nonnull %102) #11
  store i32 0, i32* %20, align 4
  %103 = load i8, i8* %100, align 1
  %104 = icmp slt i8 %103, 0
  br i1 %104, label %107, label %105

105:                                              ; preds = %98
  store i32 1, i32* %20, align 4
  %106 = zext i8 %103 to i32
  br label %111

107:                                              ; preds = %98
  %108 = call i32 @_ZN2v88internal4wasm7Decoder17read_leb_slowpathIjLNS2_12ValidateFlagE0ELNS2_9TraceFlagE0ELm32EEET_PKhPjPKc(%"class.v8::internal::wasm::Decoder"* %99, i8* %100, i32* nonnull %20, i8* getelementptr inbounds ([12 x i8], [12 x i8]* @.str.1319, i64 0, i64 0)) #11
  %109 = load i32, i32* %20, align 4
  %110 = zext i32 %109 to i64
  br label %111

111:                                              ; preds = %107, %105
  %112 = phi i64 [ %110, %107 ], [ 1, %105 ]
  %113 = phi i32 [ %108, %107 ], [ %106, %105 ]
  %114 = getelementptr inbounds i8, i8* %100, i64 %112
  call void @llvm.lifetime.end.p0i8(i64 4, i8* nonnull %102) #11
  %115 = bitcast i32* %19 to i8*
  br label %116

116:                                              ; preds = %128, %111
  %117 = phi i8* [ %114, %111 ], [ %131, %128 ]
  %118 = phi i32 [ %113, %111 ], [ %129, %128 ]
  %119 = phi i32 [ 0, %111 ], [ %120, %128 ]
  %120 = add i32 %119, 1
  call void @llvm.lifetime.start.p0i8(i64 4, i8* nonnull %115) #11
  %121 = load i8, i8* %117, align 1
  %122 = icmp slt i8 %121, 0
  br i1 %122, label %124, label %123

123:                                              ; preds = %116
  store i32 1, i32* %19, align 4
  br label %128

124:                                              ; preds = %116
  %125 = call i32 @_ZN2v88internal4wasm7Decoder17read_leb_slowpathIjLNS2_12ValidateFlagE0ELNS2_9TraceFlagE0ELm32EEET_PKhPjPKc(%"class.v8::internal::wasm::Decoder"* %99, i8* %117, i32* nonnull %19, i8* getelementptr inbounds ([19 x i8], [19 x i8]* @.str.1321, i64 0, i64 0)) #11
  %126 = load i32, i32* %19, align 4
  %127 = zext i32 %126 to i64
  br label %128

128:                                              ; preds = %124, %123
  %129 = phi i32 [ %113, %124 ], [ %118, %123 ]
  %130 = phi i64 [ %127, %124 ], [ 1, %123 ]
  %131 = getelementptr inbounds i8, i8* %117, i64 %130
  call void @llvm.lifetime.end.p0i8(i64 4, i8* nonnull %115) #11
  %132 = icmp ugt i32 %120, %129
  br i1 %132, label %133, label %116

133:                                              ; preds = %128
  %134 = ptrtoint i8* %131 to i64
  %135 = sub i64 %134, %101
  %136 = trunc i64 %135 to i32
  %137 = add i32 %136, 1
  br label %871

138:                                              ; preds = %2, %2
  %139 = bitcast %"struct.v8::internal::wasm::ExceptionIndexImmediate.246"* %24 to i8*
  call void @llvm.lifetime.start.p0i8(i64 24, i8* nonnull %139) #11
  %140 = getelementptr inbounds i8, i8* %1, i64 1
  %141 = getelementptr inbounds %"struct.v8::internal::wasm::ExceptionIndexImmediate.246", %"struct.v8::internal::wasm::ExceptionIndexImmediate.246"* %24, i64 0, i32 2
  store %"struct.v8::internal::wasm::WasmException"* null, %"struct.v8::internal::wasm::WasmException"** %141, align 8
  %142 = getelementptr inbounds %"struct.v8::internal::wasm::ExceptionIndexImmediate.246", %"struct.v8::internal::wasm::ExceptionIndexImmediate.246"* %24, i64 0, i32 3
  %143 = load i8, i8* %140, align 1
  %144 = icmp slt i8 %143, 0
  br i1 %144, label %146, label %145

145:                                              ; preds = %138
  store i32 1, i32* %142, align 8
  br label %151

146:                                              ; preds = %138
  %147 = getelementptr inbounds %"class.v8::internal::wasm::WasmDecoder.207", %"class.v8::internal::wasm::WasmDecoder.207"* %0, i64 0, i32 0
  %148 = call i32 @_ZN2v88internal4wasm7Decoder17read_leb_slowpathIjLNS2_12ValidateFlagE0ELNS2_9TraceFlagE0ELm32EEET_PKhPjPKc(%"class.v8::internal::wasm::Decoder"* %147, i8* %140, i32* %142, i8* getelementptr inbounds ([16 x i8], [16 x i8]* @.str.1304, i64 0, i64 0)) #11
  %149 = load i32, i32* %142, align 8
  %150 = add i32 %149, 1
  br label %151

151:                                              ; preds = %145, %146
  %152 = phi i32 [ %150, %146 ], [ 2, %145 ]
  call void @llvm.lifetime.end.p0i8(i64 24, i8* nonnull %139) #11
  br label %871

153:                                              ; preds = %2
  %154 = bitcast %"struct.v8::internal::wasm::BlockTypeImmediate"* %25 to i8*
  call void @llvm.lifetime.start.p0i8(i64 24, i8* nonnull %154) #11
  %155 = bitcast %"class.v8::internal::wasm::WasmFeatures"* %26 to i8*
  call void @llvm.lifetime.start.p0i8(i64 4, i8* nonnull %155) #11
  %156 = getelementptr inbounds %"class.v8::internal::wasm::WasmFeatures", %"class.v8::internal::wasm::WasmFeatures"* %26, i64 0, i32 0, i32 0
  store i32 8191, i32* %156, align 4
  %157 = getelementptr inbounds %"class.v8::internal::wasm::WasmDecoder.207", %"class.v8::internal::wasm::WasmDecoder.207"* %0, i64 0, i32 0
  %158 = getelementptr inbounds i8, i8* %1, i64 1
  %159 = getelementptr inbounds %"struct.v8::internal::wasm::BlockTypeImmediate", %"struct.v8::internal::wasm::BlockTypeImmediate"* %25, i64 0, i32 0
  store i32 1, i32* %159, align 8
  %160 = getelementptr inbounds %"struct.v8::internal::wasm::BlockTypeImmediate", %"struct.v8::internal::wasm::BlockTypeImmediate"* %25, i64 0, i32 1, i32 0
  store i32 0, i32* %160, align 4
  %161 = getelementptr inbounds %"struct.v8::internal::wasm::BlockTypeImmediate", %"struct.v8::internal::wasm::BlockTypeImmediate"* %25, i64 0, i32 2
  store i32 0, i32* %161, align 8
  %162 = getelementptr inbounds %"struct.v8::internal::wasm::BlockTypeImmediate", %"struct.v8::internal::wasm::BlockTypeImmediate"* %25, i64 0, i32 3
  store %"class.v8::internal::Signature"* null, %"class.v8::internal::Signature"** %162, align 8
  %163 = load i8, i8* %158, align 1
  %164 = icmp slt i8 %163, 0
  br i1 %164, label %169, label %165

165:                                              ; preds = %153
  store i32 1, i32* %159, align 8
  %166 = zext i8 %163 to i64
  %167 = shl i64 %166, 57
  %168 = ashr exact i64 %167, 57
  br label %171

169:                                              ; preds = %153
  %170 = call i64 @_ZN2v88internal4wasm7Decoder17read_leb_slowpathIlLNS2_12ValidateFlagE0ELNS2_9TraceFlagE0ELm33EEET_PKhPjPKc(%"class.v8::internal::wasm::Decoder"* %157, i8* %158, i32* nonnull %159, i8* getelementptr inbounds ([11 x i8], [11 x i8]* @.str.1286, i64 0, i64 0)) #11
  br label %171

171:                                              ; preds = %169, %165
  %172 = phi i64 [ %170, %169 ], [ %168, %165 ]
  %173 = icmp slt i64 %172, 0
  br i1 %173, label %174, label %179

174:                                              ; preds = %171
  %175 = and i64 %172, 127
  %176 = icmp eq i64 %175, 64
  br i1 %176, label %181, label %177

177:                                              ; preds = %174
  %178 = call i32 @_ZN2v88internal4wasm17value_type_reader15read_value_typeILNS1_7Decoder12ValidateFlagE0EEENS1_9ValueTypeEPS4_PKhPjPKNS1_10WasmModuleERKNS1_12WasmFeaturesE(%"class.v8::internal::wasm::Decoder"* %157, i8* %158, i32* nonnull %159, %"struct.v8::internal::wasm::WasmModule"* null, %"class.v8::internal::wasm::WasmFeatures"* nonnull dereferenceable(4) %26) #11
  store i32 %178, i32* %160, align 4
  br label %181

179:                                              ; preds = %171
  store i32 12, i32* %160, align 4
  %180 = trunc i64 %172 to i32
  store i32 %180, i32* %161, align 8
  br label %181

181:                                              ; preds = %174, %177, %179
  call void @llvm.lifetime.end.p0i8(i64 4, i8* nonnull %155) #11
  %182 = bitcast i32* %27 to i8*
  call void @llvm.lifetime.start.p0i8(i64 4, i8* nonnull %182) #11
  %183 = load i32, i32* %159, align 8
  %184 = zext i32 %183 to i64
  %185 = getelementptr inbounds i8, i8* %158, i64 %184
  %186 = call i32 @_ZN2v88internal4wasm11WasmDecoderILNS1_7Decoder12ValidateFlagE0EE12DecodeLocalsEPKhPjNS_4base8OptionalIjEE(%"class.v8::internal::wasm::WasmDecoder.207"* %0, i8* %185, i32* nonnull %27, i64 0)
  %187 = load i32, i32* %159, align 8
  %188 = add i32 %187, 1
  %189 = icmp sgt i32 %186, -1
  %190 = load i32, i32* %27, align 4
  %191 = select i1 %189, i32 %190, i32 0
  %192 = add i32 %188, %191
  call void @llvm.lifetime.end.p0i8(i64 4, i8* nonnull %182) #11
  call void @llvm.lifetime.end.p0i8(i64 24, i8* nonnull %154) #11
  br label %871

193:                                              ; preds = %2, %2
  %194 = bitcast %"struct.v8::internal::wasm::CallFunctionImmediate"* %28 to i8*
  call void @llvm.lifetime.start.p0i8(i64 24, i8* nonnull %194) #11
  %195 = getelementptr inbounds i8, i8* %1, i64 1
  %196 = getelementptr inbounds %"struct.v8::internal::wasm::CallFunctionImmediate", %"struct.v8::internal::wasm::CallFunctionImmediate"* %28, i64 0, i32 2
  store %"class.v8::internal::Signature"* null, %"class.v8::internal::Signature"** %196, align 8
  %197 = getelementptr inbounds %"struct.v8::internal::wasm::CallFunctionImmediate", %"struct.v8::internal::wasm::CallFunctionImmediate"* %28, i64 0, i32 3
  %198 = load i8, i8* %195, align 1
  %199 = icmp slt i8 %198, 0
  br i1 %199, label %201, label %200

200:                                              ; preds = %193
  store i32 1, i32* %197, align 8
  br label %206

201:                                              ; preds = %193
  %202 = getelementptr inbounds %"class.v8::internal::wasm::WasmDecoder.207", %"class.v8::internal::wasm::WasmDecoder.207"* %0, i64 0, i32 0
  %203 = call i32 @_ZN2v88internal4wasm7Decoder17read_leb_slowpathIjLNS2_12ValidateFlagE0ELNS2_9TraceFlagE0ELm32EEET_PKhPjPKc(%"class.v8::internal::wasm::Decoder"* %202, i8* %195, i32* %197, i8* getelementptr inbounds ([15 x i8], [15 x i8]* @.str.1322, i64 0, i64 0)) #11
  %204 = load i32, i32* %197, align 8
  %205 = add i32 %204, 1
  br label %206

206:                                              ; preds = %200, %201
  %207 = phi i32 [ %205, %201 ], [ 2, %200 ]
  call void @llvm.lifetime.end.p0i8(i64 24, i8* nonnull %194) #11
  br label %871

208:                                              ; preds = %2, %2
  %209 = getelementptr inbounds %"class.v8::internal::wasm::WasmDecoder.207", %"class.v8::internal::wasm::WasmDecoder.207"* %0, i64 0, i32 0
  %210 = getelementptr inbounds i8, i8* %1, i64 1
  %211 = bitcast i32* %17 to i8*
  call void @llvm.lifetime.start.p0i8(i64 4, i8* nonnull %211) #11
  store i32 0, i32* %17, align 4
  %212 = load i8, i8* %210, align 1
  %213 = icmp slt i8 %212, 0
  br i1 %213, label %215, label %214

214:                                              ; preds = %208
  store i32 1, i32* %17, align 4
  br label %218

215:                                              ; preds = %208
  %216 = call i32 @_ZN2v88internal4wasm7Decoder17read_leb_slowpathIjLNS2_12ValidateFlagE0ELNS2_9TraceFlagE0ELm32EEET_PKhPjPKc(%"class.v8::internal::wasm::Decoder"* %209, i8* %210, i32* nonnull %17, i8* getelementptr inbounds ([16 x i8], [16 x i8]* @.str.1325, i64 0, i64 0)) #11
  %217 = load i32, i32* %17, align 4
  br label %218

218:                                              ; preds = %215, %214
  %219 = phi i32 [ %217, %215 ], [ 1, %214 ]
  %220 = bitcast %"struct.v8::internal::wasm::TableIndexImmediate.252"* %18 to i8*
  call void @llvm.lifetime.start.p0i8(i64 8, i8* nonnull %220) #11
  %221 = zext i32 %219 to i64
  %222 = getelementptr inbounds i8, i8* %210, i64 %221
  %223 = getelementptr inbounds %"struct.v8::internal::wasm::TableIndexImmediate.252", %"struct.v8::internal::wasm::TableIndexImmediate.252"* %18, i64 0, i32 0
  store i32 0, i32* %223, align 4
  %224 = getelementptr inbounds %"struct.v8::internal::wasm::TableIndexImmediate.252", %"struct.v8::internal::wasm::TableIndexImmediate.252"* %18, i64 0, i32 1
  store i32 1, i32* %224, align 4
  %225 = load i8, i8* %222, align 1
  %226 = icmp slt i8 %225, 0
  br i1 %226, label %228, label %227

227:                                              ; preds = %218
  store i32 1, i32* %224, align 4
  br label %233

228:                                              ; preds = %218
  %229 = call i32 @_ZN2v88internal4wasm7Decoder17read_leb_slowpathIjLNS2_12ValidateFlagE0ELNS2_9TraceFlagE0ELm32EEET_PKhPjPKc(%"class.v8::internal::wasm::Decoder"* %209, i8* %222, i32* %224, i8* getelementptr inbounds ([12 x i8], [12 x i8]* @.str.1327, i64 0, i64 0)) #11
  %230 = load i32, i32* %17, align 4
  %231 = load i32, i32* %224, align 4
  %232 = add i32 %231, 1
  br label %233

233:                                              ; preds = %227, %228
  %234 = phi i32 [ %232, %228 ], [ 2, %227 ]
  %235 = phi i32 [ %230, %228 ], [ %219, %227 ]
  call void @llvm.lifetime.end.p0i8(i64 8, i8* nonnull %220) #11
  call void @llvm.lifetime.end.p0i8(i64 4, i8* nonnull %211) #11
  %236 = add i32 %234, %235
  br label %871

237:                                              ; preds = %2
  %238 = bitcast %"struct.v8::internal::wasm::SelectTypeImmediate.248"* %29 to i8*
  call void @llvm.lifetime.start.p0i8(i64 8, i8* nonnull %238) #11
  %239 = bitcast %"class.v8::internal::wasm::WasmFeatures"* %30 to i8*
  call void @llvm.lifetime.start.p0i8(i64 4, i8* nonnull %239) #11
  %240 = getelementptr inbounds %"class.v8::internal::wasm::WasmFeatures", %"class.v8::internal::wasm::WasmFeatures"* %30, i64 0, i32 0, i32 0
  store i32 8191, i32* %240, align 4
  %241 = getelementptr inbounds %"class.v8::internal::wasm::WasmDecoder.207", %"class.v8::internal::wasm::WasmDecoder.207"* %0, i64 0, i32 0
  %242 = getelementptr inbounds i8, i8* %1, i64 1
  %243 = getelementptr inbounds %"struct.v8::internal::wasm::SelectTypeImmediate.248", %"struct.v8::internal::wasm::SelectTypeImmediate.248"* %29, i64 0, i32 1, i32 0
  store i32 0, i32* %243, align 4
  %244 = getelementptr inbounds %"struct.v8::internal::wasm::SelectTypeImmediate.248", %"struct.v8::internal::wasm::SelectTypeImmediate.248"* %29, i64 0, i32 0
  %245 = load i8, i8* %242, align 1
  %246 = icmp slt i8 %245, 0
  br i1 %246, label %248, label %247

247:                                              ; preds = %237
  store i32 1, i32* %244, align 4
  br label %252

248:                                              ; preds = %237
  %249 = call i32 @_ZN2v88internal4wasm7Decoder17read_leb_slowpathIjLNS2_12ValidateFlagE0ELNS2_9TraceFlagE0ELm32EEET_PKhPjPKc(%"class.v8::internal::wasm::Decoder"* %241, i8* %242, i32* nonnull %244, i8* getelementptr inbounds ([23 x i8], [23 x i8]* @.str.1346, i64 0, i64 0)) #11
  %250 = load i32, i32* %244, align 4
  %251 = zext i32 %250 to i64
  br label %252

252:                                              ; preds = %247, %248
  %253 = phi i64 [ %251, %248 ], [ 1, %247 ]
  %254 = bitcast i32* %16 to i8*
  call void @llvm.lifetime.start.p0i8(i64 4, i8* nonnull %254) #11
  %255 = getelementptr inbounds i8, i8* %242, i64 %253
  %256 = call i32 @_ZN2v88internal4wasm17value_type_reader15read_value_typeILNS1_7Decoder12ValidateFlagE0EEENS1_9ValueTypeEPS4_PKhPjPKNS1_10WasmModuleERKNS1_12WasmFeaturesE(%"class.v8::internal::wasm::Decoder"* %241, i8* %255, i32* nonnull %16, %"struct.v8::internal::wasm::WasmModule"* null, %"class.v8::internal::wasm::WasmFeatures"* nonnull dereferenceable(4) %30) #11
  store i32 %256, i32* %243, align 4
  %257 = load i32, i32* %16, align 4
  %258 = load i32, i32* %244, align 4
  %259 = add i32 %258, %257
  call void @llvm.lifetime.end.p0i8(i64 4, i8* nonnull %254) #11
  call void @llvm.lifetime.end.p0i8(i64 4, i8* nonnull %239) #11
  %260 = add i32 %259, 1
  call void @llvm.lifetime.end.p0i8(i64 8, i8* nonnull %238) #11
  br label %871

261:                                              ; preds = %2, %2, %2
  %262 = bitcast %"struct.v8::internal::wasm::LocalIndexImmediate.249"* %31 to i8*
  call void @llvm.lifetime.start.p0i8(i64 8, i8* nonnull %262) #11
  %263 = getelementptr inbounds i8, i8* %1, i64 1
  %264 = getelementptr inbounds %"struct.v8::internal::wasm::LocalIndexImmediate.249", %"struct.v8::internal::wasm::LocalIndexImmediate.249"* %31, i64 0, i32 1
  %265 = load i8, i8* %263, align 1
  %266 = icmp slt i8 %265, 0
  br i1 %266, label %268, label %267

267:                                              ; preds = %261
  store i32 1, i32* %264, align 4
  br label %273

268:                                              ; preds = %261
  %269 = getelementptr inbounds %"class.v8::internal::wasm::WasmDecoder.207", %"class.v8::internal::wasm::WasmDecoder.207"* %0, i64 0, i32 0
  %270 = call i32 @_ZN2v88internal4wasm7Decoder17read_leb_slowpathIjLNS2_12ValidateFlagE0ELNS2_9TraceFlagE0ELm32EEET_PKhPjPKc(%"class.v8::internal::wasm::Decoder"* %269, i8* %263, i32* %264, i8* getelementptr inbounds ([12 x i8], [12 x i8]* @.str.1283, i64 0, i64 0)) #11
  %271 = load i32, i32* %264, align 4
  %272 = add i32 %271, 1
  br label %273

273:                                              ; preds = %267, %268
  %274 = phi i32 [ %272, %268 ], [ 2, %267 ]
  call void @llvm.lifetime.end.p0i8(i64 8, i8* nonnull %262) #11
  br label %871

275:                                              ; preds = %2, %2
  %276 = bitcast %"struct.v8::internal::wasm::GlobalIndexImmediate.250"* %32 to i8*
  call void @llvm.lifetime.start.p0i8(i64 24, i8* nonnull %276) #11
  %277 = getelementptr inbounds i8, i8* %1, i64 1
  %278 = getelementptr inbounds %"struct.v8::internal::wasm::GlobalIndexImmediate.250", %"struct.v8::internal::wasm::GlobalIndexImmediate.250"* %32, i64 0, i32 1, i32 0
  store i32 0, i32* %278, align 4
  %279 = getelementptr inbounds %"struct.v8::internal::wasm::GlobalIndexImmediate.250", %"struct.v8::internal::wasm::GlobalIndexImmediate.250"* %32, i64 0, i32 2
  store %"struct.v8::internal::wasm::WasmGlobal"* null, %"struct.v8::internal::wasm::WasmGlobal"** %279, align 8
  %280 = getelementptr inbounds %"struct.v8::internal::wasm::GlobalIndexImmediate.250", %"struct.v8::internal::wasm::GlobalIndexImmediate.250"* %32, i64 0, i32 3
  %281 = load i8, i8* %277, align 1
  %282 = icmp slt i8 %281, 0
  br i1 %282, label %284, label %283

283:                                              ; preds = %275
  store i32 1, i32* %280, align 8
  br label %289

284:                                              ; preds = %275
  %285 = getelementptr inbounds %"class.v8::internal::wasm::WasmDecoder.207", %"class.v8::internal::wasm::WasmDecoder.207"* %0, i64 0, i32 0
  %286 = call i32 @_ZN2v88internal4wasm7Decoder17read_leb_slowpathIjLNS2_12ValidateFlagE0ELNS2_9TraceFlagE0ELm32EEET_PKhPjPKc(%"class.v8::internal::wasm::Decoder"* %285, i8* %277, i32* %280, i8* getelementptr inbounds ([13 x i8], [13 x i8]* @.str.1348, i64 0, i64 0)) #11
  %287 = load i32, i32* %280, align 8
  %288 = add i32 %287, 1
  br label %289

289:                                              ; preds = %283, %284
  %290 = phi i32 [ %288, %284 ], [ 2, %283 ]
  call void @llvm.lifetime.end.p0i8(i64 24, i8* nonnull %276) #11
  br label %871

291:                                              ; preds = %2, %2
  %292 = bitcast %"struct.v8::internal::wasm::TableIndexImmediate.252"* %33 to i8*
  call void @llvm.lifetime.start.p0i8(i64 8, i8* nonnull %292) #11
  %293 = getelementptr inbounds i8, i8* %1, i64 1
  %294 = getelementptr inbounds %"struct.v8::internal::wasm::TableIndexImmediate.252", %"struct.v8::internal::wasm::TableIndexImmediate.252"* %33, i64 0, i32 0
  store i32 0, i32* %294, align 4
  %295 = getelementptr inbounds %"struct.v8::internal::wasm::TableIndexImmediate.252", %"struct.v8::internal::wasm::TableIndexImmediate.252"* %33, i64 0, i32 1
  store i32 1, i32* %295, align 4
  %296 = load i8, i8* %293, align 1
  %297 = icmp slt i8 %296, 0
  br i1 %297, label %299, label %298

298:                                              ; preds = %291
  store i32 1, i32* %295, align 4
  br label %304

299:                                              ; preds = %291
  %300 = getelementptr inbounds %"class.v8::internal::wasm::WasmDecoder.207", %"class.v8::internal::wasm::WasmDecoder.207"* %0, i64 0, i32 0
  %301 = call i32 @_ZN2v88internal4wasm7Decoder17read_leb_slowpathIjLNS2_12ValidateFlagE0ELNS2_9TraceFlagE0ELm32EEET_PKhPjPKc(%"class.v8::internal::wasm::Decoder"* %300, i8* %293, i32* %295, i8* getelementptr inbounds ([12 x i8], [12 x i8]* @.str.1327, i64 0, i64 0)) #11
  %302 = load i32, i32* %295, align 4
  %303 = add i32 %302, 1
  br label %304

304:                                              ; preds = %298, %299
  %305 = phi i32 [ %303, %299 ], [ 2, %298 ]
  call void @llvm.lifetime.end.p0i8(i64 8, i8* nonnull %292) #11
  br label %871

306:                                              ; preds = %2
  %307 = bitcast %"struct.v8::internal::wasm::ImmI32Immediate.253"* %34 to i8*
  call void @llvm.lifetime.start.p0i8(i64 8, i8* nonnull %307) #11
  %308 = getelementptr inbounds i8, i8* %1, i64 1
  %309 = getelementptr inbounds %"struct.v8::internal::wasm::ImmI32Immediate.253", %"struct.v8::internal::wasm::ImmI32Immediate.253"* %34, i64 0, i32 1
  %310 = load i8, i8* %308, align 1
  %311 = icmp slt i8 %310, 0
  br i1 %311, label %313, label %312

312:                                              ; preds = %306
  store i32 1, i32* %309, align 4
  br label %318

313:                                              ; preds = %306
  %314 = getelementptr inbounds %"class.v8::internal::wasm::WasmDecoder.207", %"class.v8::internal::wasm::WasmDecoder.207"* %0, i64 0, i32 0
  %315 = call i32 @_ZN2v88internal4wasm7Decoder17read_leb_slowpathIiLNS2_12ValidateFlagE0ELNS2_9TraceFlagE0ELm32EEET_PKhPjPKc(%"class.v8::internal::wasm::Decoder"* %314, i8* %308, i32* %309, i8* getelementptr inbounds ([7 x i8], [7 x i8]* @.str.1285, i64 0, i64 0)) #11
  %316 = load i32, i32* %309, align 4
  %317 = add i32 %316, 1
  br label %318

318:                                              ; preds = %312, %313
  %319 = phi i32 [ %317, %313 ], [ 2, %312 ]
  call void @llvm.lifetime.end.p0i8(i64 8, i8* nonnull %307) #11
  br label %871

320:                                              ; preds = %2
  %321 = bitcast %"struct.v8::internal::wasm::ImmI64Immediate.254"* %35 to i8*
  call void @llvm.lifetime.start.p0i8(i64 16, i8* nonnull %321) #11
  %322 = getelementptr inbounds i8, i8* %1, i64 1
  %323 = getelementptr inbounds %"struct.v8::internal::wasm::ImmI64Immediate.254", %"struct.v8::internal::wasm::ImmI64Immediate.254"* %35, i64 0, i32 1
  %324 = load i8, i8* %322, align 1
  %325 = icmp slt i8 %324, 0
  br i1 %325, label %327, label %326

326:                                              ; preds = %320
  store i32 1, i32* %323, align 8
  br label %332

327:                                              ; preds = %320
  %328 = getelementptr inbounds %"class.v8::internal::wasm::WasmDecoder.207", %"class.v8::internal::wasm::WasmDecoder.207"* %0, i64 0, i32 0
  %329 = call i64 @_ZN2v88internal4wasm7Decoder17read_leb_slowpathIlLNS2_12ValidateFlagE0ELNS2_9TraceFlagE0ELm64EEET_PKhPjPKc(%"class.v8::internal::wasm::Decoder"* %328, i8* %322, i32* %323, i8* getelementptr inbounds ([7 x i8], [7 x i8]* @.str.1358, i64 0, i64 0)) #11
  %330 = load i32, i32* %323, align 8
  %331 = add i32 %330, 1
  br label %332

332:                                              ; preds = %326, %327
  %333 = phi i32 [ %331, %327 ], [ 2, %326 ]
  call void @llvm.lifetime.end.p0i8(i64 16, i8* nonnull %321) #11
  br label %871

334:                                              ; preds = %2
  br label %871

335:                                              ; preds = %2
  br label %871

336:                                              ; preds = %2
  %337 = bitcast %"struct.v8::internal::wasm::HeapTypeImmediate.256"* %36 to i8*
  call void @llvm.lifetime.start.p0i8(i64 8, i8* nonnull %337) #11
  %338 = getelementptr inbounds i8, i8* %1, i64 1
  %339 = getelementptr inbounds %"struct.v8::internal::wasm::HeapTypeImmediate.256", %"struct.v8::internal::wasm::HeapTypeImmediate.256"* %36, i64 0, i32 0
  store i32 1, i32* %339, align 4
  %340 = getelementptr inbounds %"struct.v8::internal::wasm::HeapTypeImmediate.256", %"struct.v8::internal::wasm::HeapTypeImmediate.256"* %36, i64 0, i32 1, i32 0
  store i32 1000006, i32* %340, align 4
  %341 = load i8, i8* %338, align 1
  %342 = icmp slt i8 %341, 0
  br i1 %342, label %347, label %343

343:                                              ; preds = %336
  store i32 1, i32* %339, align 4
  %344 = zext i8 %341 to i64
  %345 = shl i64 %344, 57
  %346 = ashr exact i64 %345, 57
  br label %350

347:                                              ; preds = %336
  %348 = getelementptr inbounds %"class.v8::internal::wasm::WasmDecoder.207", %"class.v8::internal::wasm::WasmDecoder.207"* %0, i64 0, i32 0
  %349 = call i64 @_ZN2v88internal4wasm7Decoder17read_leb_slowpathIlLNS2_12ValidateFlagE0ELNS2_9TraceFlagE0ELm33EEET_PKhPjPKc(%"class.v8::internal::wasm::Decoder"* %348, i8* %338, i32* nonnull %339, i8* getelementptr inbounds ([10 x i8], [10 x i8]* @.str.1273, i64 0, i64 0)) #11
  br label %350

350:                                              ; preds = %347, %343
  %351 = phi i64 [ %349, %347 ], [ %346, %343 ]
  %352 = icmp slt i64 %351, 0
  br i1 %352, label %353, label %361

353:                                              ; preds = %350
  %354 = trunc i64 %351 to i8
  %355 = and i8 %354, 127
  %356 = zext i8 %355 to i32
  switch i32 %356, label %360 [
    i32 112, label %357
    i32 109, label %357
    i32 111, label %357
    i32 106, label %357
    i32 103, label %357
    i32 110, label %357
  ]

357:                                              ; preds = %353, %353, %353, %353, %353, %353
  %358 = add nsw i8 %355, -103
  %359 = icmp ult i8 %358, 10
  br i1 %359, label %363, label %367

360:                                              ; preds = %353
  call void (i8*, ...) @_Z8V8_FatalPKcz(i8* getelementptr inbounds ([18 x i8], [18 x i8]* @.str.1242, i64 0, i64 0), i8* getelementptr inbounds ([80 x i8], [80 x i8]* @.str.1418, i64 0, i64 0)) #15
  unreachable

361:                                              ; preds = %350
  %362 = trunc i64 %351 to i32
  br label %367

363:                                              ; preds = %357
  %364 = sext i8 %358 to i64
  %365 = getelementptr inbounds [10 x i32], [10 x i32]* @switch.table._ZN2v88internal4wasm11WasmDecoderILNS1_7Decoder12ValidateFlagE0EE12OpcodeLengthEPS5_PKh, i64 0, i64 %364
  %366 = load i32, i32* %365, align 4
  br label %367

367:                                              ; preds = %357, %363, %361
  %368 = phi i32 [ %362, %361 ], [ %366, %363 ], [ 1000006, %357 ]
  store i32 %368, i32* %340, align 4
  %369 = load i32, i32* %339, align 4
  %370 = add i32 %369, 1
  call void @llvm.lifetime.end.p0i8(i64 8, i8* nonnull %337) #11
  br label %871

371:                                              ; preds = %2
  %372 = bitcast %"struct.v8::internal::wasm::FunctionIndexImmediate.257"* %37 to i8*
  call void @llvm.lifetime.start.p0i8(i64 8, i8* nonnull %372) #11
  %373 = getelementptr inbounds i8, i8* %1, i64 1
  %374 = getelementptr inbounds %"struct.v8::internal::wasm::FunctionIndexImmediate.257", %"struct.v8::internal::wasm::FunctionIndexImmediate.257"* %37, i64 0, i32 0
  store i32 0, i32* %374, align 4
  %375 = getelementptr inbounds %"struct.v8::internal::wasm::FunctionIndexImmediate.257", %"struct.v8::internal::wasm::FunctionIndexImmediate.257"* %37, i64 0, i32 1
  store i32 1, i32* %375, align 4
  %376 = load i8, i8* %373, align 1
  %377 = icmp slt i8 %376, 0
  br i1 %377, label %379, label %378

378:                                              ; preds = %371
  store i32 1, i32* %375, align 4
  br label %384

379:                                              ; preds = %371
  %380 = getelementptr inbounds %"class.v8::internal::wasm::WasmDecoder.207", %"class.v8::internal::wasm::WasmDecoder.207"* %0, i64 0, i32 0
  %381 = call i32 @_ZN2v88internal4wasm7Decoder17read_leb_slowpathIjLNS2_12ValidateFlagE0ELNS2_9TraceFlagE0ELm32EEET_PKhPjPKc(%"class.v8::internal::wasm::Decoder"* %380, i8* %373, i32* %375, i8* getelementptr inbounds ([15 x i8], [15 x i8]* @.str.1322, i64 0, i64 0)) #11
  %382 = load i32, i32* %375, align 4
  %383 = add i32 %382, 1
  br label %384

384:                                              ; preds = %378, %379
  %385 = phi i32 [ %383, %379 ], [ 2, %378 ]
  call void @llvm.lifetime.end.p0i8(i64 8, i8* nonnull %372) #11
  br label %871

386:                                              ; preds = %2, %2, %2, %2, %2, %2, %2, %2, %2, %2, %2, %2, %2, %2, %2, %2, %2, %2, %2, %2, %2, %2, %2
  %387 = getelementptr inbounds %"class.v8::internal::wasm::WasmDecoder.207", %"class.v8::internal::wasm::WasmDecoder.207"* %0, i64 0, i32 0
  %388 = getelementptr inbounds i8, i8* %1, i64 1
  %389 = bitcast i32* %14 to i8*
  call void @llvm.lifetime.start.p0i8(i64 4, i8* nonnull %389) #11
  %390 = load i8, i8* %388, align 1
  %391 = icmp slt i8 %390, 0
  br i1 %391, label %393, label %392

392:                                              ; preds = %386
  store i32 1, i32* %14, align 4
  br label %397

393:                                              ; preds = %386
  %394 = call i32 @_ZN2v88internal4wasm7Decoder17read_leb_slowpathIjLNS2_12ValidateFlagE0ELNS2_9TraceFlagE0ELm32EEET_PKhPjPKc(%"class.v8::internal::wasm::Decoder"* %387, i8* %388, i32* nonnull %14, i8* getelementptr inbounds ([10 x i8], [10 x i8]* @.str.1353, i64 0, i64 0)) #11
  %395 = load i32, i32* %14, align 4
  %396 = zext i32 %395 to i64
  br label %397

397:                                              ; preds = %393, %392
  %398 = phi i32 [ %395, %393 ], [ 1, %392 ]
  %399 = phi i64 [ %396, %393 ], [ 1, %392 ]
  %400 = bitcast i32* %15 to i8*
  call void @llvm.lifetime.start.p0i8(i64 4, i8* nonnull %400) #11
  %401 = getelementptr inbounds i8, i8* %388, i64 %399
  %402 = load i8, i8* %401, align 1
  %403 = icmp slt i8 %402, 0
  br i1 %403, label %405, label %404

404:                                              ; preds = %397
  store i32 1, i32* %15, align 4
  br label %409

405:                                              ; preds = %397
  %406 = call i64 @_ZN2v88internal4wasm7Decoder17read_leb_slowpathImLNS2_12ValidateFlagE0ELNS2_9TraceFlagE0ELm64EEET_PKhPjPKc(%"class.v8::internal::wasm::Decoder"* %387, i8* %401, i32* nonnull %15, i8* getelementptr inbounds ([7 x i8], [7 x i8]* @.str.1355, i64 0, i64 0)) #11
  %407 = load i32, i32* %14, align 4
  %408 = load i32, i32* %15, align 4
  br label %409

409:                                              ; preds = %404, %405
  %410 = phi i32 [ 1, %404 ], [ %408, %405 ]
  %411 = phi i32 [ %398, %404 ], [ %407, %405 ]
  call void @llvm.lifetime.end.p0i8(i64 4, i8* nonnull %400) #11
  call void @llvm.lifetime.end.p0i8(i64 4, i8* nonnull %389) #11
  %412 = add i32 %411, 1
  %413 = add i32 %412, %410
  br label %871

414:                                              ; preds = %2, %2
  br label %871

415:                                              ; preds = %2
  %416 = bitcast i32* %38 to i8*
  call void @llvm.lifetime.start.p0i8(i64 4, i8* nonnull %416) #11
  store i32 0, i32* %38, align 4
  %417 = getelementptr inbounds %"class.v8::internal::wasm::WasmDecoder.207", %"class.v8::internal::wasm::WasmDecoder.207"* %0, i64 0, i32 0
  %418 = getelementptr inbounds i8, i8* %1, i64 1
  %419 = load i8, i8* %418, align 1
  %420 = icmp slt i8 %419, 0
  br i1 %420, label %423, label %421

421:                                              ; preds = %415
  store i32 1, i32* %38, align 4
  %422 = zext i8 %419 to i32
  br label %428

423:                                              ; preds = %415
  %424 = call i32 @_ZN2v88internal4wasm7Decoder17read_leb_slowpathIjLNS2_12ValidateFlagE0ELNS2_9TraceFlagE0ELm32EEET_PKhPjPKc(%"class.v8::internal::wasm::Decoder"* %417, i8* %418, i32* nonnull %38, i8* getelementptr inbounds ([22 x i8], [22 x i8]* @.str.42, i64 0, i64 0)) #11
  %425 = load i32, i32* %38, align 4
  %426 = add i32 %425, 1
  %427 = load i8, i8* %1, align 1
  br label %428

428:                                              ; preds = %421, %423
  %429 = phi i8 [ %427, %423 ], [ -4, %421 ]
  %430 = phi i32 [ %426, %423 ], [ 2, %421 ]
  %431 = phi i32 [ %424, %423 ], [ %422, %421 ]
  store i32 %430, i32* %38, align 4
  %432 = zext i8 %429 to i32
  %433 = shl nuw nsw i32 %432, 8
  %434 = or i32 %433, %431
  switch i32 %434, label %575 [
    i32 64529, label %558
    i32 64528, label %558
    i32 64527, label %558
    i32 64526, label %521
    i32 64525, label %505
    i32 64524, label %471
    i32 64523, label %469
    i32 64522, label %467
    i32 64520, label %435
    i32 64521, label %451
  ]

435:                                              ; preds = %428
  %436 = zext i32 %430 to i64
  %437 = getelementptr inbounds i8, i8* %1, i64 %436
  %438 = bitcast i32* %13 to i8*
  call void @llvm.lifetime.start.p0i8(i64 4, i8* nonnull %438) #11
  store i32 0, i32* %13, align 4
  %439 = load i8, i8* %437, align 1
  %440 = icmp slt i8 %439, 0
  br i1 %440, label %442, label %441

441:                                              ; preds = %435
  store i32 1, i32* %13, align 4
  br label %447

442:                                              ; preds = %435
  %443 = call i32 @_ZN2v88internal4wasm7Decoder17read_leb_slowpathIjLNS2_12ValidateFlagE0ELNS2_9TraceFlagE0ELm32EEET_PKhPjPKc(%"class.v8::internal::wasm::Decoder"* %417, i8* %437, i32* nonnull %13, i8* getelementptr inbounds ([19 x i8], [19 x i8]* @.str.1396, i64 0, i64 0)) #11
  %444 = load i32, i32* %13, align 4
  %445 = add i32 %444, 1
  %446 = load i32, i32* %38, align 4
  br label %447

447:                                              ; preds = %441, %442
  %448 = phi i32 [ %446, %442 ], [ %430, %441 ]
  %449 = phi i32 [ %445, %442 ], [ 2, %441 ]
  call void @llvm.lifetime.end.p0i8(i64 4, i8* nonnull %438) #11
  %450 = add i32 %448, %449
  br label %575

451:                                              ; preds = %428
  %452 = bitcast %"struct.v8::internal::wasm::DataDropImmediate.262"* %39 to i8*
  call void @llvm.lifetime.start.p0i8(i64 8, i8* nonnull %452) #11
  %453 = zext i32 %430 to i64
  %454 = getelementptr inbounds i8, i8* %1, i64 %453
  %455 = getelementptr inbounds %"struct.v8::internal::wasm::DataDropImmediate.262", %"struct.v8::internal::wasm::DataDropImmediate.262"* %39, i64 0, i32 1
  %456 = load i8, i8* %454, align 1
  %457 = icmp slt i8 %456, 0
  br i1 %457, label %459, label %458

458:                                              ; preds = %451
  store i32 1, i32* %455, align 4
  br label %463

459:                                              ; preds = %451
  %460 = call i32 @_ZN2v88internal4wasm7Decoder17read_leb_slowpathIjLNS2_12ValidateFlagE0ELNS2_9TraceFlagE0ELm32EEET_PKhPjPKc(%"class.v8::internal::wasm::Decoder"* %417, i8* %454, i32* %455, i8* getelementptr inbounds ([19 x i8], [19 x i8]* @.str.1396, i64 0, i64 0)) #11
  %461 = load i32, i32* %38, align 4
  %462 = load i32, i32* %455, align 4
  br label %463

463:                                              ; preds = %458, %459
  %464 = phi i32 [ %462, %459 ], [ 1, %458 ]
  %465 = phi i32 [ %461, %459 ], [ %430, %458 ]
  %466 = add i32 %464, %465
  call void @llvm.lifetime.end.p0i8(i64 8, i8* nonnull %452) #11
  br label %575

467:                                              ; preds = %428
  %468 = add i32 %430, 2
  br label %575

469:                                              ; preds = %428
  %470 = add i32 %430, 1
  br label %575

471:                                              ; preds = %428
  %472 = zext i32 %430 to i64
  %473 = getelementptr inbounds i8, i8* %1, i64 %472
  %474 = bitcast i64* %12 to %"struct.v8::internal::wasm::TableIndexImmediate.252"*
  %475 = bitcast i32* %11 to i8*
  call void @llvm.lifetime.start.p0i8(i64 4, i8* nonnull %475) #11
  store i32 0, i32* %11, align 4
  %476 = load i8, i8* %473, align 1
  %477 = icmp slt i8 %476, 0
  br i1 %477, label %479, label %478

478:                                              ; preds = %471
  store i32 1, i32* %11, align 4
  br label %482

479:                                              ; preds = %471
  %480 = call i32 @_ZN2v88internal4wasm7Decoder17read_leb_slowpathIjLNS2_12ValidateFlagE0ELNS2_9TraceFlagE0ELm32EEET_PKhPjPKc(%"class.v8::internal::wasm::Decoder"* %417, i8* %473, i32* nonnull %11, i8* getelementptr inbounds ([19 x i8], [19 x i8]* @.str.1398, i64 0, i64 0)) #11
  %481 = load i32, i32* %11, align 4
  br label %482

482:                                              ; preds = %479, %478
  %483 = phi i32 [ %481, %479 ], [ 1, %478 ]
  %484 = bitcast i64* %12 to i8*
  call void @llvm.lifetime.start.p0i8(i64 8, i8* nonnull %484) #11
  %485 = zext i32 %483 to i64
  %486 = getelementptr inbounds i8, i8* %473, i64 %485
  %487 = bitcast i64* %12 to i32*
  store i32 0, i32* %487, align 8
  %488 = getelementptr inbounds %"struct.v8::internal::wasm::TableIndexImmediate.252", %"struct.v8::internal::wasm::TableIndexImmediate.252"* %474, i64 0, i32 1
  store i32 1, i32* %488, align 4
  %489 = load i8, i8* %486, align 1
  %490 = icmp slt i8 %489, 0
  br i1 %490, label %493, label %491

491:                                              ; preds = %482
  store i32 1, i32* %488, align 4
  %492 = zext i8 %489 to i32
  br label %496

493:                                              ; preds = %482
  %494 = call i32 @_ZN2v88internal4wasm7Decoder17read_leb_slowpathIjLNS2_12ValidateFlagE0ELNS2_9TraceFlagE0ELm32EEET_PKhPjPKc(%"class.v8::internal::wasm::Decoder"* %417, i8* %486, i32* %488, i8* getelementptr inbounds ([12 x i8], [12 x i8]* @.str.1327, i64 0, i64 0)) #11
  %495 = load i32, i32* %11, align 4
  br label %496

496:                                              ; preds = %491, %493
  %497 = phi i32 [ %495, %493 ], [ %483, %491 ]
  %498 = phi i32 [ %494, %493 ], [ %492, %491 ]
  store i32 %498, i32* %487, align 8
  %499 = load i64, i64* %12, align 8
  %500 = lshr i64 %499, 32
  call void @llvm.lifetime.end.p0i8(i64 8, i8* nonnull %484) #11
  %501 = trunc i64 %500 to i32
  %502 = add i32 %497, %501
  call void @llvm.lifetime.end.p0i8(i64 4, i8* nonnull %475) #11
  %503 = load i32, i32* %38, align 4
  %504 = add i32 %502, %503
  br label %575

505:                                              ; preds = %428
  %506 = bitcast %"struct.v8::internal::wasm::ElemDropImmediate.265"* %40 to i8*
  call void @llvm.lifetime.start.p0i8(i64 8, i8* nonnull %506) #11
  %507 = zext i32 %430 to i64
  %508 = getelementptr inbounds i8, i8* %1, i64 %507
  %509 = getelementptr inbounds %"struct.v8::internal::wasm::ElemDropImmediate.265", %"struct.v8::internal::wasm::ElemDropImmediate.265"* %40, i64 0, i32 1
  %510 = load i8, i8* %508, align 1
  %511 = icmp slt i8 %510, 0
  br i1 %511, label %513, label %512

512:                                              ; preds = %505
  store i32 1, i32* %509, align 4
  br label %517

513:                                              ; preds = %505
  %514 = call i32 @_ZN2v88internal4wasm7Decoder17read_leb_slowpathIjLNS2_12ValidateFlagE0ELNS2_9TraceFlagE0ELm32EEET_PKhPjPKc(%"class.v8::internal::wasm::Decoder"* %417, i8* %508, i32* %509, i8* getelementptr inbounds ([19 x i8], [19 x i8]* @.str.1398, i64 0, i64 0)) #11
  %515 = load i32, i32* %38, align 4
  %516 = load i32, i32* %509, align 4
  br label %517

517:                                              ; preds = %512, %513
  %518 = phi i32 [ %516, %513 ], [ 1, %512 ]
  %519 = phi i32 [ %515, %513 ], [ %430, %512 ]
  %520 = add i32 %518, %519
  call void @llvm.lifetime.end.p0i8(i64 8, i8* nonnull %506) #11
  br label %575

521:                                              ; preds = %428
  %522 = zext i32 %430 to i64
  %523 = getelementptr inbounds i8, i8* %1, i64 %522
  %524 = bitcast i64* %9 to %"struct.v8::internal::wasm::TableIndexImmediate.252"*
  %525 = bitcast i64* %10 to %"struct.v8::internal::wasm::TableIndexImmediate.252"*
  %526 = bitcast i64* %9 to i8*
  call void @llvm.lifetime.start.p0i8(i64 8, i8* nonnull %526) #11
  %527 = bitcast i64* %9 to i32*
  store i32 0, i32* %527, align 8
  %528 = getelementptr inbounds %"struct.v8::internal::wasm::TableIndexImmediate.252", %"struct.v8::internal::wasm::TableIndexImmediate.252"* %524, i64 0, i32 1
  store i32 1, i32* %528, align 4
  %529 = load i8, i8* %523, align 1
  %530 = icmp slt i8 %529, 0
  br i1 %530, label %533, label %531

531:                                              ; preds = %521
  store i32 1, i32* %528, align 4
  %532 = zext i8 %529 to i32
  br label %535

533:                                              ; preds = %521
  %534 = call i32 @_ZN2v88internal4wasm7Decoder17read_leb_slowpathIjLNS2_12ValidateFlagE0ELNS2_9TraceFlagE0ELm32EEET_PKhPjPKc(%"class.v8::internal::wasm::Decoder"* %417, i8* %523, i32* %528, i8* getelementptr inbounds ([12 x i8], [12 x i8]* @.str.1327, i64 0, i64 0)) #11
  br label %535

535:                                              ; preds = %533, %531
  %536 = phi i32 [ %534, %533 ], [ %532, %531 ]
  store i32 %536, i32* %527, align 8
  %537 = load i64, i64* %9, align 8
  %538 = lshr i64 %537, 32
  %539 = trunc i64 %538 to i32
  call void @llvm.lifetime.end.p0i8(i64 8, i8* nonnull %526) #11
  %540 = bitcast i64* %10 to i8*
  call void @llvm.lifetime.start.p0i8(i64 8, i8* nonnull %540) #11
  %541 = getelementptr inbounds i8, i8* %523, i64 %538
  %542 = bitcast i64* %10 to i32*
  store i32 0, i32* %542, align 8
  %543 = getelementptr inbounds %"struct.v8::internal::wasm::TableIndexImmediate.252", %"struct.v8::internal::wasm::TableIndexImmediate.252"* %525, i64 0, i32 1
  store i32 1, i32* %543, align 4
  %544 = load i8, i8* %541, align 1
  %545 = icmp slt i8 %544, 0
  br i1 %545, label %548, label %546

546:                                              ; preds = %535
  store i32 1, i32* %543, align 4
  %547 = zext i8 %544 to i32
  br label %550

548:                                              ; preds = %535
  %549 = call i32 @_ZN2v88internal4wasm7Decoder17read_leb_slowpathIjLNS2_12ValidateFlagE0ELNS2_9TraceFlagE0ELm32EEET_PKhPjPKc(%"class.v8::internal::wasm::Decoder"* %417, i8* %541, i32* %543, i8* getelementptr inbounds ([12 x i8], [12 x i8]* @.str.1327, i64 0, i64 0)) #11
  br label %550

550:                                              ; preds = %546, %548
  %551 = phi i32 [ %549, %548 ], [ %547, %546 ]
  store i32 %551, i32* %542, align 8
  %552 = load i64, i64* %10, align 8
  %553 = lshr i64 %552, 32
  call void @llvm.lifetime.end.p0i8(i64 8, i8* nonnull %540) #11
  %554 = trunc i64 %553 to i32
  %555 = add i32 %554, %539
  %556 = load i32, i32* %38, align 4
  %557 = add i32 %555, %556
  br label %575

558:                                              ; preds = %428, %428, %428
  %559 = bitcast %"struct.v8::internal::wasm::TableIndexImmediate.252"* %41 to i8*
  call void @llvm.lifetime.start.p0i8(i64 8, i8* nonnull %559) #11
  %560 = zext i32 %430 to i64
  %561 = getelementptr inbounds i8, i8* %1, i64 %560
  %562 = getelementptr inbounds %"struct.v8::internal::wasm::TableIndexImmediate.252", %"struct.v8::internal::wasm::TableIndexImmediate.252"* %41, i64 0, i32 0
  store i32 0, i32* %562, align 4
  %563 = getelementptr inbounds %"struct.v8::internal::wasm::TableIndexImmediate.252", %"struct.v8::internal::wasm::TableIndexImmediate.252"* %41, i64 0, i32 1
  store i32 1, i32* %563, align 4
  %564 = load i8, i8* %561, align 1
  %565 = icmp slt i8 %564, 0
  br i1 %565, label %567, label %566

566:                                              ; preds = %558
  store i32 1, i32* %563, align 4
  br label %571

567:                                              ; preds = %558
  %568 = call i32 @_ZN2v88internal4wasm7Decoder17read_leb_slowpathIjLNS2_12ValidateFlagE0ELNS2_9TraceFlagE0ELm32EEET_PKhPjPKc(%"class.v8::internal::wasm::Decoder"* %417, i8* %561, i32* %563, i8* getelementptr inbounds ([12 x i8], [12 x i8]* @.str.1327, i64 0, i64 0)) #11
  %569 = load i32, i32* %38, align 4
  %570 = load i32, i32* %563, align 4
  br label %571

571:                                              ; preds = %566, %567
  %572 = phi i32 [ %570, %567 ], [ 1, %566 ]
  %573 = phi i32 [ %569, %567 ], [ %430, %566 ]
  %574 = add i32 %572, %573
  call void @llvm.lifetime.end.p0i8(i64 8, i8* nonnull %559) #11
  br label %575

575:                                              ; preds = %428, %571, %550, %517, %496, %469, %467, %463, %447
  %576 = phi i32 [ %574, %571 ], [ %557, %550 ], [ %520, %517 ], [ %504, %496 ], [ %470, %469 ], [ %468, %467 ], [ %466, %463 ], [ %450, %447 ], [ %430, %428 ]
  call void @llvm.lifetime.end.p0i8(i64 4, i8* nonnull %416) #11
  br label %871

577:                                              ; preds = %2
  %578 = bitcast i32* %42 to i8*
  call void @llvm.lifetime.start.p0i8(i64 4, i8* nonnull %578) #11
  store i32 0, i32* %42, align 4
  %579 = getelementptr inbounds %"class.v8::internal::wasm::WasmDecoder.207", %"class.v8::internal::wasm::WasmDecoder.207"* %0, i64 0, i32 0
  %580 = getelementptr inbounds i8, i8* %1, i64 1
  %581 = load i8, i8* %580, align 1
  %582 = icmp slt i8 %581, 0
  br i1 %582, label %585, label %583

583:                                              ; preds = %577
  store i32 1, i32* %42, align 4
  %584 = zext i8 %581 to i32
  br label %592

585:                                              ; preds = %577
  %586 = call i32 @_ZN2v88internal4wasm7Decoder17read_leb_slowpathIjLNS2_12ValidateFlagE0ELNS2_9TraceFlagE0ELm32EEET_PKhPjPKc(%"class.v8::internal::wasm::Decoder"* %579, i8* %580, i32* nonnull %42, i8* getelementptr inbounds ([22 x i8], [22 x i8]* @.str.42, i64 0, i64 0)) #11
  %587 = load i32, i32* %42, align 4
  %588 = add i32 %587, 1
  %589 = load i8, i8* %1, align 1
  %590 = zext i8 %589 to i32
  %591 = shl nuw nsw i32 %590, 8
  br label %592

592:                                              ; preds = %583, %585
  %593 = phi i32 [ %591, %585 ], [ 64768, %583 ]
  %594 = phi i32 [ %588, %585 ], [ 2, %583 ]
  %595 = phi i32 [ %586, %585 ], [ %584, %583 ]
  store i32 %594, i32* %42, align 4
  %596 = or i32 %593, %595
  switch i32 %596, label %660 [
    i32 64781, label %658
    i32 64780, label %658
    i32 64859, label %628
    i32 64858, label %628
    i32 64857, label %628
    i32 64856, label %628
    i32 64855, label %628
    i32 64854, label %628
    i32 64853, label %628
    i32 64852, label %628
    i32 64861, label %599
    i32 64860, label %599
    i32 64779, label %599
    i32 64778, label %599
    i32 64777, label %599
    i32 64776, label %599
    i32 64775, label %599
    i32 64774, label %599
    i32 64773, label %599
    i32 64772, label %599
    i32 64771, label %599
    i32 64770, label %599
    i32 64769, label %599
    i32 64768, label %599
    i32 64802, label %597
    i32 64800, label %597
    i32 64798, label %597
    i32 64796, label %597
    i32 64794, label %597
    i32 64791, label %597
    i32 64801, label %597
    i32 64799, label %597
    i32 64797, label %597
    i32 64795, label %597
    i32 64793, label %597
    i32 64792, label %597
    i32 64790, label %597
    i32 64789, label %597
  ]

597:                                              ; preds = %592, %592, %592, %592, %592, %592, %592, %592, %592, %592, %592, %592, %592, %592
  %598 = add i32 %594, 1
  br label %660

599:                                              ; preds = %592, %592, %592, %592, %592, %592, %592, %592, %592, %592, %592, %592, %592, %592
  %600 = zext i32 %594 to i64
  %601 = getelementptr inbounds i8, i8* %1, i64 %600
  %602 = bitcast i32* %7 to i8*
  call void @llvm.lifetime.start.p0i8(i64 4, i8* nonnull %602) #11
  %603 = load i8, i8* %601, align 1
  %604 = icmp slt i8 %603, 0
  br i1 %604, label %606, label %605

605:                                              ; preds = %599
  store i32 1, i32* %7, align 4
  br label %610

606:                                              ; preds = %599
  %607 = call i32 @_ZN2v88internal4wasm7Decoder17read_leb_slowpathIjLNS2_12ValidateFlagE0ELNS2_9TraceFlagE0ELm32EEET_PKhPjPKc(%"class.v8::internal::wasm::Decoder"* %579, i8* %601, i32* nonnull %7, i8* getelementptr inbounds ([10 x i8], [10 x i8]* @.str.1353, i64 0, i64 0)) #11
  %608 = load i32, i32* %7, align 4
  %609 = zext i32 %608 to i64
  br label %610

610:                                              ; preds = %606, %605
  %611 = phi i32 [ %608, %606 ], [ 1, %605 ]
  %612 = phi i64 [ %609, %606 ], [ 1, %605 ]
  %613 = bitcast i32* %8 to i8*
  call void @llvm.lifetime.start.p0i8(i64 4, i8* nonnull %613) #11
  %614 = getelementptr inbounds i8, i8* %601, i64 %612
  %615 = load i8, i8* %614, align 1
  %616 = icmp slt i8 %615, 0
  br i1 %616, label %618, label %617

617:                                              ; preds = %610
  store i32 1, i32* %8, align 4
  br label %622

618:                                              ; preds = %610
  %619 = call i64 @_ZN2v88internal4wasm7Decoder17read_leb_slowpathImLNS2_12ValidateFlagE0ELNS2_9TraceFlagE0ELm64EEET_PKhPjPKc(%"class.v8::internal::wasm::Decoder"* %579, i8* %614, i32* nonnull %8, i8* getelementptr inbounds ([7 x i8], [7 x i8]* @.str.1355, i64 0, i64 0)) #11
  %620 = load i32, i32* %7, align 4
  %621 = load i32, i32* %8, align 4
  br label %622

622:                                              ; preds = %617, %618
  %623 = phi i32 [ 1, %617 ], [ %621, %618 ]
  %624 = phi i32 [ %611, %617 ], [ %620, %618 ]
  %625 = add i32 %623, %624
  call void @llvm.lifetime.end.p0i8(i64 4, i8* nonnull %613) #11
  call void @llvm.lifetime.end.p0i8(i64 4, i8* nonnull %602) #11
  %626 = load i32, i32* %42, align 4
  %627 = add i32 %625, %626
  br label %660

628:                                              ; preds = %592, %592, %592, %592, %592, %592, %592, %592
  %629 = zext i32 %594 to i64
  %630 = getelementptr inbounds i8, i8* %1, i64 %629
  %631 = bitcast i32* %5 to i8*
  call void @llvm.lifetime.start.p0i8(i64 4, i8* nonnull %631) #11
  %632 = load i8, i8* %630, align 1
  %633 = icmp slt i8 %632, 0
  br i1 %633, label %635, label %634

634:                                              ; preds = %628
  store i32 1, i32* %5, align 4
  br label %639

635:                                              ; preds = %628
  %636 = call i32 @_ZN2v88internal4wasm7Decoder17read_leb_slowpathIjLNS2_12ValidateFlagE0ELNS2_9TraceFlagE0ELm32EEET_PKhPjPKc(%"class.v8::internal::wasm::Decoder"* %579, i8* %630, i32* nonnull %5, i8* getelementptr inbounds ([10 x i8], [10 x i8]* @.str.1353, i64 0, i64 0)) #11
  %637 = load i32, i32* %5, align 4
  %638 = zext i32 %637 to i64
  br label %639

639:                                              ; preds = %635, %634
  %640 = phi i32 [ %637, %635 ], [ 1, %634 ]
  %641 = phi i64 [ %638, %635 ], [ 1, %634 ]
  %642 = bitcast i32* %6 to i8*
  call void @llvm.lifetime.start.p0i8(i64 4, i8* nonnull %642) #11
  %643 = getelementptr inbounds i8, i8* %630, i64 %641
  %644 = load i8, i8* %643, align 1
  %645 = icmp slt i8 %644, 0
  br i1 %645, label %647, label %646

646:                                              ; preds = %639
  store i32 1, i32* %6, align 4
  br label %651

647:                                              ; preds = %639
  %648 = call i64 @_ZN2v88internal4wasm7Decoder17read_leb_slowpathImLNS2_12ValidateFlagE0ELNS2_9TraceFlagE0ELm64EEET_PKhPjPKc(%"class.v8::internal::wasm::Decoder"* %579, i8* %643, i32* nonnull %6, i8* getelementptr inbounds ([7 x i8], [7 x i8]* @.str.1355, i64 0, i64 0)) #11
  %649 = load i32, i32* %5, align 4
  %650 = load i32, i32* %6, align 4
  br label %651

651:                                              ; preds = %646, %647
  %652 = phi i32 [ 1, %646 ], [ %650, %647 ]
  %653 = phi i32 [ %640, %646 ], [ %649, %647 ]
  call void @llvm.lifetime.end.p0i8(i64 4, i8* nonnull %642) #11
  call void @llvm.lifetime.end.p0i8(i64 4, i8* nonnull %631) #11
  %654 = load i32, i32* %42, align 4
  %655 = add i32 %653, 1
  %656 = add i32 %655, %652
  %657 = add i32 %656, %654
  br label %660

658:                                              ; preds = %592, %592
  %659 = add i32 %594, 16
  br label %660

660:                                              ; preds = %592, %658, %651, %622, %597
  %661 = phi i32 [ %659, %658 ], [ %657, %651 ], [ %627, %622 ], [ %598, %597 ], [ %594, %592 ]
  call void @llvm.lifetime.end.p0i8(i64 4, i8* nonnull %578) #11
  br label %871

662:                                              ; preds = %2
  %663 = bitcast i32* %43 to i8*
  call void @llvm.lifetime.start.p0i8(i64 4, i8* nonnull %663) #11
  store i32 0, i32* %43, align 4
  %664 = getelementptr inbounds %"class.v8::internal::wasm::WasmDecoder.207", %"class.v8::internal::wasm::WasmDecoder.207"* %0, i64 0, i32 0
  %665 = getelementptr inbounds i8, i8* %1, i64 1
  %666 = load i8, i8* %665, align 1
  %667 = icmp slt i8 %666, 0
  br i1 %667, label %670, label %668

668:                                              ; preds = %662
  store i32 1, i32* %43, align 4
  %669 = zext i8 %666 to i32
  br label %677

670:                                              ; preds = %662
  %671 = call i32 @_ZN2v88internal4wasm7Decoder17read_leb_slowpathIjLNS2_12ValidateFlagE0ELNS2_9TraceFlagE0ELm32EEET_PKhPjPKc(%"class.v8::internal::wasm::Decoder"* %664, i8* %665, i32* nonnull %43, i8* getelementptr inbounds ([22 x i8], [22 x i8]* @.str.42, i64 0, i64 0)) #11
  %672 = load i32, i32* %43, align 4
  %673 = add i32 %672, 1
  %674 = load i8, i8* %1, align 1
  %675 = zext i8 %674 to i32
  %676 = shl nuw nsw i32 %675, 8
  br label %677

677:                                              ; preds = %668, %670
  %678 = phi i32 [ %676, %670 ], [ 65024, %668 ]
  %679 = phi i32 [ %673, %670 ], [ 2, %668 ]
  %680 = phi i32 [ %671, %670 ], [ %669, %668 ]
  store i32 %679, i32* %43, align 4
  %681 = or i32 %678, %680
  switch i32 %681, label %713 [
    i32 65024, label %682
    i32 65025, label %682
    i32 65026, label %682
    i32 65040, label %682
    i32 65041, label %682
    i32 65042, label %682
    i32 65043, label %682
    i32 65044, label %682
    i32 65045, label %682
    i32 65046, label %682
    i32 65047, label %682
    i32 65048, label %682
    i32 65049, label %682
    i32 65050, label %682
    i32 65051, label %682
    i32 65052, label %682
    i32 65053, label %682
    i32 65054, label %682
    i32 65055, label %682
    i32 65056, label %682
    i32 65057, label %682
    i32 65058, label %682
    i32 65059, label %682
    i32 65060, label %682
    i32 65061, label %682
    i32 65062, label %682
    i32 65063, label %682
    i32 65064, label %682
    i32 65065, label %682
    i32 65066, label %682
    i32 65067, label %682
    i32 65068, label %682
    i32 65069, label %682
    i32 65070, label %682
    i32 65071, label %682
    i32 65072, label %682
    i32 65073, label %682
    i32 65074, label %682
    i32 65075, label %682
    i32 65076, label %682
    i32 65077, label %682
    i32 65078, label %682
    i32 65079, label %682
    i32 65080, label %682
    i32 65081, label %682
    i32 65082, label %682
    i32 65083, label %682
    i32 65084, label %682
    i32 65085, label %682
    i32 65086, label %682
    i32 65087, label %682
    i32 65088, label %682
    i32 65089, label %682
    i32 65090, label %682
    i32 65091, label %682
    i32 65092, label %682
    i32 65093, label %682
    i32 65094, label %682
    i32 65095, label %682
    i32 65096, label %682
    i32 65097, label %682
    i32 65098, label %682
    i32 65099, label %682
    i32 65100, label %682
    i32 65101, label %682
    i32 65102, label %682
    i32 65027, label %711
  ]

682:                                              ; preds = %677, %677, %677, %677, %677, %677, %677, %677, %677, %677, %677, %677, %677, %677, %677, %677, %677, %677, %677, %677, %677, %677, %677, %677, %677, %677, %677, %677, %677, %677, %677, %677, %677, %677, %677, %677, %677, %677, %677, %677, %677, %677, %677, %677, %677, %677, %677, %677, %677, %677, %677, %677, %677, %677, %677, %677, %677, %677, %677, %677, %677, %677, %677, %677, %677, %677
  %683 = zext i32 %679 to i64
  %684 = getelementptr inbounds i8, i8* %1, i64 %683
  %685 = bitcast i32* %3 to i8*
  call void @llvm.lifetime.start.p0i8(i64 4, i8* nonnull %685) #11
  %686 = load i8, i8* %684, align 1
  %687 = icmp slt i8 %686, 0
  br i1 %687, label %689, label %688

688:                                              ; preds = %682
  store i32 1, i32* %3, align 4
  br label %693

689:                                              ; preds = %682
  %690 = call i32 @_ZN2v88internal4wasm7Decoder17read_leb_slowpathIjLNS2_12ValidateFlagE0ELNS2_9TraceFlagE0ELm32EEET_PKhPjPKc(%"class.v8::internal::wasm::Decoder"* %664, i8* %684, i32* nonnull %3, i8* getelementptr inbounds ([10 x i8], [10 x i8]* @.str.1353, i64 0, i64 0)) #11
  %691 = load i32, i32* %3, align 4
  %692 = zext i32 %691 to i64
  br label %693

693:                                              ; preds = %689, %688
  %694 = phi i32 [ %691, %689 ], [ 1, %688 ]
  %695 = phi i64 [ %692, %689 ], [ 1, %688 ]
  %696 = bitcast i32* %4 to i8*
  call void @llvm.lifetime.start.p0i8(i64 4, i8* nonnull %696) #11
  %697 = getelementptr inbounds i8, i8* %684, i64 %695
  %698 = load i8, i8* %697, align 1
  %699 = icmp slt i8 %698, 0
  br i1 %699, label %701, label %700

700:                                              ; preds = %693
  store i32 1, i32* %4, align 4
  br label %705

701:                                              ; preds = %693
  %702 = call i64 @_ZN2v88internal4wasm7Decoder17read_leb_slowpathImLNS2_12ValidateFlagE0ELNS2_9TraceFlagE0ELm64EEET_PKhPjPKc(%"class.v8::internal::wasm::Decoder"* %664, i8* %697, i32* nonnull %4, i8* getelementptr inbounds ([7 x i8], [7 x i8]* @.str.1355, i64 0, i64 0)) #11
  %703 = load i32, i32* %3, align 4
  %704 = load i32, i32* %4, align 4
  br label %705

705:                                              ; preds = %700, %701
  %706 = phi i32 [ 1, %700 ], [ %704, %701 ]
  %707 = phi i32 [ %694, %700 ], [ %703, %701 ]
  %708 = add i32 %706, %707
  call void @llvm.lifetime.end.p0i8(i64 4, i8* nonnull %696) #11
  call void @llvm.lifetime.end.p0i8(i64 4, i8* nonnull %685) #11
  %709 = load i32, i32* %43, align 4
  %710 = add i32 %708, %709
  br label %713

711:                                              ; preds = %677
  %712 = add i32 %679, 1
  br label %713

713:                                              ; preds = %677, %711, %705
  %714 = phi i32 [ %712, %711 ], [ %710, %705 ], [ %679, %677 ]
  call void @llvm.lifetime.end.p0i8(i64 4, i8* nonnull %663) #11
  br label %871

715:                                              ; preds = %2
  %716 = bitcast i32* %44 to i8*
  call void @llvm.lifetime.start.p0i8(i64 4, i8* nonnull %716) #11
  store i32 0, i32* %44, align 4
  %717 = getelementptr inbounds %"class.v8::internal::wasm::WasmDecoder.207", %"class.v8::internal::wasm::WasmDecoder.207"* %0, i64 0, i32 0
  %718 = getelementptr inbounds i8, i8* %1, i64 1
  %719 = load i8, i8* %718, align 1
  %720 = icmp slt i8 %719, 0
  br i1 %720, label %723, label %721

721:                                              ; preds = %715
  store i32 1, i32* %44, align 4
  %722 = zext i8 %719 to i32
  br label %728

723:                                              ; preds = %715
  %724 = call i32 @_ZN2v88internal4wasm7Decoder17read_leb_slowpathIjLNS2_12ValidateFlagE0ELNS2_9TraceFlagE0ELm32EEET_PKhPjPKc(%"class.v8::internal::wasm::Decoder"* %717, i8* %718, i32* nonnull %44, i8* getelementptr inbounds ([22 x i8], [22 x i8]* @.str.42, i64 0, i64 0)) #11
  %725 = load i32, i32* %44, align 4
  %726 = add i32 %725, 1
  %727 = load i8, i8* %1, align 1
  br label %728

728:                                              ; preds = %721, %723
  %729 = phi i8 [ %727, %723 ], [ -5, %721 ]
  %730 = phi i32 [ %726, %723 ], [ 2, %721 ]
  %731 = phi i32 [ %724, %723 ], [ %722, %721 ]
  store i32 %730, i32* %44, align 4
  %732 = zext i8 %729 to i32
  %733 = shl nuw nsw i32 %732, 8
  %734 = or i32 %733, %731
  switch i32 %734, label %869 [
    i32 64257, label %735
    i32 64258, label %735
    i32 64259, label %751
    i32 64260, label %751
    i32 64261, label %751
    i32 64262, label %751
    i32 64273, label %784
    i32 64274, label %784
    i32 64275, label %784
    i32 64276, label %784
    i32 64277, label %784
    i32 64278, label %784
    i32 64279, label %784
    i32 64280, label %800
    i32 64322, label %836
    i32 64323, label %836
    i32 64353, label %836
    i32 64352, label %836
    i32 64354, label %836
    i32 64304, label %852
    i32 64305, label %852
  ]

735:                                              ; preds = %728, %728
  %736 = bitcast %"struct.v8::internal::wasm::StructIndexImmediate.267"* %45 to i8*
  call void @llvm.lifetime.start.p0i8(i64 16, i8* nonnull %736) #11
  %737 = zext i32 %730 to i64
  %738 = getelementptr inbounds i8, i8* %1, i64 %737
  %739 = getelementptr inbounds %"struct.v8::internal::wasm::StructIndexImmediate.267", %"struct.v8::internal::wasm::StructIndexImmediate.267"* %45, i64 0, i32 1
  call void @llvm.memset.p0i8.i64(i8* nonnull align 8 %736, i8 0, i64 16, i1 false) #11
  %740 = load i8, i8* %738, align 1
  %741 = icmp slt i8 %740, 0
  br i1 %741, label %743, label %742

742:                                              ; preds = %735
  store i32 1, i32* %739, align 4
  br label %747

743:                                              ; preds = %735
  %744 = call i32 @_ZN2v88internal4wasm7Decoder17read_leb_slowpathIjLNS2_12ValidateFlagE0ELNS2_9TraceFlagE0ELm32EEET_PKhPjPKc(%"class.v8::internal::wasm::Decoder"* %717, i8* %738, i32* %739, i8* getelementptr inbounds ([13 x i8], [13 x i8]* @.str.1386, i64 0, i64 0)) #11
  %745 = load i32, i32* %44, align 4
  %746 = load i32, i32* %739, align 4
  br label %747

747:                                              ; preds = %742, %743
  %748 = phi i32 [ %746, %743 ], [ 1, %742 ]
  %749 = phi i32 [ %745, %743 ], [ %730, %742 ]
  %750 = add i32 %748, %749
  call void @llvm.lifetime.end.p0i8(i64 16, i8* nonnull %736) #11
  br label %869

751:                                              ; preds = %728, %728, %728, %728
  %752 = bitcast %"struct.v8::internal::wasm::FieldIndexImmediate.268"* %46 to i8*
  call void @llvm.lifetime.start.p0i8(i64 24, i8* nonnull %752) #11
  %753 = zext i32 %730 to i64
  %754 = getelementptr inbounds i8, i8* %1, i64 %753
  %755 = getelementptr inbounds %"struct.v8::internal::wasm::FieldIndexImmediate.268", %"struct.v8::internal::wasm::FieldIndexImmediate.268"* %46, i64 0, i32 0, i32 0
  %756 = getelementptr inbounds %"struct.v8::internal::wasm::FieldIndexImmediate.268", %"struct.v8::internal::wasm::FieldIndexImmediate.268"* %46, i64 0, i32 0, i32 1
  call void @llvm.memset.p0i8.i64(i8* nonnull align 8 %752, i8 0, i64 16, i1 false) #11
  %757 = load i8, i8* %754, align 1
  %758 = icmp slt i8 %757, 0
  br i1 %758, label %761, label %759

759:                                              ; preds = %751
  store i32 1, i32* %756, align 4
  %760 = zext i8 %757 to i32
  br label %764

761:                                              ; preds = %751
  %762 = call i32 @_ZN2v88internal4wasm7Decoder17read_leb_slowpathIjLNS2_12ValidateFlagE0ELNS2_9TraceFlagE0ELm32EEET_PKhPjPKc(%"class.v8::internal::wasm::Decoder"* %717, i8* %754, i32* %756, i8* getelementptr inbounds ([13 x i8], [13 x i8]* @.str.1386, i64 0, i64 0)) #11
  %763 = load i32, i32* %756, align 4
  br label %764

764:                                              ; preds = %761, %759
  %765 = phi i32 [ %763, %761 ], [ 1, %759 ]
  %766 = phi i32 [ %762, %761 ], [ %760, %759 ]
  store i32 %766, i32* %755, align 8
  %767 = getelementptr inbounds %"struct.v8::internal::wasm::FieldIndexImmediate.268", %"struct.v8::internal::wasm::FieldIndexImmediate.268"* %46, i64 0, i32 1
  store i32 0, i32* %767, align 8
  %768 = getelementptr inbounds %"struct.v8::internal::wasm::FieldIndexImmediate.268", %"struct.v8::internal::wasm::FieldIndexImmediate.268"* %46, i64 0, i32 2
  store i32 0, i32* %768, align 4
  %769 = zext i32 %765 to i64
  %770 = getelementptr inbounds i8, i8* %754, i64 %769
  %771 = load i8, i8* %770, align 1
  %772 = icmp slt i8 %771, 0
  br i1 %772, label %774, label %773

773:                                              ; preds = %764
  store i32 1, i32* %768, align 4
  br label %778

774:                                              ; preds = %764
  %775 = call i32 @_ZN2v88internal4wasm7Decoder17read_leb_slowpathIjLNS2_12ValidateFlagE0ELNS2_9TraceFlagE0ELm32EEET_PKhPjPKc(%"class.v8::internal::wasm::Decoder"* %717, i8* %770, i32* %768, i8* getelementptr inbounds ([12 x i8], [12 x i8]* @.str.1388, i64 0, i64 0)) #11
  %776 = load i32, i32* %756, align 4
  %777 = load i32, i32* %768, align 4
  br label %778

778:                                              ; preds = %773, %774
  %779 = phi i32 [ %777, %774 ], [ 1, %773 ]
  %780 = phi i32 [ %776, %774 ], [ %765, %773 ]
  %781 = add i32 %780, %779
  %782 = load i32, i32* %44, align 4
  %783 = add i32 %782, %781
  call void @llvm.lifetime.end.p0i8(i64 24, i8* nonnull %752) #11
  br label %869

784:                                              ; preds = %728, %728, %728, %728, %728, %728, %728
  %785 = bitcast %"struct.v8::internal::wasm::ArrayIndexImmediate.269"* %47 to i8*
  call void @llvm.lifetime.start.p0i8(i64 16, i8* nonnull %785) #11
  %786 = zext i32 %730 to i64
  %787 = getelementptr inbounds i8, i8* %1, i64 %786
  %788 = getelementptr inbounds %"struct.v8::internal::wasm::ArrayIndexImmediate.269", %"struct.v8::internal::wasm::ArrayIndexImmediate.269"* %47, i64 0, i32 1
  call void @llvm.memset.p0i8.i64(i8* nonnull align 8 %785, i8 0, i64 16, i1 false) #11
  %789 = load i8, i8* %787, align 1
  %790 = icmp slt i8 %789, 0
  br i1 %790, label %792, label %791

791:                                              ; preds = %784
  store i32 1, i32* %788, align 4
  br label %796

792:                                              ; preds = %784
  %793 = call i32 @_ZN2v88internal4wasm7Decoder17read_leb_slowpathIjLNS2_12ValidateFlagE0ELNS2_9TraceFlagE0ELm32EEET_PKhPjPKc(%"class.v8::internal::wasm::Decoder"* %717, i8* %787, i32* %788, i8* getelementptr inbounds ([12 x i8], [12 x i8]* @.str.1390, i64 0, i64 0)) #11
  %794 = load i32, i32* %44, align 4
  %795 = load i32, i32* %788, align 4
  br label %796

796:                                              ; preds = %791, %792
  %797 = phi i32 [ %795, %792 ], [ 1, %791 ]
  %798 = phi i32 [ %794, %792 ], [ %730, %791 ]
  %799 = add i32 %797, %798
  call void @llvm.lifetime.end.p0i8(i64 16, i8* nonnull %785) #11
  br label %869

800:                                              ; preds = %728
  %801 = bitcast %"struct.v8::internal::wasm::ArrayIndexImmediate.269"* %48 to i8*
  call void @llvm.lifetime.start.p0i8(i64 16, i8* nonnull %801) #11
  %802 = zext i32 %730 to i64
  %803 = getelementptr inbounds i8, i8* %1, i64 %802
  %804 = getelementptr inbounds %"struct.v8::internal::wasm::ArrayIndexImmediate.269", %"struct.v8::internal::wasm::ArrayIndexImmediate.269"* %48, i64 0, i32 0
  %805 = getelementptr inbounds %"struct.v8::internal::wasm::ArrayIndexImmediate.269", %"struct.v8::internal::wasm::ArrayIndexImmediate.269"* %48, i64 0, i32 1
  call void @llvm.memset.p0i8.i64(i8* nonnull align 8 %801, i8 0, i64 16, i1 false) #11
  %806 = load i8, i8* %803, align 1
  %807 = icmp slt i8 %806, 0
  br i1 %807, label %810, label %808

808:                                              ; preds = %800
  store i32 1, i32* %805, align 4
  %809 = zext i8 %806 to i32
  br label %816

810:                                              ; preds = %800
  %811 = call i32 @_ZN2v88internal4wasm7Decoder17read_leb_slowpathIjLNS2_12ValidateFlagE0ELNS2_9TraceFlagE0ELm32EEET_PKhPjPKc(%"class.v8::internal::wasm::Decoder"* %717, i8* %803, i32* %805, i8* getelementptr inbounds ([12 x i8], [12 x i8]* @.str.1390, i64 0, i64 0)) #11
  %812 = load i32, i32* %44, align 4
  %813 = zext i32 %812 to i64
  %814 = getelementptr inbounds i8, i8* %1, i64 %813
  %815 = load i8, i8* %814, align 1
  br label %816

816:                                              ; preds = %808, %810
  %817 = phi i64 [ %802, %808 ], [ %813, %810 ]
  %818 = phi i8 [ %806, %808 ], [ %815, %810 ]
  %819 = phi i32 [ %730, %808 ], [ %812, %810 ]
  %820 = phi i32 [ %809, %808 ], [ %811, %810 ]
  store i32 %820, i32* %804, align 8
  %821 = bitcast %"struct.v8::internal::wasm::ArrayIndexImmediate.269"* %49 to i8*
  call void @llvm.lifetime.start.p0i8(i64 16, i8* nonnull %821) #11
  %822 = getelementptr inbounds %"struct.v8::internal::wasm::ArrayIndexImmediate.269", %"struct.v8::internal::wasm::ArrayIndexImmediate.269"* %49, i64 0, i32 1
  call void @llvm.memset.p0i8.i64(i8* nonnull align 8 %821, i8 0, i64 16, i1 false) #11
  %823 = icmp slt i8 %818, 0
  br i1 %823, label %825, label %824

824:                                              ; preds = %816
  store i32 1, i32* %822, align 4
  br label %830

825:                                              ; preds = %816
  %826 = getelementptr inbounds i8, i8* %1, i64 %817
  %827 = call i32 @_ZN2v88internal4wasm7Decoder17read_leb_slowpathIjLNS2_12ValidateFlagE0ELNS2_9TraceFlagE0ELm32EEET_PKhPjPKc(%"class.v8::internal::wasm::Decoder"* %717, i8* %826, i32* %822, i8* getelementptr inbounds ([12 x i8], [12 x i8]* @.str.1390, i64 0, i64 0)) #11
  %828 = load i32, i32* %44, align 4
  %829 = load i32, i32* %822, align 4
  br label %830

830:                                              ; preds = %824, %825
  %831 = phi i32 [ %829, %825 ], [ 1, %824 ]
  %832 = phi i32 [ %828, %825 ], [ %819, %824 ]
  %833 = load i32, i32* %805, align 4
  %834 = add i32 %833, %832
  %835 = add i32 %834, %831
  call void @llvm.lifetime.end.p0i8(i64 16, i8* nonnull %821) #11
  call void @llvm.lifetime.end.p0i8(i64 16, i8* nonnull %801) #11
  br label %869

836:                                              ; preds = %728, %728, %728, %728, %728
  %837 = bitcast %"struct.v8::internal::wasm::BranchDepthImmediate"* %50 to i8*
  call void @llvm.lifetime.start.p0i8(i64 8, i8* nonnull %837) #11
  %838 = zext i32 %730 to i64
  %839 = getelementptr inbounds i8, i8* %1, i64 %838
  %840 = getelementptr inbounds %"struct.v8::internal::wasm::BranchDepthImmediate", %"struct.v8::internal::wasm::BranchDepthImmediate"* %50, i64 0, i32 1
  %841 = load i8, i8* %839, align 1
  %842 = icmp slt i8 %841, 0
  br i1 %842, label %844, label %843

843:                                              ; preds = %836
  store i32 1, i32* %840, align 4
  br label %848

844:                                              ; preds = %836
  %845 = call i32 @_ZN2v88internal4wasm7Decoder17read_leb_slowpathIjLNS2_12ValidateFlagE0ELNS2_9TraceFlagE0ELm32EEET_PKhPjPKc(%"class.v8::internal::wasm::Decoder"* %717, i8* %839, i32* %840, i8* getelementptr inbounds ([13 x i8], [13 x i8]* @.str.1307, i64 0, i64 0)) #11
  %846 = load i32, i32* %44, align 4
  %847 = load i32, i32* %840, align 4
  br label %848

848:                                              ; preds = %843, %844
  %849 = phi i32 [ %847, %844 ], [ 1, %843 ]
  %850 = phi i32 [ %846, %844 ], [ %730, %843 ]
  %851 = add i32 %849, %850
  call void @llvm.lifetime.end.p0i8(i64 8, i8* nonnull %837) #11
  br label %869

852:                                              ; preds = %728, %728
  %853 = bitcast %"struct.v8::internal::wasm::TypeIndexImmediate.270"* %51 to i8*
  call void @llvm.lifetime.start.p0i8(i64 8, i8* nonnull %853) #11
  %854 = zext i32 %730 to i64
  %855 = getelementptr inbounds i8, i8* %1, i64 %854
  %856 = getelementptr inbounds %"struct.v8::internal::wasm::TypeIndexImmediate.270", %"struct.v8::internal::wasm::TypeIndexImmediate.270"* %51, i64 0, i32 0
  store i32 0, i32* %856, align 4
  %857 = getelementptr inbounds %"struct.v8::internal::wasm::TypeIndexImmediate.270", %"struct.v8::internal::wasm::TypeIndexImmediate.270"* %51, i64 0, i32 1
  store i32 1, i32* %857, align 4
  %858 = load i8, i8* %855, align 1
  %859 = icmp slt i8 %858, 0
  br i1 %859, label %861, label %860

860:                                              ; preds = %852
  store i32 1, i32* %857, align 4
  br label %865

861:                                              ; preds = %852
  %862 = call i32 @_ZN2v88internal4wasm7Decoder17read_leb_slowpathIjLNS2_12ValidateFlagE0ELNS2_9TraceFlagE0ELm32EEET_PKhPjPKc(%"class.v8::internal::wasm::Decoder"* %717, i8* %855, i32* %857, i8* getelementptr inbounds ([11 x i8], [11 x i8]* @.str.1392, i64 0, i64 0)) #11
  %863 = load i32, i32* %44, align 4
  %864 = load i32, i32* %857, align 4
  br label %865

865:                                              ; preds = %860, %861
  %866 = phi i32 [ %864, %861 ], [ 1, %860 ]
  %867 = phi i32 [ %863, %861 ], [ %730, %860 ]
  %868 = add i32 %866, %867
  call void @llvm.lifetime.end.p0i8(i64 8, i8* nonnull %853) #11
  br label %869

869:                                              ; preds = %728, %865, %848, %830, %796, %778, %747
  %870 = phi i32 [ %868, %865 ], [ %851, %848 ], [ %835, %830 ], [ %799, %796 ], [ %783, %778 ], [ %750, %747 ], [ %730, %728 ]
  call void @llvm.lifetime.end.p0i8(i64 4, i8* nonnull %716) #11
  br label %871

871:                                              ; preds = %2, %869, %713, %660, %575, %414, %409, %384, %367, %335, %334, %332, %318, %304, %289, %273, %252, %233, %206, %181, %151, %133, %96, %81
  %872 = phi i32 [ %870, %869 ], [ %714, %713 ], [ %661, %660 ], [ %576, %575 ], [ 2, %414 ], [ %413, %409 ], [ %385, %384 ], [ %370, %367 ], [ 9, %335 ], [ 5, %334 ], [ %333, %332 ], [ %319, %318 ], [ %305, %304 ], [ %290, %289 ], [ %274, %273 ], [ %260, %252 ], [ %236, %233 ], [ %207, %206 ], [ %192, %181 ], [ %152, %151 ], [ %137, %133 ], [ %97, %96 ], [ %83, %81 ], [ 1, %2 ]
  ret i32 %872
}

; Function Attrs: inlinehint nounwind ssp uwtable
define linkonce_odr hidden void @_ZN2v88internal4wasm11WasmDecoderILNS1_7Decoder12ValidateFlagE0EED2Ev(%"class.v8::internal::wasm::WasmDecoder.207"*) unnamed_addr #2 comdat align 2 {
  %2 = getelementptr inbounds %"class.v8::internal::wasm::WasmDecoder.207", %"class.v8::internal::wasm::WasmDecoder.207"* %0, i64 0, i32 0, i32 0
  store i32 (...)** bitcast (i8** getelementptr inbounds ({ [5 x i8*] }, { [5 x i8*] }* @_ZTVN2v88internal4wasm11WasmDecoderILNS1_7Decoder12ValidateFlagE0EEE, i64 0, inrange i32 0, i64 2) to i32 (...)**), i32 (...)*** %2, align 8
  %3 = getelementptr inbounds %"class.v8::internal::wasm::WasmDecoder.207", %"class.v8::internal::wasm::WasmDecoder.207"* %0, i64 0, i32 1, i32 0, i32 0, i32 0
  %4 = load %"class.v8::internal::wasm::ValueType"*, %"class.v8::internal::wasm::ValueType"** %3, align 8
  %5 = icmp eq %"class.v8::internal::wasm::ValueType"* %4, null
  br i1 %5, label %10, label %6

6:                                                ; preds = %1
  %7 = ptrtoint %"class.v8::internal::wasm::ValueType"* %4 to i64
  %8 = getelementptr inbounds %"class.v8::internal::wasm::WasmDecoder.207", %"class.v8::internal::wasm::WasmDecoder.207"* %0, i64 0, i32 1, i32 0, i32 0, i32 1
  %9 = bitcast %"class.v8::internal::wasm::ValueType"** %8 to i64*
  store i64 %7, i64* %9, align 8
  br label %10

10:                                               ; preds = %1, %6
  store i32 (...)** bitcast (i8** getelementptr inbounds ({ [5 x i8*] }, { [5 x i8*] }* @_ZTVN2v88internal4wasm7DecoderE, i64 0, inrange i32 0, i64 2) to i32 (...)**), i32 (...)*** %2, align 8
  %11 = getelementptr inbounds %"class.v8::internal::wasm::WasmDecoder.207", %"class.v8::internal::wasm::WasmDecoder.207"* %0, i64 0, i32 0, i32 5, i32 1
  %12 = bitcast %"class.std::__1::basic_string"* %11 to %"struct.std::__1::basic_string<char, std::__1::char_traits<char>, std::__1::allocator<char> >::__short"*
  %13 = getelementptr inbounds %"struct.std::__1::basic_string<char, std::__1::char_traits<char>, std::__1::allocator<char> >::__short", %"struct.std::__1::basic_string<char, std::__1::char_traits<char>, std::__1::allocator<char> >::__short"* %12, i64 0, i32 1, i32 0
  %14 = load i8, i8* %13, align 1
  %15 = icmp slt i8 %14, 0
  br i1 %15, label %16, label %19

16:                                               ; preds = %10
  %17 = getelementptr inbounds %"class.std::__1::basic_string", %"class.std::__1::basic_string"* %11, i64 0, i32 0, i32 0, i32 0, i32 0, i32 0, i32 0
  %18 = load i8*, i8** %17, align 8
  tail call void @_ZdlPv(i8* %18) #14
  br label %19

19:                                               ; preds = %10, %16
  ret void
}

; Function Attrs: nounwind ssp uwtable
define hidden zeroext i1 @_ZN2v88internal4wasm25CheckHardwareSupportsSimdEv() local_unnamed_addr #0 {
  %1 = tail call zeroext i1 @_ZN2v88internal11CpuFeatures19SupportsWasmSimd128Ev() #11
  ret i1 %1
}

declare zeroext i1 @_ZN2v88internal11CpuFeatures19SupportsWasmSimd128Ev() local_unnamed_addr #3

; Function Attrs: nounwind ssp uwtable
define hidden i64 @_ZN2v88internal4wasm11StackEffectEPKNS1_10WasmModuleEPKNS0_9SignatureINS1_9ValueTypeEEEPKhSB_(%"struct.v8::internal::wasm::WasmModule"*, %"class.v8::internal::Signature"*, i8*, i8*) local_unnamed_addr #0 {
  %5 = alloca %"class.v8::internal::wasm::WasmFeatures", align 4
  %6 = alloca %"class.v8::internal::wasm::WasmDecoder.207", align 8
  %7 = bitcast %"class.v8::internal::wasm::WasmFeatures"* %5 to i8*
  call void @llvm.lifetime.start.p0i8(i64 4, i8* nonnull %7) #11
  %8 = getelementptr inbounds %"class.v8::internal::wasm::WasmFeatures", %"class.v8::internal::wasm::WasmFeatures"* %5, i64 0, i32 0, i32 0
  store i32 0, i32* %8, align 4
  %9 = bitcast %"class.v8::internal::wasm::WasmDecoder.207"* %6 to i8*
  call void @llvm.lifetime.start.p0i8(i64 144, i8* nonnull %9) #11
  %10 = getelementptr inbounds %"class.v8::internal::wasm::WasmDecoder.207", %"class.v8::internal::wasm::WasmDecoder.207"* %6, i64 0, i32 0, i32 0
  %11 = getelementptr inbounds %"class.v8::internal::wasm::WasmDecoder.207", %"class.v8::internal::wasm::WasmDecoder.207"* %6, i64 0, i32 0, i32 1
  store i8* %2, i8** %11, align 8
  %12 = getelementptr inbounds %"class.v8::internal::wasm::WasmDecoder.207", %"class.v8::internal::wasm::WasmDecoder.207"* %6, i64 0, i32 0, i32 2
  store i8* %2, i8** %12, align 8
  %13 = getelementptr inbounds %"class.v8::internal::wasm::WasmDecoder.207", %"class.v8::internal::wasm::WasmDecoder.207"* %6, i64 0, i32 0, i32 3
  store i8* %3, i8** %13, align 8
  %14 = getelementptr inbounds %"class.v8::internal::wasm::WasmDecoder.207", %"class.v8::internal::wasm::WasmDecoder.207"* %6, i64 0, i32 0, i32 4
  store i32 0, i32* %14, align 8
  %15 = getelementptr inbounds %"class.v8::internal::wasm::WasmDecoder.207", %"class.v8::internal::wasm::WasmDecoder.207"* %6, i64 0, i32 0, i32 5, i32 0
  store i32 0, i32* %15, align 8
  %16 = getelementptr inbounds %"class.v8::internal::wasm::WasmDecoder.207", %"class.v8::internal::wasm::WasmDecoder.207"* %6, i64 0, i32 0, i32 5, i32 1
  %17 = bitcast %"class.std::__1::basic_string"* %16 to i8*
  call void @llvm.memset.p0i8.i64(i8* align 8 %17, i8 0, i64 24, i1 false) #11
  store i32 (...)** bitcast (i8** getelementptr inbounds ({ [5 x i8*] }, { [5 x i8*] }* @_ZTVN2v88internal4wasm11WasmDecoderILNS1_7Decoder12ValidateFlagE0EEE, i64 0, inrange i32 0, i64 2) to i32 (...)**), i32 (...)*** %10, align 8
  %18 = getelementptr inbounds %"class.v8::internal::wasm::WasmDecoder.207", %"class.v8::internal::wasm::WasmDecoder.207"* %6, i64 0, i32 1
  %19 = getelementptr inbounds %"class.v8::internal::wasm::WasmDecoder.207", %"class.v8::internal::wasm::WasmDecoder.207"* %6, i64 0, i32 3
  %20 = bitcast %"class.v8::internal::ZoneVector"* %18 to i8*
  call void @llvm.memset.p0i8.i64(i8* align 8 %20, i8 0, i64 36, i1 false)
  store %"struct.v8::internal::wasm::WasmModule"* %0, %"struct.v8::internal::wasm::WasmModule"** %19, align 8
  %21 = getelementptr inbounds %"class.v8::internal::wasm::WasmDecoder.207", %"class.v8::internal::wasm::WasmDecoder.207"* %6, i64 0, i32 4, i32 0, i32 0
  store i32 8191, i32* %21, align 8
  %22 = getelementptr inbounds %"class.v8::internal::wasm::WasmDecoder.207", %"class.v8::internal::wasm::WasmDecoder.207"* %6, i64 0, i32 5
  store %"class.v8::internal::wasm::WasmFeatures"* %5, %"class.v8::internal::wasm::WasmFeatures"** %22, align 8
  %23 = getelementptr inbounds %"class.v8::internal::wasm::WasmDecoder.207", %"class.v8::internal::wasm::WasmDecoder.207"* %6, i64 0, i32 6
  store %"class.v8::internal::Signature"* %1, %"class.v8::internal::Signature"** %23, align 8
  %24 = call i64 @_ZN2v88internal4wasm11WasmDecoderILNS1_7Decoder12ValidateFlagE0EE11StackEffectEPKh(%"class.v8::internal::wasm::WasmDecoder.207"* nonnull %6, i8* %2)
  store i32 (...)** bitcast (i8** getelementptr inbounds ({ [5 x i8*] }, { [5 x i8*] }* @_ZTVN2v88internal4wasm11WasmDecoderILNS1_7Decoder12ValidateFlagE0EEE, i64 0, inrange i32 0, i64 2) to i32 (...)**), i32 (...)*** %10, align 8
  %25 = getelementptr inbounds %"class.v8::internal::wasm::WasmDecoder.207", %"class.v8::internal::wasm::WasmDecoder.207"* %6, i64 0, i32 1, i32 0, i32 0, i32 0
  %26 = load %"class.v8::internal::wasm::ValueType"*, %"class.v8::internal::wasm::ValueType"** %25, align 8
  %27 = icmp eq %"class.v8::internal::wasm::ValueType"* %26, null
  br i1 %27, label %32, label %28

28:                                               ; preds = %4
  %29 = ptrtoint %"class.v8::internal::wasm::ValueType"* %26 to i64
  %30 = getelementptr inbounds %"class.v8::internal::wasm::WasmDecoder.207", %"class.v8::internal::wasm::WasmDecoder.207"* %6, i64 0, i32 1, i32 0, i32 0, i32 1
  %31 = bitcast %"class.v8::internal::wasm::ValueType"** %30 to i64*
  store i64 %29, i64* %31, align 8
  br label %32

32:                                               ; preds = %28, %4
  store i32 (...)** bitcast (i8** getelementptr inbounds ({ [5 x i8*] }, { [5 x i8*] }* @_ZTVN2v88internal4wasm7DecoderE, i64 0, inrange i32 0, i64 2) to i32 (...)**), i32 (...)*** %10, align 8
  %33 = bitcast %"class.std::__1::basic_string"* %16 to %"struct.std::__1::basic_string<char, std::__1::char_traits<char>, std::__1::allocator<char> >::__short"*
  %34 = getelementptr inbounds %"struct.std::__1::basic_string<char, std::__1::char_traits<char>, std::__1::allocator<char> >::__short", %"struct.std::__1::basic_string<char, std::__1::char_traits<char>, std::__1::allocator<char> >::__short"* %33, i64 0, i32 1, i32 0
  %35 = load i8, i8* %34, align 1
  %36 = icmp slt i8 %35, 0
  br i1 %36, label %37, label %40

37:                                               ; preds = %32
  %38 = getelementptr inbounds %"class.std::__1::basic_string", %"class.std::__1::basic_string"* %16, i64 0, i32 0, i32 0, i32 0, i32 0, i32 0, i32 0
  %39 = load i8*, i8** %38, align 8
  call void @_ZdlPv(i8* %39) #14
  br label %40

40:                                               ; preds = %32, %37
  call void @llvm.lifetime.end.p0i8(i64 144, i8* nonnull %9) #11
  call void @llvm.lifetime.end.p0i8(i64 4, i8* nonnull %7) #11
  ret i64 %24
}

; Function Attrs: nounwind ssp uwtable
define linkonce_odr hidden i64 @_ZN2v88internal4wasm11WasmDecoderILNS1_7Decoder12ValidateFlagE0EE11StackEffectEPKh(%"class.v8::internal::wasm::WasmDecoder.207"*, i8*) local_unnamed_addr #0 comdat align 2 {
  %3 = alloca i32, align 4
  %4 = alloca %"struct.v8::internal::wasm::TableIndexImmediate.252", align 4
  %5 = alloca i32, align 4
  %6 = alloca i32, align 4
  %7 = alloca %"struct.v8::internal::wasm::CallFunctionImmediate", align 8
  %8 = alloca %"struct.v8::internal::wasm::ExceptionIndexImmediate.246", align 8
  %9 = alloca %"struct.v8::internal::wasm::StructIndexImmediate.267", align 8
  %10 = load i8, i8* %1, align 1
  %11 = zext i8 %10 to i32
  %12 = zext i8 %10 to i64
  %13 = getelementptr inbounds %"struct.std::__1::array.243", %"struct.std::__1::array.243"* bitcast ({ <{ [214 x i8], [42 x i8] }> }* @_ZN2v88internal4wasm4implL14kShortSigTableE to %"struct.std::__1::array.243"*), i64 0, i32 0, i64 %12
  %14 = load i8, i8* %13, align 1
  %15 = icmp eq i8 %14, 0
  br i1 %15, label %16, label %20

16:                                               ; preds = %2
  %17 = getelementptr inbounds %"struct.std::__1::array.243", %"struct.std::__1::array.243"* @_ZN2v88internal4wasm4implL24kSimpleAsmjsExprSigTableE, i64 0, i32 0, i64 %12
  %18 = load i8, i8* %17, align 1
  %19 = icmp eq i8 %18, 0
  br i1 %19, label %30, label %20

20:                                               ; preds = %2, %16
  %21 = phi i8 [ %18, %16 ], [ %14, %2 ]
  %22 = zext i8 %21 to i64
  %23 = getelementptr inbounds [53 x %"class.v8::internal::Signature"*], [53 x %"class.v8::internal::Signature"*]* @_ZN2v88internal4wasm4implL11kCachedSigsE, i64 0, i64 %22
  %24 = load %"class.v8::internal::Signature"*, %"class.v8::internal::Signature"** %23, align 8
  %25 = getelementptr inbounds %"class.v8::internal::Signature", %"class.v8::internal::Signature"* %24, i64 0, i32 1
  %26 = load i64, i64* %25, align 8
  %27 = getelementptr inbounds %"class.v8::internal::Signature", %"class.v8::internal::Signature"* %24, i64 0, i32 0
  %28 = load i64, i64* %27, align 8
  %29 = trunc i64 %26 to i32
  br label %240

30:                                               ; preds = %16
  switch i8 %10, label %230 [
    i8 27, label %240
    i8 28, label %240
    i8 38, label %31
    i8 54, label %31
    i8 55, label %31
    i8 56, label %31
    i8 57, label %31
    i8 58, label %31
    i8 59, label %31
    i8 60, label %31
    i8 61, label %31
    i8 62, label %31
    i8 40, label %32
    i8 41, label %32
    i8 42, label %32
    i8 43, label %32
    i8 44, label %32
    i8 45, label %32
    i8 46, label %32
    i8 47, label %32
    i8 48, label %32
    i8 49, label %32
    i8 50, label %32
    i8 51, label %32
    i8 52, label %32
    i8 53, label %32
    i8 37, label %32
    i8 34, label %32
    i8 64, label %32
    i8 -45, label %32
    i8 -44, label %32
    i8 -47, label %32
    i8 33, label %33
    i8 36, label %33
    i8 26, label %33
    i8 13, label %33
    i8 14, label %33
    i8 4, label %33
    i8 -42, label %33
    i8 32, label %34
    i8 35, label %34
    i8 65, label %34
    i8 66, label %34
    i8 67, label %34
    i8 68, label %34
    i8 -48, label %34
    i8 -46, label %34
    i8 63, label %34
    i8 16, label %35
    i8 17, label %65
    i8 8, label %103
    i8 12, label %129
    i8 2, label %129
    i8 3, label %129
    i8 11, label %129
    i8 5, label %129
    i8 6, label %129
    i8 7, label %129
    i8 25, label %129
    i8 24, label %129
    i8 10, label %129
    i8 9, label %129
    i8 1, label %129
    i8 22, label %129
    i8 15, label %129
    i8 18, label %129
    i8 19, label %129
    i8 0, label %129
    i8 23, label %130
    i8 -4, label %131
    i8 -2, label %131
    i8 -3, label %131
    i8 -5, label %176
  ]

31:                                               ; preds = %30, %30, %30, %30, %30, %30, %30, %30, %30, %30
  br label %240

32:                                               ; preds = %30, %30, %30, %30, %30, %30, %30, %30, %30, %30, %30, %30, %30, %30, %30, %30, %30, %30, %30, %30
  br label %240

33:                                               ; preds = %30, %30, %30, %30, %30, %30, %30
  br label %240

34:                                               ; preds = %30, %30, %30, %30, %30, %30, %30, %30, %30
  br label %240

35:                                               ; preds = %30
  %36 = bitcast %"struct.v8::internal::wasm::CallFunctionImmediate"* %7 to i8*
  call void @llvm.lifetime.start.p0i8(i64 24, i8* nonnull %36) #11
  %37 = getelementptr inbounds i8, i8* %1, i64 1
  %38 = getelementptr inbounds %"struct.v8::internal::wasm::CallFunctionImmediate", %"struct.v8::internal::wasm::CallFunctionImmediate"* %7, i64 0, i32 2
  store %"class.v8::internal::Signature"* null, %"class.v8::internal::Signature"** %38, align 8
  %39 = getelementptr inbounds %"struct.v8::internal::wasm::CallFunctionImmediate", %"struct.v8::internal::wasm::CallFunctionImmediate"* %7, i64 0, i32 3
  %40 = load i8, i8* %37, align 1
  %41 = icmp slt i8 %40, 0
  br i1 %41, label %44, label %42

42:                                               ; preds = %35
  store i32 1, i32* %39, align 8
  %43 = zext i8 %40 to i32
  br label %47

44:                                               ; preds = %35
  %45 = getelementptr inbounds %"class.v8::internal::wasm::WasmDecoder.207", %"class.v8::internal::wasm::WasmDecoder.207"* %0, i64 0, i32 0
  %46 = call i32 @_ZN2v88internal4wasm7Decoder17read_leb_slowpathIjLNS2_12ValidateFlagE0ELNS2_9TraceFlagE0ELm32EEET_PKhPjPKc(%"class.v8::internal::wasm::Decoder"* %45, i8* %37, i32* %39, i8* getelementptr inbounds ([15 x i8], [15 x i8]* @.str.1322, i64 0, i64 0)) #11
  br label %47

47:                                               ; preds = %44, %42
  %48 = phi i32 [ %46, %44 ], [ %43, %42 ]
  %49 = getelementptr inbounds %"struct.v8::internal::wasm::CallFunctionImmediate", %"struct.v8::internal::wasm::CallFunctionImmediate"* %7, i64 0, i32 0
  store i32 %48, i32* %49, align 8
  %50 = getelementptr inbounds %"class.v8::internal::wasm::WasmDecoder.207", %"class.v8::internal::wasm::WasmDecoder.207"* %0, i64 0, i32 3
  %51 = load %"struct.v8::internal::wasm::WasmModule"*, %"struct.v8::internal::wasm::WasmModule"** %50, align 8
  %52 = zext i32 %48 to i64
  %53 = getelementptr inbounds %"struct.v8::internal::wasm::WasmModule", %"struct.v8::internal::wasm::WasmModule"* %51, i64 0, i32 23, i32 0, i32 0
  %54 = load %"struct.v8::internal::wasm::WasmFunction"*, %"struct.v8::internal::wasm::WasmFunction"** %53, align 8
  %55 = getelementptr inbounds %"struct.v8::internal::wasm::WasmFunction", %"struct.v8::internal::wasm::WasmFunction"* %54, i64 %52
  %56 = bitcast %"struct.v8::internal::wasm::WasmFunction"* %55 to i64*
  %57 = load i64, i64* %56, align 8
  %58 = bitcast %"class.v8::internal::Signature"** %38 to i64*
  store i64 %57, i64* %58, align 8
  %59 = inttoptr i64 %57 to %"class.v8::internal::Signature"*
  %60 = getelementptr inbounds %"class.v8::internal::Signature", %"class.v8::internal::Signature"* %59, i64 0, i32 1
  %61 = load i64, i64* %60, align 8
  %62 = getelementptr inbounds %"class.v8::internal::Signature", %"class.v8::internal::Signature"* %59, i64 0, i32 0
  %63 = load i64, i64* %62, align 8
  %64 = trunc i64 %61 to i32
  call void @llvm.lifetime.end.p0i8(i64 24, i8* nonnull %36) #11
  br label %240

65:                                               ; preds = %30
  %66 = getelementptr inbounds %"class.v8::internal::wasm::WasmDecoder.207", %"class.v8::internal::wasm::WasmDecoder.207"* %0, i64 0, i32 0
  %67 = getelementptr inbounds i8, i8* %1, i64 1
  %68 = bitcast i32* %3 to i8*
  call void @llvm.lifetime.start.p0i8(i64 4, i8* nonnull %68) #11
  store i32 0, i32* %3, align 4
  %69 = load i8, i8* %67, align 1
  %70 = icmp slt i8 %69, 0
  br i1 %70, label %73, label %71

71:                                               ; preds = %65
  store i32 1, i32* %3, align 4
  %72 = zext i8 %69 to i32
  br label %77

73:                                               ; preds = %65
  %74 = call i32 @_ZN2v88internal4wasm7Decoder17read_leb_slowpathIjLNS2_12ValidateFlagE0ELNS2_9TraceFlagE0ELm32EEET_PKhPjPKc(%"class.v8::internal::wasm::Decoder"* %66, i8* %67, i32* nonnull %3, i8* getelementptr inbounds ([16 x i8], [16 x i8]* @.str.1325, i64 0, i64 0)) #11
  %75 = load i32, i32* %3, align 4
  %76 = zext i32 %75 to i64
  br label %77

77:                                               ; preds = %73, %71
  %78 = phi i64 [ %76, %73 ], [ 1, %71 ]
  %79 = phi i32 [ %74, %73 ], [ %72, %71 ]
  %80 = bitcast %"struct.v8::internal::wasm::TableIndexImmediate.252"* %4 to i8*
  call void @llvm.lifetime.start.p0i8(i64 8, i8* nonnull %80) #11
  %81 = getelementptr inbounds i8, i8* %67, i64 %78
  %82 = getelementptr inbounds %"struct.v8::internal::wasm::TableIndexImmediate.252", %"struct.v8::internal::wasm::TableIndexImmediate.252"* %4, i64 0, i32 0
  store i32 0, i32* %82, align 4
  %83 = getelementptr inbounds %"struct.v8::internal::wasm::TableIndexImmediate.252", %"struct.v8::internal::wasm::TableIndexImmediate.252"* %4, i64 0, i32 1
  store i32 1, i32* %83, align 4
  %84 = load i8, i8* %81, align 1
  %85 = icmp slt i8 %84, 0
  br i1 %85, label %87, label %86

86:                                               ; preds = %77
  store i32 1, i32* %83, align 4
  br label %89

87:                                               ; preds = %77
  %88 = call i32 @_ZN2v88internal4wasm7Decoder17read_leb_slowpathIjLNS2_12ValidateFlagE0ELNS2_9TraceFlagE0ELm32EEET_PKhPjPKc(%"class.v8::internal::wasm::Decoder"* %66, i8* %81, i32* %83, i8* getelementptr inbounds ([12 x i8], [12 x i8]* @.str.1327, i64 0, i64 0)) #11
  br label %89

89:                                               ; preds = %87, %86
  call void @llvm.lifetime.end.p0i8(i64 8, i8* nonnull %80) #11
  call void @llvm.lifetime.end.p0i8(i64 4, i8* nonnull %68) #11
  %90 = getelementptr inbounds %"class.v8::internal::wasm::WasmDecoder.207", %"class.v8::internal::wasm::WasmDecoder.207"* %0, i64 0, i32 3
  %91 = load %"struct.v8::internal::wasm::WasmModule"*, %"struct.v8::internal::wasm::WasmModule"** %90, align 8
  %92 = zext i32 %79 to i64
  %93 = getelementptr inbounds %"struct.v8::internal::wasm::WasmModule", %"struct.v8::internal::wasm::WasmModule"* %91, i64 0, i32 20, i32 0, i32 0
  %94 = load %"struct.v8::internal::wasm::TypeDefinition"*, %"struct.v8::internal::wasm::TypeDefinition"** %93, align 8
  %95 = getelementptr inbounds %"struct.v8::internal::wasm::TypeDefinition", %"struct.v8::internal::wasm::TypeDefinition"* %94, i64 %92, i32 0, i32 0
  %96 = load %"class.v8::internal::Signature"*, %"class.v8::internal::Signature"** %95, align 8
  %97 = getelementptr inbounds %"class.v8::internal::Signature", %"class.v8::internal::Signature"* %96, i64 0, i32 1
  %98 = load i64, i64* %97, align 8
  %99 = getelementptr inbounds %"class.v8::internal::Signature", %"class.v8::internal::Signature"* %96, i64 0, i32 0
  %100 = load i64, i64* %99, align 8
  %101 = trunc i64 %98 to i32
  %102 = add i32 %101, 1
  br label %240

103:                                              ; preds = %30
  %104 = bitcast %"struct.v8::internal::wasm::ExceptionIndexImmediate.246"* %8 to i8*
  call void @llvm.lifetime.start.p0i8(i64 24, i8* nonnull %104) #11
  %105 = getelementptr inbounds i8, i8* %1, i64 1
  %106 = getelementptr inbounds %"struct.v8::internal::wasm::ExceptionIndexImmediate.246", %"struct.v8::internal::wasm::ExceptionIndexImmediate.246"* %8, i64 0, i32 2
  store %"struct.v8::internal::wasm::WasmException"* null, %"struct.v8::internal::wasm::WasmException"** %106, align 8
  %107 = getelementptr inbounds %"struct.v8::internal::wasm::ExceptionIndexImmediate.246", %"struct.v8::internal::wasm::ExceptionIndexImmediate.246"* %8, i64 0, i32 3
  %108 = load i8, i8* %105, align 1
  %109 = icmp slt i8 %108, 0
  br i1 %109, label %112, label %110

110:                                              ; preds = %103
  store i32 1, i32* %107, align 8
  %111 = zext i8 %108 to i32
  br label %115

112:                                              ; preds = %103
  %113 = getelementptr inbounds %"class.v8::internal::wasm::WasmDecoder.207", %"class.v8::internal::wasm::WasmDecoder.207"* %0, i64 0, i32 0
  %114 = call i32 @_ZN2v88internal4wasm7Decoder17read_leb_slowpathIjLNS2_12ValidateFlagE0ELNS2_9TraceFlagE0ELm32EEET_PKhPjPKc(%"class.v8::internal::wasm::Decoder"* %113, i8* %105, i32* %107, i8* getelementptr inbounds ([16 x i8], [16 x i8]* @.str.1304, i64 0, i64 0)) #11
  br label %115

115:                                              ; preds = %112, %110
  %116 = phi i32 [ %114, %112 ], [ %111, %110 ]
  %117 = getelementptr inbounds %"struct.v8::internal::wasm::ExceptionIndexImmediate.246", %"struct.v8::internal::wasm::ExceptionIndexImmediate.246"* %8, i64 0, i32 0
  store i32 %116, i32* %117, align 8
  %118 = getelementptr inbounds %"class.v8::internal::wasm::WasmDecoder.207", %"class.v8::internal::wasm::WasmDecoder.207"* %0, i64 0, i32 3
  %119 = load %"struct.v8::internal::wasm::WasmModule"*, %"struct.v8::internal::wasm::WasmModule"** %118, align 8
  %120 = zext i32 %116 to i64
  %121 = getelementptr inbounds %"struct.v8::internal::wasm::WasmModule", %"struct.v8::internal::wasm::WasmModule"* %119, i64 0, i32 28, i32 0, i32 0
  %122 = load %"struct.v8::internal::wasm::WasmException"*, %"struct.v8::internal::wasm::WasmException"** %121, align 8
  %123 = getelementptr inbounds %"struct.v8::internal::wasm::WasmException", %"struct.v8::internal::wasm::WasmException"* %122, i64 %120
  store %"struct.v8::internal::wasm::WasmException"* %123, %"struct.v8::internal::wasm::WasmException"** %106, align 8
  %124 = getelementptr inbounds %"struct.v8::internal::wasm::WasmException", %"struct.v8::internal::wasm::WasmException"* %123, i64 0, i32 0
  %125 = load %"class.v8::internal::Signature"*, %"class.v8::internal::Signature"** %124, align 8
  %126 = getelementptr inbounds %"class.v8::internal::Signature", %"class.v8::internal::Signature"* %125, i64 0, i32 1
  %127 = load i64, i64* %126, align 8
  %128 = trunc i64 %127 to i32
  call void @llvm.lifetime.end.p0i8(i64 24, i8* nonnull %104) #11
  br label %240

129:                                              ; preds = %30, %30, %30, %30, %30, %30, %30, %30, %30, %30, %30, %30, %30, %30, %30, %30, %30
  br label %240

130:                                              ; preds = %30
  br label %240

131:                                              ; preds = %30, %30, %30
  %132 = bitcast i32* %5 to i8*
  call void @llvm.lifetime.start.p0i8(i64 4, i8* nonnull %132) #11
  %133 = getelementptr inbounds i8, i8* %1, i64 1
  %134 = load i8, i8* %133, align 1
  %135 = icmp slt i8 %134, 0
  br i1 %135, label %138, label %136

136:                                              ; preds = %131
  store i32 1, i32* %5, align 4
  %137 = zext i8 %134 to i32
  br label %143

138:                                              ; preds = %131
  %139 = getelementptr inbounds %"class.v8::internal::wasm::WasmDecoder.207", %"class.v8::internal::wasm::WasmDecoder.207"* %0, i64 0, i32 0
  %140 = call i32 @_ZN2v88internal4wasm7Decoder17read_leb_slowpathIjLNS2_12ValidateFlagE0ELNS2_9TraceFlagE0ELm32EEET_PKhPjPKc(%"class.v8::internal::wasm::Decoder"* %139, i8* %133, i32* nonnull %5, i8* getelementptr inbounds ([22 x i8], [22 x i8]* @.str.42, i64 0, i64 0)) #11
  %141 = load i8, i8* %1, align 1
  %142 = zext i8 %141 to i32
  br label %143

143:                                              ; preds = %136, %138
  %144 = phi i32 [ %11, %136 ], [ %142, %138 ]
  %145 = phi i32 [ %137, %136 ], [ %140, %138 ]
  %146 = shl nuw nsw i32 %144, 8
  %147 = or i32 %146, %145
  call void @llvm.lifetime.end.p0i8(i64 4, i8* nonnull %132) #11
  %148 = add i32 %147, -64780
  %149 = icmp ult i32 %148, 23
  br i1 %149, label %232, label %150

150:                                              ; preds = %232, %143
  %151 = ashr i32 %147, 8
  switch i32 %151, label %158 [
    i32 0, label %159
    i32 253, label %152
    i32 254, label %154
    i32 252, label %156
  ]

152:                                              ; preds = %150
  %153 = and i32 %145, 255
  br label %159

154:                                              ; preds = %150
  %155 = and i32 %145, 255
  br label %159

156:                                              ; preds = %150
  %157 = and i32 %145, 255
  br label %159

158:                                              ; preds = %150
  call void (i8*, ...) @_Z8V8_FatalPKcz(i8* getelementptr inbounds ([17 x i8], [17 x i8]* @.str.1260, i64 0, i64 0)) #15
  unreachable

159:                                              ; preds = %150, %152, %154, %156
  %160 = phi i32 [ %153, %152 ], [ %155, %154 ], [ %157, %156 ], [ %147, %150 ]
  %161 = phi %"struct.std::__1::array.243"* [ @_ZN2v88internal4wasm4implL17kSimdExprSigTableE, %152 ], [ bitcast ({ <{ [79 x i8], [177 x i8] }> }* @_ZN2v88internal4wasm4implL19kAtomicExprSigTableE to %"struct.std::__1::array.243"*), %154 ], [ bitcast ({ <{ [18 x i8], [238 x i8] }> }* @_ZN2v88internal4wasm4implL20kNumericExprSigTableE to %"struct.std::__1::array.243"*), %156 ], [ bitcast ({ <{ [214 x i8], [42 x i8] }> }* @_ZN2v88internal4wasm4implL14kShortSigTableE to %"struct.std::__1::array.243"*), %150 ]
  %162 = zext i32 %160 to i64
  %163 = getelementptr inbounds %"struct.std::__1::array.243", %"struct.std::__1::array.243"* %161, i64 0, i32 0, i64 %162
  %164 = load i8, i8* %163, align 1
  %165 = zext i8 %164 to i64
  %166 = getelementptr inbounds [53 x %"class.v8::internal::Signature"*], [53 x %"class.v8::internal::Signature"*]* @_ZN2v88internal4wasm4implL11kCachedSigsE, i64 0, i64 %165
  %167 = load %"class.v8::internal::Signature"*, %"class.v8::internal::Signature"** %166, align 8
  %168 = icmp eq i8 %164, 0
  br i1 %168, label %175, label %169

169:                                              ; preds = %159
  %170 = getelementptr inbounds %"class.v8::internal::Signature", %"class.v8::internal::Signature"* %167, i64 0, i32 1
  %171 = load i64, i64* %170, align 8
  %172 = getelementptr inbounds %"class.v8::internal::Signature", %"class.v8::internal::Signature"* %167, i64 0, i32 0
  %173 = load i64, i64* %172, align 8
  %174 = trunc i64 %171 to i32
  br label %240

175:                                              ; preds = %159
  call void (i8*, ...) @_Z8V8_FatalPKcz(i8* getelementptr inbounds ([17 x i8], [17 x i8]* @.str.1260, i64 0, i64 0)) #15
  unreachable

176:                                              ; preds = %30
  %177 = getelementptr inbounds %"class.v8::internal::wasm::WasmDecoder.207", %"class.v8::internal::wasm::WasmDecoder.207"* %0, i64 0, i32 0
  %178 = bitcast i32* %6 to i8*
  call void @llvm.lifetime.start.p0i8(i64 4, i8* nonnull %178) #11
  %179 = getelementptr inbounds i8, i8* %1, i64 1
  %180 = load i8, i8* %179, align 1
  %181 = icmp slt i8 %180, 0
  br i1 %181, label %184, label %182

182:                                              ; preds = %176
  store i32 1, i32* %6, align 4
  %183 = zext i8 %180 to i32
  br label %189

184:                                              ; preds = %176
  %185 = call i32 @_ZN2v88internal4wasm7Decoder17read_leb_slowpathIjLNS2_12ValidateFlagE0ELNS2_9TraceFlagE0ELm32EEET_PKhPjPKc(%"class.v8::internal::wasm::Decoder"* %177, i8* %179, i32* nonnull %6, i8* getelementptr inbounds ([22 x i8], [22 x i8]* @.str.42, i64 0, i64 0)) #11
  %186 = load i8, i8* %1, align 1
  %187 = zext i8 %186 to i32
  %188 = shl nuw nsw i32 %187, 8
  br label %189

189:                                              ; preds = %182, %184
  %190 = phi i32 [ %188, %184 ], [ 64256, %182 ]
  %191 = phi i32 [ %185, %184 ], [ %183, %182 ]
  %192 = or i32 %190, %191
  call void @llvm.lifetime.end.p0i8(i64 4, i8* nonnull %178) #11
  switch i32 %192, label %229 [
    i32 64258, label %240
    i32 64259, label %240
    i32 64260, label %240
    i32 64261, label %240
    i32 64288, label %240
    i32 64289, label %240
    i32 64290, label %240
    i32 64279, label %240
    i32 64305, label %240
    i32 64262, label %193
    i32 64274, label %194
    i32 64275, label %194
    i32 64276, label %194
    i32 64277, label %194
    i32 64320, label %194
    i32 64321, label %194
    i32 64322, label %194
    i32 64323, label %194
    i32 64278, label %195
    i32 64280, label %196
    i32 64304, label %197
    i32 64273, label %198
    i32 64257, label %199
  ]

193:                                              ; preds = %189
  br label %240

194:                                              ; preds = %189, %189, %189, %189, %189, %189, %189, %189
  br label %240

195:                                              ; preds = %189
  br label %240

196:                                              ; preds = %189
  br label %240

197:                                              ; preds = %189
  br label %240

198:                                              ; preds = %189
  br label %240

199:                                              ; preds = %189
  %200 = bitcast %"struct.v8::internal::wasm::StructIndexImmediate.267"* %9 to i8*
  call void @llvm.lifetime.start.p0i8(i64 16, i8* nonnull %200) #11
  %201 = getelementptr inbounds %"class.v8::internal::wasm::WasmDecoder.207", %"class.v8::internal::wasm::WasmDecoder.207"* %0, i64 0, i32 0, i32 2
  %202 = load i8*, i8** %201, align 8
  %203 = getelementptr inbounds i8, i8* %202, i64 2
  %204 = getelementptr inbounds %"struct.v8::internal::wasm::StructIndexImmediate.267", %"struct.v8::internal::wasm::StructIndexImmediate.267"* %9, i64 0, i32 0
  %205 = getelementptr inbounds %"struct.v8::internal::wasm::StructIndexImmediate.267", %"struct.v8::internal::wasm::StructIndexImmediate.267"* %9, i64 0, i32 1
  call void @llvm.memset.p0i8.i64(i8* nonnull align 8 %200, i8 0, i64 16, i1 false) #11
  %206 = load i8, i8* %203, align 1
  %207 = icmp slt i8 %206, 0
  br i1 %207, label %211, label %208

208:                                              ; preds = %199
  store i32 1, i32* %205, align 4
  %209 = load i8, i8* %203, align 1
  %210 = zext i8 %209 to i32
  br label %213

211:                                              ; preds = %199
  %212 = call i32 @_ZN2v88internal4wasm7Decoder17read_leb_slowpathIjLNS2_12ValidateFlagE0ELNS2_9TraceFlagE0ELm32EEET_PKhPjPKc(%"class.v8::internal::wasm::Decoder"* %177, i8* %203, i32* %205, i8* getelementptr inbounds ([13 x i8], [13 x i8]* @.str.1386, i64 0, i64 0)) #11
  br label %213

213:                                              ; preds = %208, %211
  %214 = phi i32 [ %212, %211 ], [ %210, %208 ]
  store i32 %214, i32* %204, align 8
  %215 = getelementptr inbounds %"class.v8::internal::wasm::WasmDecoder.207", %"class.v8::internal::wasm::WasmDecoder.207"* %0, i64 0, i32 3
  %216 = load %"struct.v8::internal::wasm::WasmModule"*, %"struct.v8::internal::wasm::WasmModule"** %215, align 8
  %217 = zext i32 %214 to i64
  %218 = getelementptr inbounds %"struct.v8::internal::wasm::WasmModule", %"struct.v8::internal::wasm::WasmModule"* %216, i64 0, i32 20, i32 0, i32 0
  %219 = load %"struct.v8::internal::wasm::TypeDefinition"*, %"struct.v8::internal::wasm::TypeDefinition"** %218, align 8
  %220 = getelementptr inbounds %"struct.v8::internal::wasm::TypeDefinition", %"struct.v8::internal::wasm::TypeDefinition"* %219, i64 %217
  %221 = bitcast %"struct.v8::internal::wasm::TypeDefinition"* %220 to i64*
  %222 = load i64, i64* %221, align 8
  %223 = getelementptr inbounds %"struct.v8::internal::wasm::StructIndexImmediate.267", %"struct.v8::internal::wasm::StructIndexImmediate.267"* %9, i64 0, i32 2
  %224 = bitcast %"class.v8::internal::wasm::StructType"** %223 to i64*
  store i64 %222, i64* %224, align 8
  %225 = inttoptr i64 %222 to %"class.v8::internal::wasm::StructType"*
  %226 = getelementptr inbounds %"class.v8::internal::wasm::StructType", %"class.v8::internal::wasm::StructType"* %225, i64 0, i32 0
  %227 = load i32, i32* %226, align 8
  %228 = add i32 %227, 1
  call void @llvm.lifetime.end.p0i8(i64 16, i8* nonnull %200) #11
  br label %240

229:                                              ; preds = %189
  call void (i8*, ...) @_Z8V8_FatalPKcz(i8* getelementptr inbounds ([17 x i8], [17 x i8]* @.str.1260, i64 0, i64 0)) #15
  unreachable

230:                                              ; preds = %30
  %231 = tail call i8* @_ZN2v88internal4wasm11WasmOpcodes10OpcodeNameENS1_10WasmOpcodeE(i32 %11)
  tail call void (i8*, ...) @_Z8V8_FatalPKcz(i8* getelementptr inbounds ([30 x i8], [30 x i8]* @.str.1420, i64 0, i64 0), i32 %11, i8* %231) #15
  unreachable

232:                                              ; preds = %143
  %233 = lshr i32 8388099, %148
  %234 = and i32 %233, 1
  %235 = icmp eq i32 %234, 0
  br i1 %235, label %150, label %236

236:                                              ; preds = %232
  %237 = sext i32 %148 to i64
  %238 = getelementptr inbounds [23 x i32], [23 x i32]* @switch.table._ZN2v88internal4wasm11WasmDecoderILNS1_7Decoder12ValidateFlagE0EE11StackEffectEPKh, i64 0, i64 %237
  %239 = load i32, i32* %238, align 4
  br label %240

240:                                              ; preds = %236, %189, %189, %189, %189, %189, %189, %189, %189, %189, %30, %30, %213, %198, %197, %196, %195, %194, %193, %169, %130, %129, %115, %89, %47, %34, %33, %32, %31, %20
  %241 = phi i32 [ %228, %213 ], [ 3, %198 ], [ 0, %197 ], [ 5, %196 ], [ 3, %195 ], [ 2, %194 ], [ 2, %193 ], [ %174, %169 ], [ 0, %130 ], [ 0, %129 ], [ %128, %115 ], [ %102, %89 ], [ %64, %47 ], [ 0, %34 ], [ 1, %33 ], [ 1, %32 ], [ 2, %31 ], [ %29, %20 ], [ 3, %30 ], [ 3, %30 ], [ 1, %189 ], [ 1, %189 ], [ 1, %189 ], [ 1, %189 ], [ 1, %189 ], [ 1, %189 ], [ 1, %189 ], [ 1, %189 ], [ 1, %189 ], [ %239, %236 ]
  %242 = phi i64 [ 1, %213 ], [ 1, %198 ], [ 1, %197 ], [ 0, %196 ], [ 0, %195 ], [ 1, %194 ], [ 0, %193 ], [ %173, %169 ], [ 0, %130 ], [ 0, %129 ], [ 0, %115 ], [ %100, %89 ], [ %63, %47 ], [ 1, %34 ], [ 0, %33 ], [ 1, %32 ], [ 0, %31 ], [ %28, %20 ], [ 1, %30 ], [ 1, %30 ], [ 1, %189 ], [ 1, %189 ], [ 1, %189 ], [ 1, %189 ], [ 1, %189 ], [ 1, %189 ], [ 1, %189 ], [ 1, %189 ], [ 1, %189 ], [ 1, %236 ]
  %243 = shl i64 %242, 32
  %244 = zext i32 %241 to i64
  %245 = or i64 %243, %244
  ret i64 %245
}

; Function Attrs: nounwind ssp uwtable
define hidden void @_ZN2v88internal4wasm16PrintRawWasmCodeEPKhS3_(i8*, i8*) local_unnamed_addr #0 {
  %3 = alloca %"class.v8::internal::StdoutStream", align 8
  %4 = alloca %"class.v8::internal::AccountingAllocator", align 8
  %5 = alloca %"struct.v8::internal::wasm::FunctionBody", align 8
  %6 = bitcast %"class.v8::internal::AccountingAllocator"* %4 to i8*
  call void @llvm.lifetime.start.p0i8(i64 40, i8* nonnull %6) #11
  call void @_ZN2v88internal19AccountingAllocatorC1Ev(%"class.v8::internal::AccountingAllocator"* nonnull %4) #11
  %7 = bitcast %"struct.v8::internal::wasm::FunctionBody"* %5 to i8*
  call void @llvm.lifetime.start.p0i8(i64 32, i8* nonnull %7) #11
  %8 = getelementptr inbounds %"struct.v8::internal::wasm::FunctionBody", %"struct.v8::internal::wasm::FunctionBody"* %5, i64 0, i32 0
  store %"class.v8::internal::Signature"* null, %"class.v8::internal::Signature"** %8, align 8
  %9 = getelementptr inbounds %"struct.v8::internal::wasm::FunctionBody", %"struct.v8::internal::wasm::FunctionBody"* %5, i64 0, i32 1
  store i32 0, i32* %9, align 8
  %10 = getelementptr inbounds %"struct.v8::internal::wasm::FunctionBody", %"struct.v8::internal::wasm::FunctionBody"* %5, i64 0, i32 2
  store i8* %0, i8** %10, align 8
  %11 = getelementptr inbounds %"struct.v8::internal::wasm::FunctionBody", %"struct.v8::internal::wasm::FunctionBody"* %5, i64 0, i32 3
  store i8* %1, i8** %11, align 8
  %12 = bitcast %"class.v8::internal::StdoutStream"* %3 to i8*
  call void @llvm.lifetime.start.p0i8(i64 240, i8* nonnull %12) #11
  %13 = getelementptr inbounds %"class.v8::internal::StdoutStream", %"class.v8::internal::StdoutStream"* %3, i64 0, i32 2, i32 0, i32 0
  store i32 (...)** bitcast (i8** getelementptr inbounds ({ [4 x i8*] }, { [4 x i8*] }* @_ZTVNSt3__19basic_iosIcNS_11char_traitsIcEEEE, i64 0, inrange i32 0, i64 2) to i32 (...)**), i32 (...)*** %13, align 8
  %14 = bitcast %"class.v8::internal::StdoutStream"* %3 to %"class.v8::internal::OFStream"*
  %15 = load %struct._IO_FILE*, %struct._IO_FILE** @stdout, align 8
  call void @_ZN2v88internal8OFStreamC2EP8_IO_FILE(%"class.v8::internal::OFStream"* nonnull %14, i8** getelementptr inbounds ([6 x i8*], [6 x i8*]* @_ZTTN2v88internal12StdoutStreamE, i64 0, i64 1), %struct._IO_FILE* %15) #11
  %16 = getelementptr inbounds %"class.v8::internal::StdoutStream", %"class.v8::internal::StdoutStream"* %3, i64 0, i32 0, i32 0, i32 0
  store i32 (...)** bitcast (i8** getelementptr inbounds ({ [5 x i8*], [5 x i8*] }, { [5 x i8*], [5 x i8*] }* @_ZTVN2v88internal12StdoutStreamE, i64 0, inrange i32 0, i64 3) to i32 (...)**), i32 (...)*** %16, align 8
  store i32 (...)** bitcast (i8** getelementptr inbounds ({ [5 x i8*], [5 x i8*] }, { [5 x i8*], [5 x i8*] }* @_ZTVN2v88internal12StdoutStreamE, i64 0, inrange i32 1, i64 3) to i32 (...)**), i32 (...)*** %13, align 8
  %17 = call %"class.v8::base::RecursiveMutex"* @_ZN2v88internal12StdoutStream14GetStdoutMutexEv() #11
  %18 = getelementptr inbounds %"class.v8::internal::StdoutStream", %"class.v8::internal::StdoutStream"* %3, i64 0, i32 1, i32 0
  store %"class.v8::base::RecursiveMutex"* %17, %"class.v8::base::RecursiveMutex"** %18, align 8
  call void @_ZN2v84base14RecursiveMutex4LockEv(%"class.v8::base::RecursiveMutex"* %17) #11
  %19 = bitcast %"class.v8::internal::StdoutStream"* %3 to %"class.std::__1::basic_ostream"*
  %20 = call zeroext i1 @_ZN2v88internal4wasm16PrintRawWasmCodeEPNS0_19AccountingAllocatorERKNS1_12FunctionBodyEPKNS1_10WasmModuleENS1_11PrintLocalsERNSt3__113basic_ostreamIcNSB_11char_traitsIcEEEEPNSB_6vectorIiNSB_9allocatorIiEEEE(%"class.v8::internal::AccountingAllocator"* nonnull %4, %"struct.v8::internal::wasm::FunctionBody"* nonnull dereferenceable(32) %5, %"struct.v8::internal::wasm::WasmModule"* null, i32 0, %"class.std::__1::basic_ostream"* nonnull dereferenceable(160) %19, %"class.std::__1::vector.208"* null) #11
  %21 = bitcast %"class.v8::internal::StdoutStream"* %3 to i64*
  store i64 ptrtoint (i8** getelementptr inbounds ({ [5 x i8*], [5 x i8*] }, { [5 x i8*], [5 x i8*] }* @_ZTVN2v88internal12StdoutStreamE, i64 0, inrange i32 0, i64 3) to i64), i64* %21, align 8
  %22 = getelementptr inbounds %"class.v8::internal::StdoutStream", %"class.v8::internal::StdoutStream"* %3, i64 0, i32 2
  %23 = bitcast %"class.std::__1::basic_ios.base"* %22 to i64*
  store i64 ptrtoint (i8** getelementptr inbounds ({ [5 x i8*], [5 x i8*] }, { [5 x i8*], [5 x i8*] }* @_ZTVN2v88internal12StdoutStreamE, i64 0, inrange i32 1, i64 3) to i64), i64* %23, align 8
  %24 = load %"class.v8::base::RecursiveMutex"*, %"class.v8::base::RecursiveMutex"** %18, align 8
  call void @_ZN2v84base14RecursiveMutex6UnlockEv(%"class.v8::base::RecursiveMutex"* %24) #11
  store i64 ptrtoint (i8** getelementptr inbounds ({ [5 x i8*], [5 x i8*] }, { [5 x i8*], [5 x i8*] }* @_ZTCN2v88internal12StdoutStreamE0_NS0_8OFStreamE, i64 0, inrange i32 0, i64 3) to i64), i64* %21, align 8
  store i64 ptrtoint (i8** getelementptr inbounds ({ [5 x i8*], [5 x i8*] }, { [5 x i8*], [5 x i8*] }* @_ZTCN2v88internal12StdoutStreamE0_NS0_8OFStreamE, i64 0, inrange i32 1, i64 3) to i64), i64* %23, align 8
  %25 = getelementptr inbounds %"class.v8::internal::StdoutStream", %"class.v8::internal::StdoutStream"* %3, i64 0, i32 0, i32 1, i32 0
  call void @_ZNSt3__115basic_streambufIcNS_11char_traitsIcEEED2Ev(%"class.std::__1::basic_streambuf"* %25) #11
  call void @_ZNSt3__113basic_ostreamIcNS_11char_traitsIcEEED2Ev(%"class.std::__1::basic_ostream"* nonnull %19, i8** getelementptr inbounds ([6 x i8*], [6 x i8*]* @_ZTTN2v88internal12StdoutStreamE, i64 0, i64 2)) #11
  %26 = bitcast %"class.std::__1::basic_ios.base"* %22 to %"class.std::__1::basic_ios"*
  call void @_ZNSt3__19basic_iosIcNS_11char_traitsIcEEED2Ev(%"class.std::__1::basic_ios"* %26) #11
  call void @llvm.lifetime.end.p0i8(i64 240, i8* nonnull %12) #11
  call void @llvm.lifetime.end.p0i8(i64 32, i8* nonnull %7) #11
  call void @_ZN2v88internal19AccountingAllocatorD1Ev(%"class.v8::internal::AccountingAllocator"* nonnull %4) #11
  call void @llvm.lifetime.end.p0i8(i64 40, i8* nonnull %6) #11
  ret void
}

declare void @_ZN2v88internal19AccountingAllocatorC1Ev(%"class.v8::internal::AccountingAllocator"*) unnamed_addr #3

; Function Attrs: nounwind ssp uwtable
define hidden zeroext i1 @_ZN2v88internal4wasm16PrintRawWasmCodeEPNS0_19AccountingAllocatorERKNS1_12FunctionBodyEPKNS1_10WasmModuleENS1_11PrintLocalsE(%"class.v8::internal::AccountingAllocator"*, %"struct.v8::internal::wasm::FunctionBody"* nocapture readonly dereferenceable(32), %"struct.v8::internal::wasm::WasmModule"*, i32) local_unnamed_addr #0 {
  %5 = alloca %"class.v8::internal::StdoutStream", align 8
  %6 = bitcast %"class.v8::internal::StdoutStream"* %5 to i8*
  call void @llvm.lifetime.start.p0i8(i64 240, i8* nonnull %6) #11
  %7 = getelementptr inbounds %"class.v8::internal::StdoutStream", %"class.v8::internal::StdoutStream"* %5, i64 0, i32 2, i32 0, i32 0
  store i32 (...)** bitcast (i8** getelementptr inbounds ({ [4 x i8*] }, { [4 x i8*] }* @_ZTVNSt3__19basic_iosIcNS_11char_traitsIcEEEE, i64 0, inrange i32 0, i64 2) to i32 (...)**), i32 (...)*** %7, align 8
  %8 = bitcast %"class.v8::internal::StdoutStream"* %5 to %"class.v8::internal::OFStream"*
  %9 = load %struct._IO_FILE*, %struct._IO_FILE** @stdout, align 8
  call void @_ZN2v88internal8OFStreamC2EP8_IO_FILE(%"class.v8::internal::OFStream"* nonnull %8, i8** getelementptr inbounds ([6 x i8*], [6 x i8*]* @_ZTTN2v88internal12StdoutStreamE, i64 0, i64 1), %struct._IO_FILE* %9) #11
  %10 = getelementptr inbounds %"class.v8::internal::StdoutStream", %"class.v8::internal::StdoutStream"* %5, i64 0, i32 0, i32 0, i32 0
  store i32 (...)** bitcast (i8** getelementptr inbounds ({ [5 x i8*], [5 x i8*] }, { [5 x i8*], [5 x i8*] }* @_ZTVN2v88internal12StdoutStreamE, i64 0, inrange i32 0, i64 3) to i32 (...)**), i32 (...)*** %10, align 8
  store i32 (...)** bitcast (i8** getelementptr inbounds ({ [5 x i8*], [5 x i8*] }, { [5 x i8*], [5 x i8*] }* @_ZTVN2v88internal12StdoutStreamE, i64 0, inrange i32 1, i64 3) to i32 (...)**), i32 (...)*** %7, align 8
  %11 = call %"class.v8::base::RecursiveMutex"* @_ZN2v88internal12StdoutStream14GetStdoutMutexEv() #11
  %12 = getelementptr inbounds %"class.v8::internal::StdoutStream", %"class.v8::internal::StdoutStream"* %5, i64 0, i32 1, i32 0
  store %"class.v8::base::RecursiveMutex"* %11, %"class.v8::base::RecursiveMutex"** %12, align 8
  call void @_ZN2v84base14RecursiveMutex4LockEv(%"class.v8::base::RecursiveMutex"* %11) #11
  %13 = bitcast %"class.v8::internal::StdoutStream"* %5 to %"class.std::__1::basic_ostream"*
  %14 = call zeroext i1 @_ZN2v88internal4wasm16PrintRawWasmCodeEPNS0_19AccountingAllocatorERKNS1_12FunctionBodyEPKNS1_10WasmModuleENS1_11PrintLocalsERNSt3__113basic_ostreamIcNSB_11char_traitsIcEEEEPNSB_6vectorIiNSB_9allocatorIiEEEE(%"class.v8::internal::AccountingAllocator"* %0, %"struct.v8::internal::wasm::FunctionBody"* dereferenceable(32) %1, %"struct.v8::internal::wasm::WasmModule"* %2, i32 %3, %"class.std::__1::basic_ostream"* nonnull dereferenceable(160) %13, %"class.std::__1::vector.208"* null)
  %15 = bitcast %"class.v8::internal::StdoutStream"* %5 to i64*
  store i64 ptrtoint (i8** getelementptr inbounds ({ [5 x i8*], [5 x i8*] }, { [5 x i8*], [5 x i8*] }* @_ZTVN2v88internal12StdoutStreamE, i64 0, inrange i32 0, i64 3) to i64), i64* %15, align 8
  %16 = getelementptr inbounds %"class.v8::internal::StdoutStream", %"class.v8::internal::StdoutStream"* %5, i64 0, i32 2
  %17 = bitcast %"class.std::__1::basic_ios.base"* %16 to i64*
  store i64 ptrtoint (i8** getelementptr inbounds ({ [5 x i8*], [5 x i8*] }, { [5 x i8*], [5 x i8*] }* @_ZTVN2v88internal12StdoutStreamE, i64 0, inrange i32 1, i64 3) to i64), i64* %17, align 8
  %18 = load %"class.v8::base::RecursiveMutex"*, %"class.v8::base::RecursiveMutex"** %12, align 8
  call void @_ZN2v84base14RecursiveMutex6UnlockEv(%"class.v8::base::RecursiveMutex"* %18) #11
  store i64 ptrtoint (i8** getelementptr inbounds ({ [5 x i8*], [5 x i8*] }, { [5 x i8*], [5 x i8*] }* @_ZTCN2v88internal12StdoutStreamE0_NS0_8OFStreamE, i64 0, inrange i32 0, i64 3) to i64), i64* %15, align 8
  store i64 ptrtoint (i8** getelementptr inbounds ({ [5 x i8*], [5 x i8*] }, { [5 x i8*], [5 x i8*] }* @_ZTCN2v88internal12StdoutStreamE0_NS0_8OFStreamE, i64 0, inrange i32 1, i64 3) to i64), i64* %17, align 8
  %19 = getelementptr inbounds %"class.v8::internal::StdoutStream", %"class.v8::internal::StdoutStream"* %5, i64 0, i32 0, i32 1, i32 0
  call void @_ZNSt3__115basic_streambufIcNS_11char_traitsIcEEED2Ev(%"class.std::__1::basic_streambuf"* %19) #11
  call void @_ZNSt3__113basic_ostreamIcNS_11char_traitsIcEEED2Ev(%"class.std::__1::basic_ostream"* nonnull %13, i8** getelementptr inbounds ([6 x i8*], [6 x i8*]* @_ZTTN2v88internal12StdoutStreamE, i64 0, i64 2)) #11
  %20 = bitcast %"class.std::__1::basic_ios.base"* %16 to %"class.std::__1::basic_ios"*
  call void @_ZNSt3__19basic_iosIcNS_11char_traitsIcEEED2Ev(%"class.std::__1::basic_ios"* %20) #11
  call void @llvm.lifetime.end.p0i8(i64 240, i8* nonnull %6) #11
  ret i1 %14
}

; Function Attrs: nounwind
declare void @_ZN2v88internal19AccountingAllocatorD1Ev(%"class.v8::internal::AccountingAllocator"*) unnamed_addr #4

; Function Attrs: nounwind ssp uwtable
define hidden zeroext i1 @_ZN2v88internal4wasm16PrintRawWasmCodeEPNS0_19AccountingAllocatorERKNS1_12FunctionBodyEPKNS1_10WasmModuleENS1_11PrintLocalsERNSt3__113basic_ostreamIcNSB_11char_traitsIcEEEEPNSB_6vectorIiNSB_9allocatorIiEEEE(%"class.v8::internal::AccountingAllocator"*, %"struct.v8::internal::wasm::FunctionBody"* nocapture readonly dereferenceable(32), %"struct.v8::internal::wasm::WasmModule"*, i32, %"class.std::__1::basic_ostream"* dereferenceable(160), %"class.std::__1::vector.208"*) local_unnamed_addr #0 {
  %7 = alloca %"class.std::__1::locale", align 8
  %8 = alloca %"class.std::__1::locale", align 8
  %9 = alloca %"class.std::__1::locale", align 8
  %10 = alloca %"class.std::__1::locale", align 8
  %11 = alloca i32, align 4
  %12 = alloca %"struct.v8::internal::wasm::TableIndexImmediate.252", align 4
  %13 = alloca i32, align 4
  %14 = alloca i32, align 4
  %15 = alloca %"class.std::__1::locale", align 8
  %16 = alloca %"class.v8::internal::wasm::WasmFeatures", align 4
  %17 = alloca %"class.v8::internal::wasm::WasmFeatures", align 4
  %18 = alloca %"class.v8::internal::wasm::WasmDecoder.207", align 8
  %19 = alloca %"class.v8::internal::Zone", align 8
  %20 = alloca %"class.v8::internal::wasm::WasmFeatures", align 4
  %21 = alloca %"class.v8::internal::wasm::WasmDecoder.207", align 8
  %22 = alloca %"struct.v8::internal::wasm::BodyLocalDecls", align 8
  %23 = alloca %"class.v8::internal::wasm::BytecodeIterator", align 8
  %24 = alloca %"class.v8::internal::wasm::ValueType", align 4
  %25 = alloca %"class.std::__1::basic_string", align 8
  %26 = alloca %"class.std::__1::basic_string", align 8
  %27 = alloca %"struct.v8::internal::AsHex", align 8
  %28 = alloca i32, align 4
  %29 = alloca %"class.v8::internal::wasm::ValueType", align 4
  %30 = alloca %"class.v8::internal::wasm::WasmFeatures", align 4
  %31 = alloca %"class.std::__1::basic_string", align 8
  %32 = alloca %"struct.v8::internal::AsHex", align 8
  %33 = alloca %"struct.v8::internal::AsHex", align 8
  %34 = alloca %"struct.v8::internal::AsHex", align 8
  %35 = alloca %"struct.v8::internal::wasm::BlockTypeImmediate", align 8
  %36 = alloca %"class.v8::internal::wasm::WasmFeatures", align 4
  %37 = alloca %"class.std::__1::basic_string", align 8
  %38 = alloca %"class.v8::internal::wasm::ValueType", align 4
  %39 = alloca %"struct.v8::internal::wasm::BranchDepthImmediate", align 4
  %40 = alloca %"struct.v8::internal::wasm::BranchDepthImmediate", align 4
  %41 = alloca %"struct.v8::internal::wasm::CallFunctionImmediate", align 8
  %42 = bitcast %"class.v8::internal::Zone"* %19 to i8*
  call void @llvm.lifetime.start.p0i8(i64 64, i8* nonnull %42) #11
  call void @_ZN2v88internal4ZoneC1EPNS0_19AccountingAllocatorEPKcb(%"class.v8::internal::Zone"* nonnull %19, %"class.v8::internal::AccountingAllocator"* %0, i8* getelementptr inbounds ([17 x i8], [17 x i8]* @__func__._ZN2v88internal4wasm16PrintRawWasmCodeEPNS0_19AccountingAllocatorERKNS1_12FunctionBodyEPKNS1_10WasmModuleENS1_11PrintLocalsERNSt3__113basic_ostreamIcNSB_11char_traitsIcEEEEPNSB_6vectorIiNSB_9allocatorIiEEEE, i64 0, i64 0), i1 zeroext false) #11
  %43 = bitcast %"class.v8::internal::wasm::WasmFeatures"* %20 to i8*
  call void @llvm.lifetime.start.p0i8(i64 4, i8* nonnull %43) #11
  %44 = getelementptr inbounds %"class.v8::internal::wasm::WasmFeatures", %"class.v8::internal::wasm::WasmFeatures"* %20, i64 0, i32 0, i32 0
  store i32 0, i32* %44, align 4
  %45 = bitcast %"class.v8::internal::wasm::WasmDecoder.207"* %21 to i8*
  call void @llvm.lifetime.start.p0i8(i64 144, i8* nonnull %45) #11
  %46 = getelementptr inbounds %"struct.v8::internal::wasm::FunctionBody", %"struct.v8::internal::wasm::FunctionBody"* %1, i64 0, i32 0
  %47 = load %"class.v8::internal::Signature"*, %"class.v8::internal::Signature"** %46, align 8
  %48 = getelementptr inbounds %"struct.v8::internal::wasm::FunctionBody", %"struct.v8::internal::wasm::FunctionBody"* %1, i64 0, i32 2
  %49 = getelementptr inbounds %"struct.v8::internal::wasm::FunctionBody", %"struct.v8::internal::wasm::FunctionBody"* %1, i64 0, i32 3
  %50 = bitcast i8** %48 to <2 x i64>*
  %51 = load <2 x i64>, <2 x i64>* %50, align 8
  %52 = getelementptr inbounds %"class.v8::internal::wasm::WasmDecoder.207", %"class.v8::internal::wasm::WasmDecoder.207"* %21, i64 0, i32 0, i32 0
  %53 = getelementptr inbounds %"class.v8::internal::wasm::WasmDecoder.207", %"class.v8::internal::wasm::WasmDecoder.207"* %21, i64 0, i32 0, i32 1
  %54 = bitcast i8** %53 to i64*
  %55 = extractelement <2 x i64> %51, i32 0
  store i64 %55, i64* %54, align 8
  %56 = getelementptr inbounds %"class.v8::internal::wasm::WasmDecoder.207", %"class.v8::internal::wasm::WasmDecoder.207"* %21, i64 0, i32 0, i32 2
  %57 = bitcast i8** %56 to <2 x i64>*
  store <2 x i64> %51, <2 x i64>* %57, align 8
  %58 = getelementptr inbounds %"class.v8::internal::wasm::WasmDecoder.207", %"class.v8::internal::wasm::WasmDecoder.207"* %21, i64 0, i32 0, i32 4
  store i32 0, i32* %58, align 8
  %59 = getelementptr inbounds %"class.v8::internal::wasm::WasmDecoder.207", %"class.v8::internal::wasm::WasmDecoder.207"* %21, i64 0, i32 0, i32 5, i32 0
  store i32 0, i32* %59, align 8
  %60 = getelementptr inbounds %"class.v8::internal::wasm::WasmDecoder.207", %"class.v8::internal::wasm::WasmDecoder.207"* %21, i64 0, i32 0, i32 5, i32 1
  %61 = bitcast %"class.std::__1::basic_string"* %60 to i8*
  call void @llvm.memset.p0i8.i64(i8* align 8 %61, i8 0, i64 24, i1 false) #11
  store i32 (...)** bitcast (i8** getelementptr inbounds ({ [5 x i8*] }, { [5 x i8*] }* @_ZTVN2v88internal4wasm11WasmDecoderILNS1_7Decoder12ValidateFlagE0EEE, i64 0, inrange i32 0, i64 2) to i32 (...)**), i32 (...)*** %52, align 8
  %62 = getelementptr inbounds %"class.v8::internal::wasm::WasmDecoder.207", %"class.v8::internal::wasm::WasmDecoder.207"* %21, i64 0, i32 1
  %63 = ptrtoint %"class.v8::internal::Zone"* %19 to i64
  %64 = getelementptr inbounds %"class.v8::internal::wasm::WasmDecoder.207", %"class.v8::internal::wasm::WasmDecoder.207"* %21, i64 0, i32 1, i32 0, i32 0, i32 2, i32 1
  %65 = bitcast %"struct.std::__1::__compressed_pair_elem.0"* %64 to i64*
  %66 = bitcast %"class.v8::internal::ZoneVector"* %62 to i8*
  call void @llvm.memset.p0i8.i64(i8* align 8 %66, i8 0, i64 24, i1 false) #11
  store i64 %63, i64* %65, align 8
  %67 = getelementptr inbounds %"class.v8::internal::wasm::WasmDecoder.207", %"class.v8::internal::wasm::WasmDecoder.207"* %21, i64 0, i32 2
  store i32 0, i32* %67, align 8
  %68 = getelementptr inbounds %"class.v8::internal::wasm::WasmDecoder.207", %"class.v8::internal::wasm::WasmDecoder.207"* %21, i64 0, i32 3
  store %"struct.v8::internal::wasm::WasmModule"* %2, %"struct.v8::internal::wasm::WasmModule"** %68, align 8
  %69 = getelementptr inbounds %"class.v8::internal::wasm::WasmDecoder.207", %"class.v8::internal::wasm::WasmDecoder.207"* %21, i64 0, i32 4, i32 0, i32 0
  store i32 8191, i32* %69, align 8
  %70 = getelementptr inbounds %"class.v8::internal::wasm::WasmDecoder.207", %"class.v8::internal::wasm::WasmDecoder.207"* %21, i64 0, i32 5
  store %"class.v8::internal::wasm::WasmFeatures"* %20, %"class.v8::internal::wasm::WasmFeatures"** %70, align 8
  %71 = getelementptr inbounds %"class.v8::internal::wasm::WasmDecoder.207", %"class.v8::internal::wasm::WasmDecoder.207"* %21, i64 0, i32 6
  store %"class.v8::internal::Signature"* %47, %"class.v8::internal::Signature"** %71, align 8
  %72 = icmp eq %"class.v8::internal::Signature"* %47, null
  br i1 %72, label %163, label %73

73:                                               ; preds = %6
  %74 = call dereferenceable(160) %"class.std::__1::basic_ostream"* @_ZNSt3__124__put_character_sequenceIcNS_11char_traitsIcEEEERNS_13basic_ostreamIT_T0_EES7_PKS4_m(%"class.std::__1::basic_ostream"* dereferenceable(160) %4, i8* getelementptr inbounds ([15 x i8], [15 x i8]* @.str, i64 0, i64 0), i64 14) #11
  %75 = load %"class.v8::internal::Signature"*, %"class.v8::internal::Signature"** %46, align 8
  %76 = call dereferenceable(160) %"class.std::__1::basic_ostream"* @_ZN2v88internal4wasmlsERNSt3__113basic_ostreamIcNS2_11char_traitsIcEEEERKNS0_9SignatureINS1_9ValueTypeEEE(%"class.std::__1::basic_ostream"* dereferenceable(160) %74, %"class.v8::internal::Signature"* dereferenceable(24) %75) #11
  %77 = bitcast %"class.std::__1::basic_ostream"* %76 to i8**
  %78 = load i8*, i8** %77, align 8
  %79 = getelementptr i8, i8* %78, i64 -24
  %80 = bitcast i8* %79 to i64*
  %81 = load i64, i64* %80, align 8
  %82 = bitcast %"class.std::__1::basic_ostream"* %76 to i8*
  %83 = getelementptr inbounds i8, i8* %82, i64 %81
  %84 = bitcast %"class.std::__1::locale"* %10 to i8*
  call void @llvm.lifetime.start.p0i8(i64 8, i8* nonnull %84) #11
  %85 = bitcast i8* %83 to %"class.std::__1::ios_base"*
  call void @_ZNKSt3__18ios_base6getlocEv(%"class.std::__1::locale"* nonnull sret %10, %"class.std::__1::ios_base"* %85) #11
  %86 = call %"class.std::__1::locale::facet"* @_ZNKSt3__16locale9use_facetERNS0_2idE(%"class.std::__1::locale"* nonnull %10, %"class.std::__1::locale::id"* nonnull dereferenceable(16) @_ZNSt3__15ctypeIcE2idE) #11
  %87 = bitcast %"class.std::__1::locale::facet"* %86 to %"class.std::__1::ctype"*
  %88 = bitcast %"class.std::__1::locale::facet"* %86 to i8 (%"class.std::__1::ctype"*, i8)***
  %89 = load i8 (%"class.std::__1::ctype"*, i8)**, i8 (%"class.std::__1::ctype"*, i8)*** %88, align 8
