; ModuleID = '../../chrome/browser/extensions/api/identity/gaia_remote_consent_flow.cc'
source_filename = "../../chrome/browser/extensions/api/identity/gaia_remote_consent_flow.cc"
target datalayout = "e-m:e-i64:64-f80:128-n8:16:32:64-S128"
target triple = "x86_64-unknown-linux-gnu"

module asm ".symver exp, exp@GLIBC_2.2.5"
module asm ".symver exp2, exp2@GLIBC_2.2.5"
module asm ".symver exp2f, exp2f@GLIBC_2.2.5"
module asm ".symver expf, expf@GLIBC_2.2.5"
module asm ".symver lgamma, lgamma@GLIBC_2.2.5"
module asm ".symver lgammaf, lgammaf@GLIBC_2.2.5"
module asm ".symver lgammal, lgammal@GLIBC_2.2.5"
module asm ".symver log, log@GLIBC_2.2.5"
module asm ".symver log2, log2@GLIBC_2.2.5"
module asm ".symver log2f, log2f@GLIBC_2.2.5"
module asm ".symver logf, logf@GLIBC_2.2.5"
module asm ".symver pow, pow@GLIBC_2.2.5"
module asm ".symver powf, powf@GLIBC_2.2.5"

%"class.extensions::GaiaRemoteConsentFlow::Delegate" = type { i32 (...)** }
%"class.extensions::GaiaRemoteConsentFlow" = type { %"class.extensions::WebAuthFlow::Delegate", %"class.signin::AccountsCookieMutator::PartitionDelegate", %"class.signin::IdentityManager::Observer", %"class.extensions::GaiaRemoteConsentFlow::Delegate"*, %class.Profile*, %struct.CoreAccountId, %struct.RemoteConsentResolutionData, %"class.std::__1::unique_ptr.48", i8, %"class.std::__1::unique_ptr.55", %"class.base::CallbackListSubscription", %"class.base::ScopedObservation" }
%"class.extensions::WebAuthFlow::Delegate" = type { i32 (...)** }
%"class.signin::AccountsCookieMutator::PartitionDelegate" = type { i32 (...)** }
%"class.signin::IdentityManager::Observer" = type { i32 (...)** }
%struct.CoreAccountId = type { %"class.std::__1::basic_string" }
%"class.std::__1::basic_string" = type { %"class.std::__1::__compressed_pair.30" }
%"class.std::__1::__compressed_pair.30" = type { %"struct.std::__1::__compressed_pair_elem.31" }
%"struct.std::__1::__compressed_pair_elem.31" = type { %"struct.std::__1::basic_string<char, std::__1::char_traits<char>, std::__1::allocator<char> >::__rep" }
%"struct.std::__1::basic_string<char, std::__1::char_traits<char>, std::__1::allocator<char> >::__rep" = type { %union.anon }
%union.anon = type { %"struct.std::__1::basic_string<char, std::__1::char_traits<char>, std::__1::allocator<char> >::__long" }
%"struct.std::__1::basic_string<char, std::__1::char_traits<char>, std::__1::allocator<char> >::__long" = type { i8*, i64, i64 }
%struct.RemoteConsentResolutionData = type { %class.GURL, %"class.std::__1::vector.41" }
%class.GURL = type { %"class.std::__1::basic_string", i8, %"struct.url::Parsed", %"class.std::__1::unique_ptr.35" }
%"struct.url::Parsed" = type { %"struct.url::Component", %"struct.url::Component", %"struct.url::Component", %"struct.url::Component", %"struct.url::Component", %"struct.url::Component", %"struct.url::Component", %"struct.url::Component", i8, %"struct.url::Parsed"* }
%"struct.url::Component" = type { i32, i32 }
%"class.std::__1::unique_ptr.35" = type { %"class.std::__1::__compressed_pair.36" }
%"class.std::__1::__compressed_pair.36" = type { %"struct.std::__1::__compressed_pair_elem.37" }
%"struct.std::__1::__compressed_pair_elem.37" = type { %class.GURL* }
%"class.std::__1::vector.41" = type { %"class.std::__1::__vector_base.42" }
%"class.std::__1::__vector_base.42" = type { %"class.net::CanonicalCookie"*, %"class.net::CanonicalCookie"*, %"class.std::__1::__compressed_pair.43" }
%"class.net::CanonicalCookie" = type { %"class.std::__1::basic_string", %"class.std::__1::basic_string", %"class.std::__1::basic_string", %"class.std::__1::basic_string", %"class.base::Time", %"class.base::Time", %"class.base::Time", i8, i8, i32, i32, i8, i32, i32 }
%"class.base::Time" = type { %"class.base::time_internal::TimeBase" }
%"class.base::time_internal::TimeBase" = type { i64 }
%"class.std::__1::__compressed_pair.43" = type { %"struct.std::__1::__compressed_pair_elem.44" }
%"struct.std::__1::__compressed_pair_elem.44" = type { %"class.net::CanonicalCookie"* }
%"class.std::__1::unique_ptr.48" = type { %"class.std::__1::__compressed_pair.49" }
%"class.std::__1::__compressed_pair.49" = type { %"struct.std::__1::__compressed_pair_elem.50" }
%"struct.std::__1::__compressed_pair_elem.50" = type { %"class.extensions::WebAuthFlow"* }
%"class.extensions::WebAuthFlow" = type <{ %"class.content::WebContentsObserver", %"class.extensions::AppWindowRegistry::Observer", %"class.extensions::WebAuthFlow::Delegate"*, %class.Profile*, %class.GURL, i32, i32, %"class.extensions::AppWindow"*, %"class.std::__1::basic_string", i8, [7 x i8] }>
%"class.content::WebContentsObserver" = type { %"class.IPC::Listener", %"class.content::WebContents"* }
%"class.IPC::Listener" = type { i32 (...)** }
%"class.content::WebContents" = type opaque
%"class.extensions::AppWindowRegistry::Observer" = type { %"class.base::CheckedObserver" }
%"class.base::CheckedObserver" = type { i32 (...)**, %"class.base::WeakPtrFactory" }
%"class.base::WeakPtrFactory" = type { %"class.base::internal::WeakPtrFactoryBase" }
%"class.base::internal::WeakPtrFactoryBase" = type { %"class.base::internal::WeakReferenceOwner", i64 }
%"class.base::internal::WeakReferenceOwner" = type { %class.scoped_refptr.51 }
%class.scoped_refptr.51 = type { %"class.base::internal::WeakReference::Flag"* }
%"class.base::internal::WeakReference::Flag" = type <{ %"class.base::RefCountedThreadSafe", %"class.base::AtomicFlag", [3 x i8] }>
%"class.base::RefCountedThreadSafe" = type { %"class.base::subtle::RefCountedThreadSafeBase" }
%"class.base::subtle::RefCountedThreadSafeBase" = type { %"class.base::AtomicRefCount" }
%"class.base::AtomicRefCount" = type { %"struct.std::__1::atomic" }
%"struct.std::__1::atomic" = type { %"struct.std::__1::__atomic_base" }
%"struct.std::__1::__atomic_base" = type { %"struct.std::__1::__atomic_base.13" }
%"struct.std::__1::__atomic_base.13" = type { %"struct.std::__1::__cxx_atomic_impl" }
%"struct.std::__1::__cxx_atomic_impl" = type { %"struct.std::__1::__cxx_atomic_base_impl" }
%"struct.std::__1::__cxx_atomic_base_impl" = type { i32 }
%"class.base::AtomicFlag" = type { %"struct.std::__1::atomic.14" }
%"struct.std::__1::atomic.14" = type { %"struct.std::__1::__atomic_base.15" }
%"struct.std::__1::__atomic_base.15" = type { %"struct.std::__1::__atomic_base.16" }
%"struct.std::__1::__atomic_base.16" = type { %"struct.std::__1::__cxx_atomic_impl.17" }
%"struct.std::__1::__cxx_atomic_impl.17" = type { %"struct.std::__1::__cxx_atomic_base_impl.18" }
%"struct.std::__1::__cxx_atomic_base_impl.18" = type { i8 }
%"class.extensions::AppWindow" = type opaque
%"class.std::__1::unique_ptr.55" = type { %"class.std::__1::__compressed_pair.56" }
%"class.std::__1::__compressed_pair.56" = type { %"struct.std::__1::__compressed_pair_elem.57" }
%"struct.std::__1::__compressed_pair_elem.57" = type { %"class.signin::AccountsCookieMutator::SetAccountsInCookieTask"* }
%"class.signin::AccountsCookieMutator::SetAccountsInCookieTask" = type { i32 (...)** }
%"class.base::CallbackListSubscription" = type { %"class.base::OnceCallback" }
%"class.base::OnceCallback" = type { %"class.base::internal::CallbackBase" }
%"class.base::internal::CallbackBase" = type { %class.scoped_refptr.61 }
%class.scoped_refptr.61 = type { %"class.base::internal::BindStateBase"* }
%"class.base::internal::BindStateBase" = type { %"class.base::RefCountedThreadSafe.62", void ()*, void (%"class.base::internal::BindStateBase"*)*, i1 (%"class.base::internal::BindStateBase"*, i32)* }
%"class.base::RefCountedThreadSafe.62" = type { %"class.base::subtle::RefCountedThreadSafeBase" }
%"class.base::ScopedObservation" = type { %"class.signin::IdentityManager::Observer"*, %"class.signin::IdentityManager"* }
%"class.signin::IdentityManager" = type <{ %class.KeyedService, %"class.OAuth2AccessTokenManager::DiagnosticsObserver", %"class.PrimaryAccountManager::Observer", %class.ProfileOAuth2TokenServiceObserver, %"class.std::__1::unique_ptr.63", %"class.std::__1::unique_ptr.69", %"class.std::__1::unique_ptr.119", %"class.std::__1::unique_ptr.125", %"class.std::__1::unique_ptr.141", %"class.signin::IdentityMutator", %"class.std::__1::unique_ptr.171", %"class.base::ScopedObservation.177", %"class.base::ScopedObservation.178", %"class.base::ObserverList.179", %"class.base::ObserverList.183", i8, [7 x i8] }>
%class.KeyedService = type { i32 (...)** }
%"class.OAuth2AccessTokenManager::DiagnosticsObserver" = type { i32 (...)** }
%"class.PrimaryAccountManager::Observer" = type { %"class.base::CheckedObserver" }
%class.ProfileOAuth2TokenServiceObserver = type { i32 (...)** }
%"class.std::__1::unique_ptr.63" = type { %"class.std::__1::__compressed_pair.64" }
%"class.std::__1::__compressed_pair.64" = type { %"struct.std::__1::__compressed_pair_elem.65" }
%"struct.std::__1::__compressed_pair_elem.65" = type { %class.AccountTrackerService* }
%class.AccountTrackerService = type opaque
%"class.std::__1::unique_ptr.69" = type { %"class.std::__1::__compressed_pair.70" }
%"class.std::__1::__compressed_pair.70" = type { %"struct.std::__1::__compressed_pair_elem.71" }
%"struct.std::__1::__compressed_pair_elem.71" = type { %class.ProfileOAuth2TokenService* }
%class.ProfileOAuth2TokenService = type <{ %"class.OAuth2AccessTokenManager::Delegate", %class.ProfileOAuth2TokenServiceObserver, %class.PrefService*, %"class.std::__1::unique_ptr.72", i8, [7 x i8], %"class.std::__1::unique_ptr.78", %"class.base::RepeatingCallback", %"class.base::RepeatingCallback.115", i32, [4 x i8] }>
%"class.OAuth2AccessTokenManager::Delegate" = type { i32 (...)** }
%class.PrefService = type opaque
%"class.std::__1::unique_ptr.72" = type { %"class.std::__1::__compressed_pair.73" }
%"class.std::__1::__compressed_pair.73" = type { %"struct.std::__1::__compressed_pair_elem.74" }
%"struct.std::__1::__compressed_pair_elem.74" = type { %class.ProfileOAuth2TokenServiceDelegate* }
%class.ProfileOAuth2TokenServiceDelegate = type opaque
%"class.std::__1::unique_ptr.78" = type { %"class.std::__1::__compressed_pair.79" }
%"class.std::__1::__compressed_pair.79" = type { %"struct.std::__1::__compressed_pair_elem.80" }
%"struct.std::__1::__compressed_pair_elem.80" = type { %class.OAuth2AccessTokenManager* }
%class.OAuth2AccessTokenManager = type { i32 (...)**, %"class.std::__1::map.81", %"class.base::ObserverList.92", %"class.OAuth2AccessTokenManager::Delegate"*, %"class.std::__1::map.103" }
%"class.std::__1::map.81" = type { %"class.std::__1::__tree.82" }
%"class.std::__1::__tree.82" = type { %"class.std::__1::__tree_end_node"*, %"class.std::__1::__compressed_pair.83", %"class.std::__1::__compressed_pair.87" }
%"class.std::__1::__tree_end_node" = type { %"class.std::__1::__tree_node_base"* }
%"class.std::__1::__tree_node_base" = type <{ %"class.std::__1::__tree_end_node", %"class.std::__1::__tree_node_base"*, %"class.std::__1::__tree_end_node"*, i8, [7 x i8] }>
%"class.std::__1::__compressed_pair.83" = type { %"struct.std::__1::__compressed_pair_elem" }
%"struct.std::__1::__compressed_pair_elem" = type { %"class.std::__1::__tree_end_node" }
%"class.std::__1::__compressed_pair.87" = type { %"struct.std::__1::__compressed_pair_elem.2" }
%"struct.std::__1::__compressed_pair_elem.2" = type { i64 }
%"class.base::ObserverList.92" = type <{ %"class.std::__1::vector.93", %"class.base::LinkedList.100", i64, i32, [4 x i8] }>
%"class.std::__1::vector.93" = type { %"class.std::__1::__vector_base.94" }
%"class.std::__1::__vector_base.94" = type { %"class.base::internal::UncheckedObserverAdapter"*, %"class.base::internal::UncheckedObserverAdapter"*, %"class.std::__1::__compressed_pair.95" }
%"class.base::internal::UncheckedObserverAdapter" = type { i8* }
%"class.std::__1::__compressed_pair.95" = type { %"struct.std::__1::__compressed_pair_elem.96" }
%"struct.std::__1::__compressed_pair_elem.96" = type { %"class.base::internal::UncheckedObserverAdapter"* }
%"class.base::LinkedList.100" = type { %"class.base::LinkNode.101" }
%"class.base::LinkNode.101" = type { %"class.base::internal::LinkNodeBase" }
%"class.base::internal::LinkNodeBase" = type { %"class.base::internal::LinkNodeBase"*, %"class.base::internal::LinkNodeBase"* }
%"class.std::__1::map.103" = type { %"class.std::__1::__tree.104" }
%"class.std::__1::__tree.104" = type { %"class.std::__1::__tree_end_node"*, %"class.std::__1::__compressed_pair.105", %"class.std::__1::__compressed_pair.109" }
%"class.std::__1::__compressed_pair.105" = type { %"struct.std::__1::__compressed_pair_elem" }
%"class.std::__1::__compressed_pair.109" = type { %"struct.std::__1::__compressed_pair_elem.2" }
%"class.base::RepeatingCallback" = type { %"class.base::internal::CallbackBaseCopyable" }
%"class.base::internal::CallbackBaseCopyable" = type { %"class.base::internal::CallbackBase" }
%"class.base::RepeatingCallback.115" = type { %"class.base::internal::CallbackBaseCopyable" }
%"class.std::__1::unique_ptr.119" = type { %"class.std::__1::__compressed_pair.120" }
%"class.std::__1::__compressed_pair.120" = type { %"struct.std::__1::__compressed_pair_elem.121" }
%"struct.std::__1::__compressed_pair_elem.121" = type { %class.GaiaCookieManagerService* }
%class.GaiaCookieManagerService = type opaque
%"class.std::__1::unique_ptr.125" = type { %"class.std::__1::__compressed_pair.126" }
%"class.std::__1::__compressed_pair.126" = type { %"struct.std::__1::__compressed_pair_elem.127" }
%"struct.std::__1::__compressed_pair_elem.127" = type { %class.PrimaryAccountManager* }
%class.PrimaryAccountManager = type { %class.ProfileOAuth2TokenServiceObserver, %class.SigninClient*, %class.ProfileOAuth2TokenService*, %class.AccountTrackerService*, i8, [7 x i8], %struct.CoreAccountInfo, %"class.std::__1::unique_ptr.128", %"class.base::ObserverList.134" }
%class.SigninClient = type { %class.KeyedService }
%struct.CoreAccountInfo = type <{ %struct.CoreAccountId, %"class.std::__1::basic_string", %"class.std::__1::basic_string", i8, [7 x i8] }>
%"class.std::__1::unique_ptr.128" = type { %"class.std::__1::__compressed_pair.129" }
%"class.std::__1::__compressed_pair.129" = type { %"struct.std::__1::__compressed_pair_elem.130" }
%"struct.std::__1::__compressed_pair_elem.130" = type { %class.PrimaryAccountPolicyManager* }
%class.PrimaryAccountPolicyManager = type opaque
%"class.base::ObserverList.134" = type <{ %"class.std::__1::vector", %"class.base::LinkedList.135", i64, i32, [4 x i8] }>
%"class.std::__1::vector" = type { %"class.std::__1::__vector_base" }
%"class.std::__1::__vector_base" = type { %"class.base::internal::CheckedObserverAdapter"*, %"class.base::internal::CheckedObserverAdapter"*, %"class.std::__1::__compressed_pair.19" }
%"class.base::internal::CheckedObserverAdapter" = type { %"class.base::WeakPtr" }
%"class.base::WeakPtr" = type { %"class.base::internal::WeakPtrBase" }
%"class.base::internal::WeakPtrBase" = type { %"class.base::internal::WeakReference", i64 }
%"class.base::internal::WeakReference" = type { %class.scoped_refptr }
%class.scoped_refptr = type { %"class.base::internal::WeakReference::Flag"* }
%"class.std::__1::__compressed_pair.19" = type { %"struct.std::__1::__compressed_pair_elem.20" }
%"struct.std::__1::__compressed_pair_elem.20" = type { %"class.base::internal::CheckedObserverAdapter"* }
%"class.base::LinkedList.135" = type { %"class.base::LinkNode.136" }
%"class.base::LinkNode.136" = type { %"class.base::internal::LinkNodeBase" }
%"class.std::__1::unique_ptr.141" = type { %"class.std::__1::__compressed_pair.142" }
%"class.std::__1::__compressed_pair.142" = type { %"struct.std::__1::__compressed_pair_elem.143" }
%"struct.std::__1::__compressed_pair_elem.143" = type { %class.AccountFetcherService* }
%class.AccountFetcherService = type opaque
%"class.signin::IdentityMutator" = type { i32 (...)**, %"class.std::__1::unique_ptr.147", %"class.std::__1::unique_ptr.153", %"class.std::__1::unique_ptr.159", %"class.std::__1::unique_ptr.165" }
%"class.std::__1::unique_ptr.147" = type { %"class.std::__1::__compressed_pair.148" }
%"class.std::__1::__compressed_pair.148" = type { %"struct.std::__1::__compressed_pair_elem.149" }
%"struct.std::__1::__compressed_pair_elem.149" = type { %"class.signin::PrimaryAccountMutator"* }
%"class.signin::PrimaryAccountMutator" = type opaque
%"class.std::__1::unique_ptr.153" = type { %"class.std::__1::__compressed_pair.154" }
%"class.std::__1::__compressed_pair.154" = type { %"struct.std::__1::__compressed_pair_elem.155" }
%"struct.std::__1::__compressed_pair_elem.155" = type { %"class.signin::AccountsMutator"* }
%"class.signin::AccountsMutator" = type opaque
%"class.std::__1::unique_ptr.159" = type { %"class.std::__1::__compressed_pair.160" }
%"class.std::__1::__compressed_pair.160" = type { %"struct.std::__1::__compressed_pair_elem.161" }
%"struct.std::__1::__compressed_pair_elem.161" = type { %"class.signin::AccountsCookieMutator"* }
%"class.signin::AccountsCookieMutator" = type { i32 (...)** }
%"class.std::__1::unique_ptr.165" = type { %"class.std::__1::__compressed_pair.166" }
%"class.std::__1::__compressed_pair.166" = type { %"struct.std::__1::__compressed_pair_elem.167" }
%"struct.std::__1::__compressed_pair_elem.167" = type { %"class.signin::DeviceAccountsSynchronizer"* }
%"class.signin::DeviceAccountsSynchronizer" = type opaque
%"class.std::__1::unique_ptr.171" = type { %"class.std::__1::__compressed_pair.172" }
%"class.std::__1::__compressed_pair.172" = type { %"struct.std::__1::__compressed_pair_elem.173" }
%"struct.std::__1::__compressed_pair_elem.173" = type { %"class.signin::DiagnosticsProvider"* }
%"class.signin::DiagnosticsProvider" = type opaque
%"class.base::ScopedObservation.177" = type { %"class.PrimaryAccountManager::Observer"*, %class.PrimaryAccountManager* }
%"class.base::ScopedObservation.178" = type { %class.ProfileOAuth2TokenServiceObserver*, %class.ProfileOAuth2TokenService* }
%"class.base::ObserverList.179" = type <{ %"class.std::__1::vector.93", %"class.base::LinkedList.180", i64, i32, [4 x i8] }>
%"class.base::LinkedList.180" = type { %"class.base::LinkNode.181" }
%"class.base::LinkNode.181" = type { %"class.base::internal::LinkNodeBase" }
%"class.base::ObserverList.183" = type <{ %"class.std::__1::vector.93", %"class.base::LinkedList.184", i64, i32, [4 x i8] }>
%"class.base::LinkedList.184" = type { %"class.base::LinkNode.185" }
%"class.base::LinkNode.185" = type { %"class.base::internal::LinkNodeBase" }
%class.Profile = type { %"class.content::BrowserContext", %"class.std::__1::unique_ptr.7", i8, i8, i32, %"class.base::ObserverList", %"class.std::__1::unique_ptr.24" }
%"class.content::BrowserContext" = type { %"class.base::SupportsUserData.base", %"class.std::__1::unique_ptr" }
%"class.base::SupportsUserData.base" = type <{ i32 (...)**, %"class.std::__1::map", %"class.base::SequenceCheckerDoNothing" }>
%"class.std::__1::map" = type { %"class.std::__1::__tree" }
%"class.std::__1::__tree" = type { %"class.std::__1::__tree_end_node"*, %"class.std::__1::__compressed_pair", %"class.std::__1::__compressed_pair.1" }
%"class.std::__1::__compressed_pair" = type { %"struct.std::__1::__compressed_pair_elem" }
%"class.std::__1::__compressed_pair.1" = type { %"struct.std::__1::__compressed_pair_elem.2" }
%"class.base::SequenceCheckerDoNothing" = type { i8 }
%"class.std::__1::unique_ptr" = type { %"class.std::__1::__compressed_pair.4" }
%"class.std::__1::__compressed_pair.4" = type { %"struct.std::__1::__compressed_pair_elem.5" }
%"struct.std::__1::__compressed_pair_elem.5" = type { %"class.content::BrowserContext::Impl"* }
%"class.content::BrowserContext::Impl" = type opaque
%"class.std::__1::unique_ptr.7" = type { %"class.std::__1::__compressed_pair.8" }
%"class.std::__1::__compressed_pair.8" = type { %"struct.std::__1::__compressed_pair_elem.9" }
%"struct.std::__1::__compressed_pair_elem.9" = type { %"class.content::ResourceContext"* }
%"class.content::ResourceContext" = type opaque
%"class.base::ObserverList" = type <{ %"class.std::__1::vector", %"class.base::LinkedList", i64, i32, [4 x i8] }>
%"class.base::LinkedList" = type { %"class.base::LinkNode" }
%"class.base::LinkNode" = type { %"class.base::internal::LinkNodeBase" }
%"class.std::__1::unique_ptr.24" = type { %"class.std::__1::__compressed_pair.25" }
%"class.std::__1::__compressed_pair.25" = type { %"struct.std::__1::__compressed_pair_elem.26" }
%"struct.std::__1::__compressed_pair_elem.26" = type { %"class.variations::VariationsClient"* }
%"class.variations::VariationsClient" = type opaque
%"struct.extensions::ExtensionTokenKey" = type { %"class.std::__1::basic_string", %struct.CoreAccountInfo, %"class.std::__1::set" }
%"class.std::__1::set" = type { %"class.std::__1::__tree.187" }
%"class.std::__1::__tree.187" = type { %"class.std::__1::__tree_end_node"*, %"class.std::__1::__compressed_pair.188", %"class.std::__1::__compressed_pair.192" }
%"class.std::__1::__compressed_pair.188" = type { %"struct.std::__1::__compressed_pair_elem" }
%"class.std::__1::__compressed_pair.192" = type { %"struct.std::__1::__compressed_pair_elem.2" }
%"class.std::__1::vector.502" = type { %"class.std::__1::__vector_base.503" }
%"class.std::__1::__vector_base.503" = type { %struct.CoreAccountId*, %struct.CoreAccountId*, %"class.std::__1::__compressed_pair.504" }
%"class.std::__1::__compressed_pair.504" = type { %"struct.std::__1::__compressed_pair_elem.505" }
%"struct.std::__1::__compressed_pair_elem.505" = type { %struct.CoreAccountId* }
%"class.std::__1::vector.509" = type { %"class.std::__1::__vector_base.510" }
%"class.std::__1::__vector_base.510" = type { %struct.CoreAccountInfo*, %struct.CoreAccountInfo*, %"class.std::__1::__compressed_pair.511" }
%"class.std::__1::__compressed_pair.511" = type { %"struct.std::__1::__compressed_pair_elem.512" }
%"struct.std::__1::__compressed_pair_elem.512" = type { %struct.CoreAccountInfo* }
%"struct.signin::MultiloginParameters" = type { i32, %"class.std::__1::vector.502" }
%"class.gaia::GaiaSource" = type { i32, %"class.std::__1::basic_string" }
%"class.base::OnceCallback.517" = type { %"class.base::internal::CallbackBase" }
%"class.extensions::BrowserContextKeyedAPIFactory" = type { %class.BrowserContextKeyedServiceFactory }
%class.BrowserContextKeyedServiceFactory = type { %class.KeyedServiceFactory }
%class.KeyedServiceFactory = type { %class.KeyedServiceBaseFactory.base, %"class.std::__1::map.224", %"class.std::__1::map.233" }
%class.KeyedServiceBaseFactory.base = type <{ i32 (...)**, %class.DependencyManager*, i8*, i32 }>
%class.DependencyManager = type { i32 (...)**, %class.DependencyGraph, %"class.std::__1::set.214" }
%class.DependencyGraph = type { %"class.std::__1::vector.197", %"class.std::__1::multimap", %"class.std::__1::vector.197" }
%"class.std::__1::multimap" = type { %"class.std::__1::__tree.204" }
%"class.std::__1::__tree.204" = type { %"class.std::__1::__tree_end_node"*, %"class.std::__1::__compressed_pair.205", %"class.std::__1::__compressed_pair.209" }
%"class.std::__1::__compressed_pair.205" = type { %"struct.std::__1::__compressed_pair_elem" }
%"class.std::__1::__compressed_pair.209" = type { %"struct.std::__1::__compressed_pair_elem.2" }
%"class.std::__1::vector.197" = type { %"class.std::__1::__vector_base.198" }
%"class.std::__1::__vector_base.198" = type { %class.DependencyNode**, %class.DependencyNode**, %"class.std::__1::__compressed_pair.199" }
%class.DependencyNode = type { i8 }
%"class.std::__1::__compressed_pair.199" = type { %"struct.std::__1::__compressed_pair_elem.200" }
%"struct.std::__1::__compressed_pair_elem.200" = type { %class.DependencyNode** }
%"class.std::__1::set.214" = type { %"class.std::__1::__tree.215" }
%"class.std::__1::__tree.215" = type { %"class.std::__1::__tree_end_node"*, %"class.std::__1::__compressed_pair.216", %"class.std::__1::__compressed_pair.220" }
%"class.std::__1::__compressed_pair.216" = type { %"struct.std::__1::__compressed_pair_elem" }
%"class.std::__1::__compressed_pair.220" = type { %"struct.std::__1::__compressed_pair_elem.2" }
%"class.std::__1::map.224" = type { %"class.std::__1::__tree.225" }
%"class.std::__1::__tree.225" = type { %"class.std::__1::__tree_end_node"*, %"class.std::__1::__compressed_pair.226", %"class.std::__1::__compressed_pair.230" }
%"class.std::__1::__compressed_pair.226" = type { %"struct.std::__1::__compressed_pair_elem" }
%"class.std::__1::__compressed_pair.230" = type { %"struct.std::__1::__compressed_pair_elem.2" }
%"class.std::__1::map.233" = type { %"class.std::__1::__tree.234" }
%"class.std::__1::__tree.234" = type { %"class.std::__1::__tree_end_node"*, %"class.std::__1::__compressed_pair.235", %"class.std::__1::__compressed_pair.239" }
%"class.std::__1::__compressed_pair.235" = type { %"struct.std::__1::__compressed_pair_elem" }
%"class.std::__1::__compressed_pair.239" = type { %"struct.std::__1::__compressed_pair_elem.2" }
%"class.extensions::IdentityAPI" = type { %"class.extensions::BrowserContextKeyedAPI", %"class.signin::IdentityManager::Observer", %class.Profile*, %"class.signin::IdentityManager"*, %"class.extensions::ExtensionPrefs"*, %"class.extensions::EventRouter"*, %"class.extensions::IdentityMintRequestQueue", %"class.extensions::IdentityTokenCache", %"class.base::RepeatingCallback.473", %"class.base::RepeatingCallbackList", %"class.base::OnceCallbackList" }
%"class.extensions::BrowserContextKeyedAPI" = type { %class.KeyedService }
%"class.extensions::ExtensionPrefs" = type opaque
%"class.extensions::EventRouter" = type { %class.KeyedService, %"class.extensions::ExtensionRegistryObserver", %"class.extensions::EventListenerMap::Delegate", %"class.content::RenderProcessHostObserver", %"class.extensions::mojom::EventRouter", %"class.content::BrowserContext"*, %"class.extensions::ExtensionPrefs"*, %"class.base::ScopedObservation.242", %"class.extensions::EventListenerMap", %"class.std::__1::unordered_map.381", %"class.base::ObserverList.405", %"class.std::__1::set.409", %"class.extensions::LazyEventDispatchUtil", %"class.extensions::EventAckData", %"class.mojo::ReceiverSetBase", %"class.base::WeakPtrFactory.439" }
%"class.extensions::ExtensionRegistryObserver" = type { i32 (...)** }
%"class.extensions::EventListenerMap::Delegate" = type { i32 (...)** }
%"class.content::RenderProcessHostObserver" = type { %"class.base::CheckedObserver" }
%"class.extensions::mojom::EventRouter" = type { i32 (...)** }
%"class.base::ScopedObservation.242" = type { %"class.extensions::ExtensionRegistryObserver"*, %"class.extensions::ExtensionRegistry"* }
%"class.extensions::ExtensionRegistry" = type { %class.KeyedService, %"class.extensions::ExtensionSet", %"class.extensions::ExtensionSet", %"class.extensions::ExtensionSet", %"class.extensions::ExtensionSet", %"class.extensions::ExtensionSet", %"class.extensions::ExtensionSet", %"class.base::ObserverList.252", %"class.content::BrowserContext"* }
%"class.extensions::ExtensionSet" = type { %"class.std::__1::map.243" }
%"class.std::__1::map.243" = type { %"class.std::__1::__tree.244" }
%"class.std::__1::__tree.244" = type { %"class.std::__1::__tree_end_node"*, %"class.std::__1::__compressed_pair.245", %"class.std::__1::__compressed_pair.249" }
%"class.std::__1::__compressed_pair.245" = type { %"struct.std::__1::__compressed_pair_elem" }
%"class.std::__1::__compressed_pair.249" = type { %"struct.std::__1::__compressed_pair_elem.2" }
%"class.base::ObserverList.252" = type <{ %"class.std::__1::vector.93", %"class.base::LinkedList.253", i64, i32, [4 x i8] }>
%"class.base::LinkedList.253" = type { %"class.base::LinkNode.254" }
%"class.base::LinkNode.254" = type { %"class.base::internal::LinkNodeBase" }
%"class.extensions::EventListenerMap" = type { %"class.extensions::EventListenerMap::Delegate"*, %"class.std::__1::set", %"class.std::__1::unordered_map", %"class.std::__1::map.274", %"class.extensions::EventFilter" }
%"class.std::__1::unordered_map" = type { %"class.std::__1::__hash_table" }
%"class.std::__1::__hash_table" = type <{ %"class.std::__1::unique_ptr.256", %"class.std::__1::__compressed_pair.264", %"class.std::__1::__compressed_pair.269", %"class.std::__1::__compressed_pair.271", [4 x i8] }>
%"class.std::__1::unique_ptr.256" = type { %"class.std::__1::__compressed_pair.257" }
%"class.std::__1::__compressed_pair.257" = type { %"struct.std::__1::__compressed_pair_elem.258", %"struct.std::__1::__compressed_pair_elem.259" }
%"struct.std::__1::__compressed_pair_elem.258" = type { %"struct.std::__1::__hash_node_base"** }
%"struct.std::__1::__hash_node_base" = type { %"struct.std::__1::__hash_node_base"* }
%"struct.std::__1::__compressed_pair_elem.259" = type { %"class.std::__1::__bucket_list_deallocator" }
%"class.std::__1::__bucket_list_deallocator" = type { %"class.std::__1::__compressed_pair.260" }
%"class.std::__1::__compressed_pair.260" = type { %"struct.std::__1::__compressed_pair_elem.2" }
%"class.std::__1::__compressed_pair.264" = type { %"struct.std::__1::__compressed_pair_elem.265" }
%"struct.std::__1::__compressed_pair_elem.265" = type { %"struct.std::__1::__hash_node_base" }
%"class.std::__1::__compressed_pair.269" = type { %"struct.std::__1::__compressed_pair_elem.2" }
%"class.std::__1::__compressed_pair.271" = type { %"struct.std::__1::__compressed_pair_elem.272" }
%"struct.std::__1::__compressed_pair_elem.272" = type { float }
%"class.std::__1::map.274" = type { %"class.std::__1::__tree.275" }
%"class.std::__1::__tree.275" = type { %"class.std::__1::__tree_end_node"*, %"class.std::__1::__compressed_pair.276", %"class.std::__1::__compressed_pair.280" }
%"class.std::__1::__compressed_pair.276" = type { %"struct.std::__1::__compressed_pair_elem" }
%"class.std::__1::__compressed_pair.280" = type { %"struct.std::__1::__compressed_pair_elem.2" }
%"class.extensions::EventFilter" = type { %"class.url_matcher::URLMatcher", %"class.std::__1::map.354", i32, i32, %"class.std::__1::map.363", %"class.std::__1::map.372" }
%"class.url_matcher::URLMatcher" = type { %"class.url_matcher::URLMatcherConditionFactory", %"class.std::__1::map.294", %"class.std::__1::map.303", %"class.std::__1::unique_ptr.312", %"class.std::__1::unique_ptr.312", %"class.url_matcher::RegexSetMatcher", %"class.url_matcher::RegexSetMatcher" }
%"class.url_matcher::URLMatcherConditionFactory" = type { i32, %"class.std::__1::map.285", %"class.std::__1::map.285", %"class.std::__1::map.285" }
%"class.std::__1::map.285" = type { %"class.std::__1::__tree.286" }
%"class.std::__1::__tree.286" = type { %"class.std::__1::__tree_end_node"*, %"class.std::__1::__compressed_pair.287", %"class.std::__1::__compressed_pair.291" }
%"class.std::__1::__compressed_pair.287" = type { %"struct.std::__1::__compressed_pair_elem" }
%"class.std::__1::__compressed_pair.291" = type { %"struct.std::__1::__compressed_pair_elem.2" }
%"class.std::__1::map.294" = type { %"class.std::__1::__tree.295" }
%"class.std::__1::__tree.295" = type { %"class.std::__1::__tree_end_node"*, %"class.std::__1::__compressed_pair.296", %"class.std::__1::__compressed_pair.300" }
%"class.std::__1::__compressed_pair.296" = type { %"struct.std::__1::__compressed_pair_elem" }
%"class.std::__1::__compressed_pair.300" = type { %"struct.std::__1::__compressed_pair_elem.2" }
%"class.std::__1::map.303" = type { %"class.std::__1::__tree.304" }
%"class.std::__1::__tree.304" = type { %"class.std::__1::__tree_end_node"*, %"class.std::__1::__compressed_pair.305", %"class.std::__1::__compressed_pair.309" }
%"class.std::__1::__compressed_pair.305" = type { %"struct.std::__1::__compressed_pair_elem" }
%"class.std::__1::__compressed_pair.309" = type { %"struct.std::__1::__compressed_pair_elem.2" }
%"class.std::__1::unique_ptr.312" = type { %"class.std::__1::__compressed_pair.313" }
%"class.std::__1::__compressed_pair.313" = type { %"struct.std::__1::__compressed_pair_elem.314" }
%"struct.std::__1::__compressed_pair_elem.314" = type { %"class.url_matcher::SubstringSetMatcher"* }
%"class.url_matcher::SubstringSetMatcher" = type <{ %"class.std::__1::vector.315", i8, [7 x i8] }>
%"class.std::__1::vector.315" = type { %"class.std::__1::__vector_base.316" }
%"class.std::__1::__vector_base.316" = type { %"class.url_matcher::SubstringSetMatcher::AhoCorasickNode"*, %"class.url_matcher::SubstringSetMatcher::AhoCorasickNode"*, %"class.std::__1::__compressed_pair.324" }
%"class.url_matcher::SubstringSetMatcher::AhoCorasickNode" = type <{ %"class.base::flat_map", i32, i32, i32, [4 x i8] }>
%"class.base::flat_map" = type { %"class.base::internal::flat_tree" }
%"class.base::internal::flat_tree" = type { %"class.std::__1::vector.317" }
%"class.std::__1::vector.317" = type { %"class.std::__1::__vector_base.318" }
%"class.std::__1::__vector_base.318" = type { %"struct.std::__1::pair"*, %"struct.std::__1::pair"*, %"class.std::__1::__compressed_pair.319" }
%"struct.std::__1::pair" = type { i8, i32 }
%"class.std::__1::__compressed_pair.319" = type { %"struct.std::__1::__compressed_pair_elem.320" }
%"struct.std::__1::__compressed_pair_elem.320" = type { %"struct.std::__1::pair"* }
%"class.std::__1::__compressed_pair.324" = type { %"struct.std::__1::__compressed_pair_elem.325" }
%"struct.std::__1::__compressed_pair_elem.325" = type { %"class.url_matcher::SubstringSetMatcher::AhoCorasickNode"* }
%"class.url_matcher::RegexSetMatcher" = type { i32 (...)**, %"class.std::__1::map.332", %"class.std::__1::vector.341", %"class.std::__1::unique_ptr.348", %"class.std::__1::unique_ptr.312" }
%"class.std::__1::map.332" = type { %"class.std::__1::__tree.333" }
%"class.std::__1::__tree.333" = type { %"class.std::__1::__tree_end_node"*, %"class.std::__1::__compressed_pair.334", %"class.std::__1::__compressed_pair.338" }
%"class.std::__1::__compressed_pair.334" = type { %"struct.std::__1::__compressed_pair_elem" }
%"class.std::__1::__compressed_pair.338" = type { %"struct.std::__1::__compressed_pair_elem.2" }
%"class.std::__1::vector.341" = type { %"class.std::__1::__vector_base.342" }
%"class.std::__1::__vector_base.342" = type { i32*, i32*, %"class.std::__1::__compressed_pair.343" }
%"class.std::__1::__compressed_pair.343" = type { %"struct.std::__1::__compressed_pair_elem.344" }
%"struct.std::__1::__compressed_pair_elem.344" = type { i32* }
%"class.std::__1::unique_ptr.348" = type { %"class.std::__1::__compressed_pair.349" }
%"class.std::__1::__compressed_pair.349" = type { %"struct.std::__1::__compressed_pair_elem.350" }
%"struct.std::__1::__compressed_pair_elem.350" = type { %"class.re2::FilteredRE2"* }
%"class.re2::FilteredRE2" = type opaque
%"class.std::__1::map.354" = type { %"class.std::__1::__tree.355" }
%"class.std::__1::__tree.355" = type { %"class.std::__1::__tree_end_node"*, %"class.std::__1::__compressed_pair.356", %"class.std::__1::__compressed_pair.360" }
%"class.std::__1::__compressed_pair.356" = type { %"struct.std::__1::__compressed_pair_elem" }
%"class.std::__1::__compressed_pair.360" = type { %"struct.std::__1::__compressed_pair_elem.2" }
%"class.std::__1::map.363" = type { %"class.std::__1::__tree.364" }
%"class.std::__1::__tree.364" = type { %"class.std::__1::__tree_end_node"*, %"class.std::__1::__compressed_pair.365", %"class.std::__1::__compressed_pair.369" }
%"class.std::__1::__compressed_pair.365" = type { %"struct.std::__1::__compressed_pair_elem" }
%"class.std::__1::__compressed_pair.369" = type { %"struct.std::__1::__compressed_pair_elem.2" }
%"class.std::__1::map.372" = type { %"class.std::__1::__tree.373" }
%"class.std::__1::__tree.373" = type { %"class.std::__1::__tree_end_node"*, %"class.std::__1::__compressed_pair.374", %"class.std::__1::__compressed_pair.378" }
%"class.std::__1::__compressed_pair.374" = type { %"struct.std::__1::__compressed_pair_elem" }
%"class.std::__1::__compressed_pair.378" = type { %"struct.std::__1::__compressed_pair_elem.2" }
%"class.std::__1::unordered_map.381" = type { %"class.std::__1::__hash_table.382" }
%"class.std::__1::__hash_table.382" = type <{ %"class.std::__1::unique_ptr.383", %"class.std::__1::__compressed_pair.393", %"class.std::__1::__compressed_pair.398", %"class.std::__1::__compressed_pair.401", [4 x i8] }>
%"class.std::__1::unique_ptr.383" = type { %"class.std::__1::__compressed_pair.384" }
%"class.std::__1::__compressed_pair.384" = type { %"struct.std::__1::__compressed_pair_elem.385", %"struct.std::__1::__compressed_pair_elem.387" }
%"struct.std::__1::__compressed_pair_elem.385" = type { %"struct.std::__1::__hash_node_base.386"** }
%"struct.std::__1::__hash_node_base.386" = type { %"struct.std::__1::__hash_node_base.386"* }
%"struct.std::__1::__compressed_pair_elem.387" = type { %"class.std::__1::__bucket_list_deallocator.388" }
%"class.std::__1::__bucket_list_deallocator.388" = type { %"class.std::__1::__compressed_pair.389" }
%"class.std::__1::__compressed_pair.389" = type { %"struct.std::__1::__compressed_pair_elem.2" }
%"class.std::__1::__compressed_pair.393" = type { %"struct.std::__1::__compressed_pair_elem.394" }
%"struct.std::__1::__compressed_pair_elem.394" = type { %"struct.std::__1::__hash_node_base.386" }
%"class.std::__1::__compressed_pair.398" = type { %"struct.std::__1::__compressed_pair_elem.2" }
%"class.std::__1::__compressed_pair.401" = type { %"struct.std::__1::__compressed_pair_elem.272" }
%"class.base::ObserverList.405" = type <{ %"class.std::__1::vector.93", %"class.base::LinkedList.406", i64, i32, [4 x i8] }>
%"class.base::LinkedList.406" = type { %"class.base::LinkNode.407" }
%"class.base::LinkNode.407" = type { %"class.base::internal::LinkNodeBase" }
%"class.std::__1::set.409" = type { %"class.std::__1::__tree.410" }
%"class.std::__1::__tree.410" = type { %"class.std::__1::__tree_end_node"*, %"class.std::__1::__compressed_pair.411", %"class.std::__1::__compressed_pair.415" }
%"class.std::__1::__compressed_pair.411" = type { %"struct.std::__1::__compressed_pair_elem" }
%"class.std::__1::__compressed_pair.415" = type { %"struct.std::__1::__compressed_pair_elem.2" }
%"class.extensions::LazyEventDispatchUtil" = type { %"class.extensions::ExtensionRegistryObserver", %"class.content::BrowserContext"*, %"class.base::ObserverList.419", %"class.base::ScopedObservation.242" }
%"class.base::ObserverList.419" = type <{ %"class.std::__1::vector.93", %"class.base::LinkedList.420", i64, i32, [4 x i8] }>
%"class.base::LinkedList.420" = type { %"class.base::LinkNode.421" }
%"class.base::LinkNode.421" = type { %"class.base::internal::LinkNodeBase" }
%"class.extensions::EventAckData" = type { %class.scoped_refptr.423, %"class.base::WeakPtrFactory.424" }
%class.scoped_refptr.423 = type { %"class.extensions::EventAckData::CoreThreadEventInfo"* }
%"class.extensions::EventAckData::CoreThreadEventInfo" = type opaque
%"class.base::WeakPtrFactory.424" = type { %"class.base::internal::WeakPtrFactoryBase" }
%"class.mojo::ReceiverSetBase" = type { %"class.mojo::ReceiverSetState" }
%"class.mojo::ReceiverSetState" = type { %"class.base::RepeatingCallback.425", %"class.base::RepeatingCallback.426", i64, %"class.std::__1::map.427", i8*, i64, %"class.base::WeakPtrFactory.438" }
%"class.base::RepeatingCallback.425" = type { %"class.base::internal::CallbackBaseCopyable" }
%"class.base::RepeatingCallback.426" = type { %"class.base::internal::CallbackBaseCopyable" }
%"class.std::__1::map.427" = type { %"class.std::__1::__tree.428" }
%"class.std::__1::__tree.428" = type { %"class.std::__1::__tree_end_node"*, %"class.std::__1::__compressed_pair.429", %"class.std::__1::__compressed_pair.433" }
%"class.std::__1::__compressed_pair.429" = type { %"struct.std::__1::__compressed_pair_elem" }
%"class.std::__1::__compressed_pair.433" = type { %"struct.std::__1::__compressed_pair_elem.2" }
%"class.base::WeakPtrFactory.438" = type { %"class.base::internal::WeakPtrFactoryBase" }
%"class.base::WeakPtrFactory.439" = type { %"class.base::internal::WeakPtrFactoryBase" }
%"class.extensions::IdentityMintRequestQueue" = type { i32 (...)**, %"class.std::__1::map.440", %"class.std::__1::map.440" }
%"class.std::__1::map.440" = type { %"class.std::__1::__tree.441" }
%"class.std::__1::__tree.441" = type { %"class.std::__1::__tree_end_node"*, %"class.std::__1::__compressed_pair.442", %"class.std::__1::__compressed_pair.446" }
%"class.std::__1::__compressed_pair.442" = type { %"struct.std::__1::__compressed_pair_elem" }
%"class.std::__1::__compressed_pair.446" = type { %"struct.std::__1::__compressed_pair_elem.2" }
%"class.extensions::IdentityTokenCache" = type { %"class.std::__1::map.451", %"class.std::__1::map.462" }
%"class.std::__1::map.451" = type { %"class.std::__1::__tree.452" }
%"class.std::__1::__tree.452" = type { %"class.std::__1::__tree_end_node"*, %"class.std::__1::__compressed_pair.453", %"class.std::__1::__compressed_pair.457" }
%"class.std::__1::__compressed_pair.453" = type { %"struct.std::__1::__compressed_pair_elem" }
%"class.std::__1::__compressed_pair.457" = type { %"struct.std::__1::__compressed_pair_elem.2" }
%"class.std::__1::map.462" = type { %"class.std::__1::__tree.463" }
%"class.std::__1::__tree.463" = type { %"class.std::__1::__tree_end_node"*, %"class.std::__1::__compressed_pair.464", %"class.std::__1::__compressed_pair.468" }
%"class.std::__1::__compressed_pair.464" = type { %"struct.std::__1::__compressed_pair_elem" }
%"class.std::__1::__compressed_pair.468" = type { %"struct.std::__1::__compressed_pair_elem.2" }
%"class.base::RepeatingCallback.473" = type { %"class.base::internal::CallbackBaseCopyable" }
%"class.base::RepeatingCallbackList" = type { %"class.base::internal::CallbackListBase" }
%"class.base::internal::CallbackListBase" = type { %"class.std::__1::list", i8, %"class.base::RepeatingCallback.425", %"class.base::WeakPtrFactory.478" }
%"class.std::__1::list" = type { %"class.std::__1::__list_imp" }
%"class.std::__1::__list_imp" = type { %"struct.std::__1::__list_node_base", %"class.std::__1::__compressed_pair.474" }
%"struct.std::__1::__list_node_base" = type { %"struct.std::__1::__list_node_base"*, %"struct.std::__1::__list_node_base"* }
%"class.std::__1::__compressed_pair.474" = type { %"struct.std::__1::__compressed_pair_elem.2" }
%"class.base::WeakPtrFactory.478" = type { %"class.base::internal::WeakPtrFactoryBase" }
%"class.base::OnceCallbackList" = type { %"class.base::internal::CallbackListBase.479", %"class.std::__1::list.480" }
%"class.base::internal::CallbackListBase.479" = type { %"class.std::__1::list.480", i8, %"class.base::RepeatingCallback.425", %"class.base::WeakPtrFactory.487" }
%"class.base::WeakPtrFactory.487" = type { %"class.base::internal::WeakPtrFactoryBase" }
%"class.std::__1::list.480" = type { %"class.std::__1::__list_imp.481" }
%"class.std::__1::__list_imp.481" = type { %"struct.std::__1::__list_node_base.482", %"class.std::__1::__compressed_pair.483" }
%"struct.std::__1::__list_node_base.482" = type { %"struct.std::__1::__list_node_base.482"*, %"struct.std::__1::__list_node_base.482"* }
%"class.std::__1::__compressed_pair.483" = type { %"struct.std::__1::__compressed_pair_elem.2" }
%"struct.std::__1::basic_string<char, std::__1::char_traits<char>, std::__1::allocator<char> >::__short" = type { [23 x i8], %struct.anon }
%struct.anon = type { i8 }
%"class.net::CookieOptions" = type <{ i8, [3 x i8], %"class.net::CookieOptions::SameSiteCookieContext", i8, i8, [2 x i8], i32, i32, i8, [3 x i8] }>
%"class.net::CookieOptions::SameSiteCookieContext" = type <{ i32, i32, i8, i8, [2 x i8] }>
%"class.base::OnceCallback.196" = type { %"class.base::internal::CallbackBase" }
%"class.base::RepeatingCallback.488" = type { %"class.base::internal::CallbackBaseCopyable" }
%"class.network::mojom::CookieManager" = type { i32 (...)** }
%"class.std::__1::__basic_string_common" = type { i8 }
%"class.logging::CheckOpResult" = type { i8* }
%"class.logging::CheckError" = type { %"class.logging::LogMessage"* }
%"class.logging::LogMessage" = type { i32 (...)**, i32, %"class.std::__1::basic_ostringstream", i64, i8*, i32, %"class.base::ScopedClearLastErrorBase" }
%"class.std::__1::basic_ostringstream" = type { %"class.std::__1::basic_ostream.base", %"class.std::__1::basic_stringbuf", %"class.std::__1::basic_ios.base" }
%"class.std::__1::basic_ostream.base" = type { i32 (...)** }
%"class.std::__1::basic_stringbuf" = type <{ %"class.std::__1::basic_streambuf", %"class.std::__1::basic_string", i8*, i32, [4 x i8] }>
%"class.std::__1::basic_streambuf" = type { i32 (...)**, %"class.std::__1::locale", i8*, i8*, i8*, i8*, i8*, i8* }
%"class.std::__1::locale" = type { %"class.std::__1::locale::__imp"* }
%"class.std::__1::locale::__imp" = type opaque
%"class.std::__1::basic_ios.base" = type <{ %"class.std::__1::ios_base", %"class.std::__1::basic_ostream"*, i32 }>
%"class.std::__1::ios_base" = type { i32 (...)**, i32, i64, i64, i32, i32, i8*, i8*, void (i32, %"class.std::__1::ios_base"*, i32)**, i32*, i64, i64, i64*, i64, i64, i8**, i64, i64 }
%"class.std::__1::basic_ostream" = type { i32 (...)**, %"class.std::__1::basic_ios.base" }
%"class.base::ScopedClearLastErrorBase" = type { i32 }
%class.GaiaAuthFetcher = type <{ i32 (...)**, %class.scoped_refptr.492, %class.GaiaAuthConsumer*, %"class.std::__1::basic_string", %class.GURL, %class.GURL, %class.GURL, %class.GURL, %class.GURL, %class.GURL, %class.GURL, %class.GURL, %class.GURL, %class.GURL, %class.GURL, %"class.std::__1::unique_ptr.493", %class.GURL, %"class.std::__1::basic_string", %"class.std::__1::basic_string", i8, i8, [6 x i8] }>
%class.scoped_refptr.492 = type { %"class.network::SharedURLLoaderFactory"* }
%"class.network::SharedURLLoaderFactory" = type <{ %"class.network::mojom::URLLoaderFactory", %"class.base::RefCounted", [4 x i8] }>
%"class.network::mojom::URLLoaderFactory" = type { i32 (...)** }
%"class.base::RefCounted" = type { %"class.base::subtle::RefCountedBase" }
%"class.base::subtle::RefCountedBase" = type { i32 }
%"class.std::__1::unique_ptr.493" = type { %"class.std::__1::__compressed_pair.494" }
%"class.std::__1::__compressed_pair.494" = type { %"struct.std::__1::__compressed_pair_elem.495" }
%"struct.std::__1::__compressed_pair_elem.495" = type { %"class.network::SimpleURLLoader"* }
%"class.network::SimpleURLLoader" = type opaque
%class.GaiaAuthConsumer = type { i32 (...)** }
%"class.content::StoragePartition" = type { i32 (...)** }
%"class.signin::PrimaryAccountChangeEvent" = type { %"struct.signin::PrimaryAccountChangeEvent::State", %"struct.signin::PrimaryAccountChangeEvent::State" }
%"struct.signin::PrimaryAccountChangeEvent::State" = type { %struct.CoreAccountInfo, i32, [4 x i8] }
%class.GoogleServiceAuthError = type <{ i32, i32, %"class.std::__1::basic_string", i32, [4 x i8] }>
%"struct.signin::AccountsInCookieJarInfo" = type opaque
%struct.AccountInfo = type <{ %struct.CoreAccountInfo.base, [7 x i8], %"class.std::__1::basic_string", %"class.std::__1::basic_string", %"class.std::__1::basic_string", %"class.std::__1::basic_string", %"class.std::__1::basic_string", %"class.std::__1::basic_string", %"class.gfx::Image", i8, [7 x i8] }>
%struct.CoreAccountInfo.base = type <{ %struct.CoreAccountId, %"class.std::__1::basic_string", %"class.std::__1::basic_string", i8 }>
%"class.gfx::Image" = type { %class.scoped_refptr.518 }
%class.scoped_refptr.518 = type { %"class.gfx::internal::ImageStorage"* }
%"class.gfx::internal::ImageStorage" = type opaque
%"class.std::__1::__vector_base_common" = type { i8 }

$_ZN4base17ScopedObservationIN6signin15IdentityManagerENS2_8ObserverEXadL_ZNS2_11AddObserverEPS3_EEXadL_ZNS2_14RemoveObserverES4_EEE7ObserveEPS2_ = comdat any

$_ZN10extensions11WebAuthFlow8Delegate19OnAuthFlowURLChangeERK4GURL = comdat any

$_ZN10extensions11WebAuthFlow8Delegate21OnAuthFlowTitleChangeERKNSt3__112basic_stringIcNS2_11char_traitsIcEENS2_9allocatorIcEEEE = comdat any

$_ZN6signin15IdentityManager8Observer23OnPrimaryAccountChangedERKNS_25PrimaryAccountChangeEventE = comdat any

$_ZN6signin15IdentityManager8Observer31OnRefreshTokenUpdatedForAccountERK15CoreAccountInfo = comdat any

$_ZN6signin15IdentityManager8Observer31OnRefreshTokenRemovedForAccountERK13CoreAccountId = comdat any

$_ZN6signin15IdentityManager8Observer43OnErrorStateOfRefreshTokenUpdatedForAccountERK15CoreAccountInfoRK22GoogleServiceAuthError = comdat any

$_ZN6signin15IdentityManager8Observer21OnRefreshTokensLoadedEv = comdat any

$_ZN6signin15IdentityManager8Observer25OnAccountsInCookieUpdatedERKNS_23AccountsInCookieJarInfoERK22GoogleServiceAuthError = comdat any

$_ZN6signin15IdentityManager8Observer35OnAccountsCookieDeletedByUserActionEv = comdat any

$_ZN6signin15IdentityManager8Observer28OnExtendedAccountInfoUpdatedERK11AccountInfo = comdat any

$_ZN6signin15IdentityManager8Observer28OnExtendedAccountInfoRemovedERK11AccountInfo = comdat any

$_ZN6signin15IdentityManager8Observer25OnIdentityManagerShutdownEPS0_ = comdat any

$_ZN4base8internal7InvokerINS0_9BindStateIMN10extensions21GaiaRemoteConsentFlowEFvRKNSt3__112basic_stringIcNS5_11char_traitsIcEENS5_9allocatorIcEEEESD_EJNS0_17UnretainedWrapperIS4_EEEEEFvSD_SD_EE3RunEPNS0_13BindStateBaseESD_SD_ = comdat any

$_ZN4base8internal9BindStateIMN10extensions21GaiaRemoteConsentFlowEFvRKNSt3__112basic_stringIcNS4_11char_traitsIcEENS4_9allocatorIcEEEESC_EJNS0_17UnretainedWrapperIS3_EEEE7DestroyEPKNS0_13BindStateBaseE = comdat any

$_ZZN7logging15CheckOpValueStrIPN6signin15IdentityManagerEEENSt3__19enable_ifIXaasr4base8internal23SupportsOstreamOperatorIRKT_EE5valuentsr3std11is_functionINS4_14remove_pointerIS6_E4typeEEE5valueEPcE4typeES8_ENUlRNS4_13basic_ostreamIcNS4_11char_traitsIcEEEEPKvE_8__invokeESJ_SL_ = comdat any

$_ZNSt3__16vectorI13CoreAccountIdNS_9allocatorIS1_EEE21__push_back_slow_pathIRKS1_EEvOT_ = comdat any

$_ZN4base8internal7InvokerINS0_9BindStateIMN10extensions21GaiaRemoteConsentFlowEFvN6signin25SetAccountsInCookieResultEEJNS0_17UnretainedWrapperIS4_EEEEEFvS6_EE7RunOnceEPNS0_13BindStateBaseES6_ = comdat any

$_ZN4base8internal9BindStateIMN10extensions21GaiaRemoteConsentFlowEFvN6signin25SetAccountsInCookieResultEEJNS0_17UnretainedWrapperIS3_EEEE7DestroyEPKNS0_13BindStateBaseE = comdat any

@_ZTVN10extensions21GaiaRemoteConsentFlowE = hidden unnamed_addr constant { [10 x i8*], [4 x i8*], [15 x i8*] } { [10 x i8*] [i8* null, i8* null, i8* bitcast (void (%"class.extensions::GaiaRemoteConsentFlow"*, i32)* @_ZN10extensions21GaiaRemoteConsentFlow17OnAuthFlowFailureENS_11WebAuthFlow7FailureE to i8*), i8* bitcast (void (%"class.extensions::WebAuthFlow::Delegate"*, %class.GURL*)* @_ZN10extensions11WebAuthFlow8Delegate19OnAuthFlowURLChangeERK4GURL to i8*), i8* bitcast (void (%"class.extensions::WebAuthFlow::Delegate"*, %"class.std::__1::basic_string"*)* @_ZN10extensions11WebAuthFlow8Delegate21OnAuthFlowTitleChangeERKNSt3__112basic_stringIcNS2_11char_traitsIcEENS2_9allocatorIcEEEE to i8*), i8* bitcast (void (%"class.extensions::GaiaRemoteConsentFlow"*)* @_ZN10extensions21GaiaRemoteConsentFlowD2Ev to i8*), i8* bitcast (void (%"class.extensions::GaiaRemoteConsentFlow"*)* @_ZN10extensions21GaiaRemoteConsentFlowD0Ev to i8*), i8* bitcast (%class.GaiaAuthFetcher* (%"class.extensions::GaiaRemoteConsentFlow"*, %class.GaiaAuthConsumer*, %"class.gaia::GaiaSource"*)* @_ZN10extensions21GaiaRemoteConsentFlow33CreateGaiaAuthFetcherForPartitionEP16GaiaAuthConsumerRKN4gaia10GaiaSourceE to i8*), i8* bitcast (%"class.network::mojom::CookieManager"* (%"class.extensions::GaiaRemoteConsentFlow"*)* @_ZN10extensions21GaiaRemoteConsentFlow28GetCookieManagerForPartitionEv to i8*), i8* bitcast (void (%"class.extensions::GaiaRemoteConsentFlow"*)* @_ZN10extensions21GaiaRemoteConsentFlow36OnEndBatchOfRefreshTokenStateChangesEv to i8*)], [4 x i8*] [i8* inttoptr (i64 -8 to i8*), i8* null, i8* bitcast (%class.GaiaAuthFetcher* (%"class.extensions::GaiaRemoteConsentFlow"*, %class.GaiaAuthConsumer*, %"class.gaia::GaiaSource"*)* @_ZThn8_N10extensions21GaiaRemoteConsentFlow33CreateGaiaAuthFetcherForPartitionEP16GaiaAuthConsumerRKN4gaia10GaiaSourceE to i8*), i8* bitcast (%"class.network::mojom::CookieManager"* (%"class.extensions::GaiaRemoteConsentFlow"*)* @_ZThn8_N10extensions21GaiaRemoteConsentFlow28GetCookieManagerForPartitionEv to i8*)], [15 x i8*] [i8* inttoptr (i64 -16 to i8*), i8* null, i8* bitcast (void (%"class.extensions::GaiaRemoteConsentFlow"*)* @_ZThn16_N10extensions21GaiaRemoteConsentFlowD1Ev to i8*), i8* bitcast (void (%"class.extensions::GaiaRemoteConsentFlow"*)* @_ZThn16_N10extensions21GaiaRemoteConsentFlowD0Ev to i8*), i8* bitcast (void (%"class.signin::IdentityManager::Observer"*, %"class.signin::PrimaryAccountChangeEvent"*)* @_ZN6signin15IdentityManager8Observer23OnPrimaryAccountChangedERKNS_25PrimaryAccountChangeEventE to i8*), i8* bitcast (void (%"class.signin::IdentityManager::Observer"*, %struct.CoreAccountInfo*)* @_ZN6signin15IdentityManager8Observer31OnRefreshTokenUpdatedForAccountERK15CoreAccountInfo to i8*), i8* bitcast (void (%"class.signin::IdentityManager::Observer"*, %struct.CoreAccountId*)* @_ZN6signin15IdentityManager8Observer31OnRefreshTokenRemovedForAccountERK13CoreAccountId to i8*), i8* bitcast (void (%"class.signin::IdentityManager::Observer"*, %struct.CoreAccountInfo*, %class.GoogleServiceAuthError*)* @_ZN6signin15IdentityManager8Observer43OnErrorStateOfRefreshTokenUpdatedForAccountERK15CoreAccountInfoRK22GoogleServiceAuthError to i8*), i8* bitcast (void (%"class.signin::IdentityManager::Observer"*)* @_ZN6signin15IdentityManager8Observer21OnRefreshTokensLoadedEv to i8*), i8* bitcast (void (%"class.signin::IdentityManager::Observer"*, %"struct.signin::AccountsInCookieJarInfo"*, %class.GoogleServiceAuthError*)* @_ZN6signin15IdentityManager8Observer25OnAccountsInCookieUpdatedERKNS_23AccountsInCookieJarInfoERK22GoogleServiceAuthError to i8*), i8* bitcast (void (%"class.signin::IdentityManager::Observer"*)* @_ZN6signin15IdentityManager8Observer35OnAccountsCookieDeletedByUserActionEv to i8*), i8* bitcast (void (%"class.extensions::GaiaRemoteConsentFlow"*)* @_ZThn16_N10extensions21GaiaRemoteConsentFlow36OnEndBatchOfRefreshTokenStateChangesEv to i8*), i8* bitcast (void (%"class.signin::IdentityManager::Observer"*, %struct.AccountInfo*)* @_ZN6signin15IdentityManager8Observer28OnExtendedAccountInfoUpdatedERK11AccountInfo to i8*), i8* bitcast (void (%"class.signin::IdentityManager::Observer"*, %struct.AccountInfo*)* @_ZN6signin15IdentityManager8Observer28OnExtendedAccountInfoRemovedERK11AccountInfo to i8*), i8* bitcast (void (%"class.signin::IdentityManager::Observer"*, %"class.signin::IdentityManager"*)* @_ZN6signin15IdentityManager8Observer25OnIdentityManagerShutdownEPS0_ to i8*)] }, align 8
@_ZN3url12kHttpsSchemeE = external constant [0 x i8], align 1
@_ZTVN10extensions21GaiaRemoteConsentFlow8DelegateE = hidden unnamed_addr constant { [6 x i8*] } { [6 x i8*] [i8* null, i8* null, i8* bitcast (void (%"class.extensions::GaiaRemoteConsentFlow::Delegate"*)* @_ZN10extensions21GaiaRemoteConsentFlow8DelegateD2Ev to i8*), i8* bitcast (void (%"class.extensions::GaiaRemoteConsentFlow::Delegate"*)* @_ZN10extensions21GaiaRemoteConsentFlow8DelegateD0Ev to i8*), i8* bitcast (void ()* @__cxa_pure_virtual to i8*), i8* bitcast (void ()* @__cxa_pure_virtual to i8*)] }, align 8
@.str = private unnamed_addr constant [46 x i8] c"Signin.Extensions.GaiaRemoteConsentFlowResult\00", align 1
@.str.2 = private unnamed_addr constant [19 x i8] c"source_ == nullptr\00", align 1
@.str.3 = private unnamed_addr constant [32 x i8] c"../../base/scoped_observation.h\00", align 1
@switch.table._ZN10extensions21GaiaRemoteConsentFlow17OnAuthFlowFailureENS_11WebAuthFlow7FailureE = private unnamed_addr constant [3 x i32] [i32 1, i32 2, i32 2], align 4

@_ZN10extensions21GaiaRemoteConsentFlow8DelegateD1Ev = hidden unnamed_addr alias void (%"class.extensions::GaiaRemoteConsentFlow::Delegate"*), void (%"class.extensions::GaiaRemoteConsentFlow::Delegate"*)* @_ZN10extensions21GaiaRemoteConsentFlow8DelegateD2Ev
@_ZN10extensions21GaiaRemoteConsentFlowC1EPNS0_8DelegateEP7ProfileRKNS_17ExtensionTokenKeyERK27RemoteConsentResolutionData = hidden unnamed_addr alias void (%"class.extensions::GaiaRemoteConsentFlow"*, %"class.extensions::GaiaRemoteConsentFlow::Delegate"*, %class.Profile*, %"struct.extensions::ExtensionTokenKey"*, %struct.RemoteConsentResolutionData*), void (%"class.extensions::GaiaRemoteConsentFlow"*, %"class.extensions::GaiaRemoteConsentFlow::Delegate"*, %class.Profile*, %"struct.extensions::ExtensionTokenKey"*, %struct.RemoteConsentResolutionData*)* @_ZN10extensions21GaiaRemoteConsentFlowC2EPNS0_8DelegateEP7ProfileRKNS_17ExtensionTokenKeyERK27RemoteConsentResolutionData
@_ZN10extensions21GaiaRemoteConsentFlowD1Ev = hidden unnamed_addr alias void (%"class.extensions::GaiaRemoteConsentFlow"*), void (%"class.extensions::GaiaRemoteConsentFlow"*)* @_ZN10extensions21GaiaRemoteConsentFlowD2Ev

; Function Attrs: norecurse nounwind readnone ssp uwtable
define hidden void @_ZN10extensions21GaiaRemoteConsentFlow8DelegateD2Ev(%"class.extensions::GaiaRemoteConsentFlow::Delegate"* nocapture) unnamed_addr #0 align 2 {
  ret void
}

; Function Attrs: noreturn nounwind ssp uwtable
define hidden void @_ZN10extensions21GaiaRemoteConsentFlow8DelegateD0Ev(%"class.extensions::GaiaRemoteConsentFlow::Delegate"* nocapture readnone) unnamed_addr #1 align 2 {
  tail call void @llvm.trap() #13
  unreachable
}

; Function Attrs: cold noreturn nounwind
declare void @llvm.trap() #2

; Function Attrs: nounwind ssp uwtable
define hidden void @_ZN10extensions21GaiaRemoteConsentFlowC2EPNS0_8DelegateEP7ProfileRKNS_17ExtensionTokenKeyERK27RemoteConsentResolutionData(%"class.extensions::GaiaRemoteConsentFlow"*, %"class.extensions::GaiaRemoteConsentFlow::Delegate"*, %class.Profile*, %"struct.extensions::ExtensionTokenKey"* dereferenceable(128), %struct.RemoteConsentResolutionData* dereferenceable(144)) unnamed_addr #3 align 2 {
  %6 = getelementptr inbounds %"class.extensions::GaiaRemoteConsentFlow", %"class.extensions::GaiaRemoteConsentFlow"* %0, i64 0, i32 2
  %7 = getelementptr inbounds %"class.signin::IdentityManager::Observer", %"class.signin::IdentityManager::Observer"* %6, i64 0, i32 0
  %8 = bitcast %"class.extensions::GaiaRemoteConsentFlow"* %0 to <2 x i32 (...)**>*
  store <2 x i32 (...)**> <i32 (...)** bitcast (i8** getelementptr inbounds ({ [10 x i8*], [4 x i8*], [15 x i8*] }, { [10 x i8*], [4 x i8*], [15 x i8*] }* @_ZTVN10extensions21GaiaRemoteConsentFlowE, i64 0, inrange i32 0, i64 2) to i32 (...)**), i32 (...)** bitcast (i8** getelementptr inbounds ({ [10 x i8*], [4 x i8*], [15 x i8*] }, { [10 x i8*], [4 x i8*], [15 x i8*] }* @_ZTVN10extensions21GaiaRemoteConsentFlowE, i64 0, inrange i32 1, i64 2) to i32 (...)**)>, <2 x i32 (...)**>* %8, align 8
  store i32 (...)** bitcast (i8** getelementptr inbounds ({ [10 x i8*], [4 x i8*], [15 x i8*] }, { [10 x i8*], [4 x i8*], [15 x i8*] }* @_ZTVN10extensions21GaiaRemoteConsentFlowE, i64 0, inrange i32 2, i64 2) to i32 (...)**), i32 (...)*** %7, align 8
  %9 = getelementptr inbounds %"class.extensions::GaiaRemoteConsentFlow", %"class.extensions::GaiaRemoteConsentFlow"* %0, i64 0, i32 3
  store %"class.extensions::GaiaRemoteConsentFlow::Delegate"* %1, %"class.extensions::GaiaRemoteConsentFlow::Delegate"** %9, align 8
  %10 = getelementptr inbounds %"class.extensions::GaiaRemoteConsentFlow", %"class.extensions::GaiaRemoteConsentFlow"* %0, i64 0, i32 4
  store %class.Profile* %2, %class.Profile** %10, align 8
  %11 = getelementptr inbounds %"class.extensions::GaiaRemoteConsentFlow", %"class.extensions::GaiaRemoteConsentFlow"* %0, i64 0, i32 5
  %12 = getelementptr inbounds %"struct.extensions::ExtensionTokenKey", %"struct.extensions::ExtensionTokenKey"* %3, i64 0, i32 1, i32 0
  tail call void @_ZN13CoreAccountIdC1ERKS_(%struct.CoreAccountId* %11, %struct.CoreAccountId* dereferenceable(24) %12) #14
  %13 = getelementptr inbounds %"class.extensions::GaiaRemoteConsentFlow", %"class.extensions::GaiaRemoteConsentFlow"* %0, i64 0, i32 6
  tail call void @_ZN27RemoteConsentResolutionDataC1ERKS_(%struct.RemoteConsentResolutionData* %13, %struct.RemoteConsentResolutionData* dereferenceable(144) %4) #14
  %14 = getelementptr inbounds %"class.extensions::GaiaRemoteConsentFlow", %"class.extensions::GaiaRemoteConsentFlow"* %0, i64 0, i32 7
  %15 = bitcast %"class.std::__1::unique_ptr.48"* %14 to i64*
  store i64 0, i64* %15, align 8
  %16 = getelementptr inbounds %"class.extensions::GaiaRemoteConsentFlow", %"class.extensions::GaiaRemoteConsentFlow"* %0, i64 0, i32 8
  store i8 0, i8* %16, align 8
  %17 = getelementptr inbounds %"class.extensions::GaiaRemoteConsentFlow", %"class.extensions::GaiaRemoteConsentFlow"* %0, i64 0, i32 9
  %18 = bitcast %"class.std::__1::unique_ptr.55"* %17 to i64*
  store i64 0, i64* %18, align 8
  %19 = getelementptr inbounds %"class.extensions::GaiaRemoteConsentFlow", %"class.extensions::GaiaRemoteConsentFlow"* %0, i64 0, i32 10
  tail call void @_ZN4base24CallbackListSubscriptionC1Ev(%"class.base::CallbackListSubscription"* %19) #14
  %20 = getelementptr inbounds %"class.extensions::GaiaRemoteConsentFlow", %"class.extensions::GaiaRemoteConsentFlow"* %0, i64 0, i32 11, i32 0
  store %"class.signin::IdentityManager::Observer"* %6, %"class.signin::IdentityManager::Observer"** %20, align 8
  %21 = getelementptr inbounds %"class.extensions::GaiaRemoteConsentFlow", %"class.extensions::GaiaRemoteConsentFlow"* %0, i64 0, i32 11, i32 1
  store %"class.signin::IdentityManager"* null, %"class.signin::IdentityManager"** %21, align 8
  ret void
}

declare void @_ZN13CoreAccountIdC1ERKS_(%struct.CoreAccountId*, %struct.CoreAccountId* dereferenceable(24)) unnamed_addr #4

declare void @_ZN27RemoteConsentResolutionDataC1ERKS_(%struct.RemoteConsentResolutionData*, %struct.RemoteConsentResolutionData* dereferenceable(144)) unnamed_addr #4

declare void @_ZN4base24CallbackListSubscriptionC1Ev(%"class.base::CallbackListSubscription"*) unnamed_addr #4

; Function Attrs: nounwind ssp uwtable
define hidden void @_ZN10extensions21GaiaRemoteConsentFlowD2Ev(%"class.extensions::GaiaRemoteConsentFlow"*) unnamed_addr #3 align 2 {
  %2 = bitcast %"class.extensions::GaiaRemoteConsentFlow"* %0 to <2 x i32 (...)**>*
  store <2 x i32 (...)**> <i32 (...)** bitcast (i8** getelementptr inbounds ({ [10 x i8*], [4 x i8*], [15 x i8*] }, { [10 x i8*], [4 x i8*], [15 x i8*] }* @_ZTVN10extensions21GaiaRemoteConsentFlowE, i64 0, inrange i32 0, i64 2) to i32 (...)**), i32 (...)** bitcast (i8** getelementptr inbounds ({ [10 x i8*], [4 x i8*], [15 x i8*] }, { [10 x i8*], [4 x i8*], [15 x i8*] }* @_ZTVN10extensions21GaiaRemoteConsentFlowE, i64 0, inrange i32 1, i64 2) to i32 (...)**)>, <2 x i32 (...)**>* %2, align 8
  %3 = getelementptr inbounds %"class.extensions::GaiaRemoteConsentFlow", %"class.extensions::GaiaRemoteConsentFlow"* %0, i64 0, i32 2, i32 0
  store i32 (...)** bitcast (i8** getelementptr inbounds ({ [10 x i8*], [4 x i8*], [15 x i8*] }, { [10 x i8*], [4 x i8*], [15 x i8*] }* @_ZTVN10extensions21GaiaRemoteConsentFlowE, i64 0, inrange i32 2, i64 2) to i32 (...)**), i32 (...)*** %3, align 8
  %4 = getelementptr inbounds %"class.extensions::GaiaRemoteConsentFlow", %"class.extensions::GaiaRemoteConsentFlow"* %0, i64 0, i32 7, i32 0, i32 0, i32 0
  %5 = load %"class.extensions::WebAuthFlow"*, %"class.extensions::WebAuthFlow"** %4, align 8
  %6 = icmp eq %"class.extensions::WebAuthFlow"* %5, null
  br i1 %6, label %8, label %7

7:                                                ; preds = %1
  store %"class.extensions::WebAuthFlow"* null, %"class.extensions::WebAuthFlow"** %4, align 8
  tail call void @_ZN10extensions11WebAuthFlow23DetachDelegateAndDeleteEv(%"class.extensions::WebAuthFlow"* nonnull %5) #14
  br label %8

8:                                                ; preds = %1, %7
  %9 = getelementptr inbounds %"class.extensions::GaiaRemoteConsentFlow", %"class.extensions::GaiaRemoteConsentFlow"* %0, i64 0, i32 11, i32 1
  %10 = load %"class.signin::IdentityManager"*, %"class.signin::IdentityManager"** %9, align 8
  %11 = icmp eq %"class.signin::IdentityManager"* %10, null
  br i1 %11, label %15, label %12

12:                                               ; preds = %8
  %13 = getelementptr inbounds %"class.extensions::GaiaRemoteConsentFlow", %"class.extensions::GaiaRemoteConsentFlow"* %0, i64 0, i32 11, i32 0
  %14 = load %"class.signin::IdentityManager::Observer"*, %"class.signin::IdentityManager::Observer"** %13, align 8
  tail call void @_ZN6signin15IdentityManager14RemoveObserverEPNS0_8ObserverE(%"class.signin::IdentityManager"* nonnull %10, %"class.signin::IdentityManager::Observer"* %14) #14
  store %"class.signin::IdentityManager"* null, %"class.signin::IdentityManager"** %9, align 8
  br label %15

15:                                               ; preds = %8, %12
  %16 = getelementptr inbounds %"class.extensions::GaiaRemoteConsentFlow", %"class.extensions::GaiaRemoteConsentFlow"* %0, i64 0, i32 10
  tail call void @_ZN4base24CallbackListSubscriptionD1Ev(%"class.base::CallbackListSubscription"* %16) #14
  %17 = getelementptr inbounds %"class.extensions::GaiaRemoteConsentFlow", %"class.extensions::GaiaRemoteConsentFlow"* %0, i64 0, i32 9, i32 0, i32 0, i32 0
  %18 = load %"class.signin::AccountsCookieMutator::SetAccountsInCookieTask"*, %"class.signin::AccountsCookieMutator::SetAccountsInCookieTask"** %17, align 8
  store %"class.signin::AccountsCookieMutator::SetAccountsInCookieTask"* null, %"class.signin::AccountsCookieMutator::SetAccountsInCookieTask"** %17, align 8
  %19 = icmp eq %"class.signin::AccountsCookieMutator::SetAccountsInCookieTask"* %18, null
  br i1 %19, label %25, label %20

20:                                               ; preds = %15
  %21 = bitcast %"class.signin::AccountsCookieMutator::SetAccountsInCookieTask"* %18 to void (%"class.signin::AccountsCookieMutator::SetAccountsInCookieTask"*)***
  %22 = load void (%"class.signin::AccountsCookieMutator::SetAccountsInCookieTask"*)**, void (%"class.signin::AccountsCookieMutator::SetAccountsInCookieTask"*)*** %21, align 8
  %23 = getelementptr inbounds void (%"class.signin::AccountsCookieMutator::SetAccountsInCookieTask"*)*, void (%"class.signin::AccountsCookieMutator::SetAccountsInCookieTask"*)** %22, i64 1
  %24 = load void (%"class.signin::AccountsCookieMutator::SetAccountsInCookieTask"*)*, void (%"class.signin::AccountsCookieMutator::SetAccountsInCookieTask"*)** %23, align 8
  tail call void %24(%"class.signin::AccountsCookieMutator::SetAccountsInCookieTask"* nonnull %18) #14
  br label %25

25:                                               ; preds = %15, %20
  %26 = load %"class.extensions::WebAuthFlow"*, %"class.extensions::WebAuthFlow"** %4, align 8
  store %"class.extensions::WebAuthFlow"* null, %"class.extensions::WebAuthFlow"** %4, align 8
  %27 = icmp eq %"class.extensions::WebAuthFlow"* %26, null
  br i1 %27, label %33, label %28

28:                                               ; preds = %25
  %29 = bitcast %"class.extensions::WebAuthFlow"* %26 to void (%"class.extensions::WebAuthFlow"*)***
  %30 = load void (%"class.extensions::WebAuthFlow"*)**, void (%"class.extensions::WebAuthFlow"*)*** %29, align 8
  %31 = getelementptr inbounds void (%"class.extensions::WebAuthFlow"*)*, void (%"class.extensions::WebAuthFlow"*)** %30, i64 8
  %32 = load void (%"class.extensions::WebAuthFlow"*)*, void (%"class.extensions::WebAuthFlow"*)** %31, align 8
  tail call void %32(%"class.extensions::WebAuthFlow"* nonnull %26) #14
  br label %33

33:                                               ; preds = %25, %28
  %34 = getelementptr inbounds %"class.extensions::GaiaRemoteConsentFlow", %"class.extensions::GaiaRemoteConsentFlow"* %0, i64 0, i32 6
  tail call void @_ZN27RemoteConsentResolutionDataD1Ev(%struct.RemoteConsentResolutionData* %34) #14
  %35 = getelementptr inbounds %"class.extensions::GaiaRemoteConsentFlow", %"class.extensions::GaiaRemoteConsentFlow"* %0, i64 0, i32 5
  tail call void @_ZN13CoreAccountIdD1Ev(%struct.CoreAccountId* %35) #14
  ret void
}

declare void @_ZN10extensions11WebAuthFlow23DetachDelegateAndDeleteEv(%"class.extensions::WebAuthFlow"*) local_unnamed_addr #4

; Function Attrs: nounwind
declare void @_ZN4base24CallbackListSubscriptionD1Ev(%"class.base::CallbackListSubscription"*) unnamed_addr #5

; Function Attrs: nounwind
declare void @_ZN27RemoteConsentResolutionDataD1Ev(%struct.RemoteConsentResolutionData*) unnamed_addr #5

; Function Attrs: nounwind
declare void @_ZN13CoreAccountIdD1Ev(%struct.CoreAccountId*) unnamed_addr #5

; Function Attrs: nounwind ssp uwtable
define hidden void @_ZThn16_N10extensions21GaiaRemoteConsentFlowD1Ev(%"class.extensions::GaiaRemoteConsentFlow"*) unnamed_addr #3 align 2 {
  %2 = getelementptr inbounds %"class.extensions::GaiaRemoteConsentFlow", %"class.extensions::GaiaRemoteConsentFlow"* %0, i64 -1, i32 11
  %3 = bitcast %"class.base::ScopedObservation"* %2 to %"class.extensions::GaiaRemoteConsentFlow"*
  tail call void @_ZN10extensions21GaiaRemoteConsentFlowD2Ev(%"class.extensions::GaiaRemoteConsentFlow"* %3) #14
  ret void
}

; Function Attrs: nounwind ssp uwtable
define hidden void @_ZN10extensions21GaiaRemoteConsentFlowD0Ev(%"class.extensions::GaiaRemoteConsentFlow"*) unnamed_addr #3 align 2 {
  tail call void @_ZN10extensions21GaiaRemoteConsentFlowD2Ev(%"class.extensions::GaiaRemoteConsentFlow"* %0) #14
  %2 = bitcast %"class.extensions::GaiaRemoteConsentFlow"* %0 to i8*
  tail call void @_ZdlPv(i8* %2) #15
  ret void
}

; Function Attrs: nobuiltin nounwind
declare void @_ZdlPv(i8*) local_unnamed_addr #6

; Function Attrs: nounwind ssp uwtable
define hidden void @_ZThn16_N10extensions21GaiaRemoteConsentFlowD0Ev(%"class.extensions::GaiaRemoteConsentFlow"*) unnamed_addr #3 align 2 {
  %2 = getelementptr inbounds %"class.extensions::GaiaRemoteConsentFlow", %"class.extensions::GaiaRemoteConsentFlow"* %0, i64 -1, i32 11
  %3 = bitcast %"class.base::ScopedObservation"* %2 to %"class.extensions::GaiaRemoteConsentFlow"*
  tail call void @_ZN10extensions21GaiaRemoteConsentFlowD2Ev(%"class.extensions::GaiaRemoteConsentFlow"* %3) #14
  %4 = bitcast %"class.base::ScopedObservation"* %2 to i8*
  tail call void @_ZdlPv(i8* %4) #15
  ret void
}

; Function Attrs: nounwind ssp uwtable
define hidden void @_ZN10extensions21GaiaRemoteConsentFlow5StartEv(%"class.extensions::GaiaRemoteConsentFlow"*) local_unnamed_addr #3 align 2 {
  %2 = getelementptr inbounds %"class.extensions::GaiaRemoteConsentFlow", %"class.extensions::GaiaRemoteConsentFlow"* %0, i64 0, i32 7
  %3 = getelementptr inbounds %"class.std::__1::unique_ptr.48", %"class.std::__1::unique_ptr.48"* %2, i64 0, i32 0, i32 0, i32 0
  %4 = load %"class.extensions::WebAuthFlow"*, %"class.extensions::WebAuthFlow"** %3, align 8
  %5 = icmp eq %"class.extensions::WebAuthFlow"* %4, null
  br i1 %5, label %6, label %22

6:                                                ; preds = %1
  %7 = getelementptr inbounds %"class.extensions::GaiaRemoteConsentFlow", %"class.extensions::GaiaRemoteConsentFlow"* %0, i64 0, i32 4
  %8 = getelementptr inbounds %"class.extensions::GaiaRemoteConsentFlow", %"class.extensions::GaiaRemoteConsentFlow"* %0, i64 0, i32 6, i32 0
  %9 = tail call i8* @_Znwm(i64 224) #15
  %10 = bitcast i8* %9 to %"class.extensions::WebAuthFlow"*
  %11 = getelementptr inbounds %"class.extensions::GaiaRemoteConsentFlow", %"class.extensions::GaiaRemoteConsentFlow"* %0, i64 0, i32 0
  %12 = load %class.Profile*, %class.Profile** %7, align 8
  tail call void @_ZN10extensions11WebAuthFlowC1EPNS0_8DelegateEP7ProfileRK4GURLNS0_4ModeENS0_9PartitionE(%"class.extensions::WebAuthFlow"* nonnull %10, %"class.extensions::WebAuthFlow::Delegate"* %11, %class.Profile* %12, %class.GURL* dereferenceable(120) %8, i32 0, i32 0) #14
  %13 = ptrtoint i8* %9 to i64
  %14 = load %"class.extensions::WebAuthFlow"*, %"class.extensions::WebAuthFlow"** %3, align 8
  %15 = bitcast %"class.std::__1::unique_ptr.48"* %2 to i64*
  store i64 %13, i64* %15, align 8
  %16 = icmp eq %"class.extensions::WebAuthFlow"* %14, null
  br i1 %16, label %22, label %17

17:                                               ; preds = %6
  %18 = bitcast %"class.extensions::WebAuthFlow"* %14 to void (%"class.extensions::WebAuthFlow"*)***
  %19 = load void (%"class.extensions::WebAuthFlow"*)**, void (%"class.extensions::WebAuthFlow"*)*** %18, align 8
  %20 = getelementptr inbounds void (%"class.extensions::WebAuthFlow"*)*, void (%"class.extensions::WebAuthFlow"*)** %19, i64 8
  %21 = load void (%"class.extensions::WebAuthFlow"*)*, void (%"class.extensions::WebAuthFlow"*)** %20, align 8
  tail call void %21(%"class.extensions::WebAuthFlow"* nonnull %14) #14
  br label %22

22:                                               ; preds = %1, %6, %17
  tail call void @_ZN10extensions21GaiaRemoteConsentFlow19SetAccountsInCookieEv(%"class.extensions::GaiaRemoteConsentFlow"* %0)
  ret void
}

; Function Attrs: argmemonly nounwind
declare void @llvm.lifetime.start.p0i8(i64 immarg, i8* nocapture) #7

; Function Attrs: argmemonly nounwind
declare void @llvm.lifetime.end.p0i8(i64 immarg, i8* nocapture) #7

; Function Attrs: nounwind ssp uwtable
define hidden void @_ZN10extensions21GaiaRemoteConsentFlow19SetAccountsInCookieEv(%"class.extensions::GaiaRemoteConsentFlow"*) local_unnamed_addr #3 align 2 {
  %2 = alloca %"class.std::__1::vector.502", align 8
  %3 = alloca %struct.CoreAccountId, align 8
  %4 = alloca %"class.std::__1::vector.509", align 8
  %5 = alloca %"struct.signin::MultiloginParameters", align 8
  %6 = alloca %"class.gaia::GaiaSource", align 8
  %7 = alloca %"class.base::OnceCallback.517", align 8
  %8 = getelementptr inbounds %"class.extensions::GaiaRemoteConsentFlow", %"class.extensions::GaiaRemoteConsentFlow"* %0, i64 0, i32 9
  %9 = getelementptr inbounds %"class.std::__1::unique_ptr.55", %"class.std::__1::unique_ptr.55"* %8, i64 0, i32 0, i32 0, i32 0
  %10 = load %"class.signin::AccountsCookieMutator::SetAccountsInCookieTask"*, %"class.signin::AccountsCookieMutator::SetAccountsInCookieTask"** %9, align 8
  %11 = icmp eq %"class.signin::AccountsCookieMutator::SetAccountsInCookieTask"* %10, null
  br i1 %11, label %17, label %12

12:                                               ; preds = %1
  store %"class.signin::AccountsCookieMutator::SetAccountsInCookieTask"* null, %"class.signin::AccountsCookieMutator::SetAccountsInCookieTask"** %9, align 8
  %13 = bitcast %"class.signin::AccountsCookieMutator::SetAccountsInCookieTask"* %10 to void (%"class.signin::AccountsCookieMutator::SetAccountsInCookieTask"*)***
  %14 = load void (%"class.signin::AccountsCookieMutator::SetAccountsInCookieTask"*)**, void (%"class.signin::AccountsCookieMutator::SetAccountsInCookieTask"*)*** %13, align 8
  %15 = getelementptr inbounds void (%"class.signin::AccountsCookieMutator::SetAccountsInCookieTask"*)*, void (%"class.signin::AccountsCookieMutator::SetAccountsInCookieTask"*)** %14, i64 1
  %16 = load void (%"class.signin::AccountsCookieMutator::SetAccountsInCookieTask"*)*, void (%"class.signin::AccountsCookieMutator::SetAccountsInCookieTask"*)** %15, align 8
  tail call void %16(%"class.signin::AccountsCookieMutator::SetAccountsInCookieTask"* nonnull %10) #14
  br label %17

17:                                               ; preds = %1, %12
  %18 = getelementptr inbounds %"class.extensions::GaiaRemoteConsentFlow", %"class.extensions::GaiaRemoteConsentFlow"* %0, i64 0, i32 4
  %19 = load %class.Profile*, %class.Profile** %18, align 8
  %20 = tail call %"class.signin::IdentityManager"* @_ZN22IdentityManagerFactory13GetForProfileEP7Profile(%class.Profile* %19) #14
  %21 = bitcast %"class.std::__1::vector.502"* %2 to i8*
  call void @llvm.lifetime.start.p0i8(i64 24, i8* nonnull %21) #14
  %22 = getelementptr inbounds %"class.std::__1::vector.502", %"class.std::__1::vector.502"* %2, i64 0, i32 0, i32 0
  %23 = getelementptr inbounds %"class.std::__1::vector.502", %"class.std::__1::vector.502"* %2, i64 0, i32 0, i32 1
  %24 = getelementptr inbounds %"class.std::__1::vector.502", %"class.std::__1::vector.502"* %2, i64 0, i32 0, i32 2, i32 0, i32 0
  call void @llvm.memset.p0i8.i64(i8* nonnull align 8 %21, i8 0, i64 24, i1 false) #14
  %25 = tail call %"class.extensions::BrowserContextKeyedAPIFactory"* @_ZN10extensions11IdentityAPI18GetFactoryInstanceEv() #14
  %26 = bitcast %class.Profile** %18 to %"class.content::BrowserContext"**
  %27 = load %"class.content::BrowserContext"*, %"class.content::BrowserContext"** %26, align 8
  %28 = tail call %"class.extensions::BrowserContextKeyedAPIFactory"* @_ZN10extensions11IdentityAPI18GetFactoryInstanceEv() #14
  %29 = getelementptr inbounds %"class.extensions::BrowserContextKeyedAPIFactory", %"class.extensions::BrowserContextKeyedAPIFactory"* %28, i64 0, i32 0
  %30 = tail call %class.KeyedService* @_ZN33BrowserContextKeyedServiceFactory27GetServiceForBrowserContextEPN7content14BrowserContextEb(%class.BrowserContextKeyedServiceFactory* %29, %"class.content::BrowserContext"* %27, i1 zeroext true) #14
  %31 = bitcast %class.KeyedService* %30 to %"class.extensions::IdentityAPI"*
  %32 = tail call zeroext i1 @_ZN10extensions11IdentityAPI39AreExtensionsRestrictedToPrimaryAccountEv(%"class.extensions::IdentityAPI"* %31) #14
  br i1 %32, label %33, label %45

33:                                               ; preds = %17
  %34 = bitcast %struct.CoreAccountId* %3 to i8*
  call void @llvm.lifetime.start.p0i8(i64 24, i8* nonnull %34) #14
  %35 = bitcast %struct.CoreAccountId* %3 to i8*
  call void @llvm.memset.p0i8.i64(i8* nonnull align 8 %35, i8 -86, i64 24, i1 false)
  call void @_ZNK6signin15IdentityManager19GetPrimaryAccountIdENS_12ConsentLevelE(%struct.CoreAccountId* nonnull sret %3, %"class.signin::IdentityManager"* %20, i32 1) #14
  %36 = load %struct.CoreAccountId*, %struct.CoreAccountId** %23, align 8
  %37 = load %struct.CoreAccountId*, %struct.CoreAccountId** %24, align 8
  %38 = icmp eq %struct.CoreAccountId* %36, %37
  br i1 %38, label %43, label %39

39:                                               ; preds = %33
  call void @_ZN13CoreAccountIdC1ERKS_(%struct.CoreAccountId* %36, %struct.CoreAccountId* nonnull dereferenceable(24) %3) #14
  %40 = getelementptr inbounds %struct.CoreAccountId, %struct.CoreAccountId* %36, i64 1
  %41 = ptrtoint %struct.CoreAccountId* %40 to i64
  %42 = bitcast %struct.CoreAccountId** %23 to i64*
  store i64 %41, i64* %42, align 8
  br label %44

43:                                               ; preds = %33
  call void @_ZNSt3__16vectorI13CoreAccountIdNS_9allocatorIS1_EEE21__push_back_slow_pathIRKS1_EEvOT_(%"class.std::__1::vector.502"* nonnull %2, %struct.CoreAccountId* nonnull dereferenceable(24) %3) #14
  br label %44

44:                                               ; preds = %39, %43
  call void @_ZN13CoreAccountIdD1Ev(%struct.CoreAccountId* nonnull %3) #14
  br label %88

45:                                               ; preds = %17
  %46 = bitcast %"class.std::__1::vector.509"* %4 to i8*
  call void @llvm.lifetime.start.p0i8(i64 24, i8* nonnull %46) #14
  %47 = getelementptr inbounds %"class.std::__1::vector.509", %"class.std::__1::vector.509"* %4, i64 0, i32 0, i32 0
  %48 = getelementptr inbounds %"class.std::__1::vector.509", %"class.std::__1::vector.509"* %4, i64 0, i32 0, i32 1
  %49 = bitcast %"class.std::__1::vector.509"* %4 to i8*
  call void @llvm.memset.p0i8.i64(i8* nonnull align 8 %49, i8 -86, i64 24, i1 false)
  call void @_ZNK6signin15IdentityManager28GetAccountsWithRefreshTokensEv(%"class.std::__1::vector.509"* nonnull sret %4, %"class.signin::IdentityManager"* %20) #14
  %50 = load %struct.CoreAccountInfo*, %struct.CoreAccountInfo** %47, align 8
  %51 = load %struct.CoreAccountInfo*, %struct.CoreAccountInfo** %48, align 8
  %52 = icmp eq %struct.CoreAccountInfo* %50, %51
  br i1 %52, label %57, label %53

53:                                               ; preds = %45
  %54 = bitcast %struct.CoreAccountId** %23 to i64*
  br label %73

55:                                               ; preds = %85
  %56 = load %struct.CoreAccountInfo*, %struct.CoreAccountInfo** %47, align 8
  br label %57

57:                                               ; preds = %55, %45
  %58 = phi %struct.CoreAccountInfo* [ %56, %55 ], [ %50, %45 ]
  %59 = icmp eq %struct.CoreAccountInfo* %58, null
  br i1 %59, label %88, label %60

60:                                               ; preds = %57
  %61 = bitcast %struct.CoreAccountInfo* %58 to i8*
  %62 = load %struct.CoreAccountInfo*, %struct.CoreAccountInfo** %48, align 8
  %63 = icmp eq %struct.CoreAccountInfo* %62, %58
  br i1 %63, label %71, label %64

64:                                               ; preds = %60, %64
  %65 = phi %struct.CoreAccountInfo* [ %66, %64 ], [ %62, %60 ]
  %66 = getelementptr inbounds %struct.CoreAccountInfo, %struct.CoreAccountInfo* %65, i64 -1
  call void @_ZN15CoreAccountInfoD1Ev(%struct.CoreAccountInfo* %66) #14
  %67 = icmp eq %struct.CoreAccountInfo* %66, %58
  br i1 %67, label %68, label %64

68:                                               ; preds = %64
  %69 = bitcast %"class.std::__1::vector.509"* %4 to i8**
  %70 = load i8*, i8** %69, align 8
  br label %71

71:                                               ; preds = %68, %60
  %72 = phi i8* [ %70, %68 ], [ %61, %60 ]
  store %struct.CoreAccountInfo* %58, %struct.CoreAccountInfo** %48, align 8
  call void @_ZdlPv(i8* %72) #15
  br label %88

73:                                               ; preds = %53, %85
  %74 = phi %struct.CoreAccountInfo* [ %50, %53 ], [ %86, %85 ]
  %75 = getelementptr inbounds %struct.CoreAccountInfo, %struct.CoreAccountInfo* %74, i64 0, i32 0
  %76 = call zeroext i1 @_ZNK6signin15IdentityManager48HasAccountWithRefreshTokenInPersistentErrorStateERK13CoreAccountId(%"class.signin::IdentityManager"* %20, %struct.CoreAccountId* dereferenceable(24) %75) #14
  br i1 %76, label %85, label %77

77:                                               ; preds = %73
  %78 = load %struct.CoreAccountId*, %struct.CoreAccountId** %23, align 8
  %79 = load %struct.CoreAccountId*, %struct.CoreAccountId** %24, align 8
  %80 = icmp eq %struct.CoreAccountId* %78, %79
  br i1 %80, label %84, label %81

81:                                               ; preds = %77
  call void @_ZN13CoreAccountIdC1ERKS_(%struct.CoreAccountId* %78, %struct.CoreAccountId* dereferenceable(24) %75) #14
  %82 = getelementptr inbounds %struct.CoreAccountId, %struct.CoreAccountId* %78, i64 1
  %83 = ptrtoint %struct.CoreAccountId* %82 to i64
  store i64 %83, i64* %54, align 8
  br label %85

84:                                               ; preds = %77
  call void @_ZNSt3__16vectorI13CoreAccountIdNS_9allocatorIS1_EEE21__push_back_slow_pathIRKS1_EEvOT_(%"class.std::__1::vector.502"* nonnull %2, %struct.CoreAccountId* dereferenceable(24) %75) #14
  br label %85

85:                                               ; preds = %84, %81, %73
  %86 = getelementptr inbounds %struct.CoreAccountInfo, %struct.CoreAccountInfo* %74, i64 1
  %87 = icmp eq %struct.CoreAccountInfo* %86, %51
  br i1 %87, label %55, label %73

88:                                               ; preds = %71, %57, %44
  %89 = phi i8* [ %34, %44 ], [ %46, %57 ], [ %46, %71 ]
  call void @llvm.lifetime.end.p0i8(i64 24, i8* nonnull %89) #14
  %90 = call %"class.signin::AccountsCookieMutator"* @_ZN6signin15IdentityManager24GetAccountsCookieMutatorEv(%"class.signin::IdentityManager"* %20) #14
  %91 = getelementptr inbounds %"class.extensions::GaiaRemoteConsentFlow", %"class.extensions::GaiaRemoteConsentFlow"* %0, i64 0, i32 1
  %92 = bitcast %"struct.signin::MultiloginParameters"* %5 to i8*
  call void @llvm.lifetime.start.p0i8(i64 32, i8* nonnull %92) #14
  call void @_ZN6signin20MultiloginParametersC1EN4gaia14MultiloginModeERKNSt3__16vectorI13CoreAccountIdNS3_9allocatorIS5_EEEE(%"struct.signin::MultiloginParameters"* nonnull %5, i32 0, %"class.std::__1::vector.502"* nonnull dereferenceable(24) %2) #14
  call void @_ZN4gaia10GaiaSourceC1ENS0_4TypeE(%"class.gaia::GaiaSource"* nonnull %6, i32 0) #14
  %93 = ptrtoint %"class.extensions::GaiaRemoteConsentFlow"* %0 to i64
  %94 = call i8* @_Znwm(i64 56) #15, !noalias !2
  %95 = bitcast i8* %94 to %"class.base::internal::BindStateBase"*
  call void @_ZN4base8internal13BindStateBaseC2EPFvvEPFvPKS1_E(%"class.base::internal::BindStateBase"* nonnull %95, void ()* bitcast (void (%"class.base::internal::BindStateBase"*, i32)* @_ZN4base8internal7InvokerINS0_9BindStateIMN10extensions21GaiaRemoteConsentFlowEFvN6signin25SetAccountsInCookieResultEEJNS0_17UnretainedWrapperIS4_EEEEEFvS6_EE7RunOnceEPNS0_13BindStateBaseES6_ to void ()*), void (%"class.base::internal::BindStateBase"*)* nonnull @_ZN4base8internal9BindStateIMN10extensions21GaiaRemoteConsentFlowEFvN6signin25SetAccountsInCookieResultEEJNS0_17UnretainedWrapperIS3_EEEE7DestroyEPKNS0_13BindStateBaseE) #14, !noalias !2
  %96 = getelementptr inbounds i8, i8* %94, i64 32
  %97 = bitcast i8* %96 to <2 x i64>*
  store <2 x i64> <i64 ptrtoint (void (%"class.extensions::GaiaRemoteConsentFlow"*, i32)* @_ZN10extensions21GaiaRemoteConsentFlow21OnSetAccountsCompleteEN6signin25SetAccountsInCookieResultE to i64), i64 0>, <2 x i64>* %97, align 8, !noalias !2
  %98 = getelementptr inbounds i8, i8* %94, i64 48
  %99 = bitcast i8* %98 to i64*
  store i64 %93, i64* %99, align 8, !noalias !2
  %100 = bitcast %"class.base::OnceCallback.517"* %7 to i8**
  store i8* %94, i8** %100, align 8, !alias.scope !2
  %101 = bitcast %"class.signin::AccountsCookieMutator"* %90 to %"class.signin::AccountsCookieMutator::SetAccountsInCookieTask"* (%"class.signin::AccountsCookieMutator"*, %"class.signin::AccountsCookieMutator::PartitionDelegate"*, %"struct.signin::MultiloginParameters"*, %"class.gaia::GaiaSource"*, %"class.base::OnceCallback.517"*)***
  %102 = load %"class.signin::AccountsCookieMutator::SetAccountsInCookieTask"* (%"class.signin::AccountsCookieMutator"*, %"class.signin::AccountsCookieMutator::PartitionDelegate"*, %"struct.signin::MultiloginParameters"*, %"class.gaia::GaiaSource"*, %"class.base::OnceCallback.517"*)**, %"class.signin::AccountsCookieMutator::SetAccountsInCookieTask"* (%"class.signin::AccountsCookieMutator"*, %"class.signin::AccountsCookieMutator::PartitionDelegate"*, %"struct.signin::MultiloginParameters"*, %"class.gaia::GaiaSource"*, %"class.base::OnceCallback.517"*)*** %101, align 8
  %103 = getelementptr inbounds %"class.signin::AccountsCookieMutator::SetAccountsInCookieTask"* (%"class.signin::AccountsCookieMutator"*, %"class.signin::AccountsCookieMutator::PartitionDelegate"*, %"struct.signin::MultiloginParameters"*, %"class.gaia::GaiaSource"*, %"class.base::OnceCallback.517"*)*, %"class.signin::AccountsCookieMutator::SetAccountsInCookieTask"* (%"class.signin::AccountsCookieMutator"*, %"class.signin::AccountsCookieMutator::PartitionDelegate"*, %"struct.signin::MultiloginParameters"*, %"class.gaia::GaiaSource"*, %"class.base::OnceCallback.517"*)** %102, i64 5
  %104 = load %"class.signin::AccountsCookieMutator::SetAccountsInCookieTask"* (%"class.signin::AccountsCookieMutator"*, %"class.signin::AccountsCookieMutator::PartitionDelegate"*, %"struct.signin::MultiloginParameters"*, %"class.gaia::GaiaSource"*, %"class.base::OnceCallback.517"*)*, %"class.signin::AccountsCookieMutator::SetAccountsInCookieTask"* (%"class.signin::AccountsCookieMutator"*, %"class.signin::AccountsCookieMutator::PartitionDelegate"*, %"struct.signin::MultiloginParameters"*, %"class.gaia::GaiaSource"*, %"class.base::OnceCallback.517"*)** %103, align 8
  %105 = call %"class.signin::AccountsCookieMutator::SetAccountsInCookieTask"* %104(%"class.signin::AccountsCookieMutator"* %90, %"class.signin::AccountsCookieMutator::PartitionDelegate"* %91, %"struct.signin::MultiloginParameters"* nonnull dereferenceable(32) %5, %"class.gaia::GaiaSource"* nonnull %6, %"class.base::OnceCallback.517"* nonnull %7) #14
  %106 = ptrtoint %"class.signin::AccountsCookieMutator::SetAccountsInCookieTask"* %105 to i64
  %107 = load %"class.signin::AccountsCookieMutator::SetAccountsInCookieTask"*, %"class.signin::AccountsCookieMutator::SetAccountsInCookieTask"** %9, align 8
  %108 = bitcast %"class.std::__1::unique_ptr.55"* %8 to i64*
  store i64 %106, i64* %108, align 8
  %109 = icmp eq %"class.signin::AccountsCookieMutator::SetAccountsInCookieTask"* %107, null
  br i1 %109, label %115, label %110

110:                                              ; preds = %88
  %111 = bitcast %"class.signin::AccountsCookieMutator::SetAccountsInCookieTask"* %107 to void (%"class.signin::AccountsCookieMutator::SetAccountsInCookieTask"*)***
  %112 = load void (%"class.signin::AccountsCookieMutator::SetAccountsInCookieTask"*)**, void (%"class.signin::AccountsCookieMutator::SetAccountsInCookieTask"*)*** %111, align 8
  %113 = getelementptr inbounds void (%"class.signin::AccountsCookieMutator::SetAccountsInCookieTask"*)*, void (%"class.signin::AccountsCookieMutator::SetAccountsInCookieTask"*)** %112, i64 1
  %114 = load void (%"class.signin::AccountsCookieMutator::SetAccountsInCookieTask"*)*, void (%"class.signin::AccountsCookieMutator::SetAccountsInCookieTask"*)** %113, align 8
  call void %114(%"class.signin::AccountsCookieMutator::SetAccountsInCookieTask"* nonnull %107) #14
  br label %115

115:                                              ; preds = %110, %88
  %116 = getelementptr inbounds %"class.base::OnceCallback.517", %"class.base::OnceCallback.517"* %7, i64 0, i32 0
  call void @_ZN4base8internal12CallbackBaseD2Ev(%"class.base::internal::CallbackBase"* nonnull %116) #14
  %117 = getelementptr inbounds %"class.gaia::GaiaSource", %"class.gaia::GaiaSource"* %6, i64 0, i32 1
  %118 = bitcast %"class.std::__1::basic_string"* %117 to %"struct.std::__1::basic_string<char, std::__1::char_traits<char>, std::__1::allocator<char> >::__short"*
  %119 = getelementptr inbounds %"struct.std::__1::basic_string<char, std::__1::char_traits<char>, std::__1::allocator<char> >::__short", %"struct.std::__1::basic_string<char, std::__1::char_traits<char>, std::__1::allocator<char> >::__short"* %118, i64 0, i32 1, i32 0
  %120 = load i8, i8* %119, align 1
  %121 = icmp slt i8 %120, 0
  br i1 %121, label %122, label %125

122:                                              ; preds = %115
  %123 = getelementptr inbounds %"class.std::__1::basic_string", %"class.std::__1::basic_string"* %117, i64 0, i32 0, i32 0, i32 0, i32 0, i32 0, i32 0
  %124 = load i8*, i8** %123, align 8
  call void @_ZdlPv(i8* %124) #15
  br label %125

125:                                              ; preds = %115, %122
  call void @_ZN6signin20MultiloginParametersD1Ev(%"struct.signin::MultiloginParameters"* nonnull %5) #14
  call void @llvm.lifetime.end.p0i8(i64 32, i8* nonnull %92) #14
  %126 = load %struct.CoreAccountId*, %struct.CoreAccountId** %22, align 8
  %127 = icmp eq %struct.CoreAccountId* %126, null
  br i1 %127, label %141, label %128

128:                                              ; preds = %125
  %129 = bitcast %struct.CoreAccountId* %126 to i8*
  %130 = load %struct.CoreAccountId*, %struct.CoreAccountId** %23, align 8
  %131 = icmp eq %struct.CoreAccountId* %130, %126
  br i1 %131, label %139, label %132

132:                                              ; preds = %128, %132
  %133 = phi %struct.CoreAccountId* [ %134, %132 ], [ %130, %128 ]
  %134 = getelementptr inbounds %struct.CoreAccountId, %struct.CoreAccountId* %133, i64 -1
  call void @_ZN13CoreAccountIdD1Ev(%struct.CoreAccountId* %134) #14
  %135 = icmp eq %struct.CoreAccountId* %134, %126
  br i1 %135, label %136, label %132

136:                                              ; preds = %132
  %137 = bitcast %"class.std::__1::vector.502"* %2 to i8**
  %138 = load i8*, i8** %137, align 8
  br label %139

139:                                              ; preds = %136, %128
  %140 = phi i8* [ %138, %136 ], [ %129, %128 ]
  store %struct.CoreAccountId* %126, %struct.CoreAccountId** %23, align 8
  call void @_ZdlPv(i8* %140) #15
  br label %141

141:                                              ; preds = %125, %139
  call void @llvm.lifetime.end.p0i8(i64 24, i8* nonnull %21) #14
  ret void
}

; Function Attrs: nounwind ssp uwtable
define hidden void @_ZN10extensions21GaiaRemoteConsentFlow21OnSetAccountsCompleteEN6signin25SetAccountsInCookieResultE(%"class.extensions::GaiaRemoteConsentFlow"*, i32) #3 align 2 {
  %3 = alloca %"class.net::CookieOptions", align 4
  %4 = alloca %class.GURL, align 8
  %5 = alloca %"class.std::__1::basic_string", align 8
  %6 = alloca %"class.base::OnceCallback.196", align 8
  %7 = alloca %"class.base::CallbackListSubscription", align 8
  %8 = alloca %"class.base::RepeatingCallback.488", align 8
  %9 = getelementptr inbounds %"class.extensions::GaiaRemoteConsentFlow", %"class.extensions::GaiaRemoteConsentFlow"* %0, i64 0, i32 9, i32 0, i32 0, i32 0
  %10 = load %"class.signin::AccountsCookieMutator::SetAccountsInCookieTask"*, %"class.signin::AccountsCookieMutator::SetAccountsInCookieTask"** %9, align 8
  store %"class.signin::AccountsCookieMutator::SetAccountsInCookieTask"* null, %"class.signin::AccountsCookieMutator::SetAccountsInCookieTask"** %9, align 8
  %11 = icmp eq %"class.signin::AccountsCookieMutator::SetAccountsInCookieTask"* %10, null
  br i1 %11, label %17, label %12

12:                                               ; preds = %2
  %13 = bitcast %"class.signin::AccountsCookieMutator::SetAccountsInCookieTask"* %10 to void (%"class.signin::AccountsCookieMutator::SetAccountsInCookieTask"*)***
  %14 = load void (%"class.signin::AccountsCookieMutator::SetAccountsInCookieTask"*)**, void (%"class.signin::AccountsCookieMutator::SetAccountsInCookieTask"*)*** %13, align 8
  %15 = getelementptr inbounds void (%"class.signin::AccountsCookieMutator::SetAccountsInCookieTask"*)*, void (%"class.signin::AccountsCookieMutator::SetAccountsInCookieTask"*)** %14, i64 1
  %16 = load void (%"class.signin::AccountsCookieMutator::SetAccountsInCookieTask"*)*, void (%"class.signin::AccountsCookieMutator::SetAccountsInCookieTask"*)** %15, align 8
  tail call void %16(%"class.signin::AccountsCookieMutator::SetAccountsInCookieTask"* nonnull %10) #14
  br label %17

17:                                               ; preds = %2, %12
  %18 = getelementptr inbounds %"class.extensions::GaiaRemoteConsentFlow", %"class.extensions::GaiaRemoteConsentFlow"* %0, i64 0, i32 8
  %19 = load i8, i8* %18, align 8, !range !7
  %20 = icmp eq i8 %19, 0
  br i1 %20, label %21, label %115

21:                                               ; preds = %17
  %22 = icmp eq i32 %1, 0
  br i1 %22, label %30, label %23

23:                                               ; preds = %21
  tail call void @_ZN4base23UmaHistogramExactLinearEPKcii(i8* getelementptr inbounds ([46 x i8], [46 x i8]* @.str, i64 0, i64 0), i32 3, i32 6) #14
  %24 = getelementptr inbounds %"class.extensions::GaiaRemoteConsentFlow", %"class.extensions::GaiaRemoteConsentFlow"* %0, i64 0, i32 3
  %25 = load %"class.extensions::GaiaRemoteConsentFlow::Delegate"*, %"class.extensions::GaiaRemoteConsentFlow::Delegate"** %24, align 8
  %26 = bitcast %"class.extensions::GaiaRemoteConsentFlow::Delegate"* %25 to void (%"class.extensions::GaiaRemoteConsentFlow::Delegate"*, i32)***
  %27 = load void (%"class.extensions::GaiaRemoteConsentFlow::Delegate"*, i32)**, void (%"class.extensions::GaiaRemoteConsentFlow::Delegate"*, i32)*** %26, align 8
  %28 = getelementptr inbounds void (%"class.extensions::GaiaRemoteConsentFlow::Delegate"*, i32)*, void (%"class.extensions::GaiaRemoteConsentFlow::Delegate"*, i32)** %27, i64 2
  %29 = load void (%"class.extensions::GaiaRemoteConsentFlow::Delegate"*, i32)*, void (%"class.extensions::GaiaRemoteConsentFlow::Delegate"*, i32)** %28, align 8
  tail call void %29(%"class.extensions::GaiaRemoteConsentFlow::Delegate"* %25, i32 3) #14
  br label %115

30:                                               ; preds = %21
  %31 = bitcast %"class.extensions::GaiaRemoteConsentFlow"* %0 to %"class.network::mojom::CookieManager"* (%"class.extensions::GaiaRemoteConsentFlow"*)***
  %32 = load %"class.network::mojom::CookieManager"* (%"class.extensions::GaiaRemoteConsentFlow"*)**, %"class.network::mojom::CookieManager"* (%"class.extensions::GaiaRemoteConsentFlow"*)*** %31, align 8
  %33 = getelementptr inbounds %"class.network::mojom::CookieManager"* (%"class.extensions::GaiaRemoteConsentFlow"*)*, %"class.network::mojom::CookieManager"* (%"class.extensions::GaiaRemoteConsentFlow"*)** %32, i64 6
  %34 = load %"class.network::mojom::CookieManager"* (%"class.extensions::GaiaRemoteConsentFlow"*)*, %"class.network::mojom::CookieManager"* (%"class.extensions::GaiaRemoteConsentFlow"*)** %33, align 8
  %35 = tail call %"class.network::mojom::CookieManager"* %34(%"class.extensions::GaiaRemoteConsentFlow"* %0) #14
  %36 = getelementptr inbounds %"class.net::CookieOptions", %"class.net::CookieOptions"* %3, i64 0, i32 0
  call void @llvm.lifetime.start.p0i8(i64 32, i8* nonnull %36) #14
  call void @llvm.memset.p0i8.i64(i8* nonnull align 4 %36, i8 -86, i64 32, i1 false)
  call void @_ZN3net13CookieOptionsC1Ev(%"class.net::CookieOptions"* nonnull %3) #14
  %37 = getelementptr inbounds %"class.extensions::GaiaRemoteConsentFlow", %"class.extensions::GaiaRemoteConsentFlow"* %0, i64 0, i32 6, i32 1, i32 0, i32 0
  %38 = load %"class.net::CanonicalCookie"*, %"class.net::CanonicalCookie"** %37, align 8
  %39 = getelementptr inbounds %"class.extensions::GaiaRemoteConsentFlow", %"class.extensions::GaiaRemoteConsentFlow"* %0, i64 0, i32 6, i32 1, i32 0, i32 1
  %40 = load %"class.net::CanonicalCookie"*, %"class.net::CanonicalCookie"** %39, align 8
  %41 = icmp eq %"class.net::CanonicalCookie"* %38, %40
  br i1 %41, label %53, label %42

42:                                               ; preds = %30
  %43 = bitcast %class.GURL* %4 to i8*
  %44 = bitcast %"class.std::__1::basic_string"* %5 to i8*
  %45 = getelementptr inbounds %"class.std::__1::basic_string", %"class.std::__1::basic_string"* %5, i64 0, i32 0, i32 0, i32 0, i32 0, i32 0, i32 0
  %46 = getelementptr inbounds %"class.std::__1::basic_string", %"class.std::__1::basic_string"* %5, i64 0, i32 0, i32 0, i32 0, i32 0, i32 0, i32 2
  %47 = getelementptr inbounds %"class.std::__1::basic_string", %"class.std::__1::basic_string"* %5, i64 0, i32 0, i32 0, i32 0, i32 0, i32 0, i32 1
  %48 = bitcast %"class.std::__1::basic_string"* %5 to %"struct.std::__1::basic_string<char, std::__1::char_traits<char>, std::__1::allocator<char> >::__short"*
  %49 = getelementptr inbounds %"struct.std::__1::basic_string<char, std::__1::char_traits<char>, std::__1::allocator<char> >::__short", %"struct.std::__1::basic_string<char, std::__1::char_traits<char>, std::__1::allocator<char> >::__short"* %48, i64 0, i32 1, i32 0
  %50 = getelementptr inbounds %"class.base::OnceCallback.196", %"class.base::OnceCallback.196"* %6, i64 0, i32 0, i32 0, i32 0
  %51 = bitcast %"class.network::mojom::CookieManager"* %35 to void (%"class.network::mojom::CookieManager"*, %"class.net::CanonicalCookie"*, %class.GURL*, %"class.net::CookieOptions"*, %"class.base::OnceCallback.196"*)***
  %52 = getelementptr inbounds %"class.base::OnceCallback.196", %"class.base::OnceCallback.196"* %6, i64 0, i32 0
  br label %84

53:                                               ; preds = %112, %30
  %54 = bitcast %"class.base::CallbackListSubscription"* %7 to i8*
  call void @llvm.lifetime.start.p0i8(i64 8, i8* nonnull %54) #14
  %55 = call %"class.extensions::BrowserContextKeyedAPIFactory"* @_ZN10extensions11IdentityAPI18GetFactoryInstanceEv() #14
  %56 = getelementptr inbounds %"class.extensions::GaiaRemoteConsentFlow", %"class.extensions::GaiaRemoteConsentFlow"* %0, i64 0, i32 4
  %57 = bitcast %class.Profile** %56 to %"class.content::BrowserContext"**
  %58 = load %"class.content::BrowserContext"*, %"class.content::BrowserContext"** %57, align 8
  %59 = call %"class.extensions::BrowserContextKeyedAPIFactory"* @_ZN10extensions11IdentityAPI18GetFactoryInstanceEv() #14
  %60 = getelementptr inbounds %"class.extensions::BrowserContextKeyedAPIFactory", %"class.extensions::BrowserContextKeyedAPIFactory"* %59, i64 0, i32 0
  %61 = call %class.KeyedService* @_ZN33BrowserContextKeyedServiceFactory27GetServiceForBrowserContextEPN7content14BrowserContextEb(%class.BrowserContextKeyedServiceFactory* %60, %"class.content::BrowserContext"* %58, i1 zeroext true) #14
  %62 = bitcast %class.KeyedService* %61 to %"class.extensions::IdentityAPI"*
  %63 = bitcast %"class.base::RepeatingCallback.488"* %8 to i8*
  call void @llvm.lifetime.start.p0i8(i64 8, i8* nonnull %63) #14
  %64 = ptrtoint %"class.extensions::GaiaRemoteConsentFlow"* %0 to i64
  %65 = call i8* @_Znwm(i64 56) #15, !noalias !8
  %66 = bitcast i8* %65 to %"class.base::internal::BindStateBase"*
  call void @_ZN4base8internal13BindStateBaseC2EPFvvEPFvPKS1_E(%"class.base::internal::BindStateBase"* nonnull %66, void ()* bitcast (void (%"class.base::internal::BindStateBase"*, %"class.std::__1::basic_string"*, %"class.std::__1::basic_string"*)* @_ZN4base8internal7InvokerINS0_9BindStateIMN10extensions21GaiaRemoteConsentFlowEFvRKNSt3__112basic_stringIcNS5_11char_traitsIcEENS5_9allocatorIcEEEESD_EJNS0_17UnretainedWrapperIS4_EEEEEFvSD_SD_EE3RunEPNS0_13BindStateBaseESD_SD_ to void ()*), void (%"class.base::internal::BindStateBase"*)* nonnull @_ZN4base8internal9BindStateIMN10extensions21GaiaRemoteConsentFlowEFvRKNSt3__112basic_stringIcNS4_11char_traitsIcEENS4_9allocatorIcEEEESC_EJNS0_17UnretainedWrapperIS3_EEEE7DestroyEPKNS0_13BindStateBaseE) #14, !noalias !8
  %67 = getelementptr inbounds i8, i8* %65, i64 32
  %68 = bitcast i8* %67 to <2 x i64>*
  store <2 x i64> <i64 ptrtoint (void (%"class.extensions::GaiaRemoteConsentFlow"*, %"class.std::__1::basic_string"*, %"class.std::__1::basic_string"*)* @_ZN10extensions21GaiaRemoteConsentFlow18OnConsentResultSetERKNSt3__112basic_stringIcNS1_11char_traitsIcEENS1_9allocatorIcEEEES9_ to i64), i64 0>, <2 x i64>* %68, align 8, !noalias !8
  %69 = getelementptr inbounds i8, i8* %65, i64 48
  %70 = bitcast i8* %69 to i64*
  store i64 %64, i64* %70, align 8, !noalias !8
  %71 = bitcast %"class.base::RepeatingCallback.488"* %8 to i8**
  store i8* %65, i8** %71, align 8, !alias.scope !8
  call void @_ZN10extensions11IdentityAPI34RegisterOnSetConsentResultCallbackERKN4base17RepeatingCallbackIFvRKNSt3__112basic_stringIcNS3_11char_traitsIcEENS3_9allocatorIcEEEESB_EEE(%"class.base::CallbackListSubscription"* nonnull sret %7, %"class.extensions::IdentityAPI"* %62, %"class.base::RepeatingCallback.488"* nonnull dereferenceable(8) %8) #14
  %72 = getelementptr inbounds %"class.extensions::GaiaRemoteConsentFlow", %"class.extensions::GaiaRemoteConsentFlow"* %0, i64 0, i32 10
  %73 = call dereferenceable(8) %"class.base::CallbackListSubscription"* @_ZN4base24CallbackListSubscriptionaSEOS0_(%"class.base::CallbackListSubscription"* %72, %"class.base::CallbackListSubscription"* nonnull dereferenceable(8) %7) #14
  call void @_ZN4base24CallbackListSubscriptionD1Ev(%"class.base::CallbackListSubscription"* nonnull %7) #14
  %74 = getelementptr inbounds %"class.base::RepeatingCallback.488", %"class.base::RepeatingCallback.488"* %8, i64 0, i32 0, i32 0
  call void @_ZN4base8internal12CallbackBaseD2Ev(%"class.base::internal::CallbackBase"* nonnull %74) #14
  call void @llvm.lifetime.end.p0i8(i64 8, i8* nonnull %63) #14
  call void @llvm.lifetime.end.p0i8(i64 8, i8* nonnull %54) #14
  %75 = getelementptr inbounds %"class.extensions::GaiaRemoteConsentFlow", %"class.extensions::GaiaRemoteConsentFlow"* %0, i64 0, i32 11
  %76 = load %class.Profile*, %class.Profile** %56, align 8
  %77 = call %"class.signin::IdentityManager"* @_ZN22IdentityManagerFactory13GetForProfileEP7Profile(%class.Profile* %76) #14
  call void @_ZN4base17ScopedObservationIN6signin15IdentityManagerENS2_8ObserverEXadL_ZNS2_11AddObserverEPS3_EEXadL_ZNS2_14RemoveObserverES4_EEE7ObserveEPS2_(%"class.base::ScopedObservation"* %75, %"class.signin::IdentityManager"* %77)
  %78 = getelementptr inbounds %"class.extensions::GaiaRemoteConsentFlow", %"class.extensions::GaiaRemoteConsentFlow"* %0, i64 0, i32 7, i32 0, i32 0, i32 0
  %79 = load %"class.extensions::WebAuthFlow"*, %"class.extensions::WebAuthFlow"** %78, align 8
  %80 = bitcast %"class.extensions::WebAuthFlow"* %79 to void (%"class.extensions::WebAuthFlow"*)***
  %81 = load void (%"class.extensions::WebAuthFlow"*)**, void (%"class.extensions::WebAuthFlow"*)*** %80, align 8
  %82 = getelementptr inbounds void (%"class.extensions::WebAuthFlow"*)*, void (%"class.extensions::WebAuthFlow"*)** %81, i64 107
  %83 = load void (%"class.extensions::WebAuthFlow"*)*, void (%"class.extensions::WebAuthFlow"*)** %82, align 8
  call void %83(%"class.extensions::WebAuthFlow"* %79) #14
  store i8 1, i8* %18, align 8
  call void @_ZN3net13CookieOptionsD1Ev(%"class.net::CookieOptions"* nonnull %3) #14
  call void @llvm.lifetime.end.p0i8(i64 32, i8* nonnull %36) #14
  br label %115

84:                                               ; preds = %42, %112
  %85 = phi %"class.net::CanonicalCookie"* [ %38, %42 ], [ %113, %112 ]
  call void @llvm.lifetime.start.p0i8(i64 120, i8* nonnull %43) #14
  call void @llvm.lifetime.start.p0i8(i64 24, i8* nonnull %44) #14
  %86 = call i64 @strlen(i8* getelementptr inbounds ([0 x i8], [0 x i8]* @_ZN3url12kHttpsSchemeE, i64 0, i64 0)) #14
  %87 = icmp ugt i64 %86, -17
  br i1 %87, label %88, label %90

88:                                               ; preds = %84
  %89 = bitcast %"class.std::__1::basic_string"* %5 to %"class.std::__1::__basic_string_common"*
  call void @_ZNKSt3__121__basic_string_commonILb1EE20__throw_length_errorEv(%"class.std::__1::__basic_string_common"* nonnull %89) #13
  unreachable

90:                                               ; preds = %84
  %91 = icmp ult i64 %86, 23
  br i1 %91, label %97, label %92

92:                                               ; preds = %90
  %93 = add nuw i64 %86, 16
  %94 = and i64 %93, -16
  %95 = call i8* @_Znwm(i64 %94) #15
  store i8* %95, i8** %45, align 8
  %96 = or i64 %94, -9223372036854775808
  store i64 %96, i64* %46, align 8
  store i64 %86, i64* %47, align 8
  br label %100

97:                                               ; preds = %90
  %98 = trunc i64 %86 to i8
  store i8 %98, i8* %49, align 1
  %99 = icmp eq i64 %86, 0
  br i1 %99, label %102, label %100

100:                                              ; preds = %97, %92
  %101 = phi i8* [ %95, %92 ], [ %44, %97 ]
  call void @llvm.memcpy.p0i8.p0i8.i64(i8* nonnull align 1 %101, i8* align 1 getelementptr inbounds ([0 x i8], [0 x i8]* @_ZN3url12kHttpsSchemeE, i64 0, i64 0), i64 %86, i1 false) #14
  br label %102

102:                                              ; preds = %97, %100
  %103 = phi i8* [ %44, %97 ], [ %101, %100 ]
  %104 = getelementptr inbounds i8, i8* %103, i64 %86
  store i8 0, i8* %104, align 1
  call void @_ZN3net11cookie_util21SimulatedCookieSourceERKNS_15CanonicalCookieERKNSt3__112basic_stringIcNS4_11char_traitsIcEENS4_9allocatorIcEEEE(%class.GURL* nonnull sret %4, %"class.net::CanonicalCookie"* dereferenceable(144) %85, %"class.std::__1::basic_string"* nonnull dereferenceable(24) %5) #14
  store %"class.base::internal::BindStateBase"* null, %"class.base::internal::BindStateBase"** %50, align 8
  %105 = load void (%"class.network::mojom::CookieManager"*, %"class.net::CanonicalCookie"*, %class.GURL*, %"class.net::CookieOptions"*, %"class.base::OnceCallback.196"*)**, void (%"class.network::mojom::CookieManager"*, %"class.net::CanonicalCookie"*, %class.GURL*, %"class.net::CookieOptions"*, %"class.base::OnceCallback.196"*)*** %51, align 8
  %106 = getelementptr inbounds void (%"class.network::mojom::CookieManager"*, %"class.net::CanonicalCookie"*, %class.GURL*, %"class.net::CookieOptions"*, %"class.base::OnceCallback.196"*)*, void (%"class.network::mojom::CookieManager"*, %"class.net::CanonicalCookie"*, %class.GURL*, %"class.net::CookieOptions"*, %"class.base::OnceCallback.196"*)** %105, i64 5
  %107 = load void (%"class.network::mojom::CookieManager"*, %"class.net::CanonicalCookie"*, %class.GURL*, %"class.net::CookieOptions"*, %"class.base::OnceCallback.196"*)*, void (%"class.network::mojom::CookieManager"*, %"class.net::CanonicalCookie"*, %class.GURL*, %"class.net::CookieOptions"*, %"class.base::OnceCallback.196"*)** %106, align 8
  call void %107(%"class.network::mojom::CookieManager"* %35, %"class.net::CanonicalCookie"* dereferenceable(144) %85, %class.GURL* nonnull dereferenceable(120) %4, %"class.net::CookieOptions"* nonnull dereferenceable(32) %3, %"class.base::OnceCallback.196"* nonnull %6) #14
  call void @_ZN4base8internal12CallbackBaseD2Ev(%"class.base::internal::CallbackBase"* nonnull %52) #14
  call void @_ZN4GURLD1Ev(%class.GURL* nonnull %4) #14
  %108 = load i8, i8* %49, align 1
  %109 = icmp slt i8 %108, 0
  br i1 %109, label %110, label %112

110:                                              ; preds = %102
  %111 = load i8*, i8** %45, align 8
  call void @_ZdlPv(i8* %111) #15
  br label %112

112:                                              ; preds = %102, %110
  call void @llvm.lifetime.end.p0i8(i64 24, i8* nonnull %44) #14
  call void @llvm.lifetime.end.p0i8(i64 120, i8* nonnull %43) #14
  %113 = getelementptr inbounds %"class.net::CanonicalCookie", %"class.net::CanonicalCookie"* %85, i64 1
  %114 = icmp eq %"class.net::CanonicalCookie"* %113, %40
  br i1 %114, label %53, label %84

115:                                              ; preds = %17, %53, %23
  ret void
}

; Function Attrs: nounwind ssp uwtable
define hidden void @_ZN10extensions21GaiaRemoteConsentFlow27GaiaRemoteConsentFlowFailedENS0_7FailureE(%"class.extensions::GaiaRemoteConsentFlow"* nocapture readonly, i32) local_unnamed_addr #3 align 2 {
  tail call void @_ZN4base23UmaHistogramExactLinearEPKcii(i8* getelementptr inbounds ([46 x i8], [46 x i8]* @.str, i64 0, i64 0), i32 %1, i32 6) #14
  %3 = getelementptr inbounds %"class.extensions::GaiaRemoteConsentFlow", %"class.extensions::GaiaRemoteConsentFlow"* %0, i64 0, i32 3
  %4 = load %"class.extensions::GaiaRemoteConsentFlow::Delegate"*, %"class.extensions::GaiaRemoteConsentFlow::Delegate"** %3, align 8
  %5 = bitcast %"class.extensions::GaiaRemoteConsentFlow::Delegate"* %4 to void (%"class.extensions::GaiaRemoteConsentFlow::Delegate"*, i32)***
  %6 = load void (%"class.extensions::GaiaRemoteConsentFlow::Delegate"*, i32)**, void (%"class.extensions::GaiaRemoteConsentFlow::Delegate"*, i32)*** %5, align 8
  %7 = getelementptr inbounds void (%"class.extensions::GaiaRemoteConsentFlow::Delegate"*, i32)*, void (%"class.extensions::GaiaRemoteConsentFlow::Delegate"*, i32)** %6, i64 2
  %8 = load void (%"class.extensions::GaiaRemoteConsentFlow::Delegate"*, i32)*, void (%"class.extensions::GaiaRemoteConsentFlow::Delegate"*, i32)** %7, align 8
  tail call void %8(%"class.extensions::GaiaRemoteConsentFlow::Delegate"* %4, i32 %1) #14
  ret void
}

declare void @_ZN3net13CookieOptionsC1Ev(%"class.net::CookieOptions"*) unnamed_addr #4

declare void @_ZN3net11cookie_util21SimulatedCookieSourceERKNS_15CanonicalCookieERKNSt3__112basic_stringIcNS4_11char_traitsIcEENS4_9allocatorIcEEEE(%class.GURL* sret, %"class.net::CanonicalCookie"* dereferenceable(144), %"class.std::__1::basic_string"* dereferenceable(24)) local_unnamed_addr #4

; Function Attrs: argmemonly nounwind
declare void @llvm.memset.p0i8.i64(i8* nocapture writeonly, i8, i64, i1 immarg) #7

; Function Attrs: nounwind
declare void @_ZN4GURLD1Ev(%class.GURL*) unnamed_addr #5

declare %"class.extensions::BrowserContextKeyedAPIFactory"* @_ZN10extensions11IdentityAPI18GetFactoryInstanceEv() local_unnamed_addr #4

declare void @_ZN10extensions11IdentityAPI34RegisterOnSetConsentResultCallbackERKN4base17RepeatingCallbackIFvRKNSt3__112basic_stringIcNS3_11char_traitsIcEENS3_9allocatorIcEEEESB_EEE(%"class.base::CallbackListSubscription"* sret, %"class.extensions::IdentityAPI"*, %"class.base::RepeatingCallback.488"* dereferenceable(8)) local_unnamed_addr #4

; Function Attrs: nounwind ssp uwtable
define hidden void @_ZN10extensions21GaiaRemoteConsentFlow18OnConsentResultSetERKNSt3__112basic_stringIcNS1_11char_traitsIcEENS1_9allocatorIcEEEES9_(%"class.extensions::GaiaRemoteConsentFlow"*, %"class.std::__1::basic_string"* dereferenceable(24), %"class.std::__1::basic_string"* nocapture readonly dereferenceable(24)) #3 align 2 {
  %4 = alloca %"class.base::CallbackListSubscription", align 8
  %5 = alloca i8, align 1
  %6 = alloca %"class.std::__1::basic_string", align 8
  %7 = getelementptr inbounds %"class.extensions::GaiaRemoteConsentFlow", %"class.extensions::GaiaRemoteConsentFlow"* %0, i64 0, i32 7, i32 0, i32 0, i32 0
  %8 = load %"class.extensions::WebAuthFlow"*, %"class.extensions::WebAuthFlow"** %7, align 8
  %9 = icmp eq %"class.extensions::WebAuthFlow"* %8, null
  br i1 %9, label %104, label %10

10:                                               ; preds = %3
  %11 = bitcast %"class.extensions::WebAuthFlow"* %8 to %"class.std::__1::basic_string"* (%"class.extensions::WebAuthFlow"*)***
  %12 = load %"class.std::__1::basic_string"* (%"class.extensions::WebAuthFlow"*)**, %"class.std::__1::basic_string"* (%"class.extensions::WebAuthFlow"*)*** %11, align 8
  %13 = getelementptr inbounds %"class.std::__1::basic_string"* (%"class.extensions::WebAuthFlow"*)*, %"class.std::__1::basic_string"* (%"class.extensions::WebAuthFlow"*)** %12, i64 109
  %14 = load %"class.std::__1::basic_string"* (%"class.extensions::WebAuthFlow"*)*, %"class.std::__1::basic_string"* (%"class.extensions::WebAuthFlow"*)** %13, align 8
  %15 = tail call dereferenceable(24) %"class.std::__1::basic_string"* %14(%"class.extensions::WebAuthFlow"* nonnull %8) #14
  %16 = bitcast %"class.std::__1::basic_string"* %2 to %"struct.std::__1::basic_string<char, std::__1::char_traits<char>, std::__1::allocator<char> >::__short"*
  %17 = getelementptr inbounds %"struct.std::__1::basic_string<char, std::__1::char_traits<char>, std::__1::allocator<char> >::__short", %"struct.std::__1::basic_string<char, std::__1::char_traits<char>, std::__1::allocator<char> >::__short"* %16, i64 0, i32 1, i32 0
  %18 = load i8, i8* %17, align 1
  %19 = icmp slt i8 %18, 0
  %20 = getelementptr inbounds %"class.std::__1::basic_string", %"class.std::__1::basic_string"* %2, i64 0, i32 0, i32 0, i32 0, i32 0, i32 0, i32 1
  %21 = load i64, i64* %20, align 8
  %22 = zext i8 %18 to i64
  %23 = select i1 %19, i64 %21, i64 %22
  %24 = bitcast %"class.std::__1::basic_string"* %15 to %"struct.std::__1::basic_string<char, std::__1::char_traits<char>, std::__1::allocator<char> >::__short"*
  %25 = getelementptr inbounds %"struct.std::__1::basic_string<char, std::__1::char_traits<char>, std::__1::allocator<char> >::__short", %"struct.std::__1::basic_string<char, std::__1::char_traits<char>, std::__1::allocator<char> >::__short"* %24, i64 0, i32 1, i32 0
  %26 = load i8, i8* %25, align 1
  %27 = icmp slt i8 %26, 0
  %28 = getelementptr inbounds %"class.std::__1::basic_string", %"class.std::__1::basic_string"* %15, i64 0, i32 0, i32 0, i32 0, i32 0, i32 0, i32 1
  %29 = load i64, i64* %28, align 8
  %30 = zext i8 %26 to i64
  %31 = select i1 %27, i64 %29, i64 %30
  %32 = icmp eq i64 %23, %31
  br i1 %32, label %33, label %104

33:                                               ; preds = %10
  %34 = getelementptr inbounds %"class.std::__1::basic_string", %"class.std::__1::basic_string"* %2, i64 0, i32 0, i32 0, i32 0, i32 0, i32 0, i32 0
  %35 = load i8*, i8** %34, align 8
  %36 = bitcast %"class.std::__1::basic_string"* %2 to i8*
  %37 = select i1 %19, i8* %35, i8* %36
  %38 = getelementptr inbounds %"class.std::__1::basic_string", %"class.std::__1::basic_string"* %15, i64 0, i32 0, i32 0, i32 0, i32 0, i32 0, i32 0
  %39 = load i8*, i8** %38, align 8
  %40 = bitcast %"class.std::__1::basic_string"* %15 to i8*
  %41 = select i1 %27, i8* %39, i8* %40
  %42 = icmp eq i64 %23, 0
  br i1 %19, label %49, label %43

43:                                               ; preds = %33
  br i1 %42, label %65, label %44

44:                                               ; preds = %43
  %45 = ptrtoint i8* %35 to i64
  %46 = trunc i64 %45 to i8
  %47 = load i8, i8* %41, align 1
  %48 = icmp eq i8 %47, %46
  br i1 %48, label %50, label %104

49:                                               ; preds = %33
  br i1 %42, label %65, label %62

50:                                               ; preds = %44, %57
  %51 = phi i64 [ %54, %57 ], [ %22, %44 ]
  %52 = phi i8* [ %55, %57 ], [ %36, %44 ]
  %53 = phi i8* [ %58, %57 ], [ %41, %44 ]
  %54 = add i64 %51, -1
  %55 = getelementptr inbounds i8, i8* %52, i64 1
  %56 = icmp eq i64 %54, 0
  br i1 %56, label %65, label %57

57:                                               ; preds = %50
  %58 = getelementptr inbounds i8, i8* %53, i64 1
  %59 = load i8, i8* %55, align 1
  %60 = load i8, i8* %58, align 1
  %61 = icmp eq i8 %59, %60
  br i1 %61, label %50, label %104

62:                                               ; preds = %49
  %63 = tail call i32 @bcmp(i8* %37, i8* %41, i64 %23) #14
  %64 = icmp eq i32 %63, 0
  br i1 %64, label %65, label %104

65:                                               ; preds = %50, %62, %43, %49
  %66 = bitcast %"class.base::CallbackListSubscription"* %4 to i8*
  call void @llvm.lifetime.start.p0i8(i64 8, i8* nonnull %66) #14
  call void @_ZN4base24CallbackListSubscriptionC1Ev(%"class.base::CallbackListSubscription"* nonnull %4) #14
  %67 = getelementptr inbounds %"class.extensions::GaiaRemoteConsentFlow", %"class.extensions::GaiaRemoteConsentFlow"* %0, i64 0, i32 10
  %68 = call dereferenceable(8) %"class.base::CallbackListSubscription"* @_ZN4base24CallbackListSubscriptionaSEOS0_(%"class.base::CallbackListSubscription"* %67, %"class.base::CallbackListSubscription"* nonnull dereferenceable(8) %4) #14
  call void @_ZN4base24CallbackListSubscriptionD1Ev(%"class.base::CallbackListSubscription"* nonnull %4) #14
  call void @llvm.lifetime.end.p0i8(i64 8, i8* nonnull %66) #14
  call void @llvm.lifetime.start.p0i8(i64 1, i8* nonnull %5) #14
  store i8 0, i8* %5, align 1
  %69 = bitcast %"class.std::__1::basic_string"* %6 to i8*
  call void @llvm.lifetime.start.p0i8(i64 24, i8* nonnull %69) #14
  %70 = getelementptr inbounds %"class.std::__1::basic_string", %"class.std::__1::basic_string"* %6, i64 0, i32 0, i32 0, i32 0, i32 0, i32 0, i32 0
  call void @llvm.memset.p0i8.i64(i8* nonnull align 8 %69, i8 0, i64 24, i1 false) #14
  %71 = call zeroext i1 @_ZN4gaia33ParseOAuth2MintTokenConsentResultERKNSt3__112basic_stringIcNS0_11char_traitsIcEENS0_9allocatorIcEEEEPbPS6_(%"class.std::__1::basic_string"* dereferenceable(24) %1, i8* nonnull %5, %"class.std::__1::basic_string"* nonnull %6) #14
  br i1 %71, label %79, label %72

72:                                               ; preds = %65
  call void @_ZN4base23UmaHistogramExactLinearEPKcii(i8* getelementptr inbounds ([46 x i8], [46 x i8]* @.str, i64 0, i64 0), i32 4, i32 6) #14
  %73 = getelementptr inbounds %"class.extensions::GaiaRemoteConsentFlow", %"class.extensions::GaiaRemoteConsentFlow"* %0, i64 0, i32 3
  %74 = load %"class.extensions::GaiaRemoteConsentFlow::Delegate"*, %"class.extensions::GaiaRemoteConsentFlow::Delegate"** %73, align 8
  %75 = bitcast %"class.extensions::GaiaRemoteConsentFlow::Delegate"* %74 to void (%"class.extensions::GaiaRemoteConsentFlow::Delegate"*, i32)***
  %76 = load void (%"class.extensions::GaiaRemoteConsentFlow::Delegate"*, i32)**, void (%"class.extensions::GaiaRemoteConsentFlow::Delegate"*, i32)*** %75, align 8
  %77 = getelementptr inbounds void (%"class.extensions::GaiaRemoteConsentFlow::Delegate"*, i32)*, void (%"class.extensions::GaiaRemoteConsentFlow::Delegate"*, i32)** %76, i64 2
  %78 = load void (%"class.extensions::GaiaRemoteConsentFlow::Delegate"*, i32)*, void (%"class.extensions::GaiaRemoteConsentFlow::Delegate"*, i32)** %77, align 8
  call void %78(%"class.extensions::GaiaRemoteConsentFlow::Delegate"* %74, i32 4) #14
  br label %96

79:                                               ; preds = %65
  %80 = load i8, i8* %5, align 1, !range !7
  %81 = icmp eq i8 %80, 0
  br i1 %81, label %82, label %89

82:                                               ; preds = %79
  call void @_ZN4base23UmaHistogramExactLinearEPKcii(i8* getelementptr inbounds ([46 x i8], [46 x i8]* @.str, i64 0, i64 0), i32 5, i32 6) #14
  %83 = getelementptr inbounds %"class.extensions::GaiaRemoteConsentFlow", %"class.extensions::GaiaRemoteConsentFlow"* %0, i64 0, i32 3
  %84 = load %"class.extensions::GaiaRemoteConsentFlow::Delegate"*, %"class.extensions::GaiaRemoteConsentFlow::Delegate"** %83, align 8
  %85 = bitcast %"class.extensions::GaiaRemoteConsentFlow::Delegate"* %84 to void (%"class.extensions::GaiaRemoteConsentFlow::Delegate"*, i32)***
  %86 = load void (%"class.extensions::GaiaRemoteConsentFlow::Delegate"*, i32)**, void (%"class.extensions::GaiaRemoteConsentFlow::Delegate"*, i32)*** %85, align 8
  %87 = getelementptr inbounds void (%"class.extensions::GaiaRemoteConsentFlow::Delegate"*, i32)*, void (%"class.extensions::GaiaRemoteConsentFlow::Delegate"*, i32)** %86, i64 2
  %88 = load void (%"class.extensions::GaiaRemoteConsentFlow::Delegate"*, i32)*, void (%"class.extensions::GaiaRemoteConsentFlow::Delegate"*, i32)** %87, align 8
  call void %88(%"class.extensions::GaiaRemoteConsentFlow::Delegate"* %84, i32 5) #14
  br label %96

89:                                               ; preds = %79
  call void @_ZN4base23UmaHistogramExactLinearEPKcii(i8* getelementptr inbounds ([46 x i8], [46 x i8]* @.str, i64 0, i64 0), i32 0, i32 6) #14
  %90 = getelementptr inbounds %"class.extensions::GaiaRemoteConsentFlow", %"class.extensions::GaiaRemoteConsentFlow"* %0, i64 0, i32 3
  %91 = load %"class.extensions::GaiaRemoteConsentFlow::Delegate"*, %"class.extensions::GaiaRemoteConsentFlow::Delegate"** %90, align 8
  %92 = bitcast %"class.extensions::GaiaRemoteConsentFlow::Delegate"* %91 to void (%"class.extensions::GaiaRemoteConsentFlow::Delegate"*, %"class.std::__1::basic_string"*, %"class.std::__1::basic_string"*)***
  %93 = load void (%"class.extensions::GaiaRemoteConsentFlow::Delegate"*, %"class.std::__1::basic_string"*, %"class.std::__1::basic_string"*)**, void (%"class.extensions::GaiaRemoteConsentFlow::Delegate"*, %"class.std::__1::basic_string"*, %"class.std::__1::basic_string"*)*** %92, align 8
  %94 = getelementptr inbounds void (%"class.extensions::GaiaRemoteConsentFlow::Delegate"*, %"class.std::__1::basic_string"*, %"class.std::__1::basic_string"*)*, void (%"class.extensions::GaiaRemoteConsentFlow::Delegate"*, %"class.std::__1::basic_string"*, %"class.std::__1::basic_string"*)** %93, i64 3
  %95 = load void (%"class.extensions::GaiaRemoteConsentFlow::Delegate"*, %"class.std::__1::basic_string"*, %"class.std::__1::basic_string"*)*, void (%"class.extensions::GaiaRemoteConsentFlow::Delegate"*, %"class.std::__1::basic_string"*, %"class.std::__1::basic_string"*)** %94, align 8
  call void %95(%"class.extensions::GaiaRemoteConsentFlow::Delegate"* %91, %"class.std::__1::basic_string"* dereferenceable(24) %1, %"class.std::__1::basic_string"* nonnull dereferenceable(24) %6) #14
  br label %96

96:                                               ; preds = %89, %82, %72
  %97 = bitcast %"class.std::__1::basic_string"* %6 to %"struct.std::__1::basic_string<char, std::__1::char_traits<char>, std::__1::allocator<char> >::__short"*
  %98 = getelementptr inbounds %"struct.std::__1::basic_string<char, std::__1::char_traits<char>, std::__1::allocator<char> >::__short", %"struct.std::__1::basic_string<char, std::__1::char_traits<char>, std::__1::allocator<char> >::__short"* %97, i64 0, i32 1, i32 0
  %99 = load i8, i8* %98, align 1
  %100 = icmp slt i8 %99, 0
  br i1 %100, label %101, label %103

101:                                              ; preds = %96
  %102 = load i8*, i8** %70, align 8
  call void @_ZdlPv(i8* %102) #15
  br label %103

103:                                              ; preds = %96, %101
  call void @llvm.lifetime.end.p0i8(i64 24, i8* nonnull %69) #14
  call void @llvm.lifetime.end.p0i8(i64 1, i8* nonnull %5) #14
  br label %104

104:                                              ; preds = %57, %44, %62, %3, %10, %103
  ret void
}

declare dereferenceable(8) %"class.base::CallbackListSubscription"* @_ZN4base24CallbackListSubscriptionaSEOS0_(%"class.base::CallbackListSubscription"*, %"class.base::CallbackListSubscription"* dereferenceable(8)) local_unnamed_addr #4

; Function Attrs: nounwind ssp uwtable
define linkonce_odr hidden void @_ZN4base17ScopedObservationIN6signin15IdentityManagerENS2_8ObserverEXadL_ZNS2_11AddObserverEPS3_EEXadL_ZNS2_14RemoveObserverES4_EEE7ObserveEPS2_(%"class.base::ScopedObservation"*, %"class.signin::IdentityManager"*) local_unnamed_addr #3 comdat align 2 {
  %3 = alloca %"class.logging::CheckOpResult", align 8
  %4 = alloca %"class.logging::CheckOpResult", align 8
  %5 = alloca %"class.logging::CheckError", align 8
  %6 = bitcast %"class.logging::CheckOpResult"* %4 to i8*
  call void @llvm.lifetime.start.p0i8(i64 8, i8* nonnull %6) #14
  %7 = getelementptr inbounds %"class.logging::CheckOpResult", %"class.logging::CheckOpResult"* %4, i64 0, i32 0
  store i8* inttoptr (i64 -6148914691236517206 to i8*), i8** %7, align 8
  %8 = getelementptr inbounds %"class.base::ScopedObservation", %"class.base::ScopedObservation"* %0, i64 0, i32 1
  %9 = bitcast %"class.logging::CheckOpResult"* %3 to i8*
  call void @llvm.lifetime.start.p0i8(i64 8, i8* nonnull %9)
  %10 = load %"class.signin::IdentityManager"*, %"class.signin::IdentityManager"** %8, align 8
  %11 = icmp eq %"class.signin::IdentityManager"* %10, null
  br i1 %11, label %12, label %13

12:                                               ; preds = %2
  call void @llvm.lifetime.end.p0i8(i64 8, i8* nonnull %9)
  store i8* null, i8** %7, align 8
  br label %23

13:                                               ; preds = %2
  %14 = bitcast %"class.signin::IdentityManager"** %8 to i8*
  %15 = tail call i8* @_ZN7logging14StreamValToStrEPKvPFvRNSt3__113basic_ostreamIcNS2_11char_traitsIcEEEES1_E(i8* %14, void (%"class.std::__1::basic_ostream"*, i8*)* nonnull @_ZZN7logging15CheckOpValueStrIPN6signin15IdentityManagerEEENSt3__19enable_ifIXaasr4base8internal23SupportsOstreamOperatorIRKT_EE5valuentsr3std11is_functionINS4_14remove_pointerIS6_E4typeEEE5valueEPcE4typeES8_ENUlRNS4_13basic_ostreamIcNS4_11char_traitsIcEEEEPKvE_8__invokeESJ_SL_) #14
  %16 = tail call i8* @_ZN7logging15CheckOpValueStrEDn(i8* null) #14
  call void @_ZN7logging13CheckOpResultC1EPKcPcS3_(%"class.logging::CheckOpResult"* nonnull %3, i8* getelementptr inbounds ([19 x i8], [19 x i8]* @.str.2, i64 0, i64 0), i8* %15, i8* %16) #14
  %17 = getelementptr inbounds %"class.logging::CheckOpResult", %"class.logging::CheckOpResult"* %3, i64 0, i32 0
  %18 = load i8*, i8** %17, align 8
  call void @llvm.lifetime.end.p0i8(i64 8, i8* nonnull %9)
  store i8* %18, i8** %7, align 8
  %19 = icmp eq i8* %18, null
  br i1 %19, label %23, label %20

20:                                               ; preds = %13
  %21 = bitcast %"class.logging::CheckError"* %5 to i8*
  call void @llvm.lifetime.start.p0i8(i64 8, i8* nonnull %21) #14
  call void @_ZN7logging10CheckError7CheckOpEPKciPNS_13CheckOpResultE(%"class.logging::CheckError"* nonnull sret %5, i8* getelementptr inbounds ([32 x i8], [32 x i8]* @.str.3, i64 0, i64 0), i32 61, %"class.logging::CheckOpResult"* nonnull %4) #14
  %22 = call dereferenceable(160) %"class.std::__1::basic_ostream"* @_ZN7logging10CheckError6streamEv(%"class.logging::CheckError"* nonnull %5) #14
  call void @_ZN7logging10CheckErrorD1Ev(%"class.logging::CheckError"* nonnull %5) #14
  call void @llvm.lifetime.end.p0i8(i64 8, i8* nonnull %21) #14
  br label %23

23:                                               ; preds = %12, %13, %20
  call void @llvm.lifetime.end.p0i8(i64 8, i8* nonnull %6) #14
  store %"class.signin::IdentityManager"* %1, %"class.signin::IdentityManager"** %8, align 8
  %24 = getelementptr inbounds %"class.base::ScopedObservation", %"class.base::ScopedObservation"* %0, i64 0, i32 0
  %25 = load %"class.signin::IdentityManager::Observer"*, %"class.signin::IdentityManager::Observer"** %24, align 8
  call void @_ZN6signin15IdentityManager11AddObserverEPNS0_8ObserverE(%"class.signin::IdentityManager"* %1, %"class.signin::IdentityManager::Observer"* %25) #14
  ret void
}

declare %"class.signin::IdentityManager"* @_ZN22IdentityManagerFactory13GetForProfileEP7Profile(%class.Profile*) local_unnamed_addr #4

; Function Attrs: nounwind
declare void @_ZN3net13CookieOptionsD1Ev(%"class.net::CookieOptions"*) unnamed_addr #5

declare zeroext i1 @_ZN4gaia33ParseOAuth2MintTokenConsentResultERKNSt3__112basic_stringIcNS0_11char_traitsIcEENS0_9allocatorIcEEEEPbPS6_(%"class.std::__1::basic_string"* dereferenceable(24), i8*, %"class.std::__1::basic_string"*) local_unnamed_addr #4

; Function Attrs: nounwind ssp uwtable
define hidden void @_ZN10extensions21GaiaRemoteConsentFlow17OnAuthFlowFailureENS_11WebAuthFlow7FailureE(%"class.extensions::GaiaRemoteConsentFlow"* nocapture readonly, i32) unnamed_addr #3 align 2 {
  %3 = icmp ult i32 %1, 3
  br i1 %3, label %4, label %8

4:                                                ; preds = %2
  %5 = sext i32 %1 to i64
  %6 = getelementptr inbounds [3 x i32], [3 x i32]* @switch.table._ZN10extensions21GaiaRemoteConsentFlow17OnAuthFlowFailureENS_11WebAuthFlow7FailureE, i64 0, i64 %5
  %7 = load i32, i32* %6, align 4
  br label %8

8:                                                ; preds = %4, %2
  %9 = phi i32 [ -1431655766, %2 ], [ %7, %4 ]
  tail call void @_ZN4base23UmaHistogramExactLinearEPKcii(i8* getelementptr inbounds ([46 x i8], [46 x i8]* @.str, i64 0, i64 0), i32 %9, i32 6) #14
  %10 = getelementptr inbounds %"class.extensions::GaiaRemoteConsentFlow", %"class.extensions::GaiaRemoteConsentFlow"* %0, i64 0, i32 3
  %11 = load %"class.extensions::GaiaRemoteConsentFlow::Delegate"*, %"class.extensions::GaiaRemoteConsentFlow::Delegate"** %10, align 8
  %12 = bitcast %"class.extensions::GaiaRemoteConsentFlow::Delegate"* %11 to void (%"class.extensions::GaiaRemoteConsentFlow::Delegate"*, i32)***
  %13 = load void (%"class.extensions::GaiaRemoteConsentFlow::Delegate"*, i32)**, void (%"class.extensions::GaiaRemoteConsentFlow::Delegate"*, i32)*** %12, align 8
  %14 = getelementptr inbounds void (%"class.extensions::GaiaRemoteConsentFlow::Delegate"*, i32)*, void (%"class.extensions::GaiaRemoteConsentFlow::Delegate"*, i32)** %13, i64 2
  %15 = load void (%"class.extensions::GaiaRemoteConsentFlow::Delegate"*, i32)*, void (%"class.extensions::GaiaRemoteConsentFlow::Delegate"*, i32)** %14, align 8
  tail call void %15(%"class.extensions::GaiaRemoteConsentFlow::Delegate"* %11, i32 %9) #14
  ret void
}

; Function Attrs: nounwind ssp uwtable
define hidden nonnull %class.GaiaAuthFetcher* @_ZN10extensions21GaiaRemoteConsentFlow33CreateGaiaAuthFetcherForPartitionEP16GaiaAuthConsumerRKN4gaia10GaiaSourceE(%"class.extensions::GaiaRemoteConsentFlow"* nocapture readonly, %class.GaiaAuthConsumer*, %"class.gaia::GaiaSource"* nocapture readonly dereferenceable(32)) unnamed_addr #3 align 2 {
  %4 = alloca %"class.gaia::GaiaSource", align 8
  %5 = getelementptr inbounds %"class.extensions::GaiaRemoteConsentFlow", %"class.extensions::GaiaRemoteConsentFlow"* %0, i64 0, i32 7, i32 0, i32 0, i32 0
  %6 = load %"class.extensions::WebAuthFlow"*, %"class.extensions::WebAuthFlow"** %5, align 8
  %7 = bitcast %"class.extensions::WebAuthFlow"* %6 to %"class.content::StoragePartition"* (%"class.extensions::WebAuthFlow"*)***
  %8 = load %"class.content::StoragePartition"* (%"class.extensions::WebAuthFlow"*)**, %"class.content::StoragePartition"* (%"class.extensions::WebAuthFlow"*)*** %7, align 8
  %9 = getelementptr inbounds %"class.content::StoragePartition"* (%"class.extensions::WebAuthFlow"*)*, %"class.content::StoragePartition"* (%"class.extensions::WebAuthFlow"*)** %8, i64 108
  %10 = load %"class.content::StoragePartition"* (%"class.extensions::WebAuthFlow"*)*, %"class.content::StoragePartition"* (%"class.extensions::WebAuthFlow"*)** %9, align 8
  %11 = tail call %"class.content::StoragePartition"* %10(%"class.extensions::WebAuthFlow"* %6) #14
  %12 = bitcast %"class.content::StoragePartition"* %11 to %"class.network::SharedURLLoaderFactory"* (%"class.content::StoragePartition"*)***
  %13 = load %"class.network::SharedURLLoaderFactory"* (%"class.content::StoragePartition"*)**, %"class.network::SharedURLLoaderFactory"* (%"class.content::StoragePartition"*)*** %12, align 8
  %14 = getelementptr inbounds %"class.network::SharedURLLoaderFactory"* (%"class.content::StoragePartition"*)*, %"class.network::SharedURLLoaderFactory"* (%"class.content::StoragePartition"*)** %13, i64 3
  %15 = load %"class.network::SharedURLLoaderFactory"* (%"class.content::StoragePartition"*)*, %"class.network::SharedURLLoaderFactory"* (%"class.content::StoragePartition"*)** %14, align 8
  %16 = tail call %"class.network::SharedURLLoaderFactory"* %15(%"class.content::StoragePartition"* %11) #14
  %17 = bitcast %"class.gaia::GaiaSource"* %4 to i8*
  call void @llvm.lifetime.start.p0i8(i64 32, i8* nonnull %17)
  %18 = tail call i8* @_Znwm(i64 1552) #15
  %19 = bitcast i8* %18 to %class.GaiaAuthFetcher*
  %20 = getelementptr inbounds %"class.gaia::GaiaSource", %"class.gaia::GaiaSource"* %4, i64 0, i32 0
  %21 = getelementptr inbounds %"class.gaia::GaiaSource", %"class.gaia::GaiaSource"* %2, i64 0, i32 0
  %22 = load i32, i32* %21, align 8
  store i32 %22, i32* %20, align 8
  %23 = getelementptr inbounds %"class.gaia::GaiaSource", %"class.gaia::GaiaSource"* %4, i64 0, i32 1
  %24 = getelementptr inbounds %"class.gaia::GaiaSource", %"class.gaia::GaiaSource"* %2, i64 0, i32 1
  %25 = bitcast %"class.std::__1::basic_string"* %24 to %"struct.std::__1::basic_string<char, std::__1::char_traits<char>, std::__1::allocator<char> >::__short"*
  %26 = getelementptr inbounds %"struct.std::__1::basic_string<char, std::__1::char_traits<char>, std::__1::allocator<char> >::__short", %"struct.std::__1::basic_string<char, std::__1::char_traits<char>, std::__1::allocator<char> >::__short"* %25, i64 0, i32 1, i32 0
  %27 = load i8, i8* %26, align 1
  %28 = icmp slt i8 %27, 0
  br i1 %28, label %32, label %29

29:                                               ; preds = %3
  %30 = bitcast %"class.std::__1::basic_string"* %23 to i8*
  %31 = bitcast %"class.std::__1::basic_string"* %24 to i8*
  call void @llvm.memcpy.p0i8.p0i8.i64(i8* align 8 %30, i8* align 8 %31, i64 24, i1 false) #14
  br label %37

32:                                               ; preds = %3
  %33 = getelementptr inbounds %"class.std::__1::basic_string", %"class.std::__1::basic_string"* %24, i64 0, i32 0, i32 0, i32 0, i32 0, i32 0, i32 0
  %34 = load i8*, i8** %33, align 8
  %35 = getelementptr inbounds %"class.gaia::GaiaSource", %"class.gaia::GaiaSource"* %2, i64 0, i32 1, i32 0, i32 0, i32 0, i32 0, i32 0, i32 1
  %36 = load i64, i64* %35, align 8
  call void @_ZNSt3__112basic_stringIcNS_11char_traitsIcEENS_9allocatorIcEEE25__init_copy_ctor_externalEPKcm(%"class.std::__1::basic_string"* %23, i8* %34, i64 %36) #14
  br label %37

37:                                               ; preds = %32, %29
  call void @_ZN15GaiaAuthFetcherC1EP16GaiaAuthConsumerN4gaia10GaiaSourceE13scoped_refptrIN7network22SharedURLLoaderFactoryEE(%class.GaiaAuthFetcher* nonnull %19, %class.GaiaAuthConsumer* %1, %"class.gaia::GaiaSource"* nonnull %4, %"class.network::SharedURLLoaderFactory"* %16) #14
  %38 = bitcast %"class.std::__1::basic_string"* %23 to %"struct.std::__1::basic_string<char, std::__1::char_traits<char>, std::__1::allocator<char> >::__short"*
  %39 = getelementptr inbounds %"struct.std::__1::basic_string<char, std::__1::char_traits<char>, std::__1::allocator<char> >::__short", %"struct.std::__1::basic_string<char, std::__1::char_traits<char>, std::__1::allocator<char> >::__short"* %38, i64 0, i32 1, i32 0
  %40 = load i8, i8* %39, align 1
  %41 = icmp slt i8 %40, 0
  br i1 %41, label %42, label %45

42:                                               ; preds = %37
  %43 = getelementptr inbounds %"class.std::__1::basic_string", %"class.std::__1::basic_string"* %23, i64 0, i32 0, i32 0, i32 0, i32 0, i32 0, i32 0
  %44 = load i8*, i8** %43, align 8
  call void @_ZdlPv(i8* %44) #15
  br label %45

45:                                               ; preds = %42, %37
  call void @llvm.lifetime.end.p0i8(i64 32, i8* nonnull %17)
  ret %class.GaiaAuthFetcher* %19
}

; Function Attrs: nounwind ssp uwtable
define hidden nonnull %class.GaiaAuthFetcher* @_ZThn8_N10extensions21GaiaRemoteConsentFlow33CreateGaiaAuthFetcherForPartitionEP16GaiaAuthConsumerRKN4gaia10GaiaSourceE(%"class.extensions::GaiaRemoteConsentFlow"* nocapture readonly, %class.GaiaAuthConsumer*, %"class.gaia::GaiaSource"* nocapture readonly dereferenceable(32)) unnamed_addr #3 align 2 {
  %4 = getelementptr inbounds %"class.extensions::GaiaRemoteConsentFlow", %"class.extensions::GaiaRemoteConsentFlow"* %0, i64 -1, i32 11, i32 1
  %5 = bitcast %"class.signin::IdentityManager"** %4 to %"class.extensions::GaiaRemoteConsentFlow"*
  %6 = tail call %class.GaiaAuthFetcher* @_ZN10extensions21GaiaRemoteConsentFlow33CreateGaiaAuthFetcherForPartitionEP16GaiaAuthConsumerRKN4gaia10GaiaSourceE(%"class.extensions::GaiaRemoteConsentFlow"* %5, %class.GaiaAuthConsumer* %1, %"class.gaia::GaiaSource"* dereferenceable(32) %2)
  ret %class.GaiaAuthFetcher* %6
}

; Function Attrs: argmemonly nounwind
declare void @llvm.memcpy.p0i8.p0i8.i64(i8* nocapture writeonly, i8* nocapture readonly, i64, i1 immarg) #7

; Function Attrs: nounwind ssp uwtable
define hidden %"class.network::mojom::CookieManager"* @_ZN10extensions21GaiaRemoteConsentFlow28GetCookieManagerForPartitionEv(%"class.extensions::GaiaRemoteConsentFlow"* nocapture readonly) unnamed_addr #3 align 2 {
  %2 = getelementptr inbounds %"class.extensions::GaiaRemoteConsentFlow", %"class.extensions::GaiaRemoteConsentFlow"* %0, i64 0, i32 7, i32 0, i32 0, i32 0
  %3 = load %"class.extensions::WebAuthFlow"*, %"class.extensions::WebAuthFlow"** %2, align 8
  %4 = bitcast %"class.extensions::WebAuthFlow"* %3 to %"class.content::StoragePartition"* (%"class.extensions::WebAuthFlow"*)***
  %5 = load %"class.content::StoragePartition"* (%"class.extensions::WebAuthFlow"*)**, %"class.content::StoragePartition"* (%"class.extensions::WebAuthFlow"*)*** %4, align 8
  %6 = getelementptr inbounds %"class.content::StoragePartition"* (%"class.extensions::WebAuthFlow"*)*, %"class.content::StoragePartition"* (%"class.extensions::WebAuthFlow"*)** %5, i64 108
  %7 = load %"class.content::StoragePartition"* (%"class.extensions::WebAuthFlow"*)*, %"class.content::StoragePartition"* (%"class.extensions::WebAuthFlow"*)** %6, align 8
  %8 = tail call %"class.content::StoragePartition"* %7(%"class.extensions::WebAuthFlow"* %3) #14
  %9 = bitcast %"class.content::StoragePartition"* %8 to %"class.network::mojom::CookieManager"* (%"class.content::StoragePartition"*)***
  %10 = load %"class.network::mojom::CookieManager"* (%"class.content::StoragePartition"*)**, %"class.network::mojom::CookieManager"* (%"class.content::StoragePartition"*)*** %9, align 8
  %11 = getelementptr inbounds %"class.network::mojom::CookieManager"* (%"class.content::StoragePartition"*)*, %"class.network::mojom::CookieManager"* (%"class.content::StoragePartition"*)** %10, i64 6
  %12 = load %"class.network::mojom::CookieManager"* (%"class.content::StoragePartition"*)*, %"class.network::mojom::CookieManager"* (%"class.content::StoragePartition"*)** %11, align 8
  %13 = tail call %"class.network::mojom::CookieManager"* %12(%"class.content::StoragePartition"* %8) #14
  ret %"class.network::mojom::CookieManager"* %13
}

; Function Attrs: nounwind ssp uwtable
define hidden %"class.network::mojom::CookieManager"* @_ZThn8_N10extensions21GaiaRemoteConsentFlow28GetCookieManagerForPartitionEv(%"class.extensions::GaiaRemoteConsentFlow"* nocapture readonly) unnamed_addr #3 align 2 {
  %2 = getelementptr inbounds %"class.extensions::GaiaRemoteConsentFlow", %"class.extensions::GaiaRemoteConsentFlow"* %0, i64 -1, i32 11, i32 1
  %3 = getelementptr inbounds %"class.signin::IdentityManager"*, %"class.signin::IdentityManager"** %2, i64 26
  %4 = bitcast %"class.signin::IdentityManager"** %3 to %"class.extensions::WebAuthFlow"**
  %5 = load %"class.extensions::WebAuthFlow"*, %"class.extensions::WebAuthFlow"** %4, align 8
  %6 = bitcast %"class.extensions::WebAuthFlow"* %5 to %"class.content::StoragePartition"* (%"class.extensions::WebAuthFlow"*)***
  %7 = load %"class.content::StoragePartition"* (%"class.extensions::WebAuthFlow"*)**, %"class.content::StoragePartition"* (%"class.extensions::WebAuthFlow"*)*** %6, align 8
  %8 = getelementptr inbounds %"class.content::StoragePartition"* (%"class.extensions::WebAuthFlow"*)*, %"class.content::StoragePartition"* (%"class.extensions::WebAuthFlow"*)** %7, i64 108
  %9 = load %"class.content::StoragePartition"* (%"class.extensions::WebAuthFlow"*)*, %"class.content::StoragePartition"* (%"class.extensions::WebAuthFlow"*)** %8, align 8
  %10 = tail call %"class.content::StoragePartition"* %9(%"class.extensions::WebAuthFlow"* %5) #14
  %11 = bitcast %"class.content::StoragePartition"* %10 to %"class.network::mojom::CookieManager"* (%"class.content::StoragePartition"*)***
  %12 = load %"class.network::mojom::CookieManager"* (%"class.content::StoragePartition"*)**, %"class.network::mojom::CookieManager"* (%"class.content::StoragePartition"*)*** %11, align 8
  %13 = getelementptr inbounds %"class.network::mojom::CookieManager"* (%"class.content::StoragePartition"*)*, %"class.network::mojom::CookieManager"* (%"class.content::StoragePartition"*)** %12, i64 6
  %14 = load %"class.network::mojom::CookieManager"* (%"class.content::StoragePartition"*)*, %"class.network::mojom::CookieManager"* (%"class.content::StoragePartition"*)** %13, align 8
  %15 = tail call %"class.network::mojom::CookieManager"* %14(%"class.content::StoragePartition"* %10) #14
  ret %"class.network::mojom::CookieManager"* %15
}

; Function Attrs: norecurse nounwind readnone ssp uwtable
define hidden void @_ZN10extensions21GaiaRemoteConsentFlow36OnEndBatchOfRefreshTokenStateChangesEv(%"class.extensions::GaiaRemoteConsentFlow"* nocapture) unnamed_addr #0 align 2 {
  ret void
}

; Function Attrs: norecurse nounwind readnone ssp uwtable
define hidden void @_ZThn16_N10extensions21GaiaRemoteConsentFlow36OnEndBatchOfRefreshTokenStateChangesEv(%"class.extensions::GaiaRemoteConsentFlow"* nocapture) unnamed_addr #0 align 2 {
  ret void
}

; Function Attrs: nounwind ssp uwtable
define hidden void @_ZN10extensions21GaiaRemoteConsentFlow24SetWebAuthFlowForTestingENSt3__110unique_ptrINS_11WebAuthFlowENS1_14default_deleteIS3_EEEE(%"class.extensions::GaiaRemoteConsentFlow"* nocapture, %"class.extensions::WebAuthFlow"*) local_unnamed_addr #3 align 2 {
  %3 = ptrtoint %"class.extensions::WebAuthFlow"* %1 to i64
  %4 = getelementptr inbounds %"class.extensions::GaiaRemoteConsentFlow", %"class.extensions::GaiaRemoteConsentFlow"* %0, i64 0, i32 7
  %5 = getelementptr inbounds %"class.std::__1::unique_ptr.48", %"class.std::__1::unique_ptr.48"* %4, i64 0, i32 0, i32 0, i32 0
  %6 = load %"class.extensions::WebAuthFlow"*, %"class.extensions::WebAuthFlow"** %5, align 8
  %7 = icmp eq %"class.extensions::WebAuthFlow"* %6, null
  br i1 %7, label %8, label %10

8:                                                ; preds = %2
  %9 = bitcast %"class.std::__1::unique_ptr.48"* %4 to i64*
  store i64 %3, i64* %9, align 8
  br label %19

10:                                               ; preds = %2
  store %"class.extensions::WebAuthFlow"* null, %"class.extensions::WebAuthFlow"** %5, align 8
  tail call void @_ZN10extensions11WebAuthFlow23DetachDelegateAndDeleteEv(%"class.extensions::WebAuthFlow"* nonnull %6) #14
  %11 = load %"class.extensions::WebAuthFlow"*, %"class.extensions::WebAuthFlow"** %5, align 8
  %12 = bitcast %"class.std::__1::unique_ptr.48"* %4 to i64*
  store i64 %3, i64* %12, align 8
  %13 = icmp eq %"class.extensions::WebAuthFlow"* %11, null
  br i1 %13, label %19, label %14

14:                                               ; preds = %10
  %15 = bitcast %"class.extensions::WebAuthFlow"* %11 to void (%"class.extensions::WebAuthFlow"*)***
  %16 = load void (%"class.extensions::WebAuthFlow"*)**, void (%"class.extensions::WebAuthFlow"*)*** %15, align 8
  %17 = getelementptr inbounds void (%"class.extensions::WebAuthFlow"*)*, void (%"class.extensions::WebAuthFlow"*)** %16, i64 8
  %18 = load void (%"class.extensions::WebAuthFlow"*)*, void (%"class.extensions::WebAuthFlow"*)** %17, align 8
  tail call void %18(%"class.extensions::WebAuthFlow"* nonnull %11) #14
  br label %19

19:                                               ; preds = %14, %10, %8
  ret void
}

declare zeroext i1 @_ZN10extensions11IdentityAPI39AreExtensionsRestrictedToPrimaryAccountEv(%"class.extensions::IdentityAPI"*) local_unnamed_addr #4

declare void @_ZNK6signin15IdentityManager19GetPrimaryAccountIdENS_12ConsentLevelE(%struct.CoreAccountId* sret, %"class.signin::IdentityManager"*, i32) local_unnamed_addr #4

declare void @_ZNK6signin15IdentityManager28GetAccountsWithRefreshTokensEv(%"class.std::__1::vector.509"* sret, %"class.signin::IdentityManager"*) local_unnamed_addr #4

declare zeroext i1 @_ZNK6signin15IdentityManager48HasAccountWithRefreshTokenInPersistentErrorStateERK13CoreAccountId(%"class.signin::IdentityManager"*, %struct.CoreAccountId* dereferenceable(24)) local_unnamed_addr #4

declare %"class.signin::AccountsCookieMutator"* @_ZN6signin15IdentityManager24GetAccountsCookieMutatorEv(%"class.signin::IdentityManager"*) local_unnamed_addr #4

declare void @_ZN6signin20MultiloginParametersC1EN4gaia14MultiloginModeERKNSt3__16vectorI13CoreAccountIdNS3_9allocatorIS5_EEEE(%"struct.signin::MultiloginParameters"*, i32, %"class.std::__1::vector.502"* dereferenceable(24)) unnamed_addr #4

declare void @_ZN4gaia10GaiaSourceC1ENS0_4TypeE(%"class.gaia::GaiaSource"*, i32) unnamed_addr #4

; Function Attrs: nounwind
declare void @_ZN4base8internal12CallbackBaseD2Ev(%"class.base::internal::CallbackBase"*) unnamed_addr #5

; Function Attrs: nounwind
declare void @_ZN6signin20MultiloginParametersD1Ev(%"struct.signin::MultiloginParameters"*) unnamed_addr #5

declare void @__cxa_pure_virtual() unnamed_addr

; Function Attrs: nounwind ssp uwtable
define linkonce_odr hidden void @_ZN10extensions11WebAuthFlow8Delegate19OnAuthFlowURLChangeERK4GURL(%"class.extensions::WebAuthFlow::Delegate"*, %class.GURL* dereferenceable(120)) unnamed_addr #3 comdat align 2 {
  ret void
}

; Function Attrs: nounwind ssp uwtable
define linkonce_odr hidden void @_ZN10extensions11WebAuthFlow8Delegate21OnAuthFlowTitleChangeERKNSt3__112basic_stringIcNS2_11char_traitsIcEENS2_9allocatorIcEEEE(%"class.extensions::WebAuthFlow::Delegate"*, %"class.std::__1::basic_string"* dereferenceable(24)) unnamed_addr #3 comdat align 2 {
  ret void
}

; Function Attrs: nounwind ssp uwtable
define linkonce_odr hidden void @_ZN6signin15IdentityManager8Observer23OnPrimaryAccountChangedERKNS_25PrimaryAccountChangeEventE(%"class.signin::IdentityManager::Observer"*, %"class.signin::PrimaryAccountChangeEvent"* dereferenceable(176)) unnamed_addr #3 comdat align 2 {
  ret void
}

; Function Attrs: nounwind ssp uwtable
define linkonce_odr hidden void @_ZN6signin15IdentityManager8Observer31OnRefreshTokenUpdatedForAccountERK15CoreAccountInfo(%"class.signin::IdentityManager::Observer"*, %struct.CoreAccountInfo* dereferenceable(80)) unnamed_addr #3 comdat align 2 {
  ret void
}

; Function Attrs: nounwind ssp uwtable
define linkonce_odr hidden void @_ZN6signin15IdentityManager8Observer31OnRefreshTokenRemovedForAccountERK13CoreAccountId(%"class.signin::IdentityManager::Observer"*, %struct.CoreAccountId* dereferenceable(24)) unnamed_addr #3 comdat align 2 {
  ret void
}

; Function Attrs: nounwind ssp uwtable
define linkonce_odr hidden void @_ZN6signin15IdentityManager8Observer43OnErrorStateOfRefreshTokenUpdatedForAccountERK15CoreAccountInfoRK22GoogleServiceAuthError(%"class.signin::IdentityManager::Observer"*, %struct.CoreAccountInfo* dereferenceable(80), %class.GoogleServiceAuthError* dereferenceable(40)) unnamed_addr #3 comdat align 2 {
  ret void
}

; Function Attrs: nounwind ssp uwtable
define linkonce_odr hidden void @_ZN6signin15IdentityManager8Observer21OnRefreshTokensLoadedEv(%"class.signin::IdentityManager::Observer"*) unnamed_addr #3 comdat align 2 {
  ret void
}

; Function Attrs: nounwind ssp uwtable
define linkonce_odr hidden void @_ZN6signin15IdentityManager8Observer25OnAccountsInCookieUpdatedERKNS_23AccountsInCookieJarInfoERK22GoogleServiceAuthError(%"class.signin::IdentityManager::Observer"*, %"struct.signin::AccountsInCookieJarInfo"*, %class.GoogleServiceAuthError* dereferenceable(40)) unnamed_addr #3 comdat align 2 {
  ret void
}

; Function Attrs: nounwind ssp uwtable
define linkonce_odr hidden void @_ZN6signin15IdentityManager8Observer35OnAccountsCookieDeletedByUserActionEv(%"class.signin::IdentityManager::Observer"*) unnamed_addr #3 comdat align 2 {
  ret void
}

; Function Attrs: nounwind ssp uwtable
define linkonce_odr hidden void @_ZN6signin15IdentityManager8Observer28OnExtendedAccountInfoUpdatedERK11AccountInfo(%"class.signin::IdentityManager::Observer"*, %struct.AccountInfo* dereferenceable(240)) unnamed_addr #3 comdat align 2 {
  ret void
}

; Function Attrs: nounwind ssp uwtable
define linkonce_odr hidden void @_ZN6signin15IdentityManager8Observer28OnExtendedAccountInfoRemovedERK11AccountInfo(%"class.signin::IdentityManager::Observer"*, %struct.AccountInfo* dereferenceable(240)) unnamed_addr #3 comdat align 2 {
  ret void
}

; Function Attrs: nounwind ssp uwtable
define linkonce_odr hidden void @_ZN6signin15IdentityManager8Observer25OnIdentityManagerShutdownEPS0_(%"class.signin::IdentityManager::Observer"*, %"class.signin::IdentityManager"*) unnamed_addr #3 comdat align 2 {
  ret void
}

declare void @_ZN4base23UmaHistogramExactLinearEPKcii(i8*, i32, i32) local_unnamed_addr #4

; Function Attrs: noreturn
declare void @_ZNKSt3__121__basic_string_commonILb1EE20__throw_length_errorEv(%"class.std::__1::__basic_string_common"*) local_unnamed_addr #8

; Function Attrs: nobuiltin nofree
declare noalias nonnull i8* @_Znwm(i64) local_unnamed_addr #9

; Function Attrs: argmemonly nofree nounwind readonly
declare i64 @strlen(i8* nocapture) local_unnamed_addr #10

declare void @_ZN6signin15IdentityManager14RemoveObserverEPNS0_8ObserverE(%"class.signin::IdentityManager"*, %"class.signin::IdentityManager::Observer"*) local_unnamed_addr #4

declare void @_ZN10extensions11WebAuthFlowC1EPNS0_8DelegateEP7ProfileRK4GURLNS0_4ModeENS0_9PartitionE(%"class.extensions::WebAuthFlow"*, %"class.extensions::WebAuthFlow::Delegate"*, %class.Profile*, %class.GURL* dereferenceable(120), i32, i32) unnamed_addr #4

declare %class.KeyedService* @_ZN33BrowserContextKeyedServiceFactory27GetServiceForBrowserContextEPN7content14BrowserContextEb(%class.BrowserContextKeyedServiceFactory*, %"class.content::BrowserContext"*, i1 zeroext) local_unnamed_addr #4

; Function Attrs: nounwind ssp uwtable
define linkonce_odr hidden void @_ZN4base8internal7InvokerINS0_9BindStateIMN10extensions21GaiaRemoteConsentFlowEFvRKNSt3__112basic_stringIcNS5_11char_traitsIcEENS5_9allocatorIcEEEESD_EJNS0_17UnretainedWrapperIS4_EEEEEFvSD_SD_EE3RunEPNS0_13BindStateBaseESD_SD_(%"class.base::internal::BindStateBase"*, %"class.std::__1::basic_string"* dereferenceable(24), %"class.std::__1::basic_string"* dereferenceable(24)) #3 comdat align 2 {
  %4 = getelementptr inbounds %"class.base::internal::BindStateBase", %"class.base::internal::BindStateBase"* %0, i64 1
  %5 = getelementptr inbounds %"class.base::internal::BindStateBase", %"class.base::internal::BindStateBase"* %0, i64 1, i32 2
  %6 = bitcast void (%"class.base::internal::BindStateBase"*)** %5 to i8**
  %7 = load i8*, i8** %6, align 8
  %8 = bitcast %"class.base::internal::BindStateBase"* %4 to i64*
  %9 = load i64, i64* %8, align 8
  %10 = getelementptr inbounds %"class.base::internal::BindStateBase", %"class.base::internal::BindStateBase"* %0, i64 1, i32 1
  %11 = bitcast void ()** %10 to i64*
  %12 = load i64, i64* %11, align 8
  %13 = getelementptr inbounds i8, i8* %7, i64 %12
  %14 = bitcast i8* %13 to %"class.extensions::GaiaRemoteConsentFlow"*
  %15 = and i64 %9, 1
  %16 = icmp eq i64 %15, 0
  br i1 %16, label %24, label %17

17:                                               ; preds = %3
  %18 = bitcast i8* %13 to i8**
  %19 = load i8*, i8** %18, align 8
  %20 = add i64 %9, -1
  %21 = getelementptr i8, i8* %19, i64 %20
  %22 = bitcast i8* %21 to void (%"class.extensions::GaiaRemoteConsentFlow"*, %"class.std::__1::basic_string"*, %"class.std::__1::basic_string"*)**
  %23 = load void (%"class.extensions::GaiaRemoteConsentFlow"*, %"class.std::__1::basic_string"*, %"class.std::__1::basic_string"*)*, void (%"class.extensions::GaiaRemoteConsentFlow"*, %"class.std::__1::basic_string"*, %"class.std::__1::basic_string"*)** %22, align 8
  br label %26

24:                                               ; preds = %3
  %25 = inttoptr i64 %9 to void (%"class.extensions::GaiaRemoteConsentFlow"*, %"class.std::__1::basic_string"*, %"class.std::__1::basic_string"*)*
  br label %26

26:                                               ; preds = %17, %24
  %27 = phi void (%"class.extensions::GaiaRemoteConsentFlow"*, %"class.std::__1::basic_string"*, %"class.std::__1::basic_string"*)* [ %23, %17 ], [ %25, %24 ]
  tail call void %27(%"class.extensions::GaiaRemoteConsentFlow"* %14, %"class.std::__1::basic_string"* dereferenceable(24) %1, %"class.std::__1::basic_string"* dereferenceable(24) %2) #14
  ret void
}

; Function Attrs: nounwind ssp uwtable
define linkonce_odr hidden void @_ZN4base8internal9BindStateIMN10extensions21GaiaRemoteConsentFlowEFvRKNSt3__112basic_stringIcNS4_11char_traitsIcEENS4_9allocatorIcEEEESC_EJNS0_17UnretainedWrapperIS3_EEEE7DestroyEPKNS0_13BindStateBaseE(%"class.base::internal::BindStateBase"*) #3 comdat align 2 {
  %2 = icmp eq %"class.base::internal::BindStateBase"* %0, null
  br i1 %2, label %5, label %3

3:                                                ; preds = %1
  %4 = bitcast %"class.base::internal::BindStateBase"* %0 to i8*
  tail call void @_ZdlPv(i8* %4) #15
  br label %5

5:                                                ; preds = %3, %1
  ret void
}

declare void @_ZN4base8internal13BindStateBaseC2EPFvvEPFvPKS1_E(%"class.base::internal::BindStateBase"*, void ()*, void (%"class.base::internal::BindStateBase"*)*) unnamed_addr #4

declare void @_ZN7logging10CheckError7CheckOpEPKciPNS_13CheckOpResultE(%"class.logging::CheckError"* sret, i8*, i32, %"class.logging::CheckOpResult"*) local_unnamed_addr #4

declare dereferenceable(160) %"class.std::__1::basic_ostream"* @_ZN7logging10CheckError6streamEv(%"class.logging::CheckError"*) local_unnamed_addr #4

; Function Attrs: nounwind
declare void @_ZN7logging10CheckErrorD1Ev(%"class.logging::CheckError"*) unnamed_addr #5

declare void @_ZN6signin15IdentityManager11AddObserverEPNS0_8ObserverE(%"class.signin::IdentityManager"*, %"class.signin::IdentityManager::Observer"*) local_unnamed_addr #4

declare i8* @_ZN7logging15CheckOpValueStrEDn(i8*) local_unnamed_addr #4

declare void @_ZN7logging13CheckOpResultC1EPKcPcS3_(%"class.logging::CheckOpResult"*, i8*, i8*, i8*) unnamed_addr #4

declare i8* @_ZN7logging14StreamValToStrEPKvPFvRNSt3__113basic_ostreamIcNS2_11char_traitsIcEEEES1_E(i8*, void (%"class.std::__1::basic_ostream"*, i8*)*) local_unnamed_addr #4

; Function Attrs: inlinehint nounwind ssp uwtable
define linkonce_odr hidden void @_ZZN7logging15CheckOpValueStrIPN6signin15IdentityManagerEEENSt3__19enable_ifIXaasr4base8internal23SupportsOstreamOperatorIRKT_EE5valuentsr3std11is_functionINS4_14remove_pointerIS6_E4typeEEE5valueEPcE4typeES8_ENUlRNS4_13basic_ostreamIcNS4_11char_traitsIcEEEEPKvE_8__invokeESJ_SL_(%"class.std::__1::basic_ostream"* dereferenceable(160), i8*) #11 comdat align 2 {
  %3 = bitcast i8* %1 to i8**
  %4 = load i8*, i8** %3, align 8
  %5 = tail call dereferenceable(160) %"class.std::__1::basic_ostream"* @_ZNSt3__113basic_ostreamIcNS_11char_traitsIcEEElsEPKv(%"class.std::__1::basic_ostream"* %0, i8* %4) #14
  ret void
}

declare dereferenceable(160) %"class.std::__1::basic_ostream"* @_ZNSt3__113basic_ostreamIcNS_11char_traitsIcEEElsEPKv(%"class.std::__1::basic_ostream"*, i8*) local_unnamed_addr #4

declare void @_ZN15GaiaAuthFetcherC1EP16GaiaAuthConsumerN4gaia10GaiaSourceE13scoped_refptrIN7network22SharedURLLoaderFactoryEE(%class.GaiaAuthFetcher*, %class.GaiaAuthConsumer*, %"class.gaia::GaiaSource"*, %"class.network::SharedURLLoaderFactory"*) unnamed_addr #4

declare void @_ZNSt3__112basic_stringIcNS_11char_traitsIcEENS_9allocatorIcEEE25__init_copy_ctor_externalEPKcm(%"class.std::__1::basic_string"*, i8*, i64) local_unnamed_addr #4

; Function Attrs: inlinehint nounwind ssp uwtable
define linkonce_odr hidden void @_ZNSt3__16vectorI13CoreAccountIdNS_9allocatorIS1_EEE21__push_back_slow_pathIRKS1_EEvOT_(%"class.std::__1::vector.502"*, %struct.CoreAccountId* dereferenceable(24)) local_unnamed_addr #11 comdat align 2 {
  %3 = getelementptr inbounds %"class.std::__1::vector.502", %"class.std::__1::vector.502"* %0, i64 0, i32 0, i32 1
  %4 = bitcast %struct.CoreAccountId** %3 to i64*
  %5 = load i64, i64* %4, align 8
  %6 = bitcast %"class.std::__1::vector.502"* %0 to i64*
  %7 = load i64, i64* %6, align 8
  %8 = sub i64 %5, %7
  %9 = sdiv exact i64 %8, 24
  %10 = add nsw i64 %9, 1
  %11 = icmp ugt i64 %10, 768614336404564650
  br i1 %11, label %12, label %14

12:                                               ; preds = %2
  %13 = bitcast %"class.std::__1::vector.502"* %0 to %"class.std::__1::__vector_base_common"*
  tail call void @_ZNKSt3__120__vector_base_commonILb1EE20__throw_length_errorEv(%"class.std::__1::__vector_base_common"* %13) #13
  unreachable

14:                                               ; preds = %2
  %15 = getelementptr inbounds %"class.std::__1::vector.502", %"class.std::__1::vector.502"* %0, i64 0, i32 0, i32 2, i32 0, i32 0
  %16 = bitcast %struct.CoreAccountId** %15 to i64*
  %17 = load i64, i64* %16, align 8
  %18 = sub i64 %17, %7
  %19 = sdiv exact i64 %18, 24
  %20 = icmp ult i64 %19, 384307168202282325
  br i1 %20, label %21, label %26

21:                                               ; preds = %14
  %22 = shl nsw i64 %19, 1
  %23 = icmp ult i64 %22, %10
  %24 = select i1 %23, i64 %10, i64 %22
  %25 = icmp eq i64 %24, 0
  br i1 %25, label %31, label %26

26:                                               ; preds = %14, %21
  %27 = phi i64 [ %24, %21 ], [ 768614336404564650, %14 ]
  %28 = mul i64 %27, 24
  %29 = tail call i8* @_Znwm(i64 %28) #15
  %30 = bitcast i8* %29 to %struct.CoreAccountId*
  br label %31

31:                                               ; preds = %21, %26
  %32 = phi i64 [ %27, %26 ], [ 0, %21 ]
  %33 = phi %struct.CoreAccountId* [ %30, %26 ], [ null, %21 ]
  %34 = getelementptr inbounds %struct.CoreAccountId, %struct.CoreAccountId* %33, i64 %9
  %35 = getelementptr inbounds %struct.CoreAccountId, %struct.CoreAccountId* %33, i64 %32
  %36 = ptrtoint %struct.CoreAccountId* %35 to i64
  tail call void @_ZN13CoreAccountIdC1ERKS_(%struct.CoreAccountId* %34, %struct.CoreAccountId* dereferenceable(24) %1) #14
  %37 = getelementptr inbounds %struct.CoreAccountId, %struct.CoreAccountId* %34, i64 1
  %38 = ptrtoint %struct.CoreAccountId* %37 to i64
  %39 = getelementptr inbounds %"class.std::__1::vector.502", %"class.std::__1::vector.502"* %0, i64 0, i32 0, i32 0
  %40 = load %struct.CoreAccountId*, %struct.CoreAccountId** %39, align 8
  %41 = load %struct.CoreAccountId*, %struct.CoreAccountId** %3, align 8
  %42 = icmp eq %struct.CoreAccountId* %41, %40
  br i1 %42, label %43, label %45

43:                                               ; preds = %31
  %44 = ptrtoint %struct.CoreAccountId* %40 to i64
  br label %54

45:                                               ; preds = %31, %45
  %46 = phi %struct.CoreAccountId* [ %48, %45 ], [ %34, %31 ]
  %47 = phi %struct.CoreAccountId* [ %49, %45 ], [ %41, %31 ]
  %48 = getelementptr inbounds %struct.CoreAccountId, %struct.CoreAccountId* %46, i64 -1
  %49 = getelementptr inbounds %struct.CoreAccountId, %struct.CoreAccountId* %47, i64 -1
  tail call void @_ZN13CoreAccountIdC1EOS_(%struct.CoreAccountId* %48, %struct.CoreAccountId* dereferenceable(24) %49) #14
  %50 = icmp eq %struct.CoreAccountId* %49, %40
  br i1 %50, label %51, label %45

51:                                               ; preds = %45
  %52 = load i64, i64* %6, align 8
  %53 = load %struct.CoreAccountId*, %struct.CoreAccountId** %3, align 8
  br label %54

54:                                               ; preds = %43, %51
  %55 = phi %struct.CoreAccountId* [ %40, %43 ], [ %53, %51 ]
  %56 = phi %struct.CoreAccountId* [ %34, %43 ], [ %48, %51 ]
  %57 = phi i64 [ %44, %43 ], [ %52, %51 ]
  %58 = ptrtoint %struct.CoreAccountId* %56 to i64
  store i64 %58, i64* %6, align 8
  store i64 %38, i64* %4, align 8
  store i64 %36, i64* %16, align 8
  %59 = inttoptr i64 %57 to %struct.CoreAccountId*
  %60 = icmp eq %struct.CoreAccountId* %55, %59
  br i1 %60, label %65, label %61

61:                                               ; preds = %54, %61
  %62 = phi %struct.CoreAccountId* [ %63, %61 ], [ %55, %54 ]
  %63 = getelementptr inbounds %struct.CoreAccountId, %struct.CoreAccountId* %62, i64 -1
  tail call void @_ZN13CoreAccountIdD1Ev(%struct.CoreAccountId* %63) #14
  %64 = icmp eq %struct.CoreAccountId* %63, %59
  br i1 %64, label %65, label %61

65:                                               ; preds = %61, %54
  %66 = icmp eq i64 %57, 0
  br i1 %66, label %69, label %67

67:                                               ; preds = %65
  %68 = inttoptr i64 %57 to i8*
  tail call void @_ZdlPv(i8* %68) #15
  br label %69

69:                                               ; preds = %65, %67
  ret void
}

; Function Attrs: noreturn
declare void @_ZNKSt3__120__vector_base_commonILb1EE20__throw_length_errorEv(%"class.std::__1::__vector_base_common"*) local_unnamed_addr #8

; Function Attrs: nounwind
declare void @_ZN13CoreAccountIdC1EOS_(%struct.CoreAccountId*, %struct.CoreAccountId* dereferenceable(24)) unnamed_addr #5

; Function Attrs: nounwind
declare void @_ZN15CoreAccountInfoD1Ev(%struct.CoreAccountInfo*) unnamed_addr #5

; Function Attrs: nounwind ssp uwtable
define linkonce_odr hidden void @_ZN4base8internal7InvokerINS0_9BindStateIMN10extensions21GaiaRemoteConsentFlowEFvN6signin25SetAccountsInCookieResultEEJNS0_17UnretainedWrapperIS4_EEEEEFvS6_EE7RunOnceEPNS0_13BindStateBaseES6_(%"class.base::internal::BindStateBase"*, i32) #3 comdat align 2 {
  %3 = getelementptr inbounds %"class.base::internal::BindStateBase", %"class.base::internal::BindStateBase"* %0, i64 1
  %4 = getelementptr inbounds %"class.base::internal::BindStateBase", %"class.base::internal::BindStateBase"* %0, i64 1, i32 2
  %5 = bitcast void (%"class.base::internal::BindStateBase"*)** %4 to i8**
  %6 = load i8*, i8** %5, align 8
  %7 = bitcast %"class.base::internal::BindStateBase"* %3 to i64*
  %8 = load i64, i64* %7, align 8
  %9 = getelementptr inbounds %"class.base::internal::BindStateBase", %"class.base::internal::BindStateBase"* %0, i64 1, i32 1
  %10 = bitcast void ()** %9 to i64*
  %11 = load i64, i64* %10, align 8
  %12 = getelementptr inbounds i8, i8* %6, i64 %11
  %13 = bitcast i8* %12 to %"class.extensions::GaiaRemoteConsentFlow"*
  %14 = and i64 %8, 1
  %15 = icmp eq i64 %14, 0
  br i1 %15, label %23, label %16

16:                                               ; preds = %2
  %17 = bitcast i8* %12 to i8**
  %18 = load i8*, i8** %17, align 8
  %19 = add i64 %8, -1
  %20 = getelementptr i8, i8* %18, i64 %19
  %21 = bitcast i8* %20 to void (%"class.extensions::GaiaRemoteConsentFlow"*, i32)**
  %22 = load void (%"class.extensions::GaiaRemoteConsentFlow"*, i32)*, void (%"class.extensions::GaiaRemoteConsentFlow"*, i32)** %21, align 8
  br label %25

23:                                               ; preds = %2
  %24 = inttoptr i64 %8 to void (%"class.extensions::GaiaRemoteConsentFlow"*, i32)*
  br label %25

25:                                               ; preds = %16, %23
  %26 = phi void (%"class.extensions::GaiaRemoteConsentFlow"*, i32)* [ %22, %16 ], [ %24, %23 ]
  tail call void %26(%"class.extensions::GaiaRemoteConsentFlow"* %13, i32 %1) #14
  ret void
}

; Function Attrs: nounwind ssp uwtable
define linkonce_odr hidden void @_ZN4base8internal9BindStateIMN10extensions21GaiaRemoteConsentFlowEFvN6signin25SetAccountsInCookieResultEEJNS0_17UnretainedWrapperIS3_EEEE7DestroyEPKNS0_13BindStateBaseE(%"class.base::internal::BindStateBase"*) #3 comdat align 2 {
  %2 = icmp eq %"class.base::internal::BindStateBase"* %0, null
  br i1 %2, label %5, label %3

3:                                                ; preds = %1
  %4 = bitcast %"class.base::internal::BindStateBase"* %0 to i8*
  tail call void @_ZdlPv(i8* %4) #15
  br label %5

5:                                                ; preds = %3, %1
  ret void
}

; Function Attrs: nofree nounwind readonly
declare i32 @bcmp(i8* nocapture, i8* nocapture, i64) local_unnamed_addr #12

attributes #0 = { norecurse nounwind readnone ssp uwtable "correctly-rounded-divide-sqrt-fp-math"="false" "disable-tail-calls"="false" "less-precise-fpmad"="false" "min-legal-vector-width"="0" "no-frame-pointer-elim"="false" "no-frame-pointer-elim-non-leaf" "no-infs-fp-math"="false" "no-jump-tables"="false" "no-nans-fp-math"="false" "no-signed-zeros-fp-math"="false" "no-trapping-math"="false" "null-pointer-is-valid"="true" "stack-protector-buffer-size"="4" "target-cpu"="x86-64" "target-features"="+cx8,+fxsr,+mmx,+sse,+sse2,+sse3,+x87" "unsafe-fp-math"="false" "use-soft-float"="false" }
attributes #1 = { noreturn nounwind ssp uwtable "correctly-rounded-divide-sqrt-fp-math"="false" "disable-tail-calls"="false" "less-precise-fpmad"="false" "min-legal-vector-width"="0" "no-frame-pointer-elim"="false" "no-frame-pointer-elim-non-leaf" "no-infs-fp-math"="false" "no-jump-tables"="false" "no-nans-fp-math"="false" "no-signed-zeros-fp-math"="false" "no-trapping-math"="false" "null-pointer-is-valid"="true" "stack-protector-buffer-size"="4" "target-cpu"="x86-64" "target-features"="+cx8,+fxsr,+mmx,+sse,+sse2,+sse3,+x87" "unsafe-fp-math"="false" "use-soft-float"="false" }
attributes #2 = { cold noreturn nounwind }
attributes #3 = { nounwind ssp uwtable "correctly-rounded-divide-sqrt-fp-math"="false" "disable-tail-calls"="false" "less-precise-fpmad"="false" "min-legal-vector-width"="0" "no-frame-pointer-elim"="false" "no-frame-pointer-elim-non-leaf" "no-infs-fp-math"="false" "no-jump-tables"="false" "no-nans-fp-math"="false" "no-signed-zeros-fp-math"="false" "no-trapping-math"="false" "null-pointer-is-valid"="true" "stack-protector-buffer-size"="4" "target-cpu"="x86-64" "target-features"="+cx8,+fxsr,+mmx,+sse,+sse2,+sse3,+x87" "unsafe-fp-math"="false" "use-soft-float"="false" }
attributes #4 = { "correctly-rounded-divide-sqrt-fp-math"="false" "disable-tail-calls"="false" "less-precise-fpmad"="false" "no-frame-pointer-elim"="false" "no-frame-pointer-elim-non-leaf" "no-infs-fp-math"="false" "no-nans-fp-math"="false" "no-signed-zeros-fp-math"="false" "no-trapping-math"="false" "null-pointer-is-valid"="true" "stack-protector-buffer-size"="4" "target-cpu"="x86-64" "target-features"="+cx8,+fxsr,+mmx,+sse,+sse2,+sse3,+x87" "unsafe-fp-math"="false" "use-soft-float"="false" }
attributes #5 = { nounwind "correctly-rounded-divide-sqrt-fp-math"="false" "disable-tail-calls"="false" "less-precise-fpmad"="false" "no-frame-pointer-elim"="false" "no-frame-pointer-elim-non-leaf" "no-infs-fp-math"="false" "no-nans-fp-math"="false" "no-signed-zeros-fp-math"="false" "no-trapping-math"="false" "null-pointer-is-valid"="true" "stack-protector-buffer-size"="4" "target-cpu"="x86-64" "target-features"="+cx8,+fxsr,+mmx,+sse,+sse2,+sse3,+x87" "unsafe-fp-math"="false" "use-soft-float"="false" }
attributes #6 = { nobuiltin nounwind "correctly-rounded-divide-sqrt-fp-math"="false" "disable-tail-calls"="false" "less-precise-fpmad"="false" "no-frame-pointer-elim"="false" "no-frame-pointer-elim-non-leaf" "no-infs-fp-math"="false" "no-nans-fp-math"="false" "no-signed-zeros-fp-math"="false" "no-trapping-math"="false" "null-pointer-is-valid"="true" "stack-protector-buffer-size"="4" "target-cpu"="x86-64" "target-features"="+cx8,+fxsr,+mmx,+sse,+sse2,+sse3,+x87" "unsafe-fp-math"="false" "use-soft-float"="false" }
attributes #7 = { argmemonly nounwind }
attributes #8 = { noreturn "correctly-rounded-divide-sqrt-fp-math"="false" "disable-tail-calls"="false" "less-precise-fpmad"="false" "no-frame-pointer-elim"="false" "no-frame-pointer-elim-non-leaf" "no-infs-fp-math"="false" "no-nans-fp-math"="false" "no-signed-zeros-fp-math"="false" "no-trapping-math"="false" "null-pointer-is-valid"="true" "stack-protector-buffer-size"="4" "target-cpu"="x86-64" "target-features"="+cx8,+fxsr,+mmx,+sse,+sse2,+sse3,+x87" "unsafe-fp-math"="false" "use-soft-float"="false" }
attributes #9 = { nobuiltin nofree "correctly-rounded-divide-sqrt-fp-math"="false" "disable-tail-calls"="false" "less-precise-fpmad"="false" "no-frame-pointer-elim"="false" "no-frame-pointer-elim-non-leaf" "no-infs-fp-math"="false" "no-nans-fp-math"="false" "no-signed-zeros-fp-math"="false" "no-trapping-math"="false" "null-pointer-is-valid"="true" "stack-protector-buffer-size"="4" "target-cpu"="x86-64" "target-features"="+cx8,+fxsr,+mmx,+sse,+sse2,+sse3,+x87" "unsafe-fp-math"="false" "use-soft-float"="false" }
attributes #10 = { argmemonly nofree nounwind readonly "correctly-rounded-divide-sqrt-fp-math"="false" "disable-tail-calls"="false" "less-precise-fpmad"="false" "no-frame-pointer-elim"="false" "no-frame-pointer-elim-non-leaf" "no-infs-fp-math"="false" "no-nans-fp-math"="false" "no-signed-zeros-fp-math"="false" "no-trapping-math"="false" "null-pointer-is-valid"="true" "stack-protector-buffer-size"="4" "target-cpu"="x86-64" "target-features"="+cx8,+fxsr,+mmx,+sse,+sse2,+sse3,+x87" "unsafe-fp-math"="false" "use-soft-float"="false" }
attributes #11 = { inlinehint nounwind ssp uwtable "correctly-rounded-divide-sqrt-fp-math"="false" "disable-tail-calls"="false" "less-precise-fpmad"="false" "min-legal-vector-width"="0" "no-frame-pointer-elim"="false" "no-frame-pointer-elim-non-leaf" "no-infs-fp-math"="false" "no-jump-tables"="false" "no-nans-fp-math"="false" "no-signed-zeros-fp-math"="false" "no-trapping-math"="false" "null-pointer-is-valid"="true" "stack-protector-buffer-size"="4" "target-cpu"="x86-64" "target-features"="+cx8,+fxsr,+mmx,+sse,+sse2,+sse3,+x87" "unsafe-fp-math"="false" "use-soft-float"="false" }
attributes #12 = { nofree nounwind readonly }
attributes #13 = { noreturn nounwind }
attributes #14 = { nounwind }
attributes #15 = { builtin nounwind }

!llvm.module.flags = !{!0, !1}

!0 = !{i32 1, !"wchar_size", i32 4}
!1 = !{i32 7, !"PIC Level", i32 2}
!2 = !{!3, !5}
!3 = distinct !{!3, !4, !"_ZN4base8internal8BindImplINS_12OnceCallbackEMN10extensions21GaiaRemoteConsentFlowEFvN6signin25SetAccountsInCookieResultEEJNS0_17UnretainedWrapperIS4_EEEEEDcOT0_DpOT1_: argument 0"}
!4 = distinct !{!4, !"_ZN4base8internal8BindImplINS_12OnceCallbackEMN10extensions21GaiaRemoteConsentFlowEFvN6signin25SetAccountsInCookieResultEEJNS0_17UnretainedWrapperIS4_EEEEEDcOT0_DpOT1_"}
!5 = distinct !{!5, !6, !"_ZN4base8BindOnceIMN10extensions21GaiaRemoteConsentFlowEFvN6signin25SetAccountsInCookieResultEEJNS_8internal17UnretainedWrapperIS2_EEEEENS_12OnceCallbackINS7_14BindTypeHelperIT_JDpT0_EE14UnboundRunTypeEEEOSC_DpOSD_: argument 0"}
!6 = distinct !{!6, !"_ZN4base8BindOnceIMN10extensions21GaiaRemoteConsentFlowEFvN6signin25SetAccountsInCookieResultEEJNS_8internal17UnretainedWrapperIS2_EEEEENS_12OnceCallbackINS7_14BindTypeHelperIT_JDpT0_EE14UnboundRunTypeEEEOSC_DpOSD_"}
!7 = !{i8 0, i8 2}
!8 = !{!9, !11}
!9 = distinct !{!9, !10, !"_ZN4base8internal8BindImplINS_17RepeatingCallbackEMN10extensions21GaiaRemoteConsentFlowEFvRKNSt3__112basic_stringIcNS5_11char_traitsIcEENS5_9allocatorIcEEEESD_EJNS0_17UnretainedWrapperIS4_EEEEEDcOT0_DpOT1_: argument 0"}
!10 = distinct !{!10, !"_ZN4base8internal8BindImplINS_17RepeatingCallbackEMN10extensions21GaiaRemoteConsentFlowEFvRKNSt3__112basic_stringIcNS5_11char_traitsIcEENS5_9allocatorIcEEEESD_EJNS0_17UnretainedWrapperIS4_EEEEEDcOT0_DpOT1_"}
!11 = distinct !{!11, !12, !"_ZN4base13BindRepeatingIMN10extensions21GaiaRemoteConsentFlowEFvRKNSt3__112basic_stringIcNS3_11char_traitsIcEENS3_9allocatorIcEEEESB_EJNS_8internal17UnretainedWrapperIS2_EEEEENS_17RepeatingCallbackINSE_14BindTypeHelperIT_JDpT0_EE14UnboundRunTypeEEEOSJ_DpOSK_: argument 0"}
!12 = distinct !{!12, !"_ZN4base13BindRepeatingIMN10extensions21GaiaRemoteConsentFlowEFvRKNSt3__112basic_stringIcNS3_11char_traitsIcEENS3_9allocatorIcEEEESB_EJNS_8internal17UnretainedWrapperIS2_EEEEENS_17RepeatingCallbackINSE_14BindTypeHelperIT_JDpT0_EE14UnboundRunTypeEEEOSJ_DpOSK_"}
