; ModuleID = '../../device/gamepad/gamepad_platform_data_fetcher_linux.cc'
source_filename = "../../device/gamepad/gamepad_platform_data_fetcher_linux.cc"
target datalayout = "e-m:e-i64:64-f80:128-n8:16:32:64-S128"
target triple = "x86_64-unknown-linux-gnu"

module asm ".symver exp, exp@GLIBC_2.2.5"
module asm ".symver exp2, exp2@GLIBC_2.2.5"
module asm ".symver exp2f, exp2f@GLIBC_2.2.5"
module asm ".symver expf, expf@GLIBC_2.2.5"
module asm ".symver lgamma, lgamma@GLIBC_2.2.5"
module asm ".symver lgammaf, lgammaf@GLIBC_2.2.5"
module asm ".symver lgammal, lgammal@GLIBC_2.2.5"
module asm ".symver log, log@GLIBC_2.2.5"
module asm ".symver log2, log2@GLIBC_2.2.5"
module asm ".symver log2f, log2f@GLIBC_2.2.5"
module asm ".symver logf, logf@GLIBC_2.2.5"
module asm ".symver pow, pow@GLIBC_2.2.5"
module asm ".symver powf, powf@GLIBC_2.2.5"

%"struct.base::trace_event::TraceCategory" = type { i8, i32, i8* }
%"class.device::GamepadPlatformDataFetcherLinux::Factory" = type { %"class.device::GamepadDataFetcherFactory", %class.scoped_refptr }
%"class.device::GamepadDataFetcherFactory" = type { i32 (...)** }
%class.scoped_refptr = type { %"class.base::SequencedTaskRunner"* }
%"class.base::SequencedTaskRunner" = type { %"class.base::TaskRunner.base", [4 x i8] }
%"class.base::TaskRunner.base" = type <{ i32 (...)**, %"class.base::RefCountedThreadSafe" }>
%"class.base::RefCountedThreadSafe" = type { %"class.base::subtle::RefCountedThreadSafeBase" }
%"class.base::subtle::RefCountedThreadSafeBase" = type { %"class.base::AtomicRefCount" }
%"class.base::AtomicRefCount" = type { %"struct.std::__1::atomic" }
%"struct.std::__1::atomic" = type { %"struct.std::__1::__atomic_base" }
%"struct.std::__1::__atomic_base" = type { %"struct.std::__1::__atomic_base.0" }
%"struct.std::__1::__atomic_base.0" = type { %"struct.std::__1::__cxx_atomic_impl" }
%"struct.std::__1::__cxx_atomic_impl" = type { %"struct.std::__1::__cxx_atomic_base_impl" }
%"struct.std::__1::__cxx_atomic_base_impl" = type { i32 }
%"class.device::GamepadPlatformDataFetcherLinux" = type { %"class.device::GamepadDataFetcher", %"class.device::UdevWatcher::Observer", %"class.std::__1::unordered_set", %"class.std::__1::unique_ptr.28", %class.scoped_refptr, %"class.base::WeakPtrFactory.75" }
%"class.device::GamepadDataFetcher" = type { i32 (...)**, %"class.device::GamepadPadStateProvider"* }
%"class.device::GamepadPadStateProvider" = type { i32 (...)**, %"class.std::__1::unique_ptr.1" }
%"class.std::__1::unique_ptr.1" = type { %"class.std::__1::__compressed_pair.2" }
%"class.std::__1::__compressed_pair.2" = type { %"struct.std::__1::__compressed_pair_elem.3" }
%"struct.std::__1::__compressed_pair_elem.3" = type { %"struct.device::PadState"* }
%"struct.device::PadState" = type { i32, i32, i8, i8, i8, i8, %"class.device::Gamepad", void (%"class.device::Gamepad"*, %"class.device::Gamepad"*)*, i32, i32 }
%"class.device::Gamepad" = type <{ i8, i8, [128 x i16], [2 x i8], i64, i32, i32, [16 x double], i32, [32 x %"class.device::GamepadButton"], %"class.device::GamepadHapticActuator", i32, %"class.device::GamepadPose", i32, i32, i8, [3 x i8] }>
%"class.device::GamepadButton" = type <{ i8, i8, i8, i8, double }>
%"class.device::GamepadHapticActuator" = type { i8, i32 }
%"class.device::GamepadPose" = type { i8, i8, i8, %"class.device::GamepadQuaternion", %"class.device::GamepadVector", %"class.device::GamepadVector", %"class.device::GamepadVector", %"class.device::GamepadVector", %"class.device::GamepadVector" }
%"class.device::GamepadQuaternion" = type { i8, float, float, float, float }
%"class.device::GamepadVector" = type { i8, float, float, float }
%"class.device::UdevWatcher::Observer" = type { i32 (...)** }
%"class.std::__1::unordered_set" = type { %"class.std::__1::__hash_table" }
%"class.std::__1::__hash_table" = type <{ %"class.std::__1::unique_ptr.11", %"class.std::__1::__compressed_pair.18", %"class.std::__1::__compressed_pair.23", %"class.std::__1::__compressed_pair.25", [4 x i8] }>
%"class.std::__1::unique_ptr.11" = type { %"class.std::__1::__compressed_pair.12" }
%"class.std::__1::__compressed_pair.12" = type { %"struct.std::__1::__compressed_pair_elem.13", %"struct.std::__1::__compressed_pair_elem.14" }
%"struct.std::__1::__compressed_pair_elem.13" = type { %"struct.std::__1::__hash_node_base"** }
%"struct.std::__1::__hash_node_base" = type { %"struct.std::__1::__hash_node_base"* }
%"struct.std::__1::__compressed_pair_elem.14" = type { %"class.std::__1::__bucket_list_deallocator" }
%"class.std::__1::__bucket_list_deallocator" = type { %"class.std::__1::__compressed_pair.15" }
%"class.std::__1::__compressed_pair.15" = type { %"struct.std::__1::__compressed_pair_elem.16" }
%"struct.std::__1::__compressed_pair_elem.16" = type { i64 }
%"class.std::__1::__compressed_pair.18" = type { %"struct.std::__1::__compressed_pair_elem.19" }
%"struct.std::__1::__compressed_pair_elem.19" = type { %"struct.std::__1::__hash_node_base" }
%"class.std::__1::__compressed_pair.23" = type { %"struct.std::__1::__compressed_pair_elem.16" }
%"class.std::__1::__compressed_pair.25" = type { %"struct.std::__1::__compressed_pair_elem.26" }
%"struct.std::__1::__compressed_pair_elem.26" = type { float }
%"class.std::__1::unique_ptr.28" = type { %"class.std::__1::__compressed_pair.29" }
%"class.std::__1::__compressed_pair.29" = type { %"struct.std::__1::__compressed_pair_elem.30" }
%"struct.std::__1::__compressed_pair_elem.30" = type { %"class.device::UdevWatcher"* }
%"class.device::UdevWatcher" = type <{ %"class.std::__1::unique_ptr.31", %"class.std::__1::unique_ptr.35", %"class.device::UdevWatcher::Observer"*, %"class.std::__1::vector", %"class.std::__1::unique_ptr.50", %"class.base::SequenceCheckerDoNothing", [7 x i8] }>
%"class.std::__1::unique_ptr.31" = type { %"class.std::__1::__compressed_pair.32" }
%"class.std::__1::__compressed_pair.32" = type { %"struct.std::__1::__compressed_pair_elem.33" }
%"struct.std::__1::__compressed_pair_elem.33" = type { %struct.udev* }
%struct.udev = type opaque
%"class.std::__1::unique_ptr.35" = type { %"class.std::__1::__compressed_pair.36" }
%"class.std::__1::__compressed_pair.36" = type { %"struct.std::__1::__compressed_pair_elem.37" }
%"struct.std::__1::__compressed_pair_elem.37" = type { %struct.udev_monitor* }
%struct.udev_monitor = type opaque
%"class.std::__1::vector" = type { %"class.std::__1::__vector_base" }
%"class.std::__1::__vector_base" = type { %"class.device::UdevWatcher::Filter"*, %"class.device::UdevWatcher::Filter"*, %"class.std::__1::__compressed_pair.45" }
%"class.device::UdevWatcher::Filter" = type { %"class.absl::optional", %"class.absl::optional" }
%"class.absl::optional" = type { %"class.absl::optional_internal::optional_data" }
%"class.absl::optional_internal::optional_data" = type { %"class.absl::optional_internal::optional_data_base" }
%"class.absl::optional_internal::optional_data_base" = type { %"class.absl::optional_internal::optional_data_dtor_base" }
%"class.absl::optional_internal::optional_data_dtor_base" = type { i8, %union.anon }
%union.anon = type { %"class.std::__1::basic_string" }
%"class.std::__1::basic_string" = type { %"class.std::__1::__compressed_pair.39" }
%"class.std::__1::__compressed_pair.39" = type { %"struct.std::__1::__compressed_pair_elem.40" }
%"struct.std::__1::__compressed_pair_elem.40" = type { %"struct.std::__1::basic_string<char, std::__1::char_traits<char>, std::__1::allocator<char> >::__rep" }
%"struct.std::__1::basic_string<char, std::__1::char_traits<char>, std::__1::allocator<char> >::__rep" = type { %union.anon.41 }
%union.anon.41 = type { %"struct.std::__1::basic_string<char, std::__1::char_traits<char>, std::__1::allocator<char> >::__long" }
%"struct.std::__1::basic_string<char, std::__1::char_traits<char>, std::__1::allocator<char> >::__long" = type { i8*, i64, i64 }
%"class.std::__1::__compressed_pair.45" = type { %"struct.std::__1::__compressed_pair_elem.46" }
%"struct.std::__1::__compressed_pair_elem.46" = type { %"class.device::UdevWatcher::Filter"* }
%"class.std::__1::unique_ptr.50" = type { %"class.std::__1::__compressed_pair.51" }
%"class.std::__1::__compressed_pair.51" = type { %"struct.std::__1::__compressed_pair_elem.52" }
%"struct.std::__1::__compressed_pair_elem.52" = type { %"class.base::FileDescriptorWatcher::Controller"* }
%"class.base::FileDescriptorWatcher::Controller" = type { %"class.base::RepeatingCallback", %class.scoped_refptr.55, %"class.base::FileDescriptorWatcher::Controller::Watcher"*, %"class.base::WaitableEvent", %"class.base::SequenceCheckerDoNothing", %"class.base::WeakPtrFactory" }
%"class.base::RepeatingCallback" = type { %"class.base::internal::CallbackBaseCopyable" }
%"class.base::internal::CallbackBaseCopyable" = type { %"class.base::internal::CallbackBase" }
%"class.base::internal::CallbackBase" = type { %class.scoped_refptr.53 }
%class.scoped_refptr.53 = type { %"class.base::internal::BindStateBase"* }
%"class.base::internal::BindStateBase" = type { %"class.base::RefCountedThreadSafe.54", void ()*, void (%"class.base::internal::BindStateBase"*)*, i1 (%"class.base::internal::BindStateBase"*, i32)* }
%"class.base::RefCountedThreadSafe.54" = type { %"class.base::subtle::RefCountedThreadSafeBase" }
%class.scoped_refptr.55 = type { %"class.base::SingleThreadTaskRunner"* }
%"class.base::SingleThreadTaskRunner" = type { %"class.base::SequencedTaskRunner.base", [4 x i8] }
%"class.base::SequencedTaskRunner.base" = type { %"class.base::TaskRunner.base" }
%"class.base::FileDescriptorWatcher::Controller::Watcher" = type opaque
%"class.base::WaitableEvent" = type <{ %class.scoped_refptr.56, i8, [7 x i8] }>
%class.scoped_refptr.56 = type { %"struct.base::WaitableEvent::WaitableEventKernel"* }
%"struct.base::WaitableEvent::WaitableEventKernel" = type { %"class.base::RefCountedThreadSafe.57", %"class.base::Lock", i8, i8, %"class.std::__1::list" }
%"class.base::RefCountedThreadSafe.57" = type { %"class.base::subtle::RefCountedThreadSafeBase" }
%"class.base::Lock" = type { %"class.base::internal::LockImpl" }
%"class.base::internal::LockImpl" = type { %union.pthread_mutex_t }
%union.pthread_mutex_t = type { %struct.__pthread_mutex_s }
%struct.__pthread_mutex_s = type { i32, i32, i32, i32, i32, i16, i16, %struct.__pthread_internal_list }
%struct.__pthread_internal_list = type { %struct.__pthread_internal_list*, %struct.__pthread_internal_list* }
%"class.std::__1::list" = type { %"class.std::__1::__list_imp" }
%"class.std::__1::__list_imp" = type { %"struct.std::__1::__list_node_base", %"class.std::__1::__compressed_pair.58" }
%"struct.std::__1::__list_node_base" = type { %"struct.std::__1::__list_node_base"*, %"struct.std::__1::__list_node_base"* }
%"class.std::__1::__compressed_pair.58" = type { %"struct.std::__1::__compressed_pair_elem.16" }
%"class.base::WeakPtrFactory" = type { %"class.base::internal::WeakPtrFactoryBase" }
%"class.base::internal::WeakPtrFactoryBase" = type { %"class.base::internal::WeakReferenceOwner", i64 }
%"class.base::internal::WeakReferenceOwner" = type { %class.scoped_refptr.62 }
%class.scoped_refptr.62 = type { %"class.base::internal::WeakReference::Flag"* }
%"class.base::internal::WeakReference::Flag" = type <{ %"class.base::RefCountedThreadSafe.63", %"class.base::AtomicFlag", [3 x i8] }>
%"class.base::RefCountedThreadSafe.63" = type { %"class.base::subtle::RefCountedThreadSafeBase" }
%"class.base::AtomicFlag" = type { %"struct.std::__1::atomic.64" }
%"struct.std::__1::atomic.64" = type { %"struct.std::__1::__atomic_base.65" }
%"struct.std::__1::__atomic_base.65" = type { %"struct.std::__1::__atomic_base.66" }
%"struct.std::__1::__atomic_base.66" = type { %"struct.std::__1::__cxx_atomic_impl.67" }
%"struct.std::__1::__cxx_atomic_impl.67" = type { %"struct.std::__1::__cxx_atomic_base_impl.68" }
%"struct.std::__1::__cxx_atomic_base_impl.68" = type { i8 }
%"class.base::SequenceCheckerDoNothing" = type { i8 }
%"class.base::WeakPtrFactory.75" = type { %"class.base::internal::WeakPtrFactoryBase" }
%"class.base::TaskRunner" = type <{ i32 (...)**, %"class.base::RefCountedThreadSafe", [4 x i8] }>
%"class.device::GamepadDeviceLinux" = type { %"class.device::AbstractHapticGamepad", %"class.std::__1::basic_string", %"class.base::ScopedGeneric", i32, %"class.std::__1::vector.79", i32, i16, i16, i16, i16, %"class.std::__1::basic_string", %"class.base::ScopedGeneric", i32, i8, i8, %"class.std::__1::vector.84", %"class.base::ScopedGeneric", i32, %"class.std::__1::unique_ptr.91", %"class.std::__1::unique_ptr.97", %"class.std::__1::unique_ptr.103", %class.scoped_refptr, %class.scoped_refptr, %"class.base::WeakPtrFactory.109" }
%"class.device::AbstractHapticGamepad" = type { i32 (...)**, i8, i8, i32, %"class.base::OnceCallback", %class.scoped_refptr }
%"class.base::OnceCallback" = type { %"class.base::internal::CallbackBase" }
%"class.std::__1::vector.79" = type { i64*, i64, %"class.std::__1::__compressed_pair.80" }
%"class.std::__1::__compressed_pair.80" = type { %"struct.std::__1::__compressed_pair_elem.16" }
%"class.std::__1::vector.84" = type { %"class.std::__1::__vector_base.85" }
%"class.std::__1::__vector_base.85" = type { i32*, i32*, %"class.std::__1::__compressed_pair.86" }
%"class.std::__1::__compressed_pair.86" = type { %"struct.std::__1::__compressed_pair_elem.87" }
%"struct.std::__1::__compressed_pair_elem.87" = type { i32* }
%"class.base::ScopedGeneric" = type <{ i32 (...)**, %"struct.base::ScopedGeneric<int, base::internal::ScopedFDCloseTraits>::Data", i8, [3 x i8] }>
%"struct.base::ScopedGeneric<int, base::internal::ScopedFDCloseTraits>::Data" = type { i32 }
%"class.std::__1::unique_ptr.91" = type { %"class.std::__1::__compressed_pair.92" }
%"class.std::__1::__compressed_pair.92" = type { %"struct.std::__1::__compressed_pair_elem.93" }
%"struct.std::__1::__compressed_pair_elem.93" = type { %"class.device::Dualshock4Controller"* }
%"class.device::Dualshock4Controller" = type opaque
%"class.std::__1::unique_ptr.97" = type { %"class.std::__1::__compressed_pair.98" }
%"class.std::__1::__compressed_pair.98" = type { %"struct.std::__1::__compressed_pair_elem.99" }
%"struct.std::__1::__compressed_pair_elem.99" = type { %"class.device::XboxHidController"* }
%"class.device::XboxHidController" = type opaque
%"class.std::__1::unique_ptr.103" = type { %"class.std::__1::__compressed_pair.104" }
%"class.std::__1::__compressed_pair.104" = type { %"struct.std::__1::__compressed_pair_elem.105" }
%"struct.std::__1::__compressed_pair_elem.105" = type { %"class.device::HidHapticGamepad"* }
%"class.device::HidHapticGamepad" = type opaque
%"class.base::WeakPtrFactory.109" = type { %"class.base::internal::WeakPtrFactoryBase" }
%"struct.std::__1::__hash_node" = type { %"struct.std::__1::__hash_node_base", i64, %"class.std::__1::unique_ptr.110" }
%"class.std::__1::unique_ptr.110" = type { %"class.std::__1::__compressed_pair.111" }
%"class.std::__1::__compressed_pair.111" = type { %"struct.std::__1::__compressed_pair_elem.112" }
%"struct.std::__1::__compressed_pair_elem.112" = type { %"class.device::GamepadDeviceLinux"* }
%struct.udev_device = type opaque
%"class.device::UdevGamepadLinux" = type { i32, i32, %"class.std::__1::basic_string", %"class.std::__1::basic_string" }
%"struct.std::__1::basic_string<char, std::__1::char_traits<char>, std::__1::allocator<char> >::__short" = type { [23 x i8], %struct.anon }
%struct.anon = type { i8 }
%"class.base::TimeTicks" = type { %"class.base::time_internal::TimeBase" }
%"class.base::time_internal::TimeBase" = type { i64 }
%"class.base::trace_event::TraceArguments" = type { i8, [2 x i8], [2 x i8*], [2 x %"union.base::trace_event::TraceValue"] }
%"union.base::trace_event::TraceValue" = type { i64 }
%"class.std::__1::unique_ptr.150" = type { %"class.std::__1::__compressed_pair.151" }
%"class.std::__1::__compressed_pair.151" = type { %"struct.std::__1::__compressed_pair_elem.152", %"struct.std::__1::__compressed_pair_elem.153" }
%"struct.std::__1::__compressed_pair_elem.152" = type { %"struct.std::__1::__hash_node"* }
%"struct.std::__1::__compressed_pair_elem.153" = type { %"class.std::__1::__hash_node_destructor" }
%"class.std::__1::__hash_node_destructor" = type <{ %"class.std::__1::allocator.21"*, i8, [7 x i8] }>
%"class.std::__1::allocator.21" = type { i8 }
%"class.device::GamepadIdList" = type { i8 }
%"class.base::internal::WeakReference" = type { %class.scoped_refptr.127 }
%class.scoped_refptr.127 = type { %"class.base::internal::WeakReference::Flag"* }
%"class.base::OnceCallback.126" = type { %"class.base::internal::CallbackBase" }
%"class.base::WeakPtr" = type { %"class.base::internal::WeakPtrBase" }
%"class.base::internal::WeakPtrBase" = type { %"class.base::internal::WeakReference", i64 }
%"class.mojo::InlinedStructPtr" = type <{ %"class.device::mojom::GamepadEffectParameters", i32, [4 x i8] }>
%"class.device::mojom::GamepadEffectParameters" = type { double, double, double, double }
%"class.std::__1::allocator.48" = type { i8 }
%"class.std::__1::__vector_base_common" = type { i8 }
%"class.logging::CheckError" = type { %"class.logging::LogMessage"* }
%"class.logging::LogMessage" = type { i32 (...)**, i32, %"class.std::__1::basic_ostringstream", i64, i8*, i32, %"class.base::ScopedClearLastErrorBase" }
%"class.std::__1::basic_ostringstream" = type { %"class.std::__1::basic_ostream.base", %"class.std::__1::basic_stringbuf", %"class.std::__1::basic_ios.base" }
%"class.std::__1::basic_ostream.base" = type { i32 (...)** }
%"class.std::__1::basic_stringbuf" = type <{ %"class.std::__1::basic_streambuf", %"class.std::__1::basic_string", i8*, i32, [4 x i8] }>
%"class.std::__1::basic_streambuf" = type { i32 (...)**, %"class.std::__1::locale", i8*, i8*, i8*, i8*, i8*, i8* }
%"class.std::__1::locale" = type { %"class.std::__1::locale::__imp"* }
%"class.std::__1::locale::__imp" = type opaque
%"class.std::__1::basic_ios.base" = type <{ %"class.std::__1::ios_base", %"class.std::__1::basic_ostream"*, i32 }>
%"class.std::__1::ios_base" = type { i32 (...)**, i32, i64, i64, i32, i32, i8*, i8*, void (i32, %"class.std::__1::ios_base"*, i32)**, i32*, i64, i64, i64*, i64, i64, i8**, i64, i64 }
%"class.std::__1::basic_ostream" = type { i32 (...)**, %"class.std::__1::basic_ios.base" }
%"class.base::ScopedClearLastErrorBase" = type { i32 }

$_ZN6device18GamepadDataFetcher9PauseHintEb = comdat any

$_ZNSt3__16vectorIN6device11UdevWatcher6FilterENS_9allocatorIS3_EEE24__emplace_back_slow_pathIJRA_KcRA1_S8_EEEvDpOT_ = comdat any

$_ZNSt3__19allocatorIN6device11UdevWatcher6FilterEE9constructIS3_JRA_KcRA1_S6_EEEvPT_DpOT0_ = comdat any

$_ZNSt3__112__hash_tableINS_10unique_ptrIN6device18GamepadDeviceLinuxENS_14default_deleteIS3_EEEENS_4hashIS6_EENS_8equal_toIS6_EENS_9allocatorIS6_EEE6removeENS_21__hash_const_iteratorIPNS_11__hash_nodeIS6_PvEEEE = comdat any

$_ZNSt3__112__hash_tableINS_10unique_ptrIN6device18GamepadDeviceLinuxENS_14default_deleteIS3_EEEENS_4hashIS6_EENS_8equal_toIS6_EENS_9allocatorIS6_EEE25__emplace_unique_key_argsIS6_JS6_EEENS_4pairINS_15__hash_iteratorIPNS_11__hash_nodeIS6_PvEEEEbEERKT_DpOT0_ = comdat any

$_ZNSt3__112__hash_tableINS_10unique_ptrIN6device18GamepadDeviceLinuxENS_14default_deleteIS3_EEEENS_4hashIS6_EENS_8equal_toIS6_EENS_9allocatorIS6_EEE6rehashEm = comdat any

$_ZNSt3__112__hash_tableINS_10unique_ptrIN6device18GamepadDeviceLinuxENS_14default_deleteIS3_EEEENS_4hashIS6_EENS_8equal_toIS6_EENS_9allocatorIS6_EEE8__rehashEm = comdat any

$_ZN4base8internal7InvokerINS0_9BindStateIMN6device31GamepadPlatformDataFetcherLinuxEFvPNS3_18GamepadDeviceLinuxEEJNS_7WeakPtrIS4_EEEEEFvS6_EE7RunOnceEPNS0_13BindStateBaseES6_ = comdat any

$_ZN4base8internal9BindStateIMN6device31GamepadPlatformDataFetcherLinuxEFvPNS2_18GamepadDeviceLinuxEEJNS_7WeakPtrIS3_EEEE7DestroyEPKNS0_13BindStateBaseE = comdat any

$_ZN4base8internal23QueryCancellationTraitsINS0_9BindStateIMN6device31GamepadPlatformDataFetcherLinuxEFvPNS3_18GamepadDeviceLinuxEEJNS_7WeakPtrIS4_EEEEEEEbPKNS0_13BindStateBaseENSC_21CancellationQueryModeE = comdat any

@_ZTVN6device31GamepadPlatformDataFetcherLinux7FactoryE = hidden unnamed_addr constant { [6 x i8*] } { [6 x i8*] [i8* null, i8* null, i8* bitcast (void (%"class.device::GamepadPlatformDataFetcherLinux::Factory"*)* @_ZN6device31GamepadPlatformDataFetcherLinux7FactoryD2Ev to i8*), i8* bitcast (void (%"class.device::GamepadPlatformDataFetcherLinux::Factory"*)* @_ZN6device31GamepadPlatformDataFetcherLinux7FactoryD0Ev to i8*), i8* bitcast (%"class.device::GamepadDataFetcher"* (%"class.device::GamepadPlatformDataFetcherLinux::Factory"*)* @_ZN6device31GamepadPlatformDataFetcherLinux7Factory17CreateDataFetcherEv to i8*), i8* bitcast (i32 (%"class.device::GamepadPlatformDataFetcherLinux::Factory"*)* @_ZN6device31GamepadPlatformDataFetcherLinux7Factory6sourceEv to i8*)] }, align 8
@_ZTVN6device31GamepadPlatformDataFetcherLinuxE = hidden unnamed_addr constant { [14 x i8*], [7 x i8*] } { [14 x i8*] [i8* null, i8* null, i8* bitcast (void (%"class.device::GamepadPlatformDataFetcherLinux"*)* @_ZN6device31GamepadPlatformDataFetcherLinuxD2Ev to i8*), i8* bitcast (void (%"class.device::GamepadPlatformDataFetcherLinux"*)* @_ZN6device31GamepadPlatformDataFetcherLinuxD0Ev to i8*), i8* bitcast (void (%"class.device::GamepadPlatformDataFetcherLinux"*, i1)* @_ZN6device31GamepadPlatformDataFetcherLinux14GetGamepadDataEb to i8*), i8* bitcast (void (%"class.device::GamepadDataFetcher"*, i1)* @_ZN6device18GamepadDataFetcher9PauseHintEb to i8*), i8* bitcast (void (%"class.device::GamepadPlatformDataFetcherLinux"*, i32, i32, %"class.mojo::InlinedStructPtr"*, %"class.base::OnceCallback"*, %"class.base::SequencedTaskRunner"*)* @_ZN6device31GamepadPlatformDataFetcherLinux10PlayEffectEiNS_5mojom23GamepadHapticEffectTypeEN4mojo16InlinedStructPtrINS1_23GamepadEffectParametersEEEN4base12OnceCallbackIFvNS1_20GamepadHapticsResultEEEE13scoped_refptrINS7_19SequencedTaskRunnerEE to i8*), i8* bitcast (void (%"class.device::GamepadPlatformDataFetcherLinux"*, i32, %"class.base::OnceCallback"*, %"class.base::SequencedTaskRunner"*)* @_ZN6device31GamepadPlatformDataFetcherLinux14ResetVibrationEiN4base12OnceCallbackIFvNS_5mojom20GamepadHapticsResultEEEE13scoped_refptrINS1_19SequencedTaskRunnerEE to i8*), i8* bitcast (i32 (%"class.device::GamepadPlatformDataFetcherLinux"*)* @_ZN6device31GamepadPlatformDataFetcherLinux6sourceEv to i8*), i8* bitcast (i1 (%"class.device::GamepadPlatformDataFetcherLinux"*, i32)* @_ZN6device31GamepadPlatformDataFetcherLinux29DisconnectUnrecognizedGamepadEi to i8*), i8* bitcast (void (%"class.device::GamepadPlatformDataFetcherLinux"*)* @_ZN6device31GamepadPlatformDataFetcherLinux17OnAddedToProviderEv to i8*), i8* bitcast (void (%"class.device::GamepadPlatformDataFetcherLinux"*, %struct.udev_device*)* @_ZN6device31GamepadPlatformDataFetcherLinux13OnDeviceAddedENSt3__110unique_ptrI11udev_deviceNS_17UdevDeviceDeleterEEE to i8*), i8* bitcast (void (%"class.device::GamepadPlatformDataFetcherLinux"*, %struct.udev_device*)* @_ZN6device31GamepadPlatformDataFetcherLinux15OnDeviceRemovedENSt3__110unique_ptrI11udev_deviceNS_17UdevDeviceDeleterEEE to i8*), i8* bitcast (void (%"class.device::GamepadPlatformDataFetcherLinux"*, %struct.udev_device*)* @_ZN6device31GamepadPlatformDataFetcherLinux15OnDeviceChangedENSt3__110unique_ptrI11udev_deviceNS_17UdevDeviceDeleterEEE to i8*)], [7 x i8*] [i8* inttoptr (i64 -16 to i8*), i8* null, i8* bitcast (void (%"class.device::GamepadPlatformDataFetcherLinux"*, %struct.udev_device*)* @_ZThn16_N6device31GamepadPlatformDataFetcherLinux13OnDeviceAddedENSt3__110unique_ptrI11udev_deviceNS_17UdevDeviceDeleterEEE to i8*), i8* bitcast (void (%"class.device::GamepadPlatformDataFetcherLinux"*, %struct.udev_device*)* @_ZThn16_N6device31GamepadPlatformDataFetcherLinux15OnDeviceRemovedENSt3__110unique_ptrI11udev_deviceNS_17UdevDeviceDeleterEEE to i8*), i8* bitcast (void (%"class.device::GamepadPlatformDataFetcherLinux"*, %struct.udev_device*)* @_ZThn16_N6device31GamepadPlatformDataFetcherLinux15OnDeviceChangedENSt3__110unique_ptrI11udev_deviceNS_17UdevDeviceDeleterEEE to i8*), i8* bitcast (void (%"class.device::GamepadPlatformDataFetcherLinux"*)* @_ZThn16_N6device31GamepadPlatformDataFetcherLinuxD1Ev to i8*), i8* bitcast (void (%"class.device::GamepadPlatformDataFetcherLinux"*)* @_ZThn16_N6device31GamepadPlatformDataFetcherLinuxD0Ev to i8*)] }, align 8
@_ZN6device16UdevGamepadLinux15kInputSubsystemE = external constant [0 x i8], align 1
@.str = private unnamed_addr constant [1 x i8] zeroinitializer, align 1
@_ZN6device16UdevGamepadLinux16kHidrawSubsystemE = external constant [0 x i8], align 1
@_ZN4base11trace_event16CategoryRegistry11categories_E = external global [300 x %"struct.base::trace_event::TraceCategory"], align 16
@.str.1 = private unnamed_addr constant [15 x i8] c"GetGamepadData\00", align 1
@.str.2 = private unnamed_addr constant [34 x i8] c"../../base/strings/string_piece.h\00", align 1
@.str.3 = private unnamed_addr constant [2 x i8] c"s\00", align 1
@.str.5 = private unnamed_addr constant [29 x i8] c"../../base/memory/weak_ptr.h\00", align 1
@.str.6 = private unnamed_addr constant [15 x i8] c"ref_.IsValid()\00", align 1

@_ZN6device31GamepadPlatformDataFetcherLinux7FactoryC1E13scoped_refptrIN4base19SequencedTaskRunnerEE = hidden unnamed_addr alias void (%"class.device::GamepadPlatformDataFetcherLinux::Factory"*, %"class.base::SequencedTaskRunner"*), void (%"class.device::GamepadPlatformDataFetcherLinux::Factory"*, %"class.base::SequencedTaskRunner"*)* @_ZN6device31GamepadPlatformDataFetcherLinux7FactoryC2E13scoped_refptrIN4base19SequencedTaskRunnerEE
@_ZN6device31GamepadPlatformDataFetcherLinux7FactoryD1Ev = hidden unnamed_addr alias void (%"class.device::GamepadPlatformDataFetcherLinux::Factory"*), void (%"class.device::GamepadPlatformDataFetcherLinux::Factory"*)* @_ZN6device31GamepadPlatformDataFetcherLinux7FactoryD2Ev
@_ZN6device31GamepadPlatformDataFetcherLinuxC1E13scoped_refptrIN4base19SequencedTaskRunnerEE = hidden unnamed_addr alias void (%"class.device::GamepadPlatformDataFetcherLinux"*, %"class.base::SequencedTaskRunner"*), void (%"class.device::GamepadPlatformDataFetcherLinux"*, %"class.base::SequencedTaskRunner"*)* @_ZN6device31GamepadPlatformDataFetcherLinuxC2E13scoped_refptrIN4base19SequencedTaskRunnerEE
@_ZN6device31GamepadPlatformDataFetcherLinuxD1Ev = hidden unnamed_addr alias void (%"class.device::GamepadPlatformDataFetcherLinux"*), void (%"class.device::GamepadPlatformDataFetcherLinux"*)* @_ZN6device31GamepadPlatformDataFetcherLinuxD2Ev

; Function Attrs: nounwind ssp uwtable
define hidden void @_ZN6device31GamepadPlatformDataFetcherLinux7FactoryC2E13scoped_refptrIN4base19SequencedTaskRunnerEE(%"class.device::GamepadPlatformDataFetcherLinux::Factory"*, %"class.base::SequencedTaskRunner"*) unnamed_addr #0 align 2 {
  %3 = ptrtoint %"class.base::SequencedTaskRunner"* %1 to i64
  %4 = getelementptr inbounds %"class.device::GamepadPlatformDataFetcherLinux::Factory", %"class.device::GamepadPlatformDataFetcherLinux::Factory"* %0, i64 0, i32 0
  tail call void @_ZN6device25GamepadDataFetcherFactoryC2Ev(%"class.device::GamepadDataFetcherFactory"* %4) #13
  %5 = getelementptr inbounds %"class.device::GamepadPlatformDataFetcherLinux::Factory", %"class.device::GamepadPlatformDataFetcherLinux::Factory"* %0, i64 0, i32 0, i32 0
  store i32 (...)** bitcast (i8** getelementptr inbounds ({ [6 x i8*] }, { [6 x i8*] }* @_ZTVN6device31GamepadPlatformDataFetcherLinux7FactoryE, i64 0, inrange i32 0, i64 2) to i32 (...)**), i32 (...)*** %5, align 8
  %6 = getelementptr inbounds %"class.device::GamepadPlatformDataFetcherLinux::Factory", %"class.device::GamepadPlatformDataFetcherLinux::Factory"* %0, i64 0, i32 1
  %7 = bitcast %class.scoped_refptr* %6 to i64*
  store i64 %3, i64* %7, align 8
  ret void
}

declare void @_ZN6device25GamepadDataFetcherFactoryC2Ev(%"class.device::GamepadDataFetcherFactory"*) unnamed_addr #1

; Function Attrs: nounwind ssp uwtable
define hidden void @_ZN6device31GamepadPlatformDataFetcherLinux7FactoryD2Ev(%"class.device::GamepadPlatformDataFetcherLinux::Factory"* nocapture) unnamed_addr #0 align 2 {
  %2 = getelementptr inbounds %"class.device::GamepadPlatformDataFetcherLinux::Factory", %"class.device::GamepadPlatformDataFetcherLinux::Factory"* %0, i64 0, i32 0, i32 0
  store i32 (...)** bitcast (i8** getelementptr inbounds ({ [6 x i8*] }, { [6 x i8*] }* @_ZTVN6device31GamepadPlatformDataFetcherLinux7FactoryE, i64 0, inrange i32 0, i64 2) to i32 (...)**), i32 (...)*** %2, align 8
  %3 = getelementptr inbounds %"class.device::GamepadPlatformDataFetcherLinux::Factory", %"class.device::GamepadPlatformDataFetcherLinux::Factory"* %0, i64 0, i32 1, i32 0
  %4 = load %"class.base::SequencedTaskRunner"*, %"class.base::SequencedTaskRunner"** %3, align 8
  %5 = icmp eq %"class.base::SequencedTaskRunner"* %4, null
  br i1 %5, label %14, label %6

6:                                                ; preds = %1
  %7 = getelementptr inbounds %"class.base::SequencedTaskRunner", %"class.base::SequencedTaskRunner"* %4, i64 0, i32 0, i32 1
  %8 = getelementptr inbounds %"class.base::RefCountedThreadSafe", %"class.base::RefCountedThreadSafe"* %7, i64 0, i32 0, i32 0, i32 0, i32 0, i32 0, i32 0, i32 0, i32 0
  %9 = atomicrmw sub i32* %8, i32 1 acq_rel
  %10 = icmp eq i32 %9, 1
  br i1 %10, label %11, label %14

11:                                               ; preds = %6
  %12 = getelementptr inbounds %"class.base::RefCountedThreadSafe", %"class.base::RefCountedThreadSafe"* %7, i64 -2
  %13 = bitcast %"class.base::RefCountedThreadSafe"* %12 to %"class.base::TaskRunner"*
  tail call void @_ZN4base16TaskRunnerTraits8DestructEPKNS_10TaskRunnerE(%"class.base::TaskRunner"* %13) #13
  br label %14

14:                                               ; preds = %1, %6, %11
  ret void
}

; Function Attrs: nounwind ssp uwtable
define hidden void @_ZN6device31GamepadPlatformDataFetcherLinux7FactoryD0Ev(%"class.device::GamepadPlatformDataFetcherLinux::Factory"*) unnamed_addr #0 align 2 {
  %2 = getelementptr inbounds %"class.device::GamepadPlatformDataFetcherLinux::Factory", %"class.device::GamepadPlatformDataFetcherLinux::Factory"* %0, i64 0, i32 0, i32 0
  store i32 (...)** bitcast (i8** getelementptr inbounds ({ [6 x i8*] }, { [6 x i8*] }* @_ZTVN6device31GamepadPlatformDataFetcherLinux7FactoryE, i64 0, inrange i32 0, i64 2) to i32 (...)**), i32 (...)*** %2, align 8
  %3 = getelementptr inbounds %"class.device::GamepadPlatformDataFetcherLinux::Factory", %"class.device::GamepadPlatformDataFetcherLinux::Factory"* %0, i64 0, i32 1, i32 0
  %4 = load %"class.base::SequencedTaskRunner"*, %"class.base::SequencedTaskRunner"** %3, align 8
  %5 = icmp eq %"class.base::SequencedTaskRunner"* %4, null
  br i1 %5, label %14, label %6

6:                                                ; preds = %1
  %7 = getelementptr inbounds %"class.base::SequencedTaskRunner", %"class.base::SequencedTaskRunner"* %4, i64 0, i32 0, i32 1
  %8 = getelementptr inbounds %"class.base::RefCountedThreadSafe", %"class.base::RefCountedThreadSafe"* %7, i64 0, i32 0, i32 0, i32 0, i32 0, i32 0, i32 0, i32 0, i32 0
  %9 = atomicrmw sub i32* %8, i32 1 acq_rel
  %10 = icmp eq i32 %9, 1
  br i1 %10, label %11, label %14

11:                                               ; preds = %6
  %12 = getelementptr inbounds %"class.base::RefCountedThreadSafe", %"class.base::RefCountedThreadSafe"* %7, i64 -2
  %13 = bitcast %"class.base::RefCountedThreadSafe"* %12 to %"class.base::TaskRunner"*
  tail call void @_ZN4base16TaskRunnerTraits8DestructEPKNS_10TaskRunnerE(%"class.base::TaskRunner"* %13) #13
  br label %14

14:                                               ; preds = %1, %6, %11
  %15 = bitcast %"class.device::GamepadPlatformDataFetcherLinux::Factory"* %0 to i8*
  tail call void @_ZdlPv(i8* %15) #14
  ret void
}

; Function Attrs: nobuiltin nounwind
declare void @_ZdlPv(i8*) local_unnamed_addr #2

; Function Attrs: nounwind ssp uwtable
define hidden %"class.device::GamepadDataFetcher"* @_ZN6device31GamepadPlatformDataFetcherLinux7Factory17CreateDataFetcherEv(%"class.device::GamepadPlatformDataFetcherLinux::Factory"* nocapture readonly) unnamed_addr #0 align 2 {
  %2 = tail call i8* @_Znwm(i64 96) #14
  %3 = getelementptr inbounds %"class.device::GamepadPlatformDataFetcherLinux::Factory", %"class.device::GamepadPlatformDataFetcherLinux::Factory"* %0, i64 0, i32 1, i32 0
  %4 = load %"class.base::SequencedTaskRunner"*, %"class.base::SequencedTaskRunner"** %3, align 8
  %5 = icmp eq %"class.base::SequencedTaskRunner"* %4, null
  br i1 %5, label %9, label %6

6:                                                ; preds = %1
  %7 = getelementptr inbounds %"class.base::SequencedTaskRunner", %"class.base::SequencedTaskRunner"* %4, i64 0, i32 0, i32 1, i32 0, i32 0, i32 0, i32 0, i32 0, i32 0, i32 0, i32 0
  %8 = atomicrmw add i32* %7, i32 1 monotonic
  br label %9

9:                                                ; preds = %6, %1
  %10 = bitcast i8* %2 to %"class.device::GamepadDataFetcher"*
  tail call void @_ZN6device18GamepadDataFetcherC2Ev(%"class.device::GamepadDataFetcher"* nonnull %10) #13
  %11 = getelementptr inbounds i8, i8* %2, i64 16
  %12 = bitcast i8* %11 to i32 (...)***
  %13 = bitcast i8* %2 to i32 (...)***
  store i32 (...)** bitcast (i8** getelementptr inbounds ({ [14 x i8*], [7 x i8*] }, { [14 x i8*], [7 x i8*] }* @_ZTVN6device31GamepadPlatformDataFetcherLinuxE, i64 0, inrange i32 0, i64 2) to i32 (...)**), i32 (...)*** %13, align 8
  store i32 (...)** bitcast (i8** getelementptr inbounds ({ [14 x i8*], [7 x i8*] }, { [14 x i8*], [7 x i8*] }* @_ZTVN6device31GamepadPlatformDataFetcherLinuxE, i64 0, inrange i32 1, i64 2) to i32 (...)**), i32 (...)*** %12, align 8
  %14 = getelementptr inbounds i8, i8* %2, i64 24
  %15 = getelementptr inbounds i8, i8* %2, i64 56
  %16 = bitcast i8* %15 to i32*
  tail call void @llvm.memset.p0i8.i64(i8* align 8 %14, i8 0, i64 32, i1 false) #13
  store i32 1065353216, i32* %16, align 4
  %17 = getelementptr inbounds i8, i8* %2, i64 64
  %18 = bitcast i8* %17 to i64*
  store i64 0, i64* %18, align 8
  %19 = getelementptr inbounds i8, i8* %2, i64 72
  %20 = bitcast i8* %19 to %"class.base::SequencedTaskRunner"**
  store %"class.base::SequencedTaskRunner"* %4, %"class.base::SequencedTaskRunner"** %20, align 8
  br i1 %5, label %34, label %21

21:                                               ; preds = %9
  %22 = getelementptr inbounds %"class.base::SequencedTaskRunner", %"class.base::SequencedTaskRunner"* %4, i64 0, i32 0, i32 1, i32 0, i32 0, i32 0, i32 0, i32 0, i32 0, i32 0, i32 0
  %23 = atomicrmw add i32* %22, i32 1 monotonic
  %24 = getelementptr inbounds i8, i8* %2, i64 80
  %25 = bitcast i8* %24 to %"class.base::internal::WeakPtrFactoryBase"*
  %26 = ptrtoint i8* %2 to i64
  tail call void @_ZN4base8internal18WeakPtrFactoryBaseC2Em(%"class.base::internal::WeakPtrFactoryBase"* %25, i64 %26) #13
  %27 = getelementptr inbounds %"class.base::SequencedTaskRunner", %"class.base::SequencedTaskRunner"* %4, i64 0, i32 0, i32 1
  %28 = getelementptr inbounds %"class.base::RefCountedThreadSafe", %"class.base::RefCountedThreadSafe"* %27, i64 0, i32 0, i32 0, i32 0, i32 0, i32 0, i32 0, i32 0, i32 0
  %29 = atomicrmw sub i32* %28, i32 1 acq_rel
  %30 = icmp eq i32 %29, 1
  br i1 %30, label %31, label %38

31:                                               ; preds = %21
  %32 = getelementptr inbounds %"class.base::RefCountedThreadSafe", %"class.base::RefCountedThreadSafe"* %27, i64 -2
  %33 = bitcast %"class.base::RefCountedThreadSafe"* %32 to %"class.base::TaskRunner"*
  tail call void @_ZN4base16TaskRunnerTraits8DestructEPKNS_10TaskRunnerE(%"class.base::TaskRunner"* %33) #13
  br label %38

34:                                               ; preds = %9
  %35 = getelementptr inbounds i8, i8* %2, i64 80
  %36 = bitcast i8* %35 to %"class.base::internal::WeakPtrFactoryBase"*
  %37 = ptrtoint i8* %2 to i64
  tail call void @_ZN4base8internal18WeakPtrFactoryBaseC2Em(%"class.base::internal::WeakPtrFactoryBase"* %36, i64 %37) #13
  br label %38

38:                                               ; preds = %34, %31, %21
  ret %"class.device::GamepadDataFetcher"* %10
}

; Function Attrs: argmemonly nounwind
declare void @llvm.lifetime.start.p0i8(i64 immarg, i8* nocapture) #3

; Function Attrs: argmemonly nounwind
declare void @llvm.lifetime.end.p0i8(i64 immarg, i8* nocapture) #3

; Function Attrs: norecurse nounwind readnone ssp uwtable
define hidden i32 @_ZN6device31GamepadPlatformDataFetcherLinux7Factory6sourceEv(%"class.device::GamepadPlatformDataFetcherLinux::Factory"* nocapture readnone) unnamed_addr #4 align 2 {
  ret i32 4
}

; Function Attrs: norecurse nounwind readnone ssp uwtable
define hidden i32 @_ZN6device31GamepadPlatformDataFetcherLinux7Factory13static_sourceEv() local_unnamed_addr #4 align 2 {
  ret i32 4
}

; Function Attrs: nounwind ssp uwtable
define hidden void @_ZN6device31GamepadPlatformDataFetcherLinuxC2E13scoped_refptrIN4base19SequencedTaskRunnerEE(%"class.device::GamepadPlatformDataFetcherLinux"*, %"class.base::SequencedTaskRunner"*) unnamed_addr #0 align 2 {
  %3 = getelementptr inbounds %"class.device::GamepadPlatformDataFetcherLinux", %"class.device::GamepadPlatformDataFetcherLinux"* %0, i64 0, i32 0
  tail call void @_ZN6device18GamepadDataFetcherC2Ev(%"class.device::GamepadDataFetcher"* %3) #13
  %4 = getelementptr inbounds %"class.device::GamepadPlatformDataFetcherLinux", %"class.device::GamepadPlatformDataFetcherLinux"* %0, i64 0, i32 1, i32 0
  %5 = getelementptr inbounds %"class.device::GamepadPlatformDataFetcherLinux", %"class.device::GamepadPlatformDataFetcherLinux"* %0, i64 0, i32 0, i32 0
  store i32 (...)** bitcast (i8** getelementptr inbounds ({ [14 x i8*], [7 x i8*] }, { [14 x i8*], [7 x i8*] }* @_ZTVN6device31GamepadPlatformDataFetcherLinuxE, i64 0, inrange i32 0, i64 2) to i32 (...)**), i32 (...)*** %5, align 8
  store i32 (...)** bitcast (i8** getelementptr inbounds ({ [14 x i8*], [7 x i8*] }, { [14 x i8*], [7 x i8*] }* @_ZTVN6device31GamepadPlatformDataFetcherLinuxE, i64 0, inrange i32 1, i64 2) to i32 (...)**), i32 (...)*** %4, align 8
  %6 = getelementptr inbounds %"class.device::GamepadPlatformDataFetcherLinux", %"class.device::GamepadPlatformDataFetcherLinux"* %0, i64 0, i32 2
  %7 = getelementptr inbounds %"class.device::GamepadPlatformDataFetcherLinux", %"class.device::GamepadPlatformDataFetcherLinux"* %0, i64 0, i32 2, i32 0, i32 3
  %8 = bitcast %"class.std::__1::__compressed_pair.25"* %7 to i32*
  %9 = bitcast %"class.std::__1::unordered_set"* %6 to i8*
  tail call void @llvm.memset.p0i8.i64(i8* align 8 %9, i8 0, i64 32, i1 false) #13
  store i32 1065353216, i32* %8, align 4
  %10 = getelementptr inbounds %"class.device::GamepadPlatformDataFetcherLinux", %"class.device::GamepadPlatformDataFetcherLinux"* %0, i64 0, i32 3
  %11 = bitcast %"class.std::__1::unique_ptr.28"* %10 to i64*
  store i64 0, i64* %11, align 8
  %12 = getelementptr inbounds %"class.device::GamepadPlatformDataFetcherLinux", %"class.device::GamepadPlatformDataFetcherLinux"* %0, i64 0, i32 4, i32 0
  store %"class.base::SequencedTaskRunner"* %1, %"class.base::SequencedTaskRunner"** %12, align 8
  %13 = icmp eq %"class.base::SequencedTaskRunner"* %1, null
  br i1 %13, label %26, label %14

14:                                               ; preds = %2
  %15 = getelementptr inbounds %"class.base::SequencedTaskRunner", %"class.base::SequencedTaskRunner"* %1, i64 0, i32 0, i32 1, i32 0, i32 0, i32 0, i32 0, i32 0, i32 0, i32 0, i32 0
  %16 = atomicrmw add i32* %15, i32 1 monotonic
  %17 = getelementptr inbounds %"class.device::GamepadPlatformDataFetcherLinux", %"class.device::GamepadPlatformDataFetcherLinux"* %0, i64 0, i32 5, i32 0
  %18 = ptrtoint %"class.device::GamepadPlatformDataFetcherLinux"* %0 to i64
  tail call void @_ZN4base8internal18WeakPtrFactoryBaseC2Em(%"class.base::internal::WeakPtrFactoryBase"* %17, i64 %18) #13
  %19 = getelementptr inbounds %"class.base::SequencedTaskRunner", %"class.base::SequencedTaskRunner"* %1, i64 0, i32 0, i32 1
  %20 = getelementptr inbounds %"class.base::RefCountedThreadSafe", %"class.base::RefCountedThreadSafe"* %19, i64 0, i32 0, i32 0, i32 0, i32 0, i32 0, i32 0, i32 0, i32 0
  %21 = atomicrmw sub i32* %20, i32 1 acq_rel
  %22 = icmp eq i32 %21, 1
  br i1 %22, label %23, label %29

23:                                               ; preds = %14
  %24 = getelementptr inbounds %"class.base::RefCountedThreadSafe", %"class.base::RefCountedThreadSafe"* %19, i64 -2
  %25 = bitcast %"class.base::RefCountedThreadSafe"* %24 to %"class.base::TaskRunner"*
  tail call void @_ZN4base16TaskRunnerTraits8DestructEPKNS_10TaskRunnerE(%"class.base::TaskRunner"* %25) #13
  br label %29

26:                                               ; preds = %2
  %27 = getelementptr inbounds %"class.device::GamepadPlatformDataFetcherLinux", %"class.device::GamepadPlatformDataFetcherLinux"* %0, i64 0, i32 5, i32 0
  %28 = ptrtoint %"class.device::GamepadPlatformDataFetcherLinux"* %0 to i64
  tail call void @_ZN4base8internal18WeakPtrFactoryBaseC2Em(%"class.base::internal::WeakPtrFactoryBase"* %27, i64 %28) #13
  br label %29

29:                                               ; preds = %26, %14, %23
  ret void
}

declare void @_ZN6device18GamepadDataFetcherC2Ev(%"class.device::GamepadDataFetcher"*) unnamed_addr #1

; Function Attrs: nounwind ssp uwtable
define hidden void @_ZN6device31GamepadPlatformDataFetcherLinuxD2Ev(%"class.device::GamepadPlatformDataFetcherLinux"*) unnamed_addr #0 align 2 {
  %2 = getelementptr inbounds %"class.device::GamepadPlatformDataFetcherLinux", %"class.device::GamepadPlatformDataFetcherLinux"* %0, i64 0, i32 0, i32 0
  store i32 (...)** bitcast (i8** getelementptr inbounds ({ [14 x i8*], [7 x i8*] }, { [14 x i8*], [7 x i8*] }* @_ZTVN6device31GamepadPlatformDataFetcherLinuxE, i64 0, inrange i32 0, i64 2) to i32 (...)**), i32 (...)*** %2, align 8
  %3 = getelementptr inbounds %"class.device::GamepadPlatformDataFetcherLinux", %"class.device::GamepadPlatformDataFetcherLinux"* %0, i64 0, i32 1
  %4 = getelementptr inbounds %"class.device::UdevWatcher::Observer", %"class.device::UdevWatcher::Observer"* %3, i64 0, i32 0
  store i32 (...)** bitcast (i8** getelementptr inbounds ({ [14 x i8*], [7 x i8*] }, { [14 x i8*], [7 x i8*] }* @_ZTVN6device31GamepadPlatformDataFetcherLinuxE, i64 0, inrange i32 1, i64 2) to i32 (...)**), i32 (...)*** %4, align 8
  %5 = getelementptr inbounds %"class.device::GamepadPlatformDataFetcherLinux", %"class.device::GamepadPlatformDataFetcherLinux"* %0, i64 0, i32 2, i32 0, i32 1, i32 0, i32 0, i32 0
  %6 = bitcast %"struct.std::__1::__hash_node_base"** %5 to i64*
  %7 = load i64, i64* %6, align 8
  %8 = icmp eq i64 %7, 0
  br i1 %8, label %9, label %55

9:                                                ; preds = %55, %1
  %10 = getelementptr inbounds %"class.device::GamepadPlatformDataFetcherLinux", %"class.device::GamepadPlatformDataFetcherLinux"* %0, i64 0, i32 5, i32 0
  tail call void @_ZN4base8internal18WeakPtrFactoryBaseD2Ev(%"class.base::internal::WeakPtrFactoryBase"* %10) #13
  %11 = getelementptr inbounds %"class.device::GamepadPlatformDataFetcherLinux", %"class.device::GamepadPlatformDataFetcherLinux"* %0, i64 0, i32 4, i32 0
  %12 = load %"class.base::SequencedTaskRunner"*, %"class.base::SequencedTaskRunner"** %11, align 8
  %13 = icmp eq %"class.base::SequencedTaskRunner"* %12, null
  br i1 %13, label %22, label %14

14:                                               ; preds = %9
  %15 = getelementptr inbounds %"class.base::SequencedTaskRunner", %"class.base::SequencedTaskRunner"* %12, i64 0, i32 0, i32 1
  %16 = getelementptr inbounds %"class.base::RefCountedThreadSafe", %"class.base::RefCountedThreadSafe"* %15, i64 0, i32 0, i32 0, i32 0, i32 0, i32 0, i32 0, i32 0, i32 0
  %17 = atomicrmw sub i32* %16, i32 1 acq_rel
  %18 = icmp eq i32 %17, 1
  br i1 %18, label %19, label %22

19:                                               ; preds = %14
  %20 = getelementptr inbounds %"class.base::RefCountedThreadSafe", %"class.base::RefCountedThreadSafe"* %15, i64 -2
  %21 = bitcast %"class.base::RefCountedThreadSafe"* %20 to %"class.base::TaskRunner"*
  tail call void @_ZN4base16TaskRunnerTraits8DestructEPKNS_10TaskRunnerE(%"class.base::TaskRunner"* %21) #13
  br label %22

22:                                               ; preds = %9, %14, %19
  %23 = getelementptr inbounds %"class.device::GamepadPlatformDataFetcherLinux", %"class.device::GamepadPlatformDataFetcherLinux"* %0, i64 0, i32 3, i32 0, i32 0, i32 0
  %24 = load %"class.device::UdevWatcher"*, %"class.device::UdevWatcher"** %23, align 8
  store %"class.device::UdevWatcher"* null, %"class.device::UdevWatcher"** %23, align 8
  %25 = icmp eq %"class.device::UdevWatcher"* %24, null
  br i1 %25, label %28, label %26

26:                                               ; preds = %22
  tail call void @_ZN6device11UdevWatcherD1Ev(%"class.device::UdevWatcher"* nonnull %24) #13
  %27 = bitcast %"class.device::UdevWatcher"* %24 to i8*
  tail call void @_ZdlPv(i8* %27) #14
  br label %28

28:                                               ; preds = %22, %26
  %29 = load %"struct.std::__1::__hash_node_base"*, %"struct.std::__1::__hash_node_base"** %5, align 8
  %30 = icmp eq %"struct.std::__1::__hash_node_base"* %29, null
  br i1 %30, label %47, label %31

31:                                               ; preds = %28, %44
  %32 = phi %"struct.std::__1::__hash_node_base"* [ %34, %44 ], [ %29, %28 ]
  %33 = getelementptr inbounds %"struct.std::__1::__hash_node_base", %"struct.std::__1::__hash_node_base"* %32, i64 0, i32 0
  %34 = load %"struct.std::__1::__hash_node_base"*, %"struct.std::__1::__hash_node_base"** %33, align 8
  %35 = getelementptr inbounds %"struct.std::__1::__hash_node_base", %"struct.std::__1::__hash_node_base"* %32, i64 2
  %36 = bitcast %"struct.std::__1::__hash_node_base"* %35 to %"class.device::GamepadDeviceLinux"**
  %37 = load %"class.device::GamepadDeviceLinux"*, %"class.device::GamepadDeviceLinux"** %36, align 8
  store %"class.device::GamepadDeviceLinux"* null, %"class.device::GamepadDeviceLinux"** %36, align 8
  %38 = icmp eq %"class.device::GamepadDeviceLinux"* %37, null
  br i1 %38, label %44, label %39

39:                                               ; preds = %31
  %40 = bitcast %"class.device::GamepadDeviceLinux"* %37 to void (%"class.device::GamepadDeviceLinux"*)***
  %41 = load void (%"class.device::GamepadDeviceLinux"*)**, void (%"class.device::GamepadDeviceLinux"*)*** %40, align 8
  %42 = getelementptr inbounds void (%"class.device::GamepadDeviceLinux"*)*, void (%"class.device::GamepadDeviceLinux"*)** %41, i64 1
  %43 = load void (%"class.device::GamepadDeviceLinux"*)*, void (%"class.device::GamepadDeviceLinux"*)** %42, align 8
  tail call void %43(%"class.device::GamepadDeviceLinux"* nonnull %37) #13
  br label %44

44:                                               ; preds = %39, %31
  %45 = bitcast %"struct.std::__1::__hash_node_base"* %32 to i8*
  tail call void @_ZdlPv(i8* %45) #14
  %46 = icmp eq %"struct.std::__1::__hash_node_base"* %34, null
  br i1 %46, label %47, label %31

47:                                               ; preds = %44, %28
  %48 = getelementptr inbounds %"class.device::GamepadPlatformDataFetcherLinux", %"class.device::GamepadPlatformDataFetcherLinux"* %0, i64 0, i32 2, i32 0, i32 0, i32 0, i32 0, i32 0
  %49 = load %"struct.std::__1::__hash_node_base"**, %"struct.std::__1::__hash_node_base"*** %48, align 8
  store %"struct.std::__1::__hash_node_base"** null, %"struct.std::__1::__hash_node_base"*** %48, align 8
  %50 = icmp eq %"struct.std::__1::__hash_node_base"** %49, null
  br i1 %50, label %53, label %51

51:                                               ; preds = %47
  %52 = bitcast %"struct.std::__1::__hash_node_base"** %49 to i8*
  tail call void @_ZdlPv(i8* %52) #14
  br label %53

53:                                               ; preds = %47, %51
  tail call void @_ZN6device11UdevWatcher8ObserverD2Ev(%"class.device::UdevWatcher::Observer"* %3) #13
  %54 = getelementptr inbounds %"class.device::GamepadPlatformDataFetcherLinux", %"class.device::GamepadPlatformDataFetcherLinux"* %0, i64 0, i32 0
  tail call void @_ZN6device18GamepadDataFetcherD2Ev(%"class.device::GamepadDataFetcher"* %54) #13
  ret void

55:                                               ; preds = %1, %55
  %56 = phi i64 [ %62, %55 ], [ %7, %1 ]
  %57 = inttoptr i64 %56 to %"struct.std::__1::__hash_node"*
  %58 = getelementptr inbounds %"struct.std::__1::__hash_node", %"struct.std::__1::__hash_node"* %57, i64 0, i32 2, i32 0, i32 0, i32 0
  %59 = load %"class.device::GamepadDeviceLinux"*, %"class.device::GamepadDeviceLinux"** %58, align 8
  %60 = getelementptr inbounds %"class.device::GamepadDeviceLinux", %"class.device::GamepadDeviceLinux"* %59, i64 0, i32 0
  tail call void @_ZN6device21AbstractHapticGamepad8ShutdownEv(%"class.device::AbstractHapticGamepad"* %60) #13
  %61 = inttoptr i64 %56 to i64*
  %62 = load i64, i64* %61, align 8
  %63 = icmp eq i64 %62, 0
  br i1 %63, label %9, label %55
}

declare void @_ZN6device21AbstractHapticGamepad8ShutdownEv(%"class.device::AbstractHapticGamepad"*) local_unnamed_addr #1

; Function Attrs: nounwind
declare void @_ZN4base8internal18WeakPtrFactoryBaseD2Ev(%"class.base::internal::WeakPtrFactoryBase"*) unnamed_addr #5

; Function Attrs: nounwind
declare void @_ZN6device11UdevWatcher8ObserverD2Ev(%"class.device::UdevWatcher::Observer"*) unnamed_addr #5

; Function Attrs: nounwind
declare void @_ZN6device18GamepadDataFetcherD2Ev(%"class.device::GamepadDataFetcher"*) unnamed_addr #5

; Function Attrs: nounwind ssp uwtable
define hidden void @_ZThn16_N6device31GamepadPlatformDataFetcherLinuxD1Ev(%"class.device::GamepadPlatformDataFetcherLinux"*) unnamed_addr #0 align 2 {
  %2 = getelementptr inbounds %"class.device::GamepadPlatformDataFetcherLinux", %"class.device::GamepadPlatformDataFetcherLinux"* %0, i64 -1, i32 5
  %3 = bitcast %"class.base::WeakPtrFactory.75"* %2 to %"class.device::GamepadPlatformDataFetcherLinux"*
  tail call void @_ZN6device31GamepadPlatformDataFetcherLinuxD2Ev(%"class.device::GamepadPlatformDataFetcherLinux"* %3) #13
  ret void
}

; Function Attrs: nounwind ssp uwtable
define hidden void @_ZN6device31GamepadPlatformDataFetcherLinuxD0Ev(%"class.device::GamepadPlatformDataFetcherLinux"*) unnamed_addr #0 align 2 {
  tail call void @_ZN6device31GamepadPlatformDataFetcherLinuxD2Ev(%"class.device::GamepadPlatformDataFetcherLinux"* %0) #13
  %2 = bitcast %"class.device::GamepadPlatformDataFetcherLinux"* %0 to i8*
  tail call void @_ZdlPv(i8* %2) #14
  ret void
}

; Function Attrs: nounwind ssp uwtable
define hidden void @_ZThn16_N6device31GamepadPlatformDataFetcherLinuxD0Ev(%"class.device::GamepadPlatformDataFetcherLinux"*) unnamed_addr #0 align 2 {
  %2 = getelementptr inbounds %"class.device::GamepadPlatformDataFetcherLinux", %"class.device::GamepadPlatformDataFetcherLinux"* %0, i64 -1, i32 5
  %3 = bitcast %"class.base::WeakPtrFactory.75"* %2 to %"class.device::GamepadPlatformDataFetcherLinux"*
  tail call void @_ZN6device31GamepadPlatformDataFetcherLinuxD2Ev(%"class.device::GamepadPlatformDataFetcherLinux"* %3) #13
  %4 = bitcast %"class.base::WeakPtrFactory.75"* %2 to i8*
  tail call void @_ZdlPv(i8* %4) #14
  ret void
}

; Function Attrs: norecurse nounwind readnone ssp uwtable
define hidden i32 @_ZN6device31GamepadPlatformDataFetcherLinux6sourceEv(%"class.device::GamepadPlatformDataFetcherLinux"* nocapture readnone) unnamed_addr #4 align 2 {
  ret i32 4
}

; Function Attrs: nounwind ssp uwtable
define hidden void @_ZN6device31GamepadPlatformDataFetcherLinux17OnAddedToProviderEv(%"class.device::GamepadPlatformDataFetcherLinux"*) unnamed_addr #0 align 2 {
  %2 = alloca %"class.std::__1::vector", align 8
  %3 = bitcast %"class.std::__1::vector"* %2 to i8*
  call void @llvm.lifetime.start.p0i8(i64 24, i8* nonnull %3) #13
  %4 = getelementptr inbounds %"class.std::__1::vector", %"class.std::__1::vector"* %2, i64 0, i32 0, i32 0
  %5 = getelementptr inbounds %"class.std::__1::vector", %"class.std::__1::vector"* %2, i64 0, i32 0, i32 1
  call void @llvm.memset.p0i8.i64(i8* nonnull align 8 %3, i8 0, i64 24, i1 false) #13
  %6 = getelementptr inbounds %"class.std::__1::vector", %"class.std::__1::vector"* %2, i64 0, i32 0, i32 2, i32 0, i32 0
  call void @_ZNSt3__16vectorIN6device11UdevWatcher6FilterENS_9allocatorIS3_EEE24__emplace_back_slow_pathIJRA_KcRA1_S8_EEEvDpOT_(%"class.std::__1::vector"* nonnull %2, [0 x i8]* nonnull @_ZN6device16UdevGamepadLinux15kInputSubsystemE, [1 x i8]* nonnull dereferenceable(1) @.str) #13
  %7 = load %"class.device::UdevWatcher::Filter"*, %"class.device::UdevWatcher::Filter"** %5, align 8
  %8 = load %"class.device::UdevWatcher::Filter"*, %"class.device::UdevWatcher::Filter"** %6, align 8
  %9 = icmp ult %"class.device::UdevWatcher::Filter"* %7, %8
  br i1 %9, label %10, label %15

10:                                               ; preds = %1
  %11 = call i64 @strlen(i8* nonnull getelementptr inbounds ([0 x i8], [0 x i8]* @_ZN6device16UdevGamepadLinux16kHidrawSubsystemE, i64 0, i64 0)) #13
  call void @_ZN6device11UdevWatcher6FilterC1EN4base16BasicStringPieceIcNSt3__111char_traitsIcEEEES7_(%"class.device::UdevWatcher::Filter"* %7, i8* getelementptr inbounds ([0 x i8], [0 x i8]* @_ZN6device16UdevGamepadLinux16kHidrawSubsystemE, i64 0, i64 0), i64 %11, i8* getelementptr inbounds ([1 x i8], [1 x i8]* @.str, i64 0, i64 0), i64 0) #13
  %12 = getelementptr inbounds %"class.device::UdevWatcher::Filter", %"class.device::UdevWatcher::Filter"* %7, i64 1
  %13 = ptrtoint %"class.device::UdevWatcher::Filter"* %12 to i64
  %14 = bitcast %"class.device::UdevWatcher::Filter"** %5 to i64*
  store i64 %13, i64* %14, align 8
  br label %16

15:                                               ; preds = %1
  call void @_ZNSt3__16vectorIN6device11UdevWatcher6FilterENS_9allocatorIS3_EEE24__emplace_back_slow_pathIJRA_KcRA1_S8_EEEvDpOT_(%"class.std::__1::vector"* nonnull %2, [0 x i8]* nonnull @_ZN6device16UdevGamepadLinux16kHidrawSubsystemE, [1 x i8]* nonnull dereferenceable(1) @.str) #13
  br label %16

16:                                               ; preds = %10, %15
  %17 = getelementptr inbounds %"class.device::GamepadPlatformDataFetcherLinux", %"class.device::GamepadPlatformDataFetcherLinux"* %0, i64 0, i32 1
  %18 = call %"class.device::UdevWatcher"* @_ZN6device11UdevWatcher13StartWatchingEPNS0_8ObserverERKNSt3__16vectorINS0_6FilterENS3_9allocatorIS5_EEEE(%"class.device::UdevWatcher::Observer"* %17, %"class.std::__1::vector"* nonnull dereferenceable(24) %2) #13
  %19 = ptrtoint %"class.device::UdevWatcher"* %18 to i64
  %20 = getelementptr inbounds %"class.device::GamepadPlatformDataFetcherLinux", %"class.device::GamepadPlatformDataFetcherLinux"* %0, i64 0, i32 3
  %21 = getelementptr inbounds %"class.std::__1::unique_ptr.28", %"class.std::__1::unique_ptr.28"* %20, i64 0, i32 0, i32 0, i32 0
  %22 = load %"class.device::UdevWatcher"*, %"class.device::UdevWatcher"** %21, align 8
  %23 = bitcast %"class.std::__1::unique_ptr.28"* %20 to i64*
  store i64 %19, i64* %23, align 8
  %24 = icmp eq %"class.device::UdevWatcher"* %22, null
  br i1 %24, label %27, label %25

25:                                               ; preds = %16
  call void @_ZN6device11UdevWatcherD1Ev(%"class.device::UdevWatcher"* nonnull %22) #13
  %26 = bitcast %"class.device::UdevWatcher"* %22 to i8*
  call void @_ZdlPv(i8* %26) #14
  br label %27

27:                                               ; preds = %25, %16
  %28 = getelementptr inbounds %"class.device::GamepadPlatformDataFetcherLinux", %"class.device::GamepadPlatformDataFetcherLinux"* %0, i64 0, i32 2, i32 0, i32 1, i32 0, i32 0, i32 0
  %29 = bitcast %"struct.std::__1::__hash_node_base"** %28 to i64*
  %30 = load i64, i64* %29, align 8
  %31 = icmp eq i64 %30, 0
  br i1 %31, label %32, label %112

32:                                               ; preds = %112, %27
  %33 = getelementptr inbounds %"class.device::GamepadPlatformDataFetcherLinux", %"class.device::GamepadPlatformDataFetcherLinux"* %0, i64 0, i32 2, i32 0, i32 2, i32 0, i32 0
  %34 = load i64, i64* %33, align 8
  %35 = icmp eq i64 %34, 0
  br i1 %35, label %95, label %36

36:                                               ; preds = %32
  %37 = load %"struct.std::__1::__hash_node_base"*, %"struct.std::__1::__hash_node_base"** %28, align 8
  %38 = icmp eq %"struct.std::__1::__hash_node_base"* %37, null
  br i1 %38, label %55, label %39

39:                                               ; preds = %36, %52
  %40 = phi %"struct.std::__1::__hash_node_base"* [ %42, %52 ], [ %37, %36 ]
  %41 = getelementptr inbounds %"struct.std::__1::__hash_node_base", %"struct.std::__1::__hash_node_base"* %40, i64 0, i32 0
  %42 = load %"struct.std::__1::__hash_node_base"*, %"struct.std::__1::__hash_node_base"** %41, align 8
  %43 = getelementptr inbounds %"struct.std::__1::__hash_node_base", %"struct.std::__1::__hash_node_base"* %40, i64 2
  %44 = bitcast %"struct.std::__1::__hash_node_base"* %43 to %"class.device::GamepadDeviceLinux"**
  %45 = load %"class.device::GamepadDeviceLinux"*, %"class.device::GamepadDeviceLinux"** %44, align 8
  store %"class.device::GamepadDeviceLinux"* null, %"class.device::GamepadDeviceLinux"** %44, align 8
  %46 = icmp eq %"class.device::GamepadDeviceLinux"* %45, null
  br i1 %46, label %52, label %47

47:                                               ; preds = %39
  %48 = bitcast %"class.device::GamepadDeviceLinux"* %45 to void (%"class.device::GamepadDeviceLinux"*)***
  %49 = load void (%"class.device::GamepadDeviceLinux"*)**, void (%"class.device::GamepadDeviceLinux"*)*** %48, align 8
  %50 = getelementptr inbounds void (%"class.device::GamepadDeviceLinux"*)*, void (%"class.device::GamepadDeviceLinux"*)** %49, i64 1
  %51 = load void (%"class.device::GamepadDeviceLinux"*)*, void (%"class.device::GamepadDeviceLinux"*)** %50, align 8
  call void %51(%"class.device::GamepadDeviceLinux"* nonnull %45) #13
  br label %52

52:                                               ; preds = %47, %39
  %53 = bitcast %"struct.std::__1::__hash_node_base"* %40 to i8*
  call void @_ZdlPv(i8* %53) #14
  %54 = icmp eq %"struct.std::__1::__hash_node_base"* %42, null
  br i1 %54, label %55, label %39

55:                                               ; preds = %52, %36
  store %"struct.std::__1::__hash_node_base"* null, %"struct.std::__1::__hash_node_base"** %28, align 8
  %56 = getelementptr inbounds %"class.device::GamepadPlatformDataFetcherLinux", %"class.device::GamepadPlatformDataFetcherLinux"* %0, i64 0, i32 2, i32 0, i32 0, i32 0, i32 1, i32 0, i32 0, i32 0, i32 0
  %57 = load i64, i64* %56, align 8
  %58 = icmp eq i64 %57, 0
  br i1 %58, label %77, label %59

59:                                               ; preds = %55
  %60 = getelementptr inbounds %"class.device::GamepadPlatformDataFetcherLinux", %"class.device::GamepadPlatformDataFetcherLinux"* %0, i64 0, i32 2, i32 0, i32 0, i32 0, i32 0, i32 0
  %61 = add i64 %57, -1
  %62 = and i64 %57, 3
  %63 = icmp ult i64 %61, 3
  br i1 %63, label %66, label %64

64:                                               ; preds = %59
  %65 = sub i64 %57, %62
  br label %78

66:                                               ; preds = %78, %59
  %67 = phi i64 [ 0, %59 ], [ %92, %78 ]
  %68 = icmp eq i64 %62, 0
  br i1 %68, label %77, label %69

69:                                               ; preds = %66, %69
  %70 = phi i64 [ %74, %69 ], [ %67, %66 ]
  %71 = phi i64 [ %75, %69 ], [ %62, %66 ]
  %72 = load %"struct.std::__1::__hash_node_base"**, %"struct.std::__1::__hash_node_base"*** %60, align 8
  %73 = getelementptr inbounds %"struct.std::__1::__hash_node_base"*, %"struct.std::__1::__hash_node_base"** %72, i64 %70
  store %"struct.std::__1::__hash_node_base"* null, %"struct.std::__1::__hash_node_base"** %73, align 8
  %74 = add nuw i64 %70, 1
  %75 = add i64 %71, -1
  %76 = icmp eq i64 %75, 0
  br i1 %76, label %77, label %69, !llvm.loop !2

77:                                               ; preds = %66, %69, %55
  store i64 0, i64* %33, align 8
  br label %95

78:                                               ; preds = %78, %64
  %79 = phi i64 [ 0, %64 ], [ %92, %78 ]
  %80 = phi i64 [ %65, %64 ], [ %93, %78 ]
  %81 = load %"struct.std::__1::__hash_node_base"**, %"struct.std::__1::__hash_node_base"*** %60, align 8
  %82 = getelementptr inbounds %"struct.std::__1::__hash_node_base"*, %"struct.std::__1::__hash_node_base"** %81, i64 %79
  store %"struct.std::__1::__hash_node_base"* null, %"struct.std::__1::__hash_node_base"** %82, align 8
  %83 = or i64 %79, 1
  %84 = load %"struct.std::__1::__hash_node_base"**, %"struct.std::__1::__hash_node_base"*** %60, align 8
  %85 = getelementptr inbounds %"struct.std::__1::__hash_node_base"*, %"struct.std::__1::__hash_node_base"** %84, i64 %83
  store %"struct.std::__1::__hash_node_base"* null, %"struct.std::__1::__hash_node_base"** %85, align 8
  %86 = or i64 %79, 2
  %87 = load %"struct.std::__1::__hash_node_base"**, %"struct.std::__1::__hash_node_base"*** %60, align 8
  %88 = getelementptr inbounds %"struct.std::__1::__hash_node_base"*, %"struct.std::__1::__hash_node_base"** %87, i64 %86
  store %"struct.std::__1::__hash_node_base"* null, %"struct.std::__1::__hash_node_base"** %88, align 8
  %89 = or i64 %79, 3
  %90 = load %"struct.std::__1::__hash_node_base"**, %"struct.std::__1::__hash_node_base"*** %60, align 8
  %91 = getelementptr inbounds %"struct.std::__1::__hash_node_base"*, %"struct.std::__1::__hash_node_base"** %90, i64 %89
  store %"struct.std::__1::__hash_node_base"* null, %"struct.std::__1::__hash_node_base"** %91, align 8
  %92 = add nuw i64 %79, 4
  %93 = add i64 %80, -4
  %94 = icmp eq i64 %93, 0
  br i1 %94, label %66, label %78

95:                                               ; preds = %32, %77
  %96 = load %"class.device::UdevWatcher"*, %"class.device::UdevWatcher"** %21, align 8
  call void @_ZN6device11UdevWatcher24EnumerateExistingDevicesEv(%"class.device::UdevWatcher"* %96) #13
  %97 = load %"class.device::UdevWatcher::Filter"*, %"class.device::UdevWatcher::Filter"** %4, align 8
  %98 = icmp eq %"class.device::UdevWatcher::Filter"* %97, null
  br i1 %98, label %111, label %99

99:                                               ; preds = %95
  %100 = load %"class.device::UdevWatcher::Filter"*, %"class.device::UdevWatcher::Filter"** %5, align 8
  %101 = icmp eq %"class.device::UdevWatcher::Filter"* %100, %97
  br i1 %101, label %108, label %102

102:                                              ; preds = %99, %102
  %103 = phi %"class.device::UdevWatcher::Filter"* [ %104, %102 ], [ %100, %99 ]
  %104 = getelementptr inbounds %"class.device::UdevWatcher::Filter", %"class.device::UdevWatcher::Filter"* %103, i64 -1
  call void @_ZN6device11UdevWatcher6FilterD1Ev(%"class.device::UdevWatcher::Filter"* %104) #13
  %105 = icmp eq %"class.device::UdevWatcher::Filter"* %104, %97
  br i1 %105, label %106, label %102

106:                                              ; preds = %102
  %107 = load %"class.device::UdevWatcher::Filter"*, %"class.device::UdevWatcher::Filter"** %4, align 8
  br label %108

108:                                              ; preds = %106, %99
  %109 = phi %"class.device::UdevWatcher::Filter"* [ %107, %106 ], [ %97, %99 ]
  store %"class.device::UdevWatcher::Filter"* %97, %"class.device::UdevWatcher::Filter"** %5, align 8
  %110 = getelementptr inbounds %"class.device::UdevWatcher::Filter", %"class.device::UdevWatcher::Filter"* %109, i64 0, i32 0, i32 0, i32 0, i32 0, i32 0
  call void @_ZdlPv(i8* %110) #14
  br label %111

111:                                              ; preds = %95, %108
  call void @llvm.lifetime.end.p0i8(i64 24, i8* nonnull %3) #13
  ret void

112:                                              ; preds = %27, %112
  %113 = phi i64 [ %119, %112 ], [ %30, %27 ]
  %114 = inttoptr i64 %113 to %"struct.std::__1::__hash_node"*
  %115 = getelementptr inbounds %"struct.std::__1::__hash_node", %"struct.std::__1::__hash_node"* %114, i64 0, i32 2, i32 0, i32 0, i32 0
  %116 = load %"class.device::GamepadDeviceLinux"*, %"class.device::GamepadDeviceLinux"** %115, align 8
  %117 = getelementptr inbounds %"class.device::GamepadDeviceLinux", %"class.device::GamepadDeviceLinux"* %116, i64 0, i32 0
  call void @_ZN6device21AbstractHapticGamepad8ShutdownEv(%"class.device::AbstractHapticGamepad"* %117) #13
  %118 = inttoptr i64 %113 to i64*
  %119 = load i64, i64* %118, align 8
  %120 = icmp eq i64 %119, 0
  br i1 %120, label %32, label %112
}

declare %"class.device::UdevWatcher"* @_ZN6device11UdevWatcher13StartWatchingEPNS0_8ObserverERKNSt3__16vectorINS0_6FilterENS3_9allocatorIS5_EEEE(%"class.device::UdevWatcher::Observer"*, %"class.std::__1::vector"* dereferenceable(24)) local_unnamed_addr #1

declare void @_ZN6device11UdevWatcher24EnumerateExistingDevicesEv(%"class.device::UdevWatcher"*) local_unnamed_addr #1

; Function Attrs: nounwind ssp uwtable
define hidden void @_ZN6device31GamepadPlatformDataFetcherLinux13OnDeviceAddedENSt3__110unique_ptrI11udev_deviceNS_17UdevDeviceDeleterEEE(%"class.device::GamepadPlatformDataFetcherLinux"*, %struct.udev_device*) unnamed_addr #0 align 2 {
  tail call void @_ZN6device31GamepadPlatformDataFetcherLinux13RefreshDeviceEP11udev_device(%"class.device::GamepadPlatformDataFetcherLinux"* %0, %struct.udev_device* %1)
  %3 = icmp eq %struct.udev_device* %1, null
  br i1 %3, label %5, label %4

4:                                                ; preds = %2
  tail call void @_ZN6device17udev_device_unrefEP11udev_device(%struct.udev_device* nonnull %1) #13
  br label %5

5:                                                ; preds = %2, %4
  ret void
}

; Function Attrs: nounwind ssp uwtable
define hidden void @_ZN6device31GamepadPlatformDataFetcherLinux13RefreshDeviceEP11udev_device(%"class.device::GamepadPlatformDataFetcherLinux"*, %struct.udev_device*) local_unnamed_addr #0 align 2 {
  %3 = tail call %"class.device::UdevGamepadLinux"* @_ZN6device16UdevGamepadLinux6CreateEP11udev_device(%struct.udev_device* %1) #13
  %4 = icmp eq %"class.device::UdevGamepadLinux"* %3, null
  br i1 %4, label %53, label %5

5:                                                ; preds = %2
  %6 = getelementptr inbounds %"class.device::UdevGamepadLinux", %"class.device::UdevGamepadLinux"* %3, i64 0, i32 0
  %7 = load i32, i32* %6, align 8
  switch i32 %7, label %33 [
    i32 0, label %8
    i32 1, label %31
    i32 2, label %32
  ]

8:                                                ; preds = %5
  %9 = getelementptr inbounds %"class.device::UdevGamepadLinux", %"class.device::UdevGamepadLinux"* %3, i64 0, i32 3
  %10 = bitcast %"class.std::__1::basic_string"* %9 to %"struct.std::__1::basic_string<char, std::__1::char_traits<char>, std::__1::allocator<char> >::__short"*
  %11 = getelementptr inbounds %"struct.std::__1::basic_string<char, std::__1::char_traits<char>, std::__1::allocator<char> >::__short", %"struct.std::__1::basic_string<char, std::__1::char_traits<char>, std::__1::allocator<char> >::__short"* %10, i64 0, i32 1, i32 0
  %12 = load i8, i8* %11, align 1
  %13 = icmp slt i8 %12, 0
  br i1 %13, label %14, label %17

14:                                               ; preds = %8
  %15 = getelementptr inbounds %"class.device::UdevGamepadLinux", %"class.device::UdevGamepadLinux"* %3, i64 0, i32 3, i32 0, i32 0, i32 0, i32 0, i32 0, i32 1
  %16 = load i64, i64* %15, align 8
  br label %19

17:                                               ; preds = %8
  %18 = zext i8 %12 to i64
  br label %19

19:                                               ; preds = %14, %17
  %20 = phi i64 [ %16, %14 ], [ %18, %17 ]
  %21 = icmp eq i64 %20, 0
  br i1 %21, label %22, label %30

22:                                               ; preds = %19
  %23 = getelementptr inbounds %"class.device::UdevGamepadLinux", %"class.device::UdevGamepadLinux"* %3, i64 0, i32 1
  %24 = load i32, i32* %23, align 4
  %25 = bitcast %"class.device::GamepadPlatformDataFetcherLinux"* %0 to i1 (%"class.device::GamepadPlatformDataFetcherLinux"*, i32)***
  %26 = load i1 (%"class.device::GamepadPlatformDataFetcherLinux"*, i32)**, i1 (%"class.device::GamepadPlatformDataFetcherLinux"*, i32)*** %25, align 8
  %27 = getelementptr inbounds i1 (%"class.device::GamepadPlatformDataFetcherLinux"*, i32)*, i1 (%"class.device::GamepadPlatformDataFetcherLinux"*, i32)** %26, i64 7
  %28 = load i1 (%"class.device::GamepadPlatformDataFetcherLinux"*, i32)*, i1 (%"class.device::GamepadPlatformDataFetcherLinux"*, i32)** %27, align 8
  %29 = tail call zeroext i1 %28(%"class.device::GamepadPlatformDataFetcherLinux"* %0, i32 %24) #13
  br label %33

30:                                               ; preds = %19
  tail call void @_ZN6device31GamepadPlatformDataFetcherLinux19RefreshJoydevDeviceEP11udev_deviceRKNS_16UdevGamepadLinuxE(%"class.device::GamepadPlatformDataFetcherLinux"* %0, %struct.udev_device* %1, %"class.device::UdevGamepadLinux"* nonnull dereferenceable(56) %3)
  br label %33

31:                                               ; preds = %5
  tail call void @_ZN6device31GamepadPlatformDataFetcherLinux18RefreshEvdevDeviceEP11udev_deviceRKNS_16UdevGamepadLinuxE(%"class.device::GamepadPlatformDataFetcherLinux"* %0, %struct.udev_device* undef, %"class.device::UdevGamepadLinux"* nonnull dereferenceable(56) %3)
  br label %33

32:                                               ; preds = %5
  tail call void @_ZN6device31GamepadPlatformDataFetcherLinux19RefreshHidrawDeviceEP11udev_deviceRKNS_16UdevGamepadLinuxE(%"class.device::GamepadPlatformDataFetcherLinux"* %0, %struct.udev_device* undef, %"class.device::UdevGamepadLinux"* nonnull dereferenceable(56) %3)
  br label %33

33:                                               ; preds = %30, %22, %32, %31, %5
  %34 = getelementptr inbounds %"class.device::UdevGamepadLinux", %"class.device::UdevGamepadLinux"* %3, i64 0, i32 3
  %35 = bitcast %"class.std::__1::basic_string"* %34 to %"struct.std::__1::basic_string<char, std::__1::char_traits<char>, std::__1::allocator<char> >::__short"*
  %36 = getelementptr inbounds %"struct.std::__1::basic_string<char, std::__1::char_traits<char>, std::__1::allocator<char> >::__short", %"struct.std::__1::basic_string<char, std::__1::char_traits<char>, std::__1::allocator<char> >::__short"* %35, i64 0, i32 1, i32 0
  %37 = load i8, i8* %36, align 1
  %38 = icmp slt i8 %37, 0
  br i1 %38, label %39, label %42

39:                                               ; preds = %33
  %40 = getelementptr inbounds %"class.std::__1::basic_string", %"class.std::__1::basic_string"* %34, i64 0, i32 0, i32 0, i32 0, i32 0, i32 0, i32 0
  %41 = load i8*, i8** %40, align 8
  tail call void @_ZdlPv(i8* %41) #14
  br label %42

42:                                               ; preds = %39, %33
  %43 = getelementptr inbounds %"class.device::UdevGamepadLinux", %"class.device::UdevGamepadLinux"* %3, i64 0, i32 2
  %44 = bitcast %"class.std::__1::basic_string"* %43 to %"struct.std::__1::basic_string<char, std::__1::char_traits<char>, std::__1::allocator<char> >::__short"*
  %45 = getelementptr inbounds %"struct.std::__1::basic_string<char, std::__1::char_traits<char>, std::__1::allocator<char> >::__short", %"struct.std::__1::basic_string<char, std::__1::char_traits<char>, std::__1::allocator<char> >::__short"* %44, i64 0, i32 1, i32 0
  %46 = load i8, i8* %45, align 1
  %47 = icmp slt i8 %46, 0
  br i1 %47, label %48, label %51

48:                                               ; preds = %42
  %49 = getelementptr inbounds %"class.std::__1::basic_string", %"class.std::__1::basic_string"* %43, i64 0, i32 0, i32 0, i32 0, i32 0, i32 0, i32 0
  %50 = load i8*, i8** %49, align 8
  tail call void @_ZdlPv(i8* %50) #14
  br label %51

51:                                               ; preds = %48, %42
  %52 = bitcast %"class.device::UdevGamepadLinux"* %3 to i8*
  tail call void @_ZdlPv(i8* %52) #14
  br label %53

53:                                               ; preds = %2, %51
  ret void
}

; Function Attrs: nounwind ssp uwtable
define hidden void @_ZThn16_N6device31GamepadPlatformDataFetcherLinux13OnDeviceAddedENSt3__110unique_ptrI11udev_deviceNS_17UdevDeviceDeleterEEE(%"class.device::GamepadPlatformDataFetcherLinux"*, %struct.udev_device*) unnamed_addr #0 align 2 {
  %3 = getelementptr inbounds %"class.device::GamepadPlatformDataFetcherLinux", %"class.device::GamepadPlatformDataFetcherLinux"* %0, i64 -1, i32 5
  %4 = bitcast %"class.base::WeakPtrFactory.75"* %3 to %"class.device::GamepadPlatformDataFetcherLinux"*
  tail call void @_ZN6device31GamepadPlatformDataFetcherLinux13RefreshDeviceEP11udev_device(%"class.device::GamepadPlatformDataFetcherLinux"* %4, %struct.udev_device* %1) #13
  %5 = icmp eq %struct.udev_device* %1, null
  br i1 %5, label %7, label %6

6:                                                ; preds = %2
  tail call void @_ZN6device17udev_device_unrefEP11udev_device(%struct.udev_device* nonnull %1) #13
  br label %7

7:                                                ; preds = %2, %6
  ret void
}

; Function Attrs: nounwind ssp uwtable
define hidden void @_ZN6device31GamepadPlatformDataFetcherLinux15OnDeviceRemovedENSt3__110unique_ptrI11udev_deviceNS_17UdevDeviceDeleterEEE(%"class.device::GamepadPlatformDataFetcherLinux"*, %struct.udev_device*) unnamed_addr #0 align 2 {
  tail call void @_ZN6device31GamepadPlatformDataFetcherLinux13RefreshDeviceEP11udev_device(%"class.device::GamepadPlatformDataFetcherLinux"* %0, %struct.udev_device* %1)
  %3 = icmp eq %struct.udev_device* %1, null
  br i1 %3, label %5, label %4

4:                                                ; preds = %2
  tail call void @_ZN6device17udev_device_unrefEP11udev_device(%struct.udev_device* nonnull %1) #13
  br label %5

5:                                                ; preds = %2, %4
  ret void
}

; Function Attrs: nounwind ssp uwtable
define hidden void @_ZThn16_N6device31GamepadPlatformDataFetcherLinux15OnDeviceRemovedENSt3__110unique_ptrI11udev_deviceNS_17UdevDeviceDeleterEEE(%"class.device::GamepadPlatformDataFetcherLinux"*, %struct.udev_device*) unnamed_addr #0 align 2 {
  %3 = getelementptr inbounds %"class.device::GamepadPlatformDataFetcherLinux", %"class.device::GamepadPlatformDataFetcherLinux"* %0, i64 -1, i32 5
  %4 = bitcast %"class.base::WeakPtrFactory.75"* %3 to %"class.device::GamepadPlatformDataFetcherLinux"*
  tail call void @_ZN6device31GamepadPlatformDataFetcherLinux13RefreshDeviceEP11udev_device(%"class.device::GamepadPlatformDataFetcherLinux"* %4, %struct.udev_device* %1) #13
  %5 = icmp eq %struct.udev_device* %1, null
  br i1 %5, label %7, label %6

6:                                                ; preds = %2
  tail call void @_ZN6device17udev_device_unrefEP11udev_device(%struct.udev_device* nonnull %1) #13
  br label %7

7:                                                ; preds = %2, %6
  ret void
}

; Function Attrs: nounwind ssp uwtable
define hidden void @_ZN6device31GamepadPlatformDataFetcherLinux15OnDeviceChangedENSt3__110unique_ptrI11udev_deviceNS_17UdevDeviceDeleterEEE(%"class.device::GamepadPlatformDataFetcherLinux"*, %struct.udev_device*) unnamed_addr #0 align 2 {
  tail call void @_ZN6device31GamepadPlatformDataFetcherLinux13RefreshDeviceEP11udev_device(%"class.device::GamepadPlatformDataFetcherLinux"* %0, %struct.udev_device* %1)
  %3 = icmp eq %struct.udev_device* %1, null
  br i1 %3, label %5, label %4

4:                                                ; preds = %2
  tail call void @_ZN6device17udev_device_unrefEP11udev_device(%struct.udev_device* nonnull %1) #13
  br label %5

5:                                                ; preds = %2, %4
  ret void
}

; Function Attrs: nounwind ssp uwtable
define hidden void @_ZThn16_N6device31GamepadPlatformDataFetcherLinux15OnDeviceChangedENSt3__110unique_ptrI11udev_deviceNS_17UdevDeviceDeleterEEE(%"class.device::GamepadPlatformDataFetcherLinux"*, %struct.udev_device*) unnamed_addr #0 align 2 {
  %3 = getelementptr inbounds %"class.device::GamepadPlatformDataFetcherLinux", %"class.device::GamepadPlatformDataFetcherLinux"* %0, i64 -1, i32 5
  %4 = bitcast %"class.base::WeakPtrFactory.75"* %3 to %"class.device::GamepadPlatformDataFetcherLinux"*
  tail call void @_ZN6device31GamepadPlatformDataFetcherLinux13RefreshDeviceEP11udev_device(%"class.device::GamepadPlatformDataFetcherLinux"* %4, %struct.udev_device* %1) #13
  %5 = icmp eq %struct.udev_device* %1, null
  br i1 %5, label %7, label %6

6:                                                ; preds = %2
  tail call void @_ZN6device17udev_device_unrefEP11udev_device(%struct.udev_device* nonnull %1) #13
  br label %7

7:                                                ; preds = %2, %6
  ret void
}

; Function Attrs: nounwind ssp uwtable
define hidden void @_ZN6device31GamepadPlatformDataFetcherLinux14GetGamepadDataEb(%"class.device::GamepadPlatformDataFetcherLinux"*, i1 zeroext) unnamed_addr #0 align 2 {
  %3 = alloca %"class.base::TimeTicks", align 8
  %4 = load i8, i8* getelementptr inbounds ([300 x %"struct.base::trace_event::TraceCategory"], [300 x %"struct.base::trace_event::TraceCategory"]* @_ZN4base11trace_event16CategoryRegistry11categories_E, i64 0, i64 58, i32 0), align 16
  %5 = and i8 %4, 25
  %6 = icmp eq i8 %5, 0
  br i1 %6, label %13, label %7, !prof !4

7:                                                ; preds = %2
  %8 = tail call i32 @_ZN4base14PlatformThread9CurrentIdEv() #13
  %9 = bitcast %"class.base::TimeTicks"* %3 to i8*
  call void @llvm.lifetime.start.p0i8(i64 8, i8* nonnull %9) #13
  %10 = getelementptr inbounds %"class.base::TimeTicks", %"class.base::TimeTicks"* %3, i64 0, i32 0, i32 0
  %11 = tail call i64 @_ZN4base6subtle28TimeTicksNowIgnoringOverrideEv() #13
  store i64 %11, i64* %10, align 8
  %12 = call i64 @_ZN20trace_event_internal37AddTraceEventWithThreadIdAndTimestampEcPKhPKcS3_yyiRKN4base9TimeTicksEPNS4_11trace_event14TraceArgumentsEj(i8 signext 88, i8* getelementptr inbounds ([300 x %"struct.base::trace_event::TraceCategory"], [300 x %"struct.base::trace_event::TraceCategory"]* @_ZN4base11trace_event16CategoryRegistry11categories_E, i64 0, i64 58, i32 0), i8* getelementptr inbounds ([15 x i8], [15 x i8]* @.str.1, i64 0, i64 0), i8* null, i64 0, i64 0, i32 %8, %"class.base::TimeTicks"* nonnull dereferenceable(8) %3, %"class.base::trace_event::TraceArguments"* null, i32 0) #13
  call void @llvm.lifetime.end.p0i8(i64 8, i8* nonnull %9) #13
  br label %13

13:                                               ; preds = %2, %7
  %14 = phi i64 [ -6148914691236517206, %2 ], [ %12, %7 ]
  %15 = phi i8* [ inttoptr (i64 -6148914691236517206 to i8*), %2 ], [ getelementptr inbounds ([15 x i8], [15 x i8]* @.str.1, i64 0, i64 0), %7 ]
  %16 = phi i8* [ null, %2 ], [ getelementptr inbounds ([300 x %"struct.base::trace_event::TraceCategory"], [300 x %"struct.base::trace_event::TraceCategory"]* @_ZN4base11trace_event16CategoryRegistry11categories_E, i64 0, i64 58, i32 0), %7 ]
  %17 = getelementptr inbounds %"class.device::GamepadPlatformDataFetcherLinux", %"class.device::GamepadPlatformDataFetcherLinux"* %0, i64 0, i32 2, i32 0, i32 1, i32 0, i32 0, i32 0
  %18 = bitcast %"struct.std::__1::__hash_node_base"** %17 to i64*
  %19 = load i64, i64* %18, align 8
  %20 = icmp eq i64 %19, 0
  br i1 %20, label %25, label %21

21:                                               ; preds = %13
  %22 = getelementptr inbounds %"class.device::GamepadPlatformDataFetcherLinux", %"class.device::GamepadPlatformDataFetcherLinux"* %0, i64 0, i32 0, i32 1
  %23 = getelementptr inbounds %"class.device::GamepadPlatformDataFetcherLinux", %"class.device::GamepadPlatformDataFetcherLinux"* %0, i64 0, i32 0
  %24 = bitcast %"class.device::GamepadPlatformDataFetcherLinux"* %0 to i32 (%"class.device::GamepadDataFetcher"*)***
  br label %32

25:                                               ; preds = %69, %13
  %26 = icmp eq i8* %16, null
  br i1 %26, label %31, label %27

27:                                               ; preds = %25
  %28 = load i8, i8* %16, align 1
  %29 = icmp eq i8 %28, 0
  br i1 %29, label %31, label %30

30:                                               ; preds = %27
  call void @_ZN20trace_event_internal24UpdateTraceEventDurationEPKhPKcN4base11trace_event16TraceEventHandleE(i8* nonnull %16, i8* %15, i64 %14) #13
  br label %31

31:                                               ; preds = %25, %27, %30
  ret void

32:                                               ; preds = %21, %69
  %33 = phi i64 [ %19, %21 ], [ %71, %69 ]
  %34 = inttoptr i64 %33 to %"struct.std::__1::__hash_node"*
  %35 = getelementptr inbounds %"struct.std::__1::__hash_node", %"struct.std::__1::__hash_node"* %34, i64 0, i32 2, i32 0, i32 0, i32 0
  %36 = load %"class.device::GamepadDeviceLinux"*, %"class.device::GamepadDeviceLinux"** %35, align 8
  %37 = getelementptr inbounds %"class.device::GamepadDeviceLinux", %"class.device::GamepadDeviceLinux"* %36, i64 0, i32 3
  %38 = load i32, i32* %37, align 8
  %39 = icmp sgt i32 %38, -1
  br i1 %39, label %40, label %69

40:                                               ; preds = %32
  %41 = load i64, i64* %18, align 8
  %42 = icmp eq i64 %41, 0
  br i1 %42, label %69, label %43

43:                                               ; preds = %40, %51
  %44 = phi i64 [ %53, %51 ], [ %41, %40 ]
  %45 = inttoptr i64 %44 to %"struct.std::__1::__hash_node"*
  %46 = getelementptr inbounds %"struct.std::__1::__hash_node", %"struct.std::__1::__hash_node"* %45, i64 0, i32 2, i32 0, i32 0, i32 0
  %47 = load %"class.device::GamepadDeviceLinux"*, %"class.device::GamepadDeviceLinux"** %46, align 8
  %48 = getelementptr inbounds %"class.device::GamepadDeviceLinux", %"class.device::GamepadDeviceLinux"* %47, i64 0, i32 3
  %49 = load i32, i32* %48, align 8
  %50 = icmp eq i32 %49, %38
  br i1 %50, label %55, label %51

51:                                               ; preds = %43
  %52 = inttoptr i64 %44 to i64*
  %53 = load i64, i64* %52, align 8
  %54 = icmp eq i64 %53, 0
  br i1 %54, label %69, label %43

55:                                               ; preds = %43
  %56 = icmp eq %"class.device::GamepadDeviceLinux"* %47, null
  br i1 %56, label %69, label %57

57:                                               ; preds = %55
  %58 = load %"class.device::GamepadPadStateProvider"*, %"class.device::GamepadPadStateProvider"** %22, align 8
  %59 = icmp eq %"class.device::GamepadPadStateProvider"* %58, null
  br i1 %59, label %69, label %60

60:                                               ; preds = %57
  %61 = load i32 (%"class.device::GamepadDataFetcher"*)**, i32 (%"class.device::GamepadDataFetcher"*)*** %24, align 8
  %62 = getelementptr inbounds i32 (%"class.device::GamepadDataFetcher"*)*, i32 (%"class.device::GamepadDataFetcher"*)** %61, i64 6
  %63 = load i32 (%"class.device::GamepadDataFetcher"*)*, i32 (%"class.device::GamepadDataFetcher"*)** %62, align 8
  %64 = call i32 %63(%"class.device::GamepadDataFetcher"* %23) #13
  %65 = call %"struct.device::PadState"* @_ZN6device23GamepadPadStateProvider11GetPadStateENS_13GamepadSourceEib(%"class.device::GamepadPadStateProvider"* nonnull %58, i32 %64, i32 %38, i1 zeroext true) #13
  %66 = icmp eq %"struct.device::PadState"* %65, null
  br i1 %66, label %69, label %67

67:                                               ; preds = %60
  %68 = getelementptr inbounds %"struct.device::PadState", %"struct.device::PadState"* %65, i64 0, i32 6
  call void @_ZN6device18GamepadDeviceLinux12ReadPadStateEPNS_7GamepadE(%"class.device::GamepadDeviceLinux"* nonnull %47, %"class.device::Gamepad"* %68) #13
  br label %69

69:                                               ; preds = %51, %67, %60, %57, %55, %40, %32
  %70 = inttoptr i64 %33 to i64*
  %71 = load i64, i64* %70, align 8
  %72 = icmp eq i64 %71, 0
  br i1 %72, label %25, label %32
}

; Function Attrs: argmemonly nounwind
declare void @llvm.memcpy.p0i8.p0i8.i64(i8* nocapture writeonly, i8* nocapture readonly, i64, i1 immarg) #3

; Function Attrs: nounwind ssp uwtable
define hidden void @_ZN6device31GamepadPlatformDataFetcherLinux14ReadDeviceDataEm(%"class.device::GamepadPlatformDataFetcherLinux"*, i64) local_unnamed_addr #0 align 2 {
  %3 = trunc i64 %1 to i32
  %4 = getelementptr inbounds %"class.device::GamepadPlatformDataFetcherLinux", %"class.device::GamepadPlatformDataFetcherLinux"* %0, i64 0, i32 2, i32 0, i32 1, i32 0, i32 0, i32 0
  %5 = bitcast %"struct.std::__1::__hash_node_base"** %4 to i64*
  %6 = load i64, i64* %5, align 8
  %7 = icmp eq i64 %6, 0
  br i1 %7, label %37, label %8

8:                                                ; preds = %2, %16
  %9 = phi i64 [ %18, %16 ], [ %6, %2 ]
  %10 = inttoptr i64 %9 to %"struct.std::__1::__hash_node"*
  %11 = getelementptr inbounds %"struct.std::__1::__hash_node", %"struct.std::__1::__hash_node"* %10, i64 0, i32 2, i32 0, i32 0, i32 0
  %12 = load %"class.device::GamepadDeviceLinux"*, %"class.device::GamepadDeviceLinux"** %11, align 8
  %13 = getelementptr inbounds %"class.device::GamepadDeviceLinux", %"class.device::GamepadDeviceLinux"* %12, i64 0, i32 3
  %14 = load i32, i32* %13, align 8
  %15 = icmp eq i32 %14, %3
  br i1 %15, label %20, label %16

16:                                               ; preds = %8
  %17 = inttoptr i64 %9 to i64*
  %18 = load i64, i64* %17, align 8
  %19 = icmp eq i64 %18, 0
  br i1 %19, label %37, label %8

20:                                               ; preds = %8
  %21 = icmp eq %"class.device::GamepadDeviceLinux"* %12, null
  br i1 %21, label %37, label %22

22:                                               ; preds = %20
  %23 = getelementptr inbounds %"class.device::GamepadPlatformDataFetcherLinux", %"class.device::GamepadPlatformDataFetcherLinux"* %0, i64 0, i32 0, i32 1
  %24 = load %"class.device::GamepadPadStateProvider"*, %"class.device::GamepadPadStateProvider"** %23, align 8
  %25 = icmp eq %"class.device::GamepadPadStateProvider"* %24, null
  br i1 %25, label %37, label %26

26:                                               ; preds = %22
  %27 = getelementptr inbounds %"class.device::GamepadPlatformDataFetcherLinux", %"class.device::GamepadPlatformDataFetcherLinux"* %0, i64 0, i32 0
  %28 = bitcast %"class.device::GamepadPlatformDataFetcherLinux"* %0 to i32 (%"class.device::GamepadDataFetcher"*)***
  %29 = load i32 (%"class.device::GamepadDataFetcher"*)**, i32 (%"class.device::GamepadDataFetcher"*)*** %28, align 8
  %30 = getelementptr inbounds i32 (%"class.device::GamepadDataFetcher"*)*, i32 (%"class.device::GamepadDataFetcher"*)** %29, i64 6
  %31 = load i32 (%"class.device::GamepadDataFetcher"*)*, i32 (%"class.device::GamepadDataFetcher"*)** %30, align 8
  %32 = tail call i32 %31(%"class.device::GamepadDataFetcher"* %27) #13
  %33 = tail call %"struct.device::PadState"* @_ZN6device23GamepadPadStateProvider11GetPadStateENS_13GamepadSourceEib(%"class.device::GamepadPadStateProvider"* nonnull %24, i32 %32, i32 %3, i1 zeroext true) #13
  %34 = icmp eq %"struct.device::PadState"* %33, null
  br i1 %34, label %37, label %35

35:                                               ; preds = %26
  %36 = getelementptr inbounds %"struct.device::PadState", %"struct.device::PadState"* %33, i64 0, i32 6
  tail call void @_ZN6device18GamepadDeviceLinux12ReadPadStateEPNS_7GamepadE(%"class.device::GamepadDeviceLinux"* nonnull %12, %"class.device::Gamepad"* %36) #13
  br label %37

37:                                               ; preds = %16, %22, %2, %35, %26, %20
  ret void
}

declare %"class.device::UdevGamepadLinux"* @_ZN6device16UdevGamepadLinux6CreateEP11udev_device(%struct.udev_device*) local_unnamed_addr #1

; Function Attrs: nounwind ssp uwtable
define hidden void @_ZN6device31GamepadPlatformDataFetcherLinux19RefreshJoydevDeviceEP11udev_deviceRKNS_16UdevGamepadLinuxE(%"class.device::GamepadPlatformDataFetcherLinux"*, %struct.udev_device*, %"class.device::UdevGamepadLinux"* dereferenceable(56)) local_unnamed_addr #0 align 2 {
  %4 = alloca %"class.std::__1::unique_ptr.150", align 8
  %5 = alloca %"class.std::__1::unique_ptr.150", align 8
  %6 = alloca %"class.std::__1::unique_ptr.150", align 8
  %7 = alloca %"class.std::__1::unique_ptr.150", align 8
  %8 = alloca %"class.std::__1::unique_ptr.150", align 8
  %9 = alloca %"class.std::__1::basic_string", align 8
  %10 = getelementptr inbounds %"class.device::UdevGamepadLinux", %"class.device::UdevGamepadLinux"* %2, i64 0, i32 1
  %11 = load i32, i32* %10, align 4
  %12 = tail call %"class.device::GamepadDeviceLinux"* @_ZN6device31GamepadPlatformDataFetcherLinux25GetOrCreateMatchingDeviceERKNS_16UdevGamepadLinuxE(%"class.device::GamepadPlatformDataFetcherLinux"* %0, %"class.device::UdevGamepadLinux"* dereferenceable(56) %2)
  %13 = icmp eq %"class.device::GamepadDeviceLinux"* %12, null
  br i1 %13, label %294, label %14

14:                                               ; preds = %3
  %15 = tail call zeroext i1 @_ZN6device18GamepadDeviceLinux14OpenJoydevNodeERKNS_16UdevGamepadLinuxEP11udev_device(%"class.device::GamepadDeviceLinux"* nonnull %12, %"class.device::UdevGamepadLinux"* dereferenceable(56) %2, %struct.udev_device* %1) #13
  br i1 %15, label %57, label %16

16:                                               ; preds = %14
  %17 = tail call zeroext i1 @_ZNK6device18GamepadDeviceLinux7IsEmptyEv(%"class.device::GamepadDeviceLinux"* nonnull %12) #13
  br i1 %17, label %18, label %294

18:                                               ; preds = %16
  %19 = getelementptr inbounds %"class.device::GamepadPlatformDataFetcherLinux", %"class.device::GamepadPlatformDataFetcherLinux"* %0, i64 0, i32 2, i32 0, i32 1, i32 0, i32 0, i32 0
  %20 = bitcast %"struct.std::__1::__hash_node_base"** %19 to i64*
  %21 = load i64, i64* %20, align 8
  %22 = icmp eq i64 %21, 0
  br i1 %22, label %294, label %23

23:                                               ; preds = %18, %53
  %24 = phi i64 [ %55, %53 ], [ %21, %18 ]
  %25 = inttoptr i64 %24 to %"struct.std::__1::__hash_node"*
  %26 = getelementptr inbounds %"struct.std::__1::__hash_node", %"struct.std::__1::__hash_node"* %25, i64 0, i32 2, i32 0, i32 0, i32 0
  %27 = load %"class.device::GamepadDeviceLinux"*, %"class.device::GamepadDeviceLinux"** %26, align 8
  %28 = icmp eq %"class.device::GamepadDeviceLinux"* %27, %12
  br i1 %28, label %29, label %53

29:                                               ; preds = %23
  %30 = inttoptr i64 %24 to %"struct.std::__1::__hash_node_base"*
  %31 = getelementptr inbounds %"class.device::GamepadDeviceLinux", %"class.device::GamepadDeviceLinux"* %12, i64 0, i32 0
  tail call void @_ZN6device21AbstractHapticGamepad8ShutdownEv(%"class.device::AbstractHapticGamepad"* %31) #13
  %32 = getelementptr inbounds %"class.device::GamepadPlatformDataFetcherLinux", %"class.device::GamepadPlatformDataFetcherLinux"* %0, i64 0, i32 2, i32 0
  %33 = bitcast %"class.std::__1::unique_ptr.150"* %8 to i8*
  call void @llvm.lifetime.start.p0i8(i64 24, i8* nonnull %33) #13
  call void @_ZNSt3__112__hash_tableINS_10unique_ptrIN6device18GamepadDeviceLinuxENS_14default_deleteIS3_EEEENS_4hashIS6_EENS_8equal_toIS6_EENS_9allocatorIS6_EEE6removeENS_21__hash_const_iteratorIPNS_11__hash_nodeIS6_PvEEEE(%"class.std::__1::unique_ptr.150"* nonnull sret %8, %"class.std::__1::__hash_table"* %32, %"struct.std::__1::__hash_node_base"* nonnull %30) #13
  %34 = getelementptr inbounds %"class.std::__1::unique_ptr.150", %"class.std::__1::unique_ptr.150"* %8, i64 0, i32 0, i32 0, i32 0
  %35 = load %"struct.std::__1::__hash_node"*, %"struct.std::__1::__hash_node"** %34, align 8
  store %"struct.std::__1::__hash_node"* null, %"struct.std::__1::__hash_node"** %34, align 8
  %36 = icmp eq %"struct.std::__1::__hash_node"* %35, null
  br i1 %36, label %52, label %37

37:                                               ; preds = %29
  %38 = getelementptr inbounds %"class.std::__1::unique_ptr.150", %"class.std::__1::unique_ptr.150"* %8, i64 0, i32 0, i32 1, i32 0, i32 1
  %39 = load i8, i8* %38, align 8, !range !5
  %40 = icmp eq i8 %39, 0
  br i1 %40, label %50, label %41

41:                                               ; preds = %37
  %42 = getelementptr inbounds %"struct.std::__1::__hash_node", %"struct.std::__1::__hash_node"* %35, i64 0, i32 2, i32 0, i32 0, i32 0
  %43 = load %"class.device::GamepadDeviceLinux"*, %"class.device::GamepadDeviceLinux"** %42, align 8
  store %"class.device::GamepadDeviceLinux"* null, %"class.device::GamepadDeviceLinux"** %42, align 8
  %44 = icmp eq %"class.device::GamepadDeviceLinux"* %43, null
  br i1 %44, label %50, label %45

45:                                               ; preds = %41
  %46 = bitcast %"class.device::GamepadDeviceLinux"* %43 to void (%"class.device::GamepadDeviceLinux"*)***
  %47 = load void (%"class.device::GamepadDeviceLinux"*)**, void (%"class.device::GamepadDeviceLinux"*)*** %46, align 8
  %48 = getelementptr inbounds void (%"class.device::GamepadDeviceLinux"*)*, void (%"class.device::GamepadDeviceLinux"*)** %47, i64 1
  %49 = load void (%"class.device::GamepadDeviceLinux"*)*, void (%"class.device::GamepadDeviceLinux"*)** %48, align 8
  call void %49(%"class.device::GamepadDeviceLinux"* nonnull %43) #13
  br label %50

50:                                               ; preds = %45, %41, %37
  %51 = bitcast %"struct.std::__1::__hash_node"* %35 to i8*
  call void @_ZdlPv(i8* %51) #14
  br label %52

52:                                               ; preds = %50, %29
  call void @llvm.lifetime.end.p0i8(i64 24, i8* nonnull %33) #13
  br label %294

53:                                               ; preds = %23
  %54 = inttoptr i64 %24 to i64*
  %55 = load i64, i64* %54, align 8
  %56 = icmp eq i64 %55, 0
  br i1 %56, label %294, label %23

57:                                               ; preds = %14
  %58 = bitcast %"class.std::__1::basic_string"* %9 to i8*
  call void @llvm.lifetime.start.p0i8(i64 24, i8* nonnull %58) #13
  %59 = getelementptr inbounds %"class.std::__1::basic_string", %"class.std::__1::basic_string"* %9, i64 0, i32 0, i32 0, i32 0, i32 0, i32 0, i32 0
  %60 = getelementptr inbounds %"class.std::__1::basic_string", %"class.std::__1::basic_string"* %9, i64 0, i32 0, i32 0, i32 0, i32 0, i32 0, i32 1
  %61 = getelementptr inbounds %"class.device::GamepadDeviceLinux", %"class.device::GamepadDeviceLinux"* %12, i64 0, i32 10
  %62 = bitcast %"class.std::__1::basic_string"* %61 to %"struct.std::__1::basic_string<char, std::__1::char_traits<char>, std::__1::allocator<char> >::__short"*
  %63 = getelementptr inbounds %"struct.std::__1::basic_string<char, std::__1::char_traits<char>, std::__1::allocator<char> >::__short", %"struct.std::__1::basic_string<char, std::__1::char_traits<char>, std::__1::allocator<char> >::__short"* %62, i64 0, i32 1, i32 0
  %64 = bitcast %"class.std::__1::basic_string"* %9 to i8*
  call void @llvm.memset.p0i8.i64(i8* nonnull align 8 %64, i8 -86, i64 24, i1 false)
  %65 = load i8, i8* %63, align 1, !noalias !6
  %66 = icmp slt i8 %65, 0
  br i1 %66, label %69, label %67

67:                                               ; preds = %57
  %68 = bitcast %"class.std::__1::basic_string"* %61 to i8*
  call void @llvm.memcpy.p0i8.p0i8.i64(i8* nonnull align 8 %58, i8* align 8 %68, i64 24, i1 false) #13
  br label %74

69:                                               ; preds = %57
  %70 = getelementptr inbounds %"class.std::__1::basic_string", %"class.std::__1::basic_string"* %61, i64 0, i32 0, i32 0, i32 0, i32 0, i32 0, i32 0
  %71 = load i8*, i8** %70, align 8, !noalias !6
  %72 = getelementptr inbounds %"class.device::GamepadDeviceLinux", %"class.device::GamepadDeviceLinux"* %12, i64 0, i32 10, i32 0, i32 0, i32 0, i32 0, i32 0, i32 1
  %73 = load i64, i64* %72, align 8, !noalias !6
  call void @_ZNSt3__112basic_stringIcNS_11char_traitsIcEENS_9allocatorIcEEE25__init_copy_ctor_externalEPKcm(%"class.std::__1::basic_string"* nonnull %9, i8* %71, i64 %73) #13
  br label %74

74:                                               ; preds = %67, %69
  %75 = getelementptr inbounds %"class.device::GamepadDeviceLinux", %"class.device::GamepadDeviceLinux"* %12, i64 0, i32 6
  %76 = load i16, i16* %75, align 4
  %77 = getelementptr inbounds %"class.device::GamepadDeviceLinux", %"class.device::GamepadDeviceLinux"* %12, i64 0, i32 7
  %78 = load i16, i16* %77, align 2
  %79 = call zeroext i1 @_ZN6device17GamepadIsExcludedEtt(i16 zeroext %76, i16 zeroext %78) #13
  br i1 %79, label %80, label %119

80:                                               ; preds = %74
  call void @_ZN6device18GamepadDeviceLinux15CloseJoydevNodeEv(%"class.device::GamepadDeviceLinux"* nonnull %12) #13
  %81 = getelementptr inbounds %"class.device::GamepadPlatformDataFetcherLinux", %"class.device::GamepadPlatformDataFetcherLinux"* %0, i64 0, i32 2, i32 0, i32 1, i32 0, i32 0, i32 0
  %82 = bitcast %"struct.std::__1::__hash_node_base"** %81 to i64*
  %83 = load i64, i64* %82, align 8
  %84 = icmp eq i64 %83, 0
  br i1 %84, label %286, label %85

85:                                               ; preds = %80, %115
  %86 = phi i64 [ %117, %115 ], [ %83, %80 ]
  %87 = inttoptr i64 %86 to %"struct.std::__1::__hash_node"*
  %88 = getelementptr inbounds %"struct.std::__1::__hash_node", %"struct.std::__1::__hash_node"* %87, i64 0, i32 2, i32 0, i32 0, i32 0
  %89 = load %"class.device::GamepadDeviceLinux"*, %"class.device::GamepadDeviceLinux"** %88, align 8
  %90 = icmp eq %"class.device::GamepadDeviceLinux"* %89, %12
  br i1 %90, label %91, label %115

91:                                               ; preds = %85
  %92 = inttoptr i64 %86 to %"struct.std::__1::__hash_node_base"*
  %93 = getelementptr inbounds %"class.device::GamepadDeviceLinux", %"class.device::GamepadDeviceLinux"* %12, i64 0, i32 0
  call void @_ZN6device21AbstractHapticGamepad8ShutdownEv(%"class.device::AbstractHapticGamepad"* %93) #13
  %94 = getelementptr inbounds %"class.device::GamepadPlatformDataFetcherLinux", %"class.device::GamepadPlatformDataFetcherLinux"* %0, i64 0, i32 2, i32 0
  %95 = bitcast %"class.std::__1::unique_ptr.150"* %7 to i8*
  call void @llvm.lifetime.start.p0i8(i64 24, i8* nonnull %95) #13
  call void @_ZNSt3__112__hash_tableINS_10unique_ptrIN6device18GamepadDeviceLinuxENS_14default_deleteIS3_EEEENS_4hashIS6_EENS_8equal_toIS6_EENS_9allocatorIS6_EEE6removeENS_21__hash_const_iteratorIPNS_11__hash_nodeIS6_PvEEEE(%"class.std::__1::unique_ptr.150"* nonnull sret %7, %"class.std::__1::__hash_table"* %94, %"struct.std::__1::__hash_node_base"* nonnull %92) #13
  %96 = getelementptr inbounds %"class.std::__1::unique_ptr.150", %"class.std::__1::unique_ptr.150"* %7, i64 0, i32 0, i32 0, i32 0
  %97 = load %"struct.std::__1::__hash_node"*, %"struct.std::__1::__hash_node"** %96, align 8
  store %"struct.std::__1::__hash_node"* null, %"struct.std::__1::__hash_node"** %96, align 8
  %98 = icmp eq %"struct.std::__1::__hash_node"* %97, null
  br i1 %98, label %114, label %99

99:                                               ; preds = %91
  %100 = getelementptr inbounds %"class.std::__1::unique_ptr.150", %"class.std::__1::unique_ptr.150"* %7, i64 0, i32 0, i32 1, i32 0, i32 1
  %101 = load i8, i8* %100, align 8, !range !5
  %102 = icmp eq i8 %101, 0
  br i1 %102, label %112, label %103

103:                                              ; preds = %99
  %104 = getelementptr inbounds %"struct.std::__1::__hash_node", %"struct.std::__1::__hash_node"* %97, i64 0, i32 2, i32 0, i32 0, i32 0
  %105 = load %"class.device::GamepadDeviceLinux"*, %"class.device::GamepadDeviceLinux"** %104, align 8
  store %"class.device::GamepadDeviceLinux"* null, %"class.device::GamepadDeviceLinux"** %104, align 8
  %106 = icmp eq %"class.device::GamepadDeviceLinux"* %105, null
  br i1 %106, label %112, label %107

107:                                              ; preds = %103
  %108 = bitcast %"class.device::GamepadDeviceLinux"* %105 to void (%"class.device::GamepadDeviceLinux"*)***
  %109 = load void (%"class.device::GamepadDeviceLinux"*)**, void (%"class.device::GamepadDeviceLinux"*)*** %108, align 8
  %110 = getelementptr inbounds void (%"class.device::GamepadDeviceLinux"*)*, void (%"class.device::GamepadDeviceLinux"*)** %109, i64 1
  %111 = load void (%"class.device::GamepadDeviceLinux"*)*, void (%"class.device::GamepadDeviceLinux"*)** %110, align 8
  call void %111(%"class.device::GamepadDeviceLinux"* nonnull %105) #13
  br label %112

112:                                              ; preds = %107, %103, %99
  %113 = bitcast %"struct.std::__1::__hash_node"* %97 to i8*
  call void @_ZdlPv(i8* %113) #14
  br label %114

114:                                              ; preds = %112, %91
  call void @llvm.lifetime.end.p0i8(i64 24, i8* nonnull %95) #13
  br label %286

115:                                              ; preds = %85
  %116 = inttoptr i64 %86 to i64*
  %117 = load i64, i64* %116, align 8
  %118 = icmp eq i64 %117, 0
  br i1 %118, label %286, label %85

119:                                              ; preds = %74
  %120 = call dereferenceable(1) %"class.device::GamepadIdList"* @_ZN6device13GamepadIdList3GetEv() #13
  %121 = bitcast %"class.std::__1::basic_string"* %9 to %"struct.std::__1::basic_string<char, std::__1::char_traits<char>, std::__1::allocator<char> >::__short"*
  %122 = getelementptr inbounds %"struct.std::__1::basic_string<char, std::__1::char_traits<char>, std::__1::allocator<char> >::__short", %"struct.std::__1::basic_string<char, std::__1::char_traits<char>, std::__1::allocator<char> >::__short"* %121, i64 0, i32 1, i32 0
  %123 = load i8, i8* %122, align 1
  %124 = icmp slt i8 %123, 0
  %125 = load i8*, i8** %59, align 8
  %126 = select i1 %124, i8* %125, i8* %58
  %127 = load i64, i64* %60, align 8
  %128 = zext i8 %123 to i64
  %129 = select i1 %124, i64 %127, i64 %128
  %130 = call i32 @_ZNK6device13GamepadIdList12GetGamepadIdEN4base16BasicStringPieceIcNSt3__111char_traitsIcEEEEtt(%"class.device::GamepadIdList"* %120, i8* %126, i64 %129, i16 zeroext %76, i16 zeroext %78) #13
  %131 = call zeroext i1 @_ZN6device18NintendoController20IsNintendoControllerENS_9GamepadIdE(i32 %130) #13
  br i1 %131, label %132, label %171

132:                                              ; preds = %119
  call void @_ZN6device18GamepadDeviceLinux15CloseJoydevNodeEv(%"class.device::GamepadDeviceLinux"* nonnull %12) #13
  %133 = getelementptr inbounds %"class.device::GamepadPlatformDataFetcherLinux", %"class.device::GamepadPlatformDataFetcherLinux"* %0, i64 0, i32 2, i32 0, i32 1, i32 0, i32 0, i32 0
  %134 = bitcast %"struct.std::__1::__hash_node_base"** %133 to i64*
  %135 = load i64, i64* %134, align 8
  %136 = icmp eq i64 %135, 0
  br i1 %136, label %286, label %137

137:                                              ; preds = %132, %167
  %138 = phi i64 [ %169, %167 ], [ %135, %132 ]
  %139 = inttoptr i64 %138 to %"struct.std::__1::__hash_node"*
  %140 = getelementptr inbounds %"struct.std::__1::__hash_node", %"struct.std::__1::__hash_node"* %139, i64 0, i32 2, i32 0, i32 0, i32 0
  %141 = load %"class.device::GamepadDeviceLinux"*, %"class.device::GamepadDeviceLinux"** %140, align 8
  %142 = icmp eq %"class.device::GamepadDeviceLinux"* %141, %12
  br i1 %142, label %143, label %167

143:                                              ; preds = %137
  %144 = inttoptr i64 %138 to %"struct.std::__1::__hash_node_base"*
  %145 = getelementptr inbounds %"class.device::GamepadDeviceLinux", %"class.device::GamepadDeviceLinux"* %12, i64 0, i32 0
  call void @_ZN6device21AbstractHapticGamepad8ShutdownEv(%"class.device::AbstractHapticGamepad"* %145) #13
  %146 = getelementptr inbounds %"class.device::GamepadPlatformDataFetcherLinux", %"class.device::GamepadPlatformDataFetcherLinux"* %0, i64 0, i32 2, i32 0
  %147 = bitcast %"class.std::__1::unique_ptr.150"* %6 to i8*
  call void @llvm.lifetime.start.p0i8(i64 24, i8* nonnull %147) #13
  call void @_ZNSt3__112__hash_tableINS_10unique_ptrIN6device18GamepadDeviceLinuxENS_14default_deleteIS3_EEEENS_4hashIS6_EENS_8equal_toIS6_EENS_9allocatorIS6_EEE6removeENS_21__hash_const_iteratorIPNS_11__hash_nodeIS6_PvEEEE(%"class.std::__1::unique_ptr.150"* nonnull sret %6, %"class.std::__1::__hash_table"* %146, %"struct.std::__1::__hash_node_base"* nonnull %144) #13
  %148 = getelementptr inbounds %"class.std::__1::unique_ptr.150", %"class.std::__1::unique_ptr.150"* %6, i64 0, i32 0, i32 0, i32 0
  %149 = load %"struct.std::__1::__hash_node"*, %"struct.std::__1::__hash_node"** %148, align 8
  store %"struct.std::__1::__hash_node"* null, %"struct.std::__1::__hash_node"** %148, align 8
  %150 = icmp eq %"struct.std::__1::__hash_node"* %149, null
  br i1 %150, label %166, label %151

151:                                              ; preds = %143
  %152 = getelementptr inbounds %"class.std::__1::unique_ptr.150", %"class.std::__1::unique_ptr.150"* %6, i64 0, i32 0, i32 1, i32 0, i32 1
  %153 = load i8, i8* %152, align 8, !range !5
  %154 = icmp eq i8 %153, 0
  br i1 %154, label %164, label %155

155:                                              ; preds = %151
  %156 = getelementptr inbounds %"struct.std::__1::__hash_node", %"struct.std::__1::__hash_node"* %149, i64 0, i32 2, i32 0, i32 0, i32 0
  %157 = load %"class.device::GamepadDeviceLinux"*, %"class.device::GamepadDeviceLinux"** %156, align 8
  store %"class.device::GamepadDeviceLinux"* null, %"class.device::GamepadDeviceLinux"** %156, align 8
  %158 = icmp eq %"class.device::GamepadDeviceLinux"* %157, null
  br i1 %158, label %164, label %159

159:                                              ; preds = %155
  %160 = bitcast %"class.device::GamepadDeviceLinux"* %157 to void (%"class.device::GamepadDeviceLinux"*)***
  %161 = load void (%"class.device::GamepadDeviceLinux"*)**, void (%"class.device::GamepadDeviceLinux"*)*** %160, align 8
  %162 = getelementptr inbounds void (%"class.device::GamepadDeviceLinux"*)*, void (%"class.device::GamepadDeviceLinux"*)** %161, i64 1
  %163 = load void (%"class.device::GamepadDeviceLinux"*)*, void (%"class.device::GamepadDeviceLinux"*)** %162, align 8
  call void %163(%"class.device::GamepadDeviceLinux"* nonnull %157) #13
  br label %164

164:                                              ; preds = %159, %155, %151
  %165 = bitcast %"struct.std::__1::__hash_node"* %149 to i8*
  call void @_ZdlPv(i8* %165) #14
  br label %166

166:                                              ; preds = %164, %143
  call void @llvm.lifetime.end.p0i8(i64 24, i8* nonnull %147) #13
  br label %286

167:                                              ; preds = %137
  %168 = inttoptr i64 %138 to i64*
  %169 = load i64, i64* %168, align 8
  %170 = icmp eq i64 %169, 0
  br i1 %170, label %286, label %137

171:                                              ; preds = %119
  %172 = icmp ne i32 %130, 0
  %173 = getelementptr inbounds %"class.device::GamepadPlatformDataFetcherLinux", %"class.device::GamepadPlatformDataFetcherLinux"* %0, i64 0, i32 0, i32 1
  %174 = load %"class.device::GamepadPadStateProvider"*, %"class.device::GamepadPadStateProvider"** %173, align 8
  %175 = icmp eq %"class.device::GamepadPadStateProvider"* %174, null
  br i1 %175, label %185, label %176

176:                                              ; preds = %171
  %177 = getelementptr inbounds %"class.device::GamepadPlatformDataFetcherLinux", %"class.device::GamepadPlatformDataFetcherLinux"* %0, i64 0, i32 0
  %178 = bitcast %"class.device::GamepadPlatformDataFetcherLinux"* %0 to i32 (%"class.device::GamepadDataFetcher"*)***
  %179 = load i32 (%"class.device::GamepadDataFetcher"*)**, i32 (%"class.device::GamepadDataFetcher"*)*** %178, align 8
  %180 = getelementptr inbounds i32 (%"class.device::GamepadDataFetcher"*)*, i32 (%"class.device::GamepadDataFetcher"*)** %179, i64 6
  %181 = load i32 (%"class.device::GamepadDataFetcher"*)*, i32 (%"class.device::GamepadDataFetcher"*)** %180, align 8
  %182 = call i32 %181(%"class.device::GamepadDataFetcher"* %177) #13
  %183 = call %"struct.device::PadState"* @_ZN6device23GamepadPadStateProvider11GetPadStateENS_13GamepadSourceEib(%"class.device::GamepadPadStateProvider"* nonnull %174, i32 %182, i32 %11, i1 zeroext %172) #13
  %184 = icmp eq %"struct.device::PadState"* %183, null
  br i1 %184, label %185, label %224

185:                                              ; preds = %171, %176
  call void @_ZN6device18GamepadDeviceLinux15CloseJoydevNodeEv(%"class.device::GamepadDeviceLinux"* nonnull %12) #13
  %186 = getelementptr inbounds %"class.device::GamepadPlatformDataFetcherLinux", %"class.device::GamepadPlatformDataFetcherLinux"* %0, i64 0, i32 2, i32 0, i32 1, i32 0, i32 0, i32 0
  %187 = bitcast %"struct.std::__1::__hash_node_base"** %186 to i64*
  %188 = load i64, i64* %187, align 8
  %189 = icmp eq i64 %188, 0
  br i1 %189, label %286, label %190

190:                                              ; preds = %185, %220
  %191 = phi i64 [ %222, %220 ], [ %188, %185 ]
  %192 = inttoptr i64 %191 to %"struct.std::__1::__hash_node"*
  %193 = getelementptr inbounds %"struct.std::__1::__hash_node", %"struct.std::__1::__hash_node"* %192, i64 0, i32 2, i32 0, i32 0, i32 0
  %194 = load %"class.device::GamepadDeviceLinux"*, %"class.device::GamepadDeviceLinux"** %193, align 8
  %195 = icmp eq %"class.device::GamepadDeviceLinux"* %194, %12
  br i1 %195, label %196, label %220

196:                                              ; preds = %190
  %197 = inttoptr i64 %191 to %"struct.std::__1::__hash_node_base"*
  %198 = getelementptr inbounds %"class.device::GamepadDeviceLinux", %"class.device::GamepadDeviceLinux"* %12, i64 0, i32 0
  call void @_ZN6device21AbstractHapticGamepad8ShutdownEv(%"class.device::AbstractHapticGamepad"* %198) #13
  %199 = getelementptr inbounds %"class.device::GamepadPlatformDataFetcherLinux", %"class.device::GamepadPlatformDataFetcherLinux"* %0, i64 0, i32 2, i32 0
  %200 = bitcast %"class.std::__1::unique_ptr.150"* %5 to i8*
  call void @llvm.lifetime.start.p0i8(i64 24, i8* nonnull %200) #13
  call void @_ZNSt3__112__hash_tableINS_10unique_ptrIN6device18GamepadDeviceLinuxENS_14default_deleteIS3_EEEENS_4hashIS6_EENS_8equal_toIS6_EENS_9allocatorIS6_EEE6removeENS_21__hash_const_iteratorIPNS_11__hash_nodeIS6_PvEEEE(%"class.std::__1::unique_ptr.150"* nonnull sret %5, %"class.std::__1::__hash_table"* %199, %"struct.std::__1::__hash_node_base"* nonnull %197) #13
  %201 = getelementptr inbounds %"class.std::__1::unique_ptr.150", %"class.std::__1::unique_ptr.150"* %5, i64 0, i32 0, i32 0, i32 0
  %202 = load %"struct.std::__1::__hash_node"*, %"struct.std::__1::__hash_node"** %201, align 8
  store %"struct.std::__1::__hash_node"* null, %"struct.std::__1::__hash_node"** %201, align 8
  %203 = icmp eq %"struct.std::__1::__hash_node"* %202, null
  br i1 %203, label %219, label %204

204:                                              ; preds = %196
  %205 = getelementptr inbounds %"class.std::__1::unique_ptr.150", %"class.std::__1::unique_ptr.150"* %5, i64 0, i32 0, i32 1, i32 0, i32 1
  %206 = load i8, i8* %205, align 8, !range !5
  %207 = icmp eq i8 %206, 0
  br i1 %207, label %217, label %208

208:                                              ; preds = %204
  %209 = getelementptr inbounds %"struct.std::__1::__hash_node", %"struct.std::__1::__hash_node"* %202, i64 0, i32 2, i32 0, i32 0, i32 0
  %210 = load %"class.device::GamepadDeviceLinux"*, %"class.device::GamepadDeviceLinux"** %209, align 8
  store %"class.device::GamepadDeviceLinux"* null, %"class.device::GamepadDeviceLinux"** %209, align 8
  %211 = icmp eq %"class.device::GamepadDeviceLinux"* %210, null
  br i1 %211, label %217, label %212

212:                                              ; preds = %208
  %213 = bitcast %"class.device::GamepadDeviceLinux"* %210 to void (%"class.device::GamepadDeviceLinux"*)***
  %214 = load void (%"class.device::GamepadDeviceLinux"*)**, void (%"class.device::GamepadDeviceLinux"*)*** %213, align 8
  %215 = getelementptr inbounds void (%"class.device::GamepadDeviceLinux"*)*, void (%"class.device::GamepadDeviceLinux"*)** %214, i64 1
  %216 = load void (%"class.device::GamepadDeviceLinux"*)*, void (%"class.device::GamepadDeviceLinux"*)** %215, align 8
  call void %216(%"class.device::GamepadDeviceLinux"* nonnull %210) #13
  br label %217

217:                                              ; preds = %212, %208, %204
  %218 = bitcast %"struct.std::__1::__hash_node"* %202 to i8*
  call void @_ZdlPv(i8* %218) #14
  br label %219

219:                                              ; preds = %217, %196
  call void @llvm.lifetime.end.p0i8(i64 24, i8* nonnull %200) #13
  br label %286

220:                                              ; preds = %190
  %221 = inttoptr i64 %191 to i64*
  %222 = load i64, i64* %221, align 8
  %223 = icmp eq i64 %222, 0
  br i1 %223, label %286, label %190

224:                                              ; preds = %176
  %225 = call %struct.udev_device* @_ZN6device45udev_device_get_parent_with_subsystem_devtypeEP11udev_devicePKcS3_(%struct.udev_device* %1, i8* getelementptr inbounds ([0 x i8], [0 x i8]* @_ZN6device16UdevGamepadLinux15kInputSubsystemE, i64 0, i64 0), i8* null) #13
  %226 = icmp eq %struct.udev_device* %225, null
  br i1 %226, label %227, label %268

227:                                              ; preds = %224
  call void @_ZN6device18GamepadDeviceLinux15CloseJoydevNodeEv(%"class.device::GamepadDeviceLinux"* nonnull %12) #13
  %228 = call zeroext i1 @_ZNK6device18GamepadDeviceLinux7IsEmptyEv(%"class.device::GamepadDeviceLinux"* nonnull %12) #13
  br i1 %228, label %229, label %286

229:                                              ; preds = %227
  %230 = getelementptr inbounds %"class.device::GamepadPlatformDataFetcherLinux", %"class.device::GamepadPlatformDataFetcherLinux"* %0, i64 0, i32 2, i32 0, i32 1, i32 0, i32 0, i32 0
  %231 = bitcast %"struct.std::__1::__hash_node_base"** %230 to i64*
  %232 = load i64, i64* %231, align 8
  %233 = icmp eq i64 %232, 0
  br i1 %233, label %286, label %234

234:                                              ; preds = %229, %264
  %235 = phi i64 [ %266, %264 ], [ %232, %229 ]
  %236 = inttoptr i64 %235 to %"struct.std::__1::__hash_node"*
  %237 = getelementptr inbounds %"struct.std::__1::__hash_node", %"struct.std::__1::__hash_node"* %236, i64 0, i32 2, i32 0, i32 0, i32 0
  %238 = load %"class.device::GamepadDeviceLinux"*, %"class.device::GamepadDeviceLinux"** %237, align 8
  %239 = icmp eq %"class.device::GamepadDeviceLinux"* %238, %12
  br i1 %239, label %240, label %264

240:                                              ; preds = %234
  %241 = inttoptr i64 %235 to %"struct.std::__1::__hash_node_base"*
  %242 = getelementptr inbounds %"class.device::GamepadDeviceLinux", %"class.device::GamepadDeviceLinux"* %12, i64 0, i32 0
  call void @_ZN6device21AbstractHapticGamepad8ShutdownEv(%"class.device::AbstractHapticGamepad"* %242) #13
  %243 = getelementptr inbounds %"class.device::GamepadPlatformDataFetcherLinux", %"class.device::GamepadPlatformDataFetcherLinux"* %0, i64 0, i32 2, i32 0
  %244 = bitcast %"class.std::__1::unique_ptr.150"* %4 to i8*
  call void @llvm.lifetime.start.p0i8(i64 24, i8* nonnull %244) #13
  call void @_ZNSt3__112__hash_tableINS_10unique_ptrIN6device18GamepadDeviceLinuxENS_14default_deleteIS3_EEEENS_4hashIS6_EENS_8equal_toIS6_EENS_9allocatorIS6_EEE6removeENS_21__hash_const_iteratorIPNS_11__hash_nodeIS6_PvEEEE(%"class.std::__1::unique_ptr.150"* nonnull sret %4, %"class.std::__1::__hash_table"* %243, %"struct.std::__1::__hash_node_base"* nonnull %241) #13
  %245 = getelementptr inbounds %"class.std::__1::unique_ptr.150", %"class.std::__1::unique_ptr.150"* %4, i64 0, i32 0, i32 0, i32 0
  %246 = load %"struct.std::__1::__hash_node"*, %"struct.std::__1::__hash_node"** %245, align 8
  store %"struct.std::__1::__hash_node"* null, %"struct.std::__1::__hash_node"** %245, align 8
  %247 = icmp eq %"struct.std::__1::__hash_node"* %246, null
  br i1 %247, label %263, label %248

248:                                              ; preds = %240
  %249 = getelementptr inbounds %"class.std::__1::unique_ptr.150", %"class.std::__1::unique_ptr.150"* %4, i64 0, i32 0, i32 1, i32 0, i32 1
  %250 = load i8, i8* %249, align 8, !range !5
  %251 = icmp eq i8 %250, 0
  br i1 %251, label %261, label %252

252:                                              ; preds = %248
  %253 = getelementptr inbounds %"struct.std::__1::__hash_node", %"struct.std::__1::__hash_node"* %246, i64 0, i32 2, i32 0, i32 0, i32 0
  %254 = load %"class.device::GamepadDeviceLinux"*, %"class.device::GamepadDeviceLinux"** %253, align 8
  store %"class.device::GamepadDeviceLinux"* null, %"class.device::GamepadDeviceLinux"** %253, align 8
  %255 = icmp eq %"class.device::GamepadDeviceLinux"* %254, null
  br i1 %255, label %261, label %256

256:                                              ; preds = %252
  %257 = bitcast %"class.device::GamepadDeviceLinux"* %254 to void (%"class.device::GamepadDeviceLinux"*)***
  %258 = load void (%"class.device::GamepadDeviceLinux"*)**, void (%"class.device::GamepadDeviceLinux"*)*** %257, align 8
  %259 = getelementptr inbounds void (%"class.device::GamepadDeviceLinux"*)*, void (%"class.device::GamepadDeviceLinux"*)** %258, i64 1
  %260 = load void (%"class.device::GamepadDeviceLinux"*)*, void (%"class.device::GamepadDeviceLinux"*)** %259, align 8
  call void %260(%"class.device::GamepadDeviceLinux"* nonnull %254) #13
  br label %261

261:                                              ; preds = %256, %252, %248
  %262 = bitcast %"struct.std::__1::__hash_node"* %246 to i8*
  call void @_ZdlPv(i8* %262) #14
  br label %263

263:                                              ; preds = %261, %240
  call void @llvm.lifetime.end.p0i8(i64 24, i8* nonnull %244) #13
  br label %286

264:                                              ; preds = %234
  %265 = inttoptr i64 %235 to i64*
  %266 = load i64, i64* %265, align 8
  %267 = icmp eq i64 %266, 0
  br i1 %267, label %286, label %234

268:                                              ; preds = %224
  br i1 %172, label %269, label %275

269:                                              ; preds = %268
  %270 = bitcast %"class.device::GamepadPlatformDataFetcherLinux"* %0 to i32 (%"class.device::GamepadPlatformDataFetcherLinux"*)***
  %271 = load i32 (%"class.device::GamepadPlatformDataFetcherLinux"*)**, i32 (%"class.device::GamepadPlatformDataFetcherLinux"*)*** %270, align 8
  %272 = getelementptr inbounds i32 (%"class.device::GamepadPlatformDataFetcherLinux"*)*, i32 (%"class.device::GamepadPlatformDataFetcherLinux"*)** %271, i64 6
  %273 = load i32 (%"class.device::GamepadPlatformDataFetcherLinux"*)*, i32 (%"class.device::GamepadPlatformDataFetcherLinux"*)** %272, align 8
  %274 = call i32 %273(%"class.device::GamepadPlatformDataFetcherLinux"* %0) #13
  call void @_ZN6device20RecordUnknownGamepadENS_13GamepadSourceE(i32 %274) #13
  br label %276

275:                                              ; preds = %268
  call void @_ZN6device22RecordConnectedGamepadENS_9GamepadIdE(i32 0) #13
  br label %276

276:                                              ; preds = %275, %269
  %277 = call void (%"class.device::Gamepad"*, %"class.device::Gamepad"*)* @_ZNK6device18GamepadDeviceLinux18GetMappingFunctionEv(%"class.device::GamepadDeviceLinux"* nonnull %12) #13
  %278 = getelementptr inbounds %"struct.device::PadState", %"struct.device::PadState"* %183, i64 0, i32 7
  store void (%"class.device::Gamepad"*, %"class.device::Gamepad"*)* %277, void (%"class.device::Gamepad"*, %"class.device::Gamepad"*)** %278, align 8
  %279 = getelementptr inbounds %"struct.device::PadState", %"struct.device::PadState"* %183, i64 0, i32 6
  %280 = icmp ne void (%"class.device::Gamepad"*, %"class.device::Gamepad"*)* %277, null
  call void @_ZN6device18GamepadDataFetcher20UpdateGamepadStringsERKNSt3__112basic_stringIcNS1_11char_traitsIcEENS1_9allocatorIcEEEEttbRNS_7GamepadE(%"class.std::__1::basic_string"* nonnull dereferenceable(24) %9, i16 zeroext %76, i16 zeroext %78, i1 zeroext %280, %"class.device::Gamepad"* dereferenceable(920) %279) #13
  %281 = getelementptr inbounds %"struct.device::PadState", %"struct.device::PadState"* %183, i64 0, i32 6, i32 10, i32 1
  store i32 1, i32* %281, align 4
  %282 = call zeroext i1 @_ZNK6device18GamepadDeviceLinux17SupportsVibrationEv(%"class.device::GamepadDeviceLinux"* nonnull %12) #13
  %283 = getelementptr inbounds %"struct.device::PadState", %"struct.device::PadState"* %183, i64 0, i32 6, i32 10, i32 0
  %284 = zext i1 %282 to i8
  store i8 %284, i8* %283, align 4
  %285 = getelementptr inbounds %"class.device::Gamepad", %"class.device::Gamepad"* %279, i64 0, i32 0
  store i8 1, i8* %285, align 4
  br label %286

286:                                              ; preds = %264, %220, %167, %115, %263, %229, %219, %185, %166, %132, %114, %80, %276, %227
  %287 = bitcast %"class.std::__1::basic_string"* %9 to %"struct.std::__1::basic_string<char, std::__1::char_traits<char>, std::__1::allocator<char> >::__short"*
  %288 = getelementptr inbounds %"struct.std::__1::basic_string<char, std::__1::char_traits<char>, std::__1::allocator<char> >::__short", %"struct.std::__1::basic_string<char, std::__1::char_traits<char>, std::__1::allocator<char> >::__short"* %287, i64 0, i32 1, i32 0
  %289 = load i8, i8* %288, align 1
  %290 = icmp slt i8 %289, 0
  br i1 %290, label %291, label %293

291:                                              ; preds = %286
  %292 = load i8*, i8** %59, align 8
  call void @_ZdlPv(i8* %292) #14
  br label %293

293:                                              ; preds = %286, %291
  call void @llvm.lifetime.end.p0i8(i64 24, i8* nonnull %58) #13
  br label %294

294:                                              ; preds = %53, %52, %18, %16, %3, %293
  ret void
}

; Function Attrs: nounwind ssp uwtable
define hidden void @_ZN6device31GamepadPlatformDataFetcherLinux18RefreshEvdevDeviceEP11udev_deviceRKNS_16UdevGamepadLinuxE(%"class.device::GamepadPlatformDataFetcherLinux"*, %struct.udev_device* nocapture readnone, %"class.device::UdevGamepadLinux"* dereferenceable(56)) local_unnamed_addr #0 align 2 {
  %4 = alloca %"class.std::__1::unique_ptr.150", align 8
  %5 = alloca %"class.std::__1::basic_string", align 8
  %6 = tail call %"class.device::GamepadDeviceLinux"* @_ZN6device31GamepadPlatformDataFetcherLinux25GetOrCreateMatchingDeviceERKNS_16UdevGamepadLinuxE(%"class.device::GamepadPlatformDataFetcherLinux"* %0, %"class.device::UdevGamepadLinux"* dereferenceable(56) %2)
  %7 = icmp eq %"class.device::GamepadDeviceLinux"* %6, null
  br i1 %7, label %106, label %8

8:                                                ; preds = %3
  %9 = tail call zeroext i1 @_ZN6device18GamepadDeviceLinux13OpenEvdevNodeERKNS_16UdevGamepadLinuxE(%"class.device::GamepadDeviceLinux"* nonnull %6, %"class.device::UdevGamepadLinux"* dereferenceable(56) %2) #13
  br i1 %9, label %51, label %10

10:                                               ; preds = %8
  %11 = tail call zeroext i1 @_ZNK6device18GamepadDeviceLinux7IsEmptyEv(%"class.device::GamepadDeviceLinux"* nonnull %6) #13
  br i1 %11, label %12, label %106

12:                                               ; preds = %10
  %13 = getelementptr inbounds %"class.device::GamepadPlatformDataFetcherLinux", %"class.device::GamepadPlatformDataFetcherLinux"* %0, i64 0, i32 2, i32 0, i32 1, i32 0, i32 0, i32 0
  %14 = bitcast %"struct.std::__1::__hash_node_base"** %13 to i64*
  %15 = load i64, i64* %14, align 8
  %16 = icmp eq i64 %15, 0
  br i1 %16, label %106, label %17

17:                                               ; preds = %12, %47
  %18 = phi i64 [ %49, %47 ], [ %15, %12 ]
  %19 = inttoptr i64 %18 to %"struct.std::__1::__hash_node"*
  %20 = getelementptr inbounds %"struct.std::__1::__hash_node", %"struct.std::__1::__hash_node"* %19, i64 0, i32 2, i32 0, i32 0, i32 0
  %21 = load %"class.device::GamepadDeviceLinux"*, %"class.device::GamepadDeviceLinux"** %20, align 8
  %22 = icmp eq %"class.device::GamepadDeviceLinux"* %21, %6
  br i1 %22, label %23, label %47

23:                                               ; preds = %17
  %24 = inttoptr i64 %18 to %"struct.std::__1::__hash_node_base"*
  %25 = getelementptr inbounds %"class.device::GamepadDeviceLinux", %"class.device::GamepadDeviceLinux"* %6, i64 0, i32 0
  tail call void @_ZN6device21AbstractHapticGamepad8ShutdownEv(%"class.device::AbstractHapticGamepad"* %25) #13
  %26 = getelementptr inbounds %"class.device::GamepadPlatformDataFetcherLinux", %"class.device::GamepadPlatformDataFetcherLinux"* %0, i64 0, i32 2, i32 0
  %27 = bitcast %"class.std::__1::unique_ptr.150"* %4 to i8*
  call void @llvm.lifetime.start.p0i8(i64 24, i8* nonnull %27) #13
  call void @_ZNSt3__112__hash_tableINS_10unique_ptrIN6device18GamepadDeviceLinuxENS_14default_deleteIS3_EEEENS_4hashIS6_EENS_8equal_toIS6_EENS_9allocatorIS6_EEE6removeENS_21__hash_const_iteratorIPNS_11__hash_nodeIS6_PvEEEE(%"class.std::__1::unique_ptr.150"* nonnull sret %4, %"class.std::__1::__hash_table"* %26, %"struct.std::__1::__hash_node_base"* nonnull %24) #13
  %28 = getelementptr inbounds %"class.std::__1::unique_ptr.150", %"class.std::__1::unique_ptr.150"* %4, i64 0, i32 0, i32 0, i32 0
  %29 = load %"struct.std::__1::__hash_node"*, %"struct.std::__1::__hash_node"** %28, align 8
  store %"struct.std::__1::__hash_node"* null, %"struct.std::__1::__hash_node"** %28, align 8
  %30 = icmp eq %"struct.std::__1::__hash_node"* %29, null
  br i1 %30, label %46, label %31

31:                                               ; preds = %23
  %32 = getelementptr inbounds %"class.std::__1::unique_ptr.150", %"class.std::__1::unique_ptr.150"* %4, i64 0, i32 0, i32 1, i32 0, i32 1
  %33 = load i8, i8* %32, align 8, !range !5
  %34 = icmp eq i8 %33, 0
  br i1 %34, label %44, label %35

35:                                               ; preds = %31
  %36 = getelementptr inbounds %"struct.std::__1::__hash_node", %"struct.std::__1::__hash_node"* %29, i64 0, i32 2, i32 0, i32 0, i32 0
  %37 = load %"class.device::GamepadDeviceLinux"*, %"class.device::GamepadDeviceLinux"** %36, align 8
  store %"class.device::GamepadDeviceLinux"* null, %"class.device::GamepadDeviceLinux"** %36, align 8
  %38 = icmp eq %"class.device::GamepadDeviceLinux"* %37, null
  br i1 %38, label %44, label %39

39:                                               ; preds = %35
  %40 = bitcast %"class.device::GamepadDeviceLinux"* %37 to void (%"class.device::GamepadDeviceLinux"*)***
  %41 = load void (%"class.device::GamepadDeviceLinux"*)**, void (%"class.device::GamepadDeviceLinux"*)*** %40, align 8
  %42 = getelementptr inbounds void (%"class.device::GamepadDeviceLinux"*)*, void (%"class.device::GamepadDeviceLinux"*)** %41, i64 1
  %43 = load void (%"class.device::GamepadDeviceLinux"*)*, void (%"class.device::GamepadDeviceLinux"*)** %42, align 8
  call void %43(%"class.device::GamepadDeviceLinux"* nonnull %37) #13
  br label %44

44:                                               ; preds = %39, %35, %31
  %45 = bitcast %"struct.std::__1::__hash_node"* %29 to i8*
  call void @_ZdlPv(i8* %45) #14
  br label %46

46:                                               ; preds = %44, %23
  call void @llvm.lifetime.end.p0i8(i64 24, i8* nonnull %27) #13
  br label %106

47:                                               ; preds = %17
  %48 = inttoptr i64 %18 to i64*
  %49 = load i64, i64* %48, align 8
  %50 = icmp eq i64 %49, 0
  br i1 %50, label %106, label %17

51:                                               ; preds = %8
  %52 = getelementptr inbounds %"class.device::GamepadDeviceLinux", %"class.device::GamepadDeviceLinux"* %6, i64 0, i32 3
  %53 = load i32, i32* %52, align 8
  %54 = icmp sgt i32 %53, -1
  br i1 %54, label %55, label %106

55:                                               ; preds = %51
  %56 = getelementptr inbounds %"class.device::GamepadPlatformDataFetcherLinux", %"class.device::GamepadPlatformDataFetcherLinux"* %0, i64 0, i32 0, i32 1
  %57 = load %"class.device::GamepadPadStateProvider"*, %"class.device::GamepadPadStateProvider"** %56, align 8
  %58 = icmp eq %"class.device::GamepadPadStateProvider"* %57, null
  br i1 %58, label %106, label %59

59:                                               ; preds = %55
  %60 = getelementptr inbounds %"class.device::GamepadPlatformDataFetcherLinux", %"class.device::GamepadPlatformDataFetcherLinux"* %0, i64 0, i32 0
  %61 = bitcast %"class.device::GamepadPlatformDataFetcherLinux"* %0 to i32 (%"class.device::GamepadDataFetcher"*)***
  %62 = load i32 (%"class.device::GamepadDataFetcher"*)**, i32 (%"class.device::GamepadDataFetcher"*)*** %61, align 8
  %63 = getelementptr inbounds i32 (%"class.device::GamepadDataFetcher"*)*, i32 (%"class.device::GamepadDataFetcher"*)** %62, i64 6
  %64 = load i32 (%"class.device::GamepadDataFetcher"*)*, i32 (%"class.device::GamepadDataFetcher"*)** %63, align 8
  %65 = tail call i32 %64(%"class.device::GamepadDataFetcher"* %60) #13
  %66 = tail call %"struct.device::PadState"* @_ZN6device23GamepadPadStateProvider11GetPadStateENS_13GamepadSourceEib(%"class.device::GamepadPadStateProvider"* nonnull %57, i32 %65, i32 %53, i1 zeroext true) #13
  %67 = icmp eq %"struct.device::PadState"* %66, null
  br i1 %67, label %106, label %68

68:                                               ; preds = %59
  %69 = tail call void (%"class.device::Gamepad"*, %"class.device::Gamepad"*)* @_ZNK6device18GamepadDeviceLinux18GetMappingFunctionEv(%"class.device::GamepadDeviceLinux"* nonnull %6) #13
  %70 = getelementptr inbounds %"struct.device::PadState", %"struct.device::PadState"* %66, i64 0, i32 7
  %71 = load void (%"class.device::Gamepad"*, %"class.device::Gamepad"*)*, void (%"class.device::Gamepad"*, %"class.device::Gamepad"*)** %70, align 8
  %72 = icmp eq void (%"class.device::Gamepad"*, %"class.device::Gamepad"*)* %69, %71
  br i1 %72, label %102, label %73

73:                                               ; preds = %68
  %74 = getelementptr inbounds %"struct.device::PadState", %"struct.device::PadState"* %66, i64 0, i32 6
  store void (%"class.device::Gamepad"*, %"class.device::Gamepad"*)* %69, void (%"class.device::Gamepad"*, %"class.device::Gamepad"*)** %70, align 8
  %75 = bitcast %"class.std::__1::basic_string"* %5 to i8*
  call void @llvm.lifetime.start.p0i8(i64 24, i8* nonnull %75) #13
  %76 = getelementptr inbounds %"class.device::GamepadDeviceLinux", %"class.device::GamepadDeviceLinux"* %6, i64 0, i32 10
  %77 = bitcast %"class.std::__1::basic_string"* %76 to %"struct.std::__1::basic_string<char, std::__1::char_traits<char>, std::__1::allocator<char> >::__short"*
  %78 = getelementptr inbounds %"struct.std::__1::basic_string<char, std::__1::char_traits<char>, std::__1::allocator<char> >::__short", %"struct.std::__1::basic_string<char, std::__1::char_traits<char>, std::__1::allocator<char> >::__short"* %77, i64 0, i32 1, i32 0
  %79 = load i8, i8* %78, align 1, !noalias !9
  %80 = icmp slt i8 %79, 0
  br i1 %80, label %83, label %81

81:                                               ; preds = %73
  %82 = bitcast %"class.std::__1::basic_string"* %76 to i8*
  call void @llvm.memcpy.p0i8.p0i8.i64(i8* nonnull align 8 %75, i8* align 8 %82, i64 24, i1 false) #13
  br label %88

83:                                               ; preds = %73
  %84 = getelementptr inbounds %"class.std::__1::basic_string", %"class.std::__1::basic_string"* %76, i64 0, i32 0, i32 0, i32 0, i32 0, i32 0, i32 0
  %85 = load i8*, i8** %84, align 8, !noalias !9
  %86 = getelementptr inbounds %"class.device::GamepadDeviceLinux", %"class.device::GamepadDeviceLinux"* %6, i64 0, i32 10, i32 0, i32 0, i32 0, i32 0, i32 0, i32 1
  %87 = load i64, i64* %86, align 8, !noalias !9
  call void @_ZNSt3__112basic_stringIcNS_11char_traitsIcEENS_9allocatorIcEEE25__init_copy_ctor_externalEPKcm(%"class.std::__1::basic_string"* nonnull %5, i8* %85, i64 %87) #13
  br label %88

88:                                               ; preds = %81, %83
  %89 = getelementptr inbounds %"class.device::GamepadDeviceLinux", %"class.device::GamepadDeviceLinux"* %6, i64 0, i32 6
  %90 = load i16, i16* %89, align 4
  %91 = getelementptr inbounds %"class.device::GamepadDeviceLinux", %"class.device::GamepadDeviceLinux"* %6, i64 0, i32 7
  %92 = load i16, i16* %91, align 2
  %93 = icmp ne void (%"class.device::Gamepad"*, %"class.device::Gamepad"*)* %69, null
  call void @_ZN6device18GamepadDataFetcher20UpdateGamepadStringsERKNSt3__112basic_stringIcNS1_11char_traitsIcEENS1_9allocatorIcEEEEttbRNS_7GamepadE(%"class.std::__1::basic_string"* nonnull dereferenceable(24) %5, i16 zeroext %90, i16 zeroext %92, i1 zeroext %93, %"class.device::Gamepad"* dereferenceable(920) %74) #13
  %94 = bitcast %"class.std::__1::basic_string"* %5 to %"struct.std::__1::basic_string<char, std::__1::char_traits<char>, std::__1::allocator<char> >::__short"*
  %95 = getelementptr inbounds %"struct.std::__1::basic_string<char, std::__1::char_traits<char>, std::__1::allocator<char> >::__short", %"struct.std::__1::basic_string<char, std::__1::char_traits<char>, std::__1::allocator<char> >::__short"* %94, i64 0, i32 1, i32 0
  %96 = load i8, i8* %95, align 1
  %97 = icmp slt i8 %96, 0
  br i1 %97, label %98, label %101

98:                                               ; preds = %88
  %99 = getelementptr inbounds %"class.std::__1::basic_string", %"class.std::__1::basic_string"* %5, i64 0, i32 0, i32 0, i32 0, i32 0, i32 0, i32 0
  %100 = load i8*, i8** %99, align 8
  call void @_ZdlPv(i8* %100) #14
  br label %101

101:                                              ; preds = %88, %98
  call void @llvm.lifetime.end.p0i8(i64 24, i8* nonnull %75) #13
  br label %102

102:                                              ; preds = %68, %101
  %103 = call zeroext i1 @_ZNK6device18GamepadDeviceLinux17SupportsVibrationEv(%"class.device::GamepadDeviceLinux"* nonnull %6) #13
  %104 = getelementptr inbounds %"struct.device::PadState", %"struct.device::PadState"* %66, i64 0, i32 6, i32 10, i32 0
  %105 = zext i1 %103 to i8
  store i8 %105, i8* %104, align 4
  br label %106

106:                                              ; preds = %47, %55, %46, %12, %51, %59, %102, %10, %3
  ret void
}

; Function Attrs: nounwind ssp uwtable
define hidden void @_ZN6device31GamepadPlatformDataFetcherLinux19RefreshHidrawDeviceEP11udev_deviceRKNS_16UdevGamepadLinuxE(%"class.device::GamepadPlatformDataFetcherLinux"*, %struct.udev_device* nocapture readnone, %"class.device::UdevGamepadLinux"* dereferenceable(56)) local_unnamed_addr #0 align 2 {
  %4 = alloca %"class.base::internal::WeakReference", align 8
  %5 = alloca %"class.base::OnceCallback.126", align 8
  %6 = alloca %"class.base::WeakPtr", align 8
  %7 = tail call %"class.device::GamepadDeviceLinux"* @_ZN6device31GamepadPlatformDataFetcherLinux25GetOrCreateMatchingDeviceERKNS_16UdevGamepadLinuxE(%"class.device::GamepadPlatformDataFetcherLinux"* %0, %"class.device::UdevGamepadLinux"* dereferenceable(56) %2)
  %8 = icmp eq %"class.device::GamepadDeviceLinux"* %7, null
  br i1 %8, label %29, label %9

9:                                                ; preds = %3
  %10 = bitcast %"class.base::WeakPtr"* %6 to i8*
  call void @llvm.lifetime.start.p0i8(i64 16, i8* nonnull %10) #13
  %11 = bitcast %"class.base::internal::WeakReference"* %4 to i8*
  call void @llvm.lifetime.start.p0i8(i64 8, i8* nonnull %11) #13, !noalias !12
  %12 = getelementptr inbounds %"class.device::GamepadPlatformDataFetcherLinux", %"class.device::GamepadPlatformDataFetcherLinux"* %0, i64 0, i32 5, i32 0, i32 0
  call void @_ZNK4base8internal18WeakReferenceOwner6GetRefEv(%"class.base::internal::WeakReference"* nonnull sret %4, %"class.base::internal::WeakReferenceOwner"* %12) #13, !noalias !12
  %13 = getelementptr inbounds %"class.device::GamepadPlatformDataFetcherLinux", %"class.device::GamepadPlatformDataFetcherLinux"* %0, i64 0, i32 5, i32 0, i32 1
  %14 = load i64, i64* %13, align 8, !noalias !12
  %15 = getelementptr inbounds %"class.base::WeakPtr", %"class.base::WeakPtr"* %6, i64 0, i32 0
  call void @_ZN4base8internal11WeakPtrBaseC2ERKNS0_13WeakReferenceEm(%"class.base::internal::WeakPtrBase"* nonnull %15, %"class.base::internal::WeakReference"* nonnull dereferenceable(8) %4, i64 %14) #13
  call void @_ZN4base8internal13WeakReferenceD1Ev(%"class.base::internal::WeakReference"* nonnull %4) #13
  call void @llvm.lifetime.end.p0i8(i64 8, i8* nonnull %11) #13, !noalias !12
  %16 = call i8* @_Znwm(i64 64) #14, !noalias !15
  %17 = bitcast i8* %16 to %"class.base::internal::BindStateBase"*
  call void @_ZN4base8internal13BindStateBaseC2EPFvvEPFvPKS1_EPFbS5_NS1_21CancellationQueryModeEE(%"class.base::internal::BindStateBase"* nonnull %17, void ()* bitcast (void (%"class.base::internal::BindStateBase"*, %"class.device::GamepadDeviceLinux"*)* @_ZN4base8internal7InvokerINS0_9BindStateIMN6device31GamepadPlatformDataFetcherLinuxEFvPNS3_18GamepadDeviceLinuxEEJNS_7WeakPtrIS4_EEEEEFvS6_EE7RunOnceEPNS0_13BindStateBaseES6_ to void ()*), void (%"class.base::internal::BindStateBase"*)* nonnull @_ZN4base8internal9BindStateIMN6device31GamepadPlatformDataFetcherLinuxEFvPNS2_18GamepadDeviceLinuxEEJNS_7WeakPtrIS3_EEEE7DestroyEPKNS0_13BindStateBaseE, i1 (%"class.base::internal::BindStateBase"*, i32)* nonnull @_ZN4base8internal23QueryCancellationTraitsINS0_9BindStateIMN6device31GamepadPlatformDataFetcherLinuxEFvPNS3_18GamepadDeviceLinuxEEJNS_7WeakPtrIS4_EEEEEEEbPKNS0_13BindStateBaseENSC_21CancellationQueryModeE) #13, !noalias !15
  %18 = getelementptr inbounds i8, i8* %16, i64 32
  %19 = bitcast i8* %18 to <2 x i64>*
  store <2 x i64> <i64 ptrtoint (void (%"class.device::GamepadPlatformDataFetcherLinux"*, %"class.device::GamepadDeviceLinux"*)* @_ZN6device31GamepadPlatformDataFetcherLinux20OnHidrawDeviceOpenedEPNS_18GamepadDeviceLinuxE to i64), i64 0>, <2 x i64>* %19, align 8, !noalias !15
  %20 = getelementptr inbounds i8, i8* %16, i64 48
  %21 = bitcast i8* %20 to %"class.base::internal::WeakReference"*
  %22 = getelementptr inbounds %"class.base::WeakPtr", %"class.base::WeakPtr"* %6, i64 0, i32 0, i32 0
  call void @_ZN4base8internal13WeakReferenceC1EOS1_(%"class.base::internal::WeakReference"* %21, %"class.base::internal::WeakReference"* nonnull dereferenceable(8) %22) #13, !noalias !15
  %23 = getelementptr inbounds i8, i8* %16, i64 56
  %24 = bitcast i8* %23 to i64*
  %25 = getelementptr inbounds %"class.base::WeakPtr", %"class.base::WeakPtr"* %6, i64 0, i32 0, i32 1
  %26 = load i64, i64* %25, align 8, !noalias !15
  store i64 %26, i64* %24, align 8, !noalias !15
  %27 = bitcast %"class.base::OnceCallback.126"* %5 to i8**
  store i8* %16, i8** %27, align 8, !alias.scope !15
  call void @_ZN6device18GamepadDeviceLinux14OpenHidrawNodeERKNS_16UdevGamepadLinuxEN4base12OnceCallbackIFvPS0_EEE(%"class.device::GamepadDeviceLinux"* nonnull %7, %"class.device::UdevGamepadLinux"* dereferenceable(56) %2, %"class.base::OnceCallback.126"* nonnull %5) #13
  %28 = getelementptr inbounds %"class.base::OnceCallback.126", %"class.base::OnceCallback.126"* %5, i64 0, i32 0
  call void @_ZN4base8internal12CallbackBaseD2Ev(%"class.base::internal::CallbackBase"* nonnull %28) #13
  call void @_ZN4base8internal11WeakPtrBaseD2Ev(%"class.base::internal::WeakPtrBase"* nonnull %15) #13
  call void @llvm.lifetime.end.p0i8(i64 16, i8* nonnull %10) #13
  br label %29

29:                                               ; preds = %3, %9
  ret void
}

; Function Attrs: nounwind readonly ssp uwtable
define hidden %"class.device::GamepadDeviceLinux"* @_ZN6device31GamepadPlatformDataFetcherLinux24GetDeviceWithJoydevIndexEi(%"class.device::GamepadPlatformDataFetcherLinux"* nocapture readonly, i32) local_unnamed_addr #6 align 2 {
  %3 = getelementptr inbounds %"class.device::GamepadPlatformDataFetcherLinux", %"class.device::GamepadPlatformDataFetcherLinux"* %0, i64 0, i32 2, i32 0, i32 1, i32 0, i32 0, i32 0
  %4 = bitcast %"struct.std::__1::__hash_node_base"** %3 to i64*
  %5 = load i64, i64* %4, align 8
  %6 = icmp eq i64 %5, 0
  br i1 %6, label %19, label %7

7:                                                ; preds = %2, %15
  %8 = phi i64 [ %17, %15 ], [ %5, %2 ]
  %9 = inttoptr i64 %8 to %"struct.std::__1::__hash_node"*
  %10 = getelementptr inbounds %"struct.std::__1::__hash_node", %"struct.std::__1::__hash_node"* %9, i64 0, i32 2, i32 0, i32 0, i32 0
  %11 = load %"class.device::GamepadDeviceLinux"*, %"class.device::GamepadDeviceLinux"** %10, align 8
  %12 = getelementptr inbounds %"class.device::GamepadDeviceLinux", %"class.device::GamepadDeviceLinux"* %11, i64 0, i32 3
  %13 = load i32, i32* %12, align 8
  %14 = icmp eq i32 %13, %1
  br i1 %14, label %19, label %15

15:                                               ; preds = %7
  %16 = inttoptr i64 %8 to i64*
  %17 = load i64, i64* %16, align 8
  %18 = icmp eq i64 %17, 0
  br i1 %18, label %19, label %7

19:                                               ; preds = %15, %7, %2
  %20 = phi %"class.device::GamepadDeviceLinux"* [ null, %2 ], [ %11, %7 ], [ null, %15 ]
  ret %"class.device::GamepadDeviceLinux"* %20
}

; Function Attrs: nounwind ssp uwtable
define hidden void @_ZN6device31GamepadPlatformDataFetcherLinux12RemoveDeviceEPNS_18GamepadDeviceLinuxE(%"class.device::GamepadPlatformDataFetcherLinux"*, %"class.device::GamepadDeviceLinux"*) local_unnamed_addr #0 align 2 {
  %3 = alloca %"class.std::__1::unique_ptr.150", align 8
  %4 = getelementptr inbounds %"class.device::GamepadPlatformDataFetcherLinux", %"class.device::GamepadPlatformDataFetcherLinux"* %0, i64 0, i32 2, i32 0, i32 1, i32 0, i32 0, i32 0
  %5 = bitcast %"struct.std::__1::__hash_node_base"** %4 to i64*
  %6 = load i64, i64* %5, align 8
  %7 = icmp eq i64 %6, 0
  br i1 %7, label %42, label %8

8:                                                ; preds = %2, %38
  %9 = phi i64 [ %40, %38 ], [ %6, %2 ]
  %10 = inttoptr i64 %9 to %"struct.std::__1::__hash_node"*
  %11 = getelementptr inbounds %"struct.std::__1::__hash_node", %"struct.std::__1::__hash_node"* %10, i64 0, i32 2, i32 0, i32 0, i32 0
  %12 = load %"class.device::GamepadDeviceLinux"*, %"class.device::GamepadDeviceLinux"** %11, align 8
  %13 = icmp eq %"class.device::GamepadDeviceLinux"* %12, %1
  br i1 %13, label %14, label %38

14:                                               ; preds = %8
  %15 = inttoptr i64 %9 to %"struct.std::__1::__hash_node_base"*
  %16 = getelementptr inbounds %"class.device::GamepadDeviceLinux", %"class.device::GamepadDeviceLinux"* %1, i64 0, i32 0
  tail call void @_ZN6device21AbstractHapticGamepad8ShutdownEv(%"class.device::AbstractHapticGamepad"* %16) #13
  %17 = getelementptr inbounds %"class.device::GamepadPlatformDataFetcherLinux", %"class.device::GamepadPlatformDataFetcherLinux"* %0, i64 0, i32 2, i32 0
  %18 = bitcast %"class.std::__1::unique_ptr.150"* %3 to i8*
  call void @llvm.lifetime.start.p0i8(i64 24, i8* nonnull %18) #13
  call void @_ZNSt3__112__hash_tableINS_10unique_ptrIN6device18GamepadDeviceLinuxENS_14default_deleteIS3_EEEENS_4hashIS6_EENS_8equal_toIS6_EENS_9allocatorIS6_EEE6removeENS_21__hash_const_iteratorIPNS_11__hash_nodeIS6_PvEEEE(%"class.std::__1::unique_ptr.150"* nonnull sret %3, %"class.std::__1::__hash_table"* %17, %"struct.std::__1::__hash_node_base"* nonnull %15) #13
  %19 = getelementptr inbounds %"class.std::__1::unique_ptr.150", %"class.std::__1::unique_ptr.150"* %3, i64 0, i32 0, i32 0, i32 0
  %20 = load %"struct.std::__1::__hash_node"*, %"struct.std::__1::__hash_node"** %19, align 8
  store %"struct.std::__1::__hash_node"* null, %"struct.std::__1::__hash_node"** %19, align 8
  %21 = icmp eq %"struct.std::__1::__hash_node"* %20, null
  br i1 %21, label %37, label %22

22:                                               ; preds = %14
  %23 = getelementptr inbounds %"class.std::__1::unique_ptr.150", %"class.std::__1::unique_ptr.150"* %3, i64 0, i32 0, i32 1, i32 0, i32 1
  %24 = load i8, i8* %23, align 8, !range !5
  %25 = icmp eq i8 %24, 0
  br i1 %25, label %35, label %26

26:                                               ; preds = %22
  %27 = getelementptr inbounds %"struct.std::__1::__hash_node", %"struct.std::__1::__hash_node"* %20, i64 0, i32 2, i32 0, i32 0, i32 0
  %28 = load %"class.device::GamepadDeviceLinux"*, %"class.device::GamepadDeviceLinux"** %27, align 8
  store %"class.device::GamepadDeviceLinux"* null, %"class.device::GamepadDeviceLinux"** %27, align 8
  %29 = icmp eq %"class.device::GamepadDeviceLinux"* %28, null
  br i1 %29, label %35, label %30

30:                                               ; preds = %26
  %31 = bitcast %"class.device::GamepadDeviceLinux"* %28 to void (%"class.device::GamepadDeviceLinux"*)***
  %32 = load void (%"class.device::GamepadDeviceLinux"*)**, void (%"class.device::GamepadDeviceLinux"*)*** %31, align 8
  %33 = getelementptr inbounds void (%"class.device::GamepadDeviceLinux"*)*, void (%"class.device::GamepadDeviceLinux"*)** %32, i64 1
  %34 = load void (%"class.device::GamepadDeviceLinux"*)*, void (%"class.device::GamepadDeviceLinux"*)** %33, align 8
  call void %34(%"class.device::GamepadDeviceLinux"* nonnull %28) #13
  br label %35

35:                                               ; preds = %30, %26, %22
  %36 = bitcast %"struct.std::__1::__hash_node"* %20 to i8*
  call void @_ZdlPv(i8* %36) #14
  br label %37

37:                                               ; preds = %14, %35
  call void @llvm.lifetime.end.p0i8(i64 24, i8* nonnull %18) #13
  br label %42

38:                                               ; preds = %8
  %39 = inttoptr i64 %9 to i64*
  %40 = load i64, i64* %39, align 8
  %41 = icmp eq i64 %40, 0
  br i1 %41, label %42, label %8

42:                                               ; preds = %38, %2, %37
  ret void
}

; Function Attrs: nounwind ssp uwtable
define hidden zeroext i1 @_ZN6device31GamepadPlatformDataFetcherLinux29DisconnectUnrecognizedGamepadEi(%"class.device::GamepadPlatformDataFetcherLinux"*, i32) unnamed_addr #0 align 2 {
  %3 = alloca %"class.std::__1::unique_ptr.150", align 8
  %4 = getelementptr inbounds %"class.device::GamepadPlatformDataFetcherLinux", %"class.device::GamepadPlatformDataFetcherLinux"* %0, i64 0, i32 2, i32 0, i32 1, i32 0, i32 0, i32 0
  %5 = bitcast %"struct.std::__1::__hash_node_base"** %4 to i64*
  %6 = load i64, i64* %5, align 8
  %7 = icmp eq i64 %6, 0
  br i1 %7, label %44, label %8

8:                                                ; preds = %2, %39
  %9 = phi i64 [ %41, %39 ], [ %6, %2 ]
  %10 = inttoptr i64 %9 to %"struct.std::__1::__hash_node"*
  %11 = getelementptr inbounds %"struct.std::__1::__hash_node", %"struct.std::__1::__hash_node"* %10, i64 0, i32 2, i32 0, i32 0, i32 0
  %12 = load %"class.device::GamepadDeviceLinux"*, %"class.device::GamepadDeviceLinux"** %11, align 8
  %13 = getelementptr inbounds %"class.device::GamepadDeviceLinux", %"class.device::GamepadDeviceLinux"* %12, i64 0, i32 3
  %14 = load i32, i32* %13, align 8
  %15 = icmp eq i32 %14, %1
  br i1 %15, label %16, label %39

16:                                               ; preds = %8
  %17 = inttoptr i64 %9 to %"struct.std::__1::__hash_node_base"*
  %18 = getelementptr inbounds %"class.device::GamepadDeviceLinux", %"class.device::GamepadDeviceLinux"* %12, i64 0, i32 0
  tail call void @_ZN6device21AbstractHapticGamepad8ShutdownEv(%"class.device::AbstractHapticGamepad"* %18) #13
  %19 = getelementptr inbounds %"class.device::GamepadPlatformDataFetcherLinux", %"class.device::GamepadPlatformDataFetcherLinux"* %0, i64 0, i32 2, i32 0
  %20 = bitcast %"class.std::__1::unique_ptr.150"* %3 to i8*
  call void @llvm.lifetime.start.p0i8(i64 24, i8* nonnull %20) #13
  call void @_ZNSt3__112__hash_tableINS_10unique_ptrIN6device18GamepadDeviceLinuxENS_14default_deleteIS3_EEEENS_4hashIS6_EENS_8equal_toIS6_EENS_9allocatorIS6_EEE6removeENS_21__hash_const_iteratorIPNS_11__hash_nodeIS6_PvEEEE(%"class.std::__1::unique_ptr.150"* nonnull sret %3, %"class.std::__1::__hash_table"* %19, %"struct.std::__1::__hash_node_base"* nonnull %17) #13
  %21 = getelementptr inbounds %"class.std::__1::unique_ptr.150", %"class.std::__1::unique_ptr.150"* %3, i64 0, i32 0, i32 0, i32 0
  %22 = load %"struct.std::__1::__hash_node"*, %"struct.std::__1::__hash_node"** %21, align 8
  store %"struct.std::__1::__hash_node"* null, %"struct.std::__1::__hash_node"** %21, align 8
  %23 = icmp eq %"struct.std::__1::__hash_node"* %22, null
  br i1 %23, label %43, label %24

24:                                               ; preds = %16
  %25 = getelementptr inbounds %"class.std::__1::unique_ptr.150", %"class.std::__1::unique_ptr.150"* %3, i64 0, i32 0, i32 1, i32 0, i32 1
  %26 = load i8, i8* %25, align 8, !range !5
  %27 = icmp eq i8 %26, 0
  br i1 %27, label %37, label %28

28:                                               ; preds = %24
  %29 = getelementptr inbounds %"struct.std::__1::__hash_node", %"struct.std::__1::__hash_node"* %22, i64 0, i32 2, i32 0, i32 0, i32 0
  %30 = load %"class.device::GamepadDeviceLinux"*, %"class.device::GamepadDeviceLinux"** %29, align 8
  store %"class.device::GamepadDeviceLinux"* null, %"class.device::GamepadDeviceLinux"** %29, align 8
  %31 = icmp eq %"class.device::GamepadDeviceLinux"* %30, null
  br i1 %31, label %37, label %32

32:                                               ; preds = %28
  %33 = bitcast %"class.device::GamepadDeviceLinux"* %30 to void (%"class.device::GamepadDeviceLinux"*)***
  %34 = load void (%"class.device::GamepadDeviceLinux"*)**, void (%"class.device::GamepadDeviceLinux"*)*** %33, align 8
  %35 = getelementptr inbounds void (%"class.device::GamepadDeviceLinux"*)*, void (%"class.device::GamepadDeviceLinux"*)** %34, i64 1
  %36 = load void (%"class.device::GamepadDeviceLinux"*)*, void (%"class.device::GamepadDeviceLinux"*)** %35, align 8
  call void %36(%"class.device::GamepadDeviceLinux"* nonnull %30) #13
  br label %37

37:                                               ; preds = %32, %28, %24
  %38 = bitcast %"struct.std::__1::__hash_node"* %22 to i8*
  call void @_ZdlPv(i8* %38) #14
  br label %43

39:                                               ; preds = %8
  %40 = inttoptr i64 %9 to i64*
  %41 = load i64, i64* %40, align 8
  %42 = icmp eq i64 %41, 0
  br i1 %42, label %44, label %8

43:                                               ; preds = %16, %37
  call void @llvm.lifetime.end.p0i8(i64 24, i8* nonnull %20) #13
  br label %44

44:                                               ; preds = %39, %2, %43
  %45 = phi i1 [ true, %43 ], [ false, %2 ], [ false, %39 ]
  ret i1 %45
}

; Function Attrs: nounwind ssp uwtable
define hidden %"class.device::GamepadDeviceLinux"* @_ZN6device31GamepadPlatformDataFetcherLinux25GetOrCreateMatchingDeviceERKNS_16UdevGamepadLinuxE(%"class.device::GamepadPlatformDataFetcherLinux"*, %"class.device::UdevGamepadLinux"* dereferenceable(56)) local_unnamed_addr #0 align 2 {
  %3 = alloca %"class.std::__1::unique_ptr.110", align 8
  %4 = getelementptr inbounds %"class.device::GamepadPlatformDataFetcherLinux", %"class.device::GamepadPlatformDataFetcherLinux"* %0, i64 0, i32 2, i32 0, i32 1, i32 0, i32 0, i32 0
  %5 = bitcast %"struct.std::__1::__hash_node_base"** %4 to i64*
  %6 = load i64, i64* %5, align 8
  %7 = icmp eq i64 %6, 0
  br i1 %7, label %18, label %8

8:                                                ; preds = %2, %14
  %9 = phi i64 [ %16, %14 ], [ %6, %2 ]
  %10 = inttoptr i64 %9 to %"struct.std::__1::__hash_node"*
  %11 = getelementptr inbounds %"struct.std::__1::__hash_node", %"struct.std::__1::__hash_node"* %10, i64 0, i32 2, i32 0, i32 0, i32 0
  %12 = load %"class.device::GamepadDeviceLinux"*, %"class.device::GamepadDeviceLinux"** %11, align 8
  %13 = tail call zeroext i1 @_ZN6device18GamepadDeviceLinux12IsSameDeviceERKNS_16UdevGamepadLinuxE(%"class.device::GamepadDeviceLinux"* %12, %"class.device::UdevGamepadLinux"* dereferenceable(56) %1) #13
  br i1 %13, label %46, label %14

14:                                               ; preds = %8
  %15 = inttoptr i64 %9 to i64*
  %16 = load i64, i64* %15, align 8
  %17 = icmp eq i64 %16, 0
  br i1 %17, label %18, label %8

18:                                               ; preds = %14, %2
  %19 = bitcast %"class.std::__1::unique_ptr.110"* %3 to i8*
  call void @llvm.lifetime.start.p0i8(i64 8, i8* nonnull %19) #13
  %20 = getelementptr inbounds %"class.device::UdevGamepadLinux", %"class.device::UdevGamepadLinux"* %1, i64 0, i32 3
  %21 = tail call i8* @_Znwm(i64 272) #14
  %22 = bitcast i8* %21 to %"class.device::GamepadDeviceLinux"*
  %23 = getelementptr inbounds %"class.device::GamepadPlatformDataFetcherLinux", %"class.device::GamepadPlatformDataFetcherLinux"* %0, i64 0, i32 4, i32 0
  %24 = load %"class.base::SequencedTaskRunner"*, %"class.base::SequencedTaskRunner"** %23, align 8
  %25 = icmp eq %"class.base::SequencedTaskRunner"* %24, null
  br i1 %25, label %29, label %26

26:                                               ; preds = %18
  %27 = getelementptr inbounds %"class.base::SequencedTaskRunner", %"class.base::SequencedTaskRunner"* %24, i64 0, i32 0, i32 1, i32 0, i32 0, i32 0, i32 0, i32 0, i32 0, i32 0, i32 0
  %28 = atomicrmw add i32* %27, i32 1 monotonic
  br label %29

29:                                               ; preds = %18, %26
  tail call void @_ZN6device18GamepadDeviceLinuxC1ERKNSt3__112basic_stringIcNS1_11char_traitsIcEENS1_9allocatorIcEEEE13scoped_refptrIN4base19SequencedTaskRunnerEE(%"class.device::GamepadDeviceLinux"* nonnull %22, %"class.std::__1::basic_string"* dereferenceable(24) %20, %"class.base::SequencedTaskRunner"* %24) #13
  %30 = getelementptr inbounds %"class.std::__1::unique_ptr.110", %"class.std::__1::unique_ptr.110"* %3, i64 0, i32 0, i32 0, i32 0
  %31 = bitcast %"class.std::__1::unique_ptr.110"* %3 to i8**
  store i8* %21, i8** %31, align 8
  %32 = getelementptr inbounds %"class.device::GamepadPlatformDataFetcherLinux", %"class.device::GamepadPlatformDataFetcherLinux"* %0, i64 0, i32 2, i32 0
  %33 = call { %"struct.std::__1::__hash_node_base"*, i8 } @_ZNSt3__112__hash_tableINS_10unique_ptrIN6device18GamepadDeviceLinuxENS_14default_deleteIS3_EEEENS_4hashIS6_EENS_8equal_toIS6_EENS_9allocatorIS6_EEE25__emplace_unique_key_argsIS6_JS6_EEENS_4pairINS_15__hash_iteratorIPNS_11__hash_nodeIS6_PvEEEEbEERKT_DpOT0_(%"class.std::__1::__hash_table"* %32, %"class.std::__1::unique_ptr.110"* nonnull dereferenceable(8) %3, %"class.std::__1::unique_ptr.110"* nonnull dereferenceable(8) %3) #13
  %34 = extractvalue { %"struct.std::__1::__hash_node_base"*, i8 } %33, 0
  %35 = load %"class.device::GamepadDeviceLinux"*, %"class.device::GamepadDeviceLinux"** %30, align 8
  store %"class.device::GamepadDeviceLinux"* null, %"class.device::GamepadDeviceLinux"** %30, align 8
  %36 = icmp eq %"class.device::GamepadDeviceLinux"* %35, null
  br i1 %36, label %42, label %37

37:                                               ; preds = %29
  %38 = bitcast %"class.device::GamepadDeviceLinux"* %35 to void (%"class.device::GamepadDeviceLinux"*)***
  %39 = load void (%"class.device::GamepadDeviceLinux"*)**, void (%"class.device::GamepadDeviceLinux"*)*** %38, align 8
  %40 = getelementptr inbounds void (%"class.device::GamepadDeviceLinux"*)*, void (%"class.device::GamepadDeviceLinux"*)** %39, i64 1
  %41 = load void (%"class.device::GamepadDeviceLinux"*)*, void (%"class.device::GamepadDeviceLinux"*)** %40, align 8
  call void %41(%"class.device::GamepadDeviceLinux"* nonnull %35) #13
  br label %42

42:                                               ; preds = %29, %37
  call void @llvm.lifetime.end.p0i8(i64 8, i8* nonnull %19) #13
  %43 = getelementptr inbounds %"struct.std::__1::__hash_node_base", %"struct.std::__1::__hash_node_base"* %34, i64 2
  %44 = bitcast %"struct.std::__1::__hash_node_base"* %43 to %"class.device::GamepadDeviceLinux"**
  %45 = load %"class.device::GamepadDeviceLinux"*, %"class.device::GamepadDeviceLinux"** %44, align 8
  br label %46

46:                                               ; preds = %8, %42
  %47 = phi %"class.device::GamepadDeviceLinux"* [ %45, %42 ], [ %12, %8 ]
  ret %"class.device::GamepadDeviceLinux"* %47
}

declare zeroext i1 @_ZN6device18GamepadDeviceLinux12IsSameDeviceERKNS_16UdevGamepadLinuxE(%"class.device::GamepadDeviceLinux"*, %"class.device::UdevGamepadLinux"* dereferenceable(56)) local_unnamed_addr #1

declare zeroext i1 @_ZN6device18GamepadDeviceLinux14OpenJoydevNodeERKNS_16UdevGamepadLinuxEP11udev_device(%"class.device::GamepadDeviceLinux"*, %"class.device::UdevGamepadLinux"* dereferenceable(56), %struct.udev_device*) local_unnamed_addr #1

declare zeroext i1 @_ZNK6device18GamepadDeviceLinux7IsEmptyEv(%"class.device::GamepadDeviceLinux"*) local_unnamed_addr #1

declare zeroext i1 @_ZN6device17GamepadIsExcludedEtt(i16 zeroext, i16 zeroext) local_unnamed_addr #1

declare void @_ZN6device18GamepadDeviceLinux15CloseJoydevNodeEv(%"class.device::GamepadDeviceLinux"*) local_unnamed_addr #1

declare dereferenceable(1) %"class.device::GamepadIdList"* @_ZN6device13GamepadIdList3GetEv() local_unnamed_addr #1

declare i32 @_ZNK6device13GamepadIdList12GetGamepadIdEN4base16BasicStringPieceIcNSt3__111char_traitsIcEEEEtt(%"class.device::GamepadIdList"*, i8*, i64, i16 zeroext, i16 zeroext) local_unnamed_addr #1

declare zeroext i1 @_ZN6device18NintendoController20IsNintendoControllerENS_9GamepadIdE(i32) local_unnamed_addr #1

declare %struct.udev_device* @_ZN6device45udev_device_get_parent_with_subsystem_devtypeEP11udev_devicePKcS3_(%struct.udev_device*, i8*, i8*) local_unnamed_addr #1

declare void @_ZN6device20RecordUnknownGamepadENS_13GamepadSourceE(i32) local_unnamed_addr #1

declare void @_ZN6device22RecordConnectedGamepadENS_9GamepadIdE(i32) local_unnamed_addr #1

declare void (%"class.device::Gamepad"*, %"class.device::Gamepad"*)* @_ZNK6device18GamepadDeviceLinux18GetMappingFunctionEv(%"class.device::GamepadDeviceLinux"*) local_unnamed_addr #1

declare void @_ZN6device18GamepadDataFetcher20UpdateGamepadStringsERKNSt3__112basic_stringIcNS1_11char_traitsIcEENS1_9allocatorIcEEEEttbRNS_7GamepadE(%"class.std::__1::basic_string"* dereferenceable(24), i16 zeroext, i16 zeroext, i1 zeroext, %"class.device::Gamepad"* dereferenceable(920)) local_unnamed_addr #1

declare zeroext i1 @_ZNK6device18GamepadDeviceLinux17SupportsVibrationEv(%"class.device::GamepadDeviceLinux"*) local_unnamed_addr #1

declare zeroext i1 @_ZN6device18GamepadDeviceLinux13OpenEvdevNodeERKNS_16UdevGamepadLinuxE(%"class.device::GamepadDeviceLinux"*, %"class.device::UdevGamepadLinux"* dereferenceable(56)) local_unnamed_addr #1

declare void @_ZN6device18GamepadDeviceLinux14OpenHidrawNodeERKNS_16UdevGamepadLinuxEN4base12OnceCallbackIFvPS0_EEE(%"class.device::GamepadDeviceLinux"*, %"class.device::UdevGamepadLinux"* dereferenceable(56), %"class.base::OnceCallback.126"*) local_unnamed_addr #1

; Function Attrs: nounwind ssp uwtable
define hidden void @_ZN6device31GamepadPlatformDataFetcherLinux20OnHidrawDeviceOpenedEPNS_18GamepadDeviceLinuxE(%"class.device::GamepadPlatformDataFetcherLinux"*, %"class.device::GamepadDeviceLinux"*) #0 align 2 {
  %3 = alloca %"class.std::__1::unique_ptr.150", align 8
  %4 = tail call zeroext i1 @_ZNK6device18GamepadDeviceLinux7IsEmptyEv(%"class.device::GamepadDeviceLinux"* %1) #13
  br i1 %4, label %5, label %44

5:                                                ; preds = %2
  %6 = getelementptr inbounds %"class.device::GamepadPlatformDataFetcherLinux", %"class.device::GamepadPlatformDataFetcherLinux"* %0, i64 0, i32 2, i32 0, i32 1, i32 0, i32 0, i32 0
  %7 = bitcast %"struct.std::__1::__hash_node_base"** %6 to i64*
  %8 = load i64, i64* %7, align 8
  %9 = icmp eq i64 %8, 0
  br i1 %9, label %66, label %10

10:                                               ; preds = %5, %40
  %11 = phi i64 [ %42, %40 ], [ %8, %5 ]
  %12 = inttoptr i64 %11 to %"struct.std::__1::__hash_node"*
  %13 = getelementptr inbounds %"struct.std::__1::__hash_node", %"struct.std::__1::__hash_node"* %12, i64 0, i32 2, i32 0, i32 0, i32 0
  %14 = load %"class.device::GamepadDeviceLinux"*, %"class.device::GamepadDeviceLinux"** %13, align 8
  %15 = icmp eq %"class.device::GamepadDeviceLinux"* %14, %1
  br i1 %15, label %16, label %40

16:                                               ; preds = %10
  %17 = inttoptr i64 %11 to %"struct.std::__1::__hash_node_base"*
  %18 = getelementptr inbounds %"class.device::GamepadDeviceLinux", %"class.device::GamepadDeviceLinux"* %1, i64 0, i32 0
  tail call void @_ZN6device21AbstractHapticGamepad8ShutdownEv(%"class.device::AbstractHapticGamepad"* %18) #13
  %19 = getelementptr inbounds %"class.device::GamepadPlatformDataFetcherLinux", %"class.device::GamepadPlatformDataFetcherLinux"* %0, i64 0, i32 2, i32 0
  %20 = bitcast %"class.std::__1::unique_ptr.150"* %3 to i8*
  call void @llvm.lifetime.start.p0i8(i64 24, i8* nonnull %20) #13
  call void @_ZNSt3__112__hash_tableINS_10unique_ptrIN6device18GamepadDeviceLinuxENS_14default_deleteIS3_EEEENS_4hashIS6_EENS_8equal_toIS6_EENS_9allocatorIS6_EEE6removeENS_21__hash_const_iteratorIPNS_11__hash_nodeIS6_PvEEEE(%"class.std::__1::unique_ptr.150"* nonnull sret %3, %"class.std::__1::__hash_table"* %19, %"struct.std::__1::__hash_node_base"* nonnull %17) #13
  %21 = getelementptr inbounds %"class.std::__1::unique_ptr.150", %"class.std::__1::unique_ptr.150"* %3, i64 0, i32 0, i32 0, i32 0
  %22 = load %"struct.std::__1::__hash_node"*, %"struct.std::__1::__hash_node"** %21, align 8
  store %"struct.std::__1::__hash_node"* null, %"struct.std::__1::__hash_node"** %21, align 8
  %23 = icmp eq %"struct.std::__1::__hash_node"* %22, null
  br i1 %23, label %39, label %24

24:                                               ; preds = %16
  %25 = getelementptr inbounds %"class.std::__1::unique_ptr.150", %"class.std::__1::unique_ptr.150"* %3, i64 0, i32 0, i32 1, i32 0, i32 1
  %26 = load i8, i8* %25, align 8, !range !5
  %27 = icmp eq i8 %26, 0
  br i1 %27, label %37, label %28

28:                                               ; preds = %24
  %29 = getelementptr inbounds %"struct.std::__1::__hash_node", %"struct.std::__1::__hash_node"* %22, i64 0, i32 2, i32 0, i32 0, i32 0
  %30 = load %"class.device::GamepadDeviceLinux"*, %"class.device::GamepadDeviceLinux"** %29, align 8
  store %"class.device::GamepadDeviceLinux"* null, %"class.device::GamepadDeviceLinux"** %29, align 8
  %31 = icmp eq %"class.device::GamepadDeviceLinux"* %30, null
  br i1 %31, label %37, label %32

32:                                               ; preds = %28
  %33 = bitcast %"class.device::GamepadDeviceLinux"* %30 to void (%"class.device::GamepadDeviceLinux"*)***
  %34 = load void (%"class.device::GamepadDeviceLinux"*)**, void (%"class.device::GamepadDeviceLinux"*)*** %33, align 8
  %35 = getelementptr inbounds void (%"class.device::GamepadDeviceLinux"*)*, void (%"class.device::GamepadDeviceLinux"*)** %34, i64 1
  %36 = load void (%"class.device::GamepadDeviceLinux"*)*, void (%"class.device::GamepadDeviceLinux"*)** %35, align 8
  call void %36(%"class.device::GamepadDeviceLinux"* nonnull %30) #13
  br label %37

37:                                               ; preds = %32, %28, %24
  %38 = bitcast %"struct.std::__1::__hash_node"* %22 to i8*
  call void @_ZdlPv(i8* %38) #14
  br label %39

39:                                               ; preds = %37, %16
  call void @llvm.lifetime.end.p0i8(i64 24, i8* nonnull %20) #13
  br label %66

40:                                               ; preds = %10
  %41 = inttoptr i64 %11 to i64*
  %42 = load i64, i64* %41, align 8
  %43 = icmp eq i64 %42, 0
  br i1 %43, label %66, label %10

44:                                               ; preds = %2
  %45 = getelementptr inbounds %"class.device::GamepadDeviceLinux", %"class.device::GamepadDeviceLinux"* %1, i64 0, i32 3
  %46 = load i32, i32* %45, align 8
  %47 = icmp slt i32 %46, 0
  br i1 %47, label %66, label %48

48:                                               ; preds = %44
  %49 = getelementptr inbounds %"class.device::GamepadPlatformDataFetcherLinux", %"class.device::GamepadPlatformDataFetcherLinux"* %0, i64 0, i32 0, i32 1
  %50 = load %"class.device::GamepadPadStateProvider"*, %"class.device::GamepadPadStateProvider"** %49, align 8
  %51 = icmp eq %"class.device::GamepadPadStateProvider"* %50, null
  br i1 %51, label %66, label %52

52:                                               ; preds = %48
  %53 = getelementptr inbounds %"class.device::GamepadPlatformDataFetcherLinux", %"class.device::GamepadPlatformDataFetcherLinux"* %0, i64 0, i32 0
  %54 = bitcast %"class.device::GamepadPlatformDataFetcherLinux"* %0 to i32 (%"class.device::GamepadDataFetcher"*)***
  %55 = load i32 (%"class.device::GamepadDataFetcher"*)**, i32 (%"class.device::GamepadDataFetcher"*)*** %54, align 8
  %56 = getelementptr inbounds i32 (%"class.device::GamepadDataFetcher"*)*, i32 (%"class.device::GamepadDataFetcher"*)** %55, i64 6
  %57 = load i32 (%"class.device::GamepadDataFetcher"*)*, i32 (%"class.device::GamepadDataFetcher"*)** %56, align 8
  %58 = tail call i32 %57(%"class.device::GamepadDataFetcher"* %53) #13
  %59 = tail call %"struct.device::PadState"* @_ZN6device23GamepadPadStateProvider11GetPadStateENS_13GamepadSourceEib(%"class.device::GamepadPadStateProvider"* nonnull %50, i32 %58, i32 %46, i1 zeroext true) #13
  %60 = icmp eq %"struct.device::PadState"* %59, null
  br i1 %60, label %66, label %61

61:                                               ; preds = %52
  %62 = getelementptr inbounds %"struct.device::PadState", %"struct.device::PadState"* %59, i64 0, i32 6, i32 10, i32 1
  store i32 1, i32* %62, align 4
  %63 = tail call zeroext i1 @_ZNK6device18GamepadDeviceLinux17SupportsVibrationEv(%"class.device::GamepadDeviceLinux"* %1) #13
  %64 = getelementptr inbounds %"struct.device::PadState", %"struct.device::PadState"* %59, i64 0, i32 6, i32 10, i32 0
  %65 = zext i1 %63 to i8
  store i8 %65, i8* %64, align 4
  br label %66

66:                                               ; preds = %40, %48, %39, %5, %44, %52, %61
  ret void
}

; Function Attrs: nounwind
declare void @_ZN4base8internal11WeakPtrBaseD2Ev(%"class.base::internal::WeakPtrBase"*) unnamed_addr #5

declare void @_ZN6device18GamepadDeviceLinux12ReadPadStateEPNS_7GamepadE(%"class.device::GamepadDeviceLinux"*, %"class.device::Gamepad"*) local_unnamed_addr #1

; Function Attrs: nounwind ssp uwtable
define hidden void @_ZN6device31GamepadPlatformDataFetcherLinux10PlayEffectEiNS_5mojom23GamepadHapticEffectTypeEN4mojo16InlinedStructPtrINS1_23GamepadEffectParametersEEEN4base12OnceCallbackIFvNS1_20GamepadHapticsResultEEEE13scoped_refptrINS7_19SequencedTaskRunnerEE(%"class.device::GamepadPlatformDataFetcherLinux"* nocapture readonly, i32, i32, %"class.mojo::InlinedStructPtr"* nocapture, %"class.base::OnceCallback"* nocapture, %"class.base::SequencedTaskRunner"*) unnamed_addr #0 align 2 {
  %7 = alloca %"class.device::mojom::GamepadEffectParameters", align 8
  %8 = alloca %"class.base::OnceCallback", align 8
  %9 = alloca %"class.base::OnceCallback", align 8
  %10 = alloca %"class.mojo::InlinedStructPtr", align 8
  %11 = alloca %"class.base::OnceCallback", align 8
  %12 = icmp ugt i32 %1, 3
  br i1 %12, label %13, label %19

13:                                               ; preds = %6
  %14 = getelementptr inbounds %"class.base::OnceCallback", %"class.base::OnceCallback"* %4, i64 0, i32 0, i32 0, i32 0
  %15 = bitcast %"class.base::OnceCallback"* %4 to i64*
  %16 = load i64, i64* %15, align 8
  %17 = bitcast %"class.base::OnceCallback"* %8 to i64*
  store i64 %16, i64* %17, align 8
  store %"class.base::internal::BindStateBase"* null, %"class.base::internal::BindStateBase"** %14, align 8
  call void @_ZN6device18GamepadDataFetcher20RunVibrationCallbackEN4base12OnceCallbackIFvNS_5mojom20GamepadHapticsResultEEEE13scoped_refptrINS1_19SequencedTaskRunnerEES4_(%"class.base::OnceCallback"* nonnull %8, %"class.base::SequencedTaskRunner"* %5, i32 0) #13
  %18 = getelementptr inbounds %"class.base::OnceCallback", %"class.base::OnceCallback"* %8, i64 0, i32 0
  call void @_ZN4base8internal12CallbackBaseD2Ev(%"class.base::internal::CallbackBase"* nonnull %18) #13
  br label %59

19:                                               ; preds = %6
  %20 = getelementptr inbounds %"class.device::GamepadPlatformDataFetcherLinux", %"class.device::GamepadPlatformDataFetcherLinux"* %0, i64 0, i32 2, i32 0, i32 1, i32 0, i32 0, i32 0
  %21 = bitcast %"struct.std::__1::__hash_node_base"** %20 to i64*
  %22 = load i64, i64* %21, align 8
  %23 = icmp eq i64 %22, 0
  br i1 %23, label %38, label %24

24:                                               ; preds = %19, %32
  %25 = phi i64 [ %34, %32 ], [ %22, %19 ]
  %26 = inttoptr i64 %25 to %"struct.std::__1::__hash_node"*
  %27 = getelementptr inbounds %"struct.std::__1::__hash_node", %"struct.std::__1::__hash_node"* %26, i64 0, i32 2, i32 0, i32 0, i32 0
  %28 = load %"class.device::GamepadDeviceLinux"*, %"class.device::GamepadDeviceLinux"** %27, align 8
  %29 = getelementptr inbounds %"class.device::GamepadDeviceLinux", %"class.device::GamepadDeviceLinux"* %28, i64 0, i32 3
  %30 = load i32, i32* %29, align 8
  %31 = icmp eq i32 %30, %1
  br i1 %31, label %36, label %32

32:                                               ; preds = %24
  %33 = inttoptr i64 %25 to i64*
  %34 = load i64, i64* %33, align 8
  %35 = icmp eq i64 %34, 0
  br i1 %35, label %38, label %24

36:                                               ; preds = %24
  %37 = icmp eq %"class.device::GamepadDeviceLinux"* %28, null
  br i1 %37, label %38, label %44

38:                                               ; preds = %32, %19, %36
  %39 = getelementptr inbounds %"class.base::OnceCallback", %"class.base::OnceCallback"* %4, i64 0, i32 0, i32 0, i32 0
  %40 = bitcast %"class.base::OnceCallback"* %4 to i64*
  %41 = load i64, i64* %40, align 8
  %42 = bitcast %"class.base::OnceCallback"* %9 to i64*
  store i64 %41, i64* %42, align 8
  store %"class.base::internal::BindStateBase"* null, %"class.base::internal::BindStateBase"** %39, align 8
  call void @_ZN6device18GamepadDataFetcher20RunVibrationCallbackEN4base12OnceCallbackIFvNS_5mojom20GamepadHapticsResultEEEE13scoped_refptrINS1_19SequencedTaskRunnerEES4_(%"class.base::OnceCallback"* nonnull %9, %"class.base::SequencedTaskRunner"* %5, i32 0) #13
  %43 = getelementptr inbounds %"class.base::OnceCallback", %"class.base::OnceCallback"* %9, i64 0, i32 0
  call void @_ZN4base8internal12CallbackBaseD2Ev(%"class.base::internal::CallbackBase"* nonnull %43) #13
  br label %59

44:                                               ; preds = %36
  %45 = getelementptr inbounds %"class.device::GamepadDeviceLinux", %"class.device::GamepadDeviceLinux"* %28, i64 0, i32 0
  %46 = getelementptr inbounds %"class.mojo::InlinedStructPtr", %"class.mojo::InlinedStructPtr"* %10, i64 0, i32 0
  call void @_ZN6device5mojom23GamepadEffectParametersC1Ev(%"class.device::mojom::GamepadEffectParameters"* nonnull %46) #13
  %47 = getelementptr inbounds %"class.mojo::InlinedStructPtr", %"class.mojo::InlinedStructPtr"* %10, i64 0, i32 1
  store i32 0, i32* %47, align 8
  call void @_ZN6device5mojom23GamepadEffectParametersD1Ev(%"class.device::mojom::GamepadEffectParameters"* nonnull %46) #13
  call void @_ZN6device5mojom23GamepadEffectParametersC1Ev(%"class.device::mojom::GamepadEffectParameters"* nonnull %46) #13
  %48 = bitcast %"class.device::mojom::GamepadEffectParameters"* %7 to i8*
  call void @llvm.lifetime.start.p0i8(i64 32, i8* nonnull %48) #13
  %49 = bitcast %"class.mojo::InlinedStructPtr"* %10 to i8*
  call void @llvm.memcpy.p0i8.p0i8.i64(i8* nonnull align 8 %48, i8* nonnull align 8 %49, i64 32, i1 false) #13
  %50 = bitcast %"class.mojo::InlinedStructPtr"* %3 to i8*
  call void @llvm.memcpy.p0i8.p0i8.i64(i8* nonnull align 8 %49, i8* align 8 %50, i64 32, i1 false) #13
  call void @llvm.memcpy.p0i8.p0i8.i64(i8* align 8 %50, i8* nonnull align 8 %48, i64 32, i1 false) #13
  call void @_ZN6device5mojom23GamepadEffectParametersD1Ev(%"class.device::mojom::GamepadEffectParameters"* nonnull %7) #13
  call void @llvm.lifetime.end.p0i8(i64 32, i8* nonnull %48) #13
  %51 = getelementptr inbounds %"class.mojo::InlinedStructPtr", %"class.mojo::InlinedStructPtr"* %3, i64 0, i32 1
  %52 = load i32, i32* %47, align 8
  %53 = load i32, i32* %51, align 4
  store i32 %53, i32* %47, align 8
  store i32 %52, i32* %51, align 4
  %54 = getelementptr inbounds %"class.base::OnceCallback", %"class.base::OnceCallback"* %4, i64 0, i32 0, i32 0, i32 0
  %55 = bitcast %"class.base::OnceCallback"* %4 to i64*
  %56 = load i64, i64* %55, align 8
  %57 = bitcast %"class.base::OnceCallback"* %11 to i64*
  store i64 %56, i64* %57, align 8
  store %"class.base::internal::BindStateBase"* null, %"class.base::internal::BindStateBase"** %54, align 8
  call void @_ZN6device21AbstractHapticGamepad10PlayEffectENS_5mojom23GamepadHapticEffectTypeEN4mojo16InlinedStructPtrINS1_23GamepadEffectParametersEEEN4base12OnceCallbackIFvNS1_20GamepadHapticsResultEEEE13scoped_refptrINS7_19SequencedTaskRunnerEE(%"class.device::AbstractHapticGamepad"* %45, i32 %2, %"class.mojo::InlinedStructPtr"* nonnull %10, %"class.base::OnceCallback"* nonnull %11, %"class.base::SequencedTaskRunner"* %5) #13
  %58 = getelementptr inbounds %"class.base::OnceCallback", %"class.base::OnceCallback"* %11, i64 0, i32 0
  call void @_ZN4base8internal12CallbackBaseD2Ev(%"class.base::internal::CallbackBase"* nonnull %58) #13
  call void @_ZN6device5mojom23GamepadEffectParametersD1Ev(%"class.device::mojom::GamepadEffectParameters"* nonnull %46) #13
  br label %59

59:                                               ; preds = %13, %44, %38
  ret void
}

declare void @_ZN6device18GamepadDataFetcher20RunVibrationCallbackEN4base12OnceCallbackIFvNS_5mojom20GamepadHapticsResultEEEE13scoped_refptrINS1_19SequencedTaskRunnerEES4_(%"class.base::OnceCallback"*, %"class.base::SequencedTaskRunner"*, i32) local_unnamed_addr #1

; Function Attrs: nounwind
declare void @_ZN4base8internal12CallbackBaseD2Ev(%"class.base::internal::CallbackBase"*) unnamed_addr #5

declare void @_ZN6device21AbstractHapticGamepad10PlayEffectENS_5mojom23GamepadHapticEffectTypeEN4mojo16InlinedStructPtrINS1_23GamepadEffectParametersEEEN4base12OnceCallbackIFvNS1_20GamepadHapticsResultEEEE13scoped_refptrINS7_19SequencedTaskRunnerEE(%"class.device::AbstractHapticGamepad"*, i32, %"class.mojo::InlinedStructPtr"*, %"class.base::OnceCallback"*, %"class.base::SequencedTaskRunner"*) local_unnamed_addr #1

; Function Attrs: nounwind ssp uwtable
define hidden void @_ZN6device31GamepadPlatformDataFetcherLinux14ResetVibrationEiN4base12OnceCallbackIFvNS_5mojom20GamepadHapticsResultEEEE13scoped_refptrINS1_19SequencedTaskRunnerEE(%"class.device::GamepadPlatformDataFetcherLinux"* nocapture readonly, i32, %"class.base::OnceCallback"* nocapture, %"class.base::SequencedTaskRunner"*) unnamed_addr #0 align 2 {
  %5 = alloca %"class.base::OnceCallback", align 8
  %6 = alloca %"class.base::OnceCallback", align 8
  %7 = alloca %"class.base::OnceCallback", align 8
  %8 = icmp ugt i32 %1, 3
  br i1 %8, label %9, label %14

9:                                                ; preds = %4
  %10 = getelementptr inbounds %"class.base::OnceCallback", %"class.base::OnceCallback"* %2, i64 0, i32 0, i32 0, i32 0
  %11 = bitcast %"class.base::OnceCallback"* %2 to i64*
  %12 = load i64, i64* %11, align 8
  %13 = bitcast %"class.base::OnceCallback"* %5 to i64*
  store i64 %12, i64* %13, align 8
  store %"class.base::internal::BindStateBase"* null, %"class.base::internal::BindStateBase"** %10, align 8
  call void @_ZN6device18GamepadDataFetcher20RunVibrationCallbackEN4base12OnceCallbackIFvNS_5mojom20GamepadHapticsResultEEEE13scoped_refptrINS1_19SequencedTaskRunnerEES4_(%"class.base::OnceCallback"* nonnull %5, %"class.base::SequencedTaskRunner"* %3, i32 0) #13
  br label %44

14:                                               ; preds = %4
  %15 = getelementptr inbounds %"class.device::GamepadPlatformDataFetcherLinux", %"class.device::GamepadPlatformDataFetcherLinux"* %0, i64 0, i32 2, i32 0, i32 1, i32 0, i32 0, i32 0
  %16 = bitcast %"struct.std::__1::__hash_node_base"** %15 to i64*
  %17 = load i64, i64* %16, align 8
  %18 = icmp eq i64 %17, 0
  br i1 %18, label %33, label %19

19:                                               ; preds = %14, %27
  %20 = phi i64 [ %29, %27 ], [ %17, %14 ]
  %21 = inttoptr i64 %20 to %"struct.std::__1::__hash_node"*
  %22 = getelementptr inbounds %"struct.std::__1::__hash_node", %"struct.std::__1::__hash_node"* %21, i64 0, i32 2, i32 0, i32 0, i32 0
  %23 = load %"class.device::GamepadDeviceLinux"*, %"class.device::GamepadDeviceLinux"** %22, align 8
  %24 = getelementptr inbounds %"class.device::GamepadDeviceLinux", %"class.device::GamepadDeviceLinux"* %23, i64 0, i32 3
  %25 = load i32, i32* %24, align 8
  %26 = icmp eq i32 %25, %1
  br i1 %26, label %31, label %27

27:                                               ; preds = %19
  %28 = inttoptr i64 %20 to i64*
  %29 = load i64, i64* %28, align 8
  %30 = icmp eq i64 %29, 0
  br i1 %30, label %33, label %19

31:                                               ; preds = %19
  %32 = icmp eq %"class.device::GamepadDeviceLinux"* %23, null
  br i1 %32, label %33, label %38

33:                                               ; preds = %27, %14, %31
  %34 = getelementptr inbounds %"class.base::OnceCallback", %"class.base::OnceCallback"* %2, i64 0, i32 0, i32 0, i32 0
  %35 = bitcast %"class.base::OnceCallback"* %2 to i64*
  %36 = load i64, i64* %35, align 8
  %37 = bitcast %"class.base::OnceCallback"* %6 to i64*
  store i64 %36, i64* %37, align 8
  store %"class.base::internal::BindStateBase"* null, %"class.base::internal::BindStateBase"** %34, align 8
  call void @_ZN6device18GamepadDataFetcher20RunVibrationCallbackEN4base12OnceCallbackIFvNS_5mojom20GamepadHapticsResultEEEE13scoped_refptrINS1_19SequencedTaskRunnerEES4_(%"class.base::OnceCallback"* nonnull %6, %"class.base::SequencedTaskRunner"* %3, i32 0) #13
  br label %44

38:                                               ; preds = %31
  %39 = getelementptr inbounds %"class.device::GamepadDeviceLinux", %"class.device::GamepadDeviceLinux"* %23, i64 0, i32 0
  %40 = getelementptr inbounds %"class.base::OnceCallback", %"class.base::OnceCallback"* %2, i64 0, i32 0, i32 0, i32 0
  %41 = bitcast %"class.base::OnceCallback"* %2 to i64*
  %42 = load i64, i64* %41, align 8
  %43 = bitcast %"class.base::OnceCallback"* %7 to i64*
  store i64 %42, i64* %43, align 8
  store %"class.base::internal::BindStateBase"* null, %"class.base::internal::BindStateBase"** %40, align 8
  call void @_ZN6device21AbstractHapticGamepad14ResetVibrationEN4base12OnceCallbackIFvNS_5mojom20GamepadHapticsResultEEEE13scoped_refptrINS1_19SequencedTaskRunnerEE(%"class.device::AbstractHapticGamepad"* %39, %"class.base::OnceCallback"* nonnull %7, %"class.base::SequencedTaskRunner"* %3) #13
  br label %44

44:                                               ; preds = %9, %38, %33
  %45 = phi %"class.base::OnceCallback"* [ %5, %9 ], [ %7, %38 ], [ %6, %33 ]
  %46 = getelementptr inbounds %"class.base::OnceCallback", %"class.base::OnceCallback"* %45, i64 0, i32 0
  call void @_ZN4base8internal12CallbackBaseD2Ev(%"class.base::internal::CallbackBase"* nonnull %46) #13
  ret void
}

declare void @_ZN6device21AbstractHapticGamepad14ResetVibrationEN4base12OnceCallbackIFvNS_5mojom20GamepadHapticsResultEEEE13scoped_refptrINS1_19SequencedTaskRunnerEE(%"class.device::AbstractHapticGamepad"*, %"class.base::OnceCallback"*, %"class.base::SequencedTaskRunner"*) local_unnamed_addr #1

; Function Attrs: nounwind ssp uwtable
define linkonce_odr hidden void @_ZN6device18GamepadDataFetcher9PauseHintEb(%"class.device::GamepadDataFetcher"*, i1 zeroext) unnamed_addr #0 comdat align 2 {
  ret void
}

declare i32 @_ZN4base14PlatformThread9CurrentIdEv() local_unnamed_addr #1

declare i64 @_ZN4base6subtle28TimeTicksNowIgnoringOverrideEv() local_unnamed_addr #1

declare i64 @_ZN20trace_event_internal37AddTraceEventWithThreadIdAndTimestampEcPKhPKcS3_yyiRKN4base9TimeTicksEPNS4_11trace_event14TraceArgumentsEj(i8 signext, i8*, i8*, i8*, i64, i64, i32, %"class.base::TimeTicks"* dereferenceable(8), %"class.base::trace_event::TraceArguments"*, i32) local_unnamed_addr #1

declare void @_ZN20trace_event_internal24UpdateTraceEventDurationEPKhPKcN4base11trace_event16TraceEventHandleE(i8*, i8*, i64) local_unnamed_addr #1

declare void @_ZNSt3__112basic_stringIcNS_11char_traitsIcEENS_9allocatorIcEEE25__init_copy_ctor_externalEPKcm(%"class.std::__1::basic_string"*, i8*, i64) local_unnamed_addr #1

declare %"struct.device::PadState"* @_ZN6device23GamepadPadStateProvider11GetPadStateENS_13GamepadSourceEib(%"class.device::GamepadPadStateProvider"*, i32, i32, i1 zeroext) local_unnamed_addr #1

; Function Attrs: nounwind
declare void @_ZN6device5mojom23GamepadEffectParametersD1Ev(%"class.device::mojom::GamepadEffectParameters"*) unnamed_addr #5

declare void @_ZN4base8internal18WeakPtrFactoryBaseC2Em(%"class.base::internal::WeakPtrFactoryBase"*, i64) unnamed_addr #1

declare void @_ZN4base16TaskRunnerTraits8DestructEPKNS_10TaskRunnerE(%"class.base::TaskRunner"*) local_unnamed_addr #1

; Function Attrs: nobuiltin nofree
declare noalias nonnull i8* @_Znwm(i64) local_unnamed_addr #7

; Function Attrs: nounwind
declare void @_ZN6device11UdevWatcherD1Ev(%"class.device::UdevWatcher"*) unnamed_addr #5

; Function Attrs: nounwind
declare void @_ZN6device11UdevWatcher6FilterD1Ev(%"class.device::UdevWatcher::Filter"*) unnamed_addr #5

; Function Attrs: inlinehint nounwind ssp uwtable
define linkonce_odr hidden void @_ZNSt3__16vectorIN6device11UdevWatcher6FilterENS_9allocatorIS3_EEE24__emplace_back_slow_pathIJRA_KcRA1_S8_EEEvDpOT_(%"class.std::__1::vector"*, [0 x i8]*, [1 x i8]* dereferenceable(1)) local_unnamed_addr #8 comdat align 2 {
  %4 = getelementptr inbounds %"class.std::__1::vector", %"class.std::__1::vector"* %0, i64 0, i32 0, i32 2
  %5 = bitcast %"class.std::__1::__compressed_pair.45"* %4 to %"class.std::__1::allocator.48"*
  %6 = getelementptr inbounds %"class.std::__1::vector", %"class.std::__1::vector"* %0, i64 0, i32 0, i32 1
  %7 = bitcast %"class.device::UdevWatcher::Filter"** %6 to i64*
  %8 = load i64, i64* %7, align 8
  %9 = bitcast %"class.std::__1::vector"* %0 to i64*
  %10 = load i64, i64* %9, align 8
  %11 = sub i64 %8, %10
  %12 = ashr exact i64 %11, 6
  %13 = add nsw i64 %12, 1
  %14 = icmp ugt i64 %13, 288230376151711743
  br i1 %14, label %15, label %17

15:                                               ; preds = %3
  %16 = bitcast %"class.std::__1::vector"* %0 to %"class.std::__1::__vector_base_common"*
  tail call void @_ZNKSt3__120__vector_base_commonILb1EE20__throw_length_errorEv(%"class.std::__1::__vector_base_common"* %16) #15
  unreachable

17:                                               ; preds = %3
  %18 = getelementptr inbounds %"class.std::__1::vector", %"class.std::__1::vector"* %0, i64 0, i32 0, i32 2, i32 0, i32 0
  %19 = bitcast %"class.device::UdevWatcher::Filter"** %18 to i64*
  %20 = load i64, i64* %19, align 8
  %21 = sub i64 %20, %10
  %22 = ashr exact i64 %21, 6
  %23 = icmp ult i64 %22, 144115188075855871
  br i1 %23, label %24, label %32

24:                                               ; preds = %17
  %25 = ashr exact i64 %21, 5
  %26 = icmp ult i64 %25, %13
  %27 = select i1 %26, i64 %13, i64 %25
  %28 = icmp eq i64 %27, 0
  br i1 %28, label %37, label %29

29:                                               ; preds = %24
  %30 = icmp ugt i64 %27, 288230376151711743
  br i1 %30, label %31, label %32

31:                                               ; preds = %29
  tail call void @abort() #15
  unreachable

32:                                               ; preds = %17, %29
  %33 = phi i64 [ %27, %29 ], [ 288230376151711743, %17 ]
  %34 = shl i64 %33, 6
  %35 = tail call i8* @_Znwm(i64 %34) #14
  %36 = bitcast i8* %35 to %"class.device::UdevWatcher::Filter"*
  br label %37

37:                                               ; preds = %24, %32
  %38 = phi i64 [ %33, %32 ], [ 0, %24 ]
  %39 = phi %"class.device::UdevWatcher::Filter"* [ %36, %32 ], [ null, %24 ]
  %40 = getelementptr inbounds %"class.device::UdevWatcher::Filter", %"class.device::UdevWatcher::Filter"* %39, i64 %12
  %41 = getelementptr inbounds %"class.device::UdevWatcher::Filter", %"class.device::UdevWatcher::Filter"* %39, i64 %38
  %42 = ptrtoint %"class.device::UdevWatcher::Filter"* %41 to i64
  tail call void @_ZNSt3__19allocatorIN6device11UdevWatcher6FilterEE9constructIS3_JRA_KcRA1_S6_EEEvPT_DpOT0_(%"class.std::__1::allocator.48"* %5, %"class.device::UdevWatcher::Filter"* %40, [0 x i8]* %1, [1 x i8]* dereferenceable(1) %2) #13
  %43 = getelementptr inbounds %"class.device::UdevWatcher::Filter", %"class.device::UdevWatcher::Filter"* %40, i64 1
  %44 = ptrtoint %"class.device::UdevWatcher::Filter"* %43 to i64
  %45 = getelementptr inbounds %"class.std::__1::vector", %"class.std::__1::vector"* %0, i64 0, i32 0, i32 0
  %46 = load %"class.device::UdevWatcher::Filter"*, %"class.device::UdevWatcher::Filter"** %45, align 8
  %47 = load %"class.device::UdevWatcher::Filter"*, %"class.device::UdevWatcher::Filter"** %6, align 8
  %48 = icmp eq %"class.device::UdevWatcher::Filter"* %47, %46
  br i1 %48, label %49, label %51

49:                                               ; preds = %37
  %50 = ptrtoint %"class.device::UdevWatcher::Filter"* %40 to i64
  store i64 %50, i64* %9, align 8
  store i64 %44, i64* %7, align 8
  store i64 %42, i64* %19, align 8
  br label %66

51:                                               ; preds = %37, %51
  %52 = phi %"class.device::UdevWatcher::Filter"* [ %54, %51 ], [ %40, %37 ]
  %53 = phi %"class.device::UdevWatcher::Filter"* [ %55, %51 ], [ %47, %37 ]
  %54 = getelementptr inbounds %"class.device::UdevWatcher::Filter", %"class.device::UdevWatcher::Filter"* %52, i64 -1
  %55 = getelementptr inbounds %"class.device::UdevWatcher::Filter", %"class.device::UdevWatcher::Filter"* %53, i64 -1
  tail call void @_ZN6device11UdevWatcher6FilterC1ERKS1_(%"class.device::UdevWatcher::Filter"* %54, %"class.device::UdevWatcher::Filter"* dereferenceable(64) %55) #13
  %56 = icmp eq %"class.device::UdevWatcher::Filter"* %55, %46
  br i1 %56, label %57, label %51

57:                                               ; preds = %51
  %58 = load %"class.device::UdevWatcher::Filter"*, %"class.device::UdevWatcher::Filter"** %45, align 8
  %59 = load %"class.device::UdevWatcher::Filter"*, %"class.device::UdevWatcher::Filter"** %6, align 8
  %60 = ptrtoint %"class.device::UdevWatcher::Filter"* %54 to i64
  store i64 %60, i64* %9, align 8
  store i64 %44, i64* %7, align 8
  store i64 %42, i64* %19, align 8
  %61 = icmp eq %"class.device::UdevWatcher::Filter"* %59, %58
  br i1 %61, label %66, label %62

62:                                               ; preds = %57, %62
  %63 = phi %"class.device::UdevWatcher::Filter"* [ %64, %62 ], [ %59, %57 ]
  %64 = getelementptr inbounds %"class.device::UdevWatcher::Filter", %"class.device::UdevWatcher::Filter"* %63, i64 -1
  tail call void @_ZN6device11UdevWatcher6FilterD1Ev(%"class.device::UdevWatcher::Filter"* %64) #13
  %65 = icmp eq %"class.device::UdevWatcher::Filter"* %64, %58
  br i1 %65, label %66, label %62

66:                                               ; preds = %62, %49, %57
  %67 = phi %"class.device::UdevWatcher::Filter"* [ %46, %49 ], [ %58, %57 ], [ %58, %62 ]
  %68 = icmp eq %"class.device::UdevWatcher::Filter"* %67, null
  br i1 %68, label %71, label %69

69:                                               ; preds = %66
  %70 = getelementptr inbounds %"class.device::UdevWatcher::Filter", %"class.device::UdevWatcher::Filter"* %67, i64 0, i32 0, i32 0, i32 0, i32 0, i32 0
  tail call void @_ZdlPv(i8* %70) #14
  br label %71

71:                                               ; preds = %66, %69
  ret void
}

; Function Attrs: nounwind ssp uwtable
define linkonce_odr hidden void @_ZNSt3__19allocatorIN6device11UdevWatcher6FilterEE9constructIS3_JRA_KcRA1_S6_EEEvPT_DpOT0_(%"class.std::__1::allocator.48"*, %"class.device::UdevWatcher::Filter"*, [0 x i8]*, [1 x i8]* dereferenceable(1)) local_unnamed_addr #0 comdat align 2 {
  %5 = alloca %"class.logging::CheckError", align 8
  %6 = alloca %"class.logging::CheckError", align 8
  %7 = getelementptr inbounds [0 x i8], [0 x i8]* %2, i64 0, i64 0
  %8 = icmp eq [0 x i8]* %2, null
  br i1 %8, label %11, label %9

9:                                                ; preds = %4
  %10 = tail call i64 @strlen(i8* nonnull %7) #13
  br label %14

11:                                               ; preds = %4
  %12 = bitcast %"class.logging::CheckError"* %5 to i8*
  call void @llvm.lifetime.start.p0i8(i64 8, i8* nonnull %12) #13
  call void @_ZN7logging10CheckError5CheckEPKciS2_(%"class.logging::CheckError"* nonnull sret %5, i8* getelementptr inbounds ([34 x i8], [34 x i8]* @.str.2, i64 0, i64 0), i32 125, i8* getelementptr inbounds ([2 x i8], [2 x i8]* @.str.3, i64 0, i64 0)) #13
  %13 = call dereferenceable(160) %"class.std::__1::basic_ostream"* @_ZN7logging10CheckError6streamEv(%"class.logging::CheckError"* nonnull %5) #13
  call void @_ZN7logging10CheckErrorD1Ev(%"class.logging::CheckError"* nonnull %5) #13
  call void @llvm.lifetime.end.p0i8(i64 8, i8* nonnull %12) #13
  br label %14

14:                                               ; preds = %9, %11
  %15 = phi i64 [ 0, %11 ], [ %10, %9 ]
  %16 = getelementptr inbounds [1 x i8], [1 x i8]* %3, i64 0, i64 0
  %17 = icmp eq [1 x i8]* %3, null
  br i1 %17, label %20, label %18

18:                                               ; preds = %14
  %19 = call i64 @strlen(i8* nonnull %16) #13
  br label %23

20:                                               ; preds = %14
  %21 = bitcast %"class.logging::CheckError"* %6 to i8*
  call void @llvm.lifetime.start.p0i8(i64 8, i8* nonnull %21) #13
  call void @_ZN7logging10CheckError5CheckEPKciS2_(%"class.logging::CheckError"* nonnull sret %6, i8* getelementptr inbounds ([34 x i8], [34 x i8]* @.str.2, i64 0, i64 0), i32 125, i8* getelementptr inbounds ([2 x i8], [2 x i8]* @.str.3, i64 0, i64 0)) #13
  %22 = call dereferenceable(160) %"class.std::__1::basic_ostream"* @_ZN7logging10CheckError6streamEv(%"class.logging::CheckError"* nonnull %6) #13
  call void @_ZN7logging10CheckErrorD1Ev(%"class.logging::CheckError"* nonnull %6) #13
  call void @llvm.lifetime.end.p0i8(i64 8, i8* nonnull %21) #13
  br label %23

23:                                               ; preds = %18, %20
  %24 = phi i64 [ 0, %20 ], [ %19, %18 ]
  call void @_ZN6device11UdevWatcher6FilterC1EN4base16BasicStringPieceIcNSt3__111char_traitsIcEEEES7_(%"class.device::UdevWatcher::Filter"* %1, i8* %7, i64 %15, i8* %16, i64 %24) #13
  ret void
}

declare void @_ZN6device11UdevWatcher6FilterC1EN4base16BasicStringPieceIcNSt3__111char_traitsIcEEEES7_(%"class.device::UdevWatcher::Filter"*, i8*, i64, i8*, i64) unnamed_addr #1

declare void @_ZN7logging10CheckError5CheckEPKciS2_(%"class.logging::CheckError"* sret, i8*, i32, i8*) local_unnamed_addr #1

declare dereferenceable(160) %"class.std::__1::basic_ostream"* @_ZN7logging10CheckError6streamEv(%"class.logging::CheckError"*) local_unnamed_addr #1

; Function Attrs: nounwind
declare void @_ZN7logging10CheckErrorD1Ev(%"class.logging::CheckError"*) unnamed_addr #5

; Function Attrs: argmemonly nofree nounwind readonly
declare i64 @strlen(i8* nocapture) local_unnamed_addr #9

; Function Attrs: argmemonly nounwind
declare void @llvm.memset.p0i8.i64(i8* nocapture writeonly, i8, i64, i1 immarg) #3

; Function Attrs: noreturn
declare void @_ZNKSt3__120__vector_base_commonILb1EE20__throw_length_errorEv(%"class.std::__1::__vector_base_common"*) local_unnamed_addr #10

; Function Attrs: noreturn nounwind
declare void @abort() local_unnamed_addr #11

declare void @_ZN6device11UdevWatcher6FilterC1ERKS1_(%"class.device::UdevWatcher::Filter"*, %"class.device::UdevWatcher::Filter"* dereferenceable(64)) unnamed_addr #1

declare void @_ZN6device17udev_device_unrefEP11udev_device(%struct.udev_device*) local_unnamed_addr #1

; Function Attrs: nounwind ssp uwtable
define linkonce_odr hidden void @_ZNSt3__112__hash_tableINS_10unique_ptrIN6device18GamepadDeviceLinuxENS_14default_deleteIS3_EEEENS_4hashIS6_EENS_8equal_toIS6_EENS_9allocatorIS6_EEE6removeENS_21__hash_const_iteratorIPNS_11__hash_nodeIS6_PvEEEE(%"class.std::__1::unique_ptr.150"* noalias sret, %"class.std::__1::__hash_table"*, %"struct.std::__1::__hash_node_base"*) local_unnamed_addr #0 comdat align 2 {
  %4 = getelementptr inbounds %"class.std::__1::__hash_table", %"class.std::__1::__hash_table"* %1, i64 0, i32 0, i32 0, i32 1, i32 0, i32 0, i32 0, i32 0
  %5 = load i64, i64* %4, align 8
  %6 = getelementptr inbounds %"struct.std::__1::__hash_node_base", %"struct.std::__1::__hash_node_base"* %2, i64 1
  %7 = bitcast %"struct.std::__1::__hash_node_base"* %6 to i64*
  %8 = load i64, i64* %7, align 8
  %9 = tail call i64 @llvm.ctpop.i64(i64 %5) #13, !range !20
  %10 = icmp ugt i64 %9, 1
  br i1 %10, label %14, label %11

11:                                               ; preds = %3
  %12 = add i64 %5, -1
  %13 = and i64 %12, %8
  br label %18

14:                                               ; preds = %3
  %15 = icmp ult i64 %8, %5
  br i1 %15, label %18, label %16

16:                                               ; preds = %14
  %17 = urem i64 %8, %5
  br label %18

18:                                               ; preds = %11, %14, %16
  %19 = phi i64 [ %13, %11 ], [ %17, %16 ], [ %8, %14 ]
  %20 = getelementptr inbounds %"class.std::__1::__hash_table", %"class.std::__1::__hash_table"* %1, i64 0, i32 0, i32 0, i32 0, i32 0
  %21 = load %"struct.std::__1::__hash_node_base"**, %"struct.std::__1::__hash_node_base"*** %20, align 8
  %22 = getelementptr inbounds %"struct.std::__1::__hash_node_base"*, %"struct.std::__1::__hash_node_base"** %21, i64 %19
  %23 = load %"struct.std::__1::__hash_node_base"*, %"struct.std::__1::__hash_node_base"** %22, align 8
  br label %24

24:                                               ; preds = %24, %18
  %25 = phi %"struct.std::__1::__hash_node_base"* [ %23, %18 ], [ %27, %24 ]
  %26 = getelementptr inbounds %"struct.std::__1::__hash_node_base", %"struct.std::__1::__hash_node_base"* %25, i64 0, i32 0
  %27 = load %"struct.std::__1::__hash_node_base"*, %"struct.std::__1::__hash_node_base"** %26, align 8
  %28 = icmp eq %"struct.std::__1::__hash_node_base"* %27, %2
  br i1 %28, label %29, label %24

29:                                               ; preds = %24
  %30 = getelementptr inbounds %"class.std::__1::__hash_table", %"class.std::__1::__hash_table"* %1, i64 0, i32 1
  %31 = getelementptr inbounds %"class.std::__1::__compressed_pair.18", %"class.std::__1::__compressed_pair.18"* %30, i64 0, i32 0, i32 0
  %32 = icmp eq %"struct.std::__1::__hash_node_base"* %25, %31
  br i1 %32, label %47, label %33

33:                                               ; preds = %29
  %34 = getelementptr inbounds %"struct.std::__1::__hash_node_base", %"struct.std::__1::__hash_node_base"* %25, i64 1
  %35 = bitcast %"struct.std::__1::__hash_node_base"* %34 to i64*
  %36 = load i64, i64* %35, align 8
  br i1 %10, label %40, label %37

37:                                               ; preds = %33
  %38 = add i64 %5, -1
  %39 = and i64 %36, %38
  br label %44

40:                                               ; preds = %33
  %41 = icmp ult i64 %36, %5
  br i1 %41, label %44, label %42

42:                                               ; preds = %40
  %43 = urem i64 %36, %5
  br label %44

44:                                               ; preds = %37, %40, %42
  %45 = phi i64 [ %39, %37 ], [ %43, %42 ], [ %36, %40 ]
  %46 = icmp eq i64 %45, %19
  br i1 %46, label %66, label %47

47:                                               ; preds = %44, %29
  %48 = getelementptr inbounds %"struct.std::__1::__hash_node_base", %"struct.std::__1::__hash_node_base"* %2, i64 0, i32 0
  %49 = load %"struct.std::__1::__hash_node_base"*, %"struct.std::__1::__hash_node_base"** %48, align 8
  %50 = icmp eq %"struct.std::__1::__hash_node_base"* %49, null
  br i1 %50, label %65, label %51

51:                                               ; preds = %47
  %52 = getelementptr inbounds %"struct.std::__1::__hash_node_base", %"struct.std::__1::__hash_node_base"* %49, i64 1
  %53 = bitcast %"struct.std::__1::__hash_node_base"* %52 to i64*
  %54 = load i64, i64* %53, align 8
  br i1 %10, label %58, label %55

55:                                               ; preds = %51
  %56 = add i64 %5, -1
  %57 = and i64 %54, %56
  br label %62

58:                                               ; preds = %51
  %59 = icmp ult i64 %54, %5
  br i1 %59, label %62, label %60

60:                                               ; preds = %58
  %61 = urem i64 %54, %5
  br label %62

62:                                               ; preds = %55, %58, %60
  %63 = phi i64 [ %57, %55 ], [ %61, %60 ], [ %54, %58 ]
  %64 = icmp eq i64 %63, %19
  br i1 %64, label %66, label %65

65:                                               ; preds = %62, %47
  store %"struct.std::__1::__hash_node_base"* null, %"struct.std::__1::__hash_node_base"** %22, align 8
  br label %66

66:                                               ; preds = %62, %44, %65
  %67 = getelementptr inbounds %"struct.std::__1::__hash_node_base", %"struct.std::__1::__hash_node_base"* %2, i64 0, i32 0
  %68 = load %"struct.std::__1::__hash_node_base"*, %"struct.std::__1::__hash_node_base"** %67, align 8
  %69 = icmp eq %"struct.std::__1::__hash_node_base"* %68, null
  %70 = ptrtoint %"struct.std::__1::__hash_node_base"* %68 to i64
  br i1 %69, label %90, label %71

71:                                               ; preds = %66
  %72 = getelementptr inbounds %"struct.std::__1::__hash_node_base", %"struct.std::__1::__hash_node_base"* %68, i64 1
  %73 = bitcast %"struct.std::__1::__hash_node_base"* %72 to i64*
  %74 = load i64, i64* %73, align 8
  br i1 %10, label %78, label %75

75:                                               ; preds = %71
  %76 = add i64 %5, -1
  %77 = and i64 %74, %76
  br label %82

78:                                               ; preds = %71
  %79 = icmp ult i64 %74, %5
  br i1 %79, label %82, label %80

80:                                               ; preds = %78
  %81 = urem i64 %74, %5
  br label %82

82:                                               ; preds = %75, %78, %80
  %83 = phi i64 [ %77, %75 ], [ %81, %80 ], [ %74, %78 ]
  %84 = icmp eq i64 %83, %19
  br i1 %84, label %90, label %85

85:                                               ; preds = %82
  %86 = load %"struct.std::__1::__hash_node_base"**, %"struct.std::__1::__hash_node_base"*** %20, align 8
  %87 = getelementptr inbounds %"struct.std::__1::__hash_node_base"*, %"struct.std::__1::__hash_node_base"** %86, i64 %83
  store %"struct.std::__1::__hash_node_base"* %25, %"struct.std::__1::__hash_node_base"** %87, align 8
  %88 = bitcast %"struct.std::__1::__hash_node_base"* %2 to i64*
  %89 = load i64, i64* %88, align 8
  br label %90

90:                                               ; preds = %85, %82, %66
  %91 = phi i64 [ %89, %85 ], [ %70, %82 ], [ %70, %66 ]
  %92 = bitcast %"struct.std::__1::__hash_node_base"* %25 to i64*
  store i64 %91, i64* %92, align 8
  store %"struct.std::__1::__hash_node_base"* null, %"struct.std::__1::__hash_node_base"** %67, align 8
  %93 = getelementptr inbounds %"class.std::__1::__hash_table", %"class.std::__1::__hash_table"* %1, i64 0, i32 2, i32 0, i32 0
  %94 = load i64, i64* %93, align 8
  %95 = add i64 %94, -1
  store i64 %95, i64* %93, align 8
  %96 = ptrtoint %"struct.std::__1::__hash_node_base"* %2 to i64
  %97 = bitcast %"class.std::__1::unique_ptr.150"* %0 to i64*
  store i64 %96, i64* %97, align 8
  %98 = getelementptr inbounds %"class.std::__1::unique_ptr.150", %"class.std::__1::unique_ptr.150"* %0, i64 0, i32 0, i32 1, i32 0, i32 0
  %99 = bitcast %"class.std::__1::allocator.21"** %98 to %"class.std::__1::__compressed_pair.18"**
  store %"class.std::__1::__compressed_pair.18"* %30, %"class.std::__1::__compressed_pair.18"** %99, align 8
  %100 = getelementptr inbounds %"class.std::__1::unique_ptr.150", %"class.std::__1::unique_ptr.150"* %0, i64 0, i32 0, i32 1, i32 0, i32 1
  store i8 1, i8* %100, align 8
  ret void
}

declare void @_ZN6device18GamepadDeviceLinuxC1ERKNSt3__112basic_stringIcNS1_11char_traitsIcEENS1_9allocatorIcEEEE13scoped_refptrIN4base19SequencedTaskRunnerEE(%"class.device::GamepadDeviceLinux"*, %"class.std::__1::basic_string"* dereferenceable(24), %"class.base::SequencedTaskRunner"*) unnamed_addr #1

; Function Attrs: nounwind ssp uwtable
define linkonce_odr hidden { %"struct.std::__1::__hash_node_base"*, i8 } @_ZNSt3__112__hash_tableINS_10unique_ptrIN6device18GamepadDeviceLinuxENS_14default_deleteIS3_EEEENS_4hashIS6_EENS_8equal_toIS6_EENS_9allocatorIS6_EEE25__emplace_unique_key_argsIS6_JS6_EEENS_4pairINS_15__hash_iteratorIPNS_11__hash_nodeIS6_PvEEEEbEERKT_DpOT0_(%"class.std::__1::__hash_table"*, %"class.std::__1::unique_ptr.110"* dereferenceable(8), %"class.std::__1::unique_ptr.110"* dereferenceable(8)) local_unnamed_addr #0 comdat align 2 {
  %4 = bitcast %"class.std::__1::unique_ptr.110"* %1 to i64*
  %5 = load i64, i64* %4, align 8
  %6 = lshr i64 %5, 32
  %7 = shl i64 %5, 3
  %8 = and i64 %7, 4294967288
  %9 = add nuw nsw i64 %8, 8
  %10 = xor i64 %9, %6
  %11 = mul i64 %10, -7070675565921424023
  %12 = lshr i64 %11, 47
  %13 = xor i64 %11, %6
  %14 = xor i64 %13, %12
  %15 = mul i64 %14, -7070675565921424023
  %16 = lshr i64 %15, 47
  %17 = xor i64 %16, %15
  %18 = mul i64 %17, -7070675565921424023
  %19 = getelementptr inbounds %"class.std::__1::__hash_table", %"class.std::__1::__hash_table"* %0, i64 0, i32 0, i32 0, i32 1, i32 0, i32 0, i32 0, i32 0
  %20 = load i64, i64* %19, align 8
  %21 = icmp eq i64 %20, 0
  %22 = inttoptr i64 %5 to %"class.device::GamepadDeviceLinux"*
  br i1 %21, label %67, label %23

23:                                               ; preds = %3
  %24 = tail call i64 @llvm.ctpop.i64(i64 %20) #13, !range !20
  %25 = icmp ugt i64 %24, 1
  br i1 %25, label %29, label %26

26:                                               ; preds = %23
  %27 = add i64 %20, -1
  %28 = and i64 %18, %27
  br label %33

29:                                               ; preds = %23
  %30 = icmp ult i64 %18, %20
  br i1 %30, label %33, label %31

31:                                               ; preds = %29
  %32 = urem i64 %18, %20
  br label %33

33:                                               ; preds = %26, %29, %31
  %34 = phi i64 [ %28, %26 ], [ %32, %31 ], [ %18, %29 ]
  %35 = getelementptr inbounds %"class.std::__1::__hash_table", %"class.std::__1::__hash_table"* %0, i64 0, i32 0, i32 0, i32 0, i32 0
  %36 = load %"struct.std::__1::__hash_node_base"**, %"struct.std::__1::__hash_node_base"*** %35, align 8
  %37 = getelementptr inbounds %"struct.std::__1::__hash_node_base"*, %"struct.std::__1::__hash_node_base"** %36, i64 %34
  %38 = load %"struct.std::__1::__hash_node_base"*, %"struct.std::__1::__hash_node_base"** %37, align 8
  %39 = icmp eq %"struct.std::__1::__hash_node_base"* %38, null
  br i1 %39, label %67, label %40

40:                                               ; preds = %33
  %41 = add i64 %20, -1
  br label %42

42:                                               ; preds = %40, %62
  %43 = phi %"struct.std::__1::__hash_node_base"* [ %45, %62 ], [ %38, %40 ]
  %44 = getelementptr inbounds %"struct.std::__1::__hash_node_base", %"struct.std::__1::__hash_node_base"* %43, i64 0, i32 0
  %45 = load %"struct.std::__1::__hash_node_base"*, %"struct.std::__1::__hash_node_base"** %44, align 8
  %46 = icmp eq %"struct.std::__1::__hash_node_base"* %45, null
  br i1 %46, label %67, label %47

47:                                               ; preds = %42
  %48 = getelementptr inbounds %"struct.std::__1::__hash_node_base", %"struct.std::__1::__hash_node_base"* %45, i64 1
  %49 = bitcast %"struct.std::__1::__hash_node_base"* %48 to i64*
  %50 = load i64, i64* %49, align 8
  %51 = icmp eq i64 %50, %18
  br i1 %51, label %62, label %52

52:                                               ; preds = %47
  br i1 %25, label %55, label %53

53:                                               ; preds = %52
  %54 = and i64 %50, %41
  br label %59

55:                                               ; preds = %52
  %56 = icmp ult i64 %50, %20
  br i1 %56, label %59, label %57

57:                                               ; preds = %55
  %58 = urem i64 %50, %20
  br label %59

59:                                               ; preds = %53, %55, %57
  %60 = phi i64 [ %54, %53 ], [ %58, %57 ], [ %50, %55 ]
  %61 = icmp eq i64 %60, %34
  br i1 %61, label %62, label %67

62:                                               ; preds = %47, %59
  %63 = getelementptr inbounds %"struct.std::__1::__hash_node_base", %"struct.std::__1::__hash_node_base"* %45, i64 2
  %64 = bitcast %"struct.std::__1::__hash_node_base"* %63 to %"class.device::GamepadDeviceLinux"**
  %65 = load %"class.device::GamepadDeviceLinux"*, %"class.device::GamepadDeviceLinux"** %64, align 8
  %66 = icmp eq %"class.device::GamepadDeviceLinux"* %65, %22
  br i1 %66, label %156, label %42

67:                                               ; preds = %42, %59, %33, %3
  %68 = phi i64 [ %34, %33 ], [ -6148914691236517206, %3 ], [ %34, %59 ], [ %34, %42 ]
  %69 = tail call i8* @_Znwm(i64 24) #14, !noalias !21
  %70 = getelementptr inbounds i8, i8* %69, i64 16
  %71 = getelementptr inbounds %"class.std::__1::unique_ptr.110", %"class.std::__1::unique_ptr.110"* %2, i64 0, i32 0, i32 0, i32 0
  %72 = bitcast %"class.std::__1::unique_ptr.110"* %2 to i64*
  %73 = load i64, i64* %72, align 8, !noalias !21
  store %"class.device::GamepadDeviceLinux"* null, %"class.device::GamepadDeviceLinux"** %71, align 8, !noalias !21
  %74 = bitcast i8* %70 to i64*
  store i64 %73, i64* %74, align 8, !noalias !21
  %75 = getelementptr inbounds i8, i8* %69, i64 8
  %76 = bitcast i8* %75 to i64*
  store i64 %18, i64* %76, align 8, !noalias !21
  %77 = bitcast i8* %69 to %"struct.std::__1::__hash_node_base"**
  store %"struct.std::__1::__hash_node_base"* null, %"struct.std::__1::__hash_node_base"** %77, align 8, !noalias !21
  %78 = getelementptr inbounds %"class.std::__1::__hash_table", %"class.std::__1::__hash_table"* %0, i64 0, i32 2, i32 0, i32 0
  %79 = load i64, i64* %78, align 8
  %80 = add i64 %79, 1
  %81 = uitofp i64 %80 to float
  %82 = uitofp i64 %20 to float
  %83 = getelementptr inbounds %"class.std::__1::__hash_table", %"class.std::__1::__hash_table"* %0, i64 0, i32 3, i32 0, i32 0
  %84 = load float, float* %83, align 4
  %85 = fmul float %84, %82
  %86 = fcmp olt float %85, %81
  %87 = or i1 %21, %86
  br i1 %87, label %88, label %111

88:                                               ; preds = %67
  %89 = shl i64 %20, 1
  %90 = icmp ult i64 %20, 3
  %91 = tail call i64 @llvm.ctpop.i64(i64 %20) #13, !range !20
  %92 = icmp ugt i64 %91, 1
  %93 = or i1 %90, %92
  %94 = zext i1 %93 to i64
  %95 = or i64 %89, %94
  %96 = fdiv float %81, %84
  %97 = tail call float @llvm.ceil.f32(float %96) #13
  %98 = fptoui float %97 to i64
  %99 = icmp ult i64 %95, %98
  %100 = select i1 %99, i64 %98, i64 %95
  tail call void @_ZNSt3__112__hash_tableINS_10unique_ptrIN6device18GamepadDeviceLinuxENS_14default_deleteIS3_EEEENS_4hashIS6_EENS_8equal_toIS6_EENS_9allocatorIS6_EEE6rehashEm(%"class.std::__1::__hash_table"* %0, i64 %100)
  %101 = load i64, i64* %19, align 8
  %102 = tail call i64 @llvm.ctpop.i64(i64 %101) #13, !range !20
  %103 = icmp ugt i64 %102, 1
  br i1 %103, label %107, label %104

104:                                              ; preds = %88
  %105 = add i64 %101, -1
  %106 = and i64 %105, %18
  br label %111

107:                                              ; preds = %88
  %108 = icmp ult i64 %18, %101
  br i1 %108, label %111, label %109

109:                                              ; preds = %107
  %110 = urem i64 %18, %101
  br label %111

111:                                              ; preds = %109, %107, %104, %67
  %112 = phi i64 [ %20, %67 ], [ %101, %104 ], [ %101, %107 ], [ %101, %109 ]
  %113 = phi i64 [ %68, %67 ], [ %106, %104 ], [ %18, %107 ], [ %110, %109 ]
  %114 = getelementptr inbounds %"class.std::__1::__hash_table", %"class.std::__1::__hash_table"* %0, i64 0, i32 0, i32 0, i32 0, i32 0
  %115 = load %"struct.std::__1::__hash_node_base"**, %"struct.std::__1::__hash_node_base"*** %114, align 8
  %116 = getelementptr inbounds %"struct.std::__1::__hash_node_base"*, %"struct.std::__1::__hash_node_base"** %115, i64 %113
  %117 = load %"struct.std::__1::__hash_node_base"*, %"struct.std::__1::__hash_node_base"** %116, align 8
  %118 = icmp eq %"struct.std::__1::__hash_node_base"* %117, null
  br i1 %118, label %119, label %145

119:                                              ; preds = %111
  %120 = getelementptr inbounds %"class.std::__1::__hash_table", %"class.std::__1::__hash_table"* %0, i64 0, i32 1, i32 0, i32 0
  %121 = bitcast %"struct.std::__1::__hash_node_base"* %120 to i64*
  %122 = load i64, i64* %121, align 8
  %123 = bitcast i8* %69 to i64*
  store i64 %122, i64* %123, align 8
  %124 = bitcast %"struct.std::__1::__hash_node_base"* %120 to i8**
  store i8* %69, i8** %124, align 8
  store %"struct.std::__1::__hash_node_base"* %120, %"struct.std::__1::__hash_node_base"** %116, align 8
  %125 = load %"struct.std::__1::__hash_node_base"*, %"struct.std::__1::__hash_node_base"** %77, align 8
  %126 = icmp eq %"struct.std::__1::__hash_node_base"* %125, null
  br i1 %126, label %152, label %127

127:                                              ; preds = %119
  %128 = getelementptr inbounds %"struct.std::__1::__hash_node_base", %"struct.std::__1::__hash_node_base"* %125, i64 1
  %129 = bitcast %"struct.std::__1::__hash_node_base"* %128 to i64*
  %130 = load i64, i64* %129, align 8
  %131 = tail call i64 @llvm.ctpop.i64(i64 %112) #13, !range !20
  %132 = icmp ugt i64 %131, 1
  br i1 %132, label %136, label %133

133:                                              ; preds = %127
  %134 = add i64 %112, -1
  %135 = and i64 %130, %134
  br label %140

136:                                              ; preds = %127
  %137 = icmp ult i64 %130, %112
  br i1 %137, label %140, label %138

138:                                              ; preds = %136
  %139 = urem i64 %130, %112
  br label %140

140:                                              ; preds = %133, %136, %138
  %141 = phi i64 [ %135, %133 ], [ %139, %138 ], [ %130, %136 ]
  %142 = load %"struct.std::__1::__hash_node_base"**, %"struct.std::__1::__hash_node_base"*** %114, align 8
  %143 = getelementptr inbounds %"struct.std::__1::__hash_node_base"*, %"struct.std::__1::__hash_node_base"** %142, i64 %141
  %144 = bitcast %"struct.std::__1::__hash_node_base"** %143 to i8**
  br label %150

145:                                              ; preds = %111
  %146 = bitcast %"struct.std::__1::__hash_node_base"* %117 to i64*
  %147 = load i64, i64* %146, align 8
  %148 = bitcast i8* %69 to i64*
  store i64 %147, i64* %148, align 8
  %149 = bitcast %"struct.std::__1::__hash_node_base"* %117 to i8**
  br label %150

150:                                              ; preds = %140, %145
  %151 = phi i8** [ %149, %145 ], [ %144, %140 ]
  store i8* %69, i8** %151, align 8
  br label %152

152:                                              ; preds = %150, %119
  %153 = bitcast i8* %69 to %"struct.std::__1::__hash_node_base"*
  %154 = load i64, i64* %78, align 8
  %155 = add i64 %154, 1
  store i64 %155, i64* %78, align 8
  br label %156

156:                                              ; preds = %62, %152
  %157 = phi i8 [ 1, %152 ], [ 0, %62 ]
  %158 = phi %"struct.std::__1::__hash_node_base"* [ %153, %152 ], [ %45, %62 ]
  %159 = insertvalue { %"struct.std::__1::__hash_node_base"*, i8 } undef, %"struct.std::__1::__hash_node_base"* %158, 0
  %160 = insertvalue { %"struct.std::__1::__hash_node_base"*, i8 } %159, i8 %157, 1
  ret { %"struct.std::__1::__hash_node_base"*, i8 } %160
}

; Function Attrs: nounwind ssp uwtable
define linkonce_odr hidden void @_ZNSt3__112__hash_tableINS_10unique_ptrIN6device18GamepadDeviceLinuxENS_14default_deleteIS3_EEEENS_4hashIS6_EENS_8equal_toIS6_EENS_9allocatorIS6_EEE6rehashEm(%"class.std::__1::__hash_table"*, i64) local_unnamed_addr #0 comdat align 2 {
  %3 = icmp eq i64 %1, 1
  br i1 %3, label %9, label %4

4:                                                ; preds = %2
  %5 = tail call i64 @llvm.ctpop.i64(i64 %1), !range !20
  %6 = icmp ugt i64 %5, 1
  br i1 %6, label %7, label %9

7:                                                ; preds = %4
  %8 = tail call i64 @_ZNSt3__112__next_primeEm(i64 %1) #13
  br label %9

9:                                                ; preds = %2, %4, %7
  %10 = phi i64 [ %8, %7 ], [ %1, %4 ], [ 2, %2 ]
  %11 = getelementptr inbounds %"class.std::__1::__hash_table", %"class.std::__1::__hash_table"* %0, i64 0, i32 0, i32 0, i32 1, i32 0, i32 0, i32 0, i32 0
  %12 = load i64, i64* %11, align 8
  %13 = icmp ugt i64 %10, %12
  br i1 %13, label %14, label %15

14:                                               ; preds = %9
  tail call void @_ZNSt3__112__hash_tableINS_10unique_ptrIN6device18GamepadDeviceLinuxENS_14default_deleteIS3_EEEENS_4hashIS6_EENS_8equal_toIS6_EENS_9allocatorIS6_EEE8__rehashEm(%"class.std::__1::__hash_table"* %0, i64 %10)
  br label %45

15:                                               ; preds = %9
  %16 = icmp ult i64 %10, %12
  br i1 %16, label %17, label %45

17:                                               ; preds = %15
  %18 = icmp ugt i64 %12, 2
  %19 = tail call i64 @llvm.ctpop.i64(i64 %12) #13, !range !20
  %20 = icmp ult i64 %19, 2
  %21 = and i1 %18, %20
  %22 = getelementptr inbounds %"class.std::__1::__hash_table", %"class.std::__1::__hash_table"* %0, i64 0, i32 2, i32 0, i32 0
  %23 = load i64, i64* %22, align 8
  %24 = uitofp i64 %23 to float
  %25 = getelementptr inbounds %"class.std::__1::__hash_table", %"class.std::__1::__hash_table"* %0, i64 0, i32 3, i32 0, i32 0
  %26 = load float, float* %25, align 4
  %27 = fdiv float %24, %26
  %28 = tail call float @llvm.ceil.f32(float %27) #13
  %29 = fptoui float %28 to i64
  br i1 %21, label %30, label %37

30:                                               ; preds = %17
  %31 = icmp ult i64 %29, 2
  br i1 %31, label %39, label %32

32:                                               ; preds = %30
  %33 = add i64 %29, -1
  %34 = tail call i64 @llvm.ctlz.i64(i64 %33, i1 true) #13, !range !20
  %35 = sub nuw nsw i64 64, %34
  %36 = shl i64 1, %35
  br label %39

37:                                               ; preds = %17
  %38 = tail call i64 @_ZNSt3__112__next_primeEm(i64 %29) #13
  br label %39

39:                                               ; preds = %32, %30, %37
  %40 = phi i64 [ %38, %37 ], [ %36, %32 ], [ %29, %30 ]
  %41 = icmp ult i64 %10, %40
  %42 = select i1 %41, i64 %40, i64 %10
  %43 = icmp ult i64 %42, %12
  br i1 %43, label %44, label %45

44:                                               ; preds = %39
  tail call void @_ZNSt3__112__hash_tableINS_10unique_ptrIN6device18GamepadDeviceLinuxENS_14default_deleteIS3_EEEENS_4hashIS6_EENS_8equal_toIS6_EENS_9allocatorIS6_EEE8__rehashEm(%"class.std::__1::__hash_table"* %0, i64 %42)
  br label %45

45:                                               ; preds = %15, %44, %39, %14
  ret void
}

declare i64 @_ZNSt3__112__next_primeEm(i64) local_unnamed_addr #1

; Function Attrs: nounwind ssp uwtable
define linkonce_odr hidden void @_ZNSt3__112__hash_tableINS_10unique_ptrIN6device18GamepadDeviceLinuxENS_14default_deleteIS3_EEEENS_4hashIS6_EENS_8equal_toIS6_EENS_9allocatorIS6_EEE8__rehashEm(%"class.std::__1::__hash_table"*, i64) local_unnamed_addr #0 comdat align 2 {
  %3 = getelementptr inbounds %"class.std::__1::__hash_table", %"class.std::__1::__hash_table"* %0, i64 0, i32 0, i32 0, i32 1, i32 0
  %4 = icmp eq i64 %1, 0
  br i1 %4, label %134, label %5

5:                                                ; preds = %2
  %6 = icmp ugt i64 %1, 2305843009213693951
  br i1 %6, label %7, label %8

7:                                                ; preds = %5
  tail call void @abort() #15
  unreachable

8:                                                ; preds = %5
  %9 = shl i64 %1, 3
  %10 = tail call i8* @_Znwm(i64 %9) #14
  %11 = getelementptr inbounds %"class.std::__1::__hash_table", %"class.std::__1::__hash_table"* %0, i64 0, i32 0, i32 0, i32 0, i32 0
  %12 = load %"struct.std::__1::__hash_node_base"**, %"struct.std::__1::__hash_node_base"*** %11, align 8
  %13 = bitcast %"class.std::__1::__hash_table"* %0 to i8**
  store i8* %10, i8** %13, align 8
  %14 = icmp eq %"struct.std::__1::__hash_node_base"** %12, null
  br i1 %14, label %17, label %15

15:                                               ; preds = %8
  %16 = bitcast %"struct.std::__1::__hash_node_base"** %12 to i8*
  tail call void @_ZdlPv(i8* %16) #14
  br label %17

17:                                               ; preds = %15, %8
  %18 = getelementptr inbounds %"class.std::__1::__bucket_list_deallocator", %"class.std::__1::__bucket_list_deallocator"* %3, i64 0, i32 0, i32 0, i32 0
  store i64 %1, i64* %18, align 8
  %19 = add i64 %1, -1
  %20 = and i64 %1, 3
  %21 = icmp ult i64 %19, 3
  br i1 %21, label %24, label %22

22:                                               ; preds = %17
  %23 = sub i64 %1, %20
  br label %40

24:                                               ; preds = %40, %17
  %25 = phi i64 [ 0, %17 ], [ %54, %40 ]
  %26 = icmp eq i64 %20, 0
  br i1 %26, label %35, label %27

27:                                               ; preds = %24, %27
  %28 = phi i64 [ %32, %27 ], [ %25, %24 ]
  %29 = phi i64 [ %33, %27 ], [ %20, %24 ]
  %30 = load %"struct.std::__1::__hash_node_base"**, %"struct.std::__1::__hash_node_base"*** %11, align 8
  %31 = getelementptr inbounds %"struct.std::__1::__hash_node_base"*, %"struct.std::__1::__hash_node_base"** %30, i64 %28
  store %"struct.std::__1::__hash_node_base"* null, %"struct.std::__1::__hash_node_base"** %31, align 8
  %32 = add nuw i64 %28, 1
  %33 = add i64 %29, -1
  %34 = icmp eq i64 %33, 0
  br i1 %34, label %35, label %27, !llvm.loop !24

35:                                               ; preds = %27, %24
  %36 = getelementptr inbounds %"class.std::__1::__hash_table", %"class.std::__1::__hash_table"* %0, i64 0, i32 1, i32 0, i32 0
  %37 = getelementptr inbounds %"struct.std::__1::__hash_node_base", %"struct.std::__1::__hash_node_base"* %36, i64 0, i32 0
  %38 = load %"struct.std::__1::__hash_node_base"*, %"struct.std::__1::__hash_node_base"** %37, align 8
  %39 = icmp eq %"struct.std::__1::__hash_node_base"* %38, null
  br i1 %39, label %142, label %57

40:                                               ; preds = %40, %22
  %41 = phi i64 [ 0, %22 ], [ %54, %40 ]
  %42 = phi i64 [ %23, %22 ], [ %55, %40 ]
  %43 = load %"struct.std::__1::__hash_node_base"**, %"struct.std::__1::__hash_node_base"*** %11, align 8
  %44 = getelementptr inbounds %"struct.std::__1::__hash_node_base"*, %"struct.std::__1::__hash_node_base"** %43, i64 %41
  store %"struct.std::__1::__hash_node_base"* null, %"struct.std::__1::__hash_node_base"** %44, align 8
  %45 = or i64 %41, 1
  %46 = load %"struct.std::__1::__hash_node_base"**, %"struct.std::__1::__hash_node_base"*** %11, align 8
  %47 = getelementptr inbounds %"struct.std::__1::__hash_node_base"*, %"struct.std::__1::__hash_node_base"** %46, i64 %45
  store %"struct.std::__1::__hash_node_base"* null, %"struct.std::__1::__hash_node_base"** %47, align 8
  %48 = or i64 %41, 2
  %49 = load %"struct.std::__1::__hash_node_base"**, %"struct.std::__1::__hash_node_base"*** %11, align 8
  %50 = getelementptr inbounds %"struct.std::__1::__hash_node_base"*, %"struct.std::__1::__hash_node_base"** %49, i64 %48
  store %"struct.std::__1::__hash_node_base"* null, %"struct.std::__1::__hash_node_base"** %50, align 8
  %51 = or i64 %41, 3
  %52 = load %"struct.std::__1::__hash_node_base"**, %"struct.std::__1::__hash_node_base"*** %11, align 8
  %53 = getelementptr inbounds %"struct.std::__1::__hash_node_base"*, %"struct.std::__1::__hash_node_base"** %52, i64 %51
  store %"struct.std::__1::__hash_node_base"* null, %"struct.std::__1::__hash_node_base"** %53, align 8
  %54 = add nuw i64 %41, 4
  %55 = add i64 %42, -4
  %56 = icmp eq i64 %55, 0
  br i1 %56, label %24, label %40

57:                                               ; preds = %35
  %58 = getelementptr inbounds %"struct.std::__1::__hash_node_base", %"struct.std::__1::__hash_node_base"* %38, i64 1
  %59 = bitcast %"struct.std::__1::__hash_node_base"* %58 to i64*
  %60 = load i64, i64* %59, align 8
  %61 = tail call i64 @llvm.ctpop.i64(i64 %1) #13, !range !20
  %62 = icmp ugt i64 %61, 1
  br i1 %62, label %66, label %63

63:                                               ; preds = %57
  %64 = add i64 %1, -1
  %65 = and i64 %60, %64
  br label %70

66:                                               ; preds = %57
  %67 = icmp ult i64 %60, %1
  br i1 %67, label %70, label %68

68:                                               ; preds = %66
  %69 = urem i64 %60, %1
  br label %70

70:                                               ; preds = %63, %66, %68
  %71 = phi i64 [ %65, %63 ], [ %69, %68 ], [ %60, %66 ]
  %72 = load %"struct.std::__1::__hash_node_base"**, %"struct.std::__1::__hash_node_base"*** %11, align 8
  %73 = getelementptr inbounds %"struct.std::__1::__hash_node_base"*, %"struct.std::__1::__hash_node_base"** %72, i64 %71
  store %"struct.std::__1::__hash_node_base"* %36, %"struct.std::__1::__hash_node_base"** %73, align 8
  %74 = getelementptr inbounds %"struct.std::__1::__hash_node_base", %"struct.std::__1::__hash_node_base"* %38, i64 0, i32 0
  %75 = load %"struct.std::__1::__hash_node_base"*, %"struct.std::__1::__hash_node_base"** %74, align 8
  %76 = icmp eq %"struct.std::__1::__hash_node_base"* %75, null
  br i1 %76, label %142, label %77

77:                                               ; preds = %70
  %78 = add i64 %1, -1
  br label %79

79:                                               ; preds = %77, %128
  %80 = phi %"struct.std::__1::__hash_node_base"* [ %75, %77 ], [ %132, %128 ]
  %81 = phi i64 [ %71, %77 ], [ %130, %128 ]
  %82 = phi %"struct.std::__1::__hash_node_base"* [ %38, %77 ], [ %129, %128 ]
  %83 = getelementptr inbounds %"struct.std::__1::__hash_node_base", %"struct.std::__1::__hash_node_base"* %80, i64 1
  %84 = bitcast %"struct.std::__1::__hash_node_base"* %83 to i64*
  %85 = load i64, i64* %84, align 8
  br i1 %62, label %88, label %86

86:                                               ; preds = %79
  %87 = and i64 %85, %78
  br label %92

88:                                               ; preds = %79
  %89 = icmp ult i64 %85, %1
  br i1 %89, label %92, label %90

90:                                               ; preds = %88
  %91 = urem i64 %85, %1
  br label %92

92:                                               ; preds = %86, %88, %90
  %93 = phi i64 [ %87, %86 ], [ %91, %90 ], [ %85, %88 ]
  %94 = icmp eq i64 %93, %81
  br i1 %94, label %128, label %95

95:                                               ; preds = %92
  %96 = load %"struct.std::__1::__hash_node_base"**, %"struct.std::__1::__hash_node_base"*** %11, align 8
  %97 = getelementptr inbounds %"struct.std::__1::__hash_node_base"*, %"struct.std::__1::__hash_node_base"** %96, i64 %93
  %98 = load %"struct.std::__1::__hash_node_base"*, %"struct.std::__1::__hash_node_base"** %97, align 8
  %99 = icmp eq %"struct.std::__1::__hash_node_base"* %98, null
  br i1 %99, label %103, label %100

100:                                              ; preds = %95
  %101 = getelementptr inbounds %"struct.std::__1::__hash_node_base", %"struct.std::__1::__hash_node_base"* %80, i64 2
  %102 = bitcast %"struct.std::__1::__hash_node_base"* %101 to %"class.device::GamepadDeviceLinux"**
  br label %104

103:                                              ; preds = %95
  store %"struct.std::__1::__hash_node_base"* %82, %"struct.std::__1::__hash_node_base"** %97, align 8
  br label %128

104:                                              ; preds = %100, %109
  %105 = phi %"struct.std::__1::__hash_node_base"* [ %107, %109 ], [ %80, %100 ]
  %106 = getelementptr inbounds %"struct.std::__1::__hash_node_base", %"struct.std::__1::__hash_node_base"* %105, i64 0, i32 0
  %107 = load %"struct.std::__1::__hash_node_base"*, %"struct.std::__1::__hash_node_base"** %106, align 8
  %108 = icmp eq %"struct.std::__1::__hash_node_base"* %107, null
  br i1 %108, label %115, label %109

109:                                              ; preds = %104
  %110 = getelementptr inbounds %"struct.std::__1::__hash_node_base", %"struct.std::__1::__hash_node_base"* %107, i64 2
  %111 = load %"class.device::GamepadDeviceLinux"*, %"class.device::GamepadDeviceLinux"** %102, align 8
  %112 = bitcast %"struct.std::__1::__hash_node_base"* %110 to %"class.device::GamepadDeviceLinux"**
  %113 = load %"class.device::GamepadDeviceLinux"*, %"class.device::GamepadDeviceLinux"** %112, align 8
  %114 = icmp eq %"class.device::GamepadDeviceLinux"* %111, %113
  br i1 %114, label %104, label %115

115:                                              ; preds = %104, %109
  %116 = ptrtoint %"struct.std::__1::__hash_node_base"* %107 to i64
  %117 = bitcast %"struct.std::__1::__hash_node_base"* %105 to i64*
  %118 = bitcast %"struct.std::__1::__hash_node_base"* %82 to i64*
  store i64 %116, i64* %118, align 8
  %119 = load %"struct.std::__1::__hash_node_base"**, %"struct.std::__1::__hash_node_base"*** %11, align 8
  %120 = getelementptr inbounds %"struct.std::__1::__hash_node_base"*, %"struct.std::__1::__hash_node_base"** %119, i64 %93
  %121 = bitcast %"struct.std::__1::__hash_node_base"** %120 to i64**
  %122 = load i64*, i64** %121, align 8
  %123 = load i64, i64* %122, align 8
  store i64 %123, i64* %117, align 8
  %124 = load %"struct.std::__1::__hash_node_base"**, %"struct.std::__1::__hash_node_base"*** %11, align 8
  %125 = getelementptr inbounds %"struct.std::__1::__hash_node_base"*, %"struct.std::__1::__hash_node_base"** %124, i64 %93
  %126 = load %"struct.std::__1::__hash_node_base"*, %"struct.std::__1::__hash_node_base"** %125, align 8
  %127 = getelementptr inbounds %"struct.std::__1::__hash_node_base", %"struct.std::__1::__hash_node_base"* %126, i64 0, i32 0
  store %"struct.std::__1::__hash_node_base"* %80, %"struct.std::__1::__hash_node_base"** %127, align 8
  br label %128

128:                                              ; preds = %92, %115, %103
  %129 = phi %"struct.std::__1::__hash_node_base"* [ %80, %103 ], [ %82, %115 ], [ %80, %92 ]
  %130 = phi i64 [ %93, %103 ], [ %81, %115 ], [ %81, %92 ]
  %131 = getelementptr inbounds %"struct.std::__1::__hash_node_base", %"struct.std::__1::__hash_node_base"* %129, i64 0, i32 0
  %132 = load %"struct.std::__1::__hash_node_base"*, %"struct.std::__1::__hash_node_base"** %131, align 8
  %133 = icmp eq %"struct.std::__1::__hash_node_base"* %132, null
  br i1 %133, label %142, label %79

134:                                              ; preds = %2
  %135 = getelementptr inbounds %"class.std::__1::__hash_table", %"class.std::__1::__hash_table"* %0, i64 0, i32 0, i32 0, i32 0, i32 0
  %136 = load %"struct.std::__1::__hash_node_base"**, %"struct.std::__1::__hash_node_base"*** %135, align 8
  store %"struct.std::__1::__hash_node_base"** null, %"struct.std::__1::__hash_node_base"*** %135, align 8
  %137 = icmp eq %"struct.std::__1::__hash_node_base"** %136, null
  br i1 %137, label %140, label %138

138:                                              ; preds = %134
  %139 = bitcast %"struct.std::__1::__hash_node_base"** %136 to i8*
  tail call void @_ZdlPv(i8* %139) #14
  br label %140

140:                                              ; preds = %134, %138
  %141 = getelementptr inbounds %"class.std::__1::__bucket_list_deallocator", %"class.std::__1::__bucket_list_deallocator"* %3, i64 0, i32 0, i32 0, i32 0
  store i64 0, i64* %141, align 8
  br label %142

142:                                              ; preds = %128, %70, %35, %140
  ret void
}

; Function Attrs: nounwind readnone speculatable
declare i64 @llvm.ctlz.i64(i64, i1 immarg) #12

; Function Attrs: nounwind readnone speculatable
declare float @llvm.ceil.f32(float) #12

declare void @_ZNK4base8internal18WeakReferenceOwner6GetRefEv(%"class.base::internal::WeakReference"* sret, %"class.base::internal::WeakReferenceOwner"*) local_unnamed_addr #1

; Function Attrs: nounwind
declare void @_ZN4base8internal13WeakReferenceD1Ev(%"class.base::internal::WeakReference"*) unnamed_addr #5

declare void @_ZN4base8internal11WeakPtrBaseC2ERKNS0_13WeakReferenceEm(%"class.base::internal::WeakPtrBase"*, %"class.base::internal::WeakReference"* dereferenceable(8), i64) unnamed_addr #1

; Function Attrs: nounwind ssp uwtable
define linkonce_odr hidden void @_ZN4base8internal7InvokerINS0_9BindStateIMN6device31GamepadPlatformDataFetcherLinuxEFvPNS3_18GamepadDeviceLinuxEEJNS_7WeakPtrIS4_EEEEEFvS6_EE7RunOnceEPNS0_13BindStateBaseES6_(%"class.base::internal::BindStateBase"*, %"class.device::GamepadDeviceLinux"*) #0 comdat align 2 {
  %3 = alloca %"class.logging::CheckError", align 8
  %4 = getelementptr inbounds %"class.base::internal::BindStateBase", %"class.base::internal::BindStateBase"* %0, i64 1
  %5 = getelementptr inbounds %"class.base::internal::BindStateBase", %"class.base::internal::BindStateBase"* %0, i64 1, i32 2
  %6 = bitcast void (%"class.base::internal::BindStateBase"*)** %5 to %"class.base::internal::WeakReference"*
  %7 = tail call zeroext i1 @_ZNK4base8internal13WeakReference7IsValidEv(%"class.base::internal::WeakReference"* %6) #13
  br i1 %7, label %8, label %43

8:                                                ; preds = %2
  %9 = getelementptr inbounds void (%"class.base::internal::BindStateBase"*)*, void (%"class.base::internal::BindStateBase"*)** %5, i64 1
  %10 = bitcast void (%"class.base::internal::BindStateBase"*)** %9 to %"class.device::GamepadPlatformDataFetcherLinux"**
  %11 = load %"class.device::GamepadPlatformDataFetcherLinux"*, %"class.device::GamepadPlatformDataFetcherLinux"** %10, align 8
  %12 = icmp eq %"class.device::GamepadPlatformDataFetcherLinux"* %11, null
  br i1 %12, label %43, label %13

13:                                               ; preds = %8
  %14 = bitcast %"class.base::internal::BindStateBase"* %4 to i64*
  %15 = load i64, i64* %14, align 8
  %16 = getelementptr inbounds %"class.base::internal::BindStateBase", %"class.base::internal::BindStateBase"* %0, i64 1, i32 1
  %17 = bitcast void ()** %16 to i64*
  %18 = load i64, i64* %17, align 8
  %19 = tail call zeroext i1 @_ZNK4base8internal13WeakReference7IsValidEv(%"class.base::internal::WeakReference"* %6) #13
  br i1 %19, label %23, label %20

20:                                               ; preds = %13
  %21 = bitcast %"class.logging::CheckError"* %3 to i8*
  call void @llvm.lifetime.start.p0i8(i64 8, i8* nonnull %21) #13
  call void @_ZN7logging10CheckError5CheckEPKciS2_(%"class.logging::CheckError"* nonnull sret %3, i8* getelementptr inbounds ([29 x i8], [29 x i8]* @.str.5, i64 0, i64 0), i32 251, i8* getelementptr inbounds ([15 x i8], [15 x i8]* @.str.6, i64 0, i64 0)) #13
  %22 = call dereferenceable(160) %"class.std::__1::basic_ostream"* @_ZN7logging10CheckError6streamEv(%"class.logging::CheckError"* nonnull %3) #13
  call void @_ZN7logging10CheckErrorD1Ev(%"class.logging::CheckError"* nonnull %3) #13
  call void @llvm.lifetime.end.p0i8(i64 8, i8* nonnull %21) #13
  br label %23

23:                                               ; preds = %20, %13
  %24 = call zeroext i1 @_ZNK4base8internal13WeakReference7IsValidEv(%"class.base::internal::WeakReference"* %6) #13
  %25 = bitcast void (%"class.base::internal::BindStateBase"*)** %9 to i8**
  %26 = load i8*, i8** %25, align 8
  %27 = select i1 %24, i8* %26, i8* null
  %28 = getelementptr inbounds i8, i8* %27, i64 %18
  %29 = bitcast i8* %28 to %"class.device::GamepadPlatformDataFetcherLinux"*
  %30 = and i64 %15, 1
  %31 = icmp eq i64 %30, 0
  br i1 %31, label %39, label %32

32:                                               ; preds = %23
  %33 = bitcast i8* %28 to i8**
  %34 = load i8*, i8** %33, align 8
  %35 = add i64 %15, -1
  %36 = getelementptr i8, i8* %34, i64 %35
  %37 = bitcast i8* %36 to void (%"class.device::GamepadPlatformDataFetcherLinux"*, %"class.device::GamepadDeviceLinux"*)**
  %38 = load void (%"class.device::GamepadPlatformDataFetcherLinux"*, %"class.device::GamepadDeviceLinux"*)*, void (%"class.device::GamepadPlatformDataFetcherLinux"*, %"class.device::GamepadDeviceLinux"*)** %37, align 8
  br label %41

39:                                               ; preds = %23
  %40 = inttoptr i64 %15 to void (%"class.device::GamepadPlatformDataFetcherLinux"*, %"class.device::GamepadDeviceLinux"*)*
  br label %41

41:                                               ; preds = %39, %32
  %42 = phi void (%"class.device::GamepadPlatformDataFetcherLinux"*, %"class.device::GamepadDeviceLinux"*)* [ %38, %32 ], [ %40, %39 ]
  call void %42(%"class.device::GamepadPlatformDataFetcherLinux"* %29, %"class.device::GamepadDeviceLinux"* %1) #13
  br label %43

43:                                               ; preds = %2, %8, %41
  ret void
}

declare zeroext i1 @_ZNK4base8internal13WeakReference7IsValidEv(%"class.base::internal::WeakReference"*) local_unnamed_addr #1

; Function Attrs: nounwind ssp uwtable
define linkonce_odr hidden void @_ZN4base8internal9BindStateIMN6device31GamepadPlatformDataFetcherLinuxEFvPNS2_18GamepadDeviceLinuxEEJNS_7WeakPtrIS3_EEEE7DestroyEPKNS0_13BindStateBaseE(%"class.base::internal::BindStateBase"*) #0 comdat align 2 {
  %2 = icmp eq %"class.base::internal::BindStateBase"* %0, null
  br i1 %2, label %7, label %3

3:                                                ; preds = %1
  %4 = getelementptr inbounds %"class.base::internal::BindStateBase", %"class.base::internal::BindStateBase"* %0, i64 1, i32 2
  %5 = bitcast void (%"class.base::internal::BindStateBase"*)** %4 to %"class.base::internal::WeakPtrBase"*
  tail call void @_ZN4base8internal11WeakPtrBaseD2Ev(%"class.base::internal::WeakPtrBase"* %5) #13
  %6 = bitcast %"class.base::internal::BindStateBase"* %0 to i8*
  tail call void @_ZdlPv(i8* %6) #14
  br label %7

7:                                                ; preds = %3, %1
  ret void
}

; Function Attrs: nounwind ssp uwtable
define linkonce_odr hidden zeroext i1 @_ZN4base8internal23QueryCancellationTraitsINS0_9BindStateIMN6device31GamepadPlatformDataFetcherLinuxEFvPNS3_18GamepadDeviceLinuxEEJNS_7WeakPtrIS4_EEEEEEEbPKNS0_13BindStateBaseENSC_21CancellationQueryModeE(%"class.base::internal::BindStateBase"*, i32) #0 comdat {
  %3 = getelementptr inbounds %"class.base::internal::BindStateBase", %"class.base::internal::BindStateBase"* %0, i64 1, i32 2
  switch i32 %1, label %16 [
    i32 0, label %4
    i32 1, label %13
  ]

4:                                                ; preds = %2
  %5 = bitcast void (%"class.base::internal::BindStateBase"*)** %3 to %"class.base::internal::WeakReference"*
  %6 = tail call zeroext i1 @_ZNK4base8internal13WeakReference7IsValidEv(%"class.base::internal::WeakReference"* %5) #13
  %7 = getelementptr inbounds void (%"class.base::internal::BindStateBase"*)*, void (%"class.base::internal::BindStateBase"*)** %3, i64 1
  %8 = bitcast void (%"class.base::internal::BindStateBase"*)** %7 to %"class.device::GamepadPlatformDataFetcherLinux"**
  %9 = load %"class.device::GamepadPlatformDataFetcherLinux"*, %"class.device::GamepadPlatformDataFetcherLinux"** %8, align 8
  %10 = icmp ne %"class.device::GamepadPlatformDataFetcherLinux"* %9, null
  %11 = and i1 %6, %10
  %12 = xor i1 %11, true
  br label %16

13:                                               ; preds = %2
  %14 = bitcast void (%"class.base::internal::BindStateBase"*)** %3 to %"class.base::internal::WeakReference"*
  %15 = tail call zeroext i1 @_ZNK4base8internal13WeakReference10MaybeValidEv(%"class.base::internal::WeakReference"* %14) #13
  br label %16

16:                                               ; preds = %2, %4, %13
  %17 = phi i1 [ %15, %13 ], [ %12, %4 ], [ false, %2 ]
  ret i1 %17
}

declare void @_ZN4base8internal13BindStateBaseC2EPFvvEPFvPKS1_EPFbS5_NS1_21CancellationQueryModeEE(%"class.base::internal::BindStateBase"*, void ()*, void (%"class.base::internal::BindStateBase"*)*, i1 (%"class.base::internal::BindStateBase"*, i32)*) unnamed_addr #1

declare zeroext i1 @_ZNK4base8internal13WeakReference10MaybeValidEv(%"class.base::internal::WeakReference"*) local_unnamed_addr #1

; Function Attrs: nounwind
declare void @_ZN4base8internal13WeakReferenceC1EOS1_(%"class.base::internal::WeakReference"*, %"class.base::internal::WeakReference"* dereferenceable(8)) unnamed_addr #5

declare void @_ZN6device5mojom23GamepadEffectParametersC1Ev(%"class.device::mojom::GamepadEffectParameters"*) unnamed_addr #1

; Function Attrs: nounwind readnone speculatable
declare i64 @llvm.ctpop.i64(i64) #12

attributes #0 = { nounwind ssp uwtable "correctly-rounded-divide-sqrt-fp-math"="false" "disable-tail-calls"="false" "less-precise-fpmad"="false" "min-legal-vector-width"="0" "no-frame-pointer-elim"="false" "no-frame-pointer-elim-non-leaf" "no-infs-fp-math"="false" "no-jump-tables"="false" "no-nans-fp-math"="false" "no-signed-zeros-fp-math"="false" "no-trapping-math"="false" "null-pointer-is-valid"="true" "stack-protector-buffer-size"="4" "target-cpu"="x86-64" "target-features"="+cx8,+fxsr,+mmx,+sse,+sse2,+sse3,+x87" "unsafe-fp-math"="false" "use-soft-float"="false" }
attributes #1 = { "correctly-rounded-divide-sqrt-fp-math"="false" "disable-tail-calls"="false" "less-precise-fpmad"="false" "no-frame-pointer-elim"="false" "no-frame-pointer-elim-non-leaf" "no-infs-fp-math"="false" "no-nans-fp-math"="false" "no-signed-zeros-fp-math"="false" "no-trapping-math"="false" "null-pointer-is-valid"="true" "stack-protector-buffer-size"="4" "target-cpu"="x86-64" "target-features"="+cx8,+fxsr,+mmx,+sse,+sse2,+sse3,+x87" "unsafe-fp-math"="false" "use-soft-float"="false" }
attributes #2 = { nobuiltin nounwind "correctly-rounded-divide-sqrt-fp-math"="false" "disable-tail-calls"="false" "less-precise-fpmad"="false" "no-frame-pointer-elim"="false" "no-frame-pointer-elim-non-leaf" "no-infs-fp-math"="false" "no-nans-fp-math"="false" "no-signed-zeros-fp-math"="false" "no-trapping-math"="false" "null-pointer-is-valid"="true" "stack-protector-buffer-size"="4" "target-cpu"="x86-64" "target-features"="+cx8,+fxsr,+mmx,+sse,+sse2,+sse3,+x87" "unsafe-fp-math"="false" "use-soft-float"="false" }
attributes #3 = { argmemonly nounwind }
attributes #4 = { norecurse nounwind readnone ssp uwtable "correctly-rounded-divide-sqrt-fp-math"="false" "disable-tail-calls"="false" "less-precise-fpmad"="false" "min-legal-vector-width"="0" "no-frame-pointer-elim"="false" "no-frame-pointer-elim-non-leaf" "no-infs-fp-math"="false" "no-jump-tables"="false" "no-nans-fp-math"="false" "no-signed-zeros-fp-math"="false" "no-trapping-math"="false" "null-pointer-is-valid"="true" "stack-protector-buffer-size"="4" "target-cpu"="x86-64" "target-features"="+cx8,+fxsr,+mmx,+sse,+sse2,+sse3,+x87" "unsafe-fp-math"="false" "use-soft-float"="false" }
attributes #5 = { nounwind "correctly-rounded-divide-sqrt-fp-math"="false" "disable-tail-calls"="false" "less-precise-fpmad"="false" "no-frame-pointer-elim"="false" "no-frame-pointer-elim-non-leaf" "no-infs-fp-math"="false" "no-nans-fp-math"="false" "no-signed-zeros-fp-math"="false" "no-trapping-math"="false" "null-pointer-is-valid"="true" "stack-protector-buffer-size"="4" "target-cpu"="x86-64" "target-features"="+cx8,+fxsr,+mmx,+sse,+sse2,+sse3,+x87" "unsafe-fp-math"="false" "use-soft-float"="false" }
attributes #6 = { nounwind readonly ssp uwtable "correctly-rounded-divide-sqrt-fp-math"="false" "disable-tail-calls"="false" "less-precise-fpmad"="false" "min-legal-vector-width"="0" "no-frame-pointer-elim"="false" "no-frame-pointer-elim-non-leaf" "no-infs-fp-math"="false" "no-jump-tables"="false" "no-nans-fp-math"="false" "no-signed-zeros-fp-math"="false" "no-trapping-math"="false" "null-pointer-is-valid"="true" "stack-protector-buffer-size"="4" "target-cpu"="x86-64" "target-features"="+cx8,+fxsr,+mmx,+sse,+sse2,+sse3,+x87" "unsafe-fp-math"="false" "use-soft-float"="false" }
attributes #7 = { nobuiltin nofree "correctly-rounded-divide-sqrt-fp-math"="false" "disable-tail-calls"="false" "less-precise-fpmad"="false" "no-frame-pointer-elim"="false" "no-frame-pointer-elim-non-leaf" "no-infs-fp-math"="false" "no-nans-fp-math"="false" "no-signed-zeros-fp-math"="false" "no-trapping-math"="false" "null-pointer-is-valid"="true" "stack-protector-buffer-size"="4" "target-cpu"="x86-64" "target-features"="+cx8,+fxsr,+mmx,+sse,+sse2,+sse3,+x87" "unsafe-fp-math"="false" "use-soft-float"="false" }
attributes #8 = { inlinehint nounwind ssp uwtable "correctly-rounded-divide-sqrt-fp-math"="false" "disable-tail-calls"="false" "less-precise-fpmad"="false" "min-legal-vector-width"="0" "no-frame-pointer-elim"="false" "no-frame-pointer-elim-non-leaf" "no-infs-fp-math"="false" "no-jump-tables"="false" "no-nans-fp-math"="false" "no-signed-zeros-fp-math"="false" "no-trapping-math"="false" "null-pointer-is-valid"="true" "stack-protector-buffer-size"="4" "target-cpu"="x86-64" "target-features"="+cx8,+fxsr,+mmx,+sse,+sse2,+sse3,+x87" "unsafe-fp-math"="false" "use-soft-float"="false" }
attributes #9 = { argmemonly nofree nounwind readonly "correctly-rounded-divide-sqrt-fp-math"="false" "disable-tail-calls"="false" "less-precise-fpmad"="false" "no-frame-pointer-elim"="false" "no-frame-pointer-elim-non-leaf" "no-infs-fp-math"="false" "no-nans-fp-math"="false" "no-signed-zeros-fp-math"="false" "no-trapping-math"="false" "null-pointer-is-valid"="true" "stack-protector-buffer-size"="4" "target-cpu"="x86-64" "target-features"="+cx8,+fxsr,+mmx,+sse,+sse2,+sse3,+x87" "unsafe-fp-math"="false" "use-soft-float"="false" }
attributes #10 = { noreturn "correctly-rounded-divide-sqrt-fp-math"="false" "disable-tail-calls"="false" "less-precise-fpmad"="false" "no-frame-pointer-elim"="false" "no-frame-pointer-elim-non-leaf" "no-infs-fp-math"="false" "no-nans-fp-math"="false" "no-signed-zeros-fp-math"="false" "no-trapping-math"="false" "null-pointer-is-valid"="true" "stack-protector-buffer-size"="4" "target-cpu"="x86-64" "target-features"="+cx8,+fxsr,+mmx,+sse,+sse2,+sse3,+x87" "unsafe-fp-math"="false" "use-soft-float"="false" }
attributes #11 = { noreturn nounwind "correctly-rounded-divide-sqrt-fp-math"="false" "disable-tail-calls"="false" "less-precise-fpmad"="false" "no-frame-pointer-elim"="false" "no-frame-pointer-elim-non-leaf" "no-infs-fp-math"="false" "no-nans-fp-math"="false" "no-signed-zeros-fp-math"="false" "no-trapping-math"="false" "null-pointer-is-valid"="true" "stack-protector-buffer-size"="4" "target-cpu"="x86-64" "target-features"="+cx8,+fxsr,+mmx,+sse,+sse2,+sse3,+x87" "unsafe-fp-math"="false" "use-soft-float"="false" }
attributes #12 = { nounwind readnone speculatable }
attributes #13 = { nounwind }
attributes #14 = { builtin nounwind }
attributes #15 = { noreturn nounwind }

!llvm.module.flags = !{!0, !1}

!0 = !{i32 1, !"wchar_size", i32 4}
!1 = !{i32 7, !"PIC Level", i32 2}
!2 = distinct !{!2, !3}
!3 = !{!"llvm.loop.unroll.disable"}
!4 = !{!"branch_weights", i32 2000, i32 1}
!5 = !{i8 0, i8 2}
!6 = !{!7}
!7 = distinct !{!7, !8, !"_ZNK6device18GamepadDeviceLinux7GetNameEv: argument 0"}
!8 = distinct !{!8, !"_ZNK6device18GamepadDeviceLinux7GetNameEv"}
!9 = !{!10}
!10 = distinct !{!10, !11, !"_ZNK6device18GamepadDeviceLinux7GetNameEv: argument 0"}
!11 = distinct !{!11, !"_ZNK6device18GamepadDeviceLinux7GetNameEv"}
!12 = !{!13}
!13 = distinct !{!13, !14, !"_ZNK4base14WeakPtrFactoryIN6device31GamepadPlatformDataFetcherLinuxEE10GetWeakPtrEv: argument 0"}
!14 = distinct !{!14, !"_ZNK4base14WeakPtrFactoryIN6device31GamepadPlatformDataFetcherLinuxEE10GetWeakPtrEv"}
!15 = !{!16, !18}
!16 = distinct !{!16, !17, !"_ZN4base8internal8BindImplINS_12OnceCallbackEMN6device31GamepadPlatformDataFetcherLinuxEFvPNS3_18GamepadDeviceLinuxEEJNS_7WeakPtrIS4_EEEEEDcOT0_DpOT1_: argument 0"}
!17 = distinct !{!17, !"_ZN4base8internal8BindImplINS_12OnceCallbackEMN6device31GamepadPlatformDataFetcherLinuxEFvPNS3_18GamepadDeviceLinuxEEJNS_7WeakPtrIS4_EEEEEDcOT0_DpOT1_"}
!18 = distinct !{!18, !19, !"_ZN4base8BindOnceIMN6device31GamepadPlatformDataFetcherLinuxEFvPNS1_18GamepadDeviceLinuxEEJNS_7WeakPtrIS2_EEEEENS_12OnceCallbackINS_8internal14BindTypeHelperIT_JDpT0_EE14UnboundRunTypeEEEOSC_DpOSD_: argument 0"}
!19 = distinct !{!19, !"_ZN4base8BindOnceIMN6device31GamepadPlatformDataFetcherLinuxEFvPNS1_18GamepadDeviceLinuxEEJNS_7WeakPtrIS2_EEEEENS_12OnceCallbackINS_8internal14BindTypeHelperIT_JDpT0_EE14UnboundRunTypeEEEOSC_DpOSD_"}
!20 = !{i64 0, i64 65}
!21 = !{!22}
!22 = distinct !{!22, !23, !"_ZNSt3__112__hash_tableINS_10unique_ptrIN6device18GamepadDeviceLinuxENS_14default_deleteIS3_EEEENS_4hashIS6_EENS_8equal_toIS6_EENS_9allocatorIS6_EEE21__construct_node_hashIS6_JEEENS1_INS_11__hash_nodeIS6_PvEENS_22__hash_node_destructorINSB_ISH_EEEEEEmOT_DpOT0_: argument 0"}
!23 = distinct !{!23, !"_ZNSt3__112__hash_tableINS_10unique_ptrIN6device18GamepadDeviceLinuxENS_14default_deleteIS3_EEEENS_4hashIS6_EENS_8equal_toIS6_EENS_9allocatorIS6_EEE21__construct_node_hashIS6_JEEENS1_INS_11__hash_nodeIS6_PvEENS_22__hash_node_destructorINSB_ISH_EEEEEEmOT_DpOT0_"}
!24 = distinct !{!24, !3}
