; ModuleID = 'gen/components/assist_ranker/proto/generic_logistic_regression_model.pb.cc'
source_filename = "gen/components/assist_ranker/proto/generic_logistic_regression_model.pb.cc"
target datalayout = "e-m:e-i64:64-f80:128-n8:16:32:64-S128"
target triple = "x86_64-unknown-linux-gnu"

module asm ".symver exp, exp@GLIBC_2.2.5"
module asm ".symver exp2, exp2@GLIBC_2.2.5"
module asm ".symver exp2f, exp2f@GLIBC_2.2.5"
module asm ".symver expf, expf@GLIBC_2.2.5"
module asm ".symver lgamma, lgamma@GLIBC_2.2.5"
module asm ".symver lgammaf, lgammaf@GLIBC_2.2.5"
module asm ".symver lgammal, lgammal@GLIBC_2.2.5"
module asm ".symver log, log@GLIBC_2.2.5"
module asm ".symver log2, log2@GLIBC_2.2.5"
module asm ".symver log2f, log2f@GLIBC_2.2.5"
module asm ".symver logf, logf@GLIBC_2.2.5"
module asm ".symver pow, pow@GLIBC_2.2.5"
module asm ".symver powf, powf@GLIBC_2.2.5"

%"class.assist_ranker::SparseWeights_WeightsEntry_DoNotUseDefaultTypeInternal" = type { %"class.google::protobuf::internal::ExplicitlyConstructed" }
%"class.google::protobuf::internal::ExplicitlyConstructed" = type { %"union.google::protobuf::internal::ExplicitlyConstructed<assist_ranker::SparseWeights_WeightsEntry_DoNotUse>::AlignedUnion" }
%"union.google::protobuf::internal::ExplicitlyConstructed<assist_ranker::SparseWeights_WeightsEntry_DoNotUse>::AlignedUnion" = type { i64, [24 x i8] }
%"class.assist_ranker::SparseWeightsDefaultTypeInternal" = type { %"class.google::protobuf::internal::ExplicitlyConstructed.0" }
%"class.google::protobuf::internal::ExplicitlyConstructed.0" = type { %"union.google::protobuf::internal::ExplicitlyConstructed<assist_ranker::SparseWeights>::AlignedUnion" }
%"union.google::protobuf::internal::ExplicitlyConstructed<assist_ranker::SparseWeights>::AlignedUnion" = type { i64, [72 x i8] }
%"class.assist_ranker::BucketizedWeightsDefaultTypeInternal" = type { %"class.google::protobuf::internal::ExplicitlyConstructed.1" }
%"class.google::protobuf::internal::ExplicitlyConstructed.1" = type { %"union.google::protobuf::internal::ExplicitlyConstructed<assist_ranker::BucketizedWeights>::AlignedUnion" }
%"union.google::protobuf::internal::ExplicitlyConstructed<assist_ranker::BucketizedWeights>::AlignedUnion" = type { i64, [64 x i8] }
%"class.assist_ranker::FeatureWeightDefaultTypeInternal" = type { %"class.google::protobuf::internal::ExplicitlyConstructed.2" }
%"class.google::protobuf::internal::ExplicitlyConstructed.2" = type { %"union.google::protobuf::internal::ExplicitlyConstructed<assist_ranker::FeatureWeight>::AlignedUnion" }
%"union.google::protobuf::internal::ExplicitlyConstructed<assist_ranker::FeatureWeight>::AlignedUnion" = type { i64, [24 x i8] }
%"class.assist_ranker::GenericLogisticRegressionModel_WeightsEntry_DoNotUseDefaultTypeInternal" = type { %"class.google::protobuf::internal::ExplicitlyConstructed.3" }
%"class.google::protobuf::internal::ExplicitlyConstructed.3" = type { %"union.google::protobuf::internal::ExplicitlyConstructed<assist_ranker::GenericLogisticRegressionModel_WeightsEntry_DoNotUse>::AlignedUnion" }
%"union.google::protobuf::internal::ExplicitlyConstructed<assist_ranker::GenericLogisticRegressionModel_WeightsEntry_DoNotUse>::AlignedUnion" = type { i64, [32 x i8] }
%"class.assist_ranker::GenericLogisticRegressionModel_FullnameWeightsEntry_DoNotUseDefaultTypeInternal" = type { %"class.google::protobuf::internal::ExplicitlyConstructed.4" }
%"class.google::protobuf::internal::ExplicitlyConstructed.4" = type { %"union.google::protobuf::internal::ExplicitlyConstructed<assist_ranker::GenericLogisticRegressionModel_FullnameWeightsEntry_DoNotUse>::AlignedUnion" }
%"union.google::protobuf::internal::ExplicitlyConstructed<assist_ranker::GenericLogisticRegressionModel_FullnameWeightsEntry_DoNotUse>::AlignedUnion" = type { i64, [24 x i8] }
%"class.assist_ranker::GenericLogisticRegressionModelDefaultTypeInternal" = type { %"class.google::protobuf::internal::ExplicitlyConstructed.5" }
%"class.google::protobuf::internal::ExplicitlyConstructed.5" = type { %"union.google::protobuf::internal::ExplicitlyConstructed<assist_ranker::GenericLogisticRegressionModel>::AlignedUnion" }
%"union.google::protobuf::internal::ExplicitlyConstructed<assist_ranker::GenericLogisticRegressionModel>::AlignedUnion" = type { i64, [136 x i8] }
%"struct.google::protobuf::internal::SCCInfo.9" = type { %"struct.google::protobuf::internal::SCCInfoBase", [3 x i8*] }
%"struct.google::protobuf::internal::SCCInfoBase" = type { %"struct.std::__1::atomic", i32, i32, void ()* }
%"struct.std::__1::atomic" = type { %"struct.std::__1::__atomic_base" }
%"struct.std::__1::__atomic_base" = type { %"struct.std::__1::__atomic_base.6" }
%"struct.std::__1::__atomic_base.6" = type { %"struct.std::__1::__cxx_atomic_impl" }
%"struct.std::__1::__cxx_atomic_impl" = type { %"struct.std::__1::__cxx_atomic_base_impl" }
%"struct.std::__1::__cxx_atomic_base_impl" = type { i32 }
%"class.assist_ranker::ExamplePreprocessorConfigDefaultTypeInternal" = type opaque
%"class.google::protobuf::internal::ExplicitlyConstructed.54" = type { %"union.google::protobuf::internal::ExplicitlyConstructed<std::__1::basic_string<char, std::__1::char_traits<char>, std::__1::allocator<char> > >::AlignedUnion" }
%"union.google::protobuf::internal::ExplicitlyConstructed<std::__1::basic_string<char, std::__1::char_traits<char>, std::__1::allocator<char> > >::AlignedUnion" = type { i64, [16 x i8] }
%"class.assist_ranker::SparseWeights_WeightsEntry_DoNotUse" = type { %"class.google::protobuf::internal::MapEntryLite" }
%"class.google::protobuf::internal::MapEntryLite" = type { %"class.google::protobuf::internal::MapEntryImpl" }
%"class.google::protobuf::internal::MapEntryImpl" = type { %"class.google::protobuf::MessageLite", %"struct.google::protobuf::internal::ArenaStringPtr", float, [1 x i32] }
%"class.google::protobuf::MessageLite" = type { i32 (...)**, %"class.google::protobuf::internal::InternalMetadata" }
%"class.google::protobuf::internal::InternalMetadata" = type { i8* }
%"struct.google::protobuf::internal::ArenaStringPtr" = type { %"class.std::__1::basic_string"* }
%"class.std::__1::basic_string" = type { %"class.std::__1::__compressed_pair" }
%"class.std::__1::__compressed_pair" = type { %"struct.std::__1::__compressed_pair_elem" }
%"struct.std::__1::__compressed_pair_elem" = type { %"struct.std::__1::basic_string<char, std::__1::char_traits<char>, std::__1::allocator<char> >::__rep" }
%"struct.std::__1::basic_string<char, std::__1::char_traits<char>, std::__1::allocator<char> >::__rep" = type { %union.anon }
%union.anon = type { %"struct.std::__1::basic_string<char, std::__1::char_traits<char>, std::__1::allocator<char> >::__long" }
%"struct.std::__1::basic_string<char, std::__1::char_traits<char>, std::__1::allocator<char> >::__long" = type { i8*, i64, i64 }
%"class.google::protobuf::Arena" = type { %"class.google::protobuf::internal::ArenaImpl", void (%"class.std::type_info"*, i64, i8*)*, void (%"class.google::protobuf::Arena"*, i8*, i64)*, void (%"class.google::protobuf::Arena"*, i8*, i64)*, i8* }
%"class.google::protobuf::internal::ArenaImpl" = type { %"struct.std::__1::atomic.11", %"struct.std::__1::atomic.11", %"struct.std::__1::atomic.15", %"class.google::protobuf::internal::ArenaImpl::Block"*, i64, %"struct.google::protobuf::internal::ArenaImpl::Options" }
%"struct.std::__1::atomic.11" = type { %"struct.std::__1::__atomic_base.12" }
%"struct.std::__1::__atomic_base.12" = type { %"struct.std::__1::__cxx_atomic_impl.13" }
%"struct.std::__1::__cxx_atomic_impl.13" = type { %"struct.std::__1::__cxx_atomic_base_impl.14" }
%"struct.std::__1::__cxx_atomic_base_impl.14" = type { %"class.google::protobuf::internal::ArenaImpl::SerialArena"* }
%"class.google::protobuf::internal::ArenaImpl::SerialArena" = type { %"class.google::protobuf::internal::ArenaImpl"*, i8*, %"class.google::protobuf::internal::ArenaImpl::Block"*, %"struct.google::protobuf::internal::ArenaImpl::CleanupChunk"*, %"class.google::protobuf::internal::ArenaImpl::SerialArena"*, i8*, i8*, %"struct.google::protobuf::internal::ArenaImpl::CleanupNode"*, %"struct.google::protobuf::internal::ArenaImpl::CleanupNode"* }
%"struct.google::protobuf::internal::ArenaImpl::CleanupChunk" = type { i64, %"struct.google::protobuf::internal::ArenaImpl::CleanupChunk"*, [1 x %"struct.google::protobuf::internal::ArenaImpl::CleanupNode"] }
%"struct.google::protobuf::internal::ArenaImpl::CleanupNode" = type { i8*, void (i8*)* }
%"struct.std::__1::atomic.15" = type { %"struct.std::__1::__atomic_base.16" }
%"struct.std::__1::__atomic_base.16" = type { %"struct.std::__1::__atomic_base.17" }
%"struct.std::__1::__atomic_base.17" = type { %"struct.std::__1::__cxx_atomic_impl.18" }
%"struct.std::__1::__cxx_atomic_impl.18" = type { %"struct.std::__1::__cxx_atomic_base_impl.19" }
%"struct.std::__1::__cxx_atomic_base_impl.19" = type { i64 }
%"class.google::protobuf::internal::ArenaImpl::Block" = type { %"class.google::protobuf::internal::ArenaImpl::Block"*, i64, i64 }
%"struct.google::protobuf::internal::ArenaImpl::Options" = type { i64, i64, i8*, i64, i8* (i64)*, void (i8*, i64)* }
%"class.std::type_info" = type { i32 (...)**, i8* }
%"class.assist_ranker::SparseWeights" = type <{ %"class.google::protobuf::MessageLite", %"class.google::protobuf::internal::HasBits", %"class.google::protobuf::internal::CachedSize", %"class.google::protobuf::internal::MapFieldLite", float, [4 x i8] }>
%"class.google::protobuf::internal::HasBits" = type { [1 x i32] }
%"class.google::protobuf::internal::CachedSize" = type { %"struct.std::__1::atomic" }
%"class.google::protobuf::internal::MapFieldLite" = type { %"class.google::protobuf::Map" }
%"class.google::protobuf::Map" = type { %"class.google::protobuf::Map<std::__1::basic_string<char, std::__1::char_traits<char>, std::__1::allocator<char> >, float>::InnerMap" }
%"class.google::protobuf::Map<std::__1::basic_string<char, std::__1::char_traits<char>, std::__1::allocator<char> >, float>::InnerMap" = type { i64, i64, i64, i64, i8**, %"class.google::protobuf::internal::MapAllocator" }
%"class.google::protobuf::internal::MapAllocator" = type { %"class.google::protobuf::Arena"* }
%"class.assist_ranker::BucketizedWeights" = type { %"class.google::protobuf::MessageLite", %"class.google::protobuf::internal::HasBits", %"class.google::protobuf::internal::CachedSize", %"class.google::protobuf::RepeatedField", %"struct.std::__1::atomic", %"class.google::protobuf::RepeatedField", %"struct.std::__1::atomic", float }
%"class.google::protobuf::RepeatedField" = type { i32, i32, i8* }
%"class.assist_ranker::FeatureWeight" = type { %"class.google::protobuf::MessageLite", %"union.assist_ranker::FeatureWeight::FeatureTypeUnion", %"class.google::protobuf::internal::CachedSize", [1 x i32] }
%"union.assist_ranker::FeatureWeight::FeatureTypeUnion" = type { %"class.assist_ranker::SparseWeights"* }
%"class.assist_ranker::GenericLogisticRegressionModel_WeightsEntry_DoNotUse" = type { %"class.google::protobuf::internal::MapEntryLite.base", [4 x i8] }
%"class.google::protobuf::internal::MapEntryLite.base" = type { %"class.google::protobuf::internal::MapEntryImpl.base" }
%"class.google::protobuf::internal::MapEntryImpl.base" = type <{ %"class.google::protobuf::MessageLite", %"struct.google::protobuf::internal::ArenaStringPtr", %"class.assist_ranker::FeatureWeight"*, [1 x i32] }>
%"class.assist_ranker::GenericLogisticRegressionModel_FullnameWeightsEntry_DoNotUse" = type { %"class.google::protobuf::internal::MapEntryLite.25" }
%"class.google::protobuf::internal::MapEntryLite.25" = type { %"class.google::protobuf::internal::MapEntryImpl.26" }
%"class.google::protobuf::internal::MapEntryImpl.26" = type { %"class.google::protobuf::MessageLite", %"struct.google::protobuf::internal::ArenaStringPtr", float, [1 x i32] }
%"class.assist_ranker::GenericLogisticRegressionModel" = type <{ %"class.google::protobuf::MessageLite", %"class.google::protobuf::internal::HasBits", %"class.google::protobuf::internal::CachedSize", %"class.google::protobuf::internal::MapFieldLite.32", %"class.google::protobuf::internal::MapFieldLite.34", %"class.assist_ranker::ExamplePreprocessorConfig"*, float, float, i8, [7 x i8] }>
%"class.google::protobuf::internal::MapFieldLite.32" = type { %"class.google::protobuf::Map.33" }
%"class.google::protobuf::Map.33" = type { %"class.google::protobuf::Map<std::__1::basic_string<char, std::__1::char_traits<char>, std::__1::allocator<char> >, assist_ranker::FeatureWeight>::InnerMap" }
%"class.google::protobuf::Map<std::__1::basic_string<char, std::__1::char_traits<char>, std::__1::allocator<char> >, assist_ranker::FeatureWeight>::InnerMap" = type { i64, i64, i64, i64, i8**, %"class.google::protobuf::internal::MapAllocator" }
%"class.google::protobuf::internal::MapFieldLite.34" = type { %"class.google::protobuf::Map" }
%"class.assist_ranker::ExamplePreprocessorConfig" = type <{ %"class.google::protobuf::MessageLite", %"class.google::protobuf::RepeatedPtrField", %"class.google::protobuf::internal::MapFieldLite.27", %"class.google::protobuf::internal::MapFieldLite.29", %"class.google::protobuf::internal::MapFieldLite.31", %"class.google::protobuf::RepeatedPtrField", %"class.google::protobuf::internal::CachedSize", [4 x i8] }>
%"class.google::protobuf::internal::MapFieldLite.27" = type { %"class.google::protobuf::Map.28" }
%"class.google::protobuf::Map.28" = type { %"class.google::protobuf::Map<std::__1::basic_string<char, std::__1::char_traits<char>, std::__1::allocator<char> >, assist_ranker::ExamplePreprocessorConfig_Boundaries>::InnerMap" }
%"class.google::protobuf::Map<std::__1::basic_string<char, std::__1::char_traits<char>, std::__1::allocator<char> >, assist_ranker::ExamplePreprocessorConfig_Boundaries>::InnerMap" = type { i64, i64, i64, i64, i8**, %"class.google::protobuf::internal::MapAllocator" }
%"class.google::protobuf::internal::MapFieldLite.29" = type { %"class.google::protobuf::Map.30" }
%"class.google::protobuf::Map.30" = type { %"class.google::protobuf::Map<std::__1::basic_string<char, std::__1::char_traits<char>, std::__1::allocator<char> >, int>::InnerMap" }
%"class.google::protobuf::Map<std::__1::basic_string<char, std::__1::char_traits<char>, std::__1::allocator<char> >, int>::InnerMap" = type { i64, i64, i64, i64, i8**, %"class.google::protobuf::internal::MapAllocator" }
%"class.google::protobuf::internal::MapFieldLite.31" = type { %"class.google::protobuf::Map" }
%"class.google::protobuf::RepeatedPtrField" = type { %"class.google::protobuf::internal::RepeatedPtrFieldBase" }
%"class.google::protobuf::internal::RepeatedPtrFieldBase" = type { %"class.google::protobuf::Arena"*, i32, i32, %"struct.google::protobuf::internal::RepeatedPtrFieldBase::Rep"* }
%"struct.google::protobuf::internal::RepeatedPtrFieldBase::Rep" = type { i32, [268435454 x i8*] }
%"struct.google::protobuf::internal::InternalMetadata::ContainerBase" = type { %"class.google::protobuf::Arena"* }
%"struct.std::__1::basic_string<char, std::__1::char_traits<char>, std::__1::allocator<char> >::__short" = type { [23 x i8], %struct.anon }
%struct.anon = type { i8 }
%"struct.std::__1::pair.56" = type <{ %"class.google::protobuf::Map<std::__1::basic_string<char, std::__1::char_traits<char>, std::__1::allocator<char> >, float>::InnerMap::iterator_base.57", i8, [7 x i8] }>
%"class.google::protobuf::Map<std::__1::basic_string<char, std::__1::char_traits<char>, std::__1::allocator<char> >, float>::InnerMap::iterator_base.57" = type { %"struct.google::protobuf::Map<std::__1::basic_string<char, std::__1::char_traits<char>, std::__1::allocator<char> >, float>::InnerMap::Node"*, %"class.google::protobuf::Map<std::__1::basic_string<char, std::__1::char_traits<char>, std::__1::allocator<char> >, float>::InnerMap"*, i64 }
%"struct.google::protobuf::Map<std::__1::basic_string<char, std::__1::char_traits<char>, std::__1::allocator<char> >, float>::InnerMap::Node" = type { %"struct.google::protobuf::MapPair", %"struct.google::protobuf::Map<std::__1::basic_string<char, std::__1::char_traits<char>, std::__1::allocator<char> >, float>::InnerMap::Node"* }
%"struct.google::protobuf::MapPair" = type <{ %"class.std::__1::basic_string", float, [4 x i8] }>
%"class.google::protobuf::Map<std::__1::basic_string<char, std::__1::char_traits<char>, std::__1::allocator<char> >, float>::const_iterator" = type { %"class.google::protobuf::Map<std::__1::basic_string<char, std::__1::char_traits<char>, std::__1::allocator<char> >, float>::InnerMap::iterator_base" }
%"class.google::protobuf::Map<std::__1::basic_string<char, std::__1::char_traits<char>, std::__1::allocator<char> >, float>::InnerMap::iterator_base" = type { %"struct.google::protobuf::Map<std::__1::basic_string<char, std::__1::char_traits<char>, std::__1::allocator<char> >, float>::InnerMap::Node"*, %"class.google::protobuf::Map<std::__1::basic_string<char, std::__1::char_traits<char>, std::__1::allocator<char> >, float>::InnerMap"*, i64 }
%"struct.google::protobuf::internal::InternalMetadata::Container" = type { %"struct.google::protobuf::internal::InternalMetadata::ContainerBase", %"class.std::__1::basic_string" }
%"class.std::__1::__tree_end_node" = type { %"class.std::__1::__tree_node_base"* }
%"class.std::__1::__tree_node_base" = type <{ %"class.std::__1::__tree_end_node", %"class.std::__1::__tree_node_base"*, %"class.std::__1::__tree_end_node"*, i8, [7 x i8] }>
%"class.google::protobuf::internal::ParseContext" = type { %"class.google::protobuf::internal::EpsCopyInputStream", i32, i32, %"struct.google::protobuf::internal::ParseContext::Data" }
%"class.google::protobuf::internal::EpsCopyInputStream" = type { i8*, i8*, i8*, i32, i32, %"class.google::protobuf::io::ZeroCopyInputStream"*, [32 x i8], i64, i32, i32 }
%"class.google::protobuf::io::ZeroCopyInputStream" = type { i32 (...)** }
%"struct.google::protobuf::internal::ParseContext::Data" = type { %"class.google::protobuf::DescriptorPool"*, %"class.google::protobuf::MessageFactory"* }
%"class.google::protobuf::DescriptorPool" = type opaque
%"class.google::protobuf::MessageFactory" = type opaque
%"class.google::protobuf::internal::MapEntryImpl<assist_ranker::SparseWeights_WeightsEntry_DoNotUse, google::protobuf::MessageLite, std::__1::basic_string<char, std::__1::char_traits<char>, std::__1::allocator<char> >, float, google::protobuf::internal::WireFormatLite::TYPE_STRING, google::protobuf::internal::WireFormatLite::TYPE_FLOAT>::Parser" = type { %"class.google::protobuf::internal::MapFieldLite"*, %"class.google::protobuf::Map"*, %"class.std::__1::basic_string", float*, %"class.google::protobuf::internal::MapEntryImpl"* }
%"class.google::protobuf::io::EpsCopyOutputStream" = type <{ i8*, i8*, [32 x i8], %"class.google::protobuf::io::ZeroCopyOutputStream"*, i8, i8, i8, [5 x i8] }>
%"class.google::protobuf::io::ZeroCopyOutputStream" = type { i32 (...)** }
%"struct.google::protobuf::internal::CompareByDerefFirst" = type { i8 }
%"class.google::protobuf::internal::MapEntryImpl.24" = type <{ %"class.google::protobuf::MessageLite", %"struct.google::protobuf::internal::ArenaStringPtr", %"class.assist_ranker::FeatureWeight"*, [1 x i32], [4 x i8] }>
%"struct.std::__1::pair.77" = type <{ %"class.google::protobuf::Map<std::__1::basic_string<char, std::__1::char_traits<char>, std::__1::allocator<char> >, assist_ranker::FeatureWeight>::InnerMap::iterator_base.78", i8, [7 x i8] }>
%"class.google::protobuf::Map<std::__1::basic_string<char, std::__1::char_traits<char>, std::__1::allocator<char> >, assist_ranker::FeatureWeight>::InnerMap::iterator_base.78" = type { %"struct.google::protobuf::Map<std::__1::basic_string<char, std::__1::char_traits<char>, std::__1::allocator<char> >, assist_ranker::FeatureWeight>::InnerMap::Node"*, %"class.google::protobuf::Map<std::__1::basic_string<char, std::__1::char_traits<char>, std::__1::allocator<char> >, assist_ranker::FeatureWeight>::InnerMap"*, i64 }
%"struct.google::protobuf::Map<std::__1::basic_string<char, std::__1::char_traits<char>, std::__1::allocator<char> >, assist_ranker::FeatureWeight>::InnerMap::Node" = type { %"struct.google::protobuf::MapPair.38", %"struct.google::protobuf::Map<std::__1::basic_string<char, std::__1::char_traits<char>, std::__1::allocator<char> >, assist_ranker::FeatureWeight>::InnerMap::Node"* }
%"struct.google::protobuf::MapPair.38" = type { %"class.std::__1::basic_string", %"class.assist_ranker::FeatureWeight" }
%"class.google::protobuf::Map<std::__1::basic_string<char, std::__1::char_traits<char>, std::__1::allocator<char> >, assist_ranker::FeatureWeight>::const_iterator" = type { %"class.google::protobuf::Map<std::__1::basic_string<char, std::__1::char_traits<char>, std::__1::allocator<char> >, assist_ranker::FeatureWeight>::InnerMap::iterator_base" }
%"class.google::protobuf::Map<std::__1::basic_string<char, std::__1::char_traits<char>, std::__1::allocator<char> >, assist_ranker::FeatureWeight>::InnerMap::iterator_base" = type { %"struct.google::protobuf::Map<std::__1::basic_string<char, std::__1::char_traits<char>, std::__1::allocator<char> >, assist_ranker::FeatureWeight>::InnerMap::Node"*, %"class.google::protobuf::Map<std::__1::basic_string<char, std::__1::char_traits<char>, std::__1::allocator<char> >, assist_ranker::FeatureWeight>::InnerMap"*, i64 }
%"class.google::protobuf::internal::MapEntryImpl<assist_ranker::GenericLogisticRegressionModel_WeightsEntry_DoNotUse, google::protobuf::MessageLite, std::__1::basic_string<char, std::__1::char_traits<char>, std::__1::allocator<char> >, assist_ranker::FeatureWeight, google::protobuf::internal::WireFormatLite::TYPE_STRING, google::protobuf::internal::WireFormatLite::TYPE_MESSAGE>::Parser" = type { %"class.google::protobuf::internal::MapFieldLite.32"*, %"class.google::protobuf::Map.33"*, %"class.std::__1::basic_string", %"class.assist_ranker::FeatureWeight"*, %"class.google::protobuf::internal::MapEntryImpl.24"* }
%"class.google::protobuf::internal::MapEntryImpl<assist_ranker::GenericLogisticRegressionModel_FullnameWeightsEntry_DoNotUse, google::protobuf::MessageLite, std::__1::basic_string<char, std::__1::char_traits<char>, std::__1::allocator<char> >, float, google::protobuf::internal::WireFormatLite::TYPE_STRING, google::protobuf::internal::WireFormatLite::TYPE_FLOAT>::Parser" = type { %"class.google::protobuf::internal::MapFieldLite.34"*, %"class.google::protobuf::Map"*, %"class.std::__1::basic_string", float*, %"class.google::protobuf::internal::MapEntryImpl.26"* }
%"struct.google::protobuf::internal::CompareByDerefFirst.42" = type { i8 }
%"class.google::protobuf::internal::MapEntryLite.23" = type { %"class.google::protobuf::internal::MapEntryImpl.base", [4 x i8] }
%"class.std::__1::__tree" = type { %"class.std::__1::__tree_end_node"*, %"class.std::__1::__compressed_pair.43", %"class.std::__1::__compressed_pair.47" }
%"class.std::__1::__compressed_pair.43" = type { %"struct.std::__1::__compressed_pair_elem.44", %"struct.std::__1::__compressed_pair_elem.45" }
%"struct.std::__1::__compressed_pair_elem.44" = type { %"class.std::__1::__tree_end_node" }
%"struct.std::__1::__compressed_pair_elem.45" = type { %"class.google::protobuf::internal::MapAllocator.46" }
%"class.google::protobuf::internal::MapAllocator.46" = type { %"class.google::protobuf::Arena"* }
%"class.std::__1::__compressed_pair.47" = type { %"struct.std::__1::__compressed_pair_elem.48" }
%"struct.std::__1::__compressed_pair_elem.48" = type { i64 }
%"class.std::__1::__tree_node" = type { %"class.std::__1::__tree_node_base.base", %"struct.std::__1::__value_type" }
%"class.std::__1::__tree_node_base.base" = type <{ %"class.std::__1::__tree_end_node", %"class.std::__1::__tree_node_base"*, %"class.std::__1::__tree_end_node"*, i8 }>
%"struct.std::__1::__value_type" = type { %"struct.std::__1::pair" }
%"struct.std::__1::pair" = type { %"class.std::__1::reference_wrapper", i8* }
%"class.std::__1::reference_wrapper" = type { %"class.std::__1::basic_string"* }
%"struct.std::__1::pair.59" = type { %"class.google::protobuf::Map<std::__1::basic_string<char, std::__1::char_traits<char>, std::__1::allocator<char> >, float>::InnerMap::iterator_base", i64 }
%"class.std::__1::__map_iterator" = type { %"class.std::__1::__tree_iterator" }
%"class.std::__1::__tree_iterator" = type { %"class.std::__1::__tree_end_node"* }
%"class.std::__1::map" = type { %"class.std::__1::__tree" }
%"struct.std::__1::__murmur2_or_cityhash" = type { i8 }
%"class.google::protobuf::Map<std::__1::basic_string<char, std::__1::char_traits<char>, std::__1::allocator<char> >, float>::iterator" = type { %"class.google::protobuf::Map<std::__1::basic_string<char, std::__1::char_traits<char>, std::__1::allocator<char> >, float>::InnerMap::iterator_base.57" }
%"struct.std::__1::pair.80" = type { %"class.google::protobuf::Map<std::__1::basic_string<char, std::__1::char_traits<char>, std::__1::allocator<char> >, assist_ranker::FeatureWeight>::InnerMap::iterator_base", i64 }
%"class.google::protobuf::Map<std::__1::basic_string<char, std::__1::char_traits<char>, std::__1::allocator<char> >, assist_ranker::FeatureWeight>::iterator" = type { %"class.google::protobuf::Map<std::__1::basic_string<char, std::__1::char_traits<char>, std::__1::allocator<char> >, assist_ranker::FeatureWeight>::InnerMap::iterator_base.78" }

$_ZN6google8protobuf8internal12MapEntryImplIN13assist_ranker35SparseWeights_WeightsEntry_DoNotUseENS0_11MessageLiteENSt3__112basic_stringIcNS6_11char_traitsIcEENS6_9allocatorIcEEEEfLNS1_14WireFormatLite9FieldTypeE9ELSE_2EE17MergeFromInternalERKSF_ = comdat any

$_ZN6google8protobuf8internal12ParseContext12ParseMessageINS1_12MapFieldLiteIN13assist_ranker35SparseWeights_WeightsEntry_DoNotUseENSt3__112basic_stringIcNS7_11char_traitsIcEENS7_9allocatorIcEEEEfLNS1_14WireFormatLite9FieldTypeE9ELSF_2EEEEEPKcPT_SI_ = comdat any

$_ZN6google8protobuf8internal13MapEntryFuncsINSt3__112basic_stringIcNS3_11char_traitsIcEENS3_9allocatorIcEEEEfLNS1_14WireFormatLite9FieldTypeE9ELSB_2EE17InternalSerializeEiRKS9_RKfPhPNS0_2io19EpsCopyOutputStreamE = comdat any

$_ZN6google8protobuf8internal12ParseContext12ParseMessageIN13assist_ranker13SparseWeightsEEEPKcPT_S7_ = comdat any

$_ZN6google8protobuf8internal12ParseContext12ParseMessageIN13assist_ranker17BucketizedWeightsEEEPKcPT_S7_ = comdat any

$_ZN6google8protobuf8internal12MapEntryImplIN13assist_ranker52GenericLogisticRegressionModel_WeightsEntry_DoNotUseENS0_11MessageLiteENSt3__112basic_stringIcNS6_11char_traitsIcEENS6_9allocatorIcEEEENS3_13FeatureWeightELNS1_14WireFormatLite9FieldTypeE9ELSF_11EE17MergeFromInternalERKSG_ = comdat any

$_ZN6google8protobuf8internal12MapEntryImplIN13assist_ranker60GenericLogisticRegressionModel_FullnameWeightsEntry_DoNotUseENS0_11MessageLiteENSt3__112basic_stringIcNS6_11char_traitsIcEENS6_9allocatorIcEEEEfLNS1_14WireFormatLite9FieldTypeE9ELSE_2EE17MergeFromInternalERKSF_ = comdat any

$_ZN6google8protobuf8internal12MapFieldLiteIN13assist_ranker52GenericLogisticRegressionModel_WeightsEntry_DoNotUseENSt3__112basic_stringIcNS5_11char_traitsIcEENS5_9allocatorIcEEEENS3_13FeatureWeightELNS1_14WireFormatLite9FieldTypeE9ELSE_11EE9MergeFromERKSF_ = comdat any

$_ZN6google8protobuf8internal12ParseContext12ParseMessageINS1_12MapFieldLiteIN13assist_ranker52GenericLogisticRegressionModel_WeightsEntry_DoNotUseENSt3__112basic_stringIcNS7_11char_traitsIcEENS7_9allocatorIcEEEENS5_13FeatureWeightELNS1_14WireFormatLite9FieldTypeE9ELSG_11EEEEEPKcPT_SJ_ = comdat any

$_ZN6google8protobuf8internal12ParseContext12ParseMessageINS1_12MapFieldLiteIN13assist_ranker60GenericLogisticRegressionModel_FullnameWeightsEntry_DoNotUseENSt3__112basic_stringIcNS7_11char_traitsIcEENS7_9allocatorIcEEEEfLNS1_14WireFormatLite9FieldTypeE9ELSF_2EEEEEPKcPT_SI_ = comdat any

$_ZN6google8protobuf8internal12ParseContext12ParseMessageIN13assist_ranker25ExamplePreprocessorConfigEEEPKcPT_S7_ = comdat any

$_ZN6google8protobuf8internal13MapEntryFuncsINSt3__112basic_stringIcNS3_11char_traitsIcEENS3_9allocatorIcEEEEN13assist_ranker13FeatureWeightELNS1_14WireFormatLite9FieldTypeE9ELSD_11EE17InternalSerializeEiRKS9_RKSB_PhPNS0_2io19EpsCopyOutputStreamE = comdat any

$_ZNK13assist_ranker13SparseWeights3NewEv = comdat any

$_ZNK13assist_ranker13SparseWeights3NewEPN6google8protobuf5ArenaE = comdat any

$_ZNK13assist_ranker13SparseWeights13GetCachedSizeEv = comdat any

$_ZNK6google8protobuf11MessageLite16InternalGetTableEv = comdat any

$_ZNK13assist_ranker17BucketizedWeights3NewEv = comdat any

$_ZNK13assist_ranker17BucketizedWeights3NewEPN6google8protobuf5ArenaE = comdat any

$_ZNK13assist_ranker17BucketizedWeights13GetCachedSizeEv = comdat any

$_ZNK13assist_ranker13FeatureWeight3NewEv = comdat any

$_ZNK13assist_ranker13FeatureWeight3NewEPN6google8protobuf5ArenaE = comdat any

$_ZNK13assist_ranker13FeatureWeight13GetCachedSizeEv = comdat any

$_ZNK13assist_ranker30GenericLogisticRegressionModel3NewEv = comdat any

$_ZNK13assist_ranker30GenericLogisticRegressionModel3NewEPN6google8protobuf5ArenaE = comdat any

$_ZNK13assist_ranker30GenericLogisticRegressionModel13GetCachedSizeEv = comdat any

$_ZN6google8protobuf8internal12MapEntryLiteIN13assist_ranker35SparseWeights_WeightsEntry_DoNotUseENSt3__112basic_stringIcNS5_11char_traitsIcEENS5_9allocatorIcEEEEfLNS1_14WireFormatLite9FieldTypeE9ELSD_2EED2Ev = comdat any

$_ZN13assist_ranker35SparseWeights_WeightsEntry_DoNotUseD0Ev = comdat any

$_ZNK6google8protobuf8internal12MapEntryImplIN13assist_ranker35SparseWeights_WeightsEntry_DoNotUseENS0_11MessageLiteENSt3__112basic_stringIcNS6_11char_traitsIcEENS6_9allocatorIcEEEEfLNS1_14WireFormatLite9FieldTypeE9ELSE_2EE11GetTypeNameEv = comdat any

$_ZNK6google8protobuf8internal12MapEntryImplIN13assist_ranker35SparseWeights_WeightsEntry_DoNotUseENS0_11MessageLiteENSt3__112basic_stringIcNS6_11char_traitsIcEENS6_9allocatorIcEEEEfLNS1_14WireFormatLite9FieldTypeE9ELSE_2EE3NewEv = comdat any

$_ZNK6google8protobuf8internal12MapEntryImplIN13assist_ranker35SparseWeights_WeightsEntry_DoNotUseENS0_11MessageLiteENSt3__112basic_stringIcNS6_11char_traitsIcEENS6_9allocatorIcEEEEfLNS1_14WireFormatLite9FieldTypeE9ELSE_2EE3NewEPNS0_5ArenaE = comdat any

$_ZN6google8protobuf8internal12MapEntryImplIN13assist_ranker35SparseWeights_WeightsEntry_DoNotUseENS0_11MessageLiteENSt3__112basic_stringIcNS6_11char_traitsIcEENS6_9allocatorIcEEEEfLNS1_14WireFormatLite9FieldTypeE9ELSE_2EE5ClearEv = comdat any

$_ZNK6google8protobuf8internal12MapEntryImplIN13assist_ranker35SparseWeights_WeightsEntry_DoNotUseENS0_11MessageLiteENSt3__112basic_stringIcNS6_11char_traitsIcEENS6_9allocatorIcEEEEfLNS1_14WireFormatLite9FieldTypeE9ELSE_2EE13IsInitializedEv = comdat any

$_ZN6google8protobuf8internal12MapEntryImplIN13assist_ranker35SparseWeights_WeightsEntry_DoNotUseENS0_11MessageLiteENSt3__112basic_stringIcNS6_11char_traitsIcEENS6_9allocatorIcEEEEfLNS1_14WireFormatLite9FieldTypeE9ELSE_2EE21CheckTypeAndMergeFromERKS5_ = comdat any

$_ZNK6google8protobuf8internal12MapEntryImplIN13assist_ranker35SparseWeights_WeightsEntry_DoNotUseENS0_11MessageLiteENSt3__112basic_stringIcNS6_11char_traitsIcEENS6_9allocatorIcEEEEfLNS1_14WireFormatLite9FieldTypeE9ELSE_2EE12ByteSizeLongEv = comdat any

$_ZNK6google8protobuf8internal12MapEntryImplIN13assist_ranker35SparseWeights_WeightsEntry_DoNotUseENS0_11MessageLiteENSt3__112basic_stringIcNS6_11char_traitsIcEENS6_9allocatorIcEEEEfLNS1_14WireFormatLite9FieldTypeE9ELSE_2EE13GetCachedSizeEv = comdat any

$_ZN6google8protobuf8internal12MapEntryImplIN13assist_ranker35SparseWeights_WeightsEntry_DoNotUseENS0_11MessageLiteENSt3__112basic_stringIcNS6_11char_traitsIcEENS6_9allocatorIcEEEEfLNS1_14WireFormatLite9FieldTypeE9ELSE_2EE14_InternalParseEPKcPNS1_12ParseContextE = comdat any

$_ZNK6google8protobuf8internal12MapEntryImplIN13assist_ranker35SparseWeights_WeightsEntry_DoNotUseENS0_11MessageLiteENSt3__112basic_stringIcNS6_11char_traitsIcEENS6_9allocatorIcEEEEfLNS1_14WireFormatLite9FieldTypeE9ELSE_2EE18_InternalSerializeEPhPNS0_2io19EpsCopyOutputStreamE = comdat any

$_ZNK6google8protobuf8internal12MapEntryImplIN13assist_ranker35SparseWeights_WeightsEntry_DoNotUseENS0_11MessageLiteENSt3__112basic_stringIcNS6_11char_traitsIcEENS6_9allocatorIcEEEEfLNS1_14WireFormatLite9FieldTypeE9ELSE_2EE3keyEv = comdat any

$_ZNK6google8protobuf8internal12MapEntryImplIN13assist_ranker35SparseWeights_WeightsEntry_DoNotUseENS0_11MessageLiteENSt3__112basic_stringIcNS6_11char_traitsIcEENS6_9allocatorIcEEEEfLNS1_14WireFormatLite9FieldTypeE9ELSE_2EE5valueEv = comdat any

$_ZN6google8protobuf8internal12MapEntryLiteIN13assist_ranker52GenericLogisticRegressionModel_WeightsEntry_DoNotUseENSt3__112basic_stringIcNS5_11char_traitsIcEENS5_9allocatorIcEEEENS3_13FeatureWeightELNS1_14WireFormatLite9FieldTypeE9ELSE_11EED2Ev = comdat any

$_ZN13assist_ranker52GenericLogisticRegressionModel_WeightsEntry_DoNotUseD0Ev = comdat any

$_ZNK6google8protobuf8internal12MapEntryImplIN13assist_ranker52GenericLogisticRegressionModel_WeightsEntry_DoNotUseENS0_11MessageLiteENSt3__112basic_stringIcNS6_11char_traitsIcEENS6_9allocatorIcEEEENS3_13FeatureWeightELNS1_14WireFormatLite9FieldTypeE9ELSF_11EE11GetTypeNameEv = comdat any

$_ZNK6google8protobuf8internal12MapEntryImplIN13assist_ranker52GenericLogisticRegressionModel_WeightsEntry_DoNotUseENS0_11MessageLiteENSt3__112basic_stringIcNS6_11char_traitsIcEENS6_9allocatorIcEEEENS3_13FeatureWeightELNS1_14WireFormatLite9FieldTypeE9ELSF_11EE3NewEv = comdat any

$_ZNK6google8protobuf8internal12MapEntryImplIN13assist_ranker52GenericLogisticRegressionModel_WeightsEntry_DoNotUseENS0_11MessageLiteENSt3__112basic_stringIcNS6_11char_traitsIcEENS6_9allocatorIcEEEENS3_13FeatureWeightELNS1_14WireFormatLite9FieldTypeE9ELSF_11EE3NewEPNS0_5ArenaE = comdat any

$_ZN6google8protobuf8internal12MapEntryImplIN13assist_ranker52GenericLogisticRegressionModel_WeightsEntry_DoNotUseENS0_11MessageLiteENSt3__112basic_stringIcNS6_11char_traitsIcEENS6_9allocatorIcEEEENS3_13FeatureWeightELNS1_14WireFormatLite9FieldTypeE9ELSF_11EE5ClearEv = comdat any

$_ZNK6google8protobuf8internal12MapEntryImplIN13assist_ranker52GenericLogisticRegressionModel_WeightsEntry_DoNotUseENS0_11MessageLiteENSt3__112basic_stringIcNS6_11char_traitsIcEENS6_9allocatorIcEEEENS3_13FeatureWeightELNS1_14WireFormatLite9FieldTypeE9ELSF_11EE13IsInitializedEv = comdat any

$_ZN6google8protobuf8internal12MapEntryImplIN13assist_ranker52GenericLogisticRegressionModel_WeightsEntry_DoNotUseENS0_11MessageLiteENSt3__112basic_stringIcNS6_11char_traitsIcEENS6_9allocatorIcEEEENS3_13FeatureWeightELNS1_14WireFormatLite9FieldTypeE9ELSF_11EE21CheckTypeAndMergeFromERKS5_ = comdat any

$_ZNK6google8protobuf8internal12MapEntryImplIN13assist_ranker52GenericLogisticRegressionModel_WeightsEntry_DoNotUseENS0_11MessageLiteENSt3__112basic_stringIcNS6_11char_traitsIcEENS6_9allocatorIcEEEENS3_13FeatureWeightELNS1_14WireFormatLite9FieldTypeE9ELSF_11EE12ByteSizeLongEv = comdat any

$_ZNK6google8protobuf8internal12MapEntryImplIN13assist_ranker52GenericLogisticRegressionModel_WeightsEntry_DoNotUseENS0_11MessageLiteENSt3__112basic_stringIcNS6_11char_traitsIcEENS6_9allocatorIcEEEENS3_13FeatureWeightELNS1_14WireFormatLite9FieldTypeE9ELSF_11EE13GetCachedSizeEv = comdat any

$_ZN6google8protobuf8internal12MapEntryImplIN13assist_ranker52GenericLogisticRegressionModel_WeightsEntry_DoNotUseENS0_11MessageLiteENSt3__112basic_stringIcNS6_11char_traitsIcEENS6_9allocatorIcEEEENS3_13FeatureWeightELNS1_14WireFormatLite9FieldTypeE9ELSF_11EE14_InternalParseEPKcPNS1_12ParseContextE = comdat any

$_ZNK6google8protobuf8internal12MapEntryImplIN13assist_ranker52GenericLogisticRegressionModel_WeightsEntry_DoNotUseENS0_11MessageLiteENSt3__112basic_stringIcNS6_11char_traitsIcEENS6_9allocatorIcEEEENS3_13FeatureWeightELNS1_14WireFormatLite9FieldTypeE9ELSF_11EE18_InternalSerializeEPhPNS0_2io19EpsCopyOutputStreamE = comdat any

$_ZNK6google8protobuf8internal12MapEntryImplIN13assist_ranker52GenericLogisticRegressionModel_WeightsEntry_DoNotUseENS0_11MessageLiteENSt3__112basic_stringIcNS6_11char_traitsIcEENS6_9allocatorIcEEEENS3_13FeatureWeightELNS1_14WireFormatLite9FieldTypeE9ELSF_11EE3keyEv = comdat any

$_ZNK6google8protobuf8internal12MapEntryImplIN13assist_ranker52GenericLogisticRegressionModel_WeightsEntry_DoNotUseENS0_11MessageLiteENSt3__112basic_stringIcNS6_11char_traitsIcEENS6_9allocatorIcEEEENS3_13FeatureWeightELNS1_14WireFormatLite9FieldTypeE9ELSF_11EE5valueEv = comdat any

$_ZN6google8protobuf8internal12MapEntryLiteIN13assist_ranker60GenericLogisticRegressionModel_FullnameWeightsEntry_DoNotUseENSt3__112basic_stringIcNS5_11char_traitsIcEENS5_9allocatorIcEEEEfLNS1_14WireFormatLite9FieldTypeE9ELSD_2EED2Ev = comdat any

$_ZN13assist_ranker60GenericLogisticRegressionModel_FullnameWeightsEntry_DoNotUseD0Ev = comdat any

$_ZNK6google8protobuf8internal12MapEntryImplIN13assist_ranker60GenericLogisticRegressionModel_FullnameWeightsEntry_DoNotUseENS0_11MessageLiteENSt3__112basic_stringIcNS6_11char_traitsIcEENS6_9allocatorIcEEEEfLNS1_14WireFormatLite9FieldTypeE9ELSE_2EE11GetTypeNameEv = comdat any

$_ZNK6google8protobuf8internal12MapEntryImplIN13assist_ranker60GenericLogisticRegressionModel_FullnameWeightsEntry_DoNotUseENS0_11MessageLiteENSt3__112basic_stringIcNS6_11char_traitsIcEENS6_9allocatorIcEEEEfLNS1_14WireFormatLite9FieldTypeE9ELSE_2EE3NewEv = comdat any

$_ZNK6google8protobuf8internal12MapEntryImplIN13assist_ranker60GenericLogisticRegressionModel_FullnameWeightsEntry_DoNotUseENS0_11MessageLiteENSt3__112basic_stringIcNS6_11char_traitsIcEENS6_9allocatorIcEEEEfLNS1_14WireFormatLite9FieldTypeE9ELSE_2EE3NewEPNS0_5ArenaE = comdat any

$_ZN6google8protobuf8internal12MapEntryImplIN13assist_ranker60GenericLogisticRegressionModel_FullnameWeightsEntry_DoNotUseENS0_11MessageLiteENSt3__112basic_stringIcNS6_11char_traitsIcEENS6_9allocatorIcEEEEfLNS1_14WireFormatLite9FieldTypeE9ELSE_2EE5ClearEv = comdat any

$_ZNK6google8protobuf8internal12MapEntryImplIN13assist_ranker60GenericLogisticRegressionModel_FullnameWeightsEntry_DoNotUseENS0_11MessageLiteENSt3__112basic_stringIcNS6_11char_traitsIcEENS6_9allocatorIcEEEEfLNS1_14WireFormatLite9FieldTypeE9ELSE_2EE13IsInitializedEv = comdat any

$_ZN6google8protobuf8internal12MapEntryImplIN13assist_ranker60GenericLogisticRegressionModel_FullnameWeightsEntry_DoNotUseENS0_11MessageLiteENSt3__112basic_stringIcNS6_11char_traitsIcEENS6_9allocatorIcEEEEfLNS1_14WireFormatLite9FieldTypeE9ELSE_2EE21CheckTypeAndMergeFromERKS5_ = comdat any

$_ZNK6google8protobuf8internal12MapEntryImplIN13assist_ranker60GenericLogisticRegressionModel_FullnameWeightsEntry_DoNotUseENS0_11MessageLiteENSt3__112basic_stringIcNS6_11char_traitsIcEENS6_9allocatorIcEEEEfLNS1_14WireFormatLite9FieldTypeE9ELSE_2EE12ByteSizeLongEv = comdat any

$_ZNK6google8protobuf8internal12MapEntryImplIN13assist_ranker60GenericLogisticRegressionModel_FullnameWeightsEntry_DoNotUseENS0_11MessageLiteENSt3__112basic_stringIcNS6_11char_traitsIcEENS6_9allocatorIcEEEEfLNS1_14WireFormatLite9FieldTypeE9ELSE_2EE13GetCachedSizeEv = comdat any

$_ZN6google8protobuf8internal12MapEntryImplIN13assist_ranker60GenericLogisticRegressionModel_FullnameWeightsEntry_DoNotUseENS0_11MessageLiteENSt3__112basic_stringIcNS6_11char_traitsIcEENS6_9allocatorIcEEEEfLNS1_14WireFormatLite9FieldTypeE9ELSE_2EE14_InternalParseEPKcPNS1_12ParseContextE = comdat any

$_ZNK6google8protobuf8internal12MapEntryImplIN13assist_ranker60GenericLogisticRegressionModel_FullnameWeightsEntry_DoNotUseENS0_11MessageLiteENSt3__112basic_stringIcNS6_11char_traitsIcEENS6_9allocatorIcEEEEfLNS1_14WireFormatLite9FieldTypeE9ELSE_2EE18_InternalSerializeEPhPNS0_2io19EpsCopyOutputStreamE = comdat any

$_ZNK6google8protobuf8internal12MapEntryImplIN13assist_ranker60GenericLogisticRegressionModel_FullnameWeightsEntry_DoNotUseENS0_11MessageLiteENSt3__112basic_stringIcNS6_11char_traitsIcEENS6_9allocatorIcEEEEfLNS1_14WireFormatLite9FieldTypeE9ELSE_2EE3keyEv = comdat any

$_ZNK6google8protobuf8internal12MapEntryImplIN13assist_ranker60GenericLogisticRegressionModel_FullnameWeightsEntry_DoNotUseENS0_11MessageLiteENSt3__112basic_stringIcNS6_11char_traitsIcEENS6_9allocatorIcEEEEfLNS1_14WireFormatLite9FieldTypeE9ELSE_2EE5valueEv = comdat any

$_ZN6google8protobuf3MapINSt3__112basic_stringIcNS2_11char_traitsIcEENS2_9allocatorIcEEEEfE8InnerMap5clearEv = comdat any

$_ZNSt3__113__tree_removeIPNS_16__tree_node_baseIPvEEEEvT_S5_ = comdat any

$_ZNSt3__16__treeINS_12__value_typeINS_17reference_wrapperIKNS_12basic_stringIcNS_11char_traitsIcEENS_9allocatorIcEEEEEEPvEENS_19__map_value_compareISA_SC_NS_4lessIS8_EELb1EEEN6google8protobuf8internal12MapAllocatorISC_EEE7destroyEPNS_11__tree_nodeISC_SB_EE = comdat any

$_ZN6google8protobuf3MapINSt3__112basic_stringIcNS2_11char_traitsIcEENS2_9allocatorIcEEEEN13assist_ranker13FeatureWeightEE8InnerMap5clearEv = comdat any

$_ZN6google8protobuf8internal16InternalMetadata27mutable_unknown_fields_slowINSt3__112basic_stringIcNS4_11char_traitsIcEENS4_9allocatorIcEEEEEEPT_v = comdat any

$_ZN6google8protobuf8internal21arena_destruct_objectINS1_16InternalMetadata9ContainerINSt3__112basic_stringIcNS5_11char_traitsIcEENS5_9allocatorIcEEEEEEEEvPv = comdat any

$_ZN6google8protobuf8internal12MapEntryLiteIN13assist_ranker35SparseWeights_WeightsEntry_DoNotUseENSt3__112basic_stringIcNS5_11char_traitsIcEENS5_9allocatorIcEEEEfLNS1_14WireFormatLite9FieldTypeE9ELSD_2EED0Ev = comdat any

$_ZN6google8protobuf8internal12MapEntryImplIN13assist_ranker35SparseWeights_WeightsEntry_DoNotUseENS0_11MessageLiteENSt3__112basic_stringIcNS6_11char_traitsIcEENS6_9allocatorIcEEEEfLNS1_14WireFormatLite9FieldTypeE9ELSE_2EED2Ev = comdat any

$_ZN6google8protobuf8internal12MapEntryImplIN13assist_ranker35SparseWeights_WeightsEntry_DoNotUseENS0_11MessageLiteENSt3__112basic_stringIcNS6_11char_traitsIcEENS6_9allocatorIcEEEEfLNS1_14WireFormatLite9FieldTypeE9ELSE_2EED0Ev = comdat any

$_ZN6google8protobuf8internal14ArenaStringPtr14CreateInstanceEPNS0_5ArenaEPKNSt3__112basic_stringIcNS5_11char_traitsIcEENS5_9allocatorIcEEEE = comdat any

$_ZN6google8protobuf8internal21arena_destruct_objectINSt3__112basic_stringIcNS3_11char_traitsIcEENS3_9allocatorIcEEEEEEvPv = comdat any

$_ZN6google8protobuf3MapINSt3__112basic_stringIcNS2_11char_traitsIcEENS2_9allocatorIcEEEEfE8InnerMap6insertERKS8_ = comdat any

$_ZN6google8protobuf3MapINSt3__112basic_stringIcNS2_11char_traitsIcEENS2_9allocatorIcEEEEfE8InnerMap12InsertUniqueEmPNSA_4NodeE = comdat any

$_ZNK6google8protobuf3MapINSt3__112basic_stringIcNS2_11char_traitsIcEENS2_9allocatorIcEEEEfE8InnerMap10FindHelperIS8_EENS2_4pairINSA_13iterator_baseIKNS0_7MapPairIS8_fEEEEmEERKT_PNS2_14__map_iteratorINS2_15__tree_iteratorINS2_12__value_typeINS2_17reference_wrapperIKS8_EEPvEEPNS2_11__tree_nodeIST_SS_EElEEEE = comdat any

$_ZNSt3__121__murmur2_or_cityhashImLm64EEclEPKvm = comdat any

$_ZNSt3__121__murmur2_or_cityhashImLm64EE18__hash_len_0_to_16EPKcm = comdat any

$_ZNSt3__16__treeINS_12__value_typeINS_17reference_wrapperIKNS_12basic_stringIcNS_11char_traitsIcEENS_9allocatorIcEEEEEEPvEENS_19__map_value_compareISA_SC_NS_4lessIS8_EELb1EEEN6google8protobuf8internal12MapAllocatorISC_EEE4findISA_EENS_15__tree_iteratorISC_PNS_11__tree_nodeISC_SB_EElEERKT_ = comdat any

$_ZN6google8protobuf3MapINSt3__112basic_stringIcNS2_11char_traitsIcEENS2_9allocatorIcEEEEfE8InnerMap6ResizeEm = comdat any

$_ZN6google8protobuf3MapINSt3__112basic_stringIcNS2_11char_traitsIcEENS2_9allocatorIcEEEEfE8InnerMap12TransferTreeEPKPvm = comdat any

$_ZN6google8protobuf5Arena13OwnDestructorINSt3__112basic_stringIcNS3_11char_traitsIcEENS3_9allocatorIcEEEEEEvPT_ = comdat any

$_ZN6google8protobuf3MapINSt3__112basic_stringIcNS2_11char_traitsIcEENS2_9allocatorIcEEEEfE8InnerMap11TreeConvertEm = comdat any

$_ZN6google8protobuf8internal21arena_destruct_objectINSt3__13mapINS3_17reference_wrapperIKNS3_12basic_stringIcNS3_11char_traitsIcEENS3_9allocatorIcEEEEEEPvNS3_4lessISB_EENS1_12MapAllocatorINS3_4pairIKSD_SE_EEEEEEEEvSE_ = comdat any

$_ZNSt3__16__treeINS_12__value_typeINS_17reference_wrapperIKNS_12basic_stringIcNS_11char_traitsIcEENS_9allocatorIcEEEEEEPvEENS_19__map_value_compareISA_SC_NS_4lessIS8_EELb1EEEN6google8protobuf8internal12MapAllocatorISC_EEE25__emplace_unique_key_argsISA_JNS_4pairIKSA_SB_EEEEENSO_INS_15__tree_iteratorISC_PNS_11__tree_nodeISC_SB_EElEEbEERKT_DpOT0_ = comdat any

$_ZNSt3__16__treeINS_12__value_typeINS_17reference_wrapperIKNS_12basic_stringIcNS_11char_traitsIcEENS_9allocatorIcEEEEEEPvEENS_19__map_value_compareISA_SC_NS_4lessIS8_EELb1EEEN6google8protobuf8internal12MapAllocatorISC_EEE12__find_equalISA_EERPNS_16__tree_node_baseISB_EERPNS_15__tree_end_nodeISQ_EERKT_ = comdat any

$_ZNSt3__127__tree_balance_after_insertIPNS_16__tree_node_baseIPvEEEEvT_S5_ = comdat any

$_ZN6google8protobuf8internal12MapEntryImplIN13assist_ranker35SparseWeights_WeightsEntry_DoNotUseENS0_11MessageLiteENSt3__112basic_stringIcNS6_11char_traitsIcEENS6_9allocatorIcEEEEfLNS1_14WireFormatLite9FieldTypeE9ELSE_2EE6ParserINS1_12MapFieldLiteIS4_SC_fLSE_9ELSE_2EEENS0_3MapISC_fEEE14_InternalParseEPKcPNS1_12ParseContextE = comdat any

$_ZN6google8protobuf8internal12MapEntryImplIN13assist_ranker35SparseWeights_WeightsEntry_DoNotUseENS0_11MessageLiteENSt3__112basic_stringIcNS6_11char_traitsIcEENS6_9allocatorIcEEEEfLNS1_14WireFormatLite9FieldTypeE9ELSE_2EE6ParserINS1_12MapFieldLiteIS4_SC_fLSE_9ELSE_2EEENS0_3MapISC_fEEE23UseKeyAndValueFromEntryEv = comdat any

$_ZN6google8protobuf3MapINSt3__112basic_stringIcNS2_11char_traitsIcEENS2_9allocatorIcEEEEfE8InnerMap5eraseENSA_13iterator_baseINS0_7MapPairIS8_fEEEE = comdat any

$_ZN6google8protobuf3MapINSt3__112basic_stringIcNS2_11char_traitsIcEENS2_9allocatorIcEEEEfE8InnerMap13iterator_baseINS0_7MapPairIS8_fEEEppEv = comdat any

$_ZN6google8protobuf3MapINSt3__112basic_stringIcNS2_11char_traitsIcEENS2_9allocatorIcEEEEfE8InnerMap19EraseFromLinkedListEPNSA_4NodeESC_ = comdat any

$_ZN6google8protobuf3MapINSt3__112basic_stringIcNS2_11char_traitsIcEENS2_9allocatorIcEEEEfE8InnerMap13iterator_baseIKNS0_7MapPairIS8_fEEEppEv = comdat any

$_ZNSt3__16__sortIRN6google8protobuf8internal19CompareByDerefFirstIPKNS2_7MapPairINS_12basic_stringIcNS_11char_traitsIcEENS_9allocatorIcEEEEfEEEEPSE_EEvT0_SI_T_ = comdat any

$_ZNSt3__17__sort3IRN6google8protobuf8internal19CompareByDerefFirstIPKNS2_7MapPairINS_12basic_stringIcNS_11char_traitsIcEENS_9allocatorIcEEEEfEEEEPSE_EEjT0_SI_SI_T_ = comdat any

$_ZNSt3__17__sort4IRN6google8protobuf8internal19CompareByDerefFirstIPKNS2_7MapPairINS_12basic_stringIcNS_11char_traitsIcEENS_9allocatorIcEEEEfEEEEPSE_EEjT0_SI_SI_SI_T_ = comdat any

$_ZNSt3__17__sort5IRN6google8protobuf8internal19CompareByDerefFirstIPKNS2_7MapPairINS_12basic_stringIcNS_11char_traitsIcEENS_9allocatorIcEEEEfEEEEPSE_EEjT0_SI_SI_SI_SI_T_ = comdat any

$_ZNSt3__118__insertion_sort_3IRN6google8protobuf8internal19CompareByDerefFirstIPKNS2_7MapPairINS_12basic_stringIcNS_11char_traitsIcEENS_9allocatorIcEEEEfEEEEPSE_EEvT0_SI_T_ = comdat any

$_ZNSt3__127__insertion_sort_incompleteIRN6google8protobuf8internal19CompareByDerefFirstIPKNS2_7MapPairINS_12basic_stringIcNS_11char_traitsIcEENS_9allocatorIcEEEEfEEEEPSE_EEbT0_SI_T_ = comdat any

$_ZN6google8protobuf3MapINSt3__112basic_stringIcNS2_11char_traitsIcEENS2_9allocatorIcEEEEfE4swapERS9_ = comdat any

$_ZN6google8protobuf3MapINSt3__112basic_stringIcNS2_11char_traitsIcEENS2_9allocatorIcEEEEfEC2ERKS9_ = comdat any

$_ZN6google8protobuf3MapINSt3__112basic_stringIcNS2_11char_traitsIcEENS2_9allocatorIcEEEEfEaSERKS9_ = comdat any

$_ZN6google8protobuf8internal12MapEntryLiteIN13assist_ranker52GenericLogisticRegressionModel_WeightsEntry_DoNotUseENSt3__112basic_stringIcNS5_11char_traitsIcEENS5_9allocatorIcEEEENS3_13FeatureWeightELNS1_14WireFormatLite9FieldTypeE9ELSE_11EED0Ev = comdat any

$_ZN6google8protobuf8internal12MapEntryImplIN13assist_ranker52GenericLogisticRegressionModel_WeightsEntry_DoNotUseENS0_11MessageLiteENSt3__112basic_stringIcNS6_11char_traitsIcEENS6_9allocatorIcEEEENS3_13FeatureWeightELNS1_14WireFormatLite9FieldTypeE9ELSF_11EED2Ev = comdat any

$_ZN6google8protobuf8internal12MapEntryImplIN13assist_ranker52GenericLogisticRegressionModel_WeightsEntry_DoNotUseENS0_11MessageLiteENSt3__112basic_stringIcNS6_11char_traitsIcEENS6_9allocatorIcEEEENS3_13FeatureWeightELNS1_14WireFormatLite9FieldTypeE9ELSF_11EED0Ev = comdat any

$_ZN6google8protobuf8internal12MapEntryLiteIN13assist_ranker60GenericLogisticRegressionModel_FullnameWeightsEntry_DoNotUseENSt3__112basic_stringIcNS5_11char_traitsIcEENS5_9allocatorIcEEEEfLNS1_14WireFormatLite9FieldTypeE9ELSD_2EED0Ev = comdat any

$_ZN6google8protobuf8internal12MapEntryImplIN13assist_ranker60GenericLogisticRegressionModel_FullnameWeightsEntry_DoNotUseENS0_11MessageLiteENSt3__112basic_stringIcNS6_11char_traitsIcEENS6_9allocatorIcEEEEfLNS1_14WireFormatLite9FieldTypeE9ELSE_2EED2Ev = comdat any

$_ZN6google8protobuf8internal12MapEntryImplIN13assist_ranker60GenericLogisticRegressionModel_FullnameWeightsEntry_DoNotUseENS0_11MessageLiteENSt3__112basic_stringIcNS6_11char_traitsIcEENS6_9allocatorIcEEEEfLNS1_14WireFormatLite9FieldTypeE9ELSE_2EED0Ev = comdat any

$_ZN6google8protobuf3MapINSt3__112basic_stringIcNS2_11char_traitsIcEENS2_9allocatorIcEEEEN13assist_ranker13FeatureWeightEE8InnerMap6insertERKS8_ = comdat any

$_ZN6google8protobuf3MapINSt3__112basic_stringIcNS2_11char_traitsIcEENS2_9allocatorIcEEEEN13assist_ranker13FeatureWeightEE8InnerMap12InsertUniqueEmPNSC_4NodeE = comdat any

$_ZNK6google8protobuf3MapINSt3__112basic_stringIcNS2_11char_traitsIcEENS2_9allocatorIcEEEEN13assist_ranker13FeatureWeightEE8InnerMap10FindHelperIS8_EENS2_4pairINSC_13iterator_baseIKNS0_7MapPairIS8_SA_EEEEmEERKT_PNS2_14__map_iteratorINS2_15__tree_iteratorINS2_12__value_typeINS2_17reference_wrapperIKS8_EEPvEEPNS2_11__tree_nodeISV_SU_EElEEEE = comdat any

$_ZN6google8protobuf3MapINSt3__112basic_stringIcNS2_11char_traitsIcEENS2_9allocatorIcEEEEN13assist_ranker13FeatureWeightEE8InnerMap6ResizeEm = comdat any

$_ZN6google8protobuf3MapINSt3__112basic_stringIcNS2_11char_traitsIcEENS2_9allocatorIcEEEEN13assist_ranker13FeatureWeightEE8InnerMap12TransferTreeEPKPvm = comdat any

$_ZN6google8protobuf3MapINSt3__112basic_stringIcNS2_11char_traitsIcEENS2_9allocatorIcEEEEN13assist_ranker13FeatureWeightEE8InnerMap11TreeConvertEm = comdat any

$_ZN6google8protobuf8internal12MapEntryImplIN13assist_ranker52GenericLogisticRegressionModel_WeightsEntry_DoNotUseENS0_11MessageLiteENSt3__112basic_stringIcNS6_11char_traitsIcEENS6_9allocatorIcEEEENS3_13FeatureWeightELNS1_14WireFormatLite9FieldTypeE9ELSF_11EE6ParserINS1_12MapFieldLiteIS4_SC_SD_LSF_9ELSF_11EEENS0_3MapISC_SD_EEE14_InternalParseEPKcPNS1_12ParseContextE = comdat any

$_ZN6google8protobuf8internal12MapEntryImplIN13assist_ranker52GenericLogisticRegressionModel_WeightsEntry_DoNotUseENS0_11MessageLiteENSt3__112basic_stringIcNS6_11char_traitsIcEENS6_9allocatorIcEEEENS3_13FeatureWeightELNS1_14WireFormatLite9FieldTypeE9ELSF_11EE6ParserINS1_12MapFieldLiteIS4_SC_SD_LSF_9ELSF_11EEENS0_3MapISC_SD_EEE23UseKeyAndValueFromEntryEv = comdat any

$_ZN6google8protobuf8internal12ParseContext12ParseMessageIN13assist_ranker13FeatureWeightEEEPKcPT_S7_ = comdat any

$_ZN6google8protobuf3MapINSt3__112basic_stringIcNS2_11char_traitsIcEENS2_9allocatorIcEEEEN13assist_ranker13FeatureWeightEE8InnerMap5eraseENSC_13iterator_baseINS0_7MapPairIS8_SA_EEEE = comdat any

$_ZN6google8protobuf3MapINSt3__112basic_stringIcNS2_11char_traitsIcEENS2_9allocatorIcEEEEN13assist_ranker13FeatureWeightEE8InnerMap13iterator_baseINS0_7MapPairIS8_SA_EEEppEv = comdat any

$_ZN6google8protobuf3MapINSt3__112basic_stringIcNS2_11char_traitsIcEENS2_9allocatorIcEEEEN13assist_ranker13FeatureWeightEE8InnerMap19EraseFromLinkedListEPNSC_4NodeESE_ = comdat any

$_ZN13assist_ranker13FeatureWeight4SwapEPS0_ = comdat any

$_ZN6google8protobuf8internal12MapEntryImplIN13assist_ranker60GenericLogisticRegressionModel_FullnameWeightsEntry_DoNotUseENS0_11MessageLiteENSt3__112basic_stringIcNS6_11char_traitsIcEENS6_9allocatorIcEEEEfLNS1_14WireFormatLite9FieldTypeE9ELSE_2EE6ParserINS1_12MapFieldLiteIS4_SC_fLSE_9ELSE_2EEENS0_3MapISC_fEEE14_InternalParseEPKcPNS1_12ParseContextE = comdat any

$_ZN6google8protobuf8internal12MapEntryImplIN13assist_ranker60GenericLogisticRegressionModel_FullnameWeightsEntry_DoNotUseENS0_11MessageLiteENSt3__112basic_stringIcNS6_11char_traitsIcEENS6_9allocatorIcEEEEfLNS1_14WireFormatLite9FieldTypeE9ELSE_2EE6ParserINS1_12MapFieldLiteIS4_SC_fLSE_9ELSE_2EEENS0_3MapISC_fEEE23UseKeyAndValueFromEntryEv = comdat any

$_ZN6google8protobuf3MapINSt3__112basic_stringIcNS2_11char_traitsIcEENS2_9allocatorIcEEEEN13assist_ranker13FeatureWeightEE8InnerMap13iterator_baseIKNS0_7MapPairIS8_SA_EEEppEv = comdat any

$_ZNSt3__16__sortIRN6google8protobuf8internal19CompareByDerefFirstIPKNS2_7MapPairINS_12basic_stringIcNS_11char_traitsIcEENS_9allocatorIcEEEEN13assist_ranker13FeatureWeightEEEEEPSG_EEvT0_SK_T_ = comdat any

$_ZNSt3__17__sort3IRN6google8protobuf8internal19CompareByDerefFirstIPKNS2_7MapPairINS_12basic_stringIcNS_11char_traitsIcEENS_9allocatorIcEEEEN13assist_ranker13FeatureWeightEEEEEPSG_EEjT0_SK_SK_T_ = comdat any

$_ZNSt3__17__sort4IRN6google8protobuf8internal19CompareByDerefFirstIPKNS2_7MapPairINS_12basic_stringIcNS_11char_traitsIcEENS_9allocatorIcEEEEN13assist_ranker13FeatureWeightEEEEEPSG_EEjT0_SK_SK_SK_T_ = comdat any

$_ZNSt3__17__sort5IRN6google8protobuf8internal19CompareByDerefFirstIPKNS2_7MapPairINS_12basic_stringIcNS_11char_traitsIcEENS_9allocatorIcEEEEN13assist_ranker13FeatureWeightEEEEEPSG_EEjT0_SK_SK_SK_SK_T_ = comdat any

$_ZNSt3__118__insertion_sort_3IRN6google8protobuf8internal19CompareByDerefFirstIPKNS2_7MapPairINS_12basic_stringIcNS_11char_traitsIcEENS_9allocatorIcEEEEN13assist_ranker13FeatureWeightEEEEEPSG_EEvT0_SK_T_ = comdat any

$_ZNSt3__127__insertion_sort_incompleteIRN6google8protobuf8internal19CompareByDerefFirstIPKNS2_7MapPairINS_12basic_stringIcNS_11char_traitsIcEENS_9allocatorIcEEEEN13assist_ranker13FeatureWeightEEEEEPSG_EEbT0_SK_T_ = comdat any

$_ZN6google8protobuf3MapINSt3__112basic_stringIcNS2_11char_traitsIcEENS2_9allocatorIcEEEEN13assist_ranker13FeatureWeightEE4swapERSB_ = comdat any

$_ZN6google8protobuf3MapINSt3__112basic_stringIcNS2_11char_traitsIcEENS2_9allocatorIcEEEEN13assist_ranker13FeatureWeightEE6insertINSB_14const_iteratorEEEvT_SE_ = comdat any

$_ZTVN13assist_ranker35SparseWeights_WeightsEntry_DoNotUseE = comdat any

$_ZTVN13assist_ranker52GenericLogisticRegressionModel_WeightsEntry_DoNotUseE = comdat any

$_ZTVN13assist_ranker60GenericLogisticRegressionModel_FullnameWeightsEntry_DoNotUseE = comdat any

$_ZTVN6google8protobuf8internal12MapEntryLiteIN13assist_ranker35SparseWeights_WeightsEntry_DoNotUseENSt3__112basic_stringIcNS5_11char_traitsIcEENS5_9allocatorIcEEEEfLNS1_14WireFormatLite9FieldTypeE9ELSD_2EEE = comdat any

$_ZTVN6google8protobuf8internal12MapEntryImplIN13assist_ranker35SparseWeights_WeightsEntry_DoNotUseENS0_11MessageLiteENSt3__112basic_stringIcNS6_11char_traitsIcEENS6_9allocatorIcEEEEfLNS1_14WireFormatLite9FieldTypeE9ELSE_2EEE = comdat any

$_ZTVN6google8protobuf8internal12MapEntryLiteIN13assist_ranker52GenericLogisticRegressionModel_WeightsEntry_DoNotUseENSt3__112basic_stringIcNS5_11char_traitsIcEENS5_9allocatorIcEEEENS3_13FeatureWeightELNS1_14WireFormatLite9FieldTypeE9ELSE_11EEE = comdat any

$_ZTVN6google8protobuf8internal12MapEntryImplIN13assist_ranker52GenericLogisticRegressionModel_WeightsEntry_DoNotUseENS0_11MessageLiteENSt3__112basic_stringIcNS6_11char_traitsIcEENS6_9allocatorIcEEEENS3_13FeatureWeightELNS1_14WireFormatLite9FieldTypeE9ELSF_11EEE = comdat any

$_ZTVN6google8protobuf8internal12MapEntryLiteIN13assist_ranker60GenericLogisticRegressionModel_FullnameWeightsEntry_DoNotUseENSt3__112basic_stringIcNS5_11char_traitsIcEENS5_9allocatorIcEEEEfLNS1_14WireFormatLite9FieldTypeE9ELSD_2EEE = comdat any

$_ZTVN6google8protobuf8internal12MapEntryImplIN13assist_ranker60GenericLogisticRegressionModel_FullnameWeightsEntry_DoNotUseENS0_11MessageLiteENSt3__112basic_stringIcNS6_11char_traitsIcEENS6_9allocatorIcEEEEfLNS1_14WireFormatLite9FieldTypeE9ELSE_2EEE = comdat any

@_ZN13assist_ranker54_SparseWeights_WeightsEntry_DoNotUse_default_instance_E = hidden local_unnamed_addr global %"class.assist_ranker::SparseWeights_WeightsEntry_DoNotUseDefaultTypeInternal" zeroinitializer, align 8
@_ZN13assist_ranker32_SparseWeights_default_instance_E = hidden global %"class.assist_ranker::SparseWeightsDefaultTypeInternal" zeroinitializer, align 8
@_ZN13assist_ranker36_BucketizedWeights_default_instance_E = hidden global %"class.assist_ranker::BucketizedWeightsDefaultTypeInternal" zeroinitializer, align 8
@_ZN13assist_ranker32_FeatureWeight_default_instance_E = hidden global %"class.assist_ranker::FeatureWeightDefaultTypeInternal" zeroinitializer, align 8
@_ZN13assist_ranker71_GenericLogisticRegressionModel_WeightsEntry_DoNotUse_default_instance_E = hidden local_unnamed_addr global %"class.assist_ranker::GenericLogisticRegressionModel_WeightsEntry_DoNotUseDefaultTypeInternal" zeroinitializer, align 8
@_ZN13assist_ranker79_GenericLogisticRegressionModel_FullnameWeightsEntry_DoNotUse_default_instance_E = hidden local_unnamed_addr global %"class.assist_ranker::GenericLogisticRegressionModel_FullnameWeightsEntry_DoNotUseDefaultTypeInternal" zeroinitializer, align 8
@_ZN13assist_ranker49_GenericLogisticRegressionModel_default_instance_E = hidden global %"class.assist_ranker::GenericLogisticRegressionModelDefaultTypeInternal" zeroinitializer, align 8
@scc_info_BucketizedWeights_generic_5flogistic_5fregression_5fmodel_2eproto = hidden global { { { { i32 } }, i32, i32, void ()* }, [0 x i8*] } { { { { i32 } }, i32, i32, void ()* } { { { i32 } } { { i32 } { i32 -1 } }, i32 0, i32 0, void ()* @_ZL86InitDefaultsscc_info_BucketizedWeights_generic_5flogistic_5fregression_5fmodel_2eprotov }, [0 x i8*] zeroinitializer }, align 8
@scc_info_FeatureWeight_generic_5flogistic_5fregression_5fmodel_2eproto = hidden global { { { { i32 } }, i32, i32, void ()* }, [2 x i8*] } { { { { i32 } }, i32, i32, void ()* } { { { i32 } } { { i32 } { i32 -1 } }, i32 2, i32 0, void ()* @_ZL82InitDefaultsscc_info_FeatureWeight_generic_5flogistic_5fregression_5fmodel_2eprotov }, [2 x i8*] [i8* bitcast ({ { { { i32 } }, i32, i32, void ()* }, [1 x i8*] }* @scc_info_SparseWeights_generic_5flogistic_5fregression_5fmodel_2eproto to i8*), i8* bitcast ({ { { { i32 } }, i32, i32, void ()* }, [0 x i8*] }* @scc_info_BucketizedWeights_generic_5flogistic_5fregression_5fmodel_2eproto to i8*)] }, align 8
@scc_info_ExamplePreprocessorConfig_example_5fpreprocessor_2eproto = external global %"struct.google::protobuf::internal::SCCInfo.9", align 8
@scc_info_GenericLogisticRegressionModel_generic_5flogistic_5fregression_5fmodel_2eproto = hidden global { { { { i32 } }, i32, i32, void ()* }, [3 x i8*] } { { { { i32 } }, i32, i32, void ()* } { { { i32 } } { { i32 } { i32 -1 } }, i32 3, i32 0, void ()* @_ZL99InitDefaultsscc_info_GenericLogisticRegressionModel_generic_5flogistic_5fregression_5fmodel_2eprotov }, [3 x i8*] [i8* bitcast ({ { { { i32 } }, i32, i32, void ()* }, [1 x i8*] }* @scc_info_GenericLogisticRegressionModel_WeightsEntry_DoNotUse_generic_5flogistic_5fregression_5fmodel_2eproto to i8*), i8* bitcast ({ { { { i32 } }, i32, i32, void ()* }, [0 x i8*] }* @scc_info_GenericLogisticRegressionModel_FullnameWeightsEntry_DoNotUse_generic_5flogistic_5fregression_5fmodel_2eproto to i8*), i8* bitcast (%"struct.google::protobuf::internal::SCCInfo.9"* @scc_info_ExamplePreprocessorConfig_example_5fpreprocessor_2eproto to i8*)] }, align 8
@scc_info_GenericLogisticRegressionModel_FullnameWeightsEntry_DoNotUse_generic_5flogistic_5fregression_5fmodel_2eproto = hidden global { { { { i32 } }, i32, i32, void ()* }, [0 x i8*] } { { { { i32 } }, i32, i32, void ()* } { { { i32 } } { { i32 } { i32 -1 } }, i32 0, i32 0, void ()* @_ZL129InitDefaultsscc_info_GenericLogisticRegressionModel_FullnameWeightsEntry_DoNotUse_generic_5flogistic_5fregression_5fmodel_2eprotov }, [0 x i8*] zeroinitializer }, align 8
@scc_info_GenericLogisticRegressionModel_WeightsEntry_DoNotUse_generic_5flogistic_5fregression_5fmodel_2eproto = hidden global { { { { i32 } }, i32, i32, void ()* }, [1 x i8*] } { { { { i32 } }, i32, i32, void ()* } { { { i32 } } { { i32 } { i32 -1 } }, i32 1, i32 0, void ()* @_ZL121InitDefaultsscc_info_GenericLogisticRegressionModel_WeightsEntry_DoNotUse_generic_5flogistic_5fregression_5fmodel_2eprotov }, [1 x i8*] [i8* bitcast ({ { { { i32 } }, i32, i32, void ()* }, [2 x i8*] }* @scc_info_FeatureWeight_generic_5flogistic_5fregression_5fmodel_2eproto to i8*)] }, align 8
@scc_info_SparseWeights_generic_5flogistic_5fregression_5fmodel_2eproto = hidden global { { { { i32 } }, i32, i32, void ()* }, [1 x i8*] } { { { { i32 } }, i32, i32, void ()* } { { { i32 } } { { i32 } { i32 -1 } }, i32 1, i32 0, void ()* @_ZL82InitDefaultsscc_info_SparseWeights_generic_5flogistic_5fregression_5fmodel_2eprotov }, [1 x i8*] [i8* bitcast ({ { { { i32 } }, i32, i32, void ()* }, [0 x i8*] }* @scc_info_SparseWeights_WeightsEntry_DoNotUse_generic_5flogistic_5fregression_5fmodel_2eproto to i8*)] }, align 8
@scc_info_SparseWeights_WeightsEntry_DoNotUse_generic_5flogistic_5fregression_5fmodel_2eproto = hidden global { { { { i32 } }, i32, i32, void ()* }, [0 x i8*] } { { { { i32 } }, i32, i32, void ()* } { { { i32 } } { { i32 } { i32 -1 } }, i32 0, i32 0, void ()* @_ZL104InitDefaultsscc_info_SparseWeights_WeightsEntry_DoNotUse_generic_5flogistic_5fregression_5fmodel_2eprotov }, [0 x i8*] zeroinitializer }, align 8
@_ZTVN13assist_ranker35SparseWeights_WeightsEntry_DoNotUseE = linkonce_odr hidden unnamed_addr constant { [18 x i8*] } { [18 x i8*] [i8* null, i8* null, i8* bitcast (void (%"class.google::protobuf::internal::MapEntryLite"*)* @_ZN6google8protobuf8internal12MapEntryLiteIN13assist_ranker35SparseWeights_WeightsEntry_DoNotUseENSt3__112basic_stringIcNS5_11char_traitsIcEENS5_9allocatorIcEEEEfLNS1_14WireFormatLite9FieldTypeE9ELSD_2EED2Ev to i8*), i8* bitcast (void (%"class.assist_ranker::SparseWeights_WeightsEntry_DoNotUse"*)* @_ZN13assist_ranker35SparseWeights_WeightsEntry_DoNotUseD0Ev to i8*), i8* bitcast (void (%"class.std::__1::basic_string"*, %"class.google::protobuf::internal::MapEntryImpl"*)* @_ZNK6google8protobuf8internal12MapEntryImplIN13assist_ranker35SparseWeights_WeightsEntry_DoNotUseENS0_11MessageLiteENSt3__112basic_stringIcNS6_11char_traitsIcEENS6_9allocatorIcEEEEfLNS1_14WireFormatLite9FieldTypeE9ELSE_2EE11GetTypeNameEv to i8*), i8* bitcast (%"class.google::protobuf::MessageLite"* (%"class.google::protobuf::internal::MapEntryImpl"*)* @_ZNK6google8protobuf8internal12MapEntryImplIN13assist_ranker35SparseWeights_WeightsEntry_DoNotUseENS0_11MessageLiteENSt3__112basic_stringIcNS6_11char_traitsIcEENS6_9allocatorIcEEEEfLNS1_14WireFormatLite9FieldTypeE9ELSE_2EE3NewEv to i8*), i8* bitcast (%"class.google::protobuf::MessageLite"* (%"class.google::protobuf::internal::MapEntryImpl"*, %"class.google::protobuf::Arena"*)* @_ZNK6google8protobuf8internal12MapEntryImplIN13assist_ranker35SparseWeights_WeightsEntry_DoNotUseENS0_11MessageLiteENSt3__112basic_stringIcNS6_11char_traitsIcEENS6_9allocatorIcEEEEfLNS1_14WireFormatLite9FieldTypeE9ELSE_2EE3NewEPNS0_5ArenaE to i8*), i8* bitcast (void (%"class.google::protobuf::internal::MapEntryImpl"*)* @_ZN6google8protobuf8internal12MapEntryImplIN13assist_ranker35SparseWeights_WeightsEntry_DoNotUseENS0_11MessageLiteENSt3__112basic_stringIcNS6_11char_traitsIcEENS6_9allocatorIcEEEEfLNS1_14WireFormatLite9FieldTypeE9ELSE_2EE5ClearEv to i8*), i8* bitcast (i1 (%"class.google::protobuf::internal::MapEntryImpl"*)* @_ZNK6google8protobuf8internal12MapEntryImplIN13assist_ranker35SparseWeights_WeightsEntry_DoNotUseENS0_11MessageLiteENSt3__112basic_stringIcNS6_11char_traitsIcEENS6_9allocatorIcEEEEfLNS1_14WireFormatLite9FieldTypeE9ELSE_2EE13IsInitializedEv to i8*), i8* bitcast (void (%"class.std::__1::basic_string"*, %"class.google::protobuf::MessageLite"*)* @_ZNK6google8protobuf11MessageLite25InitializationErrorStringEv to i8*), i8* bitcast (void (%"class.google::protobuf::internal::MapEntryImpl"*, %"class.google::protobuf::MessageLite"*)* @_ZN6google8protobuf8internal12MapEntryImplIN13assist_ranker35SparseWeights_WeightsEntry_DoNotUseENS0_11MessageLiteENSt3__112basic_stringIcNS6_11char_traitsIcEENS6_9allocatorIcEEEEfLNS1_14WireFormatLite9FieldTypeE9ELSE_2EE21CheckTypeAndMergeFromERKS5_ to i8*), i8* bitcast (i64 (%"class.google::protobuf::internal::MapEntryImpl"*)* @_ZNK6google8protobuf8internal12MapEntryImplIN13assist_ranker35SparseWeights_WeightsEntry_DoNotUseENS0_11MessageLiteENSt3__112basic_stringIcNS6_11char_traitsIcEENS6_9allocatorIcEEEEfLNS1_14WireFormatLite9FieldTypeE9ELSE_2EE12ByteSizeLongEv to i8*), i8* bitcast (i32 (%"class.google::protobuf::internal::MapEntryImpl"*)* @_ZNK6google8protobuf8internal12MapEntryImplIN13assist_ranker35SparseWeights_WeightsEntry_DoNotUseENS0_11MessageLiteENSt3__112basic_stringIcNS6_11char_traitsIcEENS6_9allocatorIcEEEEfLNS1_14WireFormatLite9FieldTypeE9ELSE_2EE13GetCachedSizeEv to i8*), i8* bitcast (i8* (%"class.google::protobuf::internal::MapEntryImpl"*, i8*, %"class.google::protobuf::internal::ParseContext"*)* @_ZN6google8protobuf8internal12MapEntryImplIN13assist_ranker35SparseWeights_WeightsEntry_DoNotUseENS0_11MessageLiteENSt3__112basic_stringIcNS6_11char_traitsIcEENS6_9allocatorIcEEEEfLNS1_14WireFormatLite9FieldTypeE9ELSE_2EE14_InternalParseEPKcPNS1_12ParseContextE to i8*), i8* bitcast (i8* (%"class.google::protobuf::internal::MapEntryImpl"*, i8*, %"class.google::protobuf::io::EpsCopyOutputStream"*)* @_ZNK6google8protobuf8internal12MapEntryImplIN13assist_ranker35SparseWeights_WeightsEntry_DoNotUseENS0_11MessageLiteENSt3__112basic_stringIcNS6_11char_traitsIcEENS6_9allocatorIcEEEEfLNS1_14WireFormatLite9FieldTypeE9ELSE_2EE18_InternalSerializeEPhPNS0_2io19EpsCopyOutputStreamE to i8*), i8* bitcast (i8* (%"class.google::protobuf::MessageLite"*)* @_ZNK6google8protobuf11MessageLite16InternalGetTableEv to i8*), i8* bitcast (%"class.std::__1::basic_string"* (%"class.google::protobuf::internal::MapEntryImpl"*)* @_ZNK6google8protobuf8internal12MapEntryImplIN13assist_ranker35SparseWeights_WeightsEntry_DoNotUseENS0_11MessageLiteENSt3__112basic_stringIcNS6_11char_traitsIcEENS6_9allocatorIcEEEEfLNS1_14WireFormatLite9FieldTypeE9ELSE_2EE3keyEv to i8*), i8* bitcast (float* (%"class.google::protobuf::internal::MapEntryImpl"*)* @_ZNK6google8protobuf8internal12MapEntryImplIN13assist_ranker35SparseWeights_WeightsEntry_DoNotUseENS0_11MessageLiteENSt3__112basic_stringIcNS6_11char_traitsIcEENS6_9allocatorIcEEEEfLNS1_14WireFormatLite9FieldTypeE9ELSE_2EE5valueEv to i8*)] }, comdat, align 8
@_ZTVN13assist_ranker13SparseWeightsE = hidden unnamed_addr constant { [16 x i8*] } { [16 x i8*] [i8* null, i8* null, i8* bitcast (void (%"class.assist_ranker::SparseWeights"*)* @_ZN13assist_ranker13SparseWeightsD2Ev to i8*), i8* bitcast (void (%"class.assist_ranker::SparseWeights"*)* @_ZN13assist_ranker13SparseWeightsD0Ev to i8*), i8* bitcast (void (%"class.std::__1::basic_string"*, %"class.assist_ranker::SparseWeights"*)* @_ZNK13assist_ranker13SparseWeights11GetTypeNameEv to i8*), i8* bitcast (%"class.assist_ranker::SparseWeights"* (%"class.assist_ranker::SparseWeights"*)* @_ZNK13assist_ranker13SparseWeights3NewEv to i8*), i8* bitcast (%"class.assist_ranker::SparseWeights"* (%"class.assist_ranker::SparseWeights"*, %"class.google::protobuf::Arena"*)* @_ZNK13assist_ranker13SparseWeights3NewEPN6google8protobuf5ArenaE to i8*), i8* bitcast (void (%"class.assist_ranker::SparseWeights"*)* @_ZN13assist_ranker13SparseWeights5ClearEv to i8*), i8* bitcast (i1 (%"class.assist_ranker::SparseWeights"*)* @_ZNK13assist_ranker13SparseWeights13IsInitializedEv to i8*), i8* bitcast (void (%"class.std::__1::basic_string"*, %"class.google::protobuf::MessageLite"*)* @_ZNK6google8protobuf11MessageLite25InitializationErrorStringEv to i8*), i8* bitcast (void (%"class.assist_ranker::SparseWeights"*, %"class.google::protobuf::MessageLite"*)* @_ZN13assist_ranker13SparseWeights21CheckTypeAndMergeFromERKN6google8protobuf11MessageLiteE to i8*), i8* bitcast (i64 (%"class.assist_ranker::SparseWeights"*)* @_ZNK13assist_ranker13SparseWeights12ByteSizeLongEv to i8*), i8* bitcast (i32 (%"class.assist_ranker::SparseWeights"*)* @_ZNK13assist_ranker13SparseWeights13GetCachedSizeEv to i8*), i8* bitcast (i8* (%"class.assist_ranker::SparseWeights"*, i8*, %"class.google::protobuf::internal::ParseContext"*)* @_ZN13assist_ranker13SparseWeights14_InternalParseEPKcPN6google8protobuf8internal12ParseContextE to i8*), i8* bitcast (i8* (%"class.assist_ranker::SparseWeights"*, i8*, %"class.google::protobuf::io::EpsCopyOutputStream"*)* @_ZNK13assist_ranker13SparseWeights18_InternalSerializeEPhPN6google8protobuf2io19EpsCopyOutputStreamE to i8*), i8* bitcast (i8* (%"class.google::protobuf::MessageLite"*)* @_ZNK6google8protobuf11MessageLite16InternalGetTableEv to i8*)] }, align 8
@.str = private unnamed_addr constant [75 x i8] c"gen/components/assist_ranker/proto/generic_logistic_regression_model.pb.cc\00", align 1
@.str.6 = private unnamed_addr constant [28 x i8] c"assist_ranker.SparseWeights\00", align 1
@_ZTVN13assist_ranker17BucketizedWeightsE = hidden unnamed_addr constant { [16 x i8*] } { [16 x i8*] [i8* null, i8* null, i8* bitcast (void (%"class.assist_ranker::BucketizedWeights"*)* @_ZN13assist_ranker17BucketizedWeightsD2Ev to i8*), i8* bitcast (void (%"class.assist_ranker::BucketizedWeights"*)* @_ZN13assist_ranker17BucketizedWeightsD0Ev to i8*), i8* bitcast (void (%"class.std::__1::basic_string"*, %"class.assist_ranker::BucketizedWeights"*)* @_ZNK13assist_ranker17BucketizedWeights11GetTypeNameEv to i8*), i8* bitcast (%"class.assist_ranker::BucketizedWeights"* (%"class.assist_ranker::BucketizedWeights"*)* @_ZNK13assist_ranker17BucketizedWeights3NewEv to i8*), i8* bitcast (%"class.assist_ranker::BucketizedWeights"* (%"class.assist_ranker::BucketizedWeights"*, %"class.google::protobuf::Arena"*)* @_ZNK13assist_ranker17BucketizedWeights3NewEPN6google8protobuf5ArenaE to i8*), i8* bitcast (void (%"class.assist_ranker::BucketizedWeights"*)* @_ZN13assist_ranker17BucketizedWeights5ClearEv to i8*), i8* bitcast (i1 (%"class.assist_ranker::BucketizedWeights"*)* @_ZNK13assist_ranker17BucketizedWeights13IsInitializedEv to i8*), i8* bitcast (void (%"class.std::__1::basic_string"*, %"class.google::protobuf::MessageLite"*)* @_ZNK6google8protobuf11MessageLite25InitializationErrorStringEv to i8*), i8* bitcast (void (%"class.assist_ranker::BucketizedWeights"*, %"class.google::protobuf::MessageLite"*)* @_ZN13assist_ranker17BucketizedWeights21CheckTypeAndMergeFromERKN6google8protobuf11MessageLiteE to i8*), i8* bitcast (i64 (%"class.assist_ranker::BucketizedWeights"*)* @_ZNK13assist_ranker17BucketizedWeights12ByteSizeLongEv to i8*), i8* bitcast (i32 (%"class.assist_ranker::BucketizedWeights"*)* @_ZNK13assist_ranker17BucketizedWeights13GetCachedSizeEv to i8*), i8* bitcast (i8* (%"class.assist_ranker::BucketizedWeights"*, i8*, %"class.google::protobuf::internal::ParseContext"*)* @_ZN13assist_ranker17BucketizedWeights14_InternalParseEPKcPN6google8protobuf8internal12ParseContextE to i8*), i8* bitcast (i8* (%"class.assist_ranker::BucketizedWeights"*, i8*, %"class.google::protobuf::io::EpsCopyOutputStream"*)* @_ZNK13assist_ranker17BucketizedWeights18_InternalSerializeEPhPN6google8protobuf2io19EpsCopyOutputStreamE to i8*), i8* bitcast (i8* (%"class.google::protobuf::MessageLite"*)* @_ZNK6google8protobuf11MessageLite16InternalGetTableEv to i8*)] }, align 8
@.str.7 = private unnamed_addr constant [32 x i8] c"assist_ranker.BucketizedWeights\00", align 1
@_ZTVN13assist_ranker13FeatureWeightE = hidden unnamed_addr constant { [16 x i8*] } { [16 x i8*] [i8* null, i8* null, i8* bitcast (void (%"class.assist_ranker::FeatureWeight"*)* @_ZN13assist_ranker13FeatureWeightD2Ev to i8*), i8* bitcast (void (%"class.assist_ranker::FeatureWeight"*)* @_ZN13assist_ranker13FeatureWeightD0Ev to i8*), i8* bitcast (void (%"class.std::__1::basic_string"*, %"class.assist_ranker::FeatureWeight"*)* @_ZNK13assist_ranker13FeatureWeight11GetTypeNameEv to i8*), i8* bitcast (%"class.assist_ranker::FeatureWeight"* (%"class.assist_ranker::FeatureWeight"*)* @_ZNK13assist_ranker13FeatureWeight3NewEv to i8*), i8* bitcast (%"class.assist_ranker::FeatureWeight"* (%"class.assist_ranker::FeatureWeight"*, %"class.google::protobuf::Arena"*)* @_ZNK13assist_ranker13FeatureWeight3NewEPN6google8protobuf5ArenaE to i8*), i8* bitcast (void (%"class.assist_ranker::FeatureWeight"*)* @_ZN13assist_ranker13FeatureWeight5ClearEv to i8*), i8* bitcast (i1 (%"class.assist_ranker::FeatureWeight"*)* @_ZNK13assist_ranker13FeatureWeight13IsInitializedEv to i8*), i8* bitcast (void (%"class.std::__1::basic_string"*, %"class.google::protobuf::MessageLite"*)* @_ZNK6google8protobuf11MessageLite25InitializationErrorStringEv to i8*), i8* bitcast (void (%"class.assist_ranker::FeatureWeight"*, %"class.google::protobuf::MessageLite"*)* @_ZN13assist_ranker13FeatureWeight21CheckTypeAndMergeFromERKN6google8protobuf11MessageLiteE to i8*), i8* bitcast (i64 (%"class.assist_ranker::FeatureWeight"*)* @_ZNK13assist_ranker13FeatureWeight12ByteSizeLongEv to i8*), i8* bitcast (i32 (%"class.assist_ranker::FeatureWeight"*)* @_ZNK13assist_ranker13FeatureWeight13GetCachedSizeEv to i8*), i8* bitcast (i8* (%"class.assist_ranker::FeatureWeight"*, i8*, %"class.google::protobuf::internal::ParseContext"*)* @_ZN13assist_ranker13FeatureWeight14_InternalParseEPKcPN6google8protobuf8internal12ParseContextE to i8*), i8* bitcast (i8* (%"class.assist_ranker::FeatureWeight"*, i8*, %"class.google::protobuf::io::EpsCopyOutputStream"*)* @_ZNK13assist_ranker13FeatureWeight18_InternalSerializeEPhPN6google8protobuf2io19EpsCopyOutputStreamE to i8*), i8* bitcast (i8* (%"class.google::protobuf::MessageLite"*)* @_ZNK6google8protobuf11MessageLite16InternalGetTableEv to i8*)] }, align 8
@.str.8 = private unnamed_addr constant [28 x i8] c"assist_ranker.FeatureWeight\00", align 1
@_ZTVN13assist_ranker52GenericLogisticRegressionModel_WeightsEntry_DoNotUseE = linkonce_odr hidden unnamed_addr constant { [18 x i8*] } { [18 x i8*] [i8* null, i8* null, i8* bitcast (void (%"class.google::protobuf::internal::MapEntryLite.23"*)* @_ZN6google8protobuf8internal12MapEntryLiteIN13assist_ranker52GenericLogisticRegressionModel_WeightsEntry_DoNotUseENSt3__112basic_stringIcNS5_11char_traitsIcEENS5_9allocatorIcEEEENS3_13FeatureWeightELNS1_14WireFormatLite9FieldTypeE9ELSE_11EED2Ev to i8*), i8* bitcast (void (%"class.assist_ranker::GenericLogisticRegressionModel_WeightsEntry_DoNotUse"*)* @_ZN13assist_ranker52GenericLogisticRegressionModel_WeightsEntry_DoNotUseD0Ev to i8*), i8* bitcast (void (%"class.std::__1::basic_string"*, %"class.google::protobuf::internal::MapEntryImpl.24"*)* @_ZNK6google8protobuf8internal12MapEntryImplIN13assist_ranker52GenericLogisticRegressionModel_WeightsEntry_DoNotUseENS0_11MessageLiteENSt3__112basic_stringIcNS6_11char_traitsIcEENS6_9allocatorIcEEEENS3_13FeatureWeightELNS1_14WireFormatLite9FieldTypeE9ELSF_11EE11GetTypeNameEv to i8*), i8* bitcast (%"class.google::protobuf::MessageLite"* (%"class.google::protobuf::internal::MapEntryImpl.24"*)* @_ZNK6google8protobuf8internal12MapEntryImplIN13assist_ranker52GenericLogisticRegressionModel_WeightsEntry_DoNotUseENS0_11MessageLiteENSt3__112basic_stringIcNS6_11char_traitsIcEENS6_9allocatorIcEEEENS3_13FeatureWeightELNS1_14WireFormatLite9FieldTypeE9ELSF_11EE3NewEv to i8*), i8* bitcast (%"class.google::protobuf::MessageLite"* (%"class.google::protobuf::internal::MapEntryImpl.24"*, %"class.google::protobuf::Arena"*)* @_ZNK6google8protobuf8internal12MapEntryImplIN13assist_ranker52GenericLogisticRegressionModel_WeightsEntry_DoNotUseENS0_11MessageLiteENSt3__112basic_stringIcNS6_11char_traitsIcEENS6_9allocatorIcEEEENS3_13FeatureWeightELNS1_14WireFormatLite9FieldTypeE9ELSF_11EE3NewEPNS0_5ArenaE to i8*), i8* bitcast (void (%"class.google::protobuf::internal::MapEntryImpl.24"*)* @_ZN6google8protobuf8internal12MapEntryImplIN13assist_ranker52GenericLogisticRegressionModel_WeightsEntry_DoNotUseENS0_11MessageLiteENSt3__112basic_stringIcNS6_11char_traitsIcEENS6_9allocatorIcEEEENS3_13FeatureWeightELNS1_14WireFormatLite9FieldTypeE9ELSF_11EE5ClearEv to i8*), i8* bitcast (i1 (%"class.google::protobuf::internal::MapEntryImpl.24"*)* @_ZNK6google8protobuf8internal12MapEntryImplIN13assist_ranker52GenericLogisticRegressionModel_WeightsEntry_DoNotUseENS0_11MessageLiteENSt3__112basic_stringIcNS6_11char_traitsIcEENS6_9allocatorIcEEEENS3_13FeatureWeightELNS1_14WireFormatLite9FieldTypeE9ELSF_11EE13IsInitializedEv to i8*), i8* bitcast (void (%"class.std::__1::basic_string"*, %"class.google::protobuf::MessageLite"*)* @_ZNK6google8protobuf11MessageLite25InitializationErrorStringEv to i8*), i8* bitcast (void (%"class.google::protobuf::internal::MapEntryImpl.24"*, %"class.google::protobuf::MessageLite"*)* @_ZN6google8protobuf8internal12MapEntryImplIN13assist_ranker52GenericLogisticRegressionModel_WeightsEntry_DoNotUseENS0_11MessageLiteENSt3__112basic_stringIcNS6_11char_traitsIcEENS6_9allocatorIcEEEENS3_13FeatureWeightELNS1_14WireFormatLite9FieldTypeE9ELSF_11EE21CheckTypeAndMergeFromERKS5_ to i8*), i8* bitcast (i64 (%"class.google::protobuf::internal::MapEntryImpl.24"*)* @_ZNK6google8protobuf8internal12MapEntryImplIN13assist_ranker52GenericLogisticRegressionModel_WeightsEntry_DoNotUseENS0_11MessageLiteENSt3__112basic_stringIcNS6_11char_traitsIcEENS6_9allocatorIcEEEENS3_13FeatureWeightELNS1_14WireFormatLite9FieldTypeE9ELSF_11EE12ByteSizeLongEv to i8*), i8* bitcast (i32 (%"class.google::protobuf::internal::MapEntryImpl.24"*)* @_ZNK6google8protobuf8internal12MapEntryImplIN13assist_ranker52GenericLogisticRegressionModel_WeightsEntry_DoNotUseENS0_11MessageLiteENSt3__112basic_stringIcNS6_11char_traitsIcEENS6_9allocatorIcEEEENS3_13FeatureWeightELNS1_14WireFormatLite9FieldTypeE9ELSF_11EE13GetCachedSizeEv to i8*), i8* bitcast (i8* (%"class.google::protobuf::internal::MapEntryImpl.24"*, i8*, %"class.google::protobuf::internal::ParseContext"*)* @_ZN6google8protobuf8internal12MapEntryImplIN13assist_ranker52GenericLogisticRegressionModel_WeightsEntry_DoNotUseENS0_11MessageLiteENSt3__112basic_stringIcNS6_11char_traitsIcEENS6_9allocatorIcEEEENS3_13FeatureWeightELNS1_14WireFormatLite9FieldTypeE9ELSF_11EE14_InternalParseEPKcPNS1_12ParseContextE to i8*), i8* bitcast (i8* (%"class.google::protobuf::internal::MapEntryImpl.24"*, i8*, %"class.google::protobuf::io::EpsCopyOutputStream"*)* @_ZNK6google8protobuf8internal12MapEntryImplIN13assist_ranker52GenericLogisticRegressionModel_WeightsEntry_DoNotUseENS0_11MessageLiteENSt3__112basic_stringIcNS6_11char_traitsIcEENS6_9allocatorIcEEEENS3_13FeatureWeightELNS1_14WireFormatLite9FieldTypeE9ELSF_11EE18_InternalSerializeEPhPNS0_2io19EpsCopyOutputStreamE to i8*), i8* bitcast (i8* (%"class.google::protobuf::MessageLite"*)* @_ZNK6google8protobuf11MessageLite16InternalGetTableEv to i8*), i8* bitcast (%"class.std::__1::basic_string"* (%"class.google::protobuf::internal::MapEntryImpl.24"*)* @_ZNK6google8protobuf8internal12MapEntryImplIN13assist_ranker52GenericLogisticRegressionModel_WeightsEntry_DoNotUseENS0_11MessageLiteENSt3__112basic_stringIcNS6_11char_traitsIcEENS6_9allocatorIcEEEENS3_13FeatureWeightELNS1_14WireFormatLite9FieldTypeE9ELSF_11EE3keyEv to i8*), i8* bitcast (%"class.assist_ranker::FeatureWeight"* (%"class.google::protobuf::internal::MapEntryImpl.24"*)* @_ZNK6google8protobuf8internal12MapEntryImplIN13assist_ranker52GenericLogisticRegressionModel_WeightsEntry_DoNotUseENS0_11MessageLiteENSt3__112basic_stringIcNS6_11char_traitsIcEENS6_9allocatorIcEEEENS3_13FeatureWeightELNS1_14WireFormatLite9FieldTypeE9ELSF_11EE5valueEv to i8*)] }, comdat, align 8
@_ZTVN13assist_ranker60GenericLogisticRegressionModel_FullnameWeightsEntry_DoNotUseE = linkonce_odr hidden unnamed_addr constant { [18 x i8*] } { [18 x i8*] [i8* null, i8* null, i8* bitcast (void (%"class.google::protobuf::internal::MapEntryLite.25"*)* @_ZN6google8protobuf8internal12MapEntryLiteIN13assist_ranker60GenericLogisticRegressionModel_FullnameWeightsEntry_DoNotUseENSt3__112basic_stringIcNS5_11char_traitsIcEENS5_9allocatorIcEEEEfLNS1_14WireFormatLite9FieldTypeE9ELSD_2EED2Ev to i8*), i8* bitcast (void (%"class.assist_ranker::GenericLogisticRegressionModel_FullnameWeightsEntry_DoNotUse"*)* @_ZN13assist_ranker60GenericLogisticRegressionModel_FullnameWeightsEntry_DoNotUseD0Ev to i8*), i8* bitcast (void (%"class.std::__1::basic_string"*, %"class.google::protobuf::internal::MapEntryImpl.26"*)* @_ZNK6google8protobuf8internal12MapEntryImplIN13assist_ranker60GenericLogisticRegressionModel_FullnameWeightsEntry_DoNotUseENS0_11MessageLiteENSt3__112basic_stringIcNS6_11char_traitsIcEENS6_9allocatorIcEEEEfLNS1_14WireFormatLite9FieldTypeE9ELSE_2EE11GetTypeNameEv to i8*), i8* bitcast (%"class.google::protobuf::MessageLite"* (%"class.google::protobuf::internal::MapEntryImpl.26"*)* @_ZNK6google8protobuf8internal12MapEntryImplIN13assist_ranker60GenericLogisticRegressionModel_FullnameWeightsEntry_DoNotUseENS0_11MessageLiteENSt3__112basic_stringIcNS6_11char_traitsIcEENS6_9allocatorIcEEEEfLNS1_14WireFormatLite9FieldTypeE9ELSE_2EE3NewEv to i8*), i8* bitcast (%"class.google::protobuf::MessageLite"* (%"class.google::protobuf::internal::MapEntryImpl.26"*, %"class.google::protobuf::Arena"*)* @_ZNK6google8protobuf8internal12MapEntryImplIN13assist_ranker60GenericLogisticRegressionModel_FullnameWeightsEntry_DoNotUseENS0_11MessageLiteENSt3__112basic_stringIcNS6_11char_traitsIcEENS6_9allocatorIcEEEEfLNS1_14WireFormatLite9FieldTypeE9ELSE_2EE3NewEPNS0_5ArenaE to i8*), i8* bitcast (void (%"class.google::protobuf::internal::MapEntryImpl.26"*)* @_ZN6google8protobuf8internal12MapEntryImplIN13assist_ranker60GenericLogisticRegressionModel_FullnameWeightsEntry_DoNotUseENS0_11MessageLiteENSt3__112basic_stringIcNS6_11char_traitsIcEENS6_9allocatorIcEEEEfLNS1_14WireFormatLite9FieldTypeE9ELSE_2EE5ClearEv to i8*), i8* bitcast (i1 (%"class.google::protobuf::internal::MapEntryImpl.26"*)* @_ZNK6google8protobuf8internal12MapEntryImplIN13assist_ranker60GenericLogisticRegressionModel_FullnameWeightsEntry_DoNotUseENS0_11MessageLiteENSt3__112basic_stringIcNS6_11char_traitsIcEENS6_9allocatorIcEEEEfLNS1_14WireFormatLite9FieldTypeE9ELSE_2EE13IsInitializedEv to i8*), i8* bitcast (void (%"class.std::__1::basic_string"*, %"class.google::protobuf::MessageLite"*)* @_ZNK6google8protobuf11MessageLite25InitializationErrorStringEv to i8*), i8* bitcast (void (%"class.google::protobuf::internal::MapEntryImpl.26"*, %"class.google::protobuf::MessageLite"*)* @_ZN6google8protobuf8internal12MapEntryImplIN13assist_ranker60GenericLogisticRegressionModel_FullnameWeightsEntry_DoNotUseENS0_11MessageLiteENSt3__112basic_stringIcNS6_11char_traitsIcEENS6_9allocatorIcEEEEfLNS1_14WireFormatLite9FieldTypeE9ELSE_2EE21CheckTypeAndMergeFromERKS5_ to i8*), i8* bitcast (i64 (%"class.google::protobuf::internal::MapEntryImpl.26"*)* @_ZNK6google8protobuf8internal12MapEntryImplIN13assist_ranker60GenericLogisticRegressionModel_FullnameWeightsEntry_DoNotUseENS0_11MessageLiteENSt3__112basic_stringIcNS6_11char_traitsIcEENS6_9allocatorIcEEEEfLNS1_14WireFormatLite9FieldTypeE9ELSE_2EE12ByteSizeLongEv to i8*), i8* bitcast (i32 (%"class.google::protobuf::internal::MapEntryImpl.26"*)* @_ZNK6google8protobuf8internal12MapEntryImplIN13assist_ranker60GenericLogisticRegressionModel_FullnameWeightsEntry_DoNotUseENS0_11MessageLiteENSt3__112basic_stringIcNS6_11char_traitsIcEENS6_9allocatorIcEEEEfLNS1_14WireFormatLite9FieldTypeE9ELSE_2EE13GetCachedSizeEv to i8*), i8* bitcast (i8* (%"class.google::protobuf::internal::MapEntryImpl.26"*, i8*, %"class.google::protobuf::internal::ParseContext"*)* @_ZN6google8protobuf8internal12MapEntryImplIN13assist_ranker60GenericLogisticRegressionModel_FullnameWeightsEntry_DoNotUseENS0_11MessageLiteENSt3__112basic_stringIcNS6_11char_traitsIcEENS6_9allocatorIcEEEEfLNS1_14WireFormatLite9FieldTypeE9ELSE_2EE14_InternalParseEPKcPNS1_12ParseContextE to i8*), i8* bitcast (i8* (%"class.google::protobuf::internal::MapEntryImpl.26"*, i8*, %"class.google::protobuf::io::EpsCopyOutputStream"*)* @_ZNK6google8protobuf8internal12MapEntryImplIN13assist_ranker60GenericLogisticRegressionModel_FullnameWeightsEntry_DoNotUseENS0_11MessageLiteENSt3__112basic_stringIcNS6_11char_traitsIcEENS6_9allocatorIcEEEEfLNS1_14WireFormatLite9FieldTypeE9ELSE_2EE18_InternalSerializeEPhPNS0_2io19EpsCopyOutputStreamE to i8*), i8* bitcast (i8* (%"class.google::protobuf::MessageLite"*)* @_ZNK6google8protobuf11MessageLite16InternalGetTableEv to i8*), i8* bitcast (%"class.std::__1::basic_string"* (%"class.google::protobuf::internal::MapEntryImpl.26"*)* @_ZNK6google8protobuf8internal12MapEntryImplIN13assist_ranker60GenericLogisticRegressionModel_FullnameWeightsEntry_DoNotUseENS0_11MessageLiteENSt3__112basic_stringIcNS6_11char_traitsIcEENS6_9allocatorIcEEEEfLNS1_14WireFormatLite9FieldTypeE9ELSE_2EE3keyEv to i8*), i8* bitcast (float* (%"class.google::protobuf::internal::MapEntryImpl.26"*)* @_ZNK6google8protobuf8internal12MapEntryImplIN13assist_ranker60GenericLogisticRegressionModel_FullnameWeightsEntry_DoNotUseENS0_11MessageLiteENSt3__112basic_stringIcNS6_11char_traitsIcEENS6_9allocatorIcEEEEfLNS1_14WireFormatLite9FieldTypeE9ELSE_2EE5valueEv to i8*)] }, comdat, align 8
@_ZTVN13assist_ranker30GenericLogisticRegressionModelE = hidden unnamed_addr constant { [16 x i8*] } { [16 x i8*] [i8* null, i8* null, i8* bitcast (void (%"class.assist_ranker::GenericLogisticRegressionModel"*)* @_ZN13assist_ranker30GenericLogisticRegressionModelD2Ev to i8*), i8* bitcast (void (%"class.assist_ranker::GenericLogisticRegressionModel"*)* @_ZN13assist_ranker30GenericLogisticRegressionModelD0Ev to i8*), i8* bitcast (void (%"class.std::__1::basic_string"*, %"class.assist_ranker::GenericLogisticRegressionModel"*)* @_ZNK13assist_ranker30GenericLogisticRegressionModel11GetTypeNameEv to i8*), i8* bitcast (%"class.assist_ranker::GenericLogisticRegressionModel"* (%"class.assist_ranker::GenericLogisticRegressionModel"*)* @_ZNK13assist_ranker30GenericLogisticRegressionModel3NewEv to i8*), i8* bitcast (%"class.assist_ranker::GenericLogisticRegressionModel"* (%"class.assist_ranker::GenericLogisticRegressionModel"*, %"class.google::protobuf::Arena"*)* @_ZNK13assist_ranker30GenericLogisticRegressionModel3NewEPN6google8protobuf5ArenaE to i8*), i8* bitcast (void (%"class.assist_ranker::GenericLogisticRegressionModel"*)* @_ZN13assist_ranker30GenericLogisticRegressionModel5ClearEv to i8*), i8* bitcast (i1 (%"class.assist_ranker::GenericLogisticRegressionModel"*)* @_ZNK13assist_ranker30GenericLogisticRegressionModel13IsInitializedEv to i8*), i8* bitcast (void (%"class.std::__1::basic_string"*, %"class.google::protobuf::MessageLite"*)* @_ZNK6google8protobuf11MessageLite25InitializationErrorStringEv to i8*), i8* bitcast (void (%"class.assist_ranker::GenericLogisticRegressionModel"*, %"class.google::protobuf::MessageLite"*)* @_ZN13assist_ranker30GenericLogisticRegressionModel21CheckTypeAndMergeFromERKN6google8protobuf11MessageLiteE to i8*), i8* bitcast (i64 (%"class.assist_ranker::GenericLogisticRegressionModel"*)* @_ZNK13assist_ranker30GenericLogisticRegressionModel12ByteSizeLongEv to i8*), i8* bitcast (i32 (%"class.assist_ranker::GenericLogisticRegressionModel"*)* @_ZNK13assist_ranker30GenericLogisticRegressionModel13GetCachedSizeEv to i8*), i8* bitcast (i8* (%"class.assist_ranker::GenericLogisticRegressionModel"*, i8*, %"class.google::protobuf::internal::ParseContext"*)* @_ZN13assist_ranker30GenericLogisticRegressionModel14_InternalParseEPKcPN6google8protobuf8internal12ParseContextE to i8*), i8* bitcast (i8* (%"class.assist_ranker::GenericLogisticRegressionModel"*, i8*, %"class.google::protobuf::io::EpsCopyOutputStream"*)* @_ZNK13assist_ranker30GenericLogisticRegressionModel18_InternalSerializeEPhPN6google8protobuf2io19EpsCopyOutputStreamE to i8*), i8* bitcast (i8* (%"class.google::protobuf::MessageLite"*)* @_ZNK6google8protobuf11MessageLite16InternalGetTableEv to i8*)] }, align 8
@.str.10 = private unnamed_addr constant [45 x i8] c"assist_ranker.GenericLogisticRegressionModel\00", align 1
@_ZN13assist_ranker44_ExamplePreprocessorConfig_default_instance_E = external global %"class.assist_ranker::ExamplePreprocessorConfigDefaultTypeInternal", align 1
@_ZTVN6google8protobuf8internal12MapEntryLiteIN13assist_ranker35SparseWeights_WeightsEntry_DoNotUseENSt3__112basic_stringIcNS5_11char_traitsIcEENS5_9allocatorIcEEEEfLNS1_14WireFormatLite9FieldTypeE9ELSD_2EEE = linkonce_odr hidden unnamed_addr constant { [18 x i8*] } { [18 x i8*] [i8* null, i8* null, i8* bitcast (void (%"class.google::protobuf::internal::MapEntryLite"*)* @_ZN6google8protobuf8internal12MapEntryLiteIN13assist_ranker35SparseWeights_WeightsEntry_DoNotUseENSt3__112basic_stringIcNS5_11char_traitsIcEENS5_9allocatorIcEEEEfLNS1_14WireFormatLite9FieldTypeE9ELSD_2EED2Ev to i8*), i8* bitcast (void (%"class.google::protobuf::internal::MapEntryLite"*)* @_ZN6google8protobuf8internal12MapEntryLiteIN13assist_ranker35SparseWeights_WeightsEntry_DoNotUseENSt3__112basic_stringIcNS5_11char_traitsIcEENS5_9allocatorIcEEEEfLNS1_14WireFormatLite9FieldTypeE9ELSD_2EED0Ev to i8*), i8* bitcast (void (%"class.std::__1::basic_string"*, %"class.google::protobuf::internal::MapEntryImpl"*)* @_ZNK6google8protobuf8internal12MapEntryImplIN13assist_ranker35SparseWeights_WeightsEntry_DoNotUseENS0_11MessageLiteENSt3__112basic_stringIcNS6_11char_traitsIcEENS6_9allocatorIcEEEEfLNS1_14WireFormatLite9FieldTypeE9ELSE_2EE11GetTypeNameEv to i8*), i8* bitcast (%"class.google::protobuf::MessageLite"* (%"class.google::protobuf::internal::MapEntryImpl"*)* @_ZNK6google8protobuf8internal12MapEntryImplIN13assist_ranker35SparseWeights_WeightsEntry_DoNotUseENS0_11MessageLiteENSt3__112basic_stringIcNS6_11char_traitsIcEENS6_9allocatorIcEEEEfLNS1_14WireFormatLite9FieldTypeE9ELSE_2EE3NewEv to i8*), i8* bitcast (%"class.google::protobuf::MessageLite"* (%"class.google::protobuf::internal::MapEntryImpl"*, %"class.google::protobuf::Arena"*)* @_ZNK6google8protobuf8internal12MapEntryImplIN13assist_ranker35SparseWeights_WeightsEntry_DoNotUseENS0_11MessageLiteENSt3__112basic_stringIcNS6_11char_traitsIcEENS6_9allocatorIcEEEEfLNS1_14WireFormatLite9FieldTypeE9ELSE_2EE3NewEPNS0_5ArenaE to i8*), i8* bitcast (void (%"class.google::protobuf::internal::MapEntryImpl"*)* @_ZN6google8protobuf8internal12MapEntryImplIN13assist_ranker35SparseWeights_WeightsEntry_DoNotUseENS0_11MessageLiteENSt3__112basic_stringIcNS6_11char_traitsIcEENS6_9allocatorIcEEEEfLNS1_14WireFormatLite9FieldTypeE9ELSE_2EE5ClearEv to i8*), i8* bitcast (i1 (%"class.google::protobuf::internal::MapEntryImpl"*)* @_ZNK6google8protobuf8internal12MapEntryImplIN13assist_ranker35SparseWeights_WeightsEntry_DoNotUseENS0_11MessageLiteENSt3__112basic_stringIcNS6_11char_traitsIcEENS6_9allocatorIcEEEEfLNS1_14WireFormatLite9FieldTypeE9ELSE_2EE13IsInitializedEv to i8*), i8* bitcast (void (%"class.std::__1::basic_string"*, %"class.google::protobuf::MessageLite"*)* @_ZNK6google8protobuf11MessageLite25InitializationErrorStringEv to i8*), i8* bitcast (void (%"class.google::protobuf::internal::MapEntryImpl"*, %"class.google::protobuf::MessageLite"*)* @_ZN6google8protobuf8internal12MapEntryImplIN13assist_ranker35SparseWeights_WeightsEntry_DoNotUseENS0_11MessageLiteENSt3__112basic_stringIcNS6_11char_traitsIcEENS6_9allocatorIcEEEEfLNS1_14WireFormatLite9FieldTypeE9ELSE_2EE21CheckTypeAndMergeFromERKS5_ to i8*), i8* bitcast (i64 (%"class.google::protobuf::internal::MapEntryImpl"*)* @_ZNK6google8protobuf8internal12MapEntryImplIN13assist_ranker35SparseWeights_WeightsEntry_DoNotUseENS0_11MessageLiteENSt3__112basic_stringIcNS6_11char_traitsIcEENS6_9allocatorIcEEEEfLNS1_14WireFormatLite9FieldTypeE9ELSE_2EE12ByteSizeLongEv to i8*), i8* bitcast (i32 (%"class.google::protobuf::internal::MapEntryImpl"*)* @_ZNK6google8protobuf8internal12MapEntryImplIN13assist_ranker35SparseWeights_WeightsEntry_DoNotUseENS0_11MessageLiteENSt3__112basic_stringIcNS6_11char_traitsIcEENS6_9allocatorIcEEEEfLNS1_14WireFormatLite9FieldTypeE9ELSE_2EE13GetCachedSizeEv to i8*), i8* bitcast (i8* (%"class.google::protobuf::internal::MapEntryImpl"*, i8*, %"class.google::protobuf::internal::ParseContext"*)* @_ZN6google8protobuf8internal12MapEntryImplIN13assist_ranker35SparseWeights_WeightsEntry_DoNotUseENS0_11MessageLiteENSt3__112basic_stringIcNS6_11char_traitsIcEENS6_9allocatorIcEEEEfLNS1_14WireFormatLite9FieldTypeE9ELSE_2EE14_InternalParseEPKcPNS1_12ParseContextE to i8*), i8* bitcast (i8* (%"class.google::protobuf::internal::MapEntryImpl"*, i8*, %"class.google::protobuf::io::EpsCopyOutputStream"*)* @_ZNK6google8protobuf8internal12MapEntryImplIN13assist_ranker35SparseWeights_WeightsEntry_DoNotUseENS0_11MessageLiteENSt3__112basic_stringIcNS6_11char_traitsIcEENS6_9allocatorIcEEEEfLNS1_14WireFormatLite9FieldTypeE9ELSE_2EE18_InternalSerializeEPhPNS0_2io19EpsCopyOutputStreamE to i8*), i8* bitcast (i8* (%"class.google::protobuf::MessageLite"*)* @_ZNK6google8protobuf11MessageLite16InternalGetTableEv to i8*), i8* bitcast (%"class.std::__1::basic_string"* (%"class.google::protobuf::internal::MapEntryImpl"*)* @_ZNK6google8protobuf8internal12MapEntryImplIN13assist_ranker35SparseWeights_WeightsEntry_DoNotUseENS0_11MessageLiteENSt3__112basic_stringIcNS6_11char_traitsIcEENS6_9allocatorIcEEEEfLNS1_14WireFormatLite9FieldTypeE9ELSE_2EE3keyEv to i8*), i8* bitcast (float* (%"class.google::protobuf::internal::MapEntryImpl"*)* @_ZNK6google8protobuf8internal12MapEntryImplIN13assist_ranker35SparseWeights_WeightsEntry_DoNotUseENS0_11MessageLiteENSt3__112basic_stringIcNS6_11char_traitsIcEENS6_9allocatorIcEEEEfLNS1_14WireFormatLite9FieldTypeE9ELSE_2EE5valueEv to i8*)] }, comdat, align 8
@_ZTVN6google8protobuf8internal12MapEntryImplIN13assist_ranker35SparseWeights_WeightsEntry_DoNotUseENS0_11MessageLiteENSt3__112basic_stringIcNS6_11char_traitsIcEENS6_9allocatorIcEEEEfLNS1_14WireFormatLite9FieldTypeE9ELSE_2EEE = linkonce_odr hidden unnamed_addr constant { [18 x i8*] } { [18 x i8*] [i8* null, i8* null, i8* bitcast (void (%"class.google::protobuf::internal::MapEntryImpl"*)* @_ZN6google8protobuf8internal12MapEntryImplIN13assist_ranker35SparseWeights_WeightsEntry_DoNotUseENS0_11MessageLiteENSt3__112basic_stringIcNS6_11char_traitsIcEENS6_9allocatorIcEEEEfLNS1_14WireFormatLite9FieldTypeE9ELSE_2EED2Ev to i8*), i8* bitcast (void (%"class.google::protobuf::internal::MapEntryImpl"*)* @_ZN6google8protobuf8internal12MapEntryImplIN13assist_ranker35SparseWeights_WeightsEntry_DoNotUseENS0_11MessageLiteENSt3__112basic_stringIcNS6_11char_traitsIcEENS6_9allocatorIcEEEEfLNS1_14WireFormatLite9FieldTypeE9ELSE_2EED0Ev to i8*), i8* bitcast (void (%"class.std::__1::basic_string"*, %"class.google::protobuf::internal::MapEntryImpl"*)* @_ZNK6google8protobuf8internal12MapEntryImplIN13assist_ranker35SparseWeights_WeightsEntry_DoNotUseENS0_11MessageLiteENSt3__112basic_stringIcNS6_11char_traitsIcEENS6_9allocatorIcEEEEfLNS1_14WireFormatLite9FieldTypeE9ELSE_2EE11GetTypeNameEv to i8*), i8* bitcast (%"class.google::protobuf::MessageLite"* (%"class.google::protobuf::internal::MapEntryImpl"*)* @_ZNK6google8protobuf8internal12MapEntryImplIN13assist_ranker35SparseWeights_WeightsEntry_DoNotUseENS0_11MessageLiteENSt3__112basic_stringIcNS6_11char_traitsIcEENS6_9allocatorIcEEEEfLNS1_14WireFormatLite9FieldTypeE9ELSE_2EE3NewEv to i8*), i8* bitcast (%"class.google::protobuf::MessageLite"* (%"class.google::protobuf::internal::MapEntryImpl"*, %"class.google::protobuf::Arena"*)* @_ZNK6google8protobuf8internal12MapEntryImplIN13assist_ranker35SparseWeights_WeightsEntry_DoNotUseENS0_11MessageLiteENSt3__112basic_stringIcNS6_11char_traitsIcEENS6_9allocatorIcEEEEfLNS1_14WireFormatLite9FieldTypeE9ELSE_2EE3NewEPNS0_5ArenaE to i8*), i8* bitcast (void (%"class.google::protobuf::internal::MapEntryImpl"*)* @_ZN6google8protobuf8internal12MapEntryImplIN13assist_ranker35SparseWeights_WeightsEntry_DoNotUseENS0_11MessageLiteENSt3__112basic_stringIcNS6_11char_traitsIcEENS6_9allocatorIcEEEEfLNS1_14WireFormatLite9FieldTypeE9ELSE_2EE5ClearEv to i8*), i8* bitcast (i1 (%"class.google::protobuf::internal::MapEntryImpl"*)* @_ZNK6google8protobuf8internal12MapEntryImplIN13assist_ranker35SparseWeights_WeightsEntry_DoNotUseENS0_11MessageLiteENSt3__112basic_stringIcNS6_11char_traitsIcEENS6_9allocatorIcEEEEfLNS1_14WireFormatLite9FieldTypeE9ELSE_2EE13IsInitializedEv to i8*), i8* bitcast (void (%"class.std::__1::basic_string"*, %"class.google::protobuf::MessageLite"*)* @_ZNK6google8protobuf11MessageLite25InitializationErrorStringEv to i8*), i8* bitcast (void (%"class.google::protobuf::internal::MapEntryImpl"*, %"class.google::protobuf::MessageLite"*)* @_ZN6google8protobuf8internal12MapEntryImplIN13assist_ranker35SparseWeights_WeightsEntry_DoNotUseENS0_11MessageLiteENSt3__112basic_stringIcNS6_11char_traitsIcEENS6_9allocatorIcEEEEfLNS1_14WireFormatLite9FieldTypeE9ELSE_2EE21CheckTypeAndMergeFromERKS5_ to i8*), i8* bitcast (i64 (%"class.google::protobuf::internal::MapEntryImpl"*)* @_ZNK6google8protobuf8internal12MapEntryImplIN13assist_ranker35SparseWeights_WeightsEntry_DoNotUseENS0_11MessageLiteENSt3__112basic_stringIcNS6_11char_traitsIcEENS6_9allocatorIcEEEEfLNS1_14WireFormatLite9FieldTypeE9ELSE_2EE12ByteSizeLongEv to i8*), i8* bitcast (i32 (%"class.google::protobuf::internal::MapEntryImpl"*)* @_ZNK6google8protobuf8internal12MapEntryImplIN13assist_ranker35SparseWeights_WeightsEntry_DoNotUseENS0_11MessageLiteENSt3__112basic_stringIcNS6_11char_traitsIcEENS6_9allocatorIcEEEEfLNS1_14WireFormatLite9FieldTypeE9ELSE_2EE13GetCachedSizeEv to i8*), i8* bitcast (i8* (%"class.google::protobuf::internal::MapEntryImpl"*, i8*, %"class.google::protobuf::internal::ParseContext"*)* @_ZN6google8protobuf8internal12MapEntryImplIN13assist_ranker35SparseWeights_WeightsEntry_DoNotUseENS0_11MessageLiteENSt3__112basic_stringIcNS6_11char_traitsIcEENS6_9allocatorIcEEEEfLNS1_14WireFormatLite9FieldTypeE9ELSE_2EE14_InternalParseEPKcPNS1_12ParseContextE to i8*), i8* bitcast (i8* (%"class.google::protobuf::internal::MapEntryImpl"*, i8*, %"class.google::protobuf::io::EpsCopyOutputStream"*)* @_ZNK6google8protobuf8internal12MapEntryImplIN13assist_ranker35SparseWeights_WeightsEntry_DoNotUseENS0_11MessageLiteENSt3__112basic_stringIcNS6_11char_traitsIcEENS6_9allocatorIcEEEEfLNS1_14WireFormatLite9FieldTypeE9ELSE_2EE18_InternalSerializeEPhPNS0_2io19EpsCopyOutputStreamE to i8*), i8* bitcast (i8* (%"class.google::protobuf::MessageLite"*)* @_ZNK6google8protobuf11MessageLite16InternalGetTableEv to i8*), i8* bitcast (%"class.std::__1::basic_string"* (%"class.google::protobuf::internal::MapEntryImpl"*)* @_ZNK6google8protobuf8internal12MapEntryImplIN13assist_ranker35SparseWeights_WeightsEntry_DoNotUseENS0_11MessageLiteENSt3__112basic_stringIcNS6_11char_traitsIcEENS6_9allocatorIcEEEEfLNS1_14WireFormatLite9FieldTypeE9ELSE_2EE3keyEv to i8*), i8* bitcast (float* (%"class.google::protobuf::internal::MapEntryImpl"*)* @_ZNK6google8protobuf8internal12MapEntryImplIN13assist_ranker35SparseWeights_WeightsEntry_DoNotUseENS0_11MessageLiteENSt3__112basic_stringIcNS6_11char_traitsIcEENS6_9allocatorIcEEEEfLNS1_14WireFormatLite9FieldTypeE9ELSE_2EE5valueEv to i8*)] }, comdat, align 8
@_ZN6google8protobuf8internal26fixed_address_empty_stringE = external global %"class.google::protobuf::internal::ExplicitlyConstructed.54", align 8
@_ZN6google8protobuf8internal17kGlobalEmptyTableE = external constant [1 x i8*], align 8
@_ZTVN6google8protobuf8internal12MapEntryLiteIN13assist_ranker52GenericLogisticRegressionModel_WeightsEntry_DoNotUseENSt3__112basic_stringIcNS5_11char_traitsIcEENS5_9allocatorIcEEEENS3_13FeatureWeightELNS1_14WireFormatLite9FieldTypeE9ELSE_11EEE = linkonce_odr hidden unnamed_addr constant { [18 x i8*] } { [18 x i8*] [i8* null, i8* null, i8* bitcast (void (%"class.google::protobuf::internal::MapEntryLite.23"*)* @_ZN6google8protobuf8internal12MapEntryLiteIN13assist_ranker52GenericLogisticRegressionModel_WeightsEntry_DoNotUseENSt3__112basic_stringIcNS5_11char_traitsIcEENS5_9allocatorIcEEEENS3_13FeatureWeightELNS1_14WireFormatLite9FieldTypeE9ELSE_11EED2Ev to i8*), i8* bitcast (void (%"class.google::protobuf::internal::MapEntryLite.23"*)* @_ZN6google8protobuf8internal12MapEntryLiteIN13assist_ranker52GenericLogisticRegressionModel_WeightsEntry_DoNotUseENSt3__112basic_stringIcNS5_11char_traitsIcEENS5_9allocatorIcEEEENS3_13FeatureWeightELNS1_14WireFormatLite9FieldTypeE9ELSE_11EED0Ev to i8*), i8* bitcast (void (%"class.std::__1::basic_string"*, %"class.google::protobuf::internal::MapEntryImpl.24"*)* @_ZNK6google8protobuf8internal12MapEntryImplIN13assist_ranker52GenericLogisticRegressionModel_WeightsEntry_DoNotUseENS0_11MessageLiteENSt3__112basic_stringIcNS6_11char_traitsIcEENS6_9allocatorIcEEEENS3_13FeatureWeightELNS1_14WireFormatLite9FieldTypeE9ELSF_11EE11GetTypeNameEv to i8*), i8* bitcast (%"class.google::protobuf::MessageLite"* (%"class.google::protobuf::internal::MapEntryImpl.24"*)* @_ZNK6google8protobuf8internal12MapEntryImplIN13assist_ranker52GenericLogisticRegressionModel_WeightsEntry_DoNotUseENS0_11MessageLiteENSt3__112basic_stringIcNS6_11char_traitsIcEENS6_9allocatorIcEEEENS3_13FeatureWeightELNS1_14WireFormatLite9FieldTypeE9ELSF_11EE3NewEv to i8*), i8* bitcast (%"class.google::protobuf::MessageLite"* (%"class.google::protobuf::internal::MapEntryImpl.24"*, %"class.google::protobuf::Arena"*)* @_ZNK6google8protobuf8internal12MapEntryImplIN13assist_ranker52GenericLogisticRegressionModel_WeightsEntry_DoNotUseENS0_11MessageLiteENSt3__112basic_stringIcNS6_11char_traitsIcEENS6_9allocatorIcEEEENS3_13FeatureWeightELNS1_14WireFormatLite9FieldTypeE9ELSF_11EE3NewEPNS0_5ArenaE to i8*), i8* bitcast (void (%"class.google::protobuf::internal::MapEntryImpl.24"*)* @_ZN6google8protobuf8internal12MapEntryImplIN13assist_ranker52GenericLogisticRegressionModel_WeightsEntry_DoNotUseENS0_11MessageLiteENSt3__112basic_stringIcNS6_11char_traitsIcEENS6_9allocatorIcEEEENS3_13FeatureWeightELNS1_14WireFormatLite9FieldTypeE9ELSF_11EE5ClearEv to i8*), i8* bitcast (i1 (%"class.google::protobuf::internal::MapEntryImpl.24"*)* @_ZNK6google8protobuf8internal12MapEntryImplIN13assist_ranker52GenericLogisticRegressionModel_WeightsEntry_DoNotUseENS0_11MessageLiteENSt3__112basic_stringIcNS6_11char_traitsIcEENS6_9allocatorIcEEEENS3_13FeatureWeightELNS1_14WireFormatLite9FieldTypeE9ELSF_11EE13IsInitializedEv to i8*), i8* bitcast (void (%"class.std::__1::basic_string"*, %"class.google::protobuf::MessageLite"*)* @_ZNK6google8protobuf11MessageLite25InitializationErrorStringEv to i8*), i8* bitcast (void (%"class.google::protobuf::internal::MapEntryImpl.24"*, %"class.google::protobuf::MessageLite"*)* @_ZN6google8protobuf8internal12MapEntryImplIN13assist_ranker52GenericLogisticRegressionModel_WeightsEntry_DoNotUseENS0_11MessageLiteENSt3__112basic_stringIcNS6_11char_traitsIcEENS6_9allocatorIcEEEENS3_13FeatureWeightELNS1_14WireFormatLite9FieldTypeE9ELSF_11EE21CheckTypeAndMergeFromERKS5_ to i8*), i8* bitcast (i64 (%"class.google::protobuf::internal::MapEntryImpl.24"*)* @_ZNK6google8protobuf8internal12MapEntryImplIN13assist_ranker52GenericLogisticRegressionModel_WeightsEntry_DoNotUseENS0_11MessageLiteENSt3__112basic_stringIcNS6_11char_traitsIcEENS6_9allocatorIcEEEENS3_13FeatureWeightELNS1_14WireFormatLite9FieldTypeE9ELSF_11EE12ByteSizeLongEv to i8*), i8* bitcast (i32 (%"class.google::protobuf::internal::MapEntryImpl.24"*)* @_ZNK6google8protobuf8internal12MapEntryImplIN13assist_ranker52GenericLogisticRegressionModel_WeightsEntry_DoNotUseENS0_11MessageLiteENSt3__112basic_stringIcNS6_11char_traitsIcEENS6_9allocatorIcEEEENS3_13FeatureWeightELNS1_14WireFormatLite9FieldTypeE9ELSF_11EE13GetCachedSizeEv to i8*), i8* bitcast (i8* (%"class.google::protobuf::internal::MapEntryImpl.24"*, i8*, %"class.google::protobuf::internal::ParseContext"*)* @_ZN6google8protobuf8internal12MapEntryImplIN13assist_ranker52GenericLogisticRegressionModel_WeightsEntry_DoNotUseENS0_11MessageLiteENSt3__112basic_stringIcNS6_11char_traitsIcEENS6_9allocatorIcEEEENS3_13FeatureWeightELNS1_14WireFormatLite9FieldTypeE9ELSF_11EE14_InternalParseEPKcPNS1_12ParseContextE to i8*), i8* bitcast (i8* (%"class.google::protobuf::internal::MapEntryImpl.24"*, i8*, %"class.google::protobuf::io::EpsCopyOutputStream"*)* @_ZNK6google8protobuf8internal12MapEntryImplIN13assist_ranker52GenericLogisticRegressionModel_WeightsEntry_DoNotUseENS0_11MessageLiteENSt3__112basic_stringIcNS6_11char_traitsIcEENS6_9allocatorIcEEEENS3_13FeatureWeightELNS1_14WireFormatLite9FieldTypeE9ELSF_11EE18_InternalSerializeEPhPNS0_2io19EpsCopyOutputStreamE to i8*), i8* bitcast (i8* (%"class.google::protobuf::MessageLite"*)* @_ZNK6google8protobuf11MessageLite16InternalGetTableEv to i8*), i8* bitcast (%"class.std::__1::basic_string"* (%"class.google::protobuf::internal::MapEntryImpl.24"*)* @_ZNK6google8protobuf8internal12MapEntryImplIN13assist_ranker52GenericLogisticRegressionModel_WeightsEntry_DoNotUseENS0_11MessageLiteENSt3__112basic_stringIcNS6_11char_traitsIcEENS6_9allocatorIcEEEENS3_13FeatureWeightELNS1_14WireFormatLite9FieldTypeE9ELSF_11EE3keyEv to i8*), i8* bitcast (%"class.assist_ranker::FeatureWeight"* (%"class.google::protobuf::internal::MapEntryImpl.24"*)* @_ZNK6google8protobuf8internal12MapEntryImplIN13assist_ranker52GenericLogisticRegressionModel_WeightsEntry_DoNotUseENS0_11MessageLiteENSt3__112basic_stringIcNS6_11char_traitsIcEENS6_9allocatorIcEEEENS3_13FeatureWeightELNS1_14WireFormatLite9FieldTypeE9ELSF_11EE5valueEv to i8*)] }, comdat, align 8
@_ZTVN6google8protobuf8internal12MapEntryImplIN13assist_ranker52GenericLogisticRegressionModel_WeightsEntry_DoNotUseENS0_11MessageLiteENSt3__112basic_stringIcNS6_11char_traitsIcEENS6_9allocatorIcEEEENS3_13FeatureWeightELNS1_14WireFormatLite9FieldTypeE9ELSF_11EEE = linkonce_odr hidden unnamed_addr constant { [18 x i8*] } { [18 x i8*] [i8* null, i8* null, i8* bitcast (void (%"class.google::protobuf::internal::MapEntryImpl.24"*)* @_ZN6google8protobuf8internal12MapEntryImplIN13assist_ranker52GenericLogisticRegressionModel_WeightsEntry_DoNotUseENS0_11MessageLiteENSt3__112basic_stringIcNS6_11char_traitsIcEENS6_9allocatorIcEEEENS3_13FeatureWeightELNS1_14WireFormatLite9FieldTypeE9ELSF_11EED2Ev to i8*), i8* bitcast (void (%"class.google::protobuf::internal::MapEntryImpl.24"*)* @_ZN6google8protobuf8internal12MapEntryImplIN13assist_ranker52GenericLogisticRegressionModel_WeightsEntry_DoNotUseENS0_11MessageLiteENSt3__112basic_stringIcNS6_11char_traitsIcEENS6_9allocatorIcEEEENS3_13FeatureWeightELNS1_14WireFormatLite9FieldTypeE9ELSF_11EED0Ev to i8*), i8* bitcast (void (%"class.std::__1::basic_string"*, %"class.google::protobuf::internal::MapEntryImpl.24"*)* @_ZNK6google8protobuf8internal12MapEntryImplIN13assist_ranker52GenericLogisticRegressionModel_WeightsEntry_DoNotUseENS0_11MessageLiteENSt3__112basic_stringIcNS6_11char_traitsIcEENS6_9allocatorIcEEEENS3_13FeatureWeightELNS1_14WireFormatLite9FieldTypeE9ELSF_11EE11GetTypeNameEv to i8*), i8* bitcast (%"class.google::protobuf::MessageLite"* (%"class.google::protobuf::internal::MapEntryImpl.24"*)* @_ZNK6google8protobuf8internal12MapEntryImplIN13assist_ranker52GenericLogisticRegressionModel_WeightsEntry_DoNotUseENS0_11MessageLiteENSt3__112basic_stringIcNS6_11char_traitsIcEENS6_9allocatorIcEEEENS3_13FeatureWeightELNS1_14WireFormatLite9FieldTypeE9ELSF_11EE3NewEv to i8*), i8* bitcast (%"class.google::protobuf::MessageLite"* (%"class.google::protobuf::internal::MapEntryImpl.24"*, %"class.google::protobuf::Arena"*)* @_ZNK6google8protobuf8internal12MapEntryImplIN13assist_ranker52GenericLogisticRegressionModel_WeightsEntry_DoNotUseENS0_11MessageLiteENSt3__112basic_stringIcNS6_11char_traitsIcEENS6_9allocatorIcEEEENS3_13FeatureWeightELNS1_14WireFormatLite9FieldTypeE9ELSF_11EE3NewEPNS0_5ArenaE to i8*), i8* bitcast (void (%"class.google::protobuf::internal::MapEntryImpl.24"*)* @_ZN6google8protobuf8internal12MapEntryImplIN13assist_ranker52GenericLogisticRegressionModel_WeightsEntry_DoNotUseENS0_11MessageLiteENSt3__112basic_stringIcNS6_11char_traitsIcEENS6_9allocatorIcEEEENS3_13FeatureWeightELNS1_14WireFormatLite9FieldTypeE9ELSF_11EE5ClearEv to i8*), i8* bitcast (i1 (%"class.google::protobuf::internal::MapEntryImpl.24"*)* @_ZNK6google8protobuf8internal12MapEntryImplIN13assist_ranker52GenericLogisticRegressionModel_WeightsEntry_DoNotUseENS0_11MessageLiteENSt3__112basic_stringIcNS6_11char_traitsIcEENS6_9allocatorIcEEEENS3_13FeatureWeightELNS1_14WireFormatLite9FieldTypeE9ELSF_11EE13IsInitializedEv to i8*), i8* bitcast (void (%"class.std::__1::basic_string"*, %"class.google::protobuf::MessageLite"*)* @_ZNK6google8protobuf11MessageLite25InitializationErrorStringEv to i8*), i8* bitcast (void (%"class.google::protobuf::internal::MapEntryImpl.24"*, %"class.google::protobuf::MessageLite"*)* @_ZN6google8protobuf8internal12MapEntryImplIN13assist_ranker52GenericLogisticRegressionModel_WeightsEntry_DoNotUseENS0_11MessageLiteENSt3__112basic_stringIcNS6_11char_traitsIcEENS6_9allocatorIcEEEENS3_13FeatureWeightELNS1_14WireFormatLite9FieldTypeE9ELSF_11EE21CheckTypeAndMergeFromERKS5_ to i8*), i8* bitcast (i64 (%"class.google::protobuf::internal::MapEntryImpl.24"*)* @_ZNK6google8protobuf8internal12MapEntryImplIN13assist_ranker52GenericLogisticRegressionModel_WeightsEntry_DoNotUseENS0_11MessageLiteENSt3__112basic_stringIcNS6_11char_traitsIcEENS6_9allocatorIcEEEENS3_13FeatureWeightELNS1_14WireFormatLite9FieldTypeE9ELSF_11EE12ByteSizeLongEv to i8*), i8* bitcast (i32 (%"class.google::protobuf::internal::MapEntryImpl.24"*)* @_ZNK6google8protobuf8internal12MapEntryImplIN13assist_ranker52GenericLogisticRegressionModel_WeightsEntry_DoNotUseENS0_11MessageLiteENSt3__112basic_stringIcNS6_11char_traitsIcEENS6_9allocatorIcEEEENS3_13FeatureWeightELNS1_14WireFormatLite9FieldTypeE9ELSF_11EE13GetCachedSizeEv to i8*), i8* bitcast (i8* (%"class.google::protobuf::internal::MapEntryImpl.24"*, i8*, %"class.google::protobuf::internal::ParseContext"*)* @_ZN6google8protobuf8internal12MapEntryImplIN13assist_ranker52GenericLogisticRegressionModel_WeightsEntry_DoNotUseENS0_11MessageLiteENSt3__112basic_stringIcNS6_11char_traitsIcEENS6_9allocatorIcEEEENS3_13FeatureWeightELNS1_14WireFormatLite9FieldTypeE9ELSF_11EE14_InternalParseEPKcPNS1_12ParseContextE to i8*), i8* bitcast (i8* (%"class.google::protobuf::internal::MapEntryImpl.24"*, i8*, %"class.google::protobuf::io::EpsCopyOutputStream"*)* @_ZNK6google8protobuf8internal12MapEntryImplIN13assist_ranker52GenericLogisticRegressionModel_WeightsEntry_DoNotUseENS0_11MessageLiteENSt3__112basic_stringIcNS6_11char_traitsIcEENS6_9allocatorIcEEEENS3_13FeatureWeightELNS1_14WireFormatLite9FieldTypeE9ELSF_11EE18_InternalSerializeEPhPNS0_2io19EpsCopyOutputStreamE to i8*), i8* bitcast (i8* (%"class.google::protobuf::MessageLite"*)* @_ZNK6google8protobuf11MessageLite16InternalGetTableEv to i8*), i8* bitcast (%"class.std::__1::basic_string"* (%"class.google::protobuf::internal::MapEntryImpl.24"*)* @_ZNK6google8protobuf8internal12MapEntryImplIN13assist_ranker52GenericLogisticRegressionModel_WeightsEntry_DoNotUseENS0_11MessageLiteENSt3__112basic_stringIcNS6_11char_traitsIcEENS6_9allocatorIcEEEENS3_13FeatureWeightELNS1_14WireFormatLite9FieldTypeE9ELSF_11EE3keyEv to i8*), i8* bitcast (%"class.assist_ranker::FeatureWeight"* (%"class.google::protobuf::internal::MapEntryImpl.24"*)* @_ZNK6google8protobuf8internal12MapEntryImplIN13assist_ranker52GenericLogisticRegressionModel_WeightsEntry_DoNotUseENS0_11MessageLiteENSt3__112basic_stringIcNS6_11char_traitsIcEENS6_9allocatorIcEEEENS3_13FeatureWeightELNS1_14WireFormatLite9FieldTypeE9ELSF_11EE5valueEv to i8*)] }, comdat, align 8
@_ZTVN6google8protobuf8internal12MapEntryLiteIN13assist_ranker60GenericLogisticRegressionModel_FullnameWeightsEntry_DoNotUseENSt3__112basic_stringIcNS5_11char_traitsIcEENS5_9allocatorIcEEEEfLNS1_14WireFormatLite9FieldTypeE9ELSD_2EEE = linkonce_odr hidden unnamed_addr constant { [18 x i8*] } { [18 x i8*] [i8* null, i8* null, i8* bitcast (void (%"class.google::protobuf::internal::MapEntryLite.25"*)* @_ZN6google8protobuf8internal12MapEntryLiteIN13assist_ranker60GenericLogisticRegressionModel_FullnameWeightsEntry_DoNotUseENSt3__112basic_stringIcNS5_11char_traitsIcEENS5_9allocatorIcEEEEfLNS1_14WireFormatLite9FieldTypeE9ELSD_2EED2Ev to i8*), i8* bitcast (void (%"class.google::protobuf::internal::MapEntryLite.25"*)* @_ZN6google8protobuf8internal12MapEntryLiteIN13assist_ranker60GenericLogisticRegressionModel_FullnameWeightsEntry_DoNotUseENSt3__112basic_stringIcNS5_11char_traitsIcEENS5_9allocatorIcEEEEfLNS1_14WireFormatLite9FieldTypeE9ELSD_2EED0Ev to i8*), i8* bitcast (void (%"class.std::__1::basic_string"*, %"class.google::protobuf::internal::MapEntryImpl.26"*)* @_ZNK6google8protobuf8internal12MapEntryImplIN13assist_ranker60GenericLogisticRegressionModel_FullnameWeightsEntry_DoNotUseENS0_11MessageLiteENSt3__112basic_stringIcNS6_11char_traitsIcEENS6_9allocatorIcEEEEfLNS1_14WireFormatLite9FieldTypeE9ELSE_2EE11GetTypeNameEv to i8*), i8* bitcast (%"class.google::protobuf::MessageLite"* (%"class.google::protobuf::internal::MapEntryImpl.26"*)* @_ZNK6google8protobuf8internal12MapEntryImplIN13assist_ranker60GenericLogisticRegressionModel_FullnameWeightsEntry_DoNotUseENS0_11MessageLiteENSt3__112basic_stringIcNS6_11char_traitsIcEENS6_9allocatorIcEEEEfLNS1_14WireFormatLite9FieldTypeE9ELSE_2EE3NewEv to i8*), i8* bitcast (%"class.google::protobuf::MessageLite"* (%"class.google::protobuf::internal::MapEntryImpl.26"*, %"class.google::protobuf::Arena"*)* @_ZNK6google8protobuf8internal12MapEntryImplIN13assist_ranker60GenericLogisticRegressionModel_FullnameWeightsEntry_DoNotUseENS0_11MessageLiteENSt3__112basic_stringIcNS6_11char_traitsIcEENS6_9allocatorIcEEEEfLNS1_14WireFormatLite9FieldTypeE9ELSE_2EE3NewEPNS0_5ArenaE to i8*), i8* bitcast (void (%"class.google::protobuf::internal::MapEntryImpl.26"*)* @_ZN6google8protobuf8internal12MapEntryImplIN13assist_ranker60GenericLogisticRegressionModel_FullnameWeightsEntry_DoNotUseENS0_11MessageLiteENSt3__112basic_stringIcNS6_11char_traitsIcEENS6_9allocatorIcEEEEfLNS1_14WireFormatLite9FieldTypeE9ELSE_2EE5ClearEv to i8*), i8* bitcast (i1 (%"class.google::protobuf::internal::MapEntryImpl.26"*)* @_ZNK6google8protobuf8internal12MapEntryImplIN13assist_ranker60GenericLogisticRegressionModel_FullnameWeightsEntry_DoNotUseENS0_11MessageLiteENSt3__112basic_stringIcNS6_11char_traitsIcEENS6_9allocatorIcEEEEfLNS1_14WireFormatLite9FieldTypeE9ELSE_2EE13IsInitializedEv to i8*), i8* bitcast (void (%"class.std::__1::basic_string"*, %"class.google::protobuf::MessageLite"*)* @_ZNK6google8protobuf11MessageLite25InitializationErrorStringEv to i8*), i8* bitcast (void (%"class.google::protobuf::internal::MapEntryImpl.26"*, %"class.google::protobuf::MessageLite"*)* @_ZN6google8protobuf8internal12MapEntryImplIN13assist_ranker60GenericLogisticRegressionModel_FullnameWeightsEntry_DoNotUseENS0_11MessageLiteENSt3__112basic_stringIcNS6_11char_traitsIcEENS6_9allocatorIcEEEEfLNS1_14WireFormatLite9FieldTypeE9ELSE_2EE21CheckTypeAndMergeFromERKS5_ to i8*), i8* bitcast (i64 (%"class.google::protobuf::internal::MapEntryImpl.26"*)* @_ZNK6google8protobuf8internal12MapEntryImplIN13assist_ranker60GenericLogisticRegressionModel_FullnameWeightsEntry_DoNotUseENS0_11MessageLiteENSt3__112basic_stringIcNS6_11char_traitsIcEENS6_9allocatorIcEEEEfLNS1_14WireFormatLite9FieldTypeE9ELSE_2EE12ByteSizeLongEv to i8*), i8* bitcast (i32 (%"class.google::protobuf::internal::MapEntryImpl.26"*)* @_ZNK6google8protobuf8internal12MapEntryImplIN13assist_ranker60GenericLogisticRegressionModel_FullnameWeightsEntry_DoNotUseENS0_11MessageLiteENSt3__112basic_stringIcNS6_11char_traitsIcEENS6_9allocatorIcEEEEfLNS1_14WireFormatLite9FieldTypeE9ELSE_2EE13GetCachedSizeEv to i8*), i8* bitcast (i8* (%"class.google::protobuf::internal::MapEntryImpl.26"*, i8*, %"class.google::protobuf::internal::ParseContext"*)* @_ZN6google8protobuf8internal12MapEntryImplIN13assist_ranker60GenericLogisticRegressionModel_FullnameWeightsEntry_DoNotUseENS0_11MessageLiteENSt3__112basic_stringIcNS6_11char_traitsIcEENS6_9allocatorIcEEEEfLNS1_14WireFormatLite9FieldTypeE9ELSE_2EE14_InternalParseEPKcPNS1_12ParseContextE to i8*), i8* bitcast (i8* (%"class.google::protobuf::internal::MapEntryImpl.26"*, i8*, %"class.google::protobuf::io::EpsCopyOutputStream"*)* @_ZNK6google8protobuf8internal12MapEntryImplIN13assist_ranker60GenericLogisticRegressionModel_FullnameWeightsEntry_DoNotUseENS0_11MessageLiteENSt3__112basic_stringIcNS6_11char_traitsIcEENS6_9allocatorIcEEEEfLNS1_14WireFormatLite9FieldTypeE9ELSE_2EE18_InternalSerializeEPhPNS0_2io19EpsCopyOutputStreamE to i8*), i8* bitcast (i8* (%"class.google::protobuf::MessageLite"*)* @_ZNK6google8protobuf11MessageLite16InternalGetTableEv to i8*), i8* bitcast (%"class.std::__1::basic_string"* (%"class.google::protobuf::internal::MapEntryImpl.26"*)* @_ZNK6google8protobuf8internal12MapEntryImplIN13assist_ranker60GenericLogisticRegressionModel_FullnameWeightsEntry_DoNotUseENS0_11MessageLiteENSt3__112basic_stringIcNS6_11char_traitsIcEENS6_9allocatorIcEEEEfLNS1_14WireFormatLite9FieldTypeE9ELSE_2EE3keyEv to i8*), i8* bitcast (float* (%"class.google::protobuf::internal::MapEntryImpl.26"*)* @_ZNK6google8protobuf8internal12MapEntryImplIN13assist_ranker60GenericLogisticRegressionModel_FullnameWeightsEntry_DoNotUseENS0_11MessageLiteENSt3__112basic_stringIcNS6_11char_traitsIcEENS6_9allocatorIcEEEEfLNS1_14WireFormatLite9FieldTypeE9ELSE_2EE5valueEv to i8*)] }, comdat, align 8
@_ZTVN6google8protobuf8internal12MapEntryImplIN13assist_ranker60GenericLogisticRegressionModel_FullnameWeightsEntry_DoNotUseENS0_11MessageLiteENSt3__112basic_stringIcNS6_11char_traitsIcEENS6_9allocatorIcEEEEfLNS1_14WireFormatLite9FieldTypeE9ELSE_2EEE = linkonce_odr hidden unnamed_addr constant { [18 x i8*] } { [18 x i8*] [i8* null, i8* null, i8* bitcast (void (%"class.google::protobuf::internal::MapEntryImpl.26"*)* @_ZN6google8protobuf8internal12MapEntryImplIN13assist_ranker60GenericLogisticRegressionModel_FullnameWeightsEntry_DoNotUseENS0_11MessageLiteENSt3__112basic_stringIcNS6_11char_traitsIcEENS6_9allocatorIcEEEEfLNS1_14WireFormatLite9FieldTypeE9ELSE_2EED2Ev to i8*), i8* bitcast (void (%"class.google::protobuf::internal::MapEntryImpl.26"*)* @_ZN6google8protobuf8internal12MapEntryImplIN13assist_ranker60GenericLogisticRegressionModel_FullnameWeightsEntry_DoNotUseENS0_11MessageLiteENSt3__112basic_stringIcNS6_11char_traitsIcEENS6_9allocatorIcEEEEfLNS1_14WireFormatLite9FieldTypeE9ELSE_2EED0Ev to i8*), i8* bitcast (void (%"class.std::__1::basic_string"*, %"class.google::protobuf::internal::MapEntryImpl.26"*)* @_ZNK6google8protobuf8internal12MapEntryImplIN13assist_ranker60GenericLogisticRegressionModel_FullnameWeightsEntry_DoNotUseENS0_11MessageLiteENSt3__112basic_stringIcNS6_11char_traitsIcEENS6_9allocatorIcEEEEfLNS1_14WireFormatLite9FieldTypeE9ELSE_2EE11GetTypeNameEv to i8*), i8* bitcast (%"class.google::protobuf::MessageLite"* (%"class.google::protobuf::internal::MapEntryImpl.26"*)* @_ZNK6google8protobuf8internal12MapEntryImplIN13assist_ranker60GenericLogisticRegressionModel_FullnameWeightsEntry_DoNotUseENS0_11MessageLiteENSt3__112basic_stringIcNS6_11char_traitsIcEENS6_9allocatorIcEEEEfLNS1_14WireFormatLite9FieldTypeE9ELSE_2EE3NewEv to i8*), i8* bitcast (%"class.google::protobuf::MessageLite"* (%"class.google::protobuf::internal::MapEntryImpl.26"*, %"class.google::protobuf::Arena"*)* @_ZNK6google8protobuf8internal12MapEntryImplIN13assist_ranker60GenericLogisticRegressionModel_FullnameWeightsEntry_DoNotUseENS0_11MessageLiteENSt3__112basic_stringIcNS6_11char_traitsIcEENS6_9allocatorIcEEEEfLNS1_14WireFormatLite9FieldTypeE9ELSE_2EE3NewEPNS0_5ArenaE to i8*), i8* bitcast (void (%"class.google::protobuf::internal::MapEntryImpl.26"*)* @_ZN6google8protobuf8internal12MapEntryImplIN13assist_ranker60GenericLogisticRegressionModel_FullnameWeightsEntry_DoNotUseENS0_11MessageLiteENSt3__112basic_stringIcNS6_11char_traitsIcEENS6_9allocatorIcEEEEfLNS1_14WireFormatLite9FieldTypeE9ELSE_2EE5ClearEv to i8*), i8* bitcast (i1 (%"class.google::protobuf::internal::MapEntryImpl.26"*)* @_ZNK6google8protobuf8internal12MapEntryImplIN13assist_ranker60GenericLogisticRegressionModel_FullnameWeightsEntry_DoNotUseENS0_11MessageLiteENSt3__112basic_stringIcNS6_11char_traitsIcEENS6_9allocatorIcEEEEfLNS1_14WireFormatLite9FieldTypeE9ELSE_2EE13IsInitializedEv to i8*), i8* bitcast (void (%"class.std::__1::basic_string"*, %"class.google::protobuf::MessageLite"*)* @_ZNK6google8protobuf11MessageLite25InitializationErrorStringEv to i8*), i8* bitcast (void (%"class.google::protobuf::internal::MapEntryImpl.26"*, %"class.google::protobuf::MessageLite"*)* @_ZN6google8protobuf8internal12MapEntryImplIN13assist_ranker60GenericLogisticRegressionModel_FullnameWeightsEntry_DoNotUseENS0_11MessageLiteENSt3__112basic_stringIcNS6_11char_traitsIcEENS6_9allocatorIcEEEEfLNS1_14WireFormatLite9FieldTypeE9ELSE_2EE21CheckTypeAndMergeFromERKS5_ to i8*), i8* bitcast (i64 (%"class.google::protobuf::internal::MapEntryImpl.26"*)* @_ZNK6google8protobuf8internal12MapEntryImplIN13assist_ranker60GenericLogisticRegressionModel_FullnameWeightsEntry_DoNotUseENS0_11MessageLiteENSt3__112basic_stringIcNS6_11char_traitsIcEENS6_9allocatorIcEEEEfLNS1_14WireFormatLite9FieldTypeE9ELSE_2EE12ByteSizeLongEv to i8*), i8* bitcast (i32 (%"class.google::protobuf::internal::MapEntryImpl.26"*)* @_ZNK6google8protobuf8internal12MapEntryImplIN13assist_ranker60GenericLogisticRegressionModel_FullnameWeightsEntry_DoNotUseENS0_11MessageLiteENSt3__112basic_stringIcNS6_11char_traitsIcEENS6_9allocatorIcEEEEfLNS1_14WireFormatLite9FieldTypeE9ELSE_2EE13GetCachedSizeEv to i8*), i8* bitcast (i8* (%"class.google::protobuf::internal::MapEntryImpl.26"*, i8*, %"class.google::protobuf::internal::ParseContext"*)* @_ZN6google8protobuf8internal12MapEntryImplIN13assist_ranker60GenericLogisticRegressionModel_FullnameWeightsEntry_DoNotUseENS0_11MessageLiteENSt3__112basic_stringIcNS6_11char_traitsIcEENS6_9allocatorIcEEEEfLNS1_14WireFormatLite9FieldTypeE9ELSE_2EE14_InternalParseEPKcPNS1_12ParseContextE to i8*), i8* bitcast (i8* (%"class.google::protobuf::internal::MapEntryImpl.26"*, i8*, %"class.google::protobuf::io::EpsCopyOutputStream"*)* @_ZNK6google8protobuf8internal12MapEntryImplIN13assist_ranker60GenericLogisticRegressionModel_FullnameWeightsEntry_DoNotUseENS0_11MessageLiteENSt3__112basic_stringIcNS6_11char_traitsIcEENS6_9allocatorIcEEEEfLNS1_14WireFormatLite9FieldTypeE9ELSE_2EE18_InternalSerializeEPhPNS0_2io19EpsCopyOutputStreamE to i8*), i8* bitcast (i8* (%"class.google::protobuf::MessageLite"*)* @_ZNK6google8protobuf11MessageLite16InternalGetTableEv to i8*), i8* bitcast (%"class.std::__1::basic_string"* (%"class.google::protobuf::internal::MapEntryImpl.26"*)* @_ZNK6google8protobuf8internal12MapEntryImplIN13assist_ranker60GenericLogisticRegressionModel_FullnameWeightsEntry_DoNotUseENS0_11MessageLiteENSt3__112basic_stringIcNS6_11char_traitsIcEENS6_9allocatorIcEEEEfLNS1_14WireFormatLite9FieldTypeE9ELSE_2EE3keyEv to i8*), i8* bitcast (float* (%"class.google::protobuf::internal::MapEntryImpl.26"*)* @_ZNK6google8protobuf8internal12MapEntryImplIN13assist_ranker60GenericLogisticRegressionModel_FullnameWeightsEntry_DoNotUseENS0_11MessageLiteENSt3__112basic_stringIcNS6_11char_traitsIcEENS6_9allocatorIcEEEEfLNS1_14WireFormatLite9FieldTypeE9ELSE_2EE5valueEv to i8*)] }, comdat, align 8

@_ZN13assist_ranker35SparseWeights_WeightsEntry_DoNotUseC1Ev = hidden unnamed_addr alias void (%"class.assist_ranker::SparseWeights_WeightsEntry_DoNotUse"*), void (%"class.assist_ranker::SparseWeights_WeightsEntry_DoNotUse"*)* @_ZN13assist_ranker35SparseWeights_WeightsEntry_DoNotUseC2Ev
@_ZN13assist_ranker35SparseWeights_WeightsEntry_DoNotUseC1EPN6google8protobuf5ArenaE = hidden unnamed_addr alias void (%"class.assist_ranker::SparseWeights_WeightsEntry_DoNotUse"*, %"class.google::protobuf::Arena"*), void (%"class.assist_ranker::SparseWeights_WeightsEntry_DoNotUse"*, %"class.google::protobuf::Arena"*)* @_ZN13assist_ranker35SparseWeights_WeightsEntry_DoNotUseC2EPN6google8protobuf5ArenaE
@_ZN13assist_ranker13SparseWeightsC1EPN6google8protobuf5ArenaE = hidden unnamed_addr alias void (%"class.assist_ranker::SparseWeights"*, %"class.google::protobuf::Arena"*), void (%"class.assist_ranker::SparseWeights"*, %"class.google::protobuf::Arena"*)* @_ZN13assist_ranker13SparseWeightsC2EPN6google8protobuf5ArenaE
@_ZN13assist_ranker13SparseWeightsC1ERKS0_ = hidden unnamed_addr alias void (%"class.assist_ranker::SparseWeights"*, %"class.assist_ranker::SparseWeights"*), void (%"class.assist_ranker::SparseWeights"*, %"class.assist_ranker::SparseWeights"*)* @_ZN13assist_ranker13SparseWeightsC2ERKS0_
@_ZN13assist_ranker13SparseWeightsD1Ev = hidden unnamed_addr alias void (%"class.assist_ranker::SparseWeights"*), void (%"class.assist_ranker::SparseWeights"*)* @_ZN13assist_ranker13SparseWeightsD2Ev
@_ZN13assist_ranker17BucketizedWeightsC1EPN6google8protobuf5ArenaE = hidden unnamed_addr alias void (%"class.assist_ranker::BucketizedWeights"*, %"class.google::protobuf::Arena"*), void (%"class.assist_ranker::BucketizedWeights"*, %"class.google::protobuf::Arena"*)* @_ZN13assist_ranker17BucketizedWeightsC2EPN6google8protobuf5ArenaE
@_ZN13assist_ranker17BucketizedWeightsC1ERKS0_ = hidden unnamed_addr alias void (%"class.assist_ranker::BucketizedWeights"*, %"class.assist_ranker::BucketizedWeights"*), void (%"class.assist_ranker::BucketizedWeights"*, %"class.assist_ranker::BucketizedWeights"*)* @_ZN13assist_ranker17BucketizedWeightsC2ERKS0_
@_ZN13assist_ranker17BucketizedWeightsD1Ev = hidden unnamed_addr alias void (%"class.assist_ranker::BucketizedWeights"*), void (%"class.assist_ranker::BucketizedWeights"*)* @_ZN13assist_ranker17BucketizedWeightsD2Ev
@_ZN13assist_ranker13FeatureWeightC1EPN6google8protobuf5ArenaE = hidden unnamed_addr alias void (%"class.assist_ranker::FeatureWeight"*, %"class.google::protobuf::Arena"*), void (%"class.assist_ranker::FeatureWeight"*, %"class.google::protobuf::Arena"*)* @_ZN13assist_ranker13FeatureWeightC2EPN6google8protobuf5ArenaE
@_ZN13assist_ranker13FeatureWeightC1ERKS0_ = hidden unnamed_addr alias void (%"class.assist_ranker::FeatureWeight"*, %"class.assist_ranker::FeatureWeight"*), void (%"class.assist_ranker::FeatureWeight"*, %"class.assist_ranker::FeatureWeight"*)* @_ZN13assist_ranker13FeatureWeightC2ERKS0_
@_ZN13assist_ranker13FeatureWeightD1Ev = hidden unnamed_addr alias void (%"class.assist_ranker::FeatureWeight"*), void (%"class.assist_ranker::FeatureWeight"*)* @_ZN13assist_ranker13FeatureWeightD2Ev
@_ZN13assist_ranker52GenericLogisticRegressionModel_WeightsEntry_DoNotUseC1Ev = hidden unnamed_addr alias void (%"class.assist_ranker::GenericLogisticRegressionModel_WeightsEntry_DoNotUse"*), void (%"class.assist_ranker::GenericLogisticRegressionModel_WeightsEntry_DoNotUse"*)* @_ZN13assist_ranker52GenericLogisticRegressionModel_WeightsEntry_DoNotUseC2Ev
@_ZN13assist_ranker52GenericLogisticRegressionModel_WeightsEntry_DoNotUseC1EPN6google8protobuf5ArenaE = hidden unnamed_addr alias void (%"class.assist_ranker::GenericLogisticRegressionModel_WeightsEntry_DoNotUse"*, %"class.google::protobuf::Arena"*), void (%"class.assist_ranker::GenericLogisticRegressionModel_WeightsEntry_DoNotUse"*, %"class.google::protobuf::Arena"*)* @_ZN13assist_ranker52GenericLogisticRegressionModel_WeightsEntry_DoNotUseC2EPN6google8protobuf5ArenaE
@_ZN13assist_ranker60GenericLogisticRegressionModel_FullnameWeightsEntry_DoNotUseC1Ev = hidden unnamed_addr alias void (%"class.assist_ranker::GenericLogisticRegressionModel_FullnameWeightsEntry_DoNotUse"*), void (%"class.assist_ranker::GenericLogisticRegressionModel_FullnameWeightsEntry_DoNotUse"*)* @_ZN13assist_ranker60GenericLogisticRegressionModel_FullnameWeightsEntry_DoNotUseC2Ev
@_ZN13assist_ranker60GenericLogisticRegressionModel_FullnameWeightsEntry_DoNotUseC1EPN6google8protobuf5ArenaE = hidden unnamed_addr alias void (%"class.assist_ranker::GenericLogisticRegressionModel_FullnameWeightsEntry_DoNotUse"*, %"class.google::protobuf::Arena"*), void (%"class.assist_ranker::GenericLogisticRegressionModel_FullnameWeightsEntry_DoNotUse"*, %"class.google::protobuf::Arena"*)* @_ZN13assist_ranker60GenericLogisticRegressionModel_FullnameWeightsEntry_DoNotUseC2EPN6google8protobuf5ArenaE
@_ZN13assist_ranker30GenericLogisticRegressionModelC1EPN6google8protobuf5ArenaE = hidden unnamed_addr alias void (%"class.assist_ranker::GenericLogisticRegressionModel"*, %"class.google::protobuf::Arena"*), void (%"class.assist_ranker::GenericLogisticRegressionModel"*, %"class.google::protobuf::Arena"*)* @_ZN13assist_ranker30GenericLogisticRegressionModelC2EPN6google8protobuf5ArenaE
@_ZN13assist_ranker30GenericLogisticRegressionModelC1ERKS0_ = hidden unnamed_addr alias void (%"class.assist_ranker::GenericLogisticRegressionModel"*, %"class.assist_ranker::GenericLogisticRegressionModel"*), void (%"class.assist_ranker::GenericLogisticRegressionModel"*, %"class.assist_ranker::GenericLogisticRegressionModel"*)* @_ZN13assist_ranker30GenericLogisticRegressionModelC2ERKS0_
@_ZN13assist_ranker30GenericLogisticRegressionModelD1Ev = hidden unnamed_addr alias void (%"class.assist_ranker::GenericLogisticRegressionModel"*), void (%"class.assist_ranker::GenericLogisticRegressionModel"*)* @_ZN13assist_ranker30GenericLogisticRegressionModelD2Ev

; Function Attrs: nounwind ssp uwtable
define internal void @_ZL86InitDefaultsscc_info_BucketizedWeights_generic_5flogistic_5fregression_5fmodel_2eprotov() #0 {
  tail call void @_ZN6google8protobuf8internal13VerifyVersionEiiPKc(i32 3013000, i32 3013000, i8* getelementptr inbounds ([75 x i8], [75 x i8]* @.str, i64 0, i64 0)) #16
  store %"class.google::protobuf::Arena"* null, %"class.google::protobuf::Arena"** bitcast (i8* getelementptr inbounds (%"class.assist_ranker::BucketizedWeightsDefaultTypeInternal", %"class.assist_ranker::BucketizedWeightsDefaultTypeInternal"* @_ZN13assist_ranker36_BucketizedWeights_default_instance_E, i64 0, i32 0, i32 0, i32 1, i64 0) to %"class.google::protobuf::Arena"**), align 8
  store i32 (...)** bitcast (i8** getelementptr inbounds ({ [16 x i8*] }, { [16 x i8*] }* @_ZTVN13assist_ranker17BucketizedWeightsE, i64 0, inrange i32 0, i64 2) to i32 (...)**), i32 (...)*** bitcast (%"class.assist_ranker::BucketizedWeightsDefaultTypeInternal"* @_ZN13assist_ranker36_BucketizedWeights_default_instance_E to i32 (...)***), align 8
  store float 0.000000e+00, float* bitcast (i8* getelementptr inbounds (%"class.assist_ranker::BucketizedWeightsDefaultTypeInternal", %"class.assist_ranker::BucketizedWeightsDefaultTypeInternal"* @_ZN13assist_ranker36_BucketizedWeights_default_instance_E, i64 0, i32 0, i32 0, i32 1, i64 60) to float*), align 4
  tail call void @llvm.memset.p0i8.i64(i8* align 8 getelementptr inbounds (%"class.assist_ranker::BucketizedWeightsDefaultTypeInternal", %"class.assist_ranker::BucketizedWeightsDefaultTypeInternal"* @_ZN13assist_ranker36_BucketizedWeights_default_instance_E, i64 0, i32 0, i32 0, i32 1, i64 8), i8 0, i64 24, i1 false) #16
  tail call void @llvm.memset.p0i8.i64(i8* align 8 getelementptr inbounds (%"class.assist_ranker::BucketizedWeightsDefaultTypeInternal", %"class.assist_ranker::BucketizedWeightsDefaultTypeInternal"* @_ZN13assist_ranker36_BucketizedWeights_default_instance_E, i64 0, i32 0, i32 0, i32 1, i64 40), i8 0, i64 16, i1 false) #16
  tail call void @_ZN6google8protobuf8internal13OnShutdownRunEPFvPKvES3_(void (i8*)* nonnull @_ZN6google8protobuf8internal14DestroyMessageEPKv, i8* bitcast (%"class.assist_ranker::BucketizedWeightsDefaultTypeInternal"* @_ZN13assist_ranker36_BucketizedWeights_default_instance_E to i8*)) #16
  ret void
}

; Function Attrs: nounwind ssp uwtable
define internal void @_ZL82InitDefaultsscc_info_FeatureWeight_generic_5flogistic_5fregression_5fmodel_2eprotov() #0 {
  tail call void @_ZN6google8protobuf8internal13VerifyVersionEiiPKc(i32 3013000, i32 3013000, i8* getelementptr inbounds ([75 x i8], [75 x i8]* @.str, i64 0, i64 0)) #16
  store %"class.google::protobuf::Arena"* null, %"class.google::protobuf::Arena"** bitcast (i8* getelementptr inbounds (%"class.assist_ranker::FeatureWeightDefaultTypeInternal", %"class.assist_ranker::FeatureWeightDefaultTypeInternal"* @_ZN13assist_ranker32_FeatureWeight_default_instance_E, i64 0, i32 0, i32 0, i32 1, i64 0) to %"class.google::protobuf::Arena"**), align 8
  store i32 (...)** bitcast (i8** getelementptr inbounds ({ [16 x i8*] }, { [16 x i8*] }* @_ZTVN13assist_ranker13FeatureWeightE, i64 0, inrange i32 0, i64 2) to i32 (...)**), i32 (...)*** bitcast (%"class.assist_ranker::FeatureWeightDefaultTypeInternal"* @_ZN13assist_ranker32_FeatureWeight_default_instance_E to i32 (...)***), align 8
  store i32 0, i32* bitcast (i8* getelementptr inbounds (%"class.assist_ranker::FeatureWeightDefaultTypeInternal", %"class.assist_ranker::FeatureWeightDefaultTypeInternal"* @_ZN13assist_ranker32_FeatureWeight_default_instance_E, i64 0, i32 0, i32 0, i32 1, i64 16) to i32*), align 8
  %1 = load atomic i32, i32* getelementptr inbounds ({ { { { i32 } }, i32, i32, void ()* }, [2 x i8*] }, { { { { i32 } }, i32, i32, void ()* }, [2 x i8*] }* @scc_info_FeatureWeight_generic_5flogistic_5fregression_5fmodel_2eproto, i64 0, i32 0, i32 0, i32 0, i32 0) acquire, align 8
  %2 = icmp eq i32 %1, 0
  br i1 %2, label %4, label %3, !prof !2

3:                                                ; preds = %0
  tail call void @_ZN6google8protobuf8internal11InitSCCImplEPNS1_11SCCInfoBaseE(%"struct.google::protobuf::internal::SCCInfoBase"* bitcast ({ { { { i32 } }, i32, i32, void ()* }, [2 x i8*] }* @scc_info_FeatureWeight_generic_5flogistic_5fregression_5fmodel_2eproto to %"struct.google::protobuf::internal::SCCInfoBase"*)) #16
  br label %4

4:                                                ; preds = %0, %3
  store i32 0, i32* bitcast (i8* getelementptr inbounds (%"class.assist_ranker::FeatureWeightDefaultTypeInternal", %"class.assist_ranker::FeatureWeightDefaultTypeInternal"* @_ZN13assist_ranker32_FeatureWeight_default_instance_E, i64 0, i32 0, i32 0, i32 1, i64 20) to i32*), align 4
  tail call void @_ZN6google8protobuf8internal13OnShutdownRunEPFvPKvES3_(void (i8*)* nonnull @_ZN6google8protobuf8internal14DestroyMessageEPKv, i8* bitcast (%"class.assist_ranker::FeatureWeightDefaultTypeInternal"* @_ZN13assist_ranker32_FeatureWeight_default_instance_E to i8*)) #16
  ret void
}

; Function Attrs: nounwind ssp uwtable
define internal void @_ZL99InitDefaultsscc_info_GenericLogisticRegressionModel_generic_5flogistic_5fregression_5fmodel_2eprotov() #0 {
  tail call void @_ZN6google8protobuf8internal13VerifyVersionEiiPKc(i32 3013000, i32 3013000, i8* getelementptr inbounds ([75 x i8], [75 x i8]* @.str, i64 0, i64 0)) #16
  store %"class.google::protobuf::Arena"* null, %"class.google::protobuf::Arena"** bitcast (i8* getelementptr inbounds (%"class.assist_ranker::GenericLogisticRegressionModelDefaultTypeInternal", %"class.assist_ranker::GenericLogisticRegressionModelDefaultTypeInternal"* @_ZN13assist_ranker49_GenericLogisticRegressionModel_default_instance_E, i64 0, i32 0, i32 0, i32 1, i64 0) to %"class.google::protobuf::Arena"**), align 8
  store i32 (...)** bitcast (i8** getelementptr inbounds ({ [16 x i8*] }, { [16 x i8*] }* @_ZTVN13assist_ranker30GenericLogisticRegressionModelE, i64 0, inrange i32 0, i64 2) to i32 (...)**), i32 (...)*** bitcast (%"class.assist_ranker::GenericLogisticRegressionModelDefaultTypeInternal"* @_ZN13assist_ranker49_GenericLogisticRegressionModel_default_instance_E to i32 (...)***), align 8
  tail call void @llvm.memset.p0i8.i64(i8* align 8 getelementptr inbounds (%"class.assist_ranker::GenericLogisticRegressionModelDefaultTypeInternal", %"class.assist_ranker::GenericLogisticRegressionModelDefaultTypeInternal"* @_ZN13assist_ranker49_GenericLogisticRegressionModel_default_instance_E, i64 0, i32 0, i32 0, i32 1, i64 8), i8 0, i64 16, i1 false) #16
  store i64 1, i64* bitcast (i8* getelementptr inbounds (%"class.assist_ranker::GenericLogisticRegressionModelDefaultTypeInternal", %"class.assist_ranker::GenericLogisticRegressionModelDefaultTypeInternal"* @_ZN13assist_ranker49_GenericLogisticRegressionModel_default_instance_E, i64 0, i32 0, i32 0, i32 1, i64 24) to i64*), align 8
  %1 = tail call { i32, i32 } asm sideeffect "rdtsc", "={ax},={dx},~{dirflag},~{fpsr},~{flags}"() #16, !srcloc !3
  %2 = extractvalue { i32, i32 } %1, 0
  %3 = extractvalue { i32, i32 } %1, 1
  %4 = zext i32 %3 to i64
  %5 = shl nuw i64 %4, 32
  %6 = zext i32 %2 to i64
  %7 = or i64 %5, %6
  %8 = add i64 %7, lshr (i64 ptrtoint (i8* getelementptr inbounds (%"class.assist_ranker::GenericLogisticRegressionModelDefaultTypeInternal", %"class.assist_ranker::GenericLogisticRegressionModelDefaultTypeInternal"* @_ZN13assist_ranker49_GenericLogisticRegressionModel_default_instance_E, i64 0, i32 0, i32 0, i32 1, i64 16) to i64), i64 12)
  store i64 %8, i64* bitcast (i8* getelementptr inbounds (%"class.assist_ranker::GenericLogisticRegressionModelDefaultTypeInternal", %"class.assist_ranker::GenericLogisticRegressionModelDefaultTypeInternal"* @_ZN13assist_ranker49_GenericLogisticRegressionModel_default_instance_E, i64 0, i32 0, i32 0, i32 1, i64 32) to i64*), align 8
  %9 = load i64, i64* bitcast (i8* getelementptr inbounds (%"class.assist_ranker::GenericLogisticRegressionModelDefaultTypeInternal", %"class.assist_ranker::GenericLogisticRegressionModelDefaultTypeInternal"* @_ZN13assist_ranker49_GenericLogisticRegressionModel_default_instance_E, i64 0, i32 0, i32 0, i32 1, i64 24) to i64*), align 8
  store i64 %9, i64* bitcast (i8* getelementptr inbounds (%"class.assist_ranker::GenericLogisticRegressionModelDefaultTypeInternal", %"class.assist_ranker::GenericLogisticRegressionModelDefaultTypeInternal"* @_ZN13assist_ranker49_GenericLogisticRegressionModel_default_instance_E, i64 0, i32 0, i32 0, i32 1, i64 40) to i64*), align 8
  store i8** getelementptr inbounds ([1 x i8*], [1 x i8*]* @_ZN6google8protobuf8internal17kGlobalEmptyTableE, i64 0, i64 0), i8*** bitcast (i8* getelementptr inbounds (%"class.assist_ranker::GenericLogisticRegressionModelDefaultTypeInternal", %"class.assist_ranker::GenericLogisticRegressionModelDefaultTypeInternal"* @_ZN13assist_ranker49_GenericLogisticRegressionModel_default_instance_E, i64 0, i32 0, i32 0, i32 1, i64 48) to i8***), align 8
  tail call void @llvm.memset.p0i8.i64(i8* align 8 getelementptr inbounds (%"class.assist_ranker::GenericLogisticRegressionModelDefaultTypeInternal", %"class.assist_ranker::GenericLogisticRegressionModelDefaultTypeInternal"* @_ZN13assist_ranker49_GenericLogisticRegressionModel_default_instance_E, i64 0, i32 0, i32 0, i32 1, i64 56), i8 0, i64 16, i1 false) #16
  store i64 1, i64* bitcast (i8* getelementptr inbounds (%"class.assist_ranker::GenericLogisticRegressionModelDefaultTypeInternal", %"class.assist_ranker::GenericLogisticRegressionModelDefaultTypeInternal"* @_ZN13assist_ranker49_GenericLogisticRegressionModel_default_instance_E, i64 0, i32 0, i32 0, i32 1, i64 72) to i64*), align 8
  %10 = tail call { i32, i32 } asm sideeffect "rdtsc", "={ax},={dx},~{dirflag},~{fpsr},~{flags}"() #16, !srcloc !3
  %11 = extractvalue { i32, i32 } %10, 0
  %12 = extractvalue { i32, i32 } %10, 1
  %13 = zext i32 %12 to i64
  %14 = shl nuw i64 %13, 32
  %15 = zext i32 %11 to i64
  %16 = or i64 %14, %15
  %17 = add i64 %16, lshr (i64 ptrtoint (i8* getelementptr inbounds (%"class.assist_ranker::GenericLogisticRegressionModelDefaultTypeInternal", %"class.assist_ranker::GenericLogisticRegressionModelDefaultTypeInternal"* @_ZN13assist_ranker49_GenericLogisticRegressionModel_default_instance_E, i64 0, i32 0, i32 0, i32 1, i64 64) to i64), i64 12)
  store i64 %17, i64* bitcast (i8* getelementptr inbounds (%"class.assist_ranker::GenericLogisticRegressionModelDefaultTypeInternal", %"class.assist_ranker::GenericLogisticRegressionModelDefaultTypeInternal"* @_ZN13assist_ranker49_GenericLogisticRegressionModel_default_instance_E, i64 0, i32 0, i32 0, i32 1, i64 80) to i64*), align 8
  %18 = load i64, i64* bitcast (i8* getelementptr inbounds (%"class.assist_ranker::GenericLogisticRegressionModelDefaultTypeInternal", %"class.assist_ranker::GenericLogisticRegressionModelDefaultTypeInternal"* @_ZN13assist_ranker49_GenericLogisticRegressionModel_default_instance_E, i64 0, i32 0, i32 0, i32 1, i64 72) to i64*), align 8
  store i64 %18, i64* bitcast (i8* getelementptr inbounds (%"class.assist_ranker::GenericLogisticRegressionModelDefaultTypeInternal", %"class.assist_ranker::GenericLogisticRegressionModelDefaultTypeInternal"* @_ZN13assist_ranker49_GenericLogisticRegressionModel_default_instance_E, i64 0, i32 0, i32 0, i32 1, i64 88) to i64*), align 8
  store i8** getelementptr inbounds ([1 x i8*], [1 x i8*]* @_ZN6google8protobuf8internal17kGlobalEmptyTableE, i64 0, i64 0), i8*** bitcast (i8* getelementptr inbounds (%"class.assist_ranker::GenericLogisticRegressionModelDefaultTypeInternal", %"class.assist_ranker::GenericLogisticRegressionModelDefaultTypeInternal"* @_ZN13assist_ranker49_GenericLogisticRegressionModel_default_instance_E, i64 0, i32 0, i32 0, i32 1, i64 96) to i8***), align 8
  store %"class.google::protobuf::Arena"* null, %"class.google::protobuf::Arena"** bitcast (i8* getelementptr inbounds (%"class.assist_ranker::GenericLogisticRegressionModelDefaultTypeInternal", %"class.assist_ranker::GenericLogisticRegressionModelDefaultTypeInternal"* @_ZN13assist_ranker49_GenericLogisticRegressionModel_default_instance_E, i64 0, i32 0, i32 0, i32 1, i64 104) to %"class.google::protobuf::Arena"**), align 8
  %19 = load atomic i32, i32* getelementptr inbounds ({ { { { i32 } }, i32, i32, void ()* }, [3 x i8*] }, { { { { i32 } }, i32, i32, void ()* }, [3 x i8*] }* @scc_info_GenericLogisticRegressionModel_generic_5flogistic_5fregression_5fmodel_2eproto, i64 0, i32 0, i32 0, i32 0, i32 0) acquire, align 8
  %20 = icmp eq i32 %19, 0
  br i1 %20, label %22, label %21, !prof !2

21:                                               ; preds = %0
  tail call void @_ZN6google8protobuf8internal11InitSCCImplEPNS1_11SCCInfoBaseE(%"struct.google::protobuf::internal::SCCInfoBase"* bitcast ({ { { { i32 } }, i32, i32, void ()* }, [3 x i8*] }* @scc_info_GenericLogisticRegressionModel_generic_5flogistic_5fregression_5fmodel_2eproto to %"struct.google::protobuf::internal::SCCInfoBase"*)) #16
  br label %22

22:                                               ; preds = %0, %21
  tail call void @llvm.memset.p0i8.i64(i8* align 8 getelementptr inbounds (%"class.assist_ranker::GenericLogisticRegressionModelDefaultTypeInternal", %"class.assist_ranker::GenericLogisticRegressionModelDefaultTypeInternal"* @_ZN13assist_ranker49_GenericLogisticRegressionModel_default_instance_E, i64 0, i32 0, i32 0, i32 1, i64 112), i8 0, i64 17, i1 false) #16
  tail call void @_ZN6google8protobuf8internal13OnShutdownRunEPFvPKvES3_(void (i8*)* nonnull @_ZN6google8protobuf8internal14DestroyMessageEPKv, i8* bitcast (%"class.assist_ranker::GenericLogisticRegressionModelDefaultTypeInternal"* @_ZN13assist_ranker49_GenericLogisticRegressionModel_default_instance_E to i8*)) #16
  ret void
}

; Function Attrs: nounwind ssp uwtable
define internal void @_ZL129InitDefaultsscc_info_GenericLogisticRegressionModel_FullnameWeightsEntry_DoNotUse_generic_5flogistic_5fregression_5fmodel_2eprotov() #0 {
  tail call void @_ZN6google8protobuf8internal13VerifyVersionEiiPKc(i32 3013000, i32 3013000, i8* getelementptr inbounds ([75 x i8], [75 x i8]* @.str, i64 0, i64 0)) #16
  store i8* null, i8** bitcast (i8* getelementptr inbounds (%"class.assist_ranker::GenericLogisticRegressionModel_FullnameWeightsEntry_DoNotUseDefaultTypeInternal", %"class.assist_ranker::GenericLogisticRegressionModel_FullnameWeightsEntry_DoNotUseDefaultTypeInternal"* @_ZN13assist_ranker79_GenericLogisticRegressionModel_FullnameWeightsEntry_DoNotUse_default_instance_E, i64 0, i32 0, i32 0, i32 1, i64 0) to i8**), align 8
  store %"class.std::__1::basic_string"* bitcast (%"class.google::protobuf::internal::ExplicitlyConstructed.54"* @_ZN6google8protobuf8internal26fixed_address_empty_stringE to %"class.std::__1::basic_string"*), %"class.std::__1::basic_string"** bitcast (i8* getelementptr inbounds (%"class.assist_ranker::GenericLogisticRegressionModel_FullnameWeightsEntry_DoNotUseDefaultTypeInternal", %"class.assist_ranker::GenericLogisticRegressionModel_FullnameWeightsEntry_DoNotUseDefaultTypeInternal"* @_ZN13assist_ranker79_GenericLogisticRegressionModel_FullnameWeightsEntry_DoNotUse_default_instance_E, i64 0, i32 0, i32 0, i32 1, i64 8) to %"class.std::__1::basic_string"**), align 8
  store float 0.000000e+00, float* bitcast (i8* getelementptr inbounds (%"class.assist_ranker::GenericLogisticRegressionModel_FullnameWeightsEntry_DoNotUseDefaultTypeInternal", %"class.assist_ranker::GenericLogisticRegressionModel_FullnameWeightsEntry_DoNotUseDefaultTypeInternal"* @_ZN13assist_ranker79_GenericLogisticRegressionModel_FullnameWeightsEntry_DoNotUse_default_instance_E, i64 0, i32 0, i32 0, i32 1, i64 16) to float*), align 8
  store i32 0, i32* bitcast (i8* getelementptr inbounds (%"class.assist_ranker::GenericLogisticRegressionModel_FullnameWeightsEntry_DoNotUseDefaultTypeInternal", %"class.assist_ranker::GenericLogisticRegressionModel_FullnameWeightsEntry_DoNotUseDefaultTypeInternal"* @_ZN13assist_ranker79_GenericLogisticRegressionModel_FullnameWeightsEntry_DoNotUse_default_instance_E, i64 0, i32 0, i32 0, i32 1, i64 20) to i32*), align 4
  store i32 (...)** bitcast (i8** getelementptr inbounds ({ [18 x i8*] }, { [18 x i8*] }* @_ZTVN13assist_ranker60GenericLogisticRegressionModel_FullnameWeightsEntry_DoNotUseE, i64 0, inrange i32 0, i64 2) to i32 (...)**), i32 (...)*** bitcast (%"class.assist_ranker::GenericLogisticRegressionModel_FullnameWeightsEntry_DoNotUseDefaultTypeInternal"* @_ZN13assist_ranker79_GenericLogisticRegressionModel_FullnameWeightsEntry_DoNotUse_default_instance_E to i32 (...)***), align 8
  ret void
}

; Function Attrs: nounwind ssp uwtable
define internal void @_ZL121InitDefaultsscc_info_GenericLogisticRegressionModel_WeightsEntry_DoNotUse_generic_5flogistic_5fregression_5fmodel_2eprotov() #0 {
  tail call void @_ZN6google8protobuf8internal13VerifyVersionEiiPKc(i32 3013000, i32 3013000, i8* getelementptr inbounds ([75 x i8], [75 x i8]* @.str, i64 0, i64 0)) #16
  store i8* null, i8** bitcast (i8* getelementptr inbounds (%"class.assist_ranker::GenericLogisticRegressionModel_WeightsEntry_DoNotUseDefaultTypeInternal", %"class.assist_ranker::GenericLogisticRegressionModel_WeightsEntry_DoNotUseDefaultTypeInternal"* @_ZN13assist_ranker71_GenericLogisticRegressionModel_WeightsEntry_DoNotUse_default_instance_E, i64 0, i32 0, i32 0, i32 1, i64 0) to i8**), align 8
  store %"class.std::__1::basic_string"* bitcast (%"class.google::protobuf::internal::ExplicitlyConstructed.54"* @_ZN6google8protobuf8internal26fixed_address_empty_stringE to %"class.std::__1::basic_string"*), %"class.std::__1::basic_string"** bitcast (i8* getelementptr inbounds (%"class.assist_ranker::GenericLogisticRegressionModel_WeightsEntry_DoNotUseDefaultTypeInternal", %"class.assist_ranker::GenericLogisticRegressionModel_WeightsEntry_DoNotUseDefaultTypeInternal"* @_ZN13assist_ranker71_GenericLogisticRegressionModel_WeightsEntry_DoNotUse_default_instance_E, i64 0, i32 0, i32 0, i32 1, i64 8) to %"class.std::__1::basic_string"**), align 8
  store %"class.assist_ranker::FeatureWeight"* null, %"class.assist_ranker::FeatureWeight"** bitcast (i8* getelementptr inbounds (%"class.assist_ranker::GenericLogisticRegressionModel_WeightsEntry_DoNotUseDefaultTypeInternal", %"class.assist_ranker::GenericLogisticRegressionModel_WeightsEntry_DoNotUseDefaultTypeInternal"* @_ZN13assist_ranker71_GenericLogisticRegressionModel_WeightsEntry_DoNotUse_default_instance_E, i64 0, i32 0, i32 0, i32 1, i64 16) to %"class.assist_ranker::FeatureWeight"**), align 8
  store i32 0, i32* bitcast (i8* getelementptr inbounds (%"class.assist_ranker::GenericLogisticRegressionModel_WeightsEntry_DoNotUseDefaultTypeInternal", %"class.assist_ranker::GenericLogisticRegressionModel_WeightsEntry_DoNotUseDefaultTypeInternal"* @_ZN13assist_ranker71_GenericLogisticRegressionModel_WeightsEntry_DoNotUse_default_instance_E, i64 0, i32 0, i32 0, i32 1, i64 24) to i32*), align 8
  store i32 (...)** bitcast (i8** getelementptr inbounds ({ [18 x i8*] }, { [18 x i8*] }* @_ZTVN13assist_ranker52GenericLogisticRegressionModel_WeightsEntry_DoNotUseE, i64 0, inrange i32 0, i64 2) to i32 (...)**), i32 (...)*** bitcast (%"class.assist_ranker::GenericLogisticRegressionModel_WeightsEntry_DoNotUseDefaultTypeInternal"* @_ZN13assist_ranker71_GenericLogisticRegressionModel_WeightsEntry_DoNotUse_default_instance_E to i32 (...)***), align 8
  ret void
}

; Function Attrs: nounwind ssp uwtable
define internal void @_ZL82InitDefaultsscc_info_SparseWeights_generic_5flogistic_5fregression_5fmodel_2eprotov() #0 {
  tail call void @_ZN6google8protobuf8internal13VerifyVersionEiiPKc(i32 3013000, i32 3013000, i8* getelementptr inbounds ([75 x i8], [75 x i8]* @.str, i64 0, i64 0)) #16
  store %"class.google::protobuf::Arena"* null, %"class.google::protobuf::Arena"** bitcast (i8* getelementptr inbounds (%"class.assist_ranker::SparseWeightsDefaultTypeInternal", %"class.assist_ranker::SparseWeightsDefaultTypeInternal"* @_ZN13assist_ranker32_SparseWeights_default_instance_E, i64 0, i32 0, i32 0, i32 1, i64 0) to %"class.google::protobuf::Arena"**), align 8
  store i32 (...)** bitcast (i8** getelementptr inbounds ({ [16 x i8*] }, { [16 x i8*] }* @_ZTVN13assist_ranker13SparseWeightsE, i64 0, inrange i32 0, i64 2) to i32 (...)**), i32 (...)*** bitcast (%"class.assist_ranker::SparseWeightsDefaultTypeInternal"* @_ZN13assist_ranker32_SparseWeights_default_instance_E to i32 (...)***), align 8
  tail call void @llvm.memset.p0i8.i64(i8* align 8 getelementptr inbounds (%"class.assist_ranker::SparseWeightsDefaultTypeInternal", %"class.assist_ranker::SparseWeightsDefaultTypeInternal"* @_ZN13assist_ranker32_SparseWeights_default_instance_E, i64 0, i32 0, i32 0, i32 1, i64 8), i8 0, i64 16, i1 false) #16
  store i64 1, i64* bitcast (i8* getelementptr inbounds (%"class.assist_ranker::SparseWeightsDefaultTypeInternal", %"class.assist_ranker::SparseWeightsDefaultTypeInternal"* @_ZN13assist_ranker32_SparseWeights_default_instance_E, i64 0, i32 0, i32 0, i32 1, i64 24) to i64*), align 8
  %1 = tail call { i32, i32 } asm sideeffect "rdtsc", "={ax},={dx},~{dirflag},~{fpsr},~{flags}"() #16, !srcloc !3
  %2 = extractvalue { i32, i32 } %1, 0
  %3 = extractvalue { i32, i32 } %1, 1
  %4 = zext i32 %3 to i64
  %5 = shl nuw i64 %4, 32
  %6 = zext i32 %2 to i64
  %7 = or i64 %5, %6
  %8 = add i64 %7, lshr (i64 ptrtoint (i8* getelementptr inbounds (%"class.assist_ranker::SparseWeightsDefaultTypeInternal", %"class.assist_ranker::SparseWeightsDefaultTypeInternal"* @_ZN13assist_ranker32_SparseWeights_default_instance_E, i64 0, i32 0, i32 0, i32 1, i64 16) to i64), i64 12)
  store i64 %8, i64* bitcast (i8* getelementptr inbounds (%"class.assist_ranker::SparseWeightsDefaultTypeInternal", %"class.assist_ranker::SparseWeightsDefaultTypeInternal"* @_ZN13assist_ranker32_SparseWeights_default_instance_E, i64 0, i32 0, i32 0, i32 1, i64 32) to i64*), align 8
  %9 = load i64, i64* bitcast (i8* getelementptr inbounds (%"class.assist_ranker::SparseWeightsDefaultTypeInternal", %"class.assist_ranker::SparseWeightsDefaultTypeInternal"* @_ZN13assist_ranker32_SparseWeights_default_instance_E, i64 0, i32 0, i32 0, i32 1, i64 24) to i64*), align 8
  store i64 %9, i64* bitcast (i8* getelementptr inbounds (%"class.assist_ranker::SparseWeightsDefaultTypeInternal", %"class.assist_ranker::SparseWeightsDefaultTypeInternal"* @_ZN13assist_ranker32_SparseWeights_default_instance_E, i64 0, i32 0, i32 0, i32 1, i64 40) to i64*), align 8
  store i8** getelementptr inbounds ([1 x i8*], [1 x i8*]* @_ZN6google8protobuf8internal17kGlobalEmptyTableE, i64 0, i64 0), i8*** bitcast (i8* getelementptr inbounds (%"class.assist_ranker::SparseWeightsDefaultTypeInternal", %"class.assist_ranker::SparseWeightsDefaultTypeInternal"* @_ZN13assist_ranker32_SparseWeights_default_instance_E, i64 0, i32 0, i32 0, i32 1, i64 48) to i8***), align 8
  store %"class.google::protobuf::Arena"* null, %"class.google::protobuf::Arena"** bitcast (i8* getelementptr inbounds (%"class.assist_ranker::SparseWeightsDefaultTypeInternal", %"class.assist_ranker::SparseWeightsDefaultTypeInternal"* @_ZN13assist_ranker32_SparseWeights_default_instance_E, i64 0, i32 0, i32 0, i32 1, i64 56) to %"class.google::protobuf::Arena"**), align 8
  %10 = load atomic i32, i32* getelementptr inbounds ({ { { { i32 } }, i32, i32, void ()* }, [1 x i8*] }, { { { { i32 } }, i32, i32, void ()* }, [1 x i8*] }* @scc_info_SparseWeights_generic_5flogistic_5fregression_5fmodel_2eproto, i64 0, i32 0, i32 0, i32 0, i32 0) acquire, align 8
  %11 = icmp eq i32 %10, 0
  br i1 %11, label %13, label %12, !prof !2

12:                                               ; preds = %0
  tail call void @_ZN6google8protobuf8internal11InitSCCImplEPNS1_11SCCInfoBaseE(%"struct.google::protobuf::internal::SCCInfoBase"* bitcast ({ { { { i32 } }, i32, i32, void ()* }, [1 x i8*] }* @scc_info_SparseWeights_generic_5flogistic_5fregression_5fmodel_2eproto to %"struct.google::protobuf::internal::SCCInfoBase"*)) #16
  br label %13

13:                                               ; preds = %0, %12
  store float 0.000000e+00, float* bitcast (i8* getelementptr inbounds (%"class.assist_ranker::SparseWeightsDefaultTypeInternal", %"class.assist_ranker::SparseWeightsDefaultTypeInternal"* @_ZN13assist_ranker32_SparseWeights_default_instance_E, i64 0, i32 0, i32 0, i32 1, i64 64) to float*), align 8
  tail call void @_ZN6google8protobuf8internal13OnShutdownRunEPFvPKvES3_(void (i8*)* nonnull @_ZN6google8protobuf8internal14DestroyMessageEPKv, i8* bitcast (%"class.assist_ranker::SparseWeightsDefaultTypeInternal"* @_ZN13assist_ranker32_SparseWeights_default_instance_E to i8*)) #16
  ret void
}

; Function Attrs: nounwind ssp uwtable
define internal void @_ZL104InitDefaultsscc_info_SparseWeights_WeightsEntry_DoNotUse_generic_5flogistic_5fregression_5fmodel_2eprotov() #0 {
  tail call void @_ZN6google8protobuf8internal13VerifyVersionEiiPKc(i32 3013000, i32 3013000, i8* getelementptr inbounds ([75 x i8], [75 x i8]* @.str, i64 0, i64 0)) #16
  store i8* null, i8** bitcast (i8* getelementptr inbounds (%"class.assist_ranker::SparseWeights_WeightsEntry_DoNotUseDefaultTypeInternal", %"class.assist_ranker::SparseWeights_WeightsEntry_DoNotUseDefaultTypeInternal"* @_ZN13assist_ranker54_SparseWeights_WeightsEntry_DoNotUse_default_instance_E, i64 0, i32 0, i32 0, i32 1, i64 0) to i8**), align 8
  store %"class.std::__1::basic_string"* bitcast (%"class.google::protobuf::internal::ExplicitlyConstructed.54"* @_ZN6google8protobuf8internal26fixed_address_empty_stringE to %"class.std::__1::basic_string"*), %"class.std::__1::basic_string"** bitcast (i8* getelementptr inbounds (%"class.assist_ranker::SparseWeights_WeightsEntry_DoNotUseDefaultTypeInternal", %"class.assist_ranker::SparseWeights_WeightsEntry_DoNotUseDefaultTypeInternal"* @_ZN13assist_ranker54_SparseWeights_WeightsEntry_DoNotUse_default_instance_E, i64 0, i32 0, i32 0, i32 1, i64 8) to %"class.std::__1::basic_string"**), align 8
  store float 0.000000e+00, float* bitcast (i8* getelementptr inbounds (%"class.assist_ranker::SparseWeights_WeightsEntry_DoNotUseDefaultTypeInternal", %"class.assist_ranker::SparseWeights_WeightsEntry_DoNotUseDefaultTypeInternal"* @_ZN13assist_ranker54_SparseWeights_WeightsEntry_DoNotUse_default_instance_E, i64 0, i32 0, i32 0, i32 1, i64 16) to float*), align 8
  store i32 0, i32* bitcast (i8* getelementptr inbounds (%"class.assist_ranker::SparseWeights_WeightsEntry_DoNotUseDefaultTypeInternal", %"class.assist_ranker::SparseWeights_WeightsEntry_DoNotUseDefaultTypeInternal"* @_ZN13assist_ranker54_SparseWeights_WeightsEntry_DoNotUse_default_instance_E, i64 0, i32 0, i32 0, i32 1, i64 20) to i32*), align 4
  store i32 (...)** bitcast (i8** getelementptr inbounds ({ [18 x i8*] }, { [18 x i8*] }* @_ZTVN13assist_ranker35SparseWeights_WeightsEntry_DoNotUseE, i64 0, inrange i32 0, i64 2) to i32 (...)**), i32 (...)*** bitcast (%"class.assist_ranker::SparseWeights_WeightsEntry_DoNotUseDefaultTypeInternal"* @_ZN13assist_ranker54_SparseWeights_WeightsEntry_DoNotUse_default_instance_E to i32 (...)***), align 8
  ret void
}

; Function Attrs: nofree norecurse nounwind ssp uwtable writeonly
define hidden void @_ZN13assist_ranker35SparseWeights_WeightsEntry_DoNotUseC2Ev(%"class.assist_ranker::SparseWeights_WeightsEntry_DoNotUse"* nocapture) unnamed_addr #1 align 2 {
  %2 = getelementptr inbounds %"class.assist_ranker::SparseWeights_WeightsEntry_DoNotUse", %"class.assist_ranker::SparseWeights_WeightsEntry_DoNotUse"* %0, i64 0, i32 0, i32 0, i32 0, i32 1, i32 0
  store i8* null, i8** %2, align 8
  %3 = getelementptr inbounds %"class.assist_ranker::SparseWeights_WeightsEntry_DoNotUse", %"class.assist_ranker::SparseWeights_WeightsEntry_DoNotUse"* %0, i64 0, i32 0, i32 0, i32 1, i32 0
  store %"class.std::__1::basic_string"* bitcast (%"class.google::protobuf::internal::ExplicitlyConstructed.54"* @_ZN6google8protobuf8internal26fixed_address_empty_stringE to %"class.std::__1::basic_string"*), %"class.std::__1::basic_string"** %3, align 8
  %4 = getelementptr inbounds %"class.assist_ranker::SparseWeights_WeightsEntry_DoNotUse", %"class.assist_ranker::SparseWeights_WeightsEntry_DoNotUse"* %0, i64 0, i32 0, i32 0, i32 2
  store float 0.000000e+00, float* %4, align 4
  %5 = getelementptr inbounds %"class.assist_ranker::SparseWeights_WeightsEntry_DoNotUse", %"class.assist_ranker::SparseWeights_WeightsEntry_DoNotUse"* %0, i64 0, i32 0, i32 0, i32 3, i64 0
  store i32 0, i32* %5, align 4
  %6 = getelementptr inbounds %"class.assist_ranker::SparseWeights_WeightsEntry_DoNotUse", %"class.assist_ranker::SparseWeights_WeightsEntry_DoNotUse"* %0, i64 0, i32 0, i32 0, i32 0, i32 0
  store i32 (...)** bitcast (i8** getelementptr inbounds ({ [18 x i8*] }, { [18 x i8*] }* @_ZTVN13assist_ranker35SparseWeights_WeightsEntry_DoNotUseE, i64 0, inrange i32 0, i64 2) to i32 (...)**), i32 (...)*** %6, align 8
  ret void
}

; Function Attrs: nofree norecurse nounwind ssp uwtable writeonly
define hidden void @_ZN13assist_ranker35SparseWeights_WeightsEntry_DoNotUseC2EPN6google8protobuf5ArenaE(%"class.assist_ranker::SparseWeights_WeightsEntry_DoNotUse"* nocapture, %"class.google::protobuf::Arena"*) unnamed_addr #1 align 2 {
  %3 = getelementptr inbounds %"class.assist_ranker::SparseWeights_WeightsEntry_DoNotUse", %"class.assist_ranker::SparseWeights_WeightsEntry_DoNotUse"* %0, i64 0, i32 0, i32 0, i32 0, i32 1
  %4 = bitcast %"class.google::protobuf::internal::InternalMetadata"* %3 to %"class.google::protobuf::Arena"**
  store %"class.google::protobuf::Arena"* %1, %"class.google::protobuf::Arena"** %4, align 8
  %5 = getelementptr inbounds %"class.assist_ranker::SparseWeights_WeightsEntry_DoNotUse", %"class.assist_ranker::SparseWeights_WeightsEntry_DoNotUse"* %0, i64 0, i32 0, i32 0, i32 1, i32 0
  store %"class.std::__1::basic_string"* bitcast (%"class.google::protobuf::internal::ExplicitlyConstructed.54"* @_ZN6google8protobuf8internal26fixed_address_empty_stringE to %"class.std::__1::basic_string"*), %"class.std::__1::basic_string"** %5, align 8
  %6 = getelementptr inbounds %"class.assist_ranker::SparseWeights_WeightsEntry_DoNotUse", %"class.assist_ranker::SparseWeights_WeightsEntry_DoNotUse"* %0, i64 0, i32 0, i32 0, i32 2
  store float 0.000000e+00, float* %6, align 4
  %7 = getelementptr inbounds %"class.assist_ranker::SparseWeights_WeightsEntry_DoNotUse", %"class.assist_ranker::SparseWeights_WeightsEntry_DoNotUse"* %0, i64 0, i32 0, i32 0, i32 3, i64 0
  store i32 0, i32* %7, align 4
  %8 = getelementptr inbounds %"class.assist_ranker::SparseWeights_WeightsEntry_DoNotUse", %"class.assist_ranker::SparseWeights_WeightsEntry_DoNotUse"* %0, i64 0, i32 0, i32 0, i32 0, i32 0
  store i32 (...)** bitcast (i8** getelementptr inbounds ({ [18 x i8*] }, { [18 x i8*] }* @_ZTVN13assist_ranker35SparseWeights_WeightsEntry_DoNotUseE, i64 0, inrange i32 0, i64 2) to i32 (...)**), i32 (...)*** %8, align 8
  ret void
}

; Function Attrs: nounwind ssp uwtable
define hidden void @_ZN13assist_ranker35SparseWeights_WeightsEntry_DoNotUse9MergeFromERKS0_(%"class.assist_ranker::SparseWeights_WeightsEntry_DoNotUse"*, %"class.assist_ranker::SparseWeights_WeightsEntry_DoNotUse"* dereferenceable(32)) local_unnamed_addr #0 align 2 {
  %3 = getelementptr inbounds %"class.assist_ranker::SparseWeights_WeightsEntry_DoNotUse", %"class.assist_ranker::SparseWeights_WeightsEntry_DoNotUse"* %0, i64 0, i32 0, i32 0
  %4 = getelementptr inbounds %"class.assist_ranker::SparseWeights_WeightsEntry_DoNotUse", %"class.assist_ranker::SparseWeights_WeightsEntry_DoNotUse"* %1, i64 0, i32 0, i32 0
  tail call void @_ZN6google8protobuf8internal12MapEntryImplIN13assist_ranker35SparseWeights_WeightsEntry_DoNotUseENS0_11MessageLiteENSt3__112basic_stringIcNS6_11char_traitsIcEENS6_9allocatorIcEEEEfLNS1_14WireFormatLite9FieldTypeE9ELSE_2EE17MergeFromInternalERKSF_(%"class.google::protobuf::internal::MapEntryImpl"* %3, %"class.google::protobuf::internal::MapEntryImpl"* dereferenceable(32) %4)
  ret void
}

; Function Attrs: nounwind ssp uwtable
define linkonce_odr hidden void @_ZN6google8protobuf8internal12MapEntryImplIN13assist_ranker35SparseWeights_WeightsEntry_DoNotUseENS0_11MessageLiteENSt3__112basic_stringIcNS6_11char_traitsIcEENS6_9allocatorIcEEEEfLNS1_14WireFormatLite9FieldTypeE9ELSE_2EE17MergeFromInternalERKSF_(%"class.google::protobuf::internal::MapEntryImpl"*, %"class.google::protobuf::internal::MapEntryImpl"* dereferenceable(32)) local_unnamed_addr #0 comdat align 2 {
  %3 = getelementptr inbounds %"class.google::protobuf::internal::MapEntryImpl", %"class.google::protobuf::internal::MapEntryImpl"* %1, i64 0, i32 3, i64 0
  %4 = load i32, i32* %3, align 4
  %5 = icmp eq i32 %4, 0
  br i1 %5, label %103, label %6

6:                                                ; preds = %2
  %7 = and i32 %4, 1
  %8 = icmp eq i32 %7, 0
  br i1 %8, label %86, label %9

9:                                                ; preds = %6
  %10 = getelementptr inbounds %"class.google::protobuf::internal::MapEntryImpl", %"class.google::protobuf::internal::MapEntryImpl"* %0, i64 0, i32 1
  %11 = getelementptr inbounds %"class.google::protobuf::internal::MapEntryImpl", %"class.google::protobuf::internal::MapEntryImpl"* %0, i64 0, i32 0, i32 1
  %12 = bitcast %"class.google::protobuf::internal::InternalMetadata"* %11 to i64*
  %13 = load i64, i64* %12, align 8
  %14 = and i64 %13, 1
  %15 = icmp eq i64 %14, 0
  %16 = and i64 %13, -2
  br i1 %15, label %21, label %17, !prof !2

17:                                               ; preds = %9
  %18 = inttoptr i64 %16 to %"struct.google::protobuf::internal::InternalMetadata::ContainerBase"*
  %19 = getelementptr inbounds %"struct.google::protobuf::internal::InternalMetadata::ContainerBase", %"struct.google::protobuf::internal::InternalMetadata::ContainerBase"* %18, i64 0, i32 0
  %20 = load %"class.google::protobuf::Arena"*, %"class.google::protobuf::Arena"** %19, align 8
  br label %23

21:                                               ; preds = %9
  %22 = inttoptr i64 %16 to %"class.google::protobuf::Arena"*
  br label %23

23:                                               ; preds = %17, %21
  %24 = phi %"class.google::protobuf::Arena"* [ %20, %17 ], [ %22, %21 ]
  %25 = getelementptr inbounds %"struct.google::protobuf::internal::ArenaStringPtr", %"struct.google::protobuf::internal::ArenaStringPtr"* %10, i64 0, i32 0
  %26 = load %"class.std::__1::basic_string"*, %"class.std::__1::basic_string"** %25, align 8
  %27 = icmp eq %"class.std::__1::basic_string"* %26, bitcast (%"class.google::protobuf::internal::ExplicitlyConstructed.54"* @_ZN6google8protobuf8internal26fixed_address_empty_stringE to %"class.std::__1::basic_string"*)
  br i1 %27, label %28, label %29

28:                                               ; preds = %23
  tail call void @_ZN6google8protobuf8internal14ArenaStringPtr14CreateInstanceEPNS0_5ArenaEPKNSt3__112basic_stringIcNS5_11char_traitsIcEENS5_9allocatorIcEEEE(%"struct.google::protobuf::internal::ArenaStringPtr"* %10, %"class.google::protobuf::Arena"* %24, %"class.std::__1::basic_string"* bitcast (%"class.google::protobuf::internal::ExplicitlyConstructed.54"* @_ZN6google8protobuf8internal26fixed_address_empty_stringE to %"class.std::__1::basic_string"*)) #16
  br label %29

29:                                               ; preds = %23, %28
  %30 = bitcast %"class.google::protobuf::internal::MapEntryImpl"* %1 to %"class.std::__1::basic_string"* (%"class.google::protobuf::internal::MapEntryImpl"*)***
  %31 = load %"class.std::__1::basic_string"* (%"class.google::protobuf::internal::MapEntryImpl"*)**, %"class.std::__1::basic_string"* (%"class.google::protobuf::internal::MapEntryImpl"*)*** %30, align 8
  %32 = getelementptr inbounds %"class.std::__1::basic_string"* (%"class.google::protobuf::internal::MapEntryImpl"*)*, %"class.std::__1::basic_string"* (%"class.google::protobuf::internal::MapEntryImpl"*)** %31, i64 14
  %33 = load %"class.std::__1::basic_string"* (%"class.google::protobuf::internal::MapEntryImpl"*)*, %"class.std::__1::basic_string"* (%"class.google::protobuf::internal::MapEntryImpl"*)** %32, align 8
  %34 = tail call dereferenceable(24) %"class.std::__1::basic_string"* %33(%"class.google::protobuf::internal::MapEntryImpl"* %1) #16
  %35 = load i64, i64* %12, align 8
  %36 = and i64 %35, 1
  %37 = icmp eq i64 %36, 0
  %38 = and i64 %35, -2
  br i1 %37, label %43, label %39, !prof !2

39:                                               ; preds = %29
  %40 = inttoptr i64 %38 to %"struct.google::protobuf::internal::InternalMetadata::ContainerBase"*
  %41 = getelementptr inbounds %"struct.google::protobuf::internal::InternalMetadata::ContainerBase", %"struct.google::protobuf::internal::InternalMetadata::ContainerBase"* %40, i64 0, i32 0
  %42 = load %"class.google::protobuf::Arena"*, %"class.google::protobuf::Arena"** %41, align 8
  br label %45

43:                                               ; preds = %29
  %44 = inttoptr i64 %38 to %"class.google::protobuf::Arena"*
  br label %45

45:                                               ; preds = %39, %43
  %46 = phi %"class.google::protobuf::Arena"* [ %42, %39 ], [ %44, %43 ]
  %47 = load %"class.std::__1::basic_string"*, %"class.std::__1::basic_string"** %25, align 8
  %48 = icmp eq %"class.std::__1::basic_string"* %47, bitcast (%"class.google::protobuf::internal::ExplicitlyConstructed.54"* @_ZN6google8protobuf8internal26fixed_address_empty_stringE to %"class.std::__1::basic_string"*)
  br i1 %48, label %49, label %50

49:                                               ; preds = %45
  tail call void @_ZN6google8protobuf8internal14ArenaStringPtr14CreateInstanceEPNS0_5ArenaEPKNSt3__112basic_stringIcNS5_11char_traitsIcEENS5_9allocatorIcEEEE(%"struct.google::protobuf::internal::ArenaStringPtr"* %10, %"class.google::protobuf::Arena"* %46, %"class.std::__1::basic_string"* %34) #16
  br label %81

50:                                               ; preds = %45
  %51 = icmp eq %"class.std::__1::basic_string"* %47, %34
  br i1 %51, label %81, label %52

52:                                               ; preds = %50
  %53 = bitcast %"class.std::__1::basic_string"* %47 to %"struct.std::__1::basic_string<char, std::__1::char_traits<char>, std::__1::allocator<char> >::__short"*
  %54 = getelementptr inbounds %"struct.std::__1::basic_string<char, std::__1::char_traits<char>, std::__1::allocator<char> >::__short", %"struct.std::__1::basic_string<char, std::__1::char_traits<char>, std::__1::allocator<char> >::__short"* %53, i64 0, i32 1, i32 0
  %55 = load i8, i8* %54, align 1
  %56 = icmp slt i8 %55, 0
  %57 = bitcast %"class.std::__1::basic_string"* %34 to %"struct.std::__1::basic_string<char, std::__1::char_traits<char>, std::__1::allocator<char> >::__short"*
  %58 = getelementptr inbounds %"struct.std::__1::basic_string<char, std::__1::char_traits<char>, std::__1::allocator<char> >::__short", %"struct.std::__1::basic_string<char, std::__1::char_traits<char>, std::__1::allocator<char> >::__short"* %57, i64 0, i32 1, i32 0
  %59 = load i8, i8* %58, align 1
  %60 = icmp slt i8 %59, 0
  br i1 %56, label %71, label %61

61:                                               ; preds = %52
  br i1 %60, label %65, label %62

62:                                               ; preds = %61
  %63 = bitcast %"class.std::__1::basic_string"* %47 to i8*
  %64 = bitcast %"class.std::__1::basic_string"* %34 to i8*
  tail call void @llvm.memcpy.p0i8.p0i8.i64(i8* align 8 %63, i8* align 8 %64, i64 24, i1 false) #16
  br label %81

65:                                               ; preds = %61
  %66 = getelementptr inbounds %"class.std::__1::basic_string", %"class.std::__1::basic_string"* %34, i64 0, i32 0, i32 0, i32 0, i32 0, i32 0, i32 0
  %67 = load i8*, i8** %66, align 8
  %68 = getelementptr inbounds %"class.std::__1::basic_string", %"class.std::__1::basic_string"* %34, i64 0, i32 0, i32 0, i32 0, i32 0, i32 0, i32 1
  %69 = load i64, i64* %68, align 8
  %70 = tail call dereferenceable(24) %"class.std::__1::basic_string"* @_ZNSt3__112basic_stringIcNS_11char_traitsIcEENS_9allocatorIcEEE17__assign_no_aliasILb1EEERS5_PKcm(%"class.std::__1::basic_string"* %47, i8* %67, i64 %69) #16
  br label %81

71:                                               ; preds = %52
  %72 = getelementptr inbounds %"class.std::__1::basic_string", %"class.std::__1::basic_string"* %34, i64 0, i32 0, i32 0, i32 0, i32 0, i32 0, i32 0
  %73 = load i8*, i8** %72, align 8
  %74 = getelementptr inbounds %"class.std::__1::basic_string", %"class.std::__1::basic_string"* %34, i64 0, i32 0, i32 0, i32 0, i32 0, i32 0, i32 1
  %75 = load i64, i64* %74, align 8
  %76 = bitcast %"class.std::__1::basic_string"* %34 to i8*
  %77 = zext i8 %59 to i64
  %78 = select i1 %60, i8* %73, i8* %76
  %79 = select i1 %60, i64 %75, i64 %77
  %80 = tail call dereferenceable(24) %"class.std::__1::basic_string"* @_ZNSt3__112basic_stringIcNS_11char_traitsIcEENS_9allocatorIcEEE17__assign_no_aliasILb0EEERS5_PKcm(%"class.std::__1::basic_string"* %47, i8* %78, i64 %79) #16
  br label %81

81:                                               ; preds = %49, %50, %62, %65, %71
  %82 = getelementptr inbounds %"class.google::protobuf::internal::MapEntryImpl", %"class.google::protobuf::internal::MapEntryImpl"* %0, i64 0, i32 3, i64 0
  %83 = load i32, i32* %82, align 4
  %84 = or i32 %83, 1
  store i32 %84, i32* %82, align 4
  %85 = load i32, i32* %3, align 4
  br label %86

86:                                               ; preds = %6, %81
  %87 = phi i32 [ %4, %6 ], [ %85, %81 ]
  %88 = and i32 %87, 2
  %89 = icmp eq i32 %88, 0
  br i1 %89, label %103, label %90

90:                                               ; preds = %86
  %91 = getelementptr inbounds %"class.google::protobuf::internal::MapEntryImpl", %"class.google::protobuf::internal::MapEntryImpl"* %0, i64 0, i32 2
  %92 = bitcast %"class.google::protobuf::internal::MapEntryImpl"* %1 to float* (%"class.google::protobuf::internal::MapEntryImpl"*)***
  %93 = load float* (%"class.google::protobuf::internal::MapEntryImpl"*)**, float* (%"class.google::protobuf::internal::MapEntryImpl"*)*** %92, align 8
  %94 = getelementptr inbounds float* (%"class.google::protobuf::internal::MapEntryImpl"*)*, float* (%"class.google::protobuf::internal::MapEntryImpl"*)** %93, i64 15
  %95 = load float* (%"class.google::protobuf::internal::MapEntryImpl"*)*, float* (%"class.google::protobuf::internal::MapEntryImpl"*)** %94, align 8
  %96 = tail call dereferenceable(4) float* %95(%"class.google::protobuf::internal::MapEntryImpl"* %1) #16
  %97 = bitcast float* %96 to i32*
  %98 = load i32, i32* %97, align 4
  %99 = bitcast float* %91 to i32*
  store i32 %98, i32* %99, align 4
  %100 = getelementptr inbounds %"class.google::protobuf::internal::MapEntryImpl", %"class.google::protobuf::internal::MapEntryImpl"* %0, i64 0, i32 3, i64 0
  %101 = load i32, i32* %100, align 4
  %102 = or i32 %101, 2
  store i32 %102, i32* %100, align 4
  br label %103

103:                                              ; preds = %86, %2, %90
  ret void
}

; Function Attrs: nounwind ssp uwtable
define hidden void @_ZN13assist_ranker13SparseWeightsC2EPN6google8protobuf5ArenaE(%"class.assist_ranker::SparseWeights"*, %"class.google::protobuf::Arena"*) unnamed_addr #0 align 2 {
  %3 = getelementptr inbounds %"class.assist_ranker::SparseWeights", %"class.assist_ranker::SparseWeights"* %0, i64 0, i32 0, i32 0
  %4 = getelementptr inbounds %"class.assist_ranker::SparseWeights", %"class.assist_ranker::SparseWeights"* %0, i64 0, i32 0, i32 1
  %5 = bitcast %"class.google::protobuf::internal::InternalMetadata"* %4 to %"class.google::protobuf::Arena"**
  store %"class.google::protobuf::Arena"* %1, %"class.google::protobuf::Arena"** %5, align 8
  store i32 (...)** bitcast (i8** getelementptr inbounds ({ [16 x i8*] }, { [16 x i8*] }* @_ZTVN13assist_ranker13SparseWeightsE, i64 0, inrange i32 0, i64 2) to i32 (...)**), i32 (...)*** %3, align 8
  %6 = getelementptr inbounds %"class.assist_ranker::SparseWeights", %"class.assist_ranker::SparseWeights"* %0, i64 0, i32 1, i32 0, i64 0
  %7 = getelementptr inbounds %"class.assist_ranker::SparseWeights", %"class.assist_ranker::SparseWeights"* %0, i64 0, i32 3
  %8 = getelementptr inbounds %"class.assist_ranker::SparseWeights", %"class.assist_ranker::SparseWeights"* %0, i64 0, i32 3, i32 0, i32 0, i32 1
  %9 = bitcast i32* %6 to i8*
  call void @llvm.memset.p0i8.i64(i8* align 4 %9, i8 0, i64 16, i1 false)
  store i64 1, i64* %8, align 8
  %10 = getelementptr inbounds %"class.assist_ranker::SparseWeights", %"class.assist_ranker::SparseWeights"* %0, i64 0, i32 3, i32 0, i32 0, i32 2
  %11 = ptrtoint %"class.google::protobuf::internal::MapFieldLite"* %7 to i64
  %12 = lshr i64 %11, 12
  %13 = tail call { i32, i32 } asm sideeffect "rdtsc", "={ax},={dx},~{dirflag},~{fpsr},~{flags}"() #16, !srcloc !3
  %14 = extractvalue { i32, i32 } %13, 0
  %15 = extractvalue { i32, i32 } %13, 1
  %16 = zext i32 %15 to i64
  %17 = shl nuw i64 %16, 32
  %18 = zext i32 %14 to i64
  %19 = or i64 %17, %18
  %20 = add i64 %19, %12
  store i64 %20, i64* %10, align 8
  %21 = getelementptr inbounds %"class.assist_ranker::SparseWeights", %"class.assist_ranker::SparseWeights"* %0, i64 0, i32 3, i32 0, i32 0, i32 3
  %22 = load i64, i64* %8, align 8
  store i64 %22, i64* %21, align 8
  %23 = getelementptr inbounds %"class.assist_ranker::SparseWeights", %"class.assist_ranker::SparseWeights"* %0, i64 0, i32 3, i32 0, i32 0, i32 4
  store i8** getelementptr inbounds ([1 x i8*], [1 x i8*]* @_ZN6google8protobuf8internal17kGlobalEmptyTableE, i64 0, i64 0), i8*** %23, align 8
  %24 = getelementptr inbounds %"class.assist_ranker::SparseWeights", %"class.assist_ranker::SparseWeights"* %0, i64 0, i32 3, i32 0, i32 0, i32 5, i32 0
  store %"class.google::protobuf::Arena"* %1, %"class.google::protobuf::Arena"** %24, align 8
  %25 = load atomic i32, i32* getelementptr inbounds ({ { { { i32 } }, i32, i32, void ()* }, [1 x i8*] }, { { { { i32 } }, i32, i32, void ()* }, [1 x i8*] }* @scc_info_SparseWeights_generic_5flogistic_5fregression_5fmodel_2eproto, i64 0, i32 0, i32 0, i32 0, i32 0) acquire, align 8
  %26 = icmp eq i32 %25, 0
  br i1 %26, label %28, label %27, !prof !2

27:                                               ; preds = %2
  tail call void @_ZN6google8protobuf8internal11InitSCCImplEPNS1_11SCCInfoBaseE(%"struct.google::protobuf::internal::SCCInfoBase"* bitcast ({ { { { i32 } }, i32, i32, void ()* }, [1 x i8*] }* @scc_info_SparseWeights_generic_5flogistic_5fregression_5fmodel_2eproto to %"struct.google::protobuf::internal::SCCInfoBase"*)) #16
  br label %28

28:                                               ; preds = %2, %27
  %29 = getelementptr inbounds %"class.assist_ranker::SparseWeights", %"class.assist_ranker::SparseWeights"* %0, i64 0, i32 4
  store float 0.000000e+00, float* %29, align 8
  ret void
}

; Function Attrs: nounwind ssp uwtable
define hidden void @_ZN13assist_ranker13SparseWeightsC2ERKS0_(%"class.assist_ranker::SparseWeights"*, %"class.assist_ranker::SparseWeights"* dereferenceable(80)) unnamed_addr #0 align 2 {
  %3 = alloca %"struct.std::__1::pair.56", align 8
  %4 = alloca %"class.google::protobuf::Map<std::__1::basic_string<char, std::__1::char_traits<char>, std::__1::allocator<char> >, float>::const_iterator", align 8
  %5 = getelementptr inbounds %"class.assist_ranker::SparseWeights", %"class.assist_ranker::SparseWeights"* %0, i64 0, i32 0, i32 0
  %6 = getelementptr inbounds %"class.assist_ranker::SparseWeights", %"class.assist_ranker::SparseWeights"* %0, i64 0, i32 0, i32 1, i32 0
  store i8* null, i8** %6, align 8
  store i32 (...)** bitcast (i8** getelementptr inbounds ({ [16 x i8*] }, { [16 x i8*] }* @_ZTVN13assist_ranker13SparseWeightsE, i64 0, inrange i32 0, i64 2) to i32 (...)**), i32 (...)*** %5, align 8
  %7 = getelementptr inbounds %"class.assist_ranker::SparseWeights", %"class.assist_ranker::SparseWeights"* %1, i64 0, i32 1, i32 0, i64 0
  %8 = getelementptr inbounds %"class.assist_ranker::SparseWeights", %"class.assist_ranker::SparseWeights"* %0, i64 0, i32 1, i32 0, i64 0
  %9 = load i32, i32* %7, align 8
  store i32 %9, i32* %8, align 8
  %10 = getelementptr inbounds %"class.assist_ranker::SparseWeights", %"class.assist_ranker::SparseWeights"* %0, i64 0, i32 2, i32 0, i32 0, i32 0, i32 0, i32 0, i32 0
  store i32 0, i32* %10, align 4
  %11 = getelementptr inbounds %"class.assist_ranker::SparseWeights", %"class.assist_ranker::SparseWeights"* %0, i64 0, i32 3
  %12 = getelementptr inbounds %"class.assist_ranker::SparseWeights", %"class.assist_ranker::SparseWeights"* %0, i64 0, i32 3, i32 0, i32 0, i32 1
  %13 = bitcast %"class.google::protobuf::internal::MapFieldLite"* %11 to <2 x i64>*
  store <2 x i64> <i64 0, i64 1>, <2 x i64>* %13, align 8
  %14 = getelementptr inbounds %"class.assist_ranker::SparseWeights", %"class.assist_ranker::SparseWeights"* %0, i64 0, i32 3, i32 0, i32 0, i32 2
  %15 = ptrtoint %"class.google::protobuf::internal::MapFieldLite"* %11 to i64
  %16 = lshr i64 %15, 12
  %17 = tail call { i32, i32 } asm sideeffect "rdtsc", "={ax},={dx},~{dirflag},~{fpsr},~{flags}"() #16, !srcloc !3
  %18 = extractvalue { i32, i32 } %17, 0
  %19 = extractvalue { i32, i32 } %17, 1
  %20 = zext i32 %19 to i64
  %21 = shl nuw i64 %20, 32
  %22 = zext i32 %18 to i64
  %23 = or i64 %21, %22
  %24 = add i64 %23, %16
  store i64 %24, i64* %14, align 8
  %25 = getelementptr inbounds %"class.assist_ranker::SparseWeights", %"class.assist_ranker::SparseWeights"* %0, i64 0, i32 3, i32 0, i32 0, i32 3
  %26 = load i64, i64* %12, align 8
  store i64 %26, i64* %25, align 8
  %27 = getelementptr inbounds %"class.assist_ranker::SparseWeights", %"class.assist_ranker::SparseWeights"* %0, i64 0, i32 3, i32 0, i32 0, i32 4
  store i8** getelementptr inbounds ([1 x i8*], [1 x i8*]* @_ZN6google8protobuf8internal17kGlobalEmptyTableE, i64 0, i64 0), i8*** %27, align 8
  %28 = getelementptr inbounds %"class.assist_ranker::SparseWeights", %"class.assist_ranker::SparseWeights"* %0, i64 0, i32 3, i32 0, i32 0, i32 5, i32 0
  store %"class.google::protobuf::Arena"* null, %"class.google::protobuf::Arena"** %28, align 8
  %29 = getelementptr inbounds %"class.assist_ranker::SparseWeights", %"class.assist_ranker::SparseWeights"* %0, i64 0, i32 0, i32 1
  %30 = getelementptr inbounds %"class.assist_ranker::SparseWeights", %"class.assist_ranker::SparseWeights"* %1, i64 0, i32 0, i32 1
  %31 = bitcast %"class.google::protobuf::internal::InternalMetadata"* %30 to i64*
  %32 = load i64, i64* %31, align 8
  %33 = and i64 %32, 1
  %34 = icmp eq i64 %33, 0
  br i1 %34, label %64, label %35

35:                                               ; preds = %2
  %36 = and i64 %32, -2
  %37 = inttoptr i64 %36 to %"struct.google::protobuf::internal::InternalMetadata::Container"*
  %38 = getelementptr inbounds %"struct.google::protobuf::internal::InternalMetadata::Container", %"struct.google::protobuf::internal::InternalMetadata::Container"* %37, i64 0, i32 1
  %39 = bitcast %"class.google::protobuf::internal::InternalMetadata"* %29 to i64*
  %40 = load i64, i64* %39, align 8
  %41 = and i64 %40, 1
  %42 = icmp eq i64 %41, 0
  br i1 %42, label %47, label %43, !prof !4

43:                                               ; preds = %35
  %44 = and i64 %40, -2
  %45 = inttoptr i64 %44 to %"struct.google::protobuf::internal::InternalMetadata::Container"*
  %46 = getelementptr inbounds %"struct.google::protobuf::internal::InternalMetadata::Container", %"struct.google::protobuf::internal::InternalMetadata::Container"* %45, i64 0, i32 1
  br label %49

47:                                               ; preds = %35
  %48 = tail call %"class.std::__1::basic_string"* @_ZN6google8protobuf8internal16InternalMetadata27mutable_unknown_fields_slowINSt3__112basic_stringIcNS4_11char_traitsIcEENS4_9allocatorIcEEEEEEPT_v(%"class.google::protobuf::internal::InternalMetadata"* %29) #16
  br label %49

49:                                               ; preds = %47, %43
  %50 = phi %"class.std::__1::basic_string"* [ %46, %43 ], [ %48, %47 ]
  %51 = bitcast %"class.std::__1::basic_string"* %38 to %"struct.std::__1::basic_string<char, std::__1::char_traits<char>, std::__1::allocator<char> >::__short"*
  %52 = getelementptr inbounds %"struct.std::__1::basic_string<char, std::__1::char_traits<char>, std::__1::allocator<char> >::__short", %"struct.std::__1::basic_string<char, std::__1::char_traits<char>, std::__1::allocator<char> >::__short"* %51, i64 0, i32 1, i32 0
  %53 = load i8, i8* %52, align 1
  %54 = icmp slt i8 %53, 0
  %55 = getelementptr inbounds %"class.std::__1::basic_string", %"class.std::__1::basic_string"* %38, i64 0, i32 0, i32 0, i32 0, i32 0, i32 0, i32 0
  %56 = load i8*, i8** %55, align 8
  %57 = getelementptr inbounds %"struct.google::protobuf::internal::InternalMetadata::Container", %"struct.google::protobuf::internal::InternalMetadata::Container"* %37, i64 0, i32 1, i32 0, i32 0, i32 0, i32 0, i32 0, i32 1
  %58 = load i64, i64* %57, align 8
  %59 = bitcast %"class.std::__1::basic_string"* %38 to i8*
  %60 = zext i8 %53 to i64
  %61 = select i1 %54, i8* %56, i8* %59
  %62 = select i1 %54, i64 %58, i64 %60
  %63 = tail call dereferenceable(24) %"class.std::__1::basic_string"* @_ZNSt3__112basic_stringIcNS_11char_traitsIcEENS_9allocatorIcEEE6appendEPKcm(%"class.std::__1::basic_string"* %50, i8* %61, i64 %62) #16
  br label %64

64:                                               ; preds = %2, %49
  %65 = bitcast %"class.google::protobuf::Map<std::__1::basic_string<char, std::__1::char_traits<char>, std::__1::allocator<char> >, float>::const_iterator"* %4 to i8*
  call void @llvm.lifetime.start.p0i8(i64 24, i8* nonnull %65) #16
  %66 = getelementptr inbounds %"class.google::protobuf::Map<std::__1::basic_string<char, std::__1::char_traits<char>, std::__1::allocator<char> >, float>::const_iterator", %"class.google::protobuf::Map<std::__1::basic_string<char, std::__1::char_traits<char>, std::__1::allocator<char> >, float>::const_iterator"* %4, i64 0, i32 0, i32 0
  %67 = getelementptr inbounds %"class.google::protobuf::Map<std::__1::basic_string<char, std::__1::char_traits<char>, std::__1::allocator<char> >, float>::const_iterator", %"class.google::protobuf::Map<std::__1::basic_string<char, std::__1::char_traits<char>, std::__1::allocator<char> >, float>::const_iterator"* %4, i64 0, i32 0, i32 1
  %68 = getelementptr inbounds %"class.google::protobuf::Map<std::__1::basic_string<char, std::__1::char_traits<char>, std::__1::allocator<char> >, float>::const_iterator", %"class.google::protobuf::Map<std::__1::basic_string<char, std::__1::char_traits<char>, std::__1::allocator<char> >, float>::const_iterator"* %4, i64 0, i32 0, i32 2
  %69 = getelementptr inbounds %"class.assist_ranker::SparseWeights", %"class.assist_ranker::SparseWeights"* %1, i64 0, i32 3, i32 0, i32 0
  %70 = getelementptr inbounds %"class.assist_ranker::SparseWeights", %"class.assist_ranker::SparseWeights"* %1, i64 0, i32 3, i32 0, i32 0, i32 3
  call void @llvm.memset.p0i8.i64(i8* nonnull align 8 %65, i8 -86, i64 24, i1 false) #16
  %71 = load i64, i64* %70, align 8, !noalias !5
  %72 = getelementptr inbounds %"class.assist_ranker::SparseWeights", %"class.assist_ranker::SparseWeights"* %1, i64 0, i32 3, i32 0, i32 0, i32 1
  %73 = load i64, i64* %72, align 8, !noalias !5
  %74 = icmp ugt i64 %73, %71
  br i1 %74, label %75, label %99

75:                                               ; preds = %64
  %76 = getelementptr inbounds %"class.assist_ranker::SparseWeights", %"class.assist_ranker::SparseWeights"* %1, i64 0, i32 3, i32 0, i32 0, i32 4
  %77 = load i8**, i8*** %76, align 8, !noalias !5
  br label %78

78:                                               ; preds = %96, %75
  %79 = phi i64 [ %71, %75 ], [ %97, %96 ]
  %80 = getelementptr inbounds i8*, i8** %77, i64 %79
  %81 = load i8*, i8** %80, align 8, !noalias !5
  %82 = icmp eq i8* %81, null
  br i1 %82, label %96, label %83

83:                                               ; preds = %78
  %84 = xor i64 %79, 1
  %85 = getelementptr inbounds i8*, i8** %77, i64 %84
  %86 = load i8*, i8** %85, align 8, !noalias !5
  %87 = icmp eq i8* %81, %86
  br i1 %87, label %90, label %88

88:                                               ; preds = %83
  %89 = ptrtoint i8* %81 to i64
  br label %102

90:                                               ; preds = %83
  %91 = bitcast i8* %81 to %"class.std::__1::__tree_end_node"**
  %92 = load %"class.std::__1::__tree_end_node"*, %"class.std::__1::__tree_end_node"** %91, align 8, !noalias !5
  %93 = getelementptr inbounds %"class.std::__1::__tree_end_node", %"class.std::__1::__tree_end_node"* %92, i64 5
  %94 = bitcast %"class.std::__1::__tree_end_node"* %93 to i64*
  %95 = load i64, i64* %94, align 8, !noalias !5
  br label %102

96:                                               ; preds = %78
  %97 = add i64 %79, 1
  %98 = icmp eq i64 %97, %73
  br i1 %98, label %99, label %78

99:                                               ; preds = %96, %64
  %100 = phi i64 [ %71, %64 ], [ %73, %96 ]
  %101 = bitcast %"class.google::protobuf::Map<std::__1::basic_string<char, std::__1::char_traits<char>, std::__1::allocator<char> >, float>::const_iterator"* %4 to i64*
  store i64 0, i64* %101, align 8, !alias.scope !10
  store %"class.google::protobuf::Map<std::__1::basic_string<char, std::__1::char_traits<char>, std::__1::allocator<char> >, float>::InnerMap"* %69, %"class.google::protobuf::Map<std::__1::basic_string<char, std::__1::char_traits<char>, std::__1::allocator<char> >, float>::InnerMap"** %67, align 8, !alias.scope !10
  store i64 %100, i64* %68, align 8, !alias.scope !10
  br label %124

102:                                              ; preds = %90, %88
  %103 = phi i64 [ %95, %90 ], [ %89, %88 ]
  %104 = bitcast %"class.google::protobuf::Map<std::__1::basic_string<char, std::__1::char_traits<char>, std::__1::allocator<char> >, float>::const_iterator"* %4 to i64*
  store i64 %103, i64* %104, align 8, !alias.scope !10
  store %"class.google::protobuf::Map<std::__1::basic_string<char, std::__1::char_traits<char>, std::__1::allocator<char> >, float>::InnerMap"* %69, %"class.google::protobuf::Map<std::__1::basic_string<char, std::__1::char_traits<char>, std::__1::allocator<char> >, float>::InnerMap"** %67, align 8, !alias.scope !10
  store i64 %79, i64* %68, align 8, !alias.scope !10
  %105 = icmp eq i64 %103, 0
  br i1 %105, label %124, label %106

106:                                              ; preds = %102
  %107 = inttoptr i64 %103 to %"struct.google::protobuf::Map<std::__1::basic_string<char, std::__1::char_traits<char>, std::__1::allocator<char> >, float>::InnerMap::Node"*
  %108 = getelementptr inbounds %"class.google::protobuf::internal::MapFieldLite", %"class.google::protobuf::internal::MapFieldLite"* %11, i64 0, i32 0, i32 0
  %109 = bitcast %"struct.std::__1::pair.56"* %3 to i8*
  %110 = getelementptr inbounds %"struct.std::__1::pair.56", %"struct.std::__1::pair.56"* %3, i64 0, i32 0, i32 0
  %111 = getelementptr inbounds %"class.google::protobuf::Map<std::__1::basic_string<char, std::__1::char_traits<char>, std::__1::allocator<char> >, float>::const_iterator", %"class.google::protobuf::Map<std::__1::basic_string<char, std::__1::char_traits<char>, std::__1::allocator<char> >, float>::const_iterator"* %4, i64 0, i32 0
  br label %112

112:                                              ; preds = %112, %106
  %113 = phi %"struct.google::protobuf::Map<std::__1::basic_string<char, std::__1::char_traits<char>, std::__1::allocator<char> >, float>::InnerMap::Node"* [ %107, %106 ], [ %122, %112 ]
  %114 = getelementptr inbounds %"struct.google::protobuf::Map<std::__1::basic_string<char, std::__1::char_traits<char>, std::__1::allocator<char> >, float>::InnerMap::Node", %"struct.google::protobuf::Map<std::__1::basic_string<char, std::__1::char_traits<char>, std::__1::allocator<char> >, float>::InnerMap::Node"* %113, i64 0, i32 0, i32 1
  %115 = bitcast float* %114 to i32*
  %116 = load i32, i32* %115, align 8
  %117 = getelementptr inbounds %"struct.google::protobuf::Map<std::__1::basic_string<char, std::__1::char_traits<char>, std::__1::allocator<char> >, float>::InnerMap::Node", %"struct.google::protobuf::Map<std::__1::basic_string<char, std::__1::char_traits<char>, std::__1::allocator<char> >, float>::InnerMap::Node"* %113, i64 0, i32 0, i32 0
  call void @llvm.lifetime.start.p0i8(i64 32, i8* nonnull %109) #16
  call void @_ZN6google8protobuf3MapINSt3__112basic_stringIcNS2_11char_traitsIcEENS2_9allocatorIcEEEEfE8InnerMap6insertERKS8_(%"struct.std::__1::pair.56"* nonnull sret %3, %"class.google::protobuf::Map<std::__1::basic_string<char, std::__1::char_traits<char>, std::__1::allocator<char> >, float>::InnerMap"* %108, %"class.std::__1::basic_string"* dereferenceable(24) %117) #16
  %118 = load %"struct.google::protobuf::Map<std::__1::basic_string<char, std::__1::char_traits<char>, std::__1::allocator<char> >, float>::InnerMap::Node"*, %"struct.google::protobuf::Map<std::__1::basic_string<char, std::__1::char_traits<char>, std::__1::allocator<char> >, float>::InnerMap::Node"** %110, align 8
  call void @llvm.lifetime.end.p0i8(i64 32, i8* nonnull %109) #16
  %119 = getelementptr inbounds %"struct.google::protobuf::Map<std::__1::basic_string<char, std::__1::char_traits<char>, std::__1::allocator<char> >, float>::InnerMap::Node", %"struct.google::protobuf::Map<std::__1::basic_string<char, std::__1::char_traits<char>, std::__1::allocator<char> >, float>::InnerMap::Node"* %118, i64 0, i32 0, i32 1
  %120 = bitcast float* %119 to i32*
  store i32 %116, i32* %120, align 4
  %121 = call dereferenceable(24) %"class.google::protobuf::Map<std::__1::basic_string<char, std::__1::char_traits<char>, std::__1::allocator<char> >, float>::InnerMap::iterator_base"* @_ZN6google8protobuf3MapINSt3__112basic_stringIcNS2_11char_traitsIcEENS2_9allocatorIcEEEEfE8InnerMap13iterator_baseIKNS0_7MapPairIS8_fEEEppEv(%"class.google::protobuf::Map<std::__1::basic_string<char, std::__1::char_traits<char>, std::__1::allocator<char> >, float>::InnerMap::iterator_base"* nonnull %111) #16
  %122 = load %"struct.google::protobuf::Map<std::__1::basic_string<char, std::__1::char_traits<char>, std::__1::allocator<char> >, float>::InnerMap::Node"*, %"struct.google::protobuf::Map<std::__1::basic_string<char, std::__1::char_traits<char>, std::__1::allocator<char> >, float>::InnerMap::Node"** %66, align 8
  %123 = icmp eq %"struct.google::protobuf::Map<std::__1::basic_string<char, std::__1::char_traits<char>, std::__1::allocator<char> >, float>::InnerMap::Node"* %122, null
  br i1 %123, label %124, label %112

124:                                              ; preds = %112, %99, %102
  call void @llvm.lifetime.end.p0i8(i64 24, i8* nonnull %65) #16
  %125 = getelementptr inbounds %"class.assist_ranker::SparseWeights", %"class.assist_ranker::SparseWeights"* %1, i64 0, i32 4
  %126 = bitcast float* %125 to i32*
  %127 = load i32, i32* %126, align 8
  %128 = getelementptr inbounds %"class.assist_ranker::SparseWeights", %"class.assist_ranker::SparseWeights"* %0, i64 0, i32 4
  %129 = bitcast float* %128 to i32*
  store i32 %127, i32* %129, align 8
  ret void
}

; Function Attrs: argmemonly nounwind
declare void @llvm.memcpy.p0i8.p0i8.i64(i8* nocapture writeonly, i8* nocapture readonly, i64, i1 immarg) #2

; Function Attrs: nounwind ssp uwtable
define hidden void @_ZN13assist_ranker13SparseWeightsD2Ev(%"class.assist_ranker::SparseWeights"*) unnamed_addr #0 align 2 {
  %2 = getelementptr inbounds %"class.assist_ranker::SparseWeights", %"class.assist_ranker::SparseWeights"* %0, i64 0, i32 0, i32 0
  store i32 (...)** bitcast (i8** getelementptr inbounds ({ [16 x i8*] }, { [16 x i8*] }* @_ZTVN13assist_ranker13SparseWeightsE, i64 0, inrange i32 0, i64 2) to i32 (...)**), i32 (...)*** %2, align 8
  %3 = getelementptr inbounds %"class.assist_ranker::SparseWeights", %"class.assist_ranker::SparseWeights"* %0, i64 0, i32 0, i32 1
  %4 = bitcast %"class.google::protobuf::internal::InternalMetadata"* %3 to i64*
  %5 = load i64, i64* %4, align 8
  %6 = and i64 %5, 1
  %7 = icmp eq i64 %6, 0
  br i1 %7, label %28, label %8

8:                                                ; preds = %1
  %9 = and i64 %5, -2
  %10 = inttoptr i64 %9 to %"struct.google::protobuf::internal::InternalMetadata::ContainerBase"*
  %11 = getelementptr inbounds %"struct.google::protobuf::internal::InternalMetadata::ContainerBase", %"struct.google::protobuf::internal::InternalMetadata::ContainerBase"* %10, i64 0, i32 0
  %12 = load %"class.google::protobuf::Arena"*, %"class.google::protobuf::Arena"** %11, align 8
  %13 = icmp ne %"class.google::protobuf::Arena"* %12, null
  %14 = icmp eq i64 %9, 0
  %15 = or i1 %14, %13
  br i1 %15, label %28, label %16

16:                                               ; preds = %8
  %17 = inttoptr i64 %9 to %"struct.google::protobuf::internal::InternalMetadata::Container"*
  %18 = getelementptr inbounds %"struct.google::protobuf::internal::InternalMetadata::Container", %"struct.google::protobuf::internal::InternalMetadata::Container"* %17, i64 0, i32 1
  %19 = bitcast %"class.std::__1::basic_string"* %18 to %"struct.std::__1::basic_string<char, std::__1::char_traits<char>, std::__1::allocator<char> >::__short"*
  %20 = getelementptr inbounds %"struct.std::__1::basic_string<char, std::__1::char_traits<char>, std::__1::allocator<char> >::__short", %"struct.std::__1::basic_string<char, std::__1::char_traits<char>, std::__1::allocator<char> >::__short"* %19, i64 0, i32 1, i32 0
  %21 = load i8, i8* %20, align 1
  %22 = icmp slt i8 %21, 0
  br i1 %22, label %23, label %26

23:                                               ; preds = %16
  %24 = getelementptr inbounds %"class.std::__1::basic_string", %"class.std::__1::basic_string"* %18, i64 0, i32 0, i32 0, i32 0, i32 0, i32 0, i32 0
  %25 = load i8*, i8** %24, align 8
  tail call void @_ZdlPv(i8* %25) #17
  br label %26

26:                                               ; preds = %23, %16
  %27 = inttoptr i64 %9 to i8*
  tail call void @_ZdlPv(i8* %27) #17
  br label %28

28:                                               ; preds = %1, %8, %26
  %29 = getelementptr inbounds %"class.assist_ranker::SparseWeights", %"class.assist_ranker::SparseWeights"* %0, i64 0, i32 3, i32 0, i32 0
  %30 = getelementptr inbounds %"class.assist_ranker::SparseWeights", %"class.assist_ranker::SparseWeights"* %0, i64 0, i32 3, i32 0, i32 0, i32 5, i32 0
  %31 = load %"class.google::protobuf::Arena"*, %"class.google::protobuf::Arena"** %30, align 8
  %32 = icmp eq %"class.google::protobuf::Arena"* %31, null
  br i1 %32, label %33, label %44

33:                                               ; preds = %28
  %34 = getelementptr inbounds %"class.assist_ranker::SparseWeights", %"class.assist_ranker::SparseWeights"* %0, i64 0, i32 3, i32 0, i32 0, i32 1
  %35 = load i64, i64* %34, align 8
  %36 = icmp eq i64 %35, 1
  br i1 %36, label %44, label %37

37:                                               ; preds = %33
  tail call void @_ZN6google8protobuf3MapINSt3__112basic_stringIcNS2_11char_traitsIcEENS2_9allocatorIcEEEEfE8InnerMap5clearEv(%"class.google::protobuf::Map<std::__1::basic_string<char, std::__1::char_traits<char>, std::__1::allocator<char> >, float>::InnerMap"* %29) #16
  %38 = load %"class.google::protobuf::Arena"*, %"class.google::protobuf::Arena"** %30, align 8
  %39 = icmp eq %"class.google::protobuf::Arena"* %38, null
  br i1 %39, label %40, label %44

40:                                               ; preds = %37
  %41 = getelementptr inbounds %"class.assist_ranker::SparseWeights", %"class.assist_ranker::SparseWeights"* %0, i64 0, i32 3, i32 0, i32 0, i32 4
  %42 = bitcast i8*** %41 to i8**
  %43 = load i8*, i8** %42, align 8
  tail call void @_ZdlPv(i8* %43) #16
  br label %44

44:                                               ; preds = %28, %33, %37, %40
  ret void
}

; Function Attrs: nounwind ssp uwtable
define hidden void @_ZN13assist_ranker13SparseWeightsD0Ev(%"class.assist_ranker::SparseWeights"*) unnamed_addr #0 align 2 {
  tail call void @_ZN13assist_ranker13SparseWeightsD2Ev(%"class.assist_ranker::SparseWeights"* %0) #16
  %2 = bitcast %"class.assist_ranker::SparseWeights"* %0 to i8*
  tail call void @_ZdlPv(i8* %2) #17
  ret void
}

; Function Attrs: nobuiltin nounwind
declare void @_ZdlPv(i8*) local_unnamed_addr #3

; Function Attrs: norecurse nounwind readnone ssp uwtable
define hidden void @_ZN13assist_ranker13SparseWeights9ArenaDtorEPv(i8* nocapture) local_unnamed_addr #4 align 2 {
  ret void
}

; Function Attrs: argmemonly nounwind
declare void @llvm.lifetime.start.p0i8(i64 immarg, i8* nocapture) #2

; Function Attrs: argmemonly nounwind
declare void @llvm.lifetime.end.p0i8(i64 immarg, i8* nocapture) #2

; Function Attrs: nofree norecurse nounwind ssp uwtable
define hidden void @_ZNK13assist_ranker13SparseWeights13SetCachedSizeEi(%"class.assist_ranker::SparseWeights"* nocapture, i32) local_unnamed_addr #5 align 2 {
  %3 = getelementptr inbounds %"class.assist_ranker::SparseWeights", %"class.assist_ranker::SparseWeights"* %0, i64 0, i32 2, i32 0, i32 0, i32 0, i32 0, i32 0, i32 0
  store atomic i32 %1, i32* %3 monotonic, align 4
  ret void
}

; Function Attrs: nounwind ssp uwtable
define hidden dereferenceable(80) %"class.assist_ranker::SparseWeights"* @_ZN13assist_ranker13SparseWeights16default_instanceEv() local_unnamed_addr #0 align 2 {
  %1 = load atomic i32, i32* getelementptr inbounds ({ { { { i32 } }, i32, i32, void ()* }, [1 x i8*] }, { { { { i32 } }, i32, i32, void ()* }, [1 x i8*] }* @scc_info_SparseWeights_generic_5flogistic_5fregression_5fmodel_2eproto, i64 0, i32 0, i32 0, i32 0, i32 0) acquire, align 8
  %2 = icmp eq i32 %1, 0
  br i1 %2, label %4, label %3, !prof !2

3:                                                ; preds = %0
  tail call void @_ZN6google8protobuf8internal11InitSCCImplEPNS1_11SCCInfoBaseE(%"struct.google::protobuf::internal::SCCInfoBase"* bitcast ({ { { { i32 } }, i32, i32, void ()* }, [1 x i8*] }* @scc_info_SparseWeights_generic_5flogistic_5fregression_5fmodel_2eproto to %"struct.google::protobuf::internal::SCCInfoBase"*)) #16
  br label %4

4:                                                ; preds = %0, %3
  ret %"class.assist_ranker::SparseWeights"* bitcast (%"class.assist_ranker::SparseWeightsDefaultTypeInternal"* @_ZN13assist_ranker32_SparseWeights_default_instance_E to %"class.assist_ranker::SparseWeights"*)
}

; Function Attrs: nounwind ssp uwtable
define hidden void @_ZN13assist_ranker13SparseWeights5ClearEv(%"class.assist_ranker::SparseWeights"*) unnamed_addr #0 align 2 {
  %2 = getelementptr inbounds %"class.assist_ranker::SparseWeights", %"class.assist_ranker::SparseWeights"* %0, i64 0, i32 3, i32 0, i32 0
  tail call void @_ZN6google8protobuf3MapINSt3__112basic_stringIcNS2_11char_traitsIcEENS2_9allocatorIcEEEEfE8InnerMap5clearEv(%"class.google::protobuf::Map<std::__1::basic_string<char, std::__1::char_traits<char>, std::__1::allocator<char> >, float>::InnerMap"* %2) #16
  %3 = getelementptr inbounds %"class.assist_ranker::SparseWeights", %"class.assist_ranker::SparseWeights"* %0, i64 0, i32 4
  store float 0.000000e+00, float* %3, align 8
  %4 = getelementptr inbounds %"class.assist_ranker::SparseWeights", %"class.assist_ranker::SparseWeights"* %0, i64 0, i32 1, i32 0, i64 0
  store i32 0, i32* %4, align 4
  %5 = getelementptr inbounds %"class.assist_ranker::SparseWeights", %"class.assist_ranker::SparseWeights"* %0, i64 0, i32 0, i32 1
  %6 = bitcast %"class.google::protobuf::internal::InternalMetadata"* %5 to i64*
  %7 = load i64, i64* %6, align 8
  %8 = and i64 %7, 1
  %9 = icmp eq i64 %8, 0
  br i1 %9, label %24, label %10

10:                                               ; preds = %1
  %11 = and i64 %7, -2
  %12 = inttoptr i64 %11 to %"struct.google::protobuf::internal::InternalMetadata::Container"*
  %13 = getelementptr inbounds %"struct.google::protobuf::internal::InternalMetadata::Container", %"struct.google::protobuf::internal::InternalMetadata::Container"* %12, i64 0, i32 1
  %14 = bitcast %"class.std::__1::basic_string"* %13 to %"struct.std::__1::basic_string<char, std::__1::char_traits<char>, std::__1::allocator<char> >::__short"*
  %15 = getelementptr inbounds %"struct.std::__1::basic_string<char, std::__1::char_traits<char>, std::__1::allocator<char> >::__short", %"struct.std::__1::basic_string<char, std::__1::char_traits<char>, std::__1::allocator<char> >::__short"* %14, i64 0, i32 1, i32 0
  %16 = load i8, i8* %15, align 1
  %17 = icmp slt i8 %16, 0
  br i1 %17, label %18, label %22

18:                                               ; preds = %10
  %19 = getelementptr inbounds %"class.std::__1::basic_string", %"class.std::__1::basic_string"* %13, i64 0, i32 0, i32 0, i32 0, i32 0, i32 0, i32 0
  %20 = load i8*, i8** %19, align 8
  store i8 0, i8* %20, align 1
  %21 = getelementptr inbounds %"struct.google::protobuf::internal::InternalMetadata::Container", %"struct.google::protobuf::internal::InternalMetadata::Container"* %12, i64 0, i32 1, i32 0, i32 0, i32 0, i32 0, i32 0, i32 1
  store i64 0, i64* %21, align 8
  br label %24

22:                                               ; preds = %10
  %23 = bitcast %"class.std::__1::basic_string"* %13 to i8*
  store i8 0, i8* %23, align 2
  store i8 0, i8* %15, align 1
  br label %24

24:                                               ; preds = %1, %18, %22
  ret void
}

; Function Attrs: nounwind ssp uwtable
define hidden i8* @_ZN13assist_ranker13SparseWeights14_InternalParseEPKcPN6google8protobuf8internal12ParseContextE(%"class.assist_ranker::SparseWeights"*, i8*, %"class.google::protobuf::internal::ParseContext"*) unnamed_addr #0 align 2 {
  %4 = getelementptr inbounds %"class.google::protobuf::internal::ParseContext", %"class.google::protobuf::internal::ParseContext"* %2, i64 0, i32 0
  %5 = getelementptr inbounds %"class.google::protobuf::internal::ParseContext", %"class.google::protobuf::internal::ParseContext"* %2, i64 0, i32 2
  %6 = getelementptr inbounds %"class.google::protobuf::internal::ParseContext", %"class.google::protobuf::internal::ParseContext"* %2, i64 0, i32 0, i32 0
  %7 = getelementptr inbounds %"class.google::protobuf::internal::ParseContext", %"class.google::protobuf::internal::ParseContext"* %2, i64 0, i32 0, i32 1
  %8 = bitcast i8** %7 to i64*
  %9 = getelementptr inbounds %"class.google::protobuf::internal::ParseContext", %"class.google::protobuf::internal::ParseContext"* %2, i64 0, i32 0, i32 4
  %10 = getelementptr inbounds %"class.assist_ranker::SparseWeights", %"class.assist_ranker::SparseWeights"* %0, i64 0, i32 4
  %11 = bitcast float* %10 to i32*
  %12 = getelementptr inbounds %"class.assist_ranker::SparseWeights", %"class.assist_ranker::SparseWeights"* %0, i64 0, i32 3
  %13 = getelementptr inbounds %"class.assist_ranker::SparseWeights", %"class.assist_ranker::SparseWeights"* %0, i64 0, i32 0, i32 1
  %14 = bitcast %"class.google::protobuf::internal::InternalMetadata"* %13 to i64*
  br label %15

15:                                               ; preds = %80, %3
  %16 = phi i8* [ %84, %80 ], [ %1, %3 ]
  %17 = phi i32 [ %81, %80 ], [ 0, %3 ]
  br label %18

18:                                               ; preds = %107, %15
  %19 = phi i8* [ %16, %15 ], [ %108, %107 ]
  %20 = load i32, i32* %5, align 4
  %21 = load i8*, i8** %6, align 8
  %22 = icmp ult i8* %19, %21
  br i1 %22, label %36, label %23, !prof !2

23:                                               ; preds = %18
  %24 = load i64, i64* %8, align 8
  %25 = ptrtoint i8* %19 to i64
  %26 = sub i64 %25, %24
  %27 = load i32, i32* %9, align 4
  %28 = sext i32 %27 to i64
  %29 = icmp eq i64 %26, %28
  br i1 %29, label %109, label %30

30:                                               ; preds = %23
  %31 = tail call { i8*, i8 } @_ZN6google8protobuf8internal18EpsCopyInputStream12DoneFallbackEPKci(%"class.google::protobuf::internal::EpsCopyInputStream"* %4, i8* %19, i32 %20) #16
  %32 = extractvalue { i8*, i8 } %31, 0
  %33 = extractvalue { i8*, i8 } %31, 1
  %34 = and i8 %33, 1
  %35 = icmp eq i8 %34, 0
  br i1 %35, label %36, label %109

36:                                               ; preds = %30, %18
  %37 = phi i8* [ %32, %30 ], [ %19, %18 ]
  %38 = load i8, i8* %37, align 1
  %39 = zext i8 %38 to i32
  %40 = icmp sgt i8 %38, -1
  %41 = getelementptr inbounds i8, i8* %37, i64 1
  br i1 %40, label %55, label %42

42:                                               ; preds = %36
  %43 = load i8, i8* %41, align 1
  %44 = zext i8 %43 to i32
  %45 = shl nuw nsw i32 %44, 7
  %46 = add nsw i32 %39, -128
  %47 = add nsw i32 %46, %45
  %48 = icmp sgt i8 %43, -1
  br i1 %48, label %49, label %51

49:                                               ; preds = %42
  %50 = getelementptr inbounds i8, i8* %37, i64 2
  br label %55

51:                                               ; preds = %42
  %52 = tail call { i8*, i32 } @_ZN6google8protobuf8internal15ReadTagFallbackEPKcj(i8* %37, i32 %47) #16
  %53 = extractvalue { i8*, i32 } %52, 0
  %54 = extractvalue { i8*, i32 } %52, 1
  br label %55

55:                                               ; preds = %36, %49, %51
  %56 = phi i32 [ %47, %49 ], [ %54, %51 ], [ %39, %36 ]
  %57 = phi i8* [ %50, %49 ], [ %53, %51 ], [ %41, %36 ]
  %58 = icmp eq i8* %57, null
  br i1 %58, label %109, label %59, !prof !4

59:                                               ; preds = %55
  %60 = lshr i32 %56, 3
  switch i32 %60, label %85 [
    i32 1, label %61
    i32 2, label %77
  ]

61:                                               ; preds = %59
  %62 = and i32 %56, 255
  %63 = icmp eq i32 %62, 10
  br i1 %63, label %64, label %85, !prof !2

64:                                               ; preds = %61
  %65 = getelementptr inbounds i8, i8* %57, i64 -1
  br label %66

66:                                               ; preds = %74, %64
  %67 = phi i8* [ %65, %64 ], [ %69, %74 ]
  %68 = getelementptr inbounds i8, i8* %67, i64 1
  %69 = tail call i8* @_ZN6google8protobuf8internal12ParseContext12ParseMessageINS1_12MapFieldLiteIN13assist_ranker35SparseWeights_WeightsEntry_DoNotUseENSt3__112basic_stringIcNS7_11char_traitsIcEENS7_9allocatorIcEEEEfLNS1_14WireFormatLite9FieldTypeE9ELSF_2EEEEEPKcPT_SI_(%"class.google::protobuf::internal::ParseContext"* %2, %"class.google::protobuf::internal::MapFieldLite"* %12, i8* %68)
  %70 = icmp eq i8* %69, null
  br i1 %70, label %109, label %71, !prof !4

71:                                               ; preds = %66
  %72 = load i8*, i8** %6, align 8
  %73 = icmp ugt i8* %72, %69
  br i1 %73, label %74, label %107

74:                                               ; preds = %71
  %75 = load i8, i8* %69, align 1
  %76 = icmp eq i8 %75, 10
  br i1 %76, label %66, label %107

77:                                               ; preds = %59
  %78 = and i32 %56, 255
  %79 = icmp eq i32 %78, 21
  br i1 %79, label %80, label %85, !prof !2

80:                                               ; preds = %77
  %81 = or i32 %17, 1
  %82 = bitcast i8* %57 to i32*
  %83 = load i32, i32* %82, align 1
  store i32 %83, i32* %11, align 8
  %84 = getelementptr inbounds i8, i8* %57, i64 4
  br label %15

85:                                               ; preds = %59, %77, %61
  %86 = and i32 %56, 7
  %87 = icmp eq i32 %86, 4
  %88 = icmp eq i32 %56, 0
  %89 = or i1 %88, %87
  br i1 %89, label %90, label %93

90:                                               ; preds = %85
  %91 = add i32 %56, -1
  %92 = getelementptr inbounds %"class.google::protobuf::internal::ParseContext", %"class.google::protobuf::internal::ParseContext"* %2, i64 0, i32 0, i32 8
  store i32 %91, i32* %92, align 8
  br label %109

93:                                               ; preds = %85
  %94 = load i64, i64* %14, align 8
  %95 = and i64 %94, 1
  %96 = icmp eq i64 %95, 0
  br i1 %96, label %101, label %97, !prof !4

97:                                               ; preds = %93
  %98 = and i64 %94, -2
  %99 = inttoptr i64 %98 to %"struct.google::protobuf::internal::InternalMetadata::Container"*
  %100 = getelementptr inbounds %"struct.google::protobuf::internal::InternalMetadata::Container", %"struct.google::protobuf::internal::InternalMetadata::Container"* %99, i64 0, i32 1
  br label %103

101:                                              ; preds = %93
  %102 = tail call %"class.std::__1::basic_string"* @_ZN6google8protobuf8internal16InternalMetadata27mutable_unknown_fields_slowINSt3__112basic_stringIcNS4_11char_traitsIcEENS4_9allocatorIcEEEEEEPT_v(%"class.google::protobuf::internal::InternalMetadata"* %13) #16
  br label %103

103:                                              ; preds = %97, %101
  %104 = phi %"class.std::__1::basic_string"* [ %100, %97 ], [ %102, %101 ]
  %105 = tail call i8* @_ZN6google8protobuf8internal17UnknownFieldParseEjPNSt3__112basic_stringIcNS2_11char_traitsIcEENS2_9allocatorIcEEEEPKcPNS1_12ParseContextE(i32 %56, %"class.std::__1::basic_string"* %104, i8* nonnull %57, %"class.google::protobuf::internal::ParseContext"* %2) #16
  %106 = icmp eq i8* %105, null
  br i1 %106, label %109, label %107

107:                                              ; preds = %74, %71, %103
  %108 = phi i8* [ %105, %103 ], [ %69, %71 ], [ %69, %74 ]
  br label %18

109:                                              ; preds = %30, %103, %23, %55, %66, %90
  %110 = phi i8* [ %57, %90 ], [ null, %66 ], [ null, %55 ], [ %19, %23 ], [ null, %103 ], [ %32, %30 ]
  %111 = getelementptr inbounds %"class.assist_ranker::SparseWeights", %"class.assist_ranker::SparseWeights"* %0, i64 0, i32 1, i32 0, i64 0
  %112 = load i32, i32* %111, align 4
  %113 = or i32 %112, %17
  store i32 %113, i32* %111, align 4
  ret i8* %110
}

; Function Attrs: nounwind ssp uwtable
define linkonce_odr hidden i8* @_ZN6google8protobuf8internal12ParseContext12ParseMessageINS1_12MapFieldLiteIN13assist_ranker35SparseWeights_WeightsEntry_DoNotUseENSt3__112basic_stringIcNS7_11char_traitsIcEENS7_9allocatorIcEEEEfLNS1_14WireFormatLite9FieldTypeE9ELSF_2EEEEEPKcPT_SI_(%"class.google::protobuf::internal::ParseContext"*, %"class.google::protobuf::internal::MapFieldLite"*, i8*) local_unnamed_addr #0 comdat align 2 {
  %4 = alloca %"class.google::protobuf::internal::MapEntryImpl<assist_ranker::SparseWeights_WeightsEntry_DoNotUse, google::protobuf::MessageLite, std::__1::basic_string<char, std::__1::char_traits<char>, std::__1::allocator<char> >, float, google::protobuf::internal::WireFormatLite::TYPE_STRING, google::protobuf::internal::WireFormatLite::TYPE_FLOAT>::Parser", align 8
  %5 = load i8, i8* %2, align 1
  %6 = zext i8 %5 to i32
  %7 = icmp sgt i8 %5, -1
  br i1 %7, label %8, label %10

8:                                                ; preds = %3
  %9 = getelementptr inbounds i8, i8* %2, i64 1
  br label %14

10:                                               ; preds = %3
  %11 = tail call { i8*, i32 } @_ZN6google8protobuf8internal16ReadSizeFallbackEPKcj(i8* %2, i32 %6) #16
  %12 = extractvalue { i8*, i32 } %11, 0
  %13 = extractvalue { i8*, i32 } %11, 1
  br label %14

14:                                               ; preds = %8, %10
  %15 = phi i8* [ %12, %10 ], [ %9, %8 ]
  %16 = phi i32 [ %13, %10 ], [ %6, %8 ]
  %17 = icmp eq i8* %15, null
  br i1 %17, label %97, label %18

18:                                               ; preds = %14
  %19 = getelementptr inbounds %"class.google::protobuf::internal::ParseContext", %"class.google::protobuf::internal::ParseContext"* %0, i64 0, i32 0, i32 1
  %20 = bitcast i8** %19 to i64*
  %21 = load i64, i64* %20, align 8
  %22 = ptrtoint i8* %15 to i64
  %23 = sub i64 %22, %21
  %24 = trunc i64 %23 to i32
  %25 = add nsw i32 %16, %24
  %26 = inttoptr i64 %21 to i8*
  %27 = icmp slt i32 %25, 0
  %28 = select i1 %27, i32 %25, i32 0
  %29 = sext i32 %28 to i64
  %30 = getelementptr inbounds i8, i8* %26, i64 %29
  %31 = getelementptr inbounds %"class.google::protobuf::internal::ParseContext", %"class.google::protobuf::internal::ParseContext"* %0, i64 0, i32 0, i32 0
  store i8* %30, i8** %31, align 8
  %32 = getelementptr inbounds %"class.google::protobuf::internal::ParseContext", %"class.google::protobuf::internal::ParseContext"* %0, i64 0, i32 0, i32 4
  %33 = load i32, i32* %32, align 4
  store i32 %25, i32* %32, align 4
  %34 = sub nsw i32 %33, %25
  %35 = getelementptr inbounds %"class.google::protobuf::internal::ParseContext", %"class.google::protobuf::internal::ParseContext"* %0, i64 0, i32 1
  %36 = load i32, i32* %35, align 8
  %37 = add nsw i32 %36, -1
  store i32 %37, i32* %35, align 8
  %38 = icmp slt i32 %36, 1
  br i1 %38, label %97, label %39

39:                                               ; preds = %18
  %40 = bitcast %"class.google::protobuf::internal::MapEntryImpl<assist_ranker::SparseWeights_WeightsEntry_DoNotUse, google::protobuf::MessageLite, std::__1::basic_string<char, std::__1::char_traits<char>, std::__1::allocator<char> >, float, google::protobuf::internal::WireFormatLite::TYPE_STRING, google::protobuf::internal::WireFormatLite::TYPE_FLOAT>::Parser"* %4 to i8*
  call void @llvm.lifetime.start.p0i8(i64 56, i8* nonnull %40) #16
  %41 = getelementptr inbounds %"class.google::protobuf::internal::MapEntryImpl<assist_ranker::SparseWeights_WeightsEntry_DoNotUse, google::protobuf::MessageLite, std::__1::basic_string<char, std::__1::char_traits<char>, std::__1::allocator<char> >, float, google::protobuf::internal::WireFormatLite::TYPE_STRING, google::protobuf::internal::WireFormatLite::TYPE_FLOAT>::Parser", %"class.google::protobuf::internal::MapEntryImpl<assist_ranker::SparseWeights_WeightsEntry_DoNotUse, google::protobuf::MessageLite, std::__1::basic_string<char, std::__1::char_traits<char>, std::__1::allocator<char> >, float, google::protobuf::internal::WireFormatLite::TYPE_STRING, google::protobuf::internal::WireFormatLite::TYPE_FLOAT>::Parser"* %4, i64 0, i32 3
  %42 = bitcast float** %41 to i64*
  store i64 -6148914691236517206, i64* %42, align 8
  %43 = getelementptr inbounds %"class.google::protobuf::internal::MapEntryImpl<assist_ranker::SparseWeights_WeightsEntry_DoNotUse, google::protobuf::MessageLite, std::__1::basic_string<char, std::__1::char_traits<char>, std::__1::allocator<char> >, float, google::protobuf::internal::WireFormatLite::TYPE_STRING, google::protobuf::internal::WireFormatLite::TYPE_FLOAT>::Parser", %"class.google::protobuf::internal::MapEntryImpl<assist_ranker::SparseWeights_WeightsEntry_DoNotUse, google::protobuf::MessageLite, std::__1::basic_string<char, std::__1::char_traits<char>, std::__1::allocator<char> >, float, google::protobuf::internal::WireFormatLite::TYPE_STRING, google::protobuf::internal::WireFormatLite::TYPE_FLOAT>::Parser"* %4, i64 0, i32 0
  store %"class.google::protobuf::internal::MapFieldLite"* %1, %"class.google::protobuf::internal::MapFieldLite"** %43, align 8
  %44 = getelementptr inbounds %"class.google::protobuf::internal::MapEntryImpl<assist_ranker::SparseWeights_WeightsEntry_DoNotUse, google::protobuf::MessageLite, std::__1::basic_string<char, std::__1::char_traits<char>, std::__1::allocator<char> >, float, google::protobuf::internal::WireFormatLite::TYPE_STRING, google::protobuf::internal::WireFormatLite::TYPE_FLOAT>::Parser", %"class.google::protobuf::internal::MapEntryImpl<assist_ranker::SparseWeights_WeightsEntry_DoNotUse, google::protobuf::MessageLite, std::__1::basic_string<char, std::__1::char_traits<char>, std::__1::allocator<char> >, float, google::protobuf::internal::WireFormatLite::TYPE_STRING, google::protobuf::internal::WireFormatLite::TYPE_FLOAT>::Parser"* %4, i64 0, i32 1
  %45 = getelementptr inbounds %"class.google::protobuf::internal::MapFieldLite", %"class.google::protobuf::internal::MapFieldLite"* %1, i64 0, i32 0
  store %"class.google::protobuf::Map"* %45, %"class.google::protobuf::Map"** %44, align 8
  %46 = getelementptr inbounds %"class.google::protobuf::internal::MapEntryImpl<assist_ranker::SparseWeights_WeightsEntry_DoNotUse, google::protobuf::MessageLite, std::__1::basic_string<char, std::__1::char_traits<char>, std::__1::allocator<char> >, float, google::protobuf::internal::WireFormatLite::TYPE_STRING, google::protobuf::internal::WireFormatLite::TYPE_FLOAT>::Parser", %"class.google::protobuf::internal::MapEntryImpl<assist_ranker::SparseWeights_WeightsEntry_DoNotUse, google::protobuf::MessageLite, std::__1::basic_string<char, std::__1::char_traits<char>, std::__1::allocator<char> >, float, google::protobuf::internal::WireFormatLite::TYPE_STRING, google::protobuf::internal::WireFormatLite::TYPE_FLOAT>::Parser"* %4, i64 0, i32 2
  %47 = bitcast %"class.std::__1::basic_string"* %46 to i8*
  call void @llvm.memset.p0i8.i64(i8* align 8 %47, i8 0, i64 24, i1 false) #16
  %48 = getelementptr inbounds %"class.google::protobuf::internal::MapEntryImpl<assist_ranker::SparseWeights_WeightsEntry_DoNotUse, google::protobuf::MessageLite, std::__1::basic_string<char, std::__1::char_traits<char>, std::__1::allocator<char> >, float, google::protobuf::internal::WireFormatLite::TYPE_STRING, google::protobuf::internal::WireFormatLite::TYPE_FLOAT>::Parser", %"class.google::protobuf::internal::MapEntryImpl<assist_ranker::SparseWeights_WeightsEntry_DoNotUse, google::protobuf::MessageLite, std::__1::basic_string<char, std::__1::char_traits<char>, std::__1::allocator<char> >, float, google::protobuf::internal::WireFormatLite::TYPE_STRING, google::protobuf::internal::WireFormatLite::TYPE_FLOAT>::Parser"* %4, i64 0, i32 4
  store %"class.google::protobuf::internal::MapEntryImpl"* null, %"class.google::protobuf::internal::MapEntryImpl"** %48, align 8
  %49 = call i8* @_ZN6google8protobuf8internal12MapEntryImplIN13assist_ranker35SparseWeights_WeightsEntry_DoNotUseENS0_11MessageLiteENSt3__112basic_stringIcNS6_11char_traitsIcEENS6_9allocatorIcEEEEfLNS1_14WireFormatLite9FieldTypeE9ELSE_2EE6ParserINS1_12MapFieldLiteIS4_SC_fLSE_9ELSE_2EEENS0_3MapISC_fEEE14_InternalParseEPKcPNS1_12ParseContextE(%"class.google::protobuf::internal::MapEntryImpl<assist_ranker::SparseWeights_WeightsEntry_DoNotUse, google::protobuf::MessageLite, std::__1::basic_string<char, std::__1::char_traits<char>, std::__1::allocator<char> >, float, google::protobuf::internal::WireFormatLite::TYPE_STRING, google::protobuf::internal::WireFormatLite::TYPE_FLOAT>::Parser"* nonnull %4, i8* nonnull %15, %"class.google::protobuf::internal::ParseContext"* %0) #16
  %50 = load %"class.google::protobuf::internal::MapEntryImpl"*, %"class.google::protobuf::internal::MapEntryImpl"** %48, align 8
  %51 = icmp eq %"class.google::protobuf::internal::MapEntryImpl"* %50, null
  br i1 %51, label %73, label %52

52:                                               ; preds = %39
  %53 = getelementptr inbounds %"class.google::protobuf::internal::MapEntryImpl", %"class.google::protobuf::internal::MapEntryImpl"* %50, i64 0, i32 0, i32 1
  %54 = bitcast %"class.google::protobuf::internal::InternalMetadata"* %53 to i64*
  %55 = load i64, i64* %54, align 8
  %56 = and i64 %55, 1
  %57 = icmp eq i64 %56, 0
  %58 = and i64 %55, -2
  br i1 %57, label %63, label %59, !prof !2

59:                                               ; preds = %52
  %60 = inttoptr i64 %58 to %"struct.google::protobuf::internal::InternalMetadata::ContainerBase"*
  %61 = getelementptr inbounds %"struct.google::protobuf::internal::InternalMetadata::ContainerBase", %"struct.google::protobuf::internal::InternalMetadata::ContainerBase"* %60, i64 0, i32 0
  %62 = load %"class.google::protobuf::Arena"*, %"class.google::protobuf::Arena"** %61, align 8
  br label %65

63:                                               ; preds = %52
  %64 = inttoptr i64 %58 to %"class.google::protobuf::Arena"*
  br label %65

65:                                               ; preds = %63, %59
  %66 = phi %"class.google::protobuf::Arena"* [ %62, %59 ], [ %64, %63 ]
  %67 = icmp eq %"class.google::protobuf::Arena"* %66, null
  br i1 %67, label %68, label %73

68:                                               ; preds = %65
  %69 = bitcast %"class.google::protobuf::internal::MapEntryImpl"* %50 to void (%"class.google::protobuf::internal::MapEntryImpl"*)***
  %70 = load void (%"class.google::protobuf::internal::MapEntryImpl"*)**, void (%"class.google::protobuf::internal::MapEntryImpl"*)*** %69, align 8
  %71 = getelementptr inbounds void (%"class.google::protobuf::internal::MapEntryImpl"*)*, void (%"class.google::protobuf::internal::MapEntryImpl"*)** %70, i64 1
  %72 = load void (%"class.google::protobuf::internal::MapEntryImpl"*)*, void (%"class.google::protobuf::internal::MapEntryImpl"*)** %71, align 8
  call void %72(%"class.google::protobuf::internal::MapEntryImpl"* nonnull %50) #16
  br label %73

73:                                               ; preds = %68, %65, %39
  %74 = bitcast %"class.std::__1::basic_string"* %46 to %"struct.std::__1::basic_string<char, std::__1::char_traits<char>, std::__1::allocator<char> >::__short"*
  %75 = getelementptr inbounds %"struct.std::__1::basic_string<char, std::__1::char_traits<char>, std::__1::allocator<char> >::__short", %"struct.std::__1::basic_string<char, std::__1::char_traits<char>, std::__1::allocator<char> >::__short"* %74, i64 0, i32 1, i32 0
  %76 = load i8, i8* %75, align 1
  %77 = icmp slt i8 %76, 0
  br i1 %77, label %78, label %81

78:                                               ; preds = %73
  %79 = getelementptr inbounds %"class.std::__1::basic_string", %"class.std::__1::basic_string"* %46, i64 0, i32 0, i32 0, i32 0, i32 0, i32 0, i32 0
  %80 = load i8*, i8** %79, align 8
  call void @_ZdlPv(i8* %80) #17
  br label %81

81:                                               ; preds = %73, %78
  call void @llvm.lifetime.end.p0i8(i64 56, i8* nonnull %40) #16
  %82 = icmp eq i8* %49, null
  br i1 %82, label %97, label %83, !prof !4

83:                                               ; preds = %81
  %84 = load i32, i32* %35, align 8
  %85 = add nsw i32 %84, 1
  store i32 %85, i32* %35, align 8
  %86 = getelementptr inbounds %"class.google::protobuf::internal::ParseContext", %"class.google::protobuf::internal::ParseContext"* %0, i64 0, i32 0, i32 8
  %87 = load i32, i32* %86, align 8
  %88 = icmp eq i32 %87, 0
  br i1 %88, label %89, label %97, !prof !2

89:                                               ; preds = %83
  %90 = load i32, i32* %32, align 4
  %91 = add nsw i32 %90, %34
  store i32 %91, i32* %32, align 4
  %92 = load i8*, i8** %19, align 8
  %93 = icmp slt i32 %91, 0
  %94 = select i1 %93, i32 %91, i32 0
  %95 = sext i32 %94 to i64
  %96 = getelementptr inbounds i8, i8* %92, i64 %95
  store i8* %96, i8** %31, align 8
  br label %97

97:                                               ; preds = %14, %81, %18, %83, %89
  %98 = phi i8* [ %49, %89 ], [ null, %83 ], [ null, %18 ], [ null, %81 ], [ null, %14 ]
  ret i8* %98
}

declare i8* @_ZN6google8protobuf8internal17UnknownFieldParseEjPNSt3__112basic_stringIcNS2_11char_traitsIcEENS2_9allocatorIcEEEEPKcPNS1_12ParseContextE(i32, %"class.std::__1::basic_string"*, i8*, %"class.google::protobuf::internal::ParseContext"*) local_unnamed_addr #6

; Function Attrs: nounwind ssp uwtable
define hidden i8* @_ZNK13assist_ranker13SparseWeights18_InternalSerializeEPhPN6google8protobuf2io19EpsCopyOutputStreamE(%"class.assist_ranker::SparseWeights"*, i8*, %"class.google::protobuf::io::EpsCopyOutputStream"*) unnamed_addr #0 align 2 {
  %4 = alloca %"struct.google::protobuf::internal::CompareByDerefFirst", align 1
  %5 = alloca %"class.google::protobuf::Map<std::__1::basic_string<char, std::__1::char_traits<char>, std::__1::allocator<char> >, float>::const_iterator", align 8
  %6 = alloca %"class.google::protobuf::Map<std::__1::basic_string<char, std::__1::char_traits<char>, std::__1::allocator<char> >, float>::const_iterator", align 8
  %7 = getelementptr inbounds %"class.assist_ranker::SparseWeights", %"class.assist_ranker::SparseWeights"* %0, i64 0, i32 3, i32 0
  %8 = getelementptr inbounds %"class.google::protobuf::Map", %"class.google::protobuf::Map"* %7, i64 0, i32 0, i32 0
  %9 = load i64, i64* %8, align 8
  %10 = icmp eq i64 %9, 0
  br i1 %10, label %152, label %11

11:                                               ; preds = %3
  %12 = getelementptr inbounds %"class.google::protobuf::io::EpsCopyOutputStream", %"class.google::protobuf::io::EpsCopyOutputStream"* %2, i64 0, i32 6
  %13 = load i8, i8* %12, align 2, !range !11
  %14 = icmp ne i8 %13, 0
  %15 = icmp ne i64 %9, 1
  %16 = and i1 %15, %14
  br i1 %16, label %17, label %95

17:                                               ; preds = %11
  %18 = tail call { i64, i1 } @llvm.umul.with.overflow.i64(i64 %9, i64 8)
  %19 = extractvalue { i64, i1 } %18, 1
  %20 = extractvalue { i64, i1 } %18, 0
  %21 = select i1 %19, i64 -1, i64 %20
  %22 = tail call i8* @_Znam(i64 %21) #17
  %23 = bitcast i8* %22 to %"struct.google::protobuf::MapPair"**
  %24 = bitcast %"class.google::protobuf::Map<std::__1::basic_string<char, std::__1::char_traits<char>, std::__1::allocator<char> >, float>::const_iterator"* %5 to i8*
  call void @llvm.lifetime.start.p0i8(i64 24, i8* nonnull %24) #16
  %25 = getelementptr inbounds %"class.google::protobuf::Map<std::__1::basic_string<char, std::__1::char_traits<char>, std::__1::allocator<char> >, float>::const_iterator", %"class.google::protobuf::Map<std::__1::basic_string<char, std::__1::char_traits<char>, std::__1::allocator<char> >, float>::const_iterator"* %5, i64 0, i32 0, i32 0
  %26 = getelementptr inbounds %"class.google::protobuf::Map<std::__1::basic_string<char, std::__1::char_traits<char>, std::__1::allocator<char> >, float>::const_iterator", %"class.google::protobuf::Map<std::__1::basic_string<char, std::__1::char_traits<char>, std::__1::allocator<char> >, float>::const_iterator"* %5, i64 0, i32 0, i32 1
  %27 = getelementptr inbounds %"class.google::protobuf::Map<std::__1::basic_string<char, std::__1::char_traits<char>, std::__1::allocator<char> >, float>::const_iterator", %"class.google::protobuf::Map<std::__1::basic_string<char, std::__1::char_traits<char>, std::__1::allocator<char> >, float>::const_iterator"* %5, i64 0, i32 0, i32 2
  %28 = getelementptr inbounds %"class.google::protobuf::Map", %"class.google::protobuf::Map"* %7, i64 0, i32 0
  %29 = getelementptr inbounds %"class.assist_ranker::SparseWeights", %"class.assist_ranker::SparseWeights"* %0, i64 0, i32 3, i32 0, i32 0, i32 3
  %30 = bitcast %"class.google::protobuf::Map<std::__1::basic_string<char, std::__1::char_traits<char>, std::__1::allocator<char> >, float>::const_iterator"* %5 to i8*
  call void @llvm.memset.p0i8.i64(i8* nonnull align 8 %30, i8 -86, i64 24, i1 false)
  %31 = load i64, i64* %29, align 8, !noalias !12
  %32 = getelementptr inbounds %"class.assist_ranker::SparseWeights", %"class.assist_ranker::SparseWeights"* %0, i64 0, i32 3, i32 0, i32 0, i32 1
  %33 = load i64, i64* %32, align 8, !noalias !12
  %34 = icmp ugt i64 %33, %31
  br i1 %34, label %35, label %59

35:                                               ; preds = %17
  %36 = getelementptr inbounds %"class.assist_ranker::SparseWeights", %"class.assist_ranker::SparseWeights"* %0, i64 0, i32 3, i32 0, i32 0, i32 4
  %37 = load i8**, i8*** %36, align 8, !noalias !12
  br label %38

38:                                               ; preds = %56, %35
  %39 = phi i64 [ %31, %35 ], [ %57, %56 ]
  %40 = getelementptr inbounds i8*, i8** %37, i64 %39
  %41 = load i8*, i8** %40, align 8, !noalias !12
  %42 = icmp eq i8* %41, null
  br i1 %42, label %56, label %43

43:                                               ; preds = %38
  %44 = xor i64 %39, 1
  %45 = getelementptr inbounds i8*, i8** %37, i64 %44
  %46 = load i8*, i8** %45, align 8, !noalias !12
  %47 = icmp eq i8* %41, %46
  br i1 %47, label %50, label %48

48:                                               ; preds = %43
  %49 = ptrtoint i8* %41 to i64
  br label %62

50:                                               ; preds = %43
  %51 = bitcast i8* %41 to %"class.std::__1::__tree_end_node"**
  %52 = load %"class.std::__1::__tree_end_node"*, %"class.std::__1::__tree_end_node"** %51, align 8, !noalias !12
  %53 = getelementptr inbounds %"class.std::__1::__tree_end_node", %"class.std::__1::__tree_end_node"* %52, i64 5
  %54 = bitcast %"class.std::__1::__tree_end_node"* %53 to i64*
  %55 = load i64, i64* %54, align 8, !noalias !12
  br label %62

56:                                               ; preds = %38
  %57 = add i64 %39, 1
  %58 = icmp eq i64 %57, %33
  br i1 %58, label %59, label %38

59:                                               ; preds = %56, %17
  %60 = phi i64 [ %31, %17 ], [ %33, %56 ]
  %61 = bitcast %"class.google::protobuf::Map<std::__1::basic_string<char, std::__1::char_traits<char>, std::__1::allocator<char> >, float>::const_iterator"* %5 to i64*
  store i64 0, i64* %61, align 8, !alias.scope !17
  store %"class.google::protobuf::Map<std::__1::basic_string<char, std::__1::char_traits<char>, std::__1::allocator<char> >, float>::InnerMap"* %28, %"class.google::protobuf::Map<std::__1::basic_string<char, std::__1::char_traits<char>, std::__1::allocator<char> >, float>::InnerMap"** %26, align 8, !alias.scope !17
  store i64 %60, i64* %27, align 8, !alias.scope !17
  br label %69

62:                                               ; preds = %48, %50
  %63 = phi i64 [ %55, %50 ], [ %49, %48 ]
  %64 = bitcast %"class.google::protobuf::Map<std::__1::basic_string<char, std::__1::char_traits<char>, std::__1::allocator<char> >, float>::const_iterator"* %5 to i64*
  store i64 %63, i64* %64, align 8, !alias.scope !17
  store %"class.google::protobuf::Map<std::__1::basic_string<char, std::__1::char_traits<char>, std::__1::allocator<char> >, float>::InnerMap"* %28, %"class.google::protobuf::Map<std::__1::basic_string<char, std::__1::char_traits<char>, std::__1::allocator<char> >, float>::InnerMap"** %26, align 8, !alias.scope !17
  store i64 %39, i64* %27, align 8, !alias.scope !17
  %65 = icmp eq i64 %63, 0
  br i1 %65, label %69, label %66

66:                                               ; preds = %62
  %67 = inttoptr i64 %63 to %"struct.google::protobuf::Map<std::__1::basic_string<char, std::__1::char_traits<char>, std::__1::allocator<char> >, float>::InnerMap::Node"*
  %68 = getelementptr inbounds %"class.google::protobuf::Map<std::__1::basic_string<char, std::__1::char_traits<char>, std::__1::allocator<char> >, float>::const_iterator", %"class.google::protobuf::Map<std::__1::basic_string<char, std::__1::char_traits<char>, std::__1::allocator<char> >, float>::const_iterator"* %5, i64 0, i32 0
  br label %74

69:                                               ; preds = %74, %59, %62
  %70 = phi i64 [ 0, %62 ], [ 0, %59 ], [ %80, %74 ]
  call void @llvm.lifetime.end.p0i8(i64 24, i8* nonnull %24) #16
  %71 = getelementptr inbounds %"struct.google::protobuf::MapPair"*, %"struct.google::protobuf::MapPair"** %23, i64 %70
  %72 = getelementptr inbounds %"struct.google::protobuf::internal::CompareByDerefFirst", %"struct.google::protobuf::internal::CompareByDerefFirst"* %4, i64 0, i32 0
  call void @llvm.lifetime.start.p0i8(i64 1, i8* nonnull %72)
  call void @_ZNSt3__16__sortIRN6google8protobuf8internal19CompareByDerefFirstIPKNS2_7MapPairINS_12basic_stringIcNS_11char_traitsIcEENS_9allocatorIcEEEEfEEEEPSE_EEvT0_SI_T_(%"struct.google::protobuf::MapPair"** nonnull %23, %"struct.google::protobuf::MapPair"** %71, %"struct.google::protobuf::internal::CompareByDerefFirst"* nonnull dereferenceable(1) %4) #16
  call void @llvm.lifetime.end.p0i8(i64 1, i8* nonnull %72)
  %73 = icmp eq i64 %70, 0
  br i1 %73, label %83, label %85

74:                                               ; preds = %66, %74
  %75 = phi i64 [ 0, %66 ], [ %80, %74 ]
  %76 = phi %"struct.google::protobuf::Map<std::__1::basic_string<char, std::__1::char_traits<char>, std::__1::allocator<char> >, float>::InnerMap::Node"* [ %67, %66 ], [ %81, %74 ]
  %77 = getelementptr inbounds %"struct.google::protobuf::Map<std::__1::basic_string<char, std::__1::char_traits<char>, std::__1::allocator<char> >, float>::InnerMap::Node", %"struct.google::protobuf::Map<std::__1::basic_string<char, std::__1::char_traits<char>, std::__1::allocator<char> >, float>::InnerMap::Node"* %76, i64 0, i32 0
  %78 = getelementptr inbounds %"struct.google::protobuf::MapPair"*, %"struct.google::protobuf::MapPair"** %23, i64 %75
  store %"struct.google::protobuf::MapPair"* %77, %"struct.google::protobuf::MapPair"** %78, align 8
  %79 = call dereferenceable(24) %"class.google::protobuf::Map<std::__1::basic_string<char, std::__1::char_traits<char>, std::__1::allocator<char> >, float>::InnerMap::iterator_base"* @_ZN6google8protobuf3MapINSt3__112basic_stringIcNS2_11char_traitsIcEENS2_9allocatorIcEEEEfE8InnerMap13iterator_baseIKNS0_7MapPairIS8_fEEEppEv(%"class.google::protobuf::Map<std::__1::basic_string<char, std::__1::char_traits<char>, std::__1::allocator<char> >, float>::InnerMap::iterator_base"* nonnull %68) #16
  %80 = add i64 %75, 1
  %81 = load %"struct.google::protobuf::Map<std::__1::basic_string<char, std::__1::char_traits<char>, std::__1::allocator<char> >, float>::InnerMap::Node"*, %"struct.google::protobuf::Map<std::__1::basic_string<char, std::__1::char_traits<char>, std::__1::allocator<char> >, float>::InnerMap::Node"** %25, align 8
  %82 = icmp eq %"struct.google::protobuf::Map<std::__1::basic_string<char, std::__1::char_traits<char>, std::__1::allocator<char> >, float>::InnerMap::Node"* %81, null
  br i1 %82, label %69, label %74

83:                                               ; preds = %85, %69
  %84 = phi i8* [ %1, %69 ], [ %92, %85 ]
  call void @_ZdaPv(i8* nonnull %22) #17
  br label %152

85:                                               ; preds = %69, %85
  %86 = phi i64 [ %93, %85 ], [ 0, %69 ]
  %87 = phi i8* [ %92, %85 ], [ %1, %69 ]
  %88 = getelementptr inbounds %"struct.google::protobuf::MapPair"*, %"struct.google::protobuf::MapPair"** %23, i64 %86
  %89 = load %"struct.google::protobuf::MapPair"*, %"struct.google::protobuf::MapPair"** %88, align 8
  %90 = getelementptr inbounds %"struct.google::protobuf::MapPair", %"struct.google::protobuf::MapPair"* %89, i64 0, i32 0
  %91 = getelementptr inbounds %"struct.google::protobuf::MapPair", %"struct.google::protobuf::MapPair"* %89, i64 0, i32 1
  %92 = call i8* @_ZN6google8protobuf8internal13MapEntryFuncsINSt3__112basic_stringIcNS3_11char_traitsIcEENS3_9allocatorIcEEEEfLNS1_14WireFormatLite9FieldTypeE9ELSB_2EE17InternalSerializeEiRKS9_RKfPhPNS0_2io19EpsCopyOutputStreamE(i32 1, %"class.std::__1::basic_string"* dereferenceable(24) %90, float* dereferenceable(4) %91, i8* %87, %"class.google::protobuf::io::EpsCopyOutputStream"* %2)
  %93 = add nuw i64 %86, 1
  %94 = icmp eq i64 %93, %70
  br i1 %94, label %83, label %85

95:                                               ; preds = %11
  %96 = bitcast %"class.google::protobuf::Map<std::__1::basic_string<char, std::__1::char_traits<char>, std::__1::allocator<char> >, float>::const_iterator"* %6 to i8*
  call void @llvm.lifetime.start.p0i8(i64 24, i8* nonnull %96) #16
  %97 = getelementptr inbounds %"class.google::protobuf::Map<std::__1::basic_string<char, std::__1::char_traits<char>, std::__1::allocator<char> >, float>::const_iterator", %"class.google::protobuf::Map<std::__1::basic_string<char, std::__1::char_traits<char>, std::__1::allocator<char> >, float>::const_iterator"* %6, i64 0, i32 0, i32 0
  %98 = getelementptr inbounds %"class.google::protobuf::Map<std::__1::basic_string<char, std::__1::char_traits<char>, std::__1::allocator<char> >, float>::const_iterator", %"class.google::protobuf::Map<std::__1::basic_string<char, std::__1::char_traits<char>, std::__1::allocator<char> >, float>::const_iterator"* %6, i64 0, i32 0, i32 1
  %99 = getelementptr inbounds %"class.google::protobuf::Map<std::__1::basic_string<char, std::__1::char_traits<char>, std::__1::allocator<char> >, float>::const_iterator", %"class.google::protobuf::Map<std::__1::basic_string<char, std::__1::char_traits<char>, std::__1::allocator<char> >, float>::const_iterator"* %6, i64 0, i32 0, i32 2
  %100 = getelementptr inbounds %"class.google::protobuf::Map", %"class.google::protobuf::Map"* %7, i64 0, i32 0
  %101 = getelementptr inbounds %"class.assist_ranker::SparseWeights", %"class.assist_ranker::SparseWeights"* %0, i64 0, i32 3, i32 0, i32 0, i32 3
  %102 = bitcast %"class.google::protobuf::Map<std::__1::basic_string<char, std::__1::char_traits<char>, std::__1::allocator<char> >, float>::const_iterator"* %6 to i8*
  call void @llvm.memset.p0i8.i64(i8* nonnull align 8 %102, i8 -86, i64 24, i1 false)
  %103 = load i64, i64* %101, align 8, !noalias !18
  %104 = getelementptr inbounds %"class.assist_ranker::SparseWeights", %"class.assist_ranker::SparseWeights"* %0, i64 0, i32 3, i32 0, i32 0, i32 1
  %105 = load i64, i64* %104, align 8, !noalias !18
  %106 = icmp ugt i64 %105, %103
  br i1 %106, label %107, label %131

107:                                              ; preds = %95
  %108 = getelementptr inbounds %"class.assist_ranker::SparseWeights", %"class.assist_ranker::SparseWeights"* %0, i64 0, i32 3, i32 0, i32 0, i32 4
  %109 = load i8**, i8*** %108, align 8, !noalias !18
  br label %110

110:                                              ; preds = %128, %107
  %111 = phi i64 [ %103, %107 ], [ %129, %128 ]
  %112 = getelementptr inbounds i8*, i8** %109, i64 %111
  %113 = load i8*, i8** %112, align 8, !noalias !18
  %114 = icmp eq i8* %113, null
  br i1 %114, label %128, label %115

115:                                              ; preds = %110
  %116 = xor i64 %111, 1
  %117 = getelementptr inbounds i8*, i8** %109, i64 %116
  %118 = load i8*, i8** %117, align 8, !noalias !18
  %119 = icmp eq i8* %113, %118
  br i1 %119, label %122, label %120

120:                                              ; preds = %115
  %121 = ptrtoint i8* %113 to i64
  br label %134

122:                                              ; preds = %115
  %123 = bitcast i8* %113 to %"class.std::__1::__tree_end_node"**
  %124 = load %"class.std::__1::__tree_end_node"*, %"class.std::__1::__tree_end_node"** %123, align 8, !noalias !18
  %125 = getelementptr inbounds %"class.std::__1::__tree_end_node", %"class.std::__1::__tree_end_node"* %124, i64 5
  %126 = bitcast %"class.std::__1::__tree_end_node"* %125 to i64*
  %127 = load i64, i64* %126, align 8, !noalias !18
  br label %134

128:                                              ; preds = %110
  %129 = add i64 %111, 1
  %130 = icmp eq i64 %129, %105
  br i1 %130, label %131, label %110

131:                                              ; preds = %128, %95
  %132 = phi i64 [ %103, %95 ], [ %105, %128 ]
  %133 = bitcast %"class.google::protobuf::Map<std::__1::basic_string<char, std::__1::char_traits<char>, std::__1::allocator<char> >, float>::const_iterator"* %6 to i64*
  store i64 0, i64* %133, align 8, !alias.scope !23
  store %"class.google::protobuf::Map<std::__1::basic_string<char, std::__1::char_traits<char>, std::__1::allocator<char> >, float>::InnerMap"* %100, %"class.google::protobuf::Map<std::__1::basic_string<char, std::__1::char_traits<char>, std::__1::allocator<char> >, float>::InnerMap"** %98, align 8, !alias.scope !23
  store i64 %132, i64* %99, align 8, !alias.scope !23
  br label %141

134:                                              ; preds = %120, %122
  %135 = phi i64 [ %127, %122 ], [ %121, %120 ]
  %136 = bitcast %"class.google::protobuf::Map<std::__1::basic_string<char, std::__1::char_traits<char>, std::__1::allocator<char> >, float>::const_iterator"* %6 to i64*
  store i64 %135, i64* %136, align 8, !alias.scope !23
  store %"class.google::protobuf::Map<std::__1::basic_string<char, std::__1::char_traits<char>, std::__1::allocator<char> >, float>::InnerMap"* %100, %"class.google::protobuf::Map<std::__1::basic_string<char, std::__1::char_traits<char>, std::__1::allocator<char> >, float>::InnerMap"** %98, align 8, !alias.scope !23
  store i64 %111, i64* %99, align 8, !alias.scope !23
  %137 = icmp eq i64 %135, 0
  br i1 %137, label %141, label %138

138:                                              ; preds = %134
  %139 = inttoptr i64 %135 to %"struct.google::protobuf::Map<std::__1::basic_string<char, std::__1::char_traits<char>, std::__1::allocator<char> >, float>::InnerMap::Node"*
  %140 = getelementptr inbounds %"class.google::protobuf::Map<std::__1::basic_string<char, std::__1::char_traits<char>, std::__1::allocator<char> >, float>::const_iterator", %"class.google::protobuf::Map<std::__1::basic_string<char, std::__1::char_traits<char>, std::__1::allocator<char> >, float>::const_iterator"* %6, i64 0, i32 0
  br label %143

141:                                              ; preds = %143, %131, %134
  %142 = phi i8* [ %1, %134 ], [ %1, %131 ], [ %148, %143 ]
  call void @llvm.lifetime.end.p0i8(i64 24, i8* nonnull %96) #16
  br label %152

143:                                              ; preds = %138, %143
  %144 = phi i8* [ %1, %138 ], [ %148, %143 ]
  %145 = phi %"struct.google::protobuf::Map<std::__1::basic_string<char, std::__1::char_traits<char>, std::__1::allocator<char> >, float>::InnerMap::Node"* [ %139, %138 ], [ %150, %143 ]
  %146 = getelementptr inbounds %"struct.google::protobuf::Map<std::__1::basic_string<char, std::__1::char_traits<char>, std::__1::allocator<char> >, float>::InnerMap::Node", %"struct.google::protobuf::Map<std::__1::basic_string<char, std::__1::char_traits<char>, std::__1::allocator<char> >, float>::InnerMap::Node"* %145, i64 0, i32 0, i32 0
  %147 = getelementptr inbounds %"struct.google::protobuf::Map<std::__1::basic_string<char, std::__1::char_traits<char>, std::__1::allocator<char> >, float>::InnerMap::Node", %"struct.google::protobuf::Map<std::__1::basic_string<char, std::__1::char_traits<char>, std::__1::allocator<char> >, float>::InnerMap::Node"* %145, i64 0, i32 0, i32 1
  %148 = call i8* @_ZN6google8protobuf8internal13MapEntryFuncsINSt3__112basic_stringIcNS3_11char_traitsIcEENS3_9allocatorIcEEEEfLNS1_14WireFormatLite9FieldTypeE9ELSB_2EE17InternalSerializeEiRKS9_RKfPhPNS0_2io19EpsCopyOutputStreamE(i32 1, %"class.std::__1::basic_string"* dereferenceable(24) %146, float* dereferenceable(4) %147, i8* %144, %"class.google::protobuf::io::EpsCopyOutputStream"* %2)
  %149 = call dereferenceable(24) %"class.google::protobuf::Map<std::__1::basic_string<char, std::__1::char_traits<char>, std::__1::allocator<char> >, float>::InnerMap::iterator_base"* @_ZN6google8protobuf3MapINSt3__112basic_stringIcNS2_11char_traitsIcEENS2_9allocatorIcEEEEfE8InnerMap13iterator_baseIKNS0_7MapPairIS8_fEEEppEv(%"class.google::protobuf::Map<std::__1::basic_string<char, std::__1::char_traits<char>, std::__1::allocator<char> >, float>::InnerMap::iterator_base"* nonnull %140) #16
  %150 = load %"struct.google::protobuf::Map<std::__1::basic_string<char, std::__1::char_traits<char>, std::__1::allocator<char> >, float>::InnerMap::Node"*, %"struct.google::protobuf::Map<std::__1::basic_string<char, std::__1::char_traits<char>, std::__1::allocator<char> >, float>::InnerMap::Node"** %97, align 8
  %151 = icmp eq %"struct.google::protobuf::Map<std::__1::basic_string<char, std::__1::char_traits<char>, std::__1::allocator<char> >, float>::InnerMap::Node"* %150, null
  br i1 %151, label %141, label %143

152:                                              ; preds = %83, %141, %3
  %153 = phi i8* [ %1, %3 ], [ %84, %83 ], [ %142, %141 ]
  %154 = getelementptr inbounds %"class.assist_ranker::SparseWeights", %"class.assist_ranker::SparseWeights"* %0, i64 0, i32 1, i32 0, i64 0
  %155 = load i32, i32* %154, align 4
  %156 = and i32 %155, 1
  %157 = icmp eq i32 %156, 0
  br i1 %157, label %172, label %158

158:                                              ; preds = %152
  %159 = getelementptr inbounds %"class.google::protobuf::io::EpsCopyOutputStream", %"class.google::protobuf::io::EpsCopyOutputStream"* %2, i64 0, i32 0
  %160 = load i8*, i8** %159, align 8
  %161 = icmp ugt i8* %160, %153
  br i1 %161, label %164, label %162, !prof !2

162:                                              ; preds = %158
  %163 = call i8* @_ZN6google8protobuf2io19EpsCopyOutputStream19EnsureSpaceFallbackEPh(%"class.google::protobuf::io::EpsCopyOutputStream"* %2, i8* %153) #16
  br label %164

164:                                              ; preds = %158, %162
  %165 = phi i8* [ %163, %162 ], [ %153, %158 ]
  %166 = getelementptr inbounds %"class.assist_ranker::SparseWeights", %"class.assist_ranker::SparseWeights"* %0, i64 0, i32 4
  %167 = bitcast float* %166 to i32*
  %168 = load i32, i32* %167, align 8
  store i8 21, i8* %165, align 1
  %169 = getelementptr inbounds i8, i8* %165, i64 1
  %170 = bitcast i8* %169 to i32*
  store i32 %168, i32* %170, align 1
  %171 = getelementptr inbounds i8, i8* %165, i64 5
  br label %172

172:                                              ; preds = %152, %164
  %173 = phi i8* [ %171, %164 ], [ %153, %152 ]
  %174 = getelementptr inbounds %"class.assist_ranker::SparseWeights", %"class.assist_ranker::SparseWeights"* %0, i64 0, i32 0, i32 1
  %175 = bitcast %"class.google::protobuf::internal::InternalMetadata"* %174 to i64*
  %176 = load i64, i64* %175, align 8
  %177 = and i64 %176, 1
  %178 = icmp eq i64 %177, 0
  br i1 %178, label %210, label %179, !prof !2

179:                                              ; preds = %172
  %180 = and i64 %176, -2
  %181 = inttoptr i64 %180 to %"struct.google::protobuf::internal::InternalMetadata::Container"*
  %182 = getelementptr inbounds %"struct.google::protobuf::internal::InternalMetadata::Container", %"struct.google::protobuf::internal::InternalMetadata::Container"* %181, i64 0, i32 1
  %183 = bitcast %"class.std::__1::basic_string"* %182 to %"struct.std::__1::basic_string<char, std::__1::char_traits<char>, std::__1::allocator<char> >::__short"*
  %184 = getelementptr inbounds %"struct.std::__1::basic_string<char, std::__1::char_traits<char>, std::__1::allocator<char> >::__short", %"struct.std::__1::basic_string<char, std::__1::char_traits<char>, std::__1::allocator<char> >::__short"* %183, i64 0, i32 1, i32 0
  %185 = load i8, i8* %184, align 1
  %186 = icmp slt i8 %185, 0
  br i1 %186, label %187, label %192

187:                                              ; preds = %179
  %188 = getelementptr inbounds %"class.std::__1::basic_string", %"class.std::__1::basic_string"* %182, i64 0, i32 0, i32 0, i32 0, i32 0, i32 0, i32 0
  %189 = load i8*, i8** %188, align 8
  %190 = getelementptr inbounds %"struct.google::protobuf::internal::InternalMetadata::Container", %"struct.google::protobuf::internal::InternalMetadata::Container"* %181, i64 0, i32 1, i32 0, i32 0, i32 0, i32 0, i32 0, i32 1
  %191 = load i64, i64* %190, align 8
  br label %195

192:                                              ; preds = %179
  %193 = bitcast %"class.std::__1::basic_string"* %182 to i8*
  %194 = zext i8 %185 to i64
  br label %195

195:                                              ; preds = %187, %192
  %196 = phi i8* [ %189, %187 ], [ %193, %192 ]
  %197 = phi i64 [ %191, %187 ], [ %194, %192 ]
  %198 = bitcast %"class.google::protobuf::io::EpsCopyOutputStream"* %2 to i64*
  %199 = load i64, i64* %198, align 8
  %200 = ptrtoint i8* %173 to i64
  %201 = sub i64 %199, %200
  %202 = shl i64 %197, 32
  %203 = ashr exact i64 %202, 32
  %204 = icmp slt i64 %201, %203
  br i1 %204, label %205, label %208, !prof !4

205:                                              ; preds = %195
  %206 = trunc i64 %197 to i32
  %207 = call i8* @_ZN6google8protobuf2io19EpsCopyOutputStream16WriteRawFallbackEPKviPh(%"class.google::protobuf::io::EpsCopyOutputStream"* %2, i8* %196, i32 %206, i8* %173) #16
  br label %210

208:                                              ; preds = %195
  call void @llvm.memcpy.p0i8.p0i8.i64(i8* align 1 %173, i8* align 1 %196, i64 %203, i1 false) #16
  %209 = getelementptr inbounds i8, i8* %173, i64 %203
  br label %210

210:                                              ; preds = %172, %208, %205
  %211 = phi i8* [ %173, %172 ], [ %207, %205 ], [ %209, %208 ]
  ret i8* %211
}

; Function Attrs: nounwind readnone speculatable
declare { i64, i1 } @llvm.umul.with.overflow.i64(i64, i64) #7

; Function Attrs: nobuiltin nofree
declare noalias nonnull i8* @_Znam(i64) local_unnamed_addr #8

; Function Attrs: nounwind ssp uwtable
define linkonce_odr hidden i8* @_ZN6google8protobuf8internal13MapEntryFuncsINSt3__112basic_stringIcNS3_11char_traitsIcEENS3_9allocatorIcEEEEfLNS1_14WireFormatLite9FieldTypeE9ELSB_2EE17InternalSerializeEiRKS9_RKfPhPNS0_2io19EpsCopyOutputStreamE(i32, %"class.std::__1::basic_string"* dereferenceable(24), float* dereferenceable(4), i8*, %"class.google::protobuf::io::EpsCopyOutputStream"*) local_unnamed_addr #0 comdat align 2 {
  %6 = getelementptr inbounds %"class.google::protobuf::io::EpsCopyOutputStream", %"class.google::protobuf::io::EpsCopyOutputStream"* %4, i64 0, i32 0
  %7 = load i8*, i8** %6, align 8
  %8 = icmp ugt i8* %7, %3
  br i1 %8, label %11, label %9, !prof !2

9:                                                ; preds = %5
  %10 = tail call i8* @_ZN6google8protobuf2io19EpsCopyOutputStream19EnsureSpaceFallbackEPh(%"class.google::protobuf::io::EpsCopyOutputStream"* %4, i8* %3) #16
  br label %11

11:                                               ; preds = %5, %9
  %12 = phi i8* [ %10, %9 ], [ %3, %5 ]
  %13 = shl i32 %0, 3
  %14 = or i32 %13, 2
  %15 = icmp ult i32 %14, 128
  %16 = trunc i32 %14 to i8
  br i1 %15, label %17, label %19

17:                                               ; preds = %11
  store i8 %16, i8* %12, align 1
  %18 = getelementptr inbounds i8, i8* %12, i64 1
  br label %41

19:                                               ; preds = %11
  %20 = or i8 %16, -128
  store i8 %20, i8* %12, align 1
  %21 = lshr i32 %0, 4
  %22 = icmp ult i32 %14, 16384
  br i1 %22, label %23, label %27

23:                                               ; preds = %19
  %24 = trunc i32 %21 to i8
  %25 = getelementptr inbounds i8, i8* %12, i64 1
  store i8 %24, i8* %25, align 1
  %26 = getelementptr inbounds i8, i8* %12, i64 2
  br label %41

27:                                               ; preds = %19
  %28 = and i32 %21, 33554431
  %29 = getelementptr inbounds i8, i8* %12, i64 1
  br label %30

30:                                               ; preds = %30, %27
  %31 = phi i32 [ %28, %27 ], [ %35, %30 ]
  %32 = phi i8* [ %29, %27 ], [ %36, %30 ]
  %33 = trunc i32 %31 to i8
  %34 = or i8 %33, -128
  store i8 %34, i8* %32, align 1
  %35 = lshr i32 %31, 7
  %36 = getelementptr inbounds i8, i8* %32, i64 1
  %37 = icmp ugt i32 %31, 16383
  br i1 %37, label %30, label %38, !prof !4

38:                                               ; preds = %30
  %39 = trunc i32 %35 to i8
  %40 = getelementptr inbounds i8, i8* %32, i64 2
  store i8 %39, i8* %36, align 1
  br label %41

41:                                               ; preds = %17, %23, %38
  %42 = phi i8* [ %18, %17 ], [ %26, %23 ], [ %40, %38 ]
  %43 = bitcast %"class.std::__1::basic_string"* %1 to %"struct.std::__1::basic_string<char, std::__1::char_traits<char>, std::__1::allocator<char> >::__short"*
  %44 = getelementptr inbounds %"struct.std::__1::basic_string<char, std::__1::char_traits<char>, std::__1::allocator<char> >::__short", %"struct.std::__1::basic_string<char, std::__1::char_traits<char>, std::__1::allocator<char> >::__short"* %43, i64 0, i32 1, i32 0
  %45 = load i8, i8* %44, align 1
  %46 = icmp slt i8 %45, 0
  %47 = getelementptr inbounds %"class.std::__1::basic_string", %"class.std::__1::basic_string"* %1, i64 0, i32 0, i32 0, i32 0, i32 0, i32 0, i32 1
  %48 = load i64, i64* %47, align 8
  %49 = zext i8 %45 to i64
  %50 = select i1 %46, i64 %48, i64 %49
  %51 = trunc i64 %50 to i32
  %52 = or i32 %51, 1
  %53 = tail call i32 @llvm.ctlz.i32(i32 %52, i1 true) #16, !range !24
  %54 = xor i32 %53, 31
  %55 = mul nuw nsw i32 %54, 9
  %56 = add nuw nsw i32 %55, 73
  %57 = lshr i32 %56, 6
  %58 = add i32 %51, 6
  %59 = add i32 %58, %57
  %60 = icmp ult i32 %59, 128
  %61 = trunc i32 %59 to i8
  br i1 %60, label %62, label %64

62:                                               ; preds = %41
  store i8 %61, i8* %42, align 1
  %63 = getelementptr inbounds i8, i8* %42, i64 1
  br label %85

64:                                               ; preds = %41
  %65 = or i8 %61, -128
  store i8 %65, i8* %42, align 1
  %66 = lshr i32 %59, 7
  %67 = icmp ult i32 %59, 16384
  br i1 %67, label %68, label %72

68:                                               ; preds = %64
  %69 = trunc i32 %66 to i8
  %70 = getelementptr inbounds i8, i8* %42, i64 1
  store i8 %69, i8* %70, align 1
  %71 = getelementptr inbounds i8, i8* %42, i64 2
  br label %85

72:                                               ; preds = %64
  %73 = getelementptr inbounds i8, i8* %42, i64 1
  br label %74

74:                                               ; preds = %74, %72
  %75 = phi i32 [ %66, %72 ], [ %79, %74 ]
  %76 = phi i8* [ %73, %72 ], [ %80, %74 ]
  %77 = trunc i32 %75 to i8
  %78 = or i8 %77, -128
  store i8 %78, i8* %76, align 1
  %79 = lshr i32 %75, 7
  %80 = getelementptr inbounds i8, i8* %76, i64 1
  %81 = icmp ugt i32 %75, 16383
  br i1 %81, label %74, label %82, !prof !4

82:                                               ; preds = %74
  %83 = trunc i32 %79 to i8
  %84 = getelementptr inbounds i8, i8* %76, i64 2
  store i8 %83, i8* %80, align 1
  br label %85

85:                                               ; preds = %62, %68, %82
  %86 = phi i8* [ %63, %62 ], [ %71, %68 ], [ %84, %82 ]
  %87 = load i8*, i8** %6, align 8
  %88 = icmp ugt i8* %87, %86
  br i1 %88, label %91, label %89, !prof !2

89:                                               ; preds = %85
  %90 = tail call i8* @_ZN6google8protobuf2io19EpsCopyOutputStream19EnsureSpaceFallbackEPh(%"class.google::protobuf::io::EpsCopyOutputStream"* %4, i8* %86) #16
  br label %91

91:                                               ; preds = %89, %85
  %92 = phi i8* [ %90, %89 ], [ %86, %85 ]
  %93 = load i8, i8* %44, align 1
  %94 = icmp slt i8 %93, 0
  br i1 %94, label %97, label %95

95:                                               ; preds = %91
  %96 = zext i8 %93 to i64
  br label %100

97:                                               ; preds = %91
  %98 = load i64, i64* %47, align 8
  %99 = icmp sgt i64 %98, 127
  br i1 %99, label %108, label %100, !prof !4

100:                                              ; preds = %97, %95
  %101 = phi i64 [ %96, %95 ], [ %98, %97 ]
  %102 = bitcast %"class.google::protobuf::io::EpsCopyOutputStream"* %4 to i64*
  %103 = load i64, i64* %102, align 8
  %104 = ptrtoint i8* %92 to i64
  %105 = sub i64 14, %104
  %106 = add i64 %105, %103
  %107 = icmp slt i64 %106, %101
  br i1 %107, label %108, label %110, !prof !4

108:                                              ; preds = %100, %97
  %109 = tail call i8* @_ZN6google8protobuf2io19EpsCopyOutputStream18WriteStringOutlineEjRKNSt3__112basic_stringIcNS3_11char_traitsIcEENS3_9allocatorIcEEEEPh(%"class.google::protobuf::io::EpsCopyOutputStream"* %4, i32 1, %"class.std::__1::basic_string"* dereferenceable(24) %1, i8* %92) #16
  br label %121

110:                                              ; preds = %100
  store i8 10, i8* %92, align 1
  %111 = getelementptr inbounds i8, i8* %92, i64 1
  %112 = trunc i64 %101 to i8
  %113 = getelementptr inbounds i8, i8* %92, i64 2
  store i8 %112, i8* %111, align 1
  %114 = load i8, i8* %44, align 1
  %115 = icmp slt i8 %114, 0
  %116 = getelementptr inbounds %"class.std::__1::basic_string", %"class.std::__1::basic_string"* %1, i64 0, i32 0, i32 0, i32 0, i32 0, i32 0, i32 0
  %117 = load i8*, i8** %116, align 8
  %118 = bitcast %"class.std::__1::basic_string"* %1 to i8*
  %119 = select i1 %115, i8* %117, i8* %118
  tail call void @llvm.memcpy.p0i8.p0i8.i64(i8* align 1 %113, i8* align 1 %119, i64 %101, i1 false) #16
  %120 = getelementptr inbounds i8, i8* %113, i64 %101
  br label %121

121:                                              ; preds = %108, %110
  %122 = phi i8* [ %109, %108 ], [ %120, %110 ]
  %123 = load i8*, i8** %6, align 8
  %124 = icmp ugt i8* %123, %122
  br i1 %124, label %127, label %125, !prof !2

125:                                              ; preds = %121
  %126 = tail call i8* @_ZN6google8protobuf2io19EpsCopyOutputStream19EnsureSpaceFallbackEPh(%"class.google::protobuf::io::EpsCopyOutputStream"* %4, i8* %122) #16
  br label %127

127:                                              ; preds = %121, %125
  %128 = phi i8* [ %126, %125 ], [ %122, %121 ]
  %129 = bitcast float* %2 to i32*
  %130 = load i32, i32* %129, align 4
  store i8 21, i8* %128, align 1
  %131 = getelementptr inbounds i8, i8* %128, i64 1
  %132 = bitcast i8* %131 to i32*
  store i32 %130, i32* %132, align 1
  %133 = getelementptr inbounds i8, i8* %128, i64 5
  ret i8* %133
}

; Function Attrs: nounwind ssp uwtable
define hidden i64 @_ZNK13assist_ranker13SparseWeights12ByteSizeLongEv(%"class.assist_ranker::SparseWeights"*) unnamed_addr #0 align 2 {
  %2 = alloca %"class.google::protobuf::Map<std::__1::basic_string<char, std::__1::char_traits<char>, std::__1::allocator<char> >, float>::const_iterator", align 8
  %3 = getelementptr inbounds %"class.assist_ranker::SparseWeights", %"class.assist_ranker::SparseWeights"* %0, i64 0, i32 3, i32 0, i32 0, i32 0
  %4 = load i64, i64* %3, align 8
  %5 = and i64 %4, 4294967295
  %6 = bitcast %"class.google::protobuf::Map<std::__1::basic_string<char, std::__1::char_traits<char>, std::__1::allocator<char> >, float>::const_iterator"* %2 to i8*
  call void @llvm.lifetime.start.p0i8(i64 24, i8* nonnull %6) #16
  %7 = getelementptr inbounds %"class.google::protobuf::Map<std::__1::basic_string<char, std::__1::char_traits<char>, std::__1::allocator<char> >, float>::const_iterator", %"class.google::protobuf::Map<std::__1::basic_string<char, std::__1::char_traits<char>, std::__1::allocator<char> >, float>::const_iterator"* %2, i64 0, i32 0, i32 0
  %8 = getelementptr inbounds %"class.google::protobuf::Map<std::__1::basic_string<char, std::__1::char_traits<char>, std::__1::allocator<char> >, float>::const_iterator", %"class.google::protobuf::Map<std::__1::basic_string<char, std::__1::char_traits<char>, std::__1::allocator<char> >, float>::const_iterator"* %2, i64 0, i32 0, i32 1
  %9 = getelementptr inbounds %"class.google::protobuf::Map<std::__1::basic_string<char, std::__1::char_traits<char>, std::__1::allocator<char> >, float>::const_iterator", %"class.google::protobuf::Map<std::__1::basic_string<char, std::__1::char_traits<char>, std::__1::allocator<char> >, float>::const_iterator"* %2, i64 0, i32 0, i32 2
  %10 = getelementptr inbounds %"class.assist_ranker::SparseWeights", %"class.assist_ranker::SparseWeights"* %0, i64 0, i32 3, i32 0, i32 0
  %11 = getelementptr inbounds %"class.assist_ranker::SparseWeights", %"class.assist_ranker::SparseWeights"* %0, i64 0, i32 3, i32 0, i32 0, i32 3
  %12 = bitcast %"class.google::protobuf::Map<std::__1::basic_string<char, std::__1::char_traits<char>, std::__1::allocator<char> >, float>::const_iterator"* %2 to i8*
  call void @llvm.memset.p0i8.i64(i8* nonnull align 8 %12, i8 -86, i64 24, i1 false)
  %13 = load i64, i64* %11, align 8, !noalias !25
  %14 = getelementptr inbounds %"class.assist_ranker::SparseWeights", %"class.assist_ranker::SparseWeights"* %0, i64 0, i32 3, i32 0, i32 0, i32 1
  %15 = load i64, i64* %14, align 8, !noalias !25
  %16 = icmp ugt i64 %15, %13
  br i1 %16, label %17, label %41

17:                                               ; preds = %1
  %18 = getelementptr inbounds %"class.assist_ranker::SparseWeights", %"class.assist_ranker::SparseWeights"* %0, i64 0, i32 3, i32 0, i32 0, i32 4
  %19 = load i8**, i8*** %18, align 8, !noalias !25
  br label %20

20:                                               ; preds = %38, %17
  %21 = phi i64 [ %13, %17 ], [ %39, %38 ]
  %22 = getelementptr inbounds i8*, i8** %19, i64 %21
  %23 = load i8*, i8** %22, align 8, !noalias !25
  %24 = icmp eq i8* %23, null
  br i1 %24, label %38, label %25

25:                                               ; preds = %20
  %26 = xor i64 %21, 1
  %27 = getelementptr inbounds i8*, i8** %19, i64 %26
  %28 = load i8*, i8** %27, align 8, !noalias !25
  %29 = icmp eq i8* %23, %28
  br i1 %29, label %32, label %30

30:                                               ; preds = %25
  %31 = ptrtoint i8* %23 to i64
  br label %44

32:                                               ; preds = %25
  %33 = bitcast i8* %23 to %"class.std::__1::__tree_end_node"**
  %34 = load %"class.std::__1::__tree_end_node"*, %"class.std::__1::__tree_end_node"** %33, align 8, !noalias !25
  %35 = getelementptr inbounds %"class.std::__1::__tree_end_node", %"class.std::__1::__tree_end_node"* %34, i64 5
  %36 = bitcast %"class.std::__1::__tree_end_node"* %35 to i64*
  %37 = load i64, i64* %36, align 8, !noalias !25
  br label %44

38:                                               ; preds = %20
  %39 = add i64 %21, 1
  %40 = icmp eq i64 %39, %15
  br i1 %40, label %41, label %20

41:                                               ; preds = %38, %1
  %42 = phi i64 [ %13, %1 ], [ %15, %38 ]
  %43 = bitcast %"class.google::protobuf::Map<std::__1::basic_string<char, std::__1::char_traits<char>, std::__1::allocator<char> >, float>::const_iterator"* %2 to i64*
  store i64 0, i64* %43, align 8, !alias.scope !30
  store %"class.google::protobuf::Map<std::__1::basic_string<char, std::__1::char_traits<char>, std::__1::allocator<char> >, float>::InnerMap"* %10, %"class.google::protobuf::Map<std::__1::basic_string<char, std::__1::char_traits<char>, std::__1::allocator<char> >, float>::InnerMap"** %8, align 8, !alias.scope !30
  store i64 %42, i64* %9, align 8, !alias.scope !30
  br label %51

44:                                               ; preds = %30, %32
  %45 = phi i64 [ %37, %32 ], [ %31, %30 ]
  %46 = bitcast %"class.google::protobuf::Map<std::__1::basic_string<char, std::__1::char_traits<char>, std::__1::allocator<char> >, float>::const_iterator"* %2 to i64*
  store i64 %45, i64* %46, align 8, !alias.scope !30
  store %"class.google::protobuf::Map<std::__1::basic_string<char, std::__1::char_traits<char>, std::__1::allocator<char> >, float>::InnerMap"* %10, %"class.google::protobuf::Map<std::__1::basic_string<char, std::__1::char_traits<char>, std::__1::allocator<char> >, float>::InnerMap"** %8, align 8, !alias.scope !30
  store i64 %21, i64* %9, align 8, !alias.scope !30
  %47 = icmp eq i64 %45, 0
  br i1 %47, label %51, label %48

48:                                               ; preds = %44
  %49 = inttoptr i64 %45 to %"struct.google::protobuf::Map<std::__1::basic_string<char, std::__1::char_traits<char>, std::__1::allocator<char> >, float>::InnerMap::Node"*
  %50 = getelementptr inbounds %"class.google::protobuf::Map<std::__1::basic_string<char, std::__1::char_traits<char>, std::__1::allocator<char> >, float>::const_iterator", %"class.google::protobuf::Map<std::__1::basic_string<char, std::__1::char_traits<char>, std::__1::allocator<char> >, float>::const_iterator"* %2, i64 0, i32 0
  br label %64

51:                                               ; preds = %64, %41, %44
  %52 = phi i64 [ %5, %44 ], [ %5, %41 ], [ %93, %64 ]
  call void @llvm.lifetime.end.p0i8(i64 24, i8* nonnull %6) #16
  %53 = getelementptr inbounds %"class.assist_ranker::SparseWeights", %"class.assist_ranker::SparseWeights"* %0, i64 0, i32 1, i32 0, i64 0
  %54 = load i32, i32* %53, align 4
  %55 = and i32 %54, 1
  %56 = icmp eq i32 %55, 0
  %57 = add i64 %52, 5
  %58 = select i1 %56, i64 %52, i64 %57
  %59 = getelementptr inbounds %"class.assist_ranker::SparseWeights", %"class.assist_ranker::SparseWeights"* %0, i64 0, i32 0, i32 1
  %60 = bitcast %"class.google::protobuf::internal::InternalMetadata"* %59 to i64*
  %61 = load i64, i64* %60, align 8
  %62 = and i64 %61, 1
  %63 = icmp eq i64 %62, 0
  br i1 %63, label %113, label %97, !prof !2

64:                                               ; preds = %48, %64
  %65 = phi i64 [ %5, %48 ], [ %93, %64 ]
  %66 = phi %"struct.google::protobuf::Map<std::__1::basic_string<char, std::__1::char_traits<char>, std::__1::allocator<char> >, float>::InnerMap::Node"* [ %49, %48 ], [ %95, %64 ]
  %67 = bitcast %"struct.google::protobuf::Map<std::__1::basic_string<char, std::__1::char_traits<char>, std::__1::allocator<char> >, float>::InnerMap::Node"* %66 to %"struct.std::__1::basic_string<char, std::__1::char_traits<char>, std::__1::allocator<char> >::__short"*
  %68 = getelementptr inbounds %"struct.std::__1::basic_string<char, std::__1::char_traits<char>, std::__1::allocator<char> >::__short", %"struct.std::__1::basic_string<char, std::__1::char_traits<char>, std::__1::allocator<char> >::__short"* %67, i64 0, i32 1, i32 0
  %69 = load i8, i8* %68, align 1
  %70 = icmp slt i8 %69, 0
  %71 = getelementptr inbounds %"struct.google::protobuf::Map<std::__1::basic_string<char, std::__1::char_traits<char>, std::__1::allocator<char> >, float>::InnerMap::Node", %"struct.google::protobuf::Map<std::__1::basic_string<char, std::__1::char_traits<char>, std::__1::allocator<char> >, float>::InnerMap::Node"* %66, i64 0, i32 0, i32 0, i32 0, i32 0, i32 0, i32 0, i32 0, i32 1
  %72 = load i64, i64* %71, align 8
  %73 = zext i8 %69 to i64
  %74 = select i1 %70, i64 %72, i64 %73
  %75 = trunc i64 %74 to i32
  %76 = or i32 %75, 1
  %77 = call i32 @llvm.ctlz.i32(i32 %76, i1 true) #16, !range !24
  %78 = xor i32 %77, 31
  %79 = mul nuw nsw i32 %78, 9
  %80 = add nuw nsw i32 %79, 73
  %81 = lshr i32 %80, 6
  %82 = add i32 %75, 6
  %83 = add i32 %82, %81
  %84 = sext i32 %83 to i64
  %85 = or i32 %83, 1
  %86 = call i32 @llvm.ctlz.i32(i32 %85, i1 true) #16, !range !24
  %87 = xor i32 %86, 31
  %88 = mul nuw nsw i32 %87, 9
  %89 = add nuw nsw i32 %88, 73
  %90 = lshr i32 %89, 6
  %91 = zext i32 %90 to i64
  %92 = add i64 %65, %84
  %93 = add i64 %92, %91
  %94 = call dereferenceable(24) %"class.google::protobuf::Map<std::__1::basic_string<char, std::__1::char_traits<char>, std::__1::allocator<char> >, float>::InnerMap::iterator_base"* @_ZN6google8protobuf3MapINSt3__112basic_stringIcNS2_11char_traitsIcEENS2_9allocatorIcEEEEfE8InnerMap13iterator_baseIKNS0_7MapPairIS8_fEEEppEv(%"class.google::protobuf::Map<std::__1::basic_string<char, std::__1::char_traits<char>, std::__1::allocator<char> >, float>::InnerMap::iterator_base"* nonnull %50) #16
  %95 = load %"struct.google::protobuf::Map<std::__1::basic_string<char, std::__1::char_traits<char>, std::__1::allocator<char> >, float>::InnerMap::Node"*, %"struct.google::protobuf::Map<std::__1::basic_string<char, std::__1::char_traits<char>, std::__1::allocator<char> >, float>::InnerMap::Node"** %7, align 8
  %96 = icmp eq %"struct.google::protobuf::Map<std::__1::basic_string<char, std::__1::char_traits<char>, std::__1::allocator<char> >, float>::InnerMap::Node"* %95, null
  br i1 %96, label %51, label %64

97:                                               ; preds = %51
  %98 = and i64 %61, -2
  %99 = inttoptr i64 %98 to %"struct.google::protobuf::internal::InternalMetadata::Container"*
  %100 = getelementptr inbounds %"struct.google::protobuf::internal::InternalMetadata::Container", %"struct.google::protobuf::internal::InternalMetadata::Container"* %99, i64 0, i32 1
  %101 = bitcast %"class.std::__1::basic_string"* %100 to %"struct.std::__1::basic_string<char, std::__1::char_traits<char>, std::__1::allocator<char> >::__short"*
  %102 = getelementptr inbounds %"struct.std::__1::basic_string<char, std::__1::char_traits<char>, std::__1::allocator<char> >::__short", %"struct.std::__1::basic_string<char, std::__1::char_traits<char>, std::__1::allocator<char> >::__short"* %101, i64 0, i32 1, i32 0
  %103 = load i8, i8* %102, align 1
  %104 = icmp slt i8 %103, 0
  br i1 %104, label %105, label %108

105:                                              ; preds = %97
  %106 = getelementptr inbounds %"struct.google::protobuf::internal::InternalMetadata::Container", %"struct.google::protobuf::internal::InternalMetadata::Container"* %99, i64 0, i32 1, i32 0, i32 0, i32 0, i32 0, i32 0, i32 1
  %107 = load i64, i64* %106, align 8
  br label %110

108:                                              ; preds = %97
  %109 = zext i8 %103 to i64
  br label %110

110:                                              ; preds = %105, %108
  %111 = phi i64 [ %107, %105 ], [ %109, %108 ]
  %112 = add i64 %111, %58
  br label %113

113:                                              ; preds = %51, %110
  %114 = phi i64 [ %112, %110 ], [ %58, %51 ]
  %115 = trunc i64 %114 to i32
  %116 = getelementptr inbounds %"class.assist_ranker::SparseWeights", %"class.assist_ranker::SparseWeights"* %0, i64 0, i32 2, i32 0, i32 0, i32 0, i32 0, i32 0, i32 0
  store atomic i32 %115, i32* %116 monotonic, align 4
  ret i64 %114
}

; Function Attrs: nounwind ssp uwtable
define hidden void @_ZN13assist_ranker13SparseWeights21CheckTypeAndMergeFromERKN6google8protobuf11MessageLiteE(%"class.assist_ranker::SparseWeights"*, %"class.google::protobuf::MessageLite"* dereferenceable(16)) unnamed_addr #0 align 2 {
  %3 = bitcast %"class.google::protobuf::MessageLite"* %1 to %"class.assist_ranker::SparseWeights"*
  tail call void @_ZN13assist_ranker13SparseWeights9MergeFromERKS0_(%"class.assist_ranker::SparseWeights"* %0, %"class.assist_ranker::SparseWeights"* dereferenceable(80) %3)
  ret void
}

; Function Attrs: nounwind ssp uwtable
define hidden void @_ZN13assist_ranker13SparseWeights9MergeFromERKS0_(%"class.assist_ranker::SparseWeights"*, %"class.assist_ranker::SparseWeights"* dereferenceable(80)) local_unnamed_addr #0 align 2 {
  %3 = alloca %"struct.std::__1::pair.56", align 8
  %4 = alloca %"class.google::protobuf::Map<std::__1::basic_string<char, std::__1::char_traits<char>, std::__1::allocator<char> >, float>::const_iterator", align 8
  %5 = getelementptr inbounds %"class.assist_ranker::SparseWeights", %"class.assist_ranker::SparseWeights"* %0, i64 0, i32 0, i32 1
  %6 = getelementptr inbounds %"class.assist_ranker::SparseWeights", %"class.assist_ranker::SparseWeights"* %1, i64 0, i32 0, i32 1
  %7 = bitcast %"class.google::protobuf::internal::InternalMetadata"* %6 to i64*
  %8 = load i64, i64* %7, align 8
  %9 = and i64 %8, 1
  %10 = icmp eq i64 %9, 0
  br i1 %10, label %40, label %11

11:                                               ; preds = %2
  %12 = and i64 %8, -2
  %13 = inttoptr i64 %12 to %"struct.google::protobuf::internal::InternalMetadata::Container"*
  %14 = getelementptr inbounds %"struct.google::protobuf::internal::InternalMetadata::Container", %"struct.google::protobuf::internal::InternalMetadata::Container"* %13, i64 0, i32 1
  %15 = bitcast %"class.google::protobuf::internal::InternalMetadata"* %5 to i64*
  %16 = load i64, i64* %15, align 8
  %17 = and i64 %16, 1
  %18 = icmp eq i64 %17, 0
  br i1 %18, label %23, label %19, !prof !4

19:                                               ; preds = %11
  %20 = and i64 %16, -2
  %21 = inttoptr i64 %20 to %"struct.google::protobuf::internal::InternalMetadata::Container"*
  %22 = getelementptr inbounds %"struct.google::protobuf::internal::InternalMetadata::Container", %"struct.google::protobuf::internal::InternalMetadata::Container"* %21, i64 0, i32 1
  br label %25

23:                                               ; preds = %11
  %24 = tail call %"class.std::__1::basic_string"* @_ZN6google8protobuf8internal16InternalMetadata27mutable_unknown_fields_slowINSt3__112basic_stringIcNS4_11char_traitsIcEENS4_9allocatorIcEEEEEEPT_v(%"class.google::protobuf::internal::InternalMetadata"* %5) #16
  br label %25

25:                                               ; preds = %23, %19
  %26 = phi %"class.std::__1::basic_string"* [ %22, %19 ], [ %24, %23 ]
  %27 = bitcast %"class.std::__1::basic_string"* %14 to %"struct.std::__1::basic_string<char, std::__1::char_traits<char>, std::__1::allocator<char> >::__short"*
  %28 = getelementptr inbounds %"struct.std::__1::basic_string<char, std::__1::char_traits<char>, std::__1::allocator<char> >::__short", %"struct.std::__1::basic_string<char, std::__1::char_traits<char>, std::__1::allocator<char> >::__short"* %27, i64 0, i32 1, i32 0
  %29 = load i8, i8* %28, align 1
  %30 = icmp slt i8 %29, 0
  %31 = getelementptr inbounds %"class.std::__1::basic_string", %"class.std::__1::basic_string"* %14, i64 0, i32 0, i32 0, i32 0, i32 0, i32 0, i32 0
  %32 = load i8*, i8** %31, align 8
  %33 = getelementptr inbounds %"struct.google::protobuf::internal::InternalMetadata::Container", %"struct.google::protobuf::internal::InternalMetadata::Container"* %13, i64 0, i32 1, i32 0, i32 0, i32 0, i32 0, i32 0, i32 1
  %34 = load i64, i64* %33, align 8
  %35 = bitcast %"class.std::__1::basic_string"* %14 to i8*
  %36 = zext i8 %29 to i64
  %37 = select i1 %30, i8* %32, i8* %35
  %38 = select i1 %30, i64 %34, i64 %36
  %39 = tail call dereferenceable(24) %"class.std::__1::basic_string"* @_ZNSt3__112basic_stringIcNS_11char_traitsIcEENS_9allocatorIcEEE6appendEPKcm(%"class.std::__1::basic_string"* %26, i8* %37, i64 %38) #16
  br label %40

40:                                               ; preds = %2, %25
  %41 = bitcast %"class.google::protobuf::Map<std::__1::basic_string<char, std::__1::char_traits<char>, std::__1::allocator<char> >, float>::const_iterator"* %4 to i8*
  call void @llvm.lifetime.start.p0i8(i64 24, i8* nonnull %41) #16
  %42 = getelementptr inbounds %"class.google::protobuf::Map<std::__1::basic_string<char, std::__1::char_traits<char>, std::__1::allocator<char> >, float>::const_iterator", %"class.google::protobuf::Map<std::__1::basic_string<char, std::__1::char_traits<char>, std::__1::allocator<char> >, float>::const_iterator"* %4, i64 0, i32 0, i32 0
  %43 = getelementptr inbounds %"class.google::protobuf::Map<std::__1::basic_string<char, std::__1::char_traits<char>, std::__1::allocator<char> >, float>::const_iterator", %"class.google::protobuf::Map<std::__1::basic_string<char, std::__1::char_traits<char>, std::__1::allocator<char> >, float>::const_iterator"* %4, i64 0, i32 0, i32 1
  %44 = getelementptr inbounds %"class.google::protobuf::Map<std::__1::basic_string<char, std::__1::char_traits<char>, std::__1::allocator<char> >, float>::const_iterator", %"class.google::protobuf::Map<std::__1::basic_string<char, std::__1::char_traits<char>, std::__1::allocator<char> >, float>::const_iterator"* %4, i64 0, i32 0, i32 2
  %45 = getelementptr inbounds %"class.assist_ranker::SparseWeights", %"class.assist_ranker::SparseWeights"* %1, i64 0, i32 3, i32 0, i32 0
  %46 = getelementptr inbounds %"class.assist_ranker::SparseWeights", %"class.assist_ranker::SparseWeights"* %1, i64 0, i32 3, i32 0, i32 0, i32 3
  call void @llvm.memset.p0i8.i64(i8* nonnull align 8 %41, i8 -86, i64 24, i1 false) #16
  %47 = load i64, i64* %46, align 8, !noalias !31
  %48 = getelementptr inbounds %"class.assist_ranker::SparseWeights", %"class.assist_ranker::SparseWeights"* %1, i64 0, i32 3, i32 0, i32 0, i32 1
  %49 = load i64, i64* %48, align 8, !noalias !31
  %50 = icmp ugt i64 %49, %47
  br i1 %50, label %51, label %75

51:                                               ; preds = %40
  %52 = getelementptr inbounds %"class.assist_ranker::SparseWeights", %"class.assist_ranker::SparseWeights"* %1, i64 0, i32 3, i32 0, i32 0, i32 4
  %53 = load i8**, i8*** %52, align 8, !noalias !31
  br label %54

54:                                               ; preds = %72, %51
  %55 = phi i64 [ %47, %51 ], [ %73, %72 ]
  %56 = getelementptr inbounds i8*, i8** %53, i64 %55
  %57 = load i8*, i8** %56, align 8, !noalias !31
  %58 = icmp eq i8* %57, null
  br i1 %58, label %72, label %59

59:                                               ; preds = %54
  %60 = xor i64 %55, 1
  %61 = getelementptr inbounds i8*, i8** %53, i64 %60
  %62 = load i8*, i8** %61, align 8, !noalias !31
  %63 = icmp eq i8* %57, %62
  br i1 %63, label %66, label %64

64:                                               ; preds = %59
  %65 = ptrtoint i8* %57 to i64
  br label %78

66:                                               ; preds = %59
  %67 = bitcast i8* %57 to %"class.std::__1::__tree_end_node"**
  %68 = load %"class.std::__1::__tree_end_node"*, %"class.std::__1::__tree_end_node"** %67, align 8, !noalias !31
  %69 = getelementptr inbounds %"class.std::__1::__tree_end_node", %"class.std::__1::__tree_end_node"* %68, i64 5
  %70 = bitcast %"class.std::__1::__tree_end_node"* %69 to i64*
  %71 = load i64, i64* %70, align 8, !noalias !31
  br label %78

72:                                               ; preds = %54
  %73 = add i64 %55, 1
  %74 = icmp eq i64 %73, %49
  br i1 %74, label %75, label %54

75:                                               ; preds = %72, %40
  %76 = phi i64 [ %47, %40 ], [ %49, %72 ]
  %77 = bitcast %"class.google::protobuf::Map<std::__1::basic_string<char, std::__1::char_traits<char>, std::__1::allocator<char> >, float>::const_iterator"* %4 to i64*
  store i64 0, i64* %77, align 8, !alias.scope !36
  store %"class.google::protobuf::Map<std::__1::basic_string<char, std::__1::char_traits<char>, std::__1::allocator<char> >, float>::InnerMap"* %45, %"class.google::protobuf::Map<std::__1::basic_string<char, std::__1::char_traits<char>, std::__1::allocator<char> >, float>::InnerMap"** %43, align 8, !alias.scope !36
  store i64 %76, i64* %44, align 8, !alias.scope !36
  br label %100

78:                                               ; preds = %66, %64
  %79 = phi i64 [ %71, %66 ], [ %65, %64 ]
  %80 = bitcast %"class.google::protobuf::Map<std::__1::basic_string<char, std::__1::char_traits<char>, std::__1::allocator<char> >, float>::const_iterator"* %4 to i64*
  store i64 %79, i64* %80, align 8, !alias.scope !36
  store %"class.google::protobuf::Map<std::__1::basic_string<char, std::__1::char_traits<char>, std::__1::allocator<char> >, float>::InnerMap"* %45, %"class.google::protobuf::Map<std::__1::basic_string<char, std::__1::char_traits<char>, std::__1::allocator<char> >, float>::InnerMap"** %43, align 8, !alias.scope !36
  store i64 %55, i64* %44, align 8, !alias.scope !36
  %81 = icmp eq i64 %79, 0
  br i1 %81, label %100, label %82

82:                                               ; preds = %78
  %83 = inttoptr i64 %79 to %"struct.google::protobuf::Map<std::__1::basic_string<char, std::__1::char_traits<char>, std::__1::allocator<char> >, float>::InnerMap::Node"*
  %84 = getelementptr inbounds %"class.assist_ranker::SparseWeights", %"class.assist_ranker::SparseWeights"* %0, i64 0, i32 3, i32 0, i32 0
  %85 = bitcast %"struct.std::__1::pair.56"* %3 to i8*
  %86 = getelementptr inbounds %"struct.std::__1::pair.56", %"struct.std::__1::pair.56"* %3, i64 0, i32 0, i32 0
  %87 = getelementptr inbounds %"class.google::protobuf::Map<std::__1::basic_string<char, std::__1::char_traits<char>, std::__1::allocator<char> >, float>::const_iterator", %"class.google::protobuf::Map<std::__1::basic_string<char, std::__1::char_traits<char>, std::__1::allocator<char> >, float>::const_iterator"* %4, i64 0, i32 0
  br label %88

88:                                               ; preds = %88, %82
  %89 = phi %"struct.google::protobuf::Map<std::__1::basic_string<char, std::__1::char_traits<char>, std::__1::allocator<char> >, float>::InnerMap::Node"* [ %83, %82 ], [ %98, %88 ]
  %90 = getelementptr inbounds %"struct.google::protobuf::Map<std::__1::basic_string<char, std::__1::char_traits<char>, std::__1::allocator<char> >, float>::InnerMap::Node", %"struct.google::protobuf::Map<std::__1::basic_string<char, std::__1::char_traits<char>, std::__1::allocator<char> >, float>::InnerMap::Node"* %89, i64 0, i32 0, i32 1
  %91 = bitcast float* %90 to i32*
  %92 = load i32, i32* %91, align 8
  %93 = getelementptr inbounds %"struct.google::protobuf::Map<std::__1::basic_string<char, std::__1::char_traits<char>, std::__1::allocator<char> >, float>::InnerMap::Node", %"struct.google::protobuf::Map<std::__1::basic_string<char, std::__1::char_traits<char>, std::__1::allocator<char> >, float>::InnerMap::Node"* %89, i64 0, i32 0, i32 0
  call void @llvm.lifetime.start.p0i8(i64 32, i8* nonnull %85) #16
  call void @_ZN6google8protobuf3MapINSt3__112basic_stringIcNS2_11char_traitsIcEENS2_9allocatorIcEEEEfE8InnerMap6insertERKS8_(%"struct.std::__1::pair.56"* nonnull sret %3, %"class.google::protobuf::Map<std::__1::basic_string<char, std::__1::char_traits<char>, std::__1::allocator<char> >, float>::InnerMap"* %84, %"class.std::__1::basic_string"* dereferenceable(24) %93) #16
  %94 = load %"struct.google::protobuf::Map<std::__1::basic_string<char, std::__1::char_traits<char>, std::__1::allocator<char> >, float>::InnerMap::Node"*, %"struct.google::protobuf::Map<std::__1::basic_string<char, std::__1::char_traits<char>, std::__1::allocator<char> >, float>::InnerMap::Node"** %86, align 8
  call void @llvm.lifetime.end.p0i8(i64 32, i8* nonnull %85) #16
  %95 = getelementptr inbounds %"struct.google::protobuf::Map<std::__1::basic_string<char, std::__1::char_traits<char>, std::__1::allocator<char> >, float>::InnerMap::Node", %"struct.google::protobuf::Map<std::__1::basic_string<char, std::__1::char_traits<char>, std::__1::allocator<char> >, float>::InnerMap::Node"* %94, i64 0, i32 0, i32 1
  %96 = bitcast float* %95 to i32*
  store i32 %92, i32* %96, align 4
  %97 = call dereferenceable(24) %"class.google::protobuf::Map<std::__1::basic_string<char, std::__1::char_traits<char>, std::__1::allocator<char> >, float>::InnerMap::iterator_base"* @_ZN6google8protobuf3MapINSt3__112basic_stringIcNS2_11char_traitsIcEENS2_9allocatorIcEEEEfE8InnerMap13iterator_baseIKNS0_7MapPairIS8_fEEEppEv(%"class.google::protobuf::Map<std::__1::basic_string<char, std::__1::char_traits<char>, std::__1::allocator<char> >, float>::InnerMap::iterator_base"* nonnull %87) #16
  %98 = load %"struct.google::protobuf::Map<std::__1::basic_string<char, std::__1::char_traits<char>, std::__1::allocator<char> >, float>::InnerMap::Node"*, %"struct.google::protobuf::Map<std::__1::basic_string<char, std::__1::char_traits<char>, std::__1::allocator<char> >, float>::InnerMap::Node"** %42, align 8
  %99 = icmp eq %"struct.google::protobuf::Map<std::__1::basic_string<char, std::__1::char_traits<char>, std::__1::allocator<char> >, float>::InnerMap::Node"* %98, null
  br i1 %99, label %100, label %88

100:                                              ; preds = %88, %75, %78
  call void @llvm.lifetime.end.p0i8(i64 24, i8* nonnull %41) #16
  %101 = getelementptr inbounds %"class.assist_ranker::SparseWeights", %"class.assist_ranker::SparseWeights"* %1, i64 0, i32 1, i32 0, i64 0
  %102 = load i32, i32* %101, align 4
  %103 = and i32 %102, 1
  %104 = icmp eq i32 %103, 0
  br i1 %104, label %114, label %105

105:                                              ; preds = %100
  %106 = getelementptr inbounds %"class.assist_ranker::SparseWeights", %"class.assist_ranker::SparseWeights"* %1, i64 0, i32 4
  %107 = bitcast float* %106 to i32*
  %108 = load i32, i32* %107, align 8
  %109 = getelementptr inbounds %"class.assist_ranker::SparseWeights", %"class.assist_ranker::SparseWeights"* %0, i64 0, i32 1, i32 0, i64 0
  %110 = load i32, i32* %109, align 4
  %111 = or i32 %110, 1
  store i32 %111, i32* %109, align 4
  %112 = getelementptr inbounds %"class.assist_ranker::SparseWeights", %"class.assist_ranker::SparseWeights"* %0, i64 0, i32 4
  %113 = bitcast float* %112 to i32*
  store i32 %108, i32* %113, align 8
  br label %114

114:                                              ; preds = %100, %105
  ret void
}

; Function Attrs: nounwind ssp uwtable
define hidden void @_ZN13assist_ranker13SparseWeights8CopyFromERKS0_(%"class.assist_ranker::SparseWeights"*, %"class.assist_ranker::SparseWeights"* dereferenceable(80)) local_unnamed_addr #0 align 2 {
  %3 = icmp eq %"class.assist_ranker::SparseWeights"* %1, %0
  br i1 %3, label %28, label %4

4:                                                ; preds = %2
  %5 = getelementptr inbounds %"class.assist_ranker::SparseWeights", %"class.assist_ranker::SparseWeights"* %0, i64 0, i32 3, i32 0, i32 0
  tail call void @_ZN6google8protobuf3MapINSt3__112basic_stringIcNS2_11char_traitsIcEENS2_9allocatorIcEEEEfE8InnerMap5clearEv(%"class.google::protobuf::Map<std::__1::basic_string<char, std::__1::char_traits<char>, std::__1::allocator<char> >, float>::InnerMap"* %5) #16
  %6 = getelementptr inbounds %"class.assist_ranker::SparseWeights", %"class.assist_ranker::SparseWeights"* %0, i64 0, i32 4
  store float 0.000000e+00, float* %6, align 8
  %7 = getelementptr inbounds %"class.assist_ranker::SparseWeights", %"class.assist_ranker::SparseWeights"* %0, i64 0, i32 1, i32 0, i64 0
  store i32 0, i32* %7, align 4
  %8 = getelementptr inbounds %"class.assist_ranker::SparseWeights", %"class.assist_ranker::SparseWeights"* %0, i64 0, i32 0, i32 1
  %9 = bitcast %"class.google::protobuf::internal::InternalMetadata"* %8 to i64*
  %10 = load i64, i64* %9, align 8
  %11 = and i64 %10, 1
  %12 = icmp eq i64 %11, 0
  br i1 %12, label %27, label %13

13:                                               ; preds = %4
  %14 = and i64 %10, -2
  %15 = inttoptr i64 %14 to %"struct.google::protobuf::internal::InternalMetadata::Container"*
  %16 = getelementptr inbounds %"struct.google::protobuf::internal::InternalMetadata::Container", %"struct.google::protobuf::internal::InternalMetadata::Container"* %15, i64 0, i32 1
  %17 = bitcast %"class.std::__1::basic_string"* %16 to %"struct.std::__1::basic_string<char, std::__1::char_traits<char>, std::__1::allocator<char> >::__short"*
  %18 = getelementptr inbounds %"struct.std::__1::basic_string<char, std::__1::char_traits<char>, std::__1::allocator<char> >::__short", %"struct.std::__1::basic_string<char, std::__1::char_traits<char>, std::__1::allocator<char> >::__short"* %17, i64 0, i32 1, i32 0
  %19 = load i8, i8* %18, align 1
  %20 = icmp slt i8 %19, 0
  br i1 %20, label %21, label %25

21:                                               ; preds = %13
  %22 = getelementptr inbounds %"class.std::__1::basic_string", %"class.std::__1::basic_string"* %16, i64 0, i32 0, i32 0, i32 0, i32 0, i32 0, i32 0
  %23 = load i8*, i8** %22, align 8
  store i8 0, i8* %23, align 1
  %24 = getelementptr inbounds %"struct.google::protobuf::internal::InternalMetadata::Container", %"struct.google::protobuf::internal::InternalMetadata::Container"* %15, i64 0, i32 1, i32 0, i32 0, i32 0, i32 0, i32 0, i32 1
  store i64 0, i64* %24, align 8
  br label %27

25:                                               ; preds = %13
  %26 = bitcast %"class.std::__1::basic_string"* %16 to i8*
  store i8 0, i8* %26, align 2
  store i8 0, i8* %18, align 1
  br label %27

27:                                               ; preds = %4, %21, %25
  tail call void @_ZN13assist_ranker13SparseWeights9MergeFromERKS0_(%"class.assist_ranker::SparseWeights"* %0, %"class.assist_ranker::SparseWeights"* dereferenceable(80) %1)
  br label %28

28:                                               ; preds = %2, %27
  ret void
}

; Function Attrs: norecurse nounwind readnone ssp uwtable
define hidden zeroext i1 @_ZNK13assist_ranker13SparseWeights13IsInitializedEv(%"class.assist_ranker::SparseWeights"* nocapture readnone) unnamed_addr #4 align 2 {
  ret i1 true
}

; Function Attrs: nounwind ssp uwtable
define hidden void @_ZN13assist_ranker13SparseWeights12InternalSwapEPS0_(%"class.assist_ranker::SparseWeights"*, %"class.assist_ranker::SparseWeights"*) local_unnamed_addr #0 align 2 {
  %3 = getelementptr inbounds %"class.assist_ranker::SparseWeights", %"class.assist_ranker::SparseWeights"* %0, i64 0, i32 0, i32 1
  %4 = getelementptr inbounds %"class.assist_ranker::SparseWeights", %"class.assist_ranker::SparseWeights"* %1, i64 0, i32 0, i32 1
  %5 = bitcast %"class.google::protobuf::internal::InternalMetadata"* %3 to i64*
  %6 = load i64, i64* %5, align 8
  %7 = bitcast %"class.google::protobuf::internal::InternalMetadata"* %4 to i64*
  %8 = load i64, i64* %7, align 8
  %9 = or i64 %8, %6
  %10 = and i64 %9, 1
  %11 = icmp eq i64 %10, 0
  br i1 %11, label %43, label %12

12:                                               ; preds = %2
  %13 = and i64 %8, 1
  %14 = icmp eq i64 %13, 0
  br i1 %14, label %19, label %15, !prof !4

15:                                               ; preds = %12
  %16 = and i64 %8, -2
  %17 = inttoptr i64 %16 to %"struct.google::protobuf::internal::InternalMetadata::Container"*
  %18 = getelementptr inbounds %"struct.google::protobuf::internal::InternalMetadata::Container", %"struct.google::protobuf::internal::InternalMetadata::Container"* %17, i64 0, i32 1
  br label %22

19:                                               ; preds = %12
  %20 = tail call %"class.std::__1::basic_string"* @_ZN6google8protobuf8internal16InternalMetadata27mutable_unknown_fields_slowINSt3__112basic_stringIcNS4_11char_traitsIcEENS4_9allocatorIcEEEEEEPT_v(%"class.google::protobuf::internal::InternalMetadata"* %4) #16
  %21 = load i64, i64* %5, align 8
  br label %22

22:                                               ; preds = %19, %15
  %23 = phi i64 [ %6, %15 ], [ %21, %19 ]
  %24 = phi %"class.std::__1::basic_string"* [ %18, %15 ], [ %20, %19 ]
  %25 = and i64 %23, 1
  %26 = icmp eq i64 %25, 0
  br i1 %26, label %31, label %27, !prof !4

27:                                               ; preds = %22
  %28 = and i64 %23, -2
  %29 = inttoptr i64 %28 to %"struct.google::protobuf::internal::InternalMetadata::Container"*
  %30 = getelementptr inbounds %"struct.google::protobuf::internal::InternalMetadata::Container", %"struct.google::protobuf::internal::InternalMetadata::Container"* %29, i64 0, i32 1
  br label %33

31:                                               ; preds = %22
  %32 = tail call %"class.std::__1::basic_string"* @_ZN6google8protobuf8internal16InternalMetadata27mutable_unknown_fields_slowINSt3__112basic_stringIcNS4_11char_traitsIcEENS4_9allocatorIcEEEEEEPT_v(%"class.google::protobuf::internal::InternalMetadata"* %3) #16
  br label %33

33:                                               ; preds = %31, %27
  %34 = phi %"class.std::__1::basic_string"* [ %30, %27 ], [ %32, %31 ]
  %35 = bitcast %"class.std::__1::basic_string"* %34 to <2 x i64>*
  %36 = load <2 x i64>, <2 x i64>* %35, align 8
  %37 = getelementptr inbounds %"class.std::__1::basic_string", %"class.std::__1::basic_string"* %34, i64 0, i32 0, i32 0, i32 0, i32 0, i32 0, i32 2
  %38 = load i64, i64* %37, align 8
  %39 = bitcast %"class.std::__1::basic_string"* %34 to i8*
  %40 = bitcast %"class.std::__1::basic_string"* %24 to i8*
  tail call void @llvm.memcpy.p0i8.p0i8.i64(i8* align 8 %39, i8* align 8 %40, i64 24, i1 false) #16
  %41 = bitcast %"class.std::__1::basic_string"* %24 to <2 x i64>*
  store <2 x i64> %36, <2 x i64>* %41, align 8
  %42 = getelementptr inbounds %"class.std::__1::basic_string", %"class.std::__1::basic_string"* %24, i64 0, i32 0, i32 0, i32 0, i32 0, i32 0, i32 2
  store i64 %38, i64* %42, align 8
  br label %43

43:                                               ; preds = %2, %33
  %44 = getelementptr inbounds %"class.assist_ranker::SparseWeights", %"class.assist_ranker::SparseWeights"* %0, i64 0, i32 1, i32 0, i64 0
  %45 = getelementptr inbounds %"class.assist_ranker::SparseWeights", %"class.assist_ranker::SparseWeights"* %1, i64 0, i32 1, i32 0, i64 0
  %46 = load i32, i32* %44, align 4
  %47 = load i32, i32* %45, align 4
  store i32 %47, i32* %44, align 4
  store i32 %46, i32* %45, align 4
  %48 = getelementptr inbounds %"class.assist_ranker::SparseWeights", %"class.assist_ranker::SparseWeights"* %0, i64 0, i32 3, i32 0
  %49 = getelementptr inbounds %"class.assist_ranker::SparseWeights", %"class.assist_ranker::SparseWeights"* %1, i64 0, i32 3, i32 0
  tail call void @_ZN6google8protobuf3MapINSt3__112basic_stringIcNS2_11char_traitsIcEENS2_9allocatorIcEEEEfE4swapERS9_(%"class.google::protobuf::Map"* %48, %"class.google::protobuf::Map"* dereferenceable(48) %49) #16
  %50 = getelementptr inbounds %"class.assist_ranker::SparseWeights", %"class.assist_ranker::SparseWeights"* %0, i64 0, i32 4
  %51 = getelementptr inbounds %"class.assist_ranker::SparseWeights", %"class.assist_ranker::SparseWeights"* %1, i64 0, i32 4
  %52 = bitcast float* %50 to i32*
  %53 = load i32, i32* %52, align 4
  %54 = bitcast float* %51 to i32*
  %55 = load i32, i32* %54, align 4
  store i32 %55, i32* %52, align 4
  store i32 %53, i32* %54, align 4
  ret void
}

; Function Attrs: nounwind ssp uwtable
define hidden void @_ZNK13assist_ranker13SparseWeights11GetTypeNameEv(%"class.std::__1::basic_string"* noalias sret, %"class.assist_ranker::SparseWeights"* nocapture readnone) unnamed_addr #0 align 2 {
  %3 = tail call i8* @_Znwm(i64 32) #17
  %4 = getelementptr inbounds %"class.std::__1::basic_string", %"class.std::__1::basic_string"* %0, i64 0, i32 0, i32 0, i32 0, i32 0, i32 0, i32 0
  store i8* %3, i8** %4, align 8
  %5 = getelementptr inbounds %"class.std::__1::basic_string", %"class.std::__1::basic_string"* %0, i64 0, i32 0, i32 0, i32 0, i32 0, i32 0, i32 1
  %6 = bitcast i64* %5 to <2 x i64>*
  store <2 x i64> <i64 27, i64 -9223372036854775776>, <2 x i64>* %6, align 8
  tail call void @llvm.memcpy.p0i8.p0i8.i64(i8* nonnull align 1 %3, i8* align 1 getelementptr inbounds ([28 x i8], [28 x i8]* @.str.6, i64 0, i64 0), i64 27, i1 false) #16
  %7 = getelementptr inbounds i8, i8* %3, i64 27
  store i8 0, i8* %7, align 1
  ret void
}

; Function Attrs: nofree norecurse nounwind ssp uwtable writeonly
define hidden void @_ZN13assist_ranker17BucketizedWeightsC2EPN6google8protobuf5ArenaE(%"class.assist_ranker::BucketizedWeights"* nocapture, %"class.google::protobuf::Arena"*) unnamed_addr #1 align 2 {
  %3 = getelementptr inbounds %"class.assist_ranker::BucketizedWeights", %"class.assist_ranker::BucketizedWeights"* %0, i64 0, i32 0, i32 0
  %4 = getelementptr inbounds %"class.assist_ranker::BucketizedWeights", %"class.assist_ranker::BucketizedWeights"* %0, i64 0, i32 0, i32 1
  %5 = bitcast %"class.google::protobuf::internal::InternalMetadata"* %4 to %"class.google::protobuf::Arena"**
  store %"class.google::protobuf::Arena"* %1, %"class.google::protobuf::Arena"** %5, align 8
  store i32 (...)** bitcast (i8** getelementptr inbounds ({ [16 x i8*] }, { [16 x i8*] }* @_ZTVN13assist_ranker17BucketizedWeightsE, i64 0, inrange i32 0, i64 2) to i32 (...)**), i32 (...)*** %3, align 8
  %6 = getelementptr inbounds %"class.assist_ranker::BucketizedWeights", %"class.assist_ranker::BucketizedWeights"* %0, i64 0, i32 1, i32 0, i64 0
  %7 = getelementptr inbounds %"class.assist_ranker::BucketizedWeights", %"class.assist_ranker::BucketizedWeights"* %0, i64 0, i32 3, i32 2
  %8 = bitcast i8** %7 to %"class.google::protobuf::Arena"**
  %9 = bitcast i32* %6 to i8*
  call void @llvm.memset.p0i8.i64(i8* align 4 %9, i8 0, i64 16, i1 false)
  store %"class.google::protobuf::Arena"* %1, %"class.google::protobuf::Arena"** %8, align 8
  %10 = getelementptr inbounds %"class.assist_ranker::BucketizedWeights", %"class.assist_ranker::BucketizedWeights"* %0, i64 0, i32 5, i32 0
  store i32 0, i32* %10, align 8
  %11 = getelementptr inbounds %"class.assist_ranker::BucketizedWeights", %"class.assist_ranker::BucketizedWeights"* %0, i64 0, i32 5, i32 1
  store i32 0, i32* %11, align 4
  %12 = getelementptr inbounds %"class.assist_ranker::BucketizedWeights", %"class.assist_ranker::BucketizedWeights"* %0, i64 0, i32 5, i32 2
  %13 = bitcast i8** %12 to %"class.google::protobuf::Arena"**
  store %"class.google::protobuf::Arena"* %1, %"class.google::protobuf::Arena"** %13, align 8
  %14 = getelementptr inbounds %"class.assist_ranker::BucketizedWeights", %"class.assist_ranker::BucketizedWeights"* %0, i64 0, i32 7
  store float 0.000000e+00, float* %14, align 4
  ret void
}

; Function Attrs: nounwind ssp uwtable
define hidden void @_ZN13assist_ranker17BucketizedWeightsC2ERKS0_(%"class.assist_ranker::BucketizedWeights"*, %"class.assist_ranker::BucketizedWeights"* nocapture readonly dereferenceable(72)) unnamed_addr #0 align 2 {
  %3 = getelementptr inbounds %"class.assist_ranker::BucketizedWeights", %"class.assist_ranker::BucketizedWeights"* %0, i64 0, i32 0, i32 0
  %4 = getelementptr inbounds %"class.assist_ranker::BucketizedWeights", %"class.assist_ranker::BucketizedWeights"* %0, i64 0, i32 0, i32 1, i32 0
  store i8* null, i8** %4, align 8
  store i32 (...)** bitcast (i8** getelementptr inbounds ({ [16 x i8*] }, { [16 x i8*] }* @_ZTVN13assist_ranker17BucketizedWeightsE, i64 0, inrange i32 0, i64 2) to i32 (...)**), i32 (...)*** %3, align 8
  %5 = getelementptr inbounds %"class.assist_ranker::BucketizedWeights", %"class.assist_ranker::BucketizedWeights"* %1, i64 0, i32 1, i32 0, i64 0
  %6 = getelementptr inbounds %"class.assist_ranker::BucketizedWeights", %"class.assist_ranker::BucketizedWeights"* %0, i64 0, i32 1, i32 0, i64 0
  %7 = load i32, i32* %5, align 8
  store i32 %7, i32* %6, align 8
  %8 = getelementptr inbounds %"class.assist_ranker::BucketizedWeights", %"class.assist_ranker::BucketizedWeights"* %0, i64 0, i32 2, i32 0, i32 0, i32 0, i32 0, i32 0, i32 0
  %9 = getelementptr inbounds %"class.assist_ranker::BucketizedWeights", %"class.assist_ranker::BucketizedWeights"* %0, i64 0, i32 3
  %10 = getelementptr inbounds %"class.google::protobuf::RepeatedField", %"class.google::protobuf::RepeatedField"* %9, i64 0, i32 0
  %11 = getelementptr inbounds %"class.assist_ranker::BucketizedWeights", %"class.assist_ranker::BucketizedWeights"* %1, i64 0, i32 3, i32 0
  %12 = bitcast i32* %8 to i8*
  call void @llvm.memset.p0i8.i64(i8* align 4 %12, i8 0, i64 20, i1 false)
  %13 = load i32, i32* %11, align 8
  %14 = icmp eq i32 %13, 0
  br i1 %14, label %26, label %15

15:                                               ; preds = %2
  %16 = getelementptr inbounds %"class.assist_ranker::BucketizedWeights", %"class.assist_ranker::BucketizedWeights"* %0, i64 0, i32 3, i32 2
  tail call void @_ZN6google8protobuf13RepeatedFieldIfE7ReserveEi(%"class.google::protobuf::RepeatedField"* %9, i32 %13) #16
  %17 = load i32, i32* %11, align 8
  %18 = load i8*, i8** %16, align 8
  %19 = load i32, i32* %10, align 8
  %20 = add nsw i32 %19, %17
  store i32 %20, i32* %10, align 8
  %21 = getelementptr inbounds %"class.assist_ranker::BucketizedWeights", %"class.assist_ranker::BucketizedWeights"* %1, i64 0, i32 3, i32 2
  %22 = load i8*, i8** %21, align 8
  %23 = load i32, i32* %11, align 8
  %24 = sext i32 %23 to i64
  %25 = shl nsw i64 %24, 2
  tail call void @llvm.memcpy.p0i8.p0i8.i64(i8* align 4 %18, i8* align 4 %22, i64 %25, i1 false) #16
  br label %26

26:                                               ; preds = %2, %15
  %27 = getelementptr inbounds %"class.assist_ranker::BucketizedWeights", %"class.assist_ranker::BucketizedWeights"* %0, i64 0, i32 5
  %28 = getelementptr inbounds %"class.google::protobuf::RepeatedField", %"class.google::protobuf::RepeatedField"* %27, i64 0, i32 0
  %29 = getelementptr inbounds %"class.assist_ranker::BucketizedWeights", %"class.assist_ranker::BucketizedWeights"* %1, i64 0, i32 5, i32 0
  %30 = bitcast %"class.google::protobuf::RepeatedField"* %27 to i8*
  tail call void @llvm.memset.p0i8.i64(i8* align 8 %30, i8 0, i64 16, i1 false) #16
  %31 = load i32, i32* %29, align 8
  %32 = icmp eq i32 %31, 0
  br i1 %32, label %44, label %33

33:                                               ; preds = %26
  %34 = getelementptr inbounds %"class.assist_ranker::BucketizedWeights", %"class.assist_ranker::BucketizedWeights"* %0, i64 0, i32 5, i32 2
  tail call void @_ZN6google8protobuf13RepeatedFieldIfE7ReserveEi(%"class.google::protobuf::RepeatedField"* %27, i32 %31) #16
  %35 = load i32, i32* %29, align 8
  %36 = load i8*, i8** %34, align 8
  %37 = load i32, i32* %28, align 8
  %38 = add nsw i32 %37, %35
  store i32 %38, i32* %28, align 8
  %39 = getelementptr inbounds %"class.assist_ranker::BucketizedWeights", %"class.assist_ranker::BucketizedWeights"* %1, i64 0, i32 5, i32 2
  %40 = load i8*, i8** %39, align 8
  %41 = load i32, i32* %29, align 8
  %42 = sext i32 %41 to i64
  %43 = shl nsw i64 %42, 2
  tail call void @llvm.memcpy.p0i8.p0i8.i64(i8* align 4 %36, i8* align 4 %40, i64 %43, i1 false) #16
  br label %44

44:                                               ; preds = %26, %33
  %45 = getelementptr inbounds %"class.assist_ranker::BucketizedWeights", %"class.assist_ranker::BucketizedWeights"* %0, i64 0, i32 0, i32 1
  %46 = getelementptr inbounds %"class.assist_ranker::BucketizedWeights", %"class.assist_ranker::BucketizedWeights"* %1, i64 0, i32 0, i32 1
  %47 = bitcast %"class.google::protobuf::internal::InternalMetadata"* %46 to i64*
  %48 = load i64, i64* %47, align 8
  %49 = and i64 %48, 1
  %50 = icmp eq i64 %49, 0
  br i1 %50, label %80, label %51

51:                                               ; preds = %44
  %52 = and i64 %48, -2
  %53 = inttoptr i64 %52 to %"struct.google::protobuf::internal::InternalMetadata::Container"*
  %54 = getelementptr inbounds %"struct.google::protobuf::internal::InternalMetadata::Container", %"struct.google::protobuf::internal::InternalMetadata::Container"* %53, i64 0, i32 1
  %55 = bitcast %"class.google::protobuf::internal::InternalMetadata"* %45 to i64*
  %56 = load i64, i64* %55, align 8
  %57 = and i64 %56, 1
  %58 = icmp eq i64 %57, 0
  br i1 %58, label %63, label %59, !prof !4

59:                                               ; preds = %51
  %60 = and i64 %56, -2
  %61 = inttoptr i64 %60 to %"struct.google::protobuf::internal::InternalMetadata::Container"*
  %62 = getelementptr inbounds %"struct.google::protobuf::internal::InternalMetadata::Container", %"struct.google::protobuf::internal::InternalMetadata::Container"* %61, i64 0, i32 1
  br label %65

63:                                               ; preds = %51
  %64 = tail call %"class.std::__1::basic_string"* @_ZN6google8protobuf8internal16InternalMetadata27mutable_unknown_fields_slowINSt3__112basic_stringIcNS4_11char_traitsIcEENS4_9allocatorIcEEEEEEPT_v(%"class.google::protobuf::internal::InternalMetadata"* %45) #16
  br label %65

65:                                               ; preds = %63, %59
  %66 = phi %"class.std::__1::basic_string"* [ %62, %59 ], [ %64, %63 ]
  %67 = bitcast %"class.std::__1::basic_string"* %54 to %"struct.std::__1::basic_string<char, std::__1::char_traits<char>, std::__1::allocator<char> >::__short"*
  %68 = getelementptr inbounds %"struct.std::__1::basic_string<char, std::__1::char_traits<char>, std::__1::allocator<char> >::__short", %"struct.std::__1::basic_string<char, std::__1::char_traits<char>, std::__1::allocator<char> >::__short"* %67, i64 0, i32 1, i32 0
  %69 = load i8, i8* %68, align 1
  %70 = icmp slt i8 %69, 0
  %71 = getelementptr inbounds %"class.std::__1::basic_string", %"class.std::__1::basic_string"* %54, i64 0, i32 0, i32 0, i32 0, i32 0, i32 0, i32 0
  %72 = load i8*, i8** %71, align 8
  %73 = getelementptr inbounds %"struct.google::protobuf::internal::InternalMetadata::Container", %"struct.google::protobuf::internal::InternalMetadata::Container"* %53, i64 0, i32 1, i32 0, i32 0, i32 0, i32 0, i32 0, i32 1
  %74 = load i64, i64* %73, align 8
  %75 = bitcast %"class.std::__1::basic_string"* %54 to i8*
  %76 = zext i8 %69 to i64
  %77 = select i1 %70, i8* %72, i8* %75
  %78 = select i1 %70, i64 %74, i64 %76
  %79 = tail call dereferenceable(24) %"class.std::__1::basic_string"* @_ZNSt3__112basic_stringIcNS_11char_traitsIcEENS_9allocatorIcEEE6appendEPKcm(%"class.std::__1::basic_string"* %66, i8* %77, i64 %78) #16
  br label %80

80:                                               ; preds = %44, %65
  %81 = getelementptr inbounds %"class.assist_ranker::BucketizedWeights", %"class.assist_ranker::BucketizedWeights"* %1, i64 0, i32 7
  %82 = bitcast float* %81 to i32*
  %83 = load i32, i32* %82, align 4
  %84 = getelementptr inbounds %"class.assist_ranker::BucketizedWeights", %"class.assist_ranker::BucketizedWeights"* %0, i64 0, i32 7
  %85 = bitcast float* %84 to i32*
  store i32 %83, i32* %85, align 4
  ret void
}

; Function Attrs: nounwind ssp uwtable
define hidden void @_ZN13assist_ranker17BucketizedWeightsD2Ev(%"class.assist_ranker::BucketizedWeights"*) unnamed_addr #0 align 2 {
  %2 = getelementptr inbounds %"class.assist_ranker::BucketizedWeights", %"class.assist_ranker::BucketizedWeights"* %0, i64 0, i32 0, i32 0
  store i32 (...)** bitcast (i8** getelementptr inbounds ({ [16 x i8*] }, { [16 x i8*] }* @_ZTVN13assist_ranker17BucketizedWeightsE, i64 0, inrange i32 0, i64 2) to i32 (...)**), i32 (...)*** %2, align 8
  %3 = getelementptr inbounds %"class.assist_ranker::BucketizedWeights", %"class.assist_ranker::BucketizedWeights"* %0, i64 0, i32 0, i32 1
  %4 = bitcast %"class.google::protobuf::internal::InternalMetadata"* %3 to i64*
  %5 = load i64, i64* %4, align 8
  %6 = and i64 %5, 1
  %7 = icmp eq i64 %6, 0
  br i1 %7, label %28, label %8

8:                                                ; preds = %1
  %9 = and i64 %5, -2
  %10 = inttoptr i64 %9 to %"struct.google::protobuf::internal::InternalMetadata::ContainerBase"*
  %11 = getelementptr inbounds %"struct.google::protobuf::internal::InternalMetadata::ContainerBase", %"struct.google::protobuf::internal::InternalMetadata::ContainerBase"* %10, i64 0, i32 0
  %12 = load %"class.google::protobuf::Arena"*, %"class.google::protobuf::Arena"** %11, align 8
  %13 = icmp ne %"class.google::protobuf::Arena"* %12, null
  %14 = icmp eq i64 %9, 0
  %15 = or i1 %14, %13
  br i1 %15, label %28, label %16

16:                                               ; preds = %8
  %17 = inttoptr i64 %9 to %"struct.google::protobuf::internal::InternalMetadata::Container"*
  %18 = getelementptr inbounds %"struct.google::protobuf::internal::InternalMetadata::Container", %"struct.google::protobuf::internal::InternalMetadata::Container"* %17, i64 0, i32 1
  %19 = bitcast %"class.std::__1::basic_string"* %18 to %"struct.std::__1::basic_string<char, std::__1::char_traits<char>, std::__1::allocator<char> >::__short"*
  %20 = getelementptr inbounds %"struct.std::__1::basic_string<char, std::__1::char_traits<char>, std::__1::allocator<char> >::__short", %"struct.std::__1::basic_string<char, std::__1::char_traits<char>, std::__1::allocator<char> >::__short"* %19, i64 0, i32 1, i32 0
  %21 = load i8, i8* %20, align 1
  %22 = icmp slt i8 %21, 0
  br i1 %22, label %23, label %26

23:                                               ; preds = %16
  %24 = getelementptr inbounds %"class.std::__1::basic_string", %"class.std::__1::basic_string"* %18, i64 0, i32 0, i32 0, i32 0, i32 0, i32 0, i32 0
  %25 = load i8*, i8** %24, align 8
  tail call void @_ZdlPv(i8* %25) #17
  br label %26

26:                                               ; preds = %23, %16
  %27 = inttoptr i64 %9 to i8*
  tail call void @_ZdlPv(i8* %27) #17
  br label %28

28:                                               ; preds = %1, %8, %26
  %29 = getelementptr inbounds %"class.assist_ranker::BucketizedWeights", %"class.assist_ranker::BucketizedWeights"* %0, i64 0, i32 5
  tail call void @_ZN6google8protobuf13RepeatedFieldIfED1Ev(%"class.google::protobuf::RepeatedField"* %29) #16
  %30 = getelementptr inbounds %"class.assist_ranker::BucketizedWeights", %"class.assist_ranker::BucketizedWeights"* %0, i64 0, i32 3
  tail call void @_ZN6google8protobuf13RepeatedFieldIfED1Ev(%"class.google::protobuf::RepeatedField"* %30) #16
  ret void
}

; Function Attrs: nounwind
declare void @_ZN6google8protobuf13RepeatedFieldIfED1Ev(%"class.google::protobuf::RepeatedField"*) unnamed_addr #9

; Function Attrs: nounwind ssp uwtable
define hidden void @_ZN13assist_ranker17BucketizedWeightsD0Ev(%"class.assist_ranker::BucketizedWeights"*) unnamed_addr #0 align 2 {
  %2 = getelementptr inbounds %"class.assist_ranker::BucketizedWeights", %"class.assist_ranker::BucketizedWeights"* %0, i64 0, i32 0, i32 0
  store i32 (...)** bitcast (i8** getelementptr inbounds ({ [16 x i8*] }, { [16 x i8*] }* @_ZTVN13assist_ranker17BucketizedWeightsE, i64 0, inrange i32 0, i64 2) to i32 (...)**), i32 (...)*** %2, align 8
  %3 = getelementptr inbounds %"class.assist_ranker::BucketizedWeights", %"class.assist_ranker::BucketizedWeights"* %0, i64 0, i32 0, i32 1
  %4 = bitcast %"class.google::protobuf::internal::InternalMetadata"* %3 to i64*
  %5 = load i64, i64* %4, align 8
  %6 = and i64 %5, 1
  %7 = icmp eq i64 %6, 0
  br i1 %7, label %28, label %8

8:                                                ; preds = %1
  %9 = and i64 %5, -2
  %10 = inttoptr i64 %9 to %"struct.google::protobuf::internal::InternalMetadata::ContainerBase"*
  %11 = getelementptr inbounds %"struct.google::protobuf::internal::InternalMetadata::ContainerBase", %"struct.google::protobuf::internal::InternalMetadata::ContainerBase"* %10, i64 0, i32 0
  %12 = load %"class.google::protobuf::Arena"*, %"class.google::protobuf::Arena"** %11, align 8
  %13 = icmp ne %"class.google::protobuf::Arena"* %12, null
  %14 = icmp eq i64 %9, 0
  %15 = or i1 %14, %13
  br i1 %15, label %28, label %16

16:                                               ; preds = %8
  %17 = inttoptr i64 %9 to %"struct.google::protobuf::internal::InternalMetadata::Container"*
  %18 = getelementptr inbounds %"struct.google::protobuf::internal::InternalMetadata::Container", %"struct.google::protobuf::internal::InternalMetadata::Container"* %17, i64 0, i32 1
  %19 = bitcast %"class.std::__1::basic_string"* %18 to %"struct.std::__1::basic_string<char, std::__1::char_traits<char>, std::__1::allocator<char> >::__short"*
  %20 = getelementptr inbounds %"struct.std::__1::basic_string<char, std::__1::char_traits<char>, std::__1::allocator<char> >::__short", %"struct.std::__1::basic_string<char, std::__1::char_traits<char>, std::__1::allocator<char> >::__short"* %19, i64 0, i32 1, i32 0
  %21 = load i8, i8* %20, align 1
  %22 = icmp slt i8 %21, 0
  br i1 %22, label %23, label %26

23:                                               ; preds = %16
  %24 = getelementptr inbounds %"class.std::__1::basic_string", %"class.std::__1::basic_string"* %18, i64 0, i32 0, i32 0, i32 0, i32 0, i32 0, i32 0
  %25 = load i8*, i8** %24, align 8
  tail call void @_ZdlPv(i8* %25) #17
  br label %26

26:                                               ; preds = %23, %16
  %27 = inttoptr i64 %9 to i8*
  tail call void @_ZdlPv(i8* %27) #17
  br label %28

28:                                               ; preds = %1, %8, %26
  %29 = getelementptr inbounds %"class.assist_ranker::BucketizedWeights", %"class.assist_ranker::BucketizedWeights"* %0, i64 0, i32 5
  tail call void @_ZN6google8protobuf13RepeatedFieldIfED1Ev(%"class.google::protobuf::RepeatedField"* %29) #16
  %30 = getelementptr inbounds %"class.assist_ranker::BucketizedWeights", %"class.assist_ranker::BucketizedWeights"* %0, i64 0, i32 3
  tail call void @_ZN6google8protobuf13RepeatedFieldIfED1Ev(%"class.google::protobuf::RepeatedField"* %30) #16
  %31 = bitcast %"class.assist_ranker::BucketizedWeights"* %0 to i8*
  tail call void @_ZdlPv(i8* %31) #17
  ret void
}

; Function Attrs: norecurse nounwind readnone ssp uwtable
define hidden void @_ZN13assist_ranker17BucketizedWeights9ArenaDtorEPv(i8* nocapture) local_unnamed_addr #4 align 2 {
  ret void
}

; Function Attrs: nofree norecurse nounwind ssp uwtable
define hidden void @_ZNK13assist_ranker17BucketizedWeights13SetCachedSizeEi(%"class.assist_ranker::BucketizedWeights"* nocapture, i32) local_unnamed_addr #5 align 2 {
  %3 = getelementptr inbounds %"class.assist_ranker::BucketizedWeights", %"class.assist_ranker::BucketizedWeights"* %0, i64 0, i32 2, i32 0, i32 0, i32 0, i32 0, i32 0, i32 0
  store atomic i32 %1, i32* %3 monotonic, align 4
  ret void
}

; Function Attrs: nounwind ssp uwtable
define hidden dereferenceable(72) %"class.assist_ranker::BucketizedWeights"* @_ZN13assist_ranker17BucketizedWeights16default_instanceEv() local_unnamed_addr #0 align 2 {
  %1 = load atomic i32, i32* getelementptr inbounds ({ { { { i32 } }, i32, i32, void ()* }, [0 x i8*] }, { { { { i32 } }, i32, i32, void ()* }, [0 x i8*] }* @scc_info_BucketizedWeights_generic_5flogistic_5fregression_5fmodel_2eproto, i64 0, i32 0, i32 0, i32 0, i32 0) acquire, align 8
  %2 = icmp eq i32 %1, 0
  br i1 %2, label %4, label %3, !prof !2

3:                                                ; preds = %0
  tail call void @_ZN6google8protobuf8internal11InitSCCImplEPNS1_11SCCInfoBaseE(%"struct.google::protobuf::internal::SCCInfoBase"* bitcast ({ { { { i32 } }, i32, i32, void ()* }, [0 x i8*] }* @scc_info_BucketizedWeights_generic_5flogistic_5fregression_5fmodel_2eproto to %"struct.google::protobuf::internal::SCCInfoBase"*)) #16
  br label %4

4:                                                ; preds = %0, %3
  ret %"class.assist_ranker::BucketizedWeights"* bitcast (%"class.assist_ranker::BucketizedWeightsDefaultTypeInternal"* @_ZN13assist_ranker36_BucketizedWeights_default_instance_E to %"class.assist_ranker::BucketizedWeights"*)
}

; Function Attrs: nofree norecurse nounwind ssp uwtable
define hidden void @_ZN13assist_ranker17BucketizedWeights5ClearEv(%"class.assist_ranker::BucketizedWeights"* nocapture) unnamed_addr #5 align 2 {
  %2 = getelementptr inbounds %"class.assist_ranker::BucketizedWeights", %"class.assist_ranker::BucketizedWeights"* %0, i64 0, i32 3, i32 0
  store i32 0, i32* %2, align 8
  %3 = getelementptr inbounds %"class.assist_ranker::BucketizedWeights", %"class.assist_ranker::BucketizedWeights"* %0, i64 0, i32 5, i32 0
  store i32 0, i32* %3, align 8
  %4 = getelementptr inbounds %"class.assist_ranker::BucketizedWeights", %"class.assist_ranker::BucketizedWeights"* %0, i64 0, i32 7
  store float 0.000000e+00, float* %4, align 4
  %5 = getelementptr inbounds %"class.assist_ranker::BucketizedWeights", %"class.assist_ranker::BucketizedWeights"* %0, i64 0, i32 1, i32 0, i64 0
  store i32 0, i32* %5, align 4
  %6 = getelementptr inbounds %"class.assist_ranker::BucketizedWeights", %"class.assist_ranker::BucketizedWeights"* %0, i64 0, i32 0, i32 1
  %7 = bitcast %"class.google::protobuf::internal::InternalMetadata"* %6 to i64*
  %8 = load i64, i64* %7, align 8
  %9 = and i64 %8, 1
  %10 = icmp eq i64 %9, 0
  br i1 %10, label %25, label %11

11:                                               ; preds = %1
  %12 = and i64 %8, -2
  %13 = inttoptr i64 %12 to %"struct.google::protobuf::internal::InternalMetadata::Container"*
  %14 = getelementptr inbounds %"struct.google::protobuf::internal::InternalMetadata::Container", %"struct.google::protobuf::internal::InternalMetadata::Container"* %13, i64 0, i32 1
  %15 = bitcast %"class.std::__1::basic_string"* %14 to %"struct.std::__1::basic_string<char, std::__1::char_traits<char>, std::__1::allocator<char> >::__short"*
  %16 = getelementptr inbounds %"struct.std::__1::basic_string<char, std::__1::char_traits<char>, std::__1::allocator<char> >::__short", %"struct.std::__1::basic_string<char, std::__1::char_traits<char>, std::__1::allocator<char> >::__short"* %15, i64 0, i32 1, i32 0
  %17 = load i8, i8* %16, align 1
  %18 = icmp slt i8 %17, 0
  br i1 %18, label %19, label %23

19:                                               ; preds = %11
  %20 = getelementptr inbounds %"class.std::__1::basic_string", %"class.std::__1::basic_string"* %14, i64 0, i32 0, i32 0, i32 0, i32 0, i32 0, i32 0
  %21 = load i8*, i8** %20, align 8
  store i8 0, i8* %21, align 1
  %22 = getelementptr inbounds %"struct.google::protobuf::internal::InternalMetadata::Container", %"struct.google::protobuf::internal::InternalMetadata::Container"* %13, i64 0, i32 1, i32 0, i32 0, i32 0, i32 0, i32 0, i32 1
  store i64 0, i64* %22, align 8
  br label %25

23:                                               ; preds = %11
  %24 = bitcast %"class.std::__1::basic_string"* %14 to i8*
  store i8 0, i8* %24, align 2
  store i8 0, i8* %16, align 1
  br label %25

25:                                               ; preds = %1, %19, %23
  ret void
}

; Function Attrs: nounwind ssp uwtable
define hidden i8* @_ZN13assist_ranker17BucketizedWeights14_InternalParseEPKcPN6google8protobuf8internal12ParseContextE(%"class.assist_ranker::BucketizedWeights"*, i8*, %"class.google::protobuf::internal::ParseContext"*) unnamed_addr #0 align 2 {
  %4 = getelementptr inbounds %"class.google::protobuf::internal::ParseContext", %"class.google::protobuf::internal::ParseContext"* %2, i64 0, i32 0
  %5 = getelementptr inbounds %"class.google::protobuf::internal::ParseContext", %"class.google::protobuf::internal::ParseContext"* %2, i64 0, i32 2
  %6 = getelementptr inbounds %"class.google::protobuf::internal::ParseContext", %"class.google::protobuf::internal::ParseContext"* %2, i64 0, i32 0, i32 0
  %7 = getelementptr inbounds %"class.google::protobuf::internal::ParseContext", %"class.google::protobuf::internal::ParseContext"* %2, i64 0, i32 0, i32 1
  %8 = bitcast i8** %7 to i64*
  %9 = getelementptr inbounds %"class.google::protobuf::internal::ParseContext", %"class.google::protobuf::internal::ParseContext"* %2, i64 0, i32 0, i32 4
  %10 = getelementptr inbounds %"class.assist_ranker::BucketizedWeights", %"class.assist_ranker::BucketizedWeights"* %0, i64 0, i32 7
  %11 = bitcast float* %10 to i32*
  %12 = getelementptr inbounds %"class.assist_ranker::BucketizedWeights", %"class.assist_ranker::BucketizedWeights"* %0, i64 0, i32 5
  %13 = getelementptr inbounds %"class.google::protobuf::RepeatedField", %"class.google::protobuf::RepeatedField"* %12, i64 0, i32 0
  %14 = getelementptr inbounds %"class.assist_ranker::BucketizedWeights", %"class.assist_ranker::BucketizedWeights"* %0, i64 0, i32 5, i32 1
  %15 = getelementptr inbounds %"class.assist_ranker::BucketizedWeights", %"class.assist_ranker::BucketizedWeights"* %0, i64 0, i32 5, i32 2
  %16 = bitcast i8** %15 to float**
  %17 = bitcast %"class.google::protobuf::RepeatedField"* %12 to i8*
  %18 = getelementptr inbounds %"class.assist_ranker::BucketizedWeights", %"class.assist_ranker::BucketizedWeights"* %0, i64 0, i32 3
  %19 = getelementptr inbounds %"class.google::protobuf::RepeatedField", %"class.google::protobuf::RepeatedField"* %18, i64 0, i32 0
  %20 = getelementptr inbounds %"class.assist_ranker::BucketizedWeights", %"class.assist_ranker::BucketizedWeights"* %0, i64 0, i32 3, i32 1
  %21 = getelementptr inbounds %"class.assist_ranker::BucketizedWeights", %"class.assist_ranker::BucketizedWeights"* %0, i64 0, i32 3, i32 2
  %22 = bitcast i8** %21 to float**
  %23 = bitcast %"class.google::protobuf::RepeatedField"* %18 to i8*
  %24 = getelementptr inbounds %"class.assist_ranker::BucketizedWeights", %"class.assist_ranker::BucketizedWeights"* %0, i64 0, i32 0, i32 1
  %25 = bitcast %"class.google::protobuf::internal::InternalMetadata"* %24 to i64*
  br label %26

26:                                               ; preds = %129, %3
  %27 = phi i8* [ %133, %129 ], [ %1, %3 ]
  %28 = phi i32 [ %130, %129 ], [ 0, %3 ]
  br label %29

29:                                               ; preds = %124, %26
  %30 = phi i8* [ %27, %26 ], [ %125, %124 ]
  %31 = load i32, i32* %5, align 4
  %32 = load i8*, i8** %6, align 8
  %33 = icmp ult i8* %30, %32
  br i1 %33, label %47, label %34, !prof !2

34:                                               ; preds = %29
  %35 = load i64, i64* %8, align 8
  %36 = ptrtoint i8* %30 to i64
  %37 = sub i64 %36, %35
  %38 = load i32, i32* %9, align 4
  %39 = sext i32 %38 to i64
  %40 = icmp eq i64 %37, %39
  br i1 %40, label %156, label %41

41:                                               ; preds = %34
  %42 = tail call { i8*, i8 } @_ZN6google8protobuf8internal18EpsCopyInputStream12DoneFallbackEPKci(%"class.google::protobuf::internal::EpsCopyInputStream"* %4, i8* %30, i32 %31) #16
  %43 = extractvalue { i8*, i8 } %42, 0
  %44 = extractvalue { i8*, i8 } %42, 1
  %45 = and i8 %44, 1
  %46 = icmp eq i8 %45, 0
  br i1 %46, label %47, label %156

47:                                               ; preds = %41, %29
  %48 = phi i8* [ %43, %41 ], [ %30, %29 ]
  %49 = load i8, i8* %48, align 1
  %50 = zext i8 %49 to i32
  %51 = icmp sgt i8 %49, -1
  %52 = getelementptr inbounds i8, i8* %48, i64 1
  br i1 %51, label %66, label %53

53:                                               ; preds = %47
  %54 = load i8, i8* %52, align 1
  %55 = zext i8 %54 to i32
  %56 = shl nuw nsw i32 %55, 7
  %57 = add nsw i32 %50, -128
  %58 = add nsw i32 %57, %56
  %59 = icmp sgt i8 %54, -1
  br i1 %59, label %60, label %62

60:                                               ; preds = %53
  %61 = getelementptr inbounds i8, i8* %48, i64 2
  br label %66

62:                                               ; preds = %53
  %63 = tail call { i8*, i32 } @_ZN6google8protobuf8internal15ReadTagFallbackEPKcj(i8* %48, i32 %58) #16
  %64 = extractvalue { i8*, i32 } %63, 0
  %65 = extractvalue { i8*, i32 } %63, 1
  br label %66

66:                                               ; preds = %47, %60, %62
  %67 = phi i32 [ %58, %60 ], [ %65, %62 ], [ %50, %47 ]
  %68 = phi i8* [ %61, %60 ], [ %64, %62 ], [ %52, %47 ]
  %69 = icmp eq i8* %68, null
  br i1 %69, label %156, label %70, !prof !4

70:                                               ; preds = %66
  %71 = lshr i32 %67, 3
  switch i32 %71, label %134 [
    i32 1, label %72
    i32 2, label %98
    i32 3, label %126
  ]

72:                                               ; preds = %70
  %73 = trunc i32 %67 to i8
  switch i8 %73, label %134 [
    i8 10, label %74
    i8 13, label %77
  ], !prof !37

74:                                               ; preds = %72
  %75 = tail call i8* @_ZN6google8protobuf8internal17PackedFloatParserEPvPKcPNS1_12ParseContextE(i8* %23, i8* nonnull %68, %"class.google::protobuf::internal::ParseContext"* %2) #16
  %76 = icmp eq i8* %75, null
  br i1 %76, label %156, label %124, !prof !4

77:                                               ; preds = %72
  %78 = bitcast i8* %68 to i32*
  %79 = load i32, i32* %78, align 1
  %80 = load i32, i32* %19, align 8
  %81 = load i32, i32* %20, align 4
  %82 = icmp eq i32 %80, %81
  br i1 %82, label %83, label %89

83:                                               ; preds = %77
  %84 = add i32 %80, 1
  tail call void @_ZN6google8protobuf13RepeatedFieldIfE7ReserveEi(%"class.google::protobuf::RepeatedField"* %18, i32 %84) #16
  %85 = load float*, float** %22, align 8
  %86 = zext i32 %80 to i64
  %87 = getelementptr inbounds float, float* %85, i64 %86
  %88 = bitcast float* %87 to i32*
  store i32 %79, i32* %88, align 4
  br label %95

89:                                               ; preds = %77
  %90 = load float*, float** %22, align 8
  %91 = zext i32 %80 to i64
  %92 = getelementptr inbounds float, float* %90, i64 %91
  %93 = bitcast float* %92 to i32*
  store i32 %79, i32* %93, align 4
  %94 = add i32 %80, 1
  br label %95

95:                                               ; preds = %83, %89
  %96 = phi i32 [ %94, %89 ], [ %84, %83 ]
  store i32 %96, i32* %19, align 8
  %97 = getelementptr inbounds i8, i8* %68, i64 4
  br label %124

98:                                               ; preds = %70
  %99 = trunc i32 %67 to i8
  switch i8 %99, label %134 [
    i8 18, label %100
    i8 21, label %103
  ], !prof !37

100:                                              ; preds = %98
  %101 = tail call i8* @_ZN6google8protobuf8internal17PackedFloatParserEPvPKcPNS1_12ParseContextE(i8* %17, i8* nonnull %68, %"class.google::protobuf::internal::ParseContext"* %2) #16
  %102 = icmp eq i8* %101, null
  br i1 %102, label %156, label %124, !prof !4

103:                                              ; preds = %98
  %104 = bitcast i8* %68 to i32*
  %105 = load i32, i32* %104, align 1
  %106 = load i32, i32* %13, align 8
  %107 = load i32, i32* %14, align 4
  %108 = icmp eq i32 %106, %107
  br i1 %108, label %109, label %115

109:                                              ; preds = %103
  %110 = add i32 %106, 1
  tail call void @_ZN6google8protobuf13RepeatedFieldIfE7ReserveEi(%"class.google::protobuf::RepeatedField"* %12, i32 %110) #16
  %111 = load float*, float** %16, align 8
  %112 = zext i32 %106 to i64
  %113 = getelementptr inbounds float, float* %111, i64 %112
  %114 = bitcast float* %113 to i32*
  store i32 %105, i32* %114, align 4
  br label %121

115:                                              ; preds = %103
  %116 = load float*, float** %16, align 8
  %117 = zext i32 %106 to i64
  %118 = getelementptr inbounds float, float* %116, i64 %117
  %119 = bitcast float* %118 to i32*
  store i32 %105, i32* %119, align 4
  %120 = add i32 %106, 1
  br label %121

121:                                              ; preds = %109, %115
  %122 = phi i32 [ %120, %115 ], [ %110, %109 ]
  store i32 %122, i32* %13, align 8
  %123 = getelementptr inbounds i8, i8* %68, i64 4
  br label %124

124:                                              ; preds = %121, %100, %95, %74, %152
  %125 = phi i8* [ %154, %152 ], [ %97, %95 ], [ %75, %74 ], [ %123, %121 ], [ %101, %100 ]
  br label %29

126:                                              ; preds = %70
  %127 = and i32 %67, 255
  %128 = icmp eq i32 %127, 29
  br i1 %128, label %129, label %134, !prof !2

129:                                              ; preds = %126
  %130 = or i32 %28, 1
  %131 = bitcast i8* %68 to i32*
  %132 = load i32, i32* %131, align 1
  store i32 %132, i32* %11, align 4
  %133 = getelementptr inbounds i8, i8* %68, i64 4
  br label %26

134:                                              ; preds = %98, %72, %70, %126
  %135 = and i32 %67, 7
  %136 = icmp eq i32 %135, 4
  %137 = icmp eq i32 %67, 0
  %138 = or i1 %137, %136
  br i1 %138, label %139, label %142

139:                                              ; preds = %134
  %140 = add i32 %67, -1
  %141 = getelementptr inbounds %"class.google::protobuf::internal::ParseContext", %"class.google::protobuf::internal::ParseContext"* %2, i64 0, i32 0, i32 8
  store i32 %140, i32* %141, align 8
  br label %156

142:                                              ; preds = %134
  %143 = load i64, i64* %25, align 8
  %144 = and i64 %143, 1
  %145 = icmp eq i64 %144, 0
  br i1 %145, label %150, label %146, !prof !4

146:                                              ; preds = %142
  %147 = and i64 %143, -2
  %148 = inttoptr i64 %147 to %"struct.google::protobuf::internal::InternalMetadata::Container"*
  %149 = getelementptr inbounds %"struct.google::protobuf::internal::InternalMetadata::Container", %"struct.google::protobuf::internal::InternalMetadata::Container"* %148, i64 0, i32 1
  br label %152

150:                                              ; preds = %142
  %151 = tail call %"class.std::__1::basic_string"* @_ZN6google8protobuf8internal16InternalMetadata27mutable_unknown_fields_slowINSt3__112basic_stringIcNS4_11char_traitsIcEENS4_9allocatorIcEEEEEEPT_v(%"class.google::protobuf::internal::InternalMetadata"* %24) #16
  br label %152

152:                                              ; preds = %146, %150
  %153 = phi %"class.std::__1::basic_string"* [ %149, %146 ], [ %151, %150 ]
  %154 = tail call i8* @_ZN6google8protobuf8internal17UnknownFieldParseEjPNSt3__112basic_stringIcNS2_11char_traitsIcEENS2_9allocatorIcEEEEPKcPNS1_12ParseContextE(i32 %67, %"class.std::__1::basic_string"* %153, i8* nonnull %68, %"class.google::protobuf::internal::ParseContext"* %2) #16
  %155 = icmp eq i8* %154, null
  br i1 %155, label %156, label %124

156:                                              ; preds = %41, %152, %34, %66, %74, %100, %139
  %157 = phi i8* [ %68, %139 ], [ null, %100 ], [ null, %74 ], [ null, %66 ], [ %30, %34 ], [ null, %152 ], [ %43, %41 ]
  %158 = getelementptr inbounds %"class.assist_ranker::BucketizedWeights", %"class.assist_ranker::BucketizedWeights"* %0, i64 0, i32 1, i32 0, i64 0
  %159 = load i32, i32* %158, align 4
  %160 = or i32 %159, %28
  store i32 %160, i32* %158, align 4
  ret i8* %157
}

declare i8* @_ZN6google8protobuf8internal17PackedFloatParserEPvPKcPNS1_12ParseContextE(i8*, i8*, %"class.google::protobuf::internal::ParseContext"*) local_unnamed_addr #6

; Function Attrs: nounwind ssp uwtable
define hidden i8* @_ZNK13assist_ranker17BucketizedWeights18_InternalSerializeEPhPN6google8protobuf2io19EpsCopyOutputStreamE(%"class.assist_ranker::BucketizedWeights"* nocapture readonly, i8*, %"class.google::protobuf::io::EpsCopyOutputStream"*) unnamed_addr #0 align 2 {
  %4 = getelementptr inbounds %"class.assist_ranker::BucketizedWeights", %"class.assist_ranker::BucketizedWeights"* %0, i64 0, i32 3, i32 0
  %5 = load i32, i32* %4, align 8
  %6 = icmp sgt i32 %5, 0
  br i1 %6, label %7, label %48

7:                                                ; preds = %3
  %8 = getelementptr inbounds %"class.google::protobuf::io::EpsCopyOutputStream", %"class.google::protobuf::io::EpsCopyOutputStream"* %2, i64 0, i32 0
  %9 = load i8*, i8** %8, align 8
  %10 = icmp ugt i8* %9, %1
  br i1 %10, label %14, label %11, !prof !2

11:                                               ; preds = %7
  %12 = tail call i8* @_ZN6google8protobuf2io19EpsCopyOutputStream19EnsureSpaceFallbackEPh(%"class.google::protobuf::io::EpsCopyOutputStream"* %2, i8* %1) #16
  %13 = load i32, i32* %4, align 8
  br label %14

14:                                               ; preds = %11, %7
  %15 = phi i32 [ %13, %11 ], [ %5, %7 ]
  %16 = phi i8* [ %12, %11 ], [ %1, %7 ]
  %17 = shl i32 %15, 2
  store i8 10, i8* %16, align 1
  %18 = getelementptr inbounds i8, i8* %16, i64 1
  %19 = icmp ugt i32 %17, 127
  %20 = trunc i32 %17 to i8
  br i1 %19, label %21, label %32, !prof !4

21:                                               ; preds = %14, %21
  %22 = phi i8 [ %29, %21 ], [ %20, %14 ]
  %23 = phi i8* [ %27, %21 ], [ %18, %14 ]
  %24 = phi i32 [ %26, %21 ], [ %17, %14 ]
  %25 = or i8 %22, -128
  store i8 %25, i8* %23, align 1
  %26 = lshr i32 %24, 7
  %27 = getelementptr inbounds i8, i8* %23, i64 1
  %28 = icmp ugt i32 %24, 16383
  %29 = trunc i32 %26 to i8
  br i1 %28, label %21, label %30, !prof !4

30:                                               ; preds = %21
  %31 = trunc i32 %26 to i8
  br label %32

32:                                               ; preds = %30, %14
  %33 = phi i8* [ %18, %14 ], [ %27, %30 ]
  %34 = phi i8 [ %20, %14 ], [ %31, %30 ]
  %35 = getelementptr inbounds i8, i8* %33, i64 1
  store i8 %34, i8* %33, align 1
  %36 = getelementptr inbounds %"class.assist_ranker::BucketizedWeights", %"class.assist_ranker::BucketizedWeights"* %0, i64 0, i32 3, i32 2
  %37 = load i8*, i8** %36, align 8
  %38 = bitcast %"class.google::protobuf::io::EpsCopyOutputStream"* %2 to i64*
  %39 = load i64, i64* %38, align 8
  %40 = ptrtoint i8* %35 to i64
  %41 = sub i64 %39, %40
  %42 = sext i32 %17 to i64
  %43 = icmp slt i64 %41, %42
  br i1 %43, label %44, label %46, !prof !4

44:                                               ; preds = %32
  %45 = tail call i8* @_ZN6google8protobuf2io19EpsCopyOutputStream16WriteRawFallbackEPKviPh(%"class.google::protobuf::io::EpsCopyOutputStream"* %2, i8* %37, i32 %17, i8* %35) #16
  br label %48

46:                                               ; preds = %32
  tail call void @llvm.memcpy.p0i8.p0i8.i64(i8* align 1 %35, i8* align 1 %37, i64 %42, i1 false) #16
  %47 = getelementptr inbounds i8, i8* %35, i64 %42
  br label %48

48:                                               ; preds = %46, %44, %3
  %49 = phi i8* [ %1, %3 ], [ %45, %44 ], [ %47, %46 ]
  %50 = getelementptr inbounds %"class.assist_ranker::BucketizedWeights", %"class.assist_ranker::BucketizedWeights"* %0, i64 0, i32 5, i32 0
  %51 = load i32, i32* %50, align 8
  %52 = icmp sgt i32 %51, 0
  br i1 %52, label %53, label %94

53:                                               ; preds = %48
  %54 = getelementptr inbounds %"class.google::protobuf::io::EpsCopyOutputStream", %"class.google::protobuf::io::EpsCopyOutputStream"* %2, i64 0, i32 0
  %55 = load i8*, i8** %54, align 8
  %56 = icmp ugt i8* %55, %49
  br i1 %56, label %60, label %57, !prof !2

57:                                               ; preds = %53
  %58 = tail call i8* @_ZN6google8protobuf2io19EpsCopyOutputStream19EnsureSpaceFallbackEPh(%"class.google::protobuf::io::EpsCopyOutputStream"* %2, i8* %49) #16
  %59 = load i32, i32* %50, align 8
  br label %60

60:                                               ; preds = %57, %53
  %61 = phi i32 [ %59, %57 ], [ %51, %53 ]
  %62 = phi i8* [ %58, %57 ], [ %49, %53 ]
  %63 = shl i32 %61, 2
  store i8 18, i8* %62, align 1
  %64 = getelementptr inbounds i8, i8* %62, i64 1
  %65 = icmp ugt i32 %63, 127
  %66 = trunc i32 %63 to i8
  br i1 %65, label %67, label %78, !prof !4

67:                                               ; preds = %60, %67
  %68 = phi i8 [ %75, %67 ], [ %66, %60 ]
  %69 = phi i8* [ %73, %67 ], [ %64, %60 ]
  %70 = phi i32 [ %72, %67 ], [ %63, %60 ]
  %71 = or i8 %68, -128
  store i8 %71, i8* %69, align 1
  %72 = lshr i32 %70, 7
  %73 = getelementptr inbounds i8, i8* %69, i64 1
  %74 = icmp ugt i32 %70, 16383
  %75 = trunc i32 %72 to i8
  br i1 %74, label %67, label %76, !prof !4

76:                                               ; preds = %67
  %77 = trunc i32 %72 to i8
  br label %78

78:                                               ; preds = %76, %60
  %79 = phi i8* [ %64, %60 ], [ %73, %76 ]
  %80 = phi i8 [ %66, %60 ], [ %77, %76 ]
  %81 = getelementptr inbounds i8, i8* %79, i64 1
  store i8 %80, i8* %79, align 1
  %82 = getelementptr inbounds %"class.assist_ranker::BucketizedWeights", %"class.assist_ranker::BucketizedWeights"* %0, i64 0, i32 5, i32 2
  %83 = load i8*, i8** %82, align 8
  %84 = bitcast %"class.google::protobuf::io::EpsCopyOutputStream"* %2 to i64*
  %85 = load i64, i64* %84, align 8
  %86 = ptrtoint i8* %81 to i64
  %87 = sub i64 %85, %86
  %88 = sext i32 %63 to i64
  %89 = icmp slt i64 %87, %88
  br i1 %89, label %90, label %92, !prof !4

90:                                               ; preds = %78
  %91 = tail call i8* @_ZN6google8protobuf2io19EpsCopyOutputStream16WriteRawFallbackEPKviPh(%"class.google::protobuf::io::EpsCopyOutputStream"* %2, i8* %83, i32 %63, i8* %81) #16
  br label %94

92:                                               ; preds = %78
  tail call void @llvm.memcpy.p0i8.p0i8.i64(i8* align 1 %81, i8* align 1 %83, i64 %88, i1 false) #16
  %93 = getelementptr inbounds i8, i8* %81, i64 %88
  br label %94

94:                                               ; preds = %92, %90, %48
  %95 = phi i8* [ %49, %48 ], [ %91, %90 ], [ %93, %92 ]
  %96 = getelementptr inbounds %"class.assist_ranker::BucketizedWeights", %"class.assist_ranker::BucketizedWeights"* %0, i64 0, i32 1, i32 0, i64 0
  %97 = load i32, i32* %96, align 4
  %98 = and i32 %97, 1
  %99 = icmp eq i32 %98, 0
  br i1 %99, label %114, label %100

100:                                              ; preds = %94
  %101 = getelementptr inbounds %"class.google::protobuf::io::EpsCopyOutputStream", %"class.google::protobuf::io::EpsCopyOutputStream"* %2, i64 0, i32 0
  %102 = load i8*, i8** %101, align 8
  %103 = icmp ugt i8* %102, %95
  br i1 %103, label %106, label %104, !prof !2

104:                                              ; preds = %100
  %105 = tail call i8* @_ZN6google8protobuf2io19EpsCopyOutputStream19EnsureSpaceFallbackEPh(%"class.google::protobuf::io::EpsCopyOutputStream"* %2, i8* %95) #16
  br label %106

106:                                              ; preds = %100, %104
  %107 = phi i8* [ %105, %104 ], [ %95, %100 ]
  %108 = getelementptr inbounds %"class.assist_ranker::BucketizedWeights", %"class.assist_ranker::BucketizedWeights"* %0, i64 0, i32 7
  %109 = bitcast float* %108 to i32*
  %110 = load i32, i32* %109, align 4
  store i8 29, i8* %107, align 1
  %111 = getelementptr inbounds i8, i8* %107, i64 1
  %112 = bitcast i8* %111 to i32*
  store i32 %110, i32* %112, align 1
  %113 = getelementptr inbounds i8, i8* %107, i64 5
  br label %114

114:                                              ; preds = %94, %106
  %115 = phi i8* [ %113, %106 ], [ %95, %94 ]
  %116 = getelementptr inbounds %"class.assist_ranker::BucketizedWeights", %"class.assist_ranker::BucketizedWeights"* %0, i64 0, i32 0, i32 1
  %117 = bitcast %"class.google::protobuf::internal::InternalMetadata"* %116 to i64*
  %118 = load i64, i64* %117, align 8
  %119 = and i64 %118, 1
  %120 = icmp eq i64 %119, 0
  br i1 %120, label %152, label %121, !prof !2

121:                                              ; preds = %114
  %122 = and i64 %118, -2
  %123 = inttoptr i64 %122 to %"struct.google::protobuf::internal::InternalMetadata::Container"*
  %124 = getelementptr inbounds %"struct.google::protobuf::internal::InternalMetadata::Container", %"struct.google::protobuf::internal::InternalMetadata::Container"* %123, i64 0, i32 1
  %125 = bitcast %"class.std::__1::basic_string"* %124 to %"struct.std::__1::basic_string<char, std::__1::char_traits<char>, std::__1::allocator<char> >::__short"*
  %126 = getelementptr inbounds %"struct.std::__1::basic_string<char, std::__1::char_traits<char>, std::__1::allocator<char> >::__short", %"struct.std::__1::basic_string<char, std::__1::char_traits<char>, std::__1::allocator<char> >::__short"* %125, i64 0, i32 1, i32 0
  %127 = load i8, i8* %126, align 1
  %128 = icmp slt i8 %127, 0
  br i1 %128, label %129, label %134

129:                                              ; preds = %121
  %130 = getelementptr inbounds %"class.std::__1::basic_string", %"class.std::__1::basic_string"* %124, i64 0, i32 0, i32 0, i32 0, i32 0, i32 0, i32 0
  %131 = load i8*, i8** %130, align 8
  %132 = getelementptr inbounds %"struct.google::protobuf::internal::InternalMetadata::Container", %"struct.google::protobuf::internal::InternalMetadata::Container"* %123, i64 0, i32 1, i32 0, i32 0, i32 0, i32 0, i32 0, i32 1
  %133 = load i64, i64* %132, align 8
  br label %137

134:                                              ; preds = %121
  %135 = bitcast %"class.std::__1::basic_string"* %124 to i8*
  %136 = zext i8 %127 to i64
  br label %137

137:                                              ; preds = %129, %134
  %138 = phi i8* [ %131, %129 ], [ %135, %134 ]
  %139 = phi i64 [ %133, %129 ], [ %136, %134 ]
  %140 = bitcast %"class.google::protobuf::io::EpsCopyOutputStream"* %2 to i64*
  %141 = load i64, i64* %140, align 8
  %142 = ptrtoint i8* %115 to i64
  %143 = sub i64 %141, %142
  %144 = shl i64 %139, 32
  %145 = ashr exact i64 %144, 32
  %146 = icmp slt i64 %143, %145
  br i1 %146, label %147, label %150, !prof !4

147:                                              ; preds = %137
  %148 = trunc i64 %139 to i32
  %149 = tail call i8* @_ZN6google8protobuf2io19EpsCopyOutputStream16WriteRawFallbackEPKviPh(%"class.google::protobuf::io::EpsCopyOutputStream"* %2, i8* %138, i32 %148, i8* %115) #16
  br label %152

150:                                              ; preds = %137
  tail call void @llvm.memcpy.p0i8.p0i8.i64(i8* align 1 %115, i8* align 1 %138, i64 %145, i1 false) #16
  %151 = getelementptr inbounds i8, i8* %115, i64 %145
  br label %152

152:                                              ; preds = %114, %150, %147
  %153 = phi i8* [ %115, %114 ], [ %149, %147 ], [ %151, %150 ]
  ret i8* %153
}

; Function Attrs: nounwind ssp uwtable
define hidden i64 @_ZNK13assist_ranker17BucketizedWeights12ByteSizeLongEv(%"class.assist_ranker::BucketizedWeights"* nocapture) unnamed_addr #0 align 2 {
  %2 = getelementptr inbounds %"class.assist_ranker::BucketizedWeights", %"class.assist_ranker::BucketizedWeights"* %0, i64 0, i32 3, i32 0
  %3 = load i32, i32* %2, align 8
  %4 = zext i32 %3 to i64
  %5 = shl nuw nsw i64 %4, 2
  %6 = icmp eq i32 %3, 0
  %7 = trunc i64 %5 to i32
  br i1 %6, label %19, label %8

8:                                                ; preds = %1
  %9 = icmp slt i32 %7, 0
  br i1 %9, label %19, label %10

10:                                               ; preds = %8
  %11 = or i32 %7, 1
  %12 = tail call i32 @llvm.ctlz.i32(i32 %11, i1 true) #16, !range !24
  %13 = xor i32 %12, 31
  %14 = mul nuw nsw i32 %13, 9
  %15 = add nuw nsw i32 %14, 73
  %16 = lshr i32 %15, 6
  %17 = add nuw nsw i32 %16, 1
  %18 = zext i32 %17 to i64
  br label %19

19:                                               ; preds = %1, %10, %8
  %20 = phi i64 [ %18, %10 ], [ 11, %8 ], [ 0, %1 ]
  %21 = getelementptr inbounds %"class.assist_ranker::BucketizedWeights", %"class.assist_ranker::BucketizedWeights"* %0, i64 0, i32 4, i32 0, i32 0, i32 0, i32 0, i32 0
  store atomic i32 %7, i32* %21 monotonic, align 4
  %22 = add nuw nsw i64 %20, %5
  %23 = getelementptr inbounds %"class.assist_ranker::BucketizedWeights", %"class.assist_ranker::BucketizedWeights"* %0, i64 0, i32 5, i32 0
  %24 = load i32, i32* %23, align 8
  %25 = zext i32 %24 to i64
  %26 = shl nuw nsw i64 %25, 2
  %27 = icmp eq i32 %24, 0
  %28 = trunc i64 %26 to i32
  br i1 %27, label %43, label %29

29:                                               ; preds = %19
  %30 = icmp slt i32 %28, 0
  br i1 %30, label %40, label %31

31:                                               ; preds = %29
  %32 = or i32 %28, 1
  %33 = tail call i32 @llvm.ctlz.i32(i32 %32, i1 true) #16, !range !24
  %34 = xor i32 %33, 31
  %35 = mul nuw nsw i32 %34, 9
  %36 = add nuw nsw i32 %35, 73
  %37 = lshr i32 %36, 6
  %38 = add nuw nsw i32 %37, 1
  %39 = zext i32 %38 to i64
  br label %40

40:                                               ; preds = %29, %31
  %41 = phi i64 [ %39, %31 ], [ 11, %29 ]
  %42 = add nuw nsw i64 %41, %22
  br label %43

43:                                               ; preds = %19, %40
  %44 = phi i64 [ %42, %40 ], [ %22, %19 ]
  %45 = getelementptr inbounds %"class.assist_ranker::BucketizedWeights", %"class.assist_ranker::BucketizedWeights"* %0, i64 0, i32 6, i32 0, i32 0, i32 0, i32 0, i32 0
  store atomic i32 %28, i32* %45 monotonic, align 4
  %46 = add nuw nsw i64 %44, %26
  %47 = getelementptr inbounds %"class.assist_ranker::BucketizedWeights", %"class.assist_ranker::BucketizedWeights"* %0, i64 0, i32 1, i32 0, i64 0
  %48 = load i32, i32* %47, align 4
  %49 = and i32 %48, 1
  %50 = icmp eq i32 %49, 0
  %51 = add nuw nsw i64 %46, 5
  %52 = select i1 %50, i64 %46, i64 %51
  %53 = getelementptr inbounds %"class.assist_ranker::BucketizedWeights", %"class.assist_ranker::BucketizedWeights"* %0, i64 0, i32 0, i32 1
  %54 = bitcast %"class.google::protobuf::internal::InternalMetadata"* %53 to i64*
  %55 = load i64, i64* %54, align 8
  %56 = and i64 %55, 1
  %57 = icmp eq i64 %56, 0
  br i1 %57, label %74, label %58, !prof !2

58:                                               ; preds = %43
  %59 = and i64 %55, -2
  %60 = inttoptr i64 %59 to %"struct.google::protobuf::internal::InternalMetadata::Container"*
  %61 = getelementptr inbounds %"struct.google::protobuf::internal::InternalMetadata::Container", %"struct.google::protobuf::internal::InternalMetadata::Container"* %60, i64 0, i32 1
  %62 = bitcast %"class.std::__1::basic_string"* %61 to %"struct.std::__1::basic_string<char, std::__1::char_traits<char>, std::__1::allocator<char> >::__short"*
  %63 = getelementptr inbounds %"struct.std::__1::basic_string<char, std::__1::char_traits<char>, std::__1::allocator<char> >::__short", %"struct.std::__1::basic_string<char, std::__1::char_traits<char>, std::__1::allocator<char> >::__short"* %62, i64 0, i32 1, i32 0
  %64 = load i8, i8* %63, align 1
  %65 = icmp slt i8 %64, 0
  br i1 %65, label %66, label %69

66:                                               ; preds = %58
  %67 = getelementptr inbounds %"struct.google::protobuf::internal::InternalMetadata::Container", %"struct.google::protobuf::internal::InternalMetadata::Container"* %60, i64 0, i32 1, i32 0, i32 0, i32 0, i32 0, i32 0, i32 1
  %68 = load i64, i64* %67, align 8
  br label %71

69:                                               ; preds = %58
  %70 = zext i8 %64 to i64
  br label %71

71:                                               ; preds = %66, %69
  %72 = phi i64 [ %68, %66 ], [ %70, %69 ]
  %73 = add i64 %72, %52
  br label %74

74:                                               ; preds = %43, %71
  %75 = phi i64 [ %73, %71 ], [ %52, %43 ]
  %76 = trunc i64 %75 to i32
  %77 = getelementptr inbounds %"class.assist_ranker::BucketizedWeights", %"class.assist_ranker::BucketizedWeights"* %0, i64 0, i32 2, i32 0, i32 0, i32 0, i32 0, i32 0, i32 0
  store atomic i32 %76, i32* %77 monotonic, align 4
  ret i64 %75
}

; Function Attrs: nounwind ssp uwtable
define hidden void @_ZN13assist_ranker17BucketizedWeights21CheckTypeAndMergeFromERKN6google8protobuf11MessageLiteE(%"class.assist_ranker::BucketizedWeights"*, %"class.google::protobuf::MessageLite"* nocapture readonly dereferenceable(16)) unnamed_addr #0 align 2 {
  %3 = bitcast %"class.google::protobuf::MessageLite"* %1 to %"class.assist_ranker::BucketizedWeights"*
  tail call void @_ZN13assist_ranker17BucketizedWeights9MergeFromERKS0_(%"class.assist_ranker::BucketizedWeights"* %0, %"class.assist_ranker::BucketizedWeights"* dereferenceable(72) %3)
  ret void
}

; Function Attrs: nounwind ssp uwtable
define hidden void @_ZN13assist_ranker17BucketizedWeights9MergeFromERKS0_(%"class.assist_ranker::BucketizedWeights"*, %"class.assist_ranker::BucketizedWeights"* nocapture readonly dereferenceable(72)) local_unnamed_addr #0 align 2 {
  %3 = getelementptr inbounds %"class.assist_ranker::BucketizedWeights", %"class.assist_ranker::BucketizedWeights"* %0, i64 0, i32 0, i32 1
  %4 = getelementptr inbounds %"class.assist_ranker::BucketizedWeights", %"class.assist_ranker::BucketizedWeights"* %1, i64 0, i32 0, i32 1
  %5 = bitcast %"class.google::protobuf::internal::InternalMetadata"* %4 to i64*
  %6 = load i64, i64* %5, align 8
  %7 = and i64 %6, 1
  %8 = icmp eq i64 %7, 0
  br i1 %8, label %38, label %9

9:                                                ; preds = %2
  %10 = and i64 %6, -2
  %11 = inttoptr i64 %10 to %"struct.google::protobuf::internal::InternalMetadata::Container"*
  %12 = getelementptr inbounds %"struct.google::protobuf::internal::InternalMetadata::Container", %"struct.google::protobuf::internal::InternalMetadata::Container"* %11, i64 0, i32 1
  %13 = bitcast %"class.google::protobuf::internal::InternalMetadata"* %3 to i64*
  %14 = load i64, i64* %13, align 8
  %15 = and i64 %14, 1
  %16 = icmp eq i64 %15, 0
  br i1 %16, label %21, label %17, !prof !4

17:                                               ; preds = %9
  %18 = and i64 %14, -2
  %19 = inttoptr i64 %18 to %"struct.google::protobuf::internal::InternalMetadata::Container"*
  %20 = getelementptr inbounds %"struct.google::protobuf::internal::InternalMetadata::Container", %"struct.google::protobuf::internal::InternalMetadata::Container"* %19, i64 0, i32 1
  br label %23

21:                                               ; preds = %9
  %22 = tail call %"class.std::__1::basic_string"* @_ZN6google8protobuf8internal16InternalMetadata27mutable_unknown_fields_slowINSt3__112basic_stringIcNS4_11char_traitsIcEENS4_9allocatorIcEEEEEEPT_v(%"class.google::protobuf::internal::InternalMetadata"* %3) #16
  br label %23

23:                                               ; preds = %21, %17
  %24 = phi %"class.std::__1::basic_string"* [ %20, %17 ], [ %22, %21 ]
  %25 = bitcast %"class.std::__1::basic_string"* %12 to %"struct.std::__1::basic_string<char, std::__1::char_traits<char>, std::__1::allocator<char> >::__short"*
  %26 = getelementptr inbounds %"struct.std::__1::basic_string<char, std::__1::char_traits<char>, std::__1::allocator<char> >::__short", %"struct.std::__1::basic_string<char, std::__1::char_traits<char>, std::__1::allocator<char> >::__short"* %25, i64 0, i32 1, i32 0
  %27 = load i8, i8* %26, align 1
  %28 = icmp slt i8 %27, 0
  %29 = getelementptr inbounds %"class.std::__1::basic_string", %"class.std::__1::basic_string"* %12, i64 0, i32 0, i32 0, i32 0, i32 0, i32 0, i32 0
  %30 = load i8*, i8** %29, align 8
  %31 = getelementptr inbounds %"struct.google::protobuf::internal::InternalMetadata::Container", %"struct.google::protobuf::internal::InternalMetadata::Container"* %11, i64 0, i32 1, i32 0, i32 0, i32 0, i32 0, i32 0, i32 1
  %32 = load i64, i64* %31, align 8
  %33 = bitcast %"class.std::__1::basic_string"* %12 to i8*
  %34 = zext i8 %27 to i64
  %35 = select i1 %28, i8* %30, i8* %33
  %36 = select i1 %28, i64 %32, i64 %34
  %37 = tail call dereferenceable(24) %"class.std::__1::basic_string"* @_ZNSt3__112basic_stringIcNS_11char_traitsIcEENS_9allocatorIcEEE6appendEPKcm(%"class.std::__1::basic_string"* %24, i8* %35, i64 %36) #16
  br label %38

38:                                               ; preds = %2, %23
  %39 = getelementptr inbounds %"class.assist_ranker::BucketizedWeights", %"class.assist_ranker::BucketizedWeights"* %0, i64 0, i32 3
  %40 = getelementptr inbounds %"class.assist_ranker::BucketizedWeights", %"class.assist_ranker::BucketizedWeights"* %1, i64 0, i32 3, i32 0
  %41 = load i32, i32* %40, align 8
  %42 = icmp eq i32 %41, 0
  br i1 %42, label %61, label %43

43:                                               ; preds = %38
  %44 = getelementptr inbounds %"class.google::protobuf::RepeatedField", %"class.google::protobuf::RepeatedField"* %39, i64 0, i32 0
  %45 = load i32, i32* %44, align 8
  %46 = add nsw i32 %45, %41
  tail call void @_ZN6google8protobuf13RepeatedFieldIfE7ReserveEi(%"class.google::protobuf::RepeatedField"* %39, i32 %46) #16
  %47 = load i32, i32* %40, align 8
  %48 = getelementptr inbounds %"class.assist_ranker::BucketizedWeights", %"class.assist_ranker::BucketizedWeights"* %0, i64 0, i32 3, i32 2
  %49 = bitcast i8** %48 to float**
  %50 = load float*, float** %49, align 8
  %51 = load i32, i32* %44, align 8
  %52 = add nsw i32 %51, %47
  store i32 %52, i32* %44, align 8
  %53 = sext i32 %45 to i64
  %54 = getelementptr inbounds float, float* %50, i64 %53
  %55 = getelementptr inbounds %"class.assist_ranker::BucketizedWeights", %"class.assist_ranker::BucketizedWeights"* %1, i64 0, i32 3, i32 2
  %56 = load i8*, i8** %55, align 8
  %57 = load i32, i32* %40, align 8
  %58 = bitcast float* %54 to i8*
  %59 = sext i32 %57 to i64
  %60 = shl nsw i64 %59, 2
  tail call void @llvm.memcpy.p0i8.p0i8.i64(i8* align 4 %58, i8* align 4 %56, i64 %60, i1 false) #16
  br label %61

61:                                               ; preds = %38, %43
  %62 = getelementptr inbounds %"class.assist_ranker::BucketizedWeights", %"class.assist_ranker::BucketizedWeights"* %0, i64 0, i32 5
  %63 = getelementptr inbounds %"class.assist_ranker::BucketizedWeights", %"class.assist_ranker::BucketizedWeights"* %1, i64 0, i32 5, i32 0
  %64 = load i32, i32* %63, align 8
  %65 = icmp eq i32 %64, 0
  br i1 %65, label %84, label %66

66:                                               ; preds = %61
  %67 = getelementptr inbounds %"class.google::protobuf::RepeatedField", %"class.google::protobuf::RepeatedField"* %62, i64 0, i32 0
  %68 = load i32, i32* %67, align 8
  %69 = add nsw i32 %68, %64
  tail call void @_ZN6google8protobuf13RepeatedFieldIfE7ReserveEi(%"class.google::protobuf::RepeatedField"* %62, i32 %69) #16
  %70 = load i32, i32* %63, align 8
  %71 = getelementptr inbounds %"class.assist_ranker::BucketizedWeights", %"class.assist_ranker::BucketizedWeights"* %0, i64 0, i32 5, i32 2
  %72 = bitcast i8** %71 to float**
  %73 = load float*, float** %72, align 8
  %74 = load i32, i32* %67, align 8
  %75 = add nsw i32 %74, %70
  store i32 %75, i32* %67, align 8
  %76 = sext i32 %68 to i64
  %77 = getelementptr inbounds float, float* %73, i64 %76
  %78 = getelementptr inbounds %"class.assist_ranker::BucketizedWeights", %"class.assist_ranker::BucketizedWeights"* %1, i64 0, i32 5, i32 2
  %79 = load i8*, i8** %78, align 8
  %80 = load i32, i32* %63, align 8
  %81 = bitcast float* %77 to i8*
  %82 = sext i32 %80 to i64
  %83 = shl nsw i64 %82, 2
  tail call void @llvm.memcpy.p0i8.p0i8.i64(i8* align 4 %81, i8* align 4 %79, i64 %83, i1 false) #16
  br label %84

84:                                               ; preds = %61, %66
  %85 = getelementptr inbounds %"class.assist_ranker::BucketizedWeights", %"class.assist_ranker::BucketizedWeights"* %1, i64 0, i32 1, i32 0, i64 0
  %86 = load i32, i32* %85, align 4
  %87 = and i32 %86, 1
  %88 = icmp eq i32 %87, 0
  br i1 %88, label %98, label %89

89:                                               ; preds = %84
  %90 = getelementptr inbounds %"class.assist_ranker::BucketizedWeights", %"class.assist_ranker::BucketizedWeights"* %1, i64 0, i32 7
  %91 = bitcast float* %90 to i32*
  %92 = load i32, i32* %91, align 4
  %93 = getelementptr inbounds %"class.assist_ranker::BucketizedWeights", %"class.assist_ranker::BucketizedWeights"* %0, i64 0, i32 1, i32 0, i64 0
  %94 = load i32, i32* %93, align 4
  %95 = or i32 %94, 1
  store i32 %95, i32* %93, align 4
  %96 = getelementptr inbounds %"class.assist_ranker::BucketizedWeights", %"class.assist_ranker::BucketizedWeights"* %0, i64 0, i32 7
  %97 = bitcast float* %96 to i32*
  store i32 %92, i32* %97, align 4
  br label %98

98:                                               ; preds = %84, %89
  ret void
}

; Function Attrs: nounwind ssp uwtable
define hidden void @_ZN13assist_ranker17BucketizedWeights8CopyFromERKS0_(%"class.assist_ranker::BucketizedWeights"*, %"class.assist_ranker::BucketizedWeights"* readonly dereferenceable(72)) local_unnamed_addr #0 align 2 {
  %3 = icmp eq %"class.assist_ranker::BucketizedWeights"* %1, %0
  br i1 %3, label %29, label %4

4:                                                ; preds = %2
  %5 = getelementptr inbounds %"class.assist_ranker::BucketizedWeights", %"class.assist_ranker::BucketizedWeights"* %0, i64 0, i32 3, i32 0
  store i32 0, i32* %5, align 8
  %6 = getelementptr inbounds %"class.assist_ranker::BucketizedWeights", %"class.assist_ranker::BucketizedWeights"* %0, i64 0, i32 5, i32 0
  store i32 0, i32* %6, align 8
  %7 = getelementptr inbounds %"class.assist_ranker::BucketizedWeights", %"class.assist_ranker::BucketizedWeights"* %0, i64 0, i32 7
  store float 0.000000e+00, float* %7, align 4
  %8 = getelementptr inbounds %"class.assist_ranker::BucketizedWeights", %"class.assist_ranker::BucketizedWeights"* %0, i64 0, i32 1, i32 0, i64 0
  store i32 0, i32* %8, align 4
  %9 = getelementptr inbounds %"class.assist_ranker::BucketizedWeights", %"class.assist_ranker::BucketizedWeights"* %0, i64 0, i32 0, i32 1
  %10 = bitcast %"class.google::protobuf::internal::InternalMetadata"* %9 to i64*
  %11 = load i64, i64* %10, align 8
  %12 = and i64 %11, 1
  %13 = icmp eq i64 %12, 0
  br i1 %13, label %28, label %14

14:                                               ; preds = %4
  %15 = and i64 %11, -2
  %16 = inttoptr i64 %15 to %"struct.google::protobuf::internal::InternalMetadata::Container"*
  %17 = getelementptr inbounds %"struct.google::protobuf::internal::InternalMetadata::Container", %"struct.google::protobuf::internal::InternalMetadata::Container"* %16, i64 0, i32 1
  %18 = bitcast %"class.std::__1::basic_string"* %17 to %"struct.std::__1::basic_string<char, std::__1::char_traits<char>, std::__1::allocator<char> >::__short"*
  %19 = getelementptr inbounds %"struct.std::__1::basic_string<char, std::__1::char_traits<char>, std::__1::allocator<char> >::__short", %"struct.std::__1::basic_string<char, std::__1::char_traits<char>, std::__1::allocator<char> >::__short"* %18, i64 0, i32 1, i32 0
  %20 = load i8, i8* %19, align 1
  %21 = icmp slt i8 %20, 0
  br i1 %21, label %22, label %26

22:                                               ; preds = %14
  %23 = getelementptr inbounds %"class.std::__1::basic_string", %"class.std::__1::basic_string"* %17, i64 0, i32 0, i32 0, i32 0, i32 0, i32 0, i32 0
  %24 = load i8*, i8** %23, align 8
  store i8 0, i8* %24, align 1
  %25 = getelementptr inbounds %"struct.google::protobuf::internal::InternalMetadata::Container", %"struct.google::protobuf::internal::InternalMetadata::Container"* %16, i64 0, i32 1, i32 0, i32 0, i32 0, i32 0, i32 0, i32 1
  store i64 0, i64* %25, align 8
  br label %28

26:                                               ; preds = %14
  %27 = bitcast %"class.std::__1::basic_string"* %17 to i8*
  store i8 0, i8* %27, align 2
  store i8 0, i8* %19, align 1
  br label %28

28:                                               ; preds = %4, %22, %26
  tail call void @_ZN13assist_ranker17BucketizedWeights9MergeFromERKS0_(%"class.assist_ranker::BucketizedWeights"* %0, %"class.assist_ranker::BucketizedWeights"* dereferenceable(72) %1)
  br label %29

29:                                               ; preds = %2, %28
  ret void
}

; Function Attrs: norecurse nounwind readnone ssp uwtable
define hidden zeroext i1 @_ZNK13assist_ranker17BucketizedWeights13IsInitializedEv(%"class.assist_ranker::BucketizedWeights"* nocapture readnone) unnamed_addr #4 align 2 {
  ret i1 true
}

; Function Attrs: nounwind ssp uwtable
define hidden void @_ZN13assist_ranker17BucketizedWeights12InternalSwapEPS0_(%"class.assist_ranker::BucketizedWeights"*, %"class.assist_ranker::BucketizedWeights"*) local_unnamed_addr #0 align 2 {
  %3 = getelementptr inbounds %"class.assist_ranker::BucketizedWeights", %"class.assist_ranker::BucketizedWeights"* %0, i64 0, i32 0, i32 1
  %4 = getelementptr inbounds %"class.assist_ranker::BucketizedWeights", %"class.assist_ranker::BucketizedWeights"* %1, i64 0, i32 0, i32 1
  %5 = bitcast %"class.google::protobuf::internal::InternalMetadata"* %3 to i64*
  %6 = load i64, i64* %5, align 8
  %7 = bitcast %"class.google::protobuf::internal::InternalMetadata"* %4 to i64*
  %8 = load i64, i64* %7, align 8
  %9 = or i64 %8, %6
  %10 = and i64 %9, 1
  %11 = icmp eq i64 %10, 0
  br i1 %11, label %43, label %12

12:                                               ; preds = %2
  %13 = and i64 %8, 1
  %14 = icmp eq i64 %13, 0
  br i1 %14, label %19, label %15, !prof !4

15:                                               ; preds = %12
  %16 = and i64 %8, -2
  %17 = inttoptr i64 %16 to %"struct.google::protobuf::internal::InternalMetadata::Container"*
  %18 = getelementptr inbounds %"struct.google::protobuf::internal::InternalMetadata::Container", %"struct.google::protobuf::internal::InternalMetadata::Container"* %17, i64 0, i32 1
  br label %22

19:                                               ; preds = %12
  %20 = tail call %"class.std::__1::basic_string"* @_ZN6google8protobuf8internal16InternalMetadata27mutable_unknown_fields_slowINSt3__112basic_stringIcNS4_11char_traitsIcEENS4_9allocatorIcEEEEEEPT_v(%"class.google::protobuf::internal::InternalMetadata"* %4) #16
  %21 = load i64, i64* %5, align 8
  br label %22

22:                                               ; preds = %19, %15
  %23 = phi i64 [ %6, %15 ], [ %21, %19 ]
  %24 = phi %"class.std::__1::basic_string"* [ %18, %15 ], [ %20, %19 ]
  %25 = and i64 %23, 1
  %26 = icmp eq i64 %25, 0
  br i1 %26, label %31, label %27, !prof !4

27:                                               ; preds = %22
  %28 = and i64 %23, -2
  %29 = inttoptr i64 %28 to %"struct.google::protobuf::internal::InternalMetadata::Container"*
  %30 = getelementptr inbounds %"struct.google::protobuf::internal::InternalMetadata::Container", %"struct.google::protobuf::internal::InternalMetadata::Container"* %29, i64 0, i32 1
  br label %33

31:                                               ; preds = %22
  %32 = tail call %"class.std::__1::basic_string"* @_ZN6google8protobuf8internal16InternalMetadata27mutable_unknown_fields_slowINSt3__112basic_stringIcNS4_11char_traitsIcEENS4_9allocatorIcEEEEEEPT_v(%"class.google::protobuf::internal::InternalMetadata"* %3) #16
  br label %33

33:                                               ; preds = %31, %27
  %34 = phi %"class.std::__1::basic_string"* [ %30, %27 ], [ %32, %31 ]
  %35 = bitcast %"class.std::__1::basic_string"* %34 to <2 x i64>*
  %36 = load <2 x i64>, <2 x i64>* %35, align 8
  %37 = getelementptr inbounds %"class.std::__1::basic_string", %"class.std::__1::basic_string"* %34, i64 0, i32 0, i32 0, i32 0, i32 0, i32 0, i32 2
  %38 = load i64, i64* %37, align 8
  %39 = bitcast %"class.std::__1::basic_string"* %34 to i8*
  %40 = bitcast %"class.std::__1::basic_string"* %24 to i8*
  tail call void @llvm.memcpy.p0i8.p0i8.i64(i8* align 8 %39, i8* align 8 %40, i64 24, i1 false) #16
  %41 = bitcast %"class.std::__1::basic_string"* %24 to <2 x i64>*
  store <2 x i64> %36, <2 x i64>* %41, align 8
  %42 = getelementptr inbounds %"class.std::__1::basic_string", %"class.std::__1::basic_string"* %24, i64 0, i32 0, i32 0, i32 0, i32 0, i32 0, i32 2
  store i64 %38, i64* %42, align 8
  br label %43

43:                                               ; preds = %2, %33
  %44 = getelementptr inbounds %"class.assist_ranker::BucketizedWeights", %"class.assist_ranker::BucketizedWeights"* %0, i64 0, i32 1, i32 0, i64 0
  %45 = getelementptr inbounds %"class.assist_ranker::BucketizedWeights", %"class.assist_ranker::BucketizedWeights"* %1, i64 0, i32 1, i32 0, i64 0
  %46 = load i32, i32* %44, align 4
  %47 = load i32, i32* %45, align 4
  store i32 %47, i32* %44, align 4
  store i32 %46, i32* %45, align 4
  %48 = getelementptr inbounds %"class.assist_ranker::BucketizedWeights", %"class.assist_ranker::BucketizedWeights"* %0, i64 0, i32 3
  %49 = getelementptr inbounds %"class.assist_ranker::BucketizedWeights", %"class.assist_ranker::BucketizedWeights"* %1, i64 0, i32 3
  %50 = bitcast %"class.google::protobuf::RepeatedField"* %48 to i8*
  %51 = bitcast %"class.google::protobuf::RepeatedField"* %49 to i8*
  %52 = bitcast %"class.google::protobuf::RepeatedField"* %48 to i128*
  %53 = load i128, i128* %52, align 1
  tail call void @llvm.memcpy.p0i8.p0i8.i64(i8* align 1 %50, i8* align 1 %51, i64 16, i1 false) #16
  %54 = bitcast %"class.google::protobuf::RepeatedField"* %49 to i128*
  store i128 %53, i128* %54, align 1
  %55 = getelementptr inbounds %"class.assist_ranker::BucketizedWeights", %"class.assist_ranker::BucketizedWeights"* %0, i64 0, i32 5
  %56 = getelementptr inbounds %"class.assist_ranker::BucketizedWeights", %"class.assist_ranker::BucketizedWeights"* %1, i64 0, i32 5
  %57 = bitcast %"class.google::protobuf::RepeatedField"* %55 to i8*
  %58 = bitcast %"class.google::protobuf::RepeatedField"* %56 to i8*
  %59 = bitcast %"class.google::protobuf::RepeatedField"* %55 to i128*
  %60 = load i128, i128* %59, align 1
  tail call void @llvm.memcpy.p0i8.p0i8.i64(i8* align 1 %57, i8* align 1 %58, i64 16, i1 false) #16
  %61 = bitcast %"class.google::protobuf::RepeatedField"* %56 to i128*
  store i128 %60, i128* %61, align 1
  %62 = getelementptr inbounds %"class.assist_ranker::BucketizedWeights", %"class.assist_ranker::BucketizedWeights"* %0, i64 0, i32 7
  %63 = getelementptr inbounds %"class.assist_ranker::BucketizedWeights", %"class.assist_ranker::BucketizedWeights"* %1, i64 0, i32 7
  %64 = bitcast float* %62 to i32*
  %65 = load i32, i32* %64, align 4
  %66 = bitcast float* %63 to i32*
  %67 = load i32, i32* %66, align 4
  store i32 %67, i32* %64, align 4
  store i32 %65, i32* %66, align 4
  ret void
}

; Function Attrs: nounwind ssp uwtable
define hidden void @_ZNK13assist_ranker17BucketizedWeights11GetTypeNameEv(%"class.std::__1::basic_string"* noalias sret, %"class.assist_ranker::BucketizedWeights"* nocapture readnone) unnamed_addr #0 align 2 {
  %3 = tail call i8* @_Znwm(i64 32) #17
  %4 = getelementptr inbounds %"class.std::__1::basic_string", %"class.std::__1::basic_string"* %0, i64 0, i32 0, i32 0, i32 0, i32 0, i32 0, i32 0
  store i8* %3, i8** %4, align 8
  %5 = getelementptr inbounds %"class.std::__1::basic_string", %"class.std::__1::basic_string"* %0, i64 0, i32 0, i32 0, i32 0, i32 0, i32 0, i32 1
  %6 = bitcast i64* %5 to <2 x i64>*
  store <2 x i64> <i64 31, i64 -9223372036854775776>, <2 x i64>* %6, align 8
  tail call void @llvm.memcpy.p0i8.p0i8.i64(i8* nonnull align 1 %3, i8* align 1 getelementptr inbounds ([32 x i8], [32 x i8]* @.str.7, i64 0, i64 0), i64 31, i1 false) #16
  %7 = getelementptr inbounds i8, i8* %3, i64 31
  store i8 0, i8* %7, align 1
  ret void
}

; Function Attrs: norecurse nounwind readonly ssp uwtable
define hidden dereferenceable(80) %"class.assist_ranker::SparseWeights"* @_ZN13assist_ranker13FeatureWeight9_Internal7one_hotEPKS0_(%"class.assist_ranker::FeatureWeight"* nocapture readonly) local_unnamed_addr #10 align 2 {
  %2 = getelementptr inbounds %"class.assist_ranker::FeatureWeight", %"class.assist_ranker::FeatureWeight"* %0, i64 0, i32 1, i32 0
  %3 = load %"class.assist_ranker::SparseWeights"*, %"class.assist_ranker::SparseWeights"** %2, align 8
  ret %"class.assist_ranker::SparseWeights"* %3
}

; Function Attrs: norecurse nounwind readonly ssp uwtable
define hidden dereferenceable(80) %"class.assist_ranker::SparseWeights"* @_ZN13assist_ranker13FeatureWeight9_Internal6sparseEPKS0_(%"class.assist_ranker::FeatureWeight"* nocapture readonly) local_unnamed_addr #10 align 2 {
  %2 = getelementptr inbounds %"class.assist_ranker::FeatureWeight", %"class.assist_ranker::FeatureWeight"* %0, i64 0, i32 1, i32 0
  %3 = load %"class.assist_ranker::SparseWeights"*, %"class.assist_ranker::SparseWeights"** %2, align 8
  ret %"class.assist_ranker::SparseWeights"* %3
}

; Function Attrs: norecurse nounwind readonly ssp uwtable
define hidden dereferenceable(72) %"class.assist_ranker::BucketizedWeights"* @_ZN13assist_ranker13FeatureWeight9_Internal10bucketizedEPKS0_(%"class.assist_ranker::FeatureWeight"* nocapture readonly) local_unnamed_addr #10 align 2 {
  %2 = getelementptr inbounds %"class.assist_ranker::FeatureWeight", %"class.assist_ranker::FeatureWeight"* %0, i64 0, i32 1
  %3 = bitcast %"union.assist_ranker::FeatureWeight::FeatureTypeUnion"* %2 to %"class.assist_ranker::BucketizedWeights"**
  %4 = load %"class.assist_ranker::BucketizedWeights"*, %"class.assist_ranker::BucketizedWeights"** %3, align 8
  ret %"class.assist_ranker::BucketizedWeights"* %4
}

; Function Attrs: nounwind ssp uwtable
define hidden void @_ZN13assist_ranker13FeatureWeight21set_allocated_one_hotEPNS_13SparseWeightsE(%"class.assist_ranker::FeatureWeight"* nocapture, %"class.assist_ranker::SparseWeights"*) local_unnamed_addr #0 align 2 {
  %3 = getelementptr inbounds %"class.assist_ranker::FeatureWeight", %"class.assist_ranker::FeatureWeight"* %0, i64 0, i32 0, i32 1
  %4 = bitcast %"class.google::protobuf::internal::InternalMetadata"* %3 to i64*
  %5 = load i64, i64* %4, align 8
  %6 = and i64 %5, 1
  %7 = icmp eq i64 %6, 0
  %8 = and i64 %5, -2
  br i1 %7, label %13, label %9, !prof !2

9:                                                ; preds = %2
  %10 = inttoptr i64 %8 to %"struct.google::protobuf::internal::InternalMetadata::ContainerBase"*
  %11 = getelementptr inbounds %"struct.google::protobuf::internal::InternalMetadata::ContainerBase", %"struct.google::protobuf::internal::InternalMetadata::ContainerBase"* %10, i64 0, i32 0
  %12 = load %"class.google::protobuf::Arena"*, %"class.google::protobuf::Arena"** %11, align 8
  br label %15

13:                                               ; preds = %2
  %14 = inttoptr i64 %8 to %"class.google::protobuf::Arena"*
  br label %15

15:                                               ; preds = %9, %13
  %16 = phi %"class.google::protobuf::Arena"* [ %12, %9 ], [ %14, %13 ]
  tail call void @_ZN13assist_ranker13FeatureWeight18clear_feature_typeEv(%"class.assist_ranker::FeatureWeight"* %0)
  %17 = icmp eq %"class.assist_ranker::SparseWeights"* %1, null
  br i1 %17, label %42, label %18

18:                                               ; preds = %15
  %19 = getelementptr inbounds %"class.assist_ranker::SparseWeights", %"class.assist_ranker::SparseWeights"* %1, i64 0, i32 0, i32 1
  %20 = bitcast %"class.google::protobuf::internal::InternalMetadata"* %19 to i64*
  %21 = load i64, i64* %20, align 8
  %22 = and i64 %21, 1
  %23 = icmp eq i64 %22, 0
  %24 = and i64 %21, -2
  br i1 %23, label %29, label %25, !prof !2

25:                                               ; preds = %18
  %26 = inttoptr i64 %24 to %"struct.google::protobuf::internal::InternalMetadata::ContainerBase"*
  %27 = getelementptr inbounds %"struct.google::protobuf::internal::InternalMetadata::ContainerBase", %"struct.google::protobuf::internal::InternalMetadata::ContainerBase"* %26, i64 0, i32 0
  %28 = load %"class.google::protobuf::Arena"*, %"class.google::protobuf::Arena"** %27, align 8
  br label %31

29:                                               ; preds = %18
  %30 = inttoptr i64 %24 to %"class.google::protobuf::Arena"*
  br label %31

31:                                               ; preds = %25, %29
  %32 = phi %"class.google::protobuf::Arena"* [ %28, %25 ], [ %30, %29 ]
  %33 = icmp eq %"class.google::protobuf::Arena"* %16, %32
  br i1 %33, label %38, label %34

34:                                               ; preds = %31
  %35 = getelementptr inbounds %"class.assist_ranker::SparseWeights", %"class.assist_ranker::SparseWeights"* %1, i64 0, i32 0
  %36 = tail call %"class.google::protobuf::MessageLite"* @_ZN6google8protobuf8internal23GetOwnedMessageInternalEPNS0_5ArenaEPNS0_11MessageLiteES3_(%"class.google::protobuf::Arena"* %16, %"class.google::protobuf::MessageLite"* %35, %"class.google::protobuf::Arena"* %32) #16
  %37 = bitcast %"class.google::protobuf::MessageLite"* %36 to %"class.assist_ranker::SparseWeights"*
  br label %38

38:                                               ; preds = %31, %34
  %39 = phi %"class.assist_ranker::SparseWeights"* [ %37, %34 ], [ %1, %31 ]
  %40 = getelementptr inbounds %"class.assist_ranker::FeatureWeight", %"class.assist_ranker::FeatureWeight"* %0, i64 0, i32 3, i64 0
  store i32 2, i32* %40, align 4
  %41 = getelementptr inbounds %"class.assist_ranker::FeatureWeight", %"class.assist_ranker::FeatureWeight"* %0, i64 0, i32 1, i32 0
  store %"class.assist_ranker::SparseWeights"* %39, %"class.assist_ranker::SparseWeights"** %41, align 8
  br label %42

42:                                               ; preds = %15, %38
  ret void
}

; Function Attrs: nounwind ssp uwtable
define hidden void @_ZN13assist_ranker13FeatureWeight18clear_feature_typeEv(%"class.assist_ranker::FeatureWeight"* nocapture) local_unnamed_addr #0 align 2 {
  %2 = getelementptr inbounds %"class.assist_ranker::FeatureWeight", %"class.assist_ranker::FeatureWeight"* %0, i64 0, i32 3, i64 0
  %3 = load i32, i32* %2, align 4
  switch i32 %3, label %80 [
    i32 4, label %54
    i32 2, label %4
    i32 3, label %29
  ]

4:                                                ; preds = %1
  %5 = getelementptr inbounds %"class.assist_ranker::FeatureWeight", %"class.assist_ranker::FeatureWeight"* %0, i64 0, i32 0, i32 1
  %6 = bitcast %"class.google::protobuf::internal::InternalMetadata"* %5 to i64*
  %7 = load i64, i64* %6, align 8
  %8 = and i64 %7, 1
  %9 = icmp eq i64 %8, 0
  %10 = and i64 %7, -2
  br i1 %9, label %15, label %11, !prof !2

11:                                               ; preds = %4
  %12 = inttoptr i64 %10 to %"struct.google::protobuf::internal::InternalMetadata::ContainerBase"*
  %13 = getelementptr inbounds %"struct.google::protobuf::internal::InternalMetadata::ContainerBase", %"struct.google::protobuf::internal::InternalMetadata::ContainerBase"* %12, i64 0, i32 0
  %14 = load %"class.google::protobuf::Arena"*, %"class.google::protobuf::Arena"** %13, align 8
  br label %17

15:                                               ; preds = %4
  %16 = inttoptr i64 %10 to %"class.google::protobuf::Arena"*
  br label %17

17:                                               ; preds = %11, %15
  %18 = phi %"class.google::protobuf::Arena"* [ %14, %11 ], [ %16, %15 ]
  %19 = icmp eq %"class.google::protobuf::Arena"* %18, null
  br i1 %19, label %20, label %80

20:                                               ; preds = %17
  %21 = getelementptr inbounds %"class.assist_ranker::FeatureWeight", %"class.assist_ranker::FeatureWeight"* %0, i64 0, i32 1, i32 0
  %22 = load %"class.assist_ranker::SparseWeights"*, %"class.assist_ranker::SparseWeights"** %21, align 8
  %23 = icmp eq %"class.assist_ranker::SparseWeights"* %22, null
  br i1 %23, label %80, label %24

24:                                               ; preds = %20
  %25 = bitcast %"class.assist_ranker::SparseWeights"* %22 to void (%"class.assist_ranker::SparseWeights"*)***
  %26 = load void (%"class.assist_ranker::SparseWeights"*)**, void (%"class.assist_ranker::SparseWeights"*)*** %25, align 8
  %27 = getelementptr inbounds void (%"class.assist_ranker::SparseWeights"*)*, void (%"class.assist_ranker::SparseWeights"*)** %26, i64 1
  %28 = load void (%"class.assist_ranker::SparseWeights"*)*, void (%"class.assist_ranker::SparseWeights"*)** %27, align 8
  tail call void %28(%"class.assist_ranker::SparseWeights"* nonnull %22) #16
  br label %80

29:                                               ; preds = %1
  %30 = getelementptr inbounds %"class.assist_ranker::FeatureWeight", %"class.assist_ranker::FeatureWeight"* %0, i64 0, i32 0, i32 1
  %31 = bitcast %"class.google::protobuf::internal::InternalMetadata"* %30 to i64*
  %32 = load i64, i64* %31, align 8
  %33 = and i64 %32, 1
  %34 = icmp eq i64 %33, 0
  %35 = and i64 %32, -2
  br i1 %34, label %40, label %36, !prof !2

36:                                               ; preds = %29
  %37 = inttoptr i64 %35 to %"struct.google::protobuf::internal::InternalMetadata::ContainerBase"*
  %38 = getelementptr inbounds %"struct.google::protobuf::internal::InternalMetadata::ContainerBase", %"struct.google::protobuf::internal::InternalMetadata::ContainerBase"* %37, i64 0, i32 0
  %39 = load %"class.google::protobuf::Arena"*, %"class.google::protobuf::Arena"** %38, align 8
  br label %42

40:                                               ; preds = %29
  %41 = inttoptr i64 %35 to %"class.google::protobuf::Arena"*
  br label %42

42:                                               ; preds = %36, %40
  %43 = phi %"class.google::protobuf::Arena"* [ %39, %36 ], [ %41, %40 ]
  %44 = icmp eq %"class.google::protobuf::Arena"* %43, null
  br i1 %44, label %45, label %80

45:                                               ; preds = %42
  %46 = getelementptr inbounds %"class.assist_ranker::FeatureWeight", %"class.assist_ranker::FeatureWeight"* %0, i64 0, i32 1, i32 0
  %47 = load %"class.assist_ranker::SparseWeights"*, %"class.assist_ranker::SparseWeights"** %46, align 8
  %48 = icmp eq %"class.assist_ranker::SparseWeights"* %47, null
  br i1 %48, label %80, label %49

49:                                               ; preds = %45
  %50 = bitcast %"class.assist_ranker::SparseWeights"* %47 to void (%"class.assist_ranker::SparseWeights"*)***
  %51 = load void (%"class.assist_ranker::SparseWeights"*)**, void (%"class.assist_ranker::SparseWeights"*)*** %50, align 8
  %52 = getelementptr inbounds void (%"class.assist_ranker::SparseWeights"*)*, void (%"class.assist_ranker::SparseWeights"*)** %51, i64 1
  %53 = load void (%"class.assist_ranker::SparseWeights"*)*, void (%"class.assist_ranker::SparseWeights"*)** %52, align 8
  tail call void %53(%"class.assist_ranker::SparseWeights"* nonnull %47) #16
  br label %80

54:                                               ; preds = %1
  %55 = getelementptr inbounds %"class.assist_ranker::FeatureWeight", %"class.assist_ranker::FeatureWeight"* %0, i64 0, i32 0, i32 1
  %56 = bitcast %"class.google::protobuf::internal::InternalMetadata"* %55 to i64*
  %57 = load i64, i64* %56, align 8
  %58 = and i64 %57, 1
  %59 = icmp eq i64 %58, 0
  %60 = and i64 %57, -2
  br i1 %59, label %65, label %61, !prof !2

61:                                               ; preds = %54
  %62 = inttoptr i64 %60 to %"struct.google::protobuf::internal::InternalMetadata::ContainerBase"*
  %63 = getelementptr inbounds %"struct.google::protobuf::internal::InternalMetadata::ContainerBase", %"struct.google::protobuf::internal::InternalMetadata::ContainerBase"* %62, i64 0, i32 0
  %64 = load %"class.google::protobuf::Arena"*, %"class.google::protobuf::Arena"** %63, align 8
  br label %67

65:                                               ; preds = %54
  %66 = inttoptr i64 %60 to %"class.google::protobuf::Arena"*
  br label %67

67:                                               ; preds = %61, %65
  %68 = phi %"class.google::protobuf::Arena"* [ %64, %61 ], [ %66, %65 ]
  %69 = icmp eq %"class.google::protobuf::Arena"* %68, null
  br i1 %69, label %70, label %80

70:                                               ; preds = %67
  %71 = getelementptr inbounds %"class.assist_ranker::FeatureWeight", %"class.assist_ranker::FeatureWeight"* %0, i64 0, i32 1
  %72 = bitcast %"union.assist_ranker::FeatureWeight::FeatureTypeUnion"* %71 to %"class.assist_ranker::BucketizedWeights"**
  %73 = load %"class.assist_ranker::BucketizedWeights"*, %"class.assist_ranker::BucketizedWeights"** %72, align 8
  %74 = icmp eq %"class.assist_ranker::BucketizedWeights"* %73, null
  br i1 %74, label %80, label %75

75:                                               ; preds = %70
  %76 = bitcast %"class.assist_ranker::BucketizedWeights"* %73 to void (%"class.assist_ranker::BucketizedWeights"*)***
  %77 = load void (%"class.assist_ranker::BucketizedWeights"*)**, void (%"class.assist_ranker::BucketizedWeights"*)*** %76, align 8
  %78 = getelementptr inbounds void (%"class.assist_ranker::BucketizedWeights"*)*, void (%"class.assist_ranker::BucketizedWeights"*)** %77, i64 1
  %79 = load void (%"class.assist_ranker::BucketizedWeights"*)*, void (%"class.assist_ranker::BucketizedWeights"*)** %78, align 8
  tail call void %79(%"class.assist_ranker::BucketizedWeights"* nonnull %73) #16
  br label %80

80:                                               ; preds = %67, %75, %70, %42, %49, %45, %17, %24, %20, %1
  store i32 0, i32* %2, align 4
  ret void
}

; Function Attrs: nounwind ssp uwtable
define hidden void @_ZN13assist_ranker13FeatureWeight20set_allocated_sparseEPNS_13SparseWeightsE(%"class.assist_ranker::FeatureWeight"* nocapture, %"class.assist_ranker::SparseWeights"*) local_unnamed_addr #0 align 2 {
  %3 = getelementptr inbounds %"class.assist_ranker::FeatureWeight", %"class.assist_ranker::FeatureWeight"* %0, i64 0, i32 0, i32 1
  %4 = bitcast %"class.google::protobuf::internal::InternalMetadata"* %3 to i64*
  %5 = load i64, i64* %4, align 8
  %6 = and i64 %5, 1
  %7 = icmp eq i64 %6, 0
  %8 = and i64 %5, -2
  br i1 %7, label %13, label %9, !prof !2

9:                                                ; preds = %2
  %10 = inttoptr i64 %8 to %"struct.google::protobuf::internal::InternalMetadata::ContainerBase"*
  %11 = getelementptr inbounds %"struct.google::protobuf::internal::InternalMetadata::ContainerBase", %"struct.google::protobuf::internal::InternalMetadata::ContainerBase"* %10, i64 0, i32 0
  %12 = load %"class.google::protobuf::Arena"*, %"class.google::protobuf::Arena"** %11, align 8
  br label %15

13:                                               ; preds = %2
  %14 = inttoptr i64 %8 to %"class.google::protobuf::Arena"*
  br label %15

15:                                               ; preds = %9, %13
  %16 = phi %"class.google::protobuf::Arena"* [ %12, %9 ], [ %14, %13 ]
  tail call void @_ZN13assist_ranker13FeatureWeight18clear_feature_typeEv(%"class.assist_ranker::FeatureWeight"* %0)
  %17 = icmp eq %"class.assist_ranker::SparseWeights"* %1, null
  br i1 %17, label %42, label %18

18:                                               ; preds = %15
  %19 = getelementptr inbounds %"class.assist_ranker::SparseWeights", %"class.assist_ranker::SparseWeights"* %1, i64 0, i32 0, i32 1
  %20 = bitcast %"class.google::protobuf::internal::InternalMetadata"* %19 to i64*
  %21 = load i64, i64* %20, align 8
  %22 = and i64 %21, 1
  %23 = icmp eq i64 %22, 0
  %24 = and i64 %21, -2
  br i1 %23, label %29, label %25, !prof !2

25:                                               ; preds = %18
  %26 = inttoptr i64 %24 to %"struct.google::protobuf::internal::InternalMetadata::ContainerBase"*
  %27 = getelementptr inbounds %"struct.google::protobuf::internal::InternalMetadata::ContainerBase", %"struct.google::protobuf::internal::InternalMetadata::ContainerBase"* %26, i64 0, i32 0
  %28 = load %"class.google::protobuf::Arena"*, %"class.google::protobuf::Arena"** %27, align 8
  br label %31

29:                                               ; preds = %18
  %30 = inttoptr i64 %24 to %"class.google::protobuf::Arena"*
  br label %31

31:                                               ; preds = %25, %29
  %32 = phi %"class.google::protobuf::Arena"* [ %28, %25 ], [ %30, %29 ]
  %33 = icmp eq %"class.google::protobuf::Arena"* %16, %32
  br i1 %33, label %38, label %34

34:                                               ; preds = %31
  %35 = getelementptr inbounds %"class.assist_ranker::SparseWeights", %"class.assist_ranker::SparseWeights"* %1, i64 0, i32 0
  %36 = tail call %"class.google::protobuf::MessageLite"* @_ZN6google8protobuf8internal23GetOwnedMessageInternalEPNS0_5ArenaEPNS0_11MessageLiteES3_(%"class.google::protobuf::Arena"* %16, %"class.google::protobuf::MessageLite"* %35, %"class.google::protobuf::Arena"* %32) #16
  %37 = bitcast %"class.google::protobuf::MessageLite"* %36 to %"class.assist_ranker::SparseWeights"*
  br label %38

38:                                               ; preds = %31, %34
  %39 = phi %"class.assist_ranker::SparseWeights"* [ %37, %34 ], [ %1, %31 ]
  %40 = getelementptr inbounds %"class.assist_ranker::FeatureWeight", %"class.assist_ranker::FeatureWeight"* %0, i64 0, i32 3, i64 0
  store i32 3, i32* %40, align 4
  %41 = getelementptr inbounds %"class.assist_ranker::FeatureWeight", %"class.assist_ranker::FeatureWeight"* %0, i64 0, i32 1, i32 0
  store %"class.assist_ranker::SparseWeights"* %39, %"class.assist_ranker::SparseWeights"** %41, align 8
  br label %42

42:                                               ; preds = %15, %38
  ret void
}

; Function Attrs: nounwind ssp uwtable
define hidden void @_ZN13assist_ranker13FeatureWeight24set_allocated_bucketizedEPNS_17BucketizedWeightsE(%"class.assist_ranker::FeatureWeight"* nocapture, %"class.assist_ranker::BucketizedWeights"*) local_unnamed_addr #0 align 2 {
  %3 = getelementptr inbounds %"class.assist_ranker::FeatureWeight", %"class.assist_ranker::FeatureWeight"* %0, i64 0, i32 0, i32 1
  %4 = bitcast %"class.google::protobuf::internal::InternalMetadata"* %3 to i64*
  %5 = load i64, i64* %4, align 8
  %6 = and i64 %5, 1
  %7 = icmp eq i64 %6, 0
  %8 = and i64 %5, -2
  br i1 %7, label %13, label %9, !prof !2

9:                                                ; preds = %2
  %10 = inttoptr i64 %8 to %"struct.google::protobuf::internal::InternalMetadata::ContainerBase"*
  %11 = getelementptr inbounds %"struct.google::protobuf::internal::InternalMetadata::ContainerBase", %"struct.google::protobuf::internal::InternalMetadata::ContainerBase"* %10, i64 0, i32 0
  %12 = load %"class.google::protobuf::Arena"*, %"class.google::protobuf::Arena"** %11, align 8
  br label %15

13:                                               ; preds = %2
  %14 = inttoptr i64 %8 to %"class.google::protobuf::Arena"*
  br label %15

15:                                               ; preds = %9, %13
  %16 = phi %"class.google::protobuf::Arena"* [ %12, %9 ], [ %14, %13 ]
  tail call void @_ZN13assist_ranker13FeatureWeight18clear_feature_typeEv(%"class.assist_ranker::FeatureWeight"* %0)
  %17 = icmp eq %"class.assist_ranker::BucketizedWeights"* %1, null
  br i1 %17, label %43, label %18

18:                                               ; preds = %15
  %19 = getelementptr inbounds %"class.assist_ranker::BucketizedWeights", %"class.assist_ranker::BucketizedWeights"* %1, i64 0, i32 0, i32 1
  %20 = bitcast %"class.google::protobuf::internal::InternalMetadata"* %19 to i64*
  %21 = load i64, i64* %20, align 8
  %22 = and i64 %21, 1
  %23 = icmp eq i64 %22, 0
  %24 = and i64 %21, -2
  br i1 %23, label %29, label %25, !prof !2

25:                                               ; preds = %18
  %26 = inttoptr i64 %24 to %"struct.google::protobuf::internal::InternalMetadata::ContainerBase"*
  %27 = getelementptr inbounds %"struct.google::protobuf::internal::InternalMetadata::ContainerBase", %"struct.google::protobuf::internal::InternalMetadata::ContainerBase"* %26, i64 0, i32 0
  %28 = load %"class.google::protobuf::Arena"*, %"class.google::protobuf::Arena"** %27, align 8
  br label %31

29:                                               ; preds = %18
  %30 = inttoptr i64 %24 to %"class.google::protobuf::Arena"*
  br label %31

31:                                               ; preds = %25, %29
  %32 = phi %"class.google::protobuf::Arena"* [ %28, %25 ], [ %30, %29 ]
  %33 = icmp eq %"class.google::protobuf::Arena"* %16, %32
  br i1 %33, label %38, label %34

34:                                               ; preds = %31
  %35 = getelementptr inbounds %"class.assist_ranker::BucketizedWeights", %"class.assist_ranker::BucketizedWeights"* %1, i64 0, i32 0
  %36 = tail call %"class.google::protobuf::MessageLite"* @_ZN6google8protobuf8internal23GetOwnedMessageInternalEPNS0_5ArenaEPNS0_11MessageLiteES3_(%"class.google::protobuf::Arena"* %16, %"class.google::protobuf::MessageLite"* %35, %"class.google::protobuf::Arena"* %32) #16
  %37 = bitcast %"class.google::protobuf::MessageLite"* %36 to %"class.assist_ranker::BucketizedWeights"*
  br label %38

38:                                               ; preds = %31, %34
  %39 = phi %"class.assist_ranker::BucketizedWeights"* [ %37, %34 ], [ %1, %31 ]
  %40 = getelementptr inbounds %"class.assist_ranker::FeatureWeight", %"class.assist_ranker::FeatureWeight"* %0, i64 0, i32 3, i64 0
  store i32 4, i32* %40, align 4
  %41 = getelementptr inbounds %"class.assist_ranker::FeatureWeight", %"class.assist_ranker::FeatureWeight"* %0, i64 0, i32 1
  %42 = bitcast %"union.assist_ranker::FeatureWeight::FeatureTypeUnion"* %41 to %"class.assist_ranker::BucketizedWeights"**
  store %"class.assist_ranker::BucketizedWeights"* %39, %"class.assist_ranker::BucketizedWeights"** %42, align 8
  br label %43

43:                                               ; preds = %15, %38
  ret void
}

; Function Attrs: nounwind ssp uwtable
define hidden void @_ZN13assist_ranker13FeatureWeightC2EPN6google8protobuf5ArenaE(%"class.assist_ranker::FeatureWeight"* nocapture, %"class.google::protobuf::Arena"*) unnamed_addr #0 align 2 {
  %3 = getelementptr inbounds %"class.assist_ranker::FeatureWeight", %"class.assist_ranker::FeatureWeight"* %0, i64 0, i32 0, i32 0
  %4 = getelementptr inbounds %"class.assist_ranker::FeatureWeight", %"class.assist_ranker::FeatureWeight"* %0, i64 0, i32 0, i32 1
  %5 = bitcast %"class.google::protobuf::internal::InternalMetadata"* %4 to %"class.google::protobuf::Arena"**
  store %"class.google::protobuf::Arena"* %1, %"class.google::protobuf::Arena"** %5, align 8
  store i32 (...)** bitcast (i8** getelementptr inbounds ({ [16 x i8*] }, { [16 x i8*] }* @_ZTVN13assist_ranker13FeatureWeightE, i64 0, inrange i32 0, i64 2) to i32 (...)**), i32 (...)*** %3, align 8
  %6 = getelementptr inbounds %"class.assist_ranker::FeatureWeight", %"class.assist_ranker::FeatureWeight"* %0, i64 0, i32 2, i32 0, i32 0, i32 0, i32 0, i32 0, i32 0
  store i32 0, i32* %6, align 4
  %7 = load atomic i32, i32* getelementptr inbounds ({ { { { i32 } }, i32, i32, void ()* }, [2 x i8*] }, { { { { i32 } }, i32, i32, void ()* }, [2 x i8*] }* @scc_info_FeatureWeight_generic_5flogistic_5fregression_5fmodel_2eproto, i64 0, i32 0, i32 0, i32 0, i32 0) acquire, align 8
  %8 = icmp eq i32 %7, 0
  br i1 %8, label %10, label %9, !prof !2

9:                                                ; preds = %2
  tail call void @_ZN6google8protobuf8internal11InitSCCImplEPNS1_11SCCInfoBaseE(%"struct.google::protobuf::internal::SCCInfoBase"* bitcast ({ { { { i32 } }, i32, i32, void ()* }, [2 x i8*] }* @scc_info_FeatureWeight_generic_5flogistic_5fregression_5fmodel_2eproto to %"struct.google::protobuf::internal::SCCInfoBase"*)) #16
  br label %10

10:                                               ; preds = %2, %9
  %11 = getelementptr inbounds %"class.assist_ranker::FeatureWeight", %"class.assist_ranker::FeatureWeight"* %0, i64 0, i32 3, i64 0
  store i32 0, i32* %11, align 4
  ret void
}

; Function Attrs: nounwind ssp uwtable
define hidden void @_ZN13assist_ranker13FeatureWeightC2ERKS0_(%"class.assist_ranker::FeatureWeight"*, %"class.assist_ranker::FeatureWeight"* nocapture readonly dereferenceable(32)) unnamed_addr #0 align 2 {
  %3 = getelementptr inbounds %"class.assist_ranker::FeatureWeight", %"class.assist_ranker::FeatureWeight"* %0, i64 0, i32 0, i32 0
  %4 = getelementptr inbounds %"class.assist_ranker::FeatureWeight", %"class.assist_ranker::FeatureWeight"* %0, i64 0, i32 0, i32 1, i32 0
  store i8* null, i8** %4, align 8
  store i32 (...)** bitcast (i8** getelementptr inbounds ({ [16 x i8*] }, { [16 x i8*] }* @_ZTVN13assist_ranker13FeatureWeightE, i64 0, inrange i32 0, i64 2) to i32 (...)**), i32 (...)*** %3, align 8
  %5 = getelementptr inbounds %"class.assist_ranker::FeatureWeight", %"class.assist_ranker::FeatureWeight"* %0, i64 0, i32 2, i32 0, i32 0, i32 0, i32 0, i32 0, i32 0
  store i32 0, i32* %5, align 4
  %6 = getelementptr inbounds %"class.assist_ranker::FeatureWeight", %"class.assist_ranker::FeatureWeight"* %0, i64 0, i32 0, i32 1
  %7 = getelementptr inbounds %"class.assist_ranker::FeatureWeight", %"class.assist_ranker::FeatureWeight"* %1, i64 0, i32 0, i32 1
  %8 = bitcast %"class.google::protobuf::internal::InternalMetadata"* %7 to i64*
  %9 = load i64, i64* %8, align 8
  %10 = and i64 %9, 1
  %11 = icmp eq i64 %10, 0
  br i1 %11, label %30, label %12

12:                                               ; preds = %2
  %13 = and i64 %9, -2
  %14 = inttoptr i64 %13 to %"struct.google::protobuf::internal::InternalMetadata::Container"*
  %15 = getelementptr inbounds %"struct.google::protobuf::internal::InternalMetadata::Container", %"struct.google::protobuf::internal::InternalMetadata::Container"* %14, i64 0, i32 1
  %16 = tail call %"class.std::__1::basic_string"* @_ZN6google8protobuf8internal16InternalMetadata27mutable_unknown_fields_slowINSt3__112basic_stringIcNS4_11char_traitsIcEENS4_9allocatorIcEEEEEEPT_v(%"class.google::protobuf::internal::InternalMetadata"* %6) #16
  %17 = bitcast %"class.std::__1::basic_string"* %15 to %"struct.std::__1::basic_string<char, std::__1::char_traits<char>, std::__1::allocator<char> >::__short"*
  %18 = getelementptr inbounds %"struct.std::__1::basic_string<char, std::__1::char_traits<char>, std::__1::allocator<char> >::__short", %"struct.std::__1::basic_string<char, std::__1::char_traits<char>, std::__1::allocator<char> >::__short"* %17, i64 0, i32 1, i32 0
  %19 = load i8, i8* %18, align 1
  %20 = icmp slt i8 %19, 0
  %21 = getelementptr inbounds %"class.std::__1::basic_string", %"class.std::__1::basic_string"* %15, i64 0, i32 0, i32 0, i32 0, i32 0, i32 0, i32 0
  %22 = load i8*, i8** %21, align 8
  %23 = getelementptr inbounds %"struct.google::protobuf::internal::InternalMetadata::Container", %"struct.google::protobuf::internal::InternalMetadata::Container"* %14, i64 0, i32 1, i32 0, i32 0, i32 0, i32 0, i32 0, i32 1
  %24 = load i64, i64* %23, align 8
  %25 = bitcast %"class.std::__1::basic_string"* %15 to i8*
  %26 = zext i8 %19 to i64
  %27 = select i1 %20, i8* %22, i8* %25
  %28 = select i1 %20, i64 %24, i64 %26
  %29 = tail call dereferenceable(24) %"class.std::__1::basic_string"* @_ZNSt3__112basic_stringIcNS_11char_traitsIcEENS_9allocatorIcEEE6appendEPKcm(%"class.std::__1::basic_string"* %16, i8* %27, i64 %28) #16
  br label %30

30:                                               ; preds = %2, %12
  %31 = getelementptr inbounds %"class.assist_ranker::FeatureWeight", %"class.assist_ranker::FeatureWeight"* %0, i64 0, i32 3, i64 0
  store i32 0, i32* %31, align 4
  %32 = getelementptr inbounds %"class.assist_ranker::FeatureWeight", %"class.assist_ranker::FeatureWeight"* %1, i64 0, i32 3, i64 0
  %33 = load i32, i32* %32, align 4
  switch i32 %33, label %105 [
    i32 1, label %34
    i32 2, label %40
    i32 3, label %61
    i32 4, label %82
  ]

34:                                               ; preds = %30
  %35 = getelementptr inbounds %"class.assist_ranker::FeatureWeight", %"class.assist_ranker::FeatureWeight"* %1, i64 0, i32 1
  %36 = bitcast %"union.assist_ranker::FeatureWeight::FeatureTypeUnion"* %35 to i32*
  %37 = load i32, i32* %36, align 8
  tail call void @_ZN13assist_ranker13FeatureWeight18clear_feature_typeEv(%"class.assist_ranker::FeatureWeight"* %0) #16
  store i32 1, i32* %31, align 4
  %38 = getelementptr inbounds %"class.assist_ranker::FeatureWeight", %"class.assist_ranker::FeatureWeight"* %0, i64 0, i32 1
  %39 = bitcast %"union.assist_ranker::FeatureWeight::FeatureTypeUnion"* %38 to i32*
  store i32 %37, i32* %39, align 8
  br label %105

40:                                               ; preds = %30
  tail call void @_ZN13assist_ranker13FeatureWeight18clear_feature_typeEv(%"class.assist_ranker::FeatureWeight"* %0) #16
  store i32 2, i32* %31, align 4
  %41 = bitcast %"class.google::protobuf::internal::InternalMetadata"* %6 to i64*
  %42 = load i64, i64* %41, align 8
  %43 = and i64 %42, 1
  %44 = icmp eq i64 %43, 0
  %45 = and i64 %42, -2
  br i1 %44, label %50, label %46, !prof !2

46:                                               ; preds = %40
  %47 = inttoptr i64 %45 to %"struct.google::protobuf::internal::InternalMetadata::ContainerBase"*
  %48 = getelementptr inbounds %"struct.google::protobuf::internal::InternalMetadata::ContainerBase", %"struct.google::protobuf::internal::InternalMetadata::ContainerBase"* %47, i64 0, i32 0
  %49 = load %"class.google::protobuf::Arena"*, %"class.google::protobuf::Arena"** %48, align 8
  br label %52

50:                                               ; preds = %40
  %51 = inttoptr i64 %45 to %"class.google::protobuf::Arena"*
  br label %52

52:                                               ; preds = %46, %50
  %53 = phi %"class.google::protobuf::Arena"* [ %49, %46 ], [ %51, %50 ]
  %54 = tail call %"class.assist_ranker::SparseWeights"* @_ZN6google8protobuf5Arena18CreateMaybeMessageIN13assist_ranker13SparseWeightsEJEEEPT_PS1_DpOT0_(%"class.google::protobuf::Arena"* %53) #16
  %55 = getelementptr inbounds %"class.assist_ranker::FeatureWeight", %"class.assist_ranker::FeatureWeight"* %0, i64 0, i32 1, i32 0
  store %"class.assist_ranker::SparseWeights"* %54, %"class.assist_ranker::SparseWeights"** %55, align 8
  %56 = load i32, i32* %32, align 4
  %57 = icmp eq i32 %56, 2
  %58 = getelementptr inbounds %"class.assist_ranker::FeatureWeight", %"class.assist_ranker::FeatureWeight"* %1, i64 0, i32 1, i32 0
  %59 = load %"class.assist_ranker::SparseWeights"*, %"class.assist_ranker::SparseWeights"** %58, align 8
  %60 = select i1 %57, %"class.assist_ranker::SparseWeights"* %59, %"class.assist_ranker::SparseWeights"* bitcast (%"class.assist_ranker::SparseWeightsDefaultTypeInternal"* @_ZN13assist_ranker32_SparseWeights_default_instance_E to %"class.assist_ranker::SparseWeights"*)
  tail call void @_ZN13assist_ranker13SparseWeights9MergeFromERKS0_(%"class.assist_ranker::SparseWeights"* %54, %"class.assist_ranker::SparseWeights"* dereferenceable(80) %60)
  br label %105

61:                                               ; preds = %30
  tail call void @_ZN13assist_ranker13FeatureWeight18clear_feature_typeEv(%"class.assist_ranker::FeatureWeight"* %0) #16
  store i32 3, i32* %31, align 4
  %62 = bitcast %"class.google::protobuf::internal::InternalMetadata"* %6 to i64*
  %63 = load i64, i64* %62, align 8
  %64 = and i64 %63, 1
  %65 = icmp eq i64 %64, 0
  %66 = and i64 %63, -2
  br i1 %65, label %71, label %67, !prof !2

67:                                               ; preds = %61
  %68 = inttoptr i64 %66 to %"struct.google::protobuf::internal::InternalMetadata::ContainerBase"*
  %69 = getelementptr inbounds %"struct.google::protobuf::internal::InternalMetadata::ContainerBase", %"struct.google::protobuf::internal::InternalMetadata::ContainerBase"* %68, i64 0, i32 0
  %70 = load %"class.google::protobuf::Arena"*, %"class.google::protobuf::Arena"** %69, align 8
  br label %73

71:                                               ; preds = %61
  %72 = inttoptr i64 %66 to %"class.google::protobuf::Arena"*
  br label %73

73:                                               ; preds = %67, %71
  %74 = phi %"class.google::protobuf::Arena"* [ %70, %67 ], [ %72, %71 ]
  %75 = tail call %"class.assist_ranker::SparseWeights"* @_ZN6google8protobuf5Arena18CreateMaybeMessageIN13assist_ranker13SparseWeightsEJEEEPT_PS1_DpOT0_(%"class.google::protobuf::Arena"* %74) #16
  %76 = getelementptr inbounds %"class.assist_ranker::FeatureWeight", %"class.assist_ranker::FeatureWeight"* %0, i64 0, i32 1, i32 0
  store %"class.assist_ranker::SparseWeights"* %75, %"class.assist_ranker::SparseWeights"** %76, align 8
  %77 = load i32, i32* %32, align 4
  %78 = icmp eq i32 %77, 3
  %79 = getelementptr inbounds %"class.assist_ranker::FeatureWeight", %"class.assist_ranker::FeatureWeight"* %1, i64 0, i32 1, i32 0
  %80 = load %"class.assist_ranker::SparseWeights"*, %"class.assist_ranker::SparseWeights"** %79, align 8
  %81 = select i1 %78, %"class.assist_ranker::SparseWeights"* %80, %"class.assist_ranker::SparseWeights"* bitcast (%"class.assist_ranker::SparseWeightsDefaultTypeInternal"* @_ZN13assist_ranker32_SparseWeights_default_instance_E to %"class.assist_ranker::SparseWeights"*)
  tail call void @_ZN13assist_ranker13SparseWeights9MergeFromERKS0_(%"class.assist_ranker::SparseWeights"* %75, %"class.assist_ranker::SparseWeights"* dereferenceable(80) %81)
  br label %105

82:                                               ; preds = %30
  tail call void @_ZN13assist_ranker13FeatureWeight18clear_feature_typeEv(%"class.assist_ranker::FeatureWeight"* %0) #16
  store i32 4, i32* %31, align 4
  %83 = bitcast %"class.google::protobuf::internal::InternalMetadata"* %6 to i64*
  %84 = load i64, i64* %83, align 8
  %85 = and i64 %84, 1
  %86 = icmp eq i64 %85, 0
  %87 = and i64 %84, -2
  br i1 %86, label %92, label %88, !prof !2

88:                                               ; preds = %82
  %89 = inttoptr i64 %87 to %"struct.google::protobuf::internal::InternalMetadata::ContainerBase"*
  %90 = getelementptr inbounds %"struct.google::protobuf::internal::InternalMetadata::ContainerBase", %"struct.google::protobuf::internal::InternalMetadata::ContainerBase"* %89, i64 0, i32 0
  %91 = load %"class.google::protobuf::Arena"*, %"class.google::protobuf::Arena"** %90, align 8
  br label %94

92:                                               ; preds = %82
  %93 = inttoptr i64 %87 to %"class.google::protobuf::Arena"*
  br label %94

94:                                               ; preds = %88, %92
  %95 = phi %"class.google::protobuf::Arena"* [ %91, %88 ], [ %93, %92 ]
  %96 = tail call %"class.assist_ranker::BucketizedWeights"* @_ZN6google8protobuf5Arena18CreateMaybeMessageIN13assist_ranker17BucketizedWeightsEJEEEPT_PS1_DpOT0_(%"class.google::protobuf::Arena"* %95) #16
  %97 = getelementptr inbounds %"class.assist_ranker::FeatureWeight", %"class.assist_ranker::FeatureWeight"* %0, i64 0, i32 1
  %98 = bitcast %"union.assist_ranker::FeatureWeight::FeatureTypeUnion"* %97 to %"class.assist_ranker::BucketizedWeights"**
  store %"class.assist_ranker::BucketizedWeights"* %96, %"class.assist_ranker::BucketizedWeights"** %98, align 8
  %99 = load i32, i32* %32, align 4
  %100 = icmp eq i32 %99, 4
  %101 = getelementptr inbounds %"class.assist_ranker::FeatureWeight", %"class.assist_ranker::FeatureWeight"* %1, i64 0, i32 1
  %102 = bitcast %"union.assist_ranker::FeatureWeight::FeatureTypeUnion"* %101 to %"class.assist_ranker::BucketizedWeights"**
  %103 = load %"class.assist_ranker::BucketizedWeights"*, %"class.assist_ranker::BucketizedWeights"** %102, align 8
  %104 = select i1 %100, %"class.assist_ranker::BucketizedWeights"* %103, %"class.assist_ranker::BucketizedWeights"* bitcast (%"class.assist_ranker::BucketizedWeightsDefaultTypeInternal"* @_ZN13assist_ranker36_BucketizedWeights_default_instance_E to %"class.assist_ranker::BucketizedWeights"*)
  tail call void @_ZN13assist_ranker17BucketizedWeights9MergeFromERKS0_(%"class.assist_ranker::BucketizedWeights"* %96, %"class.assist_ranker::BucketizedWeights"* dereferenceable(72) %104)
  br label %105

105:                                              ; preds = %30, %94, %73, %52, %34
  ret void
}

; Function Attrs: nounwind ssp uwtable
define hidden void @_ZN13assist_ranker13FeatureWeightD2Ev(%"class.assist_ranker::FeatureWeight"* nocapture) unnamed_addr #0 align 2 {
  %2 = getelementptr inbounds %"class.assist_ranker::FeatureWeight", %"class.assist_ranker::FeatureWeight"* %0, i64 0, i32 0, i32 0
  store i32 (...)** bitcast (i8** getelementptr inbounds ({ [16 x i8*] }, { [16 x i8*] }* @_ZTVN13assist_ranker13FeatureWeightE, i64 0, inrange i32 0, i64 2) to i32 (...)**), i32 (...)*** %2, align 8
  %3 = getelementptr inbounds %"class.assist_ranker::FeatureWeight", %"class.assist_ranker::FeatureWeight"* %0, i64 0, i32 3, i64 0
  %4 = load i32, i32* %3, align 4
  %5 = icmp eq i32 %4, 0
  br i1 %5, label %7, label %6

6:                                                ; preds = %1
  tail call void @_ZN13assist_ranker13FeatureWeight18clear_feature_typeEv(%"class.assist_ranker::FeatureWeight"* %0) #16
  br label %7

7:                                                ; preds = %1, %6
  %8 = getelementptr inbounds %"class.assist_ranker::FeatureWeight", %"class.assist_ranker::FeatureWeight"* %0, i64 0, i32 0, i32 1
  %9 = bitcast %"class.google::protobuf::internal::InternalMetadata"* %8 to i64*
  %10 = load i64, i64* %9, align 8
  %11 = and i64 %10, 1
  %12 = icmp eq i64 %11, 0
  br i1 %12, label %33, label %13

13:                                               ; preds = %7
  %14 = and i64 %10, -2
  %15 = inttoptr i64 %14 to %"struct.google::protobuf::internal::InternalMetadata::ContainerBase"*
  %16 = getelementptr inbounds %"struct.google::protobuf::internal::InternalMetadata::ContainerBase", %"struct.google::protobuf::internal::InternalMetadata::ContainerBase"* %15, i64 0, i32 0
  %17 = load %"class.google::protobuf::Arena"*, %"class.google::protobuf::Arena"** %16, align 8
  %18 = icmp ne %"class.google::protobuf::Arena"* %17, null
  %19 = icmp eq i64 %14, 0
  %20 = or i1 %19, %18
  br i1 %20, label %33, label %21

21:                                               ; preds = %13
  %22 = inttoptr i64 %14 to %"struct.google::protobuf::internal::InternalMetadata::Container"*
  %23 = getelementptr inbounds %"struct.google::protobuf::internal::InternalMetadata::Container", %"struct.google::protobuf::internal::InternalMetadata::Container"* %22, i64 0, i32 1
  %24 = bitcast %"class.std::__1::basic_string"* %23 to %"struct.std::__1::basic_string<char, std::__1::char_traits<char>, std::__1::allocator<char> >::__short"*
  %25 = getelementptr inbounds %"struct.std::__1::basic_string<char, std::__1::char_traits<char>, std::__1::allocator<char> >::__short", %"struct.std::__1::basic_string<char, std::__1::char_traits<char>, std::__1::allocator<char> >::__short"* %24, i64 0, i32 1, i32 0
  %26 = load i8, i8* %25, align 1
  %27 = icmp slt i8 %26, 0
  br i1 %27, label %28, label %31

28:                                               ; preds = %21
  %29 = getelementptr inbounds %"class.std::__1::basic_string", %"class.std::__1::basic_string"* %23, i64 0, i32 0, i32 0, i32 0, i32 0, i32 0, i32 0
  %30 = load i8*, i8** %29, align 8
  tail call void @_ZdlPv(i8* %30) #17
  br label %31

31:                                               ; preds = %28, %21
  %32 = inttoptr i64 %14 to i8*
  tail call void @_ZdlPv(i8* %32) #17
  br label %33

33:                                               ; preds = %7, %13, %31
  ret void
}

; Function Attrs: nounwind ssp uwtable
define hidden void @_ZN13assist_ranker13FeatureWeightD0Ev(%"class.assist_ranker::FeatureWeight"*) unnamed_addr #0 align 2 {
  %2 = getelementptr inbounds %"class.assist_ranker::FeatureWeight", %"class.assist_ranker::FeatureWeight"* %0, i64 0, i32 0, i32 0
  store i32 (...)** bitcast (i8** getelementptr inbounds ({ [16 x i8*] }, { [16 x i8*] }* @_ZTVN13assist_ranker13FeatureWeightE, i64 0, inrange i32 0, i64 2) to i32 (...)**), i32 (...)*** %2, align 8
  %3 = getelementptr inbounds %"class.assist_ranker::FeatureWeight", %"class.assist_ranker::FeatureWeight"* %0, i64 0, i32 3, i64 0
  %4 = load i32, i32* %3, align 4
  %5 = icmp eq i32 %4, 0
  br i1 %5, label %7, label %6

6:                                                ; preds = %1
  tail call void @_ZN13assist_ranker13FeatureWeight18clear_feature_typeEv(%"class.assist_ranker::FeatureWeight"* %0) #16
  br label %7

7:                                                ; preds = %6, %1
  %8 = getelementptr inbounds %"class.assist_ranker::FeatureWeight", %"class.assist_ranker::FeatureWeight"* %0, i64 0, i32 0, i32 1
  %9 = bitcast %"class.google::protobuf::internal::InternalMetadata"* %8 to i64*
  %10 = load i64, i64* %9, align 8
  %11 = and i64 %10, 1
  %12 = icmp eq i64 %11, 0
  br i1 %12, label %33, label %13

13:                                               ; preds = %7
  %14 = and i64 %10, -2
  %15 = inttoptr i64 %14 to %"struct.google::protobuf::internal::InternalMetadata::ContainerBase"*
  %16 = getelementptr inbounds %"struct.google::protobuf::internal::InternalMetadata::ContainerBase", %"struct.google::protobuf::internal::InternalMetadata::ContainerBase"* %15, i64 0, i32 0
  %17 = load %"class.google::protobuf::Arena"*, %"class.google::protobuf::Arena"** %16, align 8
  %18 = icmp ne %"class.google::protobuf::Arena"* %17, null
  %19 = icmp eq i64 %14, 0
  %20 = or i1 %19, %18
  br i1 %20, label %33, label %21

21:                                               ; preds = %13
  %22 = inttoptr i64 %14 to %"struct.google::protobuf::internal::InternalMetadata::Container"*
  %23 = getelementptr inbounds %"struct.google::protobuf::internal::InternalMetadata::Container", %"struct.google::protobuf::internal::InternalMetadata::Container"* %22, i64 0, i32 1
  %24 = bitcast %"class.std::__1::basic_string"* %23 to %"struct.std::__1::basic_string<char, std::__1::char_traits<char>, std::__1::allocator<char> >::__short"*
  %25 = getelementptr inbounds %"struct.std::__1::basic_string<char, std::__1::char_traits<char>, std::__1::allocator<char> >::__short", %"struct.std::__1::basic_string<char, std::__1::char_traits<char>, std::__1::allocator<char> >::__short"* %24, i64 0, i32 1, i32 0
  %26 = load i8, i8* %25, align 1
  %27 = icmp slt i8 %26, 0
  br i1 %27, label %28, label %31

28:                                               ; preds = %21
  %29 = getelementptr inbounds %"class.std::__1::basic_string", %"class.std::__1::basic_string"* %23, i64 0, i32 0, i32 0, i32 0, i32 0, i32 0, i32 0
  %30 = load i8*, i8** %29, align 8
  tail call void @_ZdlPv(i8* %30) #17
  br label %31

31:                                               ; preds = %28, %21
  %32 = inttoptr i64 %14 to i8*
  tail call void @_ZdlPv(i8* %32) #17
  br label %33

33:                                               ; preds = %7, %13, %31
  %34 = bitcast %"class.assist_ranker::FeatureWeight"* %0 to i8*
  tail call void @_ZdlPv(i8* %34) #17
  ret void
}

; Function Attrs: norecurse nounwind readnone ssp uwtable
define hidden void @_ZN13assist_ranker13FeatureWeight9ArenaDtorEPv(i8* nocapture) local_unnamed_addr #4 align 2 {
  ret void
}

; Function Attrs: nofree norecurse nounwind ssp uwtable
define hidden void @_ZNK13assist_ranker13FeatureWeight13SetCachedSizeEi(%"class.assist_ranker::FeatureWeight"* nocapture, i32) local_unnamed_addr #5 align 2 {
  %3 = getelementptr inbounds %"class.assist_ranker::FeatureWeight", %"class.assist_ranker::FeatureWeight"* %0, i64 0, i32 2, i32 0, i32 0, i32 0, i32 0, i32 0, i32 0
  store atomic i32 %1, i32* %3 monotonic, align 4
  ret void
}

; Function Attrs: nounwind ssp uwtable
define hidden dereferenceable(32) %"class.assist_ranker::FeatureWeight"* @_ZN13assist_ranker13FeatureWeight16default_instanceEv() local_unnamed_addr #0 align 2 {
  %1 = load atomic i32, i32* getelementptr inbounds ({ { { { i32 } }, i32, i32, void ()* }, [2 x i8*] }, { { { { i32 } }, i32, i32, void ()* }, [2 x i8*] }* @scc_info_FeatureWeight_generic_5flogistic_5fregression_5fmodel_2eproto, i64 0, i32 0, i32 0, i32 0, i32 0) acquire, align 8
  %2 = icmp eq i32 %1, 0
  br i1 %2, label %4, label %3, !prof !2

3:                                                ; preds = %0
  tail call void @_ZN6google8protobuf8internal11InitSCCImplEPNS1_11SCCInfoBaseE(%"struct.google::protobuf::internal::SCCInfoBase"* bitcast ({ { { { i32 } }, i32, i32, void ()* }, [2 x i8*] }* @scc_info_FeatureWeight_generic_5flogistic_5fregression_5fmodel_2eproto to %"struct.google::protobuf::internal::SCCInfoBase"*)) #16
  br label %4

4:                                                ; preds = %0, %3
  ret %"class.assist_ranker::FeatureWeight"* bitcast (%"class.assist_ranker::FeatureWeightDefaultTypeInternal"* @_ZN13assist_ranker32_FeatureWeight_default_instance_E to %"class.assist_ranker::FeatureWeight"*)
}

; Function Attrs: nounwind ssp uwtable
define hidden void @_ZN13assist_ranker13FeatureWeight5ClearEv(%"class.assist_ranker::FeatureWeight"* nocapture) unnamed_addr #0 align 2 {
  tail call void @_ZN13assist_ranker13FeatureWeight18clear_feature_typeEv(%"class.assist_ranker::FeatureWeight"* %0)
  %2 = getelementptr inbounds %"class.assist_ranker::FeatureWeight", %"class.assist_ranker::FeatureWeight"* %0, i64 0, i32 0, i32 1
  %3 = bitcast %"class.google::protobuf::internal::InternalMetadata"* %2 to i64*
  %4 = load i64, i64* %3, align 8
  %5 = and i64 %4, 1
  %6 = icmp eq i64 %5, 0
  br i1 %6, label %21, label %7

7:                                                ; preds = %1
  %8 = and i64 %4, -2
  %9 = inttoptr i64 %8 to %"struct.google::protobuf::internal::InternalMetadata::Container"*
  %10 = getelementptr inbounds %"struct.google::protobuf::internal::InternalMetadata::Container", %"struct.google::protobuf::internal::InternalMetadata::Container"* %9, i64 0, i32 1
  %11 = bitcast %"class.std::__1::basic_string"* %10 to %"struct.std::__1::basic_string<char, std::__1::char_traits<char>, std::__1::allocator<char> >::__short"*
  %12 = getelementptr inbounds %"struct.std::__1::basic_string<char, std::__1::char_traits<char>, std::__1::allocator<char> >::__short", %"struct.std::__1::basic_string<char, std::__1::char_traits<char>, std::__1::allocator<char> >::__short"* %11, i64 0, i32 1, i32 0
  %13 = load i8, i8* %12, align 1
  %14 = icmp slt i8 %13, 0
  br i1 %14, label %15, label %19

15:                                               ; preds = %7
  %16 = getelementptr inbounds %"class.std::__1::basic_string", %"class.std::__1::basic_string"* %10, i64 0, i32 0, i32 0, i32 0, i32 0, i32 0, i32 0
  %17 = load i8*, i8** %16, align 8
  store i8 0, i8* %17, align 1
  %18 = getelementptr inbounds %"struct.google::protobuf::internal::InternalMetadata::Container", %"struct.google::protobuf::internal::InternalMetadata::Container"* %9, i64 0, i32 1, i32 0, i32 0, i32 0, i32 0, i32 0, i32 1
  store i64 0, i64* %18, align 8
  br label %21

19:                                               ; preds = %7
  %20 = bitcast %"class.std::__1::basic_string"* %10 to i8*
  store i8 0, i8* %20, align 2
  store i8 0, i8* %12, align 1
  br label %21

21:                                               ; preds = %1, %15, %19
  ret void
}

; Function Attrs: nounwind ssp uwtable
define hidden i8* @_ZN13assist_ranker13FeatureWeight14_InternalParseEPKcPN6google8protobuf8internal12ParseContextE(%"class.assist_ranker::FeatureWeight"*, i8*, %"class.google::protobuf::internal::ParseContext"*) unnamed_addr #0 align 2 {
  %4 = getelementptr inbounds %"class.google::protobuf::internal::ParseContext", %"class.google::protobuf::internal::ParseContext"* %2, i64 0, i32 0
  %5 = getelementptr inbounds %"class.google::protobuf::internal::ParseContext", %"class.google::protobuf::internal::ParseContext"* %2, i64 0, i32 2
  %6 = getelementptr inbounds %"class.google::protobuf::internal::ParseContext", %"class.google::protobuf::internal::ParseContext"* %2, i64 0, i32 0, i32 0
  %7 = getelementptr inbounds %"class.google::protobuf::internal::ParseContext", %"class.google::protobuf::internal::ParseContext"* %2, i64 0, i32 0, i32 1
  %8 = bitcast i8** %7 to i64*
  %9 = getelementptr inbounds %"class.google::protobuf::internal::ParseContext", %"class.google::protobuf::internal::ParseContext"* %2, i64 0, i32 0, i32 4
  %10 = getelementptr inbounds %"class.assist_ranker::FeatureWeight", %"class.assist_ranker::FeatureWeight"* %0, i64 0, i32 3, i64 0
  %11 = getelementptr inbounds %"class.assist_ranker::FeatureWeight", %"class.assist_ranker::FeatureWeight"* %0, i64 0, i32 0, i32 1
  %12 = bitcast %"class.google::protobuf::internal::InternalMetadata"* %11 to i64*
  %13 = getelementptr inbounds %"class.assist_ranker::FeatureWeight", %"class.assist_ranker::FeatureWeight"* %0, i64 0, i32 1
  %14 = bitcast %"union.assist_ranker::FeatureWeight::FeatureTypeUnion"* %13 to %"class.assist_ranker::BucketizedWeights"**
  %15 = getelementptr inbounds %"class.assist_ranker::FeatureWeight", %"class.assist_ranker::FeatureWeight"* %0, i64 0, i32 1, i32 0
  %16 = bitcast %"union.assist_ranker::FeatureWeight::FeatureTypeUnion"* %13 to i32*
  br label %17

17:                                               ; preds = %171, %3
  %18 = phi i8* [ %1, %3 ], [ %172, %171 ]
  %19 = load i32, i32* %5, align 4
  %20 = load i8*, i8** %6, align 8
  %21 = icmp ult i8* %18, %20
  br i1 %21, label %35, label %22, !prof !2

22:                                               ; preds = %17
  %23 = load i64, i64* %8, align 8
  %24 = ptrtoint i8* %18 to i64
  %25 = sub i64 %24, %23
  %26 = load i32, i32* %9, align 4
  %27 = sext i32 %26 to i64
  %28 = icmp eq i64 %25, %27
  br i1 %28, label %173, label %29

29:                                               ; preds = %22
  %30 = tail call { i8*, i8 } @_ZN6google8protobuf8internal18EpsCopyInputStream12DoneFallbackEPKci(%"class.google::protobuf::internal::EpsCopyInputStream"* %4, i8* %18, i32 %19) #16
  %31 = extractvalue { i8*, i8 } %30, 0
  %32 = extractvalue { i8*, i8 } %30, 1
  %33 = and i8 %32, 1
  %34 = icmp eq i8 %33, 0
  br i1 %34, label %35, label %173

35:                                               ; preds = %29, %17
  %36 = phi i8* [ %31, %29 ], [ %18, %17 ]
  %37 = load i8, i8* %36, align 1
  %38 = zext i8 %37 to i32
  %39 = icmp sgt i8 %37, -1
  %40 = getelementptr inbounds i8, i8* %36, i64 1
  br i1 %39, label %54, label %41

41:                                               ; preds = %35
  %42 = load i8, i8* %40, align 1
  %43 = zext i8 %42 to i32
  %44 = shl nuw nsw i32 %43, 7
  %45 = add nsw i32 %38, -128
  %46 = add nsw i32 %45, %44
  %47 = icmp sgt i8 %42, -1
  br i1 %47, label %48, label %50

48:                                               ; preds = %41
  %49 = getelementptr inbounds i8, i8* %36, i64 2
  br label %54

50:                                               ; preds = %41
  %51 = tail call { i8*, i32 } @_ZN6google8protobuf8internal15ReadTagFallbackEPKcj(i8* %36, i32 %46) #16
  %52 = extractvalue { i8*, i32 } %51, 0
  %53 = extractvalue { i8*, i32 } %51, 1
  br label %54

54:                                               ; preds = %35, %48, %50
  %55 = phi i32 [ %46, %48 ], [ %53, %50 ], [ %38, %35 ]
  %56 = phi i8* [ %49, %48 ], [ %52, %50 ], [ %40, %35 ]
  %57 = icmp eq i8* %56, null
  br i1 %57, label %173, label %58, !prof !4

58:                                               ; preds = %54
  %59 = lshr i32 %55, 3
  switch i32 %59, label %149 [
    i32 1, label %60
    i32 2, label %71
    i32 3, label %97
    i32 4, label %123
  ]

60:                                               ; preds = %58
  %61 = and i32 %55, 255
  %62 = icmp eq i32 %61, 13
  br i1 %62, label %63, label %149, !prof !2

63:                                               ; preds = %60
  %64 = bitcast i8* %56 to i32*
  %65 = load i32, i32* %64, align 1
  %66 = load i32, i32* %10, align 4
  %67 = icmp eq i32 %66, 1
  br i1 %67, label %69, label %68

68:                                               ; preds = %63
  tail call void @_ZN13assist_ranker13FeatureWeight18clear_feature_typeEv(%"class.assist_ranker::FeatureWeight"* %0) #16
  store i32 1, i32* %10, align 4
  br label %69

69:                                               ; preds = %63, %68
  store i32 %65, i32* %16, align 8
  %70 = getelementptr inbounds i8, i8* %56, i64 4
  br label %171

71:                                               ; preds = %58
  %72 = and i32 %55, 255
  %73 = icmp eq i32 %72, 18
  br i1 %73, label %74, label %149, !prof !2

74:                                               ; preds = %71
  %75 = load i32, i32* %10, align 4
  %76 = icmp eq i32 %75, 2
  br i1 %76, label %77, label %79

77:                                               ; preds = %74
  %78 = load %"class.assist_ranker::SparseWeights"*, %"class.assist_ranker::SparseWeights"** %15, align 8
  br label %93

79:                                               ; preds = %74
  tail call void @_ZN13assist_ranker13FeatureWeight18clear_feature_typeEv(%"class.assist_ranker::FeatureWeight"* %0) #16
  store i32 2, i32* %10, align 4
  %80 = load i64, i64* %12, align 8
  %81 = and i64 %80, 1
  %82 = icmp eq i64 %81, 0
  %83 = and i64 %80, -2
  br i1 %82, label %88, label %84, !prof !2

84:                                               ; preds = %79
  %85 = inttoptr i64 %83 to %"struct.google::protobuf::internal::InternalMetadata::ContainerBase"*
  %86 = getelementptr inbounds %"struct.google::protobuf::internal::InternalMetadata::ContainerBase", %"struct.google::protobuf::internal::InternalMetadata::ContainerBase"* %85, i64 0, i32 0
  %87 = load %"class.google::protobuf::Arena"*, %"class.google::protobuf::Arena"** %86, align 8
  br label %90

88:                                               ; preds = %79
  %89 = inttoptr i64 %83 to %"class.google::protobuf::Arena"*
  br label %90

90:                                               ; preds = %88, %84
  %91 = phi %"class.google::protobuf::Arena"* [ %87, %84 ], [ %89, %88 ]
  %92 = tail call %"class.assist_ranker::SparseWeights"* @_ZN6google8protobuf5Arena18CreateMaybeMessageIN13assist_ranker13SparseWeightsEJEEEPT_PS1_DpOT0_(%"class.google::protobuf::Arena"* %91) #16
  store %"class.assist_ranker::SparseWeights"* %92, %"class.assist_ranker::SparseWeights"** %15, align 8
  br label %93

93:                                               ; preds = %77, %90
  %94 = phi %"class.assist_ranker::SparseWeights"* [ %78, %77 ], [ %92, %90 ]
  %95 = tail call i8* @_ZN6google8protobuf8internal12ParseContext12ParseMessageIN13assist_ranker13SparseWeightsEEEPKcPT_S7_(%"class.google::protobuf::internal::ParseContext"* %2, %"class.assist_ranker::SparseWeights"* %94, i8* nonnull %56)
  %96 = icmp eq i8* %95, null
  br i1 %96, label %173, label %171

97:                                               ; preds = %58
  %98 = and i32 %55, 255
  %99 = icmp eq i32 %98, 26
  br i1 %99, label %100, label %149, !prof !2

100:                                              ; preds = %97
  %101 = load i32, i32* %10, align 4
  %102 = icmp eq i32 %101, 3
  br i1 %102, label %103, label %105

103:                                              ; preds = %100
  %104 = load %"class.assist_ranker::SparseWeights"*, %"class.assist_ranker::SparseWeights"** %15, align 8
  br label %119

105:                                              ; preds = %100
  tail call void @_ZN13assist_ranker13FeatureWeight18clear_feature_typeEv(%"class.assist_ranker::FeatureWeight"* %0) #16
  store i32 3, i32* %10, align 4
  %106 = load i64, i64* %12, align 8
  %107 = and i64 %106, 1
  %108 = icmp eq i64 %107, 0
  %109 = and i64 %106, -2
  br i1 %108, label %114, label %110, !prof !2

110:                                              ; preds = %105
  %111 = inttoptr i64 %109 to %"struct.google::protobuf::internal::InternalMetadata::ContainerBase"*
  %112 = getelementptr inbounds %"struct.google::protobuf::internal::InternalMetadata::ContainerBase", %"struct.google::protobuf::internal::InternalMetadata::ContainerBase"* %111, i64 0, i32 0
  %113 = load %"class.google::protobuf::Arena"*, %"class.google::protobuf::Arena"** %112, align 8
  br label %116

114:                                              ; preds = %105
  %115 = inttoptr i64 %109 to %"class.google::protobuf::Arena"*
  br label %116

116:                                              ; preds = %114, %110
  %117 = phi %"class.google::protobuf::Arena"* [ %113, %110 ], [ %115, %114 ]
  %118 = tail call %"class.assist_ranker::SparseWeights"* @_ZN6google8protobuf5Arena18CreateMaybeMessageIN13assist_ranker13SparseWeightsEJEEEPT_PS1_DpOT0_(%"class.google::protobuf::Arena"* %117) #16
  store %"class.assist_ranker::SparseWeights"* %118, %"class.assist_ranker::SparseWeights"** %15, align 8
  br label %119

119:                                              ; preds = %103, %116
  %120 = phi %"class.assist_ranker::SparseWeights"* [ %104, %103 ], [ %118, %116 ]
  %121 = tail call i8* @_ZN6google8protobuf8internal12ParseContext12ParseMessageIN13assist_ranker13SparseWeightsEEEPKcPT_S7_(%"class.google::protobuf::internal::ParseContext"* %2, %"class.assist_ranker::SparseWeights"* %120, i8* nonnull %56)
  %122 = icmp eq i8* %121, null
  br i1 %122, label %173, label %171

123:                                              ; preds = %58
  %124 = and i32 %55, 255
  %125 = icmp eq i32 %124, 34
  br i1 %125, label %126, label %149, !prof !2

126:                                              ; preds = %123
  %127 = load i32, i32* %10, align 4
  %128 = icmp eq i32 %127, 4
  br i1 %128, label %129, label %131

129:                                              ; preds = %126
  %130 = load %"class.assist_ranker::BucketizedWeights"*, %"class.assist_ranker::BucketizedWeights"** %14, align 8
  br label %145

131:                                              ; preds = %126
  tail call void @_ZN13assist_ranker13FeatureWeight18clear_feature_typeEv(%"class.assist_ranker::FeatureWeight"* %0) #16
  store i32 4, i32* %10, align 4
  %132 = load i64, i64* %12, align 8
  %133 = and i64 %132, 1
  %134 = icmp eq i64 %133, 0
  %135 = and i64 %132, -2
  br i1 %134, label %140, label %136, !prof !2

136:                                              ; preds = %131
  %137 = inttoptr i64 %135 to %"struct.google::protobuf::internal::InternalMetadata::ContainerBase"*
  %138 = getelementptr inbounds %"struct.google::protobuf::internal::InternalMetadata::ContainerBase", %"struct.google::protobuf::internal::InternalMetadata::ContainerBase"* %137, i64 0, i32 0
  %139 = load %"class.google::protobuf::Arena"*, %"class.google::protobuf::Arena"** %138, align 8
  br label %142

140:                                              ; preds = %131
  %141 = inttoptr i64 %135 to %"class.google::protobuf::Arena"*
  br label %142

142:                                              ; preds = %140, %136
  %143 = phi %"class.google::protobuf::Arena"* [ %139, %136 ], [ %141, %140 ]
  %144 = tail call %"class.assist_ranker::BucketizedWeights"* @_ZN6google8protobuf5Arena18CreateMaybeMessageIN13assist_ranker17BucketizedWeightsEJEEEPT_PS1_DpOT0_(%"class.google::protobuf::Arena"* %143) #16
  store %"class.assist_ranker::BucketizedWeights"* %144, %"class.assist_ranker::BucketizedWeights"** %14, align 8
  br label %145

145:                                              ; preds = %129, %142
  %146 = phi %"class.assist_ranker::BucketizedWeights"* [ %130, %129 ], [ %144, %142 ]
  %147 = tail call i8* @_ZN6google8protobuf8internal12ParseContext12ParseMessageIN13assist_ranker17BucketizedWeightsEEEPKcPT_S7_(%"class.google::protobuf::internal::ParseContext"* %2, %"class.assist_ranker::BucketizedWeights"* %146, i8* nonnull %56)
  %148 = icmp eq i8* %147, null
  br i1 %148, label %173, label %171

149:                                              ; preds = %58, %123, %97, %71, %60
  %150 = and i32 %55, 7
  %151 = icmp eq i32 %150, 4
  %152 = icmp eq i32 %55, 0
  %153 = or i1 %152, %151
  br i1 %153, label %154, label %157

154:                                              ; preds = %149
  %155 = add i32 %55, -1
  %156 = getelementptr inbounds %"class.google::protobuf::internal::ParseContext", %"class.google::protobuf::internal::ParseContext"* %2, i64 0, i32 0, i32 8
  store i32 %155, i32* %156, align 8
  br label %173

157:                                              ; preds = %149
  %158 = load i64, i64* %12, align 8
  %159 = and i64 %158, 1
  %160 = icmp eq i64 %159, 0
  br i1 %160, label %165, label %161, !prof !4

161:                                              ; preds = %157
  %162 = and i64 %158, -2
  %163 = inttoptr i64 %162 to %"struct.google::protobuf::internal::InternalMetadata::Container"*
  %164 = getelementptr inbounds %"struct.google::protobuf::internal::InternalMetadata::Container", %"struct.google::protobuf::internal::InternalMetadata::Container"* %163, i64 0, i32 1
  br label %167

165:                                              ; preds = %157
  %166 = tail call %"class.std::__1::basic_string"* @_ZN6google8protobuf8internal16InternalMetadata27mutable_unknown_fields_slowINSt3__112basic_stringIcNS4_11char_traitsIcEENS4_9allocatorIcEEEEEEPT_v(%"class.google::protobuf::internal::InternalMetadata"* %11) #16
  br label %167

167:                                              ; preds = %161, %165
  %168 = phi %"class.std::__1::basic_string"* [ %164, %161 ], [ %166, %165 ]
  %169 = tail call i8* @_ZN6google8protobuf8internal17UnknownFieldParseEjPNSt3__112basic_stringIcNS2_11char_traitsIcEENS2_9allocatorIcEEEEPKcPNS1_12ParseContextE(i32 %55, %"class.std::__1::basic_string"* %168, i8* nonnull %56, %"class.google::protobuf::internal::ParseContext"* %2) #16
  %170 = icmp eq i8* %169, null
  br i1 %170, label %173, label %171

171:                                              ; preds = %167, %145, %119, %93, %69
  %172 = phi i8* [ %169, %167 ], [ %147, %145 ], [ %121, %119 ], [ %95, %93 ], [ %70, %69 ]
  br label %17

173:                                              ; preds = %29, %167, %145, %119, %93, %22, %54, %154
  %174 = phi i8* [ %56, %154 ], [ null, %167 ], [ null, %145 ], [ null, %119 ], [ null, %93 ], [ %18, %22 ], [ null, %54 ], [ %31, %29 ]
  ret i8* %174
}

; Function Attrs: nounwind ssp uwtable
define linkonce_odr hidden i8* @_ZN6google8protobuf8internal12ParseContext12ParseMessageIN13assist_ranker13SparseWeightsEEEPKcPT_S7_(%"class.google::protobuf::internal::ParseContext"*, %"class.assist_ranker::SparseWeights"*, i8*) local_unnamed_addr #0 comdat align 2 {
  %4 = load i8, i8* %2, align 1
  %5 = zext i8 %4 to i32
  %6 = icmp sgt i8 %4, -1
  br i1 %6, label %7, label %9

7:                                                ; preds = %3
  %8 = getelementptr inbounds i8, i8* %2, i64 1
  br label %13

9:                                                ; preds = %3
  %10 = tail call { i8*, i32 } @_ZN6google8protobuf8internal16ReadSizeFallbackEPKcj(i8* %2, i32 %5) #16
  %11 = extractvalue { i8*, i32 } %10, 0
  %12 = extractvalue { i8*, i32 } %10, 1
  br label %13

13:                                               ; preds = %7, %9
  %14 = phi i8* [ %11, %9 ], [ %8, %7 ]
  %15 = phi i32 [ %12, %9 ], [ %5, %7 ]
  %16 = icmp eq i8* %14, null
  br i1 %16, label %55, label %17

17:                                               ; preds = %13
  %18 = getelementptr inbounds %"class.google::protobuf::internal::ParseContext", %"class.google::protobuf::internal::ParseContext"* %0, i64 0, i32 0, i32 1
  %19 = bitcast i8** %18 to i64*
  %20 = load i64, i64* %19, align 8
  %21 = ptrtoint i8* %14 to i64
  %22 = sub i64 %21, %20
  %23 = trunc i64 %22 to i32
  %24 = add nsw i32 %15, %23
  %25 = inttoptr i64 %20 to i8*
  %26 = icmp slt i32 %24, 0
  %27 = select i1 %26, i32 %24, i32 0
  %28 = sext i32 %27 to i64
  %29 = getelementptr inbounds i8, i8* %25, i64 %28
  %30 = getelementptr inbounds %"class.google::protobuf::internal::ParseContext", %"class.google::protobuf::internal::ParseContext"* %0, i64 0, i32 0, i32 0
  store i8* %29, i8** %30, align 8
  %31 = getelementptr inbounds %"class.google::protobuf::internal::ParseContext", %"class.google::protobuf::internal::ParseContext"* %0, i64 0, i32 0, i32 4
  %32 = load i32, i32* %31, align 4
  store i32 %24, i32* %31, align 4
  %33 = sub nsw i32 %32, %24
  %34 = getelementptr inbounds %"class.google::protobuf::internal::ParseContext", %"class.google::protobuf::internal::ParseContext"* %0, i64 0, i32 1
  %35 = load i32, i32* %34, align 8
  %36 = add nsw i32 %35, -1
  store i32 %36, i32* %34, align 8
  %37 = icmp slt i32 %35, 1
  br i1 %37, label %55, label %38

38:                                               ; preds = %17
  %39 = tail call i8* @_ZN13assist_ranker13SparseWeights14_InternalParseEPKcPN6google8protobuf8internal12ParseContextE(%"class.assist_ranker::SparseWeights"* %1, i8* nonnull %14, %"class.google::protobuf::internal::ParseContext"* %0)
  %40 = icmp eq i8* %39, null
  br i1 %40, label %55, label %41, !prof !4

41:                                               ; preds = %38
  %42 = load i32, i32* %34, align 8
  %43 = add nsw i32 %42, 1
  store i32 %43, i32* %34, align 8
  %44 = getelementptr inbounds %"class.google::protobuf::internal::ParseContext", %"class.google::protobuf::internal::ParseContext"* %0, i64 0, i32 0, i32 8
  %45 = load i32, i32* %44, align 8
  %46 = icmp eq i32 %45, 0
  br i1 %46, label %47, label %55, !prof !2

47:                                               ; preds = %41
  %48 = load i32, i32* %31, align 4
  %49 = add nsw i32 %48, %33
  store i32 %49, i32* %31, align 4
  %50 = load i8*, i8** %18, align 8
  %51 = icmp slt i32 %49, 0
  %52 = select i1 %51, i32 %49, i32 0
  %53 = sext i32 %52 to i64
  %54 = getelementptr inbounds i8, i8* %50, i64 %53
  store i8* %54, i8** %30, align 8
  br label %55

55:                                               ; preds = %13, %38, %17, %41, %47
  %56 = phi i8* [ %39, %47 ], [ null, %41 ], [ null, %17 ], [ null, %38 ], [ null, %13 ]
  ret i8* %56
}

; Function Attrs: nounwind ssp uwtable
define linkonce_odr hidden i8* @_ZN6google8protobuf8internal12ParseContext12ParseMessageIN13assist_ranker17BucketizedWeightsEEEPKcPT_S7_(%"class.google::protobuf::internal::ParseContext"*, %"class.assist_ranker::BucketizedWeights"*, i8*) local_unnamed_addr #0 comdat align 2 {
  %4 = load i8, i8* %2, align 1
  %5 = zext i8 %4 to i32
  %6 = icmp sgt i8 %4, -1
  br i1 %6, label %7, label %9

7:                                                ; preds = %3
  %8 = getelementptr inbounds i8, i8* %2, i64 1
  br label %13

9:                                                ; preds = %3
  %10 = tail call { i8*, i32 } @_ZN6google8protobuf8internal16ReadSizeFallbackEPKcj(i8* %2, i32 %5) #16
  %11 = extractvalue { i8*, i32 } %10, 0
  %12 = extractvalue { i8*, i32 } %10, 1
  br label %13

13:                                               ; preds = %7, %9
  %14 = phi i8* [ %11, %9 ], [ %8, %7 ]
  %15 = phi i32 [ %12, %9 ], [ %5, %7 ]
  %16 = icmp eq i8* %14, null
  br i1 %16, label %55, label %17

17:                                               ; preds = %13
  %18 = getelementptr inbounds %"class.google::protobuf::internal::ParseContext", %"class.google::protobuf::internal::ParseContext"* %0, i64 0, i32 0, i32 1
  %19 = bitcast i8** %18 to i64*
  %20 = load i64, i64* %19, align 8
  %21 = ptrtoint i8* %14 to i64
  %22 = sub i64 %21, %20
  %23 = trunc i64 %22 to i32
  %24 = add nsw i32 %15, %23
  %25 = inttoptr i64 %20 to i8*
  %26 = icmp slt i32 %24, 0
  %27 = select i1 %26, i32 %24, i32 0
  %28 = sext i32 %27 to i64
  %29 = getelementptr inbounds i8, i8* %25, i64 %28
  %30 = getelementptr inbounds %"class.google::protobuf::internal::ParseContext", %"class.google::protobuf::internal::ParseContext"* %0, i64 0, i32 0, i32 0
  store i8* %29, i8** %30, align 8
  %31 = getelementptr inbounds %"class.google::protobuf::internal::ParseContext", %"class.google::protobuf::internal::ParseContext"* %0, i64 0, i32 0, i32 4
  %32 = load i32, i32* %31, align 4
  store i32 %24, i32* %31, align 4
  %33 = sub nsw i32 %32, %24
  %34 = getelementptr inbounds %"class.google::protobuf::internal::ParseContext", %"class.google::protobuf::internal::ParseContext"* %0, i64 0, i32 1
  %35 = load i32, i32* %34, align 8
  %36 = add nsw i32 %35, -1
  store i32 %36, i32* %34, align 8
  %37 = icmp slt i32 %35, 1
  br i1 %37, label %55, label %38

38:                                               ; preds = %17
  %39 = tail call i8* @_ZN13assist_ranker17BucketizedWeights14_InternalParseEPKcPN6google8protobuf8internal12ParseContextE(%"class.assist_ranker::BucketizedWeights"* %1, i8* nonnull %14, %"class.google::protobuf::internal::ParseContext"* %0)
  %40 = icmp eq i8* %39, null
  br i1 %40, label %55, label %41, !prof !4

41:                                               ; preds = %38
  %42 = load i32, i32* %34, align 8
  %43 = add nsw i32 %42, 1
  store i32 %43, i32* %34, align 8
  %44 = getelementptr inbounds %"class.google::protobuf::internal::ParseContext", %"class.google::protobuf::internal::ParseContext"* %0, i64 0, i32 0, i32 8
  %45 = load i32, i32* %44, align 8
  %46 = icmp eq i32 %45, 0
  br i1 %46, label %47, label %55, !prof !2

47:                                               ; preds = %41
  %48 = load i32, i32* %31, align 4
  %49 = add nsw i32 %48, %33
  store i32 %49, i32* %31, align 4
  %50 = load i8*, i8** %18, align 8
  %51 = icmp slt i32 %49, 0
  %52 = select i1 %51, i32 %49, i32 0
  %53 = sext i32 %52 to i64
  %54 = getelementptr inbounds i8, i8* %50, i64 %53
  store i8* %54, i8** %30, align 8
  br label %55

55:                                               ; preds = %13, %38, %17, %41, %47
  %56 = phi i8* [ %39, %47 ], [ null, %41 ], [ null, %17 ], [ null, %38 ], [ null, %13 ]
  ret i8* %56
}

; Function Attrs: nounwind ssp uwtable
define hidden i8* @_ZNK13assist_ranker13FeatureWeight18_InternalSerializeEPhPN6google8protobuf2io19EpsCopyOutputStreamE(%"class.assist_ranker::FeatureWeight"* nocapture readonly, i8*, %"class.google::protobuf::io::EpsCopyOutputStream"*) unnamed_addr #0 align 2 {
  %4 = getelementptr inbounds %"class.assist_ranker::FeatureWeight", %"class.assist_ranker::FeatureWeight"* %0, i64 0, i32 3, i64 0
  %5 = load i32, i32* %4, align 4
  switch i32 %5, label %149 [
    i32 1, label %6
    i32 2, label %25
    i32 3, label %66
    i32 4, label %107
  ]

6:                                                ; preds = %3
  %7 = getelementptr inbounds %"class.google::protobuf::io::EpsCopyOutputStream", %"class.google::protobuf::io::EpsCopyOutputStream"* %2, i64 0, i32 0
  %8 = load i8*, i8** %7, align 8
  %9 = icmp ugt i8* %8, %1
  br i1 %9, label %14, label %10, !prof !2

10:                                               ; preds = %6
  %11 = tail call i8* @_ZN6google8protobuf2io19EpsCopyOutputStream19EnsureSpaceFallbackEPh(%"class.google::protobuf::io::EpsCopyOutputStream"* %2, i8* %1) #16
  %12 = load i32, i32* %4, align 4
  %13 = icmp eq i32 %12, 1
  br i1 %13, label %14, label %19

14:                                               ; preds = %6, %10
  %15 = phi i8* [ %11, %10 ], [ %1, %6 ]
  %16 = getelementptr inbounds %"class.assist_ranker::FeatureWeight", %"class.assist_ranker::FeatureWeight"* %0, i64 0, i32 1
  %17 = bitcast %"union.assist_ranker::FeatureWeight::FeatureTypeUnion"* %16 to float*
  %18 = load float, float* %17, align 8
  br label %19

19:                                               ; preds = %10, %14
  %20 = phi i8* [ %15, %14 ], [ %11, %10 ]
  %21 = phi float [ %18, %14 ], [ 0.000000e+00, %10 ]
  store i8 13, i8* %20, align 1
  %22 = getelementptr inbounds i8, i8* %20, i64 1
  %23 = bitcast i8* %22 to float*
  store float %21, float* %23, align 1
  %24 = getelementptr inbounds i8, i8* %20, i64 5
  br label %149

25:                                               ; preds = %3
  %26 = getelementptr inbounds %"class.google::protobuf::io::EpsCopyOutputStream", %"class.google::protobuf::io::EpsCopyOutputStream"* %2, i64 0, i32 0
  %27 = load i8*, i8** %26, align 8
  %28 = icmp ugt i8* %27, %1
  br i1 %28, label %31, label %29, !prof !2

29:                                               ; preds = %25
  %30 = tail call i8* @_ZN6google8protobuf2io19EpsCopyOutputStream19EnsureSpaceFallbackEPh(%"class.google::protobuf::io::EpsCopyOutputStream"* %2, i8* %1) #16
  br label %31

31:                                               ; preds = %25, %29
  %32 = phi i8* [ %30, %29 ], [ %1, %25 ]
  %33 = getelementptr inbounds %"class.assist_ranker::FeatureWeight", %"class.assist_ranker::FeatureWeight"* %0, i64 0, i32 1, i32 0
  %34 = load %"class.assist_ranker::SparseWeights"*, %"class.assist_ranker::SparseWeights"** %33, align 8
  store i8 18, i8* %32, align 1
  %35 = getelementptr inbounds i8, i8* %32, i64 1
  %36 = getelementptr inbounds %"class.assist_ranker::SparseWeights", %"class.assist_ranker::SparseWeights"* %34, i64 0, i32 2, i32 0, i32 0, i32 0, i32 0, i32 0, i32 0
  %37 = load atomic i32, i32* %36 monotonic, align 4
  %38 = icmp ult i32 %37, 128
  %39 = trunc i32 %37 to i8
  br i1 %38, label %40, label %42

40:                                               ; preds = %31
  store i8 %39, i8* %35, align 1
  %41 = getelementptr inbounds i8, i8* %32, i64 2
  br label %63

42:                                               ; preds = %31
  %43 = or i8 %39, -128
  store i8 %43, i8* %35, align 1
  %44 = lshr i32 %37, 7
  %45 = icmp ult i32 %37, 16384
  br i1 %45, label %46, label %50

46:                                               ; preds = %42
  %47 = trunc i32 %44 to i8
  %48 = getelementptr inbounds i8, i8* %32, i64 2
  store i8 %47, i8* %48, align 1
  %49 = getelementptr inbounds i8, i8* %32, i64 3
  br label %63

50:                                               ; preds = %42
  %51 = getelementptr inbounds i8, i8* %32, i64 2
  br label %52

52:                                               ; preds = %52, %50
  %53 = phi i32 [ %44, %50 ], [ %57, %52 ]
  %54 = phi i8* [ %51, %50 ], [ %58, %52 ]
  %55 = trunc i32 %53 to i8
  %56 = or i8 %55, -128
  store i8 %56, i8* %54, align 1
  %57 = lshr i32 %53, 7
  %58 = getelementptr inbounds i8, i8* %54, i64 1
  %59 = icmp ugt i32 %53, 16383
  br i1 %59, label %52, label %60, !prof !4

60:                                               ; preds = %52
  %61 = trunc i32 %57 to i8
  %62 = getelementptr inbounds i8, i8* %54, i64 2
  store i8 %61, i8* %58, align 1
  br label %63

63:                                               ; preds = %40, %46, %60
  %64 = phi i8* [ %41, %40 ], [ %49, %46 ], [ %62, %60 ]
  %65 = tail call i8* @_ZNK13assist_ranker13SparseWeights18_InternalSerializeEPhPN6google8protobuf2io19EpsCopyOutputStreamE(%"class.assist_ranker::SparseWeights"* %34, i8* %64, %"class.google::protobuf::io::EpsCopyOutputStream"* %2) #16
  br label %149

66:                                               ; preds = %3
  %67 = getelementptr inbounds %"class.google::protobuf::io::EpsCopyOutputStream", %"class.google::protobuf::io::EpsCopyOutputStream"* %2, i64 0, i32 0
  %68 = load i8*, i8** %67, align 8
  %69 = icmp ugt i8* %68, %1
  br i1 %69, label %72, label %70, !prof !2

70:                                               ; preds = %66
  %71 = tail call i8* @_ZN6google8protobuf2io19EpsCopyOutputStream19EnsureSpaceFallbackEPh(%"class.google::protobuf::io::EpsCopyOutputStream"* %2, i8* %1) #16
  br label %72

72:                                               ; preds = %66, %70
  %73 = phi i8* [ %71, %70 ], [ %1, %66 ]
  %74 = getelementptr inbounds %"class.assist_ranker::FeatureWeight", %"class.assist_ranker::FeatureWeight"* %0, i64 0, i32 1, i32 0
  %75 = load %"class.assist_ranker::SparseWeights"*, %"class.assist_ranker::SparseWeights"** %74, align 8
  store i8 26, i8* %73, align 1
  %76 = getelementptr inbounds i8, i8* %73, i64 1
  %77 = getelementptr inbounds %"class.assist_ranker::SparseWeights", %"class.assist_ranker::SparseWeights"* %75, i64 0, i32 2, i32 0, i32 0, i32 0, i32 0, i32 0, i32 0
  %78 = load atomic i32, i32* %77 monotonic, align 4
  %79 = icmp ult i32 %78, 128
  %80 = trunc i32 %78 to i8
  br i1 %79, label %81, label %83

81:                                               ; preds = %72
  store i8 %80, i8* %76, align 1
  %82 = getelementptr inbounds i8, i8* %73, i64 2
  br label %104

83:                                               ; preds = %72
  %84 = or i8 %80, -128
  store i8 %84, i8* %76, align 1
  %85 = lshr i32 %78, 7
  %86 = icmp ult i32 %78, 16384
  br i1 %86, label %87, label %91

87:                                               ; preds = %83
  %88 = trunc i32 %85 to i8
  %89 = getelementptr inbounds i8, i8* %73, i64 2
  store i8 %88, i8* %89, align 1
  %90 = getelementptr inbounds i8, i8* %73, i64 3
  br label %104

91:                                               ; preds = %83
  %92 = getelementptr inbounds i8, i8* %73, i64 2
  br label %93

93:                                               ; preds = %93, %91
  %94 = phi i32 [ %85, %91 ], [ %98, %93 ]
  %95 = phi i8* [ %92, %91 ], [ %99, %93 ]
  %96 = trunc i32 %94 to i8
  %97 = or i8 %96, -128
  store i8 %97, i8* %95, align 1
  %98 = lshr i32 %94, 7
  %99 = getelementptr inbounds i8, i8* %95, i64 1
  %100 = icmp ugt i32 %94, 16383
  br i1 %100, label %93, label %101, !prof !4

101:                                              ; preds = %93
  %102 = trunc i32 %98 to i8
  %103 = getelementptr inbounds i8, i8* %95, i64 2
  store i8 %102, i8* %99, align 1
  br label %104

104:                                              ; preds = %81, %87, %101
  %105 = phi i8* [ %82, %81 ], [ %90, %87 ], [ %103, %101 ]
  %106 = tail call i8* @_ZNK13assist_ranker13SparseWeights18_InternalSerializeEPhPN6google8protobuf2io19EpsCopyOutputStreamE(%"class.assist_ranker::SparseWeights"* %75, i8* %105, %"class.google::protobuf::io::EpsCopyOutputStream"* %2) #16
  br label %149

107:                                              ; preds = %3
  %108 = getelementptr inbounds %"class.google::protobuf::io::EpsCopyOutputStream", %"class.google::protobuf::io::EpsCopyOutputStream"* %2, i64 0, i32 0
  %109 = load i8*, i8** %108, align 8
  %110 = icmp ugt i8* %109, %1
  br i1 %110, label %113, label %111, !prof !2

111:                                              ; preds = %107
  %112 = tail call i8* @_ZN6google8protobuf2io19EpsCopyOutputStream19EnsureSpaceFallbackEPh(%"class.google::protobuf::io::EpsCopyOutputStream"* %2, i8* %1) #16
  br label %113

113:                                              ; preds = %107, %111
  %114 = phi i8* [ %112, %111 ], [ %1, %107 ]
  %115 = getelementptr inbounds %"class.assist_ranker::FeatureWeight", %"class.assist_ranker::FeatureWeight"* %0, i64 0, i32 1
  %116 = bitcast %"union.assist_ranker::FeatureWeight::FeatureTypeUnion"* %115 to %"class.assist_ranker::BucketizedWeights"**
  %117 = load %"class.assist_ranker::BucketizedWeights"*, %"class.assist_ranker::BucketizedWeights"** %116, align 8
  store i8 34, i8* %114, align 1
  %118 = getelementptr inbounds i8, i8* %114, i64 1
  %119 = getelementptr inbounds %"class.assist_ranker::BucketizedWeights", %"class.assist_ranker::BucketizedWeights"* %117, i64 0, i32 2, i32 0, i32 0, i32 0, i32 0, i32 0, i32 0
  %120 = load atomic i32, i32* %119 monotonic, align 4
  %121 = icmp ult i32 %120, 128
  %122 = trunc i32 %120 to i8
  br i1 %121, label %123, label %125

123:                                              ; preds = %113
  store i8 %122, i8* %118, align 1
  %124 = getelementptr inbounds i8, i8* %114, i64 2
  br label %146

125:                                              ; preds = %113
  %126 = or i8 %122, -128
  store i8 %126, i8* %118, align 1
  %127 = lshr i32 %120, 7
  %128 = icmp ult i32 %120, 16384
  br i1 %128, label %129, label %133

129:                                              ; preds = %125
  %130 = trunc i32 %127 to i8
  %131 = getelementptr inbounds i8, i8* %114, i64 2
  store i8 %130, i8* %131, align 1
  %132 = getelementptr inbounds i8, i8* %114, i64 3
  br label %146

133:                                              ; preds = %125
  %134 = getelementptr inbounds i8, i8* %114, i64 2
  br label %135

135:                                              ; preds = %135, %133
  %136 = phi i32 [ %127, %133 ], [ %140, %135 ]
  %137 = phi i8* [ %134, %133 ], [ %141, %135 ]
  %138 = trunc i32 %136 to i8
  %139 = or i8 %138, -128
  store i8 %139, i8* %137, align 1
  %140 = lshr i32 %136, 7
  %141 = getelementptr inbounds i8, i8* %137, i64 1
  %142 = icmp ugt i32 %136, 16383
  br i1 %142, label %135, label %143, !prof !4

143:                                              ; preds = %135
  %144 = trunc i32 %140 to i8
  %145 = getelementptr inbounds i8, i8* %137, i64 2
  store i8 %144, i8* %141, align 1
  br label %146

146:                                              ; preds = %123, %129, %143
  %147 = phi i8* [ %124, %123 ], [ %132, %129 ], [ %145, %143 ]
  %148 = tail call i8* @_ZNK13assist_ranker17BucketizedWeights18_InternalSerializeEPhPN6google8protobuf2io19EpsCopyOutputStreamE(%"class.assist_ranker::BucketizedWeights"* %117, i8* %147, %"class.google::protobuf::io::EpsCopyOutputStream"* %2) #16
  br label %149

149:                                              ; preds = %3, %146, %104, %63, %19
  %150 = phi i8* [ %1, %3 ], [ %148, %146 ], [ %106, %104 ], [ %65, %63 ], [ %24, %19 ]
  %151 = getelementptr inbounds %"class.assist_ranker::FeatureWeight", %"class.assist_ranker::FeatureWeight"* %0, i64 0, i32 0, i32 1
  %152 = bitcast %"class.google::protobuf::internal::InternalMetadata"* %151 to i64*
  %153 = load i64, i64* %152, align 8
  %154 = and i64 %153, 1
  %155 = icmp eq i64 %154, 0
  br i1 %155, label %187, label %156, !prof !2

156:                                              ; preds = %149
  %157 = and i64 %153, -2
  %158 = inttoptr i64 %157 to %"struct.google::protobuf::internal::InternalMetadata::Container"*
  %159 = getelementptr inbounds %"struct.google::protobuf::internal::InternalMetadata::Container", %"struct.google::protobuf::internal::InternalMetadata::Container"* %158, i64 0, i32 1
  %160 = bitcast %"class.std::__1::basic_string"* %159 to %"struct.std::__1::basic_string<char, std::__1::char_traits<char>, std::__1::allocator<char> >::__short"*
  %161 = getelementptr inbounds %"struct.std::__1::basic_string<char, std::__1::char_traits<char>, std::__1::allocator<char> >::__short", %"struct.std::__1::basic_string<char, std::__1::char_traits<char>, std::__1::allocator<char> >::__short"* %160, i64 0, i32 1, i32 0
  %162 = load i8, i8* %161, align 1
  %163 = icmp slt i8 %162, 0
  br i1 %163, label %164, label %169

164:                                              ; preds = %156
  %165 = getelementptr inbounds %"class.std::__1::basic_string", %"class.std::__1::basic_string"* %159, i64 0, i32 0, i32 0, i32 0, i32 0, i32 0, i32 0
  %166 = load i8*, i8** %165, align 8
  %167 = getelementptr inbounds %"struct.google::protobuf::internal::InternalMetadata::Container", %"struct.google::protobuf::internal::InternalMetadata::Container"* %158, i64 0, i32 1, i32 0, i32 0, i32 0, i32 0, i32 0, i32 1
  %168 = load i64, i64* %167, align 8
  br label %172

169:                                              ; preds = %156
  %170 = bitcast %"class.std::__1::basic_string"* %159 to i8*
  %171 = zext i8 %162 to i64
  br label %172

172:                                              ; preds = %164, %169
  %173 = phi i8* [ %166, %164 ], [ %170, %169 ]
  %174 = phi i64 [ %168, %164 ], [ %171, %169 ]
  %175 = bitcast %"class.google::protobuf::io::EpsCopyOutputStream"* %2 to i64*
  %176 = load i64, i64* %175, align 8
  %177 = ptrtoint i8* %150 to i64
  %178 = sub i64 %176, %177
  %179 = shl i64 %174, 32
  %180 = ashr exact i64 %179, 32
  %181 = icmp slt i64 %178, %180
  br i1 %181, label %182, label %185, !prof !4

182:                                              ; preds = %172
  %183 = trunc i64 %174 to i32
  %184 = tail call i8* @_ZN6google8protobuf2io19EpsCopyOutputStream16WriteRawFallbackEPKviPh(%"class.google::protobuf::io::EpsCopyOutputStream"* %2, i8* %173, i32 %183, i8* %150) #16
  br label %187

185:                                              ; preds = %172
  tail call void @llvm.memcpy.p0i8.p0i8.i64(i8* align 1 %150, i8* align 1 %173, i64 %180, i1 false) #16
  %186 = getelementptr inbounds i8, i8* %150, i64 %180
  br label %187

187:                                              ; preds = %149, %185, %182
  %188 = phi i8* [ %150, %149 ], [ %184, %182 ], [ %186, %185 ]
  ret i8* %188
}

; Function Attrs: nounwind ssp uwtable
define hidden i64 @_ZNK13assist_ranker13FeatureWeight12ByteSizeLongEv(%"class.assist_ranker::FeatureWeight"* nocapture) unnamed_addr #0 align 2 {
  %2 = getelementptr inbounds %"class.assist_ranker::FeatureWeight", %"class.assist_ranker::FeatureWeight"* %0, i64 0, i32 3, i64 0
  %3 = load i32, i32* %2, align 4
  switch i32 %3, label %122 [
    i32 1, label %4
    i32 2, label %5
    i32 3, label %19
    i32 4, label %33
  ]

4:                                                ; preds = %1
  br label %122

5:                                                ; preds = %1
  %6 = getelementptr inbounds %"class.assist_ranker::FeatureWeight", %"class.assist_ranker::FeatureWeight"* %0, i64 0, i32 1, i32 0
  %7 = load %"class.assist_ranker::SparseWeights"*, %"class.assist_ranker::SparseWeights"** %6, align 8
  %8 = tail call i64 @_ZNK13assist_ranker13SparseWeights12ByteSizeLongEv(%"class.assist_ranker::SparseWeights"* %7) #16
  %9 = trunc i64 %8 to i32
  %10 = or i32 %9, 1
  %11 = tail call i32 @llvm.ctlz.i32(i32 %10, i1 true) #16, !range !24
  %12 = xor i32 %11, 31
  %13 = mul nuw nsw i32 %12, 9
  %14 = add nuw nsw i32 %13, 73
  %15 = lshr i32 %14, 6
  %16 = zext i32 %15 to i64
  %17 = add i64 %8, 1
  %18 = add i64 %17, %16
  br label %122

19:                                               ; preds = %1
  %20 = getelementptr inbounds %"class.assist_ranker::FeatureWeight", %"class.assist_ranker::FeatureWeight"* %0, i64 0, i32 1, i32 0
  %21 = load %"class.assist_ranker::SparseWeights"*, %"class.assist_ranker::SparseWeights"** %20, align 8
  %22 = tail call i64 @_ZNK13assist_ranker13SparseWeights12ByteSizeLongEv(%"class.assist_ranker::SparseWeights"* %21) #16
  %23 = trunc i64 %22 to i32
  %24 = or i32 %23, 1
  %25 = tail call i32 @llvm.ctlz.i32(i32 %24, i1 true) #16, !range !24
  %26 = xor i32 %25, 31
  %27 = mul nuw nsw i32 %26, 9
  %28 = add nuw nsw i32 %27, 73
  %29 = lshr i32 %28, 6
  %30 = zext i32 %29 to i64
  %31 = add i64 %22, 1
  %32 = add i64 %31, %30
  br label %122

33:                                               ; preds = %1
  %34 = getelementptr inbounds %"class.assist_ranker::FeatureWeight", %"class.assist_ranker::FeatureWeight"* %0, i64 0, i32 1
  %35 = bitcast %"union.assist_ranker::FeatureWeight::FeatureTypeUnion"* %34 to %"class.assist_ranker::BucketizedWeights"**
  %36 = load %"class.assist_ranker::BucketizedWeights"*, %"class.assist_ranker::BucketizedWeights"** %35, align 8
  %37 = getelementptr inbounds %"class.assist_ranker::BucketizedWeights", %"class.assist_ranker::BucketizedWeights"* %36, i64 0, i32 3, i32 0
  %38 = load i32, i32* %37, align 8
  %39 = zext i32 %38 to i64
  %40 = shl nuw nsw i64 %39, 2
  %41 = icmp eq i32 %38, 0
  %42 = trunc i64 %40 to i32
  br i1 %41, label %54, label %43

43:                                               ; preds = %33
  %44 = icmp slt i32 %42, 0
  br i1 %44, label %54, label %45

45:                                               ; preds = %43
  %46 = or i32 %42, 1
  %47 = tail call i32 @llvm.ctlz.i32(i32 %46, i1 true) #16, !range !24
  %48 = xor i32 %47, 31
  %49 = mul nuw nsw i32 %48, 9
  %50 = add nuw nsw i32 %49, 73
  %51 = lshr i32 %50, 6
  %52 = add nuw nsw i32 %51, 1
  %53 = zext i32 %52 to i64
  br label %54

54:                                               ; preds = %45, %43, %33
  %55 = phi i64 [ %53, %45 ], [ 11, %43 ], [ 0, %33 ]
  %56 = getelementptr inbounds %"class.assist_ranker::BucketizedWeights", %"class.assist_ranker::BucketizedWeights"* %36, i64 0, i32 4, i32 0, i32 0, i32 0, i32 0, i32 0
  store atomic i32 %42, i32* %56 monotonic, align 4
  %57 = add nuw nsw i64 %55, %40
  %58 = getelementptr inbounds %"class.assist_ranker::BucketizedWeights", %"class.assist_ranker::BucketizedWeights"* %36, i64 0, i32 5, i32 0
  %59 = load i32, i32* %58, align 8
  %60 = zext i32 %59 to i64
  %61 = shl nuw nsw i64 %60, 2
  %62 = icmp eq i32 %59, 0
  %63 = trunc i64 %61 to i32
  br i1 %62, label %78, label %64

64:                                               ; preds = %54
  %65 = icmp slt i32 %63, 0
  br i1 %65, label %75, label %66

66:                                               ; preds = %64
  %67 = or i32 %63, 1
  %68 = tail call i32 @llvm.ctlz.i32(i32 %67, i1 true) #16, !range !24
  %69 = xor i32 %68, 31
  %70 = mul nuw nsw i32 %69, 9
  %71 = add nuw nsw i32 %70, 73
  %72 = lshr i32 %71, 6
  %73 = add nuw nsw i32 %72, 1
  %74 = zext i32 %73 to i64
  br label %75

75:                                               ; preds = %66, %64
  %76 = phi i64 [ %74, %66 ], [ 11, %64 ]
  %77 = add nuw nsw i64 %76, %57
  br label %78

78:                                               ; preds = %75, %54
  %79 = phi i64 [ %77, %75 ], [ %57, %54 ]
  %80 = getelementptr inbounds %"class.assist_ranker::BucketizedWeights", %"class.assist_ranker::BucketizedWeights"* %36, i64 0, i32 6, i32 0, i32 0, i32 0, i32 0, i32 0
  store atomic i32 %63, i32* %80 monotonic, align 4
  %81 = add nuw nsw i64 %79, %61
  %82 = getelementptr inbounds %"class.assist_ranker::BucketizedWeights", %"class.assist_ranker::BucketizedWeights"* %36, i64 0, i32 1, i32 0, i64 0
  %83 = load i32, i32* %82, align 4
  %84 = and i32 %83, 1
  %85 = icmp eq i32 %84, 0
  %86 = add nuw nsw i64 %81, 5
  %87 = select i1 %85, i64 %81, i64 %86
  %88 = getelementptr inbounds %"class.assist_ranker::BucketizedWeights", %"class.assist_ranker::BucketizedWeights"* %36, i64 0, i32 0, i32 1
  %89 = bitcast %"class.google::protobuf::internal::InternalMetadata"* %88 to i64*
  %90 = load i64, i64* %89, align 8
  %91 = and i64 %90, 1
  %92 = icmp eq i64 %91, 0
  br i1 %92, label %109, label %93, !prof !2

93:                                               ; preds = %78
  %94 = and i64 %90, -2
  %95 = inttoptr i64 %94 to %"struct.google::protobuf::internal::InternalMetadata::Container"*
  %96 = getelementptr inbounds %"struct.google::protobuf::internal::InternalMetadata::Container", %"struct.google::protobuf::internal::InternalMetadata::Container"* %95, i64 0, i32 1
  %97 = bitcast %"class.std::__1::basic_string"* %96 to %"struct.std::__1::basic_string<char, std::__1::char_traits<char>, std::__1::allocator<char> >::__short"*
  %98 = getelementptr inbounds %"struct.std::__1::basic_string<char, std::__1::char_traits<char>, std::__1::allocator<char> >::__short", %"struct.std::__1::basic_string<char, std::__1::char_traits<char>, std::__1::allocator<char> >::__short"* %97, i64 0, i32 1, i32 0
  %99 = load i8, i8* %98, align 1
  %100 = icmp slt i8 %99, 0
  br i1 %100, label %101, label %104

101:                                              ; preds = %93
  %102 = getelementptr inbounds %"struct.google::protobuf::internal::InternalMetadata::Container", %"struct.google::protobuf::internal::InternalMetadata::Container"* %95, i64 0, i32 1, i32 0, i32 0, i32 0, i32 0, i32 0, i32 1
  %103 = load i64, i64* %102, align 8
  br label %106

104:                                              ; preds = %93
  %105 = zext i8 %99 to i64
  br label %106

106:                                              ; preds = %104, %101
  %107 = phi i64 [ %103, %101 ], [ %105, %104 ]
  %108 = add i64 %107, %87
  br label %109

109:                                              ; preds = %78, %106
  %110 = phi i64 [ %108, %106 ], [ %87, %78 ]
  %111 = trunc i64 %110 to i32
  %112 = getelementptr inbounds %"class.assist_ranker::BucketizedWeights", %"class.assist_ranker::BucketizedWeights"* %36, i64 0, i32 2, i32 0, i32 0, i32 0, i32 0, i32 0, i32 0
  store atomic i32 %111, i32* %112 monotonic, align 4
  %113 = or i32 %111, 1
  %114 = tail call i32 @llvm.ctlz.i32(i32 %113, i1 true) #16, !range !24
  %115 = xor i32 %114, 31
  %116 = mul nuw nsw i32 %115, 9
  %117 = add nuw nsw i32 %116, 73
  %118 = lshr i32 %117, 6
  %119 = zext i32 %118 to i64
  %120 = add i64 %110, 1
  %121 = add i64 %120, %119
  br label %122

122:                                              ; preds = %1, %109, %19, %5, %4
  %123 = phi i64 [ 0, %1 ], [ %121, %109 ], [ %32, %19 ], [ %18, %5 ], [ 5, %4 ]
  %124 = getelementptr inbounds %"class.assist_ranker::FeatureWeight", %"class.assist_ranker::FeatureWeight"* %0, i64 0, i32 0, i32 1
  %125 = bitcast %"class.google::protobuf::internal::InternalMetadata"* %124 to i64*
  %126 = load i64, i64* %125, align 8
  %127 = and i64 %126, 1
  %128 = icmp eq i64 %127, 0
  br i1 %128, label %145, label %129, !prof !2

129:                                              ; preds = %122
  %130 = and i64 %126, -2
  %131 = inttoptr i64 %130 to %"struct.google::protobuf::internal::InternalMetadata::Container"*
  %132 = getelementptr inbounds %"struct.google::protobuf::internal::InternalMetadata::Container", %"struct.google::protobuf::internal::InternalMetadata::Container"* %131, i64 0, i32 1
  %133 = bitcast %"class.std::__1::basic_string"* %132 to %"struct.std::__1::basic_string<char, std::__1::char_traits<char>, std::__1::allocator<char> >::__short"*
  %134 = getelementptr inbounds %"struct.std::__1::basic_string<char, std::__1::char_traits<char>, std::__1::allocator<char> >::__short", %"struct.std::__1::basic_string<char, std::__1::char_traits<char>, std::__1::allocator<char> >::__short"* %133, i64 0, i32 1, i32 0
  %135 = load i8, i8* %134, align 1
  %136 = icmp slt i8 %135, 0
  br i1 %136, label %137, label %140

137:                                              ; preds = %129
  %138 = getelementptr inbounds %"struct.google::protobuf::internal::InternalMetadata::Container", %"struct.google::protobuf::internal::InternalMetadata::Container"* %131, i64 0, i32 1, i32 0, i32 0, i32 0, i32 0, i32 0, i32 1
  %139 = load i64, i64* %138, align 8
  br label %142

140:                                              ; preds = %129
  %141 = zext i8 %135 to i64
  br label %142

142:                                              ; preds = %137, %140
  %143 = phi i64 [ %139, %137 ], [ %141, %140 ]
  %144 = add i64 %143, %123
  br label %145

145:                                              ; preds = %122, %142
  %146 = phi i64 [ %144, %142 ], [ %123, %122 ]
  %147 = trunc i64 %146 to i32
  %148 = getelementptr inbounds %"class.assist_ranker::FeatureWeight", %"class.assist_ranker::FeatureWeight"* %0, i64 0, i32 2, i32 0, i32 0, i32 0, i32 0, i32 0, i32 0
  store atomic i32 %147, i32* %148 monotonic, align 4
  ret i64 %146
}

; Function Attrs: nounwind ssp uwtable
define hidden void @_ZN13assist_ranker13FeatureWeight21CheckTypeAndMergeFromERKN6google8protobuf11MessageLiteE(%"class.assist_ranker::FeatureWeight"*, %"class.google::protobuf::MessageLite"* nocapture readonly dereferenceable(16)) unnamed_addr #0 align 2 {
  %3 = bitcast %"class.google::protobuf::MessageLite"* %1 to %"class.assist_ranker::FeatureWeight"*
  tail call void @_ZN13assist_ranker13FeatureWeight9MergeFromERKS0_(%"class.assist_ranker::FeatureWeight"* %0, %"class.assist_ranker::FeatureWeight"* dereferenceable(32) %3)
  ret void
}

; Function Attrs: nounwind ssp uwtable
define hidden void @_ZN13assist_ranker13FeatureWeight9MergeFromERKS0_(%"class.assist_ranker::FeatureWeight"*, %"class.assist_ranker::FeatureWeight"* nocapture readonly dereferenceable(32)) local_unnamed_addr #0 align 2 {
  %3 = getelementptr inbounds %"class.assist_ranker::FeatureWeight", %"class.assist_ranker::FeatureWeight"* %0, i64 0, i32 0, i32 1
  %4 = getelementptr inbounds %"class.assist_ranker::FeatureWeight", %"class.assist_ranker::FeatureWeight"* %1, i64 0, i32 0, i32 1
  %5 = bitcast %"class.google::protobuf::internal::InternalMetadata"* %4 to i64*
  %6 = load i64, i64* %5, align 8
  %7 = and i64 %6, 1
  %8 = icmp eq i64 %7, 0
  br i1 %8, label %38, label %9

9:                                                ; preds = %2
  %10 = and i64 %6, -2
  %11 = inttoptr i64 %10 to %"struct.google::protobuf::internal::InternalMetadata::Container"*
  %12 = getelementptr inbounds %"struct.google::protobuf::internal::InternalMetadata::Container", %"struct.google::protobuf::internal::InternalMetadata::Container"* %11, i64 0, i32 1
  %13 = bitcast %"class.google::protobuf::internal::InternalMetadata"* %3 to i64*
  %14 = load i64, i64* %13, align 8
  %15 = and i64 %14, 1
  %16 = icmp eq i64 %15, 0
  br i1 %16, label %21, label %17, !prof !4

17:                                               ; preds = %9
  %18 = and i64 %14, -2
  %19 = inttoptr i64 %18 to %"struct.google::protobuf::internal::InternalMetadata::Container"*
  %20 = getelementptr inbounds %"struct.google::protobuf::internal::InternalMetadata::Container", %"struct.google::protobuf::internal::InternalMetadata::Container"* %19, i64 0, i32 1
  br label %23

21:                                               ; preds = %9
  %22 = tail call %"class.std::__1::basic_string"* @_ZN6google8protobuf8internal16InternalMetadata27mutable_unknown_fields_slowINSt3__112basic_stringIcNS4_11char_traitsIcEENS4_9allocatorIcEEEEEEPT_v(%"class.google::protobuf::internal::InternalMetadata"* %3) #16
  br label %23

23:                                               ; preds = %21, %17
  %24 = phi %"class.std::__1::basic_string"* [ %20, %17 ], [ %22, %21 ]
  %25 = bitcast %"class.std::__1::basic_string"* %12 to %"struct.std::__1::basic_string<char, std::__1::char_traits<char>, std::__1::allocator<char> >::__short"*
  %26 = getelementptr inbounds %"struct.std::__1::basic_string<char, std::__1::char_traits<char>, std::__1::allocator<char> >::__short", %"struct.std::__1::basic_string<char, std::__1::char_traits<char>, std::__1::allocator<char> >::__short"* %25, i64 0, i32 1, i32 0
  %27 = load i8, i8* %26, align 1
  %28 = icmp slt i8 %27, 0
  %29 = getelementptr inbounds %"class.std::__1::basic_string", %"class.std::__1::basic_string"* %12, i64 0, i32 0, i32 0, i32 0, i32 0, i32 0, i32 0
  %30 = load i8*, i8** %29, align 8
  %31 = getelementptr inbounds %"struct.google::protobuf::internal::InternalMetadata::Container", %"struct.google::protobuf::internal::InternalMetadata::Container"* %11, i64 0, i32 1, i32 0, i32 0, i32 0, i32 0, i32 0, i32 1
  %32 = load i64, i64* %31, align 8
  %33 = bitcast %"class.std::__1::basic_string"* %12 to i8*
  %34 = zext i8 %27 to i64
  %35 = select i1 %28, i8* %30, i8* %33
  %36 = select i1 %28, i64 %32, i64 %34
  %37 = tail call dereferenceable(24) %"class.std::__1::basic_string"* @_ZNSt3__112basic_stringIcNS_11char_traitsIcEENS_9allocatorIcEEE6appendEPKcm(%"class.std::__1::basic_string"* %24, i8* %35, i64 %36) #16
  br label %38

38:                                               ; preds = %2, %23
  %39 = getelementptr inbounds %"class.assist_ranker::FeatureWeight", %"class.assist_ranker::FeatureWeight"* %1, i64 0, i32 3, i64 0
  %40 = load i32, i32* %39, align 4
  switch i32 %40, label %151 [
    i32 1, label %41
    i32 2, label %52
    i32 3, label %84
    i32 4, label %116
  ]

41:                                               ; preds = %38
  %42 = getelementptr inbounds %"class.assist_ranker::FeatureWeight", %"class.assist_ranker::FeatureWeight"* %1, i64 0, i32 1
  %43 = bitcast %"union.assist_ranker::FeatureWeight::FeatureTypeUnion"* %42 to i32*
  %44 = load i32, i32* %43, align 8
  %45 = getelementptr inbounds %"class.assist_ranker::FeatureWeight", %"class.assist_ranker::FeatureWeight"* %0, i64 0, i32 3, i64 0
  %46 = load i32, i32* %45, align 4
  %47 = icmp eq i32 %46, 1
  br i1 %47, label %49, label %48

48:                                               ; preds = %41
  tail call void @_ZN13assist_ranker13FeatureWeight18clear_feature_typeEv(%"class.assist_ranker::FeatureWeight"* %0) #16
  store i32 1, i32* %45, align 4
  br label %49

49:                                               ; preds = %41, %48
  %50 = getelementptr inbounds %"class.assist_ranker::FeatureWeight", %"class.assist_ranker::FeatureWeight"* %0, i64 0, i32 1
  %51 = bitcast %"union.assist_ranker::FeatureWeight::FeatureTypeUnion"* %50 to i32*
  store i32 %44, i32* %51, align 8
  br label %151

52:                                               ; preds = %38
  %53 = getelementptr inbounds %"class.assist_ranker::FeatureWeight", %"class.assist_ranker::FeatureWeight"* %0, i64 0, i32 3, i64 0
  %54 = load i32, i32* %53, align 4
  %55 = icmp eq i32 %54, 2
  br i1 %55, label %56, label %59

56:                                               ; preds = %52
  %57 = getelementptr inbounds %"class.assist_ranker::FeatureWeight", %"class.assist_ranker::FeatureWeight"* %0, i64 0, i32 1, i32 0
  %58 = load %"class.assist_ranker::SparseWeights"*, %"class.assist_ranker::SparseWeights"** %57, align 8
  br label %77

59:                                               ; preds = %52
  tail call void @_ZN13assist_ranker13FeatureWeight18clear_feature_typeEv(%"class.assist_ranker::FeatureWeight"* %0) #16
  store i32 2, i32* %53, align 4
  %60 = bitcast %"class.google::protobuf::internal::InternalMetadata"* %3 to i64*
  %61 = load i64, i64* %60, align 8
  %62 = and i64 %61, 1
  %63 = icmp eq i64 %62, 0
  %64 = and i64 %61, -2
  br i1 %63, label %69, label %65, !prof !2

65:                                               ; preds = %59
  %66 = inttoptr i64 %64 to %"struct.google::protobuf::internal::InternalMetadata::ContainerBase"*
  %67 = getelementptr inbounds %"struct.google::protobuf::internal::InternalMetadata::ContainerBase", %"struct.google::protobuf::internal::InternalMetadata::ContainerBase"* %66, i64 0, i32 0
  %68 = load %"class.google::protobuf::Arena"*, %"class.google::protobuf::Arena"** %67, align 8
  br label %71

69:                                               ; preds = %59
  %70 = inttoptr i64 %64 to %"class.google::protobuf::Arena"*
  br label %71

71:                                               ; preds = %65, %69
  %72 = phi %"class.google::protobuf::Arena"* [ %68, %65 ], [ %70, %69 ]
  %73 = tail call %"class.assist_ranker::SparseWeights"* @_ZN6google8protobuf5Arena18CreateMaybeMessageIN13assist_ranker13SparseWeightsEJEEEPT_PS1_DpOT0_(%"class.google::protobuf::Arena"* %72) #16
  %74 = getelementptr inbounds %"class.assist_ranker::FeatureWeight", %"class.assist_ranker::FeatureWeight"* %0, i64 0, i32 1, i32 0
  store %"class.assist_ranker::SparseWeights"* %73, %"class.assist_ranker::SparseWeights"** %74, align 8
  %75 = load i32, i32* %39, align 4
  %76 = icmp eq i32 %75, 2
  br i1 %76, label %77, label %81

77:                                               ; preds = %56, %71
  %78 = phi %"class.assist_ranker::SparseWeights"* [ %58, %56 ], [ %73, %71 ]
  %79 = getelementptr inbounds %"class.assist_ranker::FeatureWeight", %"class.assist_ranker::FeatureWeight"* %1, i64 0, i32 1, i32 0
  %80 = load %"class.assist_ranker::SparseWeights"*, %"class.assist_ranker::SparseWeights"** %79, align 8
  br label %81

81:                                               ; preds = %71, %77
  %82 = phi %"class.assist_ranker::SparseWeights"* [ %78, %77 ], [ %73, %71 ]
  %83 = phi %"class.assist_ranker::SparseWeights"* [ %80, %77 ], [ bitcast (%"class.assist_ranker::SparseWeightsDefaultTypeInternal"* @_ZN13assist_ranker32_SparseWeights_default_instance_E to %"class.assist_ranker::SparseWeights"*), %71 ]
  tail call void @_ZN13assist_ranker13SparseWeights9MergeFromERKS0_(%"class.assist_ranker::SparseWeights"* %82, %"class.assist_ranker::SparseWeights"* dereferenceable(80) %83)
  br label %151

84:                                               ; preds = %38
  %85 = getelementptr inbounds %"class.assist_ranker::FeatureWeight", %"class.assist_ranker::FeatureWeight"* %0, i64 0, i32 3, i64 0
  %86 = load i32, i32* %85, align 4
  %87 = icmp eq i32 %86, 3
  br i1 %87, label %88, label %91

88:                                               ; preds = %84
  %89 = getelementptr inbounds %"class.assist_ranker::FeatureWeight", %"class.assist_ranker::FeatureWeight"* %0, i64 0, i32 1, i32 0
  %90 = load %"class.assist_ranker::SparseWeights"*, %"class.assist_ranker::SparseWeights"** %89, align 8
  br label %109

91:                                               ; preds = %84
  tail call void @_ZN13assist_ranker13FeatureWeight18clear_feature_typeEv(%"class.assist_ranker::FeatureWeight"* %0) #16
  store i32 3, i32* %85, align 4
  %92 = bitcast %"class.google::protobuf::internal::InternalMetadata"* %3 to i64*
  %93 = load i64, i64* %92, align 8
  %94 = and i64 %93, 1
  %95 = icmp eq i64 %94, 0
  %96 = and i64 %93, -2
  br i1 %95, label %101, label %97, !prof !2

97:                                               ; preds = %91
  %98 = inttoptr i64 %96 to %"struct.google::protobuf::internal::InternalMetadata::ContainerBase"*
  %99 = getelementptr inbounds %"struct.google::protobuf::internal::InternalMetadata::ContainerBase", %"struct.google::protobuf::internal::InternalMetadata::ContainerBase"* %98, i64 0, i32 0
  %100 = load %"class.google::protobuf::Arena"*, %"class.google::protobuf::Arena"** %99, align 8
  br label %103

101:                                              ; preds = %91
  %102 = inttoptr i64 %96 to %"class.google::protobuf::Arena"*
  br label %103

103:                                              ; preds = %97, %101
  %104 = phi %"class.google::protobuf::Arena"* [ %100, %97 ], [ %102, %101 ]
  %105 = tail call %"class.assist_ranker::SparseWeights"* @_ZN6google8protobuf5Arena18CreateMaybeMessageIN13assist_ranker13SparseWeightsEJEEEPT_PS1_DpOT0_(%"class.google::protobuf::Arena"* %104) #16
  %106 = getelementptr inbounds %"class.assist_ranker::FeatureWeight", %"class.assist_ranker::FeatureWeight"* %0, i64 0, i32 1, i32 0
  store %"class.assist_ranker::SparseWeights"* %105, %"class.assist_ranker::SparseWeights"** %106, align 8
  %107 = load i32, i32* %39, align 4
  %108 = icmp eq i32 %107, 3
  br i1 %108, label %109, label %113

109:                                              ; preds = %88, %103
  %110 = phi %"class.assist_ranker::SparseWeights"* [ %90, %88 ], [ %105, %103 ]
  %111 = getelementptr inbounds %"class.assist_ranker::FeatureWeight", %"class.assist_ranker::FeatureWeight"* %1, i64 0, i32 1, i32 0
  %112 = load %"class.assist_ranker::SparseWeights"*, %"class.assist_ranker::SparseWeights"** %111, align 8
  br label %113

113:                                              ; preds = %103, %109
  %114 = phi %"class.assist_ranker::SparseWeights"* [ %110, %109 ], [ %105, %103 ]
  %115 = phi %"class.assist_ranker::SparseWeights"* [ %112, %109 ], [ bitcast (%"class.assist_ranker::SparseWeightsDefaultTypeInternal"* @_ZN13assist_ranker32_SparseWeights_default_instance_E to %"class.assist_ranker::SparseWeights"*), %103 ]
  tail call void @_ZN13assist_ranker13SparseWeights9MergeFromERKS0_(%"class.assist_ranker::SparseWeights"* %114, %"class.assist_ranker::SparseWeights"* dereferenceable(80) %115)
  br label %151

116:                                              ; preds = %38
  %117 = getelementptr inbounds %"class.assist_ranker::FeatureWeight", %"class.assist_ranker::FeatureWeight"* %0, i64 0, i32 3, i64 0
  %118 = load i32, i32* %117, align 4
  %119 = icmp eq i32 %118, 4
  br i1 %119, label %120, label %124

120:                                              ; preds = %116
  %121 = getelementptr inbounds %"class.assist_ranker::FeatureWeight", %"class.assist_ranker::FeatureWeight"* %0, i64 0, i32 1
  %122 = bitcast %"union.assist_ranker::FeatureWeight::FeatureTypeUnion"* %121 to %"class.assist_ranker::BucketizedWeights"**
  %123 = load %"class.assist_ranker::BucketizedWeights"*, %"class.assist_ranker::BucketizedWeights"** %122, align 8
  br label %143

124:                                              ; preds = %116
  tail call void @_ZN13assist_ranker13FeatureWeight18clear_feature_typeEv(%"class.assist_ranker::FeatureWeight"* %0) #16
  store i32 4, i32* %117, align 4
  %125 = bitcast %"class.google::protobuf::internal::InternalMetadata"* %3 to i64*
  %126 = load i64, i64* %125, align 8
  %127 = and i64 %126, 1
  %128 = icmp eq i64 %127, 0
  %129 = and i64 %126, -2
  br i1 %128, label %134, label %130, !prof !2

130:                                              ; preds = %124
  %131 = inttoptr i64 %129 to %"struct.google::protobuf::internal::InternalMetadata::ContainerBase"*
  %132 = getelementptr inbounds %"struct.google::protobuf::internal::InternalMetadata::ContainerBase", %"struct.google::protobuf::internal::InternalMetadata::ContainerBase"* %131, i64 0, i32 0
  %133 = load %"class.google::protobuf::Arena"*, %"class.google::protobuf::Arena"** %132, align 8
  br label %136

134:                                              ; preds = %124
  %135 = inttoptr i64 %129 to %"class.google::protobuf::Arena"*
  br label %136

136:                                              ; preds = %130, %134
  %137 = phi %"class.google::protobuf::Arena"* [ %133, %130 ], [ %135, %134 ]
  %138 = tail call %"class.assist_ranker::BucketizedWeights"* @_ZN6google8protobuf5Arena18CreateMaybeMessageIN13assist_ranker17BucketizedWeightsEJEEEPT_PS1_DpOT0_(%"class.google::protobuf::Arena"* %137) #16
  %139 = getelementptr inbounds %"class.assist_ranker::FeatureWeight", %"class.assist_ranker::FeatureWeight"* %0, i64 0, i32 1
  %140 = bitcast %"union.assist_ranker::FeatureWeight::FeatureTypeUnion"* %139 to %"class.assist_ranker::BucketizedWeights"**
  store %"class.assist_ranker::BucketizedWeights"* %138, %"class.assist_ranker::BucketizedWeights"** %140, align 8
  %141 = load i32, i32* %39, align 4
  %142 = icmp eq i32 %141, 4
  br i1 %142, label %143, label %148

143:                                              ; preds = %120, %136
  %144 = phi %"class.assist_ranker::BucketizedWeights"* [ %123, %120 ], [ %138, %136 ]
  %145 = getelementptr inbounds %"class.assist_ranker::FeatureWeight", %"class.assist_ranker::FeatureWeight"* %1, i64 0, i32 1
  %146 = bitcast %"union.assist_ranker::FeatureWeight::FeatureTypeUnion"* %145 to %"class.assist_ranker::BucketizedWeights"**
  %147 = load %"class.assist_ranker::BucketizedWeights"*, %"class.assist_ranker::BucketizedWeights"** %146, align 8
  br label %148

148:                                              ; preds = %136, %143
  %149 = phi %"class.assist_ranker::BucketizedWeights"* [ %144, %143 ], [ %138, %136 ]
  %150 = phi %"class.assist_ranker::BucketizedWeights"* [ %147, %143 ], [ bitcast (%"class.assist_ranker::BucketizedWeightsDefaultTypeInternal"* @_ZN13assist_ranker36_BucketizedWeights_default_instance_E to %"class.assist_ranker::BucketizedWeights"*), %136 ]
  tail call void @_ZN13assist_ranker17BucketizedWeights9MergeFromERKS0_(%"class.assist_ranker::BucketizedWeights"* %149, %"class.assist_ranker::BucketizedWeights"* dereferenceable(72) %150)
  br label %151

151:                                              ; preds = %38, %148, %113, %81, %49
  ret void
}

; Function Attrs: nounwind ssp uwtable
define hidden void @_ZN13assist_ranker13FeatureWeight8CopyFromERKS0_(%"class.assist_ranker::FeatureWeight"*, %"class.assist_ranker::FeatureWeight"* readonly dereferenceable(32)) local_unnamed_addr #0 align 2 {
  %3 = icmp eq %"class.assist_ranker::FeatureWeight"* %1, %0
  br i1 %3, label %25, label %4

4:                                                ; preds = %2
  tail call void @_ZN13assist_ranker13FeatureWeight18clear_feature_typeEv(%"class.assist_ranker::FeatureWeight"* %0) #16
  %5 = getelementptr inbounds %"class.assist_ranker::FeatureWeight", %"class.assist_ranker::FeatureWeight"* %0, i64 0, i32 0, i32 1
  %6 = bitcast %"class.google::protobuf::internal::InternalMetadata"* %5 to i64*
  %7 = load i64, i64* %6, align 8
  %8 = and i64 %7, 1
  %9 = icmp eq i64 %8, 0
  br i1 %9, label %24, label %10

10:                                               ; preds = %4
  %11 = and i64 %7, -2
  %12 = inttoptr i64 %11 to %"struct.google::protobuf::internal::InternalMetadata::Container"*
  %13 = getelementptr inbounds %"struct.google::protobuf::internal::InternalMetadata::Container", %"struct.google::protobuf::internal::InternalMetadata::Container"* %12, i64 0, i32 1
  %14 = bitcast %"class.std::__1::basic_string"* %13 to %"struct.std::__1::basic_string<char, std::__1::char_traits<char>, std::__1::allocator<char> >::__short"*
  %15 = getelementptr inbounds %"struct.std::__1::basic_string<char, std::__1::char_traits<char>, std::__1::allocator<char> >::__short", %"struct.std::__1::basic_string<char, std::__1::char_traits<char>, std::__1::allocator<char> >::__short"* %14, i64 0, i32 1, i32 0
  %16 = load i8, i8* %15, align 1
  %17 = icmp slt i8 %16, 0
  br i1 %17, label %18, label %22

18:                                               ; preds = %10
  %19 = getelementptr inbounds %"class.std::__1::basic_string", %"class.std::__1::basic_string"* %13, i64 0, i32 0, i32 0, i32 0, i32 0, i32 0, i32 0
  %20 = load i8*, i8** %19, align 8
  store i8 0, i8* %20, align 1
  %21 = getelementptr inbounds %"struct.google::protobuf::internal::InternalMetadata::Container", %"struct.google::protobuf::internal::InternalMetadata::Container"* %12, i64 0, i32 1, i32 0, i32 0, i32 0, i32 0, i32 0, i32 1
  store i64 0, i64* %21, align 8
  br label %24

22:                                               ; preds = %10
  %23 = bitcast %"class.std::__1::basic_string"* %13 to i8*
  store i8 0, i8* %23, align 2
  store i8 0, i8* %15, align 1
  br label %24

24:                                               ; preds = %4, %18, %22
  tail call void @_ZN13assist_ranker13FeatureWeight9MergeFromERKS0_(%"class.assist_ranker::FeatureWeight"* %0, %"class.assist_ranker::FeatureWeight"* dereferenceable(32) %1)
  br label %25

25:                                               ; preds = %2, %24
  ret void
}

; Function Attrs: norecurse nounwind readnone ssp uwtable
define hidden zeroext i1 @_ZNK13assist_ranker13FeatureWeight13IsInitializedEv(%"class.assist_ranker::FeatureWeight"* nocapture readnone) unnamed_addr #4 align 2 {
  ret i1 true
}

; Function Attrs: nounwind ssp uwtable
define hidden void @_ZN13assist_ranker13FeatureWeight12InternalSwapEPS0_(%"class.assist_ranker::FeatureWeight"*, %"class.assist_ranker::FeatureWeight"*) local_unnamed_addr #0 align 2 {
  %3 = getelementptr inbounds %"class.assist_ranker::FeatureWeight", %"class.assist_ranker::FeatureWeight"* %0, i64 0, i32 0, i32 1
  %4 = getelementptr inbounds %"class.assist_ranker::FeatureWeight", %"class.assist_ranker::FeatureWeight"* %1, i64 0, i32 0, i32 1
  %5 = bitcast %"class.google::protobuf::internal::InternalMetadata"* %3 to i64*
  %6 = load i64, i64* %5, align 8
  %7 = bitcast %"class.google::protobuf::internal::InternalMetadata"* %4 to i64*
  %8 = load i64, i64* %7, align 8
  %9 = or i64 %8, %6
  %10 = and i64 %9, 1
  %11 = icmp eq i64 %10, 0
  br i1 %11, label %43, label %12

12:                                               ; preds = %2
  %13 = and i64 %8, 1
  %14 = icmp eq i64 %13, 0
  br i1 %14, label %19, label %15, !prof !4

15:                                               ; preds = %12
  %16 = and i64 %8, -2
  %17 = inttoptr i64 %16 to %"struct.google::protobuf::internal::InternalMetadata::Container"*
  %18 = getelementptr inbounds %"struct.google::protobuf::internal::InternalMetadata::Container", %"struct.google::protobuf::internal::InternalMetadata::Container"* %17, i64 0, i32 1
  br label %22

19:                                               ; preds = %12
  %20 = tail call %"class.std::__1::basic_string"* @_ZN6google8protobuf8internal16InternalMetadata27mutable_unknown_fields_slowINSt3__112basic_stringIcNS4_11char_traitsIcEENS4_9allocatorIcEEEEEEPT_v(%"class.google::protobuf::internal::InternalMetadata"* %4) #16
  %21 = load i64, i64* %5, align 8
  br label %22

22:                                               ; preds = %19, %15
  %23 = phi i64 [ %6, %15 ], [ %21, %19 ]
  %24 = phi %"class.std::__1::basic_string"* [ %18, %15 ], [ %20, %19 ]
  %25 = and i64 %23, 1
  %26 = icmp eq i64 %25, 0
  br i1 %26, label %31, label %27, !prof !4

27:                                               ; preds = %22
  %28 = and i64 %23, -2
  %29 = inttoptr i64 %28 to %"struct.google::protobuf::internal::InternalMetadata::Container"*
  %30 = getelementptr inbounds %"struct.google::protobuf::internal::InternalMetadata::Container", %"struct.google::protobuf::internal::InternalMetadata::Container"* %29, i64 0, i32 1
  br label %33

31:                                               ; preds = %22
  %32 = tail call %"class.std::__1::basic_string"* @_ZN6google8protobuf8internal16InternalMetadata27mutable_unknown_fields_slowINSt3__112basic_stringIcNS4_11char_traitsIcEENS4_9allocatorIcEEEEEEPT_v(%"class.google::protobuf::internal::InternalMetadata"* %3) #16
  br label %33

33:                                               ; preds = %31, %27
  %34 = phi %"class.std::__1::basic_string"* [ %30, %27 ], [ %32, %31 ]
  %35 = bitcast %"class.std::__1::basic_string"* %34 to <2 x i64>*
  %36 = load <2 x i64>, <2 x i64>* %35, align 8
  %37 = getelementptr inbounds %"class.std::__1::basic_string", %"class.std::__1::basic_string"* %34, i64 0, i32 0, i32 0, i32 0, i32 0, i32 0, i32 2
  %38 = load i64, i64* %37, align 8
  %39 = bitcast %"class.std::__1::basic_string"* %34 to i8*
  %40 = bitcast %"class.std::__1::basic_string"* %24 to i8*
  tail call void @llvm.memcpy.p0i8.p0i8.i64(i8* align 8 %39, i8* align 8 %40, i64 24, i1 false) #16
  %41 = bitcast %"class.std::__1::basic_string"* %24 to <2 x i64>*
  store <2 x i64> %36, <2 x i64>* %41, align 8
  %42 = getelementptr inbounds %"class.std::__1::basic_string", %"class.std::__1::basic_string"* %24, i64 0, i32 0, i32 0, i32 0, i32 0, i32 0, i32 2
  store i64 %38, i64* %42, align 8
  br label %43

43:                                               ; preds = %2, %33
  %44 = getelementptr inbounds %"class.assist_ranker::FeatureWeight", %"class.assist_ranker::FeatureWeight"* %0, i64 0, i32 1
  %45 = getelementptr inbounds %"class.assist_ranker::FeatureWeight", %"class.assist_ranker::FeatureWeight"* %1, i64 0, i32 1
  %46 = bitcast %"union.assist_ranker::FeatureWeight::FeatureTypeUnion"* %44 to i64*
  %47 = load i64, i64* %46, align 8
  %48 = bitcast %"union.assist_ranker::FeatureWeight::FeatureTypeUnion"* %45 to i64*
  %49 = load i64, i64* %48, align 8
  store i64 %49, i64* %46, align 8
  store i64 %47, i64* %48, align 8
  %50 = getelementptr inbounds %"class.assist_ranker::FeatureWeight", %"class.assist_ranker::FeatureWeight"* %0, i64 0, i32 3, i64 0
  %51 = getelementptr inbounds %"class.assist_ranker::FeatureWeight", %"class.assist_ranker::FeatureWeight"* %1, i64 0, i32 3, i64 0
  %52 = load i32, i32* %50, align 4
  %53 = load i32, i32* %51, align 4
  store i32 %53, i32* %50, align 4
  store i32 %52, i32* %51, align 4
  ret void
}

; Function Attrs: nounwind ssp uwtable
define hidden void @_ZNK13assist_ranker13FeatureWeight11GetTypeNameEv(%"class.std::__1::basic_string"* noalias sret, %"class.assist_ranker::FeatureWeight"* nocapture readnone) unnamed_addr #0 align 2 {
  %3 = tail call i8* @_Znwm(i64 32) #17
  %4 = getelementptr inbounds %"class.std::__1::basic_string", %"class.std::__1::basic_string"* %0, i64 0, i32 0, i32 0, i32 0, i32 0, i32 0, i32 0
  store i8* %3, i8** %4, align 8
  %5 = getelementptr inbounds %"class.std::__1::basic_string", %"class.std::__1::basic_string"* %0, i64 0, i32 0, i32 0, i32 0, i32 0, i32 0, i32 1
  %6 = bitcast i64* %5 to <2 x i64>*
  store <2 x i64> <i64 27, i64 -9223372036854775776>, <2 x i64>* %6, align 8
  tail call void @llvm.memcpy.p0i8.p0i8.i64(i8* nonnull align 1 %3, i8* align 1 getelementptr inbounds ([28 x i8], [28 x i8]* @.str.8, i64 0, i64 0), i64 27, i1 false) #16
  %7 = getelementptr inbounds i8, i8* %3, i64 27
  store i8 0, i8* %7, align 1
  ret void
}

; Function Attrs: nofree norecurse nounwind ssp uwtable writeonly
define hidden void @_ZN13assist_ranker52GenericLogisticRegressionModel_WeightsEntry_DoNotUseC2Ev(%"class.assist_ranker::GenericLogisticRegressionModel_WeightsEntry_DoNotUse"* nocapture) unnamed_addr #1 align 2 {
  %2 = getelementptr inbounds %"class.assist_ranker::GenericLogisticRegressionModel_WeightsEntry_DoNotUse", %"class.assist_ranker::GenericLogisticRegressionModel_WeightsEntry_DoNotUse"* %0, i64 0, i32 0, i32 0, i32 0, i32 1, i32 0
  store i8* null, i8** %2, align 8
  %3 = getelementptr inbounds %"class.assist_ranker::GenericLogisticRegressionModel_WeightsEntry_DoNotUse", %"class.assist_ranker::GenericLogisticRegressionModel_WeightsEntry_DoNotUse"* %0, i64 0, i32 0, i32 0, i32 1, i32 0
  store %"class.std::__1::basic_string"* bitcast (%"class.google::protobuf::internal::ExplicitlyConstructed.54"* @_ZN6google8protobuf8internal26fixed_address_empty_stringE to %"class.std::__1::basic_string"*), %"class.std::__1::basic_string"** %3, align 8
  %4 = getelementptr inbounds %"class.assist_ranker::GenericLogisticRegressionModel_WeightsEntry_DoNotUse", %"class.assist_ranker::GenericLogisticRegressionModel_WeightsEntry_DoNotUse"* %0, i64 0, i32 0, i32 0, i32 2
  store %"class.assist_ranker::FeatureWeight"* null, %"class.assist_ranker::FeatureWeight"** %4, align 8
  %5 = getelementptr inbounds %"class.assist_ranker::GenericLogisticRegressionModel_WeightsEntry_DoNotUse", %"class.assist_ranker::GenericLogisticRegressionModel_WeightsEntry_DoNotUse"* %0, i64 0, i32 0, i32 0, i32 3, i64 0
  store i32 0, i32* %5, align 8
  %6 = getelementptr inbounds %"class.assist_ranker::GenericLogisticRegressionModel_WeightsEntry_DoNotUse", %"class.assist_ranker::GenericLogisticRegressionModel_WeightsEntry_DoNotUse"* %0, i64 0, i32 0, i32 0, i32 0, i32 0
  store i32 (...)** bitcast (i8** getelementptr inbounds ({ [18 x i8*] }, { [18 x i8*] }* @_ZTVN13assist_ranker52GenericLogisticRegressionModel_WeightsEntry_DoNotUseE, i64 0, inrange i32 0, i64 2) to i32 (...)**), i32 (...)*** %6, align 8
  ret void
}

; Function Attrs: nofree norecurse nounwind ssp uwtable writeonly
define hidden void @_ZN13assist_ranker52GenericLogisticRegressionModel_WeightsEntry_DoNotUseC2EPN6google8protobuf5ArenaE(%"class.assist_ranker::GenericLogisticRegressionModel_WeightsEntry_DoNotUse"* nocapture, %"class.google::protobuf::Arena"*) unnamed_addr #1 align 2 {
  %3 = getelementptr inbounds %"class.assist_ranker::GenericLogisticRegressionModel_WeightsEntry_DoNotUse", %"class.assist_ranker::GenericLogisticRegressionModel_WeightsEntry_DoNotUse"* %0, i64 0, i32 0, i32 0, i32 0, i32 1
  %4 = bitcast %"class.google::protobuf::internal::InternalMetadata"* %3 to %"class.google::protobuf::Arena"**
  store %"class.google::protobuf::Arena"* %1, %"class.google::protobuf::Arena"** %4, align 8
  %5 = getelementptr inbounds %"class.assist_ranker::GenericLogisticRegressionModel_WeightsEntry_DoNotUse", %"class.assist_ranker::GenericLogisticRegressionModel_WeightsEntry_DoNotUse"* %0, i64 0, i32 0, i32 0, i32 1, i32 0
  store %"class.std::__1::basic_string"* bitcast (%"class.google::protobuf::internal::ExplicitlyConstructed.54"* @_ZN6google8protobuf8internal26fixed_address_empty_stringE to %"class.std::__1::basic_string"*), %"class.std::__1::basic_string"** %5, align 8
  %6 = getelementptr inbounds %"class.assist_ranker::GenericLogisticRegressionModel_WeightsEntry_DoNotUse", %"class.assist_ranker::GenericLogisticRegressionModel_WeightsEntry_DoNotUse"* %0, i64 0, i32 0, i32 0, i32 2
  store %"class.assist_ranker::FeatureWeight"* null, %"class.assist_ranker::FeatureWeight"** %6, align 8
  %7 = getelementptr inbounds %"class.assist_ranker::GenericLogisticRegressionModel_WeightsEntry_DoNotUse", %"class.assist_ranker::GenericLogisticRegressionModel_WeightsEntry_DoNotUse"* %0, i64 0, i32 0, i32 0, i32 3, i64 0
  store i32 0, i32* %7, align 8
  %8 = getelementptr inbounds %"class.assist_ranker::GenericLogisticRegressionModel_WeightsEntry_DoNotUse", %"class.assist_ranker::GenericLogisticRegressionModel_WeightsEntry_DoNotUse"* %0, i64 0, i32 0, i32 0, i32 0, i32 0
  store i32 (...)** bitcast (i8** getelementptr inbounds ({ [18 x i8*] }, { [18 x i8*] }* @_ZTVN13assist_ranker52GenericLogisticRegressionModel_WeightsEntry_DoNotUseE, i64 0, inrange i32 0, i64 2) to i32 (...)**), i32 (...)*** %8, align 8
  ret void
}

; Function Attrs: nounwind ssp uwtable
define hidden void @_ZN13assist_ranker52GenericLogisticRegressionModel_WeightsEntry_DoNotUse9MergeFromERKS0_(%"class.assist_ranker::GenericLogisticRegressionModel_WeightsEntry_DoNotUse"*, %"class.assist_ranker::GenericLogisticRegressionModel_WeightsEntry_DoNotUse"* dereferenceable(40)) local_unnamed_addr #0 align 2 {
  %3 = bitcast %"class.assist_ranker::GenericLogisticRegressionModel_WeightsEntry_DoNotUse"* %0 to %"class.google::protobuf::internal::MapEntryImpl.24"*
  %4 = bitcast %"class.assist_ranker::GenericLogisticRegressionModel_WeightsEntry_DoNotUse"* %1 to %"class.google::protobuf::internal::MapEntryImpl.24"*
  tail call void @_ZN6google8protobuf8internal12MapEntryImplIN13assist_ranker52GenericLogisticRegressionModel_WeightsEntry_DoNotUseENS0_11MessageLiteENSt3__112basic_stringIcNS6_11char_traitsIcEENS6_9allocatorIcEEEENS3_13FeatureWeightELNS1_14WireFormatLite9FieldTypeE9ELSF_11EE17MergeFromInternalERKSG_(%"class.google::protobuf::internal::MapEntryImpl.24"* %3, %"class.google::protobuf::internal::MapEntryImpl.24"* dereferenceable(40) %4)
  ret void
}

; Function Attrs: nounwind ssp uwtable
define linkonce_odr hidden void @_ZN6google8protobuf8internal12MapEntryImplIN13assist_ranker52GenericLogisticRegressionModel_WeightsEntry_DoNotUseENS0_11MessageLiteENSt3__112basic_stringIcNS6_11char_traitsIcEENS6_9allocatorIcEEEENS3_13FeatureWeightELNS1_14WireFormatLite9FieldTypeE9ELSF_11EE17MergeFromInternalERKSG_(%"class.google::protobuf::internal::MapEntryImpl.24"*, %"class.google::protobuf::internal::MapEntryImpl.24"* dereferenceable(40)) local_unnamed_addr #0 comdat align 2 {
  %3 = getelementptr inbounds %"class.google::protobuf::internal::MapEntryImpl.24", %"class.google::protobuf::internal::MapEntryImpl.24"* %1, i64 0, i32 3, i64 0
  %4 = load i32, i32* %3, align 8
  %5 = icmp eq i32 %4, 0
  br i1 %5, label %120, label %6

6:                                                ; preds = %2
  %7 = and i32 %4, 1
  %8 = icmp eq i32 %7, 0
  br i1 %8, label %86, label %9

9:                                                ; preds = %6
  %10 = getelementptr inbounds %"class.google::protobuf::internal::MapEntryImpl.24", %"class.google::protobuf::internal::MapEntryImpl.24"* %0, i64 0, i32 1
  %11 = getelementptr inbounds %"class.google::protobuf::internal::MapEntryImpl.24", %"class.google::protobuf::internal::MapEntryImpl.24"* %0, i64 0, i32 0, i32 1
  %12 = bitcast %"class.google::protobuf::internal::InternalMetadata"* %11 to i64*
  %13 = load i64, i64* %12, align 8
  %14 = and i64 %13, 1
  %15 = icmp eq i64 %14, 0
  %16 = and i64 %13, -2
  br i1 %15, label %21, label %17, !prof !2

17:                                               ; preds = %9
  %18 = inttoptr i64 %16 to %"struct.google::protobuf::internal::InternalMetadata::ContainerBase"*
  %19 = getelementptr inbounds %"struct.google::protobuf::internal::InternalMetadata::ContainerBase", %"struct.google::protobuf::internal::InternalMetadata::ContainerBase"* %18, i64 0, i32 0
  %20 = load %"class.google::protobuf::Arena"*, %"class.google::protobuf::Arena"** %19, align 8
  br label %23

21:                                               ; preds = %9
  %22 = inttoptr i64 %16 to %"class.google::protobuf::Arena"*
  br label %23

23:                                               ; preds = %17, %21
  %24 = phi %"class.google::protobuf::Arena"* [ %20, %17 ], [ %22, %21 ]
  %25 = getelementptr inbounds %"struct.google::protobuf::internal::ArenaStringPtr", %"struct.google::protobuf::internal::ArenaStringPtr"* %10, i64 0, i32 0
  %26 = load %"class.std::__1::basic_string"*, %"class.std::__1::basic_string"** %25, align 8
  %27 = icmp eq %"class.std::__1::basic_string"* %26, bitcast (%"class.google::protobuf::internal::ExplicitlyConstructed.54"* @_ZN6google8protobuf8internal26fixed_address_empty_stringE to %"class.std::__1::basic_string"*)
  br i1 %27, label %28, label %29

28:                                               ; preds = %23
  tail call void @_ZN6google8protobuf8internal14ArenaStringPtr14CreateInstanceEPNS0_5ArenaEPKNSt3__112basic_stringIcNS5_11char_traitsIcEENS5_9allocatorIcEEEE(%"struct.google::protobuf::internal::ArenaStringPtr"* %10, %"class.google::protobuf::Arena"* %24, %"class.std::__1::basic_string"* bitcast (%"class.google::protobuf::internal::ExplicitlyConstructed.54"* @_ZN6google8protobuf8internal26fixed_address_empty_stringE to %"class.std::__1::basic_string"*)) #16
  br label %29

29:                                               ; preds = %23, %28
  %30 = bitcast %"class.google::protobuf::internal::MapEntryImpl.24"* %1 to %"class.std::__1::basic_string"* (%"class.google::protobuf::internal::MapEntryImpl.24"*)***
  %31 = load %"class.std::__1::basic_string"* (%"class.google::protobuf::internal::MapEntryImpl.24"*)**, %"class.std::__1::basic_string"* (%"class.google::protobuf::internal::MapEntryImpl.24"*)*** %30, align 8
  %32 = getelementptr inbounds %"class.std::__1::basic_string"* (%"class.google::protobuf::internal::MapEntryImpl.24"*)*, %"class.std::__1::basic_string"* (%"class.google::protobuf::internal::MapEntryImpl.24"*)** %31, i64 14
  %33 = load %"class.std::__1::basic_string"* (%"class.google::protobuf::internal::MapEntryImpl.24"*)*, %"class.std::__1::basic_string"* (%"class.google::protobuf::internal::MapEntryImpl.24"*)** %32, align 8
  %34 = tail call dereferenceable(24) %"class.std::__1::basic_string"* %33(%"class.google::protobuf::internal::MapEntryImpl.24"* %1) #16
  %35 = load i64, i64* %12, align 8
  %36 = and i64 %35, 1
  %37 = icmp eq i64 %36, 0
  %38 = and i64 %35, -2
  br i1 %37, label %43, label %39, !prof !2

39:                                               ; preds = %29
  %40 = inttoptr i64 %38 to %"struct.google::protobuf::internal::InternalMetadata::ContainerBase"*
  %41 = getelementptr inbounds %"struct.google::protobuf::internal::InternalMetadata::ContainerBase", %"struct.google::protobuf::internal::InternalMetadata::ContainerBase"* %40, i64 0, i32 0
  %42 = load %"class.google::protobuf::Arena"*, %"class.google::protobuf::Arena"** %41, align 8
  br label %45

43:                                               ; preds = %29
  %44 = inttoptr i64 %38 to %"class.google::protobuf::Arena"*
  br label %45

45:                                               ; preds = %39, %43
  %46 = phi %"class.google::protobuf::Arena"* [ %42, %39 ], [ %44, %43 ]
  %47 = load %"class.std::__1::basic_string"*, %"class.std::__1::basic_string"** %25, align 8
  %48 = icmp eq %"class.std::__1::basic_string"* %47, bitcast (%"class.google::protobuf::internal::ExplicitlyConstructed.54"* @_ZN6google8protobuf8internal26fixed_address_empty_stringE to %"class.std::__1::basic_string"*)
  br i1 %48, label %49, label %50

49:                                               ; preds = %45
  tail call void @_ZN6google8protobuf8internal14ArenaStringPtr14CreateInstanceEPNS0_5ArenaEPKNSt3__112basic_stringIcNS5_11char_traitsIcEENS5_9allocatorIcEEEE(%"struct.google::protobuf::internal::ArenaStringPtr"* %10, %"class.google::protobuf::Arena"* %46, %"class.std::__1::basic_string"* %34) #16
  br label %81

50:                                               ; preds = %45
  %51 = icmp eq %"class.std::__1::basic_string"* %47, %34
  br i1 %51, label %81, label %52

52:                                               ; preds = %50
  %53 = bitcast %"class.std::__1::basic_string"* %47 to %"struct.std::__1::basic_string<char, std::__1::char_traits<char>, std::__1::allocator<char> >::__short"*
  %54 = getelementptr inbounds %"struct.std::__1::basic_string<char, std::__1::char_traits<char>, std::__1::allocator<char> >::__short", %"struct.std::__1::basic_string<char, std::__1::char_traits<char>, std::__1::allocator<char> >::__short"* %53, i64 0, i32 1, i32 0
  %55 = load i8, i8* %54, align 1
  %56 = icmp slt i8 %55, 0
  %57 = bitcast %"class.std::__1::basic_string"* %34 to %"struct.std::__1::basic_string<char, std::__1::char_traits<char>, std::__1::allocator<char> >::__short"*
  %58 = getelementptr inbounds %"struct.std::__1::basic_string<char, std::__1::char_traits<char>, std::__1::allocator<char> >::__short", %"struct.std::__1::basic_string<char, std::__1::char_traits<char>, std::__1::allocator<char> >::__short"* %57, i64 0, i32 1, i32 0
  %59 = load i8, i8* %58, align 1
  %60 = icmp slt i8 %59, 0
  br i1 %56, label %71, label %61

61:                                               ; preds = %52
  br i1 %60, label %65, label %62

62:                                               ; preds = %61
  %63 = bitcast %"class.std::__1::basic_string"* %47 to i8*
  %64 = bitcast %"class.std::__1::basic_string"* %34 to i8*
  tail call void @llvm.memcpy.p0i8.p0i8.i64(i8* align 8 %63, i8* align 8 %64, i64 24, i1 false) #16
  br label %81

65:                                               ; preds = %61
  %66 = getelementptr inbounds %"class.std::__1::basic_string", %"class.std::__1::basic_string"* %34, i64 0, i32 0, i32 0, i32 0, i32 0, i32 0, i32 0
  %67 = load i8*, i8** %66, align 8
  %68 = getelementptr inbounds %"class.std::__1::basic_string", %"class.std::__1::basic_string"* %34, i64 0, i32 0, i32 0, i32 0, i32 0, i32 0, i32 1
  %69 = load i64, i64* %68, align 8
  %70 = tail call dereferenceable(24) %"class.std::__1::basic_string"* @_ZNSt3__112basic_stringIcNS_11char_traitsIcEENS_9allocatorIcEEE17__assign_no_aliasILb1EEERS5_PKcm(%"class.std::__1::basic_string"* %47, i8* %67, i64 %69) #16
  br label %81

71:                                               ; preds = %52
  %72 = getelementptr inbounds %"class.std::__1::basic_string", %"class.std::__1::basic_string"* %34, i64 0, i32 0, i32 0, i32 0, i32 0, i32 0, i32 0
  %73 = load i8*, i8** %72, align 8
  %74 = getelementptr inbounds %"class.std::__1::basic_string", %"class.std::__1::basic_string"* %34, i64 0, i32 0, i32 0, i32 0, i32 0, i32 0, i32 1
  %75 = load i64, i64* %74, align 8
  %76 = bitcast %"class.std::__1::basic_string"* %34 to i8*
  %77 = zext i8 %59 to i64
  %78 = select i1 %60, i8* %73, i8* %76
  %79 = select i1 %60, i64 %75, i64 %77
  %80 = tail call dereferenceable(24) %"class.std::__1::basic_string"* @_ZNSt3__112basic_stringIcNS_11char_traitsIcEENS_9allocatorIcEEE17__assign_no_aliasILb0EEERS5_PKcm(%"class.std::__1::basic_string"* %47, i8* %78, i64 %79) #16
  br label %81

81:                                               ; preds = %49, %50, %62, %65, %71
  %82 = getelementptr inbounds %"class.google::protobuf::internal::MapEntryImpl.24", %"class.google::protobuf::internal::MapEntryImpl.24"* %0, i64 0, i32 3, i64 0
  %83 = load i32, i32* %82, align 8
  %84 = or i32 %83, 1
  store i32 %84, i32* %82, align 8
  %85 = load i32, i32* %3, align 8
  br label %86

86:                                               ; preds = %6, %81
  %87 = phi i32 [ %4, %6 ], [ %85, %81 ]
  %88 = and i32 %87, 2
  %89 = icmp eq i32 %88, 0
  br i1 %89, label %120, label %90

90:                                               ; preds = %86
  %91 = getelementptr inbounds %"class.google::protobuf::internal::MapEntryImpl.24", %"class.google::protobuf::internal::MapEntryImpl.24"* %0, i64 0, i32 2
