; ModuleID = '../../ui/events/gestures/gesture_recognizer_impl.cc'
source_filename = "../../ui/events/gestures/gesture_recognizer_impl.cc"
target datalayout = "e-m:e-i64:64-f80:128-n8:16:32:64-S128"
target triple = "x86_64-unknown-linux-gnu"

module asm ".symver exp, exp@GLIBC_2.2.5"
module asm ".symver exp2, exp2@GLIBC_2.2.5"
module asm ".symver exp2f, exp2f@GLIBC_2.2.5"
module asm ".symver expf, expf@GLIBC_2.2.5"
module asm ".symver lgamma, lgamma@GLIBC_2.2.5"
module asm ".symver lgammaf, lgammaf@GLIBC_2.2.5"
module asm ".symver lgammal, lgammal@GLIBC_2.2.5"
module asm ".symver log, log@GLIBC_2.2.5"
module asm ".symver log2, log2@GLIBC_2.2.5"
module asm ".symver log2f, log2f@GLIBC_2.2.5"
module asm ".symver logf, logf@GLIBC_2.2.5"
module asm ".symver pow, pow@GLIBC_2.2.5"
module asm ".symver powf, powf@GLIBC_2.2.5"

%"class.ui::GestureRecognizerImpl" = type { %"class.ui::GestureRecognizer", %"class.ui::GestureProviderAuraClient", %"class.std::__1::map", %"class.std::__1::map.4", %"class.std::__1::map.15", %"class.std::__1::vector" }
%"class.ui::GestureRecognizer" = type { i32 (...)** }
%"class.ui::GestureProviderAuraClient" = type { i32 (...)** }
%"class.std::__1::map" = type { %"class.std::__1::__tree" }
%"class.std::__1::__tree" = type { %"class.std::__1::__tree_end_node"*, %"class.std::__1::__compressed_pair", %"class.std::__1::__compressed_pair.1" }
%"class.std::__1::__tree_end_node" = type { %"class.std::__1::__tree_node_base"* }
%"class.std::__1::__tree_node_base" = type <{ %"class.std::__1::__tree_end_node", %"class.std::__1::__tree_node_base"*, %"class.std::__1::__tree_end_node"*, i8, [7 x i8] }>
%"class.std::__1::__compressed_pair" = type { %"struct.std::__1::__compressed_pair_elem" }
%"struct.std::__1::__compressed_pair_elem" = type { %"class.std::__1::__tree_end_node" }
%"class.std::__1::__compressed_pair.1" = type { %"struct.std::__1::__compressed_pair_elem.2" }
%"struct.std::__1::__compressed_pair_elem.2" = type { i64 }
%"class.std::__1::map.4" = type { %"class.std::__1::__tree.5" }
%"class.std::__1::__tree.5" = type { %"class.std::__1::__tree_end_node"*, %"class.std::__1::__compressed_pair.6", %"class.std::__1::__compressed_pair.10" }
%"class.std::__1::__compressed_pair.6" = type { %"struct.std::__1::__compressed_pair_elem" }
%"class.std::__1::__compressed_pair.10" = type { %"struct.std::__1::__compressed_pair_elem.2" }
%"class.std::__1::map.15" = type { %"class.std::__1::__tree.16" }
%"class.std::__1::__tree.16" = type { %"class.std::__1::__tree_end_node"*, %"class.std::__1::__compressed_pair.17", %"class.std::__1::__compressed_pair.21" }
%"class.std::__1::__compressed_pair.17" = type { %"struct.std::__1::__compressed_pair_elem" }
%"class.std::__1::__compressed_pair.21" = type { %"struct.std::__1::__compressed_pair_elem.2" }
%"class.std::__1::vector" = type { %"class.std::__1::__vector_base" }
%"class.std::__1::__vector_base" = type { %"class.ui::GestureEventHelper"**, %"class.ui::GestureEventHelper"**, %"class.std::__1::__compressed_pair.26" }
%"class.ui::GestureEventHelper" = type { i32 (...)** }
%"class.std::__1::__compressed_pair.26" = type { %"struct.std::__1::__compressed_pair_elem.27" }
%"struct.std::__1::__compressed_pair_elem.27" = type { %"class.ui::GestureEventHelper"** }
%"class.std::__1::__tree_node.162" = type { %"class.std::__1::__tree_node_base.base", %"struct.std::__1::__value_type.163" }
%"class.std::__1::__tree_node_base.base" = type <{ %"class.std::__1::__tree_end_node", %"class.std::__1::__tree_node_base"*, %"class.std::__1::__tree_end_node"*, i8 }>
%"struct.std::__1::__value_type.163" = type { %"struct.std::__1::pair.120" }
%"struct.std::__1::pair.120" = type { i32, %"class.ui::GestureConsumer"* }
%"class.ui::GestureConsumer" = type { i32 (...)** }
%"class.std::__1::__tree_node.160" = type { %"class.std::__1::__tree_node_base.base", %"struct.std::__1::__value_type.161" }
%"struct.std::__1::__value_type.161" = type { %"struct.std::__1::pair.139" }
%"struct.std::__1::pair.139" = type { i32, %"class.ui::GestureProviderAura"* }
%"class.ui::GestureProviderAura" = type { %"class.ui::GestureProviderClient", %"class.ui::GestureProviderAuraClient"*, %"class.ui::MotionEventAura", %"class.ui::FilteredGestureProvider", i8, %"class.std::__1::vector.93", %"class.ui::GestureConsumer"* }
%"class.ui::GestureProviderClient" = type { i32 (...)** }
%"class.ui::MotionEventAura" = type { %"class.ui::MotionEventGeneric" }
%"class.ui::MotionEventGeneric" = type { %"class.ui::MotionEvent", i32, %"class.base::TimeTicks", i32, i32, i32, i32, %"class.base::StackVector", %"class.std::__1::vector.53" }
%"class.ui::MotionEvent" = type { i32 (...)** }
%"class.base::TimeTicks" = type { %"class.base::time_internal::TimeBase" }
%"class.base::time_internal::TimeBase" = type { i64 }
%"class.base::StackVector" = type { %"class.base::StackContainer" }
%"class.base::StackContainer" = type { %"struct.base::StackAllocator<ui::PointerProperties, 5>::Source", %"class.base::StackAllocator", %"class.std::__1::vector.48" }
%"struct.base::StackAllocator<ui::PointerProperties, 5>::Source" = type { [300 x i8], i8, [3 x i8] }
%"class.base::StackAllocator" = type { %"struct.base::StackAllocator<ui::PointerProperties, 5>::Source"* }
%"class.std::__1::vector.48" = type { %"class.std::__1::__vector_base.49" }
%"class.std::__1::__vector_base.49" = type { %"struct.ui::PointerProperties"*, %"struct.ui::PointerProperties"*, %"class.std::__1::__compressed_pair.50" }
%"struct.ui::PointerProperties" = type { i32, i32, float, float, float, float, float, float, float, float, float, float, float, float, i32 }
%"class.std::__1::__compressed_pair.50" = type { %"struct.std::__1::__compressed_pair_elem.51", %"struct.std::__1::__compressed_pair_elem.52" }
%"struct.std::__1::__compressed_pair_elem.51" = type { %"struct.ui::PointerProperties"* }
%"struct.std::__1::__compressed_pair_elem.52" = type { %"class.base::StackAllocator" }
%"class.std::__1::vector.53" = type { %"class.std::__1::__vector_base.54" }
%"class.std::__1::__vector_base.54" = type { %"class.std::__1::unique_ptr.55"*, %"class.std::__1::unique_ptr.55"*, %"class.std::__1::__compressed_pair.61" }
%"class.std::__1::unique_ptr.55" = type { %"class.std::__1::__compressed_pair.56" }
%"class.std::__1::__compressed_pair.56" = type { %"struct.std::__1::__compressed_pair_elem.57" }
%"struct.std::__1::__compressed_pair_elem.57" = type { %"class.ui::MotionEvent"* }
%"class.std::__1::__compressed_pair.61" = type { %"struct.std::__1::__compressed_pair_elem.62" }
%"struct.std::__1::__compressed_pair_elem.62" = type { %"class.std::__1::unique_ptr.55"* }
%"class.ui::FilteredGestureProvider" = type { %"class.ui::TouchDispositionGestureFilterClient", %"class.ui::GestureProviderClient", %"class.ui::GestureProviderClient"*, %"class.std::__1::unique_ptr.66", %"class.ui::TouchDispositionGestureFilter", i8, i8, [6 x i8], %"class.ui::GestureEventDataPacket" }
%"class.ui::TouchDispositionGestureFilterClient" = type { i32 (...)** }
%"class.std::__1::unique_ptr.66" = type { %"class.std::__1::__compressed_pair.67" }
%"class.std::__1::__compressed_pair.67" = type { %"struct.std::__1::__compressed_pair_elem.68" }
%"struct.std::__1::__compressed_pair_elem.68" = type { %"class.ui::GestureProvider"* }
%"class.ui::GestureProvider" = type <{ %"class.std::__1::unique_ptr.69", %"class.std::__1::unique_ptr.55", %"class.ui::GestureTouchUMAHistogram", i8, i8, i8, i8 }>
%"class.std::__1::unique_ptr.69" = type { %"class.std::__1::__compressed_pair.70" }
%"class.std::__1::__compressed_pair.70" = type { %"struct.std::__1::__compressed_pair_elem.71" }
%"struct.std::__1::__compressed_pair_elem.71" = type { %"class.ui::GestureProvider::GestureListenerImpl"* }
%"class.ui::GestureProvider::GestureListenerImpl" = type opaque
%"class.ui::GestureTouchUMAHistogram" = type <{ i32, %"class.gfx::Point", float, i8, [3 x i8] }>
%"class.gfx::Point" = type { i32, i32 }
%"class.ui::TouchDispositionGestureFilter" = type { %"class.ui::TouchDispositionGestureFilterClient"*, %"class.std::__1::queue", %"class.ui::TouchDispositionGestureFilter::GestureHandlingState", i32, i32, i8, i8, i8, i8 }
%"class.std::__1::queue" = type { %"class.base::circular_deque" }
%"class.base::circular_deque" = type { %"class.base::internal::VectorBuffer", i64, i64 }
%"class.base::internal::VectorBuffer" = type { %"class.std::__1::queue.78"*, i64 }
%"class.std::__1::queue.78" = type opaque
%"class.ui::TouchDispositionGestureFilter::GestureHandlingState" = type { i8, i8, %"struct.ui::BitSet32", %"struct.ui::BitSet32" }
%"struct.ui::BitSet32" = type { i32 }
%"class.ui::GestureEventDataPacket" = type <{ %"class.base::TimeTicks", %"class.base::StackVector.79", %"class.gfx::PointF", %"class.gfx::PointF", i32, i32, i32, [4 x i8] }>
%"class.base::StackVector.79" = type { %"class.base::StackContainer.80" }
%"class.base::StackContainer.80" = type { %"struct.base::StackAllocator<ui::GestureEventData, 5>::Source", %"class.base::StackAllocator.81", %"class.std::__1::vector.84" }
%"struct.base::StackAllocator<ui::GestureEventData, 5>::Source" = type { [440 x i8], i8, [7 x i8] }
%"class.base::StackAllocator.81" = type { %"struct.base::StackAllocator<ui::GestureEventData, 5>::Source"* }
%"class.std::__1::vector.84" = type { %"class.std::__1::__vector_base.85" }
%"class.std::__1::__vector_base.85" = type { %"struct.ui::GestureEventData"*, %"struct.ui::GestureEventData"*, %"class.std::__1::__compressed_pair.90" }
%"struct.ui::GestureEventData" = type { %"struct.ui::GestureEventDetails", i32, i32, %"class.base::TimeTicks", float, float, float, float, i32, i32 }
%"struct.ui::GestureEventDetails" = type { i32, %"union.ui::GestureEventDetails::Details", i32, i8, i32, i32, %"class.gfx::RectF" }
%"union.ui::GestureEventDetails::Details" = type { %struct.anon }
%struct.anon = type { float, float, i8 }
%"class.gfx::RectF" = type { %"class.gfx::PointF", %"class.gfx::SizeF" }
%"class.gfx::SizeF" = type { float, float }
%"class.std::__1::__compressed_pair.90" = type { %"struct.std::__1::__compressed_pair_elem.91", %"struct.std::__1::__compressed_pair_elem.92" }
%"struct.std::__1::__compressed_pair_elem.91" = type { %"struct.ui::GestureEventData"* }
%"struct.std::__1::__compressed_pair_elem.92" = type { %"class.base::StackAllocator.81" }
%"class.gfx::PointF" = type { float, float }
%"class.std::__1::vector.93" = type { %"class.std::__1::__vector_base.94" }
%"class.std::__1::__vector_base.94" = type { %"class.std::__1::unique_ptr.95"*, %"class.std::__1::unique_ptr.95"*, %"class.std::__1::__compressed_pair.96" }
%"class.std::__1::unique_ptr.95" = type { %"class.std::__1::__compressed_pair.143" }
%"class.std::__1::__compressed_pair.143" = type { %"struct.std::__1::__compressed_pair_elem.144" }
%"struct.std::__1::__compressed_pair_elem.144" = type { %"class.ui::GestureEvent"* }
%"class.ui::GestureEvent" = type <{ %"class.ui::LocatedEvent", %"struct.ui::GestureEventDetails", i32, [4 x i8] }>
%"class.ui::LocatedEvent" = type { %"class.ui::Event", %"class.gfx::PointF", %"class.gfx::PointF" }
%"class.ui::Event" = type { i32 (...)**, i32, %"class.base::TimeTicks", %"class.ui::LatencyInfo", i32, %"class.ui::Event"*, i8, i8, %"class.ui::EventTarget"*, i32, i32, i32, %"class.std::__1::unique_ptr" }
%"class.ui::LatencyInfo" = type { %"class.base::flat_map", i64, i64, i8, i8, i8, i32, float, float, i64 }
%"class.base::flat_map" = type { %"class.base::internal::flat_tree" }
%"class.base::internal::flat_tree" = type { %"class.std::__1::vector.31" }
%"class.std::__1::vector.31" = type { %"class.std::__1::__vector_base.32" }
%"class.std::__1::__vector_base.32" = type { %"struct.std::__1::pair"*, %"struct.std::__1::pair"*, %"class.std::__1::__compressed_pair.33" }
%"struct.std::__1::pair" = type opaque
%"class.std::__1::__compressed_pair.33" = type { %"struct.std::__1::__compressed_pair_elem.34" }
%"struct.std::__1::__compressed_pair_elem.34" = type { %"struct.std::__1::pair"* }
%"class.ui::EventTarget" = type opaque
%"class.std::__1::unique_ptr" = type { %"class.std::__1::__compressed_pair.38" }
%"class.std::__1::__compressed_pair.38" = type { %"struct.std::__1::__compressed_pair_elem.39" }
%"struct.std::__1::__compressed_pair_elem.39" = type { %"class.base::flat_map.40"* }
%"class.base::flat_map.40" = type opaque
%"class.std::__1::__compressed_pair.96" = type { %"struct.std::__1::__compressed_pair_elem.97" }
%"struct.std::__1::__compressed_pair_elem.97" = type { %"class.std::__1::unique_ptr.95"* }
%"class.std::__1::__tree_node" = type { %"class.std::__1::__tree_node_base.base", %"struct.std::__1::__value_type" }
%"struct.std::__1::__value_type" = type { %"struct.std::__1::pair.42" }
%"struct.std::__1::pair.42" = type { %"class.ui::GestureConsumer"*, %"class.std::__1::unique_ptr.43" }
%"class.std::__1::unique_ptr.43" = type { %"class.std::__1::__compressed_pair.44" }
%"class.std::__1::__compressed_pair.44" = type { %"struct.std::__1::__compressed_pair_elem.45" }
%"struct.std::__1::__compressed_pair_elem.45" = type { %"class.ui::GestureProviderAura"* }
%"class.ui::TouchEvent" = type <{ %"class.ui::LocatedEvent", i32, i8, i8, [2 x i8], %"struct.ui::PointerDetails", [4 x i8] }>
%"struct.ui::PointerDetails" = type { i32, float, float, float, float, float, float, float, i32, %"class.gfx::Vector2d" }
%"class.gfx::Vector2d" = type { i32, i32 }
%"class.gfx::Vector2dF" = type { float, float }
%"class.ui::GestureConfiguration" = type <{ i32 (...)**, float, i8, [3 x i8], i32, i8, i8, [2 x i8], i32, i32, i8, i8, [2 x i8], i32, float, i32, float, float, float, float, float, i32, i32, float, float, float, float, float, float, float, i32, i32, i32, i8, [3 x i8], float, i8, i8, [2 x i8], i32, [4 x i8] }>
%"class.std::__1::vector.104" = type { %"class.std::__1::__vector_base.105" }
%"class.std::__1::__vector_base.105" = type { %"class.ui::GestureConsumer"**, %"class.ui::GestureConsumer"**, %"class.std::__1::__compressed_pair.106" }
%"class.std::__1::__compressed_pair.106" = type { %"struct.std::__1::__compressed_pair_elem.107" }
%"struct.std::__1::__compressed_pair_elem.107" = type { %"class.ui::GestureConsumer"** }
%"class.std::__1::__vector_base_common" = type { i8 }
%"class.std::__1::vector.121" = type { %"class.std::__1::__vector_base.122" }
%"class.std::__1::__vector_base.122" = type { %"class.std::__1::unique_ptr.123"*, %"class.std::__1::unique_ptr.123"*, %"class.std::__1::__compressed_pair.129" }
%"class.std::__1::unique_ptr.123" = type { %"class.std::__1::__compressed_pair.124" }
%"class.std::__1::__compressed_pair.124" = type { %"struct.std::__1::__compressed_pair_elem.125" }
%"struct.std::__1::__compressed_pair_elem.125" = type { %"class.ui::TouchEvent"* }
%"class.std::__1::__compressed_pair.129" = type { %"struct.std::__1::__compressed_pair_elem.130" }
%"struct.std::__1::__compressed_pair_elem.130" = type { %"class.std::__1::unique_ptr.123"* }
%"class.std::__1::vector.111" = type { %"class.std::__1::__vector_base.112" }
%"class.std::__1::__vector_base.112" = type { i32*, i32*, %"class.std::__1::__compressed_pair.113" }
%"class.std::__1::__compressed_pair.113" = type { %"struct.std::__1::__compressed_pair_elem.114" }
%"struct.std::__1::__compressed_pair_elem.114" = type { i32* }

$_ZNSt3__16__treeINS_12__value_typeIPN2ui15GestureConsumerENS_10unique_ptrINS2_19GestureProviderAuraENS_14default_deleteIS6_EEEEEENS_19__map_value_compareIS4_SA_NS_4lessIS4_EELb1EEENS_9allocatorISA_EEE14__erase_uniqueIS4_EEmRKT_ = comdat any

$_ZNSt3__113__tree_removeIPNS_16__tree_node_baseIPvEEEEvT_S5_ = comdat any

$_ZNSt3__127__tree_balance_after_insertIPNS_16__tree_node_baseIPvEEEEvT_S5_ = comdat any

$_ZNSt3__16__treeINS_12__value_typeIPN2ui15GestureConsumerENS_10unique_ptrINS2_19GestureProviderAuraENS_14default_deleteIS6_EEEEEENS_19__map_value_compareIS4_SA_NS_4lessIS4_EELb1EEENS_9allocatorISA_EEE7destroyEPNS_11__tree_nodeISA_PvEE = comdat any

$_ZNSt3__16__treeINS_12__value_typeIjPN2ui19GestureProviderAuraEEENS_19__map_value_compareIjS5_NS_4lessIjEELb1EEENS_9allocatorIS5_EEE7destroyEPNS_11__tree_nodeIS5_PvEE = comdat any

$_ZNSt3__16__treeINS_12__value_typeIiPN2ui15GestureConsumerEEENS_19__map_value_compareIiS5_NS_4lessIiEELb1EEENS_9allocatorIS5_EEE7destroyEPNS_11__tree_nodeIS5_PvEE = comdat any

$_ZNSt3__16vectorINS_10unique_ptrIN2ui10TouchEventENS_14default_deleteIS3_EEEENS_9allocatorIS6_EEE21__push_back_slow_pathIS6_EEvOT_ = comdat any

$_ZNSt3__16__treeINS_12__value_typeIiPN2ui15GestureConsumerEEENS_19__map_value_compareIiS5_NS_4lessIiEELb1EEENS_9allocatorIS5_EEE14__erase_uniqueIiEEmRKT_ = comdat any

@_ZTVN2ui21GestureRecognizerImplE = hidden unnamed_addr constant { [22 x i8*], [5 x i8*] } { [22 x i8*] [i8* null, i8* null, i8* bitcast (void (%"class.ui::GestureRecognizerImpl"*)* @_ZN2ui21GestureRecognizerImplD2Ev to i8*), i8* bitcast (void (%"class.ui::GestureRecognizerImpl"*)* @_ZN2ui21GestureRecognizerImplD0Ev to i8*), i8* bitcast (i1 (%"class.ui::GestureRecognizerImpl"*, %"class.ui::TouchEvent"*, %"class.ui::GestureConsumer"*)* @_ZN2ui21GestureRecognizerImpl28ProcessTouchEventPreDispatchEPNS_10TouchEventEPNS_15GestureConsumerE to i8*), i8* bitcast (void (%"class.std::__1::vector.93"*, %"class.ui::GestureRecognizerImpl"*, i32, i32, i1, %"class.ui::GestureConsumer"*)* @_ZN2ui21GestureRecognizerImpl13AckTouchEventEjNS_11EventResultEbPNS_15GestureConsumerE to i8*), i8* bitcast (i1 (%"class.ui::GestureRecognizerImpl"*, %"class.ui::GestureConsumer"*)* @_ZN2ui21GestureRecognizerImpl23CleanupStateForConsumerEPNS_15GestureConsumerE to i8*), i8* bitcast (%"class.ui::GestureConsumer"* (%"class.ui::GestureRecognizerImpl"*, %"class.ui::TouchEvent"*)* @_ZN2ui21GestureRecognizerImpl20GetTouchLockedTargetERKNS_10TouchEventE to i8*), i8* bitcast (%"class.ui::GestureConsumer"* (%"class.ui::GestureRecognizerImpl"*, %"class.gfx::PointF"*, i32)* @_ZN2ui21GestureRecognizerImpl20GetTargetForLocationERKN3gfx6PointFEi to i8*), i8* bitcast (void (%"class.ui::GestureRecognizerImpl"*, %"class.ui::GestureConsumer"*)* @_ZN2ui21GestureRecognizerImpl25CancelActiveTouchesExceptEPNS_15GestureConsumerE to i8*), i8* bitcast (void (%"class.ui::GestureRecognizerImpl"*, %"class.std::__1::vector.104"*)* @_ZN2ui21GestureRecognizerImpl21CancelActiveTouchesOnERKNSt3__16vectorIPNS_15GestureConsumerENS1_9allocatorIS4_EEEE to i8*), i8* bitcast (void (%"class.ui::GestureRecognizerImpl"*, %"class.ui::GestureConsumer"*, %"class.ui::GestureConsumer"*, i32)* @_ZN2ui21GestureRecognizerImpl16TransferEventsToEPNS_15GestureConsumerES2_NS_23TransferTouchesBehaviorE to i8*), i8* bitcast (void (%"class.std::__1::vector.121"*, %"class.ui::GestureRecognizerImpl"*, %"class.ui::GestureConsumer"*)* @_ZN2ui21GestureRecognizerImpl14ExtractTouchesEPNS_15GestureConsumerE to i8*), i8* bitcast (void (%"class.ui::GestureRecognizerImpl"*, %"class.ui::GestureConsumer"*, %"class.std::__1::vector.121"*)* @_ZN2ui21GestureRecognizerImpl15TransferTouchesEPNS_15GestureConsumerERKNSt3__16vectorINS3_10unique_ptrINS_10TouchEventENS3_14default_deleteIS6_EEEENS3_9allocatorIS9_EEEE to i8*), i8* bitcast (i1 (%"class.ui::GestureRecognizerImpl"*, %"class.ui::GestureConsumer"*, %"class.gfx::PointF"*)* @_ZN2ui21GestureRecognizerImpl26GetLastTouchPointForTargetEPNS_15GestureConsumerEPN3gfx6PointFE to i8*), i8* bitcast (i1 (%"class.ui::GestureRecognizerImpl"*, %"class.ui::GestureConsumer"*)* @_ZN2ui21GestureRecognizerImpl19CancelActiveTouchesEPNS_15GestureConsumerE to i8*), i8* bitcast (void (%"class.ui::GestureRecognizerImpl"*, %"class.ui::GestureEventHelper"*)* @_ZN2ui21GestureRecognizerImpl21AddGestureEventHelperEPNS_18GestureEventHelperE to i8*), i8* bitcast (void (%"class.ui::GestureRecognizerImpl"*, %"class.ui::GestureEventHelper"*)* @_ZN2ui21GestureRecognizerImpl24RemoveGestureEventHelperEPNS_18GestureEventHelperE to i8*), i8* bitcast (i1 (%"class.ui::GestureRecognizerImpl"*, %"class.ui::GestureConsumer"*)* @_ZNK2ui21GestureRecognizerImpl27DoesConsumerHaveActiveTouchEPNS_15GestureConsumerE to i8*), i8* bitcast (void (%"class.ui::GestureRecognizerImpl"*, %"class.ui::GestureConsumer"*)* @_ZN2ui21GestureRecognizerImpl24SendSynthesizedEndEventsEPNS_15GestureConsumerE to i8*), i8* bitcast (%"class.ui::GestureProviderAura"* (%"class.ui::GestureRecognizerImpl"*, %"class.ui::GestureConsumer"*)* @_ZN2ui21GestureRecognizerImpl29GetGestureProviderForConsumerEPNS_15GestureConsumerE to i8*), i8* bitcast (void (%"class.ui::GestureRecognizerImpl"*, %"class.ui::GestureConsumer"*, %"class.ui::GestureEvent"*)* @_ZN2ui21GestureRecognizerImpl14OnGestureEventEPNS_15GestureConsumerEPNS_12GestureEventE to i8*)], [5 x i8*] [i8* inttoptr (i64 -8 to i8*), i8* null, i8* bitcast (void (%"class.ui::GestureRecognizerImpl"*)* @_ZThn8_N2ui21GestureRecognizerImplD1Ev to i8*), i8* bitcast (void (%"class.ui::GestureRecognizerImpl"*)* @_ZThn8_N2ui21GestureRecognizerImplD0Ev to i8*), i8* bitcast (void (%"class.ui::GestureRecognizerImpl"*, %"class.ui::GestureConsumer"*, %"class.ui::GestureEvent"*)* @_ZThn8_N2ui21GestureRecognizerImpl14OnGestureEventEPNS_15GestureConsumerEPNS_12GestureEventE to i8*)] }, align 8

@_ZN2ui21GestureRecognizerImplC1Ev = hidden unnamed_addr alias void (%"class.ui::GestureRecognizerImpl"*), void (%"class.ui::GestureRecognizerImpl"*)* @_ZN2ui21GestureRecognizerImplC2Ev
@_ZN2ui21GestureRecognizerImplD1Ev = hidden unnamed_addr alias void (%"class.ui::GestureRecognizerImpl"*), void (%"class.ui::GestureRecognizerImpl"*)* @_ZN2ui21GestureRecognizerImplD2Ev

; Function Attrs: nounwind ssp uwtable
define hidden void @_ZN2ui21GestureRecognizerImplC2Ev(%"class.ui::GestureRecognizerImpl"*) unnamed_addr #0 align 2 {
  %2 = getelementptr inbounds %"class.ui::GestureRecognizerImpl", %"class.ui::GestureRecognizerImpl"* %0, i64 0, i32 0
  tail call void @_ZN2ui17GestureRecognizerC2Ev(%"class.ui::GestureRecognizer"* %2) #11
  %3 = bitcast %"class.ui::GestureRecognizerImpl"* %0 to <2 x i32 (...)**>*
  store <2 x i32 (...)**> <i32 (...)** bitcast (i8** getelementptr inbounds ({ [22 x i8*], [5 x i8*] }, { [22 x i8*], [5 x i8*] }* @_ZTVN2ui21GestureRecognizerImplE, i64 0, inrange i32 0, i64 2) to i32 (...)**), i32 (...)** bitcast (i8** getelementptr inbounds ({ [22 x i8*], [5 x i8*] }, { [22 x i8*], [5 x i8*] }* @_ZTVN2ui21GestureRecognizerImplE, i64 0, inrange i32 1, i64 2) to i32 (...)**)>, <2 x i32 (...)**>* %3, align 8
  %4 = getelementptr inbounds %"class.ui::GestureRecognizerImpl", %"class.ui::GestureRecognizerImpl"* %0, i64 0, i32 2, i32 0, i32 1, i32 0, i32 0, i32 0
  %5 = getelementptr inbounds %"class.ui::GestureRecognizerImpl", %"class.ui::GestureRecognizerImpl"* %0, i64 0, i32 2, i32 0, i32 1, i32 0, i32 0
  %6 = getelementptr inbounds %"class.ui::GestureRecognizerImpl", %"class.ui::GestureRecognizerImpl"* %0, i64 0, i32 2, i32 0, i32 0
  %7 = bitcast %"class.std::__1::__tree_node_base"** %4 to i8*
  tail call void @llvm.memset.p0i8.i64(i8* align 8 %7, i8 0, i64 16, i1 false) #11
  store %"class.std::__1::__tree_end_node"* %5, %"class.std::__1::__tree_end_node"** %6, align 8
  %8 = getelementptr inbounds %"class.ui::GestureRecognizerImpl", %"class.ui::GestureRecognizerImpl"* %0, i64 0, i32 3, i32 0, i32 1, i32 0, i32 0, i32 0
  %9 = getelementptr inbounds %"class.ui::GestureRecognizerImpl", %"class.ui::GestureRecognizerImpl"* %0, i64 0, i32 3, i32 0, i32 1, i32 0, i32 0
  %10 = getelementptr inbounds %"class.ui::GestureRecognizerImpl", %"class.ui::GestureRecognizerImpl"* %0, i64 0, i32 3, i32 0, i32 0
  %11 = bitcast %"class.std::__1::__tree_node_base"** %8 to i8*
  tail call void @llvm.memset.p0i8.i64(i8* align 8 %11, i8 0, i64 16, i1 false) #11
  store %"class.std::__1::__tree_end_node"* %9, %"class.std::__1::__tree_end_node"** %10, align 8
  %12 = getelementptr inbounds %"class.ui::GestureRecognizerImpl", %"class.ui::GestureRecognizerImpl"* %0, i64 0, i32 4, i32 0, i32 1, i32 0, i32 0, i32 0
  %13 = getelementptr inbounds %"class.ui::GestureRecognizerImpl", %"class.ui::GestureRecognizerImpl"* %0, i64 0, i32 4, i32 0, i32 1, i32 0, i32 0
  %14 = getelementptr inbounds %"class.ui::GestureRecognizerImpl", %"class.ui::GestureRecognizerImpl"* %0, i64 0, i32 4, i32 0, i32 0
  %15 = bitcast %"class.std::__1::__tree_node_base"** %12 to i8*
  tail call void @llvm.memset.p0i8.i64(i8* align 8 %15, i8 0, i64 16, i1 false) #11
  store %"class.std::__1::__tree_end_node"* %13, %"class.std::__1::__tree_end_node"** %14, align 8
  %16 = getelementptr inbounds %"class.ui::GestureRecognizerImpl", %"class.ui::GestureRecognizerImpl"* %0, i64 0, i32 5
  %17 = bitcast %"class.std::__1::vector"* %16 to i8*
  tail call void @llvm.memset.p0i8.i64(i8* align 8 %17, i8 0, i64 24, i1 false) #11
  ret void
}

declare void @_ZN2ui17GestureRecognizerC2Ev(%"class.ui::GestureRecognizer"*) unnamed_addr #1

; Function Attrs: nounwind ssp uwtable
define hidden void @_ZN2ui21GestureRecognizerImplD2Ev(%"class.ui::GestureRecognizerImpl"*) unnamed_addr #0 align 2 {
  %2 = bitcast %"class.ui::GestureRecognizerImpl"* %0 to <2 x i32 (...)**>*
  store <2 x i32 (...)**> <i32 (...)** bitcast (i8** getelementptr inbounds ({ [22 x i8*], [5 x i8*] }, { [22 x i8*], [5 x i8*] }* @_ZTVN2ui21GestureRecognizerImplE, i64 0, inrange i32 0, i64 2) to i32 (...)**), i32 (...)** bitcast (i8** getelementptr inbounds ({ [22 x i8*], [5 x i8*] }, { [22 x i8*], [5 x i8*] }* @_ZTVN2ui21GestureRecognizerImplE, i64 0, inrange i32 1, i64 2) to i32 (...)**)>, <2 x i32 (...)**>* %2, align 8
  %3 = getelementptr inbounds %"class.ui::GestureRecognizerImpl", %"class.ui::GestureRecognizerImpl"* %0, i64 0, i32 5, i32 0, i32 0
  %4 = load %"class.ui::GestureEventHelper"**, %"class.ui::GestureEventHelper"*** %3, align 8
  %5 = icmp eq %"class.ui::GestureEventHelper"** %4, null
  br i1 %5, label %11, label %6

6:                                                ; preds = %1
  %7 = ptrtoint %"class.ui::GestureEventHelper"** %4 to i64
  %8 = getelementptr inbounds %"class.ui::GestureRecognizerImpl", %"class.ui::GestureRecognizerImpl"* %0, i64 0, i32 5, i32 0, i32 1
  %9 = bitcast %"class.ui::GestureEventHelper"*** %8 to i64*
  store i64 %7, i64* %9, align 8
  %10 = bitcast %"class.ui::GestureEventHelper"** %4 to i8*
  tail call void @_ZdlPv(i8* %10) #12
  br label %11

11:                                               ; preds = %1, %6
  %12 = getelementptr inbounds %"class.ui::GestureRecognizerImpl", %"class.ui::GestureRecognizerImpl"* %0, i64 0, i32 4, i32 0
  %13 = getelementptr inbounds %"class.ui::GestureRecognizerImpl", %"class.ui::GestureRecognizerImpl"* %0, i64 0, i32 4, i32 0, i32 1, i32 0, i32 0
  %14 = bitcast %"class.std::__1::__tree_end_node"* %13 to %"class.std::__1::__tree_node.162"**
  %15 = load %"class.std::__1::__tree_node.162"*, %"class.std::__1::__tree_node.162"** %14, align 8
  tail call void @_ZNSt3__16__treeINS_12__value_typeIiPN2ui15GestureConsumerEEENS_19__map_value_compareIiS5_NS_4lessIiEELb1EEENS_9allocatorIS5_EEE7destroyEPNS_11__tree_nodeIS5_PvEE(%"class.std::__1::__tree.16"* %12, %"class.std::__1::__tree_node.162"* %15) #11
  %16 = getelementptr inbounds %"class.ui::GestureRecognizerImpl", %"class.ui::GestureRecognizerImpl"* %0, i64 0, i32 3, i32 0
  %17 = getelementptr inbounds %"class.ui::GestureRecognizerImpl", %"class.ui::GestureRecognizerImpl"* %0, i64 0, i32 3, i32 0, i32 1, i32 0, i32 0
  %18 = bitcast %"class.std::__1::__tree_end_node"* %17 to %"class.std::__1::__tree_node.160"**
  %19 = load %"class.std::__1::__tree_node.160"*, %"class.std::__1::__tree_node.160"** %18, align 8
  tail call void @_ZNSt3__16__treeINS_12__value_typeIjPN2ui19GestureProviderAuraEEENS_19__map_value_compareIjS5_NS_4lessIjEELb1EEENS_9allocatorIS5_EEE7destroyEPNS_11__tree_nodeIS5_PvEE(%"class.std::__1::__tree.5"* %16, %"class.std::__1::__tree_node.160"* %19) #11
  %20 = getelementptr inbounds %"class.ui::GestureRecognizerImpl", %"class.ui::GestureRecognizerImpl"* %0, i64 0, i32 2, i32 0
  %21 = getelementptr inbounds %"class.ui::GestureRecognizerImpl", %"class.ui::GestureRecognizerImpl"* %0, i64 0, i32 2, i32 0, i32 1, i32 0, i32 0
  %22 = bitcast %"class.std::__1::__tree_end_node"* %21 to %"class.std::__1::__tree_node"**
  %23 = load %"class.std::__1::__tree_node"*, %"class.std::__1::__tree_node"** %22, align 8
  tail call void @_ZNSt3__16__treeINS_12__value_typeIPN2ui15GestureConsumerENS_10unique_ptrINS2_19GestureProviderAuraENS_14default_deleteIS6_EEEEEENS_19__map_value_compareIS4_SA_NS_4lessIS4_EELb1EEENS_9allocatorISA_EEE7destroyEPNS_11__tree_nodeISA_PvEE(%"class.std::__1::__tree"* %20, %"class.std::__1::__tree_node"* %23) #11
  %24 = getelementptr inbounds %"class.ui::GestureRecognizerImpl", %"class.ui::GestureRecognizerImpl"* %0, i64 0, i32 0
  tail call void @_ZN2ui17GestureRecognizerD2Ev(%"class.ui::GestureRecognizer"* %24) #11
  ret void
}

; Function Attrs: nounwind
declare void @_ZN2ui17GestureRecognizerD2Ev(%"class.ui::GestureRecognizer"*) unnamed_addr #2

; Function Attrs: nounwind ssp uwtable
define hidden void @_ZThn8_N2ui21GestureRecognizerImplD1Ev(%"class.ui::GestureRecognizerImpl"*) unnamed_addr #0 align 2 {
  %2 = getelementptr inbounds %"class.ui::GestureRecognizerImpl", %"class.ui::GestureRecognizerImpl"* %0, i64 -1, i32 5, i32 0, i32 2
  %3 = bitcast %"class.std::__1::__compressed_pair.26"* %2 to <2 x i32 (...)**>*
  store <2 x i32 (...)**> <i32 (...)** bitcast (i8** getelementptr inbounds ({ [22 x i8*], [5 x i8*] }, { [22 x i8*], [5 x i8*] }* @_ZTVN2ui21GestureRecognizerImplE, i64 0, inrange i32 0, i64 2) to i32 (...)**), i32 (...)** bitcast (i8** getelementptr inbounds ({ [22 x i8*], [5 x i8*] }, { [22 x i8*], [5 x i8*] }* @_ZTVN2ui21GestureRecognizerImplE, i64 0, inrange i32 1, i64 2) to i32 (...)**)>, <2 x i32 (...)**>* %3, align 8
  %4 = getelementptr inbounds %"class.std::__1::__compressed_pair.26", %"class.std::__1::__compressed_pair.26"* %2, i64 11, i32 0, i32 0
  %5 = load %"class.ui::GestureEventHelper"**, %"class.ui::GestureEventHelper"*** %4, align 8
  %6 = icmp eq %"class.ui::GestureEventHelper"** %5, null
  br i1 %6, label %12, label %7

7:                                                ; preds = %1
  %8 = ptrtoint %"class.ui::GestureEventHelper"** %5 to i64
  %9 = getelementptr inbounds %"class.std::__1::__compressed_pair.26", %"class.std::__1::__compressed_pair.26"* %2, i64 12, i32 0, i32 0
  %10 = bitcast %"class.ui::GestureEventHelper"*** %9 to i64*
  store i64 %8, i64* %10, align 8
  %11 = bitcast %"class.ui::GestureEventHelper"** %5 to i8*
  tail call void @_ZdlPv(i8* %11) #12
  br label %12

12:                                               ; preds = %1, %7
  %13 = getelementptr inbounds %"class.std::__1::__compressed_pair.26", %"class.std::__1::__compressed_pair.26"* %2, i64 8
  %14 = bitcast %"class.std::__1::__compressed_pair.26"* %13 to %"class.std::__1::__tree.16"*
  %15 = getelementptr inbounds %"class.std::__1::__compressed_pair.26", %"class.std::__1::__compressed_pair.26"* %2, i64 9
  %16 = bitcast %"class.std::__1::__compressed_pair.26"* %15 to %"class.std::__1::__tree_node.162"**
  %17 = load %"class.std::__1::__tree_node.162"*, %"class.std::__1::__tree_node.162"** %16, align 8
  tail call void @_ZNSt3__16__treeINS_12__value_typeIiPN2ui15GestureConsumerEEENS_19__map_value_compareIiS5_NS_4lessIiEELb1EEENS_9allocatorIS5_EEE7destroyEPNS_11__tree_nodeIS5_PvEE(%"class.std::__1::__tree.16"* %14, %"class.std::__1::__tree_node.162"* %17) #11
  %18 = getelementptr inbounds %"class.std::__1::__compressed_pair.26", %"class.std::__1::__compressed_pair.26"* %2, i64 5
  %19 = bitcast %"class.std::__1::__compressed_pair.26"* %18 to %"class.std::__1::__tree.5"*
  %20 = getelementptr inbounds %"class.std::__1::__compressed_pair.26", %"class.std::__1::__compressed_pair.26"* %2, i64 6
  %21 = bitcast %"class.std::__1::__compressed_pair.26"* %20 to %"class.std::__1::__tree_node.160"**
  %22 = load %"class.std::__1::__tree_node.160"*, %"class.std::__1::__tree_node.160"** %21, align 8
  tail call void @_ZNSt3__16__treeINS_12__value_typeIjPN2ui19GestureProviderAuraEEENS_19__map_value_compareIjS5_NS_4lessIjEELb1EEENS_9allocatorIS5_EEE7destroyEPNS_11__tree_nodeIS5_PvEE(%"class.std::__1::__tree.5"* %19, %"class.std::__1::__tree_node.160"* %22) #11
  %23 = getelementptr inbounds %"class.std::__1::__compressed_pair.26", %"class.std::__1::__compressed_pair.26"* %2, i64 2
  %24 = bitcast %"class.std::__1::__compressed_pair.26"* %23 to %"class.std::__1::__tree"*
  %25 = getelementptr inbounds %"class.std::__1::__compressed_pair.26", %"class.std::__1::__compressed_pair.26"* %2, i64 3
  %26 = bitcast %"class.std::__1::__compressed_pair.26"* %25 to %"class.std::__1::__tree_node"**
  %27 = load %"class.std::__1::__tree_node"*, %"class.std::__1::__tree_node"** %26, align 8
  tail call void @_ZNSt3__16__treeINS_12__value_typeIPN2ui15GestureConsumerENS_10unique_ptrINS2_19GestureProviderAuraENS_14default_deleteIS6_EEEEEENS_19__map_value_compareIS4_SA_NS_4lessIS4_EELb1EEENS_9allocatorISA_EEE7destroyEPNS_11__tree_nodeISA_PvEE(%"class.std::__1::__tree"* %24, %"class.std::__1::__tree_node"* %27) #11
  %28 = bitcast %"class.std::__1::__compressed_pair.26"* %2 to %"class.ui::GestureRecognizer"*
  tail call void @_ZN2ui17GestureRecognizerD2Ev(%"class.ui::GestureRecognizer"* %28) #11
  ret void
}

; Function Attrs: nounwind ssp uwtable
define hidden void @_ZN2ui21GestureRecognizerImplD0Ev(%"class.ui::GestureRecognizerImpl"*) unnamed_addr #0 align 2 {
  %2 = bitcast %"class.ui::GestureRecognizerImpl"* %0 to <2 x i32 (...)**>*
  store <2 x i32 (...)**> <i32 (...)** bitcast (i8** getelementptr inbounds ({ [22 x i8*], [5 x i8*] }, { [22 x i8*], [5 x i8*] }* @_ZTVN2ui21GestureRecognizerImplE, i64 0, inrange i32 0, i64 2) to i32 (...)**), i32 (...)** bitcast (i8** getelementptr inbounds ({ [22 x i8*], [5 x i8*] }, { [22 x i8*], [5 x i8*] }* @_ZTVN2ui21GestureRecognizerImplE, i64 0, inrange i32 1, i64 2) to i32 (...)**)>, <2 x i32 (...)**>* %2, align 8
  %3 = getelementptr inbounds %"class.ui::GestureRecognizerImpl", %"class.ui::GestureRecognizerImpl"* %0, i64 0, i32 5, i32 0, i32 0
  %4 = load %"class.ui::GestureEventHelper"**, %"class.ui::GestureEventHelper"*** %3, align 8
  %5 = icmp eq %"class.ui::GestureEventHelper"** %4, null
  br i1 %5, label %11, label %6

6:                                                ; preds = %1
  %7 = ptrtoint %"class.ui::GestureEventHelper"** %4 to i64
  %8 = getelementptr inbounds %"class.ui::GestureRecognizerImpl", %"class.ui::GestureRecognizerImpl"* %0, i64 0, i32 5, i32 0, i32 1
  %9 = bitcast %"class.ui::GestureEventHelper"*** %8 to i64*
  store i64 %7, i64* %9, align 8
  %10 = bitcast %"class.ui::GestureEventHelper"** %4 to i8*
  tail call void @_ZdlPv(i8* %10) #12
  br label %11

11:                                               ; preds = %1, %6
  %12 = getelementptr inbounds %"class.ui::GestureRecognizerImpl", %"class.ui::GestureRecognizerImpl"* %0, i64 0, i32 4, i32 0
  %13 = getelementptr inbounds %"class.ui::GestureRecognizerImpl", %"class.ui::GestureRecognizerImpl"* %0, i64 0, i32 4, i32 0, i32 1, i32 0, i32 0
  %14 = bitcast %"class.std::__1::__tree_end_node"* %13 to %"class.std::__1::__tree_node.162"**
  %15 = load %"class.std::__1::__tree_node.162"*, %"class.std::__1::__tree_node.162"** %14, align 8
  tail call void @_ZNSt3__16__treeINS_12__value_typeIiPN2ui15GestureConsumerEEENS_19__map_value_compareIiS5_NS_4lessIiEELb1EEENS_9allocatorIS5_EEE7destroyEPNS_11__tree_nodeIS5_PvEE(%"class.std::__1::__tree.16"* %12, %"class.std::__1::__tree_node.162"* %15) #11
  %16 = getelementptr inbounds %"class.ui::GestureRecognizerImpl", %"class.ui::GestureRecognizerImpl"* %0, i64 0, i32 3, i32 0
  %17 = getelementptr inbounds %"class.ui::GestureRecognizerImpl", %"class.ui::GestureRecognizerImpl"* %0, i64 0, i32 3, i32 0, i32 1, i32 0, i32 0
  %18 = bitcast %"class.std::__1::__tree_end_node"* %17 to %"class.std::__1::__tree_node.160"**
  %19 = load %"class.std::__1::__tree_node.160"*, %"class.std::__1::__tree_node.160"** %18, align 8
  tail call void @_ZNSt3__16__treeINS_12__value_typeIjPN2ui19GestureProviderAuraEEENS_19__map_value_compareIjS5_NS_4lessIjEELb1EEENS_9allocatorIS5_EEE7destroyEPNS_11__tree_nodeIS5_PvEE(%"class.std::__1::__tree.5"* %16, %"class.std::__1::__tree_node.160"* %19) #11
  %20 = getelementptr inbounds %"class.ui::GestureRecognizerImpl", %"class.ui::GestureRecognizerImpl"* %0, i64 0, i32 2, i32 0
  %21 = getelementptr inbounds %"class.ui::GestureRecognizerImpl", %"class.ui::GestureRecognizerImpl"* %0, i64 0, i32 2, i32 0, i32 1, i32 0, i32 0
  %22 = bitcast %"class.std::__1::__tree_end_node"* %21 to %"class.std::__1::__tree_node"**
  %23 = load %"class.std::__1::__tree_node"*, %"class.std::__1::__tree_node"** %22, align 8
  tail call void @_ZNSt3__16__treeINS_12__value_typeIPN2ui15GestureConsumerENS_10unique_ptrINS2_19GestureProviderAuraENS_14default_deleteIS6_EEEEEENS_19__map_value_compareIS4_SA_NS_4lessIS4_EELb1EEENS_9allocatorISA_EEE7destroyEPNS_11__tree_nodeISA_PvEE(%"class.std::__1::__tree"* %20, %"class.std::__1::__tree_node"* %23) #11
  %24 = getelementptr inbounds %"class.ui::GestureRecognizerImpl", %"class.ui::GestureRecognizerImpl"* %0, i64 0, i32 0
  tail call void @_ZN2ui17GestureRecognizerD2Ev(%"class.ui::GestureRecognizer"* %24) #11
  %25 = bitcast %"class.ui::GestureRecognizerImpl"* %0 to i8*
  tail call void @_ZdlPv(i8* %25) #12
  ret void
}

; Function Attrs: nobuiltin nounwind
declare void @_ZdlPv(i8*) local_unnamed_addr #3

; Function Attrs: nounwind ssp uwtable
define hidden void @_ZThn8_N2ui21GestureRecognizerImplD0Ev(%"class.ui::GestureRecognizerImpl"*) unnamed_addr #0 align 2 {
  %2 = getelementptr inbounds %"class.ui::GestureRecognizerImpl", %"class.ui::GestureRecognizerImpl"* %0, i64 -1, i32 5, i32 0, i32 2
  %3 = bitcast %"class.std::__1::__compressed_pair.26"* %2 to %"class.ui::GestureRecognizerImpl"*
  tail call void @_ZN2ui21GestureRecognizerImplD0Ev(%"class.ui::GestureRecognizerImpl"* %3) #11
  ret void
}

; Function Attrs: nounwind ssp uwtable
define hidden %"class.ui::GestureConsumer"* @_ZN2ui21GestureRecognizerImpl20GetTouchLockedTargetERKNS_10TouchEventE(%"class.ui::GestureRecognizerImpl"*, %"class.ui::TouchEvent"* nocapture readonly dereferenceable(216)) unnamed_addr #0 align 2 {
  %3 = getelementptr inbounds %"class.ui::GestureRecognizerImpl", %"class.ui::GestureRecognizerImpl"* %0, i64 0, i32 4
  %4 = getelementptr inbounds %"class.ui::TouchEvent", %"class.ui::TouchEvent"* %1, i64 0, i32 5, i32 8
  %5 = getelementptr inbounds %"class.ui::GestureRecognizerImpl", %"class.ui::GestureRecognizerImpl"* %0, i64 0, i32 4, i32 0, i32 1, i32 0, i32 0
  %6 = bitcast %"class.std::__1::__tree_end_node"* %5 to %"class.std::__1::__tree_node.162"**
  %7 = load %"class.std::__1::__tree_node.162"*, %"class.std::__1::__tree_node.162"** %6, align 8
  %8 = icmp eq %"class.std::__1::__tree_node.162"* %7, null
  br i1 %8, label %38, label %9

9:                                                ; preds = %2
  %10 = getelementptr inbounds %"class.ui::GestureRecognizerImpl", %"class.ui::GestureRecognizerImpl"* %0, i64 0, i32 4, i32 0, i32 1, i32 0, i32 0, i32 0
  %11 = load i32, i32* %4, align 4
  br label %12

12:                                               ; preds = %34, %9
  %13 = phi %"class.std::__1::__tree_node.162"* [ %37, %34 ], [ %7, %9 ]
  %14 = phi %"class.std::__1::__tree_node_base"** [ %36, %34 ], [ %10, %9 ]
  %15 = getelementptr inbounds %"class.std::__1::__tree_node.162", %"class.std::__1::__tree_node.162"* %13, i64 0, i32 1, i32 0, i32 0
  %16 = load i32, i32* %15, align 4
  %17 = icmp slt i32 %11, %16
  br i1 %17, label %18, label %24

18:                                               ; preds = %12
  %19 = getelementptr inbounds %"class.std::__1::__tree_node.162", %"class.std::__1::__tree_node.162"* %13, i64 0, i32 0, i32 0, i32 0
  %20 = load %"class.std::__1::__tree_node_base"*, %"class.std::__1::__tree_node_base"** %19, align 8
  %21 = icmp eq %"class.std::__1::__tree_node_base"* %20, null
  br i1 %21, label %22, label %34

22:                                               ; preds = %18
  %23 = getelementptr inbounds %"class.std::__1::__tree_node.162", %"class.std::__1::__tree_node.162"* %13, i64 0, i32 0, i32 0
  br label %40

24:                                               ; preds = %12
  %25 = icmp slt i32 %16, %11
  br i1 %25, label %26, label %32

26:                                               ; preds = %24
  %27 = getelementptr inbounds %"class.std::__1::__tree_node.162", %"class.std::__1::__tree_node.162"* %13, i64 0, i32 0, i32 1
  %28 = load %"class.std::__1::__tree_node_base"*, %"class.std::__1::__tree_node_base"** %27, align 8
  %29 = icmp eq %"class.std::__1::__tree_node_base"* %28, null
  br i1 %29, label %30, label %34

30:                                               ; preds = %26
  %31 = getelementptr inbounds %"class.std::__1::__tree_node.162", %"class.std::__1::__tree_node.162"* %13, i64 0, i32 0, i32 0
  br label %40

32:                                               ; preds = %24
  %33 = getelementptr inbounds %"class.std::__1::__tree_node.162", %"class.std::__1::__tree_node.162"* %13, i64 0, i32 0, i32 0
  br label %40

34:                                               ; preds = %26, %18
  %35 = phi %"class.std::__1::__tree_node_base"* [ %20, %18 ], [ %28, %26 ]
  %36 = phi %"class.std::__1::__tree_node_base"** [ %19, %18 ], [ %27, %26 ]
  %37 = bitcast %"class.std::__1::__tree_node_base"* %35 to %"class.std::__1::__tree_node.162"*
  br label %12

38:                                               ; preds = %2
  %39 = getelementptr inbounds %"class.std::__1::__tree_end_node", %"class.std::__1::__tree_end_node"* %5, i64 0, i32 0
  br label %40

40:                                               ; preds = %38, %32, %30, %22
  %41 = phi %"class.std::__1::__tree_end_node"* [ %5, %38 ], [ %23, %22 ], [ %31, %30 ], [ %33, %32 ]
  %42 = phi %"class.std::__1::__tree_node_base"** [ %39, %38 ], [ %19, %22 ], [ %27, %30 ], [ %14, %32 ]
  %43 = bitcast %"class.std::__1::__tree_node_base"** %42 to %"class.std::__1::__tree_node.162"**
  %44 = load %"class.std::__1::__tree_node.162"*, %"class.std::__1::__tree_node.162"** %43, align 8
  %45 = icmp eq %"class.std::__1::__tree_node.162"* %44, null
  br i1 %45, label %46, label %74

46:                                               ; preds = %40
  %47 = tail call i8* @_Znwm(i64 48) #12, !noalias !2
  %48 = getelementptr inbounds i8, i8* %47, i64 32
  %49 = bitcast i8* %48 to i32*
  %50 = load i32, i32* %4, align 4, !noalias !2
  store i32 %50, i32* %49, align 8, !noalias !2
  %51 = getelementptr inbounds i8, i8* %47, i64 40
  %52 = bitcast i8* %51 to %"class.ui::GestureConsumer"**
  store %"class.ui::GestureConsumer"* null, %"class.ui::GestureConsumer"** %52, align 8, !noalias !2
  %53 = bitcast i8* %47 to %"class.std::__1::__tree_node.162"*
  %54 = bitcast i8* %47 to %"class.std::__1::__tree_node_base"*
  %55 = getelementptr inbounds i8, i8* %47, i64 16
  %56 = bitcast i8* %55 to %"class.std::__1::__tree_end_node"**
  tail call void @llvm.memset.p0i8.i64(i8* nonnull align 8 %47, i8 0, i64 16, i1 false) #11
  store %"class.std::__1::__tree_end_node"* %41, %"class.std::__1::__tree_end_node"** %56, align 8
  %57 = bitcast %"class.std::__1::__tree_node_base"** %42 to i8**
  store i8* %47, i8** %57, align 8
  %58 = getelementptr inbounds %"class.std::__1::map.15", %"class.std::__1::map.15"* %3, i64 0, i32 0, i32 0
  %59 = load %"class.std::__1::__tree_end_node"*, %"class.std::__1::__tree_end_node"** %58, align 8
  %60 = getelementptr inbounds %"class.std::__1::__tree_end_node", %"class.std::__1::__tree_end_node"* %59, i64 0, i32 0
  %61 = load %"class.std::__1::__tree_node_base"*, %"class.std::__1::__tree_node_base"** %60, align 8
  %62 = icmp eq %"class.std::__1::__tree_node_base"* %61, null
  br i1 %62, label %67, label %63

63:                                               ; preds = %46
  %64 = ptrtoint %"class.std::__1::__tree_node_base"* %61 to i64
  %65 = bitcast %"class.std::__1::map.15"* %3 to i64*
  store i64 %64, i64* %65, align 8
  %66 = load %"class.std::__1::__tree_node_base"*, %"class.std::__1::__tree_node_base"** %42, align 8
  br label %67

67:                                               ; preds = %63, %46
  %68 = phi %"class.std::__1::__tree_node_base"* [ %54, %46 ], [ %66, %63 ]
  %69 = getelementptr inbounds %"class.ui::GestureRecognizerImpl", %"class.ui::GestureRecognizerImpl"* %0, i64 0, i32 4, i32 0, i32 1, i32 0, i32 0, i32 0
  %70 = load %"class.std::__1::__tree_node_base"*, %"class.std::__1::__tree_node_base"** %69, align 8
  tail call void @_ZNSt3__127__tree_balance_after_insertIPNS_16__tree_node_baseIPvEEEEvT_S5_(%"class.std::__1::__tree_node_base"* %70, %"class.std::__1::__tree_node_base"* %68) #11
  %71 = getelementptr inbounds %"class.ui::GestureRecognizerImpl", %"class.ui::GestureRecognizerImpl"* %0, i64 0, i32 4, i32 0, i32 2, i32 0, i32 0
  %72 = load i64, i64* %71, align 8
  %73 = add i64 %72, 1
  store i64 %73, i64* %71, align 8
  br label %74

74:                                               ; preds = %40, %67
  %75 = phi %"class.std::__1::__tree_node.162"* [ %53, %67 ], [ %44, %40 ]
  %76 = getelementptr inbounds %"class.std::__1::__tree_node.162", %"class.std::__1::__tree_node.162"* %75, i64 0, i32 1, i32 0, i32 1
  %77 = load %"class.ui::GestureConsumer"*, %"class.ui::GestureConsumer"** %76, align 8
  ret %"class.ui::GestureConsumer"* %77
}

; Function Attrs: nounwind ssp uwtable
define hidden %"class.ui::GestureConsumer"* @_ZN2ui21GestureRecognizerImpl20GetTargetForLocationERKN3gfx6PointFEi(%"class.ui::GestureRecognizerImpl"*, %"class.gfx::PointF"* nocapture readonly dereferenceable(8), i32) unnamed_addr #4 align 2 {
  %4 = alloca <2 x float>, align 8
  %5 = bitcast <2 x float>* %4 to %"class.gfx::Vector2dF"*
  %6 = tail call %"class.ui::GestureConfiguration"* @_ZN2ui20GestureConfiguration11GetInstanceEv() #11
  %7 = getelementptr inbounds %"class.ui::GestureConfiguration", %"class.ui::GestureConfiguration"* %6, i64 0, i32 19
  %8 = load float, float* %7, align 4
  %9 = getelementptr inbounds %"class.ui::GestureRecognizerImpl", %"class.ui::GestureRecognizerImpl"* %0, i64 0, i32 2, i32 0, i32 0
  %10 = load %"class.std::__1::__tree_end_node"*, %"class.std::__1::__tree_end_node"** %9, align 8
  %11 = getelementptr inbounds %"class.ui::GestureRecognizerImpl", %"class.ui::GestureRecognizerImpl"* %0, i64 0, i32 2, i32 0, i32 1, i32 0, i32 0
  %12 = icmp eq %"class.std::__1::__tree_end_node"* %10, %11
  br i1 %12, label %183, label %13

13:                                               ; preds = %3
  %14 = bitcast <2 x float>* %4 to i8*
  %15 = bitcast %"class.gfx::PointF"* %1 to <2 x float>*
  br label %20

16:                                               ; preds = %69
  %17 = fmul float %8, %8
  %18 = fpext float %17 to double
  %19 = fcmp olt double %41, %18
  br i1 %19, label %110, label %183

20:                                               ; preds = %13, %69
  %21 = phi double [ 0x7FF0000000000000, %13 ], [ %41, %69 ]
  %22 = phi %"class.std::__1::__tree_end_node"* [ %10, %13 ], [ %70, %69 ]
  %23 = phi i32 [ 0, %13 ], [ %40, %69 ]
  %24 = getelementptr inbounds %"class.std::__1::__tree_end_node", %"class.std::__1::__tree_end_node"* %22, i64 5
  %25 = bitcast %"class.std::__1::__tree_end_node"* %24 to %"class.ui::GestureProviderAura"**
  %26 = load %"class.ui::GestureProviderAura"*, %"class.ui::GestureProviderAura"** %25, align 8
  %27 = getelementptr inbounds %"class.ui::GestureProviderAura", %"class.ui::GestureProviderAura"* %26, i64 0, i32 2
  %28 = getelementptr inbounds %"class.ui::MotionEventAura", %"class.ui::MotionEventAura"* %27, i64 0, i32 0
  %29 = bitcast %"class.ui::MotionEventAura"* %27 to i64 (%"class.ui::MotionEventGeneric"*)***
  %30 = load i64 (%"class.ui::MotionEventGeneric"*)**, i64 (%"class.ui::MotionEventGeneric"*)*** %29, align 8
  %31 = getelementptr inbounds i64 (%"class.ui::MotionEventGeneric"*)*, i64 (%"class.ui::MotionEventGeneric"*)** %30, i64 5
  %32 = load i64 (%"class.ui::MotionEventGeneric"*)*, i64 (%"class.ui::MotionEventGeneric"*)** %31, align 8
  %33 = call i64 %32(%"class.ui::MotionEventGeneric"* %28) #11
  %34 = icmp eq i64 %33, 0
  br i1 %34, label %39, label %35

35:                                               ; preds = %20
  %36 = bitcast %"class.ui::MotionEventAura"* %27 to i32 (%"class.ui::MotionEventAura"*, i64)***
  %37 = bitcast %"class.ui::MotionEventAura"* %27 to float (%"class.ui::MotionEventGeneric"*, i64)***
  %38 = bitcast %"class.ui::MotionEventAura"* %27 to i32 (%"class.ui::MotionEventGeneric"*, i64)***
  br label %72

39:                                               ; preds = %101, %20
  %40 = phi i32 [ %23, %20 ], [ %102, %101 ]
  %41 = phi double [ %21, %20 ], [ %103, %101 ]
  %42 = getelementptr inbounds %"class.std::__1::__tree_end_node", %"class.std::__1::__tree_end_node"* %22, i64 1, i32 0
  %43 = load %"class.std::__1::__tree_node_base"*, %"class.std::__1::__tree_node_base"** %42, align 8
  %44 = icmp eq %"class.std::__1::__tree_node_base"* %43, null
  br i1 %44, label %45, label %53

45:                                               ; preds = %39
  %46 = bitcast %"class.std::__1::__tree_end_node"* %22 to %"class.std::__1::__tree_node_base"*
  %47 = getelementptr inbounds %"class.std::__1::__tree_end_node", %"class.std::__1::__tree_end_node"* %22, i64 2
  %48 = bitcast %"class.std::__1::__tree_end_node"* %47 to %"class.std::__1::__tree_end_node"**
  %49 = load %"class.std::__1::__tree_end_node"*, %"class.std::__1::__tree_end_node"** %48, align 8
  %50 = getelementptr inbounds %"class.std::__1::__tree_end_node", %"class.std::__1::__tree_end_node"* %49, i64 0, i32 0
  %51 = load %"class.std::__1::__tree_node_base"*, %"class.std::__1::__tree_node_base"** %50, align 8
  %52 = icmp eq %"class.std::__1::__tree_node_base"* %51, %46
  br i1 %52, label %69, label %60

53:                                               ; preds = %39, %53
  %54 = phi %"class.std::__1::__tree_node_base"* [ %56, %53 ], [ %43, %39 ]
  %55 = getelementptr inbounds %"class.std::__1::__tree_node_base", %"class.std::__1::__tree_node_base"* %54, i64 0, i32 0, i32 0
  %56 = load %"class.std::__1::__tree_node_base"*, %"class.std::__1::__tree_node_base"** %55, align 8
  %57 = icmp eq %"class.std::__1::__tree_node_base"* %56, null
  br i1 %57, label %58, label %53

58:                                               ; preds = %53
  %59 = getelementptr inbounds %"class.std::__1::__tree_node_base", %"class.std::__1::__tree_node_base"* %54, i64 0, i32 0
  br label %69

60:                                               ; preds = %45, %60
  %61 = phi %"class.std::__1::__tree_end_node"** [ %64, %60 ], [ %48, %45 ]
  %62 = bitcast %"class.std::__1::__tree_end_node"** %61 to %"class.std::__1::__tree_node_base"**
  %63 = load %"class.std::__1::__tree_node_base"*, %"class.std::__1::__tree_node_base"** %62, align 8
  %64 = getelementptr inbounds %"class.std::__1::__tree_node_base", %"class.std::__1::__tree_node_base"* %63, i64 0, i32 2
  %65 = load %"class.std::__1::__tree_end_node"*, %"class.std::__1::__tree_end_node"** %64, align 8
  %66 = getelementptr inbounds %"class.std::__1::__tree_end_node", %"class.std::__1::__tree_end_node"* %65, i64 0, i32 0
  %67 = load %"class.std::__1::__tree_node_base"*, %"class.std::__1::__tree_node_base"** %66, align 8
  %68 = icmp eq %"class.std::__1::__tree_node_base"* %67, %63
  br i1 %68, label %69, label %60

69:                                               ; preds = %60, %45, %58
  %70 = phi %"class.std::__1::__tree_end_node"* [ %59, %58 ], [ %49, %45 ], [ %65, %60 ]
  %71 = icmp eq %"class.std::__1::__tree_end_node"* %70, %11
  br i1 %71, label %16, label %20

72:                                               ; preds = %35, %101
  %73 = phi i64 [ 0, %35 ], [ %104, %101 ]
  %74 = phi double [ %21, %35 ], [ %103, %101 ]
  %75 = phi i32 [ %23, %35 ], [ %102, %101 ]
  %76 = load i32 (%"class.ui::MotionEventAura"*, i64)**, i32 (%"class.ui::MotionEventAura"*, i64)*** %36, align 8
  %77 = getelementptr inbounds i32 (%"class.ui::MotionEventAura"*, i64)*, i32 (%"class.ui::MotionEventAura"*, i64)** %76, i64 29
  %78 = load i32 (%"class.ui::MotionEventAura"*, i64)*, i32 (%"class.ui::MotionEventAura"*, i64)** %77, align 8
  %79 = call i32 %78(%"class.ui::MotionEventAura"* %27, i64 %73) #11
  %80 = icmp eq i32 %79, %2
  br i1 %80, label %81, label %101

81:                                               ; preds = %72
  %82 = load float (%"class.ui::MotionEventGeneric"*, i64)**, float (%"class.ui::MotionEventGeneric"*, i64)*** %37, align 8
  %83 = getelementptr inbounds float (%"class.ui::MotionEventGeneric"*, i64)*, float (%"class.ui::MotionEventGeneric"*, i64)** %82, i64 7
  %84 = load float (%"class.ui::MotionEventGeneric"*, i64)*, float (%"class.ui::MotionEventGeneric"*, i64)** %83, align 8
  %85 = call float %84(%"class.ui::MotionEventGeneric"* %28, i64 %73) #11
  %86 = load float (%"class.ui::MotionEventGeneric"*, i64)**, float (%"class.ui::MotionEventGeneric"*, i64)*** %37, align 8
  %87 = getelementptr inbounds float (%"class.ui::MotionEventGeneric"*, i64)*, float (%"class.ui::MotionEventGeneric"*, i64)** %86, i64 8
  %88 = load float (%"class.ui::MotionEventGeneric"*, i64)*, float (%"class.ui::MotionEventGeneric"*, i64)** %87, align 8
  %89 = call float %88(%"class.ui::MotionEventGeneric"* %28, i64 %73) #11
  call void @llvm.lifetime.start.p0i8(i64 8, i8* nonnull %14) #11
  %90 = load <2 x float>, <2 x float>* %15, align 4
  %91 = insertelement <2 x float> undef, float %85, i32 0
  %92 = insertelement <2 x float> %91, float %89, i32 1
  %93 = fsub <2 x float> %92, %90
  store <2 x float> %93, <2 x float>* %4, align 8
  %94 = call double @_ZNK3gfx9Vector2dF13LengthSquaredEv(%"class.gfx::Vector2dF"* nonnull %5) #11
  call void @llvm.lifetime.end.p0i8(i64 8, i8* nonnull %14) #11
  %95 = fcmp olt double %94, %74
  br i1 %95, label %96, label %101

96:                                               ; preds = %81
  %97 = load i32 (%"class.ui::MotionEventGeneric"*, i64)**, i32 (%"class.ui::MotionEventGeneric"*, i64)*** %38, align 8
  %98 = getelementptr inbounds i32 (%"class.ui::MotionEventGeneric"*, i64)*, i32 (%"class.ui::MotionEventGeneric"*, i64)** %97, i64 6
  %99 = load i32 (%"class.ui::MotionEventGeneric"*, i64)*, i32 (%"class.ui::MotionEventGeneric"*, i64)** %98, align 8
  %100 = call i32 %99(%"class.ui::MotionEventGeneric"* %28, i64 %73) #11
  br label %101

101:                                              ; preds = %81, %96, %72
  %102 = phi i32 [ %75, %72 ], [ %100, %96 ], [ %75, %81 ]
  %103 = phi double [ %74, %72 ], [ %94, %96 ], [ %74, %81 ]
  %104 = add nuw i64 %73, 1
  %105 = load i64 (%"class.ui::MotionEventGeneric"*)**, i64 (%"class.ui::MotionEventGeneric"*)*** %29, align 8
  %106 = getelementptr inbounds i64 (%"class.ui::MotionEventGeneric"*)*, i64 (%"class.ui::MotionEventGeneric"*)** %105, i64 5
  %107 = load i64 (%"class.ui::MotionEventGeneric"*)*, i64 (%"class.ui::MotionEventGeneric"*)** %106, align 8
  %108 = call i64 %107(%"class.ui::MotionEventGeneric"* %28) #11
  %109 = icmp ult i64 %104, %108
  br i1 %109, label %72, label %39

110:                                              ; preds = %16
  %111 = getelementptr inbounds %"class.ui::GestureRecognizerImpl", %"class.ui::GestureRecognizerImpl"* %0, i64 0, i32 4
  %112 = getelementptr inbounds %"class.ui::GestureRecognizerImpl", %"class.ui::GestureRecognizerImpl"* %0, i64 0, i32 4, i32 0, i32 1, i32 0, i32 0
  %113 = bitcast %"class.std::__1::__tree_end_node"* %112 to %"class.std::__1::__tree_node.162"**
  %114 = load %"class.std::__1::__tree_node.162"*, %"class.std::__1::__tree_node.162"** %113, align 8
  %115 = icmp eq %"class.std::__1::__tree_node.162"* %114, null
  br i1 %115, label %144, label %116

116:                                              ; preds = %110
  %117 = getelementptr inbounds %"class.ui::GestureRecognizerImpl", %"class.ui::GestureRecognizerImpl"* %0, i64 0, i32 4, i32 0, i32 1, i32 0, i32 0, i32 0
  br label %118

118:                                              ; preds = %140, %116
  %119 = phi %"class.std::__1::__tree_node.162"* [ %143, %140 ], [ %114, %116 ]
  %120 = phi %"class.std::__1::__tree_node_base"** [ %142, %140 ], [ %117, %116 ]
  %121 = getelementptr inbounds %"class.std::__1::__tree_node.162", %"class.std::__1::__tree_node.162"* %119, i64 0, i32 1, i32 0, i32 0
  %122 = load i32, i32* %121, align 4
  %123 = icmp slt i32 %40, %122
  br i1 %123, label %124, label %130

124:                                              ; preds = %118
  %125 = getelementptr inbounds %"class.std::__1::__tree_node.162", %"class.std::__1::__tree_node.162"* %119, i64 0, i32 0, i32 0, i32 0
  %126 = load %"class.std::__1::__tree_node_base"*, %"class.std::__1::__tree_node_base"** %125, align 8
  %127 = icmp eq %"class.std::__1::__tree_node_base"* %126, null
  br i1 %127, label %128, label %140

128:                                              ; preds = %124
  %129 = getelementptr inbounds %"class.std::__1::__tree_node.162", %"class.std::__1::__tree_node.162"* %119, i64 0, i32 0, i32 0
  br label %146

130:                                              ; preds = %118
  %131 = icmp slt i32 %122, %40
  br i1 %131, label %132, label %138

132:                                              ; preds = %130
  %133 = getelementptr inbounds %"class.std::__1::__tree_node.162", %"class.std::__1::__tree_node.162"* %119, i64 0, i32 0, i32 1
  %134 = load %"class.std::__1::__tree_node_base"*, %"class.std::__1::__tree_node_base"** %133, align 8
  %135 = icmp eq %"class.std::__1::__tree_node_base"* %134, null
  br i1 %135, label %136, label %140

136:                                              ; preds = %132
  %137 = getelementptr inbounds %"class.std::__1::__tree_node.162", %"class.std::__1::__tree_node.162"* %119, i64 0, i32 0, i32 0
  br label %146

138:                                              ; preds = %130
  %139 = getelementptr inbounds %"class.std::__1::__tree_node.162", %"class.std::__1::__tree_node.162"* %119, i64 0, i32 0, i32 0
  br label %146

140:                                              ; preds = %132, %124
  %141 = phi %"class.std::__1::__tree_node_base"* [ %126, %124 ], [ %134, %132 ]
  %142 = phi %"class.std::__1::__tree_node_base"** [ %125, %124 ], [ %133, %132 ]
  %143 = bitcast %"class.std::__1::__tree_node_base"* %141 to %"class.std::__1::__tree_node.162"*
  br label %118

144:                                              ; preds = %110
  %145 = getelementptr inbounds %"class.std::__1::__tree_end_node", %"class.std::__1::__tree_end_node"* %112, i64 0, i32 0
  br label %146

146:                                              ; preds = %144, %138, %136, %128
  %147 = phi %"class.std::__1::__tree_end_node"* [ %112, %144 ], [ %129, %128 ], [ %137, %136 ], [ %139, %138 ]
  %148 = phi %"class.std::__1::__tree_node_base"** [ %145, %144 ], [ %125, %128 ], [ %133, %136 ], [ %120, %138 ]
  %149 = bitcast %"class.std::__1::__tree_node_base"** %148 to %"class.std::__1::__tree_node.162"**
  %150 = load %"class.std::__1::__tree_node.162"*, %"class.std::__1::__tree_node.162"** %149, align 8
  %151 = icmp eq %"class.std::__1::__tree_node.162"* %150, null
  br i1 %151, label %152, label %179

152:                                              ; preds = %146
  %153 = call i8* @_Znwm(i64 48) #12, !noalias !5
  %154 = getelementptr inbounds i8, i8* %153, i64 32
  %155 = bitcast i8* %154 to i32*
  store i32 %40, i32* %155, align 8, !noalias !5
  %156 = getelementptr inbounds i8, i8* %153, i64 40
  %157 = bitcast i8* %156 to %"class.ui::GestureConsumer"**
  store %"class.ui::GestureConsumer"* null, %"class.ui::GestureConsumer"** %157, align 8, !noalias !5
  %158 = bitcast i8* %153 to %"class.std::__1::__tree_node.162"*
  %159 = bitcast i8* %153 to %"class.std::__1::__tree_node_base"*
  %160 = getelementptr inbounds i8, i8* %153, i64 16
  %161 = bitcast i8* %160 to %"class.std::__1::__tree_end_node"**
  call void @llvm.memset.p0i8.i64(i8* nonnull align 8 %153, i8 0, i64 16, i1 false) #11
  store %"class.std::__1::__tree_end_node"* %147, %"class.std::__1::__tree_end_node"** %161, align 8
  %162 = bitcast %"class.std::__1::__tree_node_base"** %148 to i8**
  store i8* %153, i8** %162, align 8
  %163 = getelementptr inbounds %"class.std::__1::map.15", %"class.std::__1::map.15"* %111, i64 0, i32 0, i32 0
  %164 = load %"class.std::__1::__tree_end_node"*, %"class.std::__1::__tree_end_node"** %163, align 8
  %165 = getelementptr inbounds %"class.std::__1::__tree_end_node", %"class.std::__1::__tree_end_node"* %164, i64 0, i32 0
  %166 = load %"class.std::__1::__tree_node_base"*, %"class.std::__1::__tree_node_base"** %165, align 8
  %167 = icmp eq %"class.std::__1::__tree_node_base"* %166, null
  br i1 %167, label %172, label %168

168:                                              ; preds = %152
  %169 = ptrtoint %"class.std::__1::__tree_node_base"* %166 to i64
  %170 = bitcast %"class.std::__1::map.15"* %111 to i64*
  store i64 %169, i64* %170, align 8
  %171 = load %"class.std::__1::__tree_node_base"*, %"class.std::__1::__tree_node_base"** %148, align 8
  br label %172

172:                                              ; preds = %168, %152
  %173 = phi %"class.std::__1::__tree_node_base"* [ %159, %152 ], [ %171, %168 ]
  %174 = getelementptr inbounds %"class.ui::GestureRecognizerImpl", %"class.ui::GestureRecognizerImpl"* %0, i64 0, i32 4, i32 0, i32 1, i32 0, i32 0, i32 0
  %175 = load %"class.std::__1::__tree_node_base"*, %"class.std::__1::__tree_node_base"** %174, align 8
  call void @_ZNSt3__127__tree_balance_after_insertIPNS_16__tree_node_baseIPvEEEEvT_S5_(%"class.std::__1::__tree_node_base"* %175, %"class.std::__1::__tree_node_base"* %173) #11
  %176 = getelementptr inbounds %"class.ui::GestureRecognizerImpl", %"class.ui::GestureRecognizerImpl"* %0, i64 0, i32 4, i32 0, i32 2, i32 0, i32 0
  %177 = load i64, i64* %176, align 8
  %178 = add i64 %177, 1
  store i64 %178, i64* %176, align 8
  br label %179

179:                                              ; preds = %146, %172
  %180 = phi %"class.std::__1::__tree_node.162"* [ %158, %172 ], [ %150, %146 ]
  %181 = getelementptr inbounds %"class.std::__1::__tree_node.162", %"class.std::__1::__tree_node.162"* %180, i64 0, i32 1, i32 0, i32 1
  %182 = load %"class.ui::GestureConsumer"*, %"class.ui::GestureConsumer"** %181, align 8
  br label %183

183:                                              ; preds = %3, %16, %179
  %184 = phi %"class.ui::GestureConsumer"* [ %182, %179 ], [ null, %16 ], [ null, %3 ]
  ret %"class.ui::GestureConsumer"* %184
}

; Function Attrs: argmemonly nounwind
declare void @llvm.lifetime.start.p0i8(i64 immarg, i8* nocapture) #5

declare %"class.ui::GestureConfiguration"* @_ZN2ui20GestureConfiguration11GetInstanceEv() local_unnamed_addr #1

declare double @_ZNK3gfx9Vector2dF13LengthSquaredEv(%"class.gfx::Vector2dF"*) local_unnamed_addr #1

; Function Attrs: argmemonly nounwind
declare void @llvm.lifetime.end.p0i8(i64 immarg, i8* nocapture) #5

; Function Attrs: argmemonly nounwind
declare void @llvm.memcpy.p0i8.p0i8.i64(i8* nocapture writeonly, i8* nocapture readonly, i64, i1 immarg) #5

; Function Attrs: nounwind ssp uwtable
define hidden void @_ZN2ui21GestureRecognizerImpl25CancelActiveTouchesExceptEPNS_15GestureConsumerE(%"class.ui::GestureRecognizerImpl"*, %"class.ui::GestureConsumer"* readnone) unnamed_addr #0 align 2 {
  tail call void @_ZN2ui21GestureRecognizerImpl29CancelActiveTouchesExceptImplEPNS_15GestureConsumerE(%"class.ui::GestureRecognizerImpl"* %0, %"class.ui::GestureConsumer"* %1)
  ret void
}

; Function Attrs: nounwind ssp uwtable
define hidden void @_ZN2ui21GestureRecognizerImpl29CancelActiveTouchesExceptImplEPNS_15GestureConsumerE(%"class.ui::GestureRecognizerImpl"*, %"class.ui::GestureConsumer"* readnone) local_unnamed_addr #0 align 2 {
  %3 = alloca %"class.std::__1::vector.104", align 8
  %4 = bitcast %"class.std::__1::vector.104"* %3 to i8*
  call void @llvm.lifetime.start.p0i8(i64 24, i8* nonnull %4) #11
  %5 = getelementptr inbounds %"class.std::__1::vector.104", %"class.std::__1::vector.104"* %3, i64 0, i32 0, i32 1
  %6 = getelementptr inbounds %"class.std::__1::vector.104", %"class.std::__1::vector.104"* %3, i64 0, i32 0, i32 2, i32 0, i32 0
  %7 = getelementptr inbounds %"class.ui::GestureRecognizerImpl", %"class.ui::GestureRecognizerImpl"* %0, i64 0, i32 2, i32 0, i32 2, i32 0, i32 0
  %8 = load i64, i64* %7, align 8
  call void @llvm.memset.p0i8.i64(i8* nonnull align 8 %4, i8 0, i64 24, i1 false) #11
  %9 = icmp eq i64 %8, 0
  br i1 %9, label %29, label %10

10:                                               ; preds = %2
  %11 = icmp ugt i64 %8, 2305843009213693951
  br i1 %11, label %12, label %14

12:                                               ; preds = %10
  %13 = bitcast %"class.std::__1::vector.104"* %3 to %"class.std::__1::__vector_base_common"*
  call void @_ZNKSt3__120__vector_base_commonILb1EE20__throw_length_errorEv(%"class.std::__1::__vector_base_common"* nonnull %13) #13
  unreachable

14:                                               ; preds = %10
  %15 = shl i64 %8, 3
  %16 = tail call i8* @_Znwm(i64 %15) #12
  %17 = bitcast i8* %16 to %"class.ui::GestureConsumer"**
  %18 = bitcast %"class.std::__1::vector.104"* %3 to i8**
  store i8* %16, i8** %18, align 8
  %19 = getelementptr inbounds %"class.ui::GestureConsumer"*, %"class.ui::GestureConsumer"** %17, i64 %8
  store %"class.ui::GestureConsumer"** %19, %"class.ui::GestureConsumer"*** %6, align 8
  %20 = bitcast %"class.ui::GestureConsumer"*** %5 to i64*
  %21 = ptrtoint i8* %16 to i64
  %22 = add nsw i64 %8, -1
  %23 = getelementptr %"class.ui::GestureConsumer"*, %"class.ui::GestureConsumer"** %17, i64 %22
  %24 = ptrtoint %"class.ui::GestureConsumer"** %23 to i64
  %25 = sub i64 8, %21
  %26 = add i64 %25, %24
  %27 = and i64 %26, -8
  tail call void @llvm.memset.p0i8.i64(i8* nonnull align 8 %16, i8 0, i64 %27, i1 false) #11
  %28 = ptrtoint %"class.ui::GestureConsumer"** %19 to i64
  store i64 %28, i64* %20, align 8
  br label %29

29:                                               ; preds = %2, %14
  %30 = phi %"class.ui::GestureConsumer"** [ null, %2 ], [ %17, %14 ]
  %31 = phi %"class.ui::GestureConsumer"** [ null, %2 ], [ %19, %14 ]
  %32 = phi i64 [ 0, %2 ], [ %28, %14 ]
  %33 = getelementptr inbounds %"class.ui::GestureRecognizerImpl", %"class.ui::GestureRecognizerImpl"* %0, i64 0, i32 2, i32 0, i32 0
  %34 = load %"class.std::__1::__tree_end_node"*, %"class.std::__1::__tree_end_node"** %33, align 8
  %35 = getelementptr inbounds %"class.ui::GestureRecognizerImpl", %"class.ui::GestureRecognizerImpl"* %0, i64 0, i32 2, i32 0, i32 1, i32 0, i32 0
  %36 = icmp eq %"class.std::__1::__tree_end_node"* %34, %35
  br i1 %36, label %41, label %37

37:                                               ; preds = %29
  %38 = bitcast %"class.ui::GestureConsumer"*** %5 to i64*
  %39 = bitcast %"class.std::__1::vector.104"* %3 to i64*
  %40 = bitcast %"class.ui::GestureConsumer"*** %6 to i64*
  br label %46

41:                                               ; preds = %147, %29
  %42 = phi %"class.ui::GestureConsumer"** [ %30, %29 ], [ %115, %147 ]
  %43 = phi %"class.ui::GestureConsumer"** [ %31, %29 ], [ %116, %147 ]
  %44 = phi %"class.ui::GestureConsumer"** [ %30, %29 ], [ %117, %147 ]
  %45 = icmp eq %"class.ui::GestureConsumer"** %44, %43
  br i1 %45, label %150, label %157

46:                                               ; preds = %37, %147
  %47 = phi %"class.ui::GestureConsumer"** [ %30, %37 ], [ %115, %147 ]
  %48 = phi %"class.ui::GestureConsumer"** [ %31, %37 ], [ %116, %147 ]
  %49 = phi %"class.ui::GestureConsumer"** [ %30, %37 ], [ %117, %147 ]
  %50 = phi i64 [ %32, %37 ], [ %118, %147 ]
  %51 = phi %"class.ui::GestureConsumer"** [ %31, %37 ], [ %119, %147 ]
  %52 = phi %"class.std::__1::__tree_end_node"* [ %34, %37 ], [ %148, %147 ]
  %53 = getelementptr inbounds %"class.std::__1::__tree_end_node", %"class.std::__1::__tree_end_node"* %52, i64 4
  %54 = bitcast %"class.std::__1::__tree_end_node"* %53 to %"class.ui::GestureConsumer"**
  %55 = load %"class.ui::GestureConsumer"*, %"class.ui::GestureConsumer"** %54, align 8
  %56 = icmp eq %"class.ui::GestureConsumer"* %55, %1
  %57 = ptrtoint %"class.ui::GestureConsumer"* %55 to i64
  br i1 %56, label %114, label %58

58:                                               ; preds = %46
  %59 = load %"class.ui::GestureConsumer"**, %"class.ui::GestureConsumer"*** %6, align 8
  %60 = icmp eq %"class.ui::GestureConsumer"** %51, %59
  br i1 %60, label %65, label %61

61:                                               ; preds = %58
  %62 = bitcast %"class.ui::GestureConsumer"** %51 to i64*
  store i64 %57, i64* %62, align 8
  %63 = getelementptr inbounds %"class.ui::GestureConsumer"*, %"class.ui::GestureConsumer"** %51, i64 1
  %64 = ptrtoint %"class.ui::GestureConsumer"** %63 to i64
  store i64 %64, i64* %38, align 8
  br label %114

65:                                               ; preds = %58
  %66 = ptrtoint %"class.ui::GestureConsumer"** %59 to i64
  %67 = load i64, i64* %39, align 8
  %68 = sub i64 %66, %67
  %69 = ashr exact i64 %68, 3
  %70 = add nsw i64 %69, 1
  %71 = icmp ugt i64 %70, 2305843009213693951
  br i1 %71, label %72, label %74

72:                                               ; preds = %65
  %73 = bitcast %"class.std::__1::vector.104"* %3 to %"class.std::__1::__vector_base_common"*
  call void @_ZNKSt3__120__vector_base_commonILb1EE20__throw_length_errorEv(%"class.std::__1::__vector_base_common"* nonnull %73) #13
  unreachable

74:                                               ; preds = %65
  %75 = icmp ult i64 %69, 1152921504606846975
  br i1 %75, label %76, label %84

76:                                               ; preds = %74
  %77 = ashr exact i64 %68, 2
  %78 = icmp ult i64 %77, %70
  %79 = select i1 %78, i64 %70, i64 %77
  %80 = icmp eq i64 %79, 0
  br i1 %80, label %91, label %81

81:                                               ; preds = %76
  %82 = icmp ugt i64 %79, 2305843009213693951
  br i1 %82, label %83, label %84

83:                                               ; preds = %81
  tail call void @abort() #13
  unreachable

84:                                               ; preds = %81, %74
  %85 = phi i64 [ %79, %81 ], [ 2305843009213693951, %74 ]
  %86 = shl i64 %85, 3
  %87 = tail call i8* @_Znwm(i64 %86) #12
  %88 = bitcast i8* %87 to %"class.ui::GestureConsumer"**
  %89 = bitcast %"class.std::__1::__tree_end_node"* %53 to i64*
  %90 = load i64, i64* %89, align 8
  br label %91

91:                                               ; preds = %76, %84
  %92 = phi i64 [ %90, %84 ], [ %57, %76 ]
  %93 = phi i64 [ %85, %84 ], [ 0, %76 ]
  %94 = phi %"class.ui::GestureConsumer"** [ %88, %84 ], [ null, %76 ]
  %95 = getelementptr inbounds %"class.ui::GestureConsumer"*, %"class.ui::GestureConsumer"** %94, i64 %69
  %96 = getelementptr inbounds %"class.ui::GestureConsumer"*, %"class.ui::GestureConsumer"** %94, i64 %93
  %97 = ptrtoint %"class.ui::GestureConsumer"** %96 to i64
  %98 = bitcast %"class.ui::GestureConsumer"** %95 to i64*
  store i64 %92, i64* %98, align 8
  %99 = getelementptr inbounds %"class.ui::GestureConsumer"*, %"class.ui::GestureConsumer"** %95, i64 1
  %100 = ptrtoint %"class.ui::GestureConsumer"** %99 to i64
  %101 = sub i64 %50, %67
  %102 = ashr exact i64 %101, 3
  %103 = sub nsw i64 0, %102
  %104 = getelementptr inbounds %"class.ui::GestureConsumer"*, %"class.ui::GestureConsumer"** %95, i64 %103
  %105 = ptrtoint %"class.ui::GestureConsumer"** %104 to i64
  %106 = icmp sgt i64 %101, 0
  br i1 %106, label %107, label %110

107:                                              ; preds = %91
  %108 = bitcast %"class.ui::GestureConsumer"** %104 to i8*
  %109 = inttoptr i64 %67 to i8*
  tail call void @llvm.memcpy.p0i8.p0i8.i64(i8* align 8 %108, i8* align 8 %109, i64 %101, i1 false) #11
  br label %110

110:                                              ; preds = %107, %91
  store i64 %105, i64* %39, align 8
  store i64 %100, i64* %38, align 8
  store i64 %97, i64* %40, align 8
  %111 = icmp eq i64 %67, 0
  br i1 %111, label %114, label %112

112:                                              ; preds = %110
  %113 = inttoptr i64 %67 to i8*
  tail call void @_ZdlPv(i8* %113) #12
  br label %114

114:                                              ; preds = %112, %110, %61, %46
  %115 = phi %"class.ui::GestureConsumer"** [ %104, %112 ], [ %104, %110 ], [ %47, %61 ], [ %47, %46 ]
  %116 = phi %"class.ui::GestureConsumer"** [ %99, %112 ], [ %99, %110 ], [ %63, %61 ], [ %48, %46 ]
  %117 = phi %"class.ui::GestureConsumer"** [ %104, %112 ], [ %104, %110 ], [ %49, %61 ], [ %49, %46 ]
  %118 = phi i64 [ %100, %112 ], [ %100, %110 ], [ %64, %61 ], [ %50, %46 ]
  %119 = phi %"class.ui::GestureConsumer"** [ %99, %112 ], [ %99, %110 ], [ %63, %61 ], [ %51, %46 ]
  %120 = getelementptr inbounds %"class.std::__1::__tree_end_node", %"class.std::__1::__tree_end_node"* %52, i64 1, i32 0
  %121 = load %"class.std::__1::__tree_node_base"*, %"class.std::__1::__tree_node_base"** %120, align 8
  %122 = icmp eq %"class.std::__1::__tree_node_base"* %121, null
  br i1 %122, label %123, label %131

123:                                              ; preds = %114
  %124 = bitcast %"class.std::__1::__tree_end_node"* %52 to %"class.std::__1::__tree_node_base"*
  %125 = getelementptr inbounds %"class.std::__1::__tree_end_node", %"class.std::__1::__tree_end_node"* %52, i64 2
  %126 = bitcast %"class.std::__1::__tree_end_node"* %125 to %"class.std::__1::__tree_end_node"**
  %127 = load %"class.std::__1::__tree_end_node"*, %"class.std::__1::__tree_end_node"** %126, align 8
  %128 = getelementptr inbounds %"class.std::__1::__tree_end_node", %"class.std::__1::__tree_end_node"* %127, i64 0, i32 0
  %129 = load %"class.std::__1::__tree_node_base"*, %"class.std::__1::__tree_node_base"** %128, align 8
  %130 = icmp eq %"class.std::__1::__tree_node_base"* %129, %124
  br i1 %130, label %147, label %138

131:                                              ; preds = %114, %131
  %132 = phi %"class.std::__1::__tree_node_base"* [ %134, %131 ], [ %121, %114 ]
  %133 = getelementptr inbounds %"class.std::__1::__tree_node_base", %"class.std::__1::__tree_node_base"* %132, i64 0, i32 0, i32 0
  %134 = load %"class.std::__1::__tree_node_base"*, %"class.std::__1::__tree_node_base"** %133, align 8
  %135 = icmp eq %"class.std::__1::__tree_node_base"* %134, null
  br i1 %135, label %136, label %131

136:                                              ; preds = %131
  %137 = getelementptr inbounds %"class.std::__1::__tree_node_base", %"class.std::__1::__tree_node_base"* %132, i64 0, i32 0
  br label %147

138:                                              ; preds = %123, %138
  %139 = phi %"class.std::__1::__tree_end_node"** [ %142, %138 ], [ %126, %123 ]
  %140 = bitcast %"class.std::__1::__tree_end_node"** %139 to %"class.std::__1::__tree_node_base"**
  %141 = load %"class.std::__1::__tree_node_base"*, %"class.std::__1::__tree_node_base"** %140, align 8
  %142 = getelementptr inbounds %"class.std::__1::__tree_node_base", %"class.std::__1::__tree_node_base"* %141, i64 0, i32 2
  %143 = load %"class.std::__1::__tree_end_node"*, %"class.std::__1::__tree_end_node"** %142, align 8
  %144 = getelementptr inbounds %"class.std::__1::__tree_end_node", %"class.std::__1::__tree_end_node"* %143, i64 0, i32 0
  %145 = load %"class.std::__1::__tree_node_base"*, %"class.std::__1::__tree_node_base"** %144, align 8
  %146 = icmp eq %"class.std::__1::__tree_node_base"* %145, %141
  br i1 %146, label %147, label %138

147:                                              ; preds = %138, %123, %136
  %148 = phi %"class.std::__1::__tree_end_node"* [ %137, %136 ], [ %127, %123 ], [ %143, %138 ]
  %149 = icmp eq %"class.std::__1::__tree_end_node"* %148, %35
  br i1 %149, label %41, label %46

150:                                              ; preds = %157, %41
  %151 = icmp eq %"class.ui::GestureConsumer"** %42, null
  br i1 %151, label %156, label %152

152:                                              ; preds = %150
  %153 = ptrtoint %"class.ui::GestureConsumer"** %42 to i64
  %154 = bitcast %"class.ui::GestureConsumer"*** %5 to i64*
  store i64 %153, i64* %154, align 8
  %155 = bitcast %"class.ui::GestureConsumer"** %42 to i8*
  tail call void @_ZdlPv(i8* %155) #12
  br label %156

156:                                              ; preds = %150, %152
  call void @llvm.lifetime.end.p0i8(i64 24, i8* nonnull %4) #11
  ret void

157:                                              ; preds = %41, %157
  %158 = phi %"class.ui::GestureConsumer"** [ %161, %157 ], [ %44, %41 ]
  %159 = load %"class.ui::GestureConsumer"*, %"class.ui::GestureConsumer"** %158, align 8
  %160 = tail call zeroext i1 @_ZN2ui21GestureRecognizerImpl23CancelActiveTouchesImplEPNS_15GestureConsumerE(%"class.ui::GestureRecognizerImpl"* %0, %"class.ui::GestureConsumer"* %159)
  %161 = getelementptr inbounds %"class.ui::GestureConsumer"*, %"class.ui::GestureConsumer"** %158, i64 1
  %162 = icmp eq %"class.ui::GestureConsumer"** %161, %43
  br i1 %162, label %150, label %157
}

; Function Attrs: nounwind ssp uwtable
define hidden void @_ZN2ui21GestureRecognizerImpl21CancelActiveTouchesOnERKNSt3__16vectorIPNS_15GestureConsumerENS1_9allocatorIS4_EEEE(%"class.ui::GestureRecognizerImpl"*, %"class.std::__1::vector.104"* nocapture readonly dereferenceable(24)) unnamed_addr #0 align 2 {
  %3 = getelementptr inbounds %"class.std::__1::vector.104", %"class.std::__1::vector.104"* %1, i64 0, i32 0, i32 0
  %4 = load %"class.ui::GestureConsumer"**, %"class.ui::GestureConsumer"*** %3, align 8
  %5 = getelementptr inbounds %"class.std::__1::vector.104", %"class.std::__1::vector.104"* %1, i64 0, i32 0, i32 1
  %6 = load %"class.ui::GestureConsumer"**, %"class.ui::GestureConsumer"*** %5, align 8
  %7 = icmp eq %"class.ui::GestureConsumer"** %4, %6
  br i1 %7, label %11, label %8

8:                                                ; preds = %2
  %9 = getelementptr inbounds %"class.ui::GestureRecognizerImpl", %"class.ui::GestureRecognizerImpl"* %0, i64 0, i32 2, i32 0, i32 1, i32 0, i32 0
  %10 = bitcast %"class.std::__1::__tree_end_node"* %9 to %"class.std::__1::__tree_node"**
  br label %12

11:                                               ; preds = %41, %2
  ret void

12:                                               ; preds = %8, %41
  %13 = phi %"class.ui::GestureConsumer"** [ %4, %8 ], [ %42, %41 ]
  %14 = load %"class.std::__1::__tree_node"*, %"class.std::__1::__tree_node"** %10, align 8
  %15 = icmp eq %"class.std::__1::__tree_node"* %14, null
  br i1 %15, label %41, label %16

16:                                               ; preds = %12
  %17 = load %"class.ui::GestureConsumer"*, %"class.ui::GestureConsumer"** %13, align 8
  br label %18

18:                                               ; preds = %18, %16
  %19 = phi %"class.std::__1::__tree_end_node"* [ %9, %16 ], [ %29, %18 ]
  %20 = phi %"class.std::__1::__tree_node"* [ %14, %16 ], [ %30, %18 ]
  %21 = getelementptr inbounds %"class.std::__1::__tree_node", %"class.std::__1::__tree_node"* %20, i64 0, i32 1, i32 0, i32 0
  %22 = load %"class.ui::GestureConsumer"*, %"class.ui::GestureConsumer"** %21, align 8
  %23 = icmp ult %"class.ui::GestureConsumer"* %22, %17
  %24 = getelementptr inbounds %"class.std::__1::__tree_node", %"class.std::__1::__tree_node"* %20, i64 0, i32 0, i32 1
  %25 = bitcast %"class.std::__1::__tree_node_base"** %24 to %"class.std::__1::__tree_node"**
  %26 = getelementptr inbounds %"class.std::__1::__tree_node", %"class.std::__1::__tree_node"* %20, i64 0, i32 0, i32 0
  %27 = bitcast %"class.std::__1::__tree_node"* %20 to %"class.std::__1::__tree_node"**
  %28 = select i1 %23, %"class.std::__1::__tree_node"** %25, %"class.std::__1::__tree_node"** %27
  %29 = select i1 %23, %"class.std::__1::__tree_end_node"* %19, %"class.std::__1::__tree_end_node"* %26
  %30 = load %"class.std::__1::__tree_node"*, %"class.std::__1::__tree_node"** %28, align 8
  %31 = icmp eq %"class.std::__1::__tree_node"* %30, null
  br i1 %31, label %32, label %18

32:                                               ; preds = %18
  %33 = icmp eq %"class.std::__1::__tree_end_node"* %29, %9
  br i1 %33, label %41, label %34

34:                                               ; preds = %32
  %35 = getelementptr inbounds %"class.std::__1::__tree_end_node", %"class.std::__1::__tree_end_node"* %29, i64 4
  %36 = bitcast %"class.std::__1::__tree_end_node"* %35 to %"class.ui::GestureConsumer"**
  %37 = load %"class.ui::GestureConsumer"*, %"class.ui::GestureConsumer"** %36, align 8
  %38 = icmp ugt %"class.ui::GestureConsumer"* %37, %17
  br i1 %38, label %41, label %39

39:                                               ; preds = %34
  %40 = tail call zeroext i1 @_ZN2ui21GestureRecognizerImpl23CancelActiveTouchesImplEPNS_15GestureConsumerE(%"class.ui::GestureRecognizerImpl"* %0, %"class.ui::GestureConsumer"* %17)
  br label %41

41:                                               ; preds = %34, %32, %12, %39
  %42 = getelementptr inbounds %"class.ui::GestureConsumer"*, %"class.ui::GestureConsumer"** %13, i64 1
  %43 = icmp eq %"class.ui::GestureConsumer"** %42, %6
  br i1 %43, label %11, label %12
}

; Function Attrs: nounwind ssp uwtable
define hidden zeroext i1 @_ZN2ui21GestureRecognizerImpl23CancelActiveTouchesImplEPNS_15GestureConsumerE(%"class.ui::GestureRecognizerImpl"*, %"class.ui::GestureConsumer"*) local_unnamed_addr #0 align 2 {
  %3 = alloca %"class.std::__1::vector.121", align 8
  %4 = getelementptr inbounds %"class.ui::GestureRecognizerImpl", %"class.ui::GestureRecognizerImpl"* %0, i64 0, i32 5, i32 0, i32 0
  %5 = load %"class.ui::GestureEventHelper"**, %"class.ui::GestureEventHelper"*** %4, align 8
  %6 = getelementptr inbounds %"class.ui::GestureRecognizerImpl", %"class.ui::GestureRecognizerImpl"* %0, i64 0, i32 5, i32 0, i32 1
  %7 = load %"class.ui::GestureEventHelper"**, %"class.ui::GestureEventHelper"*** %6, align 8
  %8 = icmp eq %"class.ui::GestureEventHelper"** %5, %7
  br i1 %8, label %72, label %9

9:                                                ; preds = %2, %17
  %10 = phi %"class.ui::GestureEventHelper"** [ %18, %17 ], [ %5, %2 ]
  %11 = load %"class.ui::GestureEventHelper"*, %"class.ui::GestureEventHelper"** %10, align 8
  %12 = bitcast %"class.ui::GestureEventHelper"* %11 to i1 (%"class.ui::GestureEventHelper"*, %"class.ui::GestureConsumer"*)***
  %13 = load i1 (%"class.ui::GestureEventHelper"*, %"class.ui::GestureConsumer"*)**, i1 (%"class.ui::GestureEventHelper"*, %"class.ui::GestureConsumer"*)*** %12, align 8
  %14 = getelementptr inbounds i1 (%"class.ui::GestureEventHelper"*, %"class.ui::GestureConsumer"*)*, i1 (%"class.ui::GestureEventHelper"*, %"class.ui::GestureConsumer"*)** %13, i64 2
  %15 = load i1 (%"class.ui::GestureEventHelper"*, %"class.ui::GestureConsumer"*)*, i1 (%"class.ui::GestureEventHelper"*, %"class.ui::GestureConsumer"*)** %14, align 8
  %16 = tail call zeroext i1 %15(%"class.ui::GestureEventHelper"* %11, %"class.ui::GestureConsumer"* %1) #11
  br i1 %16, label %21, label %17

17:                                               ; preds = %9
  %18 = getelementptr inbounds %"class.ui::GestureEventHelper"*, %"class.ui::GestureEventHelper"** %10, i64 1
  %19 = load %"class.ui::GestureEventHelper"**, %"class.ui::GestureEventHelper"*** %6, align 8
  %20 = icmp eq %"class.ui::GestureEventHelper"** %18, %19
  br i1 %20, label %72, label %9

21:                                               ; preds = %9
  %22 = load %"class.ui::GestureEventHelper"*, %"class.ui::GestureEventHelper"** %10, align 8
  %23 = icmp eq %"class.ui::GestureEventHelper"* %22, null
  br i1 %23, label %72, label %24

24:                                               ; preds = %21
  %25 = bitcast %"class.std::__1::vector.121"* %3 to i8*
  call void @llvm.lifetime.start.p0i8(i64 24, i8* nonnull %25) #11
  %26 = getelementptr inbounds %"class.std::__1::vector.121", %"class.std::__1::vector.121"* %3, i64 0, i32 0, i32 0
  %27 = getelementptr inbounds %"class.std::__1::vector.121", %"class.std::__1::vector.121"* %3, i64 0, i32 0, i32 1
  %28 = bitcast %"class.std::__1::vector.121"* %3 to i8*
  call void @llvm.memset.p0i8.i64(i8* nonnull align 8 %28, i8 -86, i64 24, i1 false)
  call void @_ZN2ui21GestureRecognizerImpl27GetEventPerPointForConsumerEPNS_15GestureConsumerENS_9EventTypeE(%"class.std::__1::vector.121"* nonnull sret %3, %"class.ui::GestureRecognizerImpl"* %0, %"class.ui::GestureConsumer"* %1, i32 14)
  %29 = load %"class.std::__1::unique_ptr.123"*, %"class.std::__1::unique_ptr.123"** %26, align 8
  %30 = load %"class.std::__1::unique_ptr.123"*, %"class.std::__1::unique_ptr.123"** %27, align 8
  %31 = icmp eq %"class.std::__1::unique_ptr.123"* %29, %30
  br i1 %31, label %45, label %32

32:                                               ; preds = %24
  %33 = bitcast %"class.ui::GestureEventHelper"* %22 to void (%"class.ui::GestureEventHelper"*, %"class.ui::TouchEvent"*)***
  br label %34

34:                                               ; preds = %32, %34
  %35 = phi %"class.std::__1::unique_ptr.123"* [ %29, %32 ], [ %41, %34 ]
  %36 = getelementptr inbounds %"class.std::__1::unique_ptr.123", %"class.std::__1::unique_ptr.123"* %35, i64 0, i32 0, i32 0, i32 0
  %37 = load %"class.ui::TouchEvent"*, %"class.ui::TouchEvent"** %36, align 8
  %38 = load void (%"class.ui::GestureEventHelper"*, %"class.ui::TouchEvent"*)**, void (%"class.ui::GestureEventHelper"*, %"class.ui::TouchEvent"*)*** %33, align 8
  %39 = getelementptr inbounds void (%"class.ui::GestureEventHelper"*, %"class.ui::TouchEvent"*)*, void (%"class.ui::GestureEventHelper"*, %"class.ui::TouchEvent"*)** %38, i64 4
  %40 = load void (%"class.ui::GestureEventHelper"*, %"class.ui::TouchEvent"*)*, void (%"class.ui::GestureEventHelper"*, %"class.ui::TouchEvent"*)** %39, align 8
  call void %40(%"class.ui::GestureEventHelper"* nonnull %22, %"class.ui::TouchEvent"* %37) #11
  %41 = getelementptr inbounds %"class.std::__1::unique_ptr.123", %"class.std::__1::unique_ptr.123"* %35, i64 1
  %42 = icmp eq %"class.std::__1::unique_ptr.123"* %41, %30
  br i1 %42, label %43, label %34

43:                                               ; preds = %34
  %44 = load %"class.std::__1::unique_ptr.123"*, %"class.std::__1::unique_ptr.123"** %26, align 8
  br label %45

45:                                               ; preds = %43, %24
  %46 = phi %"class.std::__1::unique_ptr.123"* [ %44, %43 ], [ %29, %24 ]
  %47 = phi i1 [ true, %43 ], [ false, %24 ]
  %48 = icmp eq %"class.std::__1::unique_ptr.123"* %46, null
  br i1 %48, label %71, label %49

49:                                               ; preds = %45
  %50 = bitcast %"class.std::__1::unique_ptr.123"* %46 to i8*
  %51 = load %"class.std::__1::unique_ptr.123"*, %"class.std::__1::unique_ptr.123"** %27, align 8
  %52 = icmp eq %"class.std::__1::unique_ptr.123"* %51, %46
  br i1 %52, label %69, label %53

53:                                               ; preds = %49, %64
  %54 = phi %"class.std::__1::unique_ptr.123"* [ %55, %64 ], [ %51, %49 ]
  %55 = getelementptr inbounds %"class.std::__1::unique_ptr.123", %"class.std::__1::unique_ptr.123"* %54, i64 -1
  %56 = getelementptr inbounds %"class.std::__1::unique_ptr.123", %"class.std::__1::unique_ptr.123"* %55, i64 0, i32 0, i32 0, i32 0
  %57 = load %"class.ui::TouchEvent"*, %"class.ui::TouchEvent"** %56, align 8
  store %"class.ui::TouchEvent"* null, %"class.ui::TouchEvent"** %56, align 8
  %58 = icmp eq %"class.ui::TouchEvent"* %57, null
  br i1 %58, label %64, label %59

59:                                               ; preds = %53
  %60 = bitcast %"class.ui::TouchEvent"* %57 to void (%"class.ui::TouchEvent"*)***
  %61 = load void (%"class.ui::TouchEvent"*)**, void (%"class.ui::TouchEvent"*)*** %60, align 8
  %62 = getelementptr inbounds void (%"class.ui::TouchEvent"*)*, void (%"class.ui::TouchEvent"*)** %61, i64 1
  %63 = load void (%"class.ui::TouchEvent"*)*, void (%"class.ui::TouchEvent"*)** %62, align 8
  call void %63(%"class.ui::TouchEvent"* nonnull %57) #11
  br label %64

64:                                               ; preds = %59, %53
  %65 = icmp eq %"class.std::__1::unique_ptr.123"* %55, %46
  br i1 %65, label %66, label %53

66:                                               ; preds = %64
  %67 = bitcast %"class.std::__1::vector.121"* %3 to i8**
  %68 = load i8*, i8** %67, align 8
  br label %69

69:                                               ; preds = %66, %49
  %70 = phi i8* [ %68, %66 ], [ %50, %49 ]
  store %"class.std::__1::unique_ptr.123"* %46, %"class.std::__1::unique_ptr.123"** %27, align 8
  call void @_ZdlPv(i8* %70) #12
  br label %71

71:                                               ; preds = %45, %69
  call void @llvm.lifetime.end.p0i8(i64 24, i8* nonnull %25) #11
  br label %72

72:                                               ; preds = %17, %2, %21, %71
  %73 = phi i1 [ %47, %71 ], [ false, %21 ], [ false, %2 ], [ false, %17 ]
  ret i1 %73
}

; Function Attrs: nounwind ssp uwtable
define hidden void @_ZN2ui21GestureRecognizerImpl16TransferEventsToEPNS_15GestureConsumerES2_NS_23TransferTouchesBehaviorE(%"class.ui::GestureRecognizerImpl"*, %"class.ui::GestureConsumer"*, %"class.ui::GestureConsumer"*, i32) unnamed_addr #0 align 2 {
  %5 = alloca %"class.ui::GestureConsumer"*, align 8
  %6 = alloca %"class.std::__1::vector.111", align 8
  %7 = alloca %"class.std::__1::vector.121", align 8
  %8 = ptrtoint %"class.ui::GestureConsumer"* %2 to i64
  %9 = getelementptr inbounds %"class.ui::GestureRecognizerImpl", %"class.ui::GestureRecognizerImpl"* %0, i64 0, i32 5, i32 0, i32 0
  %10 = load %"class.ui::GestureEventHelper"**, %"class.ui::GestureEventHelper"*** %9, align 8
  %11 = getelementptr inbounds %"class.ui::GestureRecognizerImpl", %"class.ui::GestureRecognizerImpl"* %0, i64 0, i32 5, i32 0, i32 1
  %12 = load %"class.ui::GestureEventHelper"**, %"class.ui::GestureEventHelper"*** %11, align 8
  %13 = icmp eq %"class.ui::GestureEventHelper"** %10, %12
  br i1 %13, label %29, label %14

14:                                               ; preds = %4, %25
  %15 = phi %"class.ui::GestureEventHelper"** [ %26, %25 ], [ %10, %4 ]
  %16 = load %"class.ui::GestureEventHelper"*, %"class.ui::GestureEventHelper"** %15, align 8
  %17 = bitcast %"class.ui::GestureEventHelper"* %16 to i1 (%"class.ui::GestureEventHelper"*, %"class.ui::GestureConsumer"*)***
  %18 = load i1 (%"class.ui::GestureEventHelper"*, %"class.ui::GestureConsumer"*)**, i1 (%"class.ui::GestureEventHelper"*, %"class.ui::GestureConsumer"*)*** %17, align 8
  %19 = getelementptr inbounds i1 (%"class.ui::GestureEventHelper"*, %"class.ui::GestureConsumer"*)*, i1 (%"class.ui::GestureEventHelper"*, %"class.ui::GestureConsumer"*)** %18, i64 2
  %20 = load i1 (%"class.ui::GestureEventHelper"*, %"class.ui::GestureConsumer"*)*, i1 (%"class.ui::GestureEventHelper"*, %"class.ui::GestureConsumer"*)** %19, align 8
  %21 = tail call zeroext i1 %20(%"class.ui::GestureEventHelper"* %16, %"class.ui::GestureConsumer"* %1) #11
  br i1 %21, label %22, label %25

22:                                               ; preds = %14
  %23 = load %"class.ui::GestureEventHelper"*, %"class.ui::GestureEventHelper"** %15, align 8
  %24 = bitcast %"class.ui::GestureEventHelper"* %23 to void (%"class.ui::GestureEventHelper"*, %"class.ui::TouchEvent"*)***
  br label %29

25:                                               ; preds = %14
  %26 = getelementptr inbounds %"class.ui::GestureEventHelper"*, %"class.ui::GestureEventHelper"** %15, i64 1
  %27 = load %"class.ui::GestureEventHelper"**, %"class.ui::GestureEventHelper"*** %11, align 8
  %28 = icmp eq %"class.ui::GestureEventHelper"** %26, %27
  br i1 %28, label %29, label %14

29:                                               ; preds = %25, %4, %22
  %30 = phi void (%"class.ui::GestureEventHelper"*, %"class.ui::TouchEvent"*)*** [ %24, %22 ], [ null, %4 ], [ null, %25 ]
  %31 = phi %"class.ui::GestureEventHelper"* [ %23, %22 ], [ null, %4 ], [ null, %25 ]
  %32 = bitcast %"class.std::__1::vector.111"* %6 to i8*
  call void @llvm.lifetime.start.p0i8(i64 24, i8* nonnull %32) #11
  %33 = getelementptr inbounds %"class.std::__1::vector.111", %"class.std::__1::vector.111"* %6, i64 0, i32 0, i32 0
  %34 = getelementptr inbounds %"class.std::__1::vector.111", %"class.std::__1::vector.111"* %6, i64 0, i32 0, i32 1
  %35 = getelementptr inbounds %"class.std::__1::vector.111", %"class.std::__1::vector.111"* %6, i64 0, i32 0, i32 2, i32 0, i32 0
  call void @llvm.memset.p0i8.i64(i8* nonnull align 8 %32, i8 0, i64 24, i1 false) #11
  %36 = getelementptr inbounds %"class.ui::GestureRecognizerImpl", %"class.ui::GestureRecognizerImpl"* %0, i64 0, i32 4
  %37 = getelementptr inbounds %"class.std::__1::map.15", %"class.std::__1::map.15"* %36, i64 0, i32 0, i32 0
  %38 = load %"class.std::__1::__tree_end_node"*, %"class.std::__1::__tree_end_node"** %37, align 8
  %39 = getelementptr inbounds %"class.ui::GestureRecognizerImpl", %"class.ui::GestureRecognizerImpl"* %0, i64 0, i32 4, i32 0, i32 1, i32 0, i32 0
  %40 = icmp eq %"class.std::__1::__tree_end_node"* %38, %39
  br i1 %40, label %45, label %41

41:                                               ; preds = %29
  %42 = bitcast i32** %34 to i64*
  %43 = bitcast %"class.std::__1::vector.111"* %6 to i64*
  %44 = bitcast i32** %35 to i64*
  br label %288

45:                                               ; preds = %381, %29
  tail call void @_ZN2ui21GestureRecognizerImpl29CancelActiveTouchesExceptImplEPNS_15GestureConsumerE(%"class.ui::GestureRecognizerImpl"* %0, %"class.ui::GestureConsumer"* %1)
  %46 = bitcast %"class.std::__1::vector.121"* %7 to i8*
  call void @llvm.lifetime.start.p0i8(i64 24, i8* nonnull %46) #11
  %47 = getelementptr inbounds %"class.std::__1::vector.121", %"class.std::__1::vector.121"* %7, i64 0, i32 0, i32 0
  %48 = getelementptr inbounds %"class.std::__1::vector.121", %"class.std::__1::vector.121"* %7, i64 0, i32 0, i32 1
  %49 = bitcast %"class.std::__1::vector.121"* %7 to i8*
  call void @llvm.memset.p0i8.i64(i8* nonnull align 8 %49, i8 -86, i64 24, i1 false)
  call void @_ZN2ui21GestureRecognizerImpl27GetEventPerPointForConsumerEPNS_15GestureConsumerENS_9EventTypeE(%"class.std::__1::vector.121"* nonnull sret %7, %"class.ui::GestureRecognizerImpl"* %0, %"class.ui::GestureConsumer"* %1, i32 14)
  %50 = getelementptr inbounds %"class.ui::GestureRecognizerImpl", %"class.ui::GestureRecognizerImpl"* %0, i64 0, i32 2
  %51 = bitcast %"class.ui::GestureConsumer"** %5 to i8*
  call void @llvm.lifetime.start.p0i8(i64 8, i8* nonnull %51)
  store %"class.ui::GestureConsumer"* %1, %"class.ui::GestureConsumer"** %5, align 8
  %52 = getelementptr inbounds %"class.ui::GestureRecognizerImpl", %"class.ui::GestureRecognizerImpl"* %0, i64 0, i32 2, i32 0, i32 2, i32 0, i32 0
  %53 = load i64, i64* %52, align 8
  %54 = icmp eq i64 %53, 0
  %55 = ptrtoint %"class.ui::GestureConsumer"* %1 to i64
  br i1 %54, label %284, label %56

56:                                               ; preds = %45
  %57 = getelementptr inbounds %"class.ui::GestureRecognizerImpl", %"class.ui::GestureRecognizerImpl"* %0, i64 0, i32 2, i32 0, i32 1, i32 0, i32 0
  %58 = bitcast %"class.std::__1::__tree_end_node"* %57 to %"class.std::__1::__tree_node"**
  %59 = load %"class.std::__1::__tree_node"*, %"class.std::__1::__tree_node"** %58, align 8
  %60 = icmp eq %"class.std::__1::__tree_node"* %59, null
  br i1 %60, label %284, label %61

61:                                               ; preds = %56, %61
  %62 = phi %"class.std::__1::__tree_end_node"* [ %72, %61 ], [ %57, %56 ]
  %63 = phi %"class.std::__1::__tree_node"* [ %73, %61 ], [ %59, %56 ]
  %64 = getelementptr inbounds %"class.std::__1::__tree_node", %"class.std::__1::__tree_node"* %63, i64 0, i32 1, i32 0, i32 0
  %65 = load %"class.ui::GestureConsumer"*, %"class.ui::GestureConsumer"** %64, align 8
  %66 = icmp ult %"class.ui::GestureConsumer"* %65, %1
  %67 = getelementptr inbounds %"class.std::__1::__tree_node", %"class.std::__1::__tree_node"* %63, i64 0, i32 0, i32 1
  %68 = bitcast %"class.std::__1::__tree_node_base"** %67 to %"class.std::__1::__tree_node"**
  %69 = getelementptr inbounds %"class.std::__1::__tree_node", %"class.std::__1::__tree_node"* %63, i64 0, i32 0, i32 0
  %70 = bitcast %"class.std::__1::__tree_node"* %63 to %"class.std::__1::__tree_node"**
  %71 = select i1 %66, %"class.std::__1::__tree_node"** %68, %"class.std::__1::__tree_node"** %70
  %72 = select i1 %66, %"class.std::__1::__tree_end_node"* %62, %"class.std::__1::__tree_end_node"* %69
  %73 = load %"class.std::__1::__tree_node"*, %"class.std::__1::__tree_node"** %71, align 8
  %74 = icmp eq %"class.std::__1::__tree_node"* %73, null
  br i1 %74, label %75, label %61

75:                                               ; preds = %61
  %76 = icmp eq %"class.std::__1::__tree_end_node"* %72, %57
  br i1 %76, label %284, label %77

77:                                               ; preds = %75
  %78 = getelementptr inbounds %"class.std::__1::__tree_end_node", %"class.std::__1::__tree_end_node"* %72, i64 4
  %79 = bitcast %"class.std::__1::__tree_end_node"* %78 to %"class.ui::GestureConsumer"**
  %80 = load %"class.ui::GestureConsumer"*, %"class.ui::GestureConsumer"** %79, align 8
  %81 = icmp ugt %"class.ui::GestureConsumer"* %80, %1
  br i1 %81, label %284, label %82

82:                                               ; preds = %77
  %83 = getelementptr inbounds %"class.ui::GestureRecognizerImpl", %"class.ui::GestureRecognizerImpl"* %0, i64 0, i32 2, i32 0, i32 1, i32 0, i32 0, i32 0
  br label %84

84:                                               ; preds = %100, %82
  %85 = phi %"class.std::__1::__tree_node"* [ %103, %100 ], [ %59, %82 ]
  %86 = phi %"class.std::__1::__tree_node_base"** [ %102, %100 ], [ %83, %82 ]
  %87 = getelementptr inbounds %"class.std::__1::__tree_node", %"class.std::__1::__tree_node"* %85, i64 0, i32 1, i32 0, i32 0
  %88 = load %"class.ui::GestureConsumer"*, %"class.ui::GestureConsumer"** %87, align 8
  %89 = icmp ugt %"class.ui::GestureConsumer"* %88, %1
  br i1 %89, label %90, label %94

90:                                               ; preds = %84
  %91 = getelementptr inbounds %"class.std::__1::__tree_node", %"class.std::__1::__tree_node"* %85, i64 0, i32 0, i32 0, i32 0
  %92 = load %"class.std::__1::__tree_node_base"*, %"class.std::__1::__tree_node_base"** %91, align 8
  %93 = icmp eq %"class.std::__1::__tree_node_base"* %92, null
  br i1 %93, label %104, label %100

94:                                               ; preds = %84
  %95 = icmp ult %"class.ui::GestureConsumer"* %88, %1
  br i1 %95, label %96, label %104

96:                                               ; preds = %94
  %97 = getelementptr inbounds %"class.std::__1::__tree_node", %"class.std::__1::__tree_node"* %85, i64 0, i32 0, i32 1
  %98 = load %"class.std::__1::__tree_node_base"*, %"class.std::__1::__tree_node_base"** %97, align 8
  %99 = icmp eq %"class.std::__1::__tree_node_base"* %98, null
  br i1 %99, label %104, label %100

100:                                              ; preds = %96, %90
  %101 = phi %"class.std::__1::__tree_node_base"* [ %92, %90 ], [ %98, %96 ]
  %102 = phi %"class.std::__1::__tree_node_base"** [ %91, %90 ], [ %97, %96 ]
  %103 = bitcast %"class.std::__1::__tree_node_base"* %101 to %"class.std::__1::__tree_node"*
  br label %84

104:                                              ; preds = %94, %96, %90
  %105 = phi %"class.std::__1::__tree_node_base"** [ %91, %90 ], [ %97, %96 ], [ %86, %94 ]
  %106 = bitcast %"class.std::__1::__tree_node_base"** %105 to %"class.std::__1::__tree_node"**
  %107 = load %"class.std::__1::__tree_node"*, %"class.std::__1::__tree_node"** %106, align 8
  %108 = icmp eq %"class.std::__1::__tree_node"* %107, null
  br i1 %108, label %109, label %136

109:                                              ; preds = %104
  %110 = getelementptr inbounds %"class.std::__1::__tree_node", %"class.std::__1::__tree_node"* %85, i64 0, i32 0, i32 0
  %111 = call i8* @_Znwm(i64 48) #12, !noalias !8
  %112 = getelementptr inbounds i8, i8* %111, i64 32
  %113 = bitcast i8* %112 to i64*
  store i64 %55, i64* %113, align 8, !noalias !8
  %114 = getelementptr inbounds i8, i8* %111, i64 40
  %115 = bitcast i8* %114 to i64*
  store i64 0, i64* %115, align 8, !noalias !8
  %116 = bitcast i8* %111 to %"class.std::__1::__tree_node"*
  %117 = bitcast i8* %111 to %"class.std::__1::__tree_node_base"*
  %118 = getelementptr inbounds i8, i8* %111, i64 16
  %119 = bitcast i8* %118 to %"class.std::__1::__tree_end_node"**
  call void @llvm.memset.p0i8.i64(i8* nonnull align 8 %111, i8 0, i64 16, i1 false) #11
  store %"class.std::__1::__tree_end_node"* %110, %"class.std::__1::__tree_end_node"** %119, align 8
  %120 = bitcast %"class.std::__1::__tree_node_base"** %105 to i8**
  store i8* %111, i8** %120, align 8
  %121 = getelementptr inbounds %"class.std::__1::map", %"class.std::__1::map"* %50, i64 0, i32 0, i32 0
  %122 = load %"class.std::__1::__tree_end_node"*, %"class.std::__1::__tree_end_node"** %121, align 8
  %123 = getelementptr inbounds %"class.std::__1::__tree_end_node", %"class.std::__1::__tree_end_node"* %122, i64 0, i32 0
  %124 = load %"class.std::__1::__tree_node_base"*, %"class.std::__1::__tree_node_base"** %123, align 8
  %125 = icmp eq %"class.std::__1::__tree_node_base"* %124, null
  br i1 %125, label %130, label %126

126:                                              ; preds = %109
  %127 = ptrtoint %"class.std::__1::__tree_node_base"* %124 to i64
  %128 = bitcast %"class.std::__1::map"* %50 to i64*
  store i64 %127, i64* %128, align 8
  %129 = load %"class.std::__1::__tree_node_base"*, %"class.std::__1::__tree_node_base"** %105, align 8
  br label %130

130:                                              ; preds = %126, %109
  %131 = phi %"class.std::__1::__tree_node_base"* [ %117, %109 ], [ %129, %126 ]
  %132 = load %"class.std::__1::__tree_node_base"*, %"class.std::__1::__tree_node_base"** %83, align 8
  call void @_ZNSt3__127__tree_balance_after_insertIPNS_16__tree_node_baseIPvEEEEvT_S5_(%"class.std::__1::__tree_node_base"* %132, %"class.std::__1::__tree_node_base"* %131) #11
  %133 = load i64, i64* %52, align 8
  %134 = add i64 %133, 1
  store i64 %134, i64* %52, align 8
  %135 = load %"class.std::__1::__tree_node"*, %"class.std::__1::__tree_node"** %58, align 8
  br label %136

136:                                              ; preds = %130, %104
  %137 = phi %"class.std::__1::__tree_node"* [ %135, %130 ], [ %59, %104 ]
  %138 = phi %"class.std::__1::__tree_node"* [ %116, %130 ], [ %107, %104 ]
  %139 = getelementptr inbounds %"class.std::__1::__tree_node", %"class.std::__1::__tree_node"* %138, i64 0, i32 1, i32 0, i32 1
  %140 = icmp eq %"class.std::__1::__tree_node"* %137, null
  br i1 %140, label %167, label %141

141:                                              ; preds = %136, %163
  %142 = phi %"class.std::__1::__tree_node"* [ %166, %163 ], [ %137, %136 ]
  %143 = phi %"class.std::__1::__tree_node_base"** [ %165, %163 ], [ %83, %136 ]
  %144 = getelementptr inbounds %"class.std::__1::__tree_node", %"class.std::__1::__tree_node"* %142, i64 0, i32 1, i32 0, i32 0
  %145 = load %"class.ui::GestureConsumer"*, %"class.ui::GestureConsumer"** %144, align 8
  %146 = icmp ugt %"class.ui::GestureConsumer"* %145, %2
  br i1 %146, label %147, label %153

147:                                              ; preds = %141
  %148 = getelementptr inbounds %"class.std::__1::__tree_node", %"class.std::__1::__tree_node"* %142, i64 0, i32 0, i32 0, i32 0
  %149 = load %"class.std::__1::__tree_node_base"*, %"class.std::__1::__tree_node_base"** %148, align 8
  %150 = icmp eq %"class.std::__1::__tree_node_base"* %149, null
  br i1 %150, label %151, label %163

151:                                              ; preds = %147
  %152 = getelementptr inbounds %"class.std::__1::__tree_node", %"class.std::__1::__tree_node"* %142, i64 0, i32 0, i32 0
  br label %169

153:                                              ; preds = %141
  %154 = icmp ult %"class.ui::GestureConsumer"* %145, %2
  br i1 %154, label %155, label %161

155:                                              ; preds = %153
  %156 = getelementptr inbounds %"class.std::__1::__tree_node", %"class.std::__1::__tree_node"* %142, i64 0, i32 0, i32 1
  %157 = load %"class.std::__1::__tree_node_base"*, %"class.std::__1::__tree_node_base"** %156, align 8
  %158 = icmp eq %"class.std::__1::__tree_node_base"* %157, null
  br i1 %158, label %159, label %163

159:                                              ; preds = %155
  %160 = getelementptr inbounds %"class.std::__1::__tree_node", %"class.std::__1::__tree_node"* %142, i64 0, i32 0, i32 0
  br label %169

161:                                              ; preds = %153
  %162 = getelementptr inbounds %"class.std::__1::__tree_node", %"class.std::__1::__tree_node"* %142, i64 0, i32 0, i32 0
  br label %169

163:                                              ; preds = %155, %147
  %164 = phi %"class.std::__1::__tree_node_base"* [ %149, %147 ], [ %157, %155 ]
  %165 = phi %"class.std::__1::__tree_node_base"** [ %148, %147 ], [ %156, %155 ]
  %166 = bitcast %"class.std::__1::__tree_node_base"* %164 to %"class.std::__1::__tree_node"*
  br label %141

167:                                              ; preds = %136
  %168 = getelementptr inbounds %"class.std::__1::__tree_end_node", %"class.std::__1::__tree_end_node"* %57, i64 0, i32 0
  br label %169

169:                                              ; preds = %167, %161, %159, %151
  %170 = phi %"class.std::__1::__tree_end_node"* [ %57, %167 ], [ %152, %151 ], [ %160, %159 ], [ %162, %161 ]
  %171 = phi %"class.std::__1::__tree_node_base"** [ %168, %167 ], [ %148, %151 ], [ %156, %159 ], [ %143, %161 ]
  %172 = bitcast %"class.std::__1::__tree_node_base"** %171 to %"class.std::__1::__tree_node"**
  %173 = load %"class.std::__1::__tree_node"*, %"class.std::__1::__tree_node"** %172, align 8
  %174 = icmp eq %"class.std::__1::__tree_node"* %173, null
  br i1 %174, label %175, label %200

175:                                              ; preds = %169
  %176 = call i8* @_Znwm(i64 48) #12, !noalias !11
  %177 = getelementptr inbounds i8, i8* %176, i64 32
  %178 = bitcast i8* %177 to i64*
  store i64 %8, i64* %178, align 8, !noalias !11
  %179 = getelementptr inbounds i8, i8* %176, i64 40
  %180 = bitcast i8* %179 to i64*
  store i64 0, i64* %180, align 8, !noalias !11
  %181 = bitcast i8* %176 to %"class.std::__1::__tree_node"*
  %182 = bitcast i8* %176 to %"class.std::__1::__tree_node_base"*
  %183 = getelementptr inbounds i8, i8* %176, i64 16
  %184 = bitcast i8* %183 to %"class.std::__1::__tree_end_node"**
  call void @llvm.memset.p0i8.i64(i8* nonnull align 8 %176, i8 0, i64 16, i1 false) #11
  store %"class.std::__1::__tree_end_node"* %170, %"class.std::__1::__tree_end_node"** %184, align 8
  %185 = bitcast %"class.std::__1::__tree_node_base"** %171 to i8**
  store i8* %176, i8** %185, align 8
  %186 = getelementptr inbounds %"class.std::__1::map", %"class.std::__1::map"* %50, i64 0, i32 0, i32 0
  %187 = load %"class.std::__1::__tree_end_node"*, %"class.std::__1::__tree_end_node"** %186, align 8
  %188 = getelementptr inbounds %"class.std::__1::__tree_end_node", %"class.std::__1::__tree_end_node"* %187, i64 0, i32 0
  %189 = load %"class.std::__1::__tree_node_base"*, %"class.std::__1::__tree_node_base"** %188, align 8
  %190 = icmp eq %"class.std::__1::__tree_node_base"* %189, null
  br i1 %190, label %195, label %191

191:                                              ; preds = %175
  %192 = ptrtoint %"class.std::__1::__tree_node_base"* %189 to i64
  %193 = bitcast %"class.std::__1::map"* %50 to i64*
  store i64 %192, i64* %193, align 8
  %194 = load %"class.std::__1::__tree_node_base"*, %"class.std::__1::__tree_node_base"** %171, align 8
  br label %195

195:                                              ; preds = %191, %175
  %196 = phi %"class.std::__1::__tree_node_base"* [ %182, %175 ], [ %194, %191 ]
  %197 = load %"class.std::__1::__tree_node_base"*, %"class.std::__1::__tree_node_base"** %83, align 8
  call void @_ZNSt3__127__tree_balance_after_insertIPNS_16__tree_node_baseIPvEEEEvT_S5_(%"class.std::__1::__tree_node_base"* %197, %"class.std::__1::__tree_node_base"* %196) #11
  %198 = load i64, i64* %52, align 8
  %199 = add i64 %198, 1
  store i64 %199, i64* %52, align 8
  br label %200

200:                                              ; preds = %195, %169
  %201 = phi %"class.std::__1::__tree_node"* [ %181, %195 ], [ %173, %169 ]
  %202 = getelementptr inbounds %"class.std::__1::__tree_node", %"class.std::__1::__tree_node"* %201, i64 0, i32 1, i32 0, i32 1
  %203 = getelementptr inbounds %"class.std::__1::unique_ptr.43", %"class.std::__1::unique_ptr.43"* %139, i64 0, i32 0, i32 0, i32 0
  %204 = bitcast %"class.std::__1::unique_ptr.43"* %139 to i64*
  %205 = load i64, i64* %204, align 8
  store %"class.ui::GestureProviderAura"* null, %"class.ui::GestureProviderAura"** %203, align 8
  %206 = getelementptr inbounds %"class.std::__1::unique_ptr.43", %"class.std::__1::unique_ptr.43"* %202, i64 0, i32 0, i32 0, i32 0
  %207 = load %"class.ui::GestureProviderAura"*, %"class.ui::GestureProviderAura"** %206, align 8
  %208 = bitcast %"class.std::__1::unique_ptr.43"* %202 to i64*
  store i64 %205, i64* %208, align 8
  %209 = icmp eq %"class.ui::GestureProviderAura"* %207, null
  br i1 %209, label %215, label %210

210:                                              ; preds = %200
  %211 = bitcast %"class.ui::GestureProviderAura"* %207 to void (%"class.ui::GestureProviderAura"*)***
  %212 = load void (%"class.ui::GestureProviderAura"*)**, void (%"class.ui::GestureProviderAura"*)*** %211, align 8
  %213 = getelementptr inbounds void (%"class.ui::GestureProviderAura"*)*, void (%"class.ui::GestureProviderAura"*)** %212, i64 1
  %214 = load void (%"class.ui::GestureProviderAura"*)*, void (%"class.ui::GestureProviderAura"*)** %213, align 8
  call void %214(%"class.ui::GestureProviderAura"* nonnull %207) #11
  br label %215

215:                                              ; preds = %210, %200
  %216 = load %"class.std::__1::__tree_node"*, %"class.std::__1::__tree_node"** %58, align 8
  %217 = icmp eq %"class.std::__1::__tree_node"* %216, null
  br i1 %217, label %244, label %218

218:                                              ; preds = %215, %240
  %219 = phi %"class.std::__1::__tree_node"* [ %243, %240 ], [ %216, %215 ]
  %220 = phi %"class.std::__1::__tree_node_base"** [ %242, %240 ], [ %83, %215 ]
  %221 = getelementptr inbounds %"class.std::__1::__tree_node", %"class.std::__1::__tree_node"* %219, i64 0, i32 1, i32 0, i32 0
  %222 = load %"class.ui::GestureConsumer"*, %"class.ui::GestureConsumer"** %221, align 8
  %223 = icmp ugt %"class.ui::GestureConsumer"* %222, %2
  br i1 %223, label %224, label %230

224:                                              ; preds = %218
  %225 = getelementptr inbounds %"class.std::__1::__tree_node", %"class.std::__1::__tree_node"* %219, i64 0, i32 0, i32 0, i32 0
  %226 = load %"class.std::__1::__tree_node_base"*, %"class.std::__1::__tree_node_base"** %225, align 8
  %227 = icmp eq %"class.std::__1::__tree_node_base"* %226, null
  br i1 %227, label %228, label %240

228:                                              ; preds = %224
  %229 = getelementptr inbounds %"class.std::__1::__tree_node", %"class.std::__1::__tree_node"* %219, i64 0, i32 0, i32 0
  br label %246

230:                                              ; preds = %218
  %231 = icmp ult %"class.ui::GestureConsumer"* %222, %2
  br i1 %231, label %232, label %238

232:                                              ; preds = %230
  %233 = getelementptr inbounds %"class.std::__1::__tree_node", %"class.std::__1::__tree_node"* %219, i64 0, i32 0, i32 1
  %234 = load %"class.std::__1::__tree_node_base"*, %"class.std::__1::__tree_node_base"** %233, align 8
  %235 = icmp eq %"class.std::__1::__tree_node_base"* %234, null
  br i1 %235, label %236, label %240

236:                                              ; preds = %232
  %237 = getelementptr inbounds %"class.std::__1::__tree_node", %"class.std::__1::__tree_node"* %219, i64 0, i32 0, i32 0
  br label %246

238:                                              ; preds = %230
  %239 = getelementptr inbounds %"class.std::__1::__tree_node", %"class.std::__1::__tree_node"* %219, i64 0, i32 0, i32 0
  br label %246

240:                                              ; preds = %232, %224
  %241 = phi %"class.std::__1::__tree_node_base"* [ %226, %224 ], [ %234, %232 ]
  %242 = phi %"class.std::__1::__tree_node_base"** [ %225, %224 ], [ %233, %232 ]
  %243 = bitcast %"class.std::__1::__tree_node_base"* %241 to %"class.std::__1::__tree_node"*
  br label %218

244:                                              ; preds = %215
  %245 = getelementptr inbounds %"class.std::__1::__tree_end_node", %"class.std::__1::__tree_end_node"* %57, i64 0, i32 0
  br label %246

246:                                              ; preds = %244, %238, %236, %228
  %247 = phi %"class.std::__1::__tree_end_node"* [ %57, %244 ], [ %229, %228 ], [ %237, %236 ], [ %239, %238 ]
  %248 = phi %"class.std::__1::__tree_node_base"** [ %245, %244 ], [ %225, %228 ], [ %233, %236 ], [ %220, %238 ]
  %249 = bitcast %"class.std::__1::__tree_node_base"** %248 to %"class.std::__1::__tree_node"**
  %250 = load %"class.std::__1::__tree_node"*, %"class.std::__1::__tree_node"** %249, align 8
  %251 = icmp eq %"class.std::__1::__tree_node"* %250, null
  br i1 %251, label %252, label %277

252:                                              ; preds = %246
  %253 = call i8* @_Znwm(i64 48) #12, !noalias !14
  %254 = getelementptr inbounds i8, i8* %253, i64 32
  %255 = bitcast i8* %254 to i64*
  store i64 %8, i64* %255, align 8, !noalias !14
  %256 = getelementptr inbounds i8, i8* %253, i64 40
  %257 = bitcast i8* %256 to i64*
  store i64 0, i64* %257, align 8, !noalias !14
  %258 = bitcast i8* %253 to %"class.std::__1::__tree_node"*
  %259 = bitcast i8* %253 to %"class.std::__1::__tree_node_base"*
  %260 = getelementptr inbounds i8, i8* %253, i64 16
  %261 = bitcast i8* %260 to %"class.std::__1::__tree_end_node"**
  call void @llvm.memset.p0i8.i64(i8* nonnull align 8 %253, i8 0, i64 16, i1 false) #11
  store %"class.std::__1::__tree_end_node"* %247, %"class.std::__1::__tree_end_node"** %261, align 8
  %262 = bitcast %"class.std::__1::__tree_node_base"** %248 to i8**
  store i8* %253, i8** %262, align 8
  %263 = getelementptr inbounds %"class.std::__1::map", %"class.std::__1::map"* %50, i64 0, i32 0, i32 0
  %264 = load %"class.std::__1::__tree_end_node"*, %"class.std::__1::__tree_end_node"** %263, align 8
  %265 = getelementptr inbounds %"class.std::__1::__tree_end_node", %"class.std::__1::__tree_end_node"* %264, i64 0, i32 0
  %266 = load %"class.std::__1::__tree_node_base"*, %"class.std::__1::__tree_node_base"** %265, align 8
  %267 = icmp eq %"class.std::__1::__tree_node_base"* %266, null
  br i1 %267, label %272, label %268

268:                                              ; preds = %252
  %269 = ptrtoint %"class.std::__1::__tree_node_base"* %266 to i64
  %270 = bitcast %"class.std::__1::map"* %50 to i64*
  store i64 %269, i64* %270, align 8
  %271 = load %"class.std::__1::__tree_node_base"*, %"class.std::__1::__tree_node_base"** %248, align 8
  br label %272

272:                                              ; preds = %268, %252
  %273 = phi %"class.std::__1::__tree_node_base"* [ %259, %252 ], [ %271, %268 ]
  %274 = load %"class.std::__1::__tree_node_base"*, %"class.std::__1::__tree_node_base"** %83, align 8
  call void @_ZNSt3__127__tree_balance_after_insertIPNS_16__tree_node_baseIPvEEEEvT_S5_(%"class.std::__1::__tree_node_base"* %274, %"class.std::__1::__tree_node_base"* %273) #11
  %275 = load i64, i64* %52, align 8
  %276 = add i64 %275, 1
  store i64 %276, i64* %52, align 8
  br label %277

277:                                              ; preds = %272, %246
  %278 = phi %"class.std::__1::__tree_node"* [ %258, %272 ], [ %250, %246 ]
  %279 = getelementptr inbounds %"class.std::__1::__tree_node", %"class.std::__1::__tree_node"* %278, i64 0, i32 1, i32 0, i32 1, i32 0, i32 0, i32 0
  %280 = load %"class.ui::GestureProviderAura"*, %"class.ui::GestureProviderAura"** %279, align 8
  %281 = getelementptr inbounds %"class.ui::GestureProviderAura", %"class.ui::GestureProviderAura"* %280, i64 0, i32 6
  store %"class.ui::GestureConsumer"* %2, %"class.ui::GestureConsumer"** %281, align 8
  %282 = getelementptr inbounds %"class.std::__1::map", %"class.std::__1::map"* %50, i64 0, i32 0
  %283 = call i64 @_ZNSt3__16__treeINS_12__value_typeIPN2ui15GestureConsumerENS_10unique_ptrINS2_19GestureProviderAuraENS_14default_deleteIS6_EEEEEENS_19__map_value_compareIS4_SA_NS_4lessIS4_EELb1EEENS_9allocatorISA_EEE14__erase_uniqueIS4_EEmRKT_(%"class.std::__1::__tree"* %282, %"class.ui::GestureConsumer"** nonnull dereferenceable(8) %5) #11
  br label %284

284:                                              ; preds = %45, %56, %75, %77, %277
  call void @llvm.lifetime.end.p0i8(i64 8, i8* nonnull %51)
  %285 = icmp eq i32 %3, 0
  %286 = icmp ne %"class.ui::GestureEventHelper"* %31, null
  %287 = and i1 %285, %286
  br i1 %287, label %384, label %409

288:                                              ; preds = %41, %381
  %289 = phi i64 [ 0, %41 ], [ %352, %381 ]
  %290 = phi i32* [ null, %41 ], [ %353, %381 ]
  %291 = phi %"class.std::__1::__tree_end_node"* [ %38, %41 ], [ %382, %381 ]
  %292 = getelementptr inbounds %"class.std::__1::__tree_end_node", %"class.std::__1::__tree_end_node"* %291, i64 5
  %293 = bitcast %"class.std::__1::__tree_end_node"* %292 to %"class.ui::GestureConsumer"**
  %294 = load %"class.ui::GestureConsumer"*, %"class.ui::GestureConsumer"** %293, align 8
  %295 = icmp eq %"class.ui::GestureConsumer"* %294, %1
  br i1 %295, label %296, label %351

296:                                              ; preds = %288
  %297 = getelementptr inbounds %"class.std::__1::__tree_end_node", %"class.std::__1::__tree_end_node"* %291, i64 4
  %298 = bitcast %"class.std::__1::__tree_end_node"* %297 to i32*
  %299 = load i32*, i32** %35, align 8
  %300 = icmp eq i32* %290, %299
  br i1 %300, label %305, label %301

301:                                              ; preds = %296
  %302 = load i32, i32* %298, align 4
  store i32 %302, i32* %290, align 4
  %303 = getelementptr inbounds i32, i32* %290, i64 1
  %304 = ptrtoint i32* %303 to i64
  store i64 %304, i64* %42, align 8
  br label %351

305:                                              ; preds = %296
  %306 = ptrtoint i32* %299 to i64
  %307 = load i64, i64* %43, align 8
  %308 = sub i64 %306, %307
  %309 = ashr exact i64 %308, 2
  %310 = add nsw i64 %309, 1
  %311 = icmp ugt i64 %310, 4611686018427387903
  br i1 %311, label %312, label %314

312:                                              ; preds = %305
  %313 = bitcast %"class.std::__1::vector.111"* %6 to %"class.std::__1::__vector_base_common"*
  call void @_ZNKSt3__120__vector_base_commonILb1EE20__throw_length_errorEv(%"class.std::__1::__vector_base_common"* nonnull %313) #13
  unreachable

314:                                              ; preds = %305
  %315 = icmp ult i64 %309, 2305843009213693951
  br i1 %315, label %316, label %324

316:                                              ; preds = %314
  %317 = ashr exact i64 %308, 1
  %318 = icmp ult i64 %317, %310
  %319 = select i1 %318, i64 %310, i64 %317
  %320 = icmp eq i64 %319, 0
  br i1 %320, label %329, label %321

321:                                              ; preds = %316
  %322 = icmp ugt i64 %319, 4611686018427387903
  br i1 %322, label %323, label %324

323:                                              ; preds = %321
  tail call void @abort() #13
  unreachable

324:                                              ; preds = %321, %314
  %325 = phi i64 [ %319, %321 ], [ 4611686018427387903, %314 ]
  %326 = shl i64 %325, 2
  %327 = tail call i8* @_Znwm(i64 %326) #12
  %328 = bitcast i8* %327 to i32*
  br label %329

329:                                              ; preds = %324, %316
  %330 = phi i64 [ %325, %324 ], [ 0, %316 ]
  %331 = phi i32* [ %328, %324 ], [ null, %316 ]
  %332 = getelementptr inbounds i32, i32* %331, i64 %309
  %333 = getelementptr inbounds i32, i32* %331, i64 %330
  %334 = ptrtoint i32* %333 to i64
  %335 = load i32, i32* %298, align 4
  store i32 %335, i32* %332, align 4
  %336 = getelementptr inbounds i32, i32* %332, i64 1
  %337 = ptrtoint i32* %336 to i64
  %338 = sub i64 %289, %307
  %339 = ashr exact i64 %338, 2
  %340 = sub nsw i64 0, %339
  %341 = getelementptr inbounds i32, i32* %332, i64 %340
  %342 = ptrtoint i32* %341 to i64
  %343 = icmp sgt i64 %338, 0
  br i1 %343, label %344, label %347

344:                                              ; preds = %329
  %345 = bitcast i32* %341 to i8*
  %346 = inttoptr i64 %307 to i8*
  tail call void @llvm.memcpy.p0i8.p0i8.i64(i8* align 4 %345, i8* align 4 %346, i64 %338, i1 false) #11
  br label %347

347:                                              ; preds = %344, %329
  store i64 %342, i64* %43, align 8
  store i64 %337, i64* %42, align 8
  store i64 %334, i64* %44, align 8
  %348 = icmp eq i64 %307, 0
  br i1 %348, label %351, label %349

349:                                              ; preds = %347
  %350 = inttoptr i64 %307 to i8*
  tail call void @_ZdlPv(i8* %350) #12
  br label %351

351:                                              ; preds = %349, %347, %301, %288
  %352 = phi i64 [ %337, %349 ], [ %337, %347 ], [ %304, %301 ], [ %289, %288 ]
  %353 = phi i32* [ %336, %349 ], [ %336, %347 ], [ %303, %301 ], [ %290, %288 ]
  %354 = getelementptr inbounds %"class.std::__1::__tree_end_node", %"class.std::__1::__tree_end_node"* %291, i64 1, i32 0
  %355 = load %"class.std::__1::__tree_node_base"*, %"class.std::__1::__tree_node_base"** %354, align 8
  %356 = icmp eq %"class.std::__1::__tree_node_base"* %355, null
  br i1 %356, label %357, label %365

357:                                              ; preds = %351
  %358 = bitcast %"class.std::__1::__tree_end_node"* %291 to %"class.std::__1::__tree_node_base"*
  %359 = getelementptr inbounds %"class.std::__1::__tree_end_node", %"class.std::__1::__tree_end_node"* %291, i64 2
  %360 = bitcast %"class.std::__1::__tree_end_node"* %359 to %"class.std::__1::__tree_end_node"**
  %361 = load %"class.std::__1::__tree_end_node"*, %"class.std::__1::__tree_end_node"** %360, align 8
  %362 = getelementptr inbounds %"class.std::__1::__tree_end_node", %"class.std::__1::__tree_end_node"* %361, i64 0, i32 0
  %363 = load %"class.std::__1::__tree_node_base"*, %"class.std::__1::__tree_node_base"** %362, align 8
  %364 = icmp eq %"class.std::__1::__tree_node_base"* %363, %358
  br i1 %364, label %381, label %372

365:                                              ; preds = %351, %365
  %366 = phi %"class.std::__1::__tree_node_base"* [ %368, %365 ], [ %355, %351 ]
  %367 = getelementptr inbounds %"class.std::__1::__tree_node_base", %"class.std::__1::__tree_node_base"* %366, i64 0, i32 0, i32 0
  %368 = load %"class.std::__1::__tree_node_base"*, %"class.std::__1::__tree_node_base"** %367, align 8
  %369 = icmp eq %"class.std::__1::__tree_node_base"* %368, null
  br i1 %369, label %370, label %365

370:                                              ; preds = %365
  %371 = getelementptr inbounds %"class.std::__1::__tree_node_base", %"class.std::__1::__tree_node_base"* %366, i64 0, i32 0
  br label %381

372:                                              ; preds = %357, %372
  %373 = phi %"class.std::__1::__tree_end_node"** [ %376, %372 ], [ %360, %357 ]
  %374 = bitcast %"class.std::__1::__tree_end_node"** %373 to %"class.std::__1::__tree_node_base"**
  %375 = load %"class.std::__1::__tree_node_base"*, %"class.std::__1::__tree_node_base"** %374, align 8
  %376 = getelementptr inbounds %"class.std::__1::__tree_node_base", %"class.std::__1::__tree_node_base"* %375, i64 0, i32 2
  %377 = load %"class.std::__1::__tree_end_node"*, %"class.std::__1::__tree_end_node"** %376, align 8
  %378 = getelementptr inbounds %"class.std::__1::__tree_end_node", %"class.std::__1::__tree_end_node"* %377, i64 0, i32 0
  %379 = load %"class.std::__1::__tree_node_base"*, %"class.std::__1::__tree_node_base"** %378, align 8
  %380 = icmp eq %"class.std::__1::__tree_node_base"* %379, %375
  br i1 %380, label %381, label %372

381:                                              ; preds = %372, %357, %370
  %382 = phi %"class.std::__1::__tree_end_node"* [ %371, %370 ], [ %361, %357 ], [ %377, %372 ]
  %383 = icmp eq %"class.std::__1::__tree_end_node"* %382, %39
  br i1 %383, label %45, label %288

384:                                              ; preds = %284
  %385 = bitcast %"class.ui::GestureRecognizerImpl"* %0 to %"class.ui::GestureProviderAura"* (%"class.ui::GestureRecognizerImpl"*, %"class.ui::GestureConsumer"*)***
  %386 = load %"class.ui::GestureProviderAura"* (%"class.ui::GestureRecognizerImpl"*, %"class.ui::GestureConsumer"*)**, %"class.ui::GestureProviderAura"* (%"class.ui::GestureRecognizerImpl"*, %"class.ui::GestureConsumer"*)*** %385, align 8
  %387 = getelementptr inbounds %"class.ui::GestureProviderAura"* (%"class.ui::GestureRecognizerImpl"*, %"class.ui::GestureConsumer"*)*, %"class.ui::GestureProviderAura"* (%"class.ui::GestureRecognizerImpl"*, %"class.ui::GestureConsumer"*)** %386, i64 18
  %388 = load %"class.ui::GestureProviderAura"* (%"class.ui::GestureRecognizerImpl"*, %"class.ui::GestureConsumer"*)*, %"class.ui::GestureProviderAura"* (%"class.ui::GestureRecognizerImpl"*, %"class.ui::GestureConsumer"*)** %387, align 8
  %389 = call %"class.ui::GestureProviderAura"* %388(%"class.ui::GestureRecognizerImpl"* %0, %"class.ui::GestureConsumer"* %1) #11
  %390 = load %"class.std::__1::unique_ptr.123"*, %"class.std::__1::unique_ptr.123"** %47, align 8
  %391 = load %"class.std::__1::unique_ptr.123"*, %"class.std::__1::unique_ptr.123"** %48, align 8
  %392 = icmp eq %"class.std::__1::unique_ptr.123"* %390, %391
  br i1 %392, label %409, label %393

393:                                              ; preds = %384, %393
  %394 = phi %"class.std::__1::unique_ptr.123"* [ %407, %393 ], [ %390, %384 ]
  %395 = getelementptr inbounds %"class.std::__1::unique_ptr.123", %"class.std::__1::unique_ptr.123"* %394, i64 0, i32 0, i32 0, i32 0
  %396 = load %"class.ui::TouchEvent"*, %"class.ui::TouchEvent"** %395, align 8
  %397 = getelementptr inbounds %"class.ui::TouchEvent", %"class.ui::TouchEvent"* %396, i64 0, i32 5, i32 8
  %398 = load i32, i32* %397, align 4
  %399 = getelementptr inbounds %"class.ui::TouchEvent", %"class.ui::TouchEvent"* %396, i64 0, i32 0, i32 1, i32 0
  %400 = load float, float* %399, align 4
  %401 = getelementptr inbounds %"class.ui::TouchEvent", %"class.ui::TouchEvent"* %396, i64 0, i32 0, i32 1, i32 1
  %402 = load float, float* %401, align 4
  call void @_ZN2ui19GestureProviderAura12OnTouchEnterEiff(%"class.ui::GestureProviderAura"* %389, i32 %398, float %400, float %402) #11
  %403 = load %"class.ui::TouchEvent"*, %"class.ui::TouchEvent"** %395, align 8
  %404 = load void (%"class.ui::GestureEventHelper"*, %"class.ui::TouchEvent"*)**, void (%"class.ui::GestureEventHelper"*, %"class.ui::TouchEvent"*)*** %30, align 8
  %405 = getelementptr inbounds void (%"class.ui::GestureEventHelper"*, %"class.ui::TouchEvent"*)*, void (%"class.ui::GestureEventHelper"*, %"class.ui::TouchEvent"*)** %404, i64 4
  %406 = load void (%"class.ui::GestureEventHelper"*, %"class.ui::TouchEvent"*)*, void (%"class.ui::GestureEventHelper"*, %"class.ui::TouchEvent"*)** %405, align 8
  call void %406(%"class.ui::GestureEventHelper"* nonnull %31, %"class.ui::TouchEvent"* %403) #11
  %407 = getelementptr inbounds %"class.std::__1::unique_ptr.123", %"class.std::__1::unique_ptr.123"* %394, i64 1
  %408 = icmp eq %"class.std::__1::unique_ptr.123"* %407, %391
  br i1 %408, label %409, label %393

409:                                              ; preds = %393, %384, %284
  %410 = getelementptr inbounds %"class.ui::GestureRecognizerImpl", %"class.ui::GestureRecognizerImpl"* %0, i64 0, i32 2, i32 0, i32 1, i32 0, i32 0
  %411 = bitcast %"class.std::__1::__tree_end_node"* %410 to %"class.std::__1::__tree_node"**
  %412 = load %"class.std::__1::__tree_node"*, %"class.std::__1::__tree_node"** %411, align 8
  %413 = icmp eq %"class.std::__1::__tree_node"* %412, null
  br i1 %413, label %441, label %414

414:                                              ; preds = %409, %414
  %415 = phi %"class.std::__1::__tree_end_node"* [ %425, %414 ], [ %410, %409 ]
  %416 = phi %"class.std::__1::__tree_node"* [ %426, %414 ], [ %412, %409 ]
  %417 = getelementptr inbounds %"class.std::__1::__tree_node", %"class.std::__1::__tree_node"* %416, i64 0, i32 1, i32 0, i32 0
  %418 = load %"class.ui::GestureConsumer"*, %"class.ui::GestureConsumer"** %417, align 8
  %419 = icmp ult %"class.ui::GestureConsumer"* %418, %2
  %420 = getelementptr inbounds %"class.std::__1::__tree_node", %"class.std::__1::__tree_node"* %416, i64 0, i32 0, i32 1
  %421 = bitcast %"class.std::__1::__tree_node_base"** %420 to %"class.std::__1::__tree_node"**
  %422 = getelementptr inbounds %"class.std::__1::__tree_node", %"class.std::__1::__tree_node"* %416, i64 0, i32 0, i32 0
  %423 = bitcast %"class.std::__1::__tree_node"* %416 to %"class.std::__1::__tree_node"**
  %424 = select i1 %419, %"class.std::__1::__tree_node"** %421, %"class.std::__1::__tree_node"** %423
  %425 = select i1 %419, %"class.std::__1::__tree_end_node"* %415, %"class.std::__1::__tree_end_node"* %422
  %426 = load %"class.std::__1::__tree_node"*, %"class.std::__1::__tree_node"** %424, align 8
  %427 = icmp eq %"class.std::__1::__tree_node"* %426, null
  br i1 %427, label %428, label %414

428:                                              ; preds = %414
  %429 = icmp eq %"class.std::__1::__tree_end_node"* %425, %410
  br i1 %429, label %441, label %430

430:                                              ; preds = %428
  %431 = getelementptr inbounds %"class.std::__1::__tree_end_node", %"class.std::__1::__tree_end_node"* %425, i64 4
  %432 = bitcast %"class.std::__1::__tree_end_node"* %431 to %"class.ui::GestureConsumer"**
  %433 = load %"class.ui::GestureConsumer"*, %"class.ui::GestureConsumer"** %432, align 8
  %434 = icmp ugt %"class.ui::GestureConsumer"* %433, %2
  br i1 %434, label %441, label %435

435:                                              ; preds = %430
  %436 = bitcast %"class.ui::GestureRecognizerImpl"* %0 to %"class.ui::GestureProviderAura"* (%"class.ui::GestureRecognizerImpl"*, %"class.ui::GestureConsumer"*)***
  %437 = load %"class.ui::GestureProviderAura"* (%"class.ui::GestureRecognizerImpl"*, %"class.ui::GestureConsumer"*)**, %"class.ui::GestureProviderAura"* (%"class.ui::GestureRecognizerImpl"*, %"class.ui::GestureConsumer"*)*** %436, align 8
  %438 = getelementptr inbounds %"class.ui::GestureProviderAura"* (%"class.ui::GestureRecognizerImpl"*, %"class.ui::GestureConsumer"*)*, %"class.ui::GestureProviderAura"* (%"class.ui::GestureRecognizerImpl"*, %"class.ui::GestureConsumer"*)** %437, i64 18
  %439 = load %"class.ui::GestureProviderAura"* (%"class.ui::GestureRecognizerImpl"*, %"class.ui::GestureConsumer"*)*, %"class.ui::GestureProviderAura"* (%"class.ui::GestureRecognizerImpl"*, %"class.ui::GestureConsumer"*)** %438, align 8
  %440 = call %"class.ui::GestureProviderAura"* %439(%"class.ui::GestureRecognizerImpl"* %0, %"class.ui::GestureConsumer"* %2) #11
  call void @_ZN2ui19GestureProviderAura25ResetGestureHandlingStateEv(%"class.ui::GestureProviderAura"* %440) #11
  br label %441

441:                                              ; preds = %430, %428, %409, %435
  %442 = load i32*, i32** %33, align 8
  %443 = load i32*, i32** %34, align 8
  %444 = icmp eq i32* %442, %443
  br i1 %444, label %451, label %445

445:                                              ; preds = %441
  %446 = bitcast %"class.std::__1::__tree_end_node"* %39 to %"class.std::__1::__tree_node.162"**
  %447 = getelementptr inbounds %"class.ui::GestureRecognizerImpl", %"class.ui::GestureRecognizerImpl"* %0, i64 0, i32 4, i32 0, i32 1, i32 0, i32 0, i32 0
  %448 = getelementptr inbounds %"class.std::__1::__tree_end_node", %"class.std::__1::__tree_end_node"* %39, i64 0, i32 0
  %449 = bitcast %"class.std::__1::map.15"* %36 to i64*
  %450 = getelementptr inbounds %"class.ui::GestureRecognizerImpl", %"class.ui::GestureRecognizerImpl"* %0, i64 0, i32 4, i32 0, i32 2, i32 0, i32 0
  br label %484

451:                                              ; preds = %544, %441
  %452 = load %"class.std::__1::unique_ptr.123"*, %"class.std::__1::unique_ptr.123"** %47, align 8
  %453 = icmp eq %"class.std::__1::unique_ptr.123"* %452, null
  br i1 %453, label %476, label %454

454:                                              ; preds = %451
  %455 = bitcast %"class.std::__1::unique_ptr.123"* %452 to i8*
  %456 = load %"class.std::__1::unique_ptr.123"*, %"class.std::__1::unique_ptr.123"** %48, align 8
  %457 = icmp eq %"class.std::__1::unique_ptr.123"* %456, %452
  br i1 %457, label %474, label %458

458:                                              ; preds = %454, %469
  %459 = phi %"class.std::__1::unique_ptr.123"* [ %460, %469 ], [ %456, %454 ]
  %460 = getelementptr inbounds %"class.std::__1::unique_ptr.123", %"class.std::__1::unique_ptr.123"* %459, i64 -1
  %461 = getelementptr inbounds %"class.std::__1::unique_ptr.123", %"class.std::__1::unique_ptr.123"* %460, i64 0, i32 0, i32 0, i32 0
  %462 = load %"class.ui::TouchEvent"*, %"class.ui::TouchEvent"** %461, align 8
  store %"class.ui::TouchEvent"* null, %"class.ui::TouchEvent"** %461, align 8
  %463 = icmp eq %"class.ui::TouchEvent"* %462, null
  br i1 %463, label %469, label %464

464:                                              ; preds = %458
  %465 = bitcast %"class.ui::TouchEvent"* %462 to void (%"class.ui::TouchEvent"*)***
  %466 = load void (%"class.ui::TouchEvent"*)**, void (%"class.ui::TouchEvent"*)*** %465, align 8
  %467 = getelementptr inbounds void (%"class.ui::TouchEvent"*)*, void (%"class.ui::TouchEvent"*)** %466, i64 1
  %468 = load void (%"class.ui::TouchEvent"*)*, void (%"class.ui::TouchEvent"*)** %467, align 8
  call void %468(%"class.ui::TouchEvent"* nonnull %462) #11
  br label %469

469:                                              ; preds = %464, %458
  %470 = icmp eq %"class.std::__1::unique_ptr.123"* %460, %452
  br i1 %470, label %471, label %458

471:                                              ; preds = %469
  %472 = bitcast %"class.std::__1::vector.121"* %7 to i8**
  %473 = load i8*, i8** %472, align 8
  br label %474

474:                                              ; preds = %471, %454
  %475 = phi i8* [ %473, %471 ], [ %455, %454 ]
  store %"class.std::__1::unique_ptr.123"* %452, %"class.std::__1::unique_ptr.123"** %48, align 8
  call void @_ZdlPv(i8* %475) #12
  br label %476

476:                                              ; preds = %451, %474
  call void @llvm.lifetime.end.p0i8(i64 24, i8* nonnull %46) #11
  %477 = load i32*, i32** %33, align 8
  %478 = icmp eq i32* %477, null
  br i1 %478, label %483, label %479

479:                                              ; preds = %476
  %480 = ptrtoint i32* %477 to i64
  %481 = bitcast i32** %34 to i64*
  store i64 %480, i64* %481, align 8
  %482 = bitcast i32* %477 to i8*
  call void @_ZdlPv(i8* %482) #12
  br label %483

483:                                              ; preds = %476, %479
  call void @llvm.lifetime.end.p0i8(i64 24, i8* nonnull %32) #11
  ret void

484:                                              ; preds = %445, %544
  %485 = phi i32* [ %442, %445 ], [ %548, %544 ]
  %486 = load i32, i32* %485, align 4
  %487 = load %"class.std::__1::__tree_node.162"*, %"class.std::__1::__tree_node.162"** %446, align 8
  %488 = icmp eq %"class.std::__1::__tree_node.162"* %487, null
  br i1 %488, label %515, label %489

489:                                              ; preds = %484, %511
  %490 = phi %"class.std::__1::__tree_node.162"* [ %514, %511 ], [ %487, %484 ]
  %491 = phi %"class.std::__1::__tree_node_base"** [ %513, %511 ], [ %447, %484 ]
  %492 = getelementptr inbounds %"class.std::__1::__tree_node.162", %"class.std::__1::__tree_node.162"* %490, i64 0, i32 1, i32 0, i32 0
  %493 = load i32, i32* %492, align 4
  %494 = icmp slt i32 %486, %493
  br i1 %494, label %495, label %501

495:                                              ; preds = %489
  %496 = getelementptr inbounds %"class.std::__1::__tree_node.162", %"class.std::__1::__tree_node.162"* %490, i64 0, i32 0, i32 0, i32 0
  %497 = load %"class.std::__1::__tree_node_base"*, %"class.std::__1::__tree_node_base"** %496, align 8
  %498 = icmp eq %"class.std::__1::__tree_node_base"* %497, null
  br i1 %498, label %499, label %511

499:                                              ; preds = %495
  %500 = getelementptr inbounds %"class.std::__1::__tree_node.162", %"class.std::__1::__tree_node.162"* %490, i64 0, i32 0, i32 0
  br label %515

501:                                              ; preds = %489
  %502 = icmp slt i32 %493, %486
  br i1 %502, label %503, label %509

503:                                              ; preds = %501
  %504 = getelementptr inbounds %"class.std::__1::__tree_node.162", %"class.std::__1::__tree_node.162"* %490, i64 0, i32 0, i32 1
  %505 = load %"class.std::__1::__tree_node_base"*, %"class.std::__1::__tree_node_base"** %504, align 8
  %506 = icmp eq %"class.std::__1::__tree_node_base"* %505, null
  br i1 %506, label %507, label %511

507:                                              ; preds = %503
  %508 = getelementptr inbounds %"class.std::__1::__tree_node.162", %"class.std::__1::__tree_node.162"* %490, i64 0, i32 0, i32 0
  br label %515

509:                                              ; preds = %501
  %510 = getelementptr inbounds %"class.std::__1::__tree_node.162", %"class.std::__1::__tree_node.162"* %490, i64 0, i32 0, i32 0
  br label %515

511:                                              ; preds = %503, %495
  %512 = phi %"class.std::__1::__tree_node_base"* [ %497, %495 ], [ %505, %503 ]
  %513 = phi %"class.std::__1::__tree_node_base"** [ %496, %495 ], [ %504, %503 ]
  %514 = bitcast %"class.std::__1::__tree_node_base"* %512 to %"class.std::__1::__tree_node.162"*
  br label %489

515:                                              ; preds = %484, %509, %507, %499
  %516 = phi %"class.std::__1::__tree_end_node"* [ %500, %499 ], [ %508, %507 ], [ %510, %509 ], [ %39, %484 ]
  %517 = phi %"class.std::__1::__tree_node_base"** [ %496, %499 ], [ %504, %507 ], [ %491, %509 ], [ %448, %484 ]
  %518 = bitcast %"class.std::__1::__tree_node_base"** %517 to %"class.std::__1::__tree_node.162"**
  %519 = load %"class.std::__1::__tree_node.162"*, %"class.std::__1::__tree_node.162"** %518, align 8
  %520 = icmp eq %"class.std::__1::__tree_node.162"* %519, null
  br i1 %520, label %521, label %544

521:                                              ; preds = %515
  %522 = call i8* @_Znwm(i64 48) #12, !noalias !17
  %523 = getelementptr inbounds i8, i8* %522, i64 32
  %524 = bitcast i8* %523 to i32*
  store i32 %486, i32* %524, align 8, !noalias !17
  %525 = getelementptr inbounds i8, i8* %522, i64 40
  %526 = bitcast i8* %525 to %"class.ui::GestureConsumer"**
  store %"class.ui::GestureConsumer"* null, %"class.ui::GestureConsumer"** %526, align 8, !noalias !17
  %527 = bitcast i8* %522 to %"class.std::__1::__tree_node.162"*
  %528 = bitcast i8* %522 to %"class.std::__1::__tree_node_base"*
  %529 = getelementptr inbounds i8, i8* %522, i64 16
  %530 = bitcast i8* %529 to %"class.std::__1::__tree_end_node"**
  call void @llvm.memset.p0i8.i64(i8* nonnull align 8 %522, i8 0, i64 16, i1 false) #11
  store %"class.std::__1::__tree_end_node"* %516, %"class.std::__1::__tree_end_node"** %530, align 8
  %531 = bitcast %"class.std::__1::__tree_node_base"** %517 to i8**
  store i8* %522, i8** %531, align 8
  %532 = load %"class.std::__1::__tree_end_node"*, %"class.std::__1::__tree_end_node"** %37, align 8
  %533 = getelementptr inbounds %"class.std::__1::__tree_end_node", %"class.std::__1::__tree_end_node"* %532, i64 0, i32 0
  %534 = load %"class.std::__1::__tree_node_base"*, %"class.std::__1::__tree_node_base"** %533, align 8
  %535 = icmp eq %"class.std::__1::__tree_node_base"* %534, null
  br i1 %535, label %539, label %536

536:                                              ; preds = %521
  %537 = ptrtoint %"class.std::__1::__tree_node_base"* %534 to i64
  store i64 %537, i64* %449, align 8
  %538 = load %"class.std::__1::__tree_node_base"*, %"class.std::__1::__tree_node_base"** %517, align 8
  br label %539

539:                                              ; preds = %536, %521
  %540 = phi %"class.std::__1::__tree_node_base"* [ %528, %521 ], [ %538, %536 ]
  %541 = load %"class.std::__1::__tree_node_base"*, %"class.std::__1::__tree_node_base"** %447, align 8
  call void @_ZNSt3__127__tree_balance_after_insertIPNS_16__tree_node_baseIPvEEEEvT_S5_(%"class.std::__1::__tree_node_base"* %541, %"class.std::__1::__tree_node_base"* %540) #11
  %542 = load i64, i64* %450, align 8
  %543 = add i64 %542, 1
  store i64 %543, i64* %450, align 8
  br label %544

544:                                              ; preds = %515, %539
  %545 = phi %"class.std::__1::__tree_node.162"* [ %527, %539 ], [ %519, %515 ]
  %546 = getelementptr inbounds %"class.std::__1::__tree_node.162", %"class.std::__1::__tree_node.162"* %545, i64 0, i32 1, i32 0, i32 1
  %547 = bitcast %"class.ui::GestureConsumer"** %546 to i64*
  store i64 %8, i64* %547, align 8
  %548 = getelementptr inbounds i32, i32* %485, i64 1
  %549 = icmp eq i32* %548, %443
  br i1 %549, label %451, label %484
}

; Function Attrs: nounwind ssp uwtable
define hidden %"class.ui::GestureEventHelper"* @_ZN2ui21GestureRecognizerImpl29FindDispatchHelperForConsumerEPNS_15GestureConsumerE(%"class.ui::GestureRecognizerImpl"* nocapture readonly, %"class.ui::GestureConsumer"*) local_unnamed_addr #0 align 2 {
  %3 = getelementptr inbounds %"class.ui::GestureRecognizerImpl", %"class.ui::GestureRecognizerImpl"* %0, i64 0, i32 5, i32 0, i32 0
  %4 = load %"class.ui::GestureEventHelper"**, %"class.ui::GestureEventHelper"*** %3, align 8
  %5 = getelementptr inbounds %"class.ui::GestureRecognizerImpl", %"class.ui::GestureRecognizerImpl"* %0, i64 0, i32 5, i32 0, i32 1
  %6 = load %"class.ui::GestureEventHelper"**, %"class.ui::GestureEventHelper"*** %5, align 8
  %7 = icmp eq %"class.ui::GestureEventHelper"** %4, %6
  br i1 %7, label %22, label %8

8:                                                ; preds = %2, %18
  %9 = phi %"class.ui::GestureEventHelper"** [ %19, %18 ], [ %4, %2 ]
  %10 = load %"class.ui::GestureEventHelper"*, %"class.ui::GestureEventHelper"** %9, align 8
  %11 = bitcast %"class.ui::GestureEventHelper"* %10 to i1 (%"class.ui::GestureEventHelper"*, %"class.ui::GestureConsumer"*)***
  %12 = load i1 (%"class.ui::GestureEventHelper"*, %"class.ui::GestureConsumer"*)**, i1 (%"class.ui::GestureEventHelper"*, %"class.ui::GestureConsumer"*)*** %11, align 8
  %13 = getelementptr inbounds i1 (%"class.ui::GestureEventHelper"*, %"class.ui::GestureConsumer"*)*, i1 (%"class.ui::GestureEventHelper"*, %"class.ui::GestureConsumer"*)** %12, i64 2
  %14 = load i1 (%"class.ui::GestureEventHelper"*, %"class.ui::GestureConsumer"*)*, i1 (%"class.ui::GestureEventHelper"*, %"class.ui::GestureConsumer"*)** %13, align 8
  %15 = tail call zeroext i1 %14(%"class.ui::GestureEventHelper"* %10, %"class.ui::GestureConsumer"* %1) #11
  br i1 %15, label %16, label %18

16:                                               ; preds = %8
  %17 = load %"class.ui::GestureEventHelper"*, %"class.ui::GestureEventHelper"** %9, align 8
  br label %22

18:                                               ; preds = %8
  %19 = getelementptr inbounds %"class.ui::GestureEventHelper"*, %"class.ui::GestureEventHelper"** %9, i64 1
  %20 = load %"class.ui::GestureEventHelper"**, %"class.ui::GestureEventHelper"*** %5, align 8
  %21 = icmp eq %"class.ui::GestureEventHelper"** %19, %20
  br i1 %21, label %22, label %8

22:                                               ; preds = %18, %2, %16
  %23 = phi %"class.ui::GestureEventHelper"* [ %17, %16 ], [ null, %2 ], [ null, %18 ]
  ret %"class.ui::GestureEventHelper"* %23
}

; Function Attrs: nounwind ssp uwtable
define hidden void @_ZN2ui21GestureRecognizerImpl27GetEventPerPointForConsumerEPNS_15GestureConsumerENS_9EventTypeE(%"class.std::__1::vector.121"* noalias sret, %"class.ui::GestureRecognizerImpl"*, %"class.ui::GestureConsumer"*, i32) local_unnamed_addr #0 align 2 {
  %5 = alloca %"class.std::__1::unique_ptr.123", align 8
  %6 = alloca %"class.gfx::Point", align 4
  %7 = alloca %"struct.ui::PointerDetails", align 4
  %8 = ptrtoint %"class.ui::GestureConsumer"* %2 to i64
  %9 = getelementptr inbounds %"class.std::__1::vector.121", %"class.std::__1::vector.121"* %0, i64 0, i32 0, i32 1
  %10 = getelementptr inbounds %"class.std::__1::vector.121", %"class.std::__1::vector.121"* %0, i64 0, i32 0, i32 2, i32 0, i32 0
  %11 = bitcast %"class.std::__1::vector.121"* %0 to i8*
  tail call void @llvm.memset.p0i8.i64(i8* align 8 %11, i8 0, i64 24, i1 false) #11
  %12 = getelementptr inbounds %"class.ui::GestureRecognizerImpl", %"class.ui::GestureRecognizerImpl"* %1, i64 0, i32 2
  %13 = getelementptr inbounds %"class.ui::GestureRecognizerImpl", %"class.ui::GestureRecognizerImpl"* %1, i64 0, i32 2, i32 0, i32 2, i32 0, i32 0
  %14 = load i64, i64* %13, align 8
  %15 = icmp eq i64 %14, 0
  br i1 %15, label %171, label %16

16:                                               ; preds = %4
  %17 = getelementptr inbounds %"class.ui::GestureRecognizerImpl", %"class.ui::GestureRecognizerImpl"* %1, i64 0, i32 2, i32 0, i32 1, i32 0, i32 0
  %18 = bitcast %"class.std::__1::__tree_end_node"* %17 to %"class.std::__1::__tree_node"**
  %19 = load %"class.std::__1::__tree_node"*, %"class.std::__1::__tree_node"** %18, align 8
  %20 = icmp eq %"class.std::__1::__tree_node"* %19, null
  br i1 %20, label %171, label %21

21:                                               ; preds = %16, %21
  %22 = phi %"class.std::__1::__tree_end_node"* [ %32, %21 ], [ %17, %16 ]
  %23 = phi %"class.std::__1::__tree_node"* [ %33, %21 ], [ %19, %16 ]
  %24 = getelementptr inbounds %"class.std::__1::__tree_node", %"class.std::__1::__tree_node"* %23, i64 0, i32 1, i32 0, i32 0
  %25 = load %"class.ui::GestureConsumer"*, %"class.ui::GestureConsumer"** %24, align 8
  %26 = icmp ult %"class.ui::GestureConsumer"* %25, %2
  %27 = getelementptr inbounds %"class.std::__1::__tree_node", %"class.std::__1::__tree_node"* %23, i64 0, i32 0, i32 1
  %28 = bitcast %"class.std::__1::__tree_node_base"** %27 to %"class.std::__1::__tree_node"**
  %29 = getelementptr inbounds %"class.std::__1::__tree_node", %"class.std::__1::__tree_node"* %23, i64 0, i32 0, i32 0
  %30 = bitcast %"class.std::__1::__tree_node"* %23 to %"class.std::__1::__tree_node"**
  %31 = select i1 %26, %"class.std::__1::__tree_node"** %28, %"class.std::__1::__tree_node"** %30
  %32 = select i1 %26, %"class.std::__1::__tree_end_node"* %22, %"class.std::__1::__tree_end_node"* %29
  %33 = load %"class.std::__1::__tree_node"*, %"class.std::__1::__tree_node"** %31, align 8
  %34 = icmp eq %"class.std::__1::__tree_node"* %33, null
  br i1 %34, label %35, label %21

35:                                               ; preds = %21
  %36 = icmp eq %"class.std::__1::__tree_end_node"* %32, %17
  br i1 %36, label %171, label %37

37:                                               ; preds = %35
  %38 = getelementptr inbounds %"class.std::__1::__tree_end_node", %"class.std::__1::__tree_end_node"* %32, i64 4
  %39 = bitcast %"class.std::__1::__tree_end_node"* %38 to %"class.ui::GestureConsumer"**
  %40 = load %"class.ui::GestureConsumer"*, %"class.ui::GestureConsumer"** %39, align 8
  %41 = icmp ugt %"class.ui::GestureConsumer"* %40, %2
  br i1 %41, label %171, label %42

42:                                               ; preds = %37
  %43 = getelementptr inbounds %"class.ui::GestureRecognizerImpl", %"class.ui::GestureRecognizerImpl"* %1, i64 0, i32 2, i32 0, i32 1, i32 0, i32 0, i32 0
  br label %44

44:                                               ; preds = %60, %42
  %45 = phi %"class.std::__1::__tree_node"* [ %63, %60 ], [ %19, %42 ]
  %46 = phi %"class.std::__1::__tree_node_base"** [ %62, %60 ], [ %43, %42 ]
  %47 = getelementptr inbounds %"class.std::__1::__tree_node", %"class.std::__1::__tree_node"* %45, i64 0, i32 1, i32 0, i32 0
  %48 = load %"class.ui::GestureConsumer"*, %"class.ui::GestureConsumer"** %47, align 8
  %49 = icmp ugt %"class.ui::GestureConsumer"* %48, %2
  br i1 %49, label %50, label %54

50:                                               ; preds = %44
  %51 = getelementptr inbounds %"class.std::__1::__tree_node", %"class.std::__1::__tree_node"* %45, i64 0, i32 0, i32 0, i32 0
  %52 = load %"class.std::__1::__tree_node_base"*, %"class.std::__1::__tree_node_base"** %51, align 8
  %53 = icmp eq %"class.std::__1::__tree_node_base"* %52, null
  br i1 %53, label %64, label %60

54:                                               ; preds = %44
  %55 = icmp ult %"class.ui::GestureConsumer"* %48, %2
  br i1 %55, label %56, label %64

56:                                               ; preds = %54
  %57 = getelementptr inbounds %"class.std::__1::__tree_node", %"class.std::__1::__tree_node"* %45, i64 0, i32 0, i32 1
  %58 = load %"class.std::__1::__tree_node_base"*, %"class.std::__1::__tree_node_base"** %57, align 8
  %59 = icmp eq %"class.std::__1::__tree_node_base"* %58, null
  br i1 %59, label %64, label %60

60:                                               ; preds = %56, %50
  %61 = phi %"class.std::__1::__tree_node_base"* [ %52, %50 ], [ %58, %56 ]
  %62 = phi %"class.std::__1::__tree_node_base"** [ %51, %50 ], [ %57, %56 ]
  %63 = bitcast %"class.std::__1::__tree_node_base"* %61 to %"class.std::__1::__tree_node"*
  br label %44

64:                                               ; preds = %54, %56, %50
  %65 = phi %"class.std::__1::__tree_node_base"** [ %51, %50 ], [ %57, %56 ], [ %46, %54 ]
  %66 = bitcast %"class.std::__1::__tree_node_base"** %65 to %"class.std::__1::__tree_node"**
  %67 = load %"class.std::__1::__tree_node"*, %"class.std::__1::__tree_node"** %66, align 8
  %68 = icmp eq %"class.std::__1::__tree_node"* %67, null
  br i1 %68, label %69, label %96

69:                                               ; preds = %64
  %70 = getelementptr inbounds %"class.std::__1::__tree_node", %"class.std::__1::__tree_node"* %45, i64 0, i32 0, i32 0
  %71 = tail call i8* @_Znwm(i64 48) #12, !noalias !20
  %72 = getelementptr inbounds i8, i8* %71, i64 32
  %73 = bitcast i8* %72 to i64*
  store i64 %8, i64* %73, align 8, !noalias !20
  %74 = getelementptr inbounds i8, i8* %71, i64 40
  %75 = bitcast i8* %74 to i64*
  store i64 0, i64* %75, align 8, !noalias !20
  %76 = bitcast i8* %71 to %"class.std::__1::__tree_node"*
  %77 = bitcast i8* %71 to %"class.std::__1::__tree_node_base"*
  %78 = getelementptr inbounds i8, i8* %71, i64 16
  %79 = bitcast i8* %78 to %"class.std::__1::__tree_end_node"**
  tail call void @llvm.memset.p0i8.i64(i8* nonnull align 8 %71, i8 0, i64 16, i1 false) #11
  store %"class.std::__1::__tree_end_node"* %70, %"class.std::__1::__tree_end_node"** %79, align 8
  %80 = bitcast %"class.std::__1::__tree_node_base"** %65 to i8**
  store i8* %71, i8** %80, align 8
  %81 = getelementptr inbounds %"class.std::__1::map", %"class.std::__1::map"* %12, i64 0, i32 0, i32 0
  %82 = load %"class.std::__1::__tree_end_node"*, %"class.std::__1::__tree_end_node"** %81, align 8
  %83 = getelementptr inbounds %"class.std::__1::__tree_end_node", %"class.std::__1::__tree_end_node"* %82, i64 0, i32 0
  %84 = load %"class.std::__1::__tree_node_base"*, %"class.std::__1::__tree_node_base"** %83, align 8
  %85 = icmp eq %"class.std::__1::__tree_node_base"* %84, null
  br i1 %85, label %90, label %86

86:                                               ; preds = %69
  %87 = ptrtoint %"class.std::__1::__tree_node_base"* %84 to i64
  %88 = bitcast %"class.std::__1::map"* %12 to i64*
  store i64 %87, i64* %88, align 8
  %89 = load %"class.std::__1::__tree_node_base"*, %"class.std::__1::__tree_node_base"** %65, align 8
  br label %90

90:                                               ; preds = %86, %69
  %91 = phi %"class.std::__1::__tree_node_base"* [ %77, %69 ], [ %89, %86 ]
  %92 = getelementptr inbounds %"class.ui::GestureRecognizerImpl", %"class.ui::GestureRecognizerImpl"* %1, i64 0, i32 2, i32 0, i32 1, i32 0, i32 0, i32 0
  %93 = load %"class.std::__1::__tree_node_base"*, %"class.std::__1::__tree_node_base"** %92, align 8
  tail call void @_ZNSt3__127__tree_balance_after_insertIPNS_16__tree_node_baseIPvEEEEvT_S5_(%"class.std::__1::__tree_node_base"* %93, %"class.std::__1::__tree_node_base"* %91) #11
  %94 = load i64, i64* %13, align 8
  %95 = add i64 %94, 1
  store i64 %95, i64* %13, align 8
  br label %96

96:                                               ; preds = %64, %90
  %97 = phi %"class.std::__1::__tree_node"* [ %76, %90 ], [ %67, %64 ]
  %98 = getelementptr inbounds %"class.std::__1::__tree_node", %"class.std::__1::__tree_node"* %97, i64 0, i32 1, i32 0, i32 1, i32 0, i32 0, i32 0
  %99 = load %"class.ui::GestureProviderAura"*, %"class.ui::GestureProviderAura"** %98, align 8
  %100 = getelementptr inbounds %"class.ui::GestureProviderAura", %"class.ui::GestureProviderAura"* %99, i64 0, i32 2
  %101 = getelementptr inbounds %"class.ui::MotionEventAura", %"class.ui::MotionEventAura"* %100, i64 0, i32 0
  %102 = bitcast %"class.ui::MotionEventAura"* %100 to i64 (%"class.ui::MotionEventGeneric"*)***
  %103 = load i64 (%"class.ui::MotionEventGeneric"*)**, i64 (%"class.ui::MotionEventGeneric"*)*** %102, align 8
  %104 = getelementptr inbounds i64 (%"class.ui::MotionEventGeneric"*)*, i64 (%"class.ui::MotionEventGeneric"*)** %103, i64 5
  %105 = load i64 (%"class.ui::MotionEventGeneric"*)*, i64 (%"class.ui::MotionEventGeneric"*)** %104, align 8
  %106 = tail call i64 %105(%"class.ui::MotionEventGeneric"* %101) #11
  %107 = icmp eq i64 %106, 0
  br i1 %107, label %171, label %108

108:                                              ; preds = %96
  %109 = load i64 (%"class.ui::MotionEventGeneric"*)**, i64 (%"class.ui::MotionEventGeneric"*)*** %102, align 8
  %110 = getelementptr inbounds i64 (%"class.ui::MotionEventGeneric"*)*, i64 (%"class.ui::MotionEventGeneric"*)** %109, i64 5
  %111 = load i64 (%"class.ui::MotionEventGeneric"*)*, i64 (%"class.ui::MotionEventGeneric"*)** %110, align 8
  %112 = call i64 %111(%"class.ui::MotionEventGeneric"* %101) #11
  %113 = icmp eq i64 %112, 0
  br i1 %113, label %171, label %114

114:                                              ; preds = %108
  %115 = bitcast %"class.std::__1::unique_ptr.123"* %5 to i8*
  %116 = getelementptr inbounds %"class.std::__1::unique_ptr.123", %"class.std::__1::unique_ptr.123"* %5, i64 0, i32 0, i32 0, i32 0
  %117 = bitcast %"class.gfx::Point"* %6 to i8*
  %118 = getelementptr inbounds %"class.gfx::Point", %"class.gfx::Point"* %6, i64 0, i32 0
  %119 = getelementptr inbounds %"class.gfx::Point", %"class.gfx::Point"* %6, i64 0, i32 1
  %120 = bitcast %"struct.ui::PointerDetails"* %7 to i8*
  %121 = bitcast %"class.ui::MotionEventAura"* %100 to i32 (%"class.ui::MotionEventGeneric"*, i64)***
  %122 = bitcast %"class.std::__1::unique_ptr.123"* %5 to i8**
  %123 = bitcast %"class.ui::MotionEventAura"* %100 to float (%"class.ui::MotionEventGeneric"*, i64)***
  %124 = bitcast %"class.std::__1::unique_ptr.123"** %9 to i64*
  br label %125

125:                                              ; preds = %114, %164
  %126 = phi i64 [ 0, %114 ], [ %165, %164 ]
  call void @llvm.lifetime.start.p0i8(i64 8, i8* nonnull %115) #11
  store %"class.ui::TouchEvent"* inttoptr (i64 -6148914691236517206 to %"class.ui::TouchEvent"*), %"class.ui::TouchEvent"** %116, align 8
  call void @llvm.lifetime.start.p0i8(i64 8, i8* nonnull %117) #11
  store i32 0, i32* %118, align 4
  store i32 0, i32* %119, align 4
  %127 = call i64 @_ZN2ui15EventTimeForNowEv() #11
  call void @llvm.lifetime.start.p0i8(i64 44, i8* nonnull %120) #11
  %128 = load i32 (%"class.ui::MotionEventGeneric"*, i64)**, i32 (%"class.ui::MotionEventGeneric"*, i64)*** %121, align 8
  %129 = getelementptr inbounds i32 (%"class.ui::MotionEventGeneric"*, i64)*, i32 (%"class.ui::MotionEventGeneric"*, i64)** %128, i64 6
  %130 = load i32 (%"class.ui::MotionEventGeneric"*, i64)*, i32 (%"class.ui::MotionEventGeneric"*, i64)** %129, align 8
  %131 = call i32 %130(%"class.ui::MotionEventGeneric"* %101, i64 %126) #11
  call void @_ZN2ui14PointerDetailsC1ENS_16EventPointerTypeEi(%"struct.ui::PointerDetails"* nonnull %7, i32 3, i32 %131) #11
  %132 = call i8* @_Znwm(i64 216) #12
  %133 = bitcast i8* %132 to %"class.ui::TouchEvent"*
  call void @_ZN2ui10TouchEventC1ENS_9EventTypeERKN3gfx5PointEN4base9TimeTicksERKNS_14PointerDetailsEi(%"class.ui::TouchEvent"* nonnull %133, i32 %3, %"class.gfx::Point"* nonnull dereferenceable(8) %6, i64 %127, %"struct.ui::PointerDetails"* nonnull dereferenceable(44) %7, i32 1) #11
  store i8* %132, i8** %122, align 8
  call void @llvm.lifetime.end.p0i8(i64 44, i8* nonnull %120) #11
  call void @llvm.lifetime.end.p0i8(i64 8, i8* nonnull %117) #11
  %134 = load float (%"class.ui::MotionEventGeneric"*, i64)**, float (%"class.ui::MotionEventGeneric"*, i64)*** %123, align 8
  %135 = getelementptr inbounds float (%"class.ui::MotionEventGeneric"*, i64)*, float (%"class.ui::MotionEventGeneric"*, i64)** %134, i64 7
  %136 = load float (%"class.ui::MotionEventGeneric"*, i64)*, float (%"class.ui::MotionEventGeneric"*, i64)** %135, align 8
  %137 = call float %136(%"class.ui::MotionEventGeneric"* %101, i64 %126) #11
  %138 = load float (%"class.ui::MotionEventGeneric"*, i64)**, float (%"class.ui::MotionEventGeneric"*, i64)*** %123, align 8
  %139 = getelementptr inbounds float (%"class.ui::MotionEventGeneric"*, i64)*, float (%"class.ui::MotionEventGeneric"*, i64)** %138, i64 8
  %140 = load float (%"class.ui::MotionEventGeneric"*, i64)*, float (%"class.ui::MotionEventGeneric"*, i64)** %139, align 8
  %141 = call float %140(%"class.ui::MotionEventGeneric"* %101, i64 %126) #11
  %142 = load %"class.ui::TouchEvent"*, %"class.ui::TouchEvent"** %116, align 8
  %143 = getelementptr inbounds %"class.ui::TouchEvent", %"class.ui::TouchEvent"* %142, i64 0, i32 0, i32 1, i32 0
  store float %137, float* %143, align 8
  %144 = getelementptr inbounds %"class.ui::TouchEvent", %"class.ui::TouchEvent"* %142, i64 0, i32 0, i32 1, i32 1
  store float %141, float* %144, align 4
  %145 = getelementptr inbounds %"class.ui::TouchEvent", %"class.ui::TouchEvent"* %142, i64 0, i32 0, i32 2, i32 0
  store float %137, float* %145, align 8
  %146 = getelementptr inbounds %"class.ui::TouchEvent", %"class.ui::TouchEvent"* %142, i64 0, i32 0, i32 2, i32 1
  store float %141, float* %146, align 4
  %147 = load %"class.std::__1::unique_ptr.123"*, %"class.std::__1::unique_ptr.123"** %9, align 8
  %148 = load %"class.std::__1::unique_ptr.123"*, %"class.std::__1::unique_ptr.123"** %10, align 8
  %149 = icmp ult %"class.std::__1::unique_ptr.123"* %147, %148
  br i1 %149, label %150, label %155

150:                                              ; preds = %125
  %151 = ptrtoint %"class.ui::TouchEvent"* %142 to i64
  store %"class.ui::TouchEvent"* null, %"class.ui::TouchEvent"** %116, align 8
  %152 = bitcast %"class.std::__1::unique_ptr.123"* %147 to i64*
  store i64 %151, i64* %152, align 8
  %153 = getelementptr inbounds %"class.std::__1::unique_ptr.123", %"class.std::__1::unique_ptr.123"* %147, i64 1
  %154 = ptrtoint %"class.std::__1::unique_ptr.123"* %153 to i64
  store i64 %154, i64* %124, align 8
  br label %156

155:                                              ; preds = %125
  call void @_ZNSt3__16vectorINS_10unique_ptrIN2ui10TouchEventENS_14default_deleteIS3_EEEENS_9allocatorIS6_EEE21__push_back_slow_pathIS6_EEvOT_(%"class.std::__1::vector.121"* %0, %"class.std::__1::unique_ptr.123"* nonnull dereferenceable(8) %5) #11
  br label %156

156:                                              ; preds = %150, %155
  %157 = load %"class.ui::TouchEvent"*, %"class.ui::TouchEvent"** %116, align 8
  store %"class.ui::TouchEvent"* null, %"class.ui::TouchEvent"** %116, align 8
  %158 = icmp eq %"class.ui::TouchEvent"* %157, null
  br i1 %158, label %164, label %159

159:                                              ; preds = %156
  %160 = bitcast %"class.ui::TouchEvent"* %157 to void (%"class.ui::TouchEvent"*)***
  %161 = load void (%"class.ui::TouchEvent"*)**, void (%"class.ui::TouchEvent"*)*** %160, align 8
  %162 = getelementptr inbounds void (%"class.ui::TouchEvent"*)*, void (%"class.ui::TouchEvent"*)** %161, i64 1
  %163 = load void (%"class.ui::TouchEvent"*)*, void (%"class.ui::TouchEvent"*)** %162, align 8
  call void %163(%"class.ui::TouchEvent"* nonnull %157) #11
  br label %164

164:                                              ; preds = %156, %159
  call void @llvm.lifetime.end.p0i8(i64 8, i8* nonnull %115) #11
  %165 = add nuw i64 %126, 1
  %166 = load i64 (%"class.ui::MotionEventGeneric"*)**, i64 (%"class.ui::MotionEventGeneric"*)*** %102, align 8
  %167 = getelementptr inbounds i64 (%"class.ui::MotionEventGeneric"*)*, i64 (%"class.ui::MotionEventGeneric"*)** %166, i64 5
  %168 = load i64 (%"class.ui::MotionEventGeneric"*)*, i64 (%"class.ui::MotionEventGeneric"*)** %167, align 8
  %169 = call i64 %168(%"class.ui::MotionEventGeneric"* %101) #11
  %170 = icmp ult i64 %165, %169
  br i1 %170, label %125, label %171

171:                                              ; preds = %164, %108, %37, %35, %16, %4, %96
  ret void
}

declare void @_ZN2ui19GestureProviderAura12OnTouchEnterEiff(%"class.ui::GestureProviderAura"*, i32, float, float) local_unnamed_addr #1

declare void @_ZN2ui19GestureProviderAura25ResetGestureHandlingStateEv(%"class.ui::GestureProviderAura"*) local_unnamed_addr #1

; Function Attrs: nounwind ssp uwtable
define hidden void @_ZN2ui21GestureRecognizerImpl14ExtractTouchesEPNS_15GestureConsumerE(%"class.std::__1::vector.121"* noalias sret, %"class.ui::GestureRecognizerImpl"*, %"class.ui::GestureConsumer"*) unnamed_addr #0 align 2 {
  %4 = bitcast %"class.std::__1::vector.121"* %0 to i8*
  call void @llvm.memset.p0i8.i64(i8* align 8 %4, i8 -86, i64 24, i1 false)
  tail call void @_ZN2ui21GestureRecognizerImpl27GetEventPerPointForConsumerEPNS_15GestureConsumerENS_9EventTypeE(%"class.std::__1::vector.121"* sret %0, %"class.ui::GestureRecognizerImpl"* %1, %"class.ui::GestureConsumer"* %2, i32 12)
  ret void
}

; Function Attrs: nounwind ssp uwtable
define hidden void @_ZN2ui21GestureRecognizerImpl15TransferTouchesEPNS_15GestureConsumerERKNSt3__16vectorINS3_10unique_ptrINS_10TouchEventENS3_14default_deleteIS6_EEEENS3_9allocatorIS9_EEEE(%"class.ui::GestureRecognizerImpl"* nocapture readonly, %"class.ui::GestureConsumer"*, %"class.std::__1::vector.121"* nocapture readonly dereferenceable(24)) unnamed_addr #0 align 2 {
  %4 = getelementptr inbounds %"class.ui::GestureRecognizerImpl", %"class.ui::GestureRecognizerImpl"* %0, i64 0, i32 5, i32 0, i32 0
  %5 = load %"class.ui::GestureEventHelper"**, %"class.ui::GestureEventHelper"*** %4, align 8
  %6 = getelementptr inbounds %"class.ui::GestureRecognizerImpl", %"class.ui::GestureRecognizerImpl"* %0, i64 0, i32 5, i32 0, i32 1
  %7 = load %"class.ui::GestureEventHelper"**, %"class.ui::GestureEventHelper"*** %6, align 8
  %8 = icmp eq %"class.ui::GestureEventHelper"** %5, %7
  br i1 %8, label %24, label %9

9:                                                ; preds = %3, %20
  %10 = phi %"class.ui::GestureEventHelper"** [ %21, %20 ], [ %5, %3 ]
  %11 = load %"class.ui::GestureEventHelper"*, %"class.ui::GestureEventHelper"** %10, align 8
  %12 = bitcast %"class.ui::GestureEventHelper"* %11 to i1 (%"class.ui::GestureEventHelper"*, %"class.ui::GestureConsumer"*)***
  %13 = load i1 (%"class.ui::GestureEventHelper"*, %"class.ui::GestureConsumer"*)**, i1 (%"class.ui::GestureEventHelper"*, %"class.ui::GestureConsumer"*)*** %12, align 8
  %14 = getelementptr inbounds i1 (%"class.ui::GestureEventHelper"*, %"class.ui::GestureConsumer"*)*, i1 (%"class.ui::GestureEventHelper"*, %"class.ui::GestureConsumer"*)** %13, i64 2
  %15 = load i1 (%"class.ui::GestureEventHelper"*, %"class.ui::GestureConsumer"*)*, i1 (%"class.ui::GestureEventHelper"*, %"class.ui::GestureConsumer"*)** %14, align 8
  %16 = tail call zeroext i1 %15(%"class.ui::GestureEventHelper"* %11, %"class.ui::GestureConsumer"* %1) #11
  br i1 %16, label %17, label %20

17:                                               ; preds = %9
  %18 = load %"class.ui::GestureEventHelper"*, %"class.ui::GestureEventHelper"** %10, align 8
  %19 = bitcast %"class.ui::GestureEventHelper"* %18 to void (%"class.ui::GestureEventHelper"*, %"class.ui::TouchEvent"*)***
  br label %24

20:                                               ; preds = %9
  %21 = getelementptr inbounds %"class.ui::GestureEventHelper"*, %"class.ui::GestureEventHelper"** %10, i64 1
  %22 = load %"class.ui::GestureEventHelper"**, %"class.ui::GestureEventHelper"*** %6, align 8
  %23 = icmp eq %"class.ui::GestureEventHelper"** %21, %22
  br i1 %23, label %24, label %9

24:                                               ; preds = %20, %3, %17
  %25 = phi void (%"class.ui::GestureEventHelper"*, %"class.ui::TouchEvent"*)*** [ %19, %17 ], [ null, %3 ], [ null, %20 ]
  %26 = phi %"class.ui::GestureEventHelper"* [ %18, %17 ], [ null, %3 ], [ null, %20 ]
  %27 = getelementptr inbounds %"class.std::__1::vector.121", %"class.std::__1::vector.121"* %2, i64 0, i32 0, i32 0
  %28 = load %"class.std::__1::unique_ptr.123"*, %"class.std::__1::unique_ptr.123"** %27, align 8
  %29 = getelementptr inbounds %"class.std::__1::vector.121", %"class.std::__1::vector.121"* %2, i64 0, i32 0, i32 1
  %30 = load %"class.std::__1::unique_ptr.123"*, %"class.std::__1::unique_ptr.123"** %29, align 8
  %31 = icmp eq %"class.std::__1::unique_ptr.123"* %28, %30
  br i1 %31, label %32, label %33

32:                                               ; preds = %33, %24
  ret void

33:                                               ; preds = %24, %33
  %34 = phi %"class.std::__1::unique_ptr.123"* [ %40, %33 ], [ %28, %24 ]
  %35 = getelementptr inbounds %"class.std::__1::unique_ptr.123", %"class.std::__1::unique_ptr.123"* %34, i64 0, i32 0, i32 0, i32 0
  %36 = load %"class.ui::TouchEvent"*, %"class.ui::TouchEvent"** %35, align 8
  %37 = load void (%"class.ui::GestureEventHelper"*, %"class.ui::TouchEvent"*)**, void (%"class.ui::GestureEventHelper"*, %"class.ui::TouchEvent"*)*** %25, align 8
  %38 = getelementptr inbounds void (%"class.ui::GestureEventHelper"*, %"class.ui::TouchEvent"*)*, void (%"class.ui::GestureEventHelper"*, %"class.ui::TouchEvent"*)** %37, i64 4
  %39 = load void (%"class.ui::GestureEventHelper"*, %"class.ui::TouchEvent"*)*, void (%"class.ui::GestureEventHelper"*, %"class.ui::TouchEvent"*)** %38, align 8
  tail call void %39(%"class.ui::GestureEventHelper"* %26, %"class.ui::TouchEvent"* %36) #11
  %40 = getelementptr inbounds %"class.std::__1::unique_ptr.123", %"class.std::__1::unique_ptr.123"* %34, i64 1
  %41 = icmp eq %"class.std::__1::unique_ptr.123"* %40, %30
  br i1 %41, label %32, label %33
}

; Function Attrs: nounwind ssp uwtable
define hidden zeroext i1 @_ZN2ui21GestureRecognizerImpl26GetLastTouchPointForTargetEPNS_15GestureConsumerEPN3gfx6PointFE(%"class.ui::GestureRecognizerImpl"*, %"class.ui::GestureConsumer"*, %"class.gfx::PointF"* nocapture) unnamed_addr #0 align 2 {
  %4 = ptrtoint %"class.ui::GestureConsumer"* %1 to i64
  %5 = getelementptr inbounds %"class.ui::GestureRecognizerImpl", %"class.ui::GestureRecognizerImpl"* %0, i64 0, i32 2
  %6 = getelementptr inbounds %"class.ui::GestureRecognizerImpl", %"class.ui::GestureRecognizerImpl"* %0, i64 0, i32 2, i32 0, i32 2, i32 0, i32 0
  %7 = load i64, i64* %6, align 8
  %8 = icmp eq i64 %7, 0
  br i1 %8, label %113, label %9

9:                                                ; preds = %3
  %10 = getelementptr inbounds %"class.ui::GestureRecognizerImpl", %"class.ui::GestureRecognizerImpl"* %0, i64 0, i32 2, i32 0, i32 1, i32 0, i32 0
  %11 = bitcast %"class.std::__1::__tree_end_node"* %10 to %"class.std::__1::__tree_node"**
  %12 = load %"class.std::__1::__tree_node"*, %"class.std::__1::__tree_node"** %11, align 8
  %13 = icmp eq %"class.std::__1::__tree_node"* %12, null
  br i1 %13, label %113, label %14

14:                                               ; preds = %9, %14
  %15 = phi %"class.std::__1::__tree_end_node"* [ %25, %14 ], [ %10, %9 ]
  %16 = phi %"class.std::__1::__tree_node"* [ %26, %14 ], [ %12, %9 ]
  %17 = getelementptr inbounds %"class.std::__1::__tree_node", %"class.std::__1::__tree_node"* %16, i64 0, i32 1, i32 0, i32 0
  %18 = load %"class.ui::GestureConsumer"*, %"class.ui::GestureConsumer"** %17, align 8
  %19 = icmp ult %"class.ui::GestureConsumer"* %18, %1
  %20 = getelementptr inbounds %"class.std::__1::__tree_node", %"class.std::__1::__tree_node"* %16, i64 0, i32 0, i32 1
  %21 = bitcast %"class.std::__1::__tree_node_base"** %20 to %"class.std::__1::__tree_node"**
  %22 = getelementptr inbounds %"class.std::__1::__tree_node", %"class.std::__1::__tree_node"* %16, i64 0, i32 0, i32 0
  %23 = bitcast %"class.std::__1::__tree_node"* %16 to %"class.std::__1::__tree_node"**
  %24 = select i1 %19, %"class.std::__1::__tree_node"** %21, %"class.std::__1::__tree_node"** %23
  %25 = select i1 %19, %"class.std::__1::__tree_end_node"* %15, %"class.std::__1::__tree_end_node"* %22
  %26 = load %"class.std::__1::__tree_node"*, %"class.std::__1::__tree_node"** %24, align 8
  %27 = icmp eq %"class.std::__1::__tree_node"* %26, null
  br i1 %27, label %28, label %14

28:                                               ; preds = %14
  %29 = icmp eq %"class.std::__1::__tree_end_node"* %25, %10
  br i1 %29, label %113, label %30

30:                                               ; preds = %28
  %31 = getelementptr inbounds %"class.std::__1::__tree_end_node", %"class.std::__1::__tree_end_node"* %25, i64 4
  %32 = bitcast %"class.std::__1::__tree_end_node"* %31 to %"class.ui::GestureConsumer"**
  %33 = load %"class.ui::GestureConsumer"*, %"class.ui::GestureConsumer"** %32, align 8
  %34 = icmp ugt %"class.ui::GestureConsumer"* %33, %1
  br i1 %34, label %113, label %35

35:                                               ; preds = %30
  %36 = getelementptr inbounds %"class.ui::GestureRecognizerImpl", %"class.ui::GestureRecognizerImpl"* %0, i64 0, i32 2, i32 0, i32 1, i32 0, i32 0, i32 0
  br label %37

37:                                               ; preds = %53, %35
  %38 = phi %"class.std::__1::__tree_node"* [ %56, %53 ], [ %12, %35 ]
  %39 = phi %"class.std::__1::__tree_node_base"** [ %55, %53 ], [ %36, %35 ]
  %40 = getelementptr inbounds %"class.std::__1::__tree_node", %"class.std::__1::__tree_node"* %38, i64 0, i32 1, i32 0, i32 0
  %41 = load %"class.ui::GestureConsumer"*, %"class.ui::GestureConsumer"** %40, align 8
  %42 = icmp ugt %"class.ui::GestureConsumer"* %41, %1
  br i1 %42, label %43, label %47

43:                                               ; preds = %37
  %44 = getelementptr inbounds %"class.std::__1::__tree_node", %"class.std::__1::__tree_node"* %38, i64 0, i32 0, i32 0, i32 0
  %45 = load %"class.std::__1::__tree_node_base"*, %"class.std::__1::__tree_node_base"** %44, align 8
  %46 = icmp eq %"class.std::__1::__tree_node_base"* %45, null
  br i1 %46, label %57, label %53

47:                                               ; preds = %37
  %48 = icmp ult %"class.ui::GestureConsumer"* %41, %1
  br i1 %48, label %49, label %57

49:                                               ; preds = %47
  %50 = getelementptr inbounds %"class.std::__1::__tree_node", %"class.std::__1::__tree_node"* %38, i64 0, i32 0, i32 1
  %51 = load %"class.std::__1::__tree_node_base"*, %"class.std::__1::__tree_node_base"** %50, align 8
  %52 = icmp eq %"class.std::__1::__tree_node_base"* %51, null
  br i1 %52, label %57, label %53

53:                                               ; preds = %49, %43
  %54 = phi %"class.std::__1::__tree_node_base"* [ %45, %43 ], [ %51, %49 ]
  %55 = phi %"class.std::__1::__tree_node_base"** [ %44, %43 ], [ %50, %49 ]
  %56 = bitcast %"class.std::__1::__tree_node_base"* %54 to %"class.std::__1::__tree_node"*
  br label %37

57:                                               ; preds = %47, %49, %43
  %58 = phi %"class.std::__1::__tree_node_base"** [ %44, %43 ], [ %50, %49 ], [ %39, %47 ]
  %59 = bitcast %"class.std::__1::__tree_node_base"** %58 to %"class.std::__1::__tree_node"**
  %60 = load %"class.std::__1::__tree_node"*, %"class.std::__1::__tree_node"** %59, align 8
  %61 = icmp eq %"class.std::__1::__tree_node"* %60, null
  br i1 %61, label %62, label %89

62:                                               ; preds = %57
  %63 = getelementptr inbounds %"class.std::__1::__tree_node", %"class.std::__1::__tree_node"* %38, i64 0, i32 0, i32 0
  %64 = tail call i8* @_Znwm(i64 48) #12, !noalias !23
  %65 = getelementptr inbounds i8, i8* %64, i64 32
  %66 = bitcast i8* %65 to i64*
  store i64 %4, i64* %66, align 8, !noalias !23
  %67 = getelementptr inbounds i8, i8* %64, i64 40
  %68 = bitcast i8* %67 to i64*
  store i64 0, i64* %68, align 8, !noalias !23
  %69 = bitcast i8* %64 to %"class.std::__1::__tree_node"*
  %70 = bitcast i8* %64 to %"class.std::__1::__tree_node_base"*
  %71 = getelementptr inbounds i8, i8* %64, i64 16
  %72 = bitcast i8* %71 to %"class.std::__1::__tree_end_node"**
  tail call void @llvm.memset.p0i8.i64(i8* nonnull align 8 %64, i8 0, i64 16, i1 false) #11
  store %"class.std::__1::__tree_end_node"* %63, %"class.std::__1::__tree_end_node"** %72, align 8
  %73 = bitcast %"class.std::__1::__tree_node_base"** %58 to i8**
  store i8* %64, i8** %73, align 8
  %74 = getelementptr inbounds %"class.std::__1::map", %"class.std::__1::map"* %5, i64 0, i32 0, i32 0
  %75 = load %"class.std::__1::__tree_end_node"*, %"class.std::__1::__tree_end_node"** %74, align 8
  %76 = getelementptr inbounds %"class.std::__1::__tree_end_node", %"class.std::__1::__tree_end_node"* %75, i64 0, i32 0
  %77 = load %"class.std::__1::__tree_node_base"*, %"class.std::__1::__tree_node_base"** %76, align 8
  %78 = icmp eq %"class.std::__1::__tree_node_base"* %77, null
  br i1 %78, label %83, label %79

79:                                               ; preds = %62
  %80 = ptrtoint %"class.std::__1::__tree_node_base"* %77 to i64
  %81 = bitcast %"class.std::__1::map"* %5 to i64*
  store i64 %80, i64* %81, align 8
  %82 = load %"class.std::__1::__tree_node_base"*, %"class.std::__1::__tree_node_base"** %58, align 8
  br label %83

83:                                               ; preds = %79, %62
  %84 = phi %"class.std::__1::__tree_node_base"* [ %70, %62 ], [ %82, %79 ]
  %85 = getelementptr inbounds %"class.ui::GestureRecognizerImpl", %"class.ui::GestureRecognizerImpl"* %0, i64 0, i32 2, i32 0, i32 1, i32 0, i32 0, i32 0
  %86 = load %"class.std::__1::__tree_node_base"*, %"class.std::__1::__tree_node_base"** %85, align 8
  tail call void @_ZNSt3__127__tree_balance_after_insertIPNS_16__tree_node_baseIPvEEEEvT_S5_(%"class.std::__1::__tree_node_base"* %86, %"class.std::__1::__tree_node_base"* %84) #11
  %87 = load i64, i64* %6, align 8
  %88 = add i64 %87, 1
  store i64 %88, i64* %6, align 8
  br label %89

89:                                               ; preds = %57, %83
  %90 = phi %"class.std::__1::__tree_node"* [ %69, %83 ], [ %60, %57 ]
  %91 = getelementptr inbounds %"class.std::__1::__tree_node", %"class.std::__1::__tree_node"* %90, i64 0, i32 1, i32 0, i32 1, i32 0, i32 0, i32 0
  %92 = load %"class.ui::GestureProviderAura"*, %"class.ui::GestureProviderAura"** %91, align 8
  %93 = getelementptr inbounds %"class.ui::GestureProviderAura", %"class.ui::GestureProviderAura"* %92, i64 0, i32 2
  %94 = getelementptr inbounds %"class.ui::MotionEventAura", %"class.ui::MotionEventAura"* %93, i64 0, i32 0, i32 0
  %95 = bitcast %"class.ui::MotionEventAura"* %93 to i64 (%"class.ui::MotionEvent"*)***
  %96 = load i64 (%"class.ui::MotionEvent"*)**, i64 (%"class.ui::MotionEvent"*)*** %95, align 8
  %97 = getelementptr inbounds i64 (%"class.ui::MotionEvent"*)*, i64 (%"class.ui::MotionEvent"*)** %96, i64 5
  %98 = load i64 (%"class.ui::MotionEvent"*)*, i64 (%"class.ui::MotionEvent"*)** %97, align 8
  %99 = tail call i64 %98(%"class.ui::MotionEvent"* %94) #11
  %100 = icmp eq i64 %99, 0
  br i1 %100, label %113, label %101

101:                                              ; preds = %89
  %102 = bitcast %"class.ui::MotionEventAura"* %93 to float (%"class.ui::MotionEvent"*, i64)***
  %103 = load float (%"class.ui::MotionEvent"*, i64)**, float (%"class.ui::MotionEvent"*, i64)*** %102, align 8
  %104 = getelementptr inbounds float (%"class.ui::MotionEvent"*, i64)*, float (%"class.ui::MotionEvent"*, i64)** %103, i64 7
  %105 = load float (%"class.ui::MotionEvent"*, i64)*, float (%"class.ui::MotionEvent"*, i64)** %104, align 8
  %106 = tail call float %105(%"class.ui::MotionEvent"* %94, i64 0) #11
  %107 = load float (%"class.ui::MotionEvent"*, i64)**, float (%"class.ui::MotionEvent"*, i64)*** %102, align 8
  %108 = getelementptr inbounds float (%"class.ui::MotionEvent"*, i64)*, float (%"class.ui::MotionEvent"*, i64)** %107, i64 8
  %109 = load float (%"class.ui::MotionEvent"*, i64)*, float (%"class.ui::MotionEvent"*, i64)** %108, align 8
  %110 = tail call float %109(%"class.ui::MotionEvent"* %94, i64 0) #11
  %111 = getelementptr inbounds %"class.gfx::PointF", %"class.gfx::PointF"* %2, i64 0, i32 0
  store float %106, float* %111, align 4
  %112 = getelementptr inbounds %"class.gfx::PointF", %"class.gfx::PointF"* %2, i64 0, i32 1
  store float %110, float* %112, align 4
  br label %113

113:                                              ; preds = %30, %28, %9, %101, %89, %3
  %114 = phi i1 [ false, %3 ], [ true, %101 ], [ false, %89 ], [ false, %9 ], [ false, %28 ], [ false, %30 ]
  ret i1 %114
}

declare i64 @_ZN2ui15EventTimeForNowEv() local_unnamed_addr #1

declare void @_ZN2ui14PointerDetailsC1ENS_16EventPointerTypeEi(%"struct.ui::PointerDetails"*, i32, i32) unnamed_addr #1

; Function Attrs: nounwind ssp uwtable
define hidden zeroext i1 @_ZN2ui21GestureRecognizerImpl19CancelActiveTouchesEPNS_15GestureConsumerE(%"class.ui::GestureRecognizerImpl"*, %"class.ui::GestureConsumer"*) unnamed_addr #0 align 2 {
  %3 = tail call zeroext i1 @_ZN2ui21GestureRecognizerImpl23CancelActiveTouchesImplEPNS_15GestureConsumerE(%"class.ui::GestureRecognizerImpl"* %0, %"class.ui::GestureConsumer"* %1)
  ret i1 %3
}

; Function Attrs: nounwind ssp uwtable
define hidden %"class.ui::GestureProviderAura"* @_ZN2ui21GestureRecognizerImpl29GetGestureProviderForConsumerEPNS_15GestureConsumerE(%"class.ui::GestureRecognizerImpl"*, %"class.ui::GestureConsumer"*) unnamed_addr #0 align 2 {
  %3 = ptrtoint %"class.ui::GestureConsumer"* %1 to i64
  %4 = getelementptr inbounds %"class.ui::GestureRecognizerImpl", %"class.ui::GestureRecognizerImpl"* %0, i64 0, i32 2
  %5 = getelementptr inbounds %"class.ui::GestureRecognizerImpl", %"class.ui::GestureRecognizerImpl"* %0, i64 0, i32 2, i32 0, i32 2, i32 0, i32 0
  %6 = load i64, i64* %5, align 8
  %7 = icmp eq i64 %6, 0
  br i1 %7, label %63, label %8

8:                                                ; preds = %2
  %9 = getelementptr inbounds %"class.ui::GestureRecognizerImpl", %"class.ui::GestureRecognizerImpl"* %0, i64 0, i32 2, i32 0, i32 1, i32 0, i32 0
  %10 = bitcast %"class.std::__1::__tree_end_node"* %9 to %"class.std::__1::__tree_node"**
  %11 = load %"class.std::__1::__tree_node"*, %"class.std::__1::__tree_node"** %10, align 8
  %12 = icmp eq %"class.std::__1::__tree_node"* %11, null
  br i1 %12, label %63, label %13

13:                                               ; preds = %8, %13
  %14 = phi %"class.std::__1::__tree_end_node"* [ %24, %13 ], [ %9, %8 ]
  %15 = phi %"class.std::__1::__tree_node"* [ %25, %13 ], [ %11, %8 ]
  %16 = getelementptr inbounds %"class.std::__1::__tree_node", %"class.std::__1::__tree_node"* %15, i64 0, i32 1, i32 0, i32 0
  %17 = load %"class.ui::GestureConsumer"*, %"class.ui::GestureConsumer"** %16, align 8
  %18 = icmp ult %"class.ui::GestureConsumer"* %17, %1
  %19 = getelementptr inbounds %"class.std::__1::__tree_node", %"class.std::__1::__tree_node"* %15, i64 0, i32 0, i32 1
  %20 = bitcast %"class.std::__1::__tree_node_base"** %19 to %"class.std::__1::__tree_node"**
  %21 = getelementptr inbounds %"class.std::__1::__tree_node", %"class.std::__1::__tree_node"* %15, i64 0, i32 0, i32 0
  %22 = bitcast %"class.std::__1::__tree_node"* %15 to %"class.std::__1::__tree_node"**
  %23 = select i1 %18, %"class.std::__1::__tree_node"** %20, %"class.std::__1::__tree_node"** %22
  %24 = select i1 %18, %"class.std::__1::__tree_end_node"* %14, %"class.std::__1::__tree_end_node"* %21
  %25 = load %"class.std::__1::__tree_node"*, %"class.std::__1::__tree_node"** %23, align 8
  %26 = icmp eq %"class.std::__1::__tree_node"* %25, null
  br i1 %26, label %27, label %13

27:                                               ; preds = %13
  %28 = icmp eq %"class.std::__1::__tree_end_node"* %24, %9
  br i1 %28, label %63, label %29

29:                                               ; preds = %27
  %30 = getelementptr inbounds %"class.std::__1::__tree_end_node", %"class.std::__1::__tree_end_node"* %24, i64 4
  %31 = bitcast %"class.std::__1::__tree_end_node"* %30 to %"class.ui::GestureConsumer"**
  %32 = load %"class.ui::GestureConsumer"*, %"class.ui::GestureConsumer"** %31, align 8
  %33 = icmp ugt %"class.ui::GestureConsumer"* %32, %1
  br i1 %33, label %63, label %34

34:                                               ; preds = %29
  %35 = bitcast %"class.std::__1::__tree_node"* %11 to %"class.std::__1::__tree_node_base"*
  br label %36

36:                                               ; preds = %52, %34
  %37 = phi %"class.std::__1::__tree_node_base"* [ %53, %52 ], [ %35, %34 ]
  %38 = phi %"class.std::__1::__tree_node"* [ %54, %52 ], [ %11, %34 ]
  %39 = getelementptr inbounds %"class.std::__1::__tree_node", %"class.std::__1::__tree_node"* %38, i64 0, i32 1, i32 0, i32 0
  %40 = load %"class.ui::GestureConsumer"*, %"class.ui::GestureConsumer"** %39, align 8
  %41 = icmp ugt %"class.ui::GestureConsumer"* %40, %1
  br i1 %41, label %42, label %46

42:                                               ; preds = %36
  %43 = getelementptr inbounds %"class.std::__1::__tree_node", %"class.std::__1::__tree_node"* %38, i64 0, i32 0, i32 0, i32 0
  %44 = load %"class.std::__1::__tree_node_base"*, %"class.std::__1::__tree_node_base"** %43, align 8
  %45 = icmp eq %"class.std::__1::__tree_node_base"* %44, null
  br i1 %45, label %57, label %52

46:                                               ; preds = %36
  %47 = icmp ult %"class.ui::GestureConsumer"* %40, %1
  br i1 %47, label %48, label %55

48:                                               ; preds = %46
  %49 = getelementptr inbounds %"class.std::__1::__tree_node", %"class.std::__1::__tree_node"* %38, i64 0, i32 0, i32 1
  %50 = load %"class.std::__1::__tree_node_base"*, %"class.std::__1::__tree_node_base"** %49, align 8
  %51 = icmp eq %"class.std::__1::__tree_node_base"* %50, null
  br i1 %51, label %57, label %52

52:                                               ; preds = %48, %42
  %53 = phi %"class.std::__1::__tree_node_base"* [ %44, %42 ], [ %50, %48 ]
  %54 = bitcast %"class.std::__1::__tree_node_base"* %53 to %"class.std::__1::__tree_node"*
  br label %36

55:                                               ; preds = %46
  %56 = icmp eq %"class.std::__1::__tree_node_base"* %37, null
  br i1 %56, label %57, label %58

57:                                               ; preds = %48, %42, %55
  tail call void @abort() #13
  unreachable

58:                                               ; preds = %55
  %59 = getelementptr inbounds %"class.std::__1::__tree_node_base", %"class.std::__1::__tree_node_base"* %37, i64 1, i32 1
  %60 = bitcast %"class.std::__1::__tree_node_base"** %59 to %"class.ui::GestureProviderAura"**
  %61 = load %"class.ui::GestureProviderAura"*, %"class.ui::GestureProviderAura"** %60, align 8
  %62 = icmp eq %"class.ui::GestureProviderAura"* %61, null
  br i1 %62, label %63, label %146

63:                                               ; preds = %2, %29, %27, %8, %58
  %64 = tail call i8* @_Znwm(i64 1096) #12
  %65 = bitcast i8* %64 to %"class.ui::GestureProviderAura"*
  %66 = getelementptr inbounds %"class.ui::GestureRecognizerImpl", %"class.ui::GestureRecognizerImpl"* %0, i64 0, i32 1
  tail call void @_ZN2ui19GestureProviderAuraC1EPNS_15GestureConsumerEPNS_25GestureProviderAuraClientE(%"class.ui::GestureProviderAura"* nonnull %65, %"class.ui::GestureConsumer"* %1, %"class.ui::GestureProviderAuraClient"* %66) #11
  %67 = ptrtoint i8* %64 to i64
  %68 = getelementptr inbounds %"class.ui::GestureRecognizerImpl", %"class.ui::GestureRecognizerImpl"* %0, i64 0, i32 2, i32 0, i32 1, i32 0, i32 0
  %69 = bitcast %"class.std::__1::__tree_end_node"* %68 to %"class.std::__1::__tree_node"**
  %70 = load %"class.std::__1::__tree_node"*, %"class.std::__1::__tree_node"** %69, align 8
  %71 = icmp eq %"class.std::__1::__tree_node"* %70, null
  br i1 %71, label %100, label %72

72:                                               ; preds = %63
  %73 = getelementptr inbounds %"class.ui::GestureRecognizerImpl", %"class.ui::GestureRecognizerImpl"* %0, i64 0, i32 2, i32 0, i32 1, i32 0, i32 0, i32 0
  br label %74

74:                                               ; preds = %96, %72
  %75 = phi %"class.std::__1::__tree_node"* [ %99, %96 ], [ %70, %72 ]
  %76 = phi %"class.std::__1::__tree_node_base"** [ %98, %96 ], [ %73, %72 ]
  %77 = getelementptr inbounds %"class.std::__1::__tree_node", %"class.std::__1::__tree_node"* %75, i64 0, i32 1, i32 0, i32 0
  %78 = load %"class.ui::GestureConsumer"*, %"class.ui::GestureConsumer"** %77, align 8
  %79 = icmp ugt %"class.ui::GestureConsumer"* %78, %1
  br i1 %79, label %80, label %86

80:                                               ; preds = %74
  %81 = getelementptr inbounds %"class.std::__1::__tree_node", %"class.std::__1::__tree_node"* %75, i64 0, i32 0, i32 0, i32 0
  %82 = load %"class.std::__1::__tree_node_base"*, %"class.std::__1::__tree_node_base"** %81, align 8
  %83 = icmp eq %"class.std::__1::__tree_node_base"* %82, null
  br i1 %83, label %84, label %96

84:                                               ; preds = %80
  %85 = getelementptr inbounds %"class.std::__1::__tree_node", %"class.std::__1::__tree_node"* %75, i64 0, i32 0, i32 0
  br label %102

86:                                               ; preds = %74
  %87 = icmp ult %"class.ui::GestureConsumer"* %78, %1
  br i1 %87, label %88, label %94

88:                                               ; preds = %86
  %89 = getelementptr inbounds %"class.std::__1::__tree_node", %"class.std::__1::__tree_node"* %75, i64 0, i32 0, i32 1
  %90 = load %"class.std::__1::__tree_node_base"*, %"class.std::__1::__tree_node_base"** %89, align 8
  %91 = icmp eq %"class.std::__1::__tree_node_base"* %90, null
  br i1 %91, label %92, label %96

92:                                               ; preds = %88
  %93 = getelementptr inbounds %"class.std::__1::__tree_node", %"class.std::__1::__tree_node"* %75, i64 0, i32 0, i32 0
  br label %102

94:                                               ; preds = %86
  %95 = getelementptr inbounds %"class.std::__1::__tree_node", %"class.std::__1::__tree_node"* %75, i64 0, i32 0, i32 0
  br label %102

96:                                               ; preds = %88, %80
  %97 = phi %"class.std::__1::__tree_node_base"* [ %82, %80 ], [ %90, %88 ]
  %98 = phi %"class.std::__1::__tree_node_base"** [ %81, %80 ], [ %89, %88 ]
  %99 = bitcast %"class.std::__1::__tree_node_base"* %97 to %"class.std::__1::__tree_node"*
  br label %74

100:                                              ; preds = %63
  %101 = getelementptr inbounds %"class.std::__1::__tree_end_node", %"class.std::__1::__tree_end_node"* %68, i64 0, i32 0
  br label %102

102:                                              ; preds = %100, %94, %92, %84
  %103 = phi %"class.std::__1::__tree_end_node"* [ %68, %100 ], [ %85, %84 ], [ %93, %92 ], [ %95, %94 ]
  %104 = phi %"class.std::__1::__tree_node_base"** [ %101, %100 ], [ %81, %84 ], [ %89, %92 ], [ %76, %94 ]
  %105 = bitcast %"class.std::__1::__tree_node_base"** %104 to %"class.std::__1::__tree_node"**
  %106 = load %"class.std::__1::__tree_node"*, %"class.std::__1::__tree_node"** %105, align 8
  %107 = icmp eq %"class.std::__1::__tree_node"* %106, null
  br i1 %107, label %108, label %134

108:                                              ; preds = %102
  %109 = tail call i8* @_Znwm(i64 48) #12, !noalias !26
  %110 = getelementptr inbounds i8, i8* %109, i64 32
  %111 = bitcast i8* %110 to i64*
  store i64 %3, i64* %111, align 8, !noalias !26
  %112 = getelementptr inbounds i8, i8* %109, i64 40
  %113 = bitcast i8* %112 to i64*
  store i64 0, i64* %113, align 8, !noalias !26
  %114 = bitcast i8* %109 to %"class.std::__1::__tree_node"*
  %115 = bitcast i8* %109 to %"class.std::__1::__tree_node_base"*
  %116 = getelementptr inbounds i8, i8* %109, i64 16
  %117 = bitcast i8* %116 to %"class.std::__1::__tree_end_node"**
  tail call void @llvm.memset.p0i8.i64(i8* nonnull align 8 %109, i8 0, i64 16, i1 false) #11
  store %"class.std::__1::__tree_end_node"* %103, %"class.std::__1::__tree_end_node"** %117, align 8
  %118 = bitcast %"class.std::__1::__tree_node_base"** %104 to i8**
  store i8* %109, i8** %118, align 8
  %119 = getelementptr inbounds %"class.std::__1::map", %"class.std::__1::map"* %4, i64 0, i32 0, i32 0
  %120 = load %"class.std::__1::__tree_end_node"*, %"class.std::__1::__tree_end_node"** %119, align 8
  %121 = getelementptr inbounds %"class.std::__1::__tree_end_node", %"class.std::__1::__tree_end_node"* %120, i64 0, i32 0
  %122 = load %"class.std::__1::__tree_node_base"*, %"class.std::__1::__tree_node_base"** %121, align 8
  %123 = icmp eq %"class.std::__1::__tree_node_base"* %122, null
  br i1 %123, label %128, label %124

124:                                              ; preds = %108
  %125 = ptrtoint %"class.std::__1::__tree_node_base"* %122 to i64
  %126 = bitcast %"class.std::__1::map"* %4 to i64*
  store i64 %125, i64* %126, align 8
  %127 = load %"class.std::__1::__tree_node_base"*, %"class.std::__1::__tree_node_base"** %104, align 8
  br label %128

128:                                              ; preds = %124, %108
  %129 = phi %"class.std::__1::__tree_node_base"* [ %115, %108 ], [ %127, %124 ]
  %130 = getelementptr inbounds %"class.ui::GestureRecognizerImpl", %"class.ui::GestureRecognizerImpl"* %0, i64 0, i32 2, i32 0, i32 1, i32 0, i32 0, i32 0
  %131 = load %"class.std::__1::__tree_node_base"*, %"class.std::__1::__tree_node_base"** %130, align 8
  tail call void @_ZNSt3__127__tree_balance_after_insertIPNS_16__tree_node_baseIPvEEEEvT_S5_(%"class.std::__1::__tree_node_base"* %131, %"class.std::__1::__tree_node_base"* %129) #11
  %132 = load i64, i64* %5, align 8
  %133 = add i64 %132, 1
  store i64 %133, i64* %5, align 8
  br label %134

134:                                              ; preds = %102, %128
  %135 = phi %"class.std::__1::__tree_node"* [ %114, %128 ], [ %106, %102 ]
  %136 = getelementptr inbounds %"class.std::__1::__tree_node", %"class.std::__1::__tree_node"* %135, i64 0, i32 1, i32 0, i32 1
  %137 = getelementptr inbounds %"class.std::__1::unique_ptr.43", %"class.std::__1::unique_ptr.43"* %136, i64 0, i32 0, i32 0, i32 0
  %138 = load %"class.ui::GestureProviderAura"*, %"class.ui::GestureProviderAura"** %137, align 8
  %139 = bitcast %"class.std::__1::unique_ptr.43"* %136 to i64*
  store i64 %67, i64* %139, align 8
  %140 = icmp eq %"class.ui::GestureProviderAura"* %138, null
  br i1 %140, label %146, label %141

141:                                              ; preds = %134
  %142 = bitcast %"class.ui::GestureProviderAura"* %138 to void (%"class.ui::GestureProviderAura"*)***
  %143 = load void (%"class.ui::GestureProviderAura"*)**, void (%"class.ui::GestureProviderAura"*)*** %142, align 8
  %144 = getelementptr inbounds void (%"class.ui::GestureProviderAura"*)*, void (%"class.ui::GestureProviderAura"*)** %143, i64 1
  %145 = load void (%"class.ui::GestureProviderAura"*)*, void (%"class.ui::GestureProviderAura"*)** %144, align 8
  tail call void %145(%"class.ui::GestureProviderAura"* nonnull %138) #11
  br label %146

146:                                              ; preds = %134, %141, %58
  %147 = phi %"class.ui::GestureProviderAura"* [ %61, %58 ], [ %65, %141 ], [ %65, %134 ]
  ret %"class.ui::GestureProviderAura"* %147
}

; Function Attrs: nobuiltin nofree
declare noalias nonnull i8* @_Znwm(i64) local_unnamed_addr #6

declare void @_ZN2ui19GestureProviderAuraC1EPNS_15GestureConsumerEPNS_25GestureProviderAuraClientE(%"class.ui::GestureProviderAura"*, %"class.ui::GestureConsumer"*, %"class.ui::GestureProviderAuraClient"*) unnamed_addr #1

; Function Attrs: nounwind ssp uwtable
define hidden zeroext i1 @_ZN2ui21GestureRecognizerImpl28ProcessTouchEventPreDispatchEPNS_10TouchEventEPNS_15GestureConsumerE(%"class.ui::GestureRecognizerImpl"*, %"class.ui::TouchEvent"*, %"class.ui::GestureConsumer"*) unnamed_addr #0 align 2 {
  tail call void @_ZN2ui21GestureRecognizerImpl12SetupTargetsERKNS_10TouchEventEPNS_15GestureConsumerE(%"class.ui::GestureRecognizerImpl"* %0, %"class.ui::TouchEvent"* dereferenceable(216) %1, %"class.ui::GestureConsumer"* %2)
  %4 = getelementptr inbounds %"class.ui::TouchEvent", %"class.ui::TouchEvent"* %1, i64 0, i32 0, i32 0, i32 10
  %5 = load i32, i32* %4, align 4
  %6 = and i32 %5, 2
  %7 = icmp eq i32 %6, 0
  br i1 %7, label %8, label %15

8:                                                ; preds = %3
  %9 = bitcast %"class.ui::GestureRecognizerImpl"* %0 to %"class.ui::GestureProviderAura"* (%"class.ui::GestureRecognizerImpl"*, %"class.ui::GestureConsumer"*)***
  %10 = load %"class.ui::GestureProviderAura"* (%"class.ui::GestureRecognizerImpl"*, %"class.ui::GestureConsumer"*)**, %"class.ui::GestureProviderAura"* (%"class.ui::GestureRecognizerImpl"*, %"class.ui::GestureConsumer"*)*** %9, align 8
  %11 = getelementptr inbounds %"class.ui::GestureProviderAura"* (%"class.ui::GestureRecognizerImpl"*, %"class.ui::GestureConsumer"*)*, %"class.ui::GestureProviderAura"* (%"class.ui::GestureRecognizerImpl"*, %"class.ui::GestureConsumer"*)** %10, i64 18
  %12 = load %"class.ui::GestureProviderAura"* (%"class.ui::GestureRecognizerImpl"*, %"class.ui::GestureConsumer"*)*, %"class.ui::GestureProviderAura"* (%"class.ui::GestureRecognizerImpl"*, %"class.ui::GestureConsumer"*)** %11, align 8
  %13 = tail call %"class.ui::GestureProviderAura"* %12(%"class.ui::GestureRecognizerImpl"* %0, %"class.ui::GestureConsumer"* %2) #11
  %14 = tail call zeroext i1 @_ZN2ui19GestureProviderAura12OnTouchEventEPNS_10TouchEventE(%"class.ui::GestureProviderAura"* %13, %"class.ui::TouchEvent"* %1) #11
  br label %15

15:                                               ; preds = %3, %8
  %16 = phi i1 [ %14, %8 ], [ false, %3 ]
  ret i1 %16
}

; Function Attrs: nounwind ssp uwtable
define hidden void @_ZN2ui21GestureRecognizerImpl12SetupTargetsERKNS_10TouchEventEPNS_15GestureConsumerE(%"class.ui::GestureRecognizerImpl"*, %"class.ui::TouchEvent"* dereferenceable(216), %"class.ui::GestureConsumer"*) local_unnamed_addr #0 align 2 {
  %4 = bitcast %"class.ui::GestureRecognizerImpl"* %0 to %"class.ui::GestureProviderAura"* (%"class.ui::GestureRecognizerImpl"*, %"class.ui::GestureConsumer"*)***
  %5 = load %"class.ui::GestureProviderAura"* (%"class.ui::GestureRecognizerImpl"*, %"class.ui::GestureConsumer"*)**, %"class.ui::GestureProviderAura"* (%"class.ui::GestureRecognizerImpl"*, %"class.ui::GestureConsumer"*)*** %4, align 8
  %6 = getelementptr inbounds %"class.ui::GestureProviderAura"* (%"class.ui::GestureRecognizerImpl"*, %"class.ui::GestureConsumer"*)*, %"class.ui::GestureProviderAura"* (%"class.ui::GestureRecognizerImpl"*, %"class.ui::GestureConsumer"*)** %5, i64 18
  %7 = load %"class.ui::GestureProviderAura"* (%"class.ui::GestureRecognizerImpl"*, %"class.ui::GestureConsumer"*)*, %"class.ui::GestureProviderAura"* (%"class.ui::GestureRecognizerImpl"*, %"class.ui::GestureConsumer"*)** %6, align 8
  %8 = tail call %"class.ui::GestureProviderAura"* %7(%"class.ui::GestureRecognizerImpl"* %0, %"class.ui::GestureConsumer"* %2) #11
  %9 = getelementptr inbounds %"class.ui::GestureRecognizerImpl", %"class.ui::GestureRecognizerImpl"* %0, i64 0, i32 3
  %10 = getelementptr inbounds %"class.ui::TouchEvent", %"class.ui::TouchEvent"* %1, i64 0, i32 1
  %11 = load i32, i32* %10, align 8
  %12 = getelementptr inbounds %"class.ui::GestureRecognizerImpl", %"class.ui::GestureRecognizerImpl"* %0, i64 0, i32 3, i32 0, i32 1, i32 0, i32 0
  %13 = bitcast %"class.std::__1::__tree_end_node"* %12 to %"class.std::__1::__tree_node.160"**
  %14 = load %"class.std::__1::__tree_node.160"*, %"class.std::__1::__tree_node.160"** %13, align 8
  %15 = icmp eq %"class.std::__1::__tree_node.160"* %14, null
  br i1 %15, label %44, label %16

16:                                               ; preds = %3
  %17 = getelementptr inbounds %"class.ui::GestureRecognizerImpl", %"class.ui::GestureRecognizerImpl"* %0, i64 0, i32 3, i32 0, i32 1, i32 0, i32 0, i32 0
  br label %18

18:                                               ; preds = %40, %16
  %19 = phi %"class.std::__1::__tree_node.160"* [ %43, %40 ], [ %14, %16 ]
  %20 = phi %"class.std::__1::__tree_node_base"** [ %42, %40 ], [ %17, %16 ]
  %21 = getelementptr inbounds %"class.std::__1::__tree_node.160", %"class.std::__1::__tree_node.160"* %19, i64 0, i32 1, i32 0, i32 0
  %22 = load i32, i32* %21, align 4
  %23 = icmp ult i32 %11, %22
  br i1 %23, label %24, label %30

24:                                               ; preds = %18
  %25 = getelementptr inbounds %"class.std::__1::__tree_node.160", %"class.std::__1::__tree_node.160"* %19, i64 0, i32 0, i32 0, i32 0
  %26 = load %"class.std::__1::__tree_node_base"*, %"class.std::__1::__tree_node_base"** %25, align 8
  %27 = icmp eq %"class.std::__1::__tree_node_base"* %26, null
  br i1 %27, label %28, label %40

28:                                               ; preds = %24
  %29 = getelementptr inbounds %"class.std::__1::__tree_node.160", %"class.std::__1::__tree_node.160"* %19, i64 0, i32 0, i32 0
  br label %46

30:                                               ; preds = %18
  %31 = icmp ult i32 %22, %11
  br i1 %31, label %32, label %38

32:                                               ; preds = %30
  %33 = getelementptr inbounds %"class.std::__1::__tree_node.160", %"class.std::__1::__tree_node.160"* %19, i64 0, i32 0, i32 1
  %34 = load %"class.std::__1::__tree_node_base"*, %"class.std::__1::__tree_node_base"** %33, align 8
  %35 = icmp eq %"class.std::__1::__tree_node_base"* %34, null
  br i1 %35, label %36, label %40

36:                                               ; preds = %32
  %37 = getelementptr inbounds %"class.std::__1::__tree_node.160", %"class.std::__1::__tree_node.160"* %19, i64 0, i32 0, i32 0
  br label %46

38:                                               ; preds = %30
  %39 = getelementptr inbounds %"class.std::__1::__tree_node.160", %"class.std::__1::__tree_node.160"* %19, i64 0, i32 0, i32 0
  br label %46

40:                                               ; preds = %32, %24
  %41 = phi %"class.std::__1::__tree_node_base"* [ %26, %24 ], [ %34, %32 ]
  %42 = phi %"class.std::__1::__tree_node_base"** [ %25, %24 ], [ %33, %32 ]
  %43 = bitcast %"class.std::__1::__tree_node_base"* %41 to %"class.std::__1::__tree_node.160"*
  br label %18

44:                                               ; preds = %3
  %45 = getelementptr inbounds %"class.std::__1::__tree_end_node", %"class.std::__1::__tree_end_node"* %12, i64 0, i32 0
  br label %46

46:                                               ; preds = %44, %38, %36, %28
  %47 = phi %"class.std::__1::__tree_end_node"* [ %12, %44 ], [ %29, %28 ], [ %37, %36 ], [ %39, %38 ]
  %48 = phi %"class.std::__1::__tree_node_base"** [ %45, %44 ], [ %25, %28 ], [ %33, %36 ], [ %20, %38 ]
  %49 = bitcast %"class.std::__1::__tree_node_base"** %48 to %"class.std::__1::__tree_node.160"**
  %50 = load %"class.std::__1::__tree_node.160"*, %"class.std::__1::__tree_node.160"** %49, align 8
  %51 = icmp eq %"class.std::__1::__tree_node.160"* %50, null
  br i1 %51, label %52, label %79

52:                                               ; preds = %46
  %53 = tail call i8* @_Znwm(i64 48) #12, !noalias !29
  %54 = getelementptr inbounds i8, i8* %53, i64 32
  %55 = bitcast i8* %54 to i32*
  store i32 %11, i32* %55, align 8, !noalias !29
  %56 = getelementptr inbounds i8, i8* %53, i64 40
  %57 = bitcast i8* %56 to %"class.ui::GestureProviderAura"**
  store %"class.ui::GestureProviderAura"* null, %"class.ui::GestureProviderAura"** %57, align 8, !noalias !29
  %58 = bitcast i8* %53 to %"class.std::__1::__tree_node.160"*
  %59 = bitcast i8* %53 to %"class.std::__1::__tree_node_base"*
  %60 = getelementptr inbounds i8, i8* %53, i64 16
  %61 = bitcast i8* %60 to %"class.std::__1::__tree_end_node"**
  tail call void @llvm.memset.p0i8.i64(i8* nonnull align 8 %53, i8 0, i64 16, i1 false) #11
  store %"class.std::__1::__tree_end_node"* %47, %"class.std::__1::__tree_end_node"** %61, align 8
  %62 = bitcast %"class.std::__1::__tree_node_base"** %48 to i8**
  store i8* %53, i8** %62, align 8
  %63 = getelementptr inbounds %"class.std::__1::map.4", %"class.std::__1::map.4"* %9, i64 0, i32 0, i32 0
  %64 = load %"class.std::__1::__tree_end_node"*, %"class.std::__1::__tree_end_node"** %63, align 8
  %65 = getelementptr inbounds %"class.std::__1::__tree_end_node", %"class.std::__1::__tree_end_node"* %64, i64 0, i32 0
  %66 = load %"class.std::__1::__tree_node_base"*, %"class.std::__1::__tree_node_base"** %65, align 8
  %67 = icmp eq %"class.std::__1::__tree_node_base"* %66, null
  br i1 %67, label %72, label %68

68:                                               ; preds = %52
  %69 = ptrtoint %"class.std::__1::__tree_node_base"* %66 to i64
  %70 = bitcast %"class.std::__1::map.4"* %9 to i64*
  store i64 %69, i64* %70, align 8
  %71 = load %"class.std::__1::__tree_node_base"*, %"class.std::__1::__tree_node_base"** %48, align 8
  br label %72

72:                                               ; preds = %68, %52
  %73 = phi %"class.std::__1::__tree_node_base"* [ %59, %52 ], [ %71, %68 ]
  %74 = getelementptr inbounds %"class.ui::GestureRecognizerImpl", %"class.ui::GestureRecognizerImpl"* %0, i64 0, i32 3, i32 0, i32 1, i32 0, i32 0, i32 0
  %75 = load %"class.std::__1::__tree_node_base"*, %"class.std::__1::__tree_node_base"** %74, align 8
  tail call void @_ZNSt3__127__tree_balance_after_insertIPNS_16__tree_node_baseIPvEEEEvT_S5_(%"class.std::__1::__tree_node_base"* %75, %"class.std::__1::__tree_node_base"* %73) #11
  %76 = getelementptr inbounds %"class.ui::GestureRecognizerImpl", %"class.ui::GestureRecognizerImpl"* %0, i64 0, i32 3, i32 0, i32 2, i32 0, i32 0
  %77 = load i64, i64* %76, align 8
  %78 = add i64 %77, 1
  store i64 %78, i64* %76, align 8
  br label %79

79:                                               ; preds = %46, %72
  %80 = phi %"class.std::__1::__tree_node.160"* [ %58, %72 ], [ %50, %46 ]
  %81 = getelementptr inbounds %"class.std::__1::__tree_node.160", %"class.std::__1::__tree_node.160"* %80, i64 0, i32 1, i32 0, i32 1
  store %"class.ui::GestureProviderAura"* %8, %"class.ui::GestureProviderAura"** %81, align 8
  %82 = getelementptr inbounds %"class.ui::TouchEvent", %"class.ui::TouchEvent"* %1, i64 0, i32 0, i32 0, i32 1
  %83 = load i32, i32* %82, align 8
  switch i32 %83, label %163 [
    i32 11, label %84
    i32 14, label %84
    i32 12, label %88
  ]

84:                                               ; preds = %79, %79
  %85 = getelementptr inbounds %"class.ui::TouchEvent", %"class.ui::TouchEvent"* %1, i64 0, i32 5, i32 8
  %86 = getelementptr inbounds %"class.ui::GestureRecognizerImpl", %"class.ui::GestureRecognizerImpl"* %0, i64 0, i32 4, i32 0
  %87 = tail call i64 @_ZNSt3__16__treeINS_12__value_typeIiPN2ui15GestureConsumerEEENS_19__map_value_compareIiS5_NS_4lessIiEELb1EEENS_9allocatorIS5_EEE14__erase_uniqueIiEEmRKT_(%"class.std::__1::__tree.16"* %86, i32* dereferenceable(4) %85) #11
  br label %163

88:                                               ; preds = %79
  %89 = getelementptr inbounds %"class.ui::GestureRecognizerImpl", %"class.ui::GestureRecognizerImpl"* %0, i64 0, i32 4
  %90 = getelementptr inbounds %"class.ui::TouchEvent", %"class.ui::TouchEvent"* %1, i64 0, i32 5, i32 8
  %91 = getelementptr inbounds %"class.ui::GestureRecognizerImpl", %"class.ui::GestureRecognizerImpl"* %0, i64 0, i32 4, i32 0, i32 1, i32 0, i32 0
  %92 = bitcast %"class.std::__1::__tree_end_node"* %91 to %"class.std::__1::__tree_node.162"**
  %93 = load %"class.std::__1::__tree_node.162"*, %"class.std::__1::__tree_node.162"** %92, align 8
  %94 = icmp eq %"class.std::__1::__tree_node.162"* %93, null
  br i1 %94, label %124, label %95

95:                                               ; preds = %88
  %96 = getelementptr inbounds %"class.ui::GestureRecognizerImpl", %"class.ui::GestureRecognizerImpl"* %0, i64 0, i32 4, i32 0, i32 1, i32 0, i32 0, i32 0
  %97 = load i32, i32* %90, align 4
  br label %98

98:                                               ; preds = %120, %95
  %99 = phi %"class.std::__1::__tree_node.162"* [ %123, %120 ], [ %93, %95 ]
  %100 = phi %"class.std::__1::__tree_node_base"** [ %122, %120 ], [ %96, %95 ]
  %101 = getelementptr inbounds %"class.std::__1::__tree_node.162", %"class.std::__1::__tree_node.162"* %99, i64 0, i32 1, i32 0, i32 0
  %102 = load i32, i32* %101, align 4
  %103 = icmp slt i32 %97, %102
  br i1 %103, label %104, label %110

104:                                              ; preds = %98
  %105 = getelementptr inbounds %"class.std::__1::__tree_node.162", %"class.std::__1::__tree_node.162"* %99, i64 0, i32 0, i32 0, i32 0
  %106 = load %"class.std::__1::__tree_node_base"*, %"class.std::__1::__tree_node_base"** %105, align 8
  %107 = icmp eq %"class.std::__1::__tree_node_base"* %106, null
  br i1 %107, label %108, label %120

108:                                              ; preds = %104
  %109 = getelementptr inbounds %"class.std::__1::__tree_node.162", %"class.std::__1::__tree_node.162"* %99, i64 0, i32 0, i32 0
  br label %126

110:                                              ; preds = %98
  %111 = icmp slt i32 %102, %97
  br i1 %111, label %112, label %118

112:                                              ; preds = %110
  %113 = getelementptr inbounds %"class.std::__1::__tree_node.162", %"class.std::__1::__tree_node.162"* %99, i64 0, i32 0, i32 1
  %114 = load %"class.std::__1::__tree_node_base"*, %"class.std::__1::__tree_node_base"** %113, align 8
  %115 = icmp eq %"class.std::__1::__tree_node_base"* %114, null
  br i1 %115, label %116, label %120

116:                                              ; preds = %112
  %117 = getelementptr inbounds %"class.std::__1::__tree_node.162", %"class.std::__1::__tree_node.162"* %99, i64 0, i32 0, i32 0
  br label %126

118:                                              ; preds = %110
  %119 = getelementptr inbounds %"class.std::__1::__tree_node.162", %"class.std::__1::__tree_node.162"* %99, i64 0, i32 0, i32 0
  br label %126

120:                                              ; preds = %112, %104
  %121 = phi %"class.std::__1::__tree_node_base"* [ %106, %104 ], [ %114, %112 ]
  %122 = phi %"class.std::__1::__tree_node_base"** [ %105, %104 ], [ %113, %112 ]
  %123 = bitcast %"class.std::__1::__tree_node_base"* %121 to %"class.std::__1::__tree_node.162"*
  br label %98

124:                                              ; preds = %88
  %125 = getelementptr inbounds %"class.std::__1::__tree_end_node", %"class.std::__1::__tree_end_node"* %91, i64 0, i32 0
  br label %126

126:                                              ; preds = %124, %118, %116, %108
  %127 = phi %"class.std::__1::__tree_end_node"* [ %91, %124 ], [ %109, %108 ], [ %117, %116 ], [ %119, %118 ]
  %128 = phi %"class.std::__1::__tree_node_base"** [ %125, %124 ], [ %105, %108 ], [ %113, %116 ], [ %100, %118 ]
  %129 = bitcast %"class.std::__1::__tree_node_base"** %128 to %"class.std::__1::__tree_node.162"**
  %130 = load %"class.std::__1::__tree_node.162"*, %"class.std::__1::__tree_node.162"** %129, align 8
  %131 = icmp eq %"class.std::__1::__tree_node.162"* %130, null
  br i1 %131, label %132, label %160

132:                                              ; preds = %126
  %133 = tail call i8* @_Znwm(i64 48) #12, !noalias !32
  %134 = getelementptr inbounds i8, i8* %133, i64 32
  %135 = bitcast i8* %134 to i32*
  %136 = load i32, i32* %90, align 4, !noalias !32
  store i32 %136, i32* %135, align 8, !noalias !32
  %137 = getelementptr inbounds i8, i8* %133, i64 40
  %138 = bitcast i8* %137 to %"class.ui::GestureConsumer"**
  store %"class.ui::GestureConsumer"* null, %"class.ui::GestureConsumer"** %138, align 8, !noalias !32
  %139 = bitcast i8* %133 to %"class.std::__1::__tree_node.162"*
  %140 = bitcast i8* %133 to %"class.std::__1::__tree_node_base"*
  %141 = getelementptr inbounds i8, i8* %133, i64 16
  %142 = bitcast i8* %141 to %"class.std::__1::__tree_end_node"**
  tail call void @llvm.memset.p0i8.i64(i8* nonnull align 8 %133, i8 0, i64 16, i1 false) #11
  store %"class.std::__1::__tree_end_node"* %127, %"class.std::__1::__tree_end_node"** %142, align 8
  %143 = bitcast %"class.std::__1::__tree_node_base"** %128 to i8**
  store i8* %133, i8** %143, align 8
  %144 = getelementptr inbounds %"class.std::__1::map.15", %"class.std::__1::map.15"* %89, i64 0, i32 0, i32 0
  %145 = load %"class.std::__1::__tree_end_node"*, %"class.std::__1::__tree_end_node"** %144, align 8
  %146 = getelementptr inbounds %"class.std::__1::__tree_end_node", %"class.std::__1::__tree_end_node"* %145, i64 0, i32 0
  %147 = load %"class.std::__1::__tree_node_base"*, %"class.std::__1::__tree_node_base"** %146, align 8
  %148 = icmp eq %"class.std::__1::__tree_node_base"* %147, null
  br i1 %148, label %153, label %149

149:                                              ; preds = %132
  %150 = ptrtoint %"class.std::__1::__tree_node_base"* %147 to i64
  %151 = bitcast %"class.std::__1::map.15"* %89 to i64*
  store i64 %150, i64* %151, align 8
  %152 = load %"class.std::__1::__tree_node_base"*, %"class.std::__1::__tree_node_base"** %128, align 8
  br label %153

153:                                              ; preds = %149, %132
  %154 = phi %"class.std::__1::__tree_node_base"* [ %140, %132 ], [ %152, %149 ]
  %155 = getelementptr inbounds %"class.ui::GestureRecognizerImpl", %"class.ui::GestureRecognizerImpl"* %0, i64 0, i32 4, i32 0, i32 1, i32 0, i32 0, i32 0
  %156 = load %"class.std::__1::__tree_node_base"*, %"class.std::__1::__tree_node_base"** %155, align 8
  tail call void @_ZNSt3__127__tree_balance_after_insertIPNS_16__tree_node_baseIPvEEEEvT_S5_(%"class.std::__1::__tree_node_base"* %156, %"class.std::__1::__tree_node_base"* %154) #11
  %157 = getelementptr inbounds %"class.ui::GestureRecognizerImpl", %"class.ui::GestureRecognizerImpl"* %0, i64 0, i32 4, i32 0, i32 2, i32 0, i32 0
  %158 = load i64, i64* %157, align 8
  %159 = add i64 %158, 1
  store i64 %159, i64* %157, align 8
  br label %160

160:                                              ; preds = %126, %153
  %161 = phi %"class.std::__1::__tree_node.162"* [ %139, %153 ], [ %130, %126 ]
  %162 = getelementptr inbounds %"class.std::__1::__tree_node.162", %"class.std::__1::__tree_node.162"* %161, i64 0, i32 1, i32 0, i32 1
  store %"class.ui::GestureConsumer"* %2, %"class.ui::GestureConsumer"** %162, align 8
  br label %163

163:                                              ; preds = %79, %160, %84
  ret void
}

declare zeroext i1 @_ZN2ui19GestureProviderAura12OnTouchEventEPNS_10TouchEventE(%"class.ui::GestureProviderAura"*, %"class.ui::TouchEvent"*) local_unnamed_addr #1

; Function Attrs: nounwind ssp uwtable
define hidden void @_ZN2ui21GestureRecognizerImpl20DispatchGestureEventEPNS_15GestureConsumerEPNS_12GestureEventE(%"class.ui::GestureRecognizerImpl"* nocapture readonly, %"class.ui::GestureConsumer"*, %"class.ui::GestureEvent"*) local_unnamed_addr #0 align 2 {
  %4 = icmp eq %"class.ui::GestureConsumer"* %1, null
  br i1 %4, label %31, label %5

5:                                                ; preds = %3
  %6 = getelementptr inbounds %"class.ui::GestureRecognizerImpl", %"class.ui::GestureRecognizerImpl"* %0, i64 0, i32 5, i32 0, i32 0
  %7 = load %"class.ui::GestureEventHelper"**, %"class.ui::GestureEventHelper"*** %6, align 8
  %8 = getelementptr inbounds %"class.ui::GestureRecognizerImpl", %"class.ui::GestureRecognizerImpl"* %0, i64 0, i32 5, i32 0, i32 1
  %9 = load %"class.ui::GestureEventHelper"**, %"class.ui::GestureEventHelper"*** %8, align 8
  %10 = icmp eq %"class.ui::GestureEventHelper"** %7, %9
  br i1 %10, label %31, label %11

11:                                               ; preds = %5, %19
  %12 = phi %"class.ui::GestureEventHelper"** [ %20, %19 ], [ %7, %5 ]
  %13 = load %"class.ui::GestureEventHelper"*, %"class.ui::GestureEventHelper"** %12, align 8
  %14 = bitcast %"class.ui::GestureEventHelper"* %13 to i1 (%"class.ui::GestureEventHelper"*, %"class.ui::GestureConsumer"*)***
  %15 = load i1 (%"class.ui::GestureEventHelper"*, %"class.ui::GestureConsumer"*)**, i1 (%"class.ui::GestureEventHelper"*, %"class.ui::GestureConsumer"*)*** %14, align 8
  %16 = getelementptr inbounds i1 (%"class.ui::GestureEventHelper"*, %"class.ui::GestureConsumer"*)*, i1 (%"class.ui::GestureEventHelper"*, %"class.ui::GestureConsumer"*)** %15, i64 2
  %17 = load i1 (%"class.ui::GestureEventHelper"*, %"class.ui::GestureConsumer"*)*, i1 (%"class.ui::GestureEventHelper"*, %"class.ui::GestureConsumer"*)** %16, align 8
  %18 = tail call zeroext i1 %17(%"class.ui::GestureEventHelper"* %13, %"class.ui::GestureConsumer"* nonnull %1) #11
  br i1 %18, label %23, label %19

19:                                               ; preds = %11
  %20 = getelementptr inbounds %"class.ui::GestureEventHelper"*, %"class.ui::GestureEventHelper"** %12, i64 1
  %21 = load %"class.ui::GestureEventHelper"**, %"class.ui::GestureEventHelper"*** %8, align 8
  %22 = icmp eq %"class.ui::GestureEventHelper"** %20, %21
  br i1 %22, label %31, label %11

23:                                               ; preds = %11
  %24 = load %"class.ui::GestureEventHelper"*, %"class.ui::GestureEventHelper"** %12, align 8
  %25 = icmp eq %"class.ui::GestureEventHelper"* %24, null
  br i1 %25, label %31, label %26

26:                                               ; preds = %23
  %27 = bitcast %"class.ui::GestureEventHelper"* %24 to void (%"class.ui::GestureEventHelper"*, %"class.ui::GestureConsumer"*, %"class.ui::GestureEvent"*)***
  %28 = load void (%"class.ui::GestureEventHelper"*, %"class.ui::GestureConsumer"*, %"class.ui::GestureEvent"*)**, void (%"class.ui::GestureEventHelper"*, %"class.ui::GestureConsumer"*, %"class.ui::GestureEvent"*)*** %27, align 8
  %29 = getelementptr inbounds void (%"class.ui::GestureEventHelper"*, %"class.ui::GestureConsumer"*, %"class.ui::GestureEvent"*)*, void (%"class.ui::GestureEventHelper"*, %"class.ui::GestureConsumer"*, %"class.ui::GestureEvent"*)** %28, i64 3
  %30 = load void (%"class.ui::GestureEventHelper"*, %"class.ui::GestureConsumer"*, %"class.ui::GestureEvent"*)*, void (%"class.ui::GestureEventHelper"*, %"class.ui::GestureConsumer"*, %"class.ui::GestureEvent"*)** %29, align 8
  tail call void %30(%"class.ui::GestureEventHelper"* nonnull %24, %"class.ui::GestureConsumer"* nonnull %1, %"class.ui::GestureEvent"* %2) #11
  br label %31

31:                                               ; preds = %19, %5, %26, %23, %3
  ret void
}

; Function Attrs: nounwind ssp uwtable
define hidden void @_ZN2ui21GestureRecognizerImpl13AckTouchEventEjNS_11EventResultEbPNS_15GestureConsumerE(%"class.std::__1::vector.93"* noalias sret, %"class.ui::GestureRecognizerImpl"*, i32, i32, i1 zeroext, %"class.ui::GestureConsumer"*) unnamed_addr #0 align 2 {
  %7 = getelementptr inbounds %"class.ui::GestureRecognizerImpl", %"class.ui::GestureRecognizerImpl"* %1, i64 0, i32 3
  %8 = getelementptr inbounds %"class.ui::GestureRecognizerImpl", %"class.ui::GestureRecognizerImpl"* %1, i64 0, i32 3, i32 0, i32 1, i32 0, i32 0
  %9 = bitcast %"class.std::__1::__tree_end_node"* %8 to %"class.std::__1::__tree_node.160"**
  %10 = load %"class.std::__1::__tree_node.160"*, %"class.std::__1::__tree_node.160"** %9, align 8
  %11 = icmp eq %"class.std::__1::__tree_node.160"* %10, null
  %12 = bitcast %"class.std::__1::__tree_node.160"* %10 to %"class.std::__1::__tree_node_base"*
  br i1 %11, label %79, label %13

13:                                               ; preds = %6, %13
  %14 = phi %"class.std::__1::__tree_end_node"* [ %24, %13 ], [ %8, %6 ]
  %15 = phi %"class.std::__1::__tree_node.160"* [ %25, %13 ], [ %10, %6 ]
  %16 = getelementptr inbounds %"class.std::__1::__tree_node.160", %"class.std::__1::__tree_node.160"* %15, i64 0, i32 1, i32 0, i32 0
  %17 = load i32, i32* %16, align 4
  %18 = icmp ult i32 %17, %2
  %19 = getelementptr inbounds %"class.std::__1::__tree_node.160", %"class.std::__1::__tree_node.160"* %15, i64 0, i32 0, i32 1
  %20 = bitcast %"class.std::__1::__tree_node_base"** %19 to %"class.std::__1::__tree_node.160"**
  %21 = getelementptr inbounds %"class.std::__1::__tree_node.160", %"class.std::__1::__tree_node.160"* %15, i64 0, i32 0, i32 0
  %22 = bitcast %"class.std::__1::__tree_node.160"* %15 to %"class.std::__1::__tree_node.160"**
  %23 = select i1 %18, %"class.std::__1::__tree_node.160"** %20, %"class.std::__1::__tree_node.160"** %22
  %24 = select i1 %18, %"class.std::__1::__tree_end_node"* %14, %"class.std::__1::__tree_end_node"* %21
  %25 = load %"class.std::__1::__tree_node.160"*, %"class.std::__1::__tree_node.160"** %23, align 8
  %26 = icmp eq %"class.std::__1::__tree_node.160"* %25, null
  br i1 %26, label %27, label %13

27:                                               ; preds = %13
  %28 = icmp eq %"class.std::__1::__tree_end_node"* %24, %8
  br i1 %28, label %79, label %29

29:                                               ; preds = %27
  %30 = getelementptr inbounds %"class.std::__1::__tree_end_node", %"class.std::__1::__tree_end_node"* %24, i64 4
  %31 = bitcast %"class.std::__1::__tree_end_node"* %30 to i32*
  %32 = load i32, i32* %31, align 4
  %33 = icmp ugt i32 %32, %2
  br i1 %33, label %79, label %34

34:                                               ; preds = %29
  %35 = getelementptr inbounds %"class.std::__1::__tree_end_node", %"class.std::__1::__tree_end_node"* %24, i64 5
  %36 = bitcast %"class.std::__1::__tree_end_node"* %35 to %"class.ui::GestureProviderAura"**
  %37 = load %"class.ui::GestureProviderAura"*, %"class.ui::GestureProviderAura"** %36, align 8
  %38 = getelementptr inbounds %"class.std::__1::__tree_end_node", %"class.std::__1::__tree_end_node"* %24, i64 1, i32 0
  %39 = load %"class.std::__1::__tree_node_base"*, %"class.std::__1::__tree_node_base"** %38, align 8
  %40 = icmp eq %"class.std::__1::__tree_node_base"* %39, null
  br i1 %40, label %41, label %49

41:                                               ; preds = %34
  %42 = bitcast %"class.std::__1::__tree_end_node"* %24 to %"class.std::__1::__tree_node_base"*
  %43 = getelementptr inbounds %"class.std::__1::__tree_end_node", %"class.std::__1::__tree_end_node"* %24, i64 2
  %44 = bitcast %"class.std::__1::__tree_end_node"* %43 to %"class.std::__1::__tree_end_node"**
  %45 = load %"class.std::__1::__tree_end_node"*, %"class.std::__1::__tree_end_node"** %44, align 8
  %46 = getelementptr inbounds %"class.std::__1::__tree_end_node", %"class.std::__1::__tree_end_node"* %45, i64 0, i32 0
  %47 = load %"class.std::__1::__tree_node_base"*, %"class.std::__1::__tree_node_base"** %46, align 8
  %48 = icmp eq %"class.std::__1::__tree_node_base"* %47, %42
  br i1 %48, label %65, label %56

49:                                               ; preds = %34, %49
  %50 = phi %"class.std::__1::__tree_node_base"* [ %52, %49 ], [ %39, %34 ]
  %51 = getelementptr inbounds %"class.std::__1::__tree_node_base", %"class.std::__1::__tree_node_base"* %50, i64 0, i32 0, i32 0
  %52 = load %"class.std::__1::__tree_node_base"*, %"class.std::__1::__tree_node_base"** %51, align 8
  %53 = icmp eq %"class.std::__1::__tree_node_base"* %52, null
  br i1 %53, label %54, label %49

54:                                               ; preds = %49
  %55 = getelementptr inbounds %"class.std::__1::__tree_node_base", %"class.std::__1::__tree_node_base"* %50, i64 0, i32 0
  br label %65

56:                                               ; preds = %41, %56
  %57 = phi %"class.std::__1::__tree_end_node"** [ %60, %56 ], [ %44, %41 ]
  %58 = bitcast %"class.std::__1::__tree_end_node"** %57 to %"class.std::__1::__tree_node_base"**
  %59 = load %"class.std::__1::__tree_node_base"*, %"class.std::__1::__tree_node_base"** %58, align 8
  %60 = getelementptr inbounds %"class.std::__1::__tree_node_base", %"class.std::__1::__tree_node_base"* %59, i64 0, i32 2
  %61 = load %"class.std::__1::__tree_end_node"*, %"class.std::__1::__tree_end_node"** %60, align 8
  %62 = getelementptr inbounds %"class.std::__1::__tree_end_node", %"class.std::__1::__tree_end_node"* %61, i64 0, i32 0
  %63 = load %"class.std::__1::__tree_node_base"*, %"class.std::__1::__tree_node_base"** %62, align 8
  %64 = icmp eq %"class.std::__1::__tree_node_base"* %63, %59
  br i1 %64, label %65, label %56

65:                                               ; preds = %56, %54, %41
  %66 = phi %"class.std::__1::__tree_end_node"* [ %55, %54 ], [ %45, %41 ], [ %61, %56 ]
  %67 = getelementptr inbounds %"class.std::__1::map.4", %"class.std::__1::map.4"* %7, i64 0, i32 0, i32 0
  %68 = load %"class.std::__1::__tree_end_node"*, %"class.std::__1::__tree_end_node"** %67, align 8
  %69 = icmp eq %"class.std::__1::__tree_end_node"* %68, %24
  br i1 %69, label %70, label %73

70:                                               ; preds = %65
  %71 = ptrtoint %"class.std::__1::__tree_end_node"* %66 to i64
  %72 = bitcast %"class.std::__1::map.4"* %7 to i64*
  store i64 %71, i64* %72, align 8
  br label %73

73:                                               ; preds = %65, %70
  %74 = getelementptr inbounds %"class.ui::GestureRecognizerImpl", %"class.ui::GestureRecognizerImpl"* %1, i64 0, i32 3, i32 0, i32 2, i32 0, i32 0
  %75 = load i64, i64* %74, align 8
  %76 = add i64 %75, -1
  store i64 %76, i64* %74, align 8
  %77 = bitcast %"class.std::__1::__tree_end_node"* %24 to %"class.std::__1::__tree_node_base"*
  tail call void @_ZNSt3__113__tree_removeIPNS_16__tree_node_baseIPvEEEEvT_S5_(%"class.std::__1::__tree_node_base"* nonnull %12, %"class.std::__1::__tree_node_base"* %77) #11
  %78 = bitcast %"class.std::__1::__tree_end_node"* %24 to i8*
  tail call void @_ZdlPv(i8* %78) #12
  br label %85

79:                                               ; preds = %29, %27, %6
  %80 = bitcast %"class.ui::GestureRecognizerImpl"* %1 to %"class.ui::GestureProviderAura"* (%"class.ui::GestureRecognizerImpl"*, %"class.ui::GestureConsumer"*)***
  %81 = load %"class.ui::GestureProviderAura"* (%"class.ui::GestureRecognizerImpl"*, %"class.ui::GestureConsumer"*)**, %"class.ui::GestureProviderAura"* (%"class.ui::GestureRecognizerImpl"*, %"class.ui::GestureConsumer"*)*** %80, align 8
  %82 = getelementptr inbounds %"class.ui::GestureProviderAura"* (%"class.ui::GestureRecognizerImpl"*, %"class.ui::GestureConsumer"*)*, %"class.ui::GestureProviderAura"* (%"class.ui::GestureRecognizerImpl"*, %"class.ui::GestureConsumer"*)** %81, i64 18
  %83 = load %"class.ui::GestureProviderAura"* (%"class.ui::GestureRecognizerImpl"*, %"class.ui::GestureConsumer"*)*, %"class.ui::GestureProviderAura"* (%"class.ui::GestureRecognizerImpl"*, %"class.ui::GestureConsumer"*)** %82, align 8
  %84 = tail call %"class.ui::GestureProviderAura"* %83(%"class.ui::GestureRecognizerImpl"* %1, %"class.ui::GestureConsumer"* %5) #11
  br label %85

85:                                               ; preds = %79, %73
  %86 = phi %"class.ui::GestureProviderAura"* [ %37, %73 ], [ %84, %79 ]
  %87 = icmp ne i32 %3, 0
  tail call void @_ZN2ui19GestureProviderAura15OnTouchEventAckEjbb(%"class.ui::GestureProviderAura"* %86, i32 %2, i1 zeroext %87, i1 zeroext %4) #11
  tail call void @_ZN2ui19GestureProviderAura26GetAndResetPendingGesturesEv(%"class.std::__1::vector.93"* sret %0, %"class.ui::GestureProviderAura"* %86) #11
  ret void
}

declare void @_ZN2ui19GestureProviderAura15OnTouchEventAckEjbb(%"class.ui::GestureProviderAura"*, i32, i1 zeroext, i1 zeroext) local_unnamed_addr #1

declare void @_ZN2ui19GestureProviderAura26GetAndResetPendingGesturesEv(%"class.std::__1::vector.93"* sret, %"class.ui::GestureProviderAura"*) local_unnamed_addr #1

; Function Attrs: nounwind ssp uwtable
define hidden zeroext i1 @_ZN2ui21GestureRecognizerImpl23CleanupStateForConsumerEPNS_15GestureConsumerE(%"class.ui::GestureRecognizerImpl"*, %"class.ui::GestureConsumer"*) unnamed_addr #0 align 2 {
  %3 = getelementptr inbounds %"class.ui::GestureRecognizerImpl", %"class.ui::GestureRecognizerImpl"* %0, i64 0, i32 4
  %4 = icmp eq %"class.std::__1::map.15"* %3, null
  br i1 %4, label %124, label %5

5:                                                ; preds = %2
  %6 = getelementptr inbounds %"class.ui::GestureRecognizerImpl", %"class.ui::GestureRecognizerImpl"* %0, i64 0, i32 4, i32 0, i32 2, i32 0, i32 0
  %7 = load i64, i64* %6, align 8
  %8 = icmp eq i64 %7, 0
  br i1 %8, label %124, label %9

9:                                                ; preds = %5
  %10 = getelementptr inbounds %"class.std::__1::map.15", %"class.std::__1::map.15"* %3, i64 0, i32 0, i32 0
  %11 = load %"class.std::__1::__tree_end_node"*, %"class.std::__1::__tree_end_node"** %10, align 8
  %12 = getelementptr inbounds %"class.ui::GestureRecognizerImpl", %"class.ui::GestureRecognizerImpl"* %0, i64 0, i32 4, i32 0, i32 1, i32 0, i32 0
  %13 = icmp eq %"class.std::__1::__tree_end_node"* %11, %12
  br i1 %13, label %17, label %14

14:                                               ; preds = %9
  %15 = bitcast %"class.std::__1::map.15"* %3 to i64*
  %16 = getelementptr inbounds %"class.ui::GestureRecognizerImpl", %"class.ui::GestureRecognizerImpl"* %0, i64 0, i32 4, i32 0, i32 1, i32 0, i32 0, i32 0
  br label %21

17:                                               ; preds = %120, %9
  %18 = phi i8 [ 0, %9 ], [ %122, %120 ]
  %19 = and i8 %18, 1
  %20 = icmp ne i8 %19, 0
  br label %124

21:                                               ; preds = %120, %14
  %22 = phi i8 [ 0, %14 ], [ %122, %120 ]
  %23 = phi %"class.std::__1::__tree_end_node"* [ %11, %14 ], [ %121, %120 ]
  %24 = getelementptr inbounds %"class.std::__1::__tree_end_node", %"class.std::__1::__tree_end_node"* %23, i64 5
  %25 = bitcast %"class.std::__1::__tree_end_node"* %24 to %"class.ui::GestureConsumer"**
  %26 = load %"class.ui::GestureConsumer"*, %"class.ui::GestureConsumer"** %25, align 8
  %27 = icmp eq %"class.ui::GestureConsumer"* %26, %1
  %28 = getelementptr inbounds %"class.std::__1::__tree_end_node", %"class.std::__1::__tree_end_node"* %23, i64 1, i32 0
  %29 = load %"class.std::__1::__tree_node_base"*, %"class.std::__1::__tree_node_base"** %28, align 8
  %30 = icmp eq %"class.std::__1::__tree_node_base"* %29, null
  br i1 %27, label %31, label %95

31:                                               ; preds = %21
  br i1 %30, label %32, label %40

32:                                               ; preds = %31
  %33 = bitcast %"class.std::__1::__tree_end_node"* %23 to %"class.std::__1::__tree_node_base"*
  %34 = getelementptr inbounds %"class.std::__1::__tree_end_node", %"class.std::__1::__tree_end_node"* %23, i64 2
  %35 = bitcast %"class.std::__1::__tree_end_node"* %34 to %"class.std::__1::__tree_end_node"**
  %36 = load %"class.std::__1::__tree_end_node"*, %"class.std::__1::__tree_end_node"** %35, align 8
  %37 = getelementptr inbounds %"class.std::__1::__tree_end_node", %"class.std::__1::__tree_end_node"* %36, i64 0, i32 0
  %38 = load %"class.std::__1::__tree_node_base"*, %"class.std::__1::__tree_node_base"** %37, align 8
  %39 = icmp eq %"class.std::__1::__tree_node_base"* %38, %33
  br i1 %39, label %82, label %47

40:                                               ; preds = %31, %40
  %41 = phi %"class.std::__1::__tree_node_base"* [ %43, %40 ], [ %29, %31 ]
  %42 = getelementptr inbounds %"class.std::__1::__tree_node_base", %"class.std::__1::__tree_node_base"* %41, i64 0, i32 0, i32 0
  %43 = load %"class.std::__1::__tree_node_base"*, %"class.std::__1::__tree_node_base"** %42, align 8
  %44 = icmp eq %"class.std::__1::__tree_node_base"* %43, null
  br i1 %44, label %45, label %40

45:                                               ; preds = %40
  %46 = getelementptr inbounds %"class.std::__1::__tree_node_base", %"class.std::__1::__tree_node_base"* %41, i64 0, i32 0
  br label %56

47:                                               ; preds = %32, %47
  %48 = phi %"class.std::__1::__tree_end_node"** [ %51, %47 ], [ %35, %32 ]
  %49 = bitcast %"class.std::__1::__tree_end_node"** %48 to %"class.std::__1::__tree_node_base"**
  %50 = load %"class.std::__1::__tree_node_base"*, %"class.std::__1::__tree_node_base"** %49, align 8
  %51 = getelementptr inbounds %"class.std::__1::__tree_node_base", %"class.std::__1::__tree_node_base"* %50, i64 0, i32 2
  %52 = load %"class.std::__1::__tree_end_node"*, %"class.std::__1::__tree_end_node"** %51, align 8
  %53 = getelementptr inbounds %"class.std::__1::__tree_end_node", %"class.std::__1::__tree_end_node"* %52, i64 0, i32 0
  %54 = load %"class.std::__1::__tree_node_base"*, %"class.std::__1::__tree_node_base"** %53, align 8
  %55 = icmp eq %"class.std::__1::__tree_node_base"* %54, %50
  br i1 %55, label %56, label %47

56:                                               ; preds = %47, %45
  %57 = phi %"class.std::__1::__tree_end_node"* [ %46, %45 ], [ %52, %47 ]
  br i1 %30, label %58, label %66

58:                                               ; preds = %56
  %59 = getelementptr inbounds %"class.std::__1::__tree_end_node", %"class.std::__1::__tree_end_node"* %23, i64 2
  %60 = bitcast %"class.std::__1::__tree_end_node"* %59 to %"class.std::__1::__tree_end_node"**
  %61 = load %"class.std::__1::__tree_end_node"*, %"class.std::__1::__tree_end_node"** %60, align 8
  %62 = getelementptr inbounds %"class.std::__1::__tree_end_node", %"class.std::__1::__tree_end_node"* %61, i64 0, i32 0
  %63 = load %"class.std::__1::__tree_node_base"*, %"class.std::__1::__tree_node_base"** %62, align 8
  %64 = bitcast %"class.std::__1::__tree_end_node"* %23 to %"class.std::__1::__tree_node_base"*
  %65 = icmp eq %"class.std::__1::__tree_node_base"* %63, %64
  br i1 %65, label %82, label %73

66:                                               ; preds = %56, %66
  %67 = phi %"class.std::__1::__tree_node_base"* [ %69, %66 ], [ %29, %56 ]
  %68 = getelementptr inbounds %"class.std::__1::__tree_node_base", %"class.std::__1::__tree_node_base"* %67, i64 0, i32 0, i32 0
  %69 = load %"class.std::__1::__tree_node_base"*, %"class.std::__1::__tree_node_base"** %68, align 8
  %70 = icmp eq %"class.std::__1::__tree_node_base"* %69, null
  br i1 %70, label %71, label %66

71:                                               ; preds = %66
  %72 = getelementptr inbounds %"class.std::__1::__tree_node_base", %"class.std::__1::__tree_node_base"* %67, i64 0, i32 0
  br label %82

73:                                               ; preds = %58, %73
  %74 = phi %"class.std::__1::__tree_end_node"** [ %77, %73 ], [ %60, %58 ]
  %75 = bitcast %"class.std::__1::__tree_end_node"** %74 to %"class.std::__1::__tree_node_base"**
  %76 = load %"class.std::__1::__tree_node_base"*, %"class.std::__1::__tree_node_base"** %75, align 8
  %77 = getelementptr inbounds %"class.std::__1::__tree_node_base", %"class.std::__1::__tree_node_base"* %76, i64 0, i32 2
  %78 = load %"class.std::__1::__tree_end_node"*, %"class.std::__1::__tree_end_node"** %77, align 8
  %79 = getelementptr inbounds %"class.std::__1::__tree_end_node", %"class.std::__1::__tree_end_node"* %78, i64 0, i32 0
  %80 = load %"class.std::__1::__tree_node_base"*, %"class.std::__1::__tree_node_base"** %79, align 8
  %81 = icmp eq %"class.std::__1::__tree_node_base"* %80, %76
  br i1 %81, label %82, label %73

82:                                               ; preds = %73, %71, %58, %32
  %83 = phi %"class.std::__1::__tree_end_node"* [ %57, %71 ], [ %57, %58 ], [ %36, %32 ], [ %57, %73 ]
  %84 = phi %"class.std::__1::__tree_end_node"* [ %72, %71 ], [ %61, %58 ], [ %36, %32 ], [ %78, %73 ]
  %85 = load %"class.std::__1::__tree_end_node"*, %"class.std::__1::__tree_end_node"** %10, align 8
  %86 = icmp eq %"class.std::__1::__tree_end_node"* %85, %23
  br i1 %86, label %87, label %89

87:                                               ; preds = %82
  %88 = ptrtoint %"class.std::__1::__tree_end_node"* %84 to i64
  store i64 %88, i64* %15, align 8
  br label %89

89:                                               ; preds = %87, %82
  %90 = load i64, i64* %6, align 8
  %91 = add i64 %90, -1
  store i64 %91, i64* %6, align 8
  %92 = load %"class.std::__1::__tree_node_base"*, %"class.std::__1::__tree_node_base"** %16, align 8
  %93 = bitcast %"class.std::__1::__tree_end_node"* %23 to %"class.std::__1::__tree_node_base"*
  tail call void @_ZNSt3__113__tree_removeIPNS_16__tree_node_baseIPvEEEEvT_S5_(%"class.std::__1::__tree_node_base"* %92, %"class.std::__1::__tree_node_base"* %93) #11
  %94 = bitcast %"class.std::__1::__tree_end_node"* %23 to i8*
  tail call void @_ZdlPv(i8* %94) #12
  br label %120

95:                                               ; preds = %21
  br i1 %30, label %96, label %104

96:                                               ; preds = %95
  %97 = bitcast %"class.std::__1::__tree_end_node"* %23 to %"class.std::__1::__tree_node_base"*
  %98 = getelementptr inbounds %"class.std::__1::__tree_end_node", %"class.std::__1::__tree_end_node"* %23, i64 2
  %99 = bitcast %"class.std::__1::__tree_end_node"* %98 to %"class.std::__1::__tree_end_node"**
  %100 = load %"class.std::__1::__tree_end_node"*, %"class.std::__1::__tree_end_node"** %99, align 8
  %101 = getelementptr inbounds %"class.std::__1::__tree_end_node", %"class.std::__1::__tree_end_node"* %100, i64 0, i32 0
  %102 = load %"class.std::__1::__tree_node_base"*, %"class.std::__1::__tree_node_base"** %101, align 8
  %103 = icmp eq %"class.std::__1::__tree_node_base"* %102, %97
  br i1 %103, label %120, label %111

104:                                              ; preds = %95, %104
  %105 = phi %"class.std::__1::__tree_node_base"* [ %107, %104 ], [ %29, %95 ]
  %106 = getelementptr inbounds %"class.std::__1::__tree_node_base", %"class.std::__1::__tree_node_base"* %105, i64 0, i32 0, i32 0
  %107 = load %"class.std::__1::__tree_node_base"*, %"class.std::__1::__tree_node_base"** %106, align 8
  %108 = icmp eq %"class.std::__1::__tree_node_base"* %107, null
  br i1 %108, label %109, label %104

109:                                              ; preds = %104
  %110 = getelementptr inbounds %"class.std::__1::__tree_node_base", %"class.std::__1::__tree_node_base"* %105, i64 0, i32 0
  br label %120

111:                                              ; preds = %96, %111
  %112 = phi %"class.std::__1::__tree_end_node"** [ %115, %111 ], [ %99, %96 ]
  %113 = bitcast %"class.std::__1::__tree_end_node"** %112 to %"class.std::__1::__tree_node_base"**
  %114 = load %"class.std::__1::__tree_node_base"*, %"class.std::__1::__tree_node_base"** %113, align 8
  %115 = getelementptr inbounds %"class.std::__1::__tree_node_base", %"class.std::__1::__tree_node_base"* %114, i64 0, i32 2
  %116 = load %"class.std::__1::__tree_end_node"*, %"class.std::__1::__tree_end_node"** %115, align 8
  %117 = getelementptr inbounds %"class.std::__1::__tree_end_node", %"class.std::__1::__tree_end_node"* %116, i64 0, i32 0
  %118 = load %"class.std::__1::__tree_node_base"*, %"class.std::__1::__tree_node_base"** %117, align 8
  %119 = icmp eq %"class.std::__1::__tree_node_base"* %118, %114
  br i1 %119, label %120, label %111

120:                                              ; preds = %111, %109, %96, %89
  %121 = phi %"class.std::__1::__tree_end_node"* [ %83, %89 ], [ %110, %109 ], [ %100, %96 ], [ %116, %111 ]
  %122 = phi i8 [ 1, %89 ], [ %22, %109 ], [ %22, %96 ], [ %22, %111 ]
  %123 = icmp eq %"class.std::__1::__tree_end_node"* %121, %12
  br i1 %123, label %17, label %21

124:                                              ; preds = %2, %5, %17
  %125 = phi i1 [ %20, %17 ], [ false, %2 ], [ false, %5 ]
  %126 = getelementptr inbounds %"class.ui::GestureRecognizerImpl", %"class.ui::GestureRecognizerImpl"* %0, i64 0, i32 2
  %127 = getelementptr inbounds %"class.ui::GestureRecognizerImpl", %"class.ui::GestureRecognizerImpl"* %0, i64 0, i32 2, i32 0, i32 2, i32 0, i32 0
  %128 = load i64, i64* %127, align 8
  %129 = icmp eq i64 %128, 0
  br i1 %129, label %326, label %130

130:                                              ; preds = %124
  %131 = getelementptr inbounds %"class.ui::GestureRecognizerImpl", %"class.ui::GestureRecognizerImpl"* %0, i64 0, i32 2, i32 0, i32 1, i32 0, i32 0
  %132 = bitcast %"class.std::__1::__tree_end_node"* %131 to %"class.std::__1::__tree_node"**
  %133 = load %"class.std::__1::__tree_node"*, %"class.std::__1::__tree_node"** %132, align 8
  %134 = icmp eq %"class.std::__1::__tree_node"* %133, null
  br i1 %134, label %326, label %135

135:                                              ; preds = %130, %135
  %136 = phi %"class.std::__1::__tree_end_node"* [ %146, %135 ], [ %131, %130 ]
  %137 = phi %"class.std::__1::__tree_node"* [ %147, %135 ], [ %133, %130 ]
  %138 = getelementptr inbounds %"class.std::__1::__tree_node", %"class.std::__1::__tree_node"* %137, i64 0, i32 1, i32 0, i32 0
  %139 = load %"class.ui::GestureConsumer"*, %"class.ui::GestureConsumer"** %138, align 8
  %140 = icmp ult %"class.ui::GestureConsumer"* %139, %1
  %141 = getelementptr inbounds %"class.std::__1::__tree_node", %"class.std::__1::__tree_node"* %137, i64 0, i32 0, i32 1
  %142 = bitcast %"class.std::__1::__tree_node_base"** %141 to %"class.std::__1::__tree_node"**
  %143 = getelementptr inbounds %"class.std::__1::__tree_node", %"class.std::__1::__tree_node"* %137, i64 0, i32 0, i32 0
  %144 = bitcast %"class.std::__1::__tree_node"* %137 to %"class.std::__1::__tree_node"**
  %145 = select i1 %140, %"class.std::__1::__tree_node"** %142, %"class.std::__1::__tree_node"** %144
  %146 = select i1 %140, %"class.std::__1::__tree_end_node"* %136, %"class.std::__1::__tree_end_node"* %143
  %147 = load %"class.std::__1::__tree_node"*, %"class.std::__1::__tree_node"** %145, align 8
  %148 = icmp eq %"class.std::__1::__tree_node"* %147, null
  br i1 %148, label %149, label %135

149:                                              ; preds = %135
  %150 = icmp eq %"class.std::__1::__tree_end_node"* %146, %131
  br i1 %150, label %326, label %151

151:                                              ; preds = %149
  %152 = getelementptr inbounds %"class.std::__1::__tree_end_node", %"class.std::__1::__tree_end_node"* %146, i64 4
  %153 = bitcast %"class.std::__1::__tree_end_node"* %152 to %"class.ui::GestureConsumer"**
  %154 = load %"class.ui::GestureConsumer"*, %"class.ui::GestureConsumer"** %153, align 8
  %155 = icmp ugt %"class.ui::GestureConsumer"* %154, %1
  br i1 %155, label %326, label %156

156:                                              ; preds = %151
  %157 = getelementptr inbounds %"class.ui::GestureRecognizerImpl", %"class.ui::GestureRecognizerImpl"* %0, i64 0, i32 3
  %158 = getelementptr inbounds %"class.std::__1::__tree_end_node", %"class.std::__1::__tree_end_node"* %146, i64 5
  %159 = bitcast %"class.std::__1::__tree_end_node"* %158 to %"class.ui::GestureProviderAura"**
  %160 = load %"class.ui::GestureProviderAura"*, %"class.ui::GestureProviderAura"** %159, align 8
  %161 = icmp eq %"class.std::__1::map.4"* %157, null
  br i1 %161, label %275, label %162

162:                                              ; preds = %156
  %163 = getelementptr inbounds %"class.ui::GestureRecognizerImpl", %"class.ui::GestureRecognizerImpl"* %0, i64 0, i32 3, i32 0, i32 2, i32 0, i32 0
  %164 = load i64, i64* %163, align 8
  %165 = icmp eq i64 %164, 0
  br i1 %165, label %275, label %166

166:                                              ; preds = %162
  %167 = getelementptr inbounds %"class.std::__1::map.4", %"class.std::__1::map.4"* %157, i64 0, i32 0, i32 0
  %168 = load %"class.std::__1::__tree_end_node"*, %"class.std::__1::__tree_end_node"** %167, align 8
  %169 = getelementptr inbounds %"class.ui::GestureRecognizerImpl", %"class.ui::GestureRecognizerImpl"* %0, i64 0, i32 3, i32 0, i32 1, i32 0, i32 0
  %170 = icmp eq %"class.std::__1::__tree_end_node"* %168, %169
  br i1 %170, label %275, label %171

171:                                              ; preds = %166
  %172 = bitcast %"class.std::__1::map.4"* %157 to i64*
  %173 = getelementptr inbounds %"class.ui::GestureRecognizerImpl", %"class.ui::GestureRecognizerImpl"* %0, i64 0, i32 3, i32 0, i32 1, i32 0, i32 0, i32 0
  br label %174

174:                                              ; preds = %272, %171
  %175 = phi %"class.std::__1::__tree_end_node"* [ %168, %171 ], [ %273, %272 ]
  %176 = getelementptr inbounds %"class.std::__1::__tree_end_node", %"class.std::__1::__tree_end_node"* %175, i64 5
  %177 = bitcast %"class.std::__1::__tree_end_node"* %176 to %"class.ui::GestureProviderAura"**
  %178 = load %"class.ui::GestureProviderAura"*, %"class.ui::GestureProviderAura"** %177, align 8
  %179 = icmp eq %"class.ui::GestureProviderAura"* %178, %160
  %180 = getelementptr inbounds %"class.std::__1::__tree_end_node", %"class.std::__1::__tree_end_node"* %175, i64 1, i32 0
  %181 = load %"class.std::__1::__tree_node_base"*, %"class.std::__1::__tree_node_base"** %180, align 8
  %182 = icmp eq %"class.std::__1::__tree_node_base"* %181, null
  br i1 %179, label %183, label %247

183:                                              ; preds = %174
  br i1 %182, label %184, label %192

184:                                              ; preds = %183
  %185 = bitcast %"class.std::__1::__tree_end_node"* %175 to %"class.std::__1::__tree_node_base"*
  %186 = getelementptr inbounds %"class.std::__1::__tree_end_node", %"class.std::__1::__tree_end_node"* %175, i64 2
  %187 = bitcast %"class.std::__1::__tree_end_node"* %186 to %"class.std::__1::__tree_end_node"**
  %188 = load %"class.std::__1::__tree_end_node"*, %"class.std::__1::__tree_end_node"** %187, align 8
  %189 = getelementptr inbounds %"class.std::__1::__tree_end_node", %"class.std::__1::__tree_end_node"* %188, i64 0, i32 0
  %190 = load %"class.std::__1::__tree_node_base"*, %"class.std::__1::__tree_node_base"** %189, align 8
  %191 = icmp eq %"class.std::__1::__tree_node_base"* %190, %185
  br i1 %191, label %234, label %199

192:                                              ; preds = %183, %192
  %193 = phi %"class.std::__1::__tree_node_base"* [ %195, %192 ], [ %181, %183 ]
  %194 = getelementptr inbounds %"class.std::__1::__tree_node_base", %"class.std::__1::__tree_node_base"* %193, i64 0, i32 0, i32 0
  %195 = load %"class.std::__1::__tree_node_base"*, %"class.std::__1::__tree_node_base"** %194, align 8
  %196 = icmp eq %"class.std::__1::__tree_node_base"* %195, null
  br i1 %196, label %197, label %192

197:                                              ; preds = %192
  %198 = getelementptr inbounds %"class.std::__1::__tree_node_base", %"class.std::__1::__tree_node_base"* %193, i64 0, i32 0
  br label %208

199:                                              ; preds = %184, %199
  %200 = phi %"class.std::__1::__tree_end_node"** [ %203, %199 ], [ %187, %184 ]
  %201 = bitcast %"class.std::__1::__tree_end_node"** %200 to %"class.std::__1::__tree_node_base"**
  %202 = load %"class.std::__1::__tree_node_base"*, %"class.std::__1::__tree_node_base"** %201, align 8
  %203 = getelementptr inbounds %"class.std::__1::__tree_node_base", %"class.std::__1::__tree_node_base"* %202, i64 0, i32 2
  %204 = load %"class.std::__1::__tree_end_node"*, %"class.std::__1::__tree_end_node"** %203, align 8
  %205 = getelementptr inbounds %"class.std::__1::__tree_end_node", %"class.std::__1::__tree_end_node"* %204, i64 0, i32 0
  %206 = load %"class.std::__1::__tree_node_base"*, %"class.std::__1::__tree_node_base"** %205, align 8
  %207 = icmp eq %"class.std::__1::__tree_node_base"* %206, %202
  br i1 %207, label %208, label %199

208:                                              ; preds = %199, %197
  %209 = phi %"class.std::__1::__tree_end_node"* [ %198, %197 ], [ %204, %199 ]
  br i1 %182, label %210, label %218

210:                                              ; preds = %208
  %211 = getelementptr inbounds %"class.std::__1::__tree_end_node", %"class.std::__1::__tree_end_node"* %175, i64 2
  %212 = bitcast %"class.std::__1::__tree_end_node"* %211 to %"class.std::__1::__tree_end_node"**
  %213 = load %"class.std::__1::__tree_end_node"*, %"class.std::__1::__tree_end_node"** %212, align 8
  %214 = getelementptr inbounds %"class.std::__1::__tree_end_node", %"class.std::__1::__tree_end_node"* %213, i64 0, i32 0
  %215 = load %"class.std::__1::__tree_node_base"*, %"class.std::__1::__tree_node_base"** %214, align 8
  %216 = bitcast %"class.std::__1::__tree_end_node"* %175 to %"class.std::__1::__tree_node_base"*
  %217 = icmp eq %"class.std::__1::__tree_node_base"* %215, %216
  br i1 %217, label %234, label %225

218:                                              ; preds = %208, %218
  %219 = phi %"class.std::__1::__tree_node_base"* [ %221, %218 ], [ %181, %208 ]
  %220 = getelementptr inbounds %"class.std::__1::__tree_node_base", %"class.std::__1::__tree_node_base"* %219, i64 0, i32 0, i32 0
  %221 = load %"class.std::__1::__tree_node_base"*, %"class.std::__1::__tree_node_base"** %220, align 8
  %222 = icmp eq %"class.std::__1::__tree_node_base"* %221, null
  br i1 %222, label %223, label %218

223:                                              ; preds = %218
  %224 = getelementptr inbounds %"class.std::__1::__tree_node_base", %"class.std::__1::__tree_node_base"* %219, i64 0, i32 0
  br label %234

225:                                              ; preds = %210, %225
  %226 = phi %"class.std::__1::__tree_end_node"** [ %229, %225 ], [ %212, %210 ]
  %227 = bitcast %"class.std::__1::__tree_end_node"** %226 to %"class.std::__1::__tree_node_base"**
  %228 = load %"class.std::__1::__tree_node_base"*, %"class.std::__1::__tree_node_base"** %227, align 8
  %229 = getelementptr inbounds %"class.std::__1::__tree_node_base", %"class.std::__1::__tree_node_base"* %228, i64 0, i32 2
  %230 = load %"class.std::__1::__tree_end_node"*, %"class.std::__1::__tree_end_node"** %229, align 8
  %231 = getelementptr inbounds %"class.std::__1::__tree_end_node", %"class.std::__1::__tree_end_node"* %230, i64 0, i32 0
  %232 = load %"class.std::__1::__tree_node_base"*, %"class.std::__1::__tree_node_base"** %231, align 8
  %233 = icmp eq %"class.std::__1::__tree_node_base"* %232, %228
  br i1 %233, label %234, label %225

234:                                              ; preds = %225, %223, %210, %184
  %235 = phi %"class.std::__1::__tree_end_node"* [ %209, %223 ], [ %209, %210 ], [ %188, %184 ], [ %209, %225 ]
  %236 = phi %"class.std::__1::__tree_end_node"* [ %224, %223 ], [ %213, %210 ], [ %188, %184 ], [ %230, %225 ]
  %237 = load %"class.std::__1::__tree_end_node"*, %"class.std::__1::__tree_end_node"** %167, align 8
  %238 = icmp eq %"class.std::__1::__tree_end_node"* %237, %175
  br i1 %238, label %239, label %241

239:                                              ; preds = %234
  %240 = ptrtoint %"class.std::__1::__tree_end_node"* %236 to i64
  store i64 %240, i64* %172, align 8
  br label %241

241:                                              ; preds = %239, %234
  %242 = load i64, i64* %163, align 8
  %243 = add i64 %242, -1
  store i64 %243, i64* %163, align 8
  %244 = load %"class.std::__1::__tree_node_base"*, %"class.std::__1::__tree_node_base"** %173, align 8
  %245 = bitcast %"class.std::__1::__tree_end_node"* %175 to %"class.std::__1::__tree_node_base"*
  tail call void @_ZNSt3__113__tree_removeIPNS_16__tree_node_baseIPvEEEEvT_S5_(%"class.std::__1::__tree_node_base"* %244, %"class.std::__1::__tree_node_base"* %245) #11
  %246 = bitcast %"class.std::__1::__tree_end_node"* %175 to i8*
  tail call void @_ZdlPv(i8* %246) #12
  br label %272

247:                                              ; preds = %174
  br i1 %182, label %248, label %256

248:                                              ; preds = %247
  %249 = bitcast %"class.std::__1::__tree_end_node"* %175 to %"class.std::__1::__tree_node_base"*
  %250 = getelementptr inbounds %"class.std::__1::__tree_end_node", %"class.std::__1::__tree_end_node"* %175, i64 2
  %251 = bitcast %"class.std::__1::__tree_end_node"* %250 to %"class.std::__1::__tree_end_node"**
  %252 = load %"class.std::__1::__tree_end_node"*, %"class.std::__1::__tree_end_node"** %251, align 8
  %253 = getelementptr inbounds %"class.std::__1::__tree_end_node", %"class.std::__1::__tree_end_node"* %252, i64 0, i32 0
  %254 = load %"class.std::__1::__tree_node_base"*, %"class.std::__1::__tree_node_base"** %253, align 8
  %255 = icmp eq %"class.std::__1::__tree_node_base"* %254, %249
