; ModuleID = 'gen/services/viz/public/mojom/gpu.mojom-blink-test-utils.cc'
source_filename = "gen/services/viz/public/mojom/gpu.mojom-blink-test-utils.cc"
target datalayout = "e-m:e-i64:64-f80:128-n8:16:32:64-S128"
target triple = "x86_64-unknown-linux-gnu"

module asm ".symver exp, exp@GLIBC_2.2.5"
module asm ".symver exp2, exp2@GLIBC_2.2.5"
module asm ".symver exp2f, exp2f@GLIBC_2.2.5"
module asm ".symver expf, expf@GLIBC_2.2.5"
module asm ".symver lgamma, lgamma@GLIBC_2.2.5"
module asm ".symver lgammaf, lgammaf@GLIBC_2.2.5"
module asm ".symver lgammal, lgammal@GLIBC_2.2.5"
module asm ".symver log, log@GLIBC_2.2.5"
module asm ".symver log2, log2@GLIBC_2.2.5"
module asm ".symver log2f, log2f@GLIBC_2.2.5"
module asm ".symver logf, logf@GLIBC_2.2.5"
module asm ".symver pow, pow@GLIBC_2.2.5"
module asm ".symver powf, powf@GLIBC_2.2.5"

%"class.viz::mojom::blink::GpuMemoryBufferFactoryAsyncWaiter" = type { %"class.viz::mojom::blink::GpuMemoryBufferFactory"* }
%"class.viz::mojom::blink::GpuMemoryBufferFactory" = type { i32 (...)** }
%"class.viz::mojom::blink::GpuAsyncWaiter" = type { %"class.viz::mojom::blink::Gpu"* }
%"class.viz::mojom::blink::Gpu" = type { i32 (...)** }
%"class.viz::mojom::blink::GpuMemoryBufferFactoryInterceptorForTesting" = type { %"class.viz::mojom::blink::GpuMemoryBufferFactory" }
%"class.gfx::Size" = type { i32, i32 }
%"class.base::OnceCallback" = type { %"class.base::internal::CallbackBase" }
%"class.base::internal::CallbackBase" = type { %class.scoped_refptr }
%class.scoped_refptr = type { %"class.base::internal::BindStateBase"* }
%"class.base::internal::BindStateBase" = type { %"class.base::RefCountedThreadSafe", void ()*, void (%"class.base::internal::BindStateBase"*)*, i1 (%"class.base::internal::BindStateBase"*, i32)* }
%"class.base::RefCountedThreadSafe" = type { %"class.base::subtle::RefCountedThreadSafeBase" }
%"class.base::subtle::RefCountedThreadSafeBase" = type { %"class.base::AtomicRefCount" }
%"class.base::AtomicRefCount" = type { %"struct.std::__1::atomic" }
%"struct.std::__1::atomic" = type { %"struct.std::__1::__atomic_base" }
%"struct.std::__1::__atomic_base" = type { %"struct.std::__1::__atomic_base.0" }
%"struct.std::__1::__atomic_base.0" = type { %"struct.std::__1::__cxx_atomic_impl" }
%"struct.std::__1::__cxx_atomic_impl" = type { %"struct.std::__1::__cxx_atomic_base_impl" }
%"struct.std::__1::__cxx_atomic_base_impl" = type { i32 }
%"struct.gpu::SyncToken" = type { i8, i8, %"class.util::IdType", i64 }
%"class.util::IdType" = type { %"class.base::StrongAlias" }
%"class.base::StrongAlias" = type { i64 }
%"struct.gfx::GpuMemoryBufferHandle" = type { i32, %"class.gfx::GenericSharedMemoryId", %"class.base::UnsafeSharedMemoryRegion", i32, i32, %"struct.gfx::NativePixmapHandle" }
%"class.gfx::GenericSharedMemoryId" = type { i32 }
%"class.base::UnsafeSharedMemoryRegion" = type { %"class.base::subtle::PlatformSharedMemoryRegion" }
%"class.base::subtle::PlatformSharedMemoryRegion" = type { %"struct.base::subtle::ScopedFDPair", i32, i64, %"class.base::UnguessableToken" }
%"struct.base::subtle::ScopedFDPair" = type { %"class.base::ScopedGeneric", %"class.base::ScopedGeneric" }
%"class.base::ScopedGeneric" = type <{ i32 (...)**, %"struct.base::ScopedGeneric<int, base::internal::ScopedFDCloseTraits>::Data", i8, [3 x i8] }>
%"struct.base::ScopedGeneric<int, base::internal::ScopedFDCloseTraits>::Data" = type { i32 }
%"class.base::UnguessableToken" = type { %"class.base::Token" }
%"class.base::Token" = type { i64, i64 }
%"struct.gfx::NativePixmapHandle" = type { %"class.std::__1::vector", i64 }
%"class.std::__1::vector" = type { %"class.std::__1::__vector_base" }
%"class.std::__1::__vector_base" = type { %"struct.gfx::NativePixmapPlane"*, %"struct.gfx::NativePixmapPlane"*, %"class.std::__1::__compressed_pair" }
%"struct.gfx::NativePixmapPlane" = type { i32, i64, i64, %"class.base::ScopedGeneric" }
%"class.std::__1::__compressed_pair" = type { %"struct.std::__1::__compressed_pair_elem" }
%"struct.std::__1::__compressed_pair_elem" = type { %"struct.gfx::NativePixmapPlane"* }
%"class.base::OnceCallback.2" = type { %"class.base::internal::CallbackBase" }
%"class.base::RunLoop" = type { %"class.base::RunLoop::Delegate"*, i32, i8, i8, i8, i8, i8, %class.scoped_refptr.17, %"class.base::WeakPtrFactory" }
%"class.base::RunLoop::Delegate" = type <{ i32 (...)**, %"class.std::__1::stack", %"class.base::ObserverList", i8, [7 x i8] }>
%"class.std::__1::stack" = type { %"class.std::__1::vector.3" }
%"class.std::__1::vector.3" = type { %"class.std::__1::__vector_base.4" }
%"class.std::__1::__vector_base.4" = type { %"class.base::RunLoop"**, %"class.base::RunLoop"**, %"class.std::__1::__compressed_pair.5" }
%"class.std::__1::__compressed_pair.5" = type { %"struct.std::__1::__compressed_pair_elem.6" }
%"struct.std::__1::__compressed_pair_elem.6" = type { %"class.base::RunLoop"** }
%"class.base::ObserverList" = type <{ %"class.std::__1::vector.10", %"class.base::LinkedList", i64, i32, [4 x i8] }>
%"class.std::__1::vector.10" = type { %"class.std::__1::__vector_base.11" }
%"class.std::__1::__vector_base.11" = type { %"class.base::internal::UncheckedObserverAdapter"*, %"class.base::internal::UncheckedObserverAdapter"*, %"class.std::__1::__compressed_pair.12" }
%"class.base::internal::UncheckedObserverAdapter" = type { i8* }
%"class.std::__1::__compressed_pair.12" = type { %"struct.std::__1::__compressed_pair_elem.13" }
%"struct.std::__1::__compressed_pair_elem.13" = type { %"class.base::internal::UncheckedObserverAdapter"* }
%"class.base::LinkedList" = type { %"class.base::LinkNode" }
%"class.base::LinkNode" = type { %"class.base::internal::LinkNodeBase" }
%"class.base::internal::LinkNodeBase" = type { %"class.base::internal::LinkNodeBase"*, %"class.base::internal::LinkNodeBase"* }
%class.scoped_refptr.17 = type { %"class.base::SingleThreadTaskRunner"* }
%"class.base::SingleThreadTaskRunner" = type { %"class.base::SequencedTaskRunner.base", [4 x i8] }
%"class.base::SequencedTaskRunner.base" = type { %"class.base::TaskRunner.base" }
%"class.base::TaskRunner.base" = type <{ i32 (...)**, %"class.base::RefCountedThreadSafe.18" }>
%"class.base::RefCountedThreadSafe.18" = type { %"class.base::subtle::RefCountedThreadSafeBase" }
%"class.base::WeakPtrFactory" = type { %"class.base::internal::WeakPtrFactoryBase" }
%"class.base::internal::WeakPtrFactoryBase" = type { %"class.base::internal::WeakReferenceOwner", i64 }
%"class.base::internal::WeakReferenceOwner" = type { %class.scoped_refptr.19 }
%class.scoped_refptr.19 = type { %"class.base::internal::WeakReference::Flag"* }
%"class.base::internal::WeakReference::Flag" = type <{ %"class.base::RefCountedThreadSafe.20", %"class.base::AtomicFlag", [3 x i8] }>
%"class.base::RefCountedThreadSafe.20" = type { %"class.base::subtle::RefCountedThreadSafeBase" }
%"class.base::AtomicFlag" = type { %"struct.std::__1::atomic.21" }
%"struct.std::__1::atomic.21" = type { %"struct.std::__1::__atomic_base.22" }
%"struct.std::__1::__atomic_base.22" = type { %"struct.std::__1::__atomic_base.23" }
%"struct.std::__1::__atomic_base.23" = type { %"struct.std::__1::__cxx_atomic_impl.24" }
%"struct.std::__1::__cxx_atomic_impl.24" = type { %"struct.std::__1::__cxx_atomic_base_impl.25" }
%"struct.std::__1::__cxx_atomic_base_impl.25" = type { i8 }
%"class.base::Location" = type { i8*, i8*, i32, i8* }
%"class.viz::mojom::blink::GpuInterceptorForTesting" = type { %"class.viz::mojom::blink::Gpu" }
%"class.mojo::PendingReceiver" = type { %"struct.mojo::internal::PendingReceiverState" }
%"struct.mojo::internal::PendingReceiverState" = type { %"class.mojo::ScopedHandleBase", %"class.mojo::ConnectionGroup::Ref" }
%"class.mojo::ScopedHandleBase" = type { %"class.mojo::MessagePipeHandle" }
%"class.mojo::MessagePipeHandle" = type { %"class.mojo::Handle" }
%"class.mojo::Handle" = type { i32 }
%"class.mojo::ConnectionGroup::Ref" = type { i32, %class.scoped_refptr.28 }
%class.scoped_refptr.28 = type { %"class.mojo::ConnectionGroup"* }
%"class.mojo::ConnectionGroup" = type <{ i32 (...)**, %"class.base::RefCountedThreadSafe.29", [4 x i8], %"class.base::RepeatingCallback", %class.scoped_refptr.30, %"class.mojo::ConnectionGroup::Ref", %"struct.std::__1::atomic.31", [4 x i8] }>
%"class.base::RefCountedThreadSafe.29" = type { %"class.base::subtle::RefCountedThreadSafeBase" }
%"class.base::RepeatingCallback" = type { %"class.base::internal::CallbackBaseCopyable" }
%"class.base::internal::CallbackBaseCopyable" = type { %"class.base::internal::CallbackBase" }
%class.scoped_refptr.30 = type { %"class.base::SequencedTaskRunner"* }
%"class.base::SequencedTaskRunner" = type { %"class.base::TaskRunner.base", [4 x i8] }
%"struct.std::__1::atomic.31" = type { %"struct.std::__1::__atomic_base.32" }
%"struct.std::__1::__atomic_base.32" = type { %"struct.std::__1::__atomic_base.33" }
%"struct.std::__1::__atomic_base.33" = type { %"struct.std::__1::__cxx_atomic_impl.34" }
%"struct.std::__1::__cxx_atomic_impl.34" = type { %"struct.std::__1::__cxx_atomic_base_impl.35" }
%"struct.std::__1::__cxx_atomic_base_impl.35" = type { i32 }
%"class.base::OnceCallback.36" = type { %"class.base::internal::CallbackBase" }
%"class.mojo::PendingReceiver.37" = type { %"struct.mojo::internal::PendingReceiverState" }
%"class.mojo::StructPtr" = type { %"class.std::__1::unique_ptr" }
%"class.std::__1::unique_ptr" = type { %"class.std::__1::__compressed_pair.38" }
%"class.std::__1::__compressed_pair.38" = type { %"struct.std::__1::__compressed_pair_elem.39" }
%"struct.std::__1::__compressed_pair_elem.39" = type { %"class.gpu::mojom::blink::GpuInfo"* }
%"class.gpu::mojom::blink::GpuInfo" = type { %"class.base::TimeDelta", i8, i8, %"class.mojo::StructPtr.40", %"class.WTF::Vector", %"class.WTF::String", %"class.WTF::String", %"class.WTF::String", %"class.WTF::String", %"class.WTF::String", %"class.WTF::String", %"class.WTF::String", %"class.WTF::String", %"class.WTF::String", %"class.WTF::String", %"class.WTF::String", %"class.WTF::String", i32, i8, %"class.WTF::String", i8, i8, i8, i8, %"class.mojo::StructPtr.46", %"class.WTF::Vector.65", i8, %"class.WTF::Vector.77", i8, i8, %"class.mojo::StructPtr.94" }
%"class.base::TimeDelta" = type { i64 }
%"class.mojo::StructPtr.40" = type { %"class.std::__1::unique_ptr.41" }
%"class.std::__1::unique_ptr.41" = type { %"class.std::__1::__compressed_pair.42" }
%"class.std::__1::__compressed_pair.42" = type { %"struct.std::__1::__compressed_pair_elem.43" }
%"struct.std::__1::__compressed_pair_elem.43" = type { %"class.gpu::mojom::blink::GpuDevice"* }
%"class.gpu::mojom::blink::GpuDevice" = type <{ i32, i32, i8, [7 x i8], %"class.WTF::String", %"class.WTF::String", %"class.WTF::String", %"class.WTF::String", i32, [4 x i8] }>
%"class.WTF::Vector" = type { %"class.WTF::VectorBuffer" }
%"class.WTF::VectorBuffer" = type { %"class.WTF::VectorBufferBase" }
%"class.WTF::VectorBufferBase" = type { %"class.mojo::StructPtr.40"*, i32, i32 }
%"class.WTF::String" = type { %class.scoped_refptr.44 }
%class.scoped_refptr.44 = type { %"class.WTF::StringImpl"* }
%"class.WTF::StringImpl" = type { i32, i32, %"struct.std::__1::atomic.31" }
%"class.mojo::StructPtr.46" = type { %"class.std::__1::unique_ptr.47" }
%"class.std::__1::unique_ptr.47" = type { %"class.std::__1::__compressed_pair.48" }
%"class.std::__1::__compressed_pair.48" = type { %"struct.std::__1::__compressed_pair_elem.49" }
%"struct.std::__1::__compressed_pair_elem.49" = type { %"class.gpu::mojom::blink::VideoDecodeAcceleratorCapabilities"* }
%"class.gpu::mojom::blink::VideoDecodeAcceleratorCapabilities" = type <{ %"class.WTF::Vector.50", i32, [4 x i8] }>
%"class.WTF::Vector.50" = type { %"class.WTF::VectorBuffer.51" }
%"class.WTF::VectorBuffer.51" = type { %"class.WTF::VectorBufferBase.52" }
%"class.WTF::VectorBufferBase.52" = type { %"class.mojo::StructPtr.53"*, i32, i32 }
%"class.mojo::StructPtr.53" = type { %"class.std::__1::unique_ptr.54" }
%"class.std::__1::unique_ptr.54" = type { %"class.std::__1::__compressed_pair.55" }
%"class.std::__1::__compressed_pair.55" = type { %"struct.std::__1::__compressed_pair_elem.56" }
%"struct.std::__1::__compressed_pair_elem.56" = type { %"class.gpu::mojom::blink::VideoDecodeAcceleratorSupportedProfile"* }
%"class.gpu::mojom::blink::VideoDecodeAcceleratorSupportedProfile" = type <{ i32, %"class.gfx::Size", %"class.gfx::Size", i8, [3 x i8] }>
%"class.WTF::Vector.65" = type { %"class.WTF::VectorBuffer.66" }
%"class.WTF::VectorBuffer.66" = type { %"class.WTF::VectorBufferBase.67" }
%"class.WTF::VectorBufferBase.67" = type { %"class.mojo::StructPtr.68"*, i32, i32 }
%"class.mojo::StructPtr.68" = type { %"class.std::__1::unique_ptr.69" }
%"class.std::__1::unique_ptr.69" = type { %"class.std::__1::__compressed_pair.70" }
%"class.std::__1::__compressed_pair.70" = type { %"struct.std::__1::__compressed_pair_elem.71" }
%"struct.std::__1::__compressed_pair_elem.71" = type { %"class.gpu::mojom::blink::VideoEncodeAcceleratorSupportedProfile"* }
%"class.gpu::mojom::blink::VideoEncodeAcceleratorSupportedProfile" = type { i32, %"class.gfx::Size", %"class.gfx::Size", i32, i32 }
%"class.WTF::Vector.77" = type { %"class.WTF::VectorBuffer.78" }
%"class.WTF::VectorBuffer.78" = type { %"class.WTF::VectorBufferBase.79" }
%"class.WTF::VectorBufferBase.79" = type { %"class.mojo::StructPtr.80"*, i32, i32 }
%"class.mojo::StructPtr.80" = type { %"class.std::__1::unique_ptr.81" }
%"class.std::__1::unique_ptr.81" = type { %"class.std::__1::__compressed_pair.82" }
%"class.std::__1::__compressed_pair.82" = type { %"struct.std::__1::__compressed_pair_elem.83" }
%"struct.std::__1::__compressed_pair_elem.83" = type { %"class.gpu::mojom::blink::ImageDecodeAcceleratorSupportedProfile"* }
%"class.gpu::mojom::blink::ImageDecodeAcceleratorSupportedProfile" = type { i32, %"class.gfx::Size", %"class.gfx::Size", %"class.WTF::Vector.84" }
%"class.WTF::Vector.84" = type { %"class.WTF::VectorBuffer.85" }
%"class.WTF::VectorBuffer.85" = type { %"class.WTF::VectorBufferBase.86" }
%"class.WTF::VectorBufferBase.86" = type { i32*, i32, i32 }
%"class.mojo::StructPtr.94" = type { %"class.std::__1::unique_ptr.95" }
%"class.std::__1::unique_ptr.95" = type { %"class.std::__1::__compressed_pair.96" }
%"class.std::__1::__compressed_pair.96" = type { %"struct.std::__1::__compressed_pair_elem.97" }
%"struct.std::__1::__compressed_pair_elem.97" = type { %"class.gpu::mojom::blink::VulkanInfo"* }
%"class.gpu::mojom::blink::VulkanInfo" = type { i32, i32, %"class.WTF::Vector.98", %"class.WTF::Vector.103", %"class.WTF::Vector.108", %"class.WTF::Vector.115" }
%"class.WTF::Vector.98" = type { %"class.WTF::VectorBuffer.99" }
%"class.WTF::VectorBuffer.99" = type { %"class.WTF::VectorBufferBase.100" }
%"class.WTF::VectorBufferBase.100" = type { %"class.mojo::InlinedStructPtr"*, i32, i32 }
%"class.mojo::InlinedStructPtr" = type { %"class.gpu::mojom::blink::VkExtensionProperties", i32, [4 x i8] }
%"class.gpu::mojom::blink::VkExtensionProperties" = type <{ %"class.WTF::String", i32, [4 x i8] }>
%"class.WTF::Vector.103" = type { %"class.WTF::VectorBuffer.104" }
%"class.WTF::VectorBuffer.104" = type { %"class.WTF::VectorBufferBase.105" }
%"class.WTF::VectorBufferBase.105" = type { %"class.WTF::String"*, i32, i32 }
%"class.WTF::Vector.108" = type { %"class.WTF::VectorBuffer.109" }
%"class.WTF::VectorBuffer.109" = type { %"class.WTF::VectorBufferBase.110" }
%"class.WTF::VectorBufferBase.110" = type { %"class.mojo::InlinedStructPtr.111"*, i32, i32 }
%"class.mojo::InlinedStructPtr.111" = type <{ %"class.gpu::mojom::blink::VkLayerProperties", i32, [4 x i8] }>
%"class.gpu::mojom::blink::VkLayerProperties" = type { %"class.WTF::String", i32, i32, %"class.WTF::String" }
%"class.WTF::Vector.115" = type { %"class.WTF::VectorBuffer.116" }
%"class.WTF::VectorBuffer.116" = type { %"class.WTF::VectorBufferBase.117" }
%"class.WTF::VectorBufferBase.117" = type { %"class.mojo::StructPtr.118"*, i32, i32 }
%"class.mojo::StructPtr.118" = type { %"class.std::__1::unique_ptr.119" }
%"class.std::__1::unique_ptr.119" = type { %"class.std::__1::__compressed_pair.120" }
%"class.std::__1::__compressed_pair.120" = type { %"struct.std::__1::__compressed_pair_elem.121" }
%"struct.std::__1::__compressed_pair_elem.121" = type { %"class.gpu::mojom::blink::VulkanPhysicalDeviceInfo"* }
%"class.gpu::mojom::blink::VulkanPhysicalDeviceInfo" = type { %"class.mojo::StructPtr.122", %"class.WTF::Vector.98", %"class.mojo::StructPtr.158", i8, i8, %"class.WTF::Vector.165" }
%"class.mojo::StructPtr.122" = type { %"class.std::__1::unique_ptr.123" }
%"class.std::__1::unique_ptr.123" = type { %"class.std::__1::__compressed_pair.124" }
%"class.std::__1::__compressed_pair.124" = type { %"struct.std::__1::__compressed_pair_elem.125" }
%"struct.std::__1::__compressed_pair_elem.125" = type { %"class.gpu::mojom::blink::VkPhysicalDeviceProperties"* }
%"class.gpu::mojom::blink::VkPhysicalDeviceProperties" = type { i32, i32, i32, i32, i32, %"class.WTF::String", %"class.WTF::Vector.126", %"class.mojo::StructPtr.131", %"class.mojo::StructPtr.148" }
%"class.WTF::Vector.126" = type { %"class.WTF::VectorBuffer.127" }
%"class.WTF::VectorBuffer.127" = type { %"class.WTF::VectorBufferBase.128" }
%"class.WTF::VectorBufferBase.128" = type { i8*, i32, i32 }
%"class.mojo::StructPtr.131" = type { %"class.std::__1::unique_ptr.132" }
%"class.std::__1::unique_ptr.132" = type { %"class.std::__1::__compressed_pair.133" }
%"class.std::__1::__compressed_pair.133" = type { %"struct.std::__1::__compressed_pair_elem.134" }
%"struct.std::__1::__compressed_pair_elem.134" = type { %"class.gpu::mojom::blink::VkPhysicalDeviceLimits"* }
%"class.gpu::mojom::blink::VkPhysicalDeviceLimits" = type { i32, i32, i32, i32, i32, i32, i32, i32, i32, i32, i32, i64, i64, i32, i32, i32, i32, i32, i32, i32, i32, i32, i32, i32, i32, i32, i32, i32, i32, i32, i32, i32, i32, i32, i32, i32, i32, i32, i32, i32, i32, i32, i32, i32, i32, i32, i32, i32, i32, i32, i32, i32, %"class.WTF::Vector.135", i32, %"class.WTF::Vector.135", i32, i32, i32, i32, i32, float, float, i32, %"class.WTF::Vector.135", %"class.WTF::Vector.140", i32, i64, i64, i64, i64, i32, i32, i32, i32, float, float, i32, i32, i32, i32, i32, i32, i32, i32, i32, i32, i32, i32, i32, i32, i32, i8, float, i32, i32, i32, i32, %"class.WTF::Vector.140", %"class.WTF::Vector.140", float, float, i8, i8, i64, i64, i64 }
%"class.WTF::Vector.135" = type { %"class.WTF::VectorBuffer.136" }
%"class.WTF::VectorBuffer.136" = type { %"class.WTF::VectorBufferBase.137" }
%"class.WTF::VectorBufferBase.137" = type { i32*, i32, i32 }
%"class.WTF::Vector.140" = type { %"class.WTF::VectorBuffer.141" }
%"class.WTF::VectorBuffer.141" = type { %"class.WTF::VectorBufferBase.142" }
%"class.WTF::VectorBufferBase.142" = type { float*, i32, i32 }
%"class.mojo::StructPtr.148" = type { %"class.std::__1::unique_ptr.149" }
%"class.std::__1::unique_ptr.149" = type { %"class.std::__1::__compressed_pair.150" }
%"class.std::__1::__compressed_pair.150" = type { %"struct.std::__1::__compressed_pair_elem.151" }
%"struct.std::__1::__compressed_pair_elem.151" = type { %"class.gpu::mojom::blink::VkPhysicalDeviceSparseProperties"* }
%"class.gpu::mojom::blink::VkPhysicalDeviceSparseProperties" = type { i8, i8, i8, i8, i8 }
%"class.mojo::StructPtr.158" = type { %"class.std::__1::unique_ptr.159" }
%"class.std::__1::unique_ptr.159" = type { %"class.std::__1::__compressed_pair.160" }
%"class.std::__1::__compressed_pair.160" = type { %"struct.std::__1::__compressed_pair_elem.161" }
%"struct.std::__1::__compressed_pair_elem.161" = type { %"class.gpu::mojom::blink::VkPhysicalDeviceFeatures"* }
%"class.gpu::mojom::blink::VkPhysicalDeviceFeatures" = type { i8, i8, i8, i8, i8, i8, i8, i8, i8, i8, i8, i8, i8, i8, i8, i8, i8, i8, i8, i8, i8, i8, i8, i8, i8, i8, i8, i8, i8, i8, i8, i8, i8, i8, i8, i8, i8, i8, i8, i8, i8, i8, i8, i8, i8, i8, i8, i8, i8, i8, i8, i8, i8, i8, i8 }
%"class.WTF::Vector.165" = type { %"class.WTF::VectorBuffer.166" }
%"class.WTF::VectorBuffer.166" = type { %"class.WTF::VectorBufferBase.167" }
%"class.WTF::VectorBufferBase.167" = type { %"class.mojo::StructPtr.168"*, i32, i32 }
%"class.mojo::StructPtr.168" = type { %"class.std::__1::unique_ptr.169" }
%"class.std::__1::unique_ptr.169" = type { %"class.std::__1::__compressed_pair.170" }
%"class.std::__1::__compressed_pair.170" = type { %"struct.std::__1::__compressed_pair_elem.171" }
%"struct.std::__1::__compressed_pair_elem.171" = type { %"class.gpu::mojom::blink::VkQueueFamilyProperties"* }
%"class.gpu::mojom::blink::VkQueueFamilyProperties" = type { i32, i32, i32, %"class.mojo::InlinedStructPtr.172" }
%"class.mojo::InlinedStructPtr.172" = type { %"class.gpu::mojom::blink::VkExtent3D", i32 }
%"class.gpu::mojom::blink::VkExtent3D" = type { i32, i32, i32 }
%"class.mojo::StructPtr.189" = type { %"class.std::__1::unique_ptr.190" }
%"class.std::__1::unique_ptr.190" = type { %"class.std::__1::__compressed_pair.191" }
%"class.std::__1::__compressed_pair.191" = type { %"struct.std::__1::__compressed_pair_elem.192" }
%"struct.std::__1::__compressed_pair_elem.192" = type { %"class.gpu::mojom::blink::GpuFeatureInfo"* }
%"class.gpu::mojom::blink::GpuFeatureInfo" = type { %"class.WTF::Vector.193", %"class.WTF::Vector.198", %"class.WTF::String", %"class.WTF::String", %"class.WTF::Vector.135", %"class.WTF::Vector.135", %"class.WTF::Vector.203" }
%"class.WTF::Vector.193" = type { %"class.WTF::VectorBuffer.194" }
%"class.WTF::VectorBuffer.194" = type { %"class.WTF::VectorBufferBase.195" }
%"class.WTF::VectorBufferBase.195" = type { i32*, i32, i32 }
%"class.WTF::Vector.198" = type { %"class.WTF::VectorBuffer.199" }
%"class.WTF::VectorBuffer.199" = type { %"class.WTF::VectorBufferBase.200" }
%"class.WTF::VectorBufferBase.200" = type { i32*, i32, i32 }
%"class.WTF::Vector.203" = type { %"class.WTF::VectorBuffer.204" }
%"class.WTF::VectorBuffer.204" = type { %"class.WTF::VectorBufferBase.205" }
%"class.WTF::VectorBufferBase.205" = type { i32*, i32, i32 }

$_ZN3viz5mojom5blink22GpuMemoryBufferFactoryD2Ev = comdat any

$_ZN3viz5mojom5blink43GpuMemoryBufferFactoryInterceptorForTestingD0Ev = comdat any

$_ZN3viz5mojom5blink3GpuD2Ev = comdat any

$_ZN3viz5mojom5blink24GpuInterceptorForTestingD0Ev = comdat any

@.str = private unnamed_addr constant [22 x i8] c"CreateGpuMemoryBuffer\00", align 1
@.str.1 = private unnamed_addr constant [60 x i8] c"gen/services/viz/public/mojom/gpu.mojom-blink-test-utils.cc\00", align 1
@.str.2 = private unnamed_addr constant [20 x i8] c"CopyGpuMemoryBuffer\00", align 1
@.str.3 = private unnamed_addr constant [20 x i8] c"EstablishGpuChannel\00", align 1
@_ZTVN3viz5mojom5blink43GpuMemoryBufferFactoryInterceptorForTestingE = hidden unnamed_addr constant { [8 x i8*] } { [8 x i8*] [i8* null, i8* null, i8* bitcast (void (%"class.viz::mojom::blink::GpuMemoryBufferFactory"*)* @_ZN3viz5mojom5blink22GpuMemoryBufferFactoryD2Ev to i8*), i8* bitcast (void (%"class.viz::mojom::blink::GpuMemoryBufferFactoryInterceptorForTesting"*)* @_ZN3viz5mojom5blink43GpuMemoryBufferFactoryInterceptorForTestingD0Ev to i8*), i8* bitcast (void (%"class.viz::mojom::blink::GpuMemoryBufferFactoryInterceptorForTesting"*, i32, %"class.gfx::Size"*, i32, i32, %"class.base::OnceCallback"*)* @_ZN3viz5mojom5blink43GpuMemoryBufferFactoryInterceptorForTesting21CreateGpuMemoryBufferEN3gfx21GenericSharedMemoryIdERKNS3_4SizeENS3_12BufferFormatENS3_11BufferUsageEN4base12OnceCallbackIFvNS3_21GpuMemoryBufferHandleEEEE to i8*), i8* bitcast (void (%"class.viz::mojom::blink::GpuMemoryBufferFactoryInterceptorForTesting"*, i32, %"struct.gpu::SyncToken"*)* @_ZN3viz5mojom5blink43GpuMemoryBufferFactoryInterceptorForTesting22DestroyGpuMemoryBufferEN3gfx21GenericSharedMemoryIdERKN3gpu9SyncTokenE to i8*), i8* bitcast (void (%"class.viz::mojom::blink::GpuMemoryBufferFactoryInterceptorForTesting"*, %"struct.gfx::GpuMemoryBufferHandle"*, %"class.base::UnsafeSharedMemoryRegion"*, %"class.base::OnceCallback.2"*)* @_ZN3viz5mojom5blink43GpuMemoryBufferFactoryInterceptorForTesting19CopyGpuMemoryBufferEN3gfx21GpuMemoryBufferHandleEN4base24UnsafeSharedMemoryRegionENS5_12OnceCallbackIFvbEEE to i8*), i8* bitcast (void ()* @__cxa_pure_virtual to i8*)] }, align 8
@_ZTVN3viz5mojom5blink24GpuInterceptorForTestingE = hidden unnamed_addr constant { [8 x i8*] } { [8 x i8*] [i8* null, i8* null, i8* bitcast (void (%"class.viz::mojom::blink::Gpu"*)* @_ZN3viz5mojom5blink3GpuD2Ev to i8*), i8* bitcast (void (%"class.viz::mojom::blink::GpuInterceptorForTesting"*)* @_ZN3viz5mojom5blink24GpuInterceptorForTestingD0Ev to i8*), i8* bitcast (void (%"class.viz::mojom::blink::GpuInterceptorForTesting"*, %"class.mojo::PendingReceiver"*)* @_ZN3viz5mojom5blink24GpuInterceptorForTesting28CreateGpuMemoryBufferFactoryEN4mojo15PendingReceiverINS1_22GpuMemoryBufferFactoryEEE to i8*), i8* bitcast (void (%"class.viz::mojom::blink::GpuInterceptorForTesting"*, %"class.base::OnceCallback.36"*)* @_ZN3viz5mojom5blink24GpuInterceptorForTesting19EstablishGpuChannelEN4base12OnceCallbackIFviN4mojo16ScopedHandleBaseINS5_17MessagePipeHandleEEENS5_9StructPtrIN3gpu5mojom5blink7GpuInfoEEENS9_INSC_14GpuFeatureInfoEEEEEE to i8*), i8* bitcast (void (%"class.viz::mojom::blink::GpuInterceptorForTesting"*, %"class.mojo::PendingReceiver.37"*)* @_ZN3viz5mojom5blink24GpuInterceptorForTesting36CreateVideoEncodeAcceleratorProviderEN4mojo15PendingReceiverIN5media5mojom5blink30VideoEncodeAcceleratorProviderEEE to i8*), i8* bitcast (void ()* @__cxa_pure_virtual to i8*)] }, align 8

@_ZN3viz5mojom5blink33GpuMemoryBufferFactoryAsyncWaiterC1EPNS1_22GpuMemoryBufferFactoryE = hidden unnamed_addr alias void (%"class.viz::mojom::blink::GpuMemoryBufferFactoryAsyncWaiter"*, %"class.viz::mojom::blink::GpuMemoryBufferFactory"*), void (%"class.viz::mojom::blink::GpuMemoryBufferFactoryAsyncWaiter"*, %"class.viz::mojom::blink::GpuMemoryBufferFactory"*)* @_ZN3viz5mojom5blink33GpuMemoryBufferFactoryAsyncWaiterC2EPNS1_22GpuMemoryBufferFactoryE
@_ZN3viz5mojom5blink33GpuMemoryBufferFactoryAsyncWaiterD1Ev = hidden unnamed_addr alias void (%"class.viz::mojom::blink::GpuMemoryBufferFactoryAsyncWaiter"*), void (%"class.viz::mojom::blink::GpuMemoryBufferFactoryAsyncWaiter"*)* @_ZN3viz5mojom5blink33GpuMemoryBufferFactoryAsyncWaiterD2Ev
@_ZN3viz5mojom5blink14GpuAsyncWaiterC1EPNS1_3GpuE = hidden unnamed_addr alias void (%"class.viz::mojom::blink::GpuAsyncWaiter"*, %"class.viz::mojom::blink::Gpu"*), void (%"class.viz::mojom::blink::GpuAsyncWaiter"*, %"class.viz::mojom::blink::Gpu"*)* @_ZN3viz5mojom5blink14GpuAsyncWaiterC2EPNS1_3GpuE
@_ZN3viz5mojom5blink14GpuAsyncWaiterD1Ev = hidden unnamed_addr alias void (%"class.viz::mojom::blink::GpuAsyncWaiter"*), void (%"class.viz::mojom::blink::GpuAsyncWaiter"*)* @_ZN3viz5mojom5blink14GpuAsyncWaiterD2Ev

; Function Attrs: nounwind ssp uwtable
define hidden void @_ZN3viz5mojom5blink43GpuMemoryBufferFactoryInterceptorForTesting21CreateGpuMemoryBufferEN3gfx21GenericSharedMemoryIdERKNS3_4SizeENS3_12BufferFormatENS3_11BufferUsageEN4base12OnceCallbackIFvNS3_21GpuMemoryBufferHandleEEEE(%"class.viz::mojom::blink::GpuMemoryBufferFactoryInterceptorForTesting"*, i32, %"class.gfx::Size"* dereferenceable(8), i32, i32, %"class.base::OnceCallback"* nocapture) unnamed_addr #0 align 2 {
  %7 = alloca %"class.base::OnceCallback", align 8
  %8 = bitcast %"class.viz::mojom::blink::GpuMemoryBufferFactoryInterceptorForTesting"* %0 to %"class.viz::mojom::blink::GpuMemoryBufferFactory"* (%"class.viz::mojom::blink::GpuMemoryBufferFactoryInterceptorForTesting"*)***
  %9 = load %"class.viz::mojom::blink::GpuMemoryBufferFactory"* (%"class.viz::mojom::blink::GpuMemoryBufferFactoryInterceptorForTesting"*)**, %"class.viz::mojom::blink::GpuMemoryBufferFactory"* (%"class.viz::mojom::blink::GpuMemoryBufferFactoryInterceptorForTesting"*)*** %8, align 8
  %10 = getelementptr inbounds %"class.viz::mojom::blink::GpuMemoryBufferFactory"* (%"class.viz::mojom::blink::GpuMemoryBufferFactoryInterceptorForTesting"*)*, %"class.viz::mojom::blink::GpuMemoryBufferFactory"* (%"class.viz::mojom::blink::GpuMemoryBufferFactoryInterceptorForTesting"*)** %9, i64 5
  %11 = load %"class.viz::mojom::blink::GpuMemoryBufferFactory"* (%"class.viz::mojom::blink::GpuMemoryBufferFactoryInterceptorForTesting"*)*, %"class.viz::mojom::blink::GpuMemoryBufferFactory"* (%"class.viz::mojom::blink::GpuMemoryBufferFactoryInterceptorForTesting"*)** %10, align 8
  %12 = tail call %"class.viz::mojom::blink::GpuMemoryBufferFactory"* %11(%"class.viz::mojom::blink::GpuMemoryBufferFactoryInterceptorForTesting"* %0) #10
  %13 = getelementptr inbounds %"class.base::OnceCallback", %"class.base::OnceCallback"* %5, i64 0, i32 0, i32 0, i32 0
  %14 = bitcast %"class.base::OnceCallback"* %5 to i64*
  %15 = load i64, i64* %14, align 8
  %16 = bitcast %"class.base::OnceCallback"* %7 to i64*
  store i64 %15, i64* %16, align 8
  store %"class.base::internal::BindStateBase"* null, %"class.base::internal::BindStateBase"** %13, align 8
  %17 = bitcast %"class.viz::mojom::blink::GpuMemoryBufferFactory"* %12 to void (%"class.viz::mojom::blink::GpuMemoryBufferFactory"*, i32, %"class.gfx::Size"*, i32, i32, %"class.base::OnceCallback"*)***
  %18 = load void (%"class.viz::mojom::blink::GpuMemoryBufferFactory"*, i32, %"class.gfx::Size"*, i32, i32, %"class.base::OnceCallback"*)**, void (%"class.viz::mojom::blink::GpuMemoryBufferFactory"*, i32, %"class.gfx::Size"*, i32, i32, %"class.base::OnceCallback"*)*** %17, align 8
  %19 = getelementptr inbounds void (%"class.viz::mojom::blink::GpuMemoryBufferFactory"*, i32, %"class.gfx::Size"*, i32, i32, %"class.base::OnceCallback"*)*, void (%"class.viz::mojom::blink::GpuMemoryBufferFactory"*, i32, %"class.gfx::Size"*, i32, i32, %"class.base::OnceCallback"*)** %18, i64 2
  %20 = load void (%"class.viz::mojom::blink::GpuMemoryBufferFactory"*, i32, %"class.gfx::Size"*, i32, i32, %"class.base::OnceCallback"*)*, void (%"class.viz::mojom::blink::GpuMemoryBufferFactory"*, i32, %"class.gfx::Size"*, i32, i32, %"class.base::OnceCallback"*)** %19, align 8
  call void %20(%"class.viz::mojom::blink::GpuMemoryBufferFactory"* %12, i32 %1, %"class.gfx::Size"* dereferenceable(8) %2, i32 %3, i32 %4, %"class.base::OnceCallback"* nonnull %7) #10
  %21 = getelementptr inbounds %"class.base::OnceCallback", %"class.base::OnceCallback"* %7, i64 0, i32 0
  call void @_ZN4base8internal12CallbackBaseD2Ev(%"class.base::internal::CallbackBase"* nonnull %21) #10
  ret void
}

; Function Attrs: nounwind ssp uwtable
define hidden void @_ZN3viz5mojom5blink43GpuMemoryBufferFactoryInterceptorForTesting22DestroyGpuMemoryBufferEN3gfx21GenericSharedMemoryIdERKN3gpu9SyncTokenE(%"class.viz::mojom::blink::GpuMemoryBufferFactoryInterceptorForTesting"*, i32, %"struct.gpu::SyncToken"* dereferenceable(24)) unnamed_addr #0 align 2 {
  %4 = bitcast %"class.viz::mojom::blink::GpuMemoryBufferFactoryInterceptorForTesting"* %0 to %"class.viz::mojom::blink::GpuMemoryBufferFactory"* (%"class.viz::mojom::blink::GpuMemoryBufferFactoryInterceptorForTesting"*)***
  %5 = load %"class.viz::mojom::blink::GpuMemoryBufferFactory"* (%"class.viz::mojom::blink::GpuMemoryBufferFactoryInterceptorForTesting"*)**, %"class.viz::mojom::blink::GpuMemoryBufferFactory"* (%"class.viz::mojom::blink::GpuMemoryBufferFactoryInterceptorForTesting"*)*** %4, align 8
  %6 = getelementptr inbounds %"class.viz::mojom::blink::GpuMemoryBufferFactory"* (%"class.viz::mojom::blink::GpuMemoryBufferFactoryInterceptorForTesting"*)*, %"class.viz::mojom::blink::GpuMemoryBufferFactory"* (%"class.viz::mojom::blink::GpuMemoryBufferFactoryInterceptorForTesting"*)** %5, i64 5
  %7 = load %"class.viz::mojom::blink::GpuMemoryBufferFactory"* (%"class.viz::mojom::blink::GpuMemoryBufferFactoryInterceptorForTesting"*)*, %"class.viz::mojom::blink::GpuMemoryBufferFactory"* (%"class.viz::mojom::blink::GpuMemoryBufferFactoryInterceptorForTesting"*)** %6, align 8
  %8 = tail call %"class.viz::mojom::blink::GpuMemoryBufferFactory"* %7(%"class.viz::mojom::blink::GpuMemoryBufferFactoryInterceptorForTesting"* %0) #10
  %9 = bitcast %"class.viz::mojom::blink::GpuMemoryBufferFactory"* %8 to void (%"class.viz::mojom::blink::GpuMemoryBufferFactory"*, i32, %"struct.gpu::SyncToken"*)***
  %10 = load void (%"class.viz::mojom::blink::GpuMemoryBufferFactory"*, i32, %"struct.gpu::SyncToken"*)**, void (%"class.viz::mojom::blink::GpuMemoryBufferFactory"*, i32, %"struct.gpu::SyncToken"*)*** %9, align 8
  %11 = getelementptr inbounds void (%"class.viz::mojom::blink::GpuMemoryBufferFactory"*, i32, %"struct.gpu::SyncToken"*)*, void (%"class.viz::mojom::blink::GpuMemoryBufferFactory"*, i32, %"struct.gpu::SyncToken"*)** %10, i64 3
  %12 = load void (%"class.viz::mojom::blink::GpuMemoryBufferFactory"*, i32, %"struct.gpu::SyncToken"*)*, void (%"class.viz::mojom::blink::GpuMemoryBufferFactory"*, i32, %"struct.gpu::SyncToken"*)** %11, align 8
  tail call void %12(%"class.viz::mojom::blink::GpuMemoryBufferFactory"* %8, i32 %1, %"struct.gpu::SyncToken"* dereferenceable(24) %2) #10
  ret void
}

; Function Attrs: nounwind ssp uwtable
define hidden void @_ZN3viz5mojom5blink43GpuMemoryBufferFactoryInterceptorForTesting19CopyGpuMemoryBufferEN3gfx21GpuMemoryBufferHandleEN4base24UnsafeSharedMemoryRegionENS5_12OnceCallbackIFvbEEE(%"class.viz::mojom::blink::GpuMemoryBufferFactoryInterceptorForTesting"*, %"struct.gfx::GpuMemoryBufferHandle"*, %"class.base::UnsafeSharedMemoryRegion"*, %"class.base::OnceCallback.2"* nocapture) unnamed_addr #0 align 2 {
  %5 = alloca %"struct.gfx::GpuMemoryBufferHandle", align 8
  %6 = alloca %"class.base::UnsafeSharedMemoryRegion", align 8
  %7 = alloca %"class.base::OnceCallback.2", align 8
  %8 = bitcast %"class.viz::mojom::blink::GpuMemoryBufferFactoryInterceptorForTesting"* %0 to %"class.viz::mojom::blink::GpuMemoryBufferFactory"* (%"class.viz::mojom::blink::GpuMemoryBufferFactoryInterceptorForTesting"*)***
  %9 = load %"class.viz::mojom::blink::GpuMemoryBufferFactory"* (%"class.viz::mojom::blink::GpuMemoryBufferFactoryInterceptorForTesting"*)**, %"class.viz::mojom::blink::GpuMemoryBufferFactory"* (%"class.viz::mojom::blink::GpuMemoryBufferFactoryInterceptorForTesting"*)*** %8, align 8
  %10 = getelementptr inbounds %"class.viz::mojom::blink::GpuMemoryBufferFactory"* (%"class.viz::mojom::blink::GpuMemoryBufferFactoryInterceptorForTesting"*)*, %"class.viz::mojom::blink::GpuMemoryBufferFactory"* (%"class.viz::mojom::blink::GpuMemoryBufferFactoryInterceptorForTesting"*)** %9, i64 5
  %11 = load %"class.viz::mojom::blink::GpuMemoryBufferFactory"* (%"class.viz::mojom::blink::GpuMemoryBufferFactoryInterceptorForTesting"*)*, %"class.viz::mojom::blink::GpuMemoryBufferFactory"* (%"class.viz::mojom::blink::GpuMemoryBufferFactoryInterceptorForTesting"*)** %10, align 8
  %12 = tail call %"class.viz::mojom::blink::GpuMemoryBufferFactory"* %11(%"class.viz::mojom::blink::GpuMemoryBufferFactoryInterceptorForTesting"* %0) #10
  call void @_ZN3gfx21GpuMemoryBufferHandleC1EOS0_(%"struct.gfx::GpuMemoryBufferHandle"* nonnull %5, %"struct.gfx::GpuMemoryBufferHandle"* dereferenceable(112) %1) #10
  call void @_ZN4base24UnsafeSharedMemoryRegionC1EOS0_(%"class.base::UnsafeSharedMemoryRegion"* nonnull %6, %"class.base::UnsafeSharedMemoryRegion"* dereferenceable(64) %2) #10
  %13 = getelementptr inbounds %"class.base::OnceCallback.2", %"class.base::OnceCallback.2"* %3, i64 0, i32 0, i32 0, i32 0
  %14 = bitcast %"class.base::OnceCallback.2"* %3 to i64*
  %15 = load i64, i64* %14, align 8
  %16 = bitcast %"class.base::OnceCallback.2"* %7 to i64*
  store i64 %15, i64* %16, align 8
  store %"class.base::internal::BindStateBase"* null, %"class.base::internal::BindStateBase"** %13, align 8
  %17 = bitcast %"class.viz::mojom::blink::GpuMemoryBufferFactory"* %12 to void (%"class.viz::mojom::blink::GpuMemoryBufferFactory"*, %"struct.gfx::GpuMemoryBufferHandle"*, %"class.base::UnsafeSharedMemoryRegion"*, %"class.base::OnceCallback.2"*)***
  %18 = load void (%"class.viz::mojom::blink::GpuMemoryBufferFactory"*, %"struct.gfx::GpuMemoryBufferHandle"*, %"class.base::UnsafeSharedMemoryRegion"*, %"class.base::OnceCallback.2"*)**, void (%"class.viz::mojom::blink::GpuMemoryBufferFactory"*, %"struct.gfx::GpuMemoryBufferHandle"*, %"class.base::UnsafeSharedMemoryRegion"*, %"class.base::OnceCallback.2"*)*** %17, align 8
  %19 = getelementptr inbounds void (%"class.viz::mojom::blink::GpuMemoryBufferFactory"*, %"struct.gfx::GpuMemoryBufferHandle"*, %"class.base::UnsafeSharedMemoryRegion"*, %"class.base::OnceCallback.2"*)*, void (%"class.viz::mojom::blink::GpuMemoryBufferFactory"*, %"struct.gfx::GpuMemoryBufferHandle"*, %"class.base::UnsafeSharedMemoryRegion"*, %"class.base::OnceCallback.2"*)** %18, i64 4
  %20 = load void (%"class.viz::mojom::blink::GpuMemoryBufferFactory"*, %"struct.gfx::GpuMemoryBufferHandle"*, %"class.base::UnsafeSharedMemoryRegion"*, %"class.base::OnceCallback.2"*)*, void (%"class.viz::mojom::blink::GpuMemoryBufferFactory"*, %"struct.gfx::GpuMemoryBufferHandle"*, %"class.base::UnsafeSharedMemoryRegion"*, %"class.base::OnceCallback.2"*)** %19, align 8
  call void %20(%"class.viz::mojom::blink::GpuMemoryBufferFactory"* %12, %"struct.gfx::GpuMemoryBufferHandle"* nonnull %5, %"class.base::UnsafeSharedMemoryRegion"* nonnull %6, %"class.base::OnceCallback.2"* nonnull %7) #10
  %21 = getelementptr inbounds %"class.base::OnceCallback.2", %"class.base::OnceCallback.2"* %7, i64 0, i32 0
  call void @_ZN4base8internal12CallbackBaseD2Ev(%"class.base::internal::CallbackBase"* nonnull %21) #10
  call void @_ZN4base24UnsafeSharedMemoryRegionD1Ev(%"class.base::UnsafeSharedMemoryRegion"* nonnull %6) #10
  call void @_ZN3gfx21GpuMemoryBufferHandleD1Ev(%"struct.gfx::GpuMemoryBufferHandle"* nonnull %5) #10
  ret void
}

declare void @_ZN3gfx21GpuMemoryBufferHandleC1EOS0_(%"struct.gfx::GpuMemoryBufferHandle"*, %"struct.gfx::GpuMemoryBufferHandle"* dereferenceable(112)) unnamed_addr #1

declare void @_ZN4base24UnsafeSharedMemoryRegionC1EOS0_(%"class.base::UnsafeSharedMemoryRegion"*, %"class.base::UnsafeSharedMemoryRegion"* dereferenceable(64)) unnamed_addr #1

; Function Attrs: nounwind
declare void @_ZN4base8internal12CallbackBaseD2Ev(%"class.base::internal::CallbackBase"*) unnamed_addr #2

; Function Attrs: nounwind
declare void @_ZN4base24UnsafeSharedMemoryRegionD1Ev(%"class.base::UnsafeSharedMemoryRegion"*) unnamed_addr #2

; Function Attrs: nounwind
declare void @_ZN3gfx21GpuMemoryBufferHandleD1Ev(%"struct.gfx::GpuMemoryBufferHandle"*) unnamed_addr #2

; Function Attrs: nofree norecurse nounwind ssp uwtable writeonly
define hidden void @_ZN3viz5mojom5blink33GpuMemoryBufferFactoryAsyncWaiterC2EPNS1_22GpuMemoryBufferFactoryE(%"class.viz::mojom::blink::GpuMemoryBufferFactoryAsyncWaiter"* nocapture, %"class.viz::mojom::blink::GpuMemoryBufferFactory"*) unnamed_addr #3 align 2 {
  %3 = getelementptr inbounds %"class.viz::mojom::blink::GpuMemoryBufferFactoryAsyncWaiter", %"class.viz::mojom::blink::GpuMemoryBufferFactoryAsyncWaiter"* %0, i64 0, i32 0
  store %"class.viz::mojom::blink::GpuMemoryBufferFactory"* %1, %"class.viz::mojom::blink::GpuMemoryBufferFactory"** %3, align 8
  ret void
}

; Function Attrs: norecurse nounwind readnone ssp uwtable
define hidden void @_ZN3viz5mojom5blink33GpuMemoryBufferFactoryAsyncWaiterD2Ev(%"class.viz::mojom::blink::GpuMemoryBufferFactoryAsyncWaiter"* nocapture) unnamed_addr #4 align 2 {
  ret void
}

; Function Attrs: nounwind ssp uwtable
define hidden void @_ZN3viz5mojom5blink33GpuMemoryBufferFactoryAsyncWaiter21CreateGpuMemoryBufferEN3gfx21GenericSharedMemoryIdERKNS3_4SizeENS3_12BufferFormatENS3_11BufferUsageEPNS3_21GpuMemoryBufferHandleE(%"class.viz::mojom::blink::GpuMemoryBufferFactoryAsyncWaiter"* nocapture readonly, i32, %"class.gfx::Size"* dereferenceable(8), i32, i32, %"struct.gfx::GpuMemoryBufferHandle"*) local_unnamed_addr #0 align 2 {
  %7 = alloca %"class.base::RunLoop", align 8
  %8 = alloca %"class.base::OnceCallback", align 8
  %9 = alloca %"class.base::Location", align 8
  %10 = ptrtoint %"struct.gfx::GpuMemoryBufferHandle"* %5 to i64
  %11 = bitcast %"class.base::RunLoop"* %7 to i8*
  call void @llvm.lifetime.start.p0i8(i64 48, i8* nonnull %11) #10
  call void @llvm.memset.p0i8.i64(i8* nonnull align 8 %11, i8 -86, i64 48, i1 false)
  call void @_ZN4base7RunLoopC1ENS0_4TypeE(%"class.base::RunLoop"* nonnull %7, i32 0) #10
  %12 = getelementptr inbounds %"class.viz::mojom::blink::GpuMemoryBufferFactoryAsyncWaiter", %"class.viz::mojom::blink::GpuMemoryBufferFactoryAsyncWaiter"* %0, i64 0, i32 0
  %13 = load %"class.viz::mojom::blink::GpuMemoryBufferFactory"*, %"class.viz::mojom::blink::GpuMemoryBufferFactory"** %12, align 8
  %14 = ptrtoint %"class.base::RunLoop"* %7 to i64
  %15 = call i8* @_Znwm(i64 56) #11, !noalias !2
  %16 = bitcast i8* %15 to %"class.base::internal::BindStateBase"*
  call void @_ZN4base8internal13BindStateBaseC2EPFvvEPFvPKS1_E(%"class.base::internal::BindStateBase"* nonnull %16, void ()* bitcast (void (%"class.base::internal::BindStateBase"*, %"struct.gfx::GpuMemoryBufferHandle"*)* @"_ZN4base8internal7InvokerINS0_9BindStateIZN3viz5mojom5blink33GpuMemoryBufferFactoryAsyncWaiter21CreateGpuMemoryBufferEN3gfx21GenericSharedMemoryIdERKNS7_4SizeENS7_12BufferFormatENS7_11BufferUsageEPNS7_21GpuMemoryBufferHandleEE3$_0JPNS_7RunLoopESF_EEEFvSE_EE7RunOnceEPNS0_13BindStateBaseEOSE_" to void ()*), void (%"class.base::internal::BindStateBase"*)* nonnull @"_ZN4base8internal9BindStateIZN3viz5mojom5blink33GpuMemoryBufferFactoryAsyncWaiter21CreateGpuMemoryBufferEN3gfx21GenericSharedMemoryIdERKNS6_4SizeENS6_12BufferFormatENS6_11BufferUsageEPNS6_21GpuMemoryBufferHandleEE3$_0JPNS_7RunLoopESE_EE7DestroyEPKNS0_13BindStateBaseE") #10, !noalias !2
  %17 = getelementptr inbounds i8, i8* %15, i64 40
  %18 = bitcast i8* %17 to i64*
  store i64 %14, i64* %18, align 8, !noalias !2
  %19 = getelementptr inbounds i8, i8* %15, i64 48
  %20 = bitcast i8* %19 to i64*
  store i64 %10, i64* %20, align 8, !noalias !2
  %21 = bitcast %"class.base::OnceCallback"* %8 to i8**
  store i8* %15, i8** %21, align 8, !alias.scope !2
  %22 = bitcast %"class.viz::mojom::blink::GpuMemoryBufferFactory"* %13 to void (%"class.viz::mojom::blink::GpuMemoryBufferFactory"*, i32, %"class.gfx::Size"*, i32, i32, %"class.base::OnceCallback"*)***
  %23 = load void (%"class.viz::mojom::blink::GpuMemoryBufferFactory"*, i32, %"class.gfx::Size"*, i32, i32, %"class.base::OnceCallback"*)**, void (%"class.viz::mojom::blink::GpuMemoryBufferFactory"*, i32, %"class.gfx::Size"*, i32, i32, %"class.base::OnceCallback"*)*** %22, align 8
  %24 = getelementptr inbounds void (%"class.viz::mojom::blink::GpuMemoryBufferFactory"*, i32, %"class.gfx::Size"*, i32, i32, %"class.base::OnceCallback"*)*, void (%"class.viz::mojom::blink::GpuMemoryBufferFactory"*, i32, %"class.gfx::Size"*, i32, i32, %"class.base::OnceCallback"*)** %23, i64 2
  %25 = load void (%"class.viz::mojom::blink::GpuMemoryBufferFactory"*, i32, %"class.gfx::Size"*, i32, i32, %"class.base::OnceCallback"*)*, void (%"class.viz::mojom::blink::GpuMemoryBufferFactory"*, i32, %"class.gfx::Size"*, i32, i32, %"class.base::OnceCallback"*)** %24, align 8
  call void %25(%"class.viz::mojom::blink::GpuMemoryBufferFactory"* %13, i32 %1, %"class.gfx::Size"* dereferenceable(8) %2, i32 %3, i32 %4, %"class.base::OnceCallback"* nonnull %8) #10
  %26 = getelementptr inbounds %"class.base::OnceCallback", %"class.base::OnceCallback"* %8, i64 0, i32 0
  call void @_ZN4base8internal12CallbackBaseD2Ev(%"class.base::internal::CallbackBase"* nonnull %26) #10
  %27 = bitcast %"class.base::Location"* %9 to i8*
  call void @llvm.lifetime.start.p0i8(i64 32, i8* nonnull %27) #10
  call void @_ZN4base8Location7CurrentEPKcS2_i(%"class.base::Location"* nonnull sret %9, i8* getelementptr inbounds ([22 x i8], [22 x i8]* @.str, i64 0, i64 0), i8* getelementptr inbounds ([60 x i8], [60 x i8]* @.str.1, i64 0, i64 0), i32 66) #10
  call void @_ZN4base7RunLoop3RunERKNS_8LocationE(%"class.base::RunLoop"* nonnull %7, %"class.base::Location"* nonnull dereferenceable(32) %9) #10
  call void @llvm.lifetime.end.p0i8(i64 32, i8* nonnull %27) #10
  call void @_ZN4base7RunLoopD1Ev(%"class.base::RunLoop"* nonnull %7) #10
  call void @llvm.lifetime.end.p0i8(i64 48, i8* nonnull %11) #10
  ret void
}

; Function Attrs: argmemonly nounwind
declare void @llvm.lifetime.start.p0i8(i64 immarg, i8* nocapture) #5

; Function Attrs: argmemonly nounwind
declare void @llvm.memset.p0i8.i64(i8* nocapture writeonly, i8, i64, i1 immarg) #5

declare void @_ZN4base7RunLoopC1ENS0_4TypeE(%"class.base::RunLoop"*, i32) unnamed_addr #1

; Function Attrs: argmemonly nounwind
declare void @llvm.lifetime.end.p0i8(i64 immarg, i8* nocapture) #5

declare void @_ZN4base7RunLoop3RunERKNS_8LocationE(%"class.base::RunLoop"*, %"class.base::Location"* dereferenceable(32)) local_unnamed_addr #1

declare void @_ZN4base8Location7CurrentEPKcS2_i(%"class.base::Location"* sret, i8*, i8*, i32) local_unnamed_addr #1

; Function Attrs: nounwind
declare void @_ZN4base7RunLoopD1Ev(%"class.base::RunLoop"*) unnamed_addr #2

; Function Attrs: nounwind ssp uwtable
define hidden void @_ZN3viz5mojom5blink33GpuMemoryBufferFactoryAsyncWaiter19CopyGpuMemoryBufferEN3gfx21GpuMemoryBufferHandleEN4base24UnsafeSharedMemoryRegionEPb(%"class.viz::mojom::blink::GpuMemoryBufferFactoryAsyncWaiter"* nocapture readonly, %"struct.gfx::GpuMemoryBufferHandle"*, %"class.base::UnsafeSharedMemoryRegion"*, i8*) local_unnamed_addr #0 align 2 {
  %5 = alloca %"class.base::RunLoop", align 8
  %6 = alloca %"struct.gfx::GpuMemoryBufferHandle", align 8
  %7 = alloca %"class.base::UnsafeSharedMemoryRegion", align 8
  %8 = alloca %"class.base::OnceCallback.2", align 8
  %9 = alloca %"class.base::Location", align 8
  %10 = ptrtoint i8* %3 to i64
  %11 = bitcast %"class.base::RunLoop"* %5 to i8*
  call void @llvm.lifetime.start.p0i8(i64 48, i8* nonnull %11) #10
  call void @llvm.memset.p0i8.i64(i8* nonnull align 8 %11, i8 -86, i64 48, i1 false)
  call void @_ZN4base7RunLoopC1ENS0_4TypeE(%"class.base::RunLoop"* nonnull %5, i32 0) #10
  %12 = getelementptr inbounds %"class.viz::mojom::blink::GpuMemoryBufferFactoryAsyncWaiter", %"class.viz::mojom::blink::GpuMemoryBufferFactoryAsyncWaiter"* %0, i64 0, i32 0
  %13 = load %"class.viz::mojom::blink::GpuMemoryBufferFactory"*, %"class.viz::mojom::blink::GpuMemoryBufferFactory"** %12, align 8
  call void @_ZN3gfx21GpuMemoryBufferHandleC1EOS0_(%"struct.gfx::GpuMemoryBufferHandle"* nonnull %6, %"struct.gfx::GpuMemoryBufferHandle"* dereferenceable(112) %1) #10
  call void @_ZN4base24UnsafeSharedMemoryRegionC1EOS0_(%"class.base::UnsafeSharedMemoryRegion"* nonnull %7, %"class.base::UnsafeSharedMemoryRegion"* dereferenceable(64) %2) #10
  %14 = ptrtoint %"class.base::RunLoop"* %5 to i64
  %15 = call i8* @_Znwm(i64 56) #11, !noalias !7
  %16 = bitcast i8* %15 to %"class.base::internal::BindStateBase"*
  call void @_ZN4base8internal13BindStateBaseC2EPFvvEPFvPKS1_E(%"class.base::internal::BindStateBase"* nonnull %16, void ()* bitcast (void (%"class.base::internal::BindStateBase"*, i1)* @"_ZN4base8internal7InvokerINS0_9BindStateIZN3viz5mojom5blink33GpuMemoryBufferFactoryAsyncWaiter19CopyGpuMemoryBufferEN3gfx21GpuMemoryBufferHandleENS_24UnsafeSharedMemoryRegionEPbE3$_1JPNS_7RunLoopESA_EEEFvbEE7RunOnceEPNS0_13BindStateBaseEb" to void ()*), void (%"class.base::internal::BindStateBase"*)* nonnull @"_ZN4base8internal9BindStateIZN3viz5mojom5blink33GpuMemoryBufferFactoryAsyncWaiter19CopyGpuMemoryBufferEN3gfx21GpuMemoryBufferHandleENS_24UnsafeSharedMemoryRegionEPbE3$_1JPNS_7RunLoopES9_EE7DestroyEPKNS0_13BindStateBaseE") #10, !noalias !7
  %17 = getelementptr inbounds i8, i8* %15, i64 40
  %18 = bitcast i8* %17 to i64*
  store i64 %14, i64* %18, align 8, !noalias !7
  %19 = getelementptr inbounds i8, i8* %15, i64 48
  %20 = bitcast i8* %19 to i64*
  store i64 %10, i64* %20, align 8, !noalias !7
  %21 = bitcast %"class.base::OnceCallback.2"* %8 to i8**
  store i8* %15, i8** %21, align 8, !alias.scope !7
  %22 = bitcast %"class.viz::mojom::blink::GpuMemoryBufferFactory"* %13 to void (%"class.viz::mojom::blink::GpuMemoryBufferFactory"*, %"struct.gfx::GpuMemoryBufferHandle"*, %"class.base::UnsafeSharedMemoryRegion"*, %"class.base::OnceCallback.2"*)***
  %23 = load void (%"class.viz::mojom::blink::GpuMemoryBufferFactory"*, %"struct.gfx::GpuMemoryBufferHandle"*, %"class.base::UnsafeSharedMemoryRegion"*, %"class.base::OnceCallback.2"*)**, void (%"class.viz::mojom::blink::GpuMemoryBufferFactory"*, %"struct.gfx::GpuMemoryBufferHandle"*, %"class.base::UnsafeSharedMemoryRegion"*, %"class.base::OnceCallback.2"*)*** %22, align 8
  %24 = getelementptr inbounds void (%"class.viz::mojom::blink::GpuMemoryBufferFactory"*, %"struct.gfx::GpuMemoryBufferHandle"*, %"class.base::UnsafeSharedMemoryRegion"*, %"class.base::OnceCallback.2"*)*, void (%"class.viz::mojom::blink::GpuMemoryBufferFactory"*, %"struct.gfx::GpuMemoryBufferHandle"*, %"class.base::UnsafeSharedMemoryRegion"*, %"class.base::OnceCallback.2"*)** %23, i64 4
  %25 = load void (%"class.viz::mojom::blink::GpuMemoryBufferFactory"*, %"struct.gfx::GpuMemoryBufferHandle"*, %"class.base::UnsafeSharedMemoryRegion"*, %"class.base::OnceCallback.2"*)*, void (%"class.viz::mojom::blink::GpuMemoryBufferFactory"*, %"struct.gfx::GpuMemoryBufferHandle"*, %"class.base::UnsafeSharedMemoryRegion"*, %"class.base::OnceCallback.2"*)** %24, align 8
  call void %25(%"class.viz::mojom::blink::GpuMemoryBufferFactory"* %13, %"struct.gfx::GpuMemoryBufferHandle"* nonnull %6, %"class.base::UnsafeSharedMemoryRegion"* nonnull %7, %"class.base::OnceCallback.2"* nonnull %8) #10
  %26 = getelementptr inbounds %"class.base::OnceCallback.2", %"class.base::OnceCallback.2"* %8, i64 0, i32 0
  call void @_ZN4base8internal12CallbackBaseD2Ev(%"class.base::internal::CallbackBase"* nonnull %26) #10
  call void @_ZN4base24UnsafeSharedMemoryRegionD1Ev(%"class.base::UnsafeSharedMemoryRegion"* nonnull %7) #10
  call void @_ZN3gfx21GpuMemoryBufferHandleD1Ev(%"struct.gfx::GpuMemoryBufferHandle"* nonnull %6) #10
  %27 = bitcast %"class.base::Location"* %9 to i8*
  call void @llvm.lifetime.start.p0i8(i64 32, i8* nonnull %27) #10
  call void @_ZN4base8Location7CurrentEPKcS2_i(%"class.base::Location"* nonnull sret %9, i8* getelementptr inbounds ([20 x i8], [20 x i8]* @.str.2, i64 0, i64 0), i8* getelementptr inbounds ([60 x i8], [60 x i8]* @.str.1, i64 0, i64 0), i32 81) #10
  call void @_ZN4base7RunLoop3RunERKNS_8LocationE(%"class.base::RunLoop"* nonnull %5, %"class.base::Location"* nonnull dereferenceable(32) %9) #10
  call void @llvm.lifetime.end.p0i8(i64 32, i8* nonnull %27) #10
  call void @_ZN4base7RunLoopD1Ev(%"class.base::RunLoop"* nonnull %5) #10
  call void @llvm.lifetime.end.p0i8(i64 48, i8* nonnull %11) #10
  ret void
}

; Function Attrs: nounwind ssp uwtable
define hidden void @_ZN3viz5mojom5blink24GpuInterceptorForTesting28CreateGpuMemoryBufferFactoryEN4mojo15PendingReceiverINS1_22GpuMemoryBufferFactoryEEE(%"class.viz::mojom::blink::GpuInterceptorForTesting"*, %"class.mojo::PendingReceiver"*) unnamed_addr #0 align 2 {
  %3 = alloca %"class.mojo::PendingReceiver", align 8
  %4 = bitcast %"class.viz::mojom::blink::GpuInterceptorForTesting"* %0 to %"class.viz::mojom::blink::Gpu"* (%"class.viz::mojom::blink::GpuInterceptorForTesting"*)***
  %5 = load %"class.viz::mojom::blink::Gpu"* (%"class.viz::mojom::blink::GpuInterceptorForTesting"*)**, %"class.viz::mojom::blink::Gpu"* (%"class.viz::mojom::blink::GpuInterceptorForTesting"*)*** %4, align 8
  %6 = getelementptr inbounds %"class.viz::mojom::blink::Gpu"* (%"class.viz::mojom::blink::GpuInterceptorForTesting"*)*, %"class.viz::mojom::blink::Gpu"* (%"class.viz::mojom::blink::GpuInterceptorForTesting"*)** %5, i64 5
  %7 = load %"class.viz::mojom::blink::Gpu"* (%"class.viz::mojom::blink::GpuInterceptorForTesting"*)*, %"class.viz::mojom::blink::Gpu"* (%"class.viz::mojom::blink::GpuInterceptorForTesting"*)** %6, align 8
  %8 = tail call %"class.viz::mojom::blink::Gpu"* %7(%"class.viz::mojom::blink::GpuInterceptorForTesting"* %0) #10
  %9 = getelementptr inbounds %"class.mojo::PendingReceiver", %"class.mojo::PendingReceiver"* %3, i64 0, i32 0
  %10 = getelementptr inbounds %"class.mojo::PendingReceiver", %"class.mojo::PendingReceiver"* %1, i64 0, i32 0
  call void @_ZN4mojo8internal20PendingReceiverStateC1EOS1_(%"struct.mojo::internal::PendingReceiverState"* nonnull %9, %"struct.mojo::internal::PendingReceiverState"* dereferenceable(24) %10) #10
  %11 = bitcast %"class.viz::mojom::blink::Gpu"* %8 to void (%"class.viz::mojom::blink::Gpu"*, %"class.mojo::PendingReceiver"*)***
  %12 = load void (%"class.viz::mojom::blink::Gpu"*, %"class.mojo::PendingReceiver"*)**, void (%"class.viz::mojom::blink::Gpu"*, %"class.mojo::PendingReceiver"*)*** %11, align 8
  %13 = getelementptr inbounds void (%"class.viz::mojom::blink::Gpu"*, %"class.mojo::PendingReceiver"*)*, void (%"class.viz::mojom::blink::Gpu"*, %"class.mojo::PendingReceiver"*)** %12, i64 2
  %14 = load void (%"class.viz::mojom::blink::Gpu"*, %"class.mojo::PendingReceiver"*)*, void (%"class.viz::mojom::blink::Gpu"*, %"class.mojo::PendingReceiver"*)** %13, align 8
  call void %14(%"class.viz::mojom::blink::Gpu"* %8, %"class.mojo::PendingReceiver"* nonnull %3) #10
  call void @_ZN4mojo8internal20PendingReceiverStateD1Ev(%"struct.mojo::internal::PendingReceiverState"* nonnull %9) #10
  ret void
}

; Function Attrs: nounwind ssp uwtable
define hidden void @_ZN3viz5mojom5blink24GpuInterceptorForTesting19EstablishGpuChannelEN4base12OnceCallbackIFviN4mojo16ScopedHandleBaseINS5_17MessagePipeHandleEEENS5_9StructPtrIN3gpu5mojom5blink7GpuInfoEEENS9_INSC_14GpuFeatureInfoEEEEEE(%"class.viz::mojom::blink::GpuInterceptorForTesting"*, %"class.base::OnceCallback.36"* nocapture) unnamed_addr #0 align 2 {
  %3 = alloca %"class.base::OnceCallback.36", align 8
  %4 = bitcast %"class.viz::mojom::blink::GpuInterceptorForTesting"* %0 to %"class.viz::mojom::blink::Gpu"* (%"class.viz::mojom::blink::GpuInterceptorForTesting"*)***
  %5 = load %"class.viz::mojom::blink::Gpu"* (%"class.viz::mojom::blink::GpuInterceptorForTesting"*)**, %"class.viz::mojom::blink::Gpu"* (%"class.viz::mojom::blink::GpuInterceptorForTesting"*)*** %4, align 8
  %6 = getelementptr inbounds %"class.viz::mojom::blink::Gpu"* (%"class.viz::mojom::blink::GpuInterceptorForTesting"*)*, %"class.viz::mojom::blink::Gpu"* (%"class.viz::mojom::blink::GpuInterceptorForTesting"*)** %5, i64 5
  %7 = load %"class.viz::mojom::blink::Gpu"* (%"class.viz::mojom::blink::GpuInterceptorForTesting"*)*, %"class.viz::mojom::blink::Gpu"* (%"class.viz::mojom::blink::GpuInterceptorForTesting"*)** %6, align 8
  %8 = tail call %"class.viz::mojom::blink::Gpu"* %7(%"class.viz::mojom::blink::GpuInterceptorForTesting"* %0) #10
  %9 = getelementptr inbounds %"class.base::OnceCallback.36", %"class.base::OnceCallback.36"* %1, i64 0, i32 0, i32 0, i32 0
  %10 = bitcast %"class.base::OnceCallback.36"* %1 to i64*
  %11 = load i64, i64* %10, align 8
  %12 = bitcast %"class.base::OnceCallback.36"* %3 to i64*
  store i64 %11, i64* %12, align 8
  store %"class.base::internal::BindStateBase"* null, %"class.base::internal::BindStateBase"** %9, align 8
  %13 = bitcast %"class.viz::mojom::blink::Gpu"* %8 to void (%"class.viz::mojom::blink::Gpu"*, %"class.base::OnceCallback.36"*)***
  %14 = load void (%"class.viz::mojom::blink::Gpu"*, %"class.base::OnceCallback.36"*)**, void (%"class.viz::mojom::blink::Gpu"*, %"class.base::OnceCallback.36"*)*** %13, align 8
  %15 = getelementptr inbounds void (%"class.viz::mojom::blink::Gpu"*, %"class.base::OnceCallback.36"*)*, void (%"class.viz::mojom::blink::Gpu"*, %"class.base::OnceCallback.36"*)** %14, i64 3
  %16 = load void (%"class.viz::mojom::blink::Gpu"*, %"class.base::OnceCallback.36"*)*, void (%"class.viz::mojom::blink::Gpu"*, %"class.base::OnceCallback.36"*)** %15, align 8
  call void %16(%"class.viz::mojom::blink::Gpu"* %8, %"class.base::OnceCallback.36"* nonnull %3) #10
  %17 = getelementptr inbounds %"class.base::OnceCallback.36", %"class.base::OnceCallback.36"* %3, i64 0, i32 0
  call void @_ZN4base8internal12CallbackBaseD2Ev(%"class.base::internal::CallbackBase"* nonnull %17) #10
  ret void
}

; Function Attrs: nounwind ssp uwtable
define hidden void @_ZN3viz5mojom5blink24GpuInterceptorForTesting36CreateVideoEncodeAcceleratorProviderEN4mojo15PendingReceiverIN5media5mojom5blink30VideoEncodeAcceleratorProviderEEE(%"class.viz::mojom::blink::GpuInterceptorForTesting"*, %"class.mojo::PendingReceiver.37"*) unnamed_addr #0 align 2 {
  %3 = alloca %"class.mojo::PendingReceiver.37", align 8
  %4 = bitcast %"class.viz::mojom::blink::GpuInterceptorForTesting"* %0 to %"class.viz::mojom::blink::Gpu"* (%"class.viz::mojom::blink::GpuInterceptorForTesting"*)***
  %5 = load %"class.viz::mojom::blink::Gpu"* (%"class.viz::mojom::blink::GpuInterceptorForTesting"*)**, %"class.viz::mojom::blink::Gpu"* (%"class.viz::mojom::blink::GpuInterceptorForTesting"*)*** %4, align 8
  %6 = getelementptr inbounds %"class.viz::mojom::blink::Gpu"* (%"class.viz::mojom::blink::GpuInterceptorForTesting"*)*, %"class.viz::mojom::blink::Gpu"* (%"class.viz::mojom::blink::GpuInterceptorForTesting"*)** %5, i64 5
  %7 = load %"class.viz::mojom::blink::Gpu"* (%"class.viz::mojom::blink::GpuInterceptorForTesting"*)*, %"class.viz::mojom::blink::Gpu"* (%"class.viz::mojom::blink::GpuInterceptorForTesting"*)** %6, align 8
  %8 = tail call %"class.viz::mojom::blink::Gpu"* %7(%"class.viz::mojom::blink::GpuInterceptorForTesting"* %0) #10
  %9 = getelementptr inbounds %"class.mojo::PendingReceiver.37", %"class.mojo::PendingReceiver.37"* %3, i64 0, i32 0
  %10 = getelementptr inbounds %"class.mojo::PendingReceiver.37", %"class.mojo::PendingReceiver.37"* %1, i64 0, i32 0
  call void @_ZN4mojo8internal20PendingReceiverStateC1EOS1_(%"struct.mojo::internal::PendingReceiverState"* nonnull %9, %"struct.mojo::internal::PendingReceiverState"* dereferenceable(24) %10) #10
  %11 = bitcast %"class.viz::mojom::blink::Gpu"* %8 to void (%"class.viz::mojom::blink::Gpu"*, %"class.mojo::PendingReceiver.37"*)***
  %12 = load void (%"class.viz::mojom::blink::Gpu"*, %"class.mojo::PendingReceiver.37"*)**, void (%"class.viz::mojom::blink::Gpu"*, %"class.mojo::PendingReceiver.37"*)*** %11, align 8
  %13 = getelementptr inbounds void (%"class.viz::mojom::blink::Gpu"*, %"class.mojo::PendingReceiver.37"*)*, void (%"class.viz::mojom::blink::Gpu"*, %"class.mojo::PendingReceiver.37"*)** %12, i64 4
  %14 = load void (%"class.viz::mojom::blink::Gpu"*, %"class.mojo::PendingReceiver.37"*)*, void (%"class.viz::mojom::blink::Gpu"*, %"class.mojo::PendingReceiver.37"*)** %13, align 8
  call void %14(%"class.viz::mojom::blink::Gpu"* %8, %"class.mojo::PendingReceiver.37"* nonnull %3) #10
  call void @_ZN4mojo8internal20PendingReceiverStateD1Ev(%"struct.mojo::internal::PendingReceiverState"* nonnull %9) #10
  ret void
}

; Function Attrs: nofree norecurse nounwind ssp uwtable writeonly
define hidden void @_ZN3viz5mojom5blink14GpuAsyncWaiterC2EPNS1_3GpuE(%"class.viz::mojom::blink::GpuAsyncWaiter"* nocapture, %"class.viz::mojom::blink::Gpu"*) unnamed_addr #3 align 2 {
  %3 = getelementptr inbounds %"class.viz::mojom::blink::GpuAsyncWaiter", %"class.viz::mojom::blink::GpuAsyncWaiter"* %0, i64 0, i32 0
  store %"class.viz::mojom::blink::Gpu"* %1, %"class.viz::mojom::blink::Gpu"** %3, align 8
  ret void
}

; Function Attrs: norecurse nounwind readnone ssp uwtable
define hidden void @_ZN3viz5mojom5blink14GpuAsyncWaiterD2Ev(%"class.viz::mojom::blink::GpuAsyncWaiter"* nocapture) unnamed_addr #4 align 2 {
  ret void
}

; Function Attrs: nounwind ssp uwtable
define hidden void @_ZN3viz5mojom5blink14GpuAsyncWaiter19EstablishGpuChannelEPiPN4mojo16ScopedHandleBaseINS4_17MessagePipeHandleEEEPNS4_9StructPtrIN3gpu5mojom5blink7GpuInfoEEEPNS9_INSC_14GpuFeatureInfoEEE(%"class.viz::mojom::blink::GpuAsyncWaiter"* nocapture readonly, i32*, %"class.mojo::ScopedHandleBase"*, %"class.mojo::StructPtr"*, %"class.mojo::StructPtr.189"*) local_unnamed_addr #0 align 2 {
  %6 = alloca %"class.base::RunLoop", align 8
  %7 = alloca %"class.base::OnceCallback.36", align 8
  %8 = alloca %"class.base::Location", align 8
  %9 = ptrtoint i32* %1 to i64
  %10 = ptrtoint %"class.mojo::ScopedHandleBase"* %2 to i64
  %11 = ptrtoint %"class.mojo::StructPtr"* %3 to i64
  %12 = ptrtoint %"class.mojo::StructPtr.189"* %4 to i64
  %13 = bitcast %"class.base::RunLoop"* %6 to i8*
  call void @llvm.lifetime.start.p0i8(i64 48, i8* nonnull %13) #10
  call void @llvm.memset.p0i8.i64(i8* nonnull align 8 %13, i8 -86, i64 48, i1 false)
  call void @_ZN4base7RunLoopC1ENS0_4TypeE(%"class.base::RunLoop"* nonnull %6, i32 0) #10
  %14 = getelementptr inbounds %"class.viz::mojom::blink::GpuAsyncWaiter", %"class.viz::mojom::blink::GpuAsyncWaiter"* %0, i64 0, i32 0
  %15 = load %"class.viz::mojom::blink::Gpu"*, %"class.viz::mojom::blink::Gpu"** %14, align 8
  %16 = ptrtoint %"class.base::RunLoop"* %6 to i64
  %17 = call i8* @_Znwm(i64 80) #11, !noalias !12
  %18 = bitcast i8* %17 to %"class.base::internal::BindStateBase"*
  call void @_ZN4base8internal13BindStateBaseC2EPFvvEPFvPKS1_E(%"class.base::internal::BindStateBase"* nonnull %18, void ()* bitcast (void (%"class.base::internal::BindStateBase"*, i32, %"class.mojo::ScopedHandleBase"*, %"class.mojo::StructPtr"*, %"class.mojo::StructPtr.189"*)* @"_ZN4base8internal7InvokerINS0_9BindStateIZN3viz5mojom5blink14GpuAsyncWaiter19EstablishGpuChannelEPiPN4mojo16ScopedHandleBaseINS8_17MessagePipeHandleEEEPNS8_9StructPtrIN3gpu5mojom5blink7GpuInfoEEEPNSD_INSG_14GpuFeatureInfoEEEE3$_2JPNS_7RunLoopES7_SC_SJ_SM_EEEFviSB_SI_SL_EE7RunOnceEPNS0_13BindStateBaseEiOSB_OSI_OSL_" to void ()*), void (%"class.base::internal::BindStateBase"*)* nonnull @"_ZN4base8internal9BindStateIZN3viz5mojom5blink14GpuAsyncWaiter19EstablishGpuChannelEPiPN4mojo16ScopedHandleBaseINS7_17MessagePipeHandleEEEPNS7_9StructPtrIN3gpu5mojom5blink7GpuInfoEEEPNSC_INSF_14GpuFeatureInfoEEEE3$_2JPNS_7RunLoopES6_SB_SI_SL_EE7DestroyEPKNS0_13BindStateBaseE") #10, !noalias !12
  %19 = getelementptr inbounds i8, i8* %17, i64 40
  %20 = bitcast i8* %19 to i64*
  store i64 %16, i64* %20, align 8, !noalias !12
  %21 = getelementptr inbounds i8, i8* %17, i64 48
  %22 = bitcast i8* %21 to i64*
  store i64 %9, i64* %22, align 8, !noalias !12
  %23 = getelementptr inbounds i8, i8* %17, i64 56
  %24 = bitcast i8* %23 to i64*
  store i64 %10, i64* %24, align 8, !noalias !12
  %25 = getelementptr inbounds i8, i8* %17, i64 64
  %26 = bitcast i8* %25 to i64*
  store i64 %11, i64* %26, align 8, !noalias !12
  %27 = getelementptr inbounds i8, i8* %17, i64 72
  %28 = bitcast i8* %27 to i64*
  store i64 %12, i64* %28, align 8, !noalias !12
  %29 = bitcast %"class.base::OnceCallback.36"* %7 to i8**
  store i8* %17, i8** %29, align 8, !alias.scope !12
  %30 = bitcast %"class.viz::mojom::blink::Gpu"* %15 to void (%"class.viz::mojom::blink::Gpu"*, %"class.base::OnceCallback.36"*)***
  %31 = load void (%"class.viz::mojom::blink::Gpu"*, %"class.base::OnceCallback.36"*)**, void (%"class.viz::mojom::blink::Gpu"*, %"class.base::OnceCallback.36"*)*** %30, align 8
  %32 = getelementptr inbounds void (%"class.viz::mojom::blink::Gpu"*, %"class.base::OnceCallback.36"*)*, void (%"class.viz::mojom::blink::Gpu"*, %"class.base::OnceCallback.36"*)** %31, i64 3
  %33 = load void (%"class.viz::mojom::blink::Gpu"*, %"class.base::OnceCallback.36"*)*, void (%"class.viz::mojom::blink::Gpu"*, %"class.base::OnceCallback.36"*)** %32, align 8
  call void %33(%"class.viz::mojom::blink::Gpu"* %15, %"class.base::OnceCallback.36"* nonnull %7) #10
  %34 = getelementptr inbounds %"class.base::OnceCallback.36", %"class.base::OnceCallback.36"* %7, i64 0, i32 0
  call void @_ZN4base8internal12CallbackBaseD2Ev(%"class.base::internal::CallbackBase"* nonnull %34) #10
  %35 = bitcast %"class.base::Location"* %8 to i8*
  call void @llvm.lifetime.start.p0i8(i64 32, i8* nonnull %35) #10
  call void @_ZN4base8Location7CurrentEPKcS2_i(%"class.base::Location"* nonnull sret %8, i8* getelementptr inbounds ([20 x i8], [20 x i8]* @.str.3, i64 0, i64 0), i8* getelementptr inbounds ([60 x i8], [60 x i8]* @.str.1, i64 0, i64 0), i32 125) #10
  call void @_ZN4base7RunLoop3RunERKNS_8LocationE(%"class.base::RunLoop"* nonnull %6, %"class.base::Location"* nonnull dereferenceable(32) %8) #10
  call void @llvm.lifetime.end.p0i8(i64 32, i8* nonnull %35) #10
  call void @_ZN4base7RunLoopD1Ev(%"class.base::RunLoop"* nonnull %6) #10
  call void @llvm.lifetime.end.p0i8(i64 48, i8* nonnull %13) #10
  ret void
}

; Function Attrs: nounwind ssp uwtable
define linkonce_odr hidden void @_ZN3viz5mojom5blink22GpuMemoryBufferFactoryD2Ev(%"class.viz::mojom::blink::GpuMemoryBufferFactory"*) unnamed_addr #0 comdat align 2 {
  ret void
}

; Function Attrs: inlinehint nounwind ssp uwtable
define linkonce_odr hidden void @_ZN3viz5mojom5blink43GpuMemoryBufferFactoryInterceptorForTestingD0Ev(%"class.viz::mojom::blink::GpuMemoryBufferFactoryInterceptorForTesting"*) unnamed_addr #6 comdat align 2 {
  tail call void @llvm.trap() #12
  unreachable
}

declare void @__cxa_pure_virtual() unnamed_addr

; Function Attrs: nounwind ssp uwtable
define linkonce_odr hidden void @_ZN3viz5mojom5blink3GpuD2Ev(%"class.viz::mojom::blink::Gpu"*) unnamed_addr #0 comdat align 2 {
  ret void
}

; Function Attrs: inlinehint nounwind ssp uwtable
define linkonce_odr hidden void @_ZN3viz5mojom5blink24GpuInterceptorForTestingD0Ev(%"class.viz::mojom::blink::GpuInterceptorForTesting"*) unnamed_addr #6 comdat align 2 {
  tail call void @llvm.trap() #12
  unreachable
}

; Function Attrs: nounwind
declare void @_ZN4mojo8internal20PendingReceiverStateC1EOS1_(%"struct.mojo::internal::PendingReceiverState"*, %"struct.mojo::internal::PendingReceiverState"* dereferenceable(24)) unnamed_addr #2

; Function Attrs: nounwind
declare void @_ZN4mojo8internal20PendingReceiverStateD1Ev(%"struct.mojo::internal::PendingReceiverState"*) unnamed_addr #2

; Function Attrs: cold noreturn nounwind
declare void @llvm.trap() #7

; Function Attrs: nounwind ssp uwtable
define internal void @"_ZN4base8internal7InvokerINS0_9BindStateIZN3viz5mojom5blink33GpuMemoryBufferFactoryAsyncWaiter21CreateGpuMemoryBufferEN3gfx21GenericSharedMemoryIdERKNS7_4SizeENS7_12BufferFormatENS7_11BufferUsageEPNS7_21GpuMemoryBufferHandleEE3$_0JPNS_7RunLoopESF_EEEFvSE_EE7RunOnceEPNS0_13BindStateBaseEOSE_"(%"class.base::internal::BindStateBase"* nocapture readonly, %"struct.gfx::GpuMemoryBufferHandle"* dereferenceable(112)) #0 align 2 {
  %3 = alloca %"struct.gfx::GpuMemoryBufferHandle", align 8
  %4 = getelementptr inbounds %"class.base::internal::BindStateBase", %"class.base::internal::BindStateBase"* %0, i64 1, i32 1
  %5 = bitcast void ()** %4 to %"class.base::RunLoop"**
  %6 = getelementptr inbounds void ()*, void ()** %4, i64 1
  %7 = bitcast void ()** %6 to %"struct.gfx::GpuMemoryBufferHandle"**
  %8 = bitcast %"struct.gfx::GpuMemoryBufferHandle"* %3 to i8*
  call void @llvm.lifetime.start.p0i8(i64 112, i8* nonnull %8) #10
  %9 = load %"class.base::RunLoop"*, %"class.base::RunLoop"** %5, align 8
  %10 = load %"struct.gfx::GpuMemoryBufferHandle"*, %"struct.gfx::GpuMemoryBufferHandle"** %7, align 8
  call void @_ZN3gfx21GpuMemoryBufferHandleC1EOS0_(%"struct.gfx::GpuMemoryBufferHandle"* nonnull %3, %"struct.gfx::GpuMemoryBufferHandle"* dereferenceable(112) %1) #10
  %11 = call dereferenceable(112) %"struct.gfx::GpuMemoryBufferHandle"* @_ZN3gfx21GpuMemoryBufferHandleaSEOS0_(%"struct.gfx::GpuMemoryBufferHandle"* %10, %"struct.gfx::GpuMemoryBufferHandle"* nonnull dereferenceable(112) %3) #10
  call void @_ZN4base7RunLoop4QuitEv(%"class.base::RunLoop"* %9) #10
  call void @_ZN3gfx21GpuMemoryBufferHandleD1Ev(%"struct.gfx::GpuMemoryBufferHandle"* nonnull %3) #10
  call void @llvm.lifetime.end.p0i8(i64 112, i8* nonnull %8) #10
  ret void
}

declare dereferenceable(112) %"struct.gfx::GpuMemoryBufferHandle"* @_ZN3gfx21GpuMemoryBufferHandleaSEOS0_(%"struct.gfx::GpuMemoryBufferHandle"*, %"struct.gfx::GpuMemoryBufferHandle"* dereferenceable(112)) local_unnamed_addr #1

declare void @_ZN4base7RunLoop4QuitEv(%"class.base::RunLoop"*) local_unnamed_addr #1

; Function Attrs: nobuiltin nofree
declare noalias nonnull i8* @_Znwm(i64) local_unnamed_addr #8

; Function Attrs: nounwind ssp uwtable
define internal void @"_ZN4base8internal9BindStateIZN3viz5mojom5blink33GpuMemoryBufferFactoryAsyncWaiter21CreateGpuMemoryBufferEN3gfx21GenericSharedMemoryIdERKNS6_4SizeENS6_12BufferFormatENS6_11BufferUsageEPNS6_21GpuMemoryBufferHandleEE3$_0JPNS_7RunLoopESE_EE7DestroyEPKNS0_13BindStateBaseE"(%"class.base::internal::BindStateBase"*) #0 align 2 {
  %2 = icmp eq %"class.base::internal::BindStateBase"* %0, null
  br i1 %2, label %5, label %3

3:                                                ; preds = %1
  %4 = bitcast %"class.base::internal::BindStateBase"* %0 to i8*
  tail call void @_ZdlPv(i8* %4) #11
  br label %5

5:                                                ; preds = %3, %1
  ret void
}

declare void @_ZN4base8internal13BindStateBaseC2EPFvvEPFvPKS1_E(%"class.base::internal::BindStateBase"*, void ()*, void (%"class.base::internal::BindStateBase"*)*) unnamed_addr #1

; Function Attrs: nobuiltin nounwind
declare void @_ZdlPv(i8*) local_unnamed_addr #9

; Function Attrs: nounwind ssp uwtable
define internal void @"_ZN4base8internal7InvokerINS0_9BindStateIZN3viz5mojom5blink33GpuMemoryBufferFactoryAsyncWaiter19CopyGpuMemoryBufferEN3gfx21GpuMemoryBufferHandleENS_24UnsafeSharedMemoryRegionEPbE3$_1JPNS_7RunLoopESA_EEEFvbEE7RunOnceEPNS0_13BindStateBaseEb"(%"class.base::internal::BindStateBase"* nocapture readonly, i1 zeroext) #0 align 2 {
  %3 = zext i1 %1 to i8
  %4 = getelementptr inbounds %"class.base::internal::BindStateBase", %"class.base::internal::BindStateBase"* %0, i64 1, i32 1
  %5 = bitcast void ()** %4 to %"class.base::RunLoop"**
  %6 = getelementptr inbounds void ()*, void ()** %4, i64 1
  %7 = bitcast void ()** %6 to i8**
  %8 = load %"class.base::RunLoop"*, %"class.base::RunLoop"** %5, align 8
  %9 = load i8*, i8** %7, align 8
  store i8 %3, i8* %9, align 1
  tail call void @_ZN4base7RunLoop4QuitEv(%"class.base::RunLoop"* %8) #10
  ret void
}

; Function Attrs: nounwind ssp uwtable
define internal void @"_ZN4base8internal9BindStateIZN3viz5mojom5blink33GpuMemoryBufferFactoryAsyncWaiter19CopyGpuMemoryBufferEN3gfx21GpuMemoryBufferHandleENS_24UnsafeSharedMemoryRegionEPbE3$_1JPNS_7RunLoopES9_EE7DestroyEPKNS0_13BindStateBaseE"(%"class.base::internal::BindStateBase"*) #0 align 2 {
  %2 = icmp eq %"class.base::internal::BindStateBase"* %0, null
  br i1 %2, label %5, label %3

3:                                                ; preds = %1
  %4 = bitcast %"class.base::internal::BindStateBase"* %0 to i8*
  tail call void @_ZdlPv(i8* %4) #11
  br label %5

5:                                                ; preds = %3, %1
  ret void
}

; Function Attrs: nounwind ssp uwtable
define internal void @"_ZN4base8internal7InvokerINS0_9BindStateIZN3viz5mojom5blink14GpuAsyncWaiter19EstablishGpuChannelEPiPN4mojo16ScopedHandleBaseINS8_17MessagePipeHandleEEEPNS8_9StructPtrIN3gpu5mojom5blink7GpuInfoEEEPNSD_INSG_14GpuFeatureInfoEEEE3$_2JPNS_7RunLoopES7_SC_SJ_SM_EEEFviSB_SI_SL_EE7RunOnceEPNS0_13BindStateBaseEiOSB_OSI_OSL_"(%"class.base::internal::BindStateBase"* nocapture readonly, i32, %"class.mojo::ScopedHandleBase"* nocapture dereferenceable(4), %"class.mojo::StructPtr"* nocapture dereferenceable(8), %"class.mojo::StructPtr.189"* nocapture dereferenceable(8)) #0 align 2 {
  %6 = getelementptr inbounds %"class.base::internal::BindStateBase", %"class.base::internal::BindStateBase"* %0, i64 1, i32 1
  %7 = bitcast void ()** %6 to %"class.base::RunLoop"**
  %8 = getelementptr inbounds void ()*, void ()** %6, i64 1
  %9 = bitcast void ()** %8 to i32**
  %10 = getelementptr inbounds void ()*, void ()** %6, i64 2
  %11 = bitcast void ()** %10 to %"class.mojo::ScopedHandleBase"**
  %12 = getelementptr inbounds void ()*, void ()** %6, i64 3
  %13 = bitcast void ()** %12 to %"class.mojo::StructPtr"**
  %14 = getelementptr inbounds void ()*, void ()** %6, i64 4
  %15 = bitcast void ()** %14 to %"class.mojo::StructPtr.189"**
  %16 = load %"class.base::RunLoop"*, %"class.base::RunLoop"** %7, align 8
  %17 = load i32*, i32** %9, align 8
  %18 = load %"class.mojo::ScopedHandleBase"*, %"class.mojo::ScopedHandleBase"** %11, align 8
  %19 = load %"class.mojo::StructPtr"*, %"class.mojo::StructPtr"** %13, align 8
  %20 = load %"class.mojo::StructPtr.189"*, %"class.mojo::StructPtr.189"** %15, align 8
  %21 = getelementptr inbounds %"class.mojo::ScopedHandleBase", %"class.mojo::ScopedHandleBase"* %2, i64 0, i32 0, i32 0, i32 0
  %22 = load i32, i32* %21, align 4, !noalias !17
  store i32 0, i32* %21, align 4, !noalias !17
  %23 = bitcast %"class.mojo::StructPtr"* %3 to i64*
  %24 = load i64, i64* %23, align 8
  store i64 0, i64* %23, align 8
  %25 = bitcast %"class.mojo::StructPtr.189"* %4 to i64*
  %26 = load i64, i64* %25, align 8
  store i64 0, i64* %25, align 8
  store i32 %1, i32* %17, align 4
  %27 = getelementptr inbounds %"class.mojo::ScopedHandleBase", %"class.mojo::ScopedHandleBase"* %18, i64 0, i32 0, i32 0, i32 0
  %28 = load i32, i32* %27, align 4
  %29 = icmp eq i32 %28, 0
  br i1 %29, label %32, label %30

30:                                               ; preds = %5
  %31 = tail call i32 @MojoClose(i32 %28) #10
  br label %32

32:                                               ; preds = %30, %5
  store i32 %22, i32* %27, align 4
  %33 = getelementptr inbounds %"class.mojo::StructPtr", %"class.mojo::StructPtr"* %19, i64 0, i32 0, i32 0, i32 0, i32 0
  %34 = load %"class.gpu::mojom::blink::GpuInfo"*, %"class.gpu::mojom::blink::GpuInfo"** %33, align 8
  store %"class.gpu::mojom::blink::GpuInfo"* null, %"class.gpu::mojom::blink::GpuInfo"** %33, align 8
  %35 = icmp eq %"class.gpu::mojom::blink::GpuInfo"* %34, null
  br i1 %35, label %40, label %36

36:                                               ; preds = %32
  tail call void @_ZN3gpu5mojom5blink7GpuInfoD1Ev(%"class.gpu::mojom::blink::GpuInfo"* nonnull %34) #10
  %37 = bitcast %"class.gpu::mojom::blink::GpuInfo"* %34 to i8*
  tail call void @_ZdlPv(i8* %37) #11
  %38 = load %"class.gpu::mojom::blink::GpuInfo"*, %"class.gpu::mojom::blink::GpuInfo"** %33, align 8
  %39 = bitcast %"class.gpu::mojom::blink::GpuInfo"* %38 to i8*
  br label %40

40:                                               ; preds = %36, %32
  %41 = phi i8* [ %39, %36 ], [ null, %32 ]
  %42 = phi %"class.gpu::mojom::blink::GpuInfo"* [ %38, %36 ], [ null, %32 ]
  %43 = bitcast %"class.mojo::StructPtr"* %19 to i64*
  store i64 %24, i64* %43, align 8
  %44 = getelementptr inbounds %"class.mojo::StructPtr.189", %"class.mojo::StructPtr.189"* %20, i64 0, i32 0, i32 0, i32 0, i32 0
  %45 = load %"class.gpu::mojom::blink::GpuFeatureInfo"*, %"class.gpu::mojom::blink::GpuFeatureInfo"** %44, align 8
  store %"class.gpu::mojom::blink::GpuFeatureInfo"* null, %"class.gpu::mojom::blink::GpuFeatureInfo"** %44, align 8
  %46 = icmp eq %"class.gpu::mojom::blink::GpuFeatureInfo"* %45, null
  br i1 %46, label %47, label %49

47:                                               ; preds = %40
  %48 = bitcast %"class.mojo::StructPtr.189"* %20 to i64*
  store i64 %26, i64* %48, align 8
  tail call void @_ZN4base7RunLoop4QuitEv(%"class.base::RunLoop"* %16) #10
  br label %56

49:                                               ; preds = %40
  tail call void @_ZN3gpu5mojom5blink14GpuFeatureInfoD1Ev(%"class.gpu::mojom::blink::GpuFeatureInfo"* nonnull %45) #10
  %50 = bitcast %"class.gpu::mojom::blink::GpuFeatureInfo"* %45 to i8*
  tail call void @_ZdlPv(i8* %50) #11
  %51 = load %"class.gpu::mojom::blink::GpuFeatureInfo"*, %"class.gpu::mojom::blink::GpuFeatureInfo"** %44, align 8
  %52 = bitcast %"class.mojo::StructPtr.189"* %20 to i64*
  store i64 %26, i64* %52, align 8
  tail call void @_ZN4base7RunLoop4QuitEv(%"class.base::RunLoop"* %16) #10
  %53 = icmp eq %"class.gpu::mojom::blink::GpuFeatureInfo"* %51, null
  br i1 %53, label %56, label %54

54:                                               ; preds = %49
  %55 = bitcast %"class.gpu::mojom::blink::GpuFeatureInfo"* %51 to i8*
  tail call void @_ZN3gpu5mojom5blink14GpuFeatureInfoD1Ev(%"class.gpu::mojom::blink::GpuFeatureInfo"* nonnull %51) #10
  tail call void @_ZdlPv(i8* %55) #11
  br label %56

56:                                               ; preds = %54, %49, %47
  %57 = icmp eq %"class.gpu::mojom::blink::GpuInfo"* %42, null
  br i1 %57, label %59, label %58

58:                                               ; preds = %56
  tail call void @_ZN3gpu5mojom5blink7GpuInfoD1Ev(%"class.gpu::mojom::blink::GpuInfo"* nonnull %42) #10
  tail call void @_ZdlPv(i8* %41) #11
  br label %59

59:                                               ; preds = %56, %58
  ret void
}

declare i32 @MojoClose(i32) local_unnamed_addr #1

; Function Attrs: nounwind
declare void @_ZN3gpu5mojom5blink7GpuInfoD1Ev(%"class.gpu::mojom::blink::GpuInfo"*) unnamed_addr #2

; Function Attrs: nounwind
declare void @_ZN3gpu5mojom5blink14GpuFeatureInfoD1Ev(%"class.gpu::mojom::blink::GpuFeatureInfo"*) unnamed_addr #2

; Function Attrs: nounwind ssp uwtable
define internal void @"_ZN4base8internal9BindStateIZN3viz5mojom5blink14GpuAsyncWaiter19EstablishGpuChannelEPiPN4mojo16ScopedHandleBaseINS7_17MessagePipeHandleEEEPNS7_9StructPtrIN3gpu5mojom5blink7GpuInfoEEEPNSC_INSF_14GpuFeatureInfoEEEE3$_2JPNS_7RunLoopES6_SB_SI_SL_EE7DestroyEPKNS0_13BindStateBaseE"(%"class.base::internal::BindStateBase"*) #0 align 2 {
  %2 = icmp eq %"class.base::internal::BindStateBase"* %0, null
  br i1 %2, label %5, label %3

3:                                                ; preds = %1
  %4 = bitcast %"class.base::internal::BindStateBase"* %0 to i8*
  tail call void @_ZdlPv(i8* %4) #11
  br label %5

5:                                                ; preds = %3, %1
  ret void
}

attributes #0 = { nounwind ssp uwtable "correctly-rounded-divide-sqrt-fp-math"="false" "disable-tail-calls"="false" "less-precise-fpmad"="false" "min-legal-vector-width"="0" "no-frame-pointer-elim"="false" "no-frame-pointer-elim-non-leaf" "no-infs-fp-math"="false" "no-jump-tables"="false" "no-nans-fp-math"="false" "no-signed-zeros-fp-math"="false" "no-trapping-math"="false" "null-pointer-is-valid"="true" "stack-protector-buffer-size"="4" "target-cpu"="x86-64" "target-features"="+cx8,+fxsr,+mmx,+sse,+sse2,+sse3,+x87" "unsafe-fp-math"="false" "use-soft-float"="false" }
attributes #1 = { "correctly-rounded-divide-sqrt-fp-math"="false" "disable-tail-calls"="false" "less-precise-fpmad"="false" "no-frame-pointer-elim"="false" "no-frame-pointer-elim-non-leaf" "no-infs-fp-math"="false" "no-nans-fp-math"="false" "no-signed-zeros-fp-math"="false" "no-trapping-math"="false" "null-pointer-is-valid"="true" "stack-protector-buffer-size"="4" "target-cpu"="x86-64" "target-features"="+cx8,+fxsr,+mmx,+sse,+sse2,+sse3,+x87" "unsafe-fp-math"="false" "use-soft-float"="false" }
attributes #2 = { nounwind "correctly-rounded-divide-sqrt-fp-math"="false" "disable-tail-calls"="false" "less-precise-fpmad"="false" "no-frame-pointer-elim"="false" "no-frame-pointer-elim-non-leaf" "no-infs-fp-math"="false" "no-nans-fp-math"="false" "no-signed-zeros-fp-math"="false" "no-trapping-math"="false" "null-pointer-is-valid"="true" "stack-protector-buffer-size"="4" "target-cpu"="x86-64" "target-features"="+cx8,+fxsr,+mmx,+sse,+sse2,+sse3,+x87" "unsafe-fp-math"="false" "use-soft-float"="false" }
attributes #3 = { nofree norecurse nounwind ssp uwtable writeonly "correctly-rounded-divide-sqrt-fp-math"="false" "disable-tail-calls"="false" "less-precise-fpmad"="false" "min-legal-vector-width"="0" "no-frame-pointer-elim"="false" "no-frame-pointer-elim-non-leaf" "no-infs-fp-math"="false" "no-jump-tables"="false" "no-nans-fp-math"="false" "no-signed-zeros-fp-math"="false" "no-trapping-math"="false" "null-pointer-is-valid"="true" "stack-protector-buffer-size"="4" "target-cpu"="x86-64" "target-features"="+cx8,+fxsr,+mmx,+sse,+sse2,+sse3,+x87" "unsafe-fp-math"="false" "use-soft-float"="false" }
attributes #4 = { norecurse nounwind readnone ssp uwtable "correctly-rounded-divide-sqrt-fp-math"="false" "disable-tail-calls"="false" "less-precise-fpmad"="false" "min-legal-vector-width"="0" "no-frame-pointer-elim"="false" "no-frame-pointer-elim-non-leaf" "no-infs-fp-math"="false" "no-jump-tables"="false" "no-nans-fp-math"="false" "no-signed-zeros-fp-math"="false" "no-trapping-math"="false" "null-pointer-is-valid"="true" "stack-protector-buffer-size"="4" "target-cpu"="x86-64" "target-features"="+cx8,+fxsr,+mmx,+sse,+sse2,+sse3,+x87" "unsafe-fp-math"="false" "use-soft-float"="false" }
attributes #5 = { argmemonly nounwind }
attributes #6 = { inlinehint nounwind ssp uwtable "correctly-rounded-divide-sqrt-fp-math"="false" "disable-tail-calls"="false" "less-precise-fpmad"="false" "min-legal-vector-width"="0" "no-frame-pointer-elim"="false" "no-frame-pointer-elim-non-leaf" "no-infs-fp-math"="false" "no-jump-tables"="false" "no-nans-fp-math"="false" "no-signed-zeros-fp-math"="false" "no-trapping-math"="false" "null-pointer-is-valid"="true" "stack-protector-buffer-size"="4" "target-cpu"="x86-64" "target-features"="+cx8,+fxsr,+mmx,+sse,+sse2,+sse3,+x87" "unsafe-fp-math"="false" "use-soft-float"="false" }
attributes #7 = { cold noreturn nounwind }
attributes #8 = { nobuiltin nofree "correctly-rounded-divide-sqrt-fp-math"="false" "disable-tail-calls"="false" "less-precise-fpmad"="false" "no-frame-pointer-elim"="false" "no-frame-pointer-elim-non-leaf" "no-infs-fp-math"="false" "no-nans-fp-math"="false" "no-signed-zeros-fp-math"="false" "no-trapping-math"="false" "null-pointer-is-valid"="true" "stack-protector-buffer-size"="4" "target-cpu"="x86-64" "target-features"="+cx8,+fxsr,+mmx,+sse,+sse2,+sse3,+x87" "unsafe-fp-math"="false" "use-soft-float"="false" }
attributes #9 = { nobuiltin nounwind "correctly-rounded-divide-sqrt-fp-math"="false" "disable-tail-calls"="false" "less-precise-fpmad"="false" "no-frame-pointer-elim"="false" "no-frame-pointer-elim-non-leaf" "no-infs-fp-math"="false" "no-nans-fp-math"="false" "no-signed-zeros-fp-math"="false" "no-trapping-math"="false" "null-pointer-is-valid"="true" "stack-protector-buffer-size"="4" "target-cpu"="x86-64" "target-features"="+cx8,+fxsr,+mmx,+sse,+sse2,+sse3,+x87" "unsafe-fp-math"="false" "use-soft-float"="false" }
attributes #10 = { nounwind }
attributes #11 = { builtin nounwind }
attributes #12 = { noreturn nounwind }

!llvm.module.flags = !{!0, !1}

!0 = !{i32 1, !"wchar_size", i32 4}
!1 = !{i32 7, !"PIC Level", i32 2}
!2 = !{!3, !5}
!3 = distinct !{!3, !4, !"_ZN4base8internal8BindImplINS_12OnceCallbackEZN3viz5mojom5blink33GpuMemoryBufferFactoryAsyncWaiter21CreateGpuMemoryBufferEN3gfx21GenericSharedMemoryIdERKNS7_4SizeENS7_12BufferFormatENS7_11BufferUsageEPNS7_21GpuMemoryBufferHandleEE3$_0JPNS_7RunLoopERSF_EEEDcOT0_DpOT1_: argument 0"}
!4 = distinct !{!4, !"_ZN4base8internal8BindImplINS_12OnceCallbackEZN3viz5mojom5blink33GpuMemoryBufferFactoryAsyncWaiter21CreateGpuMemoryBufferEN3gfx21GenericSharedMemoryIdERKNS7_4SizeENS7_12BufferFormatENS7_11BufferUsageEPNS7_21GpuMemoryBufferHandleEE3$_0JPNS_7RunLoopERSF_EEEDcOT0_DpOT1_"}
!5 = distinct !{!5, !6, !"_ZN4base8BindOnceIZN3viz5mojom5blink33GpuMemoryBufferFactoryAsyncWaiter21CreateGpuMemoryBufferEN3gfx21GenericSharedMemoryIdERKNS5_4SizeENS5_12BufferFormatENS5_11BufferUsageEPNS5_21GpuMemoryBufferHandleEE3$_0JPNS_7RunLoopERSD_EEENS_12OnceCallbackINS_8internal14BindTypeHelperIT_JDpT0_EE14UnboundRunTypeEEEOSL_DpOSM_: argument 0"}
!6 = distinct !{!6, !"_ZN4base8BindOnceIZN3viz5mojom5blink33GpuMemoryBufferFactoryAsyncWaiter21CreateGpuMemoryBufferEN3gfx21GenericSharedMemoryIdERKNS5_4SizeENS5_12BufferFormatENS5_11BufferUsageEPNS5_21GpuMemoryBufferHandleEE3$_0JPNS_7RunLoopERSD_EEENS_12OnceCallbackINS_8internal14BindTypeHelperIT_JDpT0_EE14UnboundRunTypeEEEOSL_DpOSM_"}
!7 = !{!8, !10}
!8 = distinct !{!8, !9, !"_ZN4base8internal8BindImplINS_12OnceCallbackEZN3viz5mojom5blink33GpuMemoryBufferFactoryAsyncWaiter19CopyGpuMemoryBufferEN3gfx21GpuMemoryBufferHandleENS_24UnsafeSharedMemoryRegionEPbE3$_1JPNS_7RunLoopERSA_EEEDcOT0_DpOT1_: argument 0"}
!9 = distinct !{!9, !"_ZN4base8internal8BindImplINS_12OnceCallbackEZN3viz5mojom5blink33GpuMemoryBufferFactoryAsyncWaiter19CopyGpuMemoryBufferEN3gfx21GpuMemoryBufferHandleENS_24UnsafeSharedMemoryRegionEPbE3$_1JPNS_7RunLoopERSA_EEEDcOT0_DpOT1_"}
!10 = distinct !{!10, !11, !"_ZN4base8BindOnceIZN3viz5mojom5blink33GpuMemoryBufferFactoryAsyncWaiter19CopyGpuMemoryBufferEN3gfx21GpuMemoryBufferHandleENS_24UnsafeSharedMemoryRegionEPbE3$_1JPNS_7RunLoopERS8_EEENS_12OnceCallbackINS_8internal14BindTypeHelperIT_JDpT0_EE14UnboundRunTypeEEEOSG_DpOSH_: argument 0"}
!11 = distinct !{!11, !"_ZN4base8BindOnceIZN3viz5mojom5blink33GpuMemoryBufferFactoryAsyncWaiter19CopyGpuMemoryBufferEN3gfx21GpuMemoryBufferHandleENS_24UnsafeSharedMemoryRegionEPbE3$_1JPNS_7RunLoopERS8_EEENS_12OnceCallbackINS_8internal14BindTypeHelperIT_JDpT0_EE14UnboundRunTypeEEEOSG_DpOSH_"}
!12 = !{!13, !15}
!13 = distinct !{!13, !14, !"_ZN4base8internal8BindImplINS_12OnceCallbackEZN3viz5mojom5blink14GpuAsyncWaiter19EstablishGpuChannelEPiPN4mojo16ScopedHandleBaseINS8_17MessagePipeHandleEEEPNS8_9StructPtrIN3gpu5mojom5blink7GpuInfoEEEPNSD_INSG_14GpuFeatureInfoEEEE3$_2JPNS_7RunLoopERS7_RSC_RSJ_RSM_EEEDcOT0_DpOT1_: argument 0"}
!14 = distinct !{!14, !"_ZN4base8internal8BindImplINS_12OnceCallbackEZN3viz5mojom5blink14GpuAsyncWaiter19EstablishGpuChannelEPiPN4mojo16ScopedHandleBaseINS8_17MessagePipeHandleEEEPNS8_9StructPtrIN3gpu5mojom5blink7GpuInfoEEEPNSD_INSG_14GpuFeatureInfoEEEE3$_2JPNS_7RunLoopERS7_RSC_RSJ_RSM_EEEDcOT0_DpOT1_"}
!15 = distinct !{!15, !16, !"_ZN4base8BindOnceIZN3viz5mojom5blink14GpuAsyncWaiter19EstablishGpuChannelEPiPN4mojo16ScopedHandleBaseINS6_17MessagePipeHandleEEEPNS6_9StructPtrIN3gpu5mojom5blink7GpuInfoEEEPNSB_INSE_14GpuFeatureInfoEEEE3$_2JPNS_7RunLoopERS5_RSA_RSH_RSK_EEENS_12OnceCallbackINS_8internal14BindTypeHelperIT_JDpT0_EE14UnboundRunTypeEEEOSV_DpOSW_: argument 0"}
!16 = distinct !{!16, !"_ZN4base8BindOnceIZN3viz5mojom5blink14GpuAsyncWaiter19EstablishGpuChannelEPiPN4mojo16ScopedHandleBaseINS6_17MessagePipeHandleEEEPNS6_9StructPtrIN3gpu5mojom5blink7GpuInfoEEEPNSB_INSE_14GpuFeatureInfoEEEE3$_2JPNS_7RunLoopERS5_RSA_RSH_RSK_EEENS_12OnceCallbackINS_8internal14BindTypeHelperIT_JDpT0_EE14UnboundRunTypeEEEOSV_DpOSW_"}
!17 = !{!18}
!18 = distinct !{!18, !19, !"_ZN4mojo16ScopedHandleBaseINS_17MessagePipeHandleEE7releaseEv: argument 0"}
!19 = distinct !{!19, !"_ZN4mojo16ScopedHandleBaseINS_17MessagePipeHandleEE7releaseEv"}
