; ModuleID = '../../media/mojo/services/gpu_mojo_media_client.cc'
source_filename = "../../media/mojo/services/gpu_mojo_media_client.cc"
target datalayout = "e-m:e-i64:64-f80:128-n8:16:32:64-S128"
target triple = "x86_64-unknown-linux-gnu"

module asm ".symver exp, exp@GLIBC_2.2.5"
module asm ".symver exp2, exp2@GLIBC_2.2.5"
module asm ".symver exp2f, exp2f@GLIBC_2.2.5"
module asm ".symver expf, expf@GLIBC_2.2.5"
module asm ".symver lgamma, lgamma@GLIBC_2.2.5"
module asm ".symver lgammaf, lgammaf@GLIBC_2.2.5"
module asm ".symver lgammal, lgammal@GLIBC_2.2.5"
module asm ".symver log, log@GLIBC_2.2.5"
module asm ".symver log2, log2@GLIBC_2.2.5"
module asm ".symver log2f, log2f@GLIBC_2.2.5"
module asm ".symver logf, logf@GLIBC_2.2.5"
module asm ".symver pow, pow@GLIBC_2.2.5"
module asm ".symver powf, powf@GLIBC_2.2.5"

%"class.media::GpuMojoMediaClient" = type { %"class.media::MojoMediaClient", %"struct.gpu::GpuPreferences", %"class.gpu::GpuDriverBugWorkarounds", %"struct.gpu::GpuFeatureInfo", %class.scoped_refptr, %"class.base::WeakPtr", %"class.base::RepeatingCallback", %"class.gpu::GpuMemoryBufferFactory"*, %"class.absl::optional" }
%"class.media::MojoMediaClient" = type { i32 (...)** }
%"struct.gpu::GpuPreferences" = type <{ i8, i8, i8, i8, i8, i8, i8, i8, i8, i8, i8, i8, i8, i8, i8, i8, i8, i8, i8, i8, i8, [3 x i8], i32, i32, i32, i32, i8, i8, i8, i8, i8, i8, i8, i8, i8, [7 x i8], %"class.std::__1::vector", i8, i8, i8, i8, i8, [3 x i8], i32, i32, i8, i8, i8, i8, i32, i32, i8, i8, i8, i8, i32, [4 x i8], %"class.std::__1::vector.1", %"class.std::__1::vector.1", i8, i8, [2 x i8], i32, i8, i8, [6 x i8] }>
%"class.std::__1::vector" = type { %"class.std::__1::__vector_base" }
%"class.std::__1::__vector_base" = type { %"struct.gfx::BufferUsageAndFormat"*, %"struct.gfx::BufferUsageAndFormat"*, %"class.std::__1::__compressed_pair" }
%"struct.gfx::BufferUsageAndFormat" = type { i32, i32 }
%"class.std::__1::__compressed_pair" = type { %"struct.std::__1::__compressed_pair_elem" }
%"struct.std::__1::__compressed_pair_elem" = type { %"struct.gfx::BufferUsageAndFormat"* }
%"class.std::__1::vector.1" = type { %"class.std::__1::__vector_base.2" }
%"class.std::__1::__vector_base.2" = type { %"class.std::__1::basic_string"*, %"class.std::__1::basic_string"*, %"class.std::__1::__compressed_pair.8" }
%"class.std::__1::basic_string" = type { %"class.std::__1::__compressed_pair.3" }
%"class.std::__1::__compressed_pair.3" = type { %"struct.std::__1::__compressed_pair_elem.4" }
%"struct.std::__1::__compressed_pair_elem.4" = type { %"struct.std::__1::basic_string<char, std::__1::char_traits<char>, std::__1::allocator<char> >::__rep" }
%"struct.std::__1::basic_string<char, std::__1::char_traits<char>, std::__1::allocator<char> >::__rep" = type { %union.anon }
%union.anon = type { %"struct.std::__1::basic_string<char, std::__1::char_traits<char>, std::__1::allocator<char> >::__long" }
%"struct.std::__1::basic_string<char, std::__1::char_traits<char>, std::__1::allocator<char> >::__long" = type { i8*, i64, i64 }
%"class.std::__1::__compressed_pair.8" = type { %"struct.std::__1::__compressed_pair_elem.9" }
%"struct.std::__1::__compressed_pair_elem.9" = type { %"class.std::__1::basic_string"* }
%"class.gpu::GpuDriverBugWorkarounds" = type { i8, i8, i8, i8, i8, i8, i8, i8, i8, i8, i8, i8, i8, i8, i8, i8, i8, i8, i8, i8, i8, i8, i8, i8, i8, i8, i8, i8, i8, i8, i8, i8, i8, i8, i8, i8, i8, i8, i8, i8, i8, i8, i8, i8, i8, i8, i8, i8, i8, i8, i8, i8, i8, i8, i8, i8, i8, i8, i8, i8, i8, i8, i8, i8, i8, i8, i8, i8, i8, i8, i8, i8, i8, i8, i8, i8, i8, i8, i8, i8, i8, i8, i8, i8, i8, i8, i8, i8, i8, i8, i8, i8, i8, i8, i8, i8, i8, i8, i8, i8, i8, i8, i8, i8, i8, i8, i8, i8, i8, i8, i8, i8, i8, i8, i8, i8, i8, i8, i8, i8, i8, i8, i8, i8, i8, i8, i8, i8, i8, i8, i8, i8, i8, i8, i32, i32, i32 }
%"struct.gpu::GpuFeatureInfo" = type { [10 x i32], %"class.std::__1::vector.13", %"class.std::__1::basic_string", %"class.std::__1::basic_string", %"class.std::__1::vector.20", %"class.std::__1::vector.20", %"class.std::__1::vector.27" }
%"class.std::__1::vector.13" = type { %"class.std::__1::__vector_base.14" }
%"class.std::__1::__vector_base.14" = type { i32*, i32*, %"class.std::__1::__compressed_pair.15" }
%"class.std::__1::__compressed_pair.15" = type { %"struct.std::__1::__compressed_pair_elem.16" }
%"struct.std::__1::__compressed_pair_elem.16" = type { i32* }
%"class.std::__1::vector.20" = type { %"class.std::__1::__vector_base.21" }
%"class.std::__1::__vector_base.21" = type { i32*, i32*, %"class.std::__1::__compressed_pair.22" }
%"class.std::__1::__compressed_pair.22" = type { %"struct.std::__1::__compressed_pair_elem.23" }
%"struct.std::__1::__compressed_pair_elem.23" = type { i32* }
%"class.std::__1::vector.27" = type { %"class.std::__1::__vector_base.28" }
%"class.std::__1::__vector_base.28" = type { i32*, i32*, %"class.std::__1::__compressed_pair.29" }
%"class.std::__1::__compressed_pair.29" = type { %"struct.std::__1::__compressed_pair_elem.30" }
%"struct.std::__1::__compressed_pair_elem.30" = type { i32* }
%class.scoped_refptr = type { %"class.base::SingleThreadTaskRunner"* }
%"class.base::WeakPtr" = type { %"class.base::internal::WeakPtrBase" }
%"class.base::internal::WeakPtrBase" = type { %"class.base::internal::WeakReference", i64 }
%"class.base::internal::WeakReference" = type { %class.scoped_refptr.35 }
%class.scoped_refptr.35 = type { %"class.base::internal::WeakReference::Flag"* }
%"class.base::internal::WeakReference::Flag" = type <{ %"class.base::RefCountedThreadSafe.36", %"class.base::AtomicFlag", [3 x i8] }>
%"class.base::RefCountedThreadSafe.36" = type { %"class.base::subtle::RefCountedThreadSafeBase" }
%"class.base::subtle::RefCountedThreadSafeBase" = type { %"class.base::AtomicRefCount" }
%"class.base::AtomicRefCount" = type { %"struct.std::__1::atomic" }
%"struct.std::__1::atomic" = type { %"struct.std::__1::__atomic_base" }
%"struct.std::__1::__atomic_base" = type { %"struct.std::__1::__atomic_base.34" }
%"struct.std::__1::__atomic_base.34" = type { %"struct.std::__1::__cxx_atomic_impl" }
%"struct.std::__1::__cxx_atomic_impl" = type { %"struct.std::__1::__cxx_atomic_base_impl" }
%"struct.std::__1::__cxx_atomic_base_impl" = type { i32 }
%"class.base::AtomicFlag" = type { %"struct.std::__1::atomic.37" }
%"struct.std::__1::atomic.37" = type { %"struct.std::__1::__atomic_base.38" }
%"struct.std::__1::__atomic_base.38" = type { %"struct.std::__1::__atomic_base.39" }
%"struct.std::__1::__atomic_base.39" = type { %"struct.std::__1::__cxx_atomic_impl.40" }
%"struct.std::__1::__cxx_atomic_impl.40" = type { %"struct.std::__1::__cxx_atomic_base_impl.41" }
%"struct.std::__1::__cxx_atomic_base_impl.41" = type { i8 }
%"class.base::RepeatingCallback" = type { %"class.base::internal::CallbackBaseCopyable" }
%"class.base::internal::CallbackBaseCopyable" = type { %"class.base::internal::CallbackBase" }
%"class.base::internal::CallbackBase" = type { %class.scoped_refptr.42 }
%class.scoped_refptr.42 = type { %"class.base::internal::BindStateBase"* }
%"class.base::internal::BindStateBase" = type { %"class.base::RefCountedThreadSafe.43", void ()*, void (%"class.base::internal::BindStateBase"*)*, i1 (%"class.base::internal::BindStateBase"*, i32)* }
%"class.base::RefCountedThreadSafe.43" = type { %"class.base::subtle::RefCountedThreadSafeBase" }
%"class.absl::optional" = type { %"class.absl::optional_internal::optional_data" }
%"class.absl::optional_internal::optional_data" = type { %"class.absl::optional_internal::optional_data_base" }
%"class.absl::optional_internal::optional_data_base" = type { %"class.absl::optional_internal::optional_data_dtor_base" }
%"class.absl::optional_internal::optional_data_dtor_base" = type { i8, %union.anon.44 }
%union.anon.44 = type { %"class.std::__1::vector.45" }
%"class.std::__1::vector.45" = type { %"class.std::__1::__vector_base.46" }
%"class.std::__1::__vector_base.46" = type { %"struct.media::SupportedVideoDecoderConfig"*, %"struct.media::SupportedVideoDecoderConfig"*, %"class.std::__1::__compressed_pair.47" }
%"struct.media::SupportedVideoDecoderConfig" = type <{ i32, i32, %"class.gfx::Size", %"class.gfx::Size", i8, i8, [2 x i8] }>
%"class.gfx::Size" = type { i32, i32 }
%"class.std::__1::__compressed_pair.47" = type { %"struct.std::__1::__compressed_pair_elem.48" }
%"struct.std::__1::__compressed_pair_elem.48" = type { %"struct.media::SupportedVideoDecoderConfig"* }
%"class.base::SingleThreadTaskRunner" = type { %"class.base::SequencedTaskRunner.base", [4 x i8] }
%"class.base::SequencedTaskRunner.base" = type { %"class.base::TaskRunner.base" }
%"class.base::TaskRunner.base" = type <{ i32 (...)**, %"class.base::RefCountedThreadSafe" }>
%"class.base::RefCountedThreadSafe" = type { %"class.base::subtle::RefCountedThreadSafeBase" }
%"class.gpu::GpuMemoryBufferFactory" = type opaque
%"class.base::TaskRunner" = type <{ i32 (...)**, %"class.base::RefCountedThreadSafe", [4 x i8] }>
%"class.media::AudioDecoder" = type { %"class.media::Decoder" }
%"class.media::Decoder" = type { i32 (...)** }
%"class.base::flat_map" = type { %"class.base::internal::flat_tree" }
%"class.base::internal::flat_tree" = type { %"class.std::__1::vector.55" }
%"class.std::__1::vector.55" = type { %"class.std::__1::__vector_base.56" }
%"class.std::__1::__vector_base.56" = type { %"struct.std::__1::pair"*, %"struct.std::__1::pair"*, %"class.std::__1::__compressed_pair.57" }
%"struct.std::__1::pair" = type { i32, %"class.std::__1::vector.45" }
%"class.std::__1::__compressed_pair.57" = type { %"struct.std::__1::__compressed_pair_elem.58" }
%"struct.std::__1::__compressed_pair_elem.58" = type { %"struct.std::__1::pair"* }
%"struct.media::VideoDecodeAccelerator::Capabilities" = type <{ %"class.std::__1::vector.62", i32, [4 x i8] }>
%"class.std::__1::vector.62" = type { %"class.std::__1::__vector_base.63" }
%"class.std::__1::__vector_base.63" = type { %"struct.media::VideoDecodeAccelerator::SupportedProfile"*, %"struct.media::VideoDecodeAccelerator::SupportedProfile"*, %"class.std::__1::__compressed_pair.64" }
%"struct.media::VideoDecodeAccelerator::SupportedProfile" = type <{ i32, %"class.gfx::Size", %"class.gfx::Size", i8, [3 x i8] }>
%"class.std::__1::__compressed_pair.64" = type { %"struct.std::__1::__compressed_pair_elem.65" }
%"struct.std::__1::__compressed_pair_elem.65" = type { %"struct.media::VideoDecodeAccelerator::SupportedProfile"* }
%"struct.gpu::VideoDecodeAcceleratorCapabilities" = type <{ %"class.std::__1::vector.69", i32, [4 x i8] }>
%"class.std::__1::vector.69" = type { %"class.std::__1::__vector_base.70" }
%"class.std::__1::__vector_base.70" = type { %"struct.gpu::VideoDecodeAcceleratorSupportedProfile"*, %"struct.gpu::VideoDecodeAcceleratorSupportedProfile"*, %"class.std::__1::__compressed_pair.71" }
%"struct.gpu::VideoDecodeAcceleratorSupportedProfile" = type <{ i32, %"class.gfx::Size", %"class.gfx::Size", i8, [3 x i8] }>
%"class.std::__1::__compressed_pair.71" = type { %"struct.std::__1::__compressed_pair_elem.72" }
%"struct.std::__1::__compressed_pair_elem.72" = type { %"struct.gpu::VideoDecodeAcceleratorSupportedProfile"* }
%"class.std::__1::__vector_base_common" = type { i8 }
%"class.media::VideoDecoder" = type { %"class.media::Decoder" }
%"class.media::MediaLog" = type { i32 (...)**, %class.scoped_refptr.83 }
%class.scoped_refptr.83 = type { %"struct.media::MediaLog::ParentLogRecord"* }
%"struct.media::MediaLog::ParentLogRecord" = type { i32 (...)**, %"class.base::RefCountedThreadSafe.84", i32, %"class.base::Lock", %"class.media::MediaLog"* }
%"class.base::RefCountedThreadSafe.84" = type { %"class.base::subtle::RefCountedThreadSafeBase" }
%"class.base::Lock" = type { %"class.base::internal::LockImpl" }
%"class.base::internal::LockImpl" = type { %union.pthread_mutex_t }
%union.pthread_mutex_t = type { %struct.__pthread_mutex_s }
%struct.__pthread_mutex_s = type { i32, i32, i32, i32, i32, i16, i16, %struct.__pthread_internal_list }
%struct.__pthread_internal_list = type { %struct.__pthread_internal_list*, %struct.__pthread_internal_list* }
%"class.mojo::StructPtr" = type { %"class.std::__1::unique_ptr.85" }
%"class.std::__1::unique_ptr.85" = type { %"class.std::__1::__compressed_pair.86" }
%"class.std::__1::__compressed_pair.86" = type { %"struct.std::__1::__compressed_pair_elem.87" }
%"struct.std::__1::__compressed_pair_elem.87" = type { %"class.media::mojom::CommandBufferId"* }
%"class.media::mojom::CommandBufferId" = type <{ %"class.base::UnguessableToken", i32, [4 x i8] }>
%"class.base::UnguessableToken" = type { %"class.base::Token" }
%"class.base::Token" = type { i64, i64 }
%"class.base::RepeatingCallback.91" = type { %"class.base::internal::CallbackBaseCopyable" }
%"class.gfx::ColorSpace" = type { i8, i8, i8, i8, [9 x float], [7 x float] }
%"class.base::RepeatingCallback.200" = type { %"class.base::internal::CallbackBaseCopyable" }
%"class.gpu::CommandBufferStub" = type <{ %"class.IPC::Listener", %"class.IPC::Sender", %"class.gpu::CommandBufferServiceClient", %"class.gpu::DecoderClient", %"class.base::SupportsWeakPtr", %"class.gpu::GpuChannel"*, i32, [4 x i8], %"class.gpu::ContextUrl", i8, [3 x i8], i32, i8, [7 x i8], %"class.std::__1::unique_ptr.469", %"class.std::__1::unique_ptr.489", %class.scoped_refptr.495, %class.scoped_refptr.422, %class.scoped_refptr.400, %"class.util::IdType", %"class.util::IdType.420", i32, i32, [4 x i8], %"class.std::__1::unique_ptr.498", i32, [4 x i8], %"class.base::ObserverList", %"class.base::TimeTicks", i32, [4 x i8], %"class.base::TimeTicks", %"class.std::__1::unique_ptr.511", %"class.std::__1::unique_ptr.511", i32, [4 x i8] }>
%"class.IPC::Listener" = type { i32 (...)** }
%"class.IPC::Sender" = type { i32 (...)** }
%"class.gpu::CommandBufferServiceClient" = type { i32 (...)** }
%"class.gpu::DecoderClient" = type { i32 (...)** }
%"class.base::SupportsWeakPtr" = type { %"class.base::internal::WeakReferenceOwner" }
%"class.base::internal::WeakReferenceOwner" = type { %class.scoped_refptr.119 }
%class.scoped_refptr.119 = type { %"class.base::internal::WeakReference::Flag"* }
%"class.gpu::GpuChannel" = type { %"class.IPC::Listener", %"class.IPC::Sender", %"class.std::__1::unique_ptr.201", %"class.IPC::Sender"*, i32, %class.scoped_refptr.308, %"class.base::flat_map.309", %"class.base::flat_map.319", %"class.gpu::GpuChannelManager"*, %"class.gpu::Scheduler"*, %"class.gpu::SyncPointManager"*, %"class.IPC::Listener"*, %"class.IPC::MessageRouter", i32, i64, %class.scoped_refptr, %class.scoped_refptr, %class.scoped_refptr.400, %"class.std::__1::unique_ptr.411", %"class.std::__1::unique_ptr.417", i8, %"class.base::WeakPtrFactory.462" }
%"class.std::__1::unique_ptr.201" = type { %"class.std::__1::__compressed_pair.202" }
%"class.std::__1::__compressed_pair.202" = type { %"struct.std::__1::__compressed_pair_elem.203" }
%"struct.std::__1::__compressed_pair_elem.203" = type { %"class.IPC::SyncChannel"* }
%"class.IPC::SyncChannel" = type { %"class.IPC::ChannelProxy.base", %class.scoped_refptr.265, %"class.base::WaitableEventWatcher", %"class.base::OnceCallback.296", %"class.std::__1::vector.297" }
%"class.IPC::ChannelProxy.base" = type <{ %"class.IPC::Sender", %class.scoped_refptr.204, i8 }>
%class.scoped_refptr.204 = type { %"class.IPC::ChannelProxy::Context"* }
%"class.IPC::ChannelProxy::Context" = type { %"class.IPC::Listener", %"class.base::RefCountedThreadSafe.205", %"class.base::Lock", %"class.std::__1::map.206", %class.scoped_refptr, %"class.IPC::Listener"*, %"class.std::__1::vector.217", %class.scoped_refptr, %"class.std::__1::unique_ptr.225", i8, %class.scoped_refptr.231, %"class.base::Lock", %"class.std::__1::unique_ptr.243", %"class.std::__1::vector.217", %"class.base::Lock", i32, %"class.base::Lock", %"class.std::__1::unique_ptr.249", %"class.base::Lock", %"class.std::__1::vector.257" }
%"class.base::RefCountedThreadSafe.205" = type { %"class.base::subtle::RefCountedThreadSafeBase" }
%"class.std::__1::map.206" = type { %"class.std::__1::__tree.207" }
%"class.std::__1::__tree.207" = type { %"class.std::__1::__tree_end_node"*, %"class.std::__1::__compressed_pair.208", %"class.std::__1::__compressed_pair.212" }
%"class.std::__1::__tree_end_node" = type { %"class.std::__1::__tree_node_base"* }
%"class.std::__1::__tree_node_base" = type opaque
%"class.std::__1::__compressed_pair.208" = type { %"struct.std::__1::__compressed_pair_elem.111" }
%"struct.std::__1::__compressed_pair_elem.111" = type { %"class.std::__1::__tree_end_node" }
%"class.std::__1::__compressed_pair.212" = type { %"struct.std::__1::__compressed_pair_elem.116" }
%"struct.std::__1::__compressed_pair_elem.116" = type { i64 }
%"class.std::__1::unique_ptr.225" = type { %"class.std::__1::__compressed_pair.226" }
%"class.std::__1::__compressed_pair.226" = type { %"struct.std::__1::__compressed_pair_elem.227" }
%"struct.std::__1::__compressed_pair_elem.227" = type { %"class.IPC::Channel"* }
%"class.IPC::Channel" = type <{ %"class.IPC::Sender", i8, [7 x i8] }>
%class.scoped_refptr.231 = type { %"class.mojo::internal::MessageQuotaChecker"* }
%"class.mojo::internal::MessageQuotaChecker" = type <{ %"class.base::RefCountedThreadSafe.232", [4 x i8], %"struct.mojo::internal::MessageQuotaChecker::Configuration"*, %"class.base::TimeTicks", %"struct.std::__1::atomic.238", %"struct.std::__1::atomic.238", %"struct.std::__1::atomic.238", %"class.base::Lock", %"class.mojo::internal::MessageQuotaChecker::DecayingRateAverage", i64, i64, %"class.mojo::MessagePipeHandle", [4 x i8] }>
%"class.base::RefCountedThreadSafe.232" = type { %"class.base::subtle::RefCountedThreadSafeBase" }
%"struct.mojo::internal::MessageQuotaChecker::Configuration" = type { i8, i64, i64, i64, void (i64, i8, i64, i64, double, i64, i64, i64)* }
%"struct.std::__1::atomic.238" = type { %"struct.std::__1::__atomic_base.239" }
%"struct.std::__1::__atomic_base.239" = type { %"struct.std::__1::__atomic_base.240" }
%"struct.std::__1::__atomic_base.240" = type { %"struct.std::__1::__cxx_atomic_impl.241" }
%"struct.std::__1::__cxx_atomic_impl.241" = type { %"struct.std::__1::__cxx_atomic_base_impl.242" }
%"struct.std::__1::__cxx_atomic_base_impl.242" = type { i64 }
%"class.mojo::internal::MessageQuotaChecker::DecayingRateAverage" = type { i64, i64, double }
%"class.mojo::MessagePipeHandle" = type { %"class.mojo::Handle" }
%"class.mojo::Handle" = type { i32 }
%"class.std::__1::unique_ptr.243" = type { %"class.std::__1::__compressed_pair.244" }
%"class.std::__1::__compressed_pair.244" = type { %"struct.std::__1::__compressed_pair_elem.245" }
%"struct.std::__1::__compressed_pair_elem.245" = type { %"class.IPC::MessageFilterRouter"* }
%"class.IPC::MessageFilterRouter" = type opaque
%"class.std::__1::vector.217" = type { %"class.std::__1::__vector_base.218" }
%"class.std::__1::__vector_base.218" = type { %class.scoped_refptr.219*, %class.scoped_refptr.219*, %"class.std::__1::__compressed_pair.220" }
%class.scoped_refptr.219 = type opaque
%"class.std::__1::__compressed_pair.220" = type { %"struct.std::__1::__compressed_pair_elem.221" }
%"struct.std::__1::__compressed_pair_elem.221" = type { %class.scoped_refptr.219* }
%"class.std::__1::unique_ptr.249" = type { %"class.std::__1::__compressed_pair.250" }
%"class.std::__1::__compressed_pair.250" = type { %"struct.std::__1::__compressed_pair_elem.251" }
%"struct.std::__1::__compressed_pair_elem.251" = type { %"class.mojo::ThreadSafeForwarder"* }
%"class.mojo::ThreadSafeForwarder" = type { %"class.mojo::internal::ThreadSafeForwarderBase", %"class.IPC::mojom::ChannelProxy" }
%"class.mojo::internal::ThreadSafeForwarderBase" = type { %"class.mojo::MessageReceiverWithResponder", %class.scoped_refptr.252 }
%"class.mojo::MessageReceiverWithResponder" = type { %"class.mojo::MessageReceiver" }
%"class.mojo::MessageReceiver" = type { i32 (...)** }
%class.scoped_refptr.252 = type { %"class.mojo::ThreadSafeProxy"* }
%"class.mojo::ThreadSafeProxy" = type <{ i32 (...)**, %"class.base::RefCountedThreadSafe.253", [4 x i8] }>
%"class.base::RefCountedThreadSafe.253" = type { %"class.base::subtle::RefCountedThreadSafeBase" }
%"class.IPC::mojom::ChannelProxy" = type { %"class.IPC::mojom::Channel", %"class.mojo::MessageReceiverWithResponder"* }
%"class.IPC::mojom::Channel" = type { i32 (...)** }
%"class.std::__1::vector.257" = type { %"class.std::__1::__vector_base.258" }
%"class.std::__1::__vector_base.258" = type { %"struct.std::__1::pair.259"*, %"struct.std::__1::pair.259"*, %"class.std::__1::__compressed_pair.260" }
%"struct.std::__1::pair.259" = type opaque
%"class.std::__1::__compressed_pair.260" = type { %"struct.std::__1::__compressed_pair_elem.261" }
%"struct.std::__1::__compressed_pair_elem.261" = type { %"struct.std::__1::pair.259"* }
%class.scoped_refptr.265 = type { %"class.mojo::SyncHandleRegistry"* }
%"class.mojo::SyncHandleRegistry" = type <{ %"class.base::RefCounted", [4 x i8], %"class.mojo::WaitSet", %"class.std::__1::map.267", %"class.std::__1::map.278", i8, [7 x i8] }>
%"class.base::RefCounted" = type { %"class.base::subtle::RefCountedBase" }
%"class.base::subtle::RefCountedBase" = type { i32 }
%"class.mojo::WaitSet" = type { %class.scoped_refptr.266 }
%class.scoped_refptr.266 = type { %"class.mojo::WaitSet::State"* }
%"class.mojo::WaitSet::State" = type opaque
%"class.std::__1::map.267" = type { %"class.std::__1::__tree.268" }
%"class.std::__1::__tree.268" = type { %"class.std::__1::__tree_end_node"*, %"class.std::__1::__compressed_pair.269", %"class.std::__1::__compressed_pair.273" }
%"class.std::__1::__compressed_pair.269" = type { %"struct.std::__1::__compressed_pair_elem.111" }
%"class.std::__1::__compressed_pair.273" = type { %"struct.std::__1::__compressed_pair_elem.116" }
%"class.std::__1::map.278" = type { %"class.std::__1::__tree.279" }
%"class.std::__1::__tree.279" = type { %"class.std::__1::__tree_end_node"*, %"class.std::__1::__compressed_pair.280", %"class.std::__1::__compressed_pair.284" }
%"class.std::__1::__compressed_pair.280" = type { %"struct.std::__1::__compressed_pair_elem.111" }
%"class.std::__1::__compressed_pair.284" = type { %"struct.std::__1::__compressed_pair_elem.116" }
%"class.base::WaitableEventWatcher" = type <{ %class.scoped_refptr.289, %"class.base::AsyncWaiter"*, %class.scoped_refptr.290, %"class.base::SequenceCheckerDoNothing", [7 x i8] }>
%class.scoped_refptr.289 = type { %"class.base::Flag"* }
%"class.base::Flag" = type opaque
%"class.base::AsyncWaiter" = type opaque
%class.scoped_refptr.290 = type { %"struct.base::WaitableEvent::WaitableEventKernel"* }
%"struct.base::WaitableEvent::WaitableEventKernel" = type { %"class.base::RefCountedThreadSafe.291", %"class.base::Lock", i8, i8, %"class.std::__1::list" }
%"class.base::RefCountedThreadSafe.291" = type { %"class.base::subtle::RefCountedThreadSafeBase" }
%"class.std::__1::list" = type { %"class.std::__1::__list_imp" }
%"class.std::__1::__list_imp" = type { %"struct.std::__1::__list_node_base", %"class.std::__1::__compressed_pair.292" }
%"struct.std::__1::__list_node_base" = type { %"struct.std::__1::__list_node_base"*, %"struct.std::__1::__list_node_base"* }
%"class.std::__1::__compressed_pair.292" = type { %"struct.std::__1::__compressed_pair_elem.116" }
%"class.base::SequenceCheckerDoNothing" = type { i8 }
%"class.base::OnceCallback.296" = type { %"class.base::internal::CallbackBase" }
%"class.std::__1::vector.297" = type { %"class.std::__1::__vector_base.298" }
%"class.std::__1::__vector_base.298" = type { %class.scoped_refptr.299*, %class.scoped_refptr.299*, %"class.std::__1::__compressed_pair.300" }
%class.scoped_refptr.299 = type opaque
%"class.std::__1::__compressed_pair.300" = type { %"struct.std::__1::__compressed_pair_elem.301" }
%"struct.std::__1::__compressed_pair_elem.301" = type { %class.scoped_refptr.299* }
%class.scoped_refptr.308 = type { %"class.gpu::GpuChannelMessageFilter"* }
%"class.gpu::GpuChannelMessageFilter" = type opaque
%"class.base::flat_map.309" = type { %"class.base::internal::flat_tree.310" }
%"class.base::internal::flat_tree.310" = type { %"class.std::__1::vector.311" }
%"class.std::__1::vector.311" = type { %"class.std::__1::__vector_base.312" }
%"class.std::__1::__vector_base.312" = type { %"struct.std::__1::pair.313"*, %"struct.std::__1::pair.313"*, %"class.std::__1::__compressed_pair.314" }
%"struct.std::__1::pair.313" = type opaque
%"class.std::__1::__compressed_pair.314" = type { %"struct.std::__1::__compressed_pair_elem.315" }
%"struct.std::__1::__compressed_pair_elem.315" = type { %"struct.std::__1::pair.313"* }
%"class.base::flat_map.319" = type { %"class.base::internal::flat_tree.320" }
%"class.base::internal::flat_tree.320" = type { %"class.std::__1::vector.321" }
%"class.std::__1::vector.321" = type { %"class.std::__1::__vector_base.322" }
%"class.std::__1::__vector_base.322" = type { %"struct.std::__1::pair.323"*, %"struct.std::__1::pair.323"*, %"class.std::__1::__compressed_pair.324" }
%"struct.std::__1::pair.323" = type opaque
%"class.std::__1::__compressed_pair.324" = type { %"struct.std::__1::__compressed_pair_elem.325" }
%"struct.std::__1::__compressed_pair_elem.325" = type { %"struct.std::__1::pair.323"* }
%"class.gpu::GpuChannelManager" = type opaque
%"class.gpu::Scheduler" = type opaque
%"class.gpu::SyncPointManager" = type { %"class.base::AtomicSequenceNumber", [4 x i8], [4 x %"class.std::__1::unordered_map"], %"class.std::__1::unordered_map.348", %"class.util::IdType<gpu::SyncPointOrderData, unsigned int, 0, 1>::Generator", %"class.base::Lock" }
%"class.base::AtomicSequenceNumber" = type { %"struct.std::__1::atomic" }
%"class.std::__1::unordered_map" = type { %"class.std::__1::__hash_table" }
%"class.std::__1::__hash_table" = type <{ %"class.std::__1::unique_ptr.329", %"class.std::__1::__compressed_pair.337", %"class.std::__1::__compressed_pair.342", %"class.std::__1::__compressed_pair.344", [4 x i8] }>
%"class.std::__1::unique_ptr.329" = type { %"class.std::__1::__compressed_pair.330" }
%"class.std::__1::__compressed_pair.330" = type { %"struct.std::__1::__compressed_pair_elem.331", %"struct.std::__1::__compressed_pair_elem.332" }
%"struct.std::__1::__compressed_pair_elem.331" = type { %"struct.std::__1::__hash_node_base"** }
%"struct.std::__1::__hash_node_base" = type { %"struct.std::__1::__hash_node_base"* }
%"struct.std::__1::__compressed_pair_elem.332" = type { %"class.std::__1::__bucket_list_deallocator" }
%"class.std::__1::__bucket_list_deallocator" = type { %"class.std::__1::__compressed_pair.333" }
%"class.std::__1::__compressed_pair.333" = type { %"struct.std::__1::__compressed_pair_elem.116" }
%"class.std::__1::__compressed_pair.337" = type { %"struct.std::__1::__compressed_pair_elem.338" }
%"struct.std::__1::__compressed_pair_elem.338" = type { %"struct.std::__1::__hash_node_base" }
%"class.std::__1::__compressed_pair.342" = type { %"struct.std::__1::__compressed_pair_elem.116" }
%"class.std::__1::__compressed_pair.344" = type { %"struct.std::__1::__compressed_pair_elem.345" }
%"struct.std::__1::__compressed_pair_elem.345" = type { float }
%"class.std::__1::unordered_map.348" = type { %"class.std::__1::__hash_table.349" }
%"class.std::__1::__hash_table.349" = type <{ %"class.std::__1::unique_ptr.350", %"class.std::__1::__compressed_pair.360", %"class.std::__1::__compressed_pair.365", %"class.std::__1::__compressed_pair.368", [4 x i8] }>
%"class.std::__1::unique_ptr.350" = type { %"class.std::__1::__compressed_pair.351" }
%"class.std::__1::__compressed_pair.351" = type { %"struct.std::__1::__compressed_pair_elem.352", %"struct.std::__1::__compressed_pair_elem.354" }
%"struct.std::__1::__compressed_pair_elem.352" = type { %"struct.std::__1::__hash_node_base.353"** }
%"struct.std::__1::__hash_node_base.353" = type { %"struct.std::__1::__hash_node_base.353"* }
%"struct.std::__1::__compressed_pair_elem.354" = type { %"class.std::__1::__bucket_list_deallocator.355" }
%"class.std::__1::__bucket_list_deallocator.355" = type { %"class.std::__1::__compressed_pair.356" }
%"class.std::__1::__compressed_pair.356" = type { %"struct.std::__1::__compressed_pair_elem.116" }
%"class.std::__1::__compressed_pair.360" = type { %"struct.std::__1::__compressed_pair_elem.361" }
%"struct.std::__1::__compressed_pair_elem.361" = type { %"struct.std::__1::__hash_node_base.353" }
%"class.std::__1::__compressed_pair.365" = type { %"struct.std::__1::__compressed_pair_elem.116" }
%"class.std::__1::__compressed_pair.368" = type { %"struct.std::__1::__compressed_pair_elem.345" }
%"class.util::IdType<gpu::SyncPointOrderData, unsigned int, 0, 1>::Generator" = type { i32 }
%"class.IPC::MessageRouter" = type { %"class.IPC::Listener", %"class.IPC::Sender", %"class.base::IDMap" }
%"class.base::IDMap" = type <{ i32, [4 x i8], %"class.base::internal::flat_tree.374", i32, [4 x i8], %"class.std::__1::unordered_map.375", i8, [7 x i8] }>
%"class.base::internal::flat_tree.374" = type { %"class.std::__1::vector.13" }
%"class.std::__1::unordered_map.375" = type { %"class.std::__1::__hash_table.376" }
%"class.std::__1::__hash_table.376" = type <{ %"class.std::__1::unique_ptr.377", %"class.std::__1::__compressed_pair.387", %"class.std::__1::__compressed_pair.392", %"class.std::__1::__compressed_pair.395", [4 x i8] }>
%"class.std::__1::unique_ptr.377" = type { %"class.std::__1::__compressed_pair.378" }
%"class.std::__1::__compressed_pair.378" = type { %"struct.std::__1::__compressed_pair_elem.379", %"struct.std::__1::__compressed_pair_elem.381" }
%"struct.std::__1::__compressed_pair_elem.379" = type { %"struct.std::__1::__hash_node_base.380"** }
%"struct.std::__1::__hash_node_base.380" = type { %"struct.std::__1::__hash_node_base.380"* }
%"struct.std::__1::__compressed_pair_elem.381" = type { %"class.std::__1::__bucket_list_deallocator.382" }
%"class.std::__1::__bucket_list_deallocator.382" = type { %"class.std::__1::__compressed_pair.383" }
%"class.std::__1::__compressed_pair.383" = type { %"struct.std::__1::__compressed_pair_elem.116" }
%"class.std::__1::__compressed_pair.387" = type { %"struct.std::__1::__compressed_pair_elem.388" }
%"struct.std::__1::__compressed_pair_elem.388" = type { %"struct.std::__1::__hash_node_base.380" }
%"class.std::__1::__compressed_pair.392" = type { %"struct.std::__1::__compressed_pair_elem.116" }
%"class.std::__1::__compressed_pair.395" = type { %"struct.std::__1::__compressed_pair_elem.345" }
%"class.std::__1::unique_ptr.411" = type { %"class.std::__1::__compressed_pair.412" }
%"class.std::__1::__compressed_pair.412" = type { %"struct.std::__1::__compressed_pair_elem.413" }
%"struct.std::__1::__compressed_pair_elem.413" = type { %"class.gpu::gles2::ImageManager"* }
%"class.gpu::gles2::ImageManager" = type opaque
%"class.std::__1::unique_ptr.417" = type { %"class.std::__1::__compressed_pair.418" }
%"class.std::__1::__compressed_pair.418" = type { %"struct.std::__1::__compressed_pair_elem.419" }
%"struct.std::__1::__compressed_pair_elem.419" = type { %"class.gpu::SharedImageStub"* }
%"class.gpu::SharedImageStub" = type { %"class.IPC::Listener", %"class.gpu::MemoryTracker", %"class.base::trace_event::MemoryDumpProvider", %"class.gpu::GpuChannel"*, %"class.util::IdType", %"class.util::IdType.420", %class.scoped_refptr.422, %class.scoped_refptr.451, %"class.std::__1::unique_ptr.452", i64, %"class.base::ReadOnlySharedMemoryRegion", %"class.base::ReadOnlySharedMemoryMapping", %"class.base::WeakPtrFactory.458" }
%"class.gpu::MemoryTracker" = type { i32 (...)** }
%"class.base::trace_event::MemoryDumpProvider" = type { i32 (...)** }
%class.scoped_refptr.451 = type { %"class.gpu::SharedContextState"* }
%"class.gpu::SharedContextState" = type opaque
%"class.std::__1::unique_ptr.452" = type { %"class.std::__1::__compressed_pair.453" }
%"class.std::__1::__compressed_pair.453" = type { %"struct.std::__1::__compressed_pair_elem.454" }
%"struct.std::__1::__compressed_pair_elem.454" = type { %"class.gpu::SharedImageFactory"* }
%"class.gpu::SharedImageFactory" = type opaque
%"class.base::ReadOnlySharedMemoryRegion" = type { %"class.base::subtle::PlatformSharedMemoryRegion" }
%"class.base::subtle::PlatformSharedMemoryRegion" = type { %"struct.base::subtle::ScopedFDPair", i32, i64, %"class.base::UnguessableToken" }
%"struct.base::subtle::ScopedFDPair" = type { %"class.base::ScopedGeneric", %"class.base::ScopedGeneric" }
%"class.base::ScopedGeneric" = type <{ i32 (...)**, %"struct.base::ScopedGeneric<int, base::internal::ScopedFDCloseTraits>::Data", i8, [3 x i8] }>
%"struct.base::ScopedGeneric<int, base::internal::ScopedFDCloseTraits>::Data" = type { i32 }
%"class.base::ReadOnlySharedMemoryMapping" = type { %"class.base::SharedMemoryMapping" }
%"class.base::SharedMemoryMapping" = type { i32 (...)**, i8*, i64, i64, %"class.base::UnguessableToken" }
%"class.base::WeakPtrFactory.458" = type { %"class.base::internal::WeakPtrFactoryBase" }
%"class.base::internal::WeakPtrFactoryBase" = type { %"class.base::internal::WeakReferenceOwner", i64 }
%"class.base::WeakPtrFactory.462" = type { %"class.base::internal::WeakPtrFactoryBase" }
%"class.gpu::ContextUrl" = type { %class.GURL, i64 }
%class.GURL = type { %"class.std::__1::basic_string", i8, %"struct.url::Parsed", %"class.std::__1::unique_ptr.463" }
%"struct.url::Parsed" = type { %"struct.url::Component", %"struct.url::Component", %"struct.url::Component", %"struct.url::Component", %"struct.url::Component", %"struct.url::Component", %"struct.url::Component", %"struct.url::Component", i8, %"struct.url::Parsed"* }
%"struct.url::Component" = type { i32, i32 }
%"class.std::__1::unique_ptr.463" = type { %"class.std::__1::__compressed_pair.464" }
%"class.std::__1::__compressed_pair.464" = type { %"struct.std::__1::__compressed_pair_elem.465" }
%"struct.std::__1::__compressed_pair_elem.465" = type { %class.GURL* }
%"class.std::__1::unique_ptr.469" = type { %"class.std::__1::__compressed_pair.470" }
%"class.std::__1::__compressed_pair.470" = type { %"struct.std::__1::__compressed_pair_elem.471" }
%"struct.std::__1::__compressed_pair_elem.471" = type { %"class.gpu::CommandBufferService"* }
%"class.gpu::CommandBufferService" = type <{ %"class.gpu::CommandBufferServiceBase", %"class.gpu::CommandBufferServiceClient"*, %"class.std::__1::unique_ptr.472", %"struct.gpu::CommandBuffer::State", i32, i32, %class.scoped_refptr.478, %"union.gpu::CommandBufferEntry"*, %"class.std::__1::unique_ptr.480", %"class.gpu::SharedState"*, i8, i8, [6 x i8] }>
%"class.gpu::CommandBufferServiceBase" = type { i32 (...)** }
%"class.std::__1::unique_ptr.472" = type { %"class.std::__1::__compressed_pair.473" }
%"class.std::__1::__compressed_pair.473" = type { %"struct.std::__1::__compressed_pair_elem.474" }
%"struct.std::__1::__compressed_pair_elem.474" = type { %"class.gpu::TransferBufferManager"* }
%"class.gpu::TransferBufferManager" = type opaque
%"struct.gpu::CommandBuffer::State" = type { i32, i32, i64, i32, i32, i32, i32 }
%class.scoped_refptr.478 = type { %"class.gpu::Buffer"* }
%"class.gpu::Buffer" = type <{ %"class.base::RefCountedThreadSafe.479", [4 x i8], %"class.std::__1::unique_ptr.480", i8*, i32, [4 x i8] }>
%"class.base::RefCountedThreadSafe.479" = type { %"class.base::subtle::RefCountedThreadSafeBase" }
%"union.gpu::CommandBufferEntry" = type { %"struct.gpu::CommandHeader" }
%"struct.gpu::CommandHeader" = type { i32 }
%"class.std::__1::unique_ptr.480" = type { %"class.std::__1::__compressed_pair.481" }
%"class.std::__1::__compressed_pair.481" = type { %"struct.std::__1::__compressed_pair_elem.482" }
%"struct.std::__1::__compressed_pair_elem.482" = type { %"class.gpu::BufferBacking"* }
%"class.gpu::BufferBacking" = type { i32 (...)** }
%"class.gpu::SharedState" = type opaque
%"class.std::__1::unique_ptr.489" = type { %"class.std::__1::__compressed_pair.490" }
%"class.std::__1::__compressed_pair.490" = type { %"struct.std::__1::__compressed_pair_elem.491" }
%"struct.std::__1::__compressed_pair_elem.491" = type { %"class.gpu::MemoryTracker"* }
%class.scoped_refptr.495 = type { %"class.gl::GLSurface"* }
%"class.gl::GLSurface" = type { i32 (...)**, %"class.base::RefCounted.496", %"class.base::SupportsWeakPtr.497" }
%"class.base::RefCounted.496" = type { %"class.base::subtle::RefCountedBase" }
%"class.base::SupportsWeakPtr.497" = type { %"class.base::internal::WeakReferenceOwner" }
%class.scoped_refptr.422 = type { %"class.gpu::SyncPointClientState"* }
%"class.gpu::SyncPointClientState" = type { %"class.base::RefCountedThreadSafe.423", %"class.gpu::SyncPointManager"*, %class.scoped_refptr.424, i8, %"class.util::IdType", %"class.base::Lock", i64, %"class.std::__1::priority_queue.440" }
%"class.base::RefCountedThreadSafe.423" = type { %"class.base::subtle::RefCountedThreadSafeBase" }
%class.scoped_refptr.424 = type { %"class.gpu::SyncPointOrderData"* }
%"class.gpu::SyncPointOrderData" = type { %"class.base::RefCountedThreadSafe.425", %"class.gpu::SyncPointManager"*, %"class.util::IdType.420", i64, %"class.base::ThreadChecker", i32, i8, %"class.base::Lock", i8, i32, i32, %"class.std::__1::queue", %"class.std::__1::priority_queue" }
%"class.base::RefCountedThreadSafe.425" = type { %"class.base::subtle::RefCountedThreadSafeBase" }
%"class.base::ThreadChecker" = type { i8 }
%"class.std::__1::queue" = type { %"class.std::__1::deque" }
%"class.std::__1::deque" = type { %"class.std::__1::__deque_base" }
%"class.std::__1::__deque_base" = type { %"struct.std::__1::__split_buffer", i64, %"class.std::__1::__compressed_pair.431" }
%"struct.std::__1::__split_buffer" = type { i32**, i32**, i32**, %"class.std::__1::__compressed_pair.426" }
%"class.std::__1::__compressed_pair.426" = type { %"struct.std::__1::__compressed_pair_elem.427" }
%"struct.std::__1::__compressed_pair_elem.427" = type { i32** }
%"class.std::__1::__compressed_pair.431" = type { %"struct.std::__1::__compressed_pair_elem.116" }
%"class.std::__1::priority_queue" = type <{ %"class.std::__1::vector.432", %"struct.std::__1::greater", [7 x i8] }>
%"class.std::__1::vector.432" = type { %"class.std::__1::__vector_base.433" }
%"class.std::__1::__vector_base.433" = type { %"struct.gpu::SyncPointOrderData::OrderFence"*, %"struct.gpu::SyncPointOrderData::OrderFence"*, %"class.std::__1::__compressed_pair.434" }
%"struct.gpu::SyncPointOrderData::OrderFence" = type { i32, i64, %class.scoped_refptr.422, i64 }
%"class.std::__1::__compressed_pair.434" = type { %"struct.std::__1::__compressed_pair_elem.435" }
%"struct.std::__1::__compressed_pair_elem.435" = type { %"struct.gpu::SyncPointOrderData::OrderFence"* }
%"struct.std::__1::greater" = type { i8 }
%"class.std::__1::priority_queue.440" = type <{ %"class.std::__1::vector.441", %"struct.std::__1::greater.448", [7 x i8] }>
%"class.std::__1::vector.441" = type { %"class.std::__1::__vector_base.442" }
%"class.std::__1::__vector_base.442" = type { %"struct.gpu::SyncPointClientState::ReleaseCallback"*, %"struct.gpu::SyncPointClientState::ReleaseCallback"*, %"class.std::__1::__compressed_pair.443" }
%"struct.gpu::SyncPointClientState::ReleaseCallback" = type { i64, %"class.base::OnceCallback", i64 }
%"class.base::OnceCallback" = type { %"class.base::internal::CallbackBase" }
%"class.std::__1::__compressed_pair.443" = type { %"struct.std::__1::__compressed_pair_elem.444" }
%"struct.std::__1::__compressed_pair_elem.444" = type { %"struct.gpu::SyncPointClientState::ReleaseCallback"* }
%"struct.std::__1::greater.448" = type { i8 }
%class.scoped_refptr.400 = type { %"class.gl::GLShareGroup"* }
%"class.gl::GLShareGroup" = type { %"class.base::RefCounted.401", %"class.std::__1::set", %"class.gl::GLContext"* }
%"class.base::RefCounted.401" = type { %"class.base::subtle::RefCountedBase" }
%"class.std::__1::set" = type { %"class.std::__1::__tree.402" }
%"class.std::__1::__tree.402" = type { %"class.std::__1::__tree_end_node"*, %"class.std::__1::__compressed_pair.403", %"class.std::__1::__compressed_pair.407" }
%"class.std::__1::__compressed_pair.403" = type { %"struct.std::__1::__compressed_pair_elem.111" }
%"class.std::__1::__compressed_pair.407" = type { %"struct.std::__1::__compressed_pair_elem.116" }
%"class.gl::GLContext" = type opaque
%"class.util::IdType" = type { %"class.base::StrongAlias" }
%"class.base::StrongAlias" = type { i64 }
%"class.util::IdType.420" = type { %"class.base::StrongAlias.421" }
%"class.base::StrongAlias.421" = type { i32 }
%"class.std::__1::unique_ptr.498" = type { %"class.std::__1::__compressed_pair.499" }
%"class.std::__1::__compressed_pair.499" = type { %"struct.std::__1::__compressed_pair_elem.500" }
%"struct.std::__1::__compressed_pair_elem.500" = type { %"class.gpu::DecoderContext"* }
%"class.gpu::DecoderContext" = type { %"class.gpu::AsyncAPIInterface", %"class.gpu::GLContextVirtualDelegate" }
%"class.gpu::AsyncAPIInterface" = type { i32 (...)** }
%"class.gpu::GLContextVirtualDelegate" = type { i32 (...)** }
%"class.base::ObserverList" = type <{ %"class.std::__1::vector.504", %"class.base::LinkedList", i64, i32, [4 x i8] }>
%"class.std::__1::vector.504" = type { %"class.std::__1::__vector_base.505" }
%"class.std::__1::__vector_base.505" = type { %"class.base::internal::UncheckedObserverAdapter"*, %"class.base::internal::UncheckedObserverAdapter"*, %"class.std::__1::__compressed_pair.506" }
%"class.base::internal::UncheckedObserverAdapter" = type { i8* }
%"class.std::__1::__compressed_pair.506" = type { %"struct.std::__1::__compressed_pair_elem.507" }
%"struct.std::__1::__compressed_pair_elem.507" = type { %"class.base::internal::UncheckedObserverAdapter"* }
%"class.base::LinkedList" = type { %"class.base::LinkNode" }
%"class.base::LinkNode" = type { %"class.base::internal::LinkNodeBase" }
%"class.base::internal::LinkNodeBase" = type { %"class.base::internal::LinkNodeBase"*, %"class.base::internal::LinkNodeBase"* }
%"class.base::TimeTicks" = type { %"class.base::time_internal::TimeBase" }
%"class.base::time_internal::TimeBase" = type { i64 }
%"class.std::__1::unique_ptr.511" = type { %"class.std::__1::__compressed_pair.512" }
%"class.std::__1::__compressed_pair.512" = type { %"struct.std::__1::__compressed_pair_elem.513" }
%"struct.std::__1::__compressed_pair_elem.513" = type { %"struct.gpu::WaitForCommandState"* }
%"struct.gpu::WaitForCommandState" = type opaque
%"class.logging::CheckError" = type { %"class.logging::LogMessage"* }
%"class.logging::LogMessage" = type { i32 (...)**, i32, %"class.std::__1::basic_ostringstream", i64, i8*, i32, %"class.base::ScopedClearLastErrorBase" }
%"class.std::__1::basic_ostringstream" = type { %"class.std::__1::basic_ostream.base", %"class.std::__1::basic_stringbuf", %"class.std::__1::basic_ios.base" }
%"class.std::__1::basic_ostream.base" = type { i32 (...)** }
%"class.std::__1::basic_stringbuf" = type <{ %"class.std::__1::basic_streambuf", %"class.std::__1::basic_string", i8*, i32, [4 x i8] }>
%"class.std::__1::basic_streambuf" = type { i32 (...)**, %"class.std::__1::locale", i8*, i8*, i8*, i8*, i8*, i8* }
%"class.std::__1::locale" = type { %"class.std::__1::locale::__imp"* }
%"class.std::__1::locale::__imp" = type opaque
%"class.std::__1::basic_ios.base" = type <{ %"class.std::__1::ios_base", %"class.std::__1::basic_ostream"*, i32 }>
%"class.std::__1::ios_base" = type { i32 (...)**, i32, i64, i64, i32, i32, i8*, i8*, void (i32, %"class.std::__1::ios_base"*, i32)**, i32*, i64, i64, i64*, i64, i64, i8**, i64, i64 }
%"class.std::__1::basic_ostream" = type { i32 (...)**, %"class.std::__1::basic_ios.base" }
%"class.base::ScopedClearLastErrorBase" = type { i32 }
%"class.media::MediaGpuChannelManager" = type { %"class.base::SupportsWeakPtr.536", %"class.gpu::GpuChannelManager"*, %"class.std::__1::unordered_map.537", %"class.std::__1::map.561", %"class.std::__1::map.572", %"class.base::RepeatingCallback" }
%"class.base::SupportsWeakPtr.536" = type { %"class.base::internal::WeakReferenceOwner" }
%"class.std::__1::unordered_map.537" = type { %"class.std::__1::__hash_table.538" }
%"class.std::__1::__hash_table.538" = type <{ %"class.std::__1::unique_ptr.539", %"class.std::__1::__compressed_pair.549", %"class.std::__1::__compressed_pair.554", %"class.std::__1::__compressed_pair.557", [4 x i8] }>
%"class.std::__1::unique_ptr.539" = type { %"class.std::__1::__compressed_pair.540" }
%"class.std::__1::__compressed_pair.540" = type { %"struct.std::__1::__compressed_pair_elem.541", %"struct.std::__1::__compressed_pair_elem.543" }
%"struct.std::__1::__compressed_pair_elem.541" = type { %"struct.std::__1::__hash_node_base.542"** }
%"struct.std::__1::__hash_node_base.542" = type { %"struct.std::__1::__hash_node_base.542"* }
%"struct.std::__1::__compressed_pair_elem.543" = type { %"class.std::__1::__bucket_list_deallocator.544" }
%"class.std::__1::__bucket_list_deallocator.544" = type { %"class.std::__1::__compressed_pair.545" }
%"class.std::__1::__compressed_pair.545" = type { %"struct.std::__1::__compressed_pair_elem.116" }
%"class.std::__1::__compressed_pair.549" = type { %"struct.std::__1::__compressed_pair_elem.550" }
%"struct.std::__1::__compressed_pair_elem.550" = type { %"struct.std::__1::__hash_node_base.542" }
%"class.std::__1::__compressed_pair.554" = type { %"struct.std::__1::__compressed_pair_elem.116" }
%"class.std::__1::__compressed_pair.557" = type { %"struct.std::__1::__compressed_pair_elem.345" }
%"class.std::__1::map.561" = type { %"class.std::__1::__tree.562" }
%"class.std::__1::__tree.562" = type { %"class.std::__1::__tree_end_node"*, %"class.std::__1::__compressed_pair.563", %"class.std::__1::__compressed_pair.567" }
%"class.std::__1::__compressed_pair.563" = type { %"struct.std::__1::__compressed_pair_elem.111" }
%"class.std::__1::__compressed_pair.567" = type { %"struct.std::__1::__compressed_pair_elem.116" }
%"class.std::__1::map.572" = type { %"class.std::__1::__tree.573" }
%"class.std::__1::__tree.573" = type { %"class.std::__1::__tree_end_node"*, %"class.std::__1::__compressed_pair.574", %"class.std::__1::__compressed_pair.578" }
%"class.std::__1::__compressed_pair.574" = type { %"struct.std::__1::__compressed_pair_elem.111" }
%"class.std::__1::__compressed_pair.578" = type { %"struct.std::__1::__compressed_pair_elem.116" }
%"class.gpu::gles2::ContextGroup" = type { %"class.base::RefCounted.581", [4 x i8], %"struct.gpu::GpuPreferences", %"class.gpu::MailboxManager"*, %"class.std::__1::unique_ptr.489", %"class.gpu::gles2::ShaderTranslatorCache"*, %"class.gpu::gles2::FramebufferCompletenessCache"*, i8, i8, i32, i32, i32, i32, i32, i32, i32, i32, i32, i32, i32, i32, i32, i32, i32, i32, i32, %"class.gpu::gles2::ProgramCache"*, %"class.std::__1::unique_ptr.643", %"class.std::__1::unique_ptr.649", %"class.std::__1::unique_ptr.655", %"class.std::__1::unique_ptr.661", %"class.std::__1::unique_ptr.667", %"class.std::__1::unique_ptr.673", %class.scoped_refptr.679, %"class.gpu::gles2::ImageManager"*, %"class.gpu::ImageFactory"*, %"class.std::__1::vector.695", %"class.std::__1::unordered_map.703", i8, %"class.std::__1::unique_ptr.731", %"class.gpu::PassthroughDiscardableManager"*, %"class.gl::ProgressReporter"*, %"struct.gpu::GpuFeatureInfo", %"class.gpu::ServiceDiscardableManager"*, %"class.std::__1::unique_ptr.737", %"class.gpu::SharedImageManager"* }
%"class.base::RefCounted.581" = type { %"class.base::subtle::RefCountedBase" }
%"class.gpu::MailboxManager" = type opaque
%"class.gpu::gles2::ShaderTranslatorCache" = type { %"class.gpu::gles2::ShaderTranslator::DestructionObserver", %"struct.gpu::GpuPreferences", %"class.std::__1::map.582" }
%"class.gpu::gles2::ShaderTranslator::DestructionObserver" = type { i32 (...)** }
%"class.std::__1::map.582" = type { %"class.std::__1::__tree.583" }
%"class.std::__1::__tree.583" = type { %"class.std::__1::__tree_end_node"*, %"class.std::__1::__compressed_pair.584", %"class.std::__1::__compressed_pair.588" }
%"class.std::__1::__compressed_pair.584" = type { %"struct.std::__1::__compressed_pair_elem.111" }
%"class.std::__1::__compressed_pair.588" = type { %"struct.std::__1::__compressed_pair_elem.116" }
%"class.gpu::gles2::FramebufferCompletenessCache" = type { %"class.std::__1::unordered_set" }
%"class.std::__1::unordered_set" = type { %"class.std::__1::__hash_table.593" }
%"class.std::__1::__hash_table.593" = type <{ %"class.std::__1::unique_ptr.594", %"class.std::__1::__compressed_pair.604", %"class.std::__1::__compressed_pair.609", %"class.std::__1::__compressed_pair.613", [4 x i8] }>
%"class.std::__1::unique_ptr.594" = type { %"class.std::__1::__compressed_pair.595" }
%"class.std::__1::__compressed_pair.595" = type { %"struct.std::__1::__compressed_pair_elem.596", %"struct.std::__1::__compressed_pair_elem.598" }
%"struct.std::__1::__compressed_pair_elem.596" = type { %"struct.std::__1::__hash_node_base.597"** }
%"struct.std::__1::__hash_node_base.597" = type { %"struct.std::__1::__hash_node_base.597"* }
%"struct.std::__1::__compressed_pair_elem.598" = type { %"class.std::__1::__bucket_list_deallocator.599" }
%"class.std::__1::__bucket_list_deallocator.599" = type { %"class.std::__1::__compressed_pair.600" }
%"class.std::__1::__compressed_pair.600" = type { %"struct.std::__1::__compressed_pair_elem.116" }
%"class.std::__1::__compressed_pair.604" = type { %"struct.std::__1::__compressed_pair_elem.605" }
%"struct.std::__1::__compressed_pair_elem.605" = type { %"struct.std::__1::__hash_node_base.597" }
%"class.std::__1::__compressed_pair.609" = type { %"struct.std::__1::__compressed_pair_elem.116" }
%"class.std::__1::__compressed_pair.613" = type { %"struct.std::__1::__compressed_pair_elem.345" }
%"class.gpu::gles2::ProgramCache" = type { i32 (...)**, %"class.base::RepeatingCallback.618", i64, %"class.std::__1::unordered_map.619", %"class.std::__1::unordered_set" }
%"class.base::RepeatingCallback.618" = type { %"class.base::internal::CallbackBaseCopyable" }
%"class.std::__1::unordered_map.619" = type { %"class.std::__1::__hash_table.620" }
%"class.std::__1::__hash_table.620" = type <{ %"class.std::__1::unique_ptr.621", %"class.std::__1::__compressed_pair.631", %"class.std::__1::__compressed_pair.636", %"class.std::__1::__compressed_pair.639", [4 x i8] }>
%"class.std::__1::unique_ptr.621" = type { %"class.std::__1::__compressed_pair.622" }
%"class.std::__1::__compressed_pair.622" = type { %"struct.std::__1::__compressed_pair_elem.623", %"struct.std::__1::__compressed_pair_elem.625" }
%"struct.std::__1::__compressed_pair_elem.623" = type { %"struct.std::__1::__hash_node_base.624"** }
%"struct.std::__1::__hash_node_base.624" = type { %"struct.std::__1::__hash_node_base.624"* }
%"struct.std::__1::__compressed_pair_elem.625" = type { %"class.std::__1::__bucket_list_deallocator.626" }
%"class.std::__1::__bucket_list_deallocator.626" = type { %"class.std::__1::__compressed_pair.627" }
%"class.std::__1::__compressed_pair.627" = type { %"struct.std::__1::__compressed_pair_elem.116" }
%"class.std::__1::__compressed_pair.631" = type { %"struct.std::__1::__compressed_pair_elem.632" }
%"struct.std::__1::__compressed_pair_elem.632" = type { %"struct.std::__1::__hash_node_base.624" }
%"class.std::__1::__compressed_pair.636" = type { %"struct.std::__1::__compressed_pair_elem.116" }
%"class.std::__1::__compressed_pair.639" = type { %"struct.std::__1::__compressed_pair_elem.345" }
%"class.std::__1::unique_ptr.643" = type { %"class.std::__1::__compressed_pair.644" }
%"class.std::__1::__compressed_pair.644" = type { %"struct.std::__1::__compressed_pair_elem.645" }
%"struct.std::__1::__compressed_pair_elem.645" = type { %"class.gpu::gles2::BufferManager"* }
%"class.gpu::gles2::BufferManager" = type opaque
%"class.std::__1::unique_ptr.649" = type { %"class.std::__1::__compressed_pair.650" }
%"class.std::__1::__compressed_pair.650" = type { %"struct.std::__1::__compressed_pair_elem.651" }
%"struct.std::__1::__compressed_pair_elem.651" = type { %"class.gpu::gles2::RenderbufferManager"* }
%"class.gpu::gles2::RenderbufferManager" = type opaque
%"class.std::__1::unique_ptr.655" = type { %"class.std::__1::__compressed_pair.656" }
%"class.std::__1::__compressed_pair.656" = type { %"struct.std::__1::__compressed_pair_elem.657" }
%"struct.std::__1::__compressed_pair_elem.657" = type { %"class.gpu::gles2::TextureManager"* }
%"class.gpu::gles2::TextureManager" = type opaque
%"class.std::__1::unique_ptr.661" = type { %"class.std::__1::__compressed_pair.662" }
%"class.std::__1::__compressed_pair.662" = type { %"struct.std::__1::__compressed_pair_elem.663" }
%"struct.std::__1::__compressed_pair_elem.663" = type { %"class.gpu::gles2::ProgramManager"* }
%"class.gpu::gles2::ProgramManager" = type opaque
%"class.std::__1::unique_ptr.667" = type { %"class.std::__1::__compressed_pair.668" }
%"class.std::__1::__compressed_pair.668" = type { %"struct.std::__1::__compressed_pair_elem.669" }
%"struct.std::__1::__compressed_pair_elem.669" = type { %"class.gpu::gles2::ShaderManager"* }
%"class.gpu::gles2::ShaderManager" = type opaque
%"class.std::__1::unique_ptr.673" = type { %"class.std::__1::__compressed_pair.674" }
%"class.std::__1::__compressed_pair.674" = type { %"struct.std::__1::__compressed_pair_elem.675" }
%"struct.std::__1::__compressed_pair_elem.675" = type { %"class.gpu::gles2::SamplerManager"* }
%"class.gpu::gles2::SamplerManager" = type opaque
%class.scoped_refptr.679 = type { %"class.gpu::gles2::FeatureInfo"* }
%"class.gpu::gles2::FeatureInfo" = type { %"class.base::RefCounted.680", i8, [3 x i8], %"struct.gpu::gles2::Validators", %"struct.gpu::gles2::DisallowedFeatures", i32, i8, %"class.base::internal::flat_tree.681", %"struct.gpu::gles2::FeatureInfo::FeatureFlags", %"class.gpu::GpuDriverBugWorkarounds", i8, i8, i8, i8, i8, i8, %"class.std::__1::unique_ptr.689" }
%"class.base::RefCounted.680" = type { %"class.base::subtle::RefCountedBase" }
%"struct.gpu::gles2::Validators" = type <{ %"class.gpu::ValueValidator", %"class.gpu::ValueValidator", %"class.gpu::gles2::Validators::BackbufferAttachmentValidator", %"class.gpu::gles2::Validators::BlitFilterValidator", %"class.gpu::gles2::Validators::BufferModeValidator", %"class.gpu::gles2::Validators::BufferParameterValidator", %"class.gpu::gles2::Validators::BufferParameter64Validator", %"class.gpu::gles2::Validators::BufferTargetValidator", %"class.gpu::gles2::Validators::BufferUsageValidator", i8, %"class.gpu::ValueValidator", %"class.gpu::gles2::Validators::BufferfvValidator", %"class.gpu::gles2::Validators::BufferivValidator", [6 x i8], %"class.gpu::ValueValidator", %"class.gpu::ValueValidator", %"class.gpu::gles2::Validators::CmpFunctionValidator", [7 x i8], %"class.gpu::ValueValidator", %"class.gpu::ValueValidator", %"class.gpu::gles2::Validators::DrawModeValidator", [7 x i8], %"class.gpu::ValueValidator", %"class.gpu::ValueValidator", %"class.gpu::gles2::Validators::FaceModeValidator", %"class.gpu::gles2::Validators::FaceTypeValidator", [6 x i8], %"class.gpu::ValueValidator", %"class.gpu::ValueValidator", %"class.gpu::ValueValidator", %"class.gpu::ValueValidator", %"class.gpu::gles2::Validators::GetMaxIndexTypeValidator", [7 x i8], %"class.gpu::ValueValidator", %"class.gpu::gles2::Validators::HintModeValidator", [7 x i8], %"class.gpu::ValueValidator", %"class.gpu::ValueValidator", %"class.gpu::ValueValidator", %"class.gpu::gles2::Validators::IndexedBufferTargetValidator", [7 x i8], %"class.gpu::ValueValidator", %"class.gpu::gles2::Validators::InternalFormatParameterValidator", %"class.gpu::gles2::Validators::MapBufferAccessValidator", [6 x i8], %"class.gpu::ValueValidator", %"class.gpu::gles2::Validators::PixelStoreAlignmentValidator", [7 x i8], %"class.gpu::ValueValidator", %"class.gpu::ValueValidator", %"class.gpu::gles2::Validators::QueryObjectParameterValidator", %"class.gpu::gles2::Validators::QueryTargetValidator", [6 x i8], %"class.gpu::ValueValidator", %"class.gpu::ValueValidator", %"class.gpu::ValueValidator", %"class.gpu::ValueValidator", %"class.gpu::ValueValidator", %"class.gpu::ValueValidator", %"class.gpu::gles2::Validators::ResetStatusValidator", [7 x i8], %"class.gpu::ValueValidator", %"class.gpu::ValueValidator", %"class.gpu::ValueValidator", %"class.gpu::gles2::Validators::ShaderPrecisionValidator", %"class.gpu::gles2::Validators::ShaderTypeValidator", %"class.gpu::gles2::Validators::SharedImageAccessModeValidator", [5 x i8], %"class.gpu::ValueValidator", %"class.gpu::gles2::Validators::StencilOpValidator", %"class.gpu::gles2::Validators::StringTypeValidator", %"class.gpu::gles2::Validators::SwapBuffersFlagsValidator", [5 x i8], %"class.gpu::ValueValidator", %"class.gpu::gles2::Validators::SyncParameterValidator", %"class.gpu::gles2::Validators::Texture3DTargetValidator", [6 x i8], %"class.gpu::ValueValidator", %"class.gpu::gles2::Validators::TextureCompareFuncValidator", [7 x i8], %"class.gpu::ValueValidator", %"class.gpu::ValueValidator", %"class.gpu::ValueValidator", %"class.gpu::ValueValidator", %"class.gpu::ValueValidator", %"class.gpu::ValueValidator", %"class.gpu::gles2::Validators::TextureMagFilterModeValidator", %"class.gpu::gles2::Validators::TextureMinFilterModeValidator", [6 x i8], %"class.gpu::ValueValidator", %"class.gpu::ValueValidator", %"class.gpu::ValueValidator", %"class.gpu::gles2::Validators::TextureSrgbDecodeExtValidator", [7 x i8], %"class.gpu::ValueValidator", %"class.gpu::gles2::Validators::TextureSwizzleValidator", [7 x i8], %"class.gpu::ValueValidator", %"class.gpu::ValueValidator", %"class.gpu::gles2::Validators::TextureUsageValidator", %"class.gpu::gles2::Validators::TextureWrapModeValidator", [6 x i8], %"class.gpu::ValueValidator", %"class.gpu::gles2::Validators::TransformFeedbackPrimitiveModeValidator", %"class.gpu::gles2::Validators::UniformBlockParameterValidator", %"class.gpu::gles2::Validators::UniformParameterValidator", %"class.gpu::gles2::Validators::VertexAttribITypeValidator", [4 x i8], %"class.gpu::ValueValidator", %"class.gpu::ValueValidator", %"class.gpu::ValueValidator", %"class.gpu::gles2::Validators::WindowRectanglesModeValidator", [7 x i8] }>
%"class.gpu::gles2::Validators::BackbufferAttachmentValidator" = type { i8 }
%"class.gpu::gles2::Validators::BlitFilterValidator" = type { i8 }
%"class.gpu::gles2::Validators::BufferModeValidator" = type { i8 }
%"class.gpu::gles2::Validators::BufferParameterValidator" = type { i8 }
%"class.gpu::gles2::Validators::BufferParameter64Validator" = type { i8 }
%"class.gpu::gles2::Validators::BufferTargetValidator" = type { i8 }
%"class.gpu::gles2::Validators::BufferUsageValidator" = type { i8 }
%"class.gpu::gles2::Validators::BufferfvValidator" = type { i8 }
%"class.gpu::gles2::Validators::BufferivValidator" = type { i8 }
%"class.gpu::gles2::Validators::CmpFunctionValidator" = type { i8 }
%"class.gpu::gles2::Validators::DrawModeValidator" = type { i8 }
%"class.gpu::gles2::Validators::FaceModeValidator" = type { i8 }
%"class.gpu::gles2::Validators::FaceTypeValidator" = type { i8 }
%"class.gpu::gles2::Validators::GetMaxIndexTypeValidator" = type { i8 }
%"class.gpu::gles2::Validators::HintModeValidator" = type { i8 }
%"class.gpu::gles2::Validators::IndexedBufferTargetValidator" = type { i8 }
%"class.gpu::gles2::Validators::InternalFormatParameterValidator" = type { i8 }
%"class.gpu::gles2::Validators::MapBufferAccessValidator" = type { i8 }
%"class.gpu::gles2::Validators::PixelStoreAlignmentValidator" = type { i8 }
%"class.gpu::gles2::Validators::QueryObjectParameterValidator" = type { i8 }
%"class.gpu::gles2::Validators::QueryTargetValidator" = type { i8 }
%"class.gpu::gles2::Validators::ResetStatusValidator" = type { i8 }
%"class.gpu::gles2::Validators::ShaderPrecisionValidator" = type { i8 }
%"class.gpu::gles2::Validators::ShaderTypeValidator" = type { i8 }
%"class.gpu::gles2::Validators::SharedImageAccessModeValidator" = type { i8 }
%"class.gpu::gles2::Validators::StencilOpValidator" = type { i8 }
%"class.gpu::gles2::Validators::StringTypeValidator" = type { i8 }
%"class.gpu::gles2::Validators::SwapBuffersFlagsValidator" = type { i8 }
%"class.gpu::gles2::Validators::SyncParameterValidator" = type { i8 }
%"class.gpu::gles2::Validators::Texture3DTargetValidator" = type { i8 }
%"class.gpu::gles2::Validators::TextureCompareFuncValidator" = type { i8 }
%"class.gpu::gles2::Validators::TextureMagFilterModeValidator" = type { i8 }
%"class.gpu::gles2::Validators::TextureMinFilterModeValidator" = type { i8 }
%"class.gpu::gles2::Validators::TextureSrgbDecodeExtValidator" = type { i8 }
%"class.gpu::gles2::Validators::TextureSwizzleValidator" = type { i8 }
%"class.gpu::gles2::Validators::TextureUsageValidator" = type { i8 }
%"class.gpu::gles2::Validators::TextureWrapModeValidator" = type { i8 }
%"class.gpu::gles2::Validators::TransformFeedbackPrimitiveModeValidator" = type { i8 }
%"class.gpu::gles2::Validators::UniformBlockParameterValidator" = type { i8 }
%"class.gpu::gles2::Validators::UniformParameterValidator" = type { i8 }
%"class.gpu::gles2::Validators::VertexAttribITypeValidator" = type { i8 }
%"class.gpu::ValueValidator" = type { %"class.std::__1::vector.20" }
%"class.gpu::gles2::Validators::WindowRectanglesModeValidator" = type { i8 }
%"struct.gpu::gles2::DisallowedFeatures" = type { i8, i8, i8, i8, i8, i8, i8, i8, i8, i8, i8 }
%"class.base::internal::flat_tree.681" = type { %"class.std::__1::vector.682" }
%"class.std::__1::vector.682" = type { %"class.std::__1::__vector_base.683" }
%"class.std::__1::__vector_base.683" = type { %"class.base::BasicStringPiece"*, %"class.base::BasicStringPiece"*, %"class.std::__1::__compressed_pair.684" }
%"class.base::BasicStringPiece" = type { i8*, i64 }
%"class.std::__1::__compressed_pair.684" = type { %"struct.std::__1::__compressed_pair_elem.685" }
%"struct.std::__1::__compressed_pair_elem.685" = type { %"class.base::BasicStringPiece"* }
%"struct.gpu::gles2::FeatureInfo::FeatureFlags" = type <{ %"struct.gpu::GpuMemoryBufferFormatSet", i8, i8, i8, i8, i8, i8, i8, i8, i8, i8, i8, i8, i8, i8, i8, i8, i8, i8, i8, i8, i8, i8, i8, i8, i8, i8, i8, i8, i8, i8, i8, i8, i8, i8, i8, i8, i8, i8, i8, i8, i8, i8, i8, i8, i8, i8, i8, i8, i8, i8, i8, i8, i8, i8, i8, i8, i8, i8, i8, i8, i8, i8, i8, i8, i8, i8, i8, i8, i8, i8, i8, i8, i8, i8, i8, i8, i8, i8, i8, i8, i8, i8, i8, i8, i8, i8, i8, i8, i8, i8, i8, i8, i8, i8, i8, i8, i8, i8, i8, i8, i8, i8, i8, i8, i8, i8, i8, i8 }>
%"struct.gpu::GpuMemoryBufferFormatSet" = type { i32 }
%"class.std::__1::unique_ptr.689" = type { %"class.std::__1::__compressed_pair.690" }
%"class.std::__1::__compressed_pair.690" = type { %"struct.std::__1::__compressed_pair_elem.691" }
%"struct.std::__1::__compressed_pair_elem.691" = type { %"struct.gl::GLVersionInfo"* }
%"struct.gl::GLVersionInfo" = type opaque
%"class.gpu::ImageFactory" = type opaque
%"class.std::__1::vector.695" = type { %"class.std::__1::__vector_base.696" }
%"class.std::__1::__vector_base.696" = type { %"class.base::WeakPtr.697"*, %"class.base::WeakPtr.697"*, %"class.std::__1::__compressed_pair.698" }
%"class.base::WeakPtr.697" = type opaque
%"class.std::__1::__compressed_pair.698" = type { %"struct.std::__1::__compressed_pair_elem.699" }
%"struct.std::__1::__compressed_pair_elem.699" = type { %"class.base::WeakPtr.697"* }
%"class.std::__1::unordered_map.703" = type { %"class.std::__1::__hash_table.704" }
%"class.std::__1::__hash_table.704" = type <{ %"class.std::__1::unique_ptr.705", %"class.std::__1::__compressed_pair.715", %"class.std::__1::__compressed_pair.720", %"class.std::__1::__compressed_pair.725", [4 x i8] }>
%"class.std::__1::unique_ptr.705" = type { %"class.std::__1::__compressed_pair.706" }
%"class.std::__1::__compressed_pair.706" = type { %"struct.std::__1::__compressed_pair_elem.707", %"struct.std::__1::__compressed_pair_elem.709" }
%"struct.std::__1::__compressed_pair_elem.707" = type { %"struct.std::__1::__hash_node_base.708"** }
%"struct.std::__1::__hash_node_base.708" = type { %"struct.std::__1::__hash_node_base.708"* }
%"struct.std::__1::__compressed_pair_elem.709" = type { %"class.std::__1::__bucket_list_deallocator.710" }
%"class.std::__1::__bucket_list_deallocator.710" = type { %"class.std::__1::__compressed_pair.711" }
%"class.std::__1::__compressed_pair.711" = type { %"struct.std::__1::__compressed_pair_elem.116" }
%"class.std::__1::__compressed_pair.715" = type { %"struct.std::__1::__compressed_pair_elem.716" }
%"struct.std::__1::__compressed_pair_elem.716" = type { %"struct.std::__1::__hash_node_base.708" }
%"class.std::__1::__compressed_pair.720" = type { %"struct.std::__1::__compressed_pair_elem.116" }
%"class.std::__1::__compressed_pair.725" = type { %"struct.std::__1::__compressed_pair_elem.345" }
%"class.std::__1::unique_ptr.731" = type { %"class.std::__1::__compressed_pair.732" }
%"class.std::__1::__compressed_pair.732" = type { %"struct.std::__1::__compressed_pair_elem.733" }
%"struct.std::__1::__compressed_pair_elem.733" = type { %"struct.gpu::gles2::PassthroughResources"* }
%"struct.gpu::gles2::PassthroughResources" = type opaque
%"class.gpu::PassthroughDiscardableManager" = type opaque
%"class.gl::ProgressReporter" = type opaque
%"class.gpu::ServiceDiscardableManager" = type opaque
%"class.std::__1::unique_ptr.737" = type { %"class.std::__1::__compressed_pair.738" }
%"class.std::__1::__compressed_pair.738" = type { %"struct.std::__1::__compressed_pair_elem.739" }
%"struct.std::__1::__compressed_pair_elem.739" = type { %"class.gpu::SharedImageRepresentationFactory"* }
%"class.gpu::SharedImageRepresentationFactory" = type opaque
%"class.gpu::SharedImageManager" = type opaque
%"class.media::CdmFactory" = type { i32 (...)** }
%"class.media::mojom::FrameInterfaceFactory" = type { i32 (...)** }
%"struct.std::__1::__split_buffer.749" = type { %"struct.std::__1::pair"*, %"struct.std::__1::pair"*, %"struct.std::__1::pair"*, %"class.std::__1::__compressed_pair.750" }
%"class.std::__1::__compressed_pair.750" = type { %"struct.std::__1::__compressed_pair_elem.58", %"struct.std::__1::__compressed_pair_elem.751" }
%"struct.std::__1::__compressed_pair_elem.751" = type { %"class.std::__1::allocator.60"* }
%"class.std::__1::allocator.60" = type { i8 }

$_ZN4base8flat_mapIN5media26VideoDecoderImplementationENSt3__16vectorINS1_27SupportedVideoDecoderConfigENS3_9allocatorIS5_EEEENS3_4lessIvEENS4_INS3_4pairIS2_S8_EENS6_ISC_EEEEEixEOS2_ = comdat any

$_ZNSt3__16vectorIN5media27SupportedVideoDecoderConfigENS_9allocatorIS2_EEE6insertINS_11__wrap_iterIPS2_EEEENS_9enable_ifIXaasr27__is_cpp17_forward_iteratorIT_EE5valuesr16is_constructibleIS2_NS_15iterator_traitsISB_E9referenceEEE5valueES9_E4typeENS7_IPKS2_EESB_SB_ = comdat any

$_ZNSt3__16vectorINS_4pairIN5media26VideoDecoderImplementationENS0_INS2_27SupportedVideoDecoderConfigENS_9allocatorIS4_EEEEEENS5_IS8_EEE7emplaceIJS3_S7_EEENS_11__wrap_iterIPS8_EENSC_IPKS8_EEDpOT_ = comdat any

$_ZNSt3__16vectorINS_4pairIN5media26VideoDecoderImplementationENS0_INS2_27SupportedVideoDecoderConfigENS_9allocatorIS4_EEEEEENS5_IS8_EEE12__move_rangeEPS8_SB_SB_ = comdat any

$_ZNSt3__114__split_bufferINS_4pairIN5media26VideoDecoderImplementationENS_6vectorINS2_27SupportedVideoDecoderConfigENS_9allocatorIS5_EEEEEERNS6_IS9_EEE12emplace_backIJS3_S8_EEEvDpOT_ = comdat any

$_ZN4base8internal7InvokerINS0_9BindStateIPFPN3gpu17CommandBufferStubE13scoped_refptrINS_22SingleThreadTaskRunnerEENS_7WeakPtrIN5media22MediaGpuChannelManagerEEENS_16UnguessableTokenEiEJS8_SC_SD_iEEEFS5_vEE3RunEPNS0_13BindStateBaseE = comdat any

$_ZN4base8internal9BindStateIPFPN3gpu17CommandBufferStubE13scoped_refptrINS_22SingleThreadTaskRunnerEENS_7WeakPtrIN5media22MediaGpuChannelManagerEEENS_16UnguessableTokenEiEJS7_SB_SC_iEE7DestroyEPKNS0_13BindStateBaseE = comdat any

@_ZTVN5media18GpuMojoMediaClientE = hidden unnamed_addr constant { [10 x i8*] } { [10 x i8*] [i8* null, i8* null, i8* bitcast (void (%"class.media::GpuMojoMediaClient"*)* @_ZN5media18GpuMojoMediaClientD2Ev to i8*), i8* bitcast (void (%"class.media::GpuMojoMediaClient"*)* @_ZN5media18GpuMojoMediaClientD0Ev to i8*), i8* bitcast (void (%"class.media::MojoMediaClient"*)* @_ZN5media15MojoMediaClient10InitializeEv to i8*), i8* bitcast (%"class.media::AudioDecoder"* (%"class.media::GpuMojoMediaClient"*, %"class.base::SingleThreadTaskRunner"*)* @_ZN5media18GpuMojoMediaClient18CreateAudioDecoderE13scoped_refptrIN4base22SingleThreadTaskRunnerEE to i8*), i8* bitcast (void (%"class.base::flat_map"*, %"class.media::GpuMojoMediaClient"*)* @_ZN5media18GpuMojoMediaClient31GetSupportedVideoDecoderConfigsEv to i8*), i8* bitcast (%"class.media::VideoDecoder"* (%"class.media::GpuMojoMediaClient"*, %"class.base::SingleThreadTaskRunner"*, %"class.media::MediaLog"*, %"class.mojo::StructPtr"*, i32, %"class.base::RepeatingCallback.91"*, %"class.gfx::ColorSpace"*)* @_ZN5media18GpuMojoMediaClient18CreateVideoDecoderE13scoped_refptrIN4base22SingleThreadTaskRunnerEEPNS_8MediaLogEN4mojo9StructPtrINS_5mojom15CommandBufferIdEEENS_26VideoDecoderImplementationENS2_17RepeatingCallbackIFvbNSD_IFvRKNS_11OverlayInfoEEEEEEERKN3gfx10ColorSpaceE to i8*), i8* bitcast (void ()* @_ZN5media15MojoMediaClient14CreateRendererEPNS_5mojom21FrameInterfaceFactoryE13scoped_refptrIN4base22SingleThreadTaskRunnerEEPNS_8MediaLogERKNSt3__112basic_stringIcNSA_11char_traitsIcEENSA_9allocatorIcEEEE to i8*), i8* bitcast (%"class.media::CdmFactory"* (%"class.media::GpuMojoMediaClient"*, %"class.media::mojom::FrameInterfaceFactory"*)* @_ZN5media18GpuMojoMediaClient16CreateCdmFactoryEPNS_5mojom21FrameInterfaceFactoryE to i8*)] }, align 8
@.str = private unnamed_addr constant [29 x i8] c"../../base/memory/weak_ptr.h\00", align 1
@.str.1 = private unnamed_addr constant [15 x i8] c"ref_.IsValid()\00", align 1

@_ZN5media18GpuMojoMediaClientC1ERKN3gpu14GpuPreferencesERKNS1_23GpuDriverBugWorkaroundsERKNS1_14GpuFeatureInfoE13scoped_refptrIN4base22SingleThreadTaskRunnerEENSC_7WeakPtrINS_22MediaGpuChannelManagerEEEPNS1_22GpuMemoryBufferFactoryENSC_17RepeatingCallbackIFNSt3__110unique_ptrINS_14AndroidOverlayENSL_14default_deleteISN_EEEERKNSC_16UnguessableTokenENS_20AndroidOverlayConfigEEEE = hidden unnamed_addr alias void (%"class.media::GpuMojoMediaClient"*, %"struct.gpu::GpuPreferences"*, %"class.gpu::GpuDriverBugWorkarounds"*, %"struct.gpu::GpuFeatureInfo"*, %"class.base::SingleThreadTaskRunner"*, %"class.base::WeakPtr"*, %"class.gpu::GpuMemoryBufferFactory"*, %"class.base::RepeatingCallback"*), void (%"class.media::GpuMojoMediaClient"*, %"struct.gpu::GpuPreferences"*, %"class.gpu::GpuDriverBugWorkarounds"*, %"struct.gpu::GpuFeatureInfo"*, %"class.base::SingleThreadTaskRunner"*, %"class.base::WeakPtr"*, %"class.gpu::GpuMemoryBufferFactory"*, %"class.base::RepeatingCallback"*)* @_ZN5media18GpuMojoMediaClientC2ERKN3gpu14GpuPreferencesERKNS1_23GpuDriverBugWorkaroundsERKNS1_14GpuFeatureInfoE13scoped_refptrIN4base22SingleThreadTaskRunnerEENSC_7WeakPtrINS_22MediaGpuChannelManagerEEEPNS1_22GpuMemoryBufferFactoryENSC_17RepeatingCallbackIFNSt3__110unique_ptrINS_14AndroidOverlayENSL_14default_deleteISN_EEEERKNSC_16UnguessableTokenENS_20AndroidOverlayConfigEEEE
@_ZN5media18GpuMojoMediaClientD1Ev = hidden unnamed_addr alias void (%"class.media::GpuMojoMediaClient"*), void (%"class.media::GpuMojoMediaClient"*)* @_ZN5media18GpuMojoMediaClientD2Ev

; Function Attrs: nounwind ssp uwtable
define hidden void @_ZN5media18GpuMojoMediaClientC2ERKN3gpu14GpuPreferencesERKNS1_23GpuDriverBugWorkaroundsERKNS1_14GpuFeatureInfoE13scoped_refptrIN4base22SingleThreadTaskRunnerEENSC_7WeakPtrINS_22MediaGpuChannelManagerEEEPNS1_22GpuMemoryBufferFactoryENSC_17RepeatingCallbackIFNSt3__110unique_ptrINS_14AndroidOverlayENSL_14default_deleteISN_EEEERKNSC_16UnguessableTokenENS_20AndroidOverlayConfigEEEE(%"class.media::GpuMojoMediaClient"*, %"struct.gpu::GpuPreferences"* dereferenceable(184), %"class.gpu::GpuDriverBugWorkarounds"* dereferenceable(148), %"struct.gpu::GpuFeatureInfo"* dereferenceable(184), %"class.base::SingleThreadTaskRunner"*, %"class.base::WeakPtr"*, %"class.gpu::GpuMemoryBufferFactory"*, %"class.base::RepeatingCallback"* nocapture) unnamed_addr #0 align 2 {
  %9 = ptrtoint %"class.base::SingleThreadTaskRunner"* %4 to i64
  %10 = getelementptr inbounds %"class.media::GpuMojoMediaClient", %"class.media::GpuMojoMediaClient"* %0, i64 0, i32 0
  tail call void @_ZN5media15MojoMediaClientC2Ev(%"class.media::MojoMediaClient"* %10) #9
  %11 = getelementptr inbounds %"class.media::GpuMojoMediaClient", %"class.media::GpuMojoMediaClient"* %0, i64 0, i32 0, i32 0
  store i32 (...)** bitcast (i8** getelementptr inbounds ({ [10 x i8*] }, { [10 x i8*] }* @_ZTVN5media18GpuMojoMediaClientE, i64 0, inrange i32 0, i64 2) to i32 (...)**), i32 (...)*** %11, align 8
  %12 = getelementptr inbounds %"class.media::GpuMojoMediaClient", %"class.media::GpuMojoMediaClient"* %0, i64 0, i32 1
  tail call void @_ZN3gpu14GpuPreferencesC1ERKS0_(%"struct.gpu::GpuPreferences"* %12, %"struct.gpu::GpuPreferences"* dereferenceable(184) %1) #9
  %13 = getelementptr inbounds %"class.media::GpuMojoMediaClient", %"class.media::GpuMojoMediaClient"* %0, i64 0, i32 2
  tail call void @_ZN3gpu23GpuDriverBugWorkaroundsC1ERKS0_(%"class.gpu::GpuDriverBugWorkarounds"* %13, %"class.gpu::GpuDriverBugWorkarounds"* dereferenceable(148) %2) #9
  %14 = getelementptr inbounds %"class.media::GpuMojoMediaClient", %"class.media::GpuMojoMediaClient"* %0, i64 0, i32 3
  tail call void @_ZN3gpu14GpuFeatureInfoC1ERKS0_(%"struct.gpu::GpuFeatureInfo"* %14, %"struct.gpu::GpuFeatureInfo"* dereferenceable(184) %3) #9
  %15 = getelementptr inbounds %"class.media::GpuMojoMediaClient", %"class.media::GpuMojoMediaClient"* %0, i64 0, i32 4
  %16 = bitcast %class.scoped_refptr* %15 to i64*
  store i64 %9, i64* %16, align 8
  %17 = getelementptr inbounds %"class.media::GpuMojoMediaClient", %"class.media::GpuMojoMediaClient"* %0, i64 0, i32 5, i32 0, i32 0
  %18 = getelementptr inbounds %"class.base::WeakPtr", %"class.base::WeakPtr"* %5, i64 0, i32 0, i32 0
  tail call void @_ZN4base8internal13WeakReferenceC1EOS1_(%"class.base::internal::WeakReference"* %17, %"class.base::internal::WeakReference"* dereferenceable(8) %18) #9
  %19 = getelementptr inbounds %"class.media::GpuMojoMediaClient", %"class.media::GpuMojoMediaClient"* %0, i64 0, i32 5, i32 0, i32 1
  %20 = getelementptr inbounds %"class.base::WeakPtr", %"class.base::WeakPtr"* %5, i64 0, i32 0, i32 1
  %21 = load i64, i64* %20, align 8
  store i64 %21, i64* %19, align 8
  %22 = getelementptr inbounds %"class.media::GpuMojoMediaClient", %"class.media::GpuMojoMediaClient"* %0, i64 0, i32 6
  %23 = getelementptr inbounds %"class.base::RepeatingCallback", %"class.base::RepeatingCallback"* %7, i64 0, i32 0, i32 0, i32 0, i32 0
  %24 = bitcast %"class.base::RepeatingCallback"* %7 to i64*
  %25 = load i64, i64* %24, align 8
  %26 = bitcast %"class.base::RepeatingCallback"* %22 to i64*
  store i64 %25, i64* %26, align 8
  store %"class.base::internal::BindStateBase"* null, %"class.base::internal::BindStateBase"** %23, align 8
  %27 = getelementptr inbounds %"class.media::GpuMojoMediaClient", %"class.media::GpuMojoMediaClient"* %0, i64 0, i32 7
  store %"class.gpu::GpuMemoryBufferFactory"* %6, %"class.gpu::GpuMemoryBufferFactory"** %27, align 8
  %28 = getelementptr inbounds %"class.media::GpuMojoMediaClient", %"class.media::GpuMojoMediaClient"* %0, i64 0, i32 8, i32 0, i32 0, i32 0, i32 0
  store i8 0, i8* %28, align 8
  %29 = getelementptr inbounds %"class.media::GpuMojoMediaClient", %"class.media::GpuMojoMediaClient"* %0, i64 0, i32 8, i32 0, i32 0, i32 0, i32 1
  %30 = bitcast %union.anon.44* %29 to i8*
  tail call void @llvm.memset.p0i8.i64(i8* align 8 %30, i8 0, i64 24, i1 false) #9
  ret void
}

declare void @_ZN5media15MojoMediaClientC2Ev(%"class.media::MojoMediaClient"*) unnamed_addr #1

declare void @_ZN3gpu14GpuPreferencesC1ERKS0_(%"struct.gpu::GpuPreferences"*, %"struct.gpu::GpuPreferences"* dereferenceable(184)) unnamed_addr #1

declare void @_ZN3gpu23GpuDriverBugWorkaroundsC1ERKS0_(%"class.gpu::GpuDriverBugWorkarounds"*, %"class.gpu::GpuDriverBugWorkarounds"* dereferenceable(148)) unnamed_addr #1

declare void @_ZN3gpu14GpuFeatureInfoC1ERKS0_(%"struct.gpu::GpuFeatureInfo"*, %"struct.gpu::GpuFeatureInfo"* dereferenceable(184)) unnamed_addr #1

; Function Attrs: nounwind ssp uwtable
define hidden void @_ZN5media18GpuMojoMediaClientD2Ev(%"class.media::GpuMojoMediaClient"*) unnamed_addr #0 align 2 {
  %2 = getelementptr inbounds %"class.media::GpuMojoMediaClient", %"class.media::GpuMojoMediaClient"* %0, i64 0, i32 0, i32 0
  store i32 (...)** bitcast (i8** getelementptr inbounds ({ [10 x i8*] }, { [10 x i8*] }* @_ZTVN5media18GpuMojoMediaClientE, i64 0, inrange i32 0, i64 2) to i32 (...)**), i32 (...)*** %2, align 8
  %3 = getelementptr inbounds %"class.media::GpuMojoMediaClient", %"class.media::GpuMojoMediaClient"* %0, i64 0, i32 8, i32 0, i32 0, i32 0, i32 0
  %4 = load i8, i8* %3, align 8, !range !2
  %5 = icmp eq i8 %4, 0
  br i1 %5, label %26, label %6

6:                                                ; preds = %1
  %7 = getelementptr inbounds %"class.media::GpuMojoMediaClient", %"class.media::GpuMojoMediaClient"* %0, i64 0, i32 8, i32 0, i32 0, i32 0, i32 1, i32 0
  %8 = getelementptr inbounds %"class.std::__1::vector.45", %"class.std::__1::vector.45"* %7, i64 0, i32 0, i32 0
  %9 = load %"struct.media::SupportedVideoDecoderConfig"*, %"struct.media::SupportedVideoDecoderConfig"** %8, align 8
  %10 = icmp eq %"struct.media::SupportedVideoDecoderConfig"* %9, null
  br i1 %10, label %25, label %11

11:                                               ; preds = %6
  %12 = bitcast %"struct.media::SupportedVideoDecoderConfig"* %9 to i8*
  %13 = getelementptr inbounds %"class.media::GpuMojoMediaClient", %"class.media::GpuMojoMediaClient"* %0, i64 0, i32 8, i32 0, i32 0, i32 0, i32 1, i32 0, i32 0, i32 1
  %14 = load %"struct.media::SupportedVideoDecoderConfig"*, %"struct.media::SupportedVideoDecoderConfig"** %13, align 8
  %15 = icmp eq %"struct.media::SupportedVideoDecoderConfig"* %14, %9
  br i1 %15, label %23, label %16

16:                                               ; preds = %11, %16
  %17 = phi %"struct.media::SupportedVideoDecoderConfig"* [ %18, %16 ], [ %14, %11 ]
  %18 = getelementptr inbounds %"struct.media::SupportedVideoDecoderConfig", %"struct.media::SupportedVideoDecoderConfig"* %17, i64 -1
  tail call void @_ZN5media27SupportedVideoDecoderConfigD1Ev(%"struct.media::SupportedVideoDecoderConfig"* %18) #9
  %19 = icmp eq %"struct.media::SupportedVideoDecoderConfig"* %18, %9
  br i1 %19, label %20, label %16

20:                                               ; preds = %16
  %21 = bitcast %"class.std::__1::vector.45"* %7 to i8**
  %22 = load i8*, i8** %21, align 8
  br label %23

23:                                               ; preds = %20, %11
  %24 = phi i8* [ %22, %20 ], [ %12, %11 ]
  store %"struct.media::SupportedVideoDecoderConfig"* %9, %"struct.media::SupportedVideoDecoderConfig"** %13, align 8
  tail call void @_ZdlPv(i8* %24) #10
  br label %25

25:                                               ; preds = %23, %6
  store i8 0, i8* %3, align 8
  br label %26

26:                                               ; preds = %1, %25
  %27 = getelementptr inbounds %"class.media::GpuMojoMediaClient", %"class.media::GpuMojoMediaClient"* %0, i64 0, i32 6, i32 0, i32 0
  tail call void @_ZN4base8internal12CallbackBaseD2Ev(%"class.base::internal::CallbackBase"* %27) #9
  %28 = getelementptr inbounds %"class.media::GpuMojoMediaClient", %"class.media::GpuMojoMediaClient"* %0, i64 0, i32 5, i32 0
  tail call void @_ZN4base8internal11WeakPtrBaseD2Ev(%"class.base::internal::WeakPtrBase"* %28) #9
  %29 = getelementptr inbounds %"class.media::GpuMojoMediaClient", %"class.media::GpuMojoMediaClient"* %0, i64 0, i32 4, i32 0
  %30 = load %"class.base::SingleThreadTaskRunner"*, %"class.base::SingleThreadTaskRunner"** %29, align 8
  %31 = icmp eq %"class.base::SingleThreadTaskRunner"* %30, null
  br i1 %31, label %40, label %32

32:                                               ; preds = %26
  %33 = getelementptr inbounds %"class.base::SingleThreadTaskRunner", %"class.base::SingleThreadTaskRunner"* %30, i64 0, i32 0, i32 0, i32 1
  %34 = getelementptr inbounds %"class.base::RefCountedThreadSafe", %"class.base::RefCountedThreadSafe"* %33, i64 0, i32 0, i32 0, i32 0, i32 0, i32 0, i32 0, i32 0, i32 0
  %35 = atomicrmw sub i32* %34, i32 1 acq_rel
  %36 = icmp eq i32 %35, 1
  br i1 %36, label %37, label %40

37:                                               ; preds = %32
  %38 = getelementptr inbounds %"class.base::RefCountedThreadSafe", %"class.base::RefCountedThreadSafe"* %33, i64 -2
  %39 = bitcast %"class.base::RefCountedThreadSafe"* %38 to %"class.base::TaskRunner"*
  tail call void @_ZN4base16TaskRunnerTraits8DestructEPKNS_10TaskRunnerE(%"class.base::TaskRunner"* %39) #9
  br label %40

40:                                               ; preds = %26, %32, %37
  %41 = getelementptr inbounds %"class.media::GpuMojoMediaClient", %"class.media::GpuMojoMediaClient"* %0, i64 0, i32 3
  tail call void @_ZN3gpu14GpuFeatureInfoD1Ev(%"struct.gpu::GpuFeatureInfo"* %41) #9
  %42 = getelementptr inbounds %"class.media::GpuMojoMediaClient", %"class.media::GpuMojoMediaClient"* %0, i64 0, i32 2
  tail call void @_ZN3gpu23GpuDriverBugWorkaroundsD1Ev(%"class.gpu::GpuDriverBugWorkarounds"* %42) #9
  %43 = getelementptr inbounds %"class.media::GpuMojoMediaClient", %"class.media::GpuMojoMediaClient"* %0, i64 0, i32 1
  tail call void @_ZN3gpu14GpuPreferencesD1Ev(%"struct.gpu::GpuPreferences"* %43) #9
  %44 = getelementptr inbounds %"class.media::GpuMojoMediaClient", %"class.media::GpuMojoMediaClient"* %0, i64 0, i32 0
  tail call void @_ZN5media15MojoMediaClientD2Ev(%"class.media::MojoMediaClient"* %44) #9
  ret void
}

; Function Attrs: nounwind
declare void @_ZN4base8internal12CallbackBaseD2Ev(%"class.base::internal::CallbackBase"*) unnamed_addr #2

; Function Attrs: nounwind
declare void @_ZN4base8internal11WeakPtrBaseD2Ev(%"class.base::internal::WeakPtrBase"*) unnamed_addr #2

; Function Attrs: nounwind
declare void @_ZN3gpu14GpuFeatureInfoD1Ev(%"struct.gpu::GpuFeatureInfo"*) unnamed_addr #2

; Function Attrs: nounwind
declare void @_ZN3gpu23GpuDriverBugWorkaroundsD1Ev(%"class.gpu::GpuDriverBugWorkarounds"*) unnamed_addr #2

; Function Attrs: nounwind
declare void @_ZN3gpu14GpuPreferencesD1Ev(%"struct.gpu::GpuPreferences"*) unnamed_addr #2

; Function Attrs: nounwind
declare void @_ZN5media15MojoMediaClientD2Ev(%"class.media::MojoMediaClient"*) unnamed_addr #2

; Function Attrs: nounwind ssp uwtable
define hidden void @_ZN5media18GpuMojoMediaClientD0Ev(%"class.media::GpuMojoMediaClient"*) unnamed_addr #0 align 2 {
  tail call void @_ZN5media18GpuMojoMediaClientD2Ev(%"class.media::GpuMojoMediaClient"* %0) #9
  %2 = bitcast %"class.media::GpuMojoMediaClient"* %0 to i8*
  tail call void @_ZdlPv(i8* %2) #10
  ret void
}

; Function Attrs: nobuiltin nounwind
declare void @_ZdlPv(i8*) local_unnamed_addr #3

; Function Attrs: nounwind ssp uwtable
define hidden %"class.media::AudioDecoder"* @_ZN5media18GpuMojoMediaClient18CreateAudioDecoderE13scoped_refptrIN4base22SingleThreadTaskRunnerEE(%"class.media::GpuMojoMediaClient"* nocapture readnone, %"class.base::SingleThreadTaskRunner"*) unnamed_addr #0 align 2 {
  %3 = icmp eq %"class.base::SingleThreadTaskRunner"* %1, null
  br i1 %3, label %12, label %4

4:                                                ; preds = %2
  %5 = getelementptr inbounds %"class.base::SingleThreadTaskRunner", %"class.base::SingleThreadTaskRunner"* %1, i64 0, i32 0, i32 0, i32 1
  %6 = getelementptr inbounds %"class.base::RefCountedThreadSafe", %"class.base::RefCountedThreadSafe"* %5, i64 0, i32 0, i32 0, i32 0, i32 0, i32 0, i32 0, i32 0, i32 0
  %7 = atomicrmw sub i32* %6, i32 1 acq_rel
  %8 = icmp eq i32 %7, 1
  br i1 %8, label %9, label %12

9:                                                ; preds = %4
  %10 = getelementptr inbounds %"class.base::RefCountedThreadSafe", %"class.base::RefCountedThreadSafe"* %5, i64 -2
  %11 = bitcast %"class.base::RefCountedThreadSafe"* %10 to %"class.base::TaskRunner"*
  tail call void @_ZN4base16TaskRunnerTraits8DestructEPKNS_10TaskRunnerE(%"class.base::TaskRunner"* %11) #9
  br label %12

12:                                               ; preds = %2, %4, %9
  ret %"class.media::AudioDecoder"* null
}

; Function Attrs: nounwind ssp uwtable
define hidden void @_ZN5media18GpuMojoMediaClient31GetSupportedVideoDecoderConfigsEv(%"class.base::flat_map"* noalias sret, %"class.media::GpuMojoMediaClient"*) unnamed_addr #0 align 2 {
  %3 = alloca i32, align 4
  %4 = alloca %"struct.media::VideoDecodeAccelerator::Capabilities", align 8
  %5 = alloca %"struct.gpu::VideoDecodeAcceleratorCapabilities", align 8
  %6 = alloca %"class.std::__1::vector.45", align 8
  %7 = bitcast %"class.base::flat_map"* %0 to i8*
  tail call void @llvm.memset.p0i8.i64(i8* align 8 %7, i8 0, i64 24, i1 false) #9
  %8 = getelementptr inbounds %"class.media::GpuMojoMediaClient", %"class.media::GpuMojoMediaClient"* %1, i64 0, i32 1
  %9 = bitcast i32* %3 to i8*
  call void @llvm.lifetime.start.p0i8(i64 4, i8* nonnull %9) #9
  store i32 0, i32* %3, align 4
  %10 = call dereferenceable(24) %"class.std::__1::vector.45"* @_ZN4base8flat_mapIN5media26VideoDecoderImplementationENSt3__16vectorINS1_27SupportedVideoDecoderConfigENS3_9allocatorIS5_EEEENS3_4lessIvEENS4_INS3_4pairIS2_S8_EENS6_ISC_EEEEEixEOS2_(%"class.base::flat_map"* %0, i32* nonnull dereferenceable(4) %3)
  call void @llvm.lifetime.end.p0i8(i64 4, i8* nonnull %9) #9
  %11 = bitcast %"struct.media::VideoDecodeAccelerator::Capabilities"* %4 to i8*
  call void @llvm.lifetime.start.p0i8(i64 32, i8* nonnull %11) #9
  %12 = getelementptr inbounds %"struct.media::VideoDecodeAccelerator::Capabilities", %"struct.media::VideoDecodeAccelerator::Capabilities"* %4, i64 0, i32 0
  %13 = getelementptr inbounds %"struct.media::VideoDecodeAccelerator::Capabilities", %"struct.media::VideoDecodeAccelerator::Capabilities"* %4, i64 0, i32 1
  %14 = bitcast %"struct.gpu::VideoDecodeAcceleratorCapabilities"* %5 to i8*
  %15 = bitcast %"struct.media::VideoDecodeAccelerator::Capabilities"* %4 to i8*
  call void @llvm.memset.p0i8.i64(i8* nonnull align 8 %15, i8 -86, i64 32, i1 false)
  call void @llvm.lifetime.start.p0i8(i64 32, i8* nonnull %14) #9
  %16 = getelementptr inbounds %"class.media::GpuMojoMediaClient", %"class.media::GpuMojoMediaClient"* %1, i64 0, i32 2
  call void @_ZN5media32GpuVideoDecodeAcceleratorFactory22GetDecoderCapabilitiesERKN3gpu14GpuPreferencesERKNS1_23GpuDriverBugWorkaroundsE(%"struct.gpu::VideoDecodeAcceleratorCapabilities"* nonnull sret %5, %"struct.gpu::GpuPreferences"* dereferenceable(184) %8, %"class.gpu::GpuDriverBugWorkarounds"* dereferenceable(148) %16) #9
  call void @_ZN5media23GpuVideoAcceleratorUtil35ConvertGpuToMediaDecodeCapabilitiesERKN3gpu34VideoDecodeAcceleratorCapabilitiesE(%"struct.media::VideoDecodeAccelerator::Capabilities"* nonnull sret %4, %"struct.gpu::VideoDecodeAcceleratorCapabilities"* nonnull dereferenceable(32) %5) #9
  call void @_ZN3gpu34VideoDecodeAcceleratorCapabilitiesD1Ev(%"struct.gpu::VideoDecodeAcceleratorCapabilities"* nonnull %5) #9
  call void @llvm.lifetime.end.p0i8(i64 32, i8* nonnull %14) #9
  %17 = load i32, i32* %13, align 8
  %18 = and i32 %17, 16
  %19 = icmp ne i32 %18, 0
  %20 = bitcast %"class.std::__1::vector.45"* %6 to i8*
  call void @llvm.lifetime.start.p0i8(i64 24, i8* nonnull %20) #9
  %21 = getelementptr inbounds %"class.std::__1::vector.45", %"class.std::__1::vector.45"* %6, i64 0, i32 0, i32 0
  %22 = getelementptr inbounds %"class.std::__1::vector.45", %"class.std::__1::vector.45"* %6, i64 0, i32 0, i32 1
  %23 = bitcast %"class.std::__1::vector.45"* %6 to i8*
  call void @llvm.memset.p0i8.i64(i8* nonnull align 8 %23, i8 -86, i64 24, i1 false)
  call void @_ZN5media28ConvertFromSupportedProfilesERKNSt3__16vectorINS_22VideoDecodeAccelerator16SupportedProfileENS0_9allocatorIS3_EEEEb(%"class.std::__1::vector.45"* nonnull sret %6, %"class.std::__1::vector.62"* nonnull dereferenceable(24) %12, i1 zeroext %19) #9
  %24 = getelementptr inbounds %"class.std::__1::vector.45", %"class.std::__1::vector.45"* %10, i64 0, i32 0, i32 1
  %25 = load %"struct.media::SupportedVideoDecoderConfig"*, %"struct.media::SupportedVideoDecoderConfig"** %24, align 8
  %26 = load %"struct.media::SupportedVideoDecoderConfig"*, %"struct.media::SupportedVideoDecoderConfig"** %21, align 8
  %27 = load %"struct.media::SupportedVideoDecoderConfig"*, %"struct.media::SupportedVideoDecoderConfig"** %22, align 8
  %28 = call %"struct.media::SupportedVideoDecoderConfig"* @_ZNSt3__16vectorIN5media27SupportedVideoDecoderConfigENS_9allocatorIS2_EEE6insertINS_11__wrap_iterIPS2_EEEENS_9enable_ifIXaasr27__is_cpp17_forward_iteratorIT_EE5valuesr16is_constructibleIS2_NS_15iterator_traitsISB_E9referenceEEE5valueES9_E4typeENS7_IPKS2_EESB_SB_(%"class.std::__1::vector.45"* %10, %"struct.media::SupportedVideoDecoderConfig"* %25, %"struct.media::SupportedVideoDecoderConfig"* %26, %"struct.media::SupportedVideoDecoderConfig"* %27)
  %29 = load %"struct.media::SupportedVideoDecoderConfig"*, %"struct.media::SupportedVideoDecoderConfig"** %21, align 8
  %30 = icmp eq %"struct.media::SupportedVideoDecoderConfig"* %29, null
  br i1 %30, label %44, label %31

31:                                               ; preds = %2
  %32 = bitcast %"struct.media::SupportedVideoDecoderConfig"* %29 to i8*
  %33 = load %"struct.media::SupportedVideoDecoderConfig"*, %"struct.media::SupportedVideoDecoderConfig"** %22, align 8
  %34 = icmp eq %"struct.media::SupportedVideoDecoderConfig"* %33, %29
  br i1 %34, label %42, label %35

35:                                               ; preds = %31, %35
  %36 = phi %"struct.media::SupportedVideoDecoderConfig"* [ %37, %35 ], [ %33, %31 ]
  %37 = getelementptr inbounds %"struct.media::SupportedVideoDecoderConfig", %"struct.media::SupportedVideoDecoderConfig"* %36, i64 -1
  call void @_ZN5media27SupportedVideoDecoderConfigD1Ev(%"struct.media::SupportedVideoDecoderConfig"* %37) #9
  %38 = icmp eq %"struct.media::SupportedVideoDecoderConfig"* %37, %29
  br i1 %38, label %39, label %35

39:                                               ; preds = %35
  %40 = bitcast %"class.std::__1::vector.45"* %6 to i8**
  %41 = load i8*, i8** %40, align 8
  br label %42

42:                                               ; preds = %39, %31
  %43 = phi i8* [ %41, %39 ], [ %32, %31 ]
  store %"struct.media::SupportedVideoDecoderConfig"* %29, %"struct.media::SupportedVideoDecoderConfig"** %22, align 8
  call void @_ZdlPv(i8* %43) #10
  br label %44

44:                                               ; preds = %2, %42
  call void @llvm.lifetime.end.p0i8(i64 24, i8* nonnull %20) #9
  call void @_ZN5media22VideoDecodeAccelerator12CapabilitiesD1Ev(%"struct.media::VideoDecodeAccelerator::Capabilities"* nonnull %4) #9
  call void @llvm.lifetime.end.p0i8(i64 32, i8* nonnull %11) #9
  ret void
}

; Function Attrs: argmemonly nounwind
declare void @llvm.lifetime.start.p0i8(i64 immarg, i8* nocapture) #4

; Function Attrs: argmemonly nounwind
declare void @llvm.lifetime.end.p0i8(i64 immarg, i8* nocapture) #4

; Function Attrs: nounwind ssp uwtable
define linkonce_odr hidden dereferenceable(24) %"class.std::__1::vector.45"* @_ZN4base8flat_mapIN5media26VideoDecoderImplementationENSt3__16vectorINS1_27SupportedVideoDecoderConfigENS3_9allocatorIS5_EEEENS3_4lessIvEENS4_INS3_4pairIS2_S8_EENS6_ISC_EEEEEixEOS2_(%"class.base::flat_map"*, i32* dereferenceable(4)) local_unnamed_addr #0 comdat align 2 {
  %3 = alloca %"class.std::__1::vector.45", align 8
  %4 = getelementptr inbounds %"class.base::flat_map", %"class.base::flat_map"* %0, i64 0, i32 0, i32 0, i32 0, i32 0
  %5 = load %"struct.std::__1::pair"*, %"struct.std::__1::pair"** %4, align 8
  %6 = getelementptr inbounds %"class.base::flat_map", %"class.base::flat_map"* %0, i64 0, i32 0, i32 0, i32 0, i32 1
  %7 = bitcast %"struct.std::__1::pair"** %6 to i64*
  %8 = load i64, i64* %7, align 8
  %9 = ptrtoint %"struct.std::__1::pair"* %5 to i64
  %10 = sub i64 %8, %9
  %11 = icmp eq i64 %10, 0
  %12 = inttoptr i64 %8 to %"struct.std::__1::pair"*
  br i1 %11, label %30, label %13

13:                                               ; preds = %2
  %14 = ashr exact i64 %10, 5
  %15 = load i32, i32* %1, align 4
  br label %16

16:                                               ; preds = %16, %13
  %17 = phi %"struct.std::__1::pair"* [ %5, %13 ], [ %28, %16 ]
  %18 = phi i64 [ %14, %13 ], [ %27, %16 ]
  %19 = lshr i64 %18, 1
  %20 = getelementptr inbounds %"struct.std::__1::pair", %"struct.std::__1::pair"* %17, i64 %19
  %21 = getelementptr inbounds %"struct.std::__1::pair", %"struct.std::__1::pair"* %20, i64 0, i32 0
  %22 = load i32, i32* %21, align 4
  %23 = icmp slt i32 %22, %15
  %24 = getelementptr inbounds %"struct.std::__1::pair", %"struct.std::__1::pair"* %20, i64 1
  %25 = xor i64 %19, -1
  %26 = add i64 %18, %25
  %27 = select i1 %23, i64 %26, i64 %19
  %28 = select i1 %23, %"struct.std::__1::pair"* %24, %"struct.std::__1::pair"* %17
  %29 = icmp eq i64 %27, 0
  br i1 %29, label %30, label %16

30:                                               ; preds = %16, %2
  %31 = phi %"struct.std::__1::pair"* [ %5, %2 ], [ %28, %16 ]
  %32 = icmp eq %"struct.std::__1::pair"* %31, %12
  br i1 %32, label %38, label %33

33:                                               ; preds = %30
  %34 = getelementptr inbounds %"struct.std::__1::pair", %"struct.std::__1::pair"* %31, i64 0, i32 0
  %35 = load i32, i32* %1, align 4
  %36 = load i32, i32* %34, align 4
  %37 = icmp slt i32 %35, %36
  br i1 %37, label %38, label %60

38:                                               ; preds = %30, %33
  %39 = bitcast %"class.std::__1::vector.45"* %3 to i8*
  call void @llvm.lifetime.start.p0i8(i64 24, i8* nonnull %39) #9
  call void @llvm.memset.p0i8.i64(i8* nonnull align 8 %39, i8 0, i64 24, i1 false) #9
  %40 = getelementptr inbounds %"class.base::flat_map", %"class.base::flat_map"* %0, i64 0, i32 0, i32 0
  %41 = call %"struct.std::__1::pair"* @_ZNSt3__16vectorINS_4pairIN5media26VideoDecoderImplementationENS0_INS2_27SupportedVideoDecoderConfigENS_9allocatorIS4_EEEEEENS5_IS8_EEE7emplaceIJS3_S7_EEENS_11__wrap_iterIPS8_EENSC_IPKS8_EEDpOT_(%"class.std::__1::vector.55"* %40, %"struct.std::__1::pair"* %31, i32* dereferenceable(4) %1, %"class.std::__1::vector.45"* nonnull dereferenceable(24) %3) #9
  %42 = getelementptr inbounds %"class.std::__1::vector.45", %"class.std::__1::vector.45"* %3, i64 0, i32 0, i32 0
  %43 = load %"struct.media::SupportedVideoDecoderConfig"*, %"struct.media::SupportedVideoDecoderConfig"** %42, align 8
  %44 = icmp eq %"struct.media::SupportedVideoDecoderConfig"* %43, null
  br i1 %44, label %59, label %45

45:                                               ; preds = %38
  %46 = bitcast %"struct.media::SupportedVideoDecoderConfig"* %43 to i8*
  %47 = getelementptr inbounds %"class.std::__1::vector.45", %"class.std::__1::vector.45"* %3, i64 0, i32 0, i32 1
  %48 = load %"struct.media::SupportedVideoDecoderConfig"*, %"struct.media::SupportedVideoDecoderConfig"** %47, align 8
  %49 = icmp eq %"struct.media::SupportedVideoDecoderConfig"* %48, %43
  br i1 %49, label %57, label %50

50:                                               ; preds = %45, %50
  %51 = phi %"struct.media::SupportedVideoDecoderConfig"* [ %52, %50 ], [ %48, %45 ]
  %52 = getelementptr inbounds %"struct.media::SupportedVideoDecoderConfig", %"struct.media::SupportedVideoDecoderConfig"* %51, i64 -1
  call void @_ZN5media27SupportedVideoDecoderConfigD1Ev(%"struct.media::SupportedVideoDecoderConfig"* %52) #9
  %53 = icmp eq %"struct.media::SupportedVideoDecoderConfig"* %52, %43
  br i1 %53, label %54, label %50

54:                                               ; preds = %50
  %55 = bitcast %"class.std::__1::vector.45"* %3 to i8**
  %56 = load i8*, i8** %55, align 8
  br label %57

57:                                               ; preds = %54, %45
  %58 = phi i8* [ %56, %54 ], [ %46, %45 ]
  store %"struct.media::SupportedVideoDecoderConfig"* %43, %"struct.media::SupportedVideoDecoderConfig"** %47, align 8
  call void @_ZdlPv(i8* %58) #10
  br label %59

59:                                               ; preds = %38, %57
  call void @llvm.lifetime.end.p0i8(i64 24, i8* nonnull %39) #9
  br label %60

60:                                               ; preds = %59, %33
  %61 = phi %"struct.std::__1::pair"* [ %41, %59 ], [ %31, %33 ]
  %62 = getelementptr inbounds %"struct.std::__1::pair", %"struct.std::__1::pair"* %61, i64 0, i32 1
  ret %"class.std::__1::vector.45"* %62
}

declare void @_ZN5media23GpuVideoAcceleratorUtil35ConvertGpuToMediaDecodeCapabilitiesERKN3gpu34VideoDecodeAcceleratorCapabilitiesE(%"struct.media::VideoDecodeAccelerator::Capabilities"* sret, %"struct.gpu::VideoDecodeAcceleratorCapabilities"* dereferenceable(32)) local_unnamed_addr #1

declare void @_ZN5media32GpuVideoDecodeAcceleratorFactory22GetDecoderCapabilitiesERKN3gpu14GpuPreferencesERKNS1_23GpuDriverBugWorkaroundsE(%"struct.gpu::VideoDecodeAcceleratorCapabilities"* sret, %"struct.gpu::GpuPreferences"* dereferenceable(184), %"class.gpu::GpuDriverBugWorkarounds"* dereferenceable(148)) local_unnamed_addr #1

; Function Attrs: nounwind
declare void @_ZN3gpu34VideoDecodeAcceleratorCapabilitiesD1Ev(%"struct.gpu::VideoDecodeAcceleratorCapabilities"*) unnamed_addr #2

declare void @_ZN5media28ConvertFromSupportedProfilesERKNSt3__16vectorINS_22VideoDecodeAccelerator16SupportedProfileENS0_9allocatorIS3_EEEEb(%"class.std::__1::vector.45"* sret, %"class.std::__1::vector.62"* dereferenceable(24), i1 zeroext) local_unnamed_addr #1

; Function Attrs: nounwind ssp uwtable
define linkonce_odr hidden %"struct.media::SupportedVideoDecoderConfig"* @_ZNSt3__16vectorIN5media27SupportedVideoDecoderConfigENS_9allocatorIS2_EEE6insertINS_11__wrap_iterIPS2_EEEENS_9enable_ifIXaasr27__is_cpp17_forward_iteratorIT_EE5valuesr16is_constructibleIS2_NS_15iterator_traitsISB_E9referenceEEE5valueES9_E4typeENS7_IPKS2_EESB_SB_(%"class.std::__1::vector.45"*, %"struct.media::SupportedVideoDecoderConfig"*, %"struct.media::SupportedVideoDecoderConfig"*, %"struct.media::SupportedVideoDecoderConfig"*) local_unnamed_addr #0 comdat align 2 {
  %5 = ptrtoint %"struct.media::SupportedVideoDecoderConfig"* %1 to i64
  %6 = getelementptr inbounds %"class.std::__1::vector.45", %"class.std::__1::vector.45"* %0, i64 0, i32 0, i32 0
  %7 = ptrtoint %"struct.media::SupportedVideoDecoderConfig"* %2 to i64
  %8 = ptrtoint %"struct.media::SupportedVideoDecoderConfig"* %3 to i64
  %9 = sub i64 %8, %7
  %10 = sdiv exact i64 %9, 28
  %11 = icmp sgt i64 %9, 0
  br i1 %11, label %12, label %173

12:                                               ; preds = %4
  %13 = getelementptr inbounds %"class.std::__1::vector.45", %"class.std::__1::vector.45"* %0, i64 0, i32 0, i32 2, i32 0, i32 0
  %14 = bitcast %"struct.media::SupportedVideoDecoderConfig"** %13 to i64*
  %15 = load i64, i64* %14, align 8
  %16 = getelementptr inbounds %"class.std::__1::vector.45", %"class.std::__1::vector.45"* %0, i64 0, i32 0, i32 1
  %17 = load %"struct.media::SupportedVideoDecoderConfig"*, %"struct.media::SupportedVideoDecoderConfig"** %16, align 8
  %18 = ptrtoint %"struct.media::SupportedVideoDecoderConfig"* %17 to i64
  %19 = sub i64 %15, %18
  %20 = sdiv exact i64 %19, 28
  %21 = icmp sgt i64 %10, %20
  %22 = bitcast %"struct.media::SupportedVideoDecoderConfig"** %16 to i64*
  br i1 %21, label %80, label %23

23:                                               ; preds = %12
  %24 = sub i64 %18, %5
  %25 = sdiv exact i64 %24, 28
  %26 = icmp sgt i64 %10, %25
  br i1 %26, label %27, label %45

27:                                               ; preds = %23
  %28 = getelementptr inbounds %"struct.media::SupportedVideoDecoderConfig", %"struct.media::SupportedVideoDecoderConfig"* %2, i64 %25
  %29 = icmp eq %"struct.media::SupportedVideoDecoderConfig"* %28, %3
  br i1 %29, label %40, label %30

30:                                               ; preds = %27, %30
  %31 = phi %"struct.media::SupportedVideoDecoderConfig"* [ %36, %30 ], [ %17, %27 ]
  %32 = phi %"struct.media::SupportedVideoDecoderConfig"* [ %35, %30 ], [ %28, %27 ]
  %33 = bitcast %"struct.media::SupportedVideoDecoderConfig"* %31 to i8*
  %34 = bitcast %"struct.media::SupportedVideoDecoderConfig"* %32 to i8*
  tail call void @llvm.memcpy.p0i8.p0i8.i64(i8* align 4 %33, i8* align 4 %34, i64 28, i1 false) #9
  %35 = getelementptr inbounds %"struct.media::SupportedVideoDecoderConfig", %"struct.media::SupportedVideoDecoderConfig"* %32, i64 1
  %36 = getelementptr inbounds %"struct.media::SupportedVideoDecoderConfig", %"struct.media::SupportedVideoDecoderConfig"* %31, i64 1
  %37 = icmp eq %"struct.media::SupportedVideoDecoderConfig"* %35, %3
  br i1 %37, label %38, label %30

38:                                               ; preds = %30
  %39 = ptrtoint %"struct.media::SupportedVideoDecoderConfig"* %36 to i64
  br label %40

40:                                               ; preds = %38, %27
  %41 = phi i64 [ %18, %27 ], [ %39, %38 ]
  store i64 %41, i64* %22, align 8
  %42 = icmp sgt i64 %24, 0
  br i1 %42, label %43, label %173

43:                                               ; preds = %40
  %44 = inttoptr i64 %41 to %"struct.media::SupportedVideoDecoderConfig"*
  br label %45

45:                                               ; preds = %43, %23
  %46 = phi i64 [ %41, %43 ], [ %18, %23 ]
  %47 = phi %"struct.media::SupportedVideoDecoderConfig"* [ %44, %43 ], [ %17, %23 ]
  %48 = phi %"struct.media::SupportedVideoDecoderConfig"* [ %28, %43 ], [ %3, %23 ]
  %49 = getelementptr inbounds %"struct.media::SupportedVideoDecoderConfig", %"struct.media::SupportedVideoDecoderConfig"* %1, i64 %10
  %50 = ptrtoint %"struct.media::SupportedVideoDecoderConfig"* %49 to i64
  %51 = sub i64 %46, %50
  %52 = sdiv exact i64 %51, 28
  %53 = getelementptr inbounds %"struct.media::SupportedVideoDecoderConfig", %"struct.media::SupportedVideoDecoderConfig"* %1, i64 %52
  %54 = icmp ult %"struct.media::SupportedVideoDecoderConfig"* %53, %17
  br i1 %54, label %65, label %57

55:                                               ; preds = %65
  %56 = ptrtoint %"struct.media::SupportedVideoDecoderConfig"* %71 to i64
  br label %57

57:                                               ; preds = %55, %45
  %58 = phi i64 [ %56, %55 ], [ %46, %45 ]
  store i64 %58, i64* %22, align 8
  %59 = icmp eq i64 %51, 0
  br i1 %59, label %73, label %60

60:                                               ; preds = %57
  %61 = sdiv exact i64 %51, -28
  %62 = getelementptr inbounds %"struct.media::SupportedVideoDecoderConfig", %"struct.media::SupportedVideoDecoderConfig"* %47, i64 %61
  %63 = bitcast %"struct.media::SupportedVideoDecoderConfig"* %62 to i8*
  %64 = bitcast %"struct.media::SupportedVideoDecoderConfig"* %1 to i8*
  tail call void @llvm.memmove.p0i8.p0i8.i64(i8* align 4 %63, i8* align 4 %64, i64 %51, i1 false) #9
  br label %73

65:                                               ; preds = %45, %65
  %66 = phi %"struct.media::SupportedVideoDecoderConfig"* [ %71, %65 ], [ %47, %45 ]
  %67 = phi %"struct.media::SupportedVideoDecoderConfig"* [ %70, %65 ], [ %53, %45 ]
  %68 = bitcast %"struct.media::SupportedVideoDecoderConfig"* %66 to i8*
  %69 = bitcast %"struct.media::SupportedVideoDecoderConfig"* %67 to i8*
  tail call void @llvm.memcpy.p0i8.p0i8.i64(i8* align 4 %68, i8* align 4 %69, i64 28, i1 false) #9
  %70 = getelementptr inbounds %"struct.media::SupportedVideoDecoderConfig", %"struct.media::SupportedVideoDecoderConfig"* %67, i64 1
  %71 = getelementptr inbounds %"struct.media::SupportedVideoDecoderConfig", %"struct.media::SupportedVideoDecoderConfig"* %66, i64 1
  %72 = icmp ult %"struct.media::SupportedVideoDecoderConfig"* %70, %17
  br i1 %72, label %65, label %55

73:                                               ; preds = %57, %60
  %74 = ptrtoint %"struct.media::SupportedVideoDecoderConfig"* %48 to i64
  %75 = sub i64 %74, %7
  %76 = icmp eq i64 %75, 0
  br i1 %76, label %173, label %77

77:                                               ; preds = %73
  %78 = bitcast %"struct.media::SupportedVideoDecoderConfig"* %1 to i8*
  %79 = bitcast %"struct.media::SupportedVideoDecoderConfig"* %2 to i8*
  tail call void @llvm.memmove.p0i8.p0i8.i64(i8* align 4 %78, i8* align 4 %79, i64 %75, i1 false) #9
  br label %173

80:                                               ; preds = %12
  %81 = bitcast %"class.std::__1::vector.45"* %0 to i64*
  %82 = load i64, i64* %81, align 8
  %83 = sub i64 %18, %82
  %84 = sdiv exact i64 %83, 28
  %85 = add nsw i64 %84, %10
  %86 = icmp ugt i64 %85, 658812288346769700
  br i1 %86, label %87, label %89

87:                                               ; preds = %80
  %88 = bitcast %"class.std::__1::vector.45"* %0 to %"class.std::__1::__vector_base_common"*
  tail call void @_ZNKSt3__120__vector_base_commonILb1EE20__throw_length_errorEv(%"class.std::__1::__vector_base_common"* %88) #11
  unreachable

89:                                               ; preds = %80
  %90 = sub i64 %15, %82
  %91 = sdiv exact i64 %90, 28
  %92 = icmp ult i64 %91, 329406144173384850
  br i1 %92, label %96, label %93

93:                                               ; preds = %89
  %94 = sub i64 %5, %82
  %95 = sdiv exact i64 %94, 28
  br label %103

96:                                               ; preds = %89
  %97 = shl nsw i64 %91, 1
  %98 = icmp ult i64 %97, %85
  %99 = select i1 %98, i64 %85, i64 %97
  %100 = sub i64 %5, %82
  %101 = sdiv exact i64 %100, 28
  %102 = icmp eq i64 %99, 0
  br i1 %102, label %109, label %103

103:                                              ; preds = %96, %93
  %104 = phi i64 [ %95, %93 ], [ %101, %96 ]
  %105 = phi i64 [ 658812288346769700, %93 ], [ %99, %96 ]
  %106 = mul i64 %105, 28
  %107 = tail call i8* @_Znwm(i64 %106) #10
  %108 = bitcast i8* %107 to %"struct.media::SupportedVideoDecoderConfig"*
  br label %109

109:                                              ; preds = %103, %96
  %110 = phi i64 [ %104, %103 ], [ %101, %96 ]
  %111 = phi i64 [ %105, %103 ], [ 0, %96 ]
  %112 = phi %"struct.media::SupportedVideoDecoderConfig"* [ %108, %103 ], [ null, %96 ]
  %113 = getelementptr inbounds %"struct.media::SupportedVideoDecoderConfig", %"struct.media::SupportedVideoDecoderConfig"* %112, i64 %110
  %114 = ptrtoint %"struct.media::SupportedVideoDecoderConfig"* %113 to i64
  %115 = getelementptr inbounds %"struct.media::SupportedVideoDecoderConfig", %"struct.media::SupportedVideoDecoderConfig"* %112, i64 %111
  %116 = ptrtoint %"struct.media::SupportedVideoDecoderConfig"* %115 to i64
  %117 = getelementptr inbounds %"struct.media::SupportedVideoDecoderConfig", %"struct.media::SupportedVideoDecoderConfig"* %113, i64 %10
  br label %118

118:                                              ; preds = %109, %118
  %119 = phi %"struct.media::SupportedVideoDecoderConfig"* [ %124, %118 ], [ %113, %109 ]
  %120 = phi i64 [ %125, %118 ], [ %114, %109 ]
  %121 = phi %"struct.media::SupportedVideoDecoderConfig"* [ %126, %118 ], [ %2, %109 ]
  %122 = inttoptr i64 %120 to i8*
  %123 = bitcast %"struct.media::SupportedVideoDecoderConfig"* %121 to i8*
  tail call void @llvm.memcpy.p0i8.p0i8.i64(i8* align 4 %122, i8* align 4 %123, i64 28, i1 false) #9
  %124 = getelementptr inbounds %"struct.media::SupportedVideoDecoderConfig", %"struct.media::SupportedVideoDecoderConfig"* %119, i64 1
  %125 = ptrtoint %"struct.media::SupportedVideoDecoderConfig"* %124 to i64
  %126 = getelementptr inbounds %"struct.media::SupportedVideoDecoderConfig", %"struct.media::SupportedVideoDecoderConfig"* %121, i64 1
  %127 = icmp eq %"struct.media::SupportedVideoDecoderConfig"* %117, %124
  br i1 %127, label %128, label %118

128:                                              ; preds = %118
  %129 = load %"struct.media::SupportedVideoDecoderConfig"*, %"struct.media::SupportedVideoDecoderConfig"** %6, align 8
  %130 = icmp eq %"struct.media::SupportedVideoDecoderConfig"* %129, %1
  br i1 %130, label %141, label %131

131:                                              ; preds = %128, %131
  %132 = phi %"struct.media::SupportedVideoDecoderConfig"* [ %134, %131 ], [ %113, %128 ]
  %133 = phi %"struct.media::SupportedVideoDecoderConfig"* [ %135, %131 ], [ %1, %128 ]
  %134 = getelementptr inbounds %"struct.media::SupportedVideoDecoderConfig", %"struct.media::SupportedVideoDecoderConfig"* %132, i64 -1
  %135 = getelementptr inbounds %"struct.media::SupportedVideoDecoderConfig", %"struct.media::SupportedVideoDecoderConfig"* %133, i64 -1
  %136 = bitcast %"struct.media::SupportedVideoDecoderConfig"* %134 to i8*
  %137 = bitcast %"struct.media::SupportedVideoDecoderConfig"* %135 to i8*
  tail call void @llvm.memcpy.p0i8.p0i8.i64(i8* align 4 %136, i8* align 4 %137, i64 28, i1 false) #9
  %138 = icmp eq %"struct.media::SupportedVideoDecoderConfig"* %135, %129
  br i1 %138, label %139, label %131

139:                                              ; preds = %131
  %140 = ptrtoint %"struct.media::SupportedVideoDecoderConfig"* %134 to i64
  br label %141

141:                                              ; preds = %139, %128
  %142 = phi i64 [ %114, %128 ], [ %140, %139 ]
  %143 = phi %"struct.media::SupportedVideoDecoderConfig"* [ %113, %128 ], [ %134, %139 ]
  %144 = load %"struct.media::SupportedVideoDecoderConfig"*, %"struct.media::SupportedVideoDecoderConfig"** %16, align 8
  %145 = icmp eq %"struct.media::SupportedVideoDecoderConfig"* %144, %1
  br i1 %145, label %146, label %148

146:                                              ; preds = %141
  %147 = ptrtoint %"struct.media::SupportedVideoDecoderConfig"* %143 to i64
  br label %158

148:                                              ; preds = %141, %148
  %149 = phi %"struct.media::SupportedVideoDecoderConfig"* [ %154, %148 ], [ %117, %141 ]
  %150 = phi %"struct.media::SupportedVideoDecoderConfig"* [ %153, %148 ], [ %1, %141 ]
  %151 = bitcast %"struct.media::SupportedVideoDecoderConfig"* %149 to i8*
  %152 = bitcast %"struct.media::SupportedVideoDecoderConfig"* %150 to i8*
  tail call void @llvm.memcpy.p0i8.p0i8.i64(i8* align 4 %151, i8* align 4 %152, i64 28, i1 false) #9
  %153 = getelementptr inbounds %"struct.media::SupportedVideoDecoderConfig", %"struct.media::SupportedVideoDecoderConfig"* %150, i64 1
  %154 = getelementptr inbounds %"struct.media::SupportedVideoDecoderConfig", %"struct.media::SupportedVideoDecoderConfig"* %149, i64 1
  %155 = icmp eq %"struct.media::SupportedVideoDecoderConfig"* %153, %144
  br i1 %155, label %156, label %148

156:                                              ; preds = %148
  %157 = load %"struct.media::SupportedVideoDecoderConfig"*, %"struct.media::SupportedVideoDecoderConfig"** %16, align 8
  br label %158

158:                                              ; preds = %156, %146
  %159 = phi %"struct.media::SupportedVideoDecoderConfig"* [ %1, %146 ], [ %157, %156 ]
  %160 = phi %"struct.media::SupportedVideoDecoderConfig"* [ %117, %146 ], [ %154, %156 ]
  %161 = phi i64 [ %147, %146 ], [ %142, %156 ]
  %162 = ptrtoint %"struct.media::SupportedVideoDecoderConfig"* %160 to i64
  %163 = load %"struct.media::SupportedVideoDecoderConfig"*, %"struct.media::SupportedVideoDecoderConfig"** %6, align 8
  store i64 %161, i64* %81, align 8
  store i64 %162, i64* %22, align 8
  store i64 %116, i64* %14, align 8
  %164 = icmp eq %"struct.media::SupportedVideoDecoderConfig"* %159, %163
  br i1 %164, label %169, label %165

165:                                              ; preds = %158, %165
  %166 = phi %"struct.media::SupportedVideoDecoderConfig"* [ %167, %165 ], [ %159, %158 ]
  %167 = getelementptr inbounds %"struct.media::SupportedVideoDecoderConfig", %"struct.media::SupportedVideoDecoderConfig"* %166, i64 -1
  tail call void @_ZN5media27SupportedVideoDecoderConfigD1Ev(%"struct.media::SupportedVideoDecoderConfig"* %167) #9
  %168 = icmp eq %"struct.media::SupportedVideoDecoderConfig"* %167, %163
  br i1 %168, label %169, label %165

169:                                              ; preds = %165, %158
  %170 = icmp eq %"struct.media::SupportedVideoDecoderConfig"* %163, null
  br i1 %170, label %173, label %171

171:                                              ; preds = %169
  %172 = bitcast %"struct.media::SupportedVideoDecoderConfig"* %163 to i8*
  tail call void @_ZdlPv(i8* %172) #10
  br label %173

173:                                              ; preds = %171, %169, %40, %73, %77, %4
  %174 = phi %"struct.media::SupportedVideoDecoderConfig"* [ %1, %4 ], [ %1, %77 ], [ %1, %73 ], [ %1, %40 ], [ %113, %169 ], [ %113, %171 ]
  ret %"struct.media::SupportedVideoDecoderConfig"* %174
}

; Function Attrs: nounwind
declare void @_ZN5media22VideoDecodeAccelerator12CapabilitiesD1Ev(%"struct.media::VideoDecodeAccelerator::Capabilities"*) unnamed_addr #2

; Function Attrs: nounwind ssp uwtable
define hidden %"class.media::VideoDecoder"* @_ZN5media18GpuMojoMediaClient18CreateVideoDecoderE13scoped_refptrIN4base22SingleThreadTaskRunnerEEPNS_8MediaLogEN4mojo9StructPtrINS_5mojom15CommandBufferIdEEENS_26VideoDecoderImplementationENS2_17RepeatingCallbackIFvbNSD_IFvRKNS_11OverlayInfoEEEEEEERKN3gfx10ColorSpaceE(%"class.media::GpuMojoMediaClient"*, %"class.base::SingleThreadTaskRunner"*, %"class.media::MediaLog"*, %"class.mojo::StructPtr"* nocapture readonly, i32, %"class.base::RepeatingCallback.91"* nocapture readnone, %"class.gfx::ColorSpace"* dereferenceable(68)) unnamed_addr #0 align 2 {
  %8 = alloca %"class.base::RepeatingCallback.200", align 8
  %9 = getelementptr inbounds %"class.mojo::StructPtr", %"class.mojo::StructPtr"* %3, i64 0, i32 0, i32 0, i32 0, i32 0
  %10 = load %"class.media::mojom::CommandBufferId"*, %"class.media::mojom::CommandBufferId"** %9, align 8
  %11 = icmp ne %"class.media::mojom::CommandBufferId"* %10, null
  %12 = icmp eq i32 %4, 0
  %13 = and i1 %12, %11
  br i1 %13, label %14, label %63

14:                                               ; preds = %7
  %15 = getelementptr inbounds %"class.media::GpuMojoMediaClient", %"class.media::GpuMojoMediaClient"* %0, i64 0, i32 1
  %16 = icmp eq %"class.base::SingleThreadTaskRunner"* %1, null
  br i1 %16, label %20, label %17

17:                                               ; preds = %14
  %18 = getelementptr inbounds %"class.base::SingleThreadTaskRunner", %"class.base::SingleThreadTaskRunner"* %1, i64 0, i32 0, i32 0, i32 1, i32 0, i32 0, i32 0, i32 0, i32 0, i32 0, i32 0, i32 0
  %19 = atomicrmw add i32* %18, i32 1 monotonic
  br label %20

20:                                               ; preds = %14, %17
  %21 = getelementptr inbounds %"class.media::GpuMojoMediaClient", %"class.media::GpuMojoMediaClient"* %0, i64 0, i32 4, i32 0
  %22 = load %"class.base::SingleThreadTaskRunner"*, %"class.base::SingleThreadTaskRunner"** %21, align 8
  %23 = icmp eq %"class.base::SingleThreadTaskRunner"* %22, null
  br i1 %23, label %27, label %24

24:                                               ; preds = %20
  %25 = getelementptr inbounds %"class.base::SingleThreadTaskRunner", %"class.base::SingleThreadTaskRunner"* %22, i64 0, i32 0, i32 0, i32 1, i32 0, i32 0, i32 0, i32 0, i32 0, i32 0, i32 0, i32 0
  %26 = atomicrmw add i32* %25, i32 1 monotonic
  br label %27

27:                                               ; preds = %20, %24
  %28 = bitcast %"class.media::MediaLog"* %2 to %"class.media::MediaLog"* (%"class.media::MediaLog"*)***
  %29 = load %"class.media::MediaLog"* (%"class.media::MediaLog"*)**, %"class.media::MediaLog"* (%"class.media::MediaLog"*)*** %28, align 8
  %30 = getelementptr inbounds %"class.media::MediaLog"* (%"class.media::MediaLog"*)*, %"class.media::MediaLog"* (%"class.media::MediaLog"*)** %29, i64 2
  %31 = load %"class.media::MediaLog"* (%"class.media::MediaLog"*)*, %"class.media::MediaLog"* (%"class.media::MediaLog"*)** %30, align 8
  %32 = tail call %"class.media::MediaLog"* %31(%"class.media::MediaLog"* %2) #9
  %33 = getelementptr inbounds %"class.media::GpuMojoMediaClient", %"class.media::GpuMojoMediaClient"* %0, i64 0, i32 2
  %34 = load %"class.media::mojom::CommandBufferId"*, %"class.media::mojom::CommandBufferId"** %9, align 8
  %35 = getelementptr inbounds %"class.media::mojom::CommandBufferId", %"class.media::mojom::CommandBufferId"* %34, i64 0, i32 1
  %36 = tail call i8* @_Znwm(i64 88) #10, !noalias !3
  %37 = bitcast i8* %36 to %"class.base::internal::BindStateBase"*
  tail call void @_ZN4base8internal13BindStateBaseC2EPFvvEPFvPKS1_E(%"class.base::internal::BindStateBase"* nonnull %37, void ()* bitcast (%"class.gpu::CommandBufferStub"* (%"class.base::internal::BindStateBase"*)* @_ZN4base8internal7InvokerINS0_9BindStateIPFPN3gpu17CommandBufferStubE13scoped_refptrINS_22SingleThreadTaskRunnerEENS_7WeakPtrIN5media22MediaGpuChannelManagerEEENS_16UnguessableTokenEiEJS8_SC_SD_iEEEFS5_vEE3RunEPNS0_13BindStateBaseE to void ()*), void (%"class.base::internal::BindStateBase"*)* nonnull @_ZN4base8internal9BindStateIPFPN3gpu17CommandBufferStubE13scoped_refptrINS_22SingleThreadTaskRunnerEENS_7WeakPtrIN5media22MediaGpuChannelManagerEEENS_16UnguessableTokenEiEJS7_SB_SC_iEE7DestroyEPKNS0_13BindStateBaseE) #9, !noalias !3
  %38 = getelementptr inbounds i8, i8* %36, i64 32
  %39 = bitcast i8* %38 to i64*
  store i64 ptrtoint (%"class.gpu::CommandBufferStub"* (%"class.base::SingleThreadTaskRunner"*, %"class.base::WeakPtr"*, i64, i64, i32)* @_ZN5media12_GLOBAL__N_120GetCommandBufferStubE13scoped_refptrIN4base22SingleThreadTaskRunnerEENS2_7WeakPtrINS_22MediaGpuChannelManagerEEENS2_16UnguessableTokenEi to i64), i64* %39, align 8, !noalias !3
  %40 = load %"class.base::SingleThreadTaskRunner"*, %"class.base::SingleThreadTaskRunner"** %21, align 8, !noalias !3
  %41 = getelementptr inbounds i8, i8* %36, i64 40
  %42 = bitcast i8* %41 to %"class.base::SingleThreadTaskRunner"**
  store %"class.base::SingleThreadTaskRunner"* %40, %"class.base::SingleThreadTaskRunner"** %42, align 8, !noalias !3
  %43 = icmp eq %"class.base::SingleThreadTaskRunner"* %40, null
  br i1 %43, label %47, label %44

44:                                               ; preds = %27
  %45 = getelementptr inbounds %"class.base::SingleThreadTaskRunner", %"class.base::SingleThreadTaskRunner"* %40, i64 0, i32 0, i32 0, i32 1, i32 0, i32 0, i32 0, i32 0, i32 0, i32 0, i32 0, i32 0
  %46 = atomicrmw add i32* %45, i32 1 monotonic, !noalias !3
  br label %47

47:                                               ; preds = %27, %44
  %48 = getelementptr inbounds i8, i8* %36, i64 48
  %49 = bitcast i8* %48 to %"class.base::internal::WeakReference"*
  %50 = getelementptr inbounds %"class.media::GpuMojoMediaClient", %"class.media::GpuMojoMediaClient"* %0, i64 0, i32 5, i32 0, i32 0
  tail call void @_ZN4base8internal13WeakReferenceC1ERKS1_(%"class.base::internal::WeakReference"* %49, %"class.base::internal::WeakReference"* dereferenceable(8) %50) #9, !noalias !3
  %51 = getelementptr inbounds i8, i8* %36, i64 56
  %52 = bitcast i8* %51 to i64*
  %53 = getelementptr inbounds %"class.media::GpuMojoMediaClient", %"class.media::GpuMojoMediaClient"* %0, i64 0, i32 5, i32 0, i32 1
  %54 = load i64, i64* %53, align 8, !noalias !3
  store i64 %54, i64* %52, align 8, !noalias !3
  %55 = getelementptr inbounds i8, i8* %36, i64 64
  %56 = bitcast %"class.media::mojom::CommandBufferId"* %34 to i8*
  tail call void @llvm.memcpy.p0i8.p0i8.i64(i8* align 8 %55, i8* align 8 %56, i64 16, i1 false) #9, !noalias !3
  %57 = getelementptr inbounds i8, i8* %36, i64 80
  %58 = bitcast i8* %57 to i32*
  %59 = load i32, i32* %35, align 4, !noalias !3
  store i32 %59, i32* %58, align 4, !noalias !3
  %60 = bitcast %"class.base::RepeatingCallback.200"* %8 to i8**
  store i8* %36, i8** %60, align 8, !alias.scope !3
  %61 = call %"class.media::VideoDecoder"* @_ZN5media15VdaVideoDecoder6CreateE13scoped_refptrIN4base22SingleThreadTaskRunnerEES4_NSt3__110unique_ptrINS_8MediaLogENS5_14default_deleteIS7_EEEERKN3gfx10ColorSpaceERKN3gpu14GpuPreferencesERKNSF_23GpuDriverBugWorkaroundsENS2_17RepeatingCallbackIFPNSF_17CommandBufferStubEvEEE(%"class.base::SingleThreadTaskRunner"* %1, %"class.base::SingleThreadTaskRunner"* %22, %"class.media::MediaLog"* %32, %"class.gfx::ColorSpace"* dereferenceable(68) %6, %"struct.gpu::GpuPreferences"* dereferenceable(184) %15, %"class.gpu::GpuDriverBugWorkarounds"* dereferenceable(148) %33, %"class.base::RepeatingCallback.200"* nonnull %8) #9
  %62 = getelementptr inbounds %"class.base::RepeatingCallback.200", %"class.base::RepeatingCallback.200"* %8, i64 0, i32 0, i32 0
  call void @_ZN4base8internal12CallbackBaseD2Ev(%"class.base::internal::CallbackBase"* nonnull %62) #9
  br label %63

63:                                               ; preds = %47, %7
  %64 = phi %"class.media::VideoDecoder"* [ null, %7 ], [ %61, %47 ]
  %65 = icmp eq %"class.base::SingleThreadTaskRunner"* %1, null
  br i1 %65, label %74, label %66

66:                                               ; preds = %63
  %67 = getelementptr inbounds %"class.base::SingleThreadTaskRunner", %"class.base::SingleThreadTaskRunner"* %1, i64 0, i32 0, i32 0, i32 1
  %68 = getelementptr inbounds %"class.base::RefCountedThreadSafe", %"class.base::RefCountedThreadSafe"* %67, i64 0, i32 0, i32 0, i32 0, i32 0, i32 0, i32 0, i32 0, i32 0
  %69 = atomicrmw sub i32* %68, i32 1 acq_rel
  %70 = icmp eq i32 %69, 1
  br i1 %70, label %71, label %74

71:                                               ; preds = %66
  %72 = getelementptr inbounds %"class.base::RefCountedThreadSafe", %"class.base::RefCountedThreadSafe"* %67, i64 -2
  %73 = bitcast %"class.base::RefCountedThreadSafe"* %72 to %"class.base::TaskRunner"*
  call void @_ZN4base16TaskRunnerTraits8DestructEPKNS_10TaskRunnerE(%"class.base::TaskRunner"* %73) #9
  br label %74

74:                                               ; preds = %63, %66, %71
  ret %"class.media::VideoDecoder"* %64
}

; Function Attrs: nounwind ssp uwtable
define internal %"class.gpu::CommandBufferStub"* @_ZN5media12_GLOBAL__N_120GetCommandBufferStubE13scoped_refptrIN4base22SingleThreadTaskRunnerEENS2_7WeakPtrINS_22MediaGpuChannelManagerEEENS2_16UnguessableTokenEi(%"class.base::SingleThreadTaskRunner"*, %"class.base::WeakPtr"*, i64, i64, i32) #0 {
  %6 = alloca %"class.logging::CheckError", align 8
  %7 = alloca %"class.base::UnguessableToken", align 8
  %8 = getelementptr inbounds %"class.base::UnguessableToken", %"class.base::UnguessableToken"* %7, i64 0, i32 0, i32 0
  store i64 %2, i64* %8, align 8
  %9 = getelementptr inbounds %"class.base::UnguessableToken", %"class.base::UnguessableToken"* %7, i64 0, i32 0, i32 1
  store i64 %3, i64* %9, align 8
  %10 = getelementptr inbounds %"class.base::WeakPtr", %"class.base::WeakPtr"* %1, i64 0, i32 0, i32 0
  %11 = tail call zeroext i1 @_ZNK4base8internal13WeakReference7IsValidEv(%"class.base::internal::WeakReference"* %10) #9
  br i1 %11, label %12, label %43

12:                                               ; preds = %5
  %13 = getelementptr inbounds %"class.base::WeakPtr", %"class.base::WeakPtr"* %1, i64 0, i32 0, i32 1
  %14 = bitcast i64* %13 to %"class.media::MediaGpuChannelManager"**
  %15 = load %"class.media::MediaGpuChannelManager"*, %"class.media::MediaGpuChannelManager"** %14, align 8
  %16 = icmp eq %"class.media::MediaGpuChannelManager"* %15, null
  br i1 %16, label %43, label %17

17:                                               ; preds = %12
  %18 = tail call zeroext i1 @_ZNK4base8internal13WeakReference7IsValidEv(%"class.base::internal::WeakReference"* %10) #9
  br i1 %18, label %22, label %19

19:                                               ; preds = %17
  %20 = bitcast %"class.logging::CheckError"* %6 to i8*
  call void @llvm.lifetime.start.p0i8(i64 8, i8* nonnull %20) #9
  call void @_ZN7logging10CheckError5CheckEPKciS2_(%"class.logging::CheckError"* nonnull sret %6, i8* getelementptr inbounds ([29 x i8], [29 x i8]* @.str, i64 0, i64 0), i32 255, i8* getelementptr inbounds ([15 x i8], [15 x i8]* @.str.1, i64 0, i64 0)) #9
  %21 = call dereferenceable(160) %"class.std::__1::basic_ostream"* @_ZN7logging10CheckError6streamEv(%"class.logging::CheckError"* nonnull %6) #9
  call void @_ZN7logging10CheckErrorD1Ev(%"class.logging::CheckError"* nonnull %6) #9
  call void @llvm.lifetime.end.p0i8(i64 8, i8* nonnull %20) #9
  br label %22

22:                                               ; preds = %19, %17
  %23 = call zeroext i1 @_ZNK4base8internal13WeakReference7IsValidEv(%"class.base::internal::WeakReference"* %10) #9
  br i1 %23, label %24, label %26

24:                                               ; preds = %22
  %25 = load %"class.media::MediaGpuChannelManager"*, %"class.media::MediaGpuChannelManager"** %14, align 8
  br label %26

26:                                               ; preds = %22, %24
  %27 = phi %"class.media::MediaGpuChannelManager"* [ %25, %24 ], [ null, %22 ]
  %28 = call %"class.gpu::GpuChannel"* @_ZN5media22MediaGpuChannelManager13LookupChannelERKN4base16UnguessableTokenE(%"class.media::MediaGpuChannelManager"* %27, %"class.base::UnguessableToken"* nonnull dereferenceable(16) %7) #9
  %29 = icmp eq %"class.gpu::GpuChannel"* %28, null
  br i1 %29, label %43, label %30

30:                                               ; preds = %26
  %31 = call %"class.gpu::CommandBufferStub"* @_ZN3gpu10GpuChannel19LookupCommandBufferEi(%"class.gpu::GpuChannel"* nonnull %28, i32 %4) #9
  %32 = icmp eq %"class.gpu::CommandBufferStub"* %31, null
  br i1 %32, label %43, label %33

33:                                               ; preds = %30
  %34 = getelementptr inbounds %"class.gpu::CommandBufferStub", %"class.gpu::CommandBufferStub"* %31, i64 0, i32 24, i32 0, i32 0, i32 0
  %35 = load %"class.gpu::DecoderContext"*, %"class.gpu::DecoderContext"** %34, align 8
  %36 = bitcast %"class.gpu::DecoderContext"* %35 to %"class.gpu::gles2::ContextGroup"* (%"class.gpu::DecoderContext"*)***
  %37 = load %"class.gpu::gles2::ContextGroup"* (%"class.gpu::DecoderContext"*)**, %"class.gpu::gles2::ContextGroup"* (%"class.gpu::DecoderContext"*)*** %36, align 8
  %38 = getelementptr inbounds %"class.gpu::gles2::ContextGroup"* (%"class.gpu::DecoderContext"*)*, %"class.gpu::gles2::ContextGroup"* (%"class.gpu::DecoderContext"*)** %37, i64 29
  %39 = load %"class.gpu::gles2::ContextGroup"* (%"class.gpu::DecoderContext"*)*, %"class.gpu::gles2::ContextGroup"* (%"class.gpu::DecoderContext"*)** %38, align 8
  %40 = call %"class.gpu::gles2::ContextGroup"* %39(%"class.gpu::DecoderContext"* %35) #9
  %41 = icmp eq %"class.gpu::gles2::ContextGroup"* %40, null
  %42 = select i1 %41, %"class.gpu::CommandBufferStub"* null, %"class.gpu::CommandBufferStub"* %31
  br label %43

43:                                               ; preds = %12, %5, %26, %33, %30
  %44 = phi %"class.gpu::CommandBufferStub"* [ null, %12 ], [ null, %26 ], [ null, %30 ], [ %42, %33 ], [ null, %5 ]
  %45 = icmp eq %"class.base::SingleThreadTaskRunner"* %0, null
  br i1 %45, label %54, label %46

46:                                               ; preds = %43
  %47 = getelementptr inbounds %"class.base::SingleThreadTaskRunner", %"class.base::SingleThreadTaskRunner"* %0, i64 0, i32 0, i32 0, i32 1
  %48 = getelementptr inbounds %"class.base::RefCountedThreadSafe", %"class.base::RefCountedThreadSafe"* %47, i64 0, i32 0, i32 0, i32 0, i32 0, i32 0, i32 0, i32 0, i32 0
  %49 = atomicrmw sub i32* %48, i32 1 acq_rel
  %50 = icmp eq i32 %49, 1
  br i1 %50, label %51, label %54

51:                                               ; preds = %46
  %52 = getelementptr inbounds %"class.base::RefCountedThreadSafe", %"class.base::RefCountedThreadSafe"* %47, i64 -2
  %53 = bitcast %"class.base::RefCountedThreadSafe"* %52 to %"class.base::TaskRunner"*
  call void @_ZN4base16TaskRunnerTraits8DestructEPKNS_10TaskRunnerE(%"class.base::TaskRunner"* %53) #9
  br label %54

54:                                               ; preds = %43, %46, %51
  ret %"class.gpu::CommandBufferStub"* %44
}

declare %"class.media::VideoDecoder"* @_ZN5media15VdaVideoDecoder6CreateE13scoped_refptrIN4base22SingleThreadTaskRunnerEES4_NSt3__110unique_ptrINS_8MediaLogENS5_14default_deleteIS7_EEEERKN3gfx10ColorSpaceERKN3gpu14GpuPreferencesERKNSF_23GpuDriverBugWorkaroundsENS2_17RepeatingCallbackIFPNSF_17CommandBufferStubEvEEE(%"class.base::SingleThreadTaskRunner"*, %"class.base::SingleThreadTaskRunner"*, %"class.media::MediaLog"*, %"class.gfx::ColorSpace"* dereferenceable(68), %"struct.gpu::GpuPreferences"* dereferenceable(184), %"class.gpu::GpuDriverBugWorkarounds"* dereferenceable(148), %"class.base::RepeatingCallback.200"*) local_unnamed_addr #1

; Function Attrs: norecurse nounwind readnone ssp uwtable
define hidden %"class.media::CdmFactory"* @_ZN5media18GpuMojoMediaClient16CreateCdmFactoryEPNS_5mojom21FrameInterfaceFactoryE(%"class.media::GpuMojoMediaClient"* nocapture readnone, %"class.media::mojom::FrameInterfaceFactory"* nocapture readnone) unnamed_addr #5 align 2 {
  ret %"class.media::CdmFactory"* null
}

declare void @_ZN5media15MojoMediaClient10InitializeEv(%"class.media::MojoMediaClient"*) unnamed_addr #1

declare void @_ZN5media15MojoMediaClient14CreateRendererEPNS_5mojom21FrameInterfaceFactoryE13scoped_refptrIN4base22SingleThreadTaskRunnerEEPNS_8MediaLogERKNSt3__112basic_stringIcNSA_11char_traitsIcEENSA_9allocatorIcEEEE() unnamed_addr

; Function Attrs: nounwind
declare void @_ZN4base8internal13WeakReferenceC1EOS1_(%"class.base::internal::WeakReference"*, %"class.base::internal::WeakReference"* dereferenceable(8)) unnamed_addr #2

; Function Attrs: argmemonly nounwind
declare void @llvm.memset.p0i8.i64(i8* nocapture writeonly, i8, i64, i1 immarg) #4

declare %"class.gpu::GpuChannel"* @_ZN5media22MediaGpuChannelManager13LookupChannelERKN4base16UnguessableTokenE(%"class.media::MediaGpuChannelManager"*, %"class.base::UnguessableToken"* dereferenceable(16)) local_unnamed_addr #1

declare %"class.gpu::CommandBufferStub"* @_ZN3gpu10GpuChannel19LookupCommandBufferEi(%"class.gpu::GpuChannel"*, i32) local_unnamed_addr #1

declare zeroext i1 @_ZNK4base8internal13WeakReference7IsValidEv(%"class.base::internal::WeakReference"*) local_unnamed_addr #1

declare void @_ZN7logging10CheckError5CheckEPKciS2_(%"class.logging::CheckError"* sret, i8*, i32, i8*) local_unnamed_addr #1

declare dereferenceable(160) %"class.std::__1::basic_ostream"* @_ZN7logging10CheckError6streamEv(%"class.logging::CheckError"*) local_unnamed_addr #1

; Function Attrs: nounwind
declare void @_ZN7logging10CheckErrorD1Ev(%"class.logging::CheckError"*) unnamed_addr #2

declare void @_ZN4base16TaskRunnerTraits8DestructEPKNS_10TaskRunnerE(%"class.base::TaskRunner"*) local_unnamed_addr #1

; Function Attrs: nounwind
declare void @_ZN5media27SupportedVideoDecoderConfigD1Ev(%"struct.media::SupportedVideoDecoderConfig"*) unnamed_addr #2

; Function Attrs: argmemonly nounwind
declare void @llvm.memcpy.p0i8.p0i8.i64(i8* nocapture writeonly, i8* nocapture readonly, i64, i1 immarg) #4

; Function Attrs: nounwind ssp uwtable
define linkonce_odr hidden %"struct.std::__1::pair"* @_ZNSt3__16vectorINS_4pairIN5media26VideoDecoderImplementationENS0_INS2_27SupportedVideoDecoderConfigENS_9allocatorIS4_EEEEEENS5_IS8_EEE7emplaceIJS3_S7_EEENS_11__wrap_iterIPS8_EENSC_IPKS8_EEDpOT_(%"class.std::__1::vector.55"*, %"struct.std::__1::pair"*, i32* dereferenceable(4), %"class.std::__1::vector.45"* dereferenceable(24)) local_unnamed_addr #0 comdat align 2 {
  %5 = ptrtoint %"struct.std::__1::pair"* %1 to i64
  %6 = alloca %"struct.std::__1::__split_buffer.749", align 8
  %7 = getelementptr inbounds %"class.std::__1::vector.55", %"class.std::__1::vector.55"* %0, i64 0, i32 0, i32 0
  %8 = getelementptr inbounds %"class.std::__1::vector.55", %"class.std::__1::vector.55"* %0, i64 0, i32 0, i32 1
  %9 = load %"struct.std::__1::pair"*, %"struct.std::__1::pair"** %8, align 8
  %10 = getelementptr inbounds %"class.std::__1::vector.55", %"class.std::__1::vector.55"* %0, i64 0, i32 0, i32 2, i32 0, i32 0
  %11 = load %"struct.std::__1::pair"*, %"struct.std::__1::pair"** %10, align 8
  %12 = icmp ult %"struct.std::__1::pair"* %9, %11
  %13 = ptrtoint %"struct.std::__1::pair"* %11 to i64
  br i1 %12, label %14, label %72

14:                                               ; preds = %4
  %15 = icmp eq %"struct.std::__1::pair"* %9, %1
  br i1 %15, label %16, label %38

16:                                               ; preds = %14
  %17 = getelementptr inbounds %"struct.std::__1::pair", %"struct.std::__1::pair"* %1, i64 0, i32 0
  %18 = load i32, i32* %2, align 4
  store i32 %18, i32* %17, align 8
  %19 = getelementptr inbounds %"struct.std::__1::pair", %"struct.std::__1::pair"* %1, i64 0, i32 1
  %20 = bitcast %"class.std::__1::vector.45"* %19 to i8*
  tail call void @llvm.memset.p0i8.i64(i8* align 8 %20, i8 0, i64 24, i1 false) #9
  %21 = bitcast %"class.std::__1::vector.45"* %3 to i64*
  %22 = load i64, i64* %21, align 8
  %23 = bitcast %"class.std::__1::vector.45"* %19 to i64*
  store i64 %22, i64* %23, align 8
  %24 = getelementptr inbounds %"class.std::__1::vector.45", %"class.std::__1::vector.45"* %3, i64 0, i32 0, i32 1
  %25 = bitcast %"struct.media::SupportedVideoDecoderConfig"** %24 to i64*
  %26 = load i64, i64* %25, align 8
  %27 = getelementptr inbounds %"struct.std::__1::pair", %"struct.std::__1::pair"* %1, i64 0, i32 1, i32 0, i32 1
  %28 = bitcast %"struct.media::SupportedVideoDecoderConfig"** %27 to i64*
  store i64 %26, i64* %28, align 8
  %29 = getelementptr inbounds %"class.std::__1::vector.45", %"class.std::__1::vector.45"* %3, i64 0, i32 0, i32 2, i32 0, i32 0
  %30 = bitcast %"struct.media::SupportedVideoDecoderConfig"** %29 to i64*
  %31 = load i64, i64* %30, align 8
  %32 = getelementptr inbounds %"struct.std::__1::pair", %"struct.std::__1::pair"* %1, i64 0, i32 1, i32 0, i32 2, i32 0, i32 0
  %33 = bitcast %"struct.media::SupportedVideoDecoderConfig"** %32 to i64*
  store i64 %31, i64* %33, align 8
  %34 = bitcast %"class.std::__1::vector.45"* %3 to i8*
  tail call void @llvm.memset.p0i8.i64(i8* align 8 %34, i8 0, i64 24, i1 false) #9
  %35 = getelementptr inbounds %"struct.std::__1::pair", %"struct.std::__1::pair"* %1, i64 1
  %36 = ptrtoint %"struct.std::__1::pair"* %35 to i64
  %37 = bitcast %"struct.std::__1::pair"** %8 to i64*
  store i64 %36, i64* %37, align 8
  br label %360

38:                                               ; preds = %14
  %39 = load i32, i32* %2, align 4
  %40 = bitcast %"class.std::__1::vector.45"* %3 to <2 x i64>*
  %41 = load <2 x i64>, <2 x i64>* %40, align 8
  %42 = getelementptr inbounds %"class.std::__1::vector.45", %"class.std::__1::vector.45"* %3, i64 0, i32 0, i32 2, i32 0, i32 0
  %43 = bitcast %"struct.media::SupportedVideoDecoderConfig"** %42 to i64*
  %44 = load i64, i64* %43, align 8
  %45 = bitcast %"class.std::__1::vector.45"* %3 to i8*
  tail call void @llvm.memset.p0i8.i64(i8* align 8 %45, i8 0, i64 24, i1 false) #9
  %46 = load %"struct.std::__1::pair"*, %"struct.std::__1::pair"** %8, align 8
  %47 = getelementptr inbounds %"struct.std::__1::pair", %"struct.std::__1::pair"* %1, i64 1
  tail call void @_ZNSt3__16vectorINS_4pairIN5media26VideoDecoderImplementationENS0_INS2_27SupportedVideoDecoderConfigENS_9allocatorIS4_EEEEEENS5_IS8_EEE12__move_rangeEPS8_SB_SB_(%"class.std::__1::vector.55"* %0, %"struct.std::__1::pair"* %1, %"struct.std::__1::pair"* %46, %"struct.std::__1::pair"* %47)
  %48 = getelementptr inbounds %"struct.std::__1::pair", %"struct.std::__1::pair"* %1, i64 0, i32 0
  store i32 %39, i32* %48, align 8
  %49 = getelementptr inbounds %"struct.std::__1::pair", %"struct.std::__1::pair"* %1, i64 0, i32 1
  %50 = getelementptr inbounds %"class.std::__1::vector.45", %"class.std::__1::vector.45"* %49, i64 0, i32 0, i32 0
  %51 = load %"struct.media::SupportedVideoDecoderConfig"*, %"struct.media::SupportedVideoDecoderConfig"** %50, align 8
  %52 = icmp eq %"struct.media::SupportedVideoDecoderConfig"* %51, null
  br i1 %52, label %68, label %53

53:                                               ; preds = %38
  %54 = bitcast %"struct.media::SupportedVideoDecoderConfig"* %51 to i8*
  %55 = getelementptr inbounds %"struct.std::__1::pair", %"struct.std::__1::pair"* %1, i64 0, i32 1, i32 0, i32 1
  %56 = load %"struct.media::SupportedVideoDecoderConfig"*, %"struct.media::SupportedVideoDecoderConfig"** %55, align 8
  %57 = icmp eq %"struct.media::SupportedVideoDecoderConfig"* %56, %51
  br i1 %57, label %65, label %58

58:                                               ; preds = %53, %58
  %59 = phi %"struct.media::SupportedVideoDecoderConfig"* [ %60, %58 ], [ %56, %53 ]
  %60 = getelementptr inbounds %"struct.media::SupportedVideoDecoderConfig", %"struct.media::SupportedVideoDecoderConfig"* %59, i64 -1
  tail call void @_ZN5media27SupportedVideoDecoderConfigD1Ev(%"struct.media::SupportedVideoDecoderConfig"* %60) #9
  %61 = icmp eq %"struct.media::SupportedVideoDecoderConfig"* %60, %51
  br i1 %61, label %62, label %58

62:                                               ; preds = %58
  %63 = bitcast %"class.std::__1::vector.45"* %49 to i8**
  %64 = load i8*, i8** %63, align 8
  br label %65

65:                                               ; preds = %62, %53
  %66 = phi i8* [ %64, %62 ], [ %54, %53 ]
  store %"struct.media::SupportedVideoDecoderConfig"* %51, %"struct.media::SupportedVideoDecoderConfig"** %55, align 8
  tail call void @_ZdlPv(i8* %66) #10
  %67 = bitcast %"class.std::__1::vector.45"* %49 to i8*
  tail call void @llvm.memset.p0i8.i64(i8* align 8 %67, i8 0, i64 24, i1 false) #9
  br label %68

68:                                               ; preds = %65, %38
  %69 = bitcast %"class.std::__1::vector.45"* %49 to <2 x i64>*
  store <2 x i64> %41, <2 x i64>* %69, align 8
  %70 = getelementptr inbounds %"struct.std::__1::pair", %"struct.std::__1::pair"* %1, i64 0, i32 1, i32 0, i32 2, i32 0, i32 0
  %71 = bitcast %"struct.media::SupportedVideoDecoderConfig"** %70 to i64*
  store i64 %44, i64* %71, align 8
  br label %360

72:                                               ; preds = %4
  %73 = ptrtoint %"struct.std::__1::pair"* %9 to i64
  %74 = getelementptr inbounds %"class.std::__1::vector.55", %"class.std::__1::vector.55"* %0, i64 0, i32 0, i32 2
  %75 = bitcast %"struct.std::__1::__split_buffer.749"* %6 to i8*
  call void @llvm.lifetime.start.p0i8(i64 40, i8* nonnull %75) #9
  %76 = getelementptr inbounds %"struct.std::__1::__split_buffer.749", %"struct.std::__1::__split_buffer.749"* %6, i64 0, i32 0
  %77 = getelementptr inbounds %"struct.std::__1::__split_buffer.749", %"struct.std::__1::__split_buffer.749"* %6, i64 0, i32 1
  %78 = getelementptr inbounds %"struct.std::__1::__split_buffer.749", %"struct.std::__1::__split_buffer.749"* %6, i64 0, i32 2
  %79 = getelementptr inbounds %"struct.std::__1::__split_buffer.749", %"struct.std::__1::__split_buffer.749"* %6, i64 0, i32 3, i32 0, i32 0
  %80 = getelementptr inbounds %"struct.std::__1::__split_buffer.749", %"struct.std::__1::__split_buffer.749"* %6, i64 0, i32 3, i32 1, i32 0
  %81 = bitcast %"struct.std::__1::pair"** %8 to i64*
  %82 = bitcast %"class.std::__1::vector.55"* %0 to i64*
  %83 = bitcast %"struct.std::__1::__split_buffer.749"* %6 to i8*
  call void @llvm.memset.p0i8.i64(i8* nonnull align 8 %83, i8 -86, i64 40, i1 false)
  %84 = load i64, i64* %82, align 8
  %85 = sub i64 %73, %84
  %86 = ashr exact i64 %85, 5
  %87 = add nsw i64 %86, 1
  %88 = icmp ugt i64 %87, 576460752303423487
  br i1 %88, label %89, label %91

89:                                               ; preds = %72
  %90 = bitcast %"class.std::__1::vector.55"* %0 to %"class.std::__1::__vector_base_common"*
  tail call void @_ZNKSt3__120__vector_base_commonILb1EE20__throw_length_errorEv(%"class.std::__1::__vector_base_common"* %90) #11
  unreachable

91:                                               ; preds = %72
  %92 = bitcast %"struct.std::__1::pair"** %10 to i64*
  %93 = sub i64 %13, %84
  %94 = ashr exact i64 %93, 5
  %95 = icmp ult i64 %94, 288230376151711743
  br i1 %95, label %100, label %96

96:                                               ; preds = %91
  %97 = sub i64 %5, %84
  %98 = ashr exact i64 %97, 5
  store %"struct.std::__1::pair"* null, %"struct.std::__1::pair"** %79, align 8
  %99 = bitcast %"class.std::__1::allocator.60"** %80 to %"class.std::__1::__compressed_pair.57"**
  store %"class.std::__1::__compressed_pair.57"* %74, %"class.std::__1::__compressed_pair.57"** %99, align 8
  br label %111

100:                                              ; preds = %91
  %101 = ashr exact i64 %93, 4
  %102 = icmp ult i64 %101, %87
  %103 = select i1 %102, i64 %87, i64 %101
  %104 = sub i64 %5, %84
  %105 = ashr exact i64 %104, 5
  store %"struct.std::__1::pair"* null, %"struct.std::__1::pair"** %79, align 8
  %106 = bitcast %"class.std::__1::allocator.60"** %80 to %"class.std::__1::__compressed_pair.57"**
  store %"class.std::__1::__compressed_pair.57"* %74, %"class.std::__1::__compressed_pair.57"** %106, align 8
  %107 = icmp eq i64 %103, 0
  br i1 %107, label %117, label %108

108:                                              ; preds = %100
  %109 = icmp ugt i64 %103, 576460752303423487
  br i1 %109, label %110, label %111

110:                                              ; preds = %108
  tail call void @abort() #11
  unreachable

111:                                              ; preds = %96, %108
  %112 = phi i64 [ 576460752303423487, %96 ], [ %103, %108 ]
  %113 = phi i64 [ %98, %96 ], [ %105, %108 ]
  %114 = shl i64 %112, 5
  %115 = tail call i8* @_Znwm(i64 %114) #10
  %116 = bitcast i8* %115 to %"struct.std::__1::pair"*
  br label %117

117:                                              ; preds = %100, %111
  %118 = phi i64 [ %113, %111 ], [ %105, %100 ]
  %119 = phi i64 [ %112, %111 ], [ 0, %100 ]
  %120 = phi %"struct.std::__1::pair"* [ %116, %111 ], [ null, %100 ]
  store %"struct.std::__1::pair"* %120, %"struct.std::__1::pair"** %76, align 8
  %121 = getelementptr inbounds %"struct.std::__1::pair", %"struct.std::__1::pair"* %120, i64 %118
  store %"struct.std::__1::pair"* %121, %"struct.std::__1::pair"** %78, align 8
  store %"struct.std::__1::pair"* %121, %"struct.std::__1::pair"** %77, align 8
  %122 = getelementptr inbounds %"struct.std::__1::pair", %"struct.std::__1::pair"* %120, i64 %119
  store %"struct.std::__1::pair"* %122, %"struct.std::__1::pair"** %79, align 8
  call void @_ZNSt3__114__split_bufferINS_4pairIN5media26VideoDecoderImplementationENS_6vectorINS2_27SupportedVideoDecoderConfigENS_9allocatorIS5_EEEEEERNS6_IS9_EEE12emplace_backIJS3_S8_EEEvDpOT_(%"struct.std::__1::__split_buffer.749"* nonnull %6, i32* dereferenceable(4) %2, %"class.std::__1::vector.45"* dereferenceable(24) %3)
  %123 = load %"struct.std::__1::pair"*, %"struct.std::__1::pair"** %77, align 8
  %124 = load %"struct.std::__1::pair"*, %"struct.std::__1::pair"** %7, align 8
  %125 = icmp eq %"struct.std::__1::pair"* %124, %1
  br i1 %125, label %211, label %126

126:                                              ; preds = %117
  %127 = ptrtoint %"struct.std::__1::pair"* %124 to i64
  %128 = getelementptr %"struct.std::__1::pair", %"struct.std::__1::pair"* %1, i64 -1, i32 0
  %129 = ptrtoint i32* %128 to i64
  %130 = sub i64 %129, %127
  %131 = and i64 %130, 32
  %132 = icmp eq i64 %131, 0
  br i1 %132, label %133, label %157

133:                                              ; preds = %126
  %134 = getelementptr inbounds %"struct.std::__1::pair", %"struct.std::__1::pair"* %1, i64 -1
  %135 = getelementptr inbounds %"struct.std::__1::pair", %"struct.std::__1::pair"* %123, i64 -1, i32 0
  %136 = getelementptr inbounds %"struct.std::__1::pair", %"struct.std::__1::pair"* %134, i64 0, i32 0
  %137 = load i32, i32* %136, align 8
  store i32 %137, i32* %135, align 8
  %138 = getelementptr inbounds %"struct.std::__1::pair", %"struct.std::__1::pair"* %123, i64 -1, i32 1
  %139 = getelementptr inbounds %"struct.std::__1::pair", %"struct.std::__1::pair"* %1, i64 -1, i32 1
  %140 = bitcast %"class.std::__1::vector.45"* %138 to i8*
  call void @llvm.memset.p0i8.i64(i8* align 8 %140, i8 0, i64 24, i1 false) #9
  %141 = bitcast %"class.std::__1::vector.45"* %139 to i64*
  %142 = load i64, i64* %141, align 8
  %143 = bitcast %"class.std::__1::vector.45"* %138 to i64*
  store i64 %142, i64* %143, align 8
  %144 = getelementptr inbounds %"struct.std::__1::pair", %"struct.std::__1::pair"* %1, i64 -1, i32 1, i32 0, i32 1
  %145 = bitcast %"struct.media::SupportedVideoDecoderConfig"** %144 to i64*
  %146 = load i64, i64* %145, align 8
  %147 = getelementptr inbounds %"struct.std::__1::pair", %"struct.std::__1::pair"* %123, i64 -1, i32 1, i32 0, i32 1
  %148 = bitcast %"struct.media::SupportedVideoDecoderConfig"** %147 to i64*
  store i64 %146, i64* %148, align 8
  %149 = getelementptr inbounds %"struct.std::__1::pair", %"struct.std::__1::pair"* %1, i64 -1, i32 1, i32 0, i32 2, i32 0, i32 0
  %150 = bitcast %"struct.media::SupportedVideoDecoderConfig"** %149 to i64*
  %151 = load i64, i64* %150, align 8
  %152 = getelementptr inbounds %"struct.std::__1::pair", %"struct.std::__1::pair"* %123, i64 -1, i32 1, i32 0, i32 2, i32 0, i32 0
  %153 = bitcast %"struct.media::SupportedVideoDecoderConfig"** %152 to i64*
  store i64 %151, i64* %153, align 8
  %154 = bitcast %"class.std::__1::vector.45"* %139 to i8*
  call void @llvm.memset.p0i8.i64(i8* align 8 %154, i8 0, i64 24, i1 false) #9
  %155 = load %"struct.std::__1::pair"*, %"struct.std::__1::pair"** %77, align 8
  %156 = getelementptr inbounds %"struct.std::__1::pair", %"struct.std::__1::pair"* %155, i64 -1
  store %"struct.std::__1::pair"* %156, %"struct.std::__1::pair"** %77, align 8
  br label %157

157:                                              ; preds = %133, %126
  %158 = phi %"struct.std::__1::pair"* [ undef, %126 ], [ %156, %133 ]
  %159 = phi %"struct.std::__1::pair"* [ %123, %126 ], [ %156, %133 ]
  %160 = phi %"struct.std::__1::pair"* [ %1, %126 ], [ %134, %133 ]
  %161 = icmp ult i64 %130, 32
  br i1 %161, label %211, label %162

162:                                              ; preds = %157, %162
  %163 = phi %"struct.std::__1::pair"* [ %209, %162 ], [ %159, %157 ]
  %164 = phi %"struct.std::__1::pair"* [ %187, %162 ], [ %160, %157 ]
  %165 = getelementptr inbounds %"struct.std::__1::pair", %"struct.std::__1::pair"* %163, i64 -1, i32 0
  %166 = getelementptr inbounds %"struct.std::__1::pair", %"struct.std::__1::pair"* %164, i64 -1, i32 0
  %167 = load i32, i32* %166, align 8
  store i32 %167, i32* %165, align 8
  %168 = getelementptr inbounds %"struct.std::__1::pair", %"struct.std::__1::pair"* %163, i64 -1, i32 1
  %169 = getelementptr inbounds %"struct.std::__1::pair", %"struct.std::__1::pair"* %164, i64 -1, i32 1
  %170 = bitcast %"class.std::__1::vector.45"* %168 to i8*
  call void @llvm.memset.p0i8.i64(i8* align 8 %170, i8 0, i64 24, i1 false) #9
  %171 = bitcast %"class.std::__1::vector.45"* %169 to i64*
  %172 = load i64, i64* %171, align 8
  %173 = bitcast %"class.std::__1::vector.45"* %168 to i64*
  store i64 %172, i64* %173, align 8
  %174 = getelementptr inbounds %"struct.std::__1::pair", %"struct.std::__1::pair"* %164, i64 -1, i32 1, i32 0, i32 1
  %175 = bitcast %"struct.media::SupportedVideoDecoderConfig"** %174 to i64*
  %176 = load i64, i64* %175, align 8
  %177 = getelementptr inbounds %"struct.std::__1::pair", %"struct.std::__1::pair"* %163, i64 -1, i32 1, i32 0, i32 1
  %178 = bitcast %"struct.media::SupportedVideoDecoderConfig"** %177 to i64*
  store i64 %176, i64* %178, align 8
  %179 = getelementptr inbounds %"struct.std::__1::pair", %"struct.std::__1::pair"* %164, i64 -1, i32 1, i32 0, i32 2, i32 0, i32 0
  %180 = bitcast %"struct.media::SupportedVideoDecoderConfig"** %179 to i64*
  %181 = load i64, i64* %180, align 8
  %182 = getelementptr inbounds %"struct.std::__1::pair", %"struct.std::__1::pair"* %163, i64 -1, i32 1, i32 0, i32 2, i32 0, i32 0
  %183 = bitcast %"struct.media::SupportedVideoDecoderConfig"** %182 to i64*
  store i64 %181, i64* %183, align 8
  %184 = bitcast %"class.std::__1::vector.45"* %169 to i8*
  call void @llvm.memset.p0i8.i64(i8* align 8 %184, i8 0, i64 24, i1 false) #9
  %185 = load %"struct.std::__1::pair"*, %"struct.std::__1::pair"** %77, align 8
  %186 = getelementptr inbounds %"struct.std::__1::pair", %"struct.std::__1::pair"* %185, i64 -1
  store %"struct.std::__1::pair"* %186, %"struct.std::__1::pair"** %77, align 8
  %187 = getelementptr inbounds %"struct.std::__1::pair", %"struct.std::__1::pair"* %164, i64 -2
  %188 = getelementptr inbounds %"struct.std::__1::pair", %"struct.std::__1::pair"* %185, i64 -2, i32 0
  %189 = getelementptr inbounds %"struct.std::__1::pair", %"struct.std::__1::pair"* %187, i64 0, i32 0
  %190 = load i32, i32* %189, align 8
  store i32 %190, i32* %188, align 8
  %191 = getelementptr inbounds %"struct.std::__1::pair", %"struct.std::__1::pair"* %185, i64 -2, i32 1
  %192 = getelementptr inbounds %"struct.std::__1::pair", %"struct.std::__1::pair"* %164, i64 -2, i32 1
  %193 = bitcast %"class.std::__1::vector.45"* %191 to i8*
  call void @llvm.memset.p0i8.i64(i8* align 8 %193, i8 0, i64 24, i1 false) #9
  %194 = bitcast %"class.std::__1::vector.45"* %192 to i64*
  %195 = load i64, i64* %194, align 8
  %196 = bitcast %"class.std::__1::vector.45"* %191 to i64*
  store i64 %195, i64* %196, align 8
  %197 = getelementptr inbounds %"struct.std::__1::pair", %"struct.std::__1::pair"* %164, i64 -2, i32 1, i32 0, i32 1
  %198 = bitcast %"struct.media::SupportedVideoDecoderConfig"** %197 to i64*
  %199 = load i64, i64* %198, align 8
  %200 = getelementptr inbounds %"struct.std::__1::pair", %"struct.std::__1::pair"* %185, i64 -2, i32 1, i32 0, i32 1
  %201 = bitcast %"struct.media::SupportedVideoDecoderConfig"** %200 to i64*
  store i64 %199, i64* %201, align 8
  %202 = getelementptr inbounds %"struct.std::__1::pair", %"struct.std::__1::pair"* %164, i64 -2, i32 1, i32 0, i32 2, i32 0, i32 0
  %203 = bitcast %"struct.media::SupportedVideoDecoderConfig"** %202 to i64*
  %204 = load i64, i64* %203, align 8
  %205 = getelementptr inbounds %"struct.std::__1::pair", %"struct.std::__1::pair"* %185, i64 -2, i32 1, i32 0, i32 2, i32 0, i32 0
  %206 = bitcast %"struct.media::SupportedVideoDecoderConfig"** %205 to i64*
  store i64 %204, i64* %206, align 8
  %207 = bitcast %"class.std::__1::vector.45"* %192 to i8*
  call void @llvm.memset.p0i8.i64(i8* align 8 %207, i8 0, i64 24, i1 false) #9
  %208 = load %"struct.std::__1::pair"*, %"struct.std::__1::pair"** %77, align 8
  %209 = getelementptr inbounds %"struct.std::__1::pair", %"struct.std::__1::pair"* %208, i64 -1
  store %"struct.std::__1::pair"* %209, %"struct.std::__1::pair"** %77, align 8
  %210 = icmp eq %"struct.std::__1::pair"* %187, %124
  br i1 %210, label %211, label %162

211:                                              ; preds = %157, %162, %117
  %212 = phi %"struct.std::__1::pair"* [ %123, %117 ], [ %158, %157 ], [ %209, %162 ]
  %213 = load %"struct.std::__1::pair"*, %"struct.std::__1::pair"** %8, align 8
  %214 = icmp eq %"struct.std::__1::pair"* %213, %1
  br i1 %214, label %215, label %221

215:                                              ; preds = %211
  %216 = ptrtoint %"struct.std::__1::pair"* %213 to i64
  %217 = ptrtoint %"struct.std::__1::pair"* %212 to i64
  %218 = bitcast %"struct.std::__1::pair"** %77 to i64*
  %219 = bitcast %"struct.std::__1::pair"** %78 to i64*
  %220 = load i64, i64* %219, align 8
  br label %313

221:                                              ; preds = %211
  %222 = load %"struct.std::__1::pair"*, %"struct.std::__1::pair"** %78, align 8
  %223 = getelementptr %"struct.std::__1::pair", %"struct.std::__1::pair"* %213, i64 -1, i32 0
  %224 = ptrtoint i32* %223 to i64
  %225 = sub i64 %224, %5
  %226 = and i64 %225, 32
  %227 = icmp eq i64 %226, 0
  br i1 %227, label %228, label %252

228:                                              ; preds = %221
  %229 = getelementptr inbounds %"struct.std::__1::pair", %"struct.std::__1::pair"* %222, i64 0, i32 0
  %230 = getelementptr inbounds %"struct.std::__1::pair", %"struct.std::__1::pair"* %1, i64 0, i32 0
  %231 = load i32, i32* %230, align 8
  store i32 %231, i32* %229, align 8
  %232 = getelementptr inbounds %"struct.std::__1::pair", %"struct.std::__1::pair"* %222, i64 0, i32 1
  %233 = getelementptr inbounds %"struct.std::__1::pair", %"struct.std::__1::pair"* %1, i64 0, i32 1
  %234 = bitcast %"class.std::__1::vector.45"* %232 to i8*
  call void @llvm.memset.p0i8.i64(i8* align 8 %234, i8 0, i64 24, i1 false) #9
  %235 = bitcast %"class.std::__1::vector.45"* %233 to i64*
  %236 = load i64, i64* %235, align 8
  %237 = bitcast %"class.std::__1::vector.45"* %232 to i64*
  store i64 %236, i64* %237, align 8
  %238 = getelementptr inbounds %"struct.std::__1::pair", %"struct.std::__1::pair"* %1, i64 0, i32 1, i32 0, i32 1
  %239 = bitcast %"struct.media::SupportedVideoDecoderConfig"** %238 to i64*
  %240 = load i64, i64* %239, align 8
  %241 = getelementptr inbounds %"struct.std::__1::pair", %"struct.std::__1::pair"* %222, i64 0, i32 1, i32 0, i32 1
  %242 = bitcast %"struct.media::SupportedVideoDecoderConfig"** %241 to i64*
  store i64 %240, i64* %242, align 8
  %243 = getelementptr inbounds %"struct.std::__1::pair", %"struct.std::__1::pair"* %1, i64 0, i32 1, i32 0, i32 2, i32 0, i32 0
  %244 = bitcast %"struct.media::SupportedVideoDecoderConfig"** %243 to i64*
  %245 = load i64, i64* %244, align 8
  %246 = getelementptr inbounds %"struct.std::__1::pair", %"struct.std::__1::pair"* %222, i64 0, i32 1, i32 0, i32 2, i32 0, i32 0
  %247 = bitcast %"struct.media::SupportedVideoDecoderConfig"** %246 to i64*
  store i64 %245, i64* %247, align 8
  %248 = bitcast %"class.std::__1::vector.45"* %233 to i8*
  call void @llvm.memset.p0i8.i64(i8* align 8 %248, i8 0, i64 24, i1 false) #9
  %249 = getelementptr inbounds %"struct.std::__1::pair", %"struct.std::__1::pair"* %1, i64 1
  %250 = load %"struct.std::__1::pair"*, %"struct.std::__1::pair"** %78, align 8
  %251 = getelementptr inbounds %"struct.std::__1::pair", %"struct.std::__1::pair"* %250, i64 1
  store %"struct.std::__1::pair"* %251, %"struct.std::__1::pair"** %78, align 8
  br label %252

252:                                              ; preds = %228, %221
  %253 = phi %"struct.std::__1::pair"* [ undef, %221 ], [ %251, %228 ]
  %254 = phi %"struct.std::__1::pair"* [ %222, %221 ], [ %251, %228 ]
  %255 = phi %"struct.std::__1::pair"* [ %1, %221 ], [ %249, %228 ]
  %256 = icmp ult i64 %225, 32
  br i1 %256, label %306, label %257

257:                                              ; preds = %252, %257
  %258 = phi %"struct.std::__1::pair"* [ %304, %257 ], [ %254, %252 ]
  %259 = phi %"struct.std::__1::pair"* [ %302, %257 ], [ %255, %252 ]
  %260 = getelementptr inbounds %"struct.std::__1::pair", %"struct.std::__1::pair"* %258, i64 0, i32 0
  %261 = getelementptr inbounds %"struct.std::__1::pair", %"struct.std::__1::pair"* %259, i64 0, i32 0
  %262 = load i32, i32* %261, align 8
  store i32 %262, i32* %260, align 8
  %263 = getelementptr inbounds %"struct.std::__1::pair", %"struct.std::__1::pair"* %258, i64 0, i32 1
  %264 = getelementptr inbounds %"struct.std::__1::pair", %"struct.std::__1::pair"* %259, i64 0, i32 1
  %265 = bitcast %"class.std::__1::vector.45"* %263 to i8*
  call void @llvm.memset.p0i8.i64(i8* align 8 %265, i8 0, i64 24, i1 false) #9
  %266 = bitcast %"class.std::__1::vector.45"* %264 to i64*
  %267 = load i64, i64* %266, align 8
  %268 = bitcast %"class.std::__1::vector.45"* %263 to i64*
  store i64 %267, i64* %268, align 8
  %269 = getelementptr inbounds %"struct.std::__1::pair", %"struct.std::__1::pair"* %259, i64 0, i32 1, i32 0, i32 1
  %270 = bitcast %"struct.media::SupportedVideoDecoderConfig"** %269 to i64*
  %271 = load i64, i64* %270, align 8
  %272 = getelementptr inbounds %"struct.std::__1::pair", %"struct.std::__1::pair"* %258, i64 0, i32 1, i32 0, i32 1
  %273 = bitcast %"struct.media::SupportedVideoDecoderConfig"** %272 to i64*
  store i64 %271, i64* %273, align 8
  %274 = getelementptr inbounds %"struct.std::__1::pair", %"struct.std::__1::pair"* %259, i64 0, i32 1, i32 0, i32 2, i32 0, i32 0
  %275 = bitcast %"struct.media::SupportedVideoDecoderConfig"** %274 to i64*
  %276 = load i64, i64* %275, align 8
  %277 = getelementptr inbounds %"struct.std::__1::pair", %"struct.std::__1::pair"* %258, i64 0, i32 1, i32 0, i32 2, i32 0, i32 0
  %278 = bitcast %"struct.media::SupportedVideoDecoderConfig"** %277 to i64*
  store i64 %276, i64* %278, align 8
  %279 = bitcast %"class.std::__1::vector.45"* %264 to i8*
  call void @llvm.memset.p0i8.i64(i8* align 8 %279, i8 0, i64 24, i1 false) #9
  %280 = load %"struct.std::__1::pair"*, %"struct.std::__1::pair"** %78, align 8
  %281 = getelementptr inbounds %"struct.std::__1::pair", %"struct.std::__1::pair"* %280, i64 1
  store %"struct.std::__1::pair"* %281, %"struct.std::__1::pair"** %78, align 8
  %282 = getelementptr inbounds %"struct.std::__1::pair", %"struct.std::__1::pair"* %281, i64 0, i32 0
  %283 = getelementptr inbounds %"struct.std::__1::pair", %"struct.std::__1::pair"* %259, i64 1, i32 0
  %284 = load i32, i32* %283, align 8
  store i32 %284, i32* %282, align 8
  %285 = getelementptr inbounds %"struct.std::__1::pair", %"struct.std::__1::pair"* %280, i64 1, i32 1
  %286 = getelementptr inbounds %"struct.std::__1::pair", %"struct.std::__1::pair"* %259, i64 1, i32 1
  %287 = bitcast %"class.std::__1::vector.45"* %285 to i8*
  call void @llvm.memset.p0i8.i64(i8* align 8 %287, i8 0, i64 24, i1 false) #9
  %288 = bitcast %"class.std::__1::vector.45"* %286 to i64*
  %289 = load i64, i64* %288, align 8
  %290 = bitcast %"class.std::__1::vector.45"* %285 to i64*
  store i64 %289, i64* %290, align 8
  %291 = getelementptr inbounds %"struct.std::__1::pair", %"struct.std::__1::pair"* %259, i64 1, i32 1, i32 0, i32 1
  %292 = bitcast %"struct.media::SupportedVideoDecoderConfig"** %291 to i64*
  %293 = load i64, i64* %292, align 8
  %294 = getelementptr inbounds %"struct.std::__1::pair", %"struct.std::__1::pair"* %280, i64 1, i32 1, i32 0, i32 1
  %295 = bitcast %"struct.media::SupportedVideoDecoderConfig"** %294 to i64*
  store i64 %293, i64* %295, align 8
  %296 = getelementptr inbounds %"struct.std::__1::pair", %"struct.std::__1::pair"* %259, i64 1, i32 1, i32 0, i32 2, i32 0, i32 0
  %297 = bitcast %"struct.media::SupportedVideoDecoderConfig"** %296 to i64*
  %298 = load i64, i64* %297, align 8
  %299 = getelementptr inbounds %"struct.std::__1::pair", %"struct.std::__1::pair"* %280, i64 1, i32 1, i32 0, i32 2, i32 0, i32 0
  %300 = bitcast %"struct.media::SupportedVideoDecoderConfig"** %299 to i64*
  store i64 %298, i64* %300, align 8
  %301 = bitcast %"class.std::__1::vector.45"* %286 to i8*
  call void @llvm.memset.p0i8.i64(i8* align 8 %301, i8 0, i64 24, i1 false) #9
  %302 = getelementptr inbounds %"struct.std::__1::pair", %"struct.std::__1::pair"* %259, i64 2
  %303 = load %"struct.std::__1::pair"*, %"struct.std::__1::pair"** %78, align 8
  %304 = getelementptr inbounds %"struct.std::__1::pair", %"struct.std::__1::pair"* %303, i64 1
  store %"struct.std::__1::pair"* %304, %"struct.std::__1::pair"** %78, align 8
  %305 = icmp eq %"struct.std::__1::pair"* %302, %213
  br i1 %305, label %306, label %257

306:                                              ; preds = %257, %252
  %307 = phi %"struct.std::__1::pair"* [ %253, %252 ], [ %304, %257 ]
  %308 = ptrtoint %"struct.std::__1::pair"* %307 to i64
  %309 = bitcast %"struct.std::__1::pair"** %77 to i64*
  %310 = load i64, i64* %309, align 8
  %311 = load i64, i64* %81, align 8
  %312 = bitcast %"struct.std::__1::pair"** %78 to i64*
  br label %313

313:                                              ; preds = %215, %306
  %314 = phi i64* [ %219, %215 ], [ %312, %306 ]
  %315 = phi i64 [ %220, %215 ], [ %308, %306 ]
  %316 = phi i64 [ %216, %215 ], [ %311, %306 ]
  %317 = phi i64* [ %218, %215 ], [ %309, %306 ]
  %318 = phi i64 [ %217, %215 ], [ %310, %306 ]
  %319 = load i64, i64* %82, align 8
  store i64 %318, i64* %82, align 8
  store i64 %319, i64* %317, align 8
  store i64 %315, i64* %81, align 8
  store i64 %316, i64* %314, align 8
  %320 = load i64, i64* %92, align 8
  %321 = bitcast %"struct.std::__1::pair"** %79 to i64*
  %322 = load i64, i64* %321, align 8
  store i64 %322, i64* %92, align 8
  store i64 %320, i64* %321, align 8
  %323 = bitcast %"struct.std::__1::__split_buffer.749"* %6 to i64*
  store i64 %319, i64* %323, align 8
  %324 = inttoptr i64 %319 to %"struct.std::__1::pair"*
  %325 = inttoptr i64 %316 to %"struct.std::__1::pair"*
  %326 = icmp eq %"struct.std::__1::pair"* %325, %324
  br i1 %326, label %354, label %327

327:                                              ; preds = %313, %349
  %328 = phi %"struct.std::__1::pair"* [ %350, %349 ], [ %325, %313 ]
  %329 = getelementptr inbounds %"struct.std::__1::pair", %"struct.std::__1::pair"* %328, i64 -1
  store %"struct.std::__1::pair"* %329, %"struct.std::__1::pair"** %78, align 8
  %330 = getelementptr inbounds %"struct.std::__1::pair", %"struct.std::__1::pair"* %328, i64 -1, i32 1
  %331 = getelementptr inbounds %"class.std::__1::vector.45", %"class.std::__1::vector.45"* %330, i64 0, i32 0, i32 0
  %332 = load %"struct.media::SupportedVideoDecoderConfig"*, %"struct.media::SupportedVideoDecoderConfig"** %331, align 8
  %333 = icmp eq %"struct.media::SupportedVideoDecoderConfig"* %332, null
  br i1 %333, label %349, label %334

334:                                              ; preds = %327
  %335 = bitcast %"struct.media::SupportedVideoDecoderConfig"* %332 to i8*
  %336 = getelementptr inbounds %"struct.std::__1::pair", %"struct.std::__1::pair"* %328, i64 -1, i32 1, i32 0, i32 1
  %337 = load %"struct.media::SupportedVideoDecoderConfig"*, %"struct.media::SupportedVideoDecoderConfig"** %336, align 8
  %338 = icmp eq %"struct.media::SupportedVideoDecoderConfig"* %337, %332
  br i1 %338, label %346, label %339

339:                                              ; preds = %334, %339
  %340 = phi %"struct.media::SupportedVideoDecoderConfig"* [ %341, %339 ], [ %337, %334 ]
  %341 = getelementptr inbounds %"struct.media::SupportedVideoDecoderConfig", %"struct.media::SupportedVideoDecoderConfig"* %340, i64 -1
  call void @_ZN5media27SupportedVideoDecoderConfigD1Ev(%"struct.media::SupportedVideoDecoderConfig"* %341) #9
  %342 = icmp eq %"struct.media::SupportedVideoDecoderConfig"* %341, %332
  br i1 %342, label %343, label %339

343:                                              ; preds = %339
  %344 = bitcast %"class.std::__1::vector.45"* %330 to i8**
  %345 = load i8*, i8** %344, align 8
  br label %346

346:                                              ; preds = %343, %334
  %347 = phi i8* [ %345, %343 ], [ %335, %334 ]
  store %"struct.media::SupportedVideoDecoderConfig"* %332, %"struct.media::SupportedVideoDecoderConfig"** %336, align 8
  call void @_ZdlPv(i8* %347) #10
  %348 = load %"struct.std::__1::pair"*, %"struct.std::__1::pair"** %78, align 8
  br label %349

349:                                              ; preds = %346, %327
  %350 = phi %"struct.std::__1::pair"* [ %329, %327 ], [ %348, %346 ]
  %351 = icmp eq %"struct.std::__1::pair"* %350, %324
  br i1 %351, label %352, label %327

352:                                              ; preds = %349
  %353 = load %"struct.std::__1::pair"*, %"struct.std::__1::pair"** %76, align 8
  br label %354

354:                                              ; preds = %352, %313
  %355 = phi %"struct.std::__1::pair"* [ %353, %352 ], [ %324, %313 ]
  %356 = icmp eq %"struct.std::__1::pair"* %355, null
  br i1 %356, label %359, label %357

357:                                              ; preds = %354
  %358 = bitcast %"struct.std::__1::pair"* %355 to i8*
  call void @_ZdlPv(i8* %358) #10
  br label %359

359:                                              ; preds = %354, %357
  call void @llvm.lifetime.end.p0i8(i64 40, i8* nonnull %75) #9
  br label %360

360:                                              ; preds = %16, %68, %359
  %361 = phi %"struct.std::__1::pair"* [ %1, %16 ], [ %1, %68 ], [ %123, %359 ]
  ret %"struct.std::__1::pair"* %361
}

; Function Attrs: nounwind ssp uwtable
define linkonce_odr hidden void @_ZNSt3__16vectorINS_4pairIN5media26VideoDecoderImplementationENS0_INS2_27SupportedVideoDecoderConfigENS_9allocatorIS4_EEEEEENS5_IS8_EEE12__move_rangeEPS8_SB_SB_(%"class.std::__1::vector.55"*, %"struct.std::__1::pair"*, %"struct.std::__1::pair"*, %"struct.std::__1::pair"*) local_unnamed_addr #0 comdat align 2 {
  %5 = getelementptr inbounds %"class.std::__1::vector.55", %"class.std::__1::vector.55"* %0, i64 0, i32 0, i32 1
  %6 = load %"struct.std::__1::pair"*, %"struct.std::__1::pair"** %5, align 8
  %7 = ptrtoint %"struct.std::__1::pair"* %6 to i64
  %8 = ptrtoint %"struct.std::__1::pair"* %3 to i64
  %9 = sub i64 %7, %8
  %10 = ashr exact i64 %9, 5
  %11 = getelementptr inbounds %"struct.std::__1::pair", %"struct.std::__1::pair"* %1, i64 %10
  %12 = bitcast %"struct.std::__1::pair"** %5 to i64*
  %13 = icmp ult %"struct.std::__1::pair"* %11, %2
  br i1 %13, label %14, label %55

14:                                               ; preds = %4
  %15 = ptrtoint %"struct.std::__1::pair"* %1 to i64
  %16 = sub nsw i64 0, %10
  %17 = getelementptr %"struct.std::__1::pair", %"struct.std::__1::pair"* %2, i64 %16, i32 0
  %18 = bitcast i32* %17 to i8*
  %19 = xor i64 %15, -1
  %20 = getelementptr i8, i8* %18, i64 %19
  %21 = ptrtoint i8* %20 to i64
  %22 = and i64 %21, 32
  %23 = icmp eq i64 %22, 0
  br i1 %23, label %24, label %47

24:                                               ; preds = %14
  %25 = getelementptr inbounds %"struct.std::__1::pair", %"struct.std::__1::pair"* %6, i64 0, i32 0
  %26 = getelementptr inbounds %"struct.std::__1::pair", %"struct.std::__1::pair"* %11, i64 0, i32 0
  %27 = load i32, i32* %26, align 8
  store i32 %27, i32* %25, align 8
  %28 = getelementptr inbounds %"struct.std::__1::pair", %"struct.std::__1::pair"* %6, i64 0, i32 1
  %29 = getelementptr inbounds %"struct.std::__1::pair", %"struct.std::__1::pair"* %1, i64 %10, i32 1
  %30 = bitcast %"class.std::__1::vector.45"* %28 to i8*
  tail call void @llvm.memset.p0i8.i64(i8* align 8 %30, i8 0, i64 24, i1 false) #9
  %31 = bitcast %"class.std::__1::vector.45"* %29 to i64*
  %32 = load i64, i64* %31, align 8
  %33 = bitcast %"class.std::__1::vector.45"* %28 to i64*
  store i64 %32, i64* %33, align 8
  %34 = getelementptr inbounds %"struct.std::__1::pair", %"struct.std::__1::pair"* %1, i64 %10, i32 1, i32 0, i32 1
  %35 = bitcast %"struct.media::SupportedVideoDecoderConfig"** %34 to i64*
  %36 = load i64, i64* %35, align 8
  %37 = getelementptr inbounds %"struct.std::__1::pair", %"struct.std::__1::pair"* %6, i64 0, i32 1, i32 0, i32 1
  %38 = bitcast %"struct.media::SupportedVideoDecoderConfig"** %37 to i64*
  store i64 %36, i64* %38, align 8
  %39 = getelementptr inbounds %"struct.std::__1::pair", %"struct.std::__1::pair"* %1, i64 %10, i32 1, i32 0, i32 2, i32 0, i32 0
  %40 = bitcast %"struct.media::SupportedVideoDecoderConfig"** %39 to i64*
  %41 = load i64, i64* %40, align 8
  %42 = getelementptr inbounds %"struct.std::__1::pair", %"struct.std::__1::pair"* %6, i64 0, i32 1, i32 0, i32 2, i32 0, i32 0
  %43 = bitcast %"struct.media::SupportedVideoDecoderConfig"** %42 to i64*
  store i64 %41, i64* %43, align 8
  %44 = bitcast %"class.std::__1::vector.45"* %29 to i8*
  tail call void @llvm.memset.p0i8.i64(i8* align 8 %44, i8 0, i64 24, i1 false) #9
  %45 = getelementptr inbounds %"struct.std::__1::pair", %"struct.std::__1::pair"* %11, i64 1
  %46 = getelementptr inbounds %"struct.std::__1::pair", %"struct.std::__1::pair"* %6, i64 1
  br label %47

47:                                               ; preds = %24, %14
  %48 = phi %"struct.std::__1::pair"* [ %6, %14 ], [ %46, %24 ]
  %49 = phi %"struct.std::__1::pair"* [ %11, %14 ], [ %45, %24 ]
  %50 = phi %"struct.std::__1::pair"* [ undef, %14 ], [ %46, %24 ]
  %51 = icmp ult i8* %20, inttoptr (i64 32 to i8*)
  br i1 %51, label %52, label %103

52:                                               ; preds = %103, %47
  %53 = phi %"struct.std::__1::pair"* [ %50, %47 ], [ %147, %103 ]
  %54 = ptrtoint %"struct.std::__1::pair"* %53 to i64
  br label %55

55:                                               ; preds = %52, %4
  %56 = phi i64 [ %54, %52 ], [ %7, %4 ]
  store i64 %56, i64* %12, align 8
  %57 = icmp eq i64 %9, 0
  br i1 %57, label %102, label %58

58:                                               ; preds = %55, %86
  %59 = phi %"struct.std::__1::pair"* [ %62, %86 ], [ %6, %55 ]
  %60 = phi %"struct.std::__1::pair"* [ %61, %86 ], [ %11, %55 ]
  %61 = getelementptr inbounds %"struct.std::__1::pair", %"struct.std::__1::pair"* %60, i64 -1
  %62 = getelementptr inbounds %"struct.std::__1::pair", %"struct.std::__1::pair"* %59, i64 -1
  %63 = getelementptr inbounds %"struct.std::__1::pair", %"struct.std::__1::pair"* %61, i64 0, i32 0
  %64 = load i32, i32* %63, align 4
  %65 = getelementptr inbounds %"struct.std::__1::pair", %"struct.std::__1::pair"* %62, i64 0, i32 0
  store i32 %64, i32* %65, align 8
  %66 = getelementptr inbounds %"struct.std::__1::pair", %"struct.std::__1::pair"* %60, i64 -1, i32 1
  %67 = getelementptr inbounds %"struct.std::__1::pair", %"struct.std::__1::pair"* %59, i64 -1, i32 1
  %68 = getelementptr inbounds %"class.std::__1::vector.45", %"class.std::__1::vector.45"* %67, i64 0, i32 0, i32 0
  %69 = load %"struct.media::SupportedVideoDecoderConfig"*, %"struct.media::SupportedVideoDecoderConfig"** %68, align 8
  %70 = icmp eq %"struct.media::SupportedVideoDecoderConfig"* %69, null
  br i1 %70, label %86, label %71

71:                                               ; preds = %58
  %72 = bitcast %"struct.media::SupportedVideoDecoderConfig"* %69 to i8*
  %73 = getelementptr inbounds %"struct.std::__1::pair", %"struct.std::__1::pair"* %59, i64 -1, i32 1, i32 0, i32 1
  %74 = load %"struct.media::SupportedVideoDecoderConfig"*, %"struct.media::SupportedVideoDecoderConfig"** %73, align 8
  %75 = icmp eq %"struct.media::SupportedVideoDecoderConfig"* %74, %69
  br i1 %75, label %83, label %76

76:                                               ; preds = %71, %76
  %77 = phi %"struct.media::SupportedVideoDecoderConfig"* [ %78, %76 ], [ %74, %71 ]
  %78 = getelementptr inbounds %"struct.media::SupportedVideoDecoderConfig", %"struct.media::SupportedVideoDecoderConfig"* %77, i64 -1
  tail call void @_ZN5media27SupportedVideoDecoderConfigD1Ev(%"struct.media::SupportedVideoDecoderConfig"* %78) #9
  %79 = icmp eq %"struct.media::SupportedVideoDecoderConfig"* %78, %69
  br i1 %79, label %80, label %76

80:                                               ; preds = %76
  %81 = bitcast %"class.std::__1::vector.45"* %67 to i8**
  %82 = load i8*, i8** %81, align 8
  br label %83

83:                                               ; preds = %80, %71
  %84 = phi i8* [ %82, %80 ], [ %72, %71 ]
  store %"struct.media::SupportedVideoDecoderConfig"* %69, %"struct.media::SupportedVideoDecoderConfig"** %73, align 8
  tail call void @_ZdlPv(i8* %84) #10
  %85 = bitcast %"class.std::__1::vector.45"* %67 to i8*
  tail call void @llvm.memset.p0i8.i64(i8* align 8 %85, i8 0, i64 24, i1 false) #9
  br label %86

86:                                               ; preds = %83, %58
  %87 = bitcast %"class.std::__1::vector.45"* %66 to i64*
  %88 = load i64, i64* %87, align 8
  %89 = bitcast %"class.std::__1::vector.45"* %67 to i64*
  store i64 %88, i64* %89, align 8
  %90 = getelementptr inbounds %"struct.std::__1::pair", %"struct.std::__1::pair"* %60, i64 -1, i32 1, i32 0, i32 1
  %91 = bitcast %"struct.media::SupportedVideoDecoderConfig"** %90 to i64*
  %92 = load i64, i64* %91, align 8
  %93 = getelementptr inbounds %"struct.std::__1::pair", %"struct.std::__1::pair"* %59, i64 -1, i32 1, i32 0, i32 1
  %94 = bitcast %"struct.media::SupportedVideoDecoderConfig"** %93 to i64*
  store i64 %92, i64* %94, align 8
  %95 = getelementptr inbounds %"struct.std::__1::pair", %"struct.std::__1::pair"* %60, i64 -1, i32 1, i32 0, i32 2, i32 0, i32 0
  %96 = bitcast %"struct.media::SupportedVideoDecoderConfig"** %95 to i64*
  %97 = load i64, i64* %96, align 8
  %98 = getelementptr inbounds %"struct.std::__1::pair", %"struct.std::__1::pair"* %59, i64 -1, i32 1, i32 0, i32 2, i32 0, i32 0
  %99 = bitcast %"struct.media::SupportedVideoDecoderConfig"** %98 to i64*
  store i64 %97, i64* %99, align 8
  %100 = bitcast %"class.std::__1::vector.45"* %66 to i8*
  tail call void @llvm.memset.p0i8.i64(i8* align 8 %100, i8 0, i64 24, i1 false) #9
  %101 = icmp eq %"struct.std::__1::pair"* %61, %1
  br i1 %101, label %102, label %58

102:                                              ; preds = %86, %55
  ret void

103:                                              ; preds = %47, %103
  %104 = phi %"struct.std::__1::pair"* [ %147, %103 ], [ %48, %47 ]
  %105 = phi %"struct.std::__1::pair"* [ %146, %103 ], [ %49, %47 ]
  %106 = getelementptr inbounds %"struct.std::__1::pair", %"struct.std::__1::pair"* %104, i64 0, i32 0
  %107 = getelementptr inbounds %"struct.std::__1::pair", %"struct.std::__1::pair"* %105, i64 0, i32 0
  %108 = load i32, i32* %107, align 8
  store i32 %108, i32* %106, align 8
  %109 = getelementptr inbounds %"struct.std::__1::pair", %"struct.std::__1::pair"* %104, i64 0, i32 1
  %110 = getelementptr inbounds %"struct.std::__1::pair", %"struct.std::__1::pair"* %105, i64 0, i32 1
  %111 = bitcast %"class.std::__1::vector.45"* %109 to i8*
  tail call void @llvm.memset.p0i8.i64(i8* align 8 %111, i8 0, i64 24, i1 false) #9
  %112 = bitcast %"class.std::__1::vector.45"* %110 to i64*
  %113 = load i64, i64* %112, align 8
  %114 = bitcast %"class.std::__1::vector.45"* %109 to i64*
  store i64 %113, i64* %114, align 8
  %115 = getelementptr inbounds %"struct.std::__1::pair", %"struct.std::__1::pair"* %105, i64 0, i32 1, i32 0, i32 1
  %116 = bitcast %"struct.media::SupportedVideoDecoderConfig"** %115 to i64*
  %117 = load i64, i64* %116, align 8
  %118 = getelementptr inbounds %"struct.std::__1::pair", %"struct.std::__1::pair"* %104, i64 0, i32 1, i32 0, i32 1
  %119 = bitcast %"struct.media::SupportedVideoDecoderConfig"** %118 to i64*
  store i64 %117, i64* %119, align 8
  %120 = getelementptr inbounds %"struct.std::__1::pair", %"struct.std::__1::pair"* %105, i64 0, i32 1, i32 0, i32 2, i32 0, i32 0
  %121 = bitcast %"struct.media::SupportedVideoDecoderConfig"** %120 to i64*
  %122 = load i64, i64* %121, align 8
  %123 = getelementptr inbounds %"struct.std::__1::pair", %"struct.std::__1::pair"* %104, i64 0, i32 1, i32 0, i32 2, i32 0, i32 0
  %124 = bitcast %"struct.media::SupportedVideoDecoderConfig"** %123 to i64*
  store i64 %122, i64* %124, align 8
  %125 = bitcast %"class.std::__1::vector.45"* %110 to i8*
  tail call void @llvm.memset.p0i8.i64(i8* align 8 %125, i8 0, i64 24, i1 false) #9
  %126 = getelementptr inbounds %"struct.std::__1::pair", %"struct.std::__1::pair"* %104, i64 1, i32 0
  %127 = getelementptr inbounds %"struct.std::__1::pair", %"struct.std::__1::pair"* %105, i64 1, i32 0
  %128 = load i32, i32* %127, align 8
  store i32 %128, i32* %126, align 8
  %129 = getelementptr inbounds %"struct.std::__1::pair", %"struct.std::__1::pair"* %104, i64 1, i32 1
  %130 = getelementptr inbounds %"struct.std::__1::pair", %"struct.std::__1::pair"* %105, i64 1, i32 1
  %131 = bitcast %"class.std::__1::vector.45"* %129 to i8*
  tail call void @llvm.memset.p0i8.i64(i8* align 8 %131, i8 0, i64 24, i1 false) #9
  %132 = bitcast %"class.std::__1::vector.45"* %130 to i64*
  %133 = load i64, i64* %132, align 8
  %134 = bitcast %"class.std::__1::vector.45"* %129 to i64*
  store i64 %133, i64* %134, align 8
  %135 = getelementptr inbounds %"struct.std::__1::pair", %"struct.std::__1::pair"* %105, i64 1, i32 1, i32 0, i32 1
  %136 = bitcast %"struct.media::SupportedVideoDecoderConfig"** %135 to i64*
  %137 = load i64, i64* %136, align 8
  %138 = getelementptr inbounds %"struct.std::__1::pair", %"struct.std::__1::pair"* %104, i64 1, i32 1, i32 0, i32 1
  %139 = bitcast %"struct.media::SupportedVideoDecoderConfig"** %138 to i64*
  store i64 %137, i64* %139, align 8
  %140 = getelementptr inbounds %"struct.std::__1::pair", %"struct.std::__1::pair"* %105, i64 1, i32 1, i32 0, i32 2, i32 0, i32 0
  %141 = bitcast %"struct.media::SupportedVideoDecoderConfig"** %140 to i64*
  %142 = load i64, i64* %141, align 8
  %143 = getelementptr inbounds %"struct.std::__1::pair", %"struct.std::__1::pair"* %104, i64 1, i32 1, i32 0, i32 2, i32 0, i32 0
  %144 = bitcast %"struct.media::SupportedVideoDecoderConfig"** %143 to i64*
  store i64 %142, i64* %144, align 8
  %145 = bitcast %"class.std::__1::vector.45"* %130 to i8*
  tail call void @llvm.memset.p0i8.i64(i8* align 8 %145, i8 0, i64 24, i1 false) #9
  %146 = getelementptr inbounds %"struct.std::__1::pair", %"struct.std::__1::pair"* %105, i64 2
  %147 = getelementptr inbounds %"struct.std::__1::pair", %"struct.std::__1::pair"* %104, i64 2
  %148 = icmp ult %"struct.std::__1::pair"* %146, %2
  br i1 %148, label %103, label %52
}

; Function Attrs: nounwind ssp uwtable
define linkonce_odr hidden void @_ZNSt3__114__split_bufferINS_4pairIN5media26VideoDecoderImplementationENS_6vectorINS2_27SupportedVideoDecoderConfigENS_9allocatorIS5_EEEEEERNS6_IS9_EEE12emplace_backIJS3_S8_EEEvDpOT_(%"struct.std::__1::__split_buffer.749"*, i32* dereferenceable(4), %"class.std::__1::vector.45"* dereferenceable(24)) local_unnamed_addr #0 comdat align 2 {
  %4 = getelementptr inbounds %"struct.std::__1::__split_buffer.749", %"struct.std::__1::__split_buffer.749"* %0, i64 0, i32 2
  %5 = load %"struct.std::__1::pair"*, %"struct.std::__1::pair"** %4, align 8
  %6 = getelementptr inbounds %"struct.std::__1::__split_buffer.749", %"struct.std::__1::__split_buffer.749"* %0, i64 0, i32 3, i32 0, i32 0
  %7 = load %"struct.std::__1::pair"*, %"struct.std::__1::pair"** %6, align 8
  %8 = icmp eq %"struct.std::__1::pair"* %5, %7
  %9 = ptrtoint %"struct.std::__1::pair"* %7 to i64
  br i1 %8, label %10, label %217

10:                                               ; preds = %3
  %11 = getelementptr inbounds %"struct.std::__1::__split_buffer.749", %"struct.std::__1::__split_buffer.749"* %0, i64 0, i32 1
  %12 = load %"struct.std::__1::pair"*, %"struct.std::__1::pair"** %11, align 8
  %13 = getelementptr inbounds %"struct.std::__1::__split_buffer.749", %"struct.std::__1::__split_buffer.749"* %0, i64 0, i32 0
  %14 = load %"struct.std::__1::pair"*, %"struct.std::__1::pair"** %13, align 8
  %15 = icmp ugt %"struct.std::__1::pair"* %12, %14
  %16 = ptrtoint %"struct.std::__1::pair"* %14 to i64
  br i1 %15, label %17, label %75

17:                                               ; preds = %10
  %18 = ptrtoint %"struct.std::__1::pair"* %12 to i64
  %19 = sub i64 %18, %16
  %20 = ashr exact i64 %19, 5
  %21 = add nsw i64 %20, 1
  %22 = sdiv i64 %21, -2
  %23 = getelementptr inbounds %"struct.std::__1::pair", %"struct.std::__1::pair"* %12, i64 %22
  %24 = icmp eq %"struct.std::__1::pair"* %12, %5
  br i1 %24, label %71, label %25

25:                                               ; preds = %17, %51
  %26 = phi %"struct.std::__1::pair"* [ %67, %51 ], [ %23, %17 ]
  %27 = phi %"struct.std::__1::pair"* [ %66, %51 ], [ %12, %17 ]
  %28 = getelementptr inbounds %"struct.std::__1::pair", %"struct.std::__1::pair"* %27, i64 0, i32 0
  %29 = load i32, i32* %28, align 4
  %30 = getelementptr inbounds %"struct.std::__1::pair", %"struct.std::__1::pair"* %26, i64 0, i32 0
  store i32 %29, i32* %30, align 8
  %31 = getelementptr inbounds %"struct.std::__1::pair", %"struct.std::__1::pair"* %27, i64 0, i32 1
  %32 = getelementptr inbounds %"struct.std::__1::pair", %"struct.std::__1::pair"* %26, i64 0, i32 1
  %33 = getelementptr inbounds %"class.std::__1::vector.45", %"class.std::__1::vector.45"* %32, i64 0, i32 0, i32 0
  %34 = load %"struct.media::SupportedVideoDecoderConfig"*, %"struct.media::SupportedVideoDecoderConfig"** %33, align 8
  %35 = icmp eq %"struct.media::SupportedVideoDecoderConfig"* %34, null
  br i1 %35, label %51, label %36

36:                                               ; preds = %25
  %37 = bitcast %"struct.media::SupportedVideoDecoderConfig"* %34 to i8*
  %38 = getelementptr inbounds %"struct.std::__1::pair", %"struct.std::__1::pair"* %26, i64 0, i32 1, i32 0, i32 1
  %39 = load %"struct.media::SupportedVideoDecoderConfig"*, %"struct.media::SupportedVideoDecoderConfig"** %38, align 8
  %40 = icmp eq %"struct.media::SupportedVideoDecoderConfig"* %39, %34
  br i1 %40, label %48, label %41

41:                                               ; preds = %36, %41
  %42 = phi %"struct.media::SupportedVideoDecoderConfig"* [ %43, %41 ], [ %39, %36 ]
  %43 = getelementptr inbounds %"struct.media::SupportedVideoDecoderConfig", %"struct.media::SupportedVideoDecoderConfig"* %42, i64 -1
  tail call void @_ZN5media27SupportedVideoDecoderConfigD1Ev(%"struct.media::SupportedVideoDecoderConfig"* %43) #9
  %44 = icmp eq %"struct.media::SupportedVideoDecoderConfig"* %43, %34
  br i1 %44, label %45, label %41

45:                                               ; preds = %41
  %46 = bitcast %"class.std::__1::vector.45"* %32 to i8**
  %47 = load i8*, i8** %46, align 8
  br label %48

48:                                               ; preds = %45, %36
  %49 = phi i8* [ %47, %45 ], [ %37, %36 ]
  store %"struct.media::SupportedVideoDecoderConfig"* %34, %"struct.media::SupportedVideoDecoderConfig"** %38, align 8
  tail call void @_ZdlPv(i8* %49) #10
  %50 = bitcast %"class.std::__1::vector.45"* %32 to i8*
  tail call void @llvm.memset.p0i8.i64(i8* align 8 %50, i8 0, i64 24, i1 false) #9
  br label %51

51:                                               ; preds = %48, %25
  %52 = bitcast %"class.std::__1::vector.45"* %31 to i64*
  %53 = load i64, i64* %52, align 8
  %54 = bitcast %"class.std::__1::vector.45"* %32 to i64*
  store i64 %53, i64* %54, align 8
  %55 = getelementptr inbounds %"struct.std::__1::pair", %"struct.std::__1::pair"* %27, i64 0, i32 1, i32 0, i32 1
  %56 = bitcast %"struct.media::SupportedVideoDecoderConfig"** %55 to i64*
  %57 = load i64, i64* %56, align 8
  %58 = getelementptr inbounds %"struct.std::__1::pair", %"struct.std::__1::pair"* %26, i64 0, i32 1, i32 0, i32 1
  %59 = bitcast %"struct.media::SupportedVideoDecoderConfig"** %58 to i64*
  store i64 %57, i64* %59, align 8
  %60 = getelementptr inbounds %"struct.std::__1::pair", %"struct.std::__1::pair"* %27, i64 0, i32 1, i32 0, i32 2, i32 0, i32 0
  %61 = bitcast %"struct.media::SupportedVideoDecoderConfig"** %60 to i64*
  %62 = load i64, i64* %61, align 8
  %63 = getelementptr inbounds %"struct.std::__1::pair", %"struct.std::__1::pair"* %26, i64 0, i32 1, i32 0, i32 2, i32 0, i32 0
  %64 = bitcast %"struct.media::SupportedVideoDecoderConfig"** %63 to i64*
  store i64 %62, i64* %64, align 8
  %65 = bitcast %"class.std::__1::vector.45"* %31 to i8*
  tail call void @llvm.memset.p0i8.i64(i8* align 8 %65, i8 0, i64 24, i1 false) #9
  %66 = getelementptr inbounds %"struct.std::__1::pair", %"struct.std::__1::pair"* %27, i64 1
  %67 = getelementptr inbounds %"struct.std::__1::pair", %"struct.std::__1::pair"* %26, i64 1
  %68 = icmp eq %"struct.std::__1::pair"* %66, %5
  br i1 %68, label %69, label %25

69:                                               ; preds = %51
  %70 = load %"struct.std::__1::pair"*, %"struct.std::__1::pair"** %11, align 8
  br label %71

71:                                               ; preds = %69, %17
  %72 = phi %"struct.std::__1::pair"* [ %5, %17 ], [ %70, %69 ]
  %73 = phi %"struct.std::__1::pair"* [ %23, %17 ], [ %67, %69 ]
  store %"struct.std::__1::pair"* %73, %"struct.std::__1::pair"** %4, align 8
  %74 = getelementptr inbounds %"struct.std::__1::pair", %"struct.std::__1::pair"* %72, i64 %22
  store %"struct.std::__1::pair"* %74, %"struct.std::__1::pair"** %11, align 8
  br label %217

75:                                               ; preds = %10
  %76 = bitcast %"struct.std::__1::pair"** %6 to i64*
  %77 = bitcast %"struct.std::__1::__split_buffer.749"* %0 to i64*
  %78 = sub i64 %9, %16
  %79 = ashr exact i64 %78, 4
  %80 = icmp eq i64 %78, 0
  %81 = select i1 %80, i64 1, i64 %79
  %82 = icmp ugt i64 %81, 576460752303423487
  br i1 %82, label %83, label %84

83:                                               ; preds = %75
  tail call void @abort() #11
  unreachable

84:                                               ; preds = %75
  %85 = lshr i64 %81, 2
  %86 = shl i64 %81, 5
  %87 = tail call i8* @_Znwm(i64 %86) #10
  %88 = bitcast i8* %87 to %"struct.std::__1::pair"*
  %89 = ptrtoint i8* %87 to i64
  %90 = getelementptr inbounds %"struct.std::__1::pair", %"struct.std::__1::pair"* %88, i64 %85
  %91 = ptrtoint %"struct.std::__1::pair"* %90 to i64
  %92 = getelementptr inbounds %"struct.std::__1::pair", %"struct.std::__1::pair"* %88, i64 %81
  %93 = ptrtoint %"struct.std::__1::pair"* %92 to i64
  %94 = ptrtoint %"struct.std::__1::pair"* %12 to i64
  %95 = ptrtoint %"struct.std::__1::pair"* %5 to i64
  %96 = sub i64 %95, %94
  %97 = ashr exact i64 %96, 5
  %98 = getelementptr inbounds %"struct.std::__1::pair", %"struct.std::__1::pair"* %90, i64 %97
  %99 = icmp eq i64 %96, 0
  br i1 %99, label %182, label %100

100:                                              ; preds = %84
  %101 = add i64 %96, -32
  %102 = and i64 %101, 32
  %103 = icmp eq i64 %102, 0
  br i1 %103, label %104, label %127

104:                                              ; preds = %100
  %105 = getelementptr inbounds %"struct.std::__1::pair", %"struct.std::__1::pair"* %90, i64 0, i32 0
  %106 = getelementptr inbounds %"struct.std::__1::pair", %"struct.std::__1::pair"* %12, i64 0, i32 0
  %107 = load i32, i32* %106, align 8
  store i32 %107, i32* %105, align 8
  %108 = getelementptr inbounds %"struct.std::__1::pair", %"struct.std::__1::pair"* %88, i64 %85, i32 1
  %109 = getelementptr inbounds %"struct.std::__1::pair", %"struct.std::__1::pair"* %12, i64 0, i32 1
  %110 = bitcast %"class.std::__1::vector.45"* %108 to i8*
  tail call void @llvm.memset.p0i8.i64(i8* align 8 %110, i8 0, i64 24, i1 false) #9
  %111 = bitcast %"class.std::__1::vector.45"* %109 to i64*
  %112 = load i64, i64* %111, align 8
  %113 = bitcast %"class.std::__1::vector.45"* %108 to i64*
  store i64 %112, i64* %113, align 8
  %114 = getelementptr inbounds %"struct.std::__1::pair", %"struct.std::__1::pair"* %12, i64 0, i32 1, i32 0, i32 1
  %115 = bitcast %"struct.media::SupportedVideoDecoderConfig"** %114 to i64*
  %116 = load i64, i64* %115, align 8
  %117 = getelementptr inbounds %"struct.std::__1::pair", %"struct.std::__1::pair"* %88, i64 %85, i32 1, i32 0, i32 1
  %118 = bitcast %"struct.media::SupportedVideoDecoderConfig"** %117 to i64*
  store i64 %116, i64* %118, align 8
  %119 = getelementptr inbounds %"struct.std::__1::pair", %"struct.std::__1::pair"* %12, i64 0, i32 1, i32 0, i32 2, i32 0, i32 0
  %120 = bitcast %"struct.media::SupportedVideoDecoderConfig"** %119 to i64*
  %121 = load i64, i64* %120, align 8
  %122 = getelementptr inbounds %"struct.std::__1::pair", %"struct.std::__1::pair"* %88, i64 %85, i32 1, i32 0, i32 2, i32 0, i32 0
  %123 = bitcast %"struct.media::SupportedVideoDecoderConfig"** %122 to i64*
  store i64 %121, i64* %123, align 8
  %124 = bitcast %"class.std::__1::vector.45"* %109 to i8*
  tail call void @llvm.memset.p0i8.i64(i8* align 8 %124, i8 0, i64 24, i1 false) #9
  %125 = getelementptr inbounds %"struct.std::__1::pair", %"struct.std::__1::pair"* %90, i64 1
  %126 = getelementptr inbounds %"struct.std::__1::pair", %"struct.std::__1::pair"* %12, i64 1
  br label %127

127:                                              ; preds = %104, %100
  %128 = phi %"struct.std::__1::pair"* [ %90, %100 ], [ %125, %104 ]
  %129 = phi %"struct.std::__1::pair"* [ %12, %100 ], [ %126, %104 ]
  %130 = icmp ult i64 %101, 32
  br i1 %130, label %177, label %131

131:                                              ; preds = %127, %131
  %132 = phi %"struct.std::__1::pair"* [ %174, %131 ], [ %128, %127 ]
  %133 = phi %"struct.std::__1::pair"* [ %175, %131 ], [ %129, %127 ]
  %134 = getelementptr inbounds %"struct.std::__1::pair", %"struct.std::__1::pair"* %132, i64 0, i32 0
  %135 = getelementptr inbounds %"struct.std::__1::pair", %"struct.std::__1::pair"* %133, i64 0, i32 0
  %136 = load i32, i32* %135, align 8
  store i32 %136, i32* %134, align 8
  %137 = getelementptr inbounds %"struct.std::__1::pair", %"struct.std::__1::pair"* %132, i64 0, i32 1
  %138 = getelementptr inbounds %"struct.std::__1::pair", %"struct.std::__1::pair"* %133, i64 0, i32 1
  %139 = bitcast %"class.std::__1::vector.45"* %137 to i8*
  tail call void @llvm.memset.p0i8.i64(i8* align 8 %139, i8 0, i64 24, i1 false) #9
  %140 = bitcast %"class.std::__1::vector.45"* %138 to i64*
  %141 = load i64, i64* %140, align 8
  %142 = bitcast %"class.std::__1::vector.45"* %137 to i64*
  store i64 %141, i64* %142, align 8
  %143 = getelementptr inbounds %"struct.std::__1::pair", %"struct.std::__1::pair"* %133, i64 0, i32 1, i32 0, i32 1
  %144 = bitcast %"struct.media::SupportedVideoDecoderConfig"** %143 to i64*
  %145 = load i64, i64* %144, align 8
  %146 = getelementptr inbounds %"struct.std::__1::pair", %"struct.std::__1::pair"* %132, i64 0, i32 1, i32 0, i32 1
  %147 = bitcast %"struct.media::SupportedVideoDecoderConfig"** %146 to i64*
  store i64 %145, i64* %147, align 8
  %148 = getelementptr inbounds %"struct.std::__1::pair", %"struct.std::__1::pair"* %133, i64 0, i32 1, i32 0, i32 2, i32 0, i32 0
  %149 = bitcast %"struct.media::SupportedVideoDecoderConfig"** %148 to i64*
  %150 = load i64, i64* %149, align 8
  %151 = getelementptr inbounds %"struct.std::__1::pair", %"struct.std::__1::pair"* %132, i64 0, i32 1, i32 0, i32 2, i32 0, i32 0
  %152 = bitcast %"struct.media::SupportedVideoDecoderConfig"** %151 to i64*
  store i64 %150, i64* %152, align 8
  %153 = bitcast %"class.std::__1::vector.45"* %138 to i8*
  tail call void @llvm.memset.p0i8.i64(i8* align 8 %153, i8 0, i64 24, i1 false) #9
  %154 = getelementptr inbounds %"struct.std::__1::pair", %"struct.std::__1::pair"* %132, i64 1, i32 0
  %155 = getelementptr inbounds %"struct.std::__1::pair", %"struct.std::__1::pair"* %133, i64 1, i32 0
  %156 = load i32, i32* %155, align 8
  store i32 %156, i32* %154, align 8
  %157 = getelementptr inbounds %"struct.std::__1::pair", %"struct.std::__1::pair"* %132, i64 1, i32 1
  %158 = getelementptr inbounds %"struct.std::__1::pair", %"struct.std::__1::pair"* %133, i64 1, i32 1
  %159 = bitcast %"class.std::__1::vector.45"* %157 to i8*
  tail call void @llvm.memset.p0i8.i64(i8* align 8 %159, i8 0, i64 24, i1 false) #9
  %160 = bitcast %"class.std::__1::vector.45"* %158 to i64*
  %161 = load i64, i64* %160, align 8
  %162 = bitcast %"class.std::__1::vector.45"* %157 to i64*
  store i64 %161, i64* %162, align 8
  %163 = getelementptr inbounds %"struct.std::__1::pair", %"struct.std::__1::pair"* %133, i64 1, i32 1, i32 0, i32 1
  %164 = bitcast %"struct.media::SupportedVideoDecoderConfig"** %163 to i64*
  %165 = load i64, i64* %164, align 8
  %166 = getelementptr inbounds %"struct.std::__1::pair", %"struct.std::__1::pair"* %132, i64 1, i32 1, i32 0, i32 1
  %167 = bitcast %"struct.media::SupportedVideoDecoderConfig"** %166 to i64*
  store i64 %165, i64* %167, align 8
  %168 = getelementptr inbounds %"struct.std::__1::pair", %"struct.std::__1::pair"* %133, i64 1, i32 1, i32 0, i32 2, i32 0, i32 0
  %169 = bitcast %"struct.media::SupportedVideoDecoderConfig"** %168 to i64*
  %170 = load i64, i64* %169, align 8
  %171 = getelementptr inbounds %"struct.std::__1::pair", %"struct.std::__1::pair"* %132, i64 1, i32 1, i32 0, i32 2, i32 0, i32 0
  %172 = bitcast %"struct.media::SupportedVideoDecoderConfig"** %171 to i64*
  store i64 %170, i64* %172, align 8
  %173 = bitcast %"class.std::__1::vector.45"* %158 to i8*
  tail call void @llvm.memset.p0i8.i64(i8* align 8 %173, i8 0, i64 24, i1 false) #9
  %174 = getelementptr inbounds %"struct.std::__1::pair", %"struct.std::__1::pair"* %132, i64 2
  %175 = getelementptr inbounds %"struct.std::__1::pair", %"struct.std::__1::pair"* %133, i64 2
  %176 = icmp eq %"struct.std::__1::pair"* %98, %174
  br i1 %176, label %177, label %131

177:                                              ; preds = %131, %127
  %178 = ptrtoint %"struct.std::__1::pair"* %98 to i64
  %179 = load %"struct.std::__1::pair"*, %"struct.std::__1::pair"** %13, align 8
  %180 = load %"struct.std::__1::pair"*, %"struct.std::__1::pair"** %11, align 8
  %181 = load %"struct.std::__1::pair"*, %"struct.std::__1::pair"** %4, align 8
  br label %182

182:                                              ; preds = %84, %177
  %183 = phi %"struct.std::__1::pair"* [ %181, %177 ], [ %5, %84 ]
  %184 = phi %"struct.std::__1::pair"* [ %180, %177 ], [ %12, %84 ]
  %185 = phi %"struct.std::__1::pair"* [ %179, %177 ], [ %14, %84 ]
  %186 = phi i64 [ %178, %177 ], [ %91, %84 ]
  store i64 %89, i64* %77, align 8
  %187 = bitcast %"struct.std::__1::pair"** %11 to i64*
  store i64 %91, i64* %187, align 8
  %188 = bitcast %"struct.std::__1::pair"** %4 to i64*
  store i64 %186, i64* %188, align 8
  store i64 %93, i64* %76, align 8
  %189 = icmp eq %"struct.std::__1::pair"* %183, %184
  br i1 %189, label %213, label %190

190:                                              ; preds = %182, %211
  %191 = phi %"struct.std::__1::pair"* [ %192, %211 ], [ %183, %182 ]
  %192 = getelementptr inbounds %"struct.std::__1::pair", %"struct.std::__1::pair"* %191, i64 -1
  %193 = getelementptr inbounds %"struct.std::__1::pair", %"struct.std::__1::pair"* %191, i64 -1, i32 1
  %194 = getelementptr inbounds %"class.std::__1::vector.45", %"class.std::__1::vector.45"* %193, i64 0, i32 0, i32 0
  %195 = load %"struct.media::SupportedVideoDecoderConfig"*, %"struct.media::SupportedVideoDecoderConfig"** %194, align 8
  %196 = icmp eq %"struct.media::SupportedVideoDecoderConfig"* %195, null
  br i1 %196, label %211, label %197

197:                                              ; preds = %190
  %198 = bitcast %"struct.media::SupportedVideoDecoderConfig"* %195 to i8*
  %199 = getelementptr inbounds %"struct.std::__1::pair", %"struct.std::__1::pair"* %191, i64 -1, i32 1, i32 0, i32 1
  %200 = load %"struct.media::SupportedVideoDecoderConfig"*, %"struct.media::SupportedVideoDecoderConfig"** %199, align 8
  %201 = icmp eq %"struct.media::SupportedVideoDecoderConfig"* %200, %195
  br i1 %201, label %209, label %202

202:                                              ; preds = %197, %202
  %203 = phi %"struct.media::SupportedVideoDecoderConfig"* [ %204, %202 ], [ %200, %197 ]
  %204 = getelementptr inbounds %"struct.media::SupportedVideoDecoderConfig", %"struct.media::SupportedVideoDecoderConfig"* %203, i64 -1
  tail call void @_ZN5media27SupportedVideoDecoderConfigD1Ev(%"struct.media::SupportedVideoDecoderConfig"* %204) #9
  %205 = icmp eq %"struct.media::SupportedVideoDecoderConfig"* %204, %195
  br i1 %205, label %206, label %202

206:                                              ; preds = %202
  %207 = bitcast %"class.std::__1::vector.45"* %193 to i8**
  %208 = load i8*, i8** %207, align 8
  br label %209

209:                                              ; preds = %206, %197
  %210 = phi i8* [ %208, %206 ], [ %198, %197 ]
  store %"struct.media::SupportedVideoDecoderConfig"* %195, %"struct.media::SupportedVideoDecoderConfig"** %199, align 8
  tail call void @_ZdlPv(i8* %210) #10
  br label %211

211:                                              ; preds = %209, %190
  %212 = icmp eq %"struct.std::__1::pair"* %192, %184
  br i1 %212, label %213, label %190

213:                                              ; preds = %211, %182
  %214 = icmp eq %"struct.std::__1::pair"* %185, null
  br i1 %214, label %217, label %215

215:                                              ; preds = %213
  %216 = bitcast %"struct.std::__1::pair"* %185 to i8*
  tail call void @_ZdlPv(i8* %216) #10
  br label %217

217:                                              ; preds = %215, %213, %71, %3
  %218 = load %"struct.std::__1::pair"*, %"struct.std::__1::pair"** %4, align 8
  %219 = getelementptr inbounds %"struct.std::__1::pair", %"struct.std::__1::pair"* %218, i64 0, i32 0
  %220 = load i32, i32* %1, align 4
  store i32 %220, i32* %219, align 8
  %221 = getelementptr inbounds %"struct.std::__1::pair", %"struct.std::__1::pair"* %218, i64 0, i32 1
  %222 = bitcast %"class.std::__1::vector.45"* %221 to i8*
  tail call void @llvm.memset.p0i8.i64(i8* align 8 %222, i8 0, i64 24, i1 false) #9
  %223 = bitcast %"class.std::__1::vector.45"* %2 to i64*
  %224 = load i64, i64* %223, align 8
  %225 = bitcast %"class.std::__1::vector.45"* %221 to i64*
  store i64 %224, i64* %225, align 8
  %226 = getelementptr inbounds %"class.std::__1::vector.45", %"class.std::__1::vector.45"* %2, i64 0, i32 0, i32 1
  %227 = bitcast %"struct.media::SupportedVideoDecoderConfig"** %226 to i64*
  %228 = load i64, i64* %227, align 8
  %229 = getelementptr inbounds %"struct.std::__1::pair", %"struct.std::__1::pair"* %218, i64 0, i32 1, i32 0, i32 1
  %230 = bitcast %"struct.media::SupportedVideoDecoderConfig"** %229 to i64*
  store i64 %228, i64* %230, align 8
  %231 = getelementptr inbounds %"class.std::__1::vector.45", %"class.std::__1::vector.45"* %2, i64 0, i32 0, i32 2, i32 0, i32 0
  %232 = bitcast %"struct.media::SupportedVideoDecoderConfig"** %231 to i64*
  %233 = load i64, i64* %232, align 8
  %234 = getelementptr inbounds %"struct.std::__1::pair", %"struct.std::__1::pair"* %218, i64 0, i32 1, i32 0, i32 2, i32 0, i32 0
  %235 = bitcast %"struct.media::SupportedVideoDecoderConfig"** %234 to i64*
  store i64 %233, i64* %235, align 8
  %236 = bitcast %"class.std::__1::vector.45"* %2 to i8*
  tail call void @llvm.memset.p0i8.i64(i8* align 8 %236, i8 0, i64 24, i1 false) #9
  %237 = load %"struct.std::__1::pair"*, %"struct.std::__1::pair"** %4, align 8
  %238 = getelementptr inbounds %"struct.std::__1::pair", %"struct.std::__1::pair"* %237, i64 1
  store %"struct.std::__1::pair"* %238, %"struct.std::__1::pair"** %4, align 8
  ret void
}

; Function Attrs: noreturn
declare void @_ZNKSt3__120__vector_base_commonILb1EE20__throw_length_errorEv(%"class.std::__1::__vector_base_common"*) local_unnamed_addr #6

; Function Attrs: noreturn nounwind
declare void @abort() local_unnamed_addr #7

; Function Attrs: nobuiltin nofree
declare noalias nonnull i8* @_Znwm(i64) local_unnamed_addr #8

; Function Attrs: argmemonly nounwind
declare void @llvm.memmove.p0i8.p0i8.i64(i8* nocapture, i8* nocapture readonly, i64, i1 immarg) #4

declare void @_ZN4base8internal13BindStateBaseC2EPFvvEPFvPKS1_E(%"class.base::internal::BindStateBase"*, void ()*, void (%"class.base::internal::BindStateBase"*)*) unnamed_addr #1

; Function Attrs: nounwind ssp uwtable
define linkonce_odr hidden %"class.gpu::CommandBufferStub"* @_ZN4base8internal7InvokerINS0_9BindStateIPFPN3gpu17CommandBufferStubE13scoped_refptrINS_22SingleThreadTaskRunnerEENS_7WeakPtrIN5media22MediaGpuChannelManagerEEENS_16UnguessableTokenEiEJS8_SC_SD_iEEEFS5_vEE3RunEPNS0_13BindStateBaseE(%"class.base::internal::BindStateBase"*) #0 comdat align 2 {
  %2 = alloca %"class.base::WeakPtr", align 8
  %3 = getelementptr inbounds %"class.base::internal::BindStateBase", %"class.base::internal::BindStateBase"* %0, i64 1
  %4 = bitcast %"class.base::internal::BindStateBase"* %3 to %"class.gpu::CommandBufferStub"* (%"class.base::SingleThreadTaskRunner"*, %"class.base::WeakPtr"*, i64, i64, i32)**
  %5 = getelementptr inbounds %"class.base::internal::BindStateBase", %"class.base::internal::BindStateBase"* %0, i64 1, i32 1
  %6 = getelementptr inbounds void ()*, void ()** %5, i64 5
  %7 = bitcast void ()** %6 to i32*
  %8 = bitcast %"class.base::WeakPtr"* %2 to i8*
  call void @llvm.lifetime.start.p0i8(i64 16, i8* nonnull %8) #9
  %9 = load %"class.gpu::CommandBufferStub"* (%"class.base::SingleThreadTaskRunner"*, %"class.base::WeakPtr"*, i64, i64, i32)*, %"class.gpu::CommandBufferStub"* (%"class.base::SingleThreadTaskRunner"*, %"class.base::WeakPtr"*, i64, i64, i32)** %4, align 8
  %10 = bitcast void ()** %5 to %"class.base::SingleThreadTaskRunner"**
  %11 = load %"class.base::SingleThreadTaskRunner"*, %"class.base::SingleThreadTaskRunner"** %10, align 8
  %12 = icmp eq %"class.base::SingleThreadTaskRunner"* %11, null
  br i1 %12, label %16, label %13

13:                                               ; preds = %1
  %14 = getelementptr inbounds %"class.base::SingleThreadTaskRunner", %"class.base::SingleThreadTaskRunner"* %11, i64 0, i32 0, i32 0, i32 1, i32 0, i32 0, i32 0, i32 0, i32 0, i32 0, i32 0, i32 0
  %15 = atomicrmw add i32* %14, i32 1 monotonic
  br label %16

16:                                               ; preds = %1, %13
  %17 = getelementptr inbounds %"class.base::WeakPtr", %"class.base::WeakPtr"* %2, i64 0, i32 0, i32 0
  %18 = getelementptr inbounds void ()*, void ()** %5, i64 1
  %19 = bitcast void ()** %18 to %"class.base::internal::WeakReference"*
  call void @_ZN4base8internal13WeakReferenceC1ERKS1_(%"class.base::internal::WeakReference"* nonnull %17, %"class.base::internal::WeakReference"* dereferenceable(8) %19) #9
  %20 = getelementptr inbounds %"class.base::WeakPtr", %"class.base::WeakPtr"* %2, i64 0, i32 0, i32 1
  %21 = getelementptr inbounds void ()*, void ()** %5, i64 2
  %22 = bitcast void ()** %21 to i64*
  %23 = load i64, i64* %22, align 8
  store i64 %23, i64* %20, align 8
  %24 = getelementptr inbounds void ()*, void ()** %5, i64 3
  %25 = bitcast void ()** %24 to i64*
  %26 = load i64, i64* %25, align 8
  %27 = getelementptr inbounds void ()*, void ()** %5, i64 4
  %28 = bitcast void ()** %27 to i64*
  %29 = load i64, i64* %28, align 8
  %30 = load i32, i32* %7, align 4
  %31 = call %"class.gpu::CommandBufferStub"* %9(%"class.base::SingleThreadTaskRunner"* %11, %"class.base::WeakPtr"* nonnull %2, i64 %26, i64 %29, i32 %30) #9
  %32 = getelementptr inbounds %"class.base::WeakPtr", %"class.base::WeakPtr"* %2, i64 0, i32 0
  call void @_ZN4base8internal11WeakPtrBaseD2Ev(%"class.base::internal::WeakPtrBase"* nonnull %32) #9
  call void @llvm.lifetime.end.p0i8(i64 16, i8* nonnull %8) #9
  ret %"class.gpu::CommandBufferStub"* %31
}

declare void @_ZN4base8internal13WeakReferenceC1ERKS1_(%"class.base::internal::WeakReference"*, %"class.base::internal::WeakReference"* dereferenceable(8)) unnamed_addr #1

; Function Attrs: nounwind ssp uwtable
define linkonce_odr hidden void @_ZN4base8internal9BindStateIPFPN3gpu17CommandBufferStubE13scoped_refptrINS_22SingleThreadTaskRunnerEENS_7WeakPtrIN5media22MediaGpuChannelManagerEEENS_16UnguessableTokenEiEJS7_SB_SC_iEE7DestroyEPKNS0_13BindStateBaseE(%"class.base::internal::BindStateBase"*) #0 comdat align 2 {
  %2 = icmp eq %"class.base::internal::BindStateBase"* %0, null
  br i1 %2, label %20, label %3

3:                                                ; preds = %1
  %4 = getelementptr inbounds %"class.base::internal::BindStateBase", %"class.base::internal::BindStateBase"* %0, i64 1, i32 2
  %5 = bitcast void (%"class.base::internal::BindStateBase"*)** %4 to %"class.base::internal::WeakPtrBase"*
  tail call void @_ZN4base8internal11WeakPtrBaseD2Ev(%"class.base::internal::WeakPtrBase"* %5) #9
  %6 = getelementptr inbounds %"class.base::internal::BindStateBase", %"class.base::internal::BindStateBase"* %0, i64 1, i32 1
  %7 = bitcast void ()** %6 to %"class.base::SingleThreadTaskRunner"**
  %8 = load %"class.base::SingleThreadTaskRunner"*, %"class.base::SingleThreadTaskRunner"** %7, align 8
  %9 = icmp eq %"class.base::SingleThreadTaskRunner"* %8, null
  br i1 %9, label %18, label %10

10:                                               ; preds = %3
  %11 = getelementptr inbounds %"class.base::SingleThreadTaskRunner", %"class.base::SingleThreadTaskRunner"* %8, i64 0, i32 0, i32 0, i32 1
  %12 = getelementptr inbounds %"class.base::RefCountedThreadSafe", %"class.base::RefCountedThreadSafe"* %11, i64 0, i32 0, i32 0, i32 0, i32 0, i32 0, i32 0, i32 0, i32 0
  %13 = atomicrmw sub i32* %12, i32 1 acq_rel
  %14 = icmp eq i32 %13, 1
  br i1 %14, label %15, label %18

15:                                               ; preds = %10
  %16 = getelementptr inbounds %"class.base::RefCountedThreadSafe", %"class.base::RefCountedThreadSafe"* %11, i64 -2
  %17 = bitcast %"class.base::RefCountedThreadSafe"* %16 to %"class.base::TaskRunner"*
  tail call void @_ZN4base16TaskRunnerTraits8DestructEPKNS_10TaskRunnerE(%"class.base::TaskRunner"* %17) #9
  br label %18

18:                                               ; preds = %3, %10, %15
  %19 = bitcast %"class.base::internal::BindStateBase"* %0 to i8*
  tail call void @_ZdlPv(i8* %19) #10
  br label %20

20:                                               ; preds = %18, %1
  ret void
}

attributes #0 = { nounwind ssp uwtable "correctly-rounded-divide-sqrt-fp-math"="false" "disable-tail-calls"="false" "less-precise-fpmad"="false" "min-legal-vector-width"="0" "no-frame-pointer-elim"="false" "no-frame-pointer-elim-non-leaf" "no-infs-fp-math"="false" "no-jump-tables"="false" "no-nans-fp-math"="false" "no-signed-zeros-fp-math"="false" "no-trapping-math"="false" "null-pointer-is-valid"="true" "stack-protector-buffer-size"="4" "target-cpu"="x86-64" "target-features"="+cx8,+fxsr,+mmx,+sse,+sse2,+sse3,+x87" "unsafe-fp-math"="false" "use-soft-float"="false" }
attributes #1 = { "correctly-rounded-divide-sqrt-fp-math"="false" "disable-tail-calls"="false" "less-precise-fpmad"="false" "no-frame-pointer-elim"="false" "no-frame-pointer-elim-non-leaf" "no-infs-fp-math"="false" "no-nans-fp-math"="false" "no-signed-zeros-fp-math"="false" "no-trapping-math"="false" "null-pointer-is-valid"="true" "stack-protector-buffer-size"="4" "target-cpu"="x86-64" "target-features"="+cx8,+fxsr,+mmx,+sse,+sse2,+sse3,+x87" "unsafe-fp-math"="false" "use-soft-float"="false" }
attributes #2 = { nounwind "correctly-rounded-divide-sqrt-fp-math"="false" "disable-tail-calls"="false" "less-precise-fpmad"="false" "no-frame-pointer-elim"="false" "no-frame-pointer-elim-non-leaf" "no-infs-fp-math"="false" "no-nans-fp-math"="false" "no-signed-zeros-fp-math"="false" "no-trapping-math"="false" "null-pointer-is-valid"="true" "stack-protector-buffer-size"="4" "target-cpu"="x86-64" "target-features"="+cx8,+fxsr,+mmx,+sse,+sse2,+sse3,+x87" "unsafe-fp-math"="false" "use-soft-float"="false" }
attributes #3 = { nobuiltin nounwind "correctly-rounded-divide-sqrt-fp-math"="false" "disable-tail-calls"="false" "less-precise-fpmad"="false" "no-frame-pointer-elim"="false" "no-frame-pointer-elim-non-leaf" "no-infs-fp-math"="false" "no-nans-fp-math"="false" "no-signed-zeros-fp-math"="false" "no-trapping-math"="false" "null-pointer-is-valid"="true" "stack-protector-buffer-size"="4" "target-cpu"="x86-64" "target-features"="+cx8,+fxsr,+mmx,+sse,+sse2,+sse3,+x87" "unsafe-fp-math"="false" "use-soft-float"="false" }
attributes #4 = { argmemonly nounwind }
attributes #5 = { norecurse nounwind readnone ssp uwtable "correctly-rounded-divide-sqrt-fp-math"="false" "disable-tail-calls"="false" "less-precise-fpmad"="false" "min-legal-vector-width"="0" "no-frame-pointer-elim"="false" "no-frame-pointer-elim-non-leaf" "no-infs-fp-math"="false" "no-jump-tables"="false" "no-nans-fp-math"="false" "no-signed-zeros-fp-math"="false" "no-trapping-math"="false" "null-pointer-is-valid"="true" "stack-protector-buffer-size"="4" "target-cpu"="x86-64" "target-features"="+cx8,+fxsr,+mmx,+sse,+sse2,+sse3,+x87" "unsafe-fp-math"="false" "use-soft-float"="false" }
attributes #6 = { noreturn "correctly-rounded-divide-sqrt-fp-math"="false" "disable-tail-calls"="false" "less-precise-fpmad"="false" "no-frame-pointer-elim"="false" "no-frame-pointer-elim-non-leaf" "no-infs-fp-math"="false" "no-nans-fp-math"="false" "no-signed-zeros-fp-math"="false" "no-trapping-math"="false" "null-pointer-is-valid"="true" "stack-protector-buffer-size"="4" "target-cpu"="x86-64" "target-features"="+cx8,+fxsr,+mmx,+sse,+sse2,+sse3,+x87" "unsafe-fp-math"="false" "use-soft-float"="false" }
attributes #7 = { noreturn nounwind "correctly-rounded-divide-sqrt-fp-math"="false" "disable-tail-calls"="false" "less-precise-fpmad"="false" "no-frame-pointer-elim"="false" "no-frame-pointer-elim-non-leaf" "no-infs-fp-math"="false" "no-nans-fp-math"="false" "no-signed-zeros-fp-math"="false" "no-trapping-math"="false" "null-pointer-is-valid"="true" "stack-protector-buffer-size"="4" "target-cpu"="x86-64" "target-features"="+cx8,+fxsr,+mmx,+sse,+sse2,+sse3,+x87" "unsafe-fp-math"="false" "use-soft-float"="false" }
attributes #8 = { nobuiltin nofree "correctly-rounded-divide-sqrt-fp-math"="false" "disable-tail-calls"="false" "less-precise-fpmad"="false" "no-frame-pointer-elim"="false" "no-frame-pointer-elim-non-leaf" "no-infs-fp-math"="false" "no-nans-fp-math"="false" "no-signed-zeros-fp-math"="false" "no-trapping-math"="false" "null-pointer-is-valid"="true" "stack-protector-buffer-size"="4" "target-cpu"="x86-64" "target-features"="+cx8,+fxsr,+mmx,+sse,+sse2,+sse3,+x87" "unsafe-fp-math"="false" "use-soft-float"="false" }
attributes #9 = { nounwind }
attributes #10 = { builtin nounwind }
attributes #11 = { noreturn nounwind }

!llvm.module.flags = !{!0, !1}

!0 = !{i32 1, !"wchar_size", i32 4}
!1 = !{i32 7, !"PIC Level", i32 2}
!2 = !{i8 0, i8 2}
!3 = !{!4, !6}
!4 = distinct !{!4, !5, !"_ZN4base8internal8BindImplINS_17RepeatingCallbackEPFPN3gpu17CommandBufferStubE13scoped_refptrINS_22SingleThreadTaskRunnerEENS_7WeakPtrIN5media22MediaGpuChannelManagerEEENS_16UnguessableTokenEiEJRS8_RSC_RSD_RiEEEDcOT0_DpOT1_: argument 0"}
!5 = distinct !{!5, !"_ZN4base8internal8BindImplINS_17RepeatingCallbackEPFPN3gpu17CommandBufferStubE13scoped_refptrINS_22SingleThreadTaskRunnerEENS_7WeakPtrIN5media22MediaGpuChannelManagerEEENS_16UnguessableTokenEiEJRS8_RSC_RSD_RiEEEDcOT0_DpOT1_"}
!6 = distinct !{!6, !7, !"_ZN4base13BindRepeatingIPFPN3gpu17CommandBufferStubE13scoped_refptrINS_22SingleThreadTaskRunnerEENS_7WeakPtrIN5media22MediaGpuChannelManagerEEENS_16UnguessableTokenEiEJRS6_RSA_RSB_RiEEENS_17RepeatingCallbackINS_8internal14BindTypeHelperIT_JDpT0_EE14UnboundRunTypeEEEOSL_DpOSM_: argument 0"}
!7 = distinct !{!7, !"_ZN4base13BindRepeatingIPFPN3gpu17CommandBufferStubE13scoped_refptrINS_22SingleThreadTaskRunnerEENS_7WeakPtrIN5media22MediaGpuChannelManagerEEENS_16UnguessableTokenEiEJRS6_RSA_RSB_RiEEENS_17RepeatingCallbackINS_8internal14BindTypeHelperIT_JDpT0_EE14UnboundRunTypeEEEOSL_DpOSM_"}
