; ModuleID = '../../v8/src/compiler/graph-assembler.cc'
source_filename = "../../v8/src/compiler/graph-assembler.cc"
target datalayout = "e-m:e-i64:64-f80:128-n8:16:32:64-S128"
target triple = "x86_64-unknown-linux-gnu"

module asm ".symver exp, exp@GLIBC_2.2.5"
module asm ".symver exp2, exp2@GLIBC_2.2.5"
module asm ".symver exp2f, exp2f@GLIBC_2.2.5"
module asm ".symver expf, expf@GLIBC_2.2.5"
module asm ".symver lgamma, lgamma@GLIBC_2.2.5"
module asm ".symver lgammaf, lgammaf@GLIBC_2.2.5"
module asm ".symver lgammal, lgammal@GLIBC_2.2.5"
module asm ".symver log, log@GLIBC_2.2.5"
module asm ".symver log2, log2@GLIBC_2.2.5"
module asm ".symver log2f, log2f@GLIBC_2.2.5"
module asm ".symver logf, logf@GLIBC_2.2.5"
module asm ".symver pow, pow@GLIBC_2.2.5"
module asm ".symver powf, powf@GLIBC_2.2.5"

%"class.v8::internal::compiler::GraphAssembler::BasicBlockUpdater" = type <{ %"class.v8::internal::Zone"*, %"class.v8::internal::compiler::BasicBlock"*, %"class.v8::internal::compiler::BasicBlock"*, %"class.std::__1::__wrap_iter", %"class.std::__1::__wrap_iter", %"class.v8::internal::compiler::Schedule"*, %"class.v8::internal::compiler::Graph"*, %"class.v8::internal::compiler::CommonOperatorBuilder"*, %"class.v8::internal::ZoneVector", %"class.v8::internal::ZoneVector.25", i32, [4 x i8], %"class.v8::internal::compiler::Node"*, i8, [7 x i8], i64, i32, [4 x i8] }>
%"class.v8::internal::compiler::BasicBlock" = type { i32, i32, i8, i32, %"class.v8::internal::compiler::BasicBlock"*, %"class.v8::internal::compiler::BasicBlock"*, %"class.v8::internal::compiler::BasicBlock"*, %"class.v8::internal::compiler::BasicBlock"*, i32, i32, %"class.v8::internal::compiler::Node"*, %"class.v8::internal::ZoneVector", %"class.v8::internal::ZoneVector.11", %"class.v8::internal::ZoneVector.11", %"class.v8::internal::compiler::BasicBlock::Id" }
%"class.v8::internal::ZoneVector.11" = type { %"class.std::__1::vector.12" }
%"class.std::__1::vector.12" = type { %"class.std::__1::__vector_base.13" }
%"class.std::__1::__vector_base.13" = type { %"class.v8::internal::compiler::BasicBlock"**, %"class.v8::internal::compiler::BasicBlock"**, %"class.std::__1::__compressed_pair.14" }
%"class.std::__1::__compressed_pair.14" = type { %"struct.std::__1::__compressed_pair_elem.15", %"struct.std::__1::__compressed_pair_elem.16" }
%"struct.std::__1::__compressed_pair_elem.15" = type { %"class.v8::internal::compiler::BasicBlock"** }
%"struct.std::__1::__compressed_pair_elem.16" = type { %"class.v8::internal::ZoneAllocator.17" }
%"class.v8::internal::ZoneAllocator.17" = type { %"class.v8::internal::Zone"* }
%"class.v8::internal::compiler::BasicBlock::Id" = type { i64 }
%"class.std::__1::__wrap_iter" = type { %"class.v8::internal::compiler::Node"** }
%"class.v8::internal::ZoneVector" = type { %"class.std::__1::vector" }
%"class.std::__1::vector" = type { %"class.std::__1::__vector_base" }
%"class.std::__1::__vector_base" = type { %"class.v8::internal::compiler::Node"**, %"class.v8::internal::compiler::Node"**, %"class.std::__1::__compressed_pair.8" }
%"class.std::__1::__compressed_pair.8" = type { %"struct.std::__1::__compressed_pair_elem.9", %"struct.std::__1::__compressed_pair_elem.10" }
%"struct.std::__1::__compressed_pair_elem.9" = type { %"class.v8::internal::compiler::Node"** }
%"struct.std::__1::__compressed_pair_elem.10" = type { %"class.v8::internal::ZoneAllocator" }
%"class.v8::internal::ZoneAllocator" = type { %"class.v8::internal::Zone"* }
%"class.v8::internal::ZoneVector.25" = type { %"class.std::__1::vector.26" }
%"class.std::__1::vector.26" = type { %"class.std::__1::__vector_base.27" }
%"class.std::__1::__vector_base.27" = type { %"struct.v8::internal::compiler::GraphAssembler::BasicBlockUpdater::SuccessorInfo"*, %"struct.v8::internal::compiler::GraphAssembler::BasicBlockUpdater::SuccessorInfo"*, %"class.std::__1::__compressed_pair.28" }
%"struct.v8::internal::compiler::GraphAssembler::BasicBlockUpdater::SuccessorInfo" = type { %"class.v8::internal::compiler::BasicBlock"*, i64 }
%"class.std::__1::__compressed_pair.28" = type { %"struct.std::__1::__compressed_pair_elem.29", %"struct.std::__1::__compressed_pair_elem.30" }
%"struct.std::__1::__compressed_pair_elem.29" = type { %"struct.v8::internal::compiler::GraphAssembler::BasicBlockUpdater::SuccessorInfo"* }
%"struct.std::__1::__compressed_pair_elem.30" = type { %"class.v8::internal::ZoneAllocator.31" }
%"class.v8::internal::ZoneAllocator.31" = type { %"class.v8::internal::Zone"* }
%"class.v8::internal::compiler::Node" = type { %"class.v8::internal::compiler::Operator"*, %"class.v8::internal::compiler::Type", i32, i32, %"struct.v8::internal::compiler::Node::Use"* }
%"class.v8::internal::compiler::Operator" = type <{ i32 (...)**, i8*, i16, %"class.v8::base::Flags", i8, i32, i32, i32, i32, i8, [3 x i8], i32, [4 x i8] }>
%"class.v8::base::Flags" = type { i8 }
%"class.v8::internal::compiler::Type" = type { i64 }
%"struct.v8::internal::compiler::Node::Use" = type { %"struct.v8::internal::compiler::Node::Use"*, %"struct.v8::internal::compiler::Node::Use"*, i32 }
%"class.v8::internal::compiler::Schedule" = type { %"class.v8::internal::Zone"*, %"class.v8::internal::ZoneVector.11", %"class.v8::internal::ZoneVector.11", %"class.v8::internal::ZoneVector.11", %"class.v8::internal::compiler::BasicBlock"*, %"class.v8::internal::compiler::BasicBlock"* }
%"class.v8::internal::compiler::Graph" = type { %"class.v8::internal::Zone"*, %"class.v8::internal::compiler::Node"*, %"class.v8::internal::compiler::Node"*, i32, i32, %"class.v8::internal::ZoneVector.18" }
%"class.v8::internal::ZoneVector.18" = type { %"class.std::__1::vector.19" }
%"class.std::__1::vector.19" = type { %"class.std::__1::__vector_base.20" }
%"class.std::__1::__vector_base.20" = type { %"class.v8::internal::compiler::GraphDecorator"**, %"class.v8::internal::compiler::GraphDecorator"**, %"class.std::__1::__compressed_pair.21" }
%"class.v8::internal::compiler::GraphDecorator" = type { i32 (...)** }
%"class.std::__1::__compressed_pair.21" = type { %"struct.std::__1::__compressed_pair_elem.22", %"struct.std::__1::__compressed_pair_elem.23" }
%"struct.std::__1::__compressed_pair_elem.22" = type { %"class.v8::internal::compiler::GraphDecorator"** }
%"struct.std::__1::__compressed_pair_elem.23" = type { %"class.v8::internal::ZoneAllocator.24" }
%"class.v8::internal::ZoneAllocator.24" = type { %"class.v8::internal::Zone"* }
%"class.v8::internal::compiler::CommonOperatorBuilder" = type { %"struct.v8::internal::compiler::CommonOperatorGlobalCache"*, %"class.v8::internal::Zone"* }
%"struct.v8::internal::compiler::CommonOperatorGlobalCache" = type opaque
%"class.v8::internal::Zone" = type <{ i64, i64, i64, i64, %"class.v8::internal::AccountingAllocator"*, %"class.v8::internal::Segment"*, i8*, i8, i8, [6 x i8] }>
%"class.v8::internal::AccountingAllocator" = type { i32 (...)**, %"struct.std::__1::atomic", %"struct.std::__1::atomic", %"class.std::__1::unique_ptr", %"class.std::__1::unique_ptr.2" }
%"struct.std::__1::atomic" = type { %"struct.std::__1::__atomic_base" }
%"struct.std::__1::__atomic_base" = type { %"struct.std::__1::__atomic_base.0" }
%"struct.std::__1::__atomic_base.0" = type { %"struct.std::__1::__cxx_atomic_impl" }
%"struct.std::__1::__cxx_atomic_impl" = type { %"struct.std::__1::__cxx_atomic_base_impl" }
%"struct.std::__1::__cxx_atomic_base_impl" = type { i64 }
%"class.std::__1::unique_ptr" = type { %"class.std::__1::__compressed_pair" }
%"class.std::__1::__compressed_pair" = type { %"struct.std::__1::__compressed_pair_elem" }
%"struct.std::__1::__compressed_pair_elem" = type { %"class.v8::internal::VirtualMemory"* }
%"class.v8::internal::VirtualMemory" = type { %"class.v8::PageAllocator"*, %"class.v8::base::AddressRegion" }
%"class.v8::PageAllocator" = type { i32 (...)** }
%"class.v8::base::AddressRegion" = type { i64, i64 }
%"class.std::__1::unique_ptr.2" = type { %"class.std::__1::__compressed_pair.3" }
%"class.std::__1::__compressed_pair.3" = type { %"struct.std::__1::__compressed_pair_elem.4" }
%"struct.std::__1::__compressed_pair_elem.4" = type { %"class.v8::base::BoundedPageAllocator"* }
%"class.v8::base::BoundedPageAllocator" = type opaque
%"class.v8::internal::Segment" = type { %"class.v8::internal::Zone"*, %"class.v8::internal::Segment"*, i64 }
%"class.v8::internal::compiler::GraphAssembler" = type <{ i32 (...)**, %"class.v8::internal::Zone"*, %"class.v8::internal::compiler::MachineGraph"*, %"class.v8::internal::compiler::Node"*, %"class.v8::internal::compiler::Node"*, %"class.v8::base::Optional", %"class.std::__1::unique_ptr.133", %"class.v8::internal::ZoneVector.139", i8, [3 x i8], i32, %"class.v8::internal::ZoneVector.146", i8, [7 x i8] }>
%"class.v8::base::Optional" = type { %"class.v8::base::internal::OptionalBase" }
%"class.v8::base::internal::OptionalBase" = type { %"struct.v8::base::internal::OptionalStorage" }
%"struct.v8::base::internal::OptionalStorage" = type { %"struct.v8::base::internal::OptionalStorageBase" }
%"struct.v8::base::internal::OptionalStorageBase" = type { i8, %union.anon }
%union.anon = type { %"class.std::__1::function" }
%"class.std::__1::function" = type { %"class.std::__1::__function::__policy_func" }
%"class.std::__1::__function::__policy_func" = type { %"union.std::__1::__function::__policy_storage", %"struct.std::__1::__function::__policy_invoker", %"struct.std::__1::__function::__policy"* }
%"union.std::__1::__function::__policy_storage" = type { i8*, [8 x i8] }
%"struct.std::__1::__function::__policy_invoker" = type { void (%"union.std::__1::__function::__policy_storage"*, %"class.v8::internal::compiler::Node"*)* }
%"struct.std::__1::__function::__policy" = type { i8* (i8*)*, void (i8*)*, i8, %"class.std::type_info"* }
%"class.std::type_info" = type { i32 (...)**, i8* }
%"class.std::__1::unique_ptr.133" = type { %"class.std::__1::__compressed_pair.134" }
%"class.std::__1::__compressed_pair.134" = type { %"struct.std::__1::__compressed_pair_elem.135" }
%"struct.std::__1::__compressed_pair_elem.135" = type { %"class.v8::internal::compiler::GraphAssembler::BasicBlockUpdater"* }
%"class.v8::internal::ZoneVector.139" = type { %"class.std::__1::vector.140" }
%"class.std::__1::vector.140" = type { %"class.std::__1::__vector_base.141" }
%"class.std::__1::__vector_base.141" = type { %"class.v8::internal::compiler::Reducer"**, %"class.v8::internal::compiler::Reducer"**, %"class.std::__1::__compressed_pair.142" }
%"class.v8::internal::compiler::Reducer" = type { i32 (...)** }
%"class.std::__1::__compressed_pair.142" = type { %"struct.std::__1::__compressed_pair_elem.143", %"struct.std::__1::__compressed_pair_elem.144" }
%"struct.std::__1::__compressed_pair_elem.143" = type { %"class.v8::internal::compiler::Reducer"** }
%"struct.std::__1::__compressed_pair_elem.144" = type { %"class.v8::internal::ZoneAllocator.145" }
%"class.v8::internal::ZoneAllocator.145" = type { %"class.v8::internal::Zone"* }
%"class.v8::internal::ZoneVector.146" = type { %"class.std::__1::vector.147" }
%"class.std::__1::vector.147" = type { %"class.std::__1::__vector_base.148" }
%"class.std::__1::__vector_base.148" = type { %"class.v8::internal::compiler::Node"***, %"class.v8::internal::compiler::Node"***, %"class.std::__1::__compressed_pair.149" }
%"class.std::__1::__compressed_pair.149" = type { %"struct.std::__1::__compressed_pair_elem.150", %"struct.std::__1::__compressed_pair_elem.151" }
%"struct.std::__1::__compressed_pair_elem.150" = type { %"class.v8::internal::compiler::Node"*** }
%"struct.std::__1::__compressed_pair_elem.151" = type { %"class.v8::internal::ZoneAllocator.152" }
%"class.v8::internal::ZoneAllocator.152" = type { %"class.v8::internal::Zone"* }
%"class.v8::internal::compiler::MachineGraph" = type { %"class.v8::internal::compiler::Graph"*, %"class.v8::internal::compiler::CommonOperatorBuilder"*, %"class.v8::internal::compiler::MachineOperatorBuilder"*, %"class.v8::internal::compiler::CommonNodeCache", %"class.v8::internal::compiler::Node"* }
%"class.v8::internal::compiler::MachineOperatorBuilder" = type <{ %"class.v8::internal::Zone"*, %"struct.v8::internal::compiler::MachineOperatorGlobalCache"*, i8, [3 x i8], %"class.v8::base::Flags.34", %"class.v8::internal::compiler::MachineOperatorBuilder::AlignmentRequirements", [4 x i8] }>
%"struct.v8::internal::compiler::MachineOperatorGlobalCache" = type opaque
%"class.v8::base::Flags.34" = type { i32 }
%"class.v8::internal::compiler::MachineOperatorBuilder::AlignmentRequirements" = type { i32, %"class.v8::base::EnumSet", %"class.v8::base::EnumSet" }
%"class.v8::base::EnumSet" = type { i32 }
%"class.v8::internal::compiler::CommonNodeCache" = type { %"class.v8::internal::compiler::NodeCache", %"class.v8::internal::compiler::NodeCache.52", %"class.v8::internal::compiler::NodeCache", %"class.v8::internal::compiler::NodeCache", %"class.v8::internal::compiler::NodeCache.52", %"class.v8::internal::compiler::NodeCache.52", %"class.v8::internal::compiler::NodeCache.52", %"class.v8::internal::compiler::NodeCache.52", %"class.v8::internal::compiler::NodeCache.52", %"class.v8::internal::compiler::NodeCache.79", %"class.v8::internal::compiler::NodeCache.106" }
%"class.v8::internal::compiler::NodeCache" = type { %"class.v8::internal::ZoneUnorderedMap" }
%"class.v8::internal::ZoneUnorderedMap" = type { %"class.std::__1::unordered_map" }
%"class.std::__1::unordered_map" = type { %"class.std::__1::__hash_table" }
%"class.std::__1::__hash_table" = type <{ %"class.std::__1::unique_ptr.35", %"class.std::__1::__compressed_pair.43", %"class.std::__1::__compressed_pair.47", %"class.std::__1::__compressed_pair.49", [4 x i8] }>
%"class.std::__1::unique_ptr.35" = type { %"class.std::__1::__compressed_pair.36" }
%"class.std::__1::__compressed_pair.36" = type { %"struct.std::__1::__compressed_pair_elem.37", %"struct.std::__1::__compressed_pair_elem.38" }
%"struct.std::__1::__compressed_pair_elem.37" = type { %"struct.std::__1::__hash_node_base"** }
%"struct.std::__1::__hash_node_base" = type { %"struct.std::__1::__hash_node_base"* }
%"struct.std::__1::__compressed_pair_elem.38" = type { %"class.std::__1::__bucket_list_deallocator" }
%"class.std::__1::__bucket_list_deallocator" = type { %"class.std::__1::__compressed_pair.39" }
%"class.std::__1::__compressed_pair.39" = type { %"struct.std::__1::__compressed_pair_elem.40", %"struct.std::__1::__compressed_pair_elem.41" }
%"struct.std::__1::__compressed_pair_elem.40" = type { i64 }
%"struct.std::__1::__compressed_pair_elem.41" = type { %"class.v8::internal::ZoneAllocator.42" }
%"class.v8::internal::ZoneAllocator.42" = type { %"class.v8::internal::Zone"* }
%"class.std::__1::__compressed_pair.43" = type { %"struct.std::__1::__compressed_pair_elem.44", %"struct.std::__1::__compressed_pair_elem.45" }
%"struct.std::__1::__compressed_pair_elem.44" = type { %"struct.std::__1::__hash_node_base" }
%"struct.std::__1::__compressed_pair_elem.45" = type { %"class.v8::internal::ZoneAllocator.46" }
%"class.v8::internal::ZoneAllocator.46" = type { %"class.v8::internal::Zone"* }
%"class.std::__1::__compressed_pair.47" = type { %"struct.std::__1::__compressed_pair_elem.40" }
%"class.std::__1::__compressed_pair.49" = type { %"struct.std::__1::__compressed_pair_elem.50" }
%"struct.std::__1::__compressed_pair_elem.50" = type { float }
%"class.v8::internal::compiler::NodeCache.52" = type { %"class.v8::internal::ZoneUnorderedMap.53" }
%"class.v8::internal::ZoneUnorderedMap.53" = type { %"class.std::__1::unordered_map.54" }
%"class.std::__1::unordered_map.54" = type { %"class.std::__1::__hash_table.55" }
%"class.std::__1::__hash_table.55" = type <{ %"class.std::__1::unique_ptr.56", %"class.std::__1::__compressed_pair.65", %"class.std::__1::__compressed_pair.69", %"class.std::__1::__compressed_pair.73", [4 x i8] }>
%"class.std::__1::unique_ptr.56" = type { %"class.std::__1::__compressed_pair.57" }
%"class.std::__1::__compressed_pair.57" = type { %"struct.std::__1::__compressed_pair_elem.58", %"struct.std::__1::__compressed_pair_elem.60" }
%"struct.std::__1::__compressed_pair_elem.58" = type { %"struct.std::__1::__hash_node_base.59"** }
%"struct.std::__1::__hash_node_base.59" = type { %"struct.std::__1::__hash_node_base.59"* }
%"struct.std::__1::__compressed_pair_elem.60" = type { %"class.std::__1::__bucket_list_deallocator.61" }
%"class.std::__1::__bucket_list_deallocator.61" = type { %"class.std::__1::__compressed_pair.62" }
%"class.std::__1::__compressed_pair.62" = type { %"struct.std::__1::__compressed_pair_elem.40", %"struct.std::__1::__compressed_pair_elem.63" }
%"struct.std::__1::__compressed_pair_elem.63" = type { %"class.v8::internal::ZoneAllocator.64" }
%"class.v8::internal::ZoneAllocator.64" = type { %"class.v8::internal::Zone"* }
%"class.std::__1::__compressed_pair.65" = type { %"struct.std::__1::__compressed_pair_elem.66", %"struct.std::__1::__compressed_pair_elem.67" }
%"struct.std::__1::__compressed_pair_elem.66" = type { %"struct.std::__1::__hash_node_base.59" }
%"struct.std::__1::__compressed_pair_elem.67" = type { %"class.v8::internal::ZoneAllocator.68" }
%"class.v8::internal::ZoneAllocator.68" = type { %"class.v8::internal::Zone"* }
%"class.std::__1::__compressed_pair.69" = type { %"struct.std::__1::__compressed_pair_elem.40" }
%"class.std::__1::__compressed_pair.73" = type { %"struct.std::__1::__compressed_pair_elem.50" }
%"class.v8::internal::compiler::NodeCache.79" = type { %"class.v8::internal::ZoneUnorderedMap.80" }
%"class.v8::internal::ZoneUnorderedMap.80" = type { %"class.std::__1::unordered_map.81" }
%"class.std::__1::unordered_map.81" = type { %"class.std::__1::__hash_table.82" }
%"class.std::__1::__hash_table.82" = type <{ %"class.std::__1::unique_ptr.83", %"class.std::__1::__compressed_pair.92", %"class.std::__1::__compressed_pair.96", %"class.std::__1::__compressed_pair.100", [4 x i8] }>
%"class.std::__1::unique_ptr.83" = type { %"class.std::__1::__compressed_pair.84" }
%"class.std::__1::__compressed_pair.84" = type { %"struct.std::__1::__compressed_pair_elem.85", %"struct.std::__1::__compressed_pair_elem.87" }
%"struct.std::__1::__compressed_pair_elem.85" = type { %"struct.std::__1::__hash_node_base.86"** }
%"struct.std::__1::__hash_node_base.86" = type { %"struct.std::__1::__hash_node_base.86"* }
%"struct.std::__1::__compressed_pair_elem.87" = type { %"class.std::__1::__bucket_list_deallocator.88" }
%"class.std::__1::__bucket_list_deallocator.88" = type { %"class.std::__1::__compressed_pair.89" }
%"class.std::__1::__compressed_pair.89" = type { %"struct.std::__1::__compressed_pair_elem.40", %"struct.std::__1::__compressed_pair_elem.90" }
%"struct.std::__1::__compressed_pair_elem.90" = type { %"class.v8::internal::ZoneAllocator.91" }
%"class.v8::internal::ZoneAllocator.91" = type { %"class.v8::internal::Zone"* }
%"class.std::__1::__compressed_pair.92" = type { %"struct.std::__1::__compressed_pair_elem.93", %"struct.std::__1::__compressed_pair_elem.94" }
%"struct.std::__1::__compressed_pair_elem.93" = type { %"struct.std::__1::__hash_node_base.86" }
%"struct.std::__1::__compressed_pair_elem.94" = type { %"class.v8::internal::ZoneAllocator.95" }
%"class.v8::internal::ZoneAllocator.95" = type { %"class.v8::internal::Zone"* }
%"class.std::__1::__compressed_pair.96" = type { %"struct.std::__1::__compressed_pair_elem.40" }
%"class.std::__1::__compressed_pair.100" = type { %"struct.std::__1::__compressed_pair_elem.50" }
%"class.v8::internal::compiler::NodeCache.106" = type { %"class.v8::internal::ZoneUnorderedMap.107" }
%"class.v8::internal::ZoneUnorderedMap.107" = type { %"class.std::__1::unordered_map.108" }
%"class.std::__1::unordered_map.108" = type { %"class.std::__1::__hash_table.109" }
%"class.std::__1::__hash_table.109" = type <{ %"class.std::__1::unique_ptr.110", %"class.std::__1::__compressed_pair.119", %"class.std::__1::__compressed_pair.123", %"class.std::__1::__compressed_pair.127", [4 x i8] }>
%"class.std::__1::unique_ptr.110" = type { %"class.std::__1::__compressed_pair.111" }
%"class.std::__1::__compressed_pair.111" = type { %"struct.std::__1::__compressed_pair_elem.112", %"struct.std::__1::__compressed_pair_elem.114" }
%"struct.std::__1::__compressed_pair_elem.112" = type { %"struct.std::__1::__hash_node_base.113"** }
%"struct.std::__1::__hash_node_base.113" = type { %"struct.std::__1::__hash_node_base.113"* }
%"struct.std::__1::__compressed_pair_elem.114" = type { %"class.std::__1::__bucket_list_deallocator.115" }
%"class.std::__1::__bucket_list_deallocator.115" = type { %"class.std::__1::__compressed_pair.116" }
%"class.std::__1::__compressed_pair.116" = type { %"struct.std::__1::__compressed_pair_elem.40", %"struct.std::__1::__compressed_pair_elem.117" }
%"struct.std::__1::__compressed_pair_elem.117" = type { %"class.v8::internal::ZoneAllocator.118" }
%"class.v8::internal::ZoneAllocator.118" = type { %"class.v8::internal::Zone"* }
%"class.std::__1::__compressed_pair.119" = type { %"struct.std::__1::__compressed_pair_elem.120", %"struct.std::__1::__compressed_pair_elem.121" }
%"struct.std::__1::__compressed_pair_elem.120" = type { %"struct.std::__1::__hash_node_base.113" }
%"struct.std::__1::__compressed_pair_elem.121" = type { %"class.v8::internal::ZoneAllocator.122" }
%"class.v8::internal::ZoneAllocator.122" = type { %"class.v8::internal::Zone"* }
%"class.std::__1::__compressed_pair.123" = type { %"struct.std::__1::__compressed_pair_elem.40" }
%"class.std::__1::__compressed_pair.127" = type { %"struct.std::__1::__compressed_pair_elem.50" }
%"class.std::__1::__vector_base_common" = type { i8 }
%"class.v8::internal::compiler::ObserveNodeManager" = type opaque
%"class.v8::internal::compiler::JSGraphAssembler" = type { %"class.v8::internal::compiler::GraphAssembler.base", %"class.v8::internal::compiler::JSGraph"*, %"class.v8::internal::SetOncePointer" }
%"class.v8::internal::compiler::GraphAssembler.base" = type <{ i32 (...)**, %"class.v8::internal::Zone"*, %"class.v8::internal::compiler::MachineGraph"*, %"class.v8::internal::compiler::Node"*, %"class.v8::internal::compiler::Node"*, %"class.v8::base::Optional", %"class.std::__1::unique_ptr.133", %"class.v8::internal::ZoneVector.139", i8, [3 x i8], i32, %"class.v8::internal::ZoneVector.146", i8 }>
%"class.v8::internal::compiler::JSGraph" = type { %"class.v8::internal::compiler::MachineGraph", %"class.v8::internal::Isolate"*, %"class.v8::internal::compiler::JSOperatorBuilder"*, %"class.v8::internal::compiler::SimplifiedOperatorBuilder"*, %"class.v8::internal::compiler::Node"*, %"class.v8::internal::compiler::Node"*, %"class.v8::internal::compiler::Node"*, %"class.v8::internal::compiler::Node"*, %"class.v8::internal::compiler::Node"*, %"class.v8::internal::compiler::Node"*, %"class.v8::internal::compiler::Node"*, %"class.v8::internal::compiler::Node"*, %"class.v8::internal::compiler::Node"*, %"class.v8::internal::compiler::Node"*, %"class.v8::internal::compiler::Node"*, %"class.v8::internal::compiler::Node"*, %"class.v8::internal::compiler::Node"*, %"class.v8::internal::compiler::Node"*, %"class.v8::internal::compiler::Node"*, %"class.v8::internal::compiler::Node"*, %"class.v8::internal::compiler::Node"*, %"class.v8::internal::compiler::Node"*, %"class.v8::internal::compiler::Node"*, %"class.v8::internal::compiler::Node"*, %"class.v8::internal::compiler::Node"*, %"class.v8::internal::compiler::Node"*, %"class.v8::internal::compiler::Node"*, %"class.v8::internal::compiler::Node"*, %"class.v8::internal::compiler::Node"*, %"class.v8::internal::compiler::Node"*, %"class.v8::internal::compiler::Node"*, %"class.v8::internal::compiler::Node"*, %"class.v8::internal::compiler::Node"*, %"class.v8::internal::compiler::Node"*, %"class.v8::internal::compiler::Node"*, %"class.v8::internal::compiler::Node"*, %"class.v8::internal::compiler::Node"*, %"class.v8::internal::compiler::Node"* }
%"class.v8::internal::Isolate" = type { %"class.v8::internal::IsolateData", %"class.std::__1::unique_ptr.158", %"class.v8::internal::Heap", %"class.v8::internal::ReadOnlyHeap"*, %"class.std::__1::shared_ptr.485", %"class.std::__1::unique_ptr.486", i32, %"class.v8::internal::Isolate::EntryStackItem"*, i32, %"class.v8::internal::StringStream"*, [13 x i64], %"class.v8::internal::Bootstrapper"*, %"class.v8::internal::RuntimeProfiler"*, %"class.v8::internal::CompilationCache"*, %"class.std::__1::shared_ptr.492", %"class.v8::base::RecursiveMutex", %"class.v8::base::SharedMutex", %"class.v8::base::SharedMutex", %"class.v8::base::SharedMutex", %"class.v8::base::SharedMutex", %"class.v8::base::SharedMutex", %"class.v8::internal::Logger"*, %"class.v8::internal::StubCache"*, %"class.v8::internal::StubCache"*, %"class.v8::internal::Deoptimizer"*, i8, %"class.v8::internal::MaterializedObjectStore"*, i8, i32, i32, %"class.v8::internal::DescriptorLookupCache"*, %"struct.v8::internal::HandleScopeData", %"class.v8::internal::HandleScopeImplementer"*, %"class.v8::internal::UnicodeCache"*, %"class.v8::internal::AccountingAllocator"*, %"class.v8::internal::InnerPointerToCodeCache"*, %"class.v8::internal::GlobalHandles"*, %"class.v8::internal::EternalHandles"*, %"class.v8::internal::ThreadManager"*, %"class.v8::bigint::Processor"*, %"class.v8::internal::RuntimeState", %"class.v8::internal::Builtins", %"class.v8::internal::SetupIsolateDelegate"*, %"class.v8::internal::RegExpStack"*, %"class.std::__1::vector.507", %"class.v8::internal::DateCache"*, %"class.v8::base::RandomNumberGenerator"*, %"class.v8::base::RandomNumberGenerator"*, %"struct.std::__1::atomic.514", {}*, i8*, void (i32, %"class.v8::Promise"*, %"class.v8::Value"*)*, {}*, {}*, %"struct.std::__1::atomic.524", {}*, %"class.v8::base::Mutex", double, %"class.std::__1::basic_string", %"class.std::__1::unordered_map.535", %"struct.std::__1::atomic.210", i8, i8, i8, i8, i8, i8, double, %"class.v8::internal::Debug"*, %"class.v8::internal::HeapProfiler"*, %"class.std::__1::unique_ptr.569", %"class.v8::internal::AstStringConstants"*, %"class.v8::internal::interpreter::Interpreter"*, %"class.v8::internal::compiler::PerIsolateCompilerCache"*, %"class.v8::internal::Zone"*, %"class.v8::internal::CompilerDispatcher"*, %"class.std::__1::queue", void (i8*, i8*)*, void (i8*, i1)*, void (i8*, i32)*, i1 (%"class.v8::Context"*, %"class.v8::String"*)*, { i8, %"class.v8::String"* } (%"class.v8::Context"*, %"class.v8::Value"*)*, { i8, %"class.v8::String"* } (%"class.v8::Context"*, %"class.v8::Value"*, i1)*, i1 (%"class.v8::Context"*, %"class.v8::String"*)*, i1 (%"class.v8::FunctionCallbackInfo"*)*, i1 (%"class.v8::FunctionCallbackInfo"*)*, i1 (%"class.v8::Context"*)*, void (%"class.v8::FunctionCallbackInfo"*)*, %"class.v8::String"* (%"class.v8::Isolate"*, i8*)*, i1 (%"class.v8::Context"*)*, i1 (%"class.v8::Context"*)*, %"class.v8::internal::Relocatable"*, %"class.std::__1::vector.586"*, %"class.v8::internal::Object", i64*, %"class.v8::internal::AddressToIndexHashMap"*, %"class.v8::internal::HeapObjectToIndexHashMap"*, %"class.v8::internal::MicrotaskQueue"*, %"class.v8::internal::CompilationStatistics"*, %"class.v8::internal::CodeTracer"*, i32, void (%"class.v8::PromiseRejectMessage"*)*, %"class.v8::StartupData"*, i32, i32, i32, i64, i8, i8, i32, i8, i32, %"class.v8_inspector::V8Inspector"*, i8, i8, i8, i32, i32, %"class.v8::internal::compiler::NodeObserver"*, i8, [128 x i32], [256 x i32], [251 x i32], [251 x i32], %"class.v8::internal::OptimizingCompileDispatcher"*, %"class.std::__1::unique_ptr.587", i32, i8, i8, i32, i32, %"class.std::__1::vector.593", %"class.std::__1::vector.593", void (%"class.v8::Isolate"*, i32)*, %"class.std::__1::shared_ptr.600", i64, %"class.std::__1::unordered_map.601", i64, %"struct.v8::metrics::LongTaskStats", %"class.std::__1::vector.359", %"class.v8::internal::BuiltinsConstantsTableBuilder"*, i8*, i32, i8*, i32, %"class.v8::ArrayBuffer::Allocator"*, %"class.std::__1::shared_ptr.218", %"class.v8::internal::FutexWaitListNode", %"class.v8::internal::CancelableTaskManager"*, %"class.v8::debug::ConsoleDelegate"*, %"class.v8::debug::AsyncEventDelegate"*, i32, i32, %"class.std::__1::unique_ptr.660", i1 (%"class.v8::Isolate"*)*, i8, %"class.v8::base::Mutex", %"struct.v8::internal::ManagedPtrDestructor"*, i64, i64, %"class.v8::internal::wasm::WasmEngine"*, %"class.std::__1::unique_ptr.666", %"class.v8::internal::EmbeddedFileWriterInterface"*, %"class.v8::Context::BackupIncumbentScope"*, {}*, %"class.v8::base::Mutex", %"class.v8::internal::Isolate::ThreadDataTable", i8, %"class.v8::internal::Isolate"*, %"class.v8::base::Mutex", %"class.v8::internal::Isolate"*, %"class.v8::internal::Isolate"*, %"class.v8::internal::Isolate"*, %"struct.std::__1::atomic.700", %"class.std::__1::vector.704", %"class.std::__1::vector.704", void (i32, %"class.std::__1::basic_string"*)* }
%"class.v8::internal::IsolateData" = type { [4 x i8*], i64, i64, i64, i64, i64, %"class.v8::internal::StackGuard", %"class.v8::internal::RootsTable", %"class.v8::internal::ExternalReferenceTable", %"class.v8::internal::ThreadLocalTop", [1711 x i64], [1711 x i64], i8, [15 x i8] }
%"class.v8::internal::StackGuard" = type { %"class.v8::internal::Isolate"*, %"class.v8::internal::StackGuard::ThreadLocal" }
%"class.v8::internal::StackGuard::ThreadLocal" = type { i64, i64, i64, i64, %"class.v8::internal::InterruptsScope"*, i64 }
%"class.v8::internal::InterruptsScope" = type { i32 (...)**, %"class.v8::internal::StackGuard"*, i64, i64, i32, %"class.v8::internal::InterruptsScope"* }
%"class.v8::internal::RootsTable" = type { [669 x i64] }
%"class.v8::internal::ExternalReferenceTable" = type { [1042 x i64], i32, i32 }
%"class.v8::internal::ThreadLocalTop" = type { %"class.v8::TryCatch"*, %"class.v8::internal::Isolate"*, %"class.v8::internal::Context", %"struct.std::__1::atomic.153", %"class.v8::internal::Object", %"class.v8::internal::Context", i64, i64, i64, i64, i64, %"class.v8::internal::Object", i8, i8, %"class.v8::internal::Object", i64, i64, i64, %"class.v8::internal::PromiseOnStack"*, %"class.v8::internal::Simulator"*, i64, %"class.v8::internal::ExternalCallbackScope"*, i32, void (%"class.v8::Object"*, i32, %"class.v8::Value"*)*, i64 }
%"class.v8::TryCatch" = type <{ %"class.v8::internal::Isolate"*, %"class.v8::TryCatch"*, i8*, i8*, i8*, i8, [7 x i8] }>
%"struct.std::__1::atomic.153" = type { %"struct.std::__1::__atomic_base.154" }
%"struct.std::__1::__atomic_base.154" = type { %"struct.std::__1::__cxx_atomic_impl.155" }
%"struct.std::__1::__cxx_atomic_impl.155" = type { %"struct.std::__1::__cxx_atomic_base_impl.156" }
%"struct.std::__1::__cxx_atomic_base_impl.156" = type { %"class.v8::internal::ThreadId" }
%"class.v8::internal::ThreadId" = type { i32 }
%"class.v8::internal::Context" = type { %"class.v8::internal::TorqueGeneratedContext" }
%"class.v8::internal::TorqueGeneratedContext" = type { %"class.v8::internal::HeapObject" }
%"class.v8::internal::HeapObject" = type { %"class.v8::internal::Object" }
%"class.v8::internal::PromiseOnStack" = type { %"class.v8::internal::Handle", %"class.v8::internal::PromiseOnStack"* }
%"class.v8::internal::Handle" = type { %"class.v8::internal::HandleBase" }
%"class.v8::internal::HandleBase" = type { i64* }
%"class.v8::internal::Simulator" = type opaque
%"class.v8::internal::ExternalCallbackScope" = type opaque
%"class.v8::Object" = type { i8 }
%"class.v8::Value" = type { i8 }
%"class.std::__1::unique_ptr.158" = type { %"class.std::__1::__compressed_pair.159" }
%"class.std::__1::__compressed_pair.159" = type { %"struct.std::__1::__compressed_pair_elem.160" }
%"struct.std::__1::__compressed_pair_elem.160" = type { %"class.v8::internal::IsolateAllocator"* }
%"class.v8::internal::IsolateAllocator" = type { i8*, %"class.v8::PageAllocator"* }
%"class.v8::internal::Heap" = type { %"class.std::__1::unordered_map.164", %"struct.std::__1::atomic", %"class.v8::internal::Heap::ExternalMemoryAccounting", %"class.v8::internal::Isolate"*, i64, i64, i64, i64, %"struct.std::__1::atomic", i64, i64, i64, i64, i64, i8, i64, i64, %"struct.std::__1::atomic", i64, i64, %"struct.std::__1::atomic", %"struct.std::__1::atomic.193", %"class.std::__1::vector.197", i32, %"class.v8::internal::NewSpace"*, %"class.v8::internal::OldSpace"*, %"class.v8::internal::CodeSpace"*, %"class.v8::internal::MapSpace"*, %"class.v8::internal::OldLargeObjectSpace"*, %"class.v8::internal::CodeLargeObjectSpace"*, %"class.v8::internal::NewLargeObjectSpace"*, %"class.v8::internal::ReadOnlySpace"*, %"class.v8::internal::OldSpace"*, %"class.v8::internal::MapSpace"*, %"class.std::__1::unique_ptr.204", %"class.std::__1::unique_ptr.204", [8 x %"class.v8::internal::Space"*], %"class.v8::internal::LocalHeap"*, %"class.v8::internal::ArrayBufferExtension"*, %"class.v8::internal::ArrayBufferExtension"*, i8, i64, %"struct.std::__1::atomic.219", i32, i32, i32, i32, %"class.v8::internal::AllocationObserver"*, %"class.v8::internal::StressScavengeObserver"*, double, i32, i32, i32, i64, i32, [128 x i64], %"struct.std::__1::atomic", i64, i8, %"struct.std::__1::atomic", %"class.v8::internal::Object", %"class.v8::internal::Object", %"class.v8::internal::Object", %"class.std::__1::vector.223", %"class.std::__1::vector.223", i64 ()*, [113 x i32], i64, double, double, i64, i64, double, i32, i32, i32, i32, double, double, double, %"class.std::__1::unique_ptr.230", %"class.std::__1::unique_ptr.236", %"class.v8::internal::MinorMarkCompactCollector"*, %"class.std::__1::unique_ptr.242", %"class.std::__1::unique_ptr.248", %"class.std::__1::unique_ptr.254", %"class.std::__1::unique_ptr.260", %"class.std::__1::unique_ptr.266", %"class.std::__1::unique_ptr.272", %"class.std::__1::unique_ptr.278", %"class.std::__1::unique_ptr.284", %"class.std::__1::unique_ptr.290", %"class.std::__1::unique_ptr.290", %"class.std::__1::unique_ptr.296", %"class.std::__1::unique_ptr.302", %"class.std::__1::unique_ptr.302", %"class.std::__1::unique_ptr.308", %"class.std::__1::unique_ptr.314", %"class.std::__1::shared_ptr.320", %"class.v8::CppHeap"*, %"class.v8::EmbedderRootsHandler"*, %"class.v8::internal::StrongRootsEntry"*, %"class.v8::base::Mutex", i8, i64, i64, i64, i64, %"class.std::__1::unordered_map.321", %"class.std::__1::unique_ptr.347", [512 x i8], i8, i8, i64, i8, i32, i32, %"class.std::__1::unique_ptr.353", i8, %"class.v8::internal::Heap::ExternalStringTable", %"class.v8::base::Mutex", %"class.std::__1::unique_ptr.366", i32, i8, i8, i8, i8, i8, %"class.v8::internal::HeapObject", %"class.v8::base::SharedMutex", %"class.v8::base::Mutex", %"class.std::__1::unordered_set", i8, [7 x i8], %"class.std::__1::unordered_map.396", %"class.std::__1::unordered_map.422", %"class.std::__1::unordered_map.396", %"class.std::__1::unordered_map.446", %"class.std::__1::vector.472", i8, %"class.std::__1::unique_ptr.479", i32, i32 }
%"class.std::__1::unordered_map.164" = type { %"class.std::__1::__hash_table.165" }
%"class.std::__1::__hash_table.165" = type <{ %"class.std::__1::unique_ptr.166", %"class.std::__1::__compressed_pair.174", %"class.std::__1::__compressed_pair.179", %"class.std::__1::__compressed_pair.182", [4 x i8] }>
%"class.std::__1::unique_ptr.166" = type { %"class.std::__1::__compressed_pair.167" }
%"class.std::__1::__compressed_pair.167" = type { %"struct.std::__1::__compressed_pair_elem.168", %"struct.std::__1::__compressed_pair_elem.170" }
%"struct.std::__1::__compressed_pair_elem.168" = type { %"struct.std::__1::__hash_node_base.169"** }
%"struct.std::__1::__hash_node_base.169" = type { %"struct.std::__1::__hash_node_base.169"* }
%"struct.std::__1::__compressed_pair_elem.170" = type { %"class.std::__1::__bucket_list_deallocator.171" }
%"class.std::__1::__bucket_list_deallocator.171" = type { %"class.std::__1::__compressed_pair.172" }
%"class.std::__1::__compressed_pair.172" = type { %"struct.std::__1::__compressed_pair_elem.40" }
%"class.std::__1::__compressed_pair.174" = type { %"struct.std::__1::__compressed_pair_elem.175" }
%"struct.std::__1::__compressed_pair_elem.175" = type { %"struct.std::__1::__hash_node_base.169" }
%"class.std::__1::__compressed_pair.179" = type { %"struct.std::__1::__compressed_pair_elem.40" }
%"class.std::__1::__compressed_pair.182" = type { %"struct.std::__1::__compressed_pair_elem.50" }
%"class.v8::internal::Heap::ExternalMemoryAccounting" = type { %"struct.std::__1::atomic.188", %"struct.std::__1::atomic.188", %"struct.std::__1::atomic.188" }
%"struct.std::__1::atomic.188" = type { %"struct.std::__1::__atomic_base.189" }
%"struct.std::__1::__atomic_base.189" = type { %"struct.std::__1::__atomic_base.190" }
%"struct.std::__1::__atomic_base.190" = type { %"struct.std::__1::__cxx_atomic_impl.191" }
%"struct.std::__1::__cxx_atomic_impl.191" = type { %"struct.std::__1::__cxx_atomic_base_impl.192" }
%"struct.std::__1::__cxx_atomic_base_impl.192" = type { i64 }
%"struct.std::__1::atomic.193" = type { %"struct.std::__1::__atomic_base.194" }
%"struct.std::__1::__atomic_base.194" = type { %"struct.std::__1::__cxx_atomic_impl.195" }
%"struct.std::__1::__cxx_atomic_impl.195" = type { %"struct.std::__1::__cxx_atomic_base_impl.196" }
%"struct.std::__1::__cxx_atomic_base_impl.196" = type { i32 }
%"class.std::__1::vector.197" = type { %"class.std::__1::__vector_base.198" }
%"class.std::__1::__vector_base.198" = type { %"struct.std::__1::pair"*, %"struct.std::__1::pair"*, %"class.std::__1::__compressed_pair.199" }
%"struct.std::__1::pair" = type opaque
%"class.std::__1::__compressed_pair.199" = type { %"struct.std::__1::__compressed_pair_elem.200" }
%"struct.std::__1::__compressed_pair_elem.200" = type { %"struct.std::__1::pair"* }
%"class.v8::internal::NewSpace" = type opaque
%"class.v8::internal::CodeSpace" = type opaque
%"class.v8::internal::OldLargeObjectSpace" = type opaque
%"class.v8::internal::CodeLargeObjectSpace" = type opaque
%"class.v8::internal::NewLargeObjectSpace" = type opaque
%"class.v8::internal::ReadOnlySpace" = type opaque
%"class.v8::internal::OldSpace" = type opaque
%"class.v8::internal::MapSpace" = type opaque
%"class.std::__1::unique_ptr.204" = type { %"class.std::__1::__compressed_pair.205" }
%"class.std::__1::__compressed_pair.205" = type { %"struct.std::__1::__compressed_pair_elem.206" }
%"struct.std::__1::__compressed_pair_elem.206" = type { %"class.v8::internal::ConcurrentAllocator"* }
%"class.v8::internal::ConcurrentAllocator" = type opaque
%"class.v8::internal::Space" = type opaque
%"class.v8::internal::LocalHeap" = type opaque
%"class.v8::internal::ArrayBufferExtension" = type { %"struct.std::__1::atomic.210", %"struct.std::__1::atomic.214", %"class.std::__1::shared_ptr", %"class.v8::internal::ArrayBufferExtension"*, %"struct.std::__1::atomic" }
%"struct.std::__1::atomic.214" = type { %"struct.std::__1::__atomic_base.215" }
%"struct.std::__1::__atomic_base.215" = type { %"struct.std::__1::__cxx_atomic_impl.216" }
%"struct.std::__1::__cxx_atomic_impl.216" = type { %"struct.std::__1::__cxx_atomic_base_impl.217" }
%"struct.std::__1::__cxx_atomic_base_impl.217" = type { i8 }
%"class.std::__1::shared_ptr" = type { %"class.v8::internal::BackingStore"*, %"class.std::__1::__shared_weak_count"* }
%"class.v8::internal::BackingStore" = type <{ i8*, %"struct.std::__1::atomic", i64, %"union.v8::internal::BackingStore::TypeSpecificData", i16, [6 x i8] }>
%"union.v8::internal::BackingStore::TypeSpecificData" = type { %"class.std::__1::shared_ptr.218" }
%"class.std::__1::__shared_weak_count" = type { %"class.std::__1::__shared_count", i64 }
%"class.std::__1::__shared_count" = type { i32 (...)**, i64 }
%"struct.std::__1::atomic.219" = type { %"struct.std::__1::__atomic_base.220" }
%"struct.std::__1::__atomic_base.220" = type { %"struct.std::__1::__cxx_atomic_impl.221" }
%"struct.std::__1::__cxx_atomic_impl.221" = type { %"struct.std::__1::__cxx_atomic_base_impl.222" }
%"struct.std::__1::__cxx_atomic_base_impl.222" = type { i32 }
%"class.v8::internal::AllocationObserver" = type { i32 (...)**, i64 }
%"class.v8::internal::StressScavengeObserver" = type opaque
%"class.std::__1::vector.223" = type { %"class.std::__1::__vector_base.224" }
%"class.std::__1::__vector_base.224" = type { %"struct.v8::internal::Heap::GCCallbackTuple"*, %"struct.v8::internal::Heap::GCCallbackTuple"*, %"class.std::__1::__compressed_pair.225" }
%"struct.v8::internal::Heap::GCCallbackTuple" = type { void (%"class.v8::Isolate"*, i32, i32, i8*)*, i32, i8* }
%"class.v8::Isolate" = type { i8 }
%"class.std::__1::__compressed_pair.225" = type { %"struct.std::__1::__compressed_pair_elem.226" }
%"struct.std::__1::__compressed_pair_elem.226" = type { %"struct.v8::internal::Heap::GCCallbackTuple"* }
%"class.std::__1::unique_ptr.230" = type { %"class.std::__1::__compressed_pair.231" }
%"class.std::__1::__compressed_pair.231" = type { %"struct.std::__1::__compressed_pair_elem.232" }
%"struct.std::__1::__compressed_pair_elem.232" = type { %"class.v8::internal::GCTracer"* }
%"class.v8::internal::GCTracer" = type opaque
%"class.std::__1::unique_ptr.236" = type { %"class.std::__1::__compressed_pair.237" }
%"class.std::__1::__compressed_pair.237" = type { %"struct.std::__1::__compressed_pair_elem.238" }
%"struct.std::__1::__compressed_pair_elem.238" = type { %"class.v8::internal::MarkCompactCollector"* }
%"class.v8::internal::MarkCompactCollector" = type opaque
%"class.v8::internal::MinorMarkCompactCollector" = type opaque
%"class.std::__1::unique_ptr.242" = type { %"class.std::__1::__compressed_pair.243" }
%"class.std::__1::__compressed_pair.243" = type { %"struct.std::__1::__compressed_pair_elem.244" }
%"struct.std::__1::__compressed_pair_elem.244" = type { %"class.v8::internal::ScavengerCollector"* }
%"class.v8::internal::ScavengerCollector" = type opaque
%"class.std::__1::unique_ptr.248" = type { %"class.std::__1::__compressed_pair.249" }
%"class.std::__1::__compressed_pair.249" = type { %"struct.std::__1::__compressed_pair_elem.250" }
%"struct.std::__1::__compressed_pair_elem.250" = type { %"class.v8::internal::ArrayBufferSweeper"* }
%"class.v8::internal::ArrayBufferSweeper" = type opaque
%"class.std::__1::unique_ptr.254" = type { %"class.std::__1::__compressed_pair.255" }
%"class.std::__1::__compressed_pair.255" = type { %"struct.std::__1::__compressed_pair_elem.256" }
%"struct.std::__1::__compressed_pair_elem.256" = type { %"class.v8::internal::MemoryAllocator"* }
%"class.v8::internal::MemoryAllocator" = type opaque
%"class.std::__1::unique_ptr.260" = type { %"class.std::__1::__compressed_pair.261" }
%"class.std::__1::__compressed_pair.261" = type { %"struct.std::__1::__compressed_pair_elem.262" }
%"struct.std::__1::__compressed_pair_elem.262" = type { %"class.v8::internal::IncrementalMarking"* }
%"class.v8::internal::IncrementalMarking" = type opaque
%"class.std::__1::unique_ptr.266" = type { %"class.std::__1::__compressed_pair.267" }
%"class.std::__1::__compressed_pair.267" = type { %"struct.std::__1::__compressed_pair_elem.268" }
%"struct.std::__1::__compressed_pair_elem.268" = type { %"class.v8::internal::ConcurrentMarking"* }
%"class.v8::internal::ConcurrentMarking" = type opaque
%"class.std::__1::unique_ptr.272" = type { %"class.std::__1::__compressed_pair.273" }
%"class.std::__1::__compressed_pair.273" = type { %"struct.std::__1::__compressed_pair_elem.274" }
%"struct.std::__1::__compressed_pair_elem.274" = type { %"class.v8::internal::GCIdleTimeHandler"* }
%"class.v8::internal::GCIdleTimeHandler" = type opaque
%"class.std::__1::unique_ptr.278" = type { %"class.std::__1::__compressed_pair.279" }
%"class.std::__1::__compressed_pair.279" = type { %"struct.std::__1::__compressed_pair_elem.280" }
%"struct.std::__1::__compressed_pair_elem.280" = type { %"class.v8::internal::MemoryMeasurement"* }
%"class.v8::internal::MemoryMeasurement" = type opaque
%"class.std::__1::unique_ptr.284" = type { %"class.std::__1::__compressed_pair.285" }
%"class.std::__1::__compressed_pair.285" = type { %"struct.std::__1::__compressed_pair_elem.286" }
%"struct.std::__1::__compressed_pair_elem.286" = type { %"class.v8::internal::MemoryReducer"* }
%"class.v8::internal::MemoryReducer" = type opaque
%"class.std::__1::unique_ptr.290" = type { %"class.std::__1::__compressed_pair.291" }
%"class.std::__1::__compressed_pair.291" = type { %"struct.std::__1::__compressed_pair_elem.292" }
%"struct.std::__1::__compressed_pair_elem.292" = type { %"class.v8::internal::ObjectStats"* }
%"class.v8::internal::ObjectStats" = type opaque
%"class.std::__1::unique_ptr.296" = type { %"class.std::__1::__compressed_pair.297" }
%"class.std::__1::__compressed_pair.297" = type { %"struct.std::__1::__compressed_pair_elem.298" }
%"struct.std::__1::__compressed_pair_elem.298" = type { %"class.v8::internal::ScavengeJob"* }
%"class.v8::internal::ScavengeJob" = type opaque
%"class.std::__1::unique_ptr.302" = type { %"class.std::__1::__compressed_pair.303" }
%"class.std::__1::__compressed_pair.303" = type { %"struct.std::__1::__compressed_pair_elem.304" }
%"struct.std::__1::__compressed_pair_elem.304" = type { %"class.v8::internal::AllocationObserver"* }
%"class.std::__1::unique_ptr.308" = type { %"class.std::__1::__compressed_pair.309" }
%"class.std::__1::__compressed_pair.309" = type { %"struct.std::__1::__compressed_pair_elem.310" }
%"struct.std::__1::__compressed_pair_elem.310" = type { %"class.v8::internal::LocalEmbedderHeapTracer"* }
%"class.v8::internal::LocalEmbedderHeapTracer" = type opaque
%"class.std::__1::unique_ptr.314" = type { %"class.std::__1::__compressed_pair.315" }
%"class.std::__1::__compressed_pair.315" = type { %"struct.std::__1::__compressed_pair_elem.316" }
%"struct.std::__1::__compressed_pair_elem.316" = type { %"class.v8::internal::MarkingBarrier"* }
%"class.v8::internal::MarkingBarrier" = type opaque
%"class.std::__1::shared_ptr.320" = type { %"class.v8::internal::CodeRange"*, %"class.std::__1::__shared_weak_count"* }
%"class.v8::internal::CodeRange" = type opaque
%"class.v8::CppHeap" = type opaque
%"class.v8::EmbedderRootsHandler" = type { i32 (...)** }
%"class.v8::internal::StrongRootsEntry" = type { %"class.v8::internal::FullObjectSlot", %"class.v8::internal::FullObjectSlot", %"class.v8::internal::StrongRootsEntry"*, %"class.v8::internal::StrongRootsEntry"* }
%"class.v8::internal::FullObjectSlot" = type { %"class.v8::internal::SlotBase" }
%"class.v8::internal::SlotBase" = type { i64 }
%"class.std::__1::unordered_map.321" = type { %"class.std::__1::__hash_table.322" }
%"class.std::__1::__hash_table.322" = type <{ %"class.std::__1::unique_ptr.323", %"class.std::__1::__compressed_pair.333", %"class.std::__1::__compressed_pair.338", %"class.std::__1::__compressed_pair.341", [4 x i8] }>
%"class.std::__1::unique_ptr.323" = type { %"class.std::__1::__compressed_pair.324" }
%"class.std::__1::__compressed_pair.324" = type { %"struct.std::__1::__compressed_pair_elem.325", %"struct.std::__1::__compressed_pair_elem.327" }
%"struct.std::__1::__compressed_pair_elem.325" = type { %"struct.std::__1::__hash_node_base.326"** }
%"struct.std::__1::__hash_node_base.326" = type { %"struct.std::__1::__hash_node_base.326"* }
%"struct.std::__1::__compressed_pair_elem.327" = type { %"class.std::__1::__bucket_list_deallocator.328" }
%"class.std::__1::__bucket_list_deallocator.328" = type { %"class.std::__1::__compressed_pair.329" }
%"class.std::__1::__compressed_pair.329" = type { %"struct.std::__1::__compressed_pair_elem.40" }
%"class.std::__1::__compressed_pair.333" = type { %"struct.std::__1::__compressed_pair_elem.334" }
%"struct.std::__1::__compressed_pair_elem.334" = type { %"struct.std::__1::__hash_node_base.326" }
%"class.std::__1::__compressed_pair.338" = type { %"struct.std::__1::__compressed_pair_elem.40" }
%"class.std::__1::__compressed_pair.341" = type { %"struct.std::__1::__compressed_pair_elem.50" }
%"class.std::__1::unique_ptr.347" = type { %"class.std::__1::__compressed_pair.348" }
%"class.std::__1::__compressed_pair.348" = type { %"struct.std::__1::__compressed_pair_elem.349" }
%"struct.std::__1::__compressed_pair_elem.349" = type { %"class.v8::internal::GlobalHandleVector"* }
%"class.v8::internal::GlobalHandleVector" = type opaque
%"class.std::__1::unique_ptr.353" = type { %"class.std::__1::__compressed_pair.354" }
%"class.std::__1::__compressed_pair.354" = type { %"struct.std::__1::__compressed_pair_elem.355" }
%"struct.std::__1::__compressed_pair_elem.355" = type { %"class.v8::internal::GlobalSafepoint"* }
%"class.v8::internal::GlobalSafepoint" = type opaque
%"class.v8::internal::Heap::ExternalStringTable" = type { %"class.v8::internal::Heap"*, %"class.std::__1::vector.359", %"class.std::__1::vector.359" }
%"class.std::__1::unique_ptr.366" = type { %"class.std::__1::__compressed_pair.367" }
%"class.std::__1::__compressed_pair.367" = type { %"struct.std::__1::__compressed_pair_elem.368" }
%"struct.std::__1::__compressed_pair_elem.368" = type { %"class.v8::internal::CollectionBarrier"* }
%"class.v8::internal::CollectionBarrier" = type opaque
%"class.std::__1::unordered_set" = type { %"class.std::__1::__hash_table.372" }
%"class.std::__1::__hash_table.372" = type <{ %"class.std::__1::unique_ptr.373", %"class.std::__1::__compressed_pair.383", %"class.std::__1::__compressed_pair.388", %"class.std::__1::__compressed_pair.391", [4 x i8] }>
%"class.std::__1::unique_ptr.373" = type { %"class.std::__1::__compressed_pair.374" }
%"class.std::__1::__compressed_pair.374" = type { %"struct.std::__1::__compressed_pair_elem.375", %"struct.std::__1::__compressed_pair_elem.377" }
%"struct.std::__1::__compressed_pair_elem.375" = type { %"struct.std::__1::__hash_node_base.376"** }
%"struct.std::__1::__hash_node_base.376" = type { %"struct.std::__1::__hash_node_base.376"* }
%"struct.std::__1::__compressed_pair_elem.377" = type { %"class.std::__1::__bucket_list_deallocator.378" }
%"class.std::__1::__bucket_list_deallocator.378" = type { %"class.std::__1::__compressed_pair.379" }
%"class.std::__1::__compressed_pair.379" = type { %"struct.std::__1::__compressed_pair_elem.40" }
%"class.std::__1::__compressed_pair.383" = type { %"struct.std::__1::__compressed_pair_elem.384" }
%"struct.std::__1::__compressed_pair_elem.384" = type { %"struct.std::__1::__hash_node_base.376" }
%"class.std::__1::__compressed_pair.388" = type { %"struct.std::__1::__compressed_pair_elem.40" }
%"class.std::__1::__compressed_pair.391" = type { %"struct.std::__1::__compressed_pair_elem.50" }
%"class.std::__1::unordered_map.422" = type { %"class.std::__1::__hash_table.423" }
%"class.std::__1::__hash_table.423" = type <{ %"class.std::__1::unique_ptr.424", %"class.std::__1::__compressed_pair.434", %"class.std::__1::__compressed_pair.439", %"class.std::__1::__compressed_pair.442", [4 x i8] }>
%"class.std::__1::unique_ptr.424" = type { %"class.std::__1::__compressed_pair.425" }
%"class.std::__1::__compressed_pair.425" = type { %"struct.std::__1::__compressed_pair_elem.426", %"struct.std::__1::__compressed_pair_elem.428" }
%"struct.std::__1::__compressed_pair_elem.426" = type { %"struct.std::__1::__hash_node_base.427"** }
%"struct.std::__1::__hash_node_base.427" = type { %"struct.std::__1::__hash_node_base.427"* }
%"struct.std::__1::__compressed_pair_elem.428" = type { %"class.std::__1::__bucket_list_deallocator.429" }
%"class.std::__1::__bucket_list_deallocator.429" = type { %"class.std::__1::__compressed_pair.430" }
%"class.std::__1::__compressed_pair.430" = type { %"struct.std::__1::__compressed_pair_elem.40" }
%"class.std::__1::__compressed_pair.434" = type { %"struct.std::__1::__compressed_pair_elem.435" }
%"struct.std::__1::__compressed_pair_elem.435" = type { %"struct.std::__1::__hash_node_base.427" }
%"class.std::__1::__compressed_pair.439" = type { %"struct.std::__1::__compressed_pair_elem.40" }
%"class.std::__1::__compressed_pair.442" = type { %"struct.std::__1::__compressed_pair_elem.50" }
%"class.std::__1::unordered_map.396" = type { %"class.std::__1::__hash_table.397" }
%"class.std::__1::__hash_table.397" = type <{ %"class.std::__1::unique_ptr.398", %"class.std::__1::__compressed_pair.408", %"class.std::__1::__compressed_pair.413", %"class.std::__1::__compressed_pair.416", [4 x i8] }>
%"class.std::__1::unique_ptr.398" = type { %"class.std::__1::__compressed_pair.399" }
%"class.std::__1::__compressed_pair.399" = type { %"struct.std::__1::__compressed_pair_elem.400", %"struct.std::__1::__compressed_pair_elem.402" }
%"struct.std::__1::__compressed_pair_elem.400" = type { %"struct.std::__1::__hash_node_base.401"** }
%"struct.std::__1::__hash_node_base.401" = type { %"struct.std::__1::__hash_node_base.401"* }
%"struct.std::__1::__compressed_pair_elem.402" = type { %"class.std::__1::__bucket_list_deallocator.403" }
%"class.std::__1::__bucket_list_deallocator.403" = type { %"class.std::__1::__compressed_pair.404" }
%"class.std::__1::__compressed_pair.404" = type { %"struct.std::__1::__compressed_pair_elem.40" }
%"class.std::__1::__compressed_pair.408" = type { %"struct.std::__1::__compressed_pair_elem.409" }
%"struct.std::__1::__compressed_pair_elem.409" = type { %"struct.std::__1::__hash_node_base.401" }
%"class.std::__1::__compressed_pair.413" = type { %"struct.std::__1::__compressed_pair_elem.40" }
%"class.std::__1::__compressed_pair.416" = type { %"struct.std::__1::__compressed_pair_elem.50" }
%"class.std::__1::unordered_map.446" = type { %"class.std::__1::__hash_table.447" }
%"class.std::__1::__hash_table.447" = type <{ %"class.std::__1::unique_ptr.448", %"class.std::__1::__compressed_pair.458", %"class.std::__1::__compressed_pair.463", %"class.std::__1::__compressed_pair.468", [4 x i8] }>
%"class.std::__1::unique_ptr.448" = type { %"class.std::__1::__compressed_pair.449" }
%"class.std::__1::__compressed_pair.449" = type { %"struct.std::__1::__compressed_pair_elem.450", %"struct.std::__1::__compressed_pair_elem.452" }
%"struct.std::__1::__compressed_pair_elem.450" = type { %"struct.std::__1::__hash_node_base.451"** }
%"struct.std::__1::__hash_node_base.451" = type { %"struct.std::__1::__hash_node_base.451"* }
%"struct.std::__1::__compressed_pair_elem.452" = type { %"class.std::__1::__bucket_list_deallocator.453" }
%"class.std::__1::__bucket_list_deallocator.453" = type { %"class.std::__1::__compressed_pair.454" }
%"class.std::__1::__compressed_pair.454" = type { %"struct.std::__1::__compressed_pair_elem.40" }
%"class.std::__1::__compressed_pair.458" = type { %"struct.std::__1::__compressed_pair_elem.459" }
%"struct.std::__1::__compressed_pair_elem.459" = type { %"struct.std::__1::__hash_node_base.451" }
%"class.std::__1::__compressed_pair.463" = type { %"struct.std::__1::__compressed_pair_elem.40" }
%"class.std::__1::__compressed_pair.468" = type { %"struct.std::__1::__compressed_pair_elem.50" }
%"class.std::__1::vector.472" = type { %"class.std::__1::__vector_base.473" }
%"class.std::__1::__vector_base.473" = type { %"class.v8::internal::HeapObjectAllocationTracker"**, %"class.v8::internal::HeapObjectAllocationTracker"**, %"class.std::__1::__compressed_pair.474" }
%"class.v8::internal::HeapObjectAllocationTracker" = type { i32 (...)** }
%"class.std::__1::__compressed_pair.474" = type { %"struct.std::__1::__compressed_pair_elem.475" }
%"struct.std::__1::__compressed_pair_elem.475" = type { %"class.v8::internal::HeapObjectAllocationTracker"** }
%"class.std::__1::unique_ptr.479" = type { %"class.std::__1::__compressed_pair.480" }
%"class.std::__1::__compressed_pair.480" = type { %"struct.std::__1::__compressed_pair_elem.481" }
%"struct.std::__1::__compressed_pair_elem.481" = type { %"class.v8::internal::third_party_heap::Heap"* }
%"class.v8::internal::third_party_heap::Heap" = type opaque
%"class.v8::internal::ReadOnlyHeap" = type { i32 (...)**, i8, %"class.v8::internal::ReadOnlySpace"*, %"class.std::__1::vector.359" }
%"class.std::__1::shared_ptr.485" = type { %"class.v8::internal::ReadOnlyArtifacts"*, %"class.std::__1::__shared_weak_count"* }
%"class.v8::internal::ReadOnlyArtifacts" = type opaque
%"class.std::__1::unique_ptr.486" = type { %"class.std::__1::__compressed_pair.487" }
%"class.std::__1::__compressed_pair.487" = type { %"struct.std::__1::__compressed_pair_elem.488" }
%"struct.std::__1::__compressed_pair_elem.488" = type { %"class.v8::internal::StringTable"* }
%"class.v8::internal::StringTable" = type opaque
%"class.v8::internal::Isolate::EntryStackItem" = type { i32, %"class.v8::internal::Isolate::PerIsolateThreadData"*, %"class.v8::internal::Isolate"*, %"class.v8::internal::Isolate::EntryStackItem"* }
%"class.v8::internal::Isolate::PerIsolateThreadData" = type { %"class.v8::internal::Isolate"*, %"class.v8::internal::ThreadId", i64, %"class.v8::internal::ThreadState"* }
%"class.v8::internal::ThreadState" = type opaque
%"class.v8::internal::StringStream" = type opaque
%"class.v8::internal::Bootstrapper" = type opaque
%"class.v8::internal::RuntimeProfiler" = type opaque
%"class.v8::internal::CompilationCache" = type opaque
%"class.std::__1::shared_ptr.492" = type { %"class.v8::internal::Counters"*, %"class.std::__1::__shared_weak_count"* }
%"class.v8::internal::Counters" = type opaque
%"class.v8::base::RecursiveMutex" = type { %union.pthread_mutex_t }
%union.pthread_mutex_t = type { %struct.__pthread_mutex_s }
%struct.__pthread_mutex_s = type { i32, i32, i32, i32, i32, i16, i16, %struct.__pthread_internal_list }
%struct.__pthread_internal_list = type { %struct.__pthread_internal_list*, %struct.__pthread_internal_list* }
%"class.v8::base::SharedMutex" = type { %union.pthread_rwlock_t }
%union.pthread_rwlock_t = type { %struct.__pthread_rwlock_arch_t }
%struct.__pthread_rwlock_arch_t = type { i32, i32, i32, i32, i32, i32, i32, i32, i8, [7 x i8], i64, i32 }
%"class.v8::internal::Logger" = type opaque
%"class.v8::internal::StubCache" = type opaque
%"class.v8::internal::Deoptimizer" = type opaque
%"class.v8::internal::MaterializedObjectStore" = type opaque
%"class.v8::internal::DescriptorLookupCache" = type opaque
%"struct.v8::internal::HandleScopeData" = type { i64*, i64*, i32, i32, %"class.v8::internal::CanonicalHandleScope"* }
%"class.v8::internal::CanonicalHandleScope" = type { %"class.v8::internal::Isolate"*, %"class.v8::internal::OptimizedCompilationInfo"*, %"class.v8::internal::Zone"*, %"class.v8::internal::RootIndexMap"*, %"class.std::__1::unique_ptr.493", i32, %"class.v8::internal::CanonicalHandleScope"* }
%"class.v8::internal::OptimizedCompilationInfo" = type opaque
%"class.v8::internal::RootIndexMap" = type opaque
%"class.std::__1::unique_ptr.493" = type { %"class.std::__1::__compressed_pair.494" }
%"class.std::__1::__compressed_pair.494" = type { %"struct.std::__1::__compressed_pair_elem.495" }
%"struct.std::__1::__compressed_pair_elem.495" = type { %"class.v8::internal::IdentityMap"* }
%"class.v8::internal::IdentityMap" = type opaque
%"class.v8::internal::HandleScopeImplementer" = type { %"class.v8::internal::Isolate"*, %"class.v8::internal::DetachableVector", %"class.v8::internal::DetachableVector.499", %"class.v8::internal::DetachableVector.500", %"class.v8::internal::DetachableVector.499", i64*, i64*, %"struct.v8::internal::HandleScopeData" }
%"class.v8::internal::DetachableVector" = type { %"class.v8::internal::DetachableVectorBase" }
%"class.v8::internal::DetachableVectorBase" = type { i8*, i64, i64 }
%"class.v8::internal::DetachableVector.500" = type { %"class.v8::internal::DetachableVectorBase" }
%"class.v8::internal::DetachableVector.499" = type { %"class.v8::internal::DetachableVectorBase" }
%"class.v8::internal::UnicodeCache" = type opaque
%"class.v8::internal::InnerPointerToCodeCache" = type opaque
%"class.v8::internal::GlobalHandles" = type opaque
%"class.v8::internal::EternalHandles" = type opaque
%"class.v8::internal::ThreadManager" = type opaque
%"class.v8::bigint::Processor" = type opaque
%"class.v8::internal::RuntimeState" = type { %"class.std::__1::unique_ptr.501" }
%"class.std::__1::unique_ptr.501" = type { %"class.std::__1::__compressed_pair.502" }
%"class.std::__1::__compressed_pair.502" = type { %"struct.std::__1::__compressed_pair_elem.503" }
%"struct.std::__1::__compressed_pair_elem.503" = type { %"struct.v8::internal::Runtime::Function"* }
%"struct.v8::internal::Runtime::Function" = type { i32, i32, i8*, i64, i8, i8 }
%"class.v8::internal::Builtins" = type { %"class.v8::internal::Isolate"*, i8, i32 }
%"class.v8::internal::SetupIsolateDelegate" = type opaque
%"class.v8::internal::RegExpStack" = type opaque
%"class.std::__1::vector.507" = type { %"class.std::__1::__vector_base.508" }
%"class.std::__1::__vector_base.508" = type { i32*, i32*, %"class.std::__1::__compressed_pair.509" }
%"class.std::__1::__compressed_pair.509" = type { %"struct.std::__1::__compressed_pair_elem.510" }
%"struct.std::__1::__compressed_pair_elem.510" = type { i32* }
%"class.v8::internal::DateCache" = type opaque
%"class.v8::base::RandomNumberGenerator" = type opaque
%"struct.std::__1::atomic.514" = type { %"struct.std::__1::__atomic_base.515" }
%"struct.std::__1::__atomic_base.515" = type { %"struct.std::__1::__cxx_atomic_impl.516" }
%"struct.std::__1::__cxx_atomic_impl.516" = type { %"struct.std::__1::__cxx_atomic_base_impl.517" }
%"struct.std::__1::__cxx_atomic_base_impl.517" = type { i32 }
%"class.v8::Promise" = type { i8 }
%"struct.std::__1::atomic.524" = type { %"struct.std::__1::__atomic_base.525" }
%"struct.std::__1::__atomic_base.525" = type { %"struct.std::__1::__cxx_atomic_impl.526" }
%"struct.std::__1::__cxx_atomic_impl.526" = type { %"struct.std::__1::__cxx_atomic_base_impl.527" }
%"struct.std::__1::__cxx_atomic_base_impl.527" = type { i32 }
%"class.std::__1::basic_string" = type { %"class.std::__1::__compressed_pair.529" }
%"class.std::__1::__compressed_pair.529" = type { %"struct.std::__1::__compressed_pair_elem.530" }
%"struct.std::__1::__compressed_pair_elem.530" = type { %"struct.std::__1::basic_string<char, std::__1::char_traits<char>, std::__1::allocator<char> >::__rep" }
%"struct.std::__1::basic_string<char, std::__1::char_traits<char>, std::__1::allocator<char> >::__rep" = type { %union.anon.531 }
%union.anon.531 = type { %"struct.std::__1::basic_string<char, std::__1::char_traits<char>, std::__1::allocator<char> >::__long" }
%"struct.std::__1::basic_string<char, std::__1::char_traits<char>, std::__1::allocator<char> >::__long" = type { i8*, i64, i64 }
%"class.std::__1::unordered_map.535" = type { %"class.std::__1::__hash_table.536" }
%"class.std::__1::__hash_table.536" = type <{ %"class.std::__1::unique_ptr.537", %"class.std::__1::__compressed_pair.547", %"class.std::__1::__compressed_pair.552", %"class.std::__1::__compressed_pair.555", [4 x i8] }>
%"class.std::__1::unique_ptr.537" = type { %"class.std::__1::__compressed_pair.538" }
%"class.std::__1::__compressed_pair.538" = type { %"struct.std::__1::__compressed_pair_elem.539", %"struct.std::__1::__compressed_pair_elem.541" }
%"struct.std::__1::__compressed_pair_elem.539" = type { %"struct.std::__1::__hash_node_base.540"** }
%"struct.std::__1::__hash_node_base.540" = type { %"struct.std::__1::__hash_node_base.540"* }
%"struct.std::__1::__compressed_pair_elem.541" = type { %"class.std::__1::__bucket_list_deallocator.542" }
%"class.std::__1::__bucket_list_deallocator.542" = type { %"class.std::__1::__compressed_pair.543" }
%"class.std::__1::__compressed_pair.543" = type { %"struct.std::__1::__compressed_pair_elem.40" }
%"class.std::__1::__compressed_pair.547" = type { %"struct.std::__1::__compressed_pair_elem.548" }
%"struct.std::__1::__compressed_pair_elem.548" = type { %"struct.std::__1::__hash_node_base.540" }
%"class.std::__1::__compressed_pair.552" = type { %"struct.std::__1::__compressed_pair_elem.40" }
%"class.std::__1::__compressed_pair.555" = type { %"struct.std::__1::__compressed_pair_elem.50" }
%"struct.std::__1::atomic.210" = type { %"struct.std::__1::__atomic_base.211" }
%"struct.std::__1::__atomic_base.211" = type { %"struct.std::__1::__cxx_atomic_impl.212" }
%"struct.std::__1::__cxx_atomic_impl.212" = type { %"struct.std::__1::__cxx_atomic_base_impl.213" }
%"struct.std::__1::__cxx_atomic_base_impl.213" = type { i8 }
%"class.v8::internal::Debug" = type { %"class.v8::debug::DebugDelegate"*, i8, i8, i8, i8, i8, i8, i8, i8, i8, %"class.v8::internal::DebugInfoListNode"*, %"class.std::__1::unique_ptr.561", %"class.v8::internal::Handle.567", %"class.v8::internal::DebugFeatureTracker", %"class.v8::internal::Debug::ThreadLocal", %"class.v8::internal::Handle.568", %"class.v8::internal::Isolate"* }
%"class.v8::debug::DebugDelegate" = type { i32 (...)** }
%"class.v8::internal::DebugInfoListNode" = type { i64*, %"class.v8::internal::DebugInfoListNode"* }
%"class.std::__1::unique_ptr.561" = type { %"class.std::__1::__compressed_pair.562" }
%"class.std::__1::__compressed_pair.562" = type { %"struct.std::__1::__compressed_pair_elem.563" }
%"struct.std::__1::__compressed_pair_elem.563" = type { %"class.v8::internal::Debug::TemporaryObjectsTracker"* }
%"class.v8::internal::Debug::TemporaryObjectsTracker" = type opaque
%"class.v8::internal::Handle.567" = type { %"class.v8::internal::HandleBase" }
%"class.v8::internal::DebugFeatureTracker" = type <{ %"class.v8::internal::Isolate"*, i32, [4 x i8] }>
%"class.v8::internal::Debug::ThreadLocal" = type <{ i64, i32, i8, [3 x i8], %"class.v8::internal::Object", i8, [3 x i8], i32, i32, i32, %"class.v8::internal::Object", %"class.v8::internal::Object", i32, i8, [3 x i8] }>
%"class.v8::internal::Handle.568" = type { %"class.v8::internal::HandleBase" }
%"class.v8::internal::HeapProfiler" = type opaque
%"class.std::__1::unique_ptr.569" = type { %"class.std::__1::__compressed_pair.570" }
%"class.std::__1::__compressed_pair.570" = type { %"struct.std::__1::__compressed_pair_elem.571" }
%"struct.std::__1::__compressed_pair_elem.571" = type { %"class.v8::internal::CodeEventDispatcher"* }
%"class.v8::internal::CodeEventDispatcher" = type opaque
%"class.v8::internal::AstStringConstants" = type opaque
%"class.v8::internal::interpreter::Interpreter" = type opaque
%"class.v8::internal::compiler::PerIsolateCompilerCache" = type opaque
%"class.v8::internal::CompilerDispatcher" = type opaque
%"class.std::__1::queue" = type { %"class.std::__1::deque" }
%"class.std::__1::deque" = type { %"class.std::__1::__deque_base" }
%"class.std::__1::__deque_base" = type { %"struct.std::__1::__split_buffer", i64, %"class.std::__1::__compressed_pair.581" }
%"struct.std::__1::__split_buffer" = type { %"struct.std::__1::pair.575"**, %"struct.std::__1::pair.575"**, %"struct.std::__1::pair.575"**, %"class.std::__1::__compressed_pair.576" }
%"struct.std::__1::pair.575" = type opaque
%"class.std::__1::__compressed_pair.576" = type { %"struct.std::__1::__compressed_pair_elem.577" }
%"struct.std::__1::__compressed_pair_elem.577" = type { %"struct.std::__1::pair.575"** }
%"class.std::__1::__compressed_pair.581" = type { %"struct.std::__1::__compressed_pair_elem.40" }
%"class.v8::String" = type { i8 }
%"class.v8::Context" = type { i8 }
%"class.v8::FunctionCallbackInfo" = type <{ i64*, i64*, i32, [4 x i8] }>
%"class.v8::internal::Relocatable" = type { i32 (...)**, %"class.v8::internal::Isolate"*, %"class.v8::internal::Relocatable"* }
%"class.std::__1::vector.586" = type opaque
%"class.v8::internal::Object" = type { %"class.v8::internal::TaggedImpl" }
%"class.v8::internal::TaggedImpl" = type { i64 }
%"class.v8::internal::AddressToIndexHashMap" = type opaque
%"class.v8::internal::HeapObjectToIndexHashMap" = type opaque
%"class.v8::internal::MicrotaskQueue" = type opaque
%"class.v8::internal::CompilationStatistics" = type opaque
%"class.v8::internal::CodeTracer" = type opaque
%"class.v8::PromiseRejectMessage" = type { %"class.v8::Local.519", i32, %"class.v8::Local.157" }
%"class.v8::Local.519" = type { %"class.v8::Promise"* }
%"class.v8::Local.157" = type { %"class.v8::Value"* }
%"class.v8::StartupData" = type { i8*, i32 }
%"class.v8_inspector::V8Inspector" = type opaque
%"class.v8::internal::compiler::NodeObserver" = type opaque
%"class.v8::internal::OptimizingCompileDispatcher" = type opaque
%"class.std::__1::unique_ptr.587" = type { %"class.std::__1::__compressed_pair.588" }
%"class.std::__1::__compressed_pair.588" = type { %"struct.std::__1::__compressed_pair_elem.589" }
%"struct.std::__1::__compressed_pair_elem.589" = type { %"class.v8::internal::PersistentHandlesList"* }
%"class.v8::internal::PersistentHandlesList" = type opaque
%"class.std::__1::vector.593" = type { %"class.std::__1::__vector_base.594" }
%"class.std::__1::__vector_base.594" = type { void (%"class.v8::Isolate"*)**, void (%"class.v8::Isolate"*)**, %"class.std::__1::__compressed_pair.595" }
%"class.std::__1::__compressed_pair.595" = type { %"struct.std::__1::__compressed_pair_elem.596" }
%"struct.std::__1::__compressed_pair_elem.596" = type { void (%"class.v8::Isolate"*)** }
%"class.std::__1::shared_ptr.600" = type { %"class.v8::internal::metrics::Recorder"*, %"class.std::__1::__shared_weak_count"* }
%"class.v8::internal::metrics::Recorder" = type opaque
%"class.std::__1::unordered_map.601" = type { %"class.std::__1::__hash_table.602" }
%"class.std::__1::__hash_table.602" = type <{ %"class.std::__1::unique_ptr.603", %"class.std::__1::__compressed_pair.613", %"class.std::__1::__compressed_pair.618", %"class.std::__1::__compressed_pair.623", [4 x i8] }>
%"class.std::__1::unique_ptr.603" = type { %"class.std::__1::__compressed_pair.604" }
%"class.std::__1::__compressed_pair.604" = type { %"struct.std::__1::__compressed_pair_elem.605", %"struct.std::__1::__compressed_pair_elem.607" }
%"struct.std::__1::__compressed_pair_elem.605" = type { %"struct.std::__1::__hash_node_base.606"** }
%"struct.std::__1::__hash_node_base.606" = type { %"struct.std::__1::__hash_node_base.606"* }
%"struct.std::__1::__compressed_pair_elem.607" = type { %"class.std::__1::__bucket_list_deallocator.608" }
%"class.std::__1::__bucket_list_deallocator.608" = type { %"class.std::__1::__compressed_pair.609" }
%"class.std::__1::__compressed_pair.609" = type { %"struct.std::__1::__compressed_pair_elem.40" }
%"class.std::__1::__compressed_pair.613" = type { %"struct.std::__1::__compressed_pair_elem.614" }
%"struct.std::__1::__compressed_pair_elem.614" = type { %"struct.std::__1::__hash_node_base.606" }
%"class.std::__1::__compressed_pair.618" = type { %"struct.std::__1::__compressed_pair_elem.40" }
%"class.std::__1::__compressed_pair.623" = type { %"struct.std::__1::__compressed_pair_elem.50" }
%"struct.v8::metrics::LongTaskStats" = type { i64, i64, i64 }
%"class.std::__1::vector.359" = type { %"class.std::__1::__vector_base.360" }
%"class.std::__1::__vector_base.360" = type { %"class.v8::internal::Object"*, %"class.v8::internal::Object"*, %"class.std::__1::__compressed_pair.361" }
%"class.std::__1::__compressed_pair.361" = type { %"struct.std::__1::__compressed_pair_elem.362" }
%"struct.std::__1::__compressed_pair_elem.362" = type { %"class.v8::internal::Object"* }
%"class.v8::internal::BuiltinsConstantsTableBuilder" = type opaque
%"class.v8::ArrayBuffer::Allocator" = type { i32 (...)** }
%"class.std::__1::shared_ptr.218" = type { %"class.v8::ArrayBuffer::Allocator"*, %"class.std::__1::__shared_weak_count"* }
%"class.v8::internal::FutexWaitListNode" = type { %"class.v8::internal::Isolate"*, %"class.std::__1::shared_ptr.629", %"class.v8::internal::CancelableTaskManager"*, %"class.v8::base::ConditionVariable", %"class.v8::internal::FutexWaitListNode"*, %"class.v8::internal::FutexWaitListNode"*, %"class.std::__1::weak_ptr", i64, i8*, i8, i8, %"class.v8::Global", %"class.v8::Global.658", %"class.v8::base::TimeTicks", i64 }
%"class.std::__1::shared_ptr.629" = type { %"class.v8::TaskRunner"*, %"class.std::__1::__shared_weak_count"* }
%"class.v8::TaskRunner" = type { i32 (...)** }
%"class.v8::base::ConditionVariable" = type { %union.pthread_cond_t }
%union.pthread_cond_t = type { %struct.__pthread_cond_s }
%struct.__pthread_cond_s = type { %union.anon.654, %union.anon.656, [2 x i32], [2 x i32], i32, i32, [2 x i32] }
%union.anon.654 = type { i64 }
%union.anon.656 = type { i64 }
%"class.std::__1::weak_ptr" = type { %"class.v8::internal::BackingStore"*, %"class.std::__1::__shared_weak_count"* }
%"class.v8::Global" = type { %"class.v8::PersistentBase" }
%"class.v8::PersistentBase" = type { %"class.v8::Promise"* }
%"class.v8::Global.658" = type { %"class.v8::PersistentBase.659" }
%"class.v8::PersistentBase.659" = type { %"class.v8::Context"* }
%"class.v8::base::TimeTicks" = type { %"class.v8::base::time_internal::TimeBase" }
%"class.v8::base::time_internal::TimeBase" = type { i64 }
%"class.v8::internal::CancelableTaskManager" = type <{ i64, %"class.std::__1::unordered_map.630", %"class.v8::base::ConditionVariable", %"class.v8::base::Mutex", i8, [7 x i8] }>
%"class.std::__1::unordered_map.630" = type { %"class.std::__1::__hash_table.631" }
%"class.std::__1::__hash_table.631" = type <{ %"class.std::__1::unique_ptr.632", %"class.std::__1::__compressed_pair.642", %"class.std::__1::__compressed_pair.647", %"class.std::__1::__compressed_pair.650", [4 x i8] }>
%"class.std::__1::unique_ptr.632" = type { %"class.std::__1::__compressed_pair.633" }
%"class.std::__1::__compressed_pair.633" = type { %"struct.std::__1::__compressed_pair_elem.634", %"struct.std::__1::__compressed_pair_elem.636" }
%"struct.std::__1::__compressed_pair_elem.634" = type { %"struct.std::__1::__hash_node_base.635"** }
%"struct.std::__1::__hash_node_base.635" = type { %"struct.std::__1::__hash_node_base.635"* }
%"struct.std::__1::__compressed_pair_elem.636" = type { %"class.std::__1::__bucket_list_deallocator.637" }
%"class.std::__1::__bucket_list_deallocator.637" = type { %"class.std::__1::__compressed_pair.638" }
%"class.std::__1::__compressed_pair.638" = type { %"struct.std::__1::__compressed_pair_elem.40" }
%"class.std::__1::__compressed_pair.642" = type { %"struct.std::__1::__compressed_pair_elem.643" }
%"struct.std::__1::__compressed_pair_elem.643" = type { %"struct.std::__1::__hash_node_base.635" }
%"class.std::__1::__compressed_pair.647" = type { %"struct.std::__1::__compressed_pair_elem.40" }
%"class.std::__1::__compressed_pair.650" = type { %"struct.std::__1::__compressed_pair_elem.50" }
%"class.v8::debug::ConsoleDelegate" = type { i32 (...)** }
%"class.v8::debug::AsyncEventDelegate" = type { i32 (...)** }
%"class.std::__1::unique_ptr.660" = type { %"class.std::__1::__compressed_pair.661" }
%"class.std::__1::__compressed_pair.661" = type { %"struct.std::__1::__compressed_pair_elem.662" }
%"struct.std::__1::__compressed_pair_elem.662" = type { %"class.v8::internal::LocalIsolate"* }
%"class.v8::internal::LocalIsolate" = type opaque
%"struct.v8::internal::ManagedPtrDestructor" = type opaque
%"class.v8::internal::wasm::WasmEngine" = type opaque
%"class.std::__1::unique_ptr.666" = type { %"class.std::__1::__compressed_pair.667" }
%"class.std::__1::__compressed_pair.667" = type { %"struct.std::__1::__compressed_pair_elem.668" }
%"struct.std::__1::__compressed_pair_elem.668" = type { %"class.v8::internal::TracingCpuProfilerImpl"* }
%"class.v8::internal::TracingCpuProfilerImpl" = type opaque
%"class.v8::internal::EmbeddedFileWriterInterface" = type opaque
%"class.v8::Context::BackupIncumbentScope" = type { %"class.v8::Local.520", i64, %"class.v8::Context::BackupIncumbentScope"* }
%"class.v8::Local.520" = type { %"class.v8::Context"* }
%"class.v8::internal::Isolate::ThreadDataTable" = type { %"class.std::__1::unordered_map.674" }
%"class.std::__1::unordered_map.674" = type { %"class.std::__1::__hash_table.675" }
%"class.std::__1::__hash_table.675" = type <{ %"class.std::__1::unique_ptr.676", %"class.std::__1::__compressed_pair.686", %"class.std::__1::__compressed_pair.691", %"class.std::__1::__compressed_pair.694", [4 x i8] }>
%"class.std::__1::unique_ptr.676" = type { %"class.std::__1::__compressed_pair.677" }
%"class.std::__1::__compressed_pair.677" = type { %"struct.std::__1::__compressed_pair_elem.678", %"struct.std::__1::__compressed_pair_elem.680" }
%"struct.std::__1::__compressed_pair_elem.678" = type { %"struct.std::__1::__hash_node_base.679"** }
%"struct.std::__1::__hash_node_base.679" = type { %"struct.std::__1::__hash_node_base.679"* }
%"struct.std::__1::__compressed_pair_elem.680" = type { %"class.std::__1::__bucket_list_deallocator.681" }
%"class.std::__1::__bucket_list_deallocator.681" = type { %"class.std::__1::__compressed_pair.682" }
%"class.std::__1::__compressed_pair.682" = type { %"struct.std::__1::__compressed_pair_elem.40" }
%"class.std::__1::__compressed_pair.686" = type { %"struct.std::__1::__compressed_pair_elem.687" }
%"struct.std::__1::__compressed_pair_elem.687" = type { %"struct.std::__1::__hash_node_base.679" }
%"class.std::__1::__compressed_pair.691" = type { %"struct.std::__1::__compressed_pair_elem.40" }
%"class.std::__1::__compressed_pair.694" = type { %"struct.std::__1::__compressed_pair_elem.50" }
%"class.v8::base::Mutex" = type { %union.pthread_mutex_t }
%"struct.std::__1::atomic.700" = type { %"struct.std::__1::__atomic_base.701" }
%"struct.std::__1::__atomic_base.701" = type { %"struct.std::__1::__cxx_atomic_impl.702" }
%"struct.std::__1::__cxx_atomic_impl.702" = type { %"struct.std::__1::__cxx_atomic_base_impl.703" }
%"struct.std::__1::__cxx_atomic_base_impl.703" = type { %"class.std::__1::vector.704"* }
%"class.std::__1::vector.704" = type { %"class.std::__1::__vector_base.705" }
%"class.std::__1::__vector_base.705" = type { %"struct.v8::MemoryRange"*, %"struct.v8::MemoryRange"*, %"class.std::__1::__compressed_pair.706" }
%"struct.v8::MemoryRange" = type { i8*, i64 }
%"class.std::__1::__compressed_pair.706" = type { %"struct.std::__1::__compressed_pair_elem.707" }
%"struct.std::__1::__compressed_pair_elem.707" = type { %"struct.v8::MemoryRange"* }
%"class.v8::internal::compiler::JSOperatorBuilder" = type { %"struct.v8::internal::compiler::JSOperatorGlobalCache"*, %"class.v8::internal::Zone"* }
%"struct.v8::internal::compiler::JSOperatorGlobalCache" = type opaque
%"class.v8::internal::compiler::SimplifiedOperatorBuilder" = type { %"struct.v8::internal::compiler::SimplifiedOperatorGlobalCache"*, %"class.v8::internal::Zone"* }
%"struct.v8::internal::compiler::SimplifiedOperatorGlobalCache" = type opaque
%"class.v8::internal::SetOncePointer" = type { %"class.v8::internal::compiler::Operator"* }
%"class.v8::internal::compiler::ObjectRef" = type { %"class.v8::internal::compiler::ObjectData"*, %"class.v8::internal::compiler::JSHeapBroker"* }
%"class.v8::internal::compiler::ObjectData" = type opaque
%"class.v8::internal::compiler::JSHeapBroker" = type opaque
%"struct.std::__1::array.736" = type { [1 x %"class.v8::internal::compiler::Node"*] }
%"struct.std::__1::array.739" = type { [4 x %"class.v8::internal::compiler::Node"*] }
%"struct.std::__1::array.737" = type { [2 x %"class.v8::internal::compiler::Node"*] }
%"struct.std::__1::array.738" = type { [3 x %"class.v8::internal::compiler::Node"*] }
%"struct.v8::internal::compiler::FieldAccess" = type <{ i8, [3 x i8], i32, %"class.v8::internal::MaybeHandle", %"class.v8::internal::MaybeHandle.718", %"class.v8::internal::compiler::Type", %"class.v8::internal::MachineType", i8, i8, i32, %"struct.v8::internal::compiler::ConstFieldInfo", i8, [7 x i8] }>
%"class.v8::internal::MaybeHandle" = type { i64* }
%"class.v8::internal::MaybeHandle.718" = type { i64* }
%"class.v8::internal::MachineType" = type { i8, i8 }
%"struct.v8::internal::compiler::ConstFieldInfo" = type { %"class.v8::internal::MaybeHandle.718" }
%"struct.v8::internal::compiler::ElementAccess" = type { i8, i32, %"class.v8::internal::compiler::Type", %"class.v8::internal::MachineType", i8, i32 }
%"struct.std::__1::array.740" = type { [5 x %"class.v8::internal::compiler::Node"*] }
%"class.v8::internal::compiler::MapRef" = type { %"class.v8::internal::compiler::HeapObjectRef" }
%"class.v8::internal::compiler::HeapObjectRef" = type { %"class.v8::internal::compiler::ObjectRef" }
%"struct.v8::internal::compiler::FeedbackSource" = type <{ %"class.v8::internal::Handle.720", %"class.v8::internal::FeedbackSlot", [4 x i8] }>
%"class.v8::internal::Handle.720" = type { %"class.v8::internal::HandleBase" }
%"class.v8::internal::FeedbackSlot" = type { i32 }
%"struct.std::__1::array.741" = type { [6 x %"class.v8::internal::compiler::Node"*] }
%"class.v8::internal::compiler::GraphAssemblerLabel" = type <{ i8, [3 x i8], i32, %"class.v8::internal::compiler::BasicBlock"*, i32, [4 x i8], i64, %"class.v8::internal::compiler::Node"*, %"class.v8::internal::compiler::Node"*, %"struct.std::__1::array", %"struct.std::__1::array.723", [7 x i8] }>
%"struct.std::__1::array" = type { [8 x i8] }
%"struct.std::__1::array.723" = type { [1 x i8] }
%"class.v8::internal::CallInterfaceDescriptor" = type { %"class.v8::internal::CallInterfaceDescriptorData"* }
%"class.v8::internal::CallInterfaceDescriptorData" = type { i32, i32, i32, %"class.v8::base::Flags.728", i32, i32, %"class.v8::internal::Register"*, %"class.v8::internal::MachineType"* }
%"class.v8::base::Flags.728" = type { i32 }
%"class.v8::internal::Register" = type { %"class.v8::internal::RegisterBase" }
%"class.v8::internal::RegisterBase" = type { i32 }
%"class.v8::internal::compiler::CallDescriptor" = type { i32, %"class.v8::internal::MachineType", [2 x i8], %"class.v8::internal::compiler::LinkageLocation", %"class.v8::internal::Signature"*, i64, i64, %"class.v8::base::Flags", i32, i32, i32, %"class.v8::base::Flags.725", i32, i8*, %"class.v8::CFunctionInfo"* }
%"class.v8::internal::compiler::LinkageLocation" = type <{ i32, %"class.v8::internal::MachineType", [2 x i8] }>
%"class.v8::internal::Signature" = type { i64, i64, %"class.v8::internal::compiler::LinkageLocation"* }
%"class.v8::base::Flags.725" = type { i32 }
%"class.v8::CFunctionInfo" = type opaque
%"struct.std::__1::array.742" = type { [7 x %"class.v8::internal::compiler::Node"*] }

$_ZN2v88internal8compiler14GraphAssembler4GotoIJEEEvPNS1_19GraphAssemblerLabelIXsZT_EEEDpT_ = comdat any

$_ZN2v88internal8compiler14GraphAssembler10BranchImplIJEEEvPNS1_4NodeEPNS1_19GraphAssemblerLabelIXsZT_EEES8_NS1_10BranchHintENS1_13IsSafetyCheckEDpT_ = comdat any

$_ZNSt3__16vectorIPN2v88internal8compiler4NodeENS2_13ZoneAllocatorIS5_EEE6insertINS_11__wrap_iterIPS5_EEEENS_9enable_ifIXaasr27__is_cpp17_forward_iteratorIT_EE5valuesr16is_constructibleIS5_NS_15iterator_traitsISE_E9referenceEEE5valueESC_E4typeENSA_IPKS5_EESE_SE_ = comdat any

$_ZN2v88internal8compiler14GraphAssembler10MergeStateIJEEEvPNS1_19GraphAssemblerLabelIXsZT_EEEDpT_ = comdat any

@_ZTVN2v88internal8compiler14GraphAssemblerE = hidden unnamed_addr constant { [4 x i8*] } { [4 x i8*] [i8* null, i8* null, i8* bitcast (void (%"class.v8::internal::compiler::GraphAssembler"*)* @_ZN2v88internal8compiler14GraphAssemblerD2Ev to i8*), i8* bitcast (void (%"class.v8::internal::compiler::GraphAssembler"*)* @_ZN2v88internal8compiler14GraphAssemblerD0Ev to i8*)] }, align 8
@.str = private unnamed_addr constant [18 x i8] c"Check failed: %s.\00", align 1
@.str.1 = private unnamed_addr constant [44 x i8] c"machine()->Float64RoundDown().IsSupported()\00", align 1
@.str.2 = private unnamed_addr constant [48 x i8] c"machine()->Float64RoundTruncate().IsSupported()\00", align 1
@.str.3 = private unnamed_addr constant [17 x i8] c"unreachable code\00", align 1
@.str.5 = private unnamed_addr constant [40 x i8] c"index < node->op()->ControlInputCount()\00", align 1
@.str.6 = private unnamed_addr constant [39 x i8] c"index < node->op()->EffectInputCount()\00", align 1

@_ZN2v88internal8compiler14GraphAssembler17BasicBlockUpdaterC1EPNS1_8ScheduleEPNS1_5GraphEPNS1_21CommonOperatorBuilderEPNS0_4ZoneE = hidden unnamed_addr alias void (%"class.v8::internal::compiler::GraphAssembler::BasicBlockUpdater"*, %"class.v8::internal::compiler::Schedule"*, %"class.v8::internal::compiler::Graph"*, %"class.v8::internal::compiler::CommonOperatorBuilder"*, %"class.v8::internal::Zone"*), void (%"class.v8::internal::compiler::GraphAssembler::BasicBlockUpdater"*, %"class.v8::internal::compiler::Schedule"*, %"class.v8::internal::compiler::Graph"*, %"class.v8::internal::compiler::CommonOperatorBuilder"*, %"class.v8::internal::Zone"*)* @_ZN2v88internal8compiler14GraphAssembler17BasicBlockUpdaterC2EPNS1_8ScheduleEPNS1_5GraphEPNS1_21CommonOperatorBuilderEPNS0_4ZoneE
@_ZN2v88internal8compiler14GraphAssemblerC1EPNS1_12MachineGraphEPNS0_4ZoneENS_4base8OptionalINSt3__18functionIFvPNS1_4NodeEEEEEEPNS1_8ScheduleEb = hidden unnamed_addr alias void (%"class.v8::internal::compiler::GraphAssembler"*, %"class.v8::internal::compiler::MachineGraph"*, %"class.v8::internal::Zone"*, %"class.v8::base::Optional"*, %"class.v8::internal::compiler::Schedule"*, i1), void (%"class.v8::internal::compiler::GraphAssembler"*, %"class.v8::internal::compiler::MachineGraph"*, %"class.v8::internal::Zone"*, %"class.v8::base::Optional"*, %"class.v8::internal::compiler::Schedule"*, i1)* @_ZN2v88internal8compiler14GraphAssemblerC2EPNS1_12MachineGraphEPNS0_4ZoneENS_4base8OptionalINSt3__18functionIFvPNS1_4NodeEEEEEEPNS1_8ScheduleEb
@_ZN2v88internal8compiler14GraphAssemblerD1Ev = hidden unnamed_addr alias void (%"class.v8::internal::compiler::GraphAssembler"*), void (%"class.v8::internal::compiler::GraphAssembler"*)* @_ZN2v88internal8compiler14GraphAssemblerD2Ev

; Function Attrs: nounwind ssp uwtable
define hidden void @_ZN2v88internal8compiler14GraphAssembler17BasicBlockUpdaterC2EPNS1_8ScheduleEPNS1_5GraphEPNS1_21CommonOperatorBuilderEPNS0_4ZoneE(%"class.v8::internal::compiler::GraphAssembler::BasicBlockUpdater"* nocapture, %"class.v8::internal::compiler::Schedule"*, %"class.v8::internal::compiler::Graph"*, %"class.v8::internal::compiler::CommonOperatorBuilder"*, %"class.v8::internal::Zone"*) unnamed_addr #0 align 2 {
  %6 = getelementptr inbounds %"class.v8::internal::compiler::GraphAssembler::BasicBlockUpdater", %"class.v8::internal::compiler::GraphAssembler::BasicBlockUpdater"* %0, i64 0, i32 0
  store %"class.v8::internal::Zone"* %4, %"class.v8::internal::Zone"** %6, align 8
  %7 = getelementptr inbounds %"class.v8::internal::compiler::GraphAssembler::BasicBlockUpdater", %"class.v8::internal::compiler::GraphAssembler::BasicBlockUpdater"* %0, i64 0, i32 1
  %8 = getelementptr inbounds %"class.v8::internal::compiler::GraphAssembler::BasicBlockUpdater", %"class.v8::internal::compiler::GraphAssembler::BasicBlockUpdater"* %0, i64 0, i32 5
  %9 = bitcast %"class.v8::internal::compiler::BasicBlock"** %7 to i8*
  call void @llvm.memset.p0i8.i64(i8* align 8 %9, i8 0, i64 32, i1 false)
  store %"class.v8::internal::compiler::Schedule"* %1, %"class.v8::internal::compiler::Schedule"** %8, align 8
  %10 = getelementptr inbounds %"class.v8::internal::compiler::GraphAssembler::BasicBlockUpdater", %"class.v8::internal::compiler::GraphAssembler::BasicBlockUpdater"* %0, i64 0, i32 6
  store %"class.v8::internal::compiler::Graph"* %2, %"class.v8::internal::compiler::Graph"** %10, align 8
  %11 = getelementptr inbounds %"class.v8::internal::compiler::GraphAssembler::BasicBlockUpdater", %"class.v8::internal::compiler::GraphAssembler::BasicBlockUpdater"* %0, i64 0, i32 7
  store %"class.v8::internal::compiler::CommonOperatorBuilder"* %3, %"class.v8::internal::compiler::CommonOperatorBuilder"** %11, align 8
  %12 = getelementptr inbounds %"class.v8::internal::compiler::GraphAssembler::BasicBlockUpdater", %"class.v8::internal::compiler::GraphAssembler::BasicBlockUpdater"* %0, i64 0, i32 8
  %13 = bitcast %"class.v8::internal::compiler::Schedule"* %1 to i64*
  %14 = load i64, i64* %13, align 8
  %15 = getelementptr inbounds %"class.v8::internal::compiler::GraphAssembler::BasicBlockUpdater", %"class.v8::internal::compiler::GraphAssembler::BasicBlockUpdater"* %0, i64 0, i32 8, i32 0, i32 0, i32 2, i32 1
  %16 = bitcast %"struct.std::__1::__compressed_pair_elem.10"* %15 to i64*
  %17 = bitcast %"class.v8::internal::ZoneVector"* %12 to i8*
  tail call void @llvm.memset.p0i8.i64(i8* align 8 %17, i8 0, i64 24, i1 false) #9
  store i64 %14, i64* %16, align 8
  %18 = getelementptr inbounds %"class.v8::internal::compiler::GraphAssembler::BasicBlockUpdater", %"class.v8::internal::compiler::GraphAssembler::BasicBlockUpdater"* %0, i64 0, i32 9
  %19 = load i64, i64* %13, align 8
  %20 = getelementptr inbounds %"class.v8::internal::compiler::GraphAssembler::BasicBlockUpdater", %"class.v8::internal::compiler::GraphAssembler::BasicBlockUpdater"* %0, i64 0, i32 9, i32 0, i32 0, i32 2, i32 1
  %21 = bitcast %"struct.std::__1::__compressed_pair_elem.30"* %20 to i64*
  %22 = bitcast %"class.v8::internal::ZoneVector.25"* %18 to i8*
  tail call void @llvm.memset.p0i8.i64(i8* align 8 %22, i8 0, i64 24, i1 false) #9
  store i64 %19, i64* %21, align 8
  %23 = getelementptr inbounds %"class.v8::internal::compiler::GraphAssembler::BasicBlockUpdater", %"class.v8::internal::compiler::GraphAssembler::BasicBlockUpdater"* %0, i64 0, i32 10
  store i32 0, i32* %23, align 8
  %24 = getelementptr inbounds %"class.v8::internal::compiler::GraphAssembler::BasicBlockUpdater", %"class.v8::internal::compiler::GraphAssembler::BasicBlockUpdater"* %0, i64 0, i32 12
  store %"class.v8::internal::compiler::Node"* null, %"class.v8::internal::compiler::Node"** %24, align 8
  %25 = getelementptr inbounds %"class.v8::internal::compiler::GraphAssembler::BasicBlockUpdater", %"class.v8::internal::compiler::GraphAssembler::BasicBlockUpdater"* %0, i64 0, i32 13
  store i8 0, i8* %25, align 8
  %26 = getelementptr inbounds %"class.v8::internal::compiler::GraphAssembler::BasicBlockUpdater", %"class.v8::internal::compiler::GraphAssembler::BasicBlockUpdater"* %0, i64 0, i32 15
  %27 = getelementptr inbounds %"class.v8::internal::compiler::Graph", %"class.v8::internal::compiler::Graph"* %2, i64 0, i32 4
  %28 = load i32, i32* %27, align 4
  %29 = zext i32 %28 to i64
  store i64 %29, i64* %26, align 8
  %30 = getelementptr inbounds %"class.v8::internal::compiler::GraphAssembler::BasicBlockUpdater", %"class.v8::internal::compiler::GraphAssembler::BasicBlockUpdater"* %0, i64 0, i32 16
  store i32 0, i32* %30, align 8
  ret void
}

; Function Attrs: nounwind ssp uwtable
define hidden %"class.v8::internal::compiler::Node"* @_ZN2v88internal8compiler14GraphAssembler17BasicBlockUpdater7AddNodeEPNS1_4NodeE(%"class.v8::internal::compiler::GraphAssembler::BasicBlockUpdater"*, %"class.v8::internal::compiler::Node"* returned) local_unnamed_addr #0 align 2 {
  %3 = getelementptr inbounds %"class.v8::internal::compiler::GraphAssembler::BasicBlockUpdater", %"class.v8::internal::compiler::GraphAssembler::BasicBlockUpdater"* %0, i64 0, i32 1
  %4 = load %"class.v8::internal::compiler::BasicBlock"*, %"class.v8::internal::compiler::BasicBlock"** %3, align 8
  %5 = getelementptr inbounds %"class.v8::internal::compiler::GraphAssembler::BasicBlockUpdater", %"class.v8::internal::compiler::GraphAssembler::BasicBlockUpdater"* %0, i64 0, i32 16
  %6 = load i32, i32* %5, align 8
  %7 = icmp eq i32 %6, 0
  br i1 %7, label %8, label %20

8:                                                ; preds = %2
  %9 = getelementptr inbounds %"class.v8::internal::compiler::GraphAssembler::BasicBlockUpdater", %"class.v8::internal::compiler::GraphAssembler::BasicBlockUpdater"* %0, i64 0, i32 3, i32 0
  %10 = load %"class.v8::internal::compiler::Node"**, %"class.v8::internal::compiler::Node"*** %9, align 8
  %11 = getelementptr inbounds %"class.v8::internal::compiler::GraphAssembler::BasicBlockUpdater", %"class.v8::internal::compiler::GraphAssembler::BasicBlockUpdater"* %0, i64 0, i32 4, i32 0
  %12 = load %"class.v8::internal::compiler::Node"**, %"class.v8::internal::compiler::Node"*** %11, align 8
  %13 = icmp eq %"class.v8::internal::compiler::Node"** %10, %12
  br i1 %13, label %19, label %14

14:                                               ; preds = %8
  %15 = load %"class.v8::internal::compiler::Node"*, %"class.v8::internal::compiler::Node"** %10, align 8
  %16 = icmp eq %"class.v8::internal::compiler::Node"* %15, %1
  br i1 %16, label %17, label %19

17:                                               ; preds = %14
  %18 = getelementptr inbounds %"class.v8::internal::compiler::Node"*, %"class.v8::internal::compiler::Node"** %10, i64 1
  store %"class.v8::internal::compiler::Node"** %18, %"class.v8::internal::compiler::Node"*** %9, align 8
  br label %23

19:                                               ; preds = %14, %8
  tail call void @_ZN2v88internal8compiler14GraphAssembler17BasicBlockUpdater13CopyForChangeEv(%"class.v8::internal::compiler::GraphAssembler::BasicBlockUpdater"* %0) #9
  br label %20

20:                                               ; preds = %19, %2
  %21 = getelementptr inbounds %"class.v8::internal::compiler::GraphAssembler::BasicBlockUpdater", %"class.v8::internal::compiler::GraphAssembler::BasicBlockUpdater"* %0, i64 0, i32 5
  %22 = load %"class.v8::internal::compiler::Schedule"*, %"class.v8::internal::compiler::Schedule"** %21, align 8
  tail call void @_ZN2v88internal8compiler8Schedule7AddNodeEPNS1_10BasicBlockEPNS1_4NodeE(%"class.v8::internal::compiler::Schedule"* %22, %"class.v8::internal::compiler::BasicBlock"* %4, %"class.v8::internal::compiler::Node"* %1) #9
  br label %23

23:                                               ; preds = %17, %20
  ret %"class.v8::internal::compiler::Node"* %1
}

; Function Attrs: nounwind ssp uwtable
define hidden %"class.v8::internal::compiler::Node"* @_ZN2v88internal8compiler14GraphAssembler17BasicBlockUpdater7AddNodeEPNS1_4NodeEPNS1_10BasicBlockE(%"class.v8::internal::compiler::GraphAssembler::BasicBlockUpdater"*, %"class.v8::internal::compiler::Node"* returned, %"class.v8::internal::compiler::BasicBlock"*) local_unnamed_addr #0 align 2 {
  %4 = getelementptr inbounds %"class.v8::internal::compiler::GraphAssembler::BasicBlockUpdater", %"class.v8::internal::compiler::GraphAssembler::BasicBlockUpdater"* %0, i64 0, i32 16
  %5 = load i32, i32* %4, align 8
  %6 = icmp eq i32 %5, 0
  br i1 %6, label %7, label %19

7:                                                ; preds = %3
  %8 = getelementptr inbounds %"class.v8::internal::compiler::GraphAssembler::BasicBlockUpdater", %"class.v8::internal::compiler::GraphAssembler::BasicBlockUpdater"* %0, i64 0, i32 3, i32 0
  %9 = load %"class.v8::internal::compiler::Node"**, %"class.v8::internal::compiler::Node"*** %8, align 8
  %10 = getelementptr inbounds %"class.v8::internal::compiler::GraphAssembler::BasicBlockUpdater", %"class.v8::internal::compiler::GraphAssembler::BasicBlockUpdater"* %0, i64 0, i32 4, i32 0
  %11 = load %"class.v8::internal::compiler::Node"**, %"class.v8::internal::compiler::Node"*** %10, align 8
  %12 = icmp eq %"class.v8::internal::compiler::Node"** %9, %11
  br i1 %12, label %18, label %13

13:                                               ; preds = %7
  %14 = load %"class.v8::internal::compiler::Node"*, %"class.v8::internal::compiler::Node"** %9, align 8
  %15 = icmp eq %"class.v8::internal::compiler::Node"* %14, %1
  br i1 %15, label %16, label %18

16:                                               ; preds = %13
  %17 = getelementptr inbounds %"class.v8::internal::compiler::Node"*, %"class.v8::internal::compiler::Node"** %9, i64 1
  store %"class.v8::internal::compiler::Node"** %17, %"class.v8::internal::compiler::Node"*** %8, align 8
  br label %22

18:                                               ; preds = %7, %13
  tail call void @_ZN2v88internal8compiler14GraphAssembler17BasicBlockUpdater13CopyForChangeEv(%"class.v8::internal::compiler::GraphAssembler::BasicBlockUpdater"* %0)
  br label %19

19:                                               ; preds = %18, %3
  %20 = getelementptr inbounds %"class.v8::internal::compiler::GraphAssembler::BasicBlockUpdater", %"class.v8::internal::compiler::GraphAssembler::BasicBlockUpdater"* %0, i64 0, i32 5
  %21 = load %"class.v8::internal::compiler::Schedule"*, %"class.v8::internal::compiler::Schedule"** %20, align 8
  tail call void @_ZN2v88internal8compiler8Schedule7AddNodeEPNS1_10BasicBlockEPNS1_4NodeE(%"class.v8::internal::compiler::Schedule"* %21, %"class.v8::internal::compiler::BasicBlock"* %2, %"class.v8::internal::compiler::Node"* %1) #9
  br label %22

22:                                               ; preds = %19, %16
  ret %"class.v8::internal::compiler::Node"* %1
}

; Function Attrs: nounwind ssp uwtable
define hidden void @_ZN2v88internal8compiler14GraphAssembler17BasicBlockUpdater13CopyForChangeEv(%"class.v8::internal::compiler::GraphAssembler::BasicBlockUpdater"*) local_unnamed_addr #0 align 2 {
  %2 = getelementptr inbounds %"class.v8::internal::compiler::GraphAssembler::BasicBlockUpdater", %"class.v8::internal::compiler::GraphAssembler::BasicBlockUpdater"* %0, i64 0, i32 2
  %3 = load %"class.v8::internal::compiler::BasicBlock"*, %"class.v8::internal::compiler::BasicBlock"** %2, align 8
  %4 = getelementptr inbounds %"class.v8::internal::compiler::BasicBlock", %"class.v8::internal::compiler::BasicBlock"* %3, i64 0, i32 12, i32 0, i32 0, i32 0
  %5 = load %"class.v8::internal::compiler::BasicBlock"**, %"class.v8::internal::compiler::BasicBlock"*** %4, align 8
  %6 = getelementptr inbounds %"class.v8::internal::compiler::BasicBlock", %"class.v8::internal::compiler::BasicBlock"* %3, i64 0, i32 12, i32 0, i32 0, i32 1
  %7 = load %"class.v8::internal::compiler::BasicBlock"**, %"class.v8::internal::compiler::BasicBlock"*** %6, align 8
  %8 = icmp eq %"class.v8::internal::compiler::BasicBlock"** %5, %7
  br i1 %8, label %20, label %9

9:                                                ; preds = %1
  %10 = getelementptr inbounds %"class.v8::internal::compiler::GraphAssembler::BasicBlockUpdater", %"class.v8::internal::compiler::GraphAssembler::BasicBlockUpdater"* %0, i64 0, i32 9, i32 0
  %11 = getelementptr inbounds %"class.v8::internal::compiler::GraphAssembler::BasicBlockUpdater", %"class.v8::internal::compiler::GraphAssembler::BasicBlockUpdater"* %0, i64 0, i32 9, i32 0, i32 0, i32 1
  %12 = getelementptr inbounds %"class.v8::internal::compiler::GraphAssembler::BasicBlockUpdater", %"class.v8::internal::compiler::GraphAssembler::BasicBlockUpdater"* %0, i64 0, i32 9, i32 0, i32 0, i32 2, i32 0, i32 0
  %13 = bitcast %"struct.v8::internal::compiler::GraphAssembler::BasicBlockUpdater::SuccessorInfo"** %11 to i64*
  %14 = bitcast %"class.std::__1::vector.26"* %10 to i64*
  %15 = bitcast %"struct.v8::internal::compiler::GraphAssembler::BasicBlockUpdater::SuccessorInfo"** %12 to i64*
  %16 = getelementptr inbounds %"class.v8::internal::compiler::GraphAssembler::BasicBlockUpdater", %"class.v8::internal::compiler::GraphAssembler::BasicBlockUpdater"* %0, i64 0, i32 9, i32 0, i32 0, i32 2, i32 1, i32 0, i32 0
  %17 = getelementptr inbounds %"class.std::__1::vector.26", %"class.std::__1::vector.26"* %10, i64 0, i32 0, i32 0
  br label %65

18:                                               ; preds = %193
  %19 = load %"class.v8::internal::compiler::BasicBlock"*, %"class.v8::internal::compiler::BasicBlock"** %2, align 8
  br label %20

20:                                               ; preds = %18, %1
  %21 = phi %"class.v8::internal::compiler::BasicBlock"* [ %19, %18 ], [ %3, %1 ]
  %22 = getelementptr inbounds %"class.v8::internal::compiler::BasicBlock", %"class.v8::internal::compiler::BasicBlock"* %21, i64 0, i32 9
  %23 = load i32, i32* %22, align 4
  %24 = getelementptr inbounds %"class.v8::internal::compiler::GraphAssembler::BasicBlockUpdater", %"class.v8::internal::compiler::GraphAssembler::BasicBlockUpdater"* %0, i64 0, i32 10
  store i32 %23, i32* %24, align 8
  %25 = getelementptr inbounds %"class.v8::internal::compiler::BasicBlock", %"class.v8::internal::compiler::BasicBlock"* %21, i64 0, i32 10
  %26 = bitcast %"class.v8::internal::compiler::Node"** %25 to i64*
  %27 = load i64, i64* %26, align 8
  %28 = getelementptr inbounds %"class.v8::internal::compiler::GraphAssembler::BasicBlockUpdater", %"class.v8::internal::compiler::GraphAssembler::BasicBlockUpdater"* %0, i64 0, i32 12
  %29 = bitcast %"class.v8::internal::compiler::Node"** %28 to i64*
  store i64 %27, i64* %29, align 8
  %30 = getelementptr inbounds %"class.v8::internal::compiler::BasicBlock", %"class.v8::internal::compiler::BasicBlock"* %21, i64 0, i32 11, i32 0
  %31 = getelementptr inbounds %"class.v8::internal::compiler::GraphAssembler::BasicBlockUpdater", %"class.v8::internal::compiler::GraphAssembler::BasicBlockUpdater"* %0, i64 0, i32 8, i32 0
  %32 = bitcast %"class.std::__1::vector"* %30 to i64*
  %33 = load i64, i64* %32, align 8
  %34 = bitcast %"class.std::__1::vector"* %31 to i64*
  %35 = load i64, i64* %34, align 8
  store i64 %35, i64* %32, align 8
  store i64 %33, i64* %34, align 8
  %36 = getelementptr inbounds %"class.v8::internal::compiler::BasicBlock", %"class.v8::internal::compiler::BasicBlock"* %21, i64 0, i32 11, i32 0, i32 0, i32 1
  %37 = getelementptr inbounds %"class.v8::internal::compiler::GraphAssembler::BasicBlockUpdater", %"class.v8::internal::compiler::GraphAssembler::BasicBlockUpdater"* %0, i64 0, i32 8, i32 0, i32 0, i32 1
  %38 = bitcast %"class.v8::internal::compiler::Node"*** %36 to i64*
  %39 = load i64, i64* %38, align 8
  %40 = bitcast %"class.v8::internal::compiler::Node"*** %37 to i64*
  %41 = load i64, i64* %40, align 8
  store i64 %41, i64* %38, align 8
  store i64 %39, i64* %40, align 8
  %42 = getelementptr inbounds %"class.v8::internal::compiler::BasicBlock", %"class.v8::internal::compiler::BasicBlock"* %21, i64 0, i32 11, i32 0, i32 0, i32 2, i32 0, i32 0
  %43 = getelementptr inbounds %"class.v8::internal::compiler::GraphAssembler::BasicBlockUpdater", %"class.v8::internal::compiler::GraphAssembler::BasicBlockUpdater"* %0, i64 0, i32 8, i32 0, i32 0, i32 2, i32 0, i32 0
  %44 = bitcast %"class.v8::internal::compiler::Node"*** %42 to i64*
  %45 = load i64, i64* %44, align 8
  %46 = bitcast %"class.v8::internal::compiler::Node"*** %43 to i64*
  %47 = load i64, i64* %46, align 8
  store i64 %47, i64* %44, align 8
  store i64 %45, i64* %46, align 8
  %48 = load %"class.v8::internal::compiler::BasicBlock"*, %"class.v8::internal::compiler::BasicBlock"** %2, align 8
  %49 = getelementptr inbounds %"class.v8::internal::compiler::BasicBlock", %"class.v8::internal::compiler::BasicBlock"* %48, i64 0, i32 11, i32 0, i32 0, i32 0
  %50 = load %"class.v8::internal::compiler::Node"**, %"class.v8::internal::compiler::Node"*** %49, align 8
  %51 = getelementptr inbounds %"class.std::__1::vector", %"class.std::__1::vector"* %31, i64 0, i32 0, i32 0
  %52 = load %"class.v8::internal::compiler::Node"**, %"class.v8::internal::compiler::Node"*** %51, align 8
  %53 = getelementptr inbounds %"class.v8::internal::compiler::GraphAssembler::BasicBlockUpdater", %"class.v8::internal::compiler::GraphAssembler::BasicBlockUpdater"* %0, i64 0, i32 3, i32 0
  %54 = load %"class.v8::internal::compiler::Node"**, %"class.v8::internal::compiler::Node"*** %53, align 8
  %55 = getelementptr inbounds %"class.v8::internal::compiler::BasicBlock", %"class.v8::internal::compiler::BasicBlock"* %48, i64 0, i32 11, i32 0
  %56 = tail call %"class.v8::internal::compiler::Node"** @_ZNSt3__16vectorIPN2v88internal8compiler4NodeENS2_13ZoneAllocatorIS5_EEE6insertINS_11__wrap_iterIPS5_EEEENS_9enable_ifIXaasr27__is_cpp17_forward_iteratorIT_EE5valuesr16is_constructibleIS5_NS_15iterator_traitsISE_E9referenceEEE5valueESC_E4typeENSA_IPKS5_EESE_SE_(%"class.std::__1::vector"* %55, %"class.v8::internal::compiler::Node"** %50, %"class.v8::internal::compiler::Node"** %52, %"class.v8::internal::compiler::Node"** %54) #9
  %57 = getelementptr inbounds %"class.v8::internal::compiler::GraphAssembler::BasicBlockUpdater", %"class.v8::internal::compiler::GraphAssembler::BasicBlockUpdater"* %0, i64 0, i32 3
  %58 = getelementptr inbounds %"class.std::__1::__wrap_iter", %"class.std::__1::__wrap_iter"* %57, i64 0, i32 0
  %59 = load %"class.v8::internal::compiler::Node"**, %"class.v8::internal::compiler::Node"*** %58, align 8
  %60 = getelementptr inbounds %"class.v8::internal::compiler::GraphAssembler::BasicBlockUpdater", %"class.v8::internal::compiler::GraphAssembler::BasicBlockUpdater"* %0, i64 0, i32 4, i32 0
  %61 = load %"class.v8::internal::compiler::Node"**, %"class.v8::internal::compiler::Node"*** %60, align 8
  %62 = icmp eq %"class.v8::internal::compiler::Node"** %59, %61
  br i1 %62, label %204, label %63

63:                                               ; preds = %20
  %64 = getelementptr inbounds %"class.v8::internal::compiler::GraphAssembler::BasicBlockUpdater", %"class.v8::internal::compiler::GraphAssembler::BasicBlockUpdater"* %0, i64 0, i32 5
  br label %196

65:                                               ; preds = %9, %193
  %66 = phi %"class.v8::internal::compiler::BasicBlock"** [ %5, %9 ], [ %194, %193 ]
  %67 = load %"class.v8::internal::compiler::BasicBlock"*, %"class.v8::internal::compiler::BasicBlock"** %66, align 8
  %68 = getelementptr inbounds %"class.v8::internal::compiler::BasicBlock", %"class.v8::internal::compiler::BasicBlock"* %67, i64 0, i32 13, i32 0
  %69 = getelementptr inbounds %"class.v8::internal::compiler::BasicBlock", %"class.v8::internal::compiler::BasicBlock"* %67, i64 0, i32 13, i32 0, i32 0, i32 1
  %70 = bitcast %"class.v8::internal::compiler::BasicBlock"*** %69 to i64*
  %71 = load i64, i64* %70, align 8
  %72 = bitcast %"class.std::__1::vector.12"* %68 to i64*
  %73 = load i64, i64* %72, align 8
  %74 = icmp eq i64 %71, %73
  %75 = inttoptr i64 %73 to %"class.v8::internal::compiler::BasicBlock"**
  br i1 %74, label %193, label %76

76:                                               ; preds = %65
  %77 = load %"class.v8::internal::compiler::BasicBlock"*, %"class.v8::internal::compiler::BasicBlock"** %2, align 8
  %78 = sub i64 %71, %73
  %79 = ashr exact i64 %78, 3
  br label %80

80:                                               ; preds = %76, %190
  %81 = phi i64 [ 0, %76 ], [ %191, %190 ]
  %82 = getelementptr inbounds %"class.v8::internal::compiler::BasicBlock"*, %"class.v8::internal::compiler::BasicBlock"** %75, i64 %81
  %83 = load %"class.v8::internal::compiler::BasicBlock"*, %"class.v8::internal::compiler::BasicBlock"** %82, align 8
  %84 = icmp eq %"class.v8::internal::compiler::BasicBlock"* %83, %77
  br i1 %84, label %85, label %190

85:                                               ; preds = %80
  %86 = load %"struct.v8::internal::compiler::GraphAssembler::BasicBlockUpdater::SuccessorInfo"*, %"struct.v8::internal::compiler::GraphAssembler::BasicBlockUpdater::SuccessorInfo"** %11, align 8
  %87 = load %"struct.v8::internal::compiler::GraphAssembler::BasicBlockUpdater::SuccessorInfo"*, %"struct.v8::internal::compiler::GraphAssembler::BasicBlockUpdater::SuccessorInfo"** %12, align 8
  %88 = icmp ult %"struct.v8::internal::compiler::GraphAssembler::BasicBlockUpdater::SuccessorInfo"* %86, %87
  %89 = ptrtoint %"struct.v8::internal::compiler::GraphAssembler::BasicBlockUpdater::SuccessorInfo"* %87 to i64
  br i1 %88, label %90, label %95

90:                                               ; preds = %85
  %91 = getelementptr inbounds %"struct.v8::internal::compiler::GraphAssembler::BasicBlockUpdater::SuccessorInfo", %"struct.v8::internal::compiler::GraphAssembler::BasicBlockUpdater::SuccessorInfo"* %86, i64 0, i32 0
  store %"class.v8::internal::compiler::BasicBlock"* %67, %"class.v8::internal::compiler::BasicBlock"** %91, align 8
  %92 = getelementptr inbounds %"struct.v8::internal::compiler::GraphAssembler::BasicBlockUpdater::SuccessorInfo", %"struct.v8::internal::compiler::GraphAssembler::BasicBlockUpdater::SuccessorInfo"* %86, i64 0, i32 1
  store i64 %81, i64* %92, align 8
  %93 = getelementptr inbounds %"struct.v8::internal::compiler::GraphAssembler::BasicBlockUpdater::SuccessorInfo", %"struct.v8::internal::compiler::GraphAssembler::BasicBlockUpdater::SuccessorInfo"* %86, i64 1
  %94 = ptrtoint %"struct.v8::internal::compiler::GraphAssembler::BasicBlockUpdater::SuccessorInfo"* %93 to i64
  store i64 %94, i64* %13, align 8
  br label %193

95:                                               ; preds = %85
  %96 = ptrtoint %"struct.v8::internal::compiler::GraphAssembler::BasicBlockUpdater::SuccessorInfo"* %86 to i64
  %97 = load i64, i64* %14, align 8
  %98 = sub i64 %96, %97
  %99 = ashr exact i64 %98, 4
  %100 = add nsw i64 %99, 1
  %101 = icmp ugt i64 %100, 134217727
  br i1 %101, label %102, label %104

102:                                              ; preds = %95
  %103 = bitcast %"class.std::__1::vector.26"* %10 to %"class.std::__1::__vector_base_common"*
  tail call void @_ZNKSt3__120__vector_base_commonILb1EE20__throw_length_errorEv(%"class.std::__1::__vector_base_common"* %103) #10
  unreachable

104:                                              ; preds = %95
  %105 = sub i64 %89, %97
  %106 = ashr exact i64 %105, 4
  %107 = icmp ult i64 %106, 67108863
  br i1 %107, label %108, label %113

108:                                              ; preds = %104
  %109 = ashr exact i64 %105, 3
  %110 = icmp ult i64 %109, %100
  %111 = select i1 %110, i64 %100, i64 %109
  %112 = icmp eq i64 %111, 0
  br i1 %112, label %130, label %113

113:                                              ; preds = %108, %104
  %114 = phi i64 [ %111, %108 ], [ 134217727, %104 ]
  %115 = load %"class.v8::internal::Zone"*, %"class.v8::internal::Zone"** %16, align 8
  %116 = shl i64 %114, 4
  %117 = getelementptr inbounds %"class.v8::internal::Zone", %"class.v8::internal::Zone"* %115, i64 0, i32 2
  %118 = load i64, i64* %117, align 8
  %119 = getelementptr inbounds %"class.v8::internal::Zone", %"class.v8::internal::Zone"* %115, i64 0, i32 3
  %120 = load i64, i64* %119, align 8
  %121 = sub i64 %120, %118
  %122 = icmp ugt i64 %116, %121
  br i1 %122, label %123, label %125, !prof !2

123:                                              ; preds = %113
  %124 = tail call i64 @_ZN2v88internal4Zone9NewExpandEm(%"class.v8::internal::Zone"* %115, i64 %116) #9
  br label %127

125:                                              ; preds = %113
  %126 = add i64 %118, %116
  store i64 %126, i64* %117, align 8
  br label %127

127:                                              ; preds = %125, %123
  %128 = phi i64 [ %124, %123 ], [ %118, %125 ]
  %129 = inttoptr i64 %128 to %"struct.v8::internal::compiler::GraphAssembler::BasicBlockUpdater::SuccessorInfo"*
  br label %130

130:                                              ; preds = %127, %108
  %131 = phi i64 [ %114, %127 ], [ 0, %108 ]
  %132 = phi %"struct.v8::internal::compiler::GraphAssembler::BasicBlockUpdater::SuccessorInfo"* [ %129, %127 ], [ null, %108 ]
  %133 = getelementptr inbounds %"struct.v8::internal::compiler::GraphAssembler::BasicBlockUpdater::SuccessorInfo", %"struct.v8::internal::compiler::GraphAssembler::BasicBlockUpdater::SuccessorInfo"* %132, i64 %99
  %134 = getelementptr inbounds %"struct.v8::internal::compiler::GraphAssembler::BasicBlockUpdater::SuccessorInfo", %"struct.v8::internal::compiler::GraphAssembler::BasicBlockUpdater::SuccessorInfo"* %132, i64 %131
  %135 = ptrtoint %"struct.v8::internal::compiler::GraphAssembler::BasicBlockUpdater::SuccessorInfo"* %134 to i64
  %136 = getelementptr inbounds %"struct.v8::internal::compiler::GraphAssembler::BasicBlockUpdater::SuccessorInfo", %"struct.v8::internal::compiler::GraphAssembler::BasicBlockUpdater::SuccessorInfo"* %133, i64 0, i32 0
  store %"class.v8::internal::compiler::BasicBlock"* %67, %"class.v8::internal::compiler::BasicBlock"** %136, align 8
  %137 = getelementptr inbounds %"struct.v8::internal::compiler::GraphAssembler::BasicBlockUpdater::SuccessorInfo", %"struct.v8::internal::compiler::GraphAssembler::BasicBlockUpdater::SuccessorInfo"* %132, i64 %99, i32 1
  store i64 %81, i64* %137, align 8
  %138 = getelementptr inbounds %"struct.v8::internal::compiler::GraphAssembler::BasicBlockUpdater::SuccessorInfo", %"struct.v8::internal::compiler::GraphAssembler::BasicBlockUpdater::SuccessorInfo"* %133, i64 1
  %139 = ptrtoint %"struct.v8::internal::compiler::GraphAssembler::BasicBlockUpdater::SuccessorInfo"* %138 to i64
  %140 = load %"struct.v8::internal::compiler::GraphAssembler::BasicBlockUpdater::SuccessorInfo"*, %"struct.v8::internal::compiler::GraphAssembler::BasicBlockUpdater::SuccessorInfo"** %17, align 8
  %141 = load %"struct.v8::internal::compiler::GraphAssembler::BasicBlockUpdater::SuccessorInfo"*, %"struct.v8::internal::compiler::GraphAssembler::BasicBlockUpdater::SuccessorInfo"** %11, align 8
  %142 = icmp eq %"struct.v8::internal::compiler::GraphAssembler::BasicBlockUpdater::SuccessorInfo"* %141, %140
  br i1 %142, label %187, label %143

143:                                              ; preds = %130
  %144 = ptrtoint %"struct.v8::internal::compiler::GraphAssembler::BasicBlockUpdater::SuccessorInfo"* %140 to i64
  %145 = getelementptr %"struct.v8::internal::compiler::GraphAssembler::BasicBlockUpdater::SuccessorInfo", %"struct.v8::internal::compiler::GraphAssembler::BasicBlockUpdater::SuccessorInfo"* %141, i64 -1
  %146 = ptrtoint %"struct.v8::internal::compiler::GraphAssembler::BasicBlockUpdater::SuccessorInfo"* %145 to i64
  %147 = sub i64 %146, %144
  %148 = lshr i64 %147, 4
  %149 = add nuw nsw i64 %148, 1
  %150 = and i64 %149, 3
  %151 = icmp eq i64 %150, 0
  br i1 %151, label %162, label %152

152:                                              ; preds = %143, %152
  %153 = phi %"struct.v8::internal::compiler::GraphAssembler::BasicBlockUpdater::SuccessorInfo"* [ %156, %152 ], [ %133, %143 ]
  %154 = phi %"struct.v8::internal::compiler::GraphAssembler::BasicBlockUpdater::SuccessorInfo"* [ %157, %152 ], [ %141, %143 ]
  %155 = phi i64 [ %160, %152 ], [ %150, %143 ]
  %156 = getelementptr inbounds %"struct.v8::internal::compiler::GraphAssembler::BasicBlockUpdater::SuccessorInfo", %"struct.v8::internal::compiler::GraphAssembler::BasicBlockUpdater::SuccessorInfo"* %153, i64 -1
  %157 = getelementptr inbounds %"struct.v8::internal::compiler::GraphAssembler::BasicBlockUpdater::SuccessorInfo", %"struct.v8::internal::compiler::GraphAssembler::BasicBlockUpdater::SuccessorInfo"* %154, i64 -1
  %158 = bitcast %"struct.v8::internal::compiler::GraphAssembler::BasicBlockUpdater::SuccessorInfo"* %156 to i8*
  %159 = bitcast %"struct.v8::internal::compiler::GraphAssembler::BasicBlockUpdater::SuccessorInfo"* %157 to i8*
  tail call void @llvm.memcpy.p0i8.p0i8.i64(i8* align 8 %158, i8* align 8 %159, i64 16, i1 false) #9
  %160 = add i64 %155, -1
  %161 = icmp eq i64 %160, 0
  br i1 %161, label %162, label %152, !llvm.loop !3

162:                                              ; preds = %152, %143
  %163 = phi %"struct.v8::internal::compiler::GraphAssembler::BasicBlockUpdater::SuccessorInfo"* [ undef, %143 ], [ %156, %152 ]
  %164 = phi %"struct.v8::internal::compiler::GraphAssembler::BasicBlockUpdater::SuccessorInfo"* [ %133, %143 ], [ %156, %152 ]
  %165 = phi %"struct.v8::internal::compiler::GraphAssembler::BasicBlockUpdater::SuccessorInfo"* [ %141, %143 ], [ %157, %152 ]
  %166 = icmp ult i64 %147, 48
  br i1 %166, label %187, label %167

167:                                              ; preds = %162, %167
  %168 = phi %"struct.v8::internal::compiler::GraphAssembler::BasicBlockUpdater::SuccessorInfo"* [ %182, %167 ], [ %164, %162 ]
  %169 = phi %"struct.v8::internal::compiler::GraphAssembler::BasicBlockUpdater::SuccessorInfo"* [ %183, %167 ], [ %165, %162 ]
  %170 = getelementptr inbounds %"struct.v8::internal::compiler::GraphAssembler::BasicBlockUpdater::SuccessorInfo", %"struct.v8::internal::compiler::GraphAssembler::BasicBlockUpdater::SuccessorInfo"* %168, i64 -1
  %171 = getelementptr inbounds %"struct.v8::internal::compiler::GraphAssembler::BasicBlockUpdater::SuccessorInfo", %"struct.v8::internal::compiler::GraphAssembler::BasicBlockUpdater::SuccessorInfo"* %169, i64 -1
  %172 = bitcast %"struct.v8::internal::compiler::GraphAssembler::BasicBlockUpdater::SuccessorInfo"* %170 to i8*
  %173 = bitcast %"struct.v8::internal::compiler::GraphAssembler::BasicBlockUpdater::SuccessorInfo"* %171 to i8*
  tail call void @llvm.memcpy.p0i8.p0i8.i64(i8* align 8 %172, i8* align 8 %173, i64 16, i1 false) #9
  %174 = getelementptr inbounds %"struct.v8::internal::compiler::GraphAssembler::BasicBlockUpdater::SuccessorInfo", %"struct.v8::internal::compiler::GraphAssembler::BasicBlockUpdater::SuccessorInfo"* %168, i64 -2
  %175 = getelementptr inbounds %"struct.v8::internal::compiler::GraphAssembler::BasicBlockUpdater::SuccessorInfo", %"struct.v8::internal::compiler::GraphAssembler::BasicBlockUpdater::SuccessorInfo"* %169, i64 -2
  %176 = bitcast %"struct.v8::internal::compiler::GraphAssembler::BasicBlockUpdater::SuccessorInfo"* %174 to i8*
  %177 = bitcast %"struct.v8::internal::compiler::GraphAssembler::BasicBlockUpdater::SuccessorInfo"* %175 to i8*
  tail call void @llvm.memcpy.p0i8.p0i8.i64(i8* align 8 %176, i8* align 8 %177, i64 16, i1 false) #9
  %178 = getelementptr inbounds %"struct.v8::internal::compiler::GraphAssembler::BasicBlockUpdater::SuccessorInfo", %"struct.v8::internal::compiler::GraphAssembler::BasicBlockUpdater::SuccessorInfo"* %168, i64 -3
  %179 = getelementptr inbounds %"struct.v8::internal::compiler::GraphAssembler::BasicBlockUpdater::SuccessorInfo", %"struct.v8::internal::compiler::GraphAssembler::BasicBlockUpdater::SuccessorInfo"* %169, i64 -3
  %180 = bitcast %"struct.v8::internal::compiler::GraphAssembler::BasicBlockUpdater::SuccessorInfo"* %178 to i8*
  %181 = bitcast %"struct.v8::internal::compiler::GraphAssembler::BasicBlockUpdater::SuccessorInfo"* %179 to i8*
  tail call void @llvm.memcpy.p0i8.p0i8.i64(i8* align 8 %180, i8* align 8 %181, i64 16, i1 false) #9
  %182 = getelementptr inbounds %"struct.v8::internal::compiler::GraphAssembler::BasicBlockUpdater::SuccessorInfo", %"struct.v8::internal::compiler::GraphAssembler::BasicBlockUpdater::SuccessorInfo"* %168, i64 -4
  %183 = getelementptr inbounds %"struct.v8::internal::compiler::GraphAssembler::BasicBlockUpdater::SuccessorInfo", %"struct.v8::internal::compiler::GraphAssembler::BasicBlockUpdater::SuccessorInfo"* %169, i64 -4
  %184 = bitcast %"struct.v8::internal::compiler::GraphAssembler::BasicBlockUpdater::SuccessorInfo"* %182 to i8*
  %185 = bitcast %"struct.v8::internal::compiler::GraphAssembler::BasicBlockUpdater::SuccessorInfo"* %183 to i8*
  tail call void @llvm.memcpy.p0i8.p0i8.i64(i8* align 8 %184, i8* align 8 %185, i64 16, i1 false) #9
  %186 = icmp eq %"struct.v8::internal::compiler::GraphAssembler::BasicBlockUpdater::SuccessorInfo"* %183, %140
  br i1 %186, label %187, label %167

187:                                              ; preds = %162, %167, %130
  %188 = phi %"struct.v8::internal::compiler::GraphAssembler::BasicBlockUpdater::SuccessorInfo"* [ %133, %130 ], [ %163, %162 ], [ %182, %167 ]
  %189 = ptrtoint %"struct.v8::internal::compiler::GraphAssembler::BasicBlockUpdater::SuccessorInfo"* %188 to i64
  store i64 %189, i64* %14, align 8
  store i64 %139, i64* %13, align 8
  store i64 %135, i64* %15, align 8
  br label %193

190:                                              ; preds = %80
  %191 = add nuw i64 %81, 1
  %192 = icmp ult i64 %191, %79
  br i1 %192, label %80, label %193

193:                                              ; preds = %190, %65, %187, %90
  %194 = getelementptr inbounds %"class.v8::internal::compiler::BasicBlock"*, %"class.v8::internal::compiler::BasicBlock"** %66, i64 1
  %195 = icmp eq %"class.v8::internal::compiler::BasicBlock"** %194, %7
  br i1 %195, label %18, label %65

196:                                              ; preds = %63, %196
  %197 = phi %"class.v8::internal::compiler::Node"** [ %59, %63 ], [ %201, %196 ]
  %198 = load %"class.v8::internal::compiler::Schedule"*, %"class.v8::internal::compiler::Schedule"** %64, align 8
  %199 = load %"class.v8::internal::compiler::Node"*, %"class.v8::internal::compiler::Node"** %197, align 8
  tail call void @_ZN2v88internal8compiler8Schedule15SetBlockForNodeEPNS1_10BasicBlockEPNS1_4NodeE(%"class.v8::internal::compiler::Schedule"* %198, %"class.v8::internal::compiler::BasicBlock"* null, %"class.v8::internal::compiler::Node"* %199) #9
  %200 = load %"class.v8::internal::compiler::Node"**, %"class.v8::internal::compiler::Node"*** %58, align 8
  %201 = getelementptr inbounds %"class.v8::internal::compiler::Node"*, %"class.v8::internal::compiler::Node"** %200, i64 1
  store %"class.v8::internal::compiler::Node"** %201, %"class.v8::internal::compiler::Node"*** %58, align 8
  %202 = load %"class.v8::internal::compiler::Node"**, %"class.v8::internal::compiler::Node"*** %60, align 8
  %203 = icmp eq %"class.v8::internal::compiler::Node"** %201, %202
  br i1 %203, label %204, label %196

204:                                              ; preds = %196, %20
  %205 = load %"class.v8::internal::compiler::BasicBlock"*, %"class.v8::internal::compiler::BasicBlock"** %2, align 8
  %206 = getelementptr inbounds %"class.v8::internal::compiler::BasicBlock", %"class.v8::internal::compiler::BasicBlock"* %205, i64 0, i32 9
  %207 = load i32, i32* %206, align 4
  %208 = icmp eq i32 %207, 1
  br i1 %208, label %215, label %209

209:                                              ; preds = %204
  %210 = getelementptr inbounds %"class.v8::internal::compiler::GraphAssembler::BasicBlockUpdater", %"class.v8::internal::compiler::GraphAssembler::BasicBlockUpdater"* %0, i64 0, i32 5
  %211 = load %"class.v8::internal::compiler::Schedule"*, %"class.v8::internal::compiler::Schedule"** %210, align 8
  %212 = getelementptr inbounds %"class.v8::internal::compiler::BasicBlock", %"class.v8::internal::compiler::BasicBlock"* %205, i64 0, i32 10
  %213 = load %"class.v8::internal::compiler::Node"*, %"class.v8::internal::compiler::Node"** %212, align 8
  tail call void @_ZN2v88internal8compiler8Schedule15SetBlockForNodeEPNS1_10BasicBlockEPNS1_4NodeE(%"class.v8::internal::compiler::Schedule"* %211, %"class.v8::internal::compiler::BasicBlock"* null, %"class.v8::internal::compiler::Node"* %213) #9
  %214 = load %"class.v8::internal::compiler::BasicBlock"*, %"class.v8::internal::compiler::BasicBlock"** %2, align 8
  br label %215

215:                                              ; preds = %204, %209
  %216 = phi %"class.v8::internal::compiler::BasicBlock"* [ %205, %204 ], [ %214, %209 ]
  tail call void @_ZN2v88internal8compiler10BasicBlock17set_control_inputEPNS1_4NodeE(%"class.v8::internal::compiler::BasicBlock"* %216, %"class.v8::internal::compiler::Node"* null) #9
  %217 = load %"class.v8::internal::compiler::BasicBlock"*, %"class.v8::internal::compiler::BasicBlock"** %2, align 8
  tail call void @_ZN2v88internal8compiler10BasicBlock11set_controlENS2_7ControlE(%"class.v8::internal::compiler::BasicBlock"* %217, i32 0) #9
  %218 = load %"class.v8::internal::compiler::BasicBlock"*, %"class.v8::internal::compiler::BasicBlock"** %2, align 8
  %219 = getelementptr inbounds %"class.v8::internal::compiler::BasicBlock", %"class.v8::internal::compiler::BasicBlock"* %218, i64 0, i32 12, i32 0
  %220 = bitcast %"class.std::__1::vector.12"* %219 to i64*
  %221 = load i64, i64* %220, align 8
  %222 = getelementptr inbounds %"class.v8::internal::compiler::BasicBlock", %"class.v8::internal::compiler::BasicBlock"* %218, i64 0, i32 12, i32 0, i32 0, i32 1
  %223 = bitcast %"class.v8::internal::compiler::BasicBlock"*** %222 to i64*
  store i64 %221, i64* %223, align 8
  %224 = getelementptr inbounds %"class.v8::internal::compiler::GraphAssembler::BasicBlockUpdater", %"class.v8::internal::compiler::GraphAssembler::BasicBlockUpdater"* %0, i64 0, i32 16
  store i32 1, i32* %224, align 8
  %225 = bitcast %"class.std::__1::__wrap_iter"* %57 to i8*
  call void @llvm.memset.p0i8.i64(i8* align 8 %225, i8 0, i64 16, i1 false)
  ret void
}

declare void @_ZN2v88internal8compiler8Schedule7AddNodeEPNS1_10BasicBlockEPNS1_4NodeE(%"class.v8::internal::compiler::Schedule"*, %"class.v8::internal::compiler::BasicBlock"*, %"class.v8::internal::compiler::Node"*) local_unnamed_addr #1

; Function Attrs: nounwind ssp uwtable
define hidden %"class.v8::internal::compiler::Node"* @_ZN2v88internal8compiler14GraphAssembler17BasicBlockUpdater13AddClonedNodeEPNS1_4NodeE(%"class.v8::internal::compiler::GraphAssembler::BasicBlockUpdater"*, %"class.v8::internal::compiler::Node"*) local_unnamed_addr #0 align 2 {
  %3 = getelementptr inbounds %"class.v8::internal::compiler::GraphAssembler::BasicBlockUpdater", %"class.v8::internal::compiler::GraphAssembler::BasicBlockUpdater"* %0, i64 0, i32 16
  %4 = load i32, i32* %3, align 8
  %5 = icmp eq i32 %4, 0
  br i1 %5, label %6, label %7

6:                                                ; preds = %2
  tail call void @_ZN2v88internal8compiler14GraphAssembler17BasicBlockUpdater13CopyForChangeEv(%"class.v8::internal::compiler::GraphAssembler::BasicBlockUpdater"* %0)
  br label %7

7:                                                ; preds = %6, %2
  %8 = getelementptr inbounds %"class.v8::internal::compiler::GraphAssembler::BasicBlockUpdater", %"class.v8::internal::compiler::GraphAssembler::BasicBlockUpdater"* %0, i64 0, i32 5
  %9 = load %"class.v8::internal::compiler::Schedule"*, %"class.v8::internal::compiler::Schedule"** %8, align 8
  %10 = tail call zeroext i1 @_ZN2v88internal8compiler8Schedule11IsScheduledEPNS1_4NodeE(%"class.v8::internal::compiler::Schedule"* %9, %"class.v8::internal::compiler::Node"* %1) #9
  br i1 %10, label %11, label %17

11:                                               ; preds = %7
  %12 = load %"class.v8::internal::compiler::Schedule"*, %"class.v8::internal::compiler::Schedule"** %8, align 8
  %13 = tail call %"class.v8::internal::compiler::BasicBlock"* @_ZNK2v88internal8compiler8Schedule5blockEPNS1_4NodeE(%"class.v8::internal::compiler::Schedule"* %12, %"class.v8::internal::compiler::Node"* %1) #9
  %14 = getelementptr inbounds %"class.v8::internal::compiler::GraphAssembler::BasicBlockUpdater", %"class.v8::internal::compiler::GraphAssembler::BasicBlockUpdater"* %0, i64 0, i32 1
  %15 = load %"class.v8::internal::compiler::BasicBlock"*, %"class.v8::internal::compiler::BasicBlock"** %14, align 8
  %16 = icmp eq %"class.v8::internal::compiler::BasicBlock"* %13, %15
  br i1 %16, label %69, label %17

17:                                               ; preds = %11, %7
  %18 = load %"class.v8::internal::compiler::Schedule"*, %"class.v8::internal::compiler::Schedule"** %8, align 8
  %19 = tail call zeroext i1 @_ZN2v88internal8compiler8Schedule11IsScheduledEPNS1_4NodeE(%"class.v8::internal::compiler::Schedule"* %18, %"class.v8::internal::compiler::Node"* %1) #9
  br i1 %19, label %47, label %20

20:                                               ; preds = %17
  %21 = getelementptr inbounds %"class.v8::internal::compiler::Node", %"class.v8::internal::compiler::Node"* %1, i64 0, i32 3
  %22 = load i32, i32* %21, align 4
  %23 = and i32 %22, 16777215
  %24 = zext i32 %23 to i64
  %25 = getelementptr inbounds %"class.v8::internal::compiler::GraphAssembler::BasicBlockUpdater", %"class.v8::internal::compiler::GraphAssembler::BasicBlockUpdater"* %0, i64 0, i32 15
  %26 = load i64, i64* %25, align 8
  %27 = icmp ugt i64 %26, %24
  br i1 %27, label %47, label %28

28:                                               ; preds = %20
  %29 = getelementptr inbounds %"class.v8::internal::compiler::GraphAssembler::BasicBlockUpdater", %"class.v8::internal::compiler::GraphAssembler::BasicBlockUpdater"* %0, i64 0, i32 1
  %30 = load %"class.v8::internal::compiler::BasicBlock"*, %"class.v8::internal::compiler::BasicBlock"** %29, align 8
  %31 = load i32, i32* %3, align 8
  %32 = icmp eq i32 %31, 0
  br i1 %32, label %33, label %45

33:                                               ; preds = %28
  %34 = getelementptr inbounds %"class.v8::internal::compiler::GraphAssembler::BasicBlockUpdater", %"class.v8::internal::compiler::GraphAssembler::BasicBlockUpdater"* %0, i64 0, i32 3, i32 0
  %35 = load %"class.v8::internal::compiler::Node"**, %"class.v8::internal::compiler::Node"*** %34, align 8
  %36 = getelementptr inbounds %"class.v8::internal::compiler::GraphAssembler::BasicBlockUpdater", %"class.v8::internal::compiler::GraphAssembler::BasicBlockUpdater"* %0, i64 0, i32 4, i32 0
  %37 = load %"class.v8::internal::compiler::Node"**, %"class.v8::internal::compiler::Node"*** %36, align 8
  %38 = icmp eq %"class.v8::internal::compiler::Node"** %35, %37
  br i1 %38, label %44, label %39

39:                                               ; preds = %33
  %40 = load %"class.v8::internal::compiler::Node"*, %"class.v8::internal::compiler::Node"** %35, align 8
  %41 = icmp eq %"class.v8::internal::compiler::Node"* %40, %1
  br i1 %41, label %42, label %44

42:                                               ; preds = %39
  %43 = getelementptr inbounds %"class.v8::internal::compiler::Node"*, %"class.v8::internal::compiler::Node"** %35, i64 1
  store %"class.v8::internal::compiler::Node"** %43, %"class.v8::internal::compiler::Node"*** %34, align 8
  br label %69

44:                                               ; preds = %39, %33
  tail call void @_ZN2v88internal8compiler14GraphAssembler17BasicBlockUpdater13CopyForChangeEv(%"class.v8::internal::compiler::GraphAssembler::BasicBlockUpdater"* %0) #9
  br label %45

45:                                               ; preds = %44, %28
  %46 = load %"class.v8::internal::compiler::Schedule"*, %"class.v8::internal::compiler::Schedule"** %8, align 8
  tail call void @_ZN2v88internal8compiler8Schedule7AddNodeEPNS1_10BasicBlockEPNS1_4NodeE(%"class.v8::internal::compiler::Schedule"* %46, %"class.v8::internal::compiler::BasicBlock"* %30, %"class.v8::internal::compiler::Node"* %1) #9
  br label %69

47:                                               ; preds = %20, %17
  %48 = getelementptr inbounds %"class.v8::internal::compiler::GraphAssembler::BasicBlockUpdater", %"class.v8::internal::compiler::GraphAssembler::BasicBlockUpdater"* %0, i64 0, i32 6
  %49 = load %"class.v8::internal::compiler::Graph"*, %"class.v8::internal::compiler::Graph"** %48, align 8
  %50 = tail call %"class.v8::internal::compiler::Node"* @_ZN2v88internal8compiler5Graph9CloneNodeEPKNS1_4NodeE(%"class.v8::internal::compiler::Graph"* %49, %"class.v8::internal::compiler::Node"* %1) #9
  %51 = getelementptr inbounds %"class.v8::internal::compiler::GraphAssembler::BasicBlockUpdater", %"class.v8::internal::compiler::GraphAssembler::BasicBlockUpdater"* %0, i64 0, i32 1
  %52 = load %"class.v8::internal::compiler::BasicBlock"*, %"class.v8::internal::compiler::BasicBlock"** %51, align 8
  %53 = load i32, i32* %3, align 8
  %54 = icmp eq i32 %53, 0
  br i1 %54, label %55, label %67

55:                                               ; preds = %47
  %56 = getelementptr inbounds %"class.v8::internal::compiler::GraphAssembler::BasicBlockUpdater", %"class.v8::internal::compiler::GraphAssembler::BasicBlockUpdater"* %0, i64 0, i32 3, i32 0
  %57 = load %"class.v8::internal::compiler::Node"**, %"class.v8::internal::compiler::Node"*** %56, align 8
  %58 = getelementptr inbounds %"class.v8::internal::compiler::GraphAssembler::BasicBlockUpdater", %"class.v8::internal::compiler::GraphAssembler::BasicBlockUpdater"* %0, i64 0, i32 4, i32 0
  %59 = load %"class.v8::internal::compiler::Node"**, %"class.v8::internal::compiler::Node"*** %58, align 8
  %60 = icmp eq %"class.v8::internal::compiler::Node"** %57, %59
  br i1 %60, label %66, label %61

61:                                               ; preds = %55
  %62 = load %"class.v8::internal::compiler::Node"*, %"class.v8::internal::compiler::Node"** %57, align 8
  %63 = icmp eq %"class.v8::internal::compiler::Node"* %62, %50
  br i1 %63, label %64, label %66

64:                                               ; preds = %61
  %65 = getelementptr inbounds %"class.v8::internal::compiler::Node"*, %"class.v8::internal::compiler::Node"** %57, i64 1
  store %"class.v8::internal::compiler::Node"** %65, %"class.v8::internal::compiler::Node"*** %56, align 8
  br label %69

66:                                               ; preds = %61, %55
  tail call void @_ZN2v88internal8compiler14GraphAssembler17BasicBlockUpdater13CopyForChangeEv(%"class.v8::internal::compiler::GraphAssembler::BasicBlockUpdater"* %0) #9
  br label %67

67:                                               ; preds = %66, %47
  %68 = load %"class.v8::internal::compiler::Schedule"*, %"class.v8::internal::compiler::Schedule"** %8, align 8
  tail call void @_ZN2v88internal8compiler8Schedule7AddNodeEPNS1_10BasicBlockEPNS1_4NodeE(%"class.v8::internal::compiler::Schedule"* %68, %"class.v8::internal::compiler::BasicBlock"* %52, %"class.v8::internal::compiler::Node"* %50) #9
  br label %69

69:                                               ; preds = %67, %64, %45, %42, %11
  %70 = phi %"class.v8::internal::compiler::Node"* [ %1, %11 ], [ %1, %42 ], [ %1, %45 ], [ %50, %64 ], [ %50, %67 ]
  ret %"class.v8::internal::compiler::Node"* %70
}

declare zeroext i1 @_ZN2v88internal8compiler8Schedule11IsScheduledEPNS1_4NodeE(%"class.v8::internal::compiler::Schedule"*, %"class.v8::internal::compiler::Node"*) local_unnamed_addr #1

declare %"class.v8::internal::compiler::BasicBlock"* @_ZNK2v88internal8compiler8Schedule5blockEPNS1_4NodeE(%"class.v8::internal::compiler::Schedule"*, %"class.v8::internal::compiler::Node"*) local_unnamed_addr #1

; Function Attrs: norecurse nounwind readonly ssp uwtable
define hidden zeroext i1 @_ZN2v88internal8compiler14GraphAssembler17BasicBlockUpdater14IsOriginalNodeEPNS1_4NodeE(%"class.v8::internal::compiler::GraphAssembler::BasicBlockUpdater"* nocapture readonly, %"class.v8::internal::compiler::Node"* nocapture readonly) local_unnamed_addr #2 align 2 {
  %3 = getelementptr inbounds %"class.v8::internal::compiler::Node", %"class.v8::internal::compiler::Node"* %1, i64 0, i32 3
  %4 = load i32, i32* %3, align 4
  %5 = and i32 %4, 16777215
  %6 = zext i32 %5 to i64
  %7 = getelementptr inbounds %"class.v8::internal::compiler::GraphAssembler::BasicBlockUpdater", %"class.v8::internal::compiler::GraphAssembler::BasicBlockUpdater"* %0, i64 0, i32 15
  %8 = load i64, i64* %7, align 8
  %9 = icmp ugt i64 %8, %6
  ret i1 %9
}

declare %"class.v8::internal::compiler::Node"* @_ZN2v88internal8compiler5Graph9CloneNodeEPKNS1_4NodeE(%"class.v8::internal::compiler::Graph"*, %"class.v8::internal::compiler::Node"*) local_unnamed_addr #1

; Function Attrs: argmemonly nounwind
declare void @llvm.lifetime.start.p0i8(i64 immarg, i8* nocapture) #3

; Function Attrs: argmemonly nounwind
declare void @llvm.lifetime.end.p0i8(i64 immarg, i8* nocapture) #3

; Function Attrs: argmemonly nounwind
declare void @llvm.memcpy.p0i8.p0i8.i64(i8* nocapture writeonly, i8* nocapture readonly, i64, i1 immarg) #3

declare void @_ZN2v88internal8compiler8Schedule15SetBlockForNodeEPNS1_10BasicBlockEPNS1_4NodeE(%"class.v8::internal::compiler::Schedule"*, %"class.v8::internal::compiler::BasicBlock"*, %"class.v8::internal::compiler::Node"*) local_unnamed_addr #1

declare void @_ZN2v88internal8compiler10BasicBlock17set_control_inputEPNS1_4NodeE(%"class.v8::internal::compiler::BasicBlock"*, %"class.v8::internal::compiler::Node"*) local_unnamed_addr #1

declare void @_ZN2v88internal8compiler10BasicBlock11set_controlENS2_7ControlE(%"class.v8::internal::compiler::BasicBlock"*, i32) local_unnamed_addr #1

; Function Attrs: nounwind ssp uwtable
define hidden %"class.v8::internal::compiler::BasicBlock"* @_ZN2v88internal8compiler14GraphAssembler17BasicBlockUpdater13NewBasicBlockEb(%"class.v8::internal::compiler::GraphAssembler::BasicBlockUpdater"* nocapture readonly, i1 zeroext) local_unnamed_addr #0 align 2 {
  %3 = getelementptr inbounds %"class.v8::internal::compiler::GraphAssembler::BasicBlockUpdater", %"class.v8::internal::compiler::GraphAssembler::BasicBlockUpdater"* %0, i64 0, i32 5
  %4 = load %"class.v8::internal::compiler::Schedule"*, %"class.v8::internal::compiler::Schedule"** %3, align 8
  %5 = tail call %"class.v8::internal::compiler::BasicBlock"* @_ZN2v88internal8compiler8Schedule13NewBasicBlockEv(%"class.v8::internal::compiler::Schedule"* %4) #9
  br i1 %1, label %9, label %6

6:                                                ; preds = %2
  %7 = getelementptr inbounds %"class.v8::internal::compiler::GraphAssembler::BasicBlockUpdater", %"class.v8::internal::compiler::GraphAssembler::BasicBlockUpdater"* %0, i64 0, i32 13
  %8 = load i8, i8* %7, align 8, !range !5
  br label %9

9:                                                ; preds = %6, %2
  %10 = phi i8 [ 1, %2 ], [ %8, %6 ]
  %11 = getelementptr inbounds %"class.v8::internal::compiler::BasicBlock", %"class.v8::internal::compiler::BasicBlock"* %5, i64 0, i32 2
  store i8 %10, i8* %11, align 8
  ret %"class.v8::internal::compiler::BasicBlock"* %5
}

declare %"class.v8::internal::compiler::BasicBlock"* @_ZN2v88internal8compiler8Schedule13NewBasicBlockEv(%"class.v8::internal::compiler::Schedule"*) local_unnamed_addr #1

; Function Attrs: nounwind ssp uwtable
define hidden %"class.v8::internal::compiler::BasicBlock"* @_ZN2v88internal8compiler14GraphAssembler17BasicBlockUpdater15SplitBasicBlockEv(%"class.v8::internal::compiler::GraphAssembler::BasicBlockUpdater"* nocapture readonly) local_unnamed_addr #0 align 2 {
  %2 = getelementptr inbounds %"class.v8::internal::compiler::GraphAssembler::BasicBlockUpdater", %"class.v8::internal::compiler::GraphAssembler::BasicBlockUpdater"* %0, i64 0, i32 1
  %3 = load %"class.v8::internal::compiler::BasicBlock"*, %"class.v8::internal::compiler::BasicBlock"** %2, align 8
  %4 = getelementptr inbounds %"class.v8::internal::compiler::BasicBlock", %"class.v8::internal::compiler::BasicBlock"* %3, i64 0, i32 2
  %5 = load i8, i8* %4, align 8, !range !5
  %6 = icmp eq i8 %5, 0
  %7 = getelementptr inbounds %"class.v8::internal::compiler::GraphAssembler::BasicBlockUpdater", %"class.v8::internal::compiler::GraphAssembler::BasicBlockUpdater"* %0, i64 0, i32 5
  %8 = load %"class.v8::internal::compiler::Schedule"*, %"class.v8::internal::compiler::Schedule"** %7, align 8
  %9 = tail call %"class.v8::internal::compiler::BasicBlock"* @_ZN2v88internal8compiler8Schedule13NewBasicBlockEv(%"class.v8::internal::compiler::Schedule"* %8) #9
  br i1 %6, label %10, label %13

10:                                               ; preds = %1
  %11 = getelementptr inbounds %"class.v8::internal::compiler::GraphAssembler::BasicBlockUpdater", %"class.v8::internal::compiler::GraphAssembler::BasicBlockUpdater"* %0, i64 0, i32 13
  %12 = load i8, i8* %11, align 8, !range !5
  br label %13

13:                                               ; preds = %1, %10
  %14 = phi i8 [ 1, %1 ], [ %12, %10 ]
  %15 = getelementptr inbounds %"class.v8::internal::compiler::BasicBlock", %"class.v8::internal::compiler::BasicBlock"* %9, i64 0, i32 2
  store i8 %14, i8* %15, align 8
  ret %"class.v8::internal::compiler::BasicBlock"* %9
}

; Function Attrs: nofree norecurse nounwind ssp uwtable
define hidden void @_ZN2v88internal8compiler14GraphAssembler17BasicBlockUpdater7AddBindEPNS1_10BasicBlockE(%"class.v8::internal::compiler::GraphAssembler::BasicBlockUpdater"* nocapture, %"class.v8::internal::compiler::BasicBlock"*) local_unnamed_addr #4 align 2 {
  %3 = getelementptr inbounds %"class.v8::internal::compiler::GraphAssembler::BasicBlockUpdater", %"class.v8::internal::compiler::GraphAssembler::BasicBlockUpdater"* %0, i64 0, i32 1
  store %"class.v8::internal::compiler::BasicBlock"* %1, %"class.v8::internal::compiler::BasicBlock"** %3, align 8
  %4 = getelementptr inbounds %"class.v8::internal::compiler::BasicBlock", %"class.v8::internal::compiler::BasicBlock"* %1, i64 0, i32 2
  %5 = load i8, i8* %4, align 8, !range !5
  %6 = icmp eq i8 %5, 0
  br i1 %6, label %7, label %29

7:                                                ; preds = %2
  %8 = getelementptr inbounds %"class.v8::internal::compiler::BasicBlock", %"class.v8::internal::compiler::BasicBlock"* %1, i64 0, i32 13, i32 0, i32 0, i32 0
  %9 = load %"class.v8::internal::compiler::BasicBlock"**, %"class.v8::internal::compiler::BasicBlock"*** %8, align 8
  %10 = getelementptr inbounds %"class.v8::internal::compiler::BasicBlock", %"class.v8::internal::compiler::BasicBlock"* %1, i64 0, i32 13, i32 0, i32 0, i32 1
  %11 = load %"class.v8::internal::compiler::BasicBlock"**, %"class.v8::internal::compiler::BasicBlock"*** %10, align 8
  %12 = icmp eq %"class.v8::internal::compiler::BasicBlock"** %9, %11
  br i1 %12, label %27, label %13

13:                                               ; preds = %7, %13
  %14 = phi i8 [ %20, %13 ], [ 1, %7 ]
  %15 = phi %"class.v8::internal::compiler::BasicBlock"** [ %21, %13 ], [ %9, %7 ]
  %16 = load %"class.v8::internal::compiler::BasicBlock"*, %"class.v8::internal::compiler::BasicBlock"** %15, align 8
  %17 = getelementptr inbounds %"class.v8::internal::compiler::BasicBlock", %"class.v8::internal::compiler::BasicBlock"* %16, i64 0, i32 2
  %18 = load i8, i8* %17, align 8, !range !5
  %19 = icmp ne i8 %18, 0
  %20 = select i1 %19, i8 %14, i8 0
  %21 = getelementptr inbounds %"class.v8::internal::compiler::BasicBlock"*, %"class.v8::internal::compiler::BasicBlock"** %15, i64 1
  %22 = xor i1 %19, true
  %23 = icmp eq %"class.v8::internal::compiler::BasicBlock"** %21, %11
  %24 = or i1 %23, %22
  br i1 %24, label %25, label %13

25:                                               ; preds = %13
  %26 = and i8 %20, 1
  br label %27

27:                                               ; preds = %25, %7
  %28 = phi i8 [ 1, %7 ], [ %26, %25 ]
  store i8 %28, i8* %4, align 8
  br label %29

29:                                               ; preds = %2, %27
  ret void
}

; Function Attrs: nounwind ssp uwtable
define hidden void @_ZN2v88internal8compiler14GraphAssembler17BasicBlockUpdater32SetBlockDeferredFromPredecessorsEv(%"class.v8::internal::compiler::GraphAssembler::BasicBlockUpdater"* nocapture readonly) local_unnamed_addr #0 align 2 {
  %2 = getelementptr inbounds %"class.v8::internal::compiler::GraphAssembler::BasicBlockUpdater", %"class.v8::internal::compiler::GraphAssembler::BasicBlockUpdater"* %0, i64 0, i32 1
  %3 = load %"class.v8::internal::compiler::BasicBlock"*, %"class.v8::internal::compiler::BasicBlock"** %2, align 8
  %4 = getelementptr inbounds %"class.v8::internal::compiler::BasicBlock", %"class.v8::internal::compiler::BasicBlock"* %3, i64 0, i32 2
  %5 = load i8, i8* %4, align 8, !range !5
  %6 = icmp eq i8 %5, 0
  br i1 %6, label %7, label %29

7:                                                ; preds = %1
  %8 = getelementptr inbounds %"class.v8::internal::compiler::BasicBlock", %"class.v8::internal::compiler::BasicBlock"* %3, i64 0, i32 13, i32 0, i32 0, i32 0
  %9 = load %"class.v8::internal::compiler::BasicBlock"**, %"class.v8::internal::compiler::BasicBlock"*** %8, align 8
  %10 = getelementptr inbounds %"class.v8::internal::compiler::BasicBlock", %"class.v8::internal::compiler::BasicBlock"* %3, i64 0, i32 13, i32 0, i32 0, i32 1
  %11 = load %"class.v8::internal::compiler::BasicBlock"**, %"class.v8::internal::compiler::BasicBlock"*** %10, align 8
  %12 = icmp eq %"class.v8::internal::compiler::BasicBlock"** %9, %11
  br i1 %12, label %27, label %13

13:                                               ; preds = %7, %13
  %14 = phi i8 [ %20, %13 ], [ 1, %7 ]
  %15 = phi %"class.v8::internal::compiler::BasicBlock"** [ %21, %13 ], [ %9, %7 ]
  %16 = load %"class.v8::internal::compiler::BasicBlock"*, %"class.v8::internal::compiler::BasicBlock"** %15, align 8
  %17 = getelementptr inbounds %"class.v8::internal::compiler::BasicBlock", %"class.v8::internal::compiler::BasicBlock"* %16, i64 0, i32 2
  %18 = load i8, i8* %17, align 8, !range !5
  %19 = icmp ne i8 %18, 0
  %20 = select i1 %19, i8 %14, i8 0
  %21 = getelementptr inbounds %"class.v8::internal::compiler::BasicBlock"*, %"class.v8::internal::compiler::BasicBlock"** %15, i64 1
  %22 = xor i1 %19, true
  %23 = icmp eq %"class.v8::internal::compiler::BasicBlock"** %21, %11
  %24 = or i1 %23, %22
  br i1 %24, label %25, label %13

25:                                               ; preds = %13
  %26 = and i8 %20, 1
  br label %27

27:                                               ; preds = %25, %7
  %28 = phi i8 [ 1, %7 ], [ %26, %25 ]
  store i8 %28, i8* %4, align 8
  br label %29

29:                                               ; preds = %1, %27
  ret void
}

; Function Attrs: nounwind ssp uwtable
define hidden void @_ZN2v88internal8compiler14GraphAssembler17BasicBlockUpdater9AddBranchEPNS1_4NodeEPNS1_10BasicBlockES7_(%"class.v8::internal::compiler::GraphAssembler::BasicBlockUpdater"*, %"class.v8::internal::compiler::Node"*, %"class.v8::internal::compiler::BasicBlock"*, %"class.v8::internal::compiler::BasicBlock"*) local_unnamed_addr #0 align 2 {
  %5 = getelementptr inbounds %"class.v8::internal::compiler::GraphAssembler::BasicBlockUpdater", %"class.v8::internal::compiler::GraphAssembler::BasicBlockUpdater"* %0, i64 0, i32 16
  %6 = load i32, i32* %5, align 8
  %7 = icmp eq i32 %6, 0
  br i1 %7, label %8, label %9

8:                                                ; preds = %4
  tail call void @_ZN2v88internal8compiler14GraphAssembler17BasicBlockUpdater13CopyForChangeEv(%"class.v8::internal::compiler::GraphAssembler::BasicBlockUpdater"* %0)
  br label %9

9:                                                ; preds = %8, %4
  %10 = getelementptr inbounds %"class.v8::internal::compiler::GraphAssembler::BasicBlockUpdater", %"class.v8::internal::compiler::GraphAssembler::BasicBlockUpdater"* %0, i64 0, i32 5
  %11 = load %"class.v8::internal::compiler::Schedule"*, %"class.v8::internal::compiler::Schedule"** %10, align 8
  %12 = getelementptr inbounds %"class.v8::internal::compiler::GraphAssembler::BasicBlockUpdater", %"class.v8::internal::compiler::GraphAssembler::BasicBlockUpdater"* %0, i64 0, i32 1
  %13 = load %"class.v8::internal::compiler::BasicBlock"*, %"class.v8::internal::compiler::BasicBlock"** %12, align 8
  tail call void @_ZN2v88internal8compiler8Schedule9AddBranchEPNS1_10BasicBlockEPNS1_4NodeES4_S4_(%"class.v8::internal::compiler::Schedule"* %11, %"class.v8::internal::compiler::BasicBlock"* %13, %"class.v8::internal::compiler::Node"* %1, %"class.v8::internal::compiler::BasicBlock"* %2, %"class.v8::internal::compiler::BasicBlock"* %3) #9
  store %"class.v8::internal::compiler::BasicBlock"* null, %"class.v8::internal::compiler::BasicBlock"** %12, align 8
  ret void
}

declare void @_ZN2v88internal8compiler8Schedule9AddBranchEPNS1_10BasicBlockEPNS1_4NodeES4_S4_(%"class.v8::internal::compiler::Schedule"*, %"class.v8::internal::compiler::BasicBlock"*, %"class.v8::internal::compiler::Node"*, %"class.v8::internal::compiler::BasicBlock"*, %"class.v8::internal::compiler::BasicBlock"*) local_unnamed_addr #1

; Function Attrs: nounwind ssp uwtable
define hidden void @_ZN2v88internal8compiler14GraphAssembler17BasicBlockUpdater7AddGotoEPNS1_10BasicBlockE(%"class.v8::internal::compiler::GraphAssembler::BasicBlockUpdater"*, %"class.v8::internal::compiler::BasicBlock"*) local_unnamed_addr #0 align 2 {
  %3 = getelementptr inbounds %"class.v8::internal::compiler::GraphAssembler::BasicBlockUpdater", %"class.v8::internal::compiler::GraphAssembler::BasicBlockUpdater"* %0, i64 0, i32 1
  %4 = load %"class.v8::internal::compiler::BasicBlock"*, %"class.v8::internal::compiler::BasicBlock"** %3, align 8
  %5 = getelementptr inbounds %"class.v8::internal::compiler::GraphAssembler::BasicBlockUpdater", %"class.v8::internal::compiler::GraphAssembler::BasicBlockUpdater"* %0, i64 0, i32 16
  %6 = load i32, i32* %5, align 8
  %7 = icmp eq i32 %6, 0
  br i1 %7, label %8, label %9

8:                                                ; preds = %2
  tail call void @_ZN2v88internal8compiler14GraphAssembler17BasicBlockUpdater13CopyForChangeEv(%"class.v8::internal::compiler::GraphAssembler::BasicBlockUpdater"* %0) #9
  br label %9

9:                                                ; preds = %8, %2
  %10 = getelementptr inbounds %"class.v8::internal::compiler::BasicBlock", %"class.v8::internal::compiler::BasicBlock"* %1, i64 0, i32 2
  %11 = load i8, i8* %10, align 8, !range !5
  %12 = icmp eq i8 %11, 0
  br i1 %12, label %23, label %13

13:                                               ; preds = %9
  %14 = getelementptr inbounds %"class.v8::internal::compiler::BasicBlock", %"class.v8::internal::compiler::BasicBlock"* %4, i64 0, i32 2
  %15 = load i8, i8* %14, align 8, !range !5
  %16 = icmp eq i8 %15, 0
  br i1 %16, label %17, label %23

17:                                               ; preds = %13
  %18 = getelementptr inbounds %"class.v8::internal::compiler::GraphAssembler::BasicBlockUpdater", %"class.v8::internal::compiler::GraphAssembler::BasicBlockUpdater"* %0, i64 0, i32 5
  %19 = load %"class.v8::internal::compiler::Schedule"*, %"class.v8::internal::compiler::Schedule"** %18, align 8
  %20 = tail call %"class.v8::internal::compiler::BasicBlock"* @_ZN2v88internal8compiler8Schedule13NewBasicBlockEv(%"class.v8::internal::compiler::Schedule"* %19) #9
  %21 = getelementptr inbounds %"class.v8::internal::compiler::BasicBlock", %"class.v8::internal::compiler::BasicBlock"* %20, i64 0, i32 2
  store i8 1, i8* %21, align 8
  %22 = load %"class.v8::internal::compiler::Schedule"*, %"class.v8::internal::compiler::Schedule"** %18, align 8
  tail call void @_ZN2v88internal8compiler8Schedule7AddGotoEPNS1_10BasicBlockES4_(%"class.v8::internal::compiler::Schedule"* %22, %"class.v8::internal::compiler::BasicBlock"* %4, %"class.v8::internal::compiler::BasicBlock"* %20) #9
  br label %23

23:                                               ; preds = %9, %13, %17
  %24 = phi %"class.v8::internal::compiler::BasicBlock"* [ %4, %13 ], [ %20, %17 ], [ %4, %9 ]
  %25 = getelementptr inbounds %"class.v8::internal::compiler::GraphAssembler::BasicBlockUpdater", %"class.v8::internal::compiler::GraphAssembler::BasicBlockUpdater"* %0, i64 0, i32 5
  %26 = load %"class.v8::internal::compiler::Schedule"*, %"class.v8::internal::compiler::Schedule"** %25, align 8
  tail call void @_ZN2v88internal8compiler8Schedule7AddGotoEPNS1_10BasicBlockES4_(%"class.v8::internal::compiler::Schedule"* %26, %"class.v8::internal::compiler::BasicBlock"* %24, %"class.v8::internal::compiler::BasicBlock"* %1) #9
  store %"class.v8::internal::compiler::BasicBlock"* null, %"class.v8::internal::compiler::BasicBlock"** %3, align 8
  ret void
}

; Function Attrs: nounwind ssp uwtable
define hidden void @_ZN2v88internal8compiler14GraphAssembler17BasicBlockUpdater7AddGotoEPNS1_10BasicBlockES5_(%"class.v8::internal::compiler::GraphAssembler::BasicBlockUpdater"*, %"class.v8::internal::compiler::BasicBlock"*, %"class.v8::internal::compiler::BasicBlock"*) local_unnamed_addr #0 align 2 {
  %4 = getelementptr inbounds %"class.v8::internal::compiler::GraphAssembler::BasicBlockUpdater", %"class.v8::internal::compiler::GraphAssembler::BasicBlockUpdater"* %0, i64 0, i32 16
  %5 = load i32, i32* %4, align 8
  %6 = icmp eq i32 %5, 0
  br i1 %6, label %7, label %8

7:                                                ; preds = %3
  tail call void @_ZN2v88internal8compiler14GraphAssembler17BasicBlockUpdater13CopyForChangeEv(%"class.v8::internal::compiler::GraphAssembler::BasicBlockUpdater"* %0)
  br label %8

8:                                                ; preds = %7, %3
  %9 = getelementptr inbounds %"class.v8::internal::compiler::BasicBlock", %"class.v8::internal::compiler::BasicBlock"* %2, i64 0, i32 2
  %10 = load i8, i8* %9, align 8, !range !5
  %11 = icmp eq i8 %10, 0
  br i1 %11, label %22, label %12

12:                                               ; preds = %8
  %13 = getelementptr inbounds %"class.v8::internal::compiler::BasicBlock", %"class.v8::internal::compiler::BasicBlock"* %1, i64 0, i32 2
  %14 = load i8, i8* %13, align 8, !range !5
  %15 = icmp eq i8 %14, 0
  br i1 %15, label %16, label %22

16:                                               ; preds = %12
  %17 = getelementptr inbounds %"class.v8::internal::compiler::GraphAssembler::BasicBlockUpdater", %"class.v8::internal::compiler::GraphAssembler::BasicBlockUpdater"* %0, i64 0, i32 5
  %18 = load %"class.v8::internal::compiler::Schedule"*, %"class.v8::internal::compiler::Schedule"** %17, align 8
  %19 = tail call %"class.v8::internal::compiler::BasicBlock"* @_ZN2v88internal8compiler8Schedule13NewBasicBlockEv(%"class.v8::internal::compiler::Schedule"* %18) #9
  %20 = getelementptr inbounds %"class.v8::internal::compiler::BasicBlock", %"class.v8::internal::compiler::BasicBlock"* %19, i64 0, i32 2
  store i8 1, i8* %20, align 8
  %21 = load %"class.v8::internal::compiler::Schedule"*, %"class.v8::internal::compiler::Schedule"** %17, align 8
  tail call void @_ZN2v88internal8compiler8Schedule7AddGotoEPNS1_10BasicBlockES4_(%"class.v8::internal::compiler::Schedule"* %21, %"class.v8::internal::compiler::BasicBlock"* %1, %"class.v8::internal::compiler::BasicBlock"* %19) #9
  br label %22

22:                                               ; preds = %12, %8, %16
  %23 = phi %"class.v8::internal::compiler::BasicBlock"* [ %1, %12 ], [ %19, %16 ], [ %1, %8 ]
  %24 = getelementptr inbounds %"class.v8::internal::compiler::GraphAssembler::BasicBlockUpdater", %"class.v8::internal::compiler::GraphAssembler::BasicBlockUpdater"* %0, i64 0, i32 5
  %25 = load %"class.v8::internal::compiler::Schedule"*, %"class.v8::internal::compiler::Schedule"** %24, align 8
  tail call void @_ZN2v88internal8compiler8Schedule7AddGotoEPNS1_10BasicBlockES4_(%"class.v8::internal::compiler::Schedule"* %25, %"class.v8::internal::compiler::BasicBlock"* %23, %"class.v8::internal::compiler::BasicBlock"* %2) #9
  %26 = getelementptr inbounds %"class.v8::internal::compiler::GraphAssembler::BasicBlockUpdater", %"class.v8::internal::compiler::GraphAssembler::BasicBlockUpdater"* %0, i64 0, i32 1
  store %"class.v8::internal::compiler::BasicBlock"* null, %"class.v8::internal::compiler::BasicBlock"** %26, align 8
  ret void
}

declare void @_ZN2v88internal8compiler8Schedule7AddGotoEPNS1_10BasicBlockES4_(%"class.v8::internal::compiler::Schedule"*, %"class.v8::internal::compiler::BasicBlock"*, %"class.v8::internal::compiler::BasicBlock"*) local_unnamed_addr #1

; Function Attrs: nounwind ssp uwtable
define hidden void @_ZN2v88internal8compiler14GraphAssembler17BasicBlockUpdater11AddTailCallEPNS1_4NodeE(%"class.v8::internal::compiler::GraphAssembler::BasicBlockUpdater"*, %"class.v8::internal::compiler::Node"*) local_unnamed_addr #0 align 2 {
  %3 = getelementptr inbounds %"class.v8::internal::compiler::GraphAssembler::BasicBlockUpdater", %"class.v8::internal::compiler::GraphAssembler::BasicBlockUpdater"* %0, i64 0, i32 16
  %4 = load i32, i32* %3, align 8
  %5 = icmp eq i32 %4, 0
  br i1 %5, label %6, label %7

6:                                                ; preds = %2
  tail call void @_ZN2v88internal8compiler14GraphAssembler17BasicBlockUpdater13CopyForChangeEv(%"class.v8::internal::compiler::GraphAssembler::BasicBlockUpdater"* %0)
  br label %7

7:                                                ; preds = %6, %2
  %8 = getelementptr inbounds %"class.v8::internal::compiler::GraphAssembler::BasicBlockUpdater", %"class.v8::internal::compiler::GraphAssembler::BasicBlockUpdater"* %0, i64 0, i32 5
  %9 = load %"class.v8::internal::compiler::Schedule"*, %"class.v8::internal::compiler::Schedule"** %8, align 8
  %10 = getelementptr inbounds %"class.v8::internal::compiler::GraphAssembler::BasicBlockUpdater", %"class.v8::internal::compiler::GraphAssembler::BasicBlockUpdater"* %0, i64 0, i32 1
  %11 = load %"class.v8::internal::compiler::BasicBlock"*, %"class.v8::internal::compiler::BasicBlock"** %10, align 8
  tail call void @_ZN2v88internal8compiler8Schedule11AddTailCallEPNS1_10BasicBlockEPNS1_4NodeE(%"class.v8::internal::compiler::Schedule"* %9, %"class.v8::internal::compiler::BasicBlock"* %11, %"class.v8::internal::compiler::Node"* %1) #9
  store %"class.v8::internal::compiler::BasicBlock"* null, %"class.v8::internal::compiler::BasicBlock"** %10, align 8
  ret void
}

declare void @_ZN2v88internal8compiler8Schedule11AddTailCallEPNS1_10BasicBlockEPNS1_4NodeE(%"class.v8::internal::compiler::Schedule"*, %"class.v8::internal::compiler::BasicBlock"*, %"class.v8::internal::compiler::Node"*) local_unnamed_addr #1

; Function Attrs: nounwind ssp uwtable
define hidden void @_ZN2v88internal8compiler14GraphAssembler17BasicBlockUpdater16UpdateSuccessorsEPNS1_10BasicBlockE(%"class.v8::internal::compiler::GraphAssembler::BasicBlockUpdater"* nocapture, %"class.v8::internal::compiler::BasicBlock"*) local_unnamed_addr #0 align 2 {
  %3 = getelementptr inbounds %"class.v8::internal::compiler::GraphAssembler::BasicBlockUpdater", %"class.v8::internal::compiler::GraphAssembler::BasicBlockUpdater"* %0, i64 0, i32 9, i32 0
  %4 = getelementptr inbounds %"class.std::__1::vector.26", %"class.std::__1::vector.26"* %3, i64 0, i32 0, i32 0
  %5 = load %"struct.v8::internal::compiler::GraphAssembler::BasicBlockUpdater::SuccessorInfo"*, %"struct.v8::internal::compiler::GraphAssembler::BasicBlockUpdater::SuccessorInfo"** %4, align 8
  %6 = getelementptr inbounds %"class.v8::internal::compiler::GraphAssembler::BasicBlockUpdater", %"class.v8::internal::compiler::GraphAssembler::BasicBlockUpdater"* %0, i64 0, i32 9, i32 0, i32 0, i32 1
  %7 = load %"struct.v8::internal::compiler::GraphAssembler::BasicBlockUpdater::SuccessorInfo"*, %"struct.v8::internal::compiler::GraphAssembler::BasicBlockUpdater::SuccessorInfo"** %6, align 8
  %8 = icmp eq %"struct.v8::internal::compiler::GraphAssembler::BasicBlockUpdater::SuccessorInfo"* %5, %7
  br i1 %8, label %9, label %23

9:                                                ; preds = %2
  %10 = ptrtoint %"struct.v8::internal::compiler::GraphAssembler::BasicBlockUpdater::SuccessorInfo"* %5 to i64
  br label %14

11:                                               ; preds = %23
  %12 = bitcast %"class.std::__1::vector.26"* %3 to i64*
  %13 = load i64, i64* %12, align 8
  br label %14

14:                                               ; preds = %9, %11
  %15 = phi i64 [ %13, %11 ], [ %10, %9 ]
  %16 = bitcast %"struct.v8::internal::compiler::GraphAssembler::BasicBlockUpdater::SuccessorInfo"** %6 to i64*
  store i64 %15, i64* %16, align 8
  %17 = getelementptr inbounds %"class.v8::internal::compiler::GraphAssembler::BasicBlockUpdater", %"class.v8::internal::compiler::GraphAssembler::BasicBlockUpdater"* %0, i64 0, i32 10
  %18 = load i32, i32* %17, align 8
  tail call void @_ZN2v88internal8compiler10BasicBlock11set_controlENS2_7ControlE(%"class.v8::internal::compiler::BasicBlock"* %1, i32 %18) #9
  %19 = getelementptr inbounds %"class.v8::internal::compiler::GraphAssembler::BasicBlockUpdater", %"class.v8::internal::compiler::GraphAssembler::BasicBlockUpdater"* %0, i64 0, i32 12
  %20 = load %"class.v8::internal::compiler::Node"*, %"class.v8::internal::compiler::Node"** %19, align 8
  tail call void @_ZN2v88internal8compiler10BasicBlock17set_control_inputEPNS1_4NodeE(%"class.v8::internal::compiler::BasicBlock"* %1, %"class.v8::internal::compiler::Node"* %20) #9
  %21 = load %"class.v8::internal::compiler::Node"*, %"class.v8::internal::compiler::Node"** %19, align 8
  %22 = icmp eq %"class.v8::internal::compiler::Node"* %21, null
  br i1 %22, label %37, label %34

23:                                               ; preds = %2, %23
  %24 = phi %"struct.v8::internal::compiler::GraphAssembler::BasicBlockUpdater::SuccessorInfo"* [ %32, %23 ], [ %5, %2 ]
  %25 = getelementptr inbounds %"struct.v8::internal::compiler::GraphAssembler::BasicBlockUpdater::SuccessorInfo", %"struct.v8::internal::compiler::GraphAssembler::BasicBlockUpdater::SuccessorInfo"* %24, i64 0, i32 0
  %26 = load %"class.v8::internal::compiler::BasicBlock"*, %"class.v8::internal::compiler::BasicBlock"** %25, align 8
  %27 = getelementptr inbounds %"struct.v8::internal::compiler::GraphAssembler::BasicBlockUpdater::SuccessorInfo", %"struct.v8::internal::compiler::GraphAssembler::BasicBlockUpdater::SuccessorInfo"* %24, i64 0, i32 1
  %28 = load i64, i64* %27, align 8
  %29 = getelementptr inbounds %"class.v8::internal::compiler::BasicBlock", %"class.v8::internal::compiler::BasicBlock"* %26, i64 0, i32 13, i32 0, i32 0, i32 0
  %30 = load %"class.v8::internal::compiler::BasicBlock"**, %"class.v8::internal::compiler::BasicBlock"*** %29, align 8
  %31 = getelementptr inbounds %"class.v8::internal::compiler::BasicBlock"*, %"class.v8::internal::compiler::BasicBlock"** %30, i64 %28
  store %"class.v8::internal::compiler::BasicBlock"* %1, %"class.v8::internal::compiler::BasicBlock"** %31, align 8
  tail call void @_ZN2v88internal8compiler10BasicBlock12AddSuccessorEPS2_(%"class.v8::internal::compiler::BasicBlock"* %1, %"class.v8::internal::compiler::BasicBlock"* %26) #9
  %32 = getelementptr inbounds %"struct.v8::internal::compiler::GraphAssembler::BasicBlockUpdater::SuccessorInfo", %"struct.v8::internal::compiler::GraphAssembler::BasicBlockUpdater::SuccessorInfo"* %24, i64 1
  %33 = icmp eq %"struct.v8::internal::compiler::GraphAssembler::BasicBlockUpdater::SuccessorInfo"* %32, %7
  br i1 %33, label %11, label %23

34:                                               ; preds = %14
  %35 = getelementptr inbounds %"class.v8::internal::compiler::GraphAssembler::BasicBlockUpdater", %"class.v8::internal::compiler::GraphAssembler::BasicBlockUpdater"* %0, i64 0, i32 5
  %36 = load %"class.v8::internal::compiler::Schedule"*, %"class.v8::internal::compiler::Schedule"** %35, align 8
  tail call void @_ZN2v88internal8compiler8Schedule15SetBlockForNodeEPNS1_10BasicBlockEPNS1_4NodeE(%"class.v8::internal::compiler::Schedule"* %36, %"class.v8::internal::compiler::BasicBlock"* %1, %"class.v8::internal::compiler::Node"* nonnull %21) #9
  br label %37

37:                                               ; preds = %14, %34
  ret void
}

declare void @_ZN2v88internal8compiler10BasicBlock12AddSuccessorEPS2_(%"class.v8::internal::compiler::BasicBlock"*, %"class.v8::internal::compiler::BasicBlock"*) local_unnamed_addr #1

; Function Attrs: nounwind ssp uwtable
define hidden void @_ZN2v88internal8compiler14GraphAssembler17BasicBlockUpdater10StartBlockEPNS1_10BasicBlockE(%"class.v8::internal::compiler::GraphAssembler::BasicBlockUpdater"* nocapture, %"class.v8::internal::compiler::BasicBlock"*) local_unnamed_addr #0 align 2 {
  tail call void @_ZN2v88internal8compiler10BasicBlock12ResetRPOInfoEv(%"class.v8::internal::compiler::BasicBlock"* %1) #9
  %3 = getelementptr inbounds %"class.v8::internal::compiler::GraphAssembler::BasicBlockUpdater", %"class.v8::internal::compiler::GraphAssembler::BasicBlockUpdater"* %0, i64 0, i32 1
  store %"class.v8::internal::compiler::BasicBlock"* %1, %"class.v8::internal::compiler::BasicBlock"** %3, align 8
  %4 = getelementptr inbounds %"class.v8::internal::compiler::GraphAssembler::BasicBlockUpdater", %"class.v8::internal::compiler::GraphAssembler::BasicBlockUpdater"* %0, i64 0, i32 2
  store %"class.v8::internal::compiler::BasicBlock"* %1, %"class.v8::internal::compiler::BasicBlock"** %4, align 8
  %5 = getelementptr inbounds %"class.v8::internal::compiler::BasicBlock", %"class.v8::internal::compiler::BasicBlock"* %1, i64 0, i32 2
  %6 = load i8, i8* %5, align 8, !range !5
  %7 = getelementptr inbounds %"class.v8::internal::compiler::GraphAssembler::BasicBlockUpdater", %"class.v8::internal::compiler::GraphAssembler::BasicBlockUpdater"* %0, i64 0, i32 13
  store i8 %6, i8* %7, align 8
  %8 = getelementptr inbounds %"class.v8::internal::compiler::BasicBlock", %"class.v8::internal::compiler::BasicBlock"* %1, i64 0, i32 11, i32 0, i32 0, i32 0
  %9 = bitcast %"class.v8::internal::compiler::Node"*** %8 to i64*
  %10 = load i64, i64* %9, align 8
  %11 = getelementptr inbounds %"class.v8::internal::compiler::GraphAssembler::BasicBlockUpdater", %"class.v8::internal::compiler::GraphAssembler::BasicBlockUpdater"* %0, i64 0, i32 3, i32 0
  %12 = bitcast %"class.v8::internal::compiler::Node"*** %11 to i64*
  store i64 %10, i64* %12, align 8
  %13 = getelementptr inbounds %"class.v8::internal::compiler::BasicBlock", %"class.v8::internal::compiler::BasicBlock"* %1, i64 0, i32 11, i32 0, i32 0, i32 1
  %14 = bitcast %"class.v8::internal::compiler::Node"*** %13 to i64*
  %15 = load i64, i64* %14, align 8
  %16 = getelementptr inbounds %"class.v8::internal::compiler::GraphAssembler::BasicBlockUpdater", %"class.v8::internal::compiler::GraphAssembler::BasicBlockUpdater"* %0, i64 0, i32 4, i32 0
  %17 = bitcast %"class.v8::internal::compiler::Node"*** %16 to i64*
  store i64 %15, i64* %17, align 8
  %18 = getelementptr inbounds %"class.v8::internal::compiler::GraphAssembler::BasicBlockUpdater", %"class.v8::internal::compiler::GraphAssembler::BasicBlockUpdater"* %0, i64 0, i32 16
  store i32 0, i32* %18, align 8
  ret void
}

declare void @_ZN2v88internal8compiler10BasicBlock12ResetRPOInfoEv(%"class.v8::internal::compiler::BasicBlock"*) local_unnamed_addr #1

; Function Attrs: nounwind ssp uwtable
define hidden %"class.v8::internal::compiler::BasicBlock"* @_ZN2v88internal8compiler14GraphAssembler17BasicBlockUpdater8FinalizeEPNS1_10BasicBlockE(%"class.v8::internal::compiler::GraphAssembler::BasicBlockUpdater"* nocapture, %"class.v8::internal::compiler::BasicBlock"* nocapture readnone) local_unnamed_addr #0 align 2 {
  %3 = getelementptr inbounds %"class.v8::internal::compiler::GraphAssembler::BasicBlockUpdater", %"class.v8::internal::compiler::GraphAssembler::BasicBlockUpdater"* %0, i64 0, i32 1
  %4 = load %"class.v8::internal::compiler::BasicBlock"*, %"class.v8::internal::compiler::BasicBlock"** %3, align 8
  %5 = getelementptr inbounds %"class.v8::internal::compiler::GraphAssembler::BasicBlockUpdater", %"class.v8::internal::compiler::GraphAssembler::BasicBlockUpdater"* %0, i64 0, i32 16
  %6 = load i32, i32* %5, align 8
  %7 = icmp eq i32 %6, 1
  br i1 %7, label %8, label %43

8:                                                ; preds = %2
  %9 = getelementptr inbounds %"class.v8::internal::compiler::GraphAssembler::BasicBlockUpdater", %"class.v8::internal::compiler::GraphAssembler::BasicBlockUpdater"* %0, i64 0, i32 9, i32 0
  %10 = getelementptr inbounds %"class.std::__1::vector.26", %"class.std::__1::vector.26"* %9, i64 0, i32 0, i32 0
  %11 = load %"struct.v8::internal::compiler::GraphAssembler::BasicBlockUpdater::SuccessorInfo"*, %"struct.v8::internal::compiler::GraphAssembler::BasicBlockUpdater::SuccessorInfo"** %10, align 8
  %12 = getelementptr inbounds %"class.v8::internal::compiler::GraphAssembler::BasicBlockUpdater", %"class.v8::internal::compiler::GraphAssembler::BasicBlockUpdater"* %0, i64 0, i32 9, i32 0, i32 0, i32 1
  %13 = load %"struct.v8::internal::compiler::GraphAssembler::BasicBlockUpdater::SuccessorInfo"*, %"struct.v8::internal::compiler::GraphAssembler::BasicBlockUpdater::SuccessorInfo"** %12, align 8
  %14 = icmp eq %"struct.v8::internal::compiler::GraphAssembler::BasicBlockUpdater::SuccessorInfo"* %11, %13
  br i1 %14, label %15, label %29

15:                                               ; preds = %8
  %16 = ptrtoint %"struct.v8::internal::compiler::GraphAssembler::BasicBlockUpdater::SuccessorInfo"* %11 to i64
  br label %20

17:                                               ; preds = %29
  %18 = bitcast %"class.std::__1::vector.26"* %9 to i64*
  %19 = load i64, i64* %18, align 8
  br label %20

20:                                               ; preds = %17, %15
  %21 = phi i64 [ %19, %17 ], [ %16, %15 ]
  %22 = bitcast %"struct.v8::internal::compiler::GraphAssembler::BasicBlockUpdater::SuccessorInfo"** %12 to i64*
  store i64 %21, i64* %22, align 8
  %23 = getelementptr inbounds %"class.v8::internal::compiler::GraphAssembler::BasicBlockUpdater", %"class.v8::internal::compiler::GraphAssembler::BasicBlockUpdater"* %0, i64 0, i32 10
  %24 = load i32, i32* %23, align 8
  tail call void @_ZN2v88internal8compiler10BasicBlock11set_controlENS2_7ControlE(%"class.v8::internal::compiler::BasicBlock"* %4, i32 %24) #9
  %25 = getelementptr inbounds %"class.v8::internal::compiler::GraphAssembler::BasicBlockUpdater", %"class.v8::internal::compiler::GraphAssembler::BasicBlockUpdater"* %0, i64 0, i32 12
  %26 = load %"class.v8::internal::compiler::Node"*, %"class.v8::internal::compiler::Node"** %25, align 8
  tail call void @_ZN2v88internal8compiler10BasicBlock17set_control_inputEPNS1_4NodeE(%"class.v8::internal::compiler::BasicBlock"* %4, %"class.v8::internal::compiler::Node"* %26) #9
  %27 = load %"class.v8::internal::compiler::Node"*, %"class.v8::internal::compiler::Node"** %25, align 8
  %28 = icmp eq %"class.v8::internal::compiler::Node"* %27, null
  br i1 %28, label %50, label %40

29:                                               ; preds = %8, %29
  %30 = phi %"struct.v8::internal::compiler::GraphAssembler::BasicBlockUpdater::SuccessorInfo"* [ %38, %29 ], [ %11, %8 ]
  %31 = getelementptr inbounds %"struct.v8::internal::compiler::GraphAssembler::BasicBlockUpdater::SuccessorInfo", %"struct.v8::internal::compiler::GraphAssembler::BasicBlockUpdater::SuccessorInfo"* %30, i64 0, i32 0
  %32 = load %"class.v8::internal::compiler::BasicBlock"*, %"class.v8::internal::compiler::BasicBlock"** %31, align 8
  %33 = getelementptr inbounds %"struct.v8::internal::compiler::GraphAssembler::BasicBlockUpdater::SuccessorInfo", %"struct.v8::internal::compiler::GraphAssembler::BasicBlockUpdater::SuccessorInfo"* %30, i64 0, i32 1
  %34 = load i64, i64* %33, align 8
  %35 = getelementptr inbounds %"class.v8::internal::compiler::BasicBlock", %"class.v8::internal::compiler::BasicBlock"* %32, i64 0, i32 13, i32 0, i32 0, i32 0
  %36 = load %"class.v8::internal::compiler::BasicBlock"**, %"class.v8::internal::compiler::BasicBlock"*** %35, align 8
  %37 = getelementptr inbounds %"class.v8::internal::compiler::BasicBlock"*, %"class.v8::internal::compiler::BasicBlock"** %36, i64 %34
  store %"class.v8::internal::compiler::BasicBlock"* %4, %"class.v8::internal::compiler::BasicBlock"** %37, align 8
  tail call void @_ZN2v88internal8compiler10BasicBlock12AddSuccessorEPS2_(%"class.v8::internal::compiler::BasicBlock"* %4, %"class.v8::internal::compiler::BasicBlock"* %32) #9
  %38 = getelementptr inbounds %"struct.v8::internal::compiler::GraphAssembler::BasicBlockUpdater::SuccessorInfo", %"struct.v8::internal::compiler::GraphAssembler::BasicBlockUpdater::SuccessorInfo"* %30, i64 1
  %39 = icmp eq %"struct.v8::internal::compiler::GraphAssembler::BasicBlockUpdater::SuccessorInfo"* %38, %13
  br i1 %39, label %17, label %29

40:                                               ; preds = %20
  %41 = getelementptr inbounds %"class.v8::internal::compiler::GraphAssembler::BasicBlockUpdater", %"class.v8::internal::compiler::GraphAssembler::BasicBlockUpdater"* %0, i64 0, i32 5
  %42 = load %"class.v8::internal::compiler::Schedule"*, %"class.v8::internal::compiler::Schedule"** %41, align 8
  tail call void @_ZN2v88internal8compiler8Schedule15SetBlockForNodeEPNS1_10BasicBlockEPNS1_4NodeE(%"class.v8::internal::compiler::Schedule"* %42, %"class.v8::internal::compiler::BasicBlock"* %4, %"class.v8::internal::compiler::Node"* nonnull %27) #9
  br label %50

43:                                               ; preds = %2
  %44 = getelementptr inbounds %"class.v8::internal::compiler::GraphAssembler::BasicBlockUpdater", %"class.v8::internal::compiler::GraphAssembler::BasicBlockUpdater"* %0, i64 0, i32 3, i32 0
  %45 = load %"class.v8::internal::compiler::Node"**, %"class.v8::internal::compiler::Node"*** %44, align 8
  %46 = getelementptr inbounds %"class.v8::internal::compiler::GraphAssembler::BasicBlockUpdater", %"class.v8::internal::compiler::GraphAssembler::BasicBlockUpdater"* %0, i64 0, i32 4, i32 0
  %47 = load %"class.v8::internal::compiler::Node"**, %"class.v8::internal::compiler::Node"*** %46, align 8
  %48 = icmp eq %"class.v8::internal::compiler::Node"** %45, %47
  br i1 %48, label %50, label %49

49:                                               ; preds = %43
  tail call void @_ZN2v88internal8compiler10BasicBlock9TrimNodesENSt3__111__wrap_iterIPPNS1_4NodeEEE(%"class.v8::internal::compiler::BasicBlock"* %4, %"class.v8::internal::compiler::Node"** %45) #9
  br label %50

50:                                               ; preds = %43, %40, %20, %49
  %51 = getelementptr inbounds %"class.v8::internal::compiler::GraphAssembler::BasicBlockUpdater", %"class.v8::internal::compiler::GraphAssembler::BasicBlockUpdater"* %0, i64 0, i32 10
  store i32 0, i32* %51, align 8
  %52 = getelementptr inbounds %"class.v8::internal::compiler::GraphAssembler::BasicBlockUpdater", %"class.v8::internal::compiler::GraphAssembler::BasicBlockUpdater"* %0, i64 0, i32 8, i32 0
  %53 = bitcast %"class.std::__1::vector"* %52 to i64*
  %54 = load i64, i64* %53, align 8
  %55 = getelementptr inbounds %"class.v8::internal::compiler::GraphAssembler::BasicBlockUpdater", %"class.v8::internal::compiler::GraphAssembler::BasicBlockUpdater"* %0, i64 0, i32 8, i32 0, i32 0, i32 1
  %56 = bitcast %"class.v8::internal::compiler::Node"*** %55 to i64*
  store i64 %54, i64* %56, align 8
  %57 = getelementptr inbounds %"class.v8::internal::compiler::GraphAssembler::BasicBlockUpdater", %"class.v8::internal::compiler::GraphAssembler::BasicBlockUpdater"* %0, i64 0, i32 13
  store i8 0, i8* %57, align 8
  %58 = getelementptr inbounds %"class.v8::internal::compiler::GraphAssembler::BasicBlockUpdater", %"class.v8::internal::compiler::GraphAssembler::BasicBlockUpdater"* %0, i64 0, i32 12
  store %"class.v8::internal::compiler::Node"* null, %"class.v8::internal::compiler::Node"** %58, align 8
  %59 = bitcast %"class.v8::internal::compiler::BasicBlock"** %3 to i8*
  call void @llvm.memset.p0i8.i64(i8* align 8 %59, i8 0, i64 16, i1 false)
  ret %"class.v8::internal::compiler::BasicBlock"* %4
}

declare void @_ZN2v88internal8compiler10BasicBlock9TrimNodesENSt3__111__wrap_iterIPPNS1_4NodeEEE(%"class.v8::internal::compiler::BasicBlock"*, %"class.v8::internal::compiler::Node"**) local_unnamed_addr #1

; Function Attrs: nounwind ssp uwtable
define hidden void @_ZN2v88internal8compiler14GraphAssemblerC2EPNS1_12MachineGraphEPNS0_4ZoneENS_4base8OptionalINSt3__18functionIFvPNS1_4NodeEEEEEEPNS1_8ScheduleEb(%"class.v8::internal::compiler::GraphAssembler"* nocapture, %"class.v8::internal::compiler::MachineGraph"*, %"class.v8::internal::Zone"*, %"class.v8::base::Optional"* nocapture readonly, %"class.v8::internal::compiler::Schedule"*, i1 zeroext) unnamed_addr #0 align 2 {
  %7 = zext i1 %5 to i8
  %8 = getelementptr inbounds %"class.v8::internal::compiler::GraphAssembler", %"class.v8::internal::compiler::GraphAssembler"* %0, i64 0, i32 0
  store i32 (...)** bitcast (i8** getelementptr inbounds ({ [4 x i8*] }, { [4 x i8*] }* @_ZTVN2v88internal8compiler14GraphAssemblerE, i64 0, inrange i32 0, i64 2) to i32 (...)**), i32 (...)*** %8, align 8
  %9 = getelementptr inbounds %"class.v8::internal::compiler::GraphAssembler", %"class.v8::internal::compiler::GraphAssembler"* %0, i64 0, i32 1
  store %"class.v8::internal::Zone"* %2, %"class.v8::internal::Zone"** %9, align 8
  %10 = getelementptr inbounds %"class.v8::internal::compiler::GraphAssembler", %"class.v8::internal::compiler::GraphAssembler"* %0, i64 0, i32 2
  store %"class.v8::internal::compiler::MachineGraph"* %1, %"class.v8::internal::compiler::MachineGraph"** %10, align 8
  %11 = getelementptr inbounds %"class.v8::internal::compiler::GraphAssembler", %"class.v8::internal::compiler::GraphAssembler"* %0, i64 0, i32 3
  %12 = getelementptr inbounds %"class.v8::internal::compiler::GraphAssembler", %"class.v8::internal::compiler::GraphAssembler"* %0, i64 0, i32 5, i32 0, i32 0, i32 0, i32 0
  %13 = getelementptr inbounds %"class.v8::internal::compiler::GraphAssembler", %"class.v8::internal::compiler::GraphAssembler"* %0, i64 0, i32 5, i32 0, i32 0, i32 0, i32 1
  %14 = bitcast %union.anon* %13 to i8*
  store i8 0, i8* %14, align 8
  %15 = getelementptr inbounds %"class.v8::base::Optional", %"class.v8::base::Optional"* %3, i64 0, i32 0, i32 0, i32 0, i32 0
  %16 = bitcast %"class.v8::internal::compiler::Node"** %11 to i8*
  call void @llvm.memset.p0i8.i64(i8* align 8 %16, i8 0, i64 17, i1 false)
  %17 = load i8, i8* %15, align 8, !range !5
  %18 = icmp eq i8 %17, 0
  br i1 %18, label %41, label %19

19:                                               ; preds = %6
  %20 = getelementptr inbounds %"class.v8::base::Optional", %"class.v8::base::Optional"* %3, i64 0, i32 0, i32 0, i32 0, i32 1, i32 0
  %21 = getelementptr inbounds %"class.v8::internal::compiler::GraphAssembler", %"class.v8::internal::compiler::GraphAssembler"* %0, i64 0, i32 5, i32 0, i32 0, i32 0, i32 1, i32 0
  %22 = bitcast %"class.std::__1::function"* %21 to i8*
  %23 = bitcast %"class.std::__1::function"* %20 to i8*
  tail call void @llvm.memcpy.p0i8.p0i8.i64(i8* align 8 %22, i8* align 8 %23, i64 16, i1 false) #9
  %24 = getelementptr inbounds %"class.v8::internal::compiler::GraphAssembler", %"class.v8::internal::compiler::GraphAssembler"* %0, i64 0, i32 5, i32 0, i32 0, i32 0, i32 1, i32 0, i32 0, i32 1
  %25 = getelementptr inbounds %"class.v8::base::Optional", %"class.v8::base::Optional"* %3, i64 0, i32 0, i32 0, i32 0, i32 1, i32 0, i32 0, i32 1
  %26 = bitcast %"struct.std::__1::__function::__policy_invoker"* %25 to i64*
  %27 = bitcast %"struct.std::__1::__function::__policy_invoker"* %24 to i64*
  %28 = load i64, i64* %26, align 8
  store i64 %28, i64* %27, align 8
  %29 = getelementptr inbounds %"class.v8::internal::compiler::GraphAssembler", %"class.v8::internal::compiler::GraphAssembler"* %0, i64 0, i32 5, i32 0, i32 0, i32 0, i32 1, i32 0, i32 0, i32 2
  %30 = getelementptr inbounds %"class.v8::base::Optional", %"class.v8::base::Optional"* %3, i64 0, i32 0, i32 0, i32 0, i32 1, i32 0, i32 0, i32 2
  %31 = load %"struct.std::__1::__function::__policy"*, %"struct.std::__1::__function::__policy"** %30, align 8
  store %"struct.std::__1::__function::__policy"* %31, %"struct.std::__1::__function::__policy"** %29, align 8
  %32 = getelementptr inbounds %"struct.std::__1::__function::__policy", %"struct.std::__1::__function::__policy"* %31, i64 0, i32 0
  %33 = load i8* (i8*)*, i8* (i8*)** %32, align 8
  %34 = icmp eq i8* (i8*)* %33, null
  br i1 %34, label %40, label %35

35:                                               ; preds = %19
  %36 = getelementptr inbounds %"class.std::__1::function", %"class.std::__1::function"* %20, i64 0, i32 0, i32 0, i32 0
  %37 = load i8*, i8** %36, align 8
  %38 = tail call i8* %33(i8* %37) #9
  %39 = getelementptr inbounds %"class.std::__1::function", %"class.std::__1::function"* %21, i64 0, i32 0, i32 0, i32 0
  store i8* %38, i8** %39, align 8
  br label %40

40:                                               ; preds = %35, %19
  store i8 1, i8* %12, align 8
  br label %41

41:                                               ; preds = %6, %40
  %42 = getelementptr inbounds %"class.v8::internal::compiler::GraphAssembler", %"class.v8::internal::compiler::GraphAssembler"* %0, i64 0, i32 6
  %43 = icmp eq %"class.v8::internal::compiler::Schedule"* %4, null
  br i1 %43, label %80, label %44

44:                                               ; preds = %41
  %45 = tail call i8* @_Znwm(i64 168) #11
  %46 = getelementptr inbounds %"class.v8::internal::compiler::MachineGraph", %"class.v8::internal::compiler::MachineGraph"* %1, i64 0, i32 0
  %47 = load %"class.v8::internal::compiler::Graph"*, %"class.v8::internal::compiler::Graph"** %46, align 8
  %48 = getelementptr inbounds %"class.v8::internal::compiler::MachineGraph", %"class.v8::internal::compiler::MachineGraph"* %1, i64 0, i32 1
  %49 = bitcast %"class.v8::internal::compiler::CommonOperatorBuilder"** %48 to i64*
  %50 = load i64, i64* %49, align 8
  %51 = bitcast i8* %45 to %"class.v8::internal::Zone"**
  store %"class.v8::internal::Zone"* %2, %"class.v8::internal::Zone"** %51, align 8
  %52 = getelementptr inbounds i8, i8* %45, i64 8
  %53 = getelementptr inbounds i8, i8* %45, i64 40
  %54 = bitcast i8* %53 to %"class.v8::internal::compiler::Schedule"**
  tail call void @llvm.memset.p0i8.i64(i8* align 8 %52, i8 0, i64 32, i1 false) #9
  store %"class.v8::internal::compiler::Schedule"* %4, %"class.v8::internal::compiler::Schedule"** %54, align 8
  %55 = getelementptr inbounds i8, i8* %45, i64 48
  %56 = bitcast i8* %55 to %"class.v8::internal::compiler::Graph"**
  store %"class.v8::internal::compiler::Graph"* %47, %"class.v8::internal::compiler::Graph"** %56, align 8
  %57 = getelementptr inbounds i8, i8* %45, i64 56
  %58 = bitcast i8* %57 to i64*
  store i64 %50, i64* %58, align 8
  %59 = getelementptr inbounds i8, i8* %45, i64 64
  %60 = bitcast %"class.v8::internal::compiler::Schedule"* %4 to i64*
  %61 = load i64, i64* %60, align 8
  %62 = getelementptr inbounds i8, i8* %45, i64 88
  %63 = bitcast i8* %62 to i64*
  tail call void @llvm.memset.p0i8.i64(i8* align 8 %59, i8 0, i64 24, i1 false) #9
  store i64 %61, i64* %63, align 8
  %64 = getelementptr inbounds i8, i8* %45, i64 96
  %65 = getelementptr inbounds i8, i8* %45, i64 120
  %66 = bitcast i8* %65 to i64*
  tail call void @llvm.memset.p0i8.i64(i8* align 8 %64, i8 0, i64 24, i1 false) #9
  store i64 %61, i64* %66, align 8
  %67 = getelementptr inbounds i8, i8* %45, i64 128
  %68 = bitcast i8* %67 to i32*
  store i32 0, i32* %68, align 8
  %69 = getelementptr inbounds i8, i8* %45, i64 136
  %70 = bitcast i8* %69 to %"class.v8::internal::compiler::Node"**
  store %"class.v8::internal::compiler::Node"* null, %"class.v8::internal::compiler::Node"** %70, align 8
  %71 = getelementptr inbounds i8, i8* %45, i64 144
  store i8 0, i8* %71, align 8
  %72 = getelementptr inbounds i8, i8* %45, i64 152
  %73 = bitcast i8* %72 to i64*
  %74 = getelementptr inbounds %"class.v8::internal::compiler::Graph", %"class.v8::internal::compiler::Graph"* %47, i64 0, i32 4
  %75 = load i32, i32* %74, align 4
  %76 = zext i32 %75 to i64
  store i64 %76, i64* %73, align 8
  %77 = getelementptr inbounds i8, i8* %45, i64 160
  %78 = bitcast i8* %77 to i32*
  store i32 0, i32* %78, align 8
  %79 = ptrtoint i8* %45 to i64
  br label %80

80:                                               ; preds = %41, %44
  %81 = phi i64 [ %79, %44 ], [ 0, %41 ]
  %82 = bitcast %"class.std::__1::unique_ptr.133"* %42 to i64*
  store i64 %81, i64* %82, align 8
  %83 = getelementptr inbounds %"class.v8::internal::compiler::GraphAssembler", %"class.v8::internal::compiler::GraphAssembler"* %0, i64 0, i32 7
  %84 = ptrtoint %"class.v8::internal::Zone"* %2 to i64
  %85 = getelementptr inbounds %"class.v8::internal::compiler::GraphAssembler", %"class.v8::internal::compiler::GraphAssembler"* %0, i64 0, i32 7, i32 0, i32 0, i32 2, i32 1
  %86 = bitcast %"struct.std::__1::__compressed_pair_elem.144"* %85 to i64*
  %87 = bitcast %"class.v8::internal::ZoneVector.139"* %83 to i8*
  tail call void @llvm.memset.p0i8.i64(i8* align 8 %87, i8 0, i64 24, i1 false) #9
  store i64 %84, i64* %86, align 8
  %88 = getelementptr inbounds %"class.v8::internal::compiler::GraphAssembler", %"class.v8::internal::compiler::GraphAssembler"* %0, i64 0, i32 8
  store i8 0, i8* %88, align 8
  %89 = getelementptr inbounds %"class.v8::internal::compiler::GraphAssembler", %"class.v8::internal::compiler::GraphAssembler"* %0, i64 0, i32 10
  %90 = getelementptr inbounds %"class.v8::internal::compiler::GraphAssembler", %"class.v8::internal::compiler::GraphAssembler"* %0, i64 0, i32 11, i32 0, i32 0, i32 2, i32 1
  %91 = bitcast %"struct.std::__1::__compressed_pair_elem.151"* %90 to i64*
  %92 = bitcast i32* %89 to i8*
  call void @llvm.memset.p0i8.i64(i8* align 4 %92, i8 0, i64 28, i1 false)
  store i64 %84, i64* %91, align 8
  %93 = getelementptr inbounds %"class.v8::internal::compiler::GraphAssembler", %"class.v8::internal::compiler::GraphAssembler"* %0, i64 0, i32 12
  store i8 %7, i8* %93, align 8
  ret void
}

; Function Attrs: nobuiltin nofree
declare noalias nonnull i8* @_Znwm(i64) local_unnamed_addr #5

; Function Attrs: nounwind ssp uwtable
define hidden void @_ZN2v88internal8compiler14GraphAssemblerD2Ev(%"class.v8::internal::compiler::GraphAssembler"* nocapture) unnamed_addr #0 align 2 {
  %2 = getelementptr inbounds %"class.v8::internal::compiler::GraphAssembler", %"class.v8::internal::compiler::GraphAssembler"* %0, i64 0, i32 0
  store i32 (...)** bitcast (i8** getelementptr inbounds ({ [4 x i8*] }, { [4 x i8*] }* @_ZTVN2v88internal8compiler14GraphAssemblerE, i64 0, inrange i32 0, i64 2) to i32 (...)**), i32 (...)*** %2, align 8
  %3 = getelementptr inbounds %"class.v8::internal::compiler::GraphAssembler", %"class.v8::internal::compiler::GraphAssembler"* %0, i64 0, i32 11, i32 0, i32 0, i32 0
  %4 = load %"class.v8::internal::compiler::Node"***, %"class.v8::internal::compiler::Node"**** %3, align 8
  %5 = icmp eq %"class.v8::internal::compiler::Node"*** %4, null
  br i1 %5, label %10, label %6

6:                                                ; preds = %1
  %7 = ptrtoint %"class.v8::internal::compiler::Node"*** %4 to i64
  %8 = getelementptr inbounds %"class.v8::internal::compiler::GraphAssembler", %"class.v8::internal::compiler::GraphAssembler"* %0, i64 0, i32 11, i32 0, i32 0, i32 1
  %9 = bitcast %"class.v8::internal::compiler::Node"**** %8 to i64*
  store i64 %7, i64* %9, align 8
  br label %10

10:                                               ; preds = %1, %6
  %11 = getelementptr inbounds %"class.v8::internal::compiler::GraphAssembler", %"class.v8::internal::compiler::GraphAssembler"* %0, i64 0, i32 7, i32 0, i32 0, i32 0
  %12 = load %"class.v8::internal::compiler::Reducer"**, %"class.v8::internal::compiler::Reducer"*** %11, align 8
  %13 = icmp eq %"class.v8::internal::compiler::Reducer"** %12, null
  br i1 %13, label %18, label %14

14:                                               ; preds = %10
  %15 = ptrtoint %"class.v8::internal::compiler::Reducer"** %12 to i64
  %16 = getelementptr inbounds %"class.v8::internal::compiler::GraphAssembler", %"class.v8::internal::compiler::GraphAssembler"* %0, i64 0, i32 7, i32 0, i32 0, i32 1
  %17 = bitcast %"class.v8::internal::compiler::Reducer"*** %16 to i64*
  store i64 %15, i64* %17, align 8
  br label %18

18:                                               ; preds = %10, %14
  %19 = getelementptr inbounds %"class.v8::internal::compiler::GraphAssembler", %"class.v8::internal::compiler::GraphAssembler"* %0, i64 0, i32 6, i32 0, i32 0, i32 0
  %20 = load %"class.v8::internal::compiler::GraphAssembler::BasicBlockUpdater"*, %"class.v8::internal::compiler::GraphAssembler::BasicBlockUpdater"** %19, align 8
  store %"class.v8::internal::compiler::GraphAssembler::BasicBlockUpdater"* null, %"class.v8::internal::compiler::GraphAssembler::BasicBlockUpdater"** %19, align 8
  %21 = icmp eq %"class.v8::internal::compiler::GraphAssembler::BasicBlockUpdater"* %20, null
  br i1 %21, label %24, label %22

22:                                               ; preds = %18
  %23 = bitcast %"class.v8::internal::compiler::GraphAssembler::BasicBlockUpdater"* %20 to i8*
  tail call void @_ZdlPv(i8* %23) #11
  br label %24

24:                                               ; preds = %18, %22
  %25 = getelementptr inbounds %"class.v8::internal::compiler::GraphAssembler", %"class.v8::internal::compiler::GraphAssembler"* %0, i64 0, i32 5, i32 0, i32 0, i32 0, i32 0
  %26 = load i8, i8* %25, align 8, !range !5
  %27 = icmp eq i8 %26, 0
  br i1 %27, label %37, label %28

28:                                               ; preds = %24
  %29 = getelementptr inbounds %"class.v8::internal::compiler::GraphAssembler", %"class.v8::internal::compiler::GraphAssembler"* %0, i64 0, i32 5, i32 0, i32 0, i32 0, i32 1, i32 0, i32 0, i32 2
  %30 = load %"struct.std::__1::__function::__policy"*, %"struct.std::__1::__function::__policy"** %29, align 8
  %31 = getelementptr inbounds %"struct.std::__1::__function::__policy", %"struct.std::__1::__function::__policy"* %30, i64 0, i32 1
  %32 = load void (i8*)*, void (i8*)** %31, align 8
  %33 = icmp eq void (i8*)* %32, null
  br i1 %33, label %37, label %34

34:                                               ; preds = %28
  %35 = getelementptr inbounds %"class.v8::internal::compiler::GraphAssembler", %"class.v8::internal::compiler::GraphAssembler"* %0, i64 0, i32 5, i32 0, i32 0, i32 0, i32 1, i32 0, i32 0, i32 0, i32 0
  %36 = load i8*, i8** %35, align 8
  tail call void %32(i8* %36) #9
  br label %37

37:                                               ; preds = %24, %28, %34
  ret void
}

; Function Attrs: nounwind ssp uwtable
define hidden void @_ZN2v88internal8compiler14GraphAssemblerD0Ev(%"class.v8::internal::compiler::GraphAssembler"*) unnamed_addr #0 align 2 {
  %2 = getelementptr inbounds %"class.v8::internal::compiler::GraphAssembler", %"class.v8::internal::compiler::GraphAssembler"* %0, i64 0, i32 0
  store i32 (...)** bitcast (i8** getelementptr inbounds ({ [4 x i8*] }, { [4 x i8*] }* @_ZTVN2v88internal8compiler14GraphAssemblerE, i64 0, inrange i32 0, i64 2) to i32 (...)**), i32 (...)*** %2, align 8
  %3 = getelementptr inbounds %"class.v8::internal::compiler::GraphAssembler", %"class.v8::internal::compiler::GraphAssembler"* %0, i64 0, i32 11, i32 0, i32 0, i32 0
  %4 = load %"class.v8::internal::compiler::Node"***, %"class.v8::internal::compiler::Node"**** %3, align 8
  %5 = icmp eq %"class.v8::internal::compiler::Node"*** %4, null
  br i1 %5, label %10, label %6

6:                                                ; preds = %1
  %7 = ptrtoint %"class.v8::internal::compiler::Node"*** %4 to i64
  %8 = getelementptr inbounds %"class.v8::internal::compiler::GraphAssembler", %"class.v8::internal::compiler::GraphAssembler"* %0, i64 0, i32 11, i32 0, i32 0, i32 1
  %9 = bitcast %"class.v8::internal::compiler::Node"**** %8 to i64*
  store i64 %7, i64* %9, align 8
  br label %10

10:                                               ; preds = %6, %1
  %11 = getelementptr inbounds %"class.v8::internal::compiler::GraphAssembler", %"class.v8::internal::compiler::GraphAssembler"* %0, i64 0, i32 7, i32 0, i32 0, i32 0
  %12 = load %"class.v8::internal::compiler::Reducer"**, %"class.v8::internal::compiler::Reducer"*** %11, align 8
  %13 = icmp eq %"class.v8::internal::compiler::Reducer"** %12, null
  br i1 %13, label %18, label %14

14:                                               ; preds = %10
  %15 = ptrtoint %"class.v8::internal::compiler::Reducer"** %12 to i64
  %16 = getelementptr inbounds %"class.v8::internal::compiler::GraphAssembler", %"class.v8::internal::compiler::GraphAssembler"* %0, i64 0, i32 7, i32 0, i32 0, i32 1
  %17 = bitcast %"class.v8::internal::compiler::Reducer"*** %16 to i64*
  store i64 %15, i64* %17, align 8
  br label %18

18:                                               ; preds = %14, %10
  %19 = getelementptr inbounds %"class.v8::internal::compiler::GraphAssembler", %"class.v8::internal::compiler::GraphAssembler"* %0, i64 0, i32 6, i32 0, i32 0, i32 0
  %20 = load %"class.v8::internal::compiler::GraphAssembler::BasicBlockUpdater"*, %"class.v8::internal::compiler::GraphAssembler::BasicBlockUpdater"** %19, align 8
  store %"class.v8::internal::compiler::GraphAssembler::BasicBlockUpdater"* null, %"class.v8::internal::compiler::GraphAssembler::BasicBlockUpdater"** %19, align 8
  %21 = icmp eq %"class.v8::internal::compiler::GraphAssembler::BasicBlockUpdater"* %20, null
  br i1 %21, label %24, label %22

22:                                               ; preds = %18
  %23 = bitcast %"class.v8::internal::compiler::GraphAssembler::BasicBlockUpdater"* %20 to i8*
  tail call void @_ZdlPv(i8* %23) #11
  br label %24

24:                                               ; preds = %22, %18
  %25 = getelementptr inbounds %"class.v8::internal::compiler::GraphAssembler", %"class.v8::internal::compiler::GraphAssembler"* %0, i64 0, i32 5, i32 0, i32 0, i32 0, i32 0
  %26 = load i8, i8* %25, align 8, !range !5
  %27 = icmp eq i8 %26, 0
  br i1 %27, label %37, label %28

28:                                               ; preds = %24
  %29 = getelementptr inbounds %"class.v8::internal::compiler::GraphAssembler", %"class.v8::internal::compiler::GraphAssembler"* %0, i64 0, i32 5, i32 0, i32 0, i32 0, i32 1, i32 0, i32 0, i32 2
  %30 = load %"struct.std::__1::__function::__policy"*, %"struct.std::__1::__function::__policy"** %29, align 8
  %31 = getelementptr inbounds %"struct.std::__1::__function::__policy", %"struct.std::__1::__function::__policy"* %30, i64 0, i32 1
  %32 = load void (i8*)*, void (i8*)** %31, align 8
  %33 = icmp eq void (i8*)* %32, null
  br i1 %33, label %37, label %34

34:                                               ; preds = %28
  %35 = getelementptr inbounds %"class.v8::internal::compiler::GraphAssembler", %"class.v8::internal::compiler::GraphAssembler"* %0, i64 0, i32 5, i32 0, i32 0, i32 0, i32 1, i32 0, i32 0, i32 0, i32 0
  %36 = load i8*, i8** %35, align 8
  tail call void %32(i8* %36) #9
  br label %37

37:                                               ; preds = %24, %28, %34
  %38 = bitcast %"class.v8::internal::compiler::GraphAssembler"* %0 to i8*
  tail call void @_ZdlPv(i8* %38) #11
  ret void
}

; Function Attrs: nobuiltin nounwind
declare void @_ZdlPv(i8*) local_unnamed_addr #6

; Function Attrs: nounwind ssp uwtable
define hidden %"class.v8::internal::compiler::Node"* @_ZN2v88internal8compiler14GraphAssembler14IntPtrConstantEl(%"class.v8::internal::compiler::GraphAssembler"* nocapture, i64) local_unnamed_addr #0 align 2 {
  %3 = getelementptr inbounds %"class.v8::internal::compiler::GraphAssembler", %"class.v8::internal::compiler::GraphAssembler"* %0, i64 0, i32 2
  %4 = load %"class.v8::internal::compiler::MachineGraph"*, %"class.v8::internal::compiler::MachineGraph"** %3, align 8
  %5 = tail call %"class.v8::internal::compiler::Node"* @_ZN2v88internal8compiler12MachineGraph14IntPtrConstantEl(%"class.v8::internal::compiler::MachineGraph"* %4, i64 %1) #9
  %6 = getelementptr inbounds %"class.v8::internal::compiler::GraphAssembler", %"class.v8::internal::compiler::GraphAssembler"* %0, i64 0, i32 6, i32 0, i32 0, i32 0
  %7 = load %"class.v8::internal::compiler::GraphAssembler::BasicBlockUpdater"*, %"class.v8::internal::compiler::GraphAssembler::BasicBlockUpdater"** %6, align 8
  %8 = icmp eq %"class.v8::internal::compiler::GraphAssembler::BasicBlockUpdater"* %7, null
  br i1 %8, label %11, label %9

9:                                                ; preds = %2
  %10 = tail call %"class.v8::internal::compiler::Node"* @_ZN2v88internal8compiler14GraphAssembler17BasicBlockUpdater13AddClonedNodeEPNS1_4NodeE(%"class.v8::internal::compiler::GraphAssembler::BasicBlockUpdater"* nonnull %7, %"class.v8::internal::compiler::Node"* %5) #9
  br label %11

11:                                               ; preds = %9, %2
  %12 = phi %"class.v8::internal::compiler::Node"* [ %10, %9 ], [ %5, %2 ]
  %13 = getelementptr inbounds %"class.v8::internal::compiler::Node", %"class.v8::internal::compiler::Node"* %12, i64 0, i32 0
  %14 = load %"class.v8::internal::compiler::Operator"*, %"class.v8::internal::compiler::Operator"** %13, align 8
  %15 = getelementptr inbounds %"class.v8::internal::compiler::Operator", %"class.v8::internal::compiler::Operator"* %14, i64 0, i32 9
  %16 = load i8, i8* %15, align 4
  %17 = icmp eq i8 %16, 0
  br i1 %17, label %21, label %18

18:                                               ; preds = %11
  %19 = getelementptr inbounds %"class.v8::internal::compiler::GraphAssembler", %"class.v8::internal::compiler::GraphAssembler"* %0, i64 0, i32 3
  store %"class.v8::internal::compiler::Node"* %12, %"class.v8::internal::compiler::Node"** %19, align 8
  %20 = load %"class.v8::internal::compiler::Operator"*, %"class.v8::internal::compiler::Operator"** %13, align 8
  br label %21

21:                                               ; preds = %18, %11
  %22 = phi %"class.v8::internal::compiler::Operator"* [ %14, %11 ], [ %20, %18 ]
  %23 = getelementptr inbounds %"class.v8::internal::compiler::Operator", %"class.v8::internal::compiler::Operator"* %22, i64 0, i32 11
  %24 = load i32, i32* %23, align 8
  %25 = icmp sgt i32 %24, 0
  br i1 %25, label %26, label %28

26:                                               ; preds = %21
  %27 = getelementptr inbounds %"class.v8::internal::compiler::GraphAssembler", %"class.v8::internal::compiler::GraphAssembler"* %0, i64 0, i32 4
  store %"class.v8::internal::compiler::Node"* %12, %"class.v8::internal::compiler::Node"** %27, align 8
  br label %28

28:                                               ; preds = %21, %26
  ret %"class.v8::internal::compiler::Node"* %12
}

declare %"class.v8::internal::compiler::Node"* @_ZN2v88internal8compiler12MachineGraph14IntPtrConstantEl(%"class.v8::internal::compiler::MachineGraph"*, i64) local_unnamed_addr #1

; Function Attrs: nounwind ssp uwtable
define hidden %"class.v8::internal::compiler::Node"* @_ZN2v88internal8compiler14GraphAssembler15UintPtrConstantEm(%"class.v8::internal::compiler::GraphAssembler"* nocapture, i64) local_unnamed_addr #0 align 2 {
  %3 = getelementptr inbounds %"class.v8::internal::compiler::GraphAssembler", %"class.v8::internal::compiler::GraphAssembler"* %0, i64 0, i32 2
  %4 = load %"class.v8::internal::compiler::MachineGraph"*, %"class.v8::internal::compiler::MachineGraph"** %3, align 8
  %5 = tail call %"class.v8::internal::compiler::Node"* @_ZN2v88internal8compiler12MachineGraph15UintPtrConstantEm(%"class.v8::internal::compiler::MachineGraph"* %4, i64 %1) #9
  %6 = getelementptr inbounds %"class.v8::internal::compiler::GraphAssembler", %"class.v8::internal::compiler::GraphAssembler"* %0, i64 0, i32 6, i32 0, i32 0, i32 0
  %7 = load %"class.v8::internal::compiler::GraphAssembler::BasicBlockUpdater"*, %"class.v8::internal::compiler::GraphAssembler::BasicBlockUpdater"** %6, align 8
  %8 = icmp eq %"class.v8::internal::compiler::GraphAssembler::BasicBlockUpdater"* %7, null
  br i1 %8, label %11, label %9

9:                                                ; preds = %2
  %10 = tail call %"class.v8::internal::compiler::Node"* @_ZN2v88internal8compiler14GraphAssembler17BasicBlockUpdater13AddClonedNodeEPNS1_4NodeE(%"class.v8::internal::compiler::GraphAssembler::BasicBlockUpdater"* nonnull %7, %"class.v8::internal::compiler::Node"* %5) #9
  br label %11

11:                                               ; preds = %9, %2
  %12 = phi %"class.v8::internal::compiler::Node"* [ %10, %9 ], [ %5, %2 ]
  %13 = getelementptr inbounds %"class.v8::internal::compiler::Node", %"class.v8::internal::compiler::Node"* %12, i64 0, i32 0
  %14 = load %"class.v8::internal::compiler::Operator"*, %"class.v8::internal::compiler::Operator"** %13, align 8
  %15 = getelementptr inbounds %"class.v8::internal::compiler::Operator", %"class.v8::internal::compiler::Operator"* %14, i64 0, i32 9
  %16 = load i8, i8* %15, align 4
  %17 = icmp eq i8 %16, 0
  br i1 %17, label %21, label %18

18:                                               ; preds = %11
  %19 = getelementptr inbounds %"class.v8::internal::compiler::GraphAssembler", %"class.v8::internal::compiler::GraphAssembler"* %0, i64 0, i32 3
  store %"class.v8::internal::compiler::Node"* %12, %"class.v8::internal::compiler::Node"** %19, align 8
  %20 = load %"class.v8::internal::compiler::Operator"*, %"class.v8::internal::compiler::Operator"** %13, align 8
  br label %21

21:                                               ; preds = %18, %11
  %22 = phi %"class.v8::internal::compiler::Operator"* [ %14, %11 ], [ %20, %18 ]
  %23 = getelementptr inbounds %"class.v8::internal::compiler::Operator", %"class.v8::internal::compiler::Operator"* %22, i64 0, i32 11
  %24 = load i32, i32* %23, align 8
  %25 = icmp sgt i32 %24, 0
  br i1 %25, label %26, label %28

26:                                               ; preds = %21
  %27 = getelementptr inbounds %"class.v8::internal::compiler::GraphAssembler", %"class.v8::internal::compiler::GraphAssembler"* %0, i64 0, i32 4
  store %"class.v8::internal::compiler::Node"* %12, %"class.v8::internal::compiler::Node"** %27, align 8
  br label %28

28:                                               ; preds = %21, %26
  ret %"class.v8::internal::compiler::Node"* %12
}

declare %"class.v8::internal::compiler::Node"* @_ZN2v88internal8compiler12MachineGraph15UintPtrConstantEm(%"class.v8::internal::compiler::MachineGraph"*, i64) local_unnamed_addr #1

; Function Attrs: nounwind ssp uwtable
define hidden %"class.v8::internal::compiler::Node"* @_ZN2v88internal8compiler14GraphAssembler13Int32ConstantEi(%"class.v8::internal::compiler::GraphAssembler"* nocapture, i32) local_unnamed_addr #0 align 2 {
  %3 = getelementptr inbounds %"class.v8::internal::compiler::GraphAssembler", %"class.v8::internal::compiler::GraphAssembler"* %0, i64 0, i32 2
  %4 = load %"class.v8::internal::compiler::MachineGraph"*, %"class.v8::internal::compiler::MachineGraph"** %3, align 8
  %5 = tail call %"class.v8::internal::compiler::Node"* @_ZN2v88internal8compiler12MachineGraph13Int32ConstantEi(%"class.v8::internal::compiler::MachineGraph"* %4, i32 %1) #9
  %6 = getelementptr inbounds %"class.v8::internal::compiler::GraphAssembler", %"class.v8::internal::compiler::GraphAssembler"* %0, i64 0, i32 6, i32 0, i32 0, i32 0
  %7 = load %"class.v8::internal::compiler::GraphAssembler::BasicBlockUpdater"*, %"class.v8::internal::compiler::GraphAssembler::BasicBlockUpdater"** %6, align 8
  %8 = icmp eq %"class.v8::internal::compiler::GraphAssembler::BasicBlockUpdater"* %7, null
  br i1 %8, label %11, label %9

9:                                                ; preds = %2
  %10 = tail call %"class.v8::internal::compiler::Node"* @_ZN2v88internal8compiler14GraphAssembler17BasicBlockUpdater13AddClonedNodeEPNS1_4NodeE(%"class.v8::internal::compiler::GraphAssembler::BasicBlockUpdater"* nonnull %7, %"class.v8::internal::compiler::Node"* %5) #9
  br label %11

11:                                               ; preds = %9, %2
  %12 = phi %"class.v8::internal::compiler::Node"* [ %10, %9 ], [ %5, %2 ]
  %13 = getelementptr inbounds %"class.v8::internal::compiler::Node", %"class.v8::internal::compiler::Node"* %12, i64 0, i32 0
  %14 = load %"class.v8::internal::compiler::Operator"*, %"class.v8::internal::compiler::Operator"** %13, align 8
  %15 = getelementptr inbounds %"class.v8::internal::compiler::Operator", %"class.v8::internal::compiler::Operator"* %14, i64 0, i32 9
  %16 = load i8, i8* %15, align 4
  %17 = icmp eq i8 %16, 0
  br i1 %17, label %21, label %18

18:                                               ; preds = %11
  %19 = getelementptr inbounds %"class.v8::internal::compiler::GraphAssembler", %"class.v8::internal::compiler::GraphAssembler"* %0, i64 0, i32 3
  store %"class.v8::internal::compiler::Node"* %12, %"class.v8::internal::compiler::Node"** %19, align 8
  %20 = load %"class.v8::internal::compiler::Operator"*, %"class.v8::internal::compiler::Operator"** %13, align 8
  br label %21

21:                                               ; preds = %18, %11
  %22 = phi %"class.v8::internal::compiler::Operator"* [ %14, %11 ], [ %20, %18 ]
  %23 = getelementptr inbounds %"class.v8::internal::compiler::Operator", %"class.v8::internal::compiler::Operator"* %22, i64 0, i32 11
  %24 = load i32, i32* %23, align 8
  %25 = icmp sgt i32 %24, 0
  br i1 %25, label %26, label %28

26:                                               ; preds = %21
  %27 = getelementptr inbounds %"class.v8::internal::compiler::GraphAssembler", %"class.v8::internal::compiler::GraphAssembler"* %0, i64 0, i32 4
  store %"class.v8::internal::compiler::Node"* %12, %"class.v8::internal::compiler::Node"** %27, align 8
  br label %28

28:                                               ; preds = %21, %26
  ret %"class.v8::internal::compiler::Node"* %12
}

declare %"class.v8::internal::compiler::Node"* @_ZN2v88internal8compiler12MachineGraph13Int32ConstantEi(%"class.v8::internal::compiler::MachineGraph"*, i32) local_unnamed_addr #1

; Function Attrs: nounwind ssp uwtable
define hidden %"class.v8::internal::compiler::Node"* @_ZN2v88internal8compiler14GraphAssembler13Int64ConstantEl(%"class.v8::internal::compiler::GraphAssembler"* nocapture, i64) local_unnamed_addr #0 align 2 {
  %3 = getelementptr inbounds %"class.v8::internal::compiler::GraphAssembler", %"class.v8::internal::compiler::GraphAssembler"* %0, i64 0, i32 2
  %4 = load %"class.v8::internal::compiler::MachineGraph"*, %"class.v8::internal::compiler::MachineGraph"** %3, align 8
  %5 = tail call %"class.v8::internal::compiler::Node"* @_ZN2v88internal8compiler12MachineGraph13Int64ConstantEl(%"class.v8::internal::compiler::MachineGraph"* %4, i64 %1) #9
  %6 = getelementptr inbounds %"class.v8::internal::compiler::GraphAssembler", %"class.v8::internal::compiler::GraphAssembler"* %0, i64 0, i32 6, i32 0, i32 0, i32 0
  %7 = load %"class.v8::internal::compiler::GraphAssembler::BasicBlockUpdater"*, %"class.v8::internal::compiler::GraphAssembler::BasicBlockUpdater"** %6, align 8
  %8 = icmp eq %"class.v8::internal::compiler::GraphAssembler::BasicBlockUpdater"* %7, null
  br i1 %8, label %11, label %9

9:                                                ; preds = %2
  %10 = tail call %"class.v8::internal::compiler::Node"* @_ZN2v88internal8compiler14GraphAssembler17BasicBlockUpdater13AddClonedNodeEPNS1_4NodeE(%"class.v8::internal::compiler::GraphAssembler::BasicBlockUpdater"* nonnull %7, %"class.v8::internal::compiler::Node"* %5) #9
  br label %11

11:                                               ; preds = %9, %2
  %12 = phi %"class.v8::internal::compiler::Node"* [ %10, %9 ], [ %5, %2 ]
  %13 = getelementptr inbounds %"class.v8::internal::compiler::Node", %"class.v8::internal::compiler::Node"* %12, i64 0, i32 0
  %14 = load %"class.v8::internal::compiler::Operator"*, %"class.v8::internal::compiler::Operator"** %13, align 8
  %15 = getelementptr inbounds %"class.v8::internal::compiler::Operator", %"class.v8::internal::compiler::Operator"* %14, i64 0, i32 9
  %16 = load i8, i8* %15, align 4
  %17 = icmp eq i8 %16, 0
  br i1 %17, label %21, label %18

18:                                               ; preds = %11
  %19 = getelementptr inbounds %"class.v8::internal::compiler::GraphAssembler", %"class.v8::internal::compiler::GraphAssembler"* %0, i64 0, i32 3
  store %"class.v8::internal::compiler::Node"* %12, %"class.v8::internal::compiler::Node"** %19, align 8
  %20 = load %"class.v8::internal::compiler::Operator"*, %"class.v8::internal::compiler::Operator"** %13, align 8
  br label %21

21:                                               ; preds = %18, %11
  %22 = phi %"class.v8::internal::compiler::Operator"* [ %14, %11 ], [ %20, %18 ]
  %23 = getelementptr inbounds %"class.v8::internal::compiler::Operator", %"class.v8::internal::compiler::Operator"* %22, i64 0, i32 11
  %24 = load i32, i32* %23, align 8
  %25 = icmp sgt i32 %24, 0
  br i1 %25, label %26, label %28

26:                                               ; preds = %21
  %27 = getelementptr inbounds %"class.v8::internal::compiler::GraphAssembler", %"class.v8::internal::compiler::GraphAssembler"* %0, i64 0, i32 4
  store %"class.v8::internal::compiler::Node"* %12, %"class.v8::internal::compiler::Node"** %27, align 8
  br label %28

28:                                               ; preds = %21, %26
  ret %"class.v8::internal::compiler::Node"* %12
}

declare %"class.v8::internal::compiler::Node"* @_ZN2v88internal8compiler12MachineGraph13Int64ConstantEl(%"class.v8::internal::compiler::MachineGraph"*, i64) local_unnamed_addr #1

; Function Attrs: nounwind ssp uwtable
define hidden %"class.v8::internal::compiler::Node"* @_ZN2v88internal8compiler14GraphAssembler20UniqueIntPtrConstantEl(%"class.v8::internal::compiler::GraphAssembler"*, i64) local_unnamed_addr #0 align 2 {
  %3 = getelementptr inbounds %"class.v8::internal::compiler::GraphAssembler", %"class.v8::internal::compiler::GraphAssembler"* %0, i64 0, i32 2
  %4 = load %"class.v8::internal::compiler::MachineGraph"*, %"class.v8::internal::compiler::MachineGraph"** %3, align 8
  %5 = getelementptr inbounds %"class.v8::internal::compiler::MachineGraph", %"class.v8::internal::compiler::MachineGraph"* %4, i64 0, i32 0
  %6 = load %"class.v8::internal::compiler::Graph"*, %"class.v8::internal::compiler::Graph"** %5, align 8
  %7 = getelementptr inbounds %"class.v8::internal::compiler::MachineGraph", %"class.v8::internal::compiler::MachineGraph"* %4, i64 0, i32 2
  %8 = load %"class.v8::internal::compiler::MachineOperatorBuilder"*, %"class.v8::internal::compiler::MachineOperatorBuilder"** %7, align 8
  %9 = getelementptr inbounds %"class.v8::internal::compiler::MachineOperatorBuilder", %"class.v8::internal::compiler::MachineOperatorBuilder"* %8, i64 0, i32 2
  %10 = load i8, i8* %9, align 8
  %11 = icmp eq i8 %10, 5
  %12 = getelementptr inbounds %"class.v8::internal::compiler::MachineGraph", %"class.v8::internal::compiler::MachineGraph"* %4, i64 0, i32 1
  %13 = load %"class.v8::internal::compiler::CommonOperatorBuilder"*, %"class.v8::internal::compiler::CommonOperatorBuilder"** %12, align 8
  br i1 %11, label %14, label %16

14:                                               ; preds = %2
  %15 = tail call %"class.v8::internal::compiler::Operator"* @_ZN2v88internal8compiler21CommonOperatorBuilder13Int64ConstantEl(%"class.v8::internal::compiler::CommonOperatorBuilder"* %13, i64 %1) #9
  br label %19

16:                                               ; preds = %2
  %17 = trunc i64 %1 to i32
  %18 = tail call %"class.v8::internal::compiler::Operator"* @_ZN2v88internal8compiler21CommonOperatorBuilder13Int32ConstantEi(%"class.v8::internal::compiler::CommonOperatorBuilder"* %13, i32 %17) #9
  br label %19

19:                                               ; preds = %16, %14
  %20 = phi %"class.v8::internal::compiler::Operator"* [ %15, %14 ], [ %18, %16 ]
  %21 = tail call %"class.v8::internal::compiler::Node"* @_ZN2v88internal8compiler5Graph7NewNodeEPKNS1_8OperatorEiPKPNS1_4NodeEb(%"class.v8::internal::compiler::Graph"* %6, %"class.v8::internal::compiler::Operator"* %20, i32 0, %"class.v8::internal::compiler::Node"** null, i1 zeroext false) #9
  %22 = tail call %"class.v8::internal::compiler::Node"* @_ZN2v88internal8compiler14GraphAssembler7AddNodeEPNS1_4NodeE(%"class.v8::internal::compiler::GraphAssembler"* %0, %"class.v8::internal::compiler::Node"* %21)
  ret %"class.v8::internal::compiler::Node"* %22
}

; Function Attrs: nounwind ssp uwtable
define hidden %"class.v8::internal::compiler::Node"* @_ZN2v88internal8compiler14GraphAssembler7AddNodeEPNS1_4NodeE(%"class.v8::internal::compiler::GraphAssembler"*, %"class.v8::internal::compiler::Node"*) local_unnamed_addr #0 align 2 {
  %3 = getelementptr inbounds %"class.v8::internal::compiler::GraphAssembler", %"class.v8::internal::compiler::GraphAssembler"* %0, i64 0, i32 7, i32 0, i32 0, i32 0
  %4 = load %"class.v8::internal::compiler::Reducer"**, %"class.v8::internal::compiler::Reducer"*** %3, align 8
  %5 = getelementptr inbounds %"class.v8::internal::compiler::GraphAssembler", %"class.v8::internal::compiler::GraphAssembler"* %0, i64 0, i32 7, i32 0, i32 0, i32 1
  %6 = load %"class.v8::internal::compiler::Reducer"**, %"class.v8::internal::compiler::Reducer"*** %5, align 8
  %7 = icmp eq %"class.v8::internal::compiler::Reducer"** %4, %6
  br i1 %7, label %31, label %8

8:                                                ; preds = %2
  %9 = getelementptr inbounds %"class.v8::internal::compiler::GraphAssembler", %"class.v8::internal::compiler::GraphAssembler"* %0, i64 0, i32 8
  %10 = load i8, i8* %9, align 8, !range !5
  %11 = icmp eq i8 %10, 0
  br i1 %11, label %12, label %31

12:                                               ; preds = %8
  store i8 1, i8* %9, align 8
  br label %13

13:                                               ; preds = %13, %12
  %14 = phi %"class.v8::internal::compiler::Reducer"** [ %4, %12 ], [ %18, %13 ]
  %15 = load %"class.v8::internal::compiler::Reducer"*, %"class.v8::internal::compiler::Reducer"** %14, align 8
  %16 = tail call %"class.v8::internal::compiler::Node"* @_ZN2v88internal8compiler7Reducer6ReduceEPNS1_4NodeEPNS1_18ObserveNodeManagerE(%"class.v8::internal::compiler::Reducer"* %15, %"class.v8::internal::compiler::Node"* %1, %"class.v8::internal::compiler::ObserveNodeManager"* null) #9
  %17 = icmp ne %"class.v8::internal::compiler::Node"* %16, null
  %18 = getelementptr inbounds %"class.v8::internal::compiler::Reducer"*, %"class.v8::internal::compiler::Reducer"** %14, i64 1
  %19 = icmp eq %"class.v8::internal::compiler::Reducer"** %18, %6
  %20 = or i1 %17, %19
  br i1 %20, label %21, label %13

21:                                               ; preds = %13
  %22 = icmp eq %"class.v8::internal::compiler::Node"* %16, null
  %23 = icmp eq %"class.v8::internal::compiler::Node"* %16, %1
  %24 = or i1 %22, %23
  br i1 %24, label %25, label %26

25:                                               ; preds = %21
  store i8 0, i8* %9, align 8
  br label %31

26:                                               ; preds = %21
  %27 = getelementptr inbounds %"class.v8::internal::compiler::GraphAssembler", %"class.v8::internal::compiler::GraphAssembler"* %0, i64 0, i32 3
  %28 = load %"class.v8::internal::compiler::Node"*, %"class.v8::internal::compiler::Node"** %27, align 8
  %29 = getelementptr inbounds %"class.v8::internal::compiler::GraphAssembler", %"class.v8::internal::compiler::GraphAssembler"* %0, i64 0, i32 4
  %30 = load %"class.v8::internal::compiler::Node"*, %"class.v8::internal::compiler::Node"** %29, align 8
  tail call void @_ZN2v88internal8compiler14NodeProperties11ReplaceUsesEPNS1_4NodeES4_S4_S4_S4_(%"class.v8::internal::compiler::Node"* %1, %"class.v8::internal::compiler::Node"* nonnull %16, %"class.v8::internal::compiler::Node"* %28, %"class.v8::internal::compiler::Node"* %30, %"class.v8::internal::compiler::Node"* null) #9
  tail call void @_ZN2v88internal8compiler4Node4KillEv(%"class.v8::internal::compiler::Node"* %1) #9
  store i8 0, i8* %9, align 8
  br label %76

31:                                               ; preds = %25, %8, %2
  %32 = getelementptr inbounds %"class.v8::internal::compiler::GraphAssembler", %"class.v8::internal::compiler::GraphAssembler"* %0, i64 0, i32 6, i32 0, i32 0, i32 0
  %33 = load %"class.v8::internal::compiler::GraphAssembler::BasicBlockUpdater"*, %"class.v8::internal::compiler::GraphAssembler::BasicBlockUpdater"** %32, align 8
  %34 = icmp eq %"class.v8::internal::compiler::GraphAssembler::BasicBlockUpdater"* %33, null
  br i1 %34, label %56, label %35

35:                                               ; preds = %31
  %36 = getelementptr inbounds %"class.v8::internal::compiler::GraphAssembler::BasicBlockUpdater", %"class.v8::internal::compiler::GraphAssembler::BasicBlockUpdater"* %33, i64 0, i32 1
  %37 = load %"class.v8::internal::compiler::BasicBlock"*, %"class.v8::internal::compiler::BasicBlock"** %36, align 8
  %38 = getelementptr inbounds %"class.v8::internal::compiler::GraphAssembler::BasicBlockUpdater", %"class.v8::internal::compiler::GraphAssembler::BasicBlockUpdater"* %33, i64 0, i32 16
  %39 = load i32, i32* %38, align 8
  %40 = icmp eq i32 %39, 0
  br i1 %40, label %41, label %53

41:                                               ; preds = %35
  %42 = getelementptr inbounds %"class.v8::internal::compiler::GraphAssembler::BasicBlockUpdater", %"class.v8::internal::compiler::GraphAssembler::BasicBlockUpdater"* %33, i64 0, i32 3, i32 0
  %43 = load %"class.v8::internal::compiler::Node"**, %"class.v8::internal::compiler::Node"*** %42, align 8
  %44 = getelementptr inbounds %"class.v8::internal::compiler::GraphAssembler::BasicBlockUpdater", %"class.v8::internal::compiler::GraphAssembler::BasicBlockUpdater"* %33, i64 0, i32 4, i32 0
  %45 = load %"class.v8::internal::compiler::Node"**, %"class.v8::internal::compiler::Node"*** %44, align 8
  %46 = icmp eq %"class.v8::internal::compiler::Node"** %43, %45
  br i1 %46, label %52, label %47

47:                                               ; preds = %41
  %48 = load %"class.v8::internal::compiler::Node"*, %"class.v8::internal::compiler::Node"** %43, align 8
  %49 = icmp eq %"class.v8::internal::compiler::Node"* %48, %1
  br i1 %49, label %50, label %52

50:                                               ; preds = %47
  %51 = getelementptr inbounds %"class.v8::internal::compiler::Node"*, %"class.v8::internal::compiler::Node"** %43, i64 1
  store %"class.v8::internal::compiler::Node"** %51, %"class.v8::internal::compiler::Node"*** %42, align 8
  br label %56

52:                                               ; preds = %47, %41
  tail call void @_ZN2v88internal8compiler14GraphAssembler17BasicBlockUpdater13CopyForChangeEv(%"class.v8::internal::compiler::GraphAssembler::BasicBlockUpdater"* nonnull %33) #9
  br label %53

53:                                               ; preds = %52, %35
  %54 = getelementptr inbounds %"class.v8::internal::compiler::GraphAssembler::BasicBlockUpdater", %"class.v8::internal::compiler::GraphAssembler::BasicBlockUpdater"* %33, i64 0, i32 5
  %55 = load %"class.v8::internal::compiler::Schedule"*, %"class.v8::internal::compiler::Schedule"** %54, align 8
  tail call void @_ZN2v88internal8compiler8Schedule7AddNodeEPNS1_10BasicBlockEPNS1_4NodeE(%"class.v8::internal::compiler::Schedule"* %55, %"class.v8::internal::compiler::BasicBlock"* %37, %"class.v8::internal::compiler::Node"* %1) #9
  br label %56

56:                                               ; preds = %31, %53, %50
  %57 = getelementptr inbounds %"class.v8::internal::compiler::Node", %"class.v8::internal::compiler::Node"* %1, i64 0, i32 0
  %58 = load %"class.v8::internal::compiler::Operator"*, %"class.v8::internal::compiler::Operator"** %57, align 8
  %59 = getelementptr inbounds %"class.v8::internal::compiler::Operator", %"class.v8::internal::compiler::Operator"* %58, i64 0, i32 2
  %60 = load i16, i16* %59, align 8
  %61 = icmp eq i16 %60, 19
  br i1 %61, label %76, label %62

62:                                               ; preds = %56
  %63 = getelementptr inbounds %"class.v8::internal::compiler::Operator", %"class.v8::internal::compiler::Operator"* %58, i64 0, i32 9
  %64 = load i8, i8* %63, align 4
  %65 = icmp eq i8 %64, 0
  br i1 %65, label %69, label %66

66:                                               ; preds = %62
  %67 = getelementptr inbounds %"class.v8::internal::compiler::GraphAssembler", %"class.v8::internal::compiler::GraphAssembler"* %0, i64 0, i32 3
  store %"class.v8::internal::compiler::Node"* %1, %"class.v8::internal::compiler::Node"** %67, align 8
  %68 = load %"class.v8::internal::compiler::Operator"*, %"class.v8::internal::compiler::Operator"** %57, align 8
  br label %69

69:                                               ; preds = %66, %62
  %70 = phi %"class.v8::internal::compiler::Operator"* [ %58, %62 ], [ %68, %66 ]
  %71 = getelementptr inbounds %"class.v8::internal::compiler::Operator", %"class.v8::internal::compiler::Operator"* %70, i64 0, i32 11
  %72 = load i32, i32* %71, align 8
  %73 = icmp sgt i32 %72, 0
  br i1 %73, label %74, label %76

74:                                               ; preds = %69
  %75 = getelementptr inbounds %"class.v8::internal::compiler::GraphAssembler", %"class.v8::internal::compiler::GraphAssembler"* %0, i64 0, i32 4
  store %"class.v8::internal::compiler::Node"* %1, %"class.v8::internal::compiler::Node"** %75, align 8
  br label %76

76:                                               ; preds = %74, %69, %26, %56
  %77 = phi %"class.v8::internal::compiler::Node"* [ %16, %26 ], [ %1, %56 ], [ %1, %69 ], [ %1, %74 ]
  ret %"class.v8::internal::compiler::Node"* %77
}

declare %"class.v8::internal::compiler::Operator"* @_ZN2v88internal8compiler21CommonOperatorBuilder13Int64ConstantEl(%"class.v8::internal::compiler::CommonOperatorBuilder"*, i64) local_unnamed_addr #1

declare %"class.v8::internal::compiler::Operator"* @_ZN2v88internal8compiler21CommonOperatorBuilder13Int32ConstantEi(%"class.v8::internal::compiler::CommonOperatorBuilder"*, i32) local_unnamed_addr #1

; Function Attrs: nounwind ssp uwtable
define hidden %"class.v8::internal::compiler::Node"* @_ZN2v88internal8compiler16JSGraphAssembler11SmiConstantEi(%"class.v8::internal::compiler::JSGraphAssembler"* nocapture, i32) local_unnamed_addr #0 align 2 {
  %3 = getelementptr inbounds %"class.v8::internal::compiler::JSGraphAssembler", %"class.v8::internal::compiler::JSGraphAssembler"* %0, i64 0, i32 1
  %4 = load %"class.v8::internal::compiler::JSGraph"*, %"class.v8::internal::compiler::JSGraph"** %3, align 8
  %5 = sitofp i32 %1 to double
  %6 = tail call %"class.v8::internal::compiler::Node"* @_ZN2v88internal8compiler7JSGraph8ConstantEd(%"class.v8::internal::compiler::JSGraph"* %4, double %5) #9
  %7 = getelementptr inbounds %"class.v8::internal::compiler::JSGraphAssembler", %"class.v8::internal::compiler::JSGraphAssembler"* %0, i64 0, i32 0, i32 6, i32 0, i32 0, i32 0
  %8 = load %"class.v8::internal::compiler::GraphAssembler::BasicBlockUpdater"*, %"class.v8::internal::compiler::GraphAssembler::BasicBlockUpdater"** %7, align 8
  %9 = icmp eq %"class.v8::internal::compiler::GraphAssembler::BasicBlockUpdater"* %8, null
  br i1 %9, label %12, label %10

10:                                               ; preds = %2
  %11 = tail call %"class.v8::internal::compiler::Node"* @_ZN2v88internal8compiler14GraphAssembler17BasicBlockUpdater13AddClonedNodeEPNS1_4NodeE(%"class.v8::internal::compiler::GraphAssembler::BasicBlockUpdater"* nonnull %8, %"class.v8::internal::compiler::Node"* %6) #9
  br label %12

12:                                               ; preds = %10, %2
  %13 = phi %"class.v8::internal::compiler::Node"* [ %11, %10 ], [ %6, %2 ]
  %14 = getelementptr inbounds %"class.v8::internal::compiler::Node", %"class.v8::internal::compiler::Node"* %13, i64 0, i32 0
  %15 = load %"class.v8::internal::compiler::Operator"*, %"class.v8::internal::compiler::Operator"** %14, align 8
  %16 = getelementptr inbounds %"class.v8::internal::compiler::Operator", %"class.v8::internal::compiler::Operator"* %15, i64 0, i32 9
  %17 = load i8, i8* %16, align 4
  %18 = icmp eq i8 %17, 0
  br i1 %18, label %22, label %19

19:                                               ; preds = %12
  %20 = getelementptr inbounds %"class.v8::internal::compiler::JSGraphAssembler", %"class.v8::internal::compiler::JSGraphAssembler"* %0, i64 0, i32 0, i32 3
  store %"class.v8::internal::compiler::Node"* %13, %"class.v8::internal::compiler::Node"** %20, align 8
  %21 = load %"class.v8::internal::compiler::Operator"*, %"class.v8::internal::compiler::Operator"** %14, align 8
  br label %22

22:                                               ; preds = %19, %12
  %23 = phi %"class.v8::internal::compiler::Operator"* [ %15, %12 ], [ %21, %19 ]
  %24 = getelementptr inbounds %"class.v8::internal::compiler::Operator", %"class.v8::internal::compiler::Operator"* %23, i64 0, i32 11
  %25 = load i32, i32* %24, align 8
  %26 = icmp sgt i32 %25, 0
  br i1 %26, label %27, label %29

27:                                               ; preds = %22
  %28 = getelementptr inbounds %"class.v8::internal::compiler::JSGraphAssembler", %"class.v8::internal::compiler::JSGraphAssembler"* %0, i64 0, i32 0, i32 4
  store %"class.v8::internal::compiler::Node"* %13, %"class.v8::internal::compiler::Node"** %28, align 8
  br label %29

29:                                               ; preds = %22, %27
  ret %"class.v8::internal::compiler::Node"* %13
}

; Function Attrs: nounwind ssp uwtable
define hidden %"class.v8::internal::compiler::Node"* @_ZN2v88internal8compiler14GraphAssembler14Uint32ConstantEj(%"class.v8::internal::compiler::GraphAssembler"* nocapture, i32) local_unnamed_addr #0 align 2 {
  %3 = getelementptr inbounds %"class.v8::internal::compiler::GraphAssembler", %"class.v8::internal::compiler::GraphAssembler"* %0, i64 0, i32 2
  %4 = load %"class.v8::internal::compiler::MachineGraph"*, %"class.v8::internal::compiler::MachineGraph"** %3, align 8
  %5 = tail call %"class.v8::internal::compiler::Node"* @_ZN2v88internal8compiler12MachineGraph13Int32ConstantEi(%"class.v8::internal::compiler::MachineGraph"* %4, i32 %1) #9
  %6 = getelementptr inbounds %"class.v8::internal::compiler::GraphAssembler", %"class.v8::internal::compiler::GraphAssembler"* %0, i64 0, i32 6, i32 0, i32 0, i32 0
  %7 = load %"class.v8::internal::compiler::GraphAssembler::BasicBlockUpdater"*, %"class.v8::internal::compiler::GraphAssembler::BasicBlockUpdater"** %6, align 8
  %8 = icmp eq %"class.v8::internal::compiler::GraphAssembler::BasicBlockUpdater"* %7, null
  br i1 %8, label %11, label %9

9:                                                ; preds = %2
  %10 = tail call %"class.v8::internal::compiler::Node"* @_ZN2v88internal8compiler14GraphAssembler17BasicBlockUpdater13AddClonedNodeEPNS1_4NodeE(%"class.v8::internal::compiler::GraphAssembler::BasicBlockUpdater"* nonnull %7, %"class.v8::internal::compiler::Node"* %5) #9
  br label %11

11:                                               ; preds = %9, %2
  %12 = phi %"class.v8::internal::compiler::Node"* [ %10, %9 ], [ %5, %2 ]
  %13 = getelementptr inbounds %"class.v8::internal::compiler::Node", %"class.v8::internal::compiler::Node"* %12, i64 0, i32 0
  %14 = load %"class.v8::internal::compiler::Operator"*, %"class.v8::internal::compiler::Operator"** %13, align 8
  %15 = getelementptr inbounds %"class.v8::internal::compiler::Operator", %"class.v8::internal::compiler::Operator"* %14, i64 0, i32 9
  %16 = load i8, i8* %15, align 4
  %17 = icmp eq i8 %16, 0
  br i1 %17, label %21, label %18

18:                                               ; preds = %11
  %19 = getelementptr inbounds %"class.v8::internal::compiler::GraphAssembler", %"class.v8::internal::compiler::GraphAssembler"* %0, i64 0, i32 3
  store %"class.v8::internal::compiler::Node"* %12, %"class.v8::internal::compiler::Node"** %19, align 8
  %20 = load %"class.v8::internal::compiler::Operator"*, %"class.v8::internal::compiler::Operator"** %13, align 8
  br label %21

21:                                               ; preds = %18, %11
  %22 = phi %"class.v8::internal::compiler::Operator"* [ %14, %11 ], [ %20, %18 ]
  %23 = getelementptr inbounds %"class.v8::internal::compiler::Operator", %"class.v8::internal::compiler::Operator"* %22, i64 0, i32 11
  %24 = load i32, i32* %23, align 8
  %25 = icmp sgt i32 %24, 0
  br i1 %25, label %26, label %28

26:                                               ; preds = %21
  %27 = getelementptr inbounds %"class.v8::internal::compiler::GraphAssembler", %"class.v8::internal::compiler::GraphAssembler"* %0, i64 0, i32 4
  store %"class.v8::internal::compiler::Node"* %12, %"class.v8::internal::compiler::Node"** %27, align 8
  br label %28

28:                                               ; preds = %21, %26
  ret %"class.v8::internal::compiler::Node"* %12
}

; Function Attrs: nounwind ssp uwtable
define hidden %"class.v8::internal::compiler::Node"* @_ZN2v88internal8compiler14GraphAssembler15Float64ConstantEd(%"class.v8::internal::compiler::GraphAssembler"* nocapture, double) local_unnamed_addr #0 align 2 {
  %3 = getelementptr inbounds %"class.v8::internal::compiler::GraphAssembler", %"class.v8::internal::compiler::GraphAssembler"* %0, i64 0, i32 2
  %4 = load %"class.v8::internal::compiler::MachineGraph"*, %"class.v8::internal::compiler::MachineGraph"** %3, align 8
  %5 = tail call %"class.v8::internal::compiler::Node"* @_ZN2v88internal8compiler12MachineGraph15Float64ConstantEd(%"class.v8::internal::compiler::MachineGraph"* %4, double %1) #9
  %6 = getelementptr inbounds %"class.v8::internal::compiler::GraphAssembler", %"class.v8::internal::compiler::GraphAssembler"* %0, i64 0, i32 6, i32 0, i32 0, i32 0
  %7 = load %"class.v8::internal::compiler::GraphAssembler::BasicBlockUpdater"*, %"class.v8::internal::compiler::GraphAssembler::BasicBlockUpdater"** %6, align 8
  %8 = icmp eq %"class.v8::internal::compiler::GraphAssembler::BasicBlockUpdater"* %7, null
  br i1 %8, label %11, label %9

9:                                                ; preds = %2
  %10 = tail call %"class.v8::internal::compiler::Node"* @_ZN2v88internal8compiler14GraphAssembler17BasicBlockUpdater13AddClonedNodeEPNS1_4NodeE(%"class.v8::internal::compiler::GraphAssembler::BasicBlockUpdater"* nonnull %7, %"class.v8::internal::compiler::Node"* %5) #9
  br label %11

11:                                               ; preds = %9, %2
  %12 = phi %"class.v8::internal::compiler::Node"* [ %10, %9 ], [ %5, %2 ]
  %13 = getelementptr inbounds %"class.v8::internal::compiler::Node", %"class.v8::internal::compiler::Node"* %12, i64 0, i32 0
  %14 = load %"class.v8::internal::compiler::Operator"*, %"class.v8::internal::compiler::Operator"** %13, align 8
  %15 = getelementptr inbounds %"class.v8::internal::compiler::Operator", %"class.v8::internal::compiler::Operator"* %14, i64 0, i32 9
  %16 = load i8, i8* %15, align 4
  %17 = icmp eq i8 %16, 0
  br i1 %17, label %21, label %18

18:                                               ; preds = %11
  %19 = getelementptr inbounds %"class.v8::internal::compiler::GraphAssembler", %"class.v8::internal::compiler::GraphAssembler"* %0, i64 0, i32 3
  store %"class.v8::internal::compiler::Node"* %12, %"class.v8::internal::compiler::Node"** %19, align 8
  %20 = load %"class.v8::internal::compiler::Operator"*, %"class.v8::internal::compiler::Operator"** %13, align 8
  br label %21

21:                                               ; preds = %18, %11
  %22 = phi %"class.v8::internal::compiler::Operator"* [ %14, %11 ], [ %20, %18 ]
  %23 = getelementptr inbounds %"class.v8::internal::compiler::Operator", %"class.v8::internal::compiler::Operator"* %22, i64 0, i32 11
  %24 = load i32, i32* %23, align 8
  %25 = icmp sgt i32 %24, 0
  br i1 %25, label %26, label %28

26:                                               ; preds = %21
  %27 = getelementptr inbounds %"class.v8::internal::compiler::GraphAssembler", %"class.v8::internal::compiler::GraphAssembler"* %0, i64 0, i32 4
  store %"class.v8::internal::compiler::Node"* %12, %"class.v8::internal::compiler::Node"** %27, align 8
  br label %28

28:                                               ; preds = %21, %26
  ret %"class.v8::internal::compiler::Node"* %12
}

declare %"class.v8::internal::compiler::Node"* @_ZN2v88internal8compiler12MachineGraph15Float64ConstantEd(%"class.v8::internal::compiler::MachineGraph"*, double) local_unnamed_addr #1

; Function Attrs: nounwind ssp uwtable
define hidden %"class.v8::internal::compiler::Node"* @_ZN2v88internal8compiler16JSGraphAssembler12HeapConstantENS0_6HandleINS0_10HeapObjectEEE(%"class.v8::internal::compiler::JSGraphAssembler"* nocapture, i64*) local_unnamed_addr #0 align 2 {
  %3 = getelementptr inbounds %"class.v8::internal::compiler::JSGraphAssembler", %"class.v8::internal::compiler::JSGraphAssembler"* %0, i64 0, i32 1
  %4 = load %"class.v8::internal::compiler::JSGraph"*, %"class.v8::internal::compiler::JSGraph"** %3, align 8
  %5 = tail call %"class.v8::internal::compiler::Node"* @_ZN2v88internal8compiler7JSGraph12HeapConstantENS0_6HandleINS0_10HeapObjectEEE(%"class.v8::internal::compiler::JSGraph"* %4, i64* %1) #9
  %6 = getelementptr inbounds %"class.v8::internal::compiler::JSGraphAssembler", %"class.v8::internal::compiler::JSGraphAssembler"* %0, i64 0, i32 0, i32 6, i32 0, i32 0, i32 0
  %7 = load %"class.v8::internal::compiler::GraphAssembler::BasicBlockUpdater"*, %"class.v8::internal::compiler::GraphAssembler::BasicBlockUpdater"** %6, align 8
  %8 = icmp eq %"class.v8::internal::compiler::GraphAssembler::BasicBlockUpdater"* %7, null
  br i1 %8, label %11, label %9

9:                                                ; preds = %2
  %10 = tail call %"class.v8::internal::compiler::Node"* @_ZN2v88internal8compiler14GraphAssembler17BasicBlockUpdater13AddClonedNodeEPNS1_4NodeE(%"class.v8::internal::compiler::GraphAssembler::BasicBlockUpdater"* nonnull %7, %"class.v8::internal::compiler::Node"* %5) #9
  br label %11

11:                                               ; preds = %9, %2
  %12 = phi %"class.v8::internal::compiler::Node"* [ %10, %9 ], [ %5, %2 ]
  %13 = getelementptr inbounds %"class.v8::internal::compiler::Node", %"class.v8::internal::compiler::Node"* %12, i64 0, i32 0
  %14 = load %"class.v8::internal::compiler::Operator"*, %"class.v8::internal::compiler::Operator"** %13, align 8
  %15 = getelementptr inbounds %"class.v8::internal::compiler::Operator", %"class.v8::internal::compiler::Operator"* %14, i64 0, i32 9
  %16 = load i8, i8* %15, align 4
  %17 = icmp eq i8 %16, 0
  br i1 %17, label %21, label %18

18:                                               ; preds = %11
  %19 = getelementptr inbounds %"class.v8::internal::compiler::JSGraphAssembler", %"class.v8::internal::compiler::JSGraphAssembler"* %0, i64 0, i32 0, i32 3
  store %"class.v8::internal::compiler::Node"* %12, %"class.v8::internal::compiler::Node"** %19, align 8
  %20 = load %"class.v8::internal::compiler::Operator"*, %"class.v8::internal::compiler::Operator"** %13, align 8
  br label %21

21:                                               ; preds = %18, %11
  %22 = phi %"class.v8::internal::compiler::Operator"* [ %14, %11 ], [ %20, %18 ]
  %23 = getelementptr inbounds %"class.v8::internal::compiler::Operator", %"class.v8::internal::compiler::Operator"* %22, i64 0, i32 11
  %24 = load i32, i32* %23, align 8
  %25 = icmp sgt i32 %24, 0
  br i1 %25, label %26, label %28

26:                                               ; preds = %21
  %27 = getelementptr inbounds %"class.v8::internal::compiler::JSGraphAssembler", %"class.v8::internal::compiler::JSGraphAssembler"* %0, i64 0, i32 0, i32 4
  store %"class.v8::internal::compiler::Node"* %12, %"class.v8::internal::compiler::Node"** %27, align 8
  br label %28

28:                                               ; preds = %21, %26
  ret %"class.v8::internal::compiler::Node"* %12
}

declare %"class.v8::internal::compiler::Node"* @_ZN2v88internal8compiler7JSGraph12HeapConstantENS0_6HandleINS0_10HeapObjectEEE(%"class.v8::internal::compiler::JSGraph"*, i64*) local_unnamed_addr #1

; Function Attrs: nounwind ssp uwtable
define hidden %"class.v8::internal::compiler::Node"* @_ZN2v88internal8compiler16JSGraphAssembler8ConstantERKNS1_9ObjectRefE(%"class.v8::internal::compiler::JSGraphAssembler"* nocapture, %"class.v8::internal::compiler::ObjectRef"* dereferenceable(16)) local_unnamed_addr #0 align 2 {
  %3 = getelementptr inbounds %"class.v8::internal::compiler::JSGraphAssembler", %"class.v8::internal::compiler::JSGraphAssembler"* %0, i64 0, i32 1
  %4 = load %"class.v8::internal::compiler::JSGraph"*, %"class.v8::internal::compiler::JSGraph"** %3, align 8
  %5 = tail call %"class.v8::internal::compiler::Node"* @_ZN2v88internal8compiler7JSGraph8ConstantERKNS1_9ObjectRefE(%"class.v8::internal::compiler::JSGraph"* %4, %"class.v8::internal::compiler::ObjectRef"* dereferenceable(16) %1) #9
  %6 = getelementptr inbounds %"class.v8::internal::compiler::JSGraphAssembler", %"class.v8::internal::compiler::JSGraphAssembler"* %0, i64 0, i32 0, i32 6, i32 0, i32 0, i32 0
  %7 = load %"class.v8::internal::compiler::GraphAssembler::BasicBlockUpdater"*, %"class.v8::internal::compiler::GraphAssembler::BasicBlockUpdater"** %6, align 8
  %8 = icmp eq %"class.v8::internal::compiler::GraphAssembler::BasicBlockUpdater"* %7, null
  br i1 %8, label %11, label %9

9:                                                ; preds = %2
  %10 = tail call %"class.v8::internal::compiler::Node"* @_ZN2v88internal8compiler14GraphAssembler17BasicBlockUpdater13AddClonedNodeEPNS1_4NodeE(%"class.v8::internal::compiler::GraphAssembler::BasicBlockUpdater"* nonnull %7, %"class.v8::internal::compiler::Node"* %5) #9
  br label %11

11:                                               ; preds = %9, %2
  %12 = phi %"class.v8::internal::compiler::Node"* [ %10, %9 ], [ %5, %2 ]
  %13 = getelementptr inbounds %"class.v8::internal::compiler::Node", %"class.v8::internal::compiler::Node"* %12, i64 0, i32 0
  %14 = load %"class.v8::internal::compiler::Operator"*, %"class.v8::internal::compiler::Operator"** %13, align 8
  %15 = getelementptr inbounds %"class.v8::internal::compiler::Operator", %"class.v8::internal::compiler::Operator"* %14, i64 0, i32 9
  %16 = load i8, i8* %15, align 4
  %17 = icmp eq i8 %16, 0
  br i1 %17, label %21, label %18

18:                                               ; preds = %11
  %19 = getelementptr inbounds %"class.v8::internal::compiler::JSGraphAssembler", %"class.v8::internal::compiler::JSGraphAssembler"* %0, i64 0, i32 0, i32 3
  store %"class.v8::internal::compiler::Node"* %12, %"class.v8::internal::compiler::Node"** %19, align 8
  %20 = load %"class.v8::internal::compiler::Operator"*, %"class.v8::internal::compiler::Operator"** %13, align 8
  br label %21

21:                                               ; preds = %18, %11
  %22 = phi %"class.v8::internal::compiler::Operator"* [ %14, %11 ], [ %20, %18 ]
  %23 = getelementptr inbounds %"class.v8::internal::compiler::Operator", %"class.v8::internal::compiler::Operator"* %22, i64 0, i32 11
  %24 = load i32, i32* %23, align 8
  %25 = icmp sgt i32 %24, 0
  br i1 %25, label %26, label %28

26:                                               ; preds = %21
  %27 = getelementptr inbounds %"class.v8::internal::compiler::JSGraphAssembler", %"class.v8::internal::compiler::JSGraphAssembler"* %0, i64 0, i32 0, i32 4
  store %"class.v8::internal::compiler::Node"* %12, %"class.v8::internal::compiler::Node"** %27, align 8
  br label %28

28:                                               ; preds = %21, %26
  ret %"class.v8::internal::compiler::Node"* %12
}

declare %"class.v8::internal::compiler::Node"* @_ZN2v88internal8compiler7JSGraph8ConstantERKNS1_9ObjectRefE(%"class.v8::internal::compiler::JSGraph"*, %"class.v8::internal::compiler::ObjectRef"* dereferenceable(16)) local_unnamed_addr #1

; Function Attrs: nounwind ssp uwtable
define hidden %"class.v8::internal::compiler::Node"* @_ZN2v88internal8compiler16JSGraphAssembler14NumberConstantEd(%"class.v8::internal::compiler::JSGraphAssembler"* nocapture, double) local_unnamed_addr #0 align 2 {
  %3 = getelementptr inbounds %"class.v8::internal::compiler::JSGraphAssembler", %"class.v8::internal::compiler::JSGraphAssembler"* %0, i64 0, i32 1
  %4 = load %"class.v8::internal::compiler::JSGraph"*, %"class.v8::internal::compiler::JSGraph"** %3, align 8
  %5 = tail call %"class.v8::internal::compiler::Node"* @_ZN2v88internal8compiler7JSGraph8ConstantEd(%"class.v8::internal::compiler::JSGraph"* %4, double %1) #9
  %6 = getelementptr inbounds %"class.v8::internal::compiler::JSGraphAssembler", %"class.v8::internal::compiler::JSGraphAssembler"* %0, i64 0, i32 0, i32 6, i32 0, i32 0, i32 0
  %7 = load %"class.v8::internal::compiler::GraphAssembler::BasicBlockUpdater"*, %"class.v8::internal::compiler::GraphAssembler::BasicBlockUpdater"** %6, align 8
  %8 = icmp eq %"class.v8::internal::compiler::GraphAssembler::BasicBlockUpdater"* %7, null
  br i1 %8, label %11, label %9

9:                                                ; preds = %2
  %10 = tail call %"class.v8::internal::compiler::Node"* @_ZN2v88internal8compiler14GraphAssembler17BasicBlockUpdater13AddClonedNodeEPNS1_4NodeE(%"class.v8::internal::compiler::GraphAssembler::BasicBlockUpdater"* nonnull %7, %"class.v8::internal::compiler::Node"* %5) #9
  br label %11

11:                                               ; preds = %9, %2
  %12 = phi %"class.v8::internal::compiler::Node"* [ %10, %9 ], [ %5, %2 ]
  %13 = getelementptr inbounds %"class.v8::internal::compiler::Node", %"class.v8::internal::compiler::Node"* %12, i64 0, i32 0
  %14 = load %"class.v8::internal::compiler::Operator"*, %"class.v8::internal::compiler::Operator"** %13, align 8
  %15 = getelementptr inbounds %"class.v8::internal::compiler::Operator", %"class.v8::internal::compiler::Operator"* %14, i64 0, i32 9
  %16 = load i8, i8* %15, align 4
  %17 = icmp eq i8 %16, 0
  br i1 %17, label %21, label %18

18:                                               ; preds = %11
  %19 = getelementptr inbounds %"class.v8::internal::compiler::JSGraphAssembler", %"class.v8::internal::compiler::JSGraphAssembler"* %0, i64 0, i32 0, i32 3
  store %"class.v8::internal::compiler::Node"* %12, %"class.v8::internal::compiler::Node"** %19, align 8
  %20 = load %"class.v8::internal::compiler::Operator"*, %"class.v8::internal::compiler::Operator"** %13, align 8
  br label %21

21:                                               ; preds = %18, %11
  %22 = phi %"class.v8::internal::compiler::Operator"* [ %14, %11 ], [ %20, %18 ]
  %23 = getelementptr inbounds %"class.v8::internal::compiler::Operator", %"class.v8::internal::compiler::Operator"* %22, i64 0, i32 11
  %24 = load i32, i32* %23, align 8
  %25 = icmp sgt i32 %24, 0
  br i1 %25, label %26, label %28

26:                                               ; preds = %21
  %27 = getelementptr inbounds %"class.v8::internal::compiler::JSGraphAssembler", %"class.v8::internal::compiler::JSGraphAssembler"* %0, i64 0, i32 0, i32 4
  store %"class.v8::internal::compiler::Node"* %12, %"class.v8::internal::compiler::Node"** %27, align 8
  br label %28

28:                                               ; preds = %21, %26
  ret %"class.v8::internal::compiler::Node"* %12
}

declare %"class.v8::internal::compiler::Node"* @_ZN2v88internal8compiler7JSGraph8ConstantEd(%"class.v8::internal::compiler::JSGraph"*, double) local_unnamed_addr #1

; Function Attrs: nounwind ssp uwtable
define hidden %"class.v8::internal::compiler::Node"* @_ZN2v88internal8compiler14GraphAssembler16ExternalConstantENS0_17ExternalReferenceE(%"class.v8::internal::compiler::GraphAssembler"* nocapture, i64) local_unnamed_addr #0 align 2 {
  %3 = getelementptr inbounds %"class.v8::internal::compiler::GraphAssembler", %"class.v8::internal::compiler::GraphAssembler"* %0, i64 0, i32 2
  %4 = load %"class.v8::internal::compiler::MachineGraph"*, %"class.v8::internal::compiler::MachineGraph"** %3, align 8
  %5 = tail call %"class.v8::internal::compiler::Node"* @_ZN2v88internal8compiler12MachineGraph16ExternalConstantENS0_17ExternalReferenceE(%"class.v8::internal::compiler::MachineGraph"* %4, i64 %1) #9
  %6 = getelementptr inbounds %"class.v8::internal::compiler::GraphAssembler", %"class.v8::internal::compiler::GraphAssembler"* %0, i64 0, i32 6, i32 0, i32 0, i32 0
  %7 = load %"class.v8::internal::compiler::GraphAssembler::BasicBlockUpdater"*, %"class.v8::internal::compiler::GraphAssembler::BasicBlockUpdater"** %6, align 8
  %8 = icmp eq %"class.v8::internal::compiler::GraphAssembler::BasicBlockUpdater"* %7, null
  br i1 %8, label %11, label %9

9:                                                ; preds = %2
  %10 = tail call %"class.v8::internal::compiler::Node"* @_ZN2v88internal8compiler14GraphAssembler17BasicBlockUpdater13AddClonedNodeEPNS1_4NodeE(%"class.v8::internal::compiler::GraphAssembler::BasicBlockUpdater"* nonnull %7, %"class.v8::internal::compiler::Node"* %5) #9
  br label %11

11:                                               ; preds = %9, %2
  %12 = phi %"class.v8::internal::compiler::Node"* [ %10, %9 ], [ %5, %2 ]
  %13 = getelementptr inbounds %"class.v8::internal::compiler::Node", %"class.v8::internal::compiler::Node"* %12, i64 0, i32 0
  %14 = load %"class.v8::internal::compiler::Operator"*, %"class.v8::internal::compiler::Operator"** %13, align 8
  %15 = getelementptr inbounds %"class.v8::internal::compiler::Operator", %"class.v8::internal::compiler::Operator"* %14, i64 0, i32 9
  %16 = load i8, i8* %15, align 4
  %17 = icmp eq i8 %16, 0
  br i1 %17, label %21, label %18

18:                                               ; preds = %11
  %19 = getelementptr inbounds %"class.v8::internal::compiler::GraphAssembler", %"class.v8::internal::compiler::GraphAssembler"* %0, i64 0, i32 3
  store %"class.v8::internal::compiler::Node"* %12, %"class.v8::internal::compiler::Node"** %19, align 8
  %20 = load %"class.v8::internal::compiler::Operator"*, %"class.v8::internal::compiler::Operator"** %13, align 8
  br label %21

21:                                               ; preds = %18, %11
  %22 = phi %"class.v8::internal::compiler::Operator"* [ %14, %11 ], [ %20, %18 ]
  %23 = getelementptr inbounds %"class.v8::internal::compiler::Operator", %"class.v8::internal::compiler::Operator"* %22, i64 0, i32 11
  %24 = load i32, i32* %23, align 8
  %25 = icmp sgt i32 %24, 0
  br i1 %25, label %26, label %28

26:                                               ; preds = %21
  %27 = getelementptr inbounds %"class.v8::internal::compiler::GraphAssembler", %"class.v8::internal::compiler::GraphAssembler"* %0, i64 0, i32 4
  store %"class.v8::internal::compiler::Node"* %12, %"class.v8::internal::compiler::Node"** %27, align 8
  br label %28

28:                                               ; preds = %21, %26
  ret %"class.v8::internal::compiler::Node"* %12
}

declare %"class.v8::internal::compiler::Node"* @_ZN2v88internal8compiler12MachineGraph16ExternalConstantENS0_17ExternalReferenceE(%"class.v8::internal::compiler::MachineGraph"*, i64) local_unnamed_addr #1

; Function Attrs: nounwind ssp uwtable
define hidden %"class.v8::internal::compiler::Node"* @_ZN2v88internal8compiler14GraphAssembler9ParameterEi(%"class.v8::internal::compiler::GraphAssembler"*, i32) local_unnamed_addr #0 align 2 {
  %3 = alloca %"struct.std::__1::array.736", align 8
  %4 = getelementptr inbounds %"class.v8::internal::compiler::GraphAssembler", %"class.v8::internal::compiler::GraphAssembler"* %0, i64 0, i32 2
  %5 = load %"class.v8::internal::compiler::MachineGraph"*, %"class.v8::internal::compiler::MachineGraph"** %4, align 8
  %6 = getelementptr inbounds %"class.v8::internal::compiler::MachineGraph", %"class.v8::internal::compiler::MachineGraph"* %5, i64 0, i32 0
  %7 = load %"class.v8::internal::compiler::Graph"*, %"class.v8::internal::compiler::Graph"** %6, align 8
  %8 = getelementptr inbounds %"class.v8::internal::compiler::MachineGraph", %"class.v8::internal::compiler::MachineGraph"* %5, i64 0, i32 1
  %9 = load %"class.v8::internal::compiler::CommonOperatorBuilder"*, %"class.v8::internal::compiler::CommonOperatorBuilder"** %8, align 8
  %10 = tail call %"class.v8::internal::compiler::Operator"* @_ZN2v88internal8compiler21CommonOperatorBuilder9ParameterEiPKc(%"class.v8::internal::compiler::CommonOperatorBuilder"* %9, i32 %1, i8* null) #9
  %11 = load %"class.v8::internal::compiler::MachineGraph"*, %"class.v8::internal::compiler::MachineGraph"** %4, align 8
  %12 = getelementptr inbounds %"class.v8::internal::compiler::MachineGraph", %"class.v8::internal::compiler::MachineGraph"* %11, i64 0, i32 0
  %13 = load %"class.v8::internal::compiler::Graph"*, %"class.v8::internal::compiler::Graph"** %12, align 8
  %14 = getelementptr inbounds %"class.v8::internal::compiler::Graph", %"class.v8::internal::compiler::Graph"* %13, i64 0, i32 1
  %15 = bitcast %"class.v8::internal::compiler::Node"** %14 to i64*
  %16 = load i64, i64* %15, align 8
  %17 = bitcast %"struct.std::__1::array.736"* %3 to i8*
  call void @llvm.lifetime.start.p0i8(i64 8, i8* nonnull %17) #9
  %18 = getelementptr inbounds %"struct.std::__1::array.736", %"struct.std::__1::array.736"* %3, i64 0, i32 0, i64 0
  %19 = bitcast %"struct.std::__1::array.736"* %3 to i64*
  store i64 %16, i64* %19, align 8
  %20 = call %"class.v8::internal::compiler::Node"* @_ZN2v88internal8compiler5Graph7NewNodeEPKNS1_8OperatorEiPKPNS1_4NodeEb(%"class.v8::internal::compiler::Graph"* %7, %"class.v8::internal::compiler::Operator"* %10, i32 1, %"class.v8::internal::compiler::Node"** nonnull %18, i1 zeroext false) #9
  call void @llvm.lifetime.end.p0i8(i64 8, i8* nonnull %17) #9
  %21 = call %"class.v8::internal::compiler::Node"* @_ZN2v88internal8compiler14GraphAssembler7AddNodeEPNS1_4NodeE(%"class.v8::internal::compiler::GraphAssembler"* %0, %"class.v8::internal::compiler::Node"* %20)
  ret %"class.v8::internal::compiler::Node"* %21
}

declare %"class.v8::internal::compiler::Operator"* @_ZN2v88internal8compiler21CommonOperatorBuilder9ParameterEiPKc(%"class.v8::internal::compiler::CommonOperatorBuilder"*, i32, i8*) local_unnamed_addr #1

; Function Attrs: nounwind ssp uwtable
define hidden %"class.v8::internal::compiler::Node"* @_ZN2v88internal8compiler16JSGraphAssembler18CEntryStubConstantEi(%"class.v8::internal::compiler::JSGraphAssembler"* nocapture, i32) local_unnamed_addr #0 align 2 {
  %3 = getelementptr inbounds %"class.v8::internal::compiler::JSGraphAssembler", %"class.v8::internal::compiler::JSGraphAssembler"* %0, i64 0, i32 1
  %4 = load %"class.v8::internal::compiler::JSGraph"*, %"class.v8::internal::compiler::JSGraph"** %3, align 8
  %5 = tail call %"class.v8::internal::compiler::Node"* @_ZN2v88internal8compiler7JSGraph18CEntryStubConstantEiNS0_14SaveFPRegsModeENS0_8ArgvModeEb(%"class.v8::internal::compiler::JSGraph"* %4, i32 %1, i32 0, i32 0, i1 zeroext false) #9
  %6 = getelementptr inbounds %"class.v8::internal::compiler::JSGraphAssembler", %"class.v8::internal::compiler::JSGraphAssembler"* %0, i64 0, i32 0, i32 6, i32 0, i32 0, i32 0
  %7 = load %"class.v8::internal::compiler::GraphAssembler::BasicBlockUpdater"*, %"class.v8::internal::compiler::GraphAssembler::BasicBlockUpdater"** %6, align 8
  %8 = icmp eq %"class.v8::internal::compiler::GraphAssembler::BasicBlockUpdater"* %7, null
  br i1 %8, label %11, label %9

9:                                                ; preds = %2
  %10 = tail call %"class.v8::internal::compiler::Node"* @_ZN2v88internal8compiler14GraphAssembler17BasicBlockUpdater13AddClonedNodeEPNS1_4NodeE(%"class.v8::internal::compiler::GraphAssembler::BasicBlockUpdater"* nonnull %7, %"class.v8::internal::compiler::Node"* %5) #9
  br label %11

11:                                               ; preds = %9, %2
  %12 = phi %"class.v8::internal::compiler::Node"* [ %10, %9 ], [ %5, %2 ]
  %13 = getelementptr inbounds %"class.v8::internal::compiler::Node", %"class.v8::internal::compiler::Node"* %12, i64 0, i32 0
  %14 = load %"class.v8::internal::compiler::Operator"*, %"class.v8::internal::compiler::Operator"** %13, align 8
  %15 = getelementptr inbounds %"class.v8::internal::compiler::Operator", %"class.v8::internal::compiler::Operator"* %14, i64 0, i32 9
  %16 = load i8, i8* %15, align 4
  %17 = icmp eq i8 %16, 0
  br i1 %17, label %21, label %18

18:                                               ; preds = %11
  %19 = getelementptr inbounds %"class.v8::internal::compiler::JSGraphAssembler", %"class.v8::internal::compiler::JSGraphAssembler"* %0, i64 0, i32 0, i32 3
  store %"class.v8::internal::compiler::Node"* %12, %"class.v8::internal::compiler::Node"** %19, align 8
