; ModuleID = '../../third_party/skia/src/gpu/GrShaderUtils.cpp'
source_filename = "../../third_party/skia/src/gpu/GrShaderUtils.cpp"
target datalayout = "e-m:e-i64:64-f80:128-n8:16:32:64-S128"
target triple = "x86_64-unknown-linux-gnu"

module asm ".symver exp, exp@GLIBC_2.2.5"
module asm ".symver exp2, exp2@GLIBC_2.2.5"
module asm ".symver exp2f, exp2f@GLIBC_2.2.5"
module asm ".symver expf, expf@GLIBC_2.2.5"
module asm ".symver lgamma, lgamma@GLIBC_2.2.5"
module asm ".symver lgammaf, lgammaf@GLIBC_2.2.5"
module asm ".symver lgammal, lgammal@GLIBC_2.2.5"
module asm ".symver log, log@GLIBC_2.2.5"
module asm ".symver log2, log2@GLIBC_2.2.5"
module asm ".symver log2f, log2f@GLIBC_2.2.5"
module asm ".symver logf, logf@GLIBC_2.2.5"
module asm ".symver pow, pow@GLIBC_2.2.5"
module asm ".symver powf, powf@GLIBC_2.2.5"

%"struct.std::__1::__function::__policy" = type { i8* (i8*)*, void (i8*)*, i8, %"class.std::type_info"* }
%"class.std::type_info" = type { i32 (...)**, i8* }
%"class.SkSL::String" = type { %"class.std::__1::basic_string" }
%"class.std::__1::basic_string" = type { %"class.std::__1::__compressed_pair" }
%"class.std::__1::__compressed_pair" = type { %"struct.std::__1::__compressed_pair_elem" }
%"struct.std::__1::__compressed_pair_elem" = type { %"struct.std::__1::basic_string<char, std::__1::char_traits<char>, std::__1::allocator<char> >::__rep" }
%"struct.std::__1::basic_string<char, std::__1::char_traits<char>, std::__1::allocator<char> >::__rep" = type { %union.anon }
%union.anon = type { %"struct.std::__1::basic_string<char, std::__1::char_traits<char>, std::__1::allocator<char> >::__long" }
%"struct.std::__1::basic_string<char, std::__1::char_traits<char>, std::__1::allocator<char> >::__long" = type { i8*, i64, i64 }
%"class.GrShaderUtils::GLSLPrettyPrint" = type { i8, i32, i64, i64, i8*, %"class.SkSL::String", i8, i8, i8* }
%"struct.std::__1::basic_string<char, std::__1::char_traits<char>, std::__1::allocator<char> >::__short" = type { [23 x i8], %struct.anon }
%struct.anon = type { i8 }
%"class.std::__1::function" = type { %"class.std::__1::__function::__policy_func" }
%"class.std::__1::__function::__policy_func" = type { %"union.std::__1::__function::__policy_storage", %"struct.std::__1::__function::__policy_invoker", %"struct.std::__1::__function::__policy"* }
%"union.std::__1::__function::__policy_storage" = type { i8*, [8 x i8] }
%"struct.std::__1::__function::__policy_invoker" = type { void (%"union.std::__1::__function::__policy_storage"*, i32, i8*)* }
%class.SkTArray = type { %class.SkString*, i64 }
%class.SkString = type { %class.sk_sp }
%class.sk_sp = type { %"struct.SkString::Rec"* }
%"struct.SkString::Rec" = type <{ i32, %"struct.std::__1::atomic", i8, [3 x i8] }>
%"struct.std::__1::atomic" = type { %"struct.std::__1::__atomic_base" }
%"struct.std::__1::__atomic_base" = type { %"struct.std::__1::__atomic_base.1" }
%"struct.std::__1::__atomic_base.1" = type { %"struct.std::__1::__cxx_atomic_impl" }
%"struct.std::__1::__cxx_atomic_impl" = type { %"struct.std::__1::__cxx_atomic_base_impl" }
%"struct.std::__1::__cxx_atomic_base_impl" = type { i32 }
%"class.std::__1::__basic_string_common" = type { i8 }
%"class.GrContextOptions::ShaderErrorHandler" = type { i32 (...)** }
%class.GrDefaultShaderErrorHandler = type { %"class.GrContextOptions::ShaderErrorHandler" }

$_ZN13GrShaderUtils15GLSLPrettyPrint8prettifyERKN4SkSL6StringE = comdat any

$_ZN16GrContextOptions18ShaderErrorHandlerD2Ev = comdat any

$_ZN13GrShaderUtils15GLSLPrettyPrint10parseUntilEPKc = comdat any

@.str = private unnamed_addr constant [2 x i8] c"\0A\00", align 1
@.str.1 = private unnamed_addr constant [51 x i8] c"Shader compilation error\0A------------------------\0A\00", align 1
@.str.2 = private unnamed_addr constant [11 x i8] c"Errors:\0A%s\00", align 1
@_ZZN13GrShaderUtils25DefaultShaderErrorHandlerEvE8gHandler = internal global { i8** } { i8** getelementptr inbounds ({ [5 x i8*] }, { [5 x i8*] }* @_ZTVZN13GrShaderUtils25DefaultShaderErrorHandlerEvE27GrDefaultShaderErrorHandler, i32 0, inrange i32 0, i32 2) }, align 8
@_ZTVZN13GrShaderUtils25DefaultShaderErrorHandlerEvE27GrDefaultShaderErrorHandler = internal unnamed_addr constant { [5 x i8*] } { [5 x i8*] [i8* null, i8* null, i8* bitcast (void (%"class.GrContextOptions::ShaderErrorHandler"*)* @_ZN16GrContextOptions18ShaderErrorHandlerD2Ev to i8*), i8* bitcast (void (%class.GrDefaultShaderErrorHandler*)* @_ZZN13GrShaderUtils25DefaultShaderErrorHandlerEvEN27GrDefaultShaderErrorHandlerD0Ev to i8*), i8* bitcast (void (%class.GrDefaultShaderErrorHandler*, i8*, i8*)* @_ZZN13GrShaderUtils25DefaultShaderErrorHandlerEvEN27GrDefaultShaderErrorHandler12compileErrorEPKcS2_ to i8*)] }, align 8
@_ZGVZN13GrShaderUtils25DefaultShaderErrorHandlerEvE8gHandler = internal global i64 0, align 8
@.str.3 = private unnamed_addr constant [8 x i8] c"Unknown\00", align 1
@.str.4 = private unnamed_addr constant [7 x i8] c"Vertex\00", align 1
@.str.5 = private unnamed_addr constant [9 x i8] c"Geometry\00", align 1
@.str.6 = private unnamed_addr constant [9 x i8] c"Fragment\00", align 1
@.str.7 = private unnamed_addr constant [49 x i8] c"../../third_party/skia/src/gpu/GrShaderUtils.cpp\00", align 1
@.str.8 = private unnamed_addr constant [69 x i8] c"---- %s shader ----------------------------------------------------\0A\00", align 1
@.str.9 = private unnamed_addr constant [2 x i8] c"#\00", align 1
@.str.10 = private unnamed_addr constant [3 x i8] c"//\00", align 1
@.str.11 = private unnamed_addr constant [3 x i8] c"/*\00", align 1
@.str.12 = private unnamed_addr constant [3 x i8] c"*/\00", align 1
@.str.13 = private unnamed_addr constant [2 x i8] c")\00", align 1
@.str.14 = private unnamed_addr constant [2 x i8] c"(\00", align 1
@.str.15 = private unnamed_addr constant [2 x i8] c";\00", align 1
@.str.16 = private unnamed_addr constant [3 x i8] c"%c\00", align 1
@.str.17 = private unnamed_addr constant [2 x i8] c"\09\00", align 1
@.str.19 = private unnamed_addr constant [8 x i8] c"%4i\09%s\0A\00", align 1
@"_ZZNSt3__110__function8__policy15__choose_policyINS0_20__default_alloc_funcIZN13GrShaderUtils23BuildShaderErrorMessageEPKcS6_E3$_0FviS6_EEEEEPKS1_NS_17integral_constantIbLb1EEEE9__policy_" = internal constant %"struct.std::__1::__function::__policy" zeroinitializer, align 8
@.str.20 = private unnamed_addr constant [4 x i8] c"%s\0A\00", align 1
@_ZZNSt3__110__function8__policy15__choose_policyINS0_20__default_alloc_funcIZZN13GrShaderUtils25DefaultShaderErrorHandlerEvEN27GrDefaultShaderErrorHandler12compileErrorEPKcS7_EUliS7_E_FviS7_EEEEEPKS1_NS_17integral_constantIbLb1EEEE9__policy_ = internal constant %"struct.std::__1::__function::__policy" zeroinitializer, align 8
@switch.table._ZN13GrShaderUtils17PrintShaderBannerEN4SkSL11ProgramKindE = private unnamed_addr constant [3 x i8*] [i8* getelementptr inbounds ([9 x i8], [9 x i8]* @.str.6, i64 0, i64 0), i8* getelementptr inbounds ([7 x i8], [7 x i8]* @.str.4, i64 0, i64 0), i8* getelementptr inbounds ([9 x i8], [9 x i8]* @.str.5, i64 0, i64 0)], align 8

; Function Attrs: nounwind ssp uwtable
define hidden void @_ZN13GrShaderUtils11PrettyPrintERKN4SkSL6StringE(%"class.SkSL::String"* noalias sret, %"class.SkSL::String"* dereferenceable(24)) local_unnamed_addr #0 {
  %3 = alloca %"class.GrShaderUtils::GLSLPrettyPrint", align 8
  %4 = getelementptr inbounds %"class.GrShaderUtils::GLSLPrettyPrint", %"class.GrShaderUtils::GLSLPrettyPrint"* %3, i64 0, i32 0
  call void @llvm.lifetime.start.p0i8(i64 72, i8* nonnull %4) #11
  call void @llvm.memset.p0i8.i64(i8* nonnull align 8 %4, i8 -86, i64 72, i1 false)
  %5 = getelementptr inbounds %"class.GrShaderUtils::GLSLPrettyPrint", %"class.GrShaderUtils::GLSLPrettyPrint"* %3, i64 0, i32 5
  %6 = bitcast %"class.SkSL::String"* %5 to i8*
  call void @llvm.memset.p0i8.i64(i8* align 8 %6, i8 0, i64 24, i1 false) #11
  call void @_ZN13GrShaderUtils15GLSLPrettyPrint8prettifyERKN4SkSL6StringE(%"class.SkSL::String"* sret %0, %"class.GrShaderUtils::GLSLPrettyPrint"* nonnull %3, %"class.SkSL::String"* dereferenceable(24) %1)
  %7 = getelementptr inbounds %"class.GrShaderUtils::GLSLPrettyPrint", %"class.GrShaderUtils::GLSLPrettyPrint"* %3, i64 0, i32 5, i32 0
  %8 = bitcast %"class.std::__1::basic_string"* %7 to %"struct.std::__1::basic_string<char, std::__1::char_traits<char>, std::__1::allocator<char> >::__short"*
  %9 = getelementptr inbounds %"struct.std::__1::basic_string<char, std::__1::char_traits<char>, std::__1::allocator<char> >::__short", %"struct.std::__1::basic_string<char, std::__1::char_traits<char>, std::__1::allocator<char> >::__short"* %8, i64 0, i32 1, i32 0
  %10 = load i8, i8* %9, align 1
  %11 = icmp slt i8 %10, 0
  br i1 %11, label %12, label %15

12:                                               ; preds = %2
  %13 = getelementptr inbounds %"class.std::__1::basic_string", %"class.std::__1::basic_string"* %7, i64 0, i32 0, i32 0, i32 0, i32 0, i32 0, i32 0
  %14 = load i8*, i8** %13, align 8
  call void @_ZdlPv(i8* %14) #12
  br label %15

15:                                               ; preds = %2, %12
  call void @llvm.lifetime.end.p0i8(i64 72, i8* nonnull %4) #11
  ret void
}

; Function Attrs: argmemonly nounwind
declare void @llvm.lifetime.start.p0i8(i64 immarg, i8* nocapture) #1

; Function Attrs: argmemonly nounwind
declare void @llvm.memset.p0i8.i64(i8* nocapture writeonly, i8, i64, i1 immarg) #1

; Function Attrs: nounwind ssp uwtable
define linkonce_odr hidden void @_ZN13GrShaderUtils15GLSLPrettyPrint8prettifyERKN4SkSL6StringE(%"class.SkSL::String"* noalias sret, %"class.GrShaderUtils::GLSLPrettyPrint"*, %"class.SkSL::String"* dereferenceable(24)) local_unnamed_addr #0 comdat align 2 {
  %4 = getelementptr inbounds %"class.GrShaderUtils::GLSLPrettyPrint", %"class.GrShaderUtils::GLSLPrettyPrint"* %1, i64 0, i32 1
  store i32 0, i32* %4, align 4
  %5 = getelementptr inbounds %"class.GrShaderUtils::GLSLPrettyPrint", %"class.GrShaderUtils::GLSLPrettyPrint"* %1, i64 0, i32 0
  store i8 1, i8* %5, align 8
  %6 = getelementptr inbounds %"class.GrShaderUtils::GLSLPrettyPrint", %"class.GrShaderUtils::GLSLPrettyPrint"* %1, i64 0, i32 6
  store i8 0, i8* %6, align 8
  %7 = getelementptr inbounds %"class.GrShaderUtils::GLSLPrettyPrint", %"class.GrShaderUtils::GLSLPrettyPrint"* %1, i64 0, i32 7
  store i8 0, i8* %7, align 1
  %8 = getelementptr inbounds %"class.GrShaderUtils::GLSLPrettyPrint", %"class.GrShaderUtils::GLSLPrettyPrint"* %1, i64 0, i32 2
  store i64 0, i64* %8, align 8
  %9 = bitcast %"class.SkSL::String"* %2 to %"struct.std::__1::basic_string<char, std::__1::char_traits<char>, std::__1::allocator<char> >::__short"*
  %10 = getelementptr inbounds %"struct.std::__1::basic_string<char, std::__1::char_traits<char>, std::__1::allocator<char> >::__short", %"struct.std::__1::basic_string<char, std::__1::char_traits<char>, std::__1::allocator<char> >::__short"* %9, i64 0, i32 1, i32 0
  %11 = load i8, i8* %10, align 1
  %12 = icmp slt i8 %11, 0
  %13 = getelementptr inbounds %"class.SkSL::String", %"class.SkSL::String"* %2, i64 0, i32 0, i32 0, i32 0, i32 0, i32 0, i32 0, i32 1
  %14 = load i64, i64* %13, align 8
  %15 = zext i8 %11 to i64
  %16 = select i1 %12, i64 %14, i64 %15
  %17 = getelementptr inbounds %"class.GrShaderUtils::GLSLPrettyPrint", %"class.GrShaderUtils::GLSLPrettyPrint"* %1, i64 0, i32 3
  store i64 %16, i64* %17, align 8
  %18 = load i8, i8* %10, align 1
  %19 = icmp slt i8 %18, 0
  %20 = getelementptr inbounds %"class.SkSL::String", %"class.SkSL::String"* %2, i64 0, i32 0, i32 0, i32 0, i32 0, i32 0, i32 0, i32 0
  %21 = load i8*, i8** %20, align 8
  %22 = bitcast %"class.SkSL::String"* %2 to i8*
  %23 = select i1 %19, i8* %21, i8* %22
  %24 = getelementptr inbounds %"class.GrShaderUtils::GLSLPrettyPrint", %"class.GrShaderUtils::GLSLPrettyPrint"* %1, i64 0, i32 4
  store i8* %23, i8** %24, align 8
  %25 = icmp eq i64 %16, 0
  br i1 %25, label %285, label %26

26:                                               ; preds = %3
  %27 = getelementptr inbounds %"class.GrShaderUtils::GLSLPrettyPrint", %"class.GrShaderUtils::GLSLPrettyPrint"* %1, i64 0, i32 5
  %28 = getelementptr inbounds %"class.GrShaderUtils::GLSLPrettyPrint", %"class.GrShaderUtils::GLSLPrettyPrint"* %1, i64 0, i32 5, i32 0
  %29 = getelementptr inbounds %"class.GrShaderUtils::GLSLPrettyPrint", %"class.GrShaderUtils::GLSLPrettyPrint"* %1, i64 0, i32 8
  br label %30

30:                                               ; preds = %283, %26
  %31 = phi i8 [ 0, %26 ], [ %284, %283 ]
  %32 = phi i64 [ 0, %26 ], [ %281, %283 ]
  %33 = phi i64 [ %16, %26 ], [ %280, %283 ]
  %34 = phi i32 [ 0, %26 ], [ %279, %283 ]
  %35 = icmp eq i8 %31, 0
  br i1 %35, label %55, label %36

36:                                               ; preds = %30, %49
  %37 = phi i64 [ %53, %49 ], [ %32, %30 ]
  %38 = load i8*, i8** %24, align 8
  %39 = getelementptr inbounds i8, i8* %38, i64 %37
  %40 = load i8, i8* %39, align 1
  %41 = icmp eq i8 %40, 10
  %42 = add nuw i64 %37, 1
  store i64 %42, i64* %8, align 8
  br i1 %41, label %43, label %49

43:                                               ; preds = %36
  %44 = load i8, i8* %5, align 8, !range !2
  %45 = icmp eq i8 %44, 0
  br i1 %45, label %46, label %48

46:                                               ; preds = %43
  store i8 1, i8* %5, align 8
  %47 = tail call dereferenceable(24) %"class.std::__1::basic_string"* @_ZNSt3__112basic_stringIcNS_11char_traitsIcEENS_9allocatorIcEEE6appendEPKc(%"class.std::__1::basic_string"* %28, i8* getelementptr inbounds ([2 x i8], [2 x i8]* @.str, i64 0, i64 0)) #11
  br label %48

48:                                               ; preds = %46, %43
  store i8 0, i8* %6, align 8
  br label %278

49:                                               ; preds = %36
  %50 = load i8, i8* %39, align 1
  %51 = sext i8 %50 to i32
  tail call void (%"class.SkSL::String"*, i8*, ...) @_ZN4SkSL6String7appendfEPKcz(%"class.SkSL::String"* %27, i8* getelementptr inbounds ([3 x i8], [3 x i8]* @.str.16, i64 0, i64 0), i32 %51) #11
  store i8 1, i8* %6, align 8
  %52 = load i64, i64* %17, align 8
  %53 = load i64, i64* %8, align 8
  %54 = icmp ugt i64 %52, %53
  br i1 %54, label %36, label %278

55:                                               ; preds = %30
  %56 = load i8, i8* %7, align 1, !range !2
  %57 = icmp eq i8 %56, 0
  br i1 %57, label %58, label %60

58:                                               ; preds = %55
  %59 = icmp ult i64 %32, %33
  br i1 %59, label %62, label %68

60:                                               ; preds = %55
  %61 = load i8*, i8** %29, align 8
  tail call void @_ZN13GrShaderUtils15GLSLPrettyPrint10parseUntilEPKc(%"class.GrShaderUtils::GLSLPrettyPrint"* %1, i8* %61)
  br label %278

62:                                               ; preds = %58
  %63 = load i8*, i8** %24, align 8
  %64 = getelementptr inbounds i8, i8* %63, i64 %32
  %65 = load i8, i8* %64, align 1
  switch i8 %65, label %227 [
    i8 35, label %66
    i8 47, label %81
    i8 123, label %141
    i8 125, label %167
    i8 41, label %195
    i8 40, label %211
  ]

66:                                               ; preds = %62
  %67 = add nuw i64 %32, 1
  br label %68

68:                                               ; preds = %66, %58
  %69 = phi i64 [ %32, %58 ], [ %67, %66 ]
  %70 = load i8, i8* %5, align 8, !range !2
  %71 = icmp eq i8 %70, 0
  br i1 %71, label %97, label %72

72:                                               ; preds = %68
  %73 = load i32, i32* %4, align 4
  %74 = icmp sgt i32 %73, 0
  br i1 %74, label %75, label %97

75:                                               ; preds = %72, %75
  %76 = phi i32 [ %78, %75 ], [ 0, %72 ]
  %77 = tail call dereferenceable(24) %"class.std::__1::basic_string"* @_ZNSt3__112basic_stringIcNS_11char_traitsIcEENS_9allocatorIcEEE6appendEPKc(%"class.std::__1::basic_string"* %28, i8* getelementptr inbounds ([2 x i8], [2 x i8]* @.str.17, i64 0, i64 0)) #11
  %78 = add nuw nsw i32 %76, 1
  %79 = load i32, i32* %4, align 4
  %80 = icmp slt i32 %78, %79
  br i1 %80, label %75, label %97

81:                                               ; preds = %62
  %82 = add nuw i64 %32, 1
  %83 = icmp ugt i64 %33, %82
  br i1 %83, label %301, label %84

84:                                               ; preds = %305, %81
  %85 = phi i64 [ %82, %81 ], [ %306, %305 ]
  %86 = load i8, i8* %5, align 8, !range !2
  %87 = icmp eq i8 %86, 0
  br i1 %87, label %97, label %88

88:                                               ; preds = %84
  %89 = load i32, i32* %4, align 4
  %90 = icmp sgt i32 %89, 0
  br i1 %90, label %91, label %97

91:                                               ; preds = %88, %91
  %92 = phi i32 [ %94, %91 ], [ 0, %88 ]
  %93 = tail call dereferenceable(24) %"class.std::__1::basic_string"* @_ZNSt3__112basic_stringIcNS_11char_traitsIcEENS_9allocatorIcEEE6appendEPKc(%"class.std::__1::basic_string"* %28, i8* getelementptr inbounds ([2 x i8], [2 x i8]* @.str.17, i64 0, i64 0)) #11
  %94 = add nuw nsw i32 %92, 1
  %95 = load i32, i32* %4, align 4
  %96 = icmp slt i32 %94, %95
  br i1 %96, label %91, label %97

97:                                               ; preds = %91, %75, %88, %84, %72, %68
  %98 = phi i64 [ %69, %68 ], [ %69, %72 ], [ %85, %84 ], [ %85, %88 ], [ %69, %75 ], [ %85, %91 ]
  %99 = phi i8* [ getelementptr inbounds ([2 x i8], [2 x i8]* @.str.9, i64 0, i64 0), %68 ], [ getelementptr inbounds ([2 x i8], [2 x i8]* @.str.9, i64 0, i64 0), %72 ], [ getelementptr inbounds ([3 x i8], [3 x i8]* @.str.10, i64 0, i64 0), %84 ], [ getelementptr inbounds ([3 x i8], [3 x i8]* @.str.10, i64 0, i64 0), %88 ], [ getelementptr inbounds ([2 x i8], [2 x i8]* @.str.9, i64 0, i64 0), %75 ], [ getelementptr inbounds ([3 x i8], [3 x i8]* @.str.10, i64 0, i64 0), %91 ]
  store i64 %98, i64* %8, align 8
  %100 = tail call dereferenceable(24) %"class.std::__1::basic_string"* @_ZNSt3__112basic_stringIcNS_11char_traitsIcEENS_9allocatorIcEEE6appendEPKc(%"class.std::__1::basic_string"* %28, i8* %99) #11
  store i8 0, i8* %5, align 8
  %101 = load i64, i64* %17, align 8
  %102 = load i64, i64* %8, align 8
  %103 = icmp ugt i64 %101, %102
  br i1 %103, label %104, label %278

104:                                              ; preds = %97, %117
  %105 = phi i64 [ %121, %117 ], [ %102, %97 ]
  %106 = load i8*, i8** %24, align 8
  %107 = getelementptr inbounds i8, i8* %106, i64 %105
  %108 = load i8, i8* %107, align 1
  %109 = icmp eq i8 %108, 10
  %110 = add nuw i64 %105, 1
  store i64 %110, i64* %8, align 8
  br i1 %109, label %111, label %117

111:                                              ; preds = %104
  %112 = load i8, i8* %5, align 8, !range !2
  %113 = icmp eq i8 %112, 0
  br i1 %113, label %114, label %116

114:                                              ; preds = %111
  store i8 1, i8* %5, align 8
  %115 = tail call dereferenceable(24) %"class.std::__1::basic_string"* @_ZNSt3__112basic_stringIcNS_11char_traitsIcEENS_9allocatorIcEEE6appendEPKc(%"class.std::__1::basic_string"* %28, i8* getelementptr inbounds ([2 x i8], [2 x i8]* @.str, i64 0, i64 0)) #11
  br label %116

116:                                              ; preds = %114, %111
  store i8 0, i8* %6, align 8
  br label %278

117:                                              ; preds = %104
  %118 = load i8, i8* %107, align 1
  %119 = sext i8 %118 to i32
  tail call void (%"class.SkSL::String"*, i8*, ...) @_ZN4SkSL6String7appendfEPKcz(%"class.SkSL::String"* %27, i8* getelementptr inbounds ([3 x i8], [3 x i8]* @.str.16, i64 0, i64 0), i32 %119) #11
  store i8 1, i8* %6, align 8
  %120 = load i64, i64* %17, align 8
  %121 = load i64, i64* %8, align 8
  %122 = icmp ugt i64 %120, %121
  br i1 %122, label %104, label %278

123:                                              ; preds = %301
  %124 = add nuw i64 %32, 1
  %125 = icmp ugt i64 %33, %124
  br i1 %125, label %307, label %126

126:                                              ; preds = %311, %123
  %127 = phi i64 [ %124, %123 ], [ %312, %311 ]
  %128 = load i8, i8* %5, align 8, !range !2
  %129 = icmp eq i8 %128, 0
  br i1 %129, label %139, label %130

130:                                              ; preds = %126
  %131 = load i32, i32* %4, align 4
  %132 = icmp sgt i32 %131, 0
  br i1 %132, label %133, label %139

133:                                              ; preds = %130, %133
  %134 = phi i32 [ %136, %133 ], [ 0, %130 ]
  %135 = tail call dereferenceable(24) %"class.std::__1::basic_string"* @_ZNSt3__112basic_stringIcNS_11char_traitsIcEENS_9allocatorIcEEE6appendEPKc(%"class.std::__1::basic_string"* %28, i8* getelementptr inbounds ([2 x i8], [2 x i8]* @.str.17, i64 0, i64 0)) #11
  %136 = add nuw nsw i32 %134, 1
  %137 = load i32, i32* %4, align 4
  %138 = icmp slt i32 %136, %137
  br i1 %138, label %133, label %139

139:                                              ; preds = %133, %126, %130
  store i64 %127, i64* %8, align 8
  %140 = tail call dereferenceable(24) %"class.std::__1::basic_string"* @_ZNSt3__112basic_stringIcNS_11char_traitsIcEENS_9allocatorIcEEE6appendEPKc(%"class.std::__1::basic_string"* %28, i8* getelementptr inbounds ([3 x i8], [3 x i8]* @.str.11, i64 0, i64 0)) #11
  store i8 0, i8* %5, align 8
  tail call void @_ZN13GrShaderUtils15GLSLPrettyPrint10parseUntilEPKc(%"class.GrShaderUtils::GLSLPrettyPrint"* %1, i8* getelementptr inbounds ([3 x i8], [3 x i8]* @.str.12, i64 0, i64 0))
  br label %278

141:                                              ; preds = %62
  %142 = load i8, i8* %5, align 8, !range !2
  %143 = icmp eq i8 %142, 0
  br i1 %143, label %144, label %148

144:                                              ; preds = %141
  store i8 1, i8* %5, align 8
  %145 = tail call dereferenceable(24) %"class.std::__1::basic_string"* @_ZNSt3__112basic_stringIcNS_11char_traitsIcEENS_9allocatorIcEEE6appendEPKc(%"class.std::__1::basic_string"* %28, i8* getelementptr inbounds ([2 x i8], [2 x i8]* @.str, i64 0, i64 0)) #11
  %146 = load i8, i8* %5, align 8
  %147 = icmp eq i8 %146, 0
  br i1 %147, label %157, label %148

148:                                              ; preds = %141, %144
  %149 = load i32, i32* %4, align 4
  %150 = icmp sgt i32 %149, 0
  br i1 %150, label %151, label %157

151:                                              ; preds = %148, %151
  %152 = phi i32 [ %154, %151 ], [ 0, %148 ]
  %153 = tail call dereferenceable(24) %"class.std::__1::basic_string"* @_ZNSt3__112basic_stringIcNS_11char_traitsIcEENS_9allocatorIcEEE6appendEPKc(%"class.std::__1::basic_string"* %28, i8* getelementptr inbounds ([2 x i8], [2 x i8]* @.str.17, i64 0, i64 0)) #11
  %154 = add nuw nsw i32 %152, 1
  %155 = load i32, i32* %4, align 4
  %156 = icmp slt i32 %154, %155
  br i1 %156, label %151, label %157

157:                                              ; preds = %151, %144, %148
  %158 = load i8*, i8** %24, align 8
  %159 = load i64, i64* %8, align 8
  %160 = add i64 %159, 1
  store i64 %160, i64* %8, align 8
  %161 = getelementptr inbounds i8, i8* %158, i64 %159
  %162 = load i8, i8* %161, align 1
  %163 = sext i8 %162 to i32
  tail call void (%"class.SkSL::String"*, i8*, ...) @_ZN4SkSL6String7appendfEPKcz(%"class.SkSL::String"* %27, i8* getelementptr inbounds ([3 x i8], [3 x i8]* @.str.16, i64 0, i64 0), i32 %163) #11
  %164 = load i32, i32* %4, align 4
  %165 = add nsw i32 %164, 1
  store i32 %165, i32* %4, align 4
  store i8 1, i8* %5, align 8
  %166 = tail call dereferenceable(24) %"class.std::__1::basic_string"* @_ZNSt3__112basic_stringIcNS_11char_traitsIcEENS_9allocatorIcEEE6appendEPKc(%"class.std::__1::basic_string"* %28, i8* getelementptr inbounds ([2 x i8], [2 x i8]* @.str, i64 0, i64 0)) #11
  br label %278

167:                                              ; preds = %62
  %168 = load i32, i32* %4, align 4
  %169 = add nsw i32 %168, -1
  store i32 %169, i32* %4, align 4
  %170 = load i8, i8* %5, align 8, !range !2
  %171 = icmp eq i8 %170, 0
  br i1 %171, label %172, label %178

172:                                              ; preds = %167
  store i8 1, i8* %5, align 8
  %173 = tail call dereferenceable(24) %"class.std::__1::basic_string"* @_ZNSt3__112basic_stringIcNS_11char_traitsIcEENS_9allocatorIcEEE6appendEPKc(%"class.std::__1::basic_string"* %28, i8* getelementptr inbounds ([2 x i8], [2 x i8]* @.str, i64 0, i64 0)) #11
  %174 = load i8, i8* %5, align 8
  %175 = icmp eq i8 %174, 0
  br i1 %175, label %187, label %176

176:                                              ; preds = %172
  %177 = load i32, i32* %4, align 4
  br label %178

178:                                              ; preds = %167, %176
  %179 = phi i32 [ %177, %176 ], [ %169, %167 ]
  %180 = icmp sgt i32 %179, 0
  br i1 %180, label %181, label %187

181:                                              ; preds = %178, %181
  %182 = phi i32 [ %184, %181 ], [ 0, %178 ]
  %183 = tail call dereferenceable(24) %"class.std::__1::basic_string"* @_ZNSt3__112basic_stringIcNS_11char_traitsIcEENS_9allocatorIcEEE6appendEPKc(%"class.std::__1::basic_string"* %28, i8* getelementptr inbounds ([2 x i8], [2 x i8]* @.str.17, i64 0, i64 0)) #11
  %184 = add nuw nsw i32 %182, 1
  %185 = load i32, i32* %4, align 4
  %186 = icmp slt i32 %184, %185
  br i1 %186, label %181, label %187

187:                                              ; preds = %181, %172, %178
  %188 = load i8*, i8** %24, align 8
  %189 = load i64, i64* %8, align 8
  %190 = add i64 %189, 1
  store i64 %190, i64* %8, align 8
  %191 = getelementptr inbounds i8, i8* %188, i64 %189
  %192 = load i8, i8* %191, align 1
  %193 = sext i8 %192 to i32
  tail call void (%"class.SkSL::String"*, i8*, ...) @_ZN4SkSL6String7appendfEPKcz(%"class.SkSL::String"* %27, i8* getelementptr inbounds ([3 x i8], [3 x i8]* @.str.16, i64 0, i64 0), i32 %193) #11
  store i8 1, i8* %5, align 8
  %194 = tail call dereferenceable(24) %"class.std::__1::basic_string"* @_ZNSt3__112basic_stringIcNS_11char_traitsIcEENS_9allocatorIcEEE6appendEPKc(%"class.std::__1::basic_string"* %28, i8* getelementptr inbounds ([2 x i8], [2 x i8]* @.str, i64 0, i64 0)) #11
  br label %278

195:                                              ; preds = %62
  %196 = add nuw i64 %32, 1
  %197 = load i8, i8* %5, align 8, !range !2
  %198 = icmp eq i8 %197, 0
  br i1 %198, label %208, label %199

199:                                              ; preds = %195
  %200 = load i32, i32* %4, align 4
  %201 = icmp sgt i32 %200, 0
  br i1 %201, label %202, label %208

202:                                              ; preds = %199, %202
  %203 = phi i32 [ %205, %202 ], [ 0, %199 ]
  %204 = tail call dereferenceable(24) %"class.std::__1::basic_string"* @_ZNSt3__112basic_stringIcNS_11char_traitsIcEENS_9allocatorIcEEE6appendEPKc(%"class.std::__1::basic_string"* %28, i8* getelementptr inbounds ([2 x i8], [2 x i8]* @.str.17, i64 0, i64 0)) #11
  %205 = add nuw nsw i32 %203, 1
  %206 = load i32, i32* %4, align 4
  %207 = icmp slt i32 %205, %206
  br i1 %207, label %202, label %208

208:                                              ; preds = %202, %195, %199
  store i64 %196, i64* %8, align 8
  %209 = tail call dereferenceable(24) %"class.std::__1::basic_string"* @_ZNSt3__112basic_stringIcNS_11char_traitsIcEENS_9allocatorIcEEE6appendEPKc(%"class.std::__1::basic_string"* %28, i8* getelementptr inbounds ([2 x i8], [2 x i8]* @.str.13, i64 0, i64 0)) #11
  store i8 0, i8* %5, align 8
  %210 = add nsw i32 %34, -1
  br label %278

211:                                              ; preds = %62
  %212 = add nuw i64 %32, 1
  %213 = load i8, i8* %5, align 8, !range !2
  %214 = icmp eq i8 %213, 0
  br i1 %214, label %224, label %215

215:                                              ; preds = %211
  %216 = load i32, i32* %4, align 4
  %217 = icmp sgt i32 %216, 0
  br i1 %217, label %218, label %224

218:                                              ; preds = %215, %218
  %219 = phi i32 [ %221, %218 ], [ 0, %215 ]
  %220 = tail call dereferenceable(24) %"class.std::__1::basic_string"* @_ZNSt3__112basic_stringIcNS_11char_traitsIcEENS_9allocatorIcEEE6appendEPKc(%"class.std::__1::basic_string"* %28, i8* getelementptr inbounds ([2 x i8], [2 x i8]* @.str.17, i64 0, i64 0)) #11
  %221 = add nuw nsw i32 %219, 1
  %222 = load i32, i32* %4, align 4
  %223 = icmp slt i32 %221, %222
  br i1 %223, label %218, label %224

224:                                              ; preds = %218, %211, %215
  store i64 %212, i64* %8, align 8
  %225 = tail call dereferenceable(24) %"class.std::__1::basic_string"* @_ZNSt3__112basic_stringIcNS_11char_traitsIcEENS_9allocatorIcEEE6appendEPKc(%"class.std::__1::basic_string"* %28, i8* getelementptr inbounds ([2 x i8], [2 x i8]* @.str.14, i64 0, i64 0)) #11
  store i8 0, i8* %5, align 8
  %226 = add nsw i32 %34, 1
  br label %278

227:                                              ; preds = %62, %307
  %228 = icmp eq i32 %34, 0
  %229 = icmp eq i8 %65, 59
  %230 = and i1 %228, %229
  br i1 %230, label %231, label %247

231:                                              ; preds = %227
  %232 = add nuw i64 %32, 1
  %233 = load i8, i8* %5, align 8, !range !2
  %234 = icmp eq i8 %233, 0
  br i1 %234, label %244, label %235

235:                                              ; preds = %231
  %236 = load i32, i32* %4, align 4
  %237 = icmp sgt i32 %236, 0
  br i1 %237, label %238, label %244

238:                                              ; preds = %235, %238
  %239 = phi i32 [ %241, %238 ], [ 0, %235 ]
  %240 = tail call dereferenceable(24) %"class.std::__1::basic_string"* @_ZNSt3__112basic_stringIcNS_11char_traitsIcEENS_9allocatorIcEEE6appendEPKc(%"class.std::__1::basic_string"* %28, i8* getelementptr inbounds ([2 x i8], [2 x i8]* @.str.17, i64 0, i64 0)) #11
  %241 = add nuw nsw i32 %239, 1
  %242 = load i32, i32* %4, align 4
  %243 = icmp slt i32 %241, %242
  br i1 %243, label %238, label %244

244:                                              ; preds = %238, %231, %235
  store i64 %232, i64* %8, align 8
  %245 = tail call dereferenceable(24) %"class.std::__1::basic_string"* @_ZNSt3__112basic_stringIcNS_11char_traitsIcEENS_9allocatorIcEEE6appendEPKc(%"class.std::__1::basic_string"* %28, i8* getelementptr inbounds ([2 x i8], [2 x i8]* @.str.15, i64 0, i64 0)) #11
  store i8 1, i8* %5, align 8
  %246 = tail call dereferenceable(24) %"class.std::__1::basic_string"* @_ZNSt3__112basic_stringIcNS_11char_traitsIcEENS_9allocatorIcEEE6appendEPKc(%"class.std::__1::basic_string"* %28, i8* getelementptr inbounds ([2 x i8], [2 x i8]* @.str, i64 0, i64 0)) #11
  br label %278

247:                                              ; preds = %227
  %248 = add i8 %65, -9
  %249 = icmp ult i8 %248, 2
  br i1 %249, label %255, label %250

250:                                              ; preds = %247
  %251 = load i8, i8* %5, align 8, !range !2
  %252 = icmp ne i8 %251, 0
  %253 = icmp eq i8 %65, 32
  %254 = and i1 %253, %252
  br i1 %254, label %255, label %257

255:                                              ; preds = %247, %250
  %256 = add nuw i64 %32, 1
  store i64 %256, i64* %8, align 8
  br label %278

257:                                              ; preds = %250
  %258 = icmp eq i8 %251, 0
  br i1 %258, label %271, label %259

259:                                              ; preds = %257
  %260 = load i32, i32* %4, align 4
  %261 = icmp sgt i32 %260, 0
  br i1 %261, label %262, label %271

262:                                              ; preds = %259, %262
  %263 = phi i32 [ %265, %262 ], [ 0, %259 ]
  %264 = tail call dereferenceable(24) %"class.std::__1::basic_string"* @_ZNSt3__112basic_stringIcNS_11char_traitsIcEENS_9allocatorIcEEE6appendEPKc(%"class.std::__1::basic_string"* %28, i8* getelementptr inbounds ([2 x i8], [2 x i8]* @.str.17, i64 0, i64 0)) #11
  %265 = add nuw nsw i32 %263, 1
  %266 = load i32, i32* %4, align 4
  %267 = icmp slt i32 %265, %266
  br i1 %267, label %262, label %268

268:                                              ; preds = %262
  %269 = load i8*, i8** %24, align 8
  %270 = load i64, i64* %8, align 8
  br label %271

271:                                              ; preds = %268, %257, %259
  %272 = phi i64 [ %270, %268 ], [ %32, %257 ], [ %32, %259 ]
  %273 = phi i8* [ %269, %268 ], [ %63, %257 ], [ %63, %259 ]
  %274 = add i64 %272, 1
  store i64 %274, i64* %8, align 8
  %275 = getelementptr inbounds i8, i8* %273, i64 %272
  %276 = load i8, i8* %275, align 1
  %277 = sext i8 %276 to i32
  tail call void (%"class.SkSL::String"*, i8*, ...) @_ZN4SkSL6String7appendfEPKcz(%"class.SkSL::String"* %27, i8* getelementptr inbounds ([3 x i8], [3 x i8]* @.str.16, i64 0, i64 0), i32 %277) #11
  store i8 0, i8* %5, align 8
  br label %278

278:                                              ; preds = %49, %117, %116, %97, %48, %60, %139, %187, %224, %255, %271, %244, %208, %157
  %279 = phi i32 [ %34, %60 ], [ %34, %139 ], [ %34, %157 ], [ %34, %187 ], [ %210, %208 ], [ %226, %224 ], [ %34, %255 ], [ %34, %271 ], [ 0, %244 ], [ %34, %48 ], [ %34, %97 ], [ %34, %116 ], [ %34, %117 ], [ %34, %49 ]
  %280 = load i64, i64* %17, align 8
  %281 = load i64, i64* %8, align 8
  %282 = icmp ugt i64 %280, %281
  br i1 %282, label %283, label %285

283:                                              ; preds = %278
  %284 = load i8, i8* %6, align 8, !range !2
  br label %30

285:                                              ; preds = %278, %3
  %286 = getelementptr inbounds %"class.GrShaderUtils::GLSLPrettyPrint", %"class.GrShaderUtils::GLSLPrettyPrint"* %1, i64 0, i32 5
  %287 = bitcast %"class.SkSL::String"* %286 to %"struct.std::__1::basic_string<char, std::__1::char_traits<char>, std::__1::allocator<char> >::__short"*
  %288 = getelementptr inbounds %"struct.std::__1::basic_string<char, std::__1::char_traits<char>, std::__1::allocator<char> >::__short", %"struct.std::__1::basic_string<char, std::__1::char_traits<char>, std::__1::allocator<char> >::__short"* %287, i64 0, i32 1, i32 0
  %289 = load i8, i8* %288, align 1
  %290 = icmp slt i8 %289, 0
  br i1 %290, label %294, label %291

291:                                              ; preds = %285
  %292 = bitcast %"class.SkSL::String"* %0 to i8*
  %293 = bitcast %"class.SkSL::String"* %286 to i8*
  tail call void @llvm.memcpy.p0i8.p0i8.i64(i8* align 8 %292, i8* align 8 %293, i64 24, i1 false) #11
  br label %300

294:                                              ; preds = %285
  %295 = getelementptr inbounds %"class.SkSL::String", %"class.SkSL::String"* %0, i64 0, i32 0
  %296 = getelementptr inbounds %"class.SkSL::String", %"class.SkSL::String"* %286, i64 0, i32 0, i32 0, i32 0, i32 0, i32 0, i32 0, i32 0
  %297 = load i8*, i8** %296, align 8
  %298 = getelementptr inbounds %"class.GrShaderUtils::GLSLPrettyPrint", %"class.GrShaderUtils::GLSLPrettyPrint"* %1, i64 0, i32 5, i32 0, i32 0, i32 0, i32 0, i32 0, i32 0, i32 1
  %299 = load i64, i64* %298, align 8
  tail call void @_ZNSt3__112basic_stringIcNS_11char_traitsIcEENS_9allocatorIcEEE25__init_copy_ctor_externalEPKcm(%"class.std::__1::basic_string"* %295, i8* %297, i64 %299) #11
  br label %300

300:                                              ; preds = %291, %294
  ret void

301:                                              ; preds = %81
  %302 = getelementptr inbounds i8, i8* %63, i64 %82
  %303 = load i8, i8* %302, align 1
  %304 = icmp eq i8 %303, 47
  br i1 %304, label %305, label %123

305:                                              ; preds = %301
  %306 = add nuw i64 %32, 2
  br label %84

307:                                              ; preds = %123
  %308 = getelementptr inbounds i8, i8* %63, i64 %124
  %309 = load i8, i8* %308, align 1
  %310 = icmp eq i8 %309, 42
  br i1 %310, label %311, label %227

311:                                              ; preds = %307
  %312 = add nuw i64 %32, 2
  br label %126
}

; Function Attrs: argmemonly nounwind
declare void @llvm.lifetime.end.p0i8(i64 immarg, i8* nocapture) #1

; Function Attrs: nounwind ssp uwtable
define hidden void @_ZN13GrShaderUtils15VisitLineByLineERKN4SkSL6StringERKNSt3__18functionIFviPKcEEE(%"class.SkSL::String"* dereferenceable(24), %"class.std::__1::function"* dereferenceable(32)) local_unnamed_addr #0 {
  %3 = alloca %class.SkTArray, align 8
  %4 = bitcast %class.SkTArray* %3 to i8*
  call void @llvm.lifetime.start.p0i8(i64 16, i8* nonnull %4) #11
  %5 = getelementptr inbounds %class.SkTArray, %class.SkTArray* %3, i64 0, i32 0
  %6 = getelementptr inbounds %class.SkTArray, %class.SkTArray* %3, i64 0, i32 1
  store %class.SkString* null, %class.SkString** %5, align 8
  store i64 1, i64* %6, align 8
  %7 = bitcast %"class.SkSL::String"* %0 to %"struct.std::__1::basic_string<char, std::__1::char_traits<char>, std::__1::allocator<char> >::__short"*
  %8 = getelementptr inbounds %"struct.std::__1::basic_string<char, std::__1::char_traits<char>, std::__1::allocator<char> >::__short", %"struct.std::__1::basic_string<char, std::__1::char_traits<char>, std::__1::allocator<char> >::__short"* %7, i64 0, i32 1, i32 0
  %9 = load i8, i8* %8, align 1
  %10 = icmp slt i8 %9, 0
  %11 = getelementptr inbounds %"class.SkSL::String", %"class.SkSL::String"* %0, i64 0, i32 0, i32 0, i32 0, i32 0, i32 0, i32 0, i32 0
  %12 = load i8*, i8** %11, align 8
  %13 = bitcast %"class.SkSL::String"* %0 to i8*
  %14 = select i1 %10, i8* %12, i8* %13
  call void @_Z10SkStrSplitPKcS0_14SkStrSplitModeP8SkTArrayI8SkStringLb0EE(i8* %14, i8* getelementptr inbounds ([2 x i8], [2 x i8]* @.str, i64 0, i64 0), i32 0, %class.SkTArray* nonnull %3) #11
  %15 = load i64, i64* %6, align 8
  %16 = and i64 %15, 4294967294
  %17 = icmp eq i64 %16, 0
  br i1 %17, label %24, label %18

18:                                               ; preds = %2
  %19 = getelementptr inbounds %"class.std::__1::function", %"class.std::__1::function"* %1, i64 0, i32 0, i32 1, i32 0
  %20 = getelementptr inbounds %"class.std::__1::function", %"class.std::__1::function"* %1, i64 0, i32 0, i32 0
  br label %41

21:                                               ; preds = %41
  %22 = and i64 %50, 4294967294
  %23 = icmp eq i64 %22, 0
  br i1 %23, label %24, label %28

24:                                               ; preds = %28, %2, %21
  %25 = phi i64 [ %50, %21 ], [ %15, %2 ], [ %33, %28 ]
  %26 = and i64 %25, 1
  %27 = icmp eq i64 %26, 0
  br i1 %27, label %40, label %37

28:                                               ; preds = %21, %28
  %29 = phi i64 [ %32, %28 ], [ 0, %21 ]
  %30 = load %class.SkString*, %class.SkString** %5, align 8
  %31 = getelementptr inbounds %class.SkString, %class.SkString* %30, i64 %29
  call void @_ZN8SkStringD1Ev(%class.SkString* %31) #11
  %32 = add nuw nsw i64 %29, 1
  %33 = load i64, i64* %6, align 8
  %34 = lshr i64 %33, 1
  %35 = and i64 %34, 2147483647
  %36 = icmp ult i64 %32, %35
  br i1 %36, label %28, label %24

37:                                               ; preds = %24
  %38 = bitcast %class.SkTArray* %3 to i8**
  %39 = load i8*, i8** %38, align 8
  call void @_Z7sk_freePv(i8* %39) #11
  br label %40

40:                                               ; preds = %24, %37
  call void @llvm.lifetime.end.p0i8(i64 16, i8* nonnull %4) #11
  ret void

41:                                               ; preds = %18, %41
  %42 = phi i64 [ 0, %18 ], [ %43, %41 ]
  %43 = add nuw nsw i64 %42, 1
  %44 = load %class.SkString*, %class.SkString** %5, align 8
  %45 = getelementptr inbounds %class.SkString, %class.SkString* %44, i64 %42, i32 0, i32 0
  %46 = load %"struct.SkString::Rec"*, %"struct.SkString::Rec"** %45, align 8
  %47 = getelementptr inbounds %"struct.SkString::Rec", %"struct.SkString::Rec"* %46, i64 0, i32 2
  %48 = load void (%"union.std::__1::__function::__policy_storage"*, i32, i8*)*, void (%"union.std::__1::__function::__policy_storage"*, i32, i8*)** %19, align 8
  %49 = trunc i64 %43 to i32
  call void %48(%"union.std::__1::__function::__policy_storage"* %20, i32 %49, i8* %47) #11
  %50 = load i64, i64* %6, align 8
  %51 = lshr i64 %50, 1
  %52 = and i64 %51, 2147483647
  %53 = icmp ult i64 %43, %52
  br i1 %53, label %41, label %21
}

declare void @_Z10SkStrSplitPKcS0_14SkStrSplitModeP8SkTArrayI8SkStringLb0EE(i8*, i8*, i32, %class.SkTArray*) local_unnamed_addr #2

; Function Attrs: nounwind ssp uwtable
define hidden void @_ZN13GrShaderUtils23BuildShaderErrorMessageEPKcS1_(%"class.SkSL::String"* noalias sret, i8* nocapture readonly, i8*) local_unnamed_addr #0 {
  %4 = alloca %"class.SkSL::String", align 8
  %5 = alloca %"class.std::__1::function", align 8
  %6 = getelementptr inbounds %"class.SkSL::String", %"class.SkSL::String"* %0, i64 0, i32 0, i32 0, i32 0, i32 0, i32 0, i32 0, i32 0
  %7 = getelementptr inbounds %"class.SkSL::String", %"class.SkSL::String"* %0, i64 0, i32 0, i32 0, i32 0, i32 0, i32 0, i32 0, i32 1
  %8 = tail call i8* @_Znwm(i64 64) #12
  store i8* %8, i8** %6, align 8
  %9 = bitcast i64* %7 to <2 x i64>*
  store <2 x i64> <i64 50, i64 -9223372036854775744>, <2 x i64>* %9, align 8
  tail call void @llvm.memcpy.p0i8.p0i8.i64(i8* nonnull align 1 %8, i8* align 1 getelementptr inbounds ([51 x i8], [51 x i8]* @.str.1, i64 0, i64 0), i64 50, i1 false) #11
  %10 = getelementptr inbounds i8, i8* %8, i64 50
  store i8 0, i8* %10, align 1
  %11 = bitcast %"class.SkSL::String"* %4 to i8*
  call void @llvm.lifetime.start.p0i8(i64 24, i8* nonnull %11) #11
  %12 = tail call i64 @strlen(i8* %1) #11
  %13 = icmp ugt i64 %12, -17
  br i1 %13, label %14, label %16

14:                                               ; preds = %3
  %15 = bitcast %"class.SkSL::String"* %4 to %"class.std::__1::__basic_string_common"*
  call void @_ZNKSt3__121__basic_string_commonILb1EE20__throw_length_errorEv(%"class.std::__1::__basic_string_common"* nonnull %15) #13
  unreachable

16:                                               ; preds = %3
  %17 = icmp ult i64 %12, 23
  br i1 %17, label %26, label %18

18:                                               ; preds = %16
  %19 = add nuw i64 %12, 16
  %20 = and i64 %19, -16
  %21 = tail call i8* @_Znwm(i64 %20) #12
  %22 = getelementptr inbounds %"class.SkSL::String", %"class.SkSL::String"* %4, i64 0, i32 0, i32 0, i32 0, i32 0, i32 0, i32 0, i32 0
  store i8* %21, i8** %22, align 8
  %23 = or i64 %20, -9223372036854775808
  %24 = getelementptr inbounds %"class.SkSL::String", %"class.SkSL::String"* %4, i64 0, i32 0, i32 0, i32 0, i32 0, i32 0, i32 0, i32 2
  store i64 %23, i64* %24, align 8
  %25 = getelementptr inbounds %"class.SkSL::String", %"class.SkSL::String"* %4, i64 0, i32 0, i32 0, i32 0, i32 0, i32 0, i32 0, i32 1
  store i64 %12, i64* %25, align 8
  br label %31

26:                                               ; preds = %16
  %27 = trunc i64 %12 to i8
  %28 = bitcast %"class.SkSL::String"* %4 to %"struct.std::__1::basic_string<char, std::__1::char_traits<char>, std::__1::allocator<char> >::__short"*
  %29 = getelementptr inbounds %"struct.std::__1::basic_string<char, std::__1::char_traits<char>, std::__1::allocator<char> >::__short", %"struct.std::__1::basic_string<char, std::__1::char_traits<char>, std::__1::allocator<char> >::__short"* %28, i64 0, i32 1, i32 0
  store i8 %27, i8* %29, align 1
  %30 = icmp eq i64 %12, 0
  br i1 %30, label %33, label %31

31:                                               ; preds = %26, %18
  %32 = phi i8* [ %21, %18 ], [ %11, %26 ]
  call void @llvm.memcpy.p0i8.p0i8.i64(i8* nonnull align 1 %32, i8* align 1 %1, i64 %12, i1 false) #11
  br label %33

33:                                               ; preds = %26, %31
  %34 = phi i8* [ %11, %26 ], [ %32, %31 ]
  %35 = getelementptr inbounds i8, i8* %34, i64 %12
  store i8 0, i8* %35, align 1
  %36 = bitcast %"class.std::__1::function"* %5 to i8*
  call void @llvm.lifetime.start.p0i8(i64 32, i8* nonnull %36) #11
  %37 = ptrtoint %"class.SkSL::String"* %0 to i64
  %38 = getelementptr inbounds %"class.std::__1::function", %"class.std::__1::function"* %5, i64 0, i32 0, i32 1, i32 0
  %39 = getelementptr inbounds %"class.std::__1::function", %"class.std::__1::function"* %5, i64 0, i32 0, i32 2
  store void (%"union.std::__1::__function::__policy_storage"*, i32, i8*)* @"_ZNSt3__110__function16__policy_invokerIFviPKcEE11__call_implINS0_20__default_alloc_funcIZN13GrShaderUtils23BuildShaderErrorMessageES3_S3_E3$_0S4_EEEEvPKNS0_16__policy_storageEiS3_", void (%"union.std::__1::__function::__policy_storage"*, i32, i8*)** %38, align 8
  store %"struct.std::__1::__function::__policy"* @"_ZZNSt3__110__function8__policy15__choose_policyINS0_20__default_alloc_funcIZN13GrShaderUtils23BuildShaderErrorMessageEPKcS6_E3$_0FviS6_EEEEEPKS1_NS_17integral_constantIbLb1EEEE9__policy_", %"struct.std::__1::__function::__policy"** %39, align 8
  %40 = bitcast %"class.std::__1::function"* %5 to i64*
  store i64 %37, i64* %40, align 8
  call void @_ZN13GrShaderUtils15VisitLineByLineERKN4SkSL6StringERKNSt3__18functionIFviPKcEEE(%"class.SkSL::String"* nonnull dereferenceable(24) %4, %"class.std::__1::function"* nonnull dereferenceable(32) %5)
  %41 = load %"struct.std::__1::__function::__policy"*, %"struct.std::__1::__function::__policy"** %39, align 8
  %42 = getelementptr inbounds %"struct.std::__1::__function::__policy", %"struct.std::__1::__function::__policy"* %41, i64 0, i32 1
  %43 = load void (i8*)*, void (i8*)** %42, align 8
  %44 = icmp eq void (i8*)* %43, null
  br i1 %44, label %48, label %45

45:                                               ; preds = %33
  %46 = getelementptr inbounds %"class.std::__1::function", %"class.std::__1::function"* %5, i64 0, i32 0, i32 0, i32 0
  %47 = load i8*, i8** %46, align 8
  call void %43(i8* %47) #11
  br label %48

48:                                               ; preds = %33, %45
  call void @llvm.lifetime.end.p0i8(i64 32, i8* nonnull %36) #11
  %49 = bitcast %"class.SkSL::String"* %4 to %"struct.std::__1::basic_string<char, std::__1::char_traits<char>, std::__1::allocator<char> >::__short"*
  %50 = getelementptr inbounds %"struct.std::__1::basic_string<char, std::__1::char_traits<char>, std::__1::allocator<char> >::__short", %"struct.std::__1::basic_string<char, std::__1::char_traits<char>, std::__1::allocator<char> >::__short"* %49, i64 0, i32 1, i32 0
  %51 = load i8, i8* %50, align 1
  %52 = icmp slt i8 %51, 0
  br i1 %52, label %53, label %56

53:                                               ; preds = %48
  %54 = getelementptr inbounds %"class.SkSL::String", %"class.SkSL::String"* %4, i64 0, i32 0, i32 0, i32 0, i32 0, i32 0, i32 0, i32 0
  %55 = load i8*, i8** %54, align 8
  call void @_ZdlPv(i8* %55) #12
  br label %56

56:                                               ; preds = %48, %53
  call void @llvm.lifetime.end.p0i8(i64 24, i8* nonnull %11) #11
  call void (%"class.SkSL::String"*, i8*, ...) @_ZN4SkSL6String7appendfEPKcz(%"class.SkSL::String"* %0, i8* getelementptr inbounds ([11 x i8], [11 x i8]* @.str.2, i64 0, i64 0), i8* %2) #11
  ret void
}

declare void @_ZN4SkSL6String7appendfEPKcz(%"class.SkSL::String"*, i8*, ...) local_unnamed_addr #2

; Function Attrs: nofree nounwind ssp uwtable
define hidden %"class.GrContextOptions::ShaderErrorHandler"* @_ZN13GrShaderUtils25DefaultShaderErrorHandlerEv() local_unnamed_addr #3 {
  %1 = load atomic i8, i8* bitcast (i64* @_ZGVZN13GrShaderUtils25DefaultShaderErrorHandlerEvE8gHandler to i8*) acquire, align 8
  %2 = icmp eq i8 %1, 0
  br i1 %2, label %3, label %7, !prof !3

3:                                                ; preds = %0
  %4 = tail call i32 @__cxa_guard_acquire(i64* nonnull @_ZGVZN13GrShaderUtils25DefaultShaderErrorHandlerEvE8gHandler) #11
  %5 = icmp eq i32 %4, 0
  br i1 %5, label %7, label %6

6:                                                ; preds = %3
  tail call void @__cxa_guard_release(i64* nonnull @_ZGVZN13GrShaderUtils25DefaultShaderErrorHandlerEvE8gHandler) #11
  br label %7

7:                                                ; preds = %3, %6, %0
  ret %"class.GrContextOptions::ShaderErrorHandler"* bitcast ({ i8** }* @_ZZN13GrShaderUtils25DefaultShaderErrorHandlerEvE8gHandler to %"class.GrContextOptions::ShaderErrorHandler"*)
}

; Function Attrs: nofree nounwind
declare i32 @__cxa_guard_acquire(i64*) local_unnamed_addr #4

; Function Attrs: nounwind ssp uwtable
define linkonce_odr hidden void @_ZN16GrContextOptions18ShaderErrorHandlerD2Ev(%"class.GrContextOptions::ShaderErrorHandler"*) unnamed_addr #0 comdat align 2 {
  ret void
}

; Function Attrs: nofree nounwind
declare void @__cxa_guard_release(i64*) local_unnamed_addr #4

; Function Attrs: nounwind ssp uwtable
define hidden void @_ZN13GrShaderUtils17PrintShaderBannerEN4SkSL11ProgramKindE(i8 signext) local_unnamed_addr #0 {
  %2 = icmp ult i8 %0, 3
  br i1 %2, label %3, label %7

3:                                                ; preds = %1
  %4 = sext i8 %0 to i64
  %5 = getelementptr inbounds [3 x i8*], [3 x i8*]* @switch.table._ZN13GrShaderUtils17PrintShaderBannerEN4SkSL11ProgramKindE, i64 0, i64 %4
  %6 = load i8*, i8** %5, align 8
  br label %7

7:                                                ; preds = %3, %1
  %8 = phi i8* [ getelementptr inbounds ([8 x i8], [8 x i8]* @.str.3, i64 0, i64 0), %1 ], [ %6, %3 ]
  tail call void (i8*, i32, i8*, ...) @_Z17SkDebugf_FileLinePKciS0_z(i8* getelementptr inbounds ([49 x i8], [49 x i8]* @.str.7, i64 0, i64 0), i32 235, i8* getelementptr inbounds ([69 x i8], [69 x i8]* @.str.8, i64 0, i64 0), i8* nonnull %8) #11
  ret void
}

declare void @_Z17SkDebugf_FileLinePKciS0_z(i8*, i32, i8*, ...) local_unnamed_addr #2

; Function Attrs: inlinehint nounwind ssp uwtable
define internal void @_ZZN13GrShaderUtils25DefaultShaderErrorHandlerEvEN27GrDefaultShaderErrorHandlerD0Ev(%class.GrDefaultShaderErrorHandler*) unnamed_addr #5 align 2 {
  %2 = bitcast %class.GrDefaultShaderErrorHandler* %0 to i8*
  tail call void @_ZdlPv(i8* %2) #12
  ret void
}

; Function Attrs: nounwind ssp uwtable
define internal void @_ZZN13GrShaderUtils25DefaultShaderErrorHandlerEvEN27GrDefaultShaderErrorHandler12compileErrorEPKcS2_(%class.GrDefaultShaderErrorHandler* nocapture readnone, i8* nocapture readonly, i8*) unnamed_addr #0 align 2 {
  %4 = alloca %"class.SkSL::String", align 8
  %5 = alloca %"class.std::__1::function", align 8
  %6 = bitcast %"class.SkSL::String"* %4 to i8*
  call void @llvm.lifetime.start.p0i8(i64 24, i8* nonnull %6) #11
  %7 = getelementptr inbounds %"class.SkSL::String", %"class.SkSL::String"* %4, i64 0, i32 0, i32 0, i32 0, i32 0, i32 0, i32 0, i32 0
  %8 = bitcast %"class.SkSL::String"* %4 to i8*
  call void @llvm.memset.p0i8.i64(i8* nonnull align 8 %8, i8 -86, i64 24, i1 false)
  call void @_ZN13GrShaderUtils23BuildShaderErrorMessageEPKcS1_(%"class.SkSL::String"* nonnull sret %4, i8* %1, i8* %2)
  %9 = bitcast %"class.std::__1::function"* %5 to i8*
  call void @llvm.lifetime.start.p0i8(i64 32, i8* nonnull %9) #11
  %10 = getelementptr inbounds %"class.std::__1::function", %"class.std::__1::function"* %5, i64 0, i32 0, i32 1, i32 0
  %11 = getelementptr inbounds %"class.std::__1::function", %"class.std::__1::function"* %5, i64 0, i32 0, i32 2
  store void (%"union.std::__1::__function::__policy_storage"*, i32, i8*)* @_ZNSt3__110__function16__policy_invokerIFviPKcEE11__call_implINS0_20__default_alloc_funcIZZN13GrShaderUtils25DefaultShaderErrorHandlerEvEN27GrDefaultShaderErrorHandler12compileErrorES3_S3_EUliS3_E_S4_EEEEvPKNS0_16__policy_storageEiS3_, void (%"union.std::__1::__function::__policy_storage"*, i32, i8*)** %10, align 8
  store %"struct.std::__1::__function::__policy"* @_ZZNSt3__110__function8__policy15__choose_policyINS0_20__default_alloc_funcIZZN13GrShaderUtils25DefaultShaderErrorHandlerEvEN27GrDefaultShaderErrorHandler12compileErrorEPKcS7_EUliS7_E_FviS7_EEEEEPKS1_NS_17integral_constantIbLb1EEEE9__policy_, %"struct.std::__1::__function::__policy"** %11, align 8
  call void @_ZN13GrShaderUtils15VisitLineByLineERKN4SkSL6StringERKNSt3__18functionIFviPKcEEE(%"class.SkSL::String"* nonnull dereferenceable(24) %4, %"class.std::__1::function"* nonnull dereferenceable(32) %5)
  %12 = load %"struct.std::__1::__function::__policy"*, %"struct.std::__1::__function::__policy"** %11, align 8
  %13 = getelementptr inbounds %"struct.std::__1::__function::__policy", %"struct.std::__1::__function::__policy"* %12, i64 0, i32 1
  %14 = load void (i8*)*, void (i8*)** %13, align 8
  %15 = icmp eq void (i8*)* %14, null
  br i1 %15, label %19, label %16

16:                                               ; preds = %3
  %17 = getelementptr inbounds %"class.std::__1::function", %"class.std::__1::function"* %5, i64 0, i32 0, i32 0, i32 0
  %18 = load i8*, i8** %17, align 8
  call void %14(i8* %18) #11
  br label %19

19:                                               ; preds = %3, %16
  call void @llvm.lifetime.end.p0i8(i64 32, i8* nonnull %9) #11
  %20 = bitcast %"class.SkSL::String"* %4 to %"struct.std::__1::basic_string<char, std::__1::char_traits<char>, std::__1::allocator<char> >::__short"*
  %21 = getelementptr inbounds %"struct.std::__1::basic_string<char, std::__1::char_traits<char>, std::__1::allocator<char> >::__short", %"struct.std::__1::basic_string<char, std::__1::char_traits<char>, std::__1::allocator<char> >::__short"* %20, i64 0, i32 1, i32 0
  %22 = load i8, i8* %21, align 1
  %23 = icmp slt i8 %22, 0
  br i1 %23, label %24, label %26

24:                                               ; preds = %19
  %25 = load i8*, i8** %7, align 8
  call void @_ZdlPv(i8* %25) #12
  br label %26

26:                                               ; preds = %19, %24
  call void @llvm.lifetime.end.p0i8(i64 24, i8* nonnull %6) #11
  ret void
}

; Function Attrs: nounwind ssp uwtable
define linkonce_odr hidden void @_ZN13GrShaderUtils15GLSLPrettyPrint10parseUntilEPKc(%"class.GrShaderUtils::GLSLPrettyPrint"*, i8*) local_unnamed_addr #0 comdat align 2 {
  %3 = getelementptr inbounds %"class.GrShaderUtils::GLSLPrettyPrint", %"class.GrShaderUtils::GLSLPrettyPrint"* %0, i64 0, i32 3
  %4 = load i64, i64* %3, align 8
  %5 = getelementptr inbounds %"class.GrShaderUtils::GLSLPrettyPrint", %"class.GrShaderUtils::GLSLPrettyPrint"* %0, i64 0, i32 2
  %6 = load i64, i64* %5, align 8
  %7 = icmp ugt i64 %4, %6
  br i1 %7, label %8, label %86

8:                                                ; preds = %2
  %9 = getelementptr inbounds %"class.GrShaderUtils::GLSLPrettyPrint", %"class.GrShaderUtils::GLSLPrettyPrint"* %0, i64 0, i32 4
  %10 = getelementptr inbounds %"class.GrShaderUtils::GLSLPrettyPrint", %"class.GrShaderUtils::GLSLPrettyPrint"* %0, i64 0, i32 0
  %11 = getelementptr inbounds %"class.GrShaderUtils::GLSLPrettyPrint", %"class.GrShaderUtils::GLSLPrettyPrint"* %0, i64 0, i32 5, i32 0
  %12 = getelementptr inbounds %"class.GrShaderUtils::GLSLPrettyPrint", %"class.GrShaderUtils::GLSLPrettyPrint"* %0, i64 0, i32 1
  %13 = getelementptr inbounds %"class.GrShaderUtils::GLSLPrettyPrint", %"class.GrShaderUtils::GLSLPrettyPrint"* %0, i64 0, i32 5
  %14 = getelementptr inbounds %"class.GrShaderUtils::GLSLPrettyPrint", %"class.GrShaderUtils::GLSLPrettyPrint"* %0, i64 0, i32 7
  %15 = getelementptr inbounds %"class.GrShaderUtils::GLSLPrettyPrint", %"class.GrShaderUtils::GLSLPrettyPrint"* %0, i64 0, i32 8
  br label %16

16:                                               ; preds = %8, %78
  %17 = phi i64 [ %6, %8 ], [ %84, %78 ]
  %18 = load i8*, i8** %9, align 8
  %19 = getelementptr inbounds i8, i8* %18, i64 %17
  %20 = load i8, i8* %19, align 1
  %21 = icmp eq i8 %20, 10
  br i1 %21, label %22, label %41

22:                                               ; preds = %16
  %23 = load i8, i8* %10, align 8, !range !2
  %24 = icmp eq i8 %23, 0
  br i1 %24, label %25, label %29

25:                                               ; preds = %22
  store i8 1, i8* %10, align 8
  %26 = tail call dereferenceable(24) %"class.std::__1::basic_string"* @_ZNSt3__112basic_stringIcNS_11char_traitsIcEENS_9allocatorIcEEE6appendEPKc(%"class.std::__1::basic_string"* %11, i8* getelementptr inbounds ([2 x i8], [2 x i8]* @.str, i64 0, i64 0)) #11
  %27 = load i8, i8* %10, align 8
  %28 = icmp eq i8 %27, 0
  br i1 %28, label %38, label %29

29:                                               ; preds = %22, %25
  %30 = load i32, i32* %12, align 4
  %31 = icmp sgt i32 %30, 0
  br i1 %31, label %32, label %38

32:                                               ; preds = %29, %32
  %33 = phi i32 [ %35, %32 ], [ 0, %29 ]
  %34 = tail call dereferenceable(24) %"class.std::__1::basic_string"* @_ZNSt3__112basic_stringIcNS_11char_traitsIcEENS_9allocatorIcEEE6appendEPKc(%"class.std::__1::basic_string"* %11, i8* getelementptr inbounds ([2 x i8], [2 x i8]* @.str.17, i64 0, i64 0)) #11
  %35 = add nuw nsw i32 %33, 1
  %36 = load i32, i32* %12, align 4
  %37 = icmp slt i32 %35, %36
  br i1 %37, label %32, label %38

38:                                               ; preds = %32, %25, %29
  %39 = load i64, i64* %5, align 8
  %40 = add i64 %39, 1
  store i64 %40, i64* %5, align 8
  br label %41

41:                                               ; preds = %38, %16
  %42 = phi i64 [ %40, %38 ], [ %17, %16 ]
  %43 = load i8, i8* %1, align 1
  %44 = icmp eq i8 %43, 0
  br i1 %44, label %63, label %45

45:                                               ; preds = %41
  %46 = load i64, i64* %3, align 8
  br label %47

47:                                               ; preds = %57, %45
  %48 = phi i8 [ %43, %45 ], [ %61, %57 ]
  %49 = phi i64 [ 0, %45 ], [ %59, %57 ]
  %50 = phi i64 [ %42, %45 ], [ %58, %57 ]
  %51 = icmp ugt i64 %46, %50
  br i1 %51, label %52, label %63

52:                                               ; preds = %47
  %53 = load i8*, i8** %9, align 8
  %54 = getelementptr inbounds i8, i8* %53, i64 %50
  %55 = load i8, i8* %54, align 1
  %56 = icmp eq i8 %48, %55
  br i1 %56, label %57, label %78

57:                                               ; preds = %52
  %58 = add nuw i64 %50, 1
  %59 = add i64 %49, 1
  %60 = getelementptr inbounds i8, i8* %1, i64 %59
  %61 = load i8, i8* %60, align 1
  %62 = icmp eq i8 %61, 0
  br i1 %62, label %63, label %47

63:                                               ; preds = %41, %57, %47
  %64 = phi i64 [ %58, %57 ], [ %50, %47 ], [ %42, %41 ]
  %65 = load i8, i8* %10, align 8, !range !2
  %66 = icmp eq i8 %65, 0
  br i1 %66, label %76, label %67

67:                                               ; preds = %63
  %68 = load i32, i32* %12, align 4
  %69 = icmp sgt i32 %68, 0
  br i1 %69, label %70, label %76

70:                                               ; preds = %67, %70
  %71 = phi i32 [ %73, %70 ], [ 0, %67 ]
  %72 = tail call dereferenceable(24) %"class.std::__1::basic_string"* @_ZNSt3__112basic_stringIcNS_11char_traitsIcEENS_9allocatorIcEEE6appendEPKc(%"class.std::__1::basic_string"* %11, i8* getelementptr inbounds ([2 x i8], [2 x i8]* @.str.17, i64 0, i64 0)) #11
  %73 = add nuw nsw i32 %71, 1
  %74 = load i32, i32* %12, align 4
  %75 = icmp slt i32 %73, %74
  br i1 %75, label %70, label %76

76:                                               ; preds = %70, %63, %67
  store i64 %64, i64* %5, align 8
  %77 = tail call dereferenceable(24) %"class.std::__1::basic_string"* @_ZNSt3__112basic_stringIcNS_11char_traitsIcEENS_9allocatorIcEEE6appendEPKc(%"class.std::__1::basic_string"* %11, i8* %1) #11
  store i8 0, i8* %10, align 8
  store i8 0, i8* %14, align 1
  br label %86

78:                                               ; preds = %52
  store i8 0, i8* %10, align 8
  %79 = add i64 %42, 1
  store i64 %79, i64* %5, align 8
  %80 = getelementptr inbounds i8, i8* %53, i64 %42
  %81 = load i8, i8* %80, align 1
  %82 = sext i8 %81 to i32
  tail call void (%"class.SkSL::String"*, i8*, ...) @_ZN4SkSL6String7appendfEPKcz(%"class.SkSL::String"* %13, i8* getelementptr inbounds ([3 x i8], [3 x i8]* @.str.16, i64 0, i64 0), i32 %82) #11
  store i8 1, i8* %14, align 1
  store i8* %1, i8** %15, align 8
  %83 = load i64, i64* %3, align 8
  %84 = load i64, i64* %5, align 8
  %85 = icmp ugt i64 %83, %84
  br i1 %85, label %16, label %86

86:                                               ; preds = %78, %2, %76
  ret void
}

declare dereferenceable(24) %"class.std::__1::basic_string"* @_ZNSt3__112basic_stringIcNS_11char_traitsIcEENS_9allocatorIcEEE6appendEPKc(%"class.std::__1::basic_string"*, i8*) local_unnamed_addr #2

; Function Attrs: argmemonly nounwind
declare void @llvm.memcpy.p0i8.p0i8.i64(i8* nocapture writeonly, i8* nocapture readonly, i64, i1 immarg) #1

declare void @_ZNSt3__112basic_stringIcNS_11char_traitsIcEENS_9allocatorIcEEE25__init_copy_ctor_externalEPKcm(%"class.std::__1::basic_string"*, i8*, i64) local_unnamed_addr #2

; Function Attrs: noreturn
declare void @_ZNKSt3__121__basic_string_commonILb1EE20__throw_length_errorEv(%"class.std::__1::__basic_string_common"*) local_unnamed_addr #6

; Function Attrs: nobuiltin nofree
declare noalias nonnull i8* @_Znwm(i64) local_unnamed_addr #7

; Function Attrs: argmemonly nofree nounwind readonly
declare i64 @strlen(i8* nocapture) local_unnamed_addr #8

; Function Attrs: nobuiltin nounwind
declare void @_ZdlPv(i8*) local_unnamed_addr #9

; Function Attrs: nounwind
declare void @_ZN8SkStringD1Ev(%class.SkString*) unnamed_addr #10

declare void @_Z7sk_freePv(i8*) local_unnamed_addr #2

; Function Attrs: nounwind ssp uwtable
define internal void @"_ZNSt3__110__function16__policy_invokerIFviPKcEE11__call_implINS0_20__default_alloc_funcIZN13GrShaderUtils23BuildShaderErrorMessageES3_S3_E3$_0S4_EEEEvPKNS0_16__policy_storageEiS3_"(%"union.std::__1::__function::__policy_storage"* nocapture readonly, i32, i8*) #0 align 2 {
  %4 = bitcast %"union.std::__1::__function::__policy_storage"* %0 to %"class.SkSL::String"**
  %5 = load %"class.SkSL::String"*, %"class.SkSL::String"** %4, align 8
  tail call void (%"class.SkSL::String"*, i8*, ...) @_ZN4SkSL6String7appendfEPKcz(%"class.SkSL::String"* %5, i8* getelementptr inbounds ([8 x i8], [8 x i8]* @.str.19, i64 0, i64 0), i32 %1, i8* %2) #11
  ret void
}

; Function Attrs: nounwind ssp uwtable
define internal void @_ZNSt3__110__function16__policy_invokerIFviPKcEE11__call_implINS0_20__default_alloc_funcIZZN13GrShaderUtils25DefaultShaderErrorHandlerEvEN27GrDefaultShaderErrorHandler12compileErrorES3_S3_EUliS3_E_S4_EEEEvPKNS0_16__policy_storageEiS3_(%"union.std::__1::__function::__policy_storage"* nocapture readnone, i32, i8*) #0 align 2 {
  tail call void (i8*, i32, i8*, ...) @_Z17SkDebugf_FileLinePKciS0_z(i8* getelementptr inbounds ([49 x i8], [49 x i8]* @.str.7, i64 0, i64 0), i32 217, i8* getelementptr inbounds ([4 x i8], [4 x i8]* @.str.20, i64 0, i64 0), i8* %2) #11
  ret void
}

attributes #0 = { nounwind ssp uwtable "correctly-rounded-divide-sqrt-fp-math"="false" "disable-tail-calls"="false" "less-precise-fpmad"="false" "min-legal-vector-width"="0" "no-frame-pointer-elim"="false" "no-frame-pointer-elim-non-leaf" "no-infs-fp-math"="false" "no-jump-tables"="false" "no-nans-fp-math"="false" "no-signed-zeros-fp-math"="false" "no-trapping-math"="false" "null-pointer-is-valid"="true" "stack-protector-buffer-size"="4" "target-cpu"="x86-64" "target-features"="+cx8,+fxsr,+mmx,+sse,+sse2,+sse3,+x87" "unsafe-fp-math"="false" "use-soft-float"="false" }
attributes #1 = { argmemonly nounwind }
attributes #2 = { "correctly-rounded-divide-sqrt-fp-math"="false" "disable-tail-calls"="false" "less-precise-fpmad"="false" "no-frame-pointer-elim"="false" "no-frame-pointer-elim-non-leaf" "no-infs-fp-math"="false" "no-nans-fp-math"="false" "no-signed-zeros-fp-math"="false" "no-trapping-math"="false" "null-pointer-is-valid"="true" "stack-protector-buffer-size"="4" "target-cpu"="x86-64" "target-features"="+cx8,+fxsr,+mmx,+sse,+sse2,+sse3,+x87" "unsafe-fp-math"="false" "use-soft-float"="false" }
attributes #3 = { nofree nounwind ssp uwtable "correctly-rounded-divide-sqrt-fp-math"="false" "disable-tail-calls"="false" "less-precise-fpmad"="false" "min-legal-vector-width"="0" "no-frame-pointer-elim"="false" "no-frame-pointer-elim-non-leaf" "no-infs-fp-math"="false" "no-jump-tables"="false" "no-nans-fp-math"="false" "no-signed-zeros-fp-math"="false" "no-trapping-math"="false" "null-pointer-is-valid"="true" "stack-protector-buffer-size"="4" "target-cpu"="x86-64" "target-features"="+cx8,+fxsr,+mmx,+sse,+sse2,+sse3,+x87" "unsafe-fp-math"="false" "use-soft-float"="false" }
attributes #4 = { nofree nounwind }
attributes #5 = { inlinehint nounwind ssp uwtable "correctly-rounded-divide-sqrt-fp-math"="false" "disable-tail-calls"="false" "less-precise-fpmad"="false" "min-legal-vector-width"="0" "no-frame-pointer-elim"="false" "no-frame-pointer-elim-non-leaf" "no-infs-fp-math"="false" "no-jump-tables"="false" "no-nans-fp-math"="false" "no-signed-zeros-fp-math"="false" "no-trapping-math"="false" "null-pointer-is-valid"="true" "stack-protector-buffer-size"="4" "target-cpu"="x86-64" "target-features"="+cx8,+fxsr,+mmx,+sse,+sse2,+sse3,+x87" "unsafe-fp-math"="false" "use-soft-float"="false" }
attributes #6 = { noreturn "correctly-rounded-divide-sqrt-fp-math"="false" "disable-tail-calls"="false" "less-precise-fpmad"="false" "no-frame-pointer-elim"="false" "no-frame-pointer-elim-non-leaf" "no-infs-fp-math"="false" "no-nans-fp-math"="false" "no-signed-zeros-fp-math"="false" "no-trapping-math"="false" "null-pointer-is-valid"="true" "stack-protector-buffer-size"="4" "target-cpu"="x86-64" "target-features"="+cx8,+fxsr,+mmx,+sse,+sse2,+sse3,+x87" "unsafe-fp-math"="false" "use-soft-float"="false" }
attributes #7 = { nobuiltin nofree "correctly-rounded-divide-sqrt-fp-math"="false" "disable-tail-calls"="false" "less-precise-fpmad"="false" "no-frame-pointer-elim"="false" "no-frame-pointer-elim-non-leaf" "no-infs-fp-math"="false" "no-nans-fp-math"="false" "no-signed-zeros-fp-math"="false" "no-trapping-math"="false" "null-pointer-is-valid"="true" "stack-protector-buffer-size"="4" "target-cpu"="x86-64" "target-features"="+cx8,+fxsr,+mmx,+sse,+sse2,+sse3,+x87" "unsafe-fp-math"="false" "use-soft-float"="false" }
attributes #8 = { argmemonly nofree nounwind readonly "correctly-rounded-divide-sqrt-fp-math"="false" "disable-tail-calls"="false" "less-precise-fpmad"="false" "no-frame-pointer-elim"="false" "no-frame-pointer-elim-non-leaf" "no-infs-fp-math"="false" "no-nans-fp-math"="false" "no-signed-zeros-fp-math"="false" "no-trapping-math"="false" "null-pointer-is-valid"="true" "stack-protector-buffer-size"="4" "target-cpu"="x86-64" "target-features"="+cx8,+fxsr,+mmx,+sse,+sse2,+sse3,+x87" "unsafe-fp-math"="false" "use-soft-float"="false" }
attributes #9 = { nobuiltin nounwind "correctly-rounded-divide-sqrt-fp-math"="false" "disable-tail-calls"="false" "less-precise-fpmad"="false" "no-frame-pointer-elim"="false" "no-frame-pointer-elim-non-leaf" "no-infs-fp-math"="false" "no-nans-fp-math"="false" "no-signed-zeros-fp-math"="false" "no-trapping-math"="false" "null-pointer-is-valid"="true" "stack-protector-buffer-size"="4" "target-cpu"="x86-64" "target-features"="+cx8,+fxsr,+mmx,+sse,+sse2,+sse3,+x87" "unsafe-fp-math"="false" "use-soft-float"="false" }
attributes #10 = { nounwind "correctly-rounded-divide-sqrt-fp-math"="false" "disable-tail-calls"="false" "less-precise-fpmad"="false" "no-frame-pointer-elim"="false" "no-frame-pointer-elim-non-leaf" "no-infs-fp-math"="false" "no-nans-fp-math"="false" "no-signed-zeros-fp-math"="false" "no-trapping-math"="false" "null-pointer-is-valid"="true" "stack-protector-buffer-size"="4" "target-cpu"="x86-64" "target-features"="+cx8,+fxsr,+mmx,+sse,+sse2,+sse3,+x87" "unsafe-fp-math"="false" "use-soft-float"="false" }
attributes #11 = { nounwind }
attributes #12 = { builtin nounwind }
attributes #13 = { noreturn nounwind }

!llvm.module.flags = !{!0, !1}

!0 = !{i32 1, !"wchar_size", i32 4}
!1 = !{i32 7, !"PIC Level", i32 2}
!2 = !{i8 0, i8 2}
!3 = !{!"branch_weights", i32 1, i32 1048575}
