; ModuleID = '../../components/guest_view/browser/guest_view_base.cc'
source_filename = "../../components/guest_view/browser/guest_view_base.cc"
target datalayout = "e-m:e-i64:64-f80:128-n8:16:32:64-S128"
target triple = "x86_64-unknown-linux-gnu"

module asm ".symver exp, exp@GLIBC_2.2.5"
module asm ".symver exp2, exp2@GLIBC_2.2.5"
module asm ".symver exp2f, exp2f@GLIBC_2.2.5"
module asm ".symver expf, expf@GLIBC_2.2.5"
module asm ".symver lgamma, lgamma@GLIBC_2.2.5"
module asm ".symver lgammaf, lgammaf@GLIBC_2.2.5"
module asm ".symver lgammal, lgammal@GLIBC_2.2.5"
module asm ".symver log, log@GLIBC_2.2.5"
module asm ".symver log2, log2@GLIBC_2.2.5"
module asm ".symver log2f, log2f@GLIBC_2.2.5"
module asm ".symver logf, logf@GLIBC_2.2.5"
module asm ".symver pow, pow@GLIBC_2.2.5"
module asm ".symver powf, powf@GLIBC_2.2.5"

%"class.base::LazyInstance" = type { i64, [24 x i8] }
%"struct.guest_view::SetSizeParams" = type { %"class.std::__1::unique_ptr", %"class.std::__1::unique_ptr.1", %"class.std::__1::unique_ptr.1", %"class.std::__1::unique_ptr.1" }
%"class.std::__1::unique_ptr" = type { %"class.std::__1::__compressed_pair" }
%"class.std::__1::__compressed_pair" = type { %"struct.std::__1::__compressed_pair_elem" }
%"struct.std::__1::__compressed_pair_elem" = type { i8* }
%"class.std::__1::unique_ptr.1" = type { %"class.std::__1::__compressed_pair.2" }
%"class.std::__1::__compressed_pair.2" = type { %"struct.std::__1::__compressed_pair_elem.3" }
%"struct.std::__1::__compressed_pair_elem.3" = type { %"class.gfx::Size"* }
%"class.gfx::Size" = type { i32, i32 }
%"class.guest_view::GuestViewBase" = type { %"class.content::BrowserPluginGuestDelegate", %"class.content::WebContentsDelegate", %"class.content::WebContentsObserver", %"class.zoom::ZoomObserver", %"class.content::WebContents"*, %"class.std::__1::basic_string", %"class.content::BrowserContext"*, i32, i32, i32, i8, i8, i8, %"class.base::circular_deque", %"class.base::WeakPtr", %"class.std::__1::unique_ptr.30", %"class.std::__1::unique_ptr.72", %"class.std::__1::unique_ptr.78", %"class.gfx::Size", %"class.content::GuestHost"*, i8, %"class.gfx::Size", %"class.gfx::Size", %"class.gfx::Size", i8, %"class.base::WeakPtrFactory" }
%"class.content::BrowserPluginGuestDelegate" = type { i32 (...)** }
%"class.content::WebContentsDelegate" = type { i32 (...)**, %"class.std::__1::set" }
%"class.std::__1::set" = type { %"class.std::__1::__tree" }
%"class.std::__1::__tree" = type { %"class.std::__1::__tree_end_node"*, %"class.std::__1::__compressed_pair.7", %"class.std::__1::__compressed_pair.10" }
%"class.std::__1::__tree_end_node" = type { %"class.std::__1::__tree_node_base"* }
%"class.std::__1::__tree_node_base" = type <{ %"class.std::__1::__tree_end_node", %"class.std::__1::__tree_node_base"*, %"class.std::__1::__tree_end_node"*, i8, [7 x i8] }>
%"class.std::__1::__compressed_pair.7" = type { %"struct.std::__1::__compressed_pair_elem.8" }
%"struct.std::__1::__compressed_pair_elem.8" = type { %"class.std::__1::__tree_end_node" }
%"class.std::__1::__compressed_pair.10" = type { %"struct.std::__1::__compressed_pair_elem.11" }
%"struct.std::__1::__compressed_pair_elem.11" = type { i64 }
%"class.content::WebContentsObserver" = type { %"class.IPC::Listener", %"class.content::WebContents"* }
%"class.IPC::Listener" = type { i32 (...)** }
%"class.zoom::ZoomObserver" = type { i32 (...)** }
%"class.content::WebContents" = type <{ %"class.content::PageNavigator", %"class.base::SupportsUserData.base", [7 x i8] }>
%"class.content::PageNavigator" = type { i32 (...)** }
%"class.base::SupportsUserData.base" = type <{ i32 (...)**, %"class.std::__1::map", %"class.base::SequenceCheckerDoNothing" }>
%"class.std::__1::map" = type { %"class.std::__1::__tree.13" }
%"class.std::__1::__tree.13" = type { %"class.std::__1::__tree_end_node"*, %"class.std::__1::__compressed_pair.14", %"class.std::__1::__compressed_pair.18" }
%"class.std::__1::__compressed_pair.14" = type { %"struct.std::__1::__compressed_pair_elem.8" }
%"class.std::__1::__compressed_pair.18" = type { %"struct.std::__1::__compressed_pair_elem.11" }
%"class.base::SequenceCheckerDoNothing" = type { i8 }
%"class.std::__1::basic_string" = type { %"class.std::__1::__compressed_pair.22" }
%"class.std::__1::__compressed_pair.22" = type { %"struct.std::__1::__compressed_pair_elem.23" }
%"struct.std::__1::__compressed_pair_elem.23" = type { %"struct.std::__1::basic_string<char, std::__1::char_traits<char>, std::__1::allocator<char> >::__rep" }
%"struct.std::__1::basic_string<char, std::__1::char_traits<char>, std::__1::allocator<char> >::__rep" = type { %union.anon }
%union.anon = type { %"struct.std::__1::basic_string<char, std::__1::char_traits<char>, std::__1::allocator<char> >::__long" }
%"struct.std::__1::basic_string<char, std::__1::char_traits<char>, std::__1::allocator<char> >::__long" = type { i8*, i64, i64 }
%"class.content::BrowserContext" = type opaque
%"class.base::circular_deque" = type { %"class.base::internal::VectorBuffer", i64, i64 }
%"class.base::internal::VectorBuffer" = type { %"class.std::__1::unique_ptr.27"*, i64 }
%"class.std::__1::unique_ptr.27" = type { %"class.std::__1::__compressed_pair.28" }
%"class.std::__1::__compressed_pair.28" = type { %"struct.std::__1::__compressed_pair_elem.29" }
%"struct.std::__1::__compressed_pair_elem.29" = type { %"class.guest_view::GuestViewEvent"* }
%"class.guest_view::GuestViewEvent" = type { %"class.std::__1::basic_string", %"class.std::__1::unique_ptr.30" }
%"class.base::WeakPtr" = type { %"class.base::internal::WeakPtrBase" }
%"class.base::internal::WeakPtrBase" = type { %"class.base::internal::WeakReference", i64 }
%"class.base::internal::WeakReference" = type { %class.scoped_refptr }
%class.scoped_refptr = type { %"class.base::internal::WeakReference::Flag"* }
%"class.base::internal::WeakReference::Flag" = type <{ %"class.base::RefCountedThreadSafe", %"class.base::AtomicFlag", [3 x i8] }>
%"class.base::RefCountedThreadSafe" = type { %"class.base::subtle::RefCountedThreadSafeBase" }
%"class.base::subtle::RefCountedThreadSafeBase" = type { %"class.base::AtomicRefCount" }
%"class.base::AtomicRefCount" = type { %"struct.std::__1::atomic" }
%"struct.std::__1::atomic" = type { %"struct.std::__1::__atomic_base" }
%"struct.std::__1::__atomic_base" = type { %"struct.std::__1::__atomic_base.66" }
%"struct.std::__1::__atomic_base.66" = type { %"struct.std::__1::__cxx_atomic_impl" }
%"struct.std::__1::__cxx_atomic_impl" = type { %"struct.std::__1::__cxx_atomic_base_impl" }
%"struct.std::__1::__cxx_atomic_base_impl" = type { i32 }
%"class.base::AtomicFlag" = type { %"struct.std::__1::atomic.67" }
%"struct.std::__1::atomic.67" = type { %"struct.std::__1::__atomic_base.68" }
%"struct.std::__1::__atomic_base.68" = type { %"struct.std::__1::__atomic_base.69" }
%"struct.std::__1::__atomic_base.69" = type { %"struct.std::__1::__cxx_atomic_impl.70" }
%"struct.std::__1::__cxx_atomic_impl.70" = type { %"struct.std::__1::__cxx_atomic_base_impl.71" }
%"struct.std::__1::__cxx_atomic_base_impl.71" = type { i8 }
%"class.std::__1::unique_ptr.30" = type { %"class.std::__1::__compressed_pair.31" }
%"class.std::__1::__compressed_pair.31" = type { %"struct.std::__1::__compressed_pair_elem.32" }
%"struct.std::__1::__compressed_pair_elem.32" = type { %"class.base::DictionaryValue"* }
%"class.base::DictionaryValue" = type { %"class.base::Value" }
%"class.base::Value" = type { %"class.absl::variant" }
%"class.absl::variant" = type { %"class.absl::variant_internal::VariantCopyAssignBaseNontrivial" }
%"class.absl::variant_internal::VariantCopyAssignBaseNontrivial" = type { %"class.absl::variant_internal::VariantMoveAssignBaseNontrivial" }
%"class.absl::variant_internal::VariantMoveAssignBaseNontrivial" = type { %"class.absl::variant_internal::VariantCopyBaseNontrivial" }
%"class.absl::variant_internal::VariantCopyBaseNontrivial" = type { %"class.absl::variant_internal::VariantMoveBaseNontrivial" }
%"class.absl::variant_internal::VariantMoveBaseNontrivial" = type { %"class.absl::variant_internal::VariantStateBaseDestructorNontrivial" }
%"class.absl::variant_internal::VariantStateBaseDestructorNontrivial" = type { %"class.absl::variant_internal::VariantStateBase" }
%"class.absl::variant_internal::VariantStateBase" = type { %"union.absl::variant_internal::DestructibleUnionImpl", i64 }
%"union.absl::variant_internal::DestructibleUnionImpl" = type { %"union.absl::variant_internal::DestructibleUnionImpl.33" }
%"union.absl::variant_internal::DestructibleUnionImpl.33" = type { %"union.absl::variant_internal::DestructibleUnionImpl.34" }
%"union.absl::variant_internal::DestructibleUnionImpl.34" = type { %"union.absl::variant_internal::DestructibleUnionImpl.35" }
%"union.absl::variant_internal::DestructibleUnionImpl.35" = type { %"union.absl::variant_internal::DestructibleUnionImpl.36" }
%"union.absl::variant_internal::DestructibleUnionImpl.36" = type { %"class.std::__1::basic_string" }
%"class.std::__1::unique_ptr.72" = type { %"class.std::__1::__compressed_pair.73" }
%"class.std::__1::__compressed_pair.73" = type { %"struct.std::__1::__compressed_pair_elem.74" }
%"struct.std::__1::__compressed_pair_elem.74" = type { %"class.guest_view::GuestViewBase::OwnerContentsObserver"* }
%"class.guest_view::GuestViewBase::OwnerContentsObserver" = type { %"class.content::WebContentsObserver", i8, i8, %"class.guest_view::GuestViewBase"* }
%"class.std::__1::unique_ptr.78" = type { %"class.std::__1::__compressed_pair.79" }
%"class.std::__1::__compressed_pair.79" = type { %"struct.std::__1::__compressed_pair_elem.80" }
%"struct.std::__1::__compressed_pair_elem.80" = type { %"class.guest_view::GuestViewBase::OpenerLifetimeObserver"* }
%"class.guest_view::GuestViewBase::OpenerLifetimeObserver" = type { %"class.content::WebContentsObserver", %"class.guest_view::GuestViewBase"* }
%"class.content::GuestHost" = type { i32 (...)** }
%"class.base::WeakPtrFactory" = type { %"class.base::internal::WeakPtrFactoryBase" }
%"class.base::internal::WeakPtrFactoryBase" = type { %"class.base::internal::WeakReferenceOwner", i64 }
%"class.base::internal::WeakReferenceOwner" = type { %class.scoped_refptr.84 }
%class.scoped_refptr.84 = type { %"class.base::internal::WeakReference::Flag"* }
%"class.guest_view::GuestViewManager" = type { %"class.content::BrowserPluginGuestManager", %"class.base::SupportsUserData::Data", %"class.std::__1::map.85", %"class.std::__1::map.96", %"class.std::__1::map.107", %"class.std::__1::map.116", i32, i32, %"class.std::__1::set.127", %"class.content::BrowserContext"*, %"class.std::__1::unique_ptr.135", %"class.std::__1::set.127", %"class.std::__1::map.141", %"class.base::WeakPtrFactory.150" }
%"class.content::BrowserPluginGuestManager" = type { i32 (...)** }
%"class.base::SupportsUserData::Data" = type { i32 (...)** }
%"class.std::__1::map.85" = type { %"class.std::__1::__tree.86" }
%"class.std::__1::__tree.86" = type { %"class.std::__1::__tree_end_node"*, %"class.std::__1::__compressed_pair.87", %"class.std::__1::__compressed_pair.91" }
%"class.std::__1::__compressed_pair.87" = type { %"struct.std::__1::__compressed_pair_elem.8" }
%"class.std::__1::__compressed_pair.91" = type { %"struct.std::__1::__compressed_pair_elem.11" }
%"class.std::__1::map.96" = type { %"class.std::__1::__tree.97" }
%"class.std::__1::__tree.97" = type { %"class.std::__1::__tree_end_node"*, %"class.std::__1::__compressed_pair.98", %"class.std::__1::__compressed_pair.102" }
%"class.std::__1::__compressed_pair.98" = type { %"struct.std::__1::__compressed_pair_elem.8" }
%"class.std::__1::__compressed_pair.102" = type { %"struct.std::__1::__compressed_pair_elem.11" }
%"class.std::__1::map.107" = type { %"class.std::__1::__tree.108" }
%"class.std::__1::__tree.108" = type { %"class.std::__1::__tree_end_node"*, %"class.std::__1::__compressed_pair.109", %"class.std::__1::__compressed_pair.113" }
%"class.std::__1::__compressed_pair.109" = type { %"struct.std::__1::__compressed_pair_elem.8" }
%"class.std::__1::__compressed_pair.113" = type { %"struct.std::__1::__compressed_pair_elem.11" }
%"class.std::__1::map.116" = type { %"class.std::__1::__tree.117" }
%"class.std::__1::__tree.117" = type { %"class.std::__1::__tree_end_node"*, %"class.std::__1::__compressed_pair.118", %"class.std::__1::__compressed_pair.122" }
%"class.std::__1::__compressed_pair.118" = type { %"struct.std::__1::__compressed_pair_elem.8" }
%"class.std::__1::__compressed_pair.122" = type { %"struct.std::__1::__compressed_pair_elem.11" }
%"class.std::__1::unique_ptr.135" = type { %"class.std::__1::__compressed_pair.136" }
%"class.std::__1::__compressed_pair.136" = type { %"struct.std::__1::__compressed_pair_elem.137" }
%"struct.std::__1::__compressed_pair_elem.137" = type { %"class.guest_view::GuestViewManagerDelegate"* }
%"class.guest_view::GuestViewManagerDelegate" = type opaque
%"class.std::__1::set.127" = type { %"class.std::__1::__tree.128" }
%"class.std::__1::__tree.128" = type { %"class.std::__1::__tree_end_node"*, %"class.std::__1::__compressed_pair.129", %"class.std::__1::__compressed_pair.133" }
%"class.std::__1::__compressed_pair.129" = type { %"struct.std::__1::__compressed_pair_elem.8" }
%"class.std::__1::__compressed_pair.133" = type { %"struct.std::__1::__compressed_pair_elem.11" }
%"class.std::__1::map.141" = type { %"class.std::__1::__tree.142" }
%"class.std::__1::__tree.142" = type { %"class.std::__1::__tree_end_node"*, %"class.std::__1::__compressed_pair.143", %"class.std::__1::__compressed_pair.147" }
%"class.std::__1::__compressed_pair.143" = type { %"struct.std::__1::__compressed_pair_elem.8" }
%"class.std::__1::__compressed_pair.147" = type { %"struct.std::__1::__compressed_pair_elem.11" }
%"class.base::WeakPtrFactory.150" = type { %"class.base::internal::WeakPtrFactoryBase" }
%"class.std::__1::allocator.25" = type { i8 }
%class.GURL = type { %"class.std::__1::basic_string", i8, %"struct.url::Parsed", %"class.std::__1::unique_ptr.184" }
%"struct.url::Parsed" = type { %"struct.url::Component", %"struct.url::Component", %"struct.url::Component", %"struct.url::Component", %"struct.url::Component", %"struct.url::Component", %"struct.url::Component", %"struct.url::Component", i8, %"struct.url::Parsed"* }
%"struct.url::Component" = type { i32, i32 }
%"class.std::__1::unique_ptr.184" = type { %"class.std::__1::__compressed_pair.185" }
%"class.std::__1::__compressed_pair.185" = type { %"struct.std::__1::__compressed_pair_elem.186" }
%"struct.std::__1::__compressed_pair_elem.186" = type { %class.GURL* }
%"struct.std::__1::basic_string<char, std::__1::char_traits<char>, std::__1::allocator<char> >::__short" = type { [23 x i8], %struct.anon }
%struct.anon = type { i8 }
%"class.base::OnceCallback" = type { %"class.base::internal::CallbackBase" }
%"class.base::internal::CallbackBase" = type { %class.scoped_refptr.151 }
%class.scoped_refptr.151 = type { %"class.base::internal::BindStateBase"* }
%"class.base::internal::BindStateBase" = type { %"class.base::RefCountedThreadSafe.152", void ()*, void (%"class.base::internal::BindStateBase"*)*, i1 (%"class.base::internal::BindStateBase"*, i32)* }
%"class.base::RefCountedThreadSafe.152" = type { %"class.base::subtle::RefCountedThreadSafeBase" }
%"struct.std::__1::pair.165" = type { %"class.content::WebContents"*, %"class.guest_view::GuestViewBase"* }
%"class.base::SupportsUserData" = type <{ i32 (...)**, %"class.std::__1::map", %"class.base::SequenceCheckerDoNothing", [7 x i8] }>
%"class.zoom::ZoomController" = type { %"class.content::WebContentsObserver", %"class.content::WebContentsUserData", i8, i32, double, %"class.std::__1::unique_ptr.166", %class.scoped_refptr.172, %"class.base::ObserverList", %"class.content::BrowserContext"*, %"class.content::HostZoomMap"*, %"class.base::CallbackListSubscription" }
%"class.content::WebContentsUserData" = type { %"class.base::SupportsUserData::Data" }
%"class.std::__1::unique_ptr.166" = type { %"class.std::__1::__compressed_pair.167" }
%"class.std::__1::__compressed_pair.167" = type { %"struct.std::__1::__compressed_pair_elem.168" }
%"struct.std::__1::__compressed_pair_elem.168" = type { %"struct.zoom::ZoomController::ZoomChangedEventData"* }
%"struct.zoom::ZoomController::ZoomChangedEventData" = type <{ %"class.content::WebContents"*, double, double, i32, i8, [3 x i8] }>
%class.scoped_refptr.172 = type { %"class.zoom::ZoomRequestClient"* }
%"class.zoom::ZoomRequestClient" = type <{ i32 (...)**, %"class.base::RefCounted", [4 x i8] }>
%"class.base::RefCounted" = type { %"class.base::subtle::RefCountedBase" }
%"class.base::subtle::RefCountedBase" = type { i32 }
%"class.base::ObserverList" = type <{ %"class.std::__1::vector.173", %"class.base::LinkedList", i64, i32, [4 x i8] }>
%"class.std::__1::vector.173" = type { %"class.std::__1::__vector_base.174" }
%"class.std::__1::__vector_base.174" = type { %"class.base::internal::UncheckedObserverAdapter"*, %"class.base::internal::UncheckedObserverAdapter"*, %"class.std::__1::__compressed_pair.175" }
%"class.base::internal::UncheckedObserverAdapter" = type { i8* }
%"class.std::__1::__compressed_pair.175" = type { %"struct.std::__1::__compressed_pair_elem.176" }
%"struct.std::__1::__compressed_pair_elem.176" = type { %"class.base::internal::UncheckedObserverAdapter"* }
%"class.base::LinkedList" = type { %"class.base::LinkNode" }
%"class.base::LinkNode" = type { %"class.base::internal::LinkNodeBase" }
%"class.base::internal::LinkNodeBase" = type { %"class.base::internal::LinkNodeBase"*, %"class.base::internal::LinkNodeBase"* }
%"class.content::HostZoomMap" = type { i32 (...)** }
%"class.base::CallbackListSubscription" = type { %"class.base::OnceCallback.180" }
%"class.base::OnceCallback.180" = type { %"class.base::internal::CallbackBase" }
%"class.std::__1::map.153" = type { %"class.std::__1::__tree.154" }
%"class.std::__1::__tree.154" = type { %"class.std::__1::__tree_end_node"*, %"class.std::__1::__compressed_pair.155", %"class.std::__1::__compressed_pair.159" }
%"class.std::__1::__compressed_pair.155" = type { %"struct.std::__1::__compressed_pair_elem.8" }
%"class.std::__1::__compressed_pair.159" = type { %"struct.std::__1::__compressed_pair_elem.11" }
%"class.std::__1::__basic_string_common" = type { i8 }
%"class.content::RenderWidgetHostView" = type { i32 (...)** }
%"class.std::__1::__tree_node" = type { %"class.std::__1::__tree_node_base.base", %"struct.std::__1::__value_type" }
%"class.std::__1::__tree_node_base.base" = type <{ %"class.std::__1::__tree_end_node", %"class.std::__1::__tree_node_base"*, %"class.std::__1::__tree_end_node"*, i8 }>
%"struct.std::__1::__value_type" = type { %"struct.std::__1::pair.181" }
%"struct.std::__1::pair.181" = type { %"class.content::WebContents"*, %"class.guest_view::GuestViewBase"* }
%"class.content::RenderProcessHost" = type <{ %"class.IPC::Sender", %"class.IPC::Listener", %"class.base::SupportsUserData.base", [7 x i8] }>
%"class.IPC::Sender" = type { i32 (...)** }
%"struct.content::WebContents::CreateParams" = type <{ %"class.content::BrowserContext"*, %class.scoped_refptr.182, i32, i32, i8, i8, [6 x i8], %"class.std::__1::basic_string", %class.GURL, i8, [7 x i8], %"class.content::BrowserPluginGuestDelegate"*, %"class.aura::Window"*, i8, [3 x i8], i32, i32, [4 x i8], %"class.base::TimeTicks", i8, [7 x i8] }>
%class.scoped_refptr.182 = type { %"class.content::SiteInstance"* }
%"class.content::SiteInstance" = type <{ i32 (...)**, %"class.base::RefCounted.183", [4 x i8] }>
%"class.base::RefCounted.183" = type { %"class.base::subtle::RefCountedBase" }
%"class.aura::Window" = type opaque
%"class.base::TimeTicks" = type { %"class.base::time_internal::TimeBase" }
%"class.base::time_internal::TimeBase" = type { i64 }
%"class.content::RenderFrameHost" = type { %"class.IPC::Listener", %"class.IPC::Sender" }
%"class.IPC::MessageT" = type { %"class.IPC::Message" }
%"class.IPC::Message" = type { %"class.base::Pickle", i8, %class.scoped_refptr.196 }
%"class.base::Pickle" = type { i32 (...)**, %"struct.base::Pickle::Header"*, i64, i64, i64 }
%"struct.base::Pickle::Header" = type { i32 }
%class.scoped_refptr.196 = type { %"class.IPC::MessageAttachmentSet"* }
%"class.IPC::MessageAttachmentSet" = type opaque
%"class.content::RenderViewHost" = type { i32 (...)** }
%"class.content::NavigationHandle" = type { %"class.base::SupportsUserData.base", [7 x i8] }
%"struct.content::NativeWebKeyboardEvent" = type <{ %"class.blink::WebKeyboardEvent.base", [6 x i8], %"class.ui::Event"*, i8, [7 x i8] }>
%"class.blink::WebKeyboardEvent.base" = type <{ %"class.blink::WebInputEvent", i32, i32, i32, i32, i8, i8, [4 x i16], [4 x i16] }>
%"class.blink::WebInputEvent" = type { i32 (...)**, float, %"class.gfx::Vector2dF", %"class.base::TimeTicks", i32, i32 }
%"class.gfx::Vector2dF" = type { float, float }
%"class.ui::Event" = type opaque
%"class.content::ColorChooser" = type opaque
%"class.std::__1::vector.197" = type opaque
%"class.content::FileSelectListener" = type <{ i32 (...)**, %"class.base::RefCounted.199", [4 x i8] }>
%"class.base::RefCounted.199" = type { %"class.base::subtle::RefCountedBase" }
%"class.blink::mojom::FileChooserParams" = type { i32, %"class.std::__1::basic_string.200", %"class.base::FilePath", %"class.std::__1::vector.209", %"class.std::__1::vector.216", i8, i8, %class.GURL }
%"class.std::__1::basic_string.200" = type { %"class.std::__1::__compressed_pair.201" }
%"class.std::__1::__compressed_pair.201" = type { %"struct.std::__1::__compressed_pair_elem.202" }
%"struct.std::__1::__compressed_pair_elem.202" = type { %"struct.std::__1::basic_string<char16_t, std::__1::char_traits<char16_t>, std::__1::allocator<char16_t> >::__rep" }
%"struct.std::__1::basic_string<char16_t, std::__1::char_traits<char16_t>, std::__1::allocator<char16_t> >::__rep" = type { %union.anon.203 }
%union.anon.203 = type { %"struct.std::__1::basic_string<char16_t, std::__1::char_traits<char16_t>, std::__1::allocator<char16_t> >::__long" }
%"struct.std::__1::basic_string<char16_t, std::__1::char_traits<char16_t>, std::__1::allocator<char16_t> >::__long" = type { i16*, i64, i64 }
%"class.base::FilePath" = type { %"class.std::__1::basic_string" }
%"class.std::__1::vector.209" = type { %"class.std::__1::__vector_base.210" }
%"class.std::__1::__vector_base.210" = type { %"class.base::FilePath"*, %"class.base::FilePath"*, %"class.std::__1::__compressed_pair.211" }
%"class.std::__1::__compressed_pair.211" = type { %"struct.std::__1::__compressed_pair_elem.212" }
%"struct.std::__1::__compressed_pair_elem.212" = type { %"class.base::FilePath"* }
%"class.std::__1::vector.216" = type { %"class.std::__1::__vector_base.217" }
%"class.std::__1::__vector_base.217" = type { %"class.std::__1::basic_string.200"*, %"class.std::__1::basic_string.200"*, %"class.std::__1::__compressed_pair.218" }
%"class.std::__1::__compressed_pair.218" = type { %"struct.std::__1::__compressed_pair_elem.219" }
%"struct.std::__1::__compressed_pair_elem.219" = type { %"class.std::__1::basic_string.200"* }
%"class.blink::WebGestureEvent" = type <{ %"class.blink::WebInputEvent", i8, [3 x i8], i32, i32, [4 x i8], %union.anon.223, %"class.gfx::PointF", %"class.gfx::PointF", i32, [4 x i8] }>
%union.anon.223 = type { %struct.anon.229 }
%struct.anon.229 = type { i64, float, float, i32, i8, i32, i8, i8, i8, i8 }
%"class.gfx::PointF" = type { float, float }
%"class.content::RenderWidgetHost" = type { i32 (...)** }
%"struct.content::OpenURLParams" = type { %class.GURL, %"struct.content::Referrer", %"class.absl::optional", i32, %"class.absl::optional.238", %class.scoped_refptr.182, %"class.std::__1::vector.248", %class.scoped_refptr.254, %"class.std::__1::basic_string", i32, i32, i32, i32, i32, i8, i8, i8, i32, i8, %class.scoped_refptr.276, i8, %"class.std::__1::basic_string", i32, %"class.absl::optional.278" }
%"struct.content::Referrer" = type <{ %class.GURL, i32, [4 x i8] }>
%"class.absl::optional" = type { %"class.absl::optional_internal::optional_data" }
%"class.absl::optional_internal::optional_data" = type { %"class.absl::optional_internal::optional_data_base" }
%"class.absl::optional_internal::optional_data_base" = type { %"class.absl::optional_internal::optional_data_dtor_base" }
%"class.absl::optional_internal::optional_data_dtor_base" = type { i8, %union.anon.237 }
%union.anon.237 = type { %"class.util::TokenType" }
%"class.util::TokenType" = type { %"class.base::StrongAlias" }
%"class.base::StrongAlias" = type { %"class.base::UnguessableToken" }
%"class.base::UnguessableToken" = type { %"class.base::Token" }
%"class.base::Token" = type { i64, i64 }
%"class.absl::optional.238" = type { %"class.absl::optional_internal::optional_data.239" }
%"class.absl::optional_internal::optional_data.239" = type { %"class.absl::optional_internal::optional_data_base.240" }
%"class.absl::optional_internal::optional_data_base.240" = type { %"class.absl::optional_internal::optional_data_dtor_base.241" }
%"class.absl::optional_internal::optional_data_dtor_base.241" = type { i8, %union.anon.242 }
%union.anon.242 = type { %"class.url::Origin" }
%"class.url::Origin" = type { %"class.url::SchemeHostPort", %"class.absl::optional.243" }
%"class.url::SchemeHostPort" = type <{ %"class.std::__1::basic_string", %"class.std::__1::basic_string", i16, [6 x i8] }>
%"class.absl::optional.243" = type { %"class.absl::optional_internal::optional_data.244" }
%"class.absl::optional_internal::optional_data.244" = type { %"class.absl::optional_internal::optional_data_base.245" }
%"class.absl::optional_internal::optional_data_base.245" = type { %"class.absl::optional_internal::optional_data_dtor_base.246" }
%"class.absl::optional_internal::optional_data_dtor_base.246" = type { i8, %union.anon.247 }
%union.anon.247 = type { %"class.url::Origin::Nonce" }
%"class.url::Origin::Nonce" = type { %"class.base::UnguessableToken" }
%"class.std::__1::vector.248" = type { %"class.std::__1::__vector_base.249" }
%"class.std::__1::__vector_base.249" = type { %class.GURL*, %class.GURL*, %"class.std::__1::__compressed_pair.250" }
%"class.std::__1::__compressed_pair.250" = type { %"struct.std::__1::__compressed_pair_elem.186" }
%class.scoped_refptr.254 = type { %"class.network::ResourceRequestBody"* }
%"class.network::ResourceRequestBody" = type <{ %"class.base::RefCountedThreadSafe.255", [4 x i8], %"class.std::__1::vector.256", i64, i8, i8, [6 x i8] }>
%"class.base::RefCountedThreadSafe.255" = type { %"class.base::subtle::RefCountedThreadSafeBase" }
%"class.std::__1::vector.256" = type { %"class.std::__1::__vector_base.257" }
%"class.std::__1::__vector_base.257" = type { %"class.network::DataElement"*, %"class.network::DataElement"*, %"class.std::__1::__compressed_pair.271" }
%"class.network::DataElement" = type { %"class.absl::variant.258" }
%"class.absl::variant.258" = type { %"class.absl::variant_internal::VariantMoveAssignBaseNontrivial.259" }
%"class.absl::variant_internal::VariantMoveAssignBaseNontrivial.259" = type { %"class.absl::variant_internal::VariantMoveBaseNontrivial.260" }
%"class.absl::variant_internal::VariantMoveBaseNontrivial.260" = type { %"class.absl::variant_internal::VariantStateBaseDestructorNontrivial.261" }
%"class.absl::variant_internal::VariantStateBaseDestructorNontrivial.261" = type { %"class.absl::variant_internal::VariantStateBase.262" }
%"class.absl::variant_internal::VariantStateBase.262" = type { %"union.absl::variant_internal::DestructibleUnionImpl.263", i64 }
%"union.absl::variant_internal::DestructibleUnionImpl.263" = type { %"union.absl::variant_internal::DestructibleUnionImpl.264" }
%"union.absl::variant_internal::DestructibleUnionImpl.264" = type { %"union.absl::variant_internal::DestructibleUnionImpl.265" }
%"union.absl::variant_internal::DestructibleUnionImpl.265" = type { %"union.absl::variant_internal::DestructibleUnionImpl.266" }
%"union.absl::variant_internal::DestructibleUnionImpl.266" = type { %"union.absl::variant_internal::DestructibleUnionImpl.269" }
%"union.absl::variant_internal::DestructibleUnionImpl.269" = type { %"class.network::DataElementFile" }
%"class.network::DataElementFile" = type { %"class.base::FilePath", i64, i64, %"class.base::Time" }
%"class.base::Time" = type { %"class.base::time_internal::TimeBase.270" }
%"class.base::time_internal::TimeBase.270" = type { i64 }
%"class.std::__1::__compressed_pair.271" = type { %"struct.std::__1::__compressed_pair_elem.272" }
%"struct.std::__1::__compressed_pair_elem.272" = type { %"class.network::DataElement"* }
%class.scoped_refptr.276 = type { %"class.network::SharedURLLoaderFactory"* }
%"class.network::SharedURLLoaderFactory" = type <{ %"class.network::mojom::URLLoaderFactory", %"class.base::RefCounted.277", [4 x i8] }>
%"class.network::mojom::URLLoaderFactory" = type { i32 (...)** }
%"class.base::RefCounted.277" = type { %"class.base::subtle::RefCountedBase" }
%"class.absl::optional.278" = type { %"class.absl::optional_internal::optional_data.279" }
%"class.absl::optional_internal::optional_data.279" = type { %"class.absl::optional_internal::optional_data_base.280" }
%"class.absl::optional_internal::optional_data_base.280" = type { %"class.absl::optional_internal::optional_data_dtor_base.281" }
%"class.absl::optional_internal::optional_data_dtor_base.281" = type { i8, %union.anon.282 }
%union.anon.282 = type { %"struct.blink::Impression" }
%"struct.blink::Impression" = type { %"class.url::Origin", %"class.absl::optional.238", i64, %"class.absl::optional.283", i64 }
%"class.absl::optional.283" = type { %"class.absl::optional_internal::optional_data.284" }
%"class.absl::optional_internal::optional_data.284" = type { %"class.absl::optional_internal::optional_data_base.285" }
%"class.absl::optional_internal::optional_data_base.285" = type { %"class.absl::optional_internal::optional_data_dtor_base.286" }
%"class.absl::optional_internal::optional_data_dtor_base.286" = type { i8, %union.anon.287 }
%union.anon.287 = type { %"class.base::TimeDelta" }
%"class.base::TimeDelta" = type { i64 }
%"class.gfx::Rect" = type { %"class.gfx::Point", %"class.gfx::Size" }
%"class.gfx::Point" = type { i32, i32 }
%"class.base::OnceCallback.288" = type { %"class.base::internal::CallbackBase" }
%"struct.content::ContextMenuParams" = type opaque
%"struct.content::DropData" = type { i32, i8, %class.GURL, %"class.std::__1::basic_string.200", %"class.std::__1::basic_string.200", i32, %"class.std::__1::vector.289", %"class.std::__1::vector.216", %"class.std::__1::basic_string.200", %"class.std::__1::vector.296", %"class.absl::optional.303", %"class.absl::optional.303", %class.GURL, %"class.std::__1::basic_string", %class.GURL, %"class.std::__1::basic_string", %"class.std::__1::basic_string", %"class.std::__1::unordered_map" }
%"class.std::__1::vector.289" = type { %"class.std::__1::__vector_base.290" }
%"class.std::__1::__vector_base.290" = type { %"struct.ui::FileInfo"*, %"struct.ui::FileInfo"*, %"class.std::__1::__compressed_pair.291" }
%"struct.ui::FileInfo" = type { %"class.base::FilePath", %"class.base::FilePath" }
%"class.std::__1::__compressed_pair.291" = type { %"struct.std::__1::__compressed_pair_elem.292" }
%"struct.std::__1::__compressed_pair_elem.292" = type { %"struct.ui::FileInfo"* }
%"class.std::__1::vector.296" = type { %"class.std::__1::__vector_base.297" }
%"class.std::__1::__vector_base.297" = type { %"struct.content::DropData::FileSystemFileInfo"*, %"struct.content::DropData::FileSystemFileInfo"*, %"class.std::__1::__compressed_pair.298" }
%"struct.content::DropData::FileSystemFileInfo" = type { %class.GURL, i64, %"class.std::__1::basic_string" }
%"class.std::__1::__compressed_pair.298" = type { %"struct.std::__1::__compressed_pair_elem.299" }
%"struct.std::__1::__compressed_pair_elem.299" = type { %"struct.content::DropData::FileSystemFileInfo"* }
%"class.absl::optional.303" = type { %"class.absl::optional_internal::optional_data.304" }
%"class.absl::optional_internal::optional_data.304" = type { %"class.absl::optional_internal::optional_data_base.305" }
%"class.absl::optional_internal::optional_data_base.305" = type { %"class.absl::optional_internal::optional_data_dtor_base.306" }
%"class.absl::optional_internal::optional_data_dtor_base.306" = type { i8, %union.anon.307 }
%union.anon.307 = type { %"class.std::__1::basic_string.200" }
%"class.std::__1::unordered_map" = type { %"class.std::__1::__hash_table" }
%"class.std::__1::__hash_table" = type <{ %"class.std::__1::unique_ptr.308", %"class.std::__1::__compressed_pair.316", %"class.std::__1::__compressed_pair.321", %"class.std::__1::__compressed_pair.323", [4 x i8] }>
%"class.std::__1::unique_ptr.308" = type { %"class.std::__1::__compressed_pair.309" }
%"class.std::__1::__compressed_pair.309" = type { %"struct.std::__1::__compressed_pair_elem.310", %"struct.std::__1::__compressed_pair_elem.311" }
%"struct.std::__1::__compressed_pair_elem.310" = type { %"struct.std::__1::__hash_node_base"** }
%"struct.std::__1::__hash_node_base" = type { %"struct.std::__1::__hash_node_base"* }
%"struct.std::__1::__compressed_pair_elem.311" = type { %"class.std::__1::__bucket_list_deallocator" }
%"class.std::__1::__bucket_list_deallocator" = type { %"class.std::__1::__compressed_pair.312" }
%"class.std::__1::__compressed_pair.312" = type { %"struct.std::__1::__compressed_pair_elem.11" }
%"class.std::__1::__compressed_pair.316" = type { %"struct.std::__1::__compressed_pair_elem.317" }
%"struct.std::__1::__compressed_pair_elem.317" = type { %"struct.std::__1::__hash_node_base" }
%"class.std::__1::__compressed_pair.321" = type { %"struct.std::__1::__compressed_pair_elem.11" }
%"class.std::__1::__compressed_pair.323" = type { %"struct.std::__1::__compressed_pair_elem.324" }
%"struct.std::__1::__compressed_pair_elem.324" = type { float }
%"class.content::StoragePartitionId" = type { %"class.std::__1::basic_string", %"class.content::StoragePartitionConfig" }
%"class.content::StoragePartitionConfig" = type { %"class.std::__1::basic_string", %"class.std::__1::basic_string", i8, i32 }
%"class.content::SessionStorageNamespace" = type <{ i32 (...)**, %"class.base::RefCountedThreadSafe.327", [4 x i8] }>
%"class.base::RefCountedThreadSafe.327" = type { %"class.base::subtle::RefCountedThreadSafeBase" }
%"class.base::RepeatingCallback" = type { %"class.base::internal::CallbackBaseCopyable" }
%"class.base::internal::CallbackBaseCopyable" = type { %"class.base::internal::CallbackBase" }
%"class.content::JavaScriptDialogManager" = type opaque
%"class.std::__1::vector.328" = type { %"class.std::__1::__vector_base.329" }
%"class.std::__1::__vector_base.329" = type { %"class.url::Origin"*, %"class.url::Origin"*, %"class.std::__1::__compressed_pair.330" }
%"class.std::__1::__compressed_pair.330" = type { %"struct.std::__1::__compressed_pair_elem.331" }
%"struct.std::__1::__compressed_pair_elem.331" = type { %"class.url::Origin"* }
%"class.blink::mojom::FullscreenOptions" = type opaque
%"struct.content::SecurityStyleExplanations" = type opaque
%"class.viz::SurfaceId" = type opaque
%"struct.content::MediaPlayerWatchTime" = type opaque
%"class.device::mojom::GeolocationContext" = type opaque
%"class.mojo::ScopedInterfaceEndpointHandle" = type { %class.scoped_refptr.335 }
%class.scoped_refptr.335 = type { %"class.mojo::ScopedInterfaceEndpointHandle::State"* }
%"class.mojo::ScopedInterfaceEndpointHandle::State" = type opaque
%"class.blink::mojom::CaptureHandleConfig" = type opaque
%"struct.content::GlobalRequestID" = type { i32, i32 }
%"class.blink::mojom::ResourceLoadInfo" = type opaque
%"struct.content::CookieAccessDetails" = type <{ i32, [4 x i8], %class.GURL, %class.GURL, %"class.std::__1::vector.336", i8, [7 x i8] }>
%"class.std::__1::vector.336" = type { %"class.std::__1::__vector_base.337" }
%"class.std::__1::__vector_base.337" = type { %"class.net::CanonicalCookie"*, %"class.net::CanonicalCookie"*, %"class.std::__1::__compressed_pair.338" }
%"class.net::CanonicalCookie" = type { %"class.std::__1::basic_string", %"class.std::__1::basic_string", %"class.std::__1::basic_string", %"class.std::__1::basic_string", %"class.base::Time", %"class.base::Time", %"class.base::Time", i8, i8, i32, i32, i8, i32, i32 }
%"class.std::__1::__compressed_pair.338" = type { %"struct.std::__1::__compressed_pair_elem.339" }
%"struct.std::__1::__compressed_pair_elem.339" = type { %"class.net::CanonicalCookie"* }
%"struct.content::LoadCommittedDetails" = type opaque
%"struct.content::PrunedDetails" = type opaque
%"struct.content::EntryChangedDetails" = type opaque
%"class.content::NavigationEntry" = type opaque
%"struct.blink::UserAgentOverride" = type { %"class.std::__1::basic_string", %"class.absl::optional.343" }
%"class.absl::optional.343" = type { %"class.absl::optional_internal::optional_data.344" }
%"class.absl::optional_internal::optional_data.344" = type { %"class.absl::optional_internal::optional_data_base.345" }
%"class.absl::optional_internal::optional_data_base.345" = type { %"class.absl::optional_internal::optional_data_dtor_base.346" }
%"class.absl::optional_internal::optional_data_dtor_base.346" = type { i8, [7 x i8], %union.anon.347 }
%union.anon.347 = type { %"struct.blink::UserAgentMetadata" }
%"struct.blink::UserAgentMetadata" = type <{ %"class.std::__1::vector.348", %"class.std::__1::basic_string", %"class.std::__1::basic_string", %"class.std::__1::basic_string", %"class.std::__1::basic_string", %"class.std::__1::basic_string", i8, [7 x i8] }>
%"class.std::__1::vector.348" = type { %"class.std::__1::__vector_base.349" }
%"class.std::__1::__vector_base.349" = type { %"struct.blink::UserAgentBrandVersion"*, %"struct.blink::UserAgentBrandVersion"*, %"class.std::__1::__compressed_pair.350" }
%"struct.blink::UserAgentBrandVersion" = type { %"class.std::__1::basic_string", %"class.std::__1::basic_string" }
%"class.std::__1::__compressed_pair.350" = type { %"struct.std::__1::__compressed_pair_elem.351" }
%"struct.std::__1::__compressed_pair_elem.351" = type { %"struct.blink::UserAgentBrandVersion"* }
%"class.std::__1::vector.355" = type opaque
%"struct.content::AXEventNotificationDetails" = type opaque
%"class.std::__1::vector.356" = type opaque
%"struct.content::WebContentsObserver::MediaPlayerInfo" = type { i8, i8 }
%"struct.content::MediaPlayerId" = type opaque
%"struct.content::FocusedNodeDetails" = type opaque
%"class.absl::optional.357" = type { %"class.absl::optional_internal::optional_data.358" }
%"class.absl::optional_internal::optional_data.358" = type { %"class.absl::optional_internal::optional_data_base.359" }
%"class.absl::optional_internal::optional_data_base.359" = type { %"class.absl::optional_internal::optional_data_dtor_base.360" }
%"class.absl::optional_internal::optional_data_dtor_base.360" = type { i8, %union.anon.361 }
%union.anon.361 = type { %class.GURL }
%"class.mojo::ScopedHandleBase" = type { %"class.mojo::MessagePipeHandle" }
%"class.mojo::MessagePipeHandle" = type { %"class.mojo::Handle" }
%"class.mojo::Handle" = type { i32 }
%"struct.std::__1::pair.362" = type opaque
%"class.logging::CheckError" = type { %"class.logging::LogMessage"* }
%"class.logging::LogMessage" = type { i32 (...)**, i32, %"class.std::__1::basic_ostringstream", i64, i8*, i32, %"class.base::ScopedClearLastErrorBase" }
%"class.std::__1::basic_ostringstream" = type { %"class.std::__1::basic_ostream.base", %"class.std::__1::basic_stringbuf", %"class.std::__1::basic_ios.base" }
%"class.std::__1::basic_ostream.base" = type { i32 (...)** }
%"class.std::__1::basic_stringbuf" = type <{ %"class.std::__1::basic_streambuf", %"class.std::__1::basic_string", i8*, i32, [4 x i8] }>
%"class.std::__1::basic_streambuf" = type { i32 (...)**, %"class.std::__1::locale", i8*, i8*, i8*, i8*, i8*, i8* }
%"class.std::__1::locale" = type { %"class.std::__1::locale::__imp"* }
%"class.std::__1::locale::__imp" = type opaque
%"class.std::__1::basic_ios.base" = type <{ %"class.std::__1::ios_base", %"class.std::__1::basic_ostream"*, i32 }>
%"class.std::__1::ios_base" = type { i32 (...)**, i32, i64, i64, i32, i32, i8*, i8*, void (i32, %"class.std::__1::ios_base"*, i32)**, i32*, i64, i64, i64*, i64, i64, i8**, i64, i64 }
%"class.std::__1::basic_ostream" = type { i32 (...)**, %"class.std::__1::basic_ios.base" }
%"class.base::ScopedClearLastErrorBase" = type { i32 }
%"class.logging::CheckOpResult" = type { i8* }

$_ZN10guest_view13GuestViewBase19DidAttachToEmbedderEv = comdat any

$_ZN10guest_view13GuestViewBase13DidInitializeERKN4base15DictionaryValueE = comdat any

$_ZN10guest_view13GuestViewBase25EmbedderFullscreenToggledEb = comdat any

$_ZN10guest_view13GuestViewBase23GuestViewDidStopLoadingEv = comdat any

$_ZN10guest_view13GuestViewBase14GuestDestroyedEv = comdat any

$_ZN10guest_view13GuestViewBase10GuestReadyEv = comdat any

$_ZN10guest_view13GuestViewBase16GuestZoomChangedEdd = comdat any

$_ZN10guest_view13GuestViewBase29GuestSizeChangedDueToAutoSizeERKN3gfx4SizeES4_ = comdat any

$_ZN10guest_view13GuestViewBase22OnPreferredSizeChangedERKN3gfx4SizeE = comdat any

$_ZN10guest_view13GuestViewBase20WillAttachToEmbedderEv = comdat any

$_ZN10guest_view13GuestViewBase11WillDestroyEv = comdat any

$_ZN7content19WebContentsDelegate22NavigationStateChangedEPNS_11WebContentsENS_15InvalidateTypesE = comdat any

$_ZN7content19WebContentsDelegate27VisibleSecurityStateChangedEPNS_11WebContentsE = comdat any

$_ZN7content19WebContentsDelegate14AddNewContentsEPNS_11WebContentsENSt3__110unique_ptrIS1_NS3_14default_deleteIS1_EEEERK4GURL21WindowOpenDispositionRKN3gfx4RectEbPb = comdat any

$_ZN7content19WebContentsDelegate13CloseContentsEPNS_11WebContentsE = comdat any

$_ZN7content19WebContentsDelegate17SetContentsBoundsEPNS_11WebContentsERKN3gfx4RectE = comdat any

$_ZN7content19WebContentsDelegate26WillRunBeforeUnloadConfirmEv = comdat any

$_ZN7content19WebContentsDelegate21SetFocusToLocationBarEv = comdat any

$_ZN7content19WebContentsDelegate11LostCaptureEv = comdat any

$_ZN7content19WebContentsDelegate27ShowRepostFormWarningDialogEPNS_11WebContentsE = comdat any

$_ZN7content19WebContentsDelegate18WebContentsCreatedEPNS_11WebContentsEiiRKNSt3__112basic_stringIcNS3_11char_traitsIcEENS3_9allocatorIcEEEERK4GURLS2_ = comdat any

$_ZN7content19WebContentsDelegate24PortalWebContentsCreatedEPNS_11WebContentsE = comdat any

$_ZN7content19WebContentsDelegate23WebContentsBecamePortalEPNS_11WebContentsE = comdat any

$_ZN7content19WebContentsDelegate20RendererUnresponsiveEPNS_11WebContentsEPNS_16RenderWidgetHostEN4base17RepeatingCallbackIFvvEEE = comdat any

$_ZN7content19WebContentsDelegate18RendererResponsiveEPNS_11WebContentsEPNS_16RenderWidgetHostE = comdat any

$_ZN7content19WebContentsDelegate30DidNavigateMainFramePostCommitEPNS_11WebContentsE = comdat any

$_ZN7content19WebContentsDelegate25EnterFullscreenModeForTabEPNS_15RenderFrameHostERKN5blink5mojom17FullscreenOptionsE = comdat any

$_ZN7content19WebContentsDelegate28FullscreenStateChangedForTabEPNS_15RenderFrameHostERKN5blink5mojom17FullscreenOptionsE = comdat any

$_ZN7content19WebContentsDelegate24ExitFullscreenModeForTabEPNS_11WebContentsE = comdat any

$_ZN7content19WebContentsDelegate23RegisterProtocolHandlerEPNS_15RenderFrameHostERKNSt3__112basic_stringIcNS3_11char_traitsIcEENS3_9allocatorIcEEEERK4GURLb = comdat any

$_ZN7content19WebContentsDelegate25UnregisterProtocolHandlerEPNS_15RenderFrameHostERKNSt3__112basic_stringIcNS3_11char_traitsIcEENS3_9allocatorIcEEEERK4GURLb = comdat any

$_ZN7content19WebContentsDelegate9FindReplyEPNS_11WebContentsEiiRKN3gfx4RectEib = comdat any

$_ZN7content19WebContentsDelegate13LostMouseLockEv = comdat any

$_ZN7content19WebContentsDelegate25CancelKeyboardLockRequestEPNS_11WebContentsE = comdat any

$_ZN7content19WebContentsDelegate20OnDidBlockNavigationEPNS_11WebContentsERK4GURLS5_N5blink5mojom23NavigationBlockedReasonE = comdat any

$_ZN7content19WebContentsDelegate27PassiveInsecureContentFoundERK4GURL = comdat any

$_ZN7content19WebContentsDelegate24SetTopControlsShownRatioEPNS_11WebContentsEf = comdat any

$_ZN7content19WebContentsDelegate37SetTopControlsGestureScrollInProgressEb = comdat any

$_ZN7content19WebContentsDelegate32AdjustPreviewsStateForNavigationEPNS_11WebContentsEPi = comdat any

$_ZNK7content19WebContentsDelegate25PrintCrossProcessSubframeEPNS_11WebContentsERKN3gfx4RectEiPNS_15RenderFrameHostE = comdat any

$_ZN7content19WebContentsDelegate29CapturePaintPreviewOfSubframeEPNS_11WebContentsERKN3gfx4RectERKN4base16UnguessableTokenEPNS_15RenderFrameHostE = comdat any

$_ZN7content19WebContentsDelegate20ExitPictureInPictureEv = comdat any

$_ZN7content19WebContentsDelegate21MediaWatchTimeChangedERKNS_20MediaPlayerWatchTimeE = comdat any

$_ZN3IPC8Listener18OnChannelConnectedEi = comdat any

$_ZN3IPC8Listener14OnChannelErrorEv = comdat any

$_ZN3IPC8Listener20OnBadMessageReceivedERKNS_7MessageE = comdat any

$_ZN3IPC8Listener28OnAssociatedInterfaceRequestERKNSt3__112basic_stringIcNS1_11char_traitsIcEENS1_9allocatorIcEEEEN4mojo29ScopedInterfaceEndpointHandleE = comdat any

$_ZN3IPC8Listener15OnChannelDeniedEv = comdat any

$_ZN3IPC8Listener20OnChannelListenErrorEv = comdat any

$_ZN7content19WebContentsObserver18RenderFrameCreatedEPNS_15RenderFrameHostE = comdat any

$_ZN7content19WebContentsObserver18RenderFrameDeletedEPNS_15RenderFrameHostE = comdat any

$_ZN7content19WebContentsObserver22RenderFrameHostChangedEPNS_15RenderFrameHostES2_ = comdat any

$_ZN7content19WebContentsObserver12FrameDeletedEi = comdat any

$_ZN7content19WebContentsObserver27RenderFrameHostStateChangedEPNS_15RenderFrameHostENS1_14LifecycleStateES3_ = comdat any

$_ZN7content19WebContentsObserver20CaptureTargetChangedEv = comdat any

$_ZN7content19WebContentsObserver27OnCaptureHandleConfigUpdateERKN5blink5mojom19CaptureHandleConfigE = comdat any

$_ZN7content19WebContentsObserver17RenderViewDeletedEPNS_14RenderViewHostE = comdat any

$_ZN7content19WebContentsObserver17RenderProcessGoneEN4base17TerminationStatusE = comdat any

$_ZN7content19WebContentsObserver21RenderViewHostChangedEPNS_14RenderViewHostES2_ = comdat any

$_ZN7content19WebContentsObserver22OnRendererUnresponsiveEPNS_17RenderProcessHostE = comdat any

$_ZN7content19WebContentsObserver20OnRendererResponsiveEPNS_17RenderProcessHostE = comdat any

$_ZN7content19WebContentsObserver18DidStartNavigationEPNS_16NavigationHandleE = comdat any

$_ZN7content19WebContentsObserver21DidRedirectNavigationEPNS_16NavigationHandleE = comdat any

$_ZN7content19WebContentsObserver23ReadyToCommitNavigationEPNS_16NavigationHandleE = comdat any

$_ZN7content19WebContentsObserver17DidActivatePortalEPNS_11WebContentsEN4base9TimeTicksE = comdat any

$_ZN7content19WebContentsObserver15DidStartLoadingEv = comdat any

$_ZN7content19WebContentsObserver18DidReceiveResponseEv = comdat any

$_ZN7content19WebContentsObserver19LoadProgressChangedEd = comdat any

$_ZN7content19WebContentsObserver28DocumentAvailableInMainFrameEPNS_15RenderFrameHostE = comdat any

$_ZN7content19WebContentsObserver34DocumentOnLoadCompletedInMainFrameEPNS_15RenderFrameHostE = comdat any

$_ZN7content19WebContentsObserver16DOMContentLoadedEPNS_15RenderFrameHostE = comdat any

$_ZN7content19WebContentsObserver13DidFinishLoadEPNS_15RenderFrameHostERK4GURL = comdat any

$_ZN7content19WebContentsObserver11DidFailLoadEPNS_15RenderFrameHostERK4GURLi = comdat any

$_ZN7content19WebContentsObserver29DidChangeVisibleSecurityStateEv = comdat any

$_ZN7content19WebContentsObserver30DidLoadResourceFromMemoryCacheEPNS_15RenderFrameHostERK4GURLRKNSt3__112basic_stringIcNS6_11char_traitsIcEENS6_9allocatorIcEEEEN7network5mojom18RequestDestinationE = comdat any

$_ZN7content19WebContentsObserver20ResourceLoadCompleteEPNS_15RenderFrameHostERKNS_15GlobalRequestIDERKN5blink5mojom16ResourceLoadInfoE = comdat any

$_ZN7content19WebContentsObserver17OnCookiesAccessedEPNS_15RenderFrameHostERKNS_19CookieAccessDetailsE = comdat any

$_ZN7content19WebContentsObserver17OnCookiesAccessedEPNS_16NavigationHandleERKNS_19CookieAccessDetailsE = comdat any

$_ZN7content19WebContentsObserver24NavigationEntryCommittedERKNS_20LoadCommittedDetailsE = comdat any

$_ZN7content19WebContentsObserver20NavigationListPrunedERKNS_13PrunedDetailsE = comdat any

$_ZN7content19WebContentsObserver24NavigationEntriesDeletedEv = comdat any

$_ZN7content19WebContentsObserver22NavigationEntryChangedERKNS_19EntryChangedDetailsE = comdat any

$_ZN7content19WebContentsObserver19DidOpenRequestedURLEPNS_11WebContentsEPNS_15RenderFrameHostERK4GURLRKNS_8ReferrerE21WindowOpenDispositionN2ui14PageTransitionEbb = comdat any

$_ZN7content19WebContentsObserver29DidFirstVisuallyNonEmptyPaintEv = comdat any

$_ZN7content19WebContentsObserver17NavigationStoppedEv = comdat any

$_ZN7content19WebContentsObserver21DidGetUserInteractionERKN5blink13WebInputEventE = comdat any

$_ZN7content19WebContentsObserver20DidGetIgnoredUIEventEv = comdat any

$_ZN7content19WebContentsObserver19OnVisibilityChangedENS_10VisibilityE = comdat any

$_ZN7content19WebContentsObserver19MainFrameWasResizedEb = comdat any

$_ZN7content19WebContentsObserver16FrameNameChangedEPNS_15RenderFrameHostERKNSt3__112basic_stringIcNS3_11char_traitsIcEENS3_9allocatorIcEEEE = comdat any

$_ZN7content19WebContentsObserver27FrameReceivedUserActivationEPNS_15RenderFrameHostE = comdat any

$_ZN7content19WebContentsObserver24FrameDisplayStateChangedEPNS_15RenderFrameHostEb = comdat any

$_ZN7content19WebContentsObserver16FrameSizeChangedEPNS_15RenderFrameHostERKN3gfx4SizeE = comdat any

$_ZN7content19WebContentsObserver11TitleWasSetEPNS_15NavigationEntryE = comdat any

$_ZN7content19WebContentsObserver16AppCacheAccessedERK4GURLb = comdat any

$_ZN7content19WebContentsObserver21PepperInstanceCreatedEv = comdat any

$_ZN7content19WebContentsObserver21PepperInstanceDeletedEv = comdat any

$_ZN7content19WebContentsObserver18ViewportFitChangedEN5blink5mojom11ViewportFitE = comdat any

$_ZN7content19WebContentsObserver13PluginCrashedERKN4base8FilePathEi = comdat any

$_ZN7content19WebContentsObserver23PluginHungStatusChangedEiRKN4base8FilePathEb = comdat any

$_ZN7content19WebContentsObserver23InnerWebContentsCreatedEPNS_11WebContentsE = comdat any

$_ZN7content19WebContentsObserver24InnerWebContentsAttachedEPNS_11WebContentsEPNS_15RenderFrameHostEb = comdat any

$_ZN7content19WebContentsObserver24InnerWebContentsDetachedEPNS_11WebContentsE = comdat any

$_ZN7content19WebContentsObserver24DidCloneToNewWebContentsEPNS_11WebContentsES2_ = comdat any

$_ZN7content19WebContentsObserver20UserAgentOverrideSetERKN5blink17UserAgentOverrideE = comdat any

$_ZN7content19WebContentsObserver19DidUpdateFaviconURLEPNS_15RenderFrameHostERKNSt3__16vectorIN4mojo9StructPtrIN5blink5mojom10FaviconURLEEENS3_9allocatorISA_EEEE = comdat any

$_ZN7content19WebContentsObserver19OnAudioStateChangedEb = comdat any

$_ZN7content19WebContentsObserver24OnFrameAudioStateChangedEPNS_15RenderFrameHostEb = comdat any

$_ZN7content19WebContentsObserver37OnIsConnectedToBluetoothDeviceChangedEb = comdat any

$_ZN7content19WebContentsObserver25DidUpdateAudioMutingStateEb = comdat any

$_ZN7content19WebContentsObserver29DidToggleFullscreenModeForTabEbb = comdat any

$_ZN7content19WebContentsObserver20DidAcquireFullscreenEPNS_15RenderFrameHostE = comdat any

$_ZN7content19WebContentsObserver32DidChangeVerticalScrollDirectionEN3viz23VerticalScrollDirectionE = comdat any

$_ZN7content19WebContentsObserver27BeforeFormRepostWarningShowEv = comdat any

$_ZN7content19WebContentsObserver17BeforeUnloadFiredEbRKN4base9TimeTicksE = comdat any

$_ZN7content19WebContentsObserver27BeforeUnloadDialogCancelledEv = comdat any

$_ZN7content19WebContentsObserver30AXTreeIDForMainFrameHasChangedEv = comdat any

$_ZN7content19WebContentsObserver26AccessibilityEventReceivedERKNS_26AXEventNotificationDetailsE = comdat any

$_ZN7content19WebContentsObserver36AccessibilityLocationChangesReceivedERKNSt3__16vectorINS_35AXLocationChangeNotificationDetailsENS1_9allocatorIS3_EEEE = comdat any

$_ZN7content19WebContentsObserver19DidChangeThemeColorEv = comdat any

$_ZN7content19WebContentsObserver24OnBackgroundColorChangedEv = comdat any

$_ZN7content19WebContentsObserver24OnDidAddMessageToConsoleEPNS_15RenderFrameHostEN5blink5mojom19ConsoleMessageLevelERKNSt3__112basic_stringIDsNS6_11char_traitsIDsEENS6_9allocatorIDsEEEEiSE_RKN4absl8optionalISC_EE = comdat any

$_ZN7content19WebContentsObserver19MediaStartedPlayingERKNS0_15MediaPlayerInfoERKNS_13MediaPlayerIdE = comdat any

$_ZN7content19WebContentsObserver19MediaStoppedPlayingERKNS0_15MediaPlayerInfoERKNS_13MediaPlayerIdENS0_18MediaStoppedReasonE = comdat any

$_ZN7content19WebContentsObserver12MediaResizedERKN3gfx4SizeERKNS_13MediaPlayerIdE = comdat any

$_ZN7content19WebContentsObserver33MediaEffectivelyFullscreenChangedEb = comdat any

$_ZN7content19WebContentsObserver28MediaPictureInPictureChangedEb = comdat any

$_ZN7content19WebContentsObserver23MediaMutedStatusChangedERKNS_13MediaPlayerIdEb = comdat any

$_ZN7content19WebContentsObserver20MediaBufferUnderflowERKNS_13MediaPlayerIdE = comdat any

$_ZN7content19WebContentsObserver15MediaPlayerSeekERKNS_13MediaPlayerIdE = comdat any

$_ZN7content19WebContentsObserver14MediaDestroyedERKNS_13MediaPlayerIdE = comdat any

$_ZN7content19WebContentsObserver24OnPageScaleFactorChangedEf = comdat any

$_ZN7content19WebContentsObserver7OnPasteEv = comdat any

$_ZN7content19WebContentsObserver20OnWebContentsFocusedEPNS_16RenderWidgetHostE = comdat any

$_ZN7content19WebContentsObserver22OnWebContentsLostFocusEPNS_16RenderWidgetHostE = comdat any

$_ZN7content19WebContentsObserver20OnFocusChangedInPageEPNS_18FocusedNodeDetailsE = comdat any

$_ZN7content19WebContentsObserver23DidUpdateWebManifestURLEPNS_15RenderFrameHostERKN4absl8optionalI4GURLEE = comdat any

$_ZN7content19WebContentsObserver27OnInterfaceRequestFromFrameEPNS_15RenderFrameHostERKNSt3__112basic_stringIcNS3_11char_traitsIcEENS3_9allocatorIcEEEEPN4mojo16ScopedHandleBaseINSC_17MessagePipeHandleEEE = comdat any

$_ZN7content19WebContentsObserver27AudioContextPlaybackStartedERKNSt3__14pairIPNS_15RenderFrameHostEiEE = comdat any

$_ZN7content19WebContentsObserver27AudioContextPlaybackStoppedERKNSt3__14pairIPNS_15RenderFrameHostEiEE = comdat any

$_ZN7content19WebContentsObserver23OnServiceWorkerAccessedEPNS_15RenderFrameHostERK4GURLNS_24AllowServiceWorkerResultE = comdat any

$_ZN7content19WebContentsObserver23OnServiceWorkerAccessedEPNS_16NavigationHandleERK4GURLNS_24AllowServiceWorkerResultE = comdat any

$_ZN4base14circular_dequeINSt3__110unique_ptrIN10guest_view14GuestViewEventENS1_14default_deleteIS4_EEEEE13DestructRangeEmm = comdat any

$_ZN4base8internal12VectorBufferINSt3__110unique_ptrIN10guest_view14GuestViewEventENS2_14default_deleteIS5_EEEEE13DestructRangeIS8_Li0EEEvPS8_SB_ = comdat any

$_ZN4base8internal12VectorBufferINSt3__110unique_ptrIN10guest_view14GuestViewEventENS2_14default_deleteIS5_EEEEEixEm = comdat any

$_ZZN7logging15CheckOpValueStrIPNSt3__110unique_ptrIN10guest_view14GuestViewEventENS1_14default_deleteIS4_EEEEEENS1_9enable_ifIXaasr4base8internal23SupportsOstreamOperatorIRKT_EE5valuentsr3std11is_functionINS1_14remove_pointerISA_E4typeEEE5valueEPcE4typeESC_ENUlRNS1_13basic_ostreamIcNS1_11char_traitsIcEEEEPKvE_8__invokeESN_SP_ = comdat any

$_ZN4base8internal7InvokerINS0_9BindStateIMN10guest_view13GuestViewBaseEFvNSt3__110unique_ptrINS_15DictionaryValueENS5_14default_deleteIS7_EEEENS_12OnceCallbackIFvPN7content11WebContentsEEEESE_EJNS_7WeakPtrIS4_EESA_SG_EEESF_E7RunOnceEPNS0_13BindStateBaseESE_ = comdat any

$_ZN4base8internal13FunctorTraitsIMN10guest_view13GuestViewBaseEFvNSt3__110unique_ptrINS_15DictionaryValueENS4_14default_deleteIS6_EEEENS_12OnceCallbackIFvPN7content11WebContentsEEEESD_EvE6InvokeISH_NS_7WeakPtrIS3_EEJS9_SF_SD_EEEvT_OT0_DpOT1_ = comdat any

$_ZN4base8internal9BindStateIMN10guest_view13GuestViewBaseEFvNSt3__110unique_ptrINS_15DictionaryValueENS4_14default_deleteIS6_EEEENS_12OnceCallbackIFvPN7content11WebContentsEEEESD_EJNS_7WeakPtrIS3_EES9_SF_EE7DestroyEPKNS0_13BindStateBaseE = comdat any

$_ZN4base8internal23QueryCancellationTraitsINS0_9BindStateIMN10guest_view13GuestViewBaseEFvNSt3__110unique_ptrINS_15DictionaryValueENS5_14default_deleteIS7_EEEENS_12OnceCallbackIFvPN7content11WebContentsEEEESE_EJNS_7WeakPtrIS4_EESA_SG_EEEEEbPKNS0_13BindStateBaseENSM_21CancellationQueryModeE = comdat any

$_ZN10guest_view13GuestViewBase21OwnerContentsObserverD0Ev = comdat any

$_ZN10guest_view13GuestViewBase21OwnerContentsObserver18RenderFrameDeletedEPN7content15RenderFrameHostE = comdat any

$_ZN7content19WebContentsObserver15RenderViewReadyEv = comdat any

$_ZN10guest_view13GuestViewBase21OwnerContentsObserver17RenderProcessGoneEN4base17TerminationStatusE = comdat any

$_ZN10guest_view13GuestViewBase21OwnerContentsObserver19DidFinishNavigationEPN7content16NavigationHandleE = comdat any

$_ZN7content19WebContentsObserver14DidStopLoadingEv = comdat any

$_ZN10guest_view13GuestViewBase21OwnerContentsObserver19MainFrameWasResizedEb = comdat any

$_ZN10guest_view13GuestViewBase21OwnerContentsObserver20WebContentsDestroyedEv = comdat any

$_ZN10guest_view13GuestViewBase21OwnerContentsObserver25DidUpdateAudioMutingStateEb = comdat any

$_ZN10guest_view13GuestViewBase21OwnerContentsObserver29DidToggleFullscreenModeForTabEbb = comdat any

$_ZNSt3__16__treeINS_12__value_typeIPKN7content11WebContentsEPN10guest_view13GuestViewBaseEEENS_19__map_value_compareIS5_S9_NS_4lessIS5_EELb1EEENS_9allocatorIS9_EEE21__emplace_unique_implIJNS_4pairIPS3_S8_EEEEENSI_INS_15__tree_iteratorIS9_PNS_11__tree_nodeIS9_PvEElEEbEEDpOT_ = comdat any

$_ZNSt3__127__tree_balance_after_insertIPNS_16__tree_node_baseIPvEEEEvT_S5_ = comdat any

$_ZNSt3__113__tree_removeIPNS_16__tree_node_baseIPvEEEEvT_S5_ = comdat any

$_ZN10guest_view13GuestViewBase22OpenerLifetimeObserverD0Ev = comdat any

$_ZN7content19WebContentsObserver19DidFinishNavigationEPNS_16NavigationHandleE = comdat any

$_ZN10guest_view13GuestViewBase22OpenerLifetimeObserver20WebContentsDestroyedEv = comdat any

$_ZN4base8internal7InvokerINS0_9BindStateIMN10guest_view13GuestViewBaseEFvvEJNS_7WeakPtrIS4_EEEEEFvvEE7RunOnceEPNS0_13BindStateBaseE = comdat any

$_ZN4base8internal9BindStateIMN10guest_view13GuestViewBaseEFvvEJNS_7WeakPtrIS3_EEEE7DestroyEPKNS0_13BindStateBaseE = comdat any

$_ZN4base8internal23QueryCancellationTraitsINS0_9BindStateIMN10guest_view13GuestViewBaseEFvvEJNS_7WeakPtrIS4_EEEEEEEbPKNS0_13BindStateBaseENSA_21CancellationQueryModeE = comdat any

$_ZN4base14circular_dequeINSt3__110unique_ptrIN10guest_view14GuestViewEventENS1_14default_deleteIS4_EEEEE25ExpandCapacityIfNecessaryEm = comdat any

$_ZN4base14circular_dequeINSt3__110unique_ptrIN10guest_view14GuestViewEventENS1_14default_deleteIS4_EEEEE10MoveBufferERNS_8internal12VectorBufferIS7_EEmmPSB_PmSE_ = comdat any

$_ZN4base8internal12VectorBufferINSt3__110unique_ptrIN10guest_view14GuestViewEventENS2_14default_deleteIS5_EEEEE9MoveRangeIS8_Li0EEEvPS8_SB_SB_ = comdat any

$_ZNK4base8internal12VectorBufferINSt3__110unique_ptrIN10guest_view14GuestViewEventENS2_14default_deleteIS5_EEEEEixEm = comdat any

$_ZN4base14circular_dequeINSt3__110unique_ptrIN10guest_view14GuestViewEventENS1_14default_deleteIS4_EEEEE25ShrinkCapacityIfNecessaryEv = comdat any

$_ZTVN10guest_view13GuestViewBase21OwnerContentsObserverE = comdat any

$_ZTVN10guest_view13GuestViewBase22OpenerLifetimeObserverE = comdat any

@_ZTVN10guest_view13GuestViewBaseE = hidden unnamed_addr constant { [50 x i8*], [99 x i8*], [109 x i8*], [5 x i8*] } { [50 x i8*] [i8* null, i8* null, i8* bitcast (void (%"class.guest_view::GuestViewBase"*)* @_ZN10guest_view13GuestViewBaseD2Ev to i8*), i8* bitcast (void (%"class.guest_view::GuestViewBase"*)* @_ZN10guest_view13GuestViewBaseD0Ev to i8*), i8* bitcast (%"class.content::WebContents"* (%"class.guest_view::GuestViewBase"*, %"struct.content::WebContents::CreateParams"*)* @_ZN10guest_view13GuestViewBase20CreateNewGuestWindowERKN7content11WebContents12CreateParamsE to i8*), i8* bitcast (%"class.content::WebContents"* (%"class.guest_view::GuestViewBase"*)* @_ZN10guest_view13GuestViewBase19GetOwnerWebContentsEv to i8*), i8* bitcast (void (%"class.guest_view::GuestViewBase"*, %"class.content::GuestHost"*)* @_ZN10guest_view13GuestViewBase12SetGuestHostEPN7content9GuestHostE to i8*), i8* bitcast (void ()* @__cxa_pure_virtual to i8*), i8* bitcast (i1 (%"class.guest_view::GuestViewBase"*)* @_ZNK10guest_view13GuestViewBase19IsAutoSizeSupportedEv to i8*), i8* bitcast (i1 (%"class.guest_view::GuestViewBase"*)* @_ZNK10guest_view13GuestViewBase26IsPreferredSizeModeEnabledEv to i8*), i8* bitcast (i1 (%"class.guest_view::GuestViewBase"*)* @_ZNK10guest_view13GuestViewBase33ZoomPropagatesFromEmbedderToGuestEv to i8*), i8* bitcast (void ()* @__cxa_pure_virtual to i8*), i8* bitcast (void ()* @__cxa_pure_virtual to i8*), i8* bitcast (i1 (%"class.guest_view::GuestViewBase"*)* @_ZNK10guest_view13GuestViewBase21ShouldDestroyOnDetachEv to i8*), i8* bitcast (%"class.content::RenderWidgetHost"* (%"class.guest_view::GuestViewBase"*)* @_ZN10guest_view13GuestViewBase24GetOwnerRenderWidgetHostEv to i8*), i8* bitcast (%"class.content::SiteInstance"* (%"class.guest_view::GuestViewBase"*)* @_ZN10guest_view13GuestViewBase20GetOwnerSiteInstanceEv to i8*), i8* bitcast (i1 (%"class.guest_view::GuestViewBase"*)* @_ZN10guest_view13GuestViewBase37CanBeEmbeddedInsideCrossProcessFramesEv to i8*), i8* bitcast (void (%"class.guest_view::GuestViewBase"*, i32, i32)* @_ZN10guest_view13GuestViewBase24OnRenderFrameHostDeletedEii to i8*), i8* bitcast (i1 (%"class.guest_view::GuestViewBase"*, %"class.content::WebContents"*, %"struct.content::NativeWebKeyboardEvent"*)* @_ZN10guest_view13GuestViewBase19HandleKeyboardEventEPN7content11WebContentsERKNS1_22NativeWebKeyboardEventE to i8*), i8* bitcast (i1 (%"class.guest_view::GuestViewBase"*, %"class.content::WebContents"*, %"class.blink::WebGestureEvent"*)* @_ZN10guest_view13GuestViewBase21PreHandleGestureEventEPN7content11WebContentsERKN5blink15WebGestureEventE to i8*), i8* bitcast (%"class.content::WebContents"* (%"class.guest_view::GuestViewBase"*, %"class.content::WebContents"*)* @_ZN10guest_view13GuestViewBase25GetResponsibleWebContentsEPN7content11WebContentsE to i8*), i8* bitcast (void (%"class.guest_view::GuestViewBase"*, %"class.content::NavigationHandle"*)* @_ZN10guest_view13GuestViewBase19DidFinishNavigationEPN7content16NavigationHandleE to i8*), i8* bitcast (void ()* @__cxa_pure_virtual to i8*), i8* bitcast (void (%"class.guest_view::GuestViewBase"*)* @_ZN10guest_view13GuestViewBase19DidAttachToEmbedderEv to i8*), i8* bitcast (void (%"class.guest_view::GuestViewBase"*, %"class.base::DictionaryValue"*)* @_ZN10guest_view13GuestViewBase13DidInitializeERKN4base15DictionaryValueE to i8*), i8* bitcast (void (%"class.guest_view::GuestViewBase"*, i1)* @_ZN10guest_view13GuestViewBase25EmbedderFullscreenToggledEb to i8*), i8* bitcast (void (%"class.guest_view::GuestViewBase"*)* @_ZN10guest_view13GuestViewBase23GuestViewDidStopLoadingEv to i8*), i8* bitcast (void (%"class.guest_view::GuestViewBase"*)* @_ZN10guest_view13GuestViewBase14GuestDestroyedEv to i8*), i8* bitcast (void (%"class.guest_view::GuestViewBase"*)* @_ZN10guest_view13GuestViewBase10GuestReadyEv to i8*), i8* bitcast (void (%"class.guest_view::GuestViewBase"*, double, double)* @_ZN10guest_view13GuestViewBase16GuestZoomChangedEdd to i8*), i8* bitcast (void (%"class.guest_view::GuestViewBase"*, %"class.gfx::Size"*, %"class.gfx::Size"*)* @_ZN10guest_view13GuestViewBase29GuestSizeChangedDueToAutoSizeERKN3gfx4SizeES4_ to i8*), i8* bitcast (void (%"class.guest_view::GuestViewBase"*, %"class.gfx::Size"*)* @_ZN10guest_view13GuestViewBase22OnPreferredSizeChangedERKN3gfx4SizeE to i8*), i8* bitcast (void (%"class.guest_view::GuestViewBase"*, %"class.base::OnceCallback.180"*)* @_ZN10guest_view13GuestViewBase15SignalWhenReadyEN4base12OnceCallbackIFvvEEE to i8*), i8* bitcast (void (%"class.guest_view::GuestViewBase"*)* @_ZN10guest_view13GuestViewBase20WillAttachToEmbedderEv to i8*), i8* bitcast (void (%"class.guest_view::GuestViewBase"*)* @_ZN10guest_view13GuestViewBase11WillDestroyEv to i8*), i8* bitcast (void (%"class.guest_view::GuestViewBase"*, %"class.content::WebContents"*)* @_ZN10guest_view13GuestViewBase16ActivateContentsEPN7content11WebContentsE to i8*), i8* bitcast (void (%"class.guest_view::GuestViewBase"*, %"class.content::WebContents"*, i1, i1)* @_ZN10guest_view13GuestViewBase18ContentsMouseEventEPN7content11WebContentsEbb to i8*), i8* bitcast (void (%"class.guest_view::GuestViewBase"*, i1)* @_ZN10guest_view13GuestViewBase18ContentsZoomChangeEb to i8*), i8* bitcast (void (%"class.guest_view::GuestViewBase"*, %"class.content::WebContents"*, i1)* @_ZN10guest_view13GuestViewBase19LoadingStateChangedEPN7content11WebContentsEb to i8*), i8* bitcast (%"class.content::ColorChooser"* (%"class.guest_view::GuestViewBase"*, %"class.content::WebContents"*, i32, %"class.std::__1::vector.197"*)* @_ZN10guest_view13GuestViewBase16OpenColorChooserEPN7content11WebContentsEjRKNSt3__16vectorIN4mojo16InlinedStructPtrIN5blink5mojom15ColorSuggestionEEENS4_9allocatorISB_EEEE to i8*), i8* bitcast (void (%"class.guest_view::GuestViewBase"*, %"class.content::WebContents"*, %"class.gfx::Size"*)* @_ZN10guest_view13GuestViewBase21ResizeDueToAutoResizeEPN7content11WebContentsERKN3gfx4SizeE to i8*), i8* bitcast (void (%"class.guest_view::GuestViewBase"*, %"class.content::RenderFrameHost"*, %"class.content::FileSelectListener"*, %"class.blink::mojom::FileChooserParams"*)* @_ZN10guest_view13GuestViewBase14RunFileChooserEPN7content15RenderFrameHostE13scoped_refptrINS1_18FileSelectListenerEERKN5blink5mojom17FileChooserParamsE to i8*), i8* bitcast (i1 (%"class.guest_view::GuestViewBase"*)* @_ZN10guest_view13GuestViewBase25ShouldFocusPageAfterCrashEv to i8*), i8* bitcast (void (%"class.guest_view::GuestViewBase"*, %"class.content::WebContents"*, %"class.gfx::Size"*)* @_ZN10guest_view13GuestViewBase19UpdatePreferredSizeEPN7content11WebContentsERKN3gfx4SizeE to i8*), i8* bitcast (void (%"class.guest_view::GuestViewBase"*, %"class.content::WebContents"*, %class.GURL*)* @_ZN10guest_view13GuestViewBase15UpdateTargetURLEPN7content11WebContentsERK4GURL to i8*), i8* bitcast (i1 (%"class.guest_view::GuestViewBase"*)* @_ZN10guest_view13GuestViewBase36ShouldResumeRequestsForCreatedWindowEv to i8*), i8* bitcast (void (%"class.guest_view::GuestViewBase"*)* @_ZN10guest_view13GuestViewBase14DidStopLoadingEv to i8*), i8* bitcast (void (%"class.guest_view::GuestViewBase"*)* @_ZN10guest_view13GuestViewBase15RenderViewReadyEv to i8*), i8* bitcast (void (%"class.guest_view::GuestViewBase"*)* @_ZN10guest_view13GuestViewBase20WebContentsDestroyedEv to i8*), i8* bitcast (void (%"class.guest_view::GuestViewBase"*, %"struct.zoom::ZoomController::ZoomChangedEventData"*)* @_ZN10guest_view13GuestViewBase13OnZoomChangedERKN4zoom14ZoomController20ZoomChangedEventDataE to i8*)], [99 x i8*] [i8* inttoptr (i64 -8 to i8*), i8* null, i8* bitcast (%"class.content::WebContents"* (%"class.content::WebContentsDelegate"*, %"class.content::WebContents"*, %"struct.content::OpenURLParams"*)* @_ZN7content19WebContentsDelegate14OpenURLFromTabEPNS_11WebContentsERKNS_13OpenURLParamsE to i8*), i8* bitcast (i1 (%"class.content::WebContentsDelegate"*, i1)* @_ZN7content19WebContentsDelegate24ShouldTransferNavigationEb to i8*), i8* bitcast (void (%"class.content::WebContentsDelegate"*, %"class.content::WebContents"*, i32)* @_ZN7content19WebContentsDelegate22NavigationStateChangedEPNS_11WebContentsENS_15InvalidateTypesE to i8*), i8* bitcast (void (%"class.content::WebContentsDelegate"*, %"class.content::WebContents"*)* @_ZN7content19WebContentsDelegate27VisibleSecurityStateChangedEPNS_11WebContentsE to i8*), i8* bitcast (void (%"class.content::WebContentsDelegate"*, %"class.content::WebContents"*, %"class.content::WebContents"*, %class.GURL*, i32, %"class.gfx::Rect"*, i1, i8*)* @_ZN7content19WebContentsDelegate14AddNewContentsEPNS_11WebContentsENSt3__110unique_ptrIS1_NS3_14default_deleteIS1_EEEERK4GURL21WindowOpenDispositionRKN3gfx4RectEbPb to i8*), i8* bitcast (void (%"class.guest_view::GuestViewBase"*, %"class.content::WebContents"*)* @_ZThn8_N10guest_view13GuestViewBase16ActivateContentsEPN7content11WebContentsE to i8*), i8* bitcast (void (%"class.guest_view::GuestViewBase"*, %"class.content::WebContents"*, i1)* @_ZThn8_N10guest_view13GuestViewBase19LoadingStateChangedEPN7content11WebContentsEb to i8*), i8* bitcast (void (%"class.content::WebContentsDelegate"*, %"class.content::WebContents"*)* @_ZN7content19WebContentsDelegate13CloseContentsEPNS_11WebContentsE to i8*), i8* bitcast (void (%"class.content::WebContentsDelegate"*, %"class.content::WebContents"*, %"class.gfx::Rect"*)* @_ZN7content19WebContentsDelegate17SetContentsBoundsEPNS_11WebContentsERKN3gfx4RectE to i8*), i8* bitcast (void (%"class.guest_view::GuestViewBase"*, %"class.content::WebContents"*, %class.GURL*)* @_ZThn8_N10guest_view13GuestViewBase15UpdateTargetURLEPN7content11WebContentsERK4GURL to i8*), i8* bitcast (void (%"class.guest_view::GuestViewBase"*, %"class.content::WebContents"*, i1, i1)* @_ZThn8_N10guest_view13GuestViewBase18ContentsMouseEventEPN7content11WebContentsEbb to i8*), i8* bitcast (void (%"class.guest_view::GuestViewBase"*, i1)* @_ZThn8_N10guest_view13GuestViewBase18ContentsZoomChangeEb to i8*), i8* bitcast (i1 (%"class.content::WebContentsDelegate"*)* @_ZN7content19WebContentsDelegate20CanOverscrollContentEv to i8*), i8* bitcast (void (%"class.content::WebContentsDelegate"*)* @_ZN7content19WebContentsDelegate26WillRunBeforeUnloadConfirmEv to i8*), i8* bitcast (i1 (%"class.content::WebContentsDelegate"*, %"class.content::WebContents"*)* @_ZN7content19WebContentsDelegate21ShouldSuppressDialogsEPNS_11WebContentsE to i8*), i8* bitcast (i1 (%"class.content::WebContentsDelegate"*, %"class.content::WebContents"*)* @_ZN7content19WebContentsDelegate25ShouldPreserveAbortedURLsEPNS_11WebContentsE to i8*), i8* bitcast (i1 (%"class.content::WebContentsDelegate"*, %"class.content::WebContents"*, i32, %"class.std::__1::basic_string.200"*, i32, %"class.std::__1::basic_string.200"*)* @_ZN7content19WebContentsDelegate22DidAddMessageToConsoleEPNS_11WebContentsEN5blink5mojom19ConsoleMessageLevelERKNSt3__112basic_stringIDsNS6_11char_traitsIDsEENS6_9allocatorIDsEEEEiSE_ to i8*), i8* bitcast (void (%"class.content::WebContentsDelegate"*, %"class.content::WebContents"*, i1, i8*)* @_ZN7content19WebContentsDelegate17BeforeUnloadFiredEPNS_11WebContentsEbPb to i8*), i8* bitcast (i1 (%"class.content::WebContentsDelegate"*, %"class.content::WebContents"*)* @_ZN7content19WebContentsDelegate31ShouldFocusLocationBarByDefaultEPNS_11WebContentsE to i8*), i8* bitcast (void (%"class.content::WebContentsDelegate"*)* @_ZN7content19WebContentsDelegate21SetFocusToLocationBarEv to i8*), i8* bitcast (i1 (%"class.guest_view::GuestViewBase"*)* @_ZThn8_N10guest_view13GuestViewBase25ShouldFocusPageAfterCrashEv to i8*), i8* bitcast (i1 (%"class.guest_view::GuestViewBase"*)* @_ZThn8_N10guest_view13GuestViewBase36ShouldResumeRequestsForCreatedWindowEv to i8*), i8* bitcast (i1 (%"class.content::WebContentsDelegate"*, %"class.content::WebContents"*, i1)* @_ZN7content19WebContentsDelegate9TakeFocusEPNS_11WebContentsEb to i8*), i8* bitcast (void (%"class.content::WebContentsDelegate"*)* @_ZN7content19WebContentsDelegate11LostCaptureEv to i8*), i8* bitcast (void (%"class.content::WebContentsDelegate"*, %class.GURL*, %"class.std::__1::basic_string"*, %"class.base::OnceCallback.288"*)* @_ZN7content19WebContentsDelegate11CanDownloadERK4GURLRKNSt3__112basic_stringIcNS4_11char_traitsIcEENS4_9allocatorIcEEEEN4base12OnceCallbackIFvbEEE to i8*), i8* bitcast (i1 (%"class.content::WebContentsDelegate"*, %"class.content::RenderFrameHost"*, %"struct.content::ContextMenuParams"*)* @_ZN7content19WebContentsDelegate17HandleContextMenuEPNS_15RenderFrameHostERKNS_17ContextMenuParamsE to i8*), i8* bitcast (i32 (%"class.content::WebContentsDelegate"*, %"class.content::WebContents"*, %"struct.content::NativeWebKeyboardEvent"*)* @_ZN7content19WebContentsDelegate22PreHandleKeyboardEventEPNS_11WebContentsERKNS_22NativeWebKeyboardEventE to i8*), i8* bitcast (i1 (%"class.guest_view::GuestViewBase"*, %"class.content::WebContents"*, %"struct.content::NativeWebKeyboardEvent"*)* @_ZThn8_N10guest_view13GuestViewBase19HandleKeyboardEventEPN7content11WebContentsERKNS1_22NativeWebKeyboardEventE to i8*), i8* bitcast (i1 (%"class.guest_view::GuestViewBase"*, %"class.content::WebContents"*, %"class.blink::WebGestureEvent"*)* @_ZThn8_N10guest_view13GuestViewBase21PreHandleGestureEventEPN7content11WebContentsERKN5blink15WebGestureEventE to i8*), i8* bitcast (i1 (%"class.content::WebContentsDelegate"*, %"class.content::WebContents"*, %"struct.content::DropData"*, i32)* @_ZN7content19WebContentsDelegate12CanDragEnterEPNS_11WebContentsERKNS_8DropDataEN5blink18DragOperationsMaskE to i8*), i8* bitcast (void (%"class.content::WebContentsDelegate"*, %"class.content::WebContents"*)* @_ZN7content19WebContentsDelegate27ShowRepostFormWarningDialogEPNS_11WebContentsE to i8*), i8* bitcast (i1 (%"class.content::WebContentsDelegate"*, i32)* @_ZN7content19WebContentsDelegate17OnGoToEntryOffsetEi to i8*), i8* bitcast (i1 (%"class.content::WebContentsDelegate"*, %"class.content::SiteInstance"*, i32, %class.GURL*, %"class.std::__1::basic_string"*, %class.GURL*)* @_ZN7content19WebContentsDelegate31IsWebContentsCreationOverriddenEPNS_12SiteInstanceENS_5mojom19WindowContainerTypeERK4GURLRKNSt3__112basic_stringIcNS8_11char_traitsIcEENS8_9allocatorIcEEEES7_ to i8*), i8* bitcast (%"class.content::WebContents"* (%"class.content::WebContentsDelegate"*, %"class.content::RenderFrameHost"*, %"class.content::SiteInstance"*, i1, %class.GURL*, %"class.std::__1::basic_string"*, %class.GURL*, %"class.content::StoragePartitionId"*, %"class.content::SessionStorageNamespace"*)* @_ZN7content19WebContentsDelegate23CreateCustomWebContentsEPNS_15RenderFrameHostEPNS_12SiteInstanceEbRK4GURLRKNSt3__112basic_stringIcNS8_11char_traitsIcEENS8_9allocatorIcEEEES7_RKNS_18StoragePartitionIdEPNS_23SessionStorageNamespaceE to i8*), i8* bitcast (void (%"class.content::WebContentsDelegate"*, %"class.content::WebContents"*, i32, i32, %"class.std::__1::basic_string"*, %class.GURL*, %"class.content::WebContents"*)* @_ZN7content19WebContentsDelegate18WebContentsCreatedEPNS_11WebContentsEiiRKNSt3__112basic_stringIcNS3_11char_traitsIcEENS3_9allocatorIcEEEERK4GURLS2_ to i8*), i8* bitcast (void (%"class.content::WebContentsDelegate"*, %"class.content::WebContents"*)* @_ZN7content19WebContentsDelegate24PortalWebContentsCreatedEPNS_11WebContentsE to i8*), i8* bitcast (void (%"class.content::WebContentsDelegate"*, %"class.content::WebContents"*)* @_ZN7content19WebContentsDelegate23WebContentsBecamePortalEPNS_11WebContentsE to i8*), i8* bitcast (void (%"class.content::WebContentsDelegate"*, %"class.content::WebContents"*, %"class.content::RenderWidgetHost"*, %"class.base::RepeatingCallback"*)* @_ZN7content19WebContentsDelegate20RendererUnresponsiveEPNS_11WebContentsEPNS_16RenderWidgetHostEN4base17RepeatingCallbackIFvvEEE to i8*), i8* bitcast (void (%"class.content::WebContentsDelegate"*, %"class.content::WebContents"*, %"class.content::RenderWidgetHost"*)* @_ZN7content19WebContentsDelegate18RendererResponsiveEPNS_11WebContentsEPNS_16RenderWidgetHostE to i8*), i8* bitcast (void (%"class.content::WebContentsDelegate"*, %"class.content::WebContents"*)* @_ZN7content19WebContentsDelegate30DidNavigateMainFramePostCommitEPNS_11WebContentsE to i8*), i8* bitcast (%"class.content::JavaScriptDialogManager"* (%"class.content::WebContentsDelegate"*, %"class.content::WebContents"*)* @_ZN7content19WebContentsDelegate26GetJavaScriptDialogManagerEPNS_11WebContentsE to i8*), i8* bitcast (%"class.content::ColorChooser"* (%"class.guest_view::GuestViewBase"*, %"class.content::WebContents"*, i32, %"class.std::__1::vector.197"*)* @_ZThn8_N10guest_view13GuestViewBase16OpenColorChooserEPN7content11WebContentsEjRKNSt3__16vectorIN4mojo16InlinedStructPtrIN5blink5mojom15ColorSuggestionEEENS4_9allocatorISB_EEEE to i8*), i8* bitcast (void ()* @_ZN7content19WebContentsDelegate14OpenEyeDropperEPNS_15RenderFrameHostEPNS_18EyeDropperListenerE to i8*), i8* bitcast (void (%"class.guest_view::GuestViewBase"*, %"class.content::RenderFrameHost"*, %"class.content::FileSelectListener"*, %"class.blink::mojom::FileChooserParams"*)* @_ZThn8_N10guest_view13GuestViewBase14RunFileChooserEPN7content15RenderFrameHostE13scoped_refptrINS1_18FileSelectListenerEERKN5blink5mojom17FileChooserParamsE to i8*), i8* bitcast (void (%"class.content::WebContentsDelegate"*, %"class.content::WebContents"*, %"class.content::FileSelectListener"*, %"class.base::FilePath"*)* @_ZN7content19WebContentsDelegate18EnumerateDirectoryEPNS_11WebContentsE13scoped_refptrINS_18FileSelectListenerEERKN4base8FilePathE to i8*), i8* bitcast (void (%"class.content::WebContentsDelegate"*, %"class.content::RenderFrameHost"*, %"class.std::__1::vector.328"*, %"class.std::__1::basic_string"*, %"class.base::OnceCallback.180"*, %"class.base::OnceCallback.180"*)* @_ZN7content19WebContentsDelegate15CreateSmsPromptEPNS_15RenderFrameHostERKNSt3__16vectorIN3url6OriginENS3_9allocatorIS6_EEEERKNS3_12basic_stringIcNS3_11char_traitsIcEENS7_IcEEEEN4base12OnceCallbackIFvvEEESM_ to i8*), i8* bitcast (void (%"class.content::WebContentsDelegate"*, %"class.content::RenderFrameHost"*, %"class.blink::mojom::FullscreenOptions"*)* @_ZN7content19WebContentsDelegate25EnterFullscreenModeForTabEPNS_15RenderFrameHostERKN5blink5mojom17FullscreenOptionsE to i8*), i8* bitcast (void (%"class.content::WebContentsDelegate"*, %"class.content::RenderFrameHost"*, %"class.blink::mojom::FullscreenOptions"*)* @_ZN7content19WebContentsDelegate28FullscreenStateChangedForTabEPNS_15RenderFrameHostERKN5blink5mojom17FullscreenOptionsE to i8*), i8* bitcast (void (%"class.content::WebContentsDelegate"*, %"class.content::WebContents"*)* @_ZN7content19WebContentsDelegate24ExitFullscreenModeForTabEPNS_11WebContentsE to i8*), i8* bitcast (i1 (%"class.content::WebContentsDelegate"*, %"class.content::WebContents"*)* @_ZN7content19WebContentsDelegate27IsFullscreenForTabOrPendingEPKNS_11WebContentsE to i8*), i8* bitcast (i32 (%"class.content::WebContentsDelegate"*, %"class.content::WebContents"*)* @_ZN7content19WebContentsDelegate14GetDisplayModeEPKNS_11WebContentsE to i8*), i8* bitcast (i32 (%"class.content::WebContentsDelegate"*, %"class.content::RenderFrameHost"*)* @_ZN7content19WebContentsDelegate31GetProtocolHandlerSecurityLevelEPNS_15RenderFrameHostE to i8*), i8* bitcast (void (%"class.content::WebContentsDelegate"*, %"class.content::RenderFrameHost"*, %"class.std::__1::basic_string"*, %class.GURL*, i1)* @_ZN7content19WebContentsDelegate23RegisterProtocolHandlerEPNS_15RenderFrameHostERKNSt3__112basic_stringIcNS3_11char_traitsIcEENS3_9allocatorIcEEEERK4GURLb to i8*), i8* bitcast (void (%"class.content::WebContentsDelegate"*, %"class.content::RenderFrameHost"*, %"class.std::__1::basic_string"*, %class.GURL*, i1)* @_ZN7content19WebContentsDelegate25UnregisterProtocolHandlerEPNS_15RenderFrameHostERKNSt3__112basic_stringIcNS3_11char_traitsIcEENS3_9allocatorIcEEEERK4GURLb to i8*), i8* bitcast (void (%"class.content::WebContentsDelegate"*, %"class.content::WebContents"*, i32, i32, %"class.gfx::Rect"*, i32, i1)* @_ZN7content19WebContentsDelegate9FindReplyEPNS_11WebContentsEiiRKN3gfx4RectEib to i8*), i8* bitcast (void (%"class.guest_view::GuestViewBase"*, %"class.content::WebContents"*, %"class.gfx::Size"*)* @_ZThn8_N10guest_view13GuestViewBase19UpdatePreferredSizeEPN7content11WebContentsERKN3gfx4SizeE to i8*), i8* bitcast (void (%"class.guest_view::GuestViewBase"*, %"class.content::WebContents"*, %"class.gfx::Size"*)* @_ZThn8_N10guest_view13GuestViewBase21ResizeDueToAutoResizeEPN7content11WebContentsERKN3gfx4SizeE to i8*), i8* bitcast (void (%"class.content::WebContentsDelegate"*, %"class.content::WebContents"*, i1, i1)* @_ZN7content19WebContentsDelegate18RequestToLockMouseEPNS_11WebContentsEbb to i8*), i8* bitcast (void (%"class.content::WebContentsDelegate"*)* @_ZN7content19WebContentsDelegate13LostMouseLockEv to i8*), i8* bitcast (void (%"class.content::WebContentsDelegate"*, %"class.content::WebContents"*, i1)* @_ZN7content19WebContentsDelegate19RequestKeyboardLockEPNS_11WebContentsEb to i8*), i8* bitcast (void (%"class.content::WebContentsDelegate"*, %"class.content::WebContents"*)* @_ZN7content19WebContentsDelegate25CancelKeyboardLockRequestEPNS_11WebContentsE to i8*), i8* bitcast (void ()* @_ZN7content19WebContentsDelegate28RequestMediaAccessPermissionEPNS_11WebContentsERKNS_18MediaStreamRequestEN4base12OnceCallbackIFvRKNSt3__16vectorIN5blink17MediaStreamDeviceENS8_9allocatorISB_EEEENSA_5mojom24MediaStreamRequestResultENS8_10unique_ptrINS_13MediaStreamUIENS8_14default_deleteISK_EEEEEEE to i8*), i8* bitcast (i1 (%"class.content::WebContentsDelegate"*, %"class.content::RenderFrameHost"*, %class.GURL*, i32)* @_ZN7content19WebContentsDelegate26CheckMediaAccessPermissionEPNS_15RenderFrameHostERK4GURLN5blink5mojom15MediaStreamTypeE to i8*), i8* bitcast (void (%"class.std::__1::basic_string"*, %"class.content::WebContentsDelegate"*, %"class.content::WebContents"*, i32)* @_ZN7content19WebContentsDelegate23GetDefaultMediaDeviceIDEPNS_11WebContentsEN5blink5mojom15MediaStreamTypeE to i8*), i8* bitcast (i64 (%"class.content::WebContentsDelegate"*, %"class.content::WebContents"*)* @_ZN7content19WebContentsDelegate23GetSizeForNewRenderViewEPNS_11WebContentsE to i8*), i8* bitcast (i1 (%"class.content::WebContentsDelegate"*, %"class.content::WebContents"*)* @_ZN7content19WebContentsDelegate17IsNeverCompositedEPNS_11WebContentsE to i8*), i8* bitcast (i1 (%"class.content::WebContentsDelegate"*, %"class.content::WebContents"*)* @_ZN7content19WebContentsDelegate14GuestSaveFrameEPNS_11WebContentsE to i8*), i8* bitcast (i1 (%"class.content::WebContentsDelegate"*, %class.GURL*, %"struct.content::Referrer"*, %"class.content::RenderFrameHost"*)* @_ZN7content19WebContentsDelegate9SaveFrameERK4GURLRKNS_8ReferrerEPNS_15RenderFrameHostE to i8*), i8* bitcast (i32 (%"class.content::WebContentsDelegate"*, %"class.content::WebContents"*, %"struct.content::SecurityStyleExplanations"*)* @_ZN7content19WebContentsDelegate16GetSecurityStyleEPNS_11WebContentsEPNS_25SecurityStyleExplanationsE to i8*), i8* bitcast (void (%"class.content::WebContentsDelegate"*, %"class.content::WebContents"*, %class.GURL*, %class.GURL*, i32)* @_ZN7content19WebContentsDelegate20OnDidBlockNavigationEPNS_11WebContentsERK4GURLS5_N5blink5mojom23NavigationBlockedReasonE to i8*), i8* bitcast (void (%"class.content::WebContentsDelegate"*, %class.GURL*)* @_ZN7content19WebContentsDelegate27PassiveInsecureContentFoundERK4GURL to i8*), i8* bitcast (i1 (%"class.content::WebContentsDelegate"*, %"class.content::WebContents"*, i1, %"class.url::Origin"*, %class.GURL*)* @_ZN7content19WebContentsDelegate33ShouldAllowRunningInsecureContentEPNS_11WebContentsEbRKN3url6OriginERK4GURL to i8*), i8* bitcast (void (%"class.content::WebContentsDelegate"*, %"class.content::WebContents"*, float)* @_ZN7content19WebContentsDelegate24SetTopControlsShownRatioEPNS_11WebContentsEf to i8*), i8* bitcast (i32 (%"class.content::WebContentsDelegate"*)* @_ZN7content19WebContentsDelegate20GetTopControlsHeightEv to i8*), i8* bitcast (i32 (%"class.content::WebContentsDelegate"*)* @_ZN7content19WebContentsDelegate23GetTopControlsMinHeightEv to i8*), i8* bitcast (i32 (%"class.content::WebContentsDelegate"*)* @_ZN7content19WebContentsDelegate23GetBottomControlsHeightEv to i8*), i8* bitcast (i32 (%"class.content::WebContentsDelegate"*)* @_ZN7content19WebContentsDelegate26GetBottomControlsMinHeightEv to i8*), i8* bitcast (i1 (%"class.content::WebContentsDelegate"*)* @_ZN7content19WebContentsDelegate41ShouldAnimateBrowserControlsHeightChangesEv to i8*), i8* bitcast (i1 (%"class.content::WebContentsDelegate"*, %"class.content::WebContents"*)* @_ZN7content19WebContentsDelegate35DoBrowserControlsShrinkRendererSizeEPNS_11WebContentsE to i8*), i8* bitcast (i1 (%"class.content::WebContentsDelegate"*)* @_ZN7content19WebContentsDelegate30OnlyExpandTopControlsAtPageTopEv to i8*), i8* bitcast (void (%"class.content::WebContentsDelegate"*, i1)* @_ZN7content19WebContentsDelegate37SetTopControlsGestureScrollInProgressEb to i8*), i8* bitcast (void (%"class.content::WebContentsDelegate"*, %"class.content::WebContents"*, i32*)* @_ZN7content19WebContentsDelegate32AdjustPreviewsStateForNavigationEPNS_11WebContentsEPi to i8*), i8* bitcast (void (%"class.content::WebContentsDelegate"*, %"class.content::WebContents"*, %"class.gfx::Rect"*, i32, %"class.content::RenderFrameHost"*)* @_ZNK7content19WebContentsDelegate25PrintCrossProcessSubframeEPNS_11WebContentsERKN3gfx4RectEiPNS_15RenderFrameHostE to i8*), i8* bitcast (void (%"class.content::WebContentsDelegate"*, %"class.content::WebContents"*, %"class.gfx::Rect"*, %"class.base::UnguessableToken"*, %"class.content::RenderFrameHost"*)* @_ZN7content19WebContentsDelegate29CapturePaintPreviewOfSubframeEPNS_11WebContentsERKN3gfx4RectERKN4base16UnguessableTokenEPNS_15RenderFrameHostE to i8*), i8* bitcast (i32 (%"class.content::WebContentsDelegate"*, %"class.content::WebContents"*, %"class.viz::SurfaceId"*, %"class.gfx::Size"*)* @_ZN7content19WebContentsDelegate21EnterPictureInPictureEPNS_11WebContentsERKN3viz9SurfaceIdERKN3gfx4SizeE to i8*), i8* bitcast (void (%"class.content::WebContentsDelegate"*)* @_ZN7content19WebContentsDelegate20ExitPictureInPictureEv to i8*), i8* bitcast (i1 (%"class.content::WebContentsDelegate"*)* @_ZN7content19WebContentsDelegate19ShouldAllowLazyLoadEv to i8*), i8* bitcast (i1 (%"class.content::WebContentsDelegate"*)* @_ZN7content19WebContentsDelegate27IsBackForwardCacheSupportedEv to i8*), i8* bitcast (%"class.content::WebContents"* (%"class.content::WebContentsDelegate"*, %"class.content::WebContents"*, %"class.content::WebContents"*)* @_ZN7content19WebContentsDelegate25ActivatePortalWebContentsEPNS_11WebContentsENSt3__110unique_ptrIS1_NS3_14default_deleteIS1_EEEE to i8*), i8* bitcast (void (%"class.content::WebContentsDelegate"*, %"class.content::WebContents"*, %"class.content::WebContents"*, %"class.base::OnceCallback.180"*)* @_ZN7content19WebContentsDelegate37UpdateInspectedWebContentsIfNecessaryEPNS_11WebContentsES2_N4base12OnceCallbackIFvvEEE to i8*), i8* bitcast (i1 (%"class.content::WebContentsDelegate"*, %"class.content::WebContents"*)* @_ZN7content19WebContentsDelegate32ShouldShowStaleContentOnEvictionEPNS_11WebContentsE to i8*), i8* bitcast (%"class.content::WebContents"* (%"class.guest_view::GuestViewBase"*, %"class.content::WebContents"*)* @_ZThn8_N10guest_view13GuestViewBase25GetResponsibleWebContentsEPN7content11WebContentsE to i8*), i8* bitcast (void (%"class.content::WebContentsDelegate"*, %"struct.content::MediaPlayerWatchTime"*)* @_ZN7content19WebContentsDelegate21MediaWatchTimeChangedERKNS_20MediaPlayerWatchTimeE to i8*), i8* bitcast (%"class.device::mojom::GeolocationContext"* (%"class.content::WebContentsDelegate"*)* @_ZN7content19WebContentsDelegate36GetInstalledWebappGeolocationContextEv to i8*), i8* bitcast (void ()* @_ZN7content19WebContentsDelegate18GetDelegateWeakPtrEv to i8*), i8* bitcast (void (%"class.guest_view::GuestViewBase"*)* @_ZThn8_N10guest_view13GuestViewBaseD1Ev to i8*), i8* bitcast (void (%"class.guest_view::GuestViewBase"*)* @_ZThn8_N10guest_view13GuestViewBaseD0Ev to i8*)], [109 x i8*] [i8* inttoptr (i64 -40 to i8*), i8* null, i8* bitcast (i1 (%"class.content::WebContentsObserver"*, %"class.IPC::Message"*)* @_ZN7content19WebContentsObserver17OnMessageReceivedERKN3IPC7MessageE to i8*), i8* bitcast (void (%"class.IPC::Listener"*, i32)* @_ZN3IPC8Listener18OnChannelConnectedEi to i8*), i8* bitcast (void (%"class.IPC::Listener"*)* @_ZN3IPC8Listener14OnChannelErrorEv to i8*), i8* bitcast (void (%"class.IPC::Listener"*, %"class.IPC::Message"*)* @_ZN3IPC8Listener20OnBadMessageReceivedERKNS_7MessageE to i8*), i8* bitcast (void (%"class.IPC::Listener"*, %"class.std::__1::basic_string"*, %"class.mojo::ScopedInterfaceEndpointHandle"*)* @_ZN3IPC8Listener28OnAssociatedInterfaceRequestERKNSt3__112basic_stringIcNS1_11char_traitsIcEENS1_9allocatorIcEEEEN4mojo29ScopedInterfaceEndpointHandleE to i8*), i8* bitcast (void (%"class.IPC::Listener"*)* @_ZN3IPC8Listener15OnChannelDeniedEv to i8*), i8* bitcast (void (%"class.IPC::Listener"*)* @_ZN3IPC8Listener20OnChannelListenErrorEv to i8*), i8* bitcast (void (%"class.guest_view::GuestViewBase"*)* @_ZThn40_N10guest_view13GuestViewBaseD1Ev to i8*), i8* bitcast (void (%"class.guest_view::GuestViewBase"*)* @_ZThn40_N10guest_view13GuestViewBaseD0Ev to i8*), i8* bitcast (void (%"class.content::WebContentsObserver"*, %"class.content::RenderFrameHost"*)* @_ZN7content19WebContentsObserver18RenderFrameCreatedEPNS_15RenderFrameHostE to i8*), i8* bitcast (void (%"class.content::WebContentsObserver"*, %"class.content::RenderFrameHost"*)* @_ZN7content19WebContentsObserver18RenderFrameDeletedEPNS_15RenderFrameHostE to i8*), i8* bitcast (void (%"class.content::WebContentsObserver"*, %"class.content::RenderFrameHost"*, %"class.content::RenderFrameHost"*)* @_ZN7content19WebContentsObserver22RenderFrameHostChangedEPNS_15RenderFrameHostES2_ to i8*), i8* bitcast (void (%"class.content::WebContentsObserver"*, i32)* @_ZN7content19WebContentsObserver12FrameDeletedEi to i8*), i8* bitcast (void (%"class.content::WebContentsObserver"*, %"class.content::RenderFrameHost"*, i32, i32)* @_ZN7content19WebContentsObserver27RenderFrameHostStateChangedEPNS_15RenderFrameHostENS1_14LifecycleStateES3_ to i8*), i8* bitcast (void (%"class.content::WebContentsObserver"*)* @_ZN7content19WebContentsObserver20CaptureTargetChangedEv to i8*), i8* bitcast (void (%"class.content::WebContentsObserver"*, %"class.blink::mojom::CaptureHandleConfig"*)* @_ZN7content19WebContentsObserver27OnCaptureHandleConfigUpdateERKN5blink5mojom19CaptureHandleConfigE to i8*), i8* bitcast (void (%"class.guest_view::GuestViewBase"*)* @_ZThn40_N10guest_view13GuestViewBase15RenderViewReadyEv to i8*), i8* bitcast (void (%"class.content::WebContentsObserver"*, %"class.content::RenderViewHost"*)* @_ZN7content19WebContentsObserver17RenderViewDeletedEPNS_14RenderViewHostE to i8*), i8* bitcast (void (%"class.content::WebContentsObserver"*, i32)* @_ZN7content19WebContentsObserver17RenderProcessGoneEN4base17TerminationStatusE to i8*), i8* bitcast (void (%"class.content::WebContentsObserver"*, %"class.content::RenderViewHost"*, %"class.content::RenderViewHost"*)* @_ZN7content19WebContentsObserver21RenderViewHostChangedEPNS_14RenderViewHostES2_ to i8*), i8* bitcast (void (%"class.content::WebContentsObserver"*, %"class.content::RenderProcessHost"*)* @_ZN7content19WebContentsObserver22OnRendererUnresponsiveEPNS_17RenderProcessHostE to i8*), i8* bitcast (void (%"class.content::WebContentsObserver"*, %"class.content::RenderProcessHost"*)* @_ZN7content19WebContentsObserver20OnRendererResponsiveEPNS_17RenderProcessHostE to i8*), i8* bitcast (void (%"class.content::WebContentsObserver"*, %"class.content::NavigationHandle"*)* @_ZN7content19WebContentsObserver18DidStartNavigationEPNS_16NavigationHandleE to i8*), i8* bitcast (void (%"class.content::WebContentsObserver"*, %"class.content::NavigationHandle"*)* @_ZN7content19WebContentsObserver21DidRedirectNavigationEPNS_16NavigationHandleE to i8*), i8* bitcast (void (%"class.content::WebContentsObserver"*, %"class.content::NavigationHandle"*)* @_ZN7content19WebContentsObserver23ReadyToCommitNavigationEPNS_16NavigationHandleE to i8*), i8* bitcast (void (%"class.guest_view::GuestViewBase"*, %"class.content::NavigationHandle"*)* @_ZThn40_N10guest_view13GuestViewBase19DidFinishNavigationEPN7content16NavigationHandleE to i8*), i8* bitcast (void (%"class.content::WebContentsObserver"*, %"class.content::WebContents"*, i64)* @_ZN7content19WebContentsObserver17DidActivatePortalEPNS_11WebContentsEN4base9TimeTicksE to i8*), i8* bitcast (void (%"class.content::WebContentsObserver"*)* @_ZN7content19WebContentsObserver15DidStartLoadingEv to i8*), i8* bitcast (void (%"class.content::WebContentsObserver"*)* @_ZN7content19WebContentsObserver18DidReceiveResponseEv to i8*), i8* bitcast (void (%"class.guest_view::GuestViewBase"*)* @_ZThn40_N10guest_view13GuestViewBase14DidStopLoadingEv to i8*), i8* bitcast (void (%"class.content::WebContentsObserver"*, double)* @_ZN7content19WebContentsObserver19LoadProgressChangedEd to i8*), i8* bitcast (void (%"class.content::WebContentsObserver"*, %"class.content::RenderFrameHost"*)* @_ZN7content19WebContentsObserver28DocumentAvailableInMainFrameEPNS_15RenderFrameHostE to i8*), i8* bitcast (void (%"class.content::WebContentsObserver"*, %"class.content::RenderFrameHost"*)* @_ZN7content19WebContentsObserver34DocumentOnLoadCompletedInMainFrameEPNS_15RenderFrameHostE to i8*), i8* bitcast (void (%"class.content::WebContentsObserver"*, %"class.content::RenderFrameHost"*)* @_ZN7content19WebContentsObserver16DOMContentLoadedEPNS_15RenderFrameHostE to i8*), i8* bitcast (void (%"class.content::WebContentsObserver"*, %"class.content::RenderFrameHost"*, %class.GURL*)* @_ZN7content19WebContentsObserver13DidFinishLoadEPNS_15RenderFrameHostERK4GURL to i8*), i8* bitcast (void (%"class.content::WebContentsObserver"*, %"class.content::RenderFrameHost"*, %class.GURL*, i32)* @_ZN7content19WebContentsObserver11DidFailLoadEPNS_15RenderFrameHostERK4GURLi to i8*), i8* bitcast (void (%"class.content::WebContentsObserver"*)* @_ZN7content19WebContentsObserver29DidChangeVisibleSecurityStateEv to i8*), i8* bitcast (void (%"class.content::WebContentsObserver"*, %"class.content::RenderFrameHost"*, %class.GURL*, %"class.std::__1::basic_string"*, i32)* @_ZN7content19WebContentsObserver30DidLoadResourceFromMemoryCacheEPNS_15RenderFrameHostERK4GURLRKNSt3__112basic_stringIcNS6_11char_traitsIcEENS6_9allocatorIcEEEEN7network5mojom18RequestDestinationE to i8*), i8* bitcast (void (%"class.content::WebContentsObserver"*, %"class.content::RenderFrameHost"*, %"struct.content::GlobalRequestID"*, %"class.blink::mojom::ResourceLoadInfo"*)* @_ZN7content19WebContentsObserver20ResourceLoadCompleteEPNS_15RenderFrameHostERKNS_15GlobalRequestIDERKN5blink5mojom16ResourceLoadInfoE to i8*), i8* bitcast (void (%"class.content::WebContentsObserver"*, %"class.content::RenderFrameHost"*, %"struct.content::CookieAccessDetails"*)* @_ZN7content19WebContentsObserver17OnCookiesAccessedEPNS_15RenderFrameHostERKNS_19CookieAccessDetailsE to i8*), i8* bitcast (void (%"class.content::WebContentsObserver"*, %"class.content::NavigationHandle"*, %"struct.content::CookieAccessDetails"*)* @_ZN7content19WebContentsObserver17OnCookiesAccessedEPNS_16NavigationHandleERKNS_19CookieAccessDetailsE to i8*), i8* bitcast (void (%"class.content::WebContentsObserver"*, %"struct.content::LoadCommittedDetails"*)* @_ZN7content19WebContentsObserver24NavigationEntryCommittedERKNS_20LoadCommittedDetailsE to i8*), i8* bitcast (void (%"class.content::WebContentsObserver"*, %"struct.content::PrunedDetails"*)* @_ZN7content19WebContentsObserver20NavigationListPrunedERKNS_13PrunedDetailsE to i8*), i8* bitcast (void (%"class.content::WebContentsObserver"*)* @_ZN7content19WebContentsObserver24NavigationEntriesDeletedEv to i8*), i8* bitcast (void (%"class.content::WebContentsObserver"*, %"struct.content::EntryChangedDetails"*)* @_ZN7content19WebContentsObserver22NavigationEntryChangedERKNS_19EntryChangedDetailsE to i8*), i8* bitcast (void (%"class.content::WebContentsObserver"*, %"class.content::WebContents"*, %"class.content::RenderFrameHost"*, %class.GURL*, %"struct.content::Referrer"*, i32, i32, i1, i1)* @_ZN7content19WebContentsObserver19DidOpenRequestedURLEPNS_11WebContentsEPNS_15RenderFrameHostERK4GURLRKNS_8ReferrerE21WindowOpenDispositionN2ui14PageTransitionEbb to i8*), i8* bitcast (void (%"class.content::WebContentsObserver"*)* @_ZN7content19WebContentsObserver29DidFirstVisuallyNonEmptyPaintEv to i8*), i8* bitcast (void (%"class.content::WebContentsObserver"*)* @_ZN7content19WebContentsObserver17NavigationStoppedEv to i8*), i8* bitcast (void (%"class.content::WebContentsObserver"*, %"class.blink::WebInputEvent"*)* @_ZN7content19WebContentsObserver21DidGetUserInteractionERKN5blink13WebInputEventE to i8*), i8* bitcast (void (%"class.content::WebContentsObserver"*)* @_ZN7content19WebContentsObserver20DidGetIgnoredUIEventEv to i8*), i8* bitcast (void (%"class.content::WebContentsObserver"*, i32)* @_ZN7content19WebContentsObserver19OnVisibilityChangedENS_10VisibilityE to i8*), i8* bitcast (void (%"class.content::WebContentsObserver"*, i1)* @_ZN7content19WebContentsObserver19MainFrameWasResizedEb to i8*), i8* bitcast (void (%"class.content::WebContentsObserver"*, %"class.content::RenderFrameHost"*, %"class.std::__1::basic_string"*)* @_ZN7content19WebContentsObserver16FrameNameChangedEPNS_15RenderFrameHostERKNSt3__112basic_stringIcNS3_11char_traitsIcEENS3_9allocatorIcEEEE to i8*), i8* bitcast (void (%"class.content::WebContentsObserver"*, %"class.content::RenderFrameHost"*)* @_ZN7content19WebContentsObserver27FrameReceivedUserActivationEPNS_15RenderFrameHostE to i8*), i8* bitcast (void (%"class.content::WebContentsObserver"*, %"class.content::RenderFrameHost"*, i1)* @_ZN7content19WebContentsObserver24FrameDisplayStateChangedEPNS_15RenderFrameHostEb to i8*), i8* bitcast (void (%"class.content::WebContentsObserver"*, %"class.content::RenderFrameHost"*, %"class.gfx::Size"*)* @_ZN7content19WebContentsObserver16FrameSizeChangedEPNS_15RenderFrameHostERKN3gfx4SizeE to i8*), i8* bitcast (void (%"class.content::WebContentsObserver"*, %"class.content::NavigationEntry"*)* @_ZN7content19WebContentsObserver11TitleWasSetEPNS_15NavigationEntryE to i8*), i8* bitcast (void (%"class.content::WebContentsObserver"*, %class.GURL*, i1)* @_ZN7content19WebContentsObserver16AppCacheAccessedERK4GURLb to i8*), i8* bitcast (void (%"class.content::WebContentsObserver"*)* @_ZN7content19WebContentsObserver21PepperInstanceCreatedEv to i8*), i8* bitcast (void (%"class.content::WebContentsObserver"*)* @_ZN7content19WebContentsObserver21PepperInstanceDeletedEv to i8*), i8* bitcast (void (%"class.content::WebContentsObserver"*, i32)* @_ZN7content19WebContentsObserver18ViewportFitChangedEN5blink5mojom11ViewportFitE to i8*), i8* bitcast (void (%"class.content::WebContentsObserver"*, %"class.base::FilePath"*, i32)* @_ZN7content19WebContentsObserver13PluginCrashedERKN4base8FilePathEi to i8*), i8* bitcast (void (%"class.content::WebContentsObserver"*, i32, %"class.base::FilePath"*, i1)* @_ZN7content19WebContentsObserver23PluginHungStatusChangedEiRKN4base8FilePathEb to i8*), i8* bitcast (void (%"class.content::WebContentsObserver"*, %"class.content::WebContents"*)* @_ZN7content19WebContentsObserver23InnerWebContentsCreatedEPNS_11WebContentsE to i8*), i8* bitcast (void (%"class.content::WebContentsObserver"*, %"class.content::WebContents"*, %"class.content::RenderFrameHost"*, i1)* @_ZN7content19WebContentsObserver24InnerWebContentsAttachedEPNS_11WebContentsEPNS_15RenderFrameHostEb to i8*), i8* bitcast (void (%"class.content::WebContentsObserver"*, %"class.content::WebContents"*)* @_ZN7content19WebContentsObserver24InnerWebContentsDetachedEPNS_11WebContentsE to i8*), i8* bitcast (void (%"class.content::WebContentsObserver"*, %"class.content::WebContents"*, %"class.content::WebContents"*)* @_ZN7content19WebContentsObserver24DidCloneToNewWebContentsEPNS_11WebContentsES2_ to i8*), i8* bitcast (void (%"class.guest_view::GuestViewBase"*)* @_ZThn40_N10guest_view13GuestViewBase20WebContentsDestroyedEv to i8*), i8* bitcast (void (%"class.content::WebContentsObserver"*, %"struct.blink::UserAgentOverride"*)* @_ZN7content19WebContentsObserver20UserAgentOverrideSetERKN5blink17UserAgentOverrideE to i8*), i8* bitcast (void (%"class.content::WebContentsObserver"*, %"class.content::RenderFrameHost"*, %"class.std::__1::vector.355"*)* @_ZN7content19WebContentsObserver19DidUpdateFaviconURLEPNS_15RenderFrameHostERKNSt3__16vectorIN4mojo9StructPtrIN5blink5mojom10FaviconURLEEENS3_9allocatorISA_EEEE to i8*), i8* bitcast (void (%"class.content::WebContentsObserver"*, i1)* @_ZN7content19WebContentsObserver19OnAudioStateChangedEb to i8*), i8* bitcast (void (%"class.content::WebContentsObserver"*, %"class.content::RenderFrameHost"*, i1)* @_ZN7content19WebContentsObserver24OnFrameAudioStateChangedEPNS_15RenderFrameHostEb to i8*), i8* bitcast (void (%"class.content::WebContentsObserver"*, i1)* @_ZN7content19WebContentsObserver37OnIsConnectedToBluetoothDeviceChangedEb to i8*), i8* bitcast (void (%"class.content::WebContentsObserver"*, i1)* @_ZN7content19WebContentsObserver25DidUpdateAudioMutingStateEb to i8*), i8* bitcast (void (%"class.content::WebContentsObserver"*, i1, i1)* @_ZN7content19WebContentsObserver29DidToggleFullscreenModeForTabEbb to i8*), i8* bitcast (void (%"class.content::WebContentsObserver"*, %"class.content::RenderFrameHost"*)* @_ZN7content19WebContentsObserver20DidAcquireFullscreenEPNS_15RenderFrameHostE to i8*), i8* bitcast (void (%"class.content::WebContentsObserver"*, i32)* @_ZN7content19WebContentsObserver32DidChangeVerticalScrollDirectionEN3viz23VerticalScrollDirectionE to i8*), i8* bitcast (void (%"class.content::WebContentsObserver"*)* @_ZN7content19WebContentsObserver27BeforeFormRepostWarningShowEv to i8*), i8* bitcast (void (%"class.content::WebContentsObserver"*, i1, %"class.base::TimeTicks"*)* @_ZN7content19WebContentsObserver17BeforeUnloadFiredEbRKN4base9TimeTicksE to i8*), i8* bitcast (void (%"class.content::WebContentsObserver"*)* @_ZN7content19WebContentsObserver27BeforeUnloadDialogCancelledEv to i8*), i8* bitcast (void (%"class.content::WebContentsObserver"*)* @_ZN7content19WebContentsObserver30AXTreeIDForMainFrameHasChangedEv to i8*), i8* bitcast (void (%"class.content::WebContentsObserver"*, %"struct.content::AXEventNotificationDetails"*)* @_ZN7content19WebContentsObserver26AccessibilityEventReceivedERKNS_26AXEventNotificationDetailsE to i8*), i8* bitcast (void (%"class.content::WebContentsObserver"*, %"class.std::__1::vector.356"*)* @_ZN7content19WebContentsObserver36AccessibilityLocationChangesReceivedERKNSt3__16vectorINS_35AXLocationChangeNotificationDetailsENS1_9allocatorIS3_EEEE to i8*), i8* bitcast (void (%"class.content::WebContentsObserver"*)* @_ZN7content19WebContentsObserver19DidChangeThemeColorEv to i8*), i8* bitcast (void (%"class.content::WebContentsObserver"*)* @_ZN7content19WebContentsObserver24OnBackgroundColorChangedEv to i8*), i8* bitcast (void (%"class.content::WebContentsObserver"*, %"class.content::RenderFrameHost"*, i32, %"class.std::__1::basic_string.200"*, i32, %"class.std::__1::basic_string.200"*, %"class.absl::optional.303"*)* @_ZN7content19WebContentsObserver24OnDidAddMessageToConsoleEPNS_15RenderFrameHostEN5blink5mojom19ConsoleMessageLevelERKNSt3__112basic_stringIDsNS6_11char_traitsIDsEENS6_9allocatorIDsEEEEiSE_RKN4absl8optionalISC_EE to i8*), i8* bitcast (void (%"class.content::WebContentsObserver"*, %"struct.content::WebContentsObserver::MediaPlayerInfo"*, %"struct.content::MediaPlayerId"*)* @_ZN7content19WebContentsObserver19MediaStartedPlayingERKNS0_15MediaPlayerInfoERKNS_13MediaPlayerIdE to i8*), i8* bitcast (void (%"class.content::WebContentsObserver"*, %"struct.content::WebContentsObserver::MediaPlayerInfo"*, %"struct.content::MediaPlayerId"*, i32)* @_ZN7content19WebContentsObserver19MediaStoppedPlayingERKNS0_15MediaPlayerInfoERKNS_13MediaPlayerIdENS0_18MediaStoppedReasonE to i8*), i8* bitcast (void (%"class.content::WebContentsObserver"*, %"class.gfx::Size"*, %"struct.content::MediaPlayerId"*)* @_ZN7content19WebContentsObserver12MediaResizedERKN3gfx4SizeERKNS_13MediaPlayerIdE to i8*), i8* bitcast (void (%"class.content::WebContentsObserver"*, i1)* @_ZN7content19WebContentsObserver33MediaEffectivelyFullscreenChangedEb to i8*), i8* bitcast (void (%"class.content::WebContentsObserver"*, i1)* @_ZN7content19WebContentsObserver28MediaPictureInPictureChangedEb to i8*), i8* bitcast (void (%"class.content::WebContentsObserver"*, %"struct.content::MediaPlayerId"*, i1)* @_ZN7content19WebContentsObserver23MediaMutedStatusChangedERKNS_13MediaPlayerIdEb to i8*), i8* bitcast (void (%"class.content::WebContentsObserver"*, %"struct.content::MediaPlayerId"*)* @_ZN7content19WebContentsObserver20MediaBufferUnderflowERKNS_13MediaPlayerIdE to i8*), i8* bitcast (void (%"class.content::WebContentsObserver"*, %"struct.content::MediaPlayerId"*)* @_ZN7content19WebContentsObserver15MediaPlayerSeekERKNS_13MediaPlayerIdE to i8*), i8* bitcast (void (%"class.content::WebContentsObserver"*, %"struct.content::MediaPlayerId"*)* @_ZN7content19WebContentsObserver14MediaDestroyedERKNS_13MediaPlayerIdE to i8*), i8* bitcast (void (%"class.content::WebContentsObserver"*, float)* @_ZN7content19WebContentsObserver24OnPageScaleFactorChangedEf to i8*), i8* bitcast (void (%"class.content::WebContentsObserver"*)* @_ZN7content19WebContentsObserver7OnPasteEv to i8*), i8* bitcast (i1 (%"class.content::WebContentsObserver"*, %"class.IPC::Message"*, %"class.content::RenderFrameHost"*)* @_ZN7content19WebContentsObserver17OnMessageReceivedERKN3IPC7MessageEPNS_15RenderFrameHostE to i8*), i8* bitcast (void (%"class.content::WebContentsObserver"*, %"class.content::RenderWidgetHost"*)* @_ZN7content19WebContentsObserver20OnWebContentsFocusedEPNS_16RenderWidgetHostE to i8*), i8* bitcast (void (%"class.content::WebContentsObserver"*, %"class.content::RenderWidgetHost"*)* @_ZN7content19WebContentsObserver22OnWebContentsLostFocusEPNS_16RenderWidgetHostE to i8*), i8* bitcast (void (%"class.content::WebContentsObserver"*, %"struct.content::FocusedNodeDetails"*)* @_ZN7content19WebContentsObserver20OnFocusChangedInPageEPNS_18FocusedNodeDetailsE to i8*), i8* bitcast (void (%"class.content::WebContentsObserver"*, %"class.content::RenderFrameHost"*, %"class.absl::optional.357"*)* @_ZN7content19WebContentsObserver23DidUpdateWebManifestURLEPNS_15RenderFrameHostERKN4absl8optionalI4GURLEE to i8*), i8* bitcast (void (%"class.content::WebContentsObserver"*, %"class.content::RenderFrameHost"*, %"class.std::__1::basic_string"*, %"class.mojo::ScopedHandleBase"*)* @_ZN7content19WebContentsObserver27OnInterfaceRequestFromFrameEPNS_15RenderFrameHostERKNSt3__112basic_stringIcNS3_11char_traitsIcEENS3_9allocatorIcEEEEPN4mojo16ScopedHandleBaseINSC_17MessagePipeHandleEEE to i8*), i8* bitcast (void (%"class.content::WebContentsObserver"*, %"struct.std::__1::pair.362"*)* @_ZN7content19WebContentsObserver27AudioContextPlaybackStartedERKNSt3__14pairIPNS_15RenderFrameHostEiEE to i8*), i8* bitcast (void (%"class.content::WebContentsObserver"*, %"struct.std::__1::pair.362"*)* @_ZN7content19WebContentsObserver27AudioContextPlaybackStoppedERKNSt3__14pairIPNS_15RenderFrameHostEiEE to i8*), i8* bitcast (void (%"class.content::WebContentsObserver"*, %"class.content::RenderFrameHost"*, %class.GURL*, i24)* @_ZN7content19WebContentsObserver23OnServiceWorkerAccessedEPNS_15RenderFrameHostERK4GURLNS_24AllowServiceWorkerResultE to i8*), i8* bitcast (void (%"class.content::WebContentsObserver"*, %"class.content::NavigationHandle"*, %class.GURL*, i24)* @_ZN7content19WebContentsObserver23OnServiceWorkerAccessedEPNS_16NavigationHandleERK4GURLNS_24AllowServiceWorkerResultE to i8*)], [5 x i8*] [i8* inttoptr (i64 -56 to i8*), i8* null, i8* bitcast (void (%"class.guest_view::GuestViewBase"*, %"struct.zoom::ZoomController::ZoomChangedEventData"*)* @_ZThn56_N10guest_view13GuestViewBase13OnZoomChangedERKN4zoom14ZoomController20ZoomChangedEventDataE to i8*), i8* bitcast (void (%"class.guest_view::GuestViewBase"*)* @_ZThn56_N10guest_view13GuestViewBaseD1Ev to i8*), i8* bitcast (void (%"class.guest_view::GuestViewBase"*)* @_ZThn56_N10guest_view13GuestViewBaseD0Ev to i8*)] }, align 8
@_ZN10guest_view15kInstanceIDNoneE = external local_unnamed_addr constant i32, align 4
@_ZN10guest_view12_GLOBAL__N_127g_webcontents_guestview_mapE = internal global %"class.base::LazyInstance" zeroinitializer, align 8
@_ZN10guest_view20kParameterInstanceIdE = external constant [0 x i8], align 1
@_ZN10guest_view9kOldWidthE = external constant [0 x i8], align 1
@_ZN10guest_view10kOldHeightE = external constant [0 x i8], align 1
@_ZN10guest_view9kNewWidthE = external constant [0 x i8], align 1
@_ZN10guest_view10kNewHeightE = external constant [0 x i8], align 1
@_ZN10guest_view12kEventResizeE = external constant [0 x i8], align 1
@_ZN10guest_view13kDefaultWidthE = external local_unnamed_addr constant i32, align 4
@_ZN10guest_view14kDefaultHeightE = external local_unnamed_addr constant i32, align 4
@_ZN10guest_view18kAttributeAutoSizeE = external constant [0 x i8], align 1
@_ZN10guest_view19kAttributeMaxHeightE = external constant [0 x i8], align 1
@_ZN10guest_view18kAttributeMaxWidthE = external constant [0 x i8], align 1
@_ZN10guest_view19kAttributeMinHeightE = external constant [0 x i8], align 1
@_ZN10guest_view18kAttributeMinWidthE = external constant [0 x i8], align 1
@_ZN10guest_view14kElementHeightE = external constant [0 x i8], align 1
@_ZN10guest_view13kElementWidthE = external constant [0 x i8], align 1
@_ZN10guest_view21kElementSizeIsLogicalE = external constant [0 x i8], align 1
@_ZTVN7content26BrowserPluginGuestDelegateE = external unnamed_addr constant { [7 x i8*] }, align 8
@.str.3 = private unnamed_addr constant [13 x i8] c"begin <= end\00", align 1
@.str.4 = private unnamed_addr constant [38 x i8] c"../../base/containers/vector_buffer.h\00", align 1
@.str.5 = private unnamed_addr constant [15 x i8] c"i <= capacity_\00", align 1
@.str.6 = private unnamed_addr constant [29 x i8] c"../../base/memory/weak_ptr.h\00", align 1
@.str.7 = private unnamed_addr constant [15 x i8] c"ref_.IsValid()\00", align 1
@_ZN4zoom14ZoomController12kUserDataKeyE = external constant i32, align 4
@_ZTVN10guest_view13GuestViewBase21OwnerContentsObserverE = linkonce_odr hidden unnamed_addr constant { [109 x i8*] } { [109 x i8*] [i8* null, i8* null, i8* bitcast (i1 (%"class.content::WebContentsObserver"*, %"class.IPC::Message"*)* @_ZN7content19WebContentsObserver17OnMessageReceivedERKN3IPC7MessageE to i8*), i8* bitcast (void (%"class.IPC::Listener"*, i32)* @_ZN3IPC8Listener18OnChannelConnectedEi to i8*), i8* bitcast (void (%"class.IPC::Listener"*)* @_ZN3IPC8Listener14OnChannelErrorEv to i8*), i8* bitcast (void (%"class.IPC::Listener"*, %"class.IPC::Message"*)* @_ZN3IPC8Listener20OnBadMessageReceivedERKNS_7MessageE to i8*), i8* bitcast (void (%"class.IPC::Listener"*, %"class.std::__1::basic_string"*, %"class.mojo::ScopedInterfaceEndpointHandle"*)* @_ZN3IPC8Listener28OnAssociatedInterfaceRequestERKNSt3__112basic_stringIcNS1_11char_traitsIcEENS1_9allocatorIcEEEEN4mojo29ScopedInterfaceEndpointHandleE to i8*), i8* bitcast (void (%"class.IPC::Listener"*)* @_ZN3IPC8Listener15OnChannelDeniedEv to i8*), i8* bitcast (void (%"class.IPC::Listener"*)* @_ZN3IPC8Listener20OnChannelListenErrorEv to i8*), i8* bitcast (void (%"class.content::WebContentsObserver"*)* @_ZN7content19WebContentsObserverD2Ev to i8*), i8* bitcast (void (%"class.guest_view::GuestViewBase::OwnerContentsObserver"*)* @_ZN10guest_view13GuestViewBase21OwnerContentsObserverD0Ev to i8*), i8* bitcast (void (%"class.content::WebContentsObserver"*, %"class.content::RenderFrameHost"*)* @_ZN7content19WebContentsObserver18RenderFrameCreatedEPNS_15RenderFrameHostE to i8*), i8* bitcast (void (%"class.guest_view::GuestViewBase::OwnerContentsObserver"*, %"class.content::RenderFrameHost"*)* @_ZN10guest_view13GuestViewBase21OwnerContentsObserver18RenderFrameDeletedEPN7content15RenderFrameHostE to i8*), i8* bitcast (void (%"class.content::WebContentsObserver"*, %"class.content::RenderFrameHost"*, %"class.content::RenderFrameHost"*)* @_ZN7content19WebContentsObserver22RenderFrameHostChangedEPNS_15RenderFrameHostES2_ to i8*), i8* bitcast (void (%"class.content::WebContentsObserver"*, i32)* @_ZN7content19WebContentsObserver12FrameDeletedEi to i8*), i8* bitcast (void (%"class.content::WebContentsObserver"*, %"class.content::RenderFrameHost"*, i32, i32)* @_ZN7content19WebContentsObserver27RenderFrameHostStateChangedEPNS_15RenderFrameHostENS1_14LifecycleStateES3_ to i8*), i8* bitcast (void (%"class.content::WebContentsObserver"*)* @_ZN7content19WebContentsObserver20CaptureTargetChangedEv to i8*), i8* bitcast (void (%"class.content::WebContentsObserver"*, %"class.blink::mojom::CaptureHandleConfig"*)* @_ZN7content19WebContentsObserver27OnCaptureHandleConfigUpdateERKN5blink5mojom19CaptureHandleConfigE to i8*), i8* bitcast (void (%"class.content::WebContentsObserver"*)* @_ZN7content19WebContentsObserver15RenderViewReadyEv to i8*), i8* bitcast (void (%"class.content::WebContentsObserver"*, %"class.content::RenderViewHost"*)* @_ZN7content19WebContentsObserver17RenderViewDeletedEPNS_14RenderViewHostE to i8*), i8* bitcast (void (%"class.guest_view::GuestViewBase::OwnerContentsObserver"*, i32)* @_ZN10guest_view13GuestViewBase21OwnerContentsObserver17RenderProcessGoneEN4base17TerminationStatusE to i8*), i8* bitcast (void (%"class.content::WebContentsObserver"*, %"class.content::RenderViewHost"*, %"class.content::RenderViewHost"*)* @_ZN7content19WebContentsObserver21RenderViewHostChangedEPNS_14RenderViewHostES2_ to i8*), i8* bitcast (void (%"class.content::WebContentsObserver"*, %"class.content::RenderProcessHost"*)* @_ZN7content19WebContentsObserver22OnRendererUnresponsiveEPNS_17RenderProcessHostE to i8*), i8* bitcast (void (%"class.content::WebContentsObserver"*, %"class.content::RenderProcessHost"*)* @_ZN7content19WebContentsObserver20OnRendererResponsiveEPNS_17RenderProcessHostE to i8*), i8* bitcast (void (%"class.content::WebContentsObserver"*, %"class.content::NavigationHandle"*)* @_ZN7content19WebContentsObserver18DidStartNavigationEPNS_16NavigationHandleE to i8*), i8* bitcast (void (%"class.content::WebContentsObserver"*, %"class.content::NavigationHandle"*)* @_ZN7content19WebContentsObserver21DidRedirectNavigationEPNS_16NavigationHandleE to i8*), i8* bitcast (void (%"class.content::WebContentsObserver"*, %"class.content::NavigationHandle"*)* @_ZN7content19WebContentsObserver23ReadyToCommitNavigationEPNS_16NavigationHandleE to i8*), i8* bitcast (void (%"class.guest_view::GuestViewBase::OwnerContentsObserver"*, %"class.content::NavigationHandle"*)* @_ZN10guest_view13GuestViewBase21OwnerContentsObserver19DidFinishNavigationEPN7content16NavigationHandleE to i8*), i8* bitcast (void (%"class.content::WebContentsObserver"*, %"class.content::WebContents"*, i64)* @_ZN7content19WebContentsObserver17DidActivatePortalEPNS_11WebContentsEN4base9TimeTicksE to i8*), i8* bitcast (void (%"class.content::WebContentsObserver"*)* @_ZN7content19WebContentsObserver15DidStartLoadingEv to i8*), i8* bitcast (void (%"class.content::WebContentsObserver"*)* @_ZN7content19WebContentsObserver18DidReceiveResponseEv to i8*), i8* bitcast (void (%"class.content::WebContentsObserver"*)* @_ZN7content19WebContentsObserver14DidStopLoadingEv to i8*), i8* bitcast (void (%"class.content::WebContentsObserver"*, double)* @_ZN7content19WebContentsObserver19LoadProgressChangedEd to i8*), i8* bitcast (void (%"class.content::WebContentsObserver"*, %"class.content::RenderFrameHost"*)* @_ZN7content19WebContentsObserver28DocumentAvailableInMainFrameEPNS_15RenderFrameHostE to i8*), i8* bitcast (void (%"class.content::WebContentsObserver"*, %"class.content::RenderFrameHost"*)* @_ZN7content19WebContentsObserver34DocumentOnLoadCompletedInMainFrameEPNS_15RenderFrameHostE to i8*), i8* bitcast (void (%"class.content::WebContentsObserver"*, %"class.content::RenderFrameHost"*)* @_ZN7content19WebContentsObserver16DOMContentLoadedEPNS_15RenderFrameHostE to i8*), i8* bitcast (void (%"class.content::WebContentsObserver"*, %"class.content::RenderFrameHost"*, %class.GURL*)* @_ZN7content19WebContentsObserver13DidFinishLoadEPNS_15RenderFrameHostERK4GURL to i8*), i8* bitcast (void (%"class.content::WebContentsObserver"*, %"class.content::RenderFrameHost"*, %class.GURL*, i32)* @_ZN7content19WebContentsObserver11DidFailLoadEPNS_15RenderFrameHostERK4GURLi to i8*), i8* bitcast (void (%"class.content::WebContentsObserver"*)* @_ZN7content19WebContentsObserver29DidChangeVisibleSecurityStateEv to i8*), i8* bitcast (void (%"class.content::WebContentsObserver"*, %"class.content::RenderFrameHost"*, %class.GURL*, %"class.std::__1::basic_string"*, i32)* @_ZN7content19WebContentsObserver30DidLoadResourceFromMemoryCacheEPNS_15RenderFrameHostERK4GURLRKNSt3__112basic_stringIcNS6_11char_traitsIcEENS6_9allocatorIcEEEEN7network5mojom18RequestDestinationE to i8*), i8* bitcast (void (%"class.content::WebContentsObserver"*, %"class.content::RenderFrameHost"*, %"struct.content::GlobalRequestID"*, %"class.blink::mojom::ResourceLoadInfo"*)* @_ZN7content19WebContentsObserver20ResourceLoadCompleteEPNS_15RenderFrameHostERKNS_15GlobalRequestIDERKN5blink5mojom16ResourceLoadInfoE to i8*), i8* bitcast (void (%"class.content::WebContentsObserver"*, %"class.content::RenderFrameHost"*, %"struct.content::CookieAccessDetails"*)* @_ZN7content19WebContentsObserver17OnCookiesAccessedEPNS_15RenderFrameHostERKNS_19CookieAccessDetailsE to i8*), i8* bitcast (void (%"class.content::WebContentsObserver"*, %"class.content::NavigationHandle"*, %"struct.content::CookieAccessDetails"*)* @_ZN7content19WebContentsObserver17OnCookiesAccessedEPNS_16NavigationHandleERKNS_19CookieAccessDetailsE to i8*), i8* bitcast (void (%"class.content::WebContentsObserver"*, %"struct.content::LoadCommittedDetails"*)* @_ZN7content19WebContentsObserver24NavigationEntryCommittedERKNS_20LoadCommittedDetailsE to i8*), i8* bitcast (void (%"class.content::WebContentsObserver"*, %"struct.content::PrunedDetails"*)* @_ZN7content19WebContentsObserver20NavigationListPrunedERKNS_13PrunedDetailsE to i8*), i8* bitcast (void (%"class.content::WebContentsObserver"*)* @_ZN7content19WebContentsObserver24NavigationEntriesDeletedEv to i8*), i8* bitcast (void (%"class.content::WebContentsObserver"*, %"struct.content::EntryChangedDetails"*)* @_ZN7content19WebContentsObserver22NavigationEntryChangedERKNS_19EntryChangedDetailsE to i8*), i8* bitcast (void (%"class.content::WebContentsObserver"*, %"class.content::WebContents"*, %"class.content::RenderFrameHost"*, %class.GURL*, %"struct.content::Referrer"*, i32, i32, i1, i1)* @_ZN7content19WebContentsObserver19DidOpenRequestedURLEPNS_11WebContentsEPNS_15RenderFrameHostERK4GURLRKNS_8ReferrerE21WindowOpenDispositionN2ui14PageTransitionEbb to i8*), i8* bitcast (void (%"class.content::WebContentsObserver"*)* @_ZN7content19WebContentsObserver29DidFirstVisuallyNonEmptyPaintEv to i8*), i8* bitcast (void (%"class.content::WebContentsObserver"*)* @_ZN7content19WebContentsObserver17NavigationStoppedEv to i8*), i8* bitcast (void (%"class.content::WebContentsObserver"*, %"class.blink::WebInputEvent"*)* @_ZN7content19WebContentsObserver21DidGetUserInteractionERKN5blink13WebInputEventE to i8*), i8* bitcast (void (%"class.content::WebContentsObserver"*)* @_ZN7content19WebContentsObserver20DidGetIgnoredUIEventEv to i8*), i8* bitcast (void (%"class.content::WebContentsObserver"*, i32)* @_ZN7content19WebContentsObserver19OnVisibilityChangedENS_10VisibilityE to i8*), i8* bitcast (void (%"class.guest_view::GuestViewBase::OwnerContentsObserver"*, i1)* @_ZN10guest_view13GuestViewBase21OwnerContentsObserver19MainFrameWasResizedEb to i8*), i8* bitcast (void (%"class.content::WebContentsObserver"*, %"class.content::RenderFrameHost"*, %"class.std::__1::basic_string"*)* @_ZN7content19WebContentsObserver16FrameNameChangedEPNS_15RenderFrameHostERKNSt3__112basic_stringIcNS3_11char_traitsIcEENS3_9allocatorIcEEEE to i8*), i8* bitcast (void (%"class.content::WebContentsObserver"*, %"class.content::RenderFrameHost"*)* @_ZN7content19WebContentsObserver27FrameReceivedUserActivationEPNS_15RenderFrameHostE to i8*), i8* bitcast (void (%"class.content::WebContentsObserver"*, %"class.content::RenderFrameHost"*, i1)* @_ZN7content19WebContentsObserver24FrameDisplayStateChangedEPNS_15RenderFrameHostEb to i8*), i8* bitcast (void (%"class.content::WebContentsObserver"*, %"class.content::RenderFrameHost"*, %"class.gfx::Size"*)* @_ZN7content19WebContentsObserver16FrameSizeChangedEPNS_15RenderFrameHostERKN3gfx4SizeE to i8*), i8* bitcast (void (%"class.content::WebContentsObserver"*, %"class.content::NavigationEntry"*)* @_ZN7content19WebContentsObserver11TitleWasSetEPNS_15NavigationEntryE to i8*), i8* bitcast (void (%"class.content::WebContentsObserver"*, %class.GURL*, i1)* @_ZN7content19WebContentsObserver16AppCacheAccessedERK4GURLb to i8*), i8* bitcast (void (%"class.content::WebContentsObserver"*)* @_ZN7content19WebContentsObserver21PepperInstanceCreatedEv to i8*), i8* bitcast (void (%"class.content::WebContentsObserver"*)* @_ZN7content19WebContentsObserver21PepperInstanceDeletedEv to i8*), i8* bitcast (void (%"class.content::WebContentsObserver"*, i32)* @_ZN7content19WebContentsObserver18ViewportFitChangedEN5blink5mojom11ViewportFitE to i8*), i8* bitcast (void (%"class.content::WebContentsObserver"*, %"class.base::FilePath"*, i32)* @_ZN7content19WebContentsObserver13PluginCrashedERKN4base8FilePathEi to i8*), i8* bitcast (void (%"class.content::WebContentsObserver"*, i32, %"class.base::FilePath"*, i1)* @_ZN7content19WebContentsObserver23PluginHungStatusChangedEiRKN4base8FilePathEb to i8*), i8* bitcast (void (%"class.content::WebContentsObserver"*, %"class.content::WebContents"*)* @_ZN7content19WebContentsObserver23InnerWebContentsCreatedEPNS_11WebContentsE to i8*), i8* bitcast (void (%"class.content::WebContentsObserver"*, %"class.content::WebContents"*, %"class.content::RenderFrameHost"*, i1)* @_ZN7content19WebContentsObserver24InnerWebContentsAttachedEPNS_11WebContentsEPNS_15RenderFrameHostEb to i8*), i8* bitcast (void (%"class.content::WebContentsObserver"*, %"class.content::WebContents"*)* @_ZN7content19WebContentsObserver24InnerWebContentsDetachedEPNS_11WebContentsE to i8*), i8* bitcast (void (%"class.content::WebContentsObserver"*, %"class.content::WebContents"*, %"class.content::WebContents"*)* @_ZN7content19WebContentsObserver24DidCloneToNewWebContentsEPNS_11WebContentsES2_ to i8*), i8* bitcast (void (%"class.guest_view::GuestViewBase::OwnerContentsObserver"*)* @_ZN10guest_view13GuestViewBase21OwnerContentsObserver20WebContentsDestroyedEv to i8*), i8* bitcast (void (%"class.content::WebContentsObserver"*, %"struct.blink::UserAgentOverride"*)* @_ZN7content19WebContentsObserver20UserAgentOverrideSetERKN5blink17UserAgentOverrideE to i8*), i8* bitcast (void (%"class.content::WebContentsObserver"*, %"class.content::RenderFrameHost"*, %"class.std::__1::vector.355"*)* @_ZN7content19WebContentsObserver19DidUpdateFaviconURLEPNS_15RenderFrameHostERKNSt3__16vectorIN4mojo9StructPtrIN5blink5mojom10FaviconURLEEENS3_9allocatorISA_EEEE to i8*), i8* bitcast (void (%"class.content::WebContentsObserver"*, i1)* @_ZN7content19WebContentsObserver19OnAudioStateChangedEb to i8*), i8* bitcast (void (%"class.content::WebContentsObserver"*, %"class.content::RenderFrameHost"*, i1)* @_ZN7content19WebContentsObserver24OnFrameAudioStateChangedEPNS_15RenderFrameHostEb to i8*), i8* bitcast (void (%"class.content::WebContentsObserver"*, i1)* @_ZN7content19WebContentsObserver37OnIsConnectedToBluetoothDeviceChangedEb to i8*), i8* bitcast (void (%"class.guest_view::GuestViewBase::OwnerContentsObserver"*, i1)* @_ZN10guest_view13GuestViewBase21OwnerContentsObserver25DidUpdateAudioMutingStateEb to i8*), i8* bitcast (void (%"class.guest_view::GuestViewBase::OwnerContentsObserver"*, i1, i1)* @_ZN10guest_view13GuestViewBase21OwnerContentsObserver29DidToggleFullscreenModeForTabEbb to i8*), i8* bitcast (void (%"class.content::WebContentsObserver"*, %"class.content::RenderFrameHost"*)* @_ZN7content19WebContentsObserver20DidAcquireFullscreenEPNS_15RenderFrameHostE to i8*), i8* bitcast (void (%"class.content::WebContentsObserver"*, i32)* @_ZN7content19WebContentsObserver32DidChangeVerticalScrollDirectionEN3viz23VerticalScrollDirectionE to i8*), i8* bitcast (void (%"class.content::WebContentsObserver"*)* @_ZN7content19WebContentsObserver27BeforeFormRepostWarningShowEv to i8*), i8* bitcast (void (%"class.content::WebContentsObserver"*, i1, %"class.base::TimeTicks"*)* @_ZN7content19WebContentsObserver17BeforeUnloadFiredEbRKN4base9TimeTicksE to i8*), i8* bitcast (void (%"class.content::WebContentsObserver"*)* @_ZN7content19WebContentsObserver27BeforeUnloadDialogCancelledEv to i8*), i8* bitcast (void (%"class.content::WebContentsObserver"*)* @_ZN7content19WebContentsObserver30AXTreeIDForMainFrameHasChangedEv to i8*), i8* bitcast (void (%"class.content::WebContentsObserver"*, %"struct.content::AXEventNotificationDetails"*)* @_ZN7content19WebContentsObserver26AccessibilityEventReceivedERKNS_26AXEventNotificationDetailsE to i8*), i8* bitcast (void (%"class.content::WebContentsObserver"*, %"class.std::__1::vector.356"*)* @_ZN7content19WebContentsObserver36AccessibilityLocationChangesReceivedERKNSt3__16vectorINS_35AXLocationChangeNotificationDetailsENS1_9allocatorIS3_EEEE to i8*), i8* bitcast (void (%"class.content::WebContentsObserver"*)* @_ZN7content19WebContentsObserver19DidChangeThemeColorEv to i8*), i8* bitcast (void (%"class.content::WebContentsObserver"*)* @_ZN7content19WebContentsObserver24OnBackgroundColorChangedEv to i8*), i8* bitcast (void (%"class.content::WebContentsObserver"*, %"class.content::RenderFrameHost"*, i32, %"class.std::__1::basic_string.200"*, i32, %"class.std::__1::basic_string.200"*, %"class.absl::optional.303"*)* @_ZN7content19WebContentsObserver24OnDidAddMessageToConsoleEPNS_15RenderFrameHostEN5blink5mojom19ConsoleMessageLevelERKNSt3__112basic_stringIDsNS6_11char_traitsIDsEENS6_9allocatorIDsEEEEiSE_RKN4absl8optionalISC_EE to i8*), i8* bitcast (void (%"class.content::WebContentsObserver"*, %"struct.content::WebContentsObserver::MediaPlayerInfo"*, %"struct.content::MediaPlayerId"*)* @_ZN7content19WebContentsObserver19MediaStartedPlayingERKNS0_15MediaPlayerInfoERKNS_13MediaPlayerIdE to i8*), i8* bitcast (void (%"class.content::WebContentsObserver"*, %"struct.content::WebContentsObserver::MediaPlayerInfo"*, %"struct.content::MediaPlayerId"*, i32)* @_ZN7content19WebContentsObserver19MediaStoppedPlayingERKNS0_15MediaPlayerInfoERKNS_13MediaPlayerIdENS0_18MediaStoppedReasonE to i8*), i8* bitcast (void (%"class.content::WebContentsObserver"*, %"class.gfx::Size"*, %"struct.content::MediaPlayerId"*)* @_ZN7content19WebContentsObserver12MediaResizedERKN3gfx4SizeERKNS_13MediaPlayerIdE to i8*), i8* bitcast (void (%"class.content::WebContentsObserver"*, i1)* @_ZN7content19WebContentsObserver33MediaEffectivelyFullscreenChangedEb to i8*), i8* bitcast (void (%"class.content::WebContentsObserver"*, i1)* @_ZN7content19WebContentsObserver28MediaPictureInPictureChangedEb to i8*), i8* bitcast (void (%"class.content::WebContentsObserver"*, %"struct.content::MediaPlayerId"*, i1)* @_ZN7content19WebContentsObserver23MediaMutedStatusChangedERKNS_13MediaPlayerIdEb to i8*), i8* bitcast (void (%"class.content::WebContentsObserver"*, %"struct.content::MediaPlayerId"*)* @_ZN7content19WebContentsObserver20MediaBufferUnderflowERKNS_13MediaPlayerIdE to i8*), i8* bitcast (void (%"class.content::WebContentsObserver"*, %"struct.content::MediaPlayerId"*)* @_ZN7content19WebContentsObserver15MediaPlayerSeekERKNS_13MediaPlayerIdE to i8*), i8* bitcast (void (%"class.content::WebContentsObserver"*, %"struct.content::MediaPlayerId"*)* @_ZN7content19WebContentsObserver14MediaDestroyedERKNS_13MediaPlayerIdE to i8*), i8* bitcast (void (%"class.content::WebContentsObserver"*, float)* @_ZN7content19WebContentsObserver24OnPageScaleFactorChangedEf to i8*), i8* bitcast (void (%"class.content::WebContentsObserver"*)* @_ZN7content19WebContentsObserver7OnPasteEv to i8*), i8* bitcast (i1 (%"class.content::WebContentsObserver"*, %"class.IPC::Message"*, %"class.content::RenderFrameHost"*)* @_ZN7content19WebContentsObserver17OnMessageReceivedERKN3IPC7MessageEPNS_15RenderFrameHostE to i8*), i8* bitcast (void (%"class.content::WebContentsObserver"*, %"class.content::RenderWidgetHost"*)* @_ZN7content19WebContentsObserver20OnWebContentsFocusedEPNS_16RenderWidgetHostE to i8*), i8* bitcast (void (%"class.content::WebContentsObserver"*, %"class.content::RenderWidgetHost"*)* @_ZN7content19WebContentsObserver22OnWebContentsLostFocusEPNS_16RenderWidgetHostE to i8*), i8* bitcast (void (%"class.content::WebContentsObserver"*, %"struct.content::FocusedNodeDetails"*)* @_ZN7content19WebContentsObserver20OnFocusChangedInPageEPNS_18FocusedNodeDetailsE to i8*), i8* bitcast (void (%"class.content::WebContentsObserver"*, %"class.content::RenderFrameHost"*, %"class.absl::optional.357"*)* @_ZN7content19WebContentsObserver23DidUpdateWebManifestURLEPNS_15RenderFrameHostERKN4absl8optionalI4GURLEE to i8*), i8* bitcast (void (%"class.content::WebContentsObserver"*, %"class.content::RenderFrameHost"*, %"class.std::__1::basic_string"*, %"class.mojo::ScopedHandleBase"*)* @_ZN7content19WebContentsObserver27OnInterfaceRequestFromFrameEPNS_15RenderFrameHostERKNSt3__112basic_stringIcNS3_11char_traitsIcEENS3_9allocatorIcEEEEPN4mojo16ScopedHandleBaseINSC_17MessagePipeHandleEEE to i8*), i8* bitcast (void (%"class.content::WebContentsObserver"*, %"struct.std::__1::pair.362"*)* @_ZN7content19WebContentsObserver27AudioContextPlaybackStartedERKNSt3__14pairIPNS_15RenderFrameHostEiEE to i8*), i8* bitcast (void (%"class.content::WebContentsObserver"*, %"struct.std::__1::pair.362"*)* @_ZN7content19WebContentsObserver27AudioContextPlaybackStoppedERKNSt3__14pairIPNS_15RenderFrameHostEiEE to i8*), i8* bitcast (void (%"class.content::WebContentsObserver"*, %"class.content::RenderFrameHost"*, %class.GURL*, i24)* @_ZN7content19WebContentsObserver23OnServiceWorkerAccessedEPNS_15RenderFrameHostERK4GURLNS_24AllowServiceWorkerResultE to i8*), i8* bitcast (void (%"class.content::WebContentsObserver"*, %"class.content::NavigationHandle"*, %class.GURL*, i24)* @_ZN7content19WebContentsObserver23OnServiceWorkerAccessedEPNS_16NavigationHandleERK4GURLNS_24AllowServiceWorkerResultE to i8*)] }, comdat, align 8
@_ZTVN10guest_view13GuestViewBase22OpenerLifetimeObserverE = linkonce_odr hidden unnamed_addr constant { [109 x i8*] } { [109 x i8*] [i8* null, i8* null, i8* bitcast (i1 (%"class.content::WebContentsObserver"*, %"class.IPC::Message"*)* @_ZN7content19WebContentsObserver17OnMessageReceivedERKN3IPC7MessageE to i8*), i8* bitcast (void (%"class.IPC::Listener"*, i32)* @_ZN3IPC8Listener18OnChannelConnectedEi to i8*), i8* bitcast (void (%"class.IPC::Listener"*)* @_ZN3IPC8Listener14OnChannelErrorEv to i8*), i8* bitcast (void (%"class.IPC::Listener"*, %"class.IPC::Message"*)* @_ZN3IPC8Listener20OnBadMessageReceivedERKNS_7MessageE to i8*), i8* bitcast (void (%"class.IPC::Listener"*, %"class.std::__1::basic_string"*, %"class.mojo::ScopedInterfaceEndpointHandle"*)* @_ZN3IPC8Listener28OnAssociatedInterfaceRequestERKNSt3__112basic_stringIcNS1_11char_traitsIcEENS1_9allocatorIcEEEEN4mojo29ScopedInterfaceEndpointHandleE to i8*), i8* bitcast (void (%"class.IPC::Listener"*)* @_ZN3IPC8Listener15OnChannelDeniedEv to i8*), i8* bitcast (void (%"class.IPC::Listener"*)* @_ZN3IPC8Listener20OnChannelListenErrorEv to i8*), i8* bitcast (void (%"class.content::WebContentsObserver"*)* @_ZN7content19WebContentsObserverD2Ev to i8*), i8* bitcast (void (%"class.guest_view::GuestViewBase::OpenerLifetimeObserver"*)* @_ZN10guest_view13GuestViewBase22OpenerLifetimeObserverD0Ev to i8*), i8* bitcast (void (%"class.content::WebContentsObserver"*, %"class.content::RenderFrameHost"*)* @_ZN7content19WebContentsObserver18RenderFrameCreatedEPNS_15RenderFrameHostE to i8*), i8* bitcast (void (%"class.content::WebContentsObserver"*, %"class.content::RenderFrameHost"*)* @_ZN7content19WebContentsObserver18RenderFrameDeletedEPNS_15RenderFrameHostE to i8*), i8* bitcast (void (%"class.content::WebContentsObserver"*, %"class.content::RenderFrameHost"*, %"class.content::RenderFrameHost"*)* @_ZN7content19WebContentsObserver22RenderFrameHostChangedEPNS_15RenderFrameHostES2_ to i8*), i8* bitcast (void (%"class.content::WebContentsObserver"*, i32)* @_ZN7content19WebContentsObserver12FrameDeletedEi to i8*), i8* bitcast (void (%"class.content::WebContentsObserver"*, %"class.content::RenderFrameHost"*, i32, i32)* @_ZN7content19WebContentsObserver27RenderFrameHostStateChangedEPNS_15RenderFrameHostENS1_14LifecycleStateES3_ to i8*), i8* bitcast (void (%"class.content::WebContentsObserver"*)* @_ZN7content19WebContentsObserver20CaptureTargetChangedEv to i8*), i8* bitcast (void (%"class.content::WebContentsObserver"*, %"class.blink::mojom::CaptureHandleConfig"*)* @_ZN7content19WebContentsObserver27OnCaptureHandleConfigUpdateERKN5blink5mojom19CaptureHandleConfigE to i8*), i8* bitcast (void (%"class.content::WebContentsObserver"*)* @_ZN7content19WebContentsObserver15RenderViewReadyEv to i8*), i8* bitcast (void (%"class.content::WebContentsObserver"*, %"class.content::RenderViewHost"*)* @_ZN7content19WebContentsObserver17RenderViewDeletedEPNS_14RenderViewHostE to i8*), i8* bitcast (void (%"class.content::WebContentsObserver"*, i32)* @_ZN7content19WebContentsObserver17RenderProcessGoneEN4base17TerminationStatusE to i8*), i8* bitcast (void (%"class.content::WebContentsObserver"*, %"class.content::RenderViewHost"*, %"class.content::RenderViewHost"*)* @_ZN7content19WebContentsObserver21RenderViewHostChangedEPNS_14RenderViewHostES2_ to i8*), i8* bitcast (void (%"class.content::WebContentsObserver"*, %"class.content::RenderProcessHost"*)* @_ZN7content19WebContentsObserver22OnRendererUnresponsiveEPNS_17RenderProcessHostE to i8*), i8* bitcast (void (%"class.content::WebContentsObserver"*, %"class.content::RenderProcessHost"*)* @_ZN7content19WebContentsObserver20OnRendererResponsiveEPNS_17RenderProcessHostE to i8*), i8* bitcast (void (%"class.content::WebContentsObserver"*, %"class.content::NavigationHandle"*)* @_ZN7content19WebContentsObserver18DidStartNavigationEPNS_16NavigationHandleE to i8*), i8* bitcast (void (%"class.content::WebContentsObserver"*, %"class.content::NavigationHandle"*)* @_ZN7content19WebContentsObserver21DidRedirectNavigationEPNS_16NavigationHandleE to i8*), i8* bitcast (void (%"class.content::WebContentsObserver"*, %"class.content::NavigationHandle"*)* @_ZN7content19WebContentsObserver23ReadyToCommitNavigationEPNS_16NavigationHandleE to i8*), i8* bitcast (void (%"class.content::WebContentsObserver"*, %"class.content::NavigationHandle"*)* @_ZN7content19WebContentsObserver19DidFinishNavigationEPNS_16NavigationHandleE to i8*), i8* bitcast (void (%"class.content::WebContentsObserver"*, %"class.content::WebContents"*, i64)* @_ZN7content19WebContentsObserver17DidActivatePortalEPNS_11WebContentsEN4base9TimeTicksE to i8*), i8* bitcast (void (%"class.content::WebContentsObserver"*)* @_ZN7content19WebContentsObserver15DidStartLoadingEv to i8*), i8* bitcast (void (%"class.content::WebContentsObserver"*)* @_ZN7content19WebContentsObserver18DidReceiveResponseEv to i8*), i8* bitcast (void (%"class.content::WebContentsObserver"*)* @_ZN7content19WebContentsObserver14DidStopLoadingEv to i8*), i8* bitcast (void (%"class.content::WebContentsObserver"*, double)* @_ZN7content19WebContentsObserver19LoadProgressChangedEd to i8*), i8* bitcast (void (%"class.content::WebContentsObserver"*, %"class.content::RenderFrameHost"*)* @_ZN7content19WebContentsObserver28DocumentAvailableInMainFrameEPNS_15RenderFrameHostE to i8*), i8* bitcast (void (%"class.content::WebContentsObserver"*, %"class.content::RenderFrameHost"*)* @_ZN7content19WebContentsObserver34DocumentOnLoadCompletedInMainFrameEPNS_15RenderFrameHostE to i8*), i8* bitcast (void (%"class.content::WebContentsObserver"*, %"class.content::RenderFrameHost"*)* @_ZN7content19WebContentsObserver16DOMContentLoadedEPNS_15RenderFrameHostE to i8*), i8* bitcast (void (%"class.content::WebContentsObserver"*, %"class.content::RenderFrameHost"*, %class.GURL*)* @_ZN7content19WebContentsObserver13DidFinishLoadEPNS_15RenderFrameHostERK4GURL to i8*), i8* bitcast (void (%"class.content::WebContentsObserver"*, %"class.content::RenderFrameHost"*, %class.GURL*, i32)* @_ZN7content19WebContentsObserver11DidFailLoadEPNS_15RenderFrameHostERK4GURLi to i8*), i8* bitcast (void (%"class.content::WebContentsObserver"*)* @_ZN7content19WebContentsObserver29DidChangeVisibleSecurityStateEv to i8*), i8* bitcast (void (%"class.content::WebContentsObserver"*, %"class.content::RenderFrameHost"*, %class.GURL*, %"class.std::__1::basic_string"*, i32)* @_ZN7content19WebContentsObserver30DidLoadResourceFromMemoryCacheEPNS_15RenderFrameHostERK4GURLRKNSt3__112basic_stringIcNS6_11char_traitsIcEENS6_9allocatorIcEEEEN7network5mojom18RequestDestinationE to i8*), i8* bitcast (void (%"class.content::WebContentsObserver"*, %"class.content::RenderFrameHost"*, %"struct.content::GlobalRequestID"*, %"class.blink::mojom::ResourceLoadInfo"*)* @_ZN7content19WebContentsObserver20ResourceLoadCompleteEPNS_15RenderFrameHostERKNS_15GlobalRequestIDERKN5blink5mojom16ResourceLoadInfoE to i8*), i8* bitcast (void (%"class.content::WebContentsObserver"*, %"class.content::RenderFrameHost"*, %"struct.content::CookieAccessDetails"*)* @_ZN7content19WebContentsObserver17OnCookiesAccessedEPNS_15RenderFrameHostERKNS_19CookieAccessDetailsE to i8*), i8* bitcast (void (%"class.content::WebContentsObserver"*, %"class.content::NavigationHandle"*, %"struct.content::CookieAccessDetails"*)* @_ZN7content19WebContentsObserver17OnCookiesAccessedEPNS_16NavigationHandleERKNS_19CookieAccessDetailsE to i8*), i8* bitcast (void (%"class.content::WebContentsObserver"*, %"struct.content::LoadCommittedDetails"*)* @_ZN7content19WebContentsObserver24NavigationEntryCommittedERKNS_20LoadCommittedDetailsE to i8*), i8* bitcast (void (%"class.content::WebContentsObserver"*, %"struct.content::PrunedDetails"*)* @_ZN7content19WebContentsObserver20NavigationListPrunedERKNS_13PrunedDetailsE to i8*), i8* bitcast (void (%"class.content::WebContentsObserver"*)* @_ZN7content19WebContentsObserver24NavigationEntriesDeletedEv to i8*), i8* bitcast (void (%"class.content::WebContentsObserver"*, %"struct.content::EntryChangedDetails"*)* @_ZN7content19WebContentsObserver22NavigationEntryChangedERKNS_19EntryChangedDetailsE to i8*), i8* bitcast (void (%"class.content::WebContentsObserver"*, %"class.content::WebContents"*, %"class.content::RenderFrameHost"*, %class.GURL*, %"struct.content::Referrer"*, i32, i32, i1, i1)* @_ZN7content19WebContentsObserver19DidOpenRequestedURLEPNS_11WebContentsEPNS_15RenderFrameHostERK4GURLRKNS_8ReferrerE21WindowOpenDispositionN2ui14PageTransitionEbb to i8*), i8* bitcast (void (%"class.content::WebContentsObserver"*)* @_ZN7content19WebContentsObserver29DidFirstVisuallyNonEmptyPaintEv to i8*), i8* bitcast (void (%"class.content::WebContentsObserver"*)* @_ZN7content19WebContentsObserver17NavigationStoppedEv to i8*), i8* bitcast (void (%"class.content::WebContentsObserver"*, %"class.blink::WebInputEvent"*)* @_ZN7content19WebContentsObserver21DidGetUserInteractionERKN5blink13WebInputEventE to i8*), i8* bitcast (void (%"class.content::WebContentsObserver"*)* @_ZN7content19WebContentsObserver20DidGetIgnoredUIEventEv to i8*), i8* bitcast (void (%"class.content::WebContentsObserver"*, i32)* @_ZN7content19WebContentsObserver19OnVisibilityChangedENS_10VisibilityE to i8*), i8* bitcast (void (%"class.content::WebContentsObserver"*, i1)* @_ZN7content19WebContentsObserver19MainFrameWasResizedEb to i8*), i8* bitcast (void (%"class.content::WebContentsObserver"*, %"class.content::RenderFrameHost"*, %"class.std::__1::basic_string"*)* @_ZN7content19WebContentsObserver16FrameNameChangedEPNS_15RenderFrameHostERKNSt3__112basic_stringIcNS3_11char_traitsIcEENS3_9allocatorIcEEEE to i8*), i8* bitcast (void (%"class.content::WebContentsObserver"*, %"class.content::RenderFrameHost"*)* @_ZN7content19WebContentsObserver27FrameReceivedUserActivationEPNS_15RenderFrameHostE to i8*), i8* bitcast (void (%"class.content::WebContentsObserver"*, %"class.content::RenderFrameHost"*, i1)* @_ZN7content19WebContentsObserver24FrameDisplayStateChangedEPNS_15RenderFrameHostEb to i8*), i8* bitcast (void (%"class.content::WebContentsObserver"*, %"class.content::RenderFrameHost"*, %"class.gfx::Size"*)* @_ZN7content19WebContentsObserver16FrameSizeChangedEPNS_15RenderFrameHostERKN3gfx4SizeE to i8*), i8* bitcast (void (%"class.content::WebContentsObserver"*, %"class.content::NavigationEntry"*)* @_ZN7content19WebContentsObserver11TitleWasSetEPNS_15NavigationEntryE to i8*), i8* bitcast (void (%"class.content::WebContentsObserver"*, %class.GURL*, i1)* @_ZN7content19WebContentsObserver16AppCacheAccessedERK4GURLb to i8*), i8* bitcast (void (%"class.content::WebContentsObserver"*)* @_ZN7content19WebContentsObserver21PepperInstanceCreatedEv to i8*), i8* bitcast (void (%"class.content::WebContentsObserver"*)* @_ZN7content19WebContentsObserver21PepperInstanceDeletedEv to i8*), i8* bitcast (void (%"class.content::WebContentsObserver"*, i32)* @_ZN7content19WebContentsObserver18ViewportFitChangedEN5blink5mojom11ViewportFitE to i8*), i8* bitcast (void (%"class.content::WebContentsObserver"*, %"class.base::FilePath"*, i32)* @_ZN7content19WebContentsObserver13PluginCrashedERKN4base8FilePathEi to i8*), i8* bitcast (void (%"class.content::WebContentsObserver"*, i32, %"class.base::FilePath"*, i1)* @_ZN7content19WebContentsObserver23PluginHungStatusChangedEiRKN4base8FilePathEb to i8*), i8* bitcast (void (%"class.content::WebContentsObserver"*, %"class.content::WebContents"*)* @_ZN7content19WebContentsObserver23InnerWebContentsCreatedEPNS_11WebContentsE to i8*), i8* bitcast (void (%"class.content::WebContentsObserver"*, %"class.content::WebContents"*, %"class.content::RenderFrameHost"*, i1)* @_ZN7content19WebContentsObserver24InnerWebContentsAttachedEPNS_11WebContentsEPNS_15RenderFrameHostEb to i8*), i8* bitcast (void (%"class.content::WebContentsObserver"*, %"class.content::WebContents"*)* @_ZN7content19WebContentsObserver24InnerWebContentsDetachedEPNS_11WebContentsE to i8*), i8* bitcast (void (%"class.content::WebContentsObserver"*, %"class.content::WebContents"*, %"class.content::WebContents"*)* @_ZN7content19WebContentsObserver24DidCloneToNewWebContentsEPNS_11WebContentsES2_ to i8*), i8* bitcast (void (%"class.guest_view::GuestViewBase::OpenerLifetimeObserver"*)* @_ZN10guest_view13GuestViewBase22OpenerLifetimeObserver20WebContentsDestroyedEv to i8*), i8* bitcast (void (%"class.content::WebContentsObserver"*, %"struct.blink::UserAgentOverride"*)* @_ZN7content19WebContentsObserver20UserAgentOverrideSetERKN5blink17UserAgentOverrideE to i8*), i8* bitcast (void (%"class.content::WebContentsObserver"*, %"class.content::RenderFrameHost"*, %"class.std::__1::vector.355"*)* @_ZN7content19WebContentsObserver19DidUpdateFaviconURLEPNS_15RenderFrameHostERKNSt3__16vectorIN4mojo9StructPtrIN5blink5mojom10FaviconURLEEENS3_9allocatorISA_EEEE to i8*), i8* bitcast (void (%"class.content::WebContentsObserver"*, i1)* @_ZN7content19WebContentsObserver19OnAudioStateChangedEb to i8*), i8* bitcast (void (%"class.content::WebContentsObserver"*, %"class.content::RenderFrameHost"*, i1)* @_ZN7content19WebContentsObserver24OnFrameAudioStateChangedEPNS_15RenderFrameHostEb to i8*), i8* bitcast (void (%"class.content::WebContentsObserver"*, i1)* @_ZN7content19WebContentsObserver37OnIsConnectedToBluetoothDeviceChangedEb to i8*), i8* bitcast (void (%"class.content::WebContentsObserver"*, i1)* @_ZN7content19WebContentsObserver25DidUpdateAudioMutingStateEb to i8*), i8* bitcast (void (%"class.content::WebContentsObserver"*, i1, i1)* @_ZN7content19WebContentsObserver29DidToggleFullscreenModeForTabEbb to i8*), i8* bitcast (void (%"class.content::WebContentsObserver"*, %"class.content::RenderFrameHost"*)* @_ZN7content19WebContentsObserver20DidAcquireFullscreenEPNS_15RenderFrameHostE to i8*), i8* bitcast (void (%"class.content::WebContentsObserver"*, i32)* @_ZN7content19WebContentsObserver32DidChangeVerticalScrollDirectionEN3viz23VerticalScrollDirectionE to i8*), i8* bitcast (void (%"class.content::WebContentsObserver"*)* @_ZN7content19WebContentsObserver27BeforeFormRepostWarningShowEv to i8*), i8* bitcast (void (%"class.content::WebContentsObserver"*, i1, %"class.base::TimeTicks"*)* @_ZN7content19WebContentsObserver17BeforeUnloadFiredEbRKN4base9TimeTicksE to i8*), i8* bitcast (void (%"class.content::WebContentsObserver"*)* @_ZN7content19WebContentsObserver27BeforeUnloadDialogCancelledEv to i8*), i8* bitcast (void (%"class.content::WebContentsObserver"*)* @_ZN7content19WebContentsObserver30AXTreeIDForMainFrameHasChangedEv to i8*), i8* bitcast (void (%"class.content::WebContentsObserver"*, %"struct.content::AXEventNotificationDetails"*)* @_ZN7content19WebContentsObserver26AccessibilityEventReceivedERKNS_26AXEventNotificationDetailsE to i8*), i8* bitcast (void (%"class.content::WebContentsObserver"*, %"class.std::__1::vector.356"*)* @_ZN7content19WebContentsObserver36AccessibilityLocationChangesReceivedERKNSt3__16vectorINS_35AXLocationChangeNotificationDetailsENS1_9allocatorIS3_EEEE to i8*), i8* bitcast (void (%"class.content::WebContentsObserver"*)* @_ZN7content19WebContentsObserver19DidChangeThemeColorEv to i8*), i8* bitcast (void (%"class.content::WebContentsObserver"*)* @_ZN7content19WebContentsObserver24OnBackgroundColorChangedEv to i8*), i8* bitcast (void (%"class.content::WebContentsObserver"*, %"class.content::RenderFrameHost"*, i32, %"class.std::__1::basic_string.200"*, i32, %"class.std::__1::basic_string.200"*, %"class.absl::optional.303"*)* @_ZN7content19WebContentsObserver24OnDidAddMessageToConsoleEPNS_15RenderFrameHostEN5blink5mojom19ConsoleMessageLevelERKNSt3__112basic_stringIDsNS6_11char_traitsIDsEENS6_9allocatorIDsEEEEiSE_RKN4absl8optionalISC_EE to i8*), i8* bitcast (void (%"class.content::WebContentsObserver"*, %"struct.content::WebContentsObserver::MediaPlayerInfo"*, %"struct.content::MediaPlayerId"*)* @_ZN7content19WebContentsObserver19MediaStartedPlayingERKNS0_15MediaPlayerInfoERKNS_13MediaPlayerIdE to i8*), i8* bitcast (void (%"class.content::WebContentsObserver"*, %"struct.content::WebContentsObserver::MediaPlayerInfo"*, %"struct.content::MediaPlayerId"*, i32)* @_ZN7content19WebContentsObserver19MediaStoppedPlayingERKNS0_15MediaPlayerInfoERKNS_13MediaPlayerIdENS0_18MediaStoppedReasonE to i8*), i8* bitcast (void (%"class.content::WebContentsObserver"*, %"class.gfx::Size"*, %"struct.content::MediaPlayerId"*)* @_ZN7content19WebContentsObserver12MediaResizedERKN3gfx4SizeERKNS_13MediaPlayerIdE to i8*), i8* bitcast (void (%"class.content::WebContentsObserver"*, i1)* @_ZN7content19WebContentsObserver33MediaEffectivelyFullscreenChangedEb to i8*), i8* bitcast (void (%"class.content::WebContentsObserver"*, i1)* @_ZN7content19WebContentsObserver28MediaPictureInPictureChangedEb to i8*), i8* bitcast (void (%"class.content::WebContentsObserver"*, %"struct.content::MediaPlayerId"*, i1)* @_ZN7content19WebContentsObserver23MediaMutedStatusChangedERKNS_13MediaPlayerIdEb to i8*), i8* bitcast (void (%"class.content::WebContentsObserver"*, %"struct.content::MediaPlayerId"*)* @_ZN7content19WebContentsObserver20MediaBufferUnderflowERKNS_13MediaPlayerIdE to i8*), i8* bitcast (void (%"class.content::WebContentsObserver"*, %"struct.content::MediaPlayerId"*)* @_ZN7content19WebContentsObserver15MediaPlayerSeekERKNS_13MediaPlayerIdE to i8*), i8* bitcast (void (%"class.content::WebContentsObserver"*, %"struct.content::MediaPlayerId"*)* @_ZN7content19WebContentsObserver14MediaDestroyedERKNS_13MediaPlayerIdE to i8*), i8* bitcast (void (%"class.content::WebContentsObserver"*, float)* @_ZN7content19WebContentsObserver24OnPageScaleFactorChangedEf to i8*), i8* bitcast (void (%"class.content::WebContentsObserver"*)* @_ZN7content19WebContentsObserver7OnPasteEv to i8*), i8* bitcast (i1 (%"class.content::WebContentsObserver"*, %"class.IPC::Message"*, %"class.content::RenderFrameHost"*)* @_ZN7content19WebContentsObserver17OnMessageReceivedERKN3IPC7MessageEPNS_15RenderFrameHostE to i8*), i8* bitcast (void (%"class.content::WebContentsObserver"*, %"class.content::RenderWidgetHost"*)* @_ZN7content19WebContentsObserver20OnWebContentsFocusedEPNS_16RenderWidgetHostE to i8*), i8* bitcast (void (%"class.content::WebContentsObserver"*, %"class.content::RenderWidgetHost"*)* @_ZN7content19WebContentsObserver22OnWebContentsLostFocusEPNS_16RenderWidgetHostE to i8*), i8* bitcast (void (%"class.content::WebContentsObserver"*, %"struct.content::FocusedNodeDetails"*)* @_ZN7content19WebContentsObserver20OnFocusChangedInPageEPNS_18FocusedNodeDetailsE to i8*), i8* bitcast (void (%"class.content::WebContentsObserver"*, %"class.content::RenderFrameHost"*, %"class.absl::optional.357"*)* @_ZN7content19WebContentsObserver23DidUpdateWebManifestURLEPNS_15RenderFrameHostERKN4absl8optionalI4GURLEE to i8*), i8* bitcast (void (%"class.content::WebContentsObserver"*, %"class.content::RenderFrameHost"*, %"class.std::__1::basic_string"*, %"class.mojo::ScopedHandleBase"*)* @_ZN7content19WebContentsObserver27OnInterfaceRequestFromFrameEPNS_15RenderFrameHostERKNSt3__112basic_stringIcNS3_11char_traitsIcEENS3_9allocatorIcEEEEPN4mojo16ScopedHandleBaseINSC_17MessagePipeHandleEEE to i8*), i8* bitcast (void (%"class.content::WebContentsObserver"*, %"struct.std::__1::pair.362"*)* @_ZN7content19WebContentsObserver27AudioContextPlaybackStartedERKNSt3__14pairIPNS_15RenderFrameHostEiEE to i8*), i8* bitcast (void (%"class.content::WebContentsObserver"*, %"struct.std::__1::pair.362"*)* @_ZN7content19WebContentsObserver27AudioContextPlaybackStoppedERKNSt3__14pairIPNS_15RenderFrameHostEiEE to i8*), i8* bitcast (void (%"class.content::WebContentsObserver"*, %"class.content::RenderFrameHost"*, %class.GURL*, i24)* @_ZN7content19WebContentsObserver23OnServiceWorkerAccessedEPNS_15RenderFrameHostERK4GURLNS_24AllowServiceWorkerResultE to i8*), i8* bitcast (void (%"class.content::WebContentsObserver"*, %"class.content::NavigationHandle"*, %class.GURL*, i24)* @_ZN7content19WebContentsObserver23OnServiceWorkerAccessedEPNS_16NavigationHandleERK4GURLNS_24AllowServiceWorkerResultE to i8*)] }, comdat, align 8
@.str.8 = private unnamed_addr constant [41 x i8] c"!RangesOverlap(from_begin, from_end, to)\00", align 1

@_ZN10guest_view13SetSizeParamsC1Ev = hidden unnamed_addr alias void (%"struct.guest_view::SetSizeParams"*), void (%"struct.guest_view::SetSizeParams"*)* @_ZN10guest_view13SetSizeParamsC2Ev
@_ZN10guest_view13SetSizeParamsD1Ev = hidden unnamed_addr alias void (%"struct.guest_view::SetSizeParams"*), void (%"struct.guest_view::SetSizeParams"*)* @_ZN10guest_view13SetSizeParamsD2Ev
@_ZN10guest_view13GuestViewBaseD1Ev = hidden unnamed_addr alias void (%"class.guest_view::GuestViewBase"*), void (%"class.guest_view::GuestViewBase"*)* @_ZN10guest_view13GuestViewBaseD2Ev

; Function Attrs: nofree norecurse nounwind ssp uwtable writeonly
define hidden void @_ZN10guest_view13SetSizeParamsC2Ev(%"struct.guest_view::SetSizeParams"* nocapture) unnamed_addr #0 align 2 {
  %2 = bitcast %"struct.guest_view::SetSizeParams"* %0 to i8*
  call void @llvm.memset.p0i8.i64(i8* align 8 %2, i8 0, i64 32, i1 false)
  ret void
}

; Function Attrs: nounwind ssp uwtable
define hidden void @_ZN10guest_view13SetSizeParamsD2Ev(%"struct.guest_view::SetSizeParams"* nocapture) unnamed_addr #1 align 2 {
  %2 = getelementptr inbounds %"struct.guest_view::SetSizeParams", %"struct.guest_view::SetSizeParams"* %0, i64 0, i32 3, i32 0, i32 0, i32 0
  %3 = load %"class.gfx::Size"*, %"class.gfx::Size"** %2, align 8
  store %"class.gfx::Size"* null, %"class.gfx::Size"** %2, align 8
  %4 = icmp eq %"class.gfx::Size"* %3, null
  br i1 %4, label %7, label %5

5:                                                ; preds = %1
  %6 = bitcast %"class.gfx::Size"* %3 to i8*
  tail call void @_ZdlPv(i8* %6) #16
  br label %7

7:                                                ; preds = %1, %5
  %8 = getelementptr inbounds %"struct.guest_view::SetSizeParams", %"struct.guest_view::SetSizeParams"* %0, i64 0, i32 2, i32 0, i32 0, i32 0
  %9 = load %"class.gfx::Size"*, %"class.gfx::Size"** %8, align 8
  store %"class.gfx::Size"* null, %"class.gfx::Size"** %8, align 8
  %10 = icmp eq %"class.gfx::Size"* %9, null
  br i1 %10, label %13, label %11

11:                                               ; preds = %7
  %12 = bitcast %"class.gfx::Size"* %9 to i8*
  tail call void @_ZdlPv(i8* %12) #16
  br label %13

13:                                               ; preds = %7, %11
  %14 = getelementptr inbounds %"struct.guest_view::SetSizeParams", %"struct.guest_view::SetSizeParams"* %0, i64 0, i32 1, i32 0, i32 0, i32 0
  %15 = load %"class.gfx::Size"*, %"class.gfx::Size"** %14, align 8
  store %"class.gfx::Size"* null, %"class.gfx::Size"** %14, align 8
  %16 = icmp eq %"class.gfx::Size"* %15, null
  br i1 %16, label %19, label %17

17:                                               ; preds = %13
  %18 = bitcast %"class.gfx::Size"* %15 to i8*
  tail call void @_ZdlPv(i8* %18) #16
  br label %19

19:                                               ; preds = %13, %17
  %20 = getelementptr inbounds %"struct.guest_view::SetSizeParams", %"struct.guest_view::SetSizeParams"* %0, i64 0, i32 0, i32 0, i32 0, i32 0
  %21 = load i8*, i8** %20, align 8
  store i8* null, i8** %20, align 8
  %22 = icmp eq i8* %21, null
  br i1 %22, label %24, label %23

23:                                               ; preds = %19
  tail call void @_ZdlPv(i8* nonnull %21) #16
  br label %24

24:                                               ; preds = %19, %23
  ret void
}

; Function Attrs: nounwind ssp uwtable
define hidden void @_ZN10guest_view13GuestViewBaseC2EPN7content11WebContentsE(%"class.guest_view::GuestViewBase"*, %"class.content::WebContents"*) unnamed_addr #1 align 2 {
  %3 = getelementptr inbounds %"class.guest_view::GuestViewBase", %"class.guest_view::GuestViewBase"* %0, i64 0, i32 0, i32 0
  store i32 (...)** bitcast (i8** getelementptr inbounds ({ [7 x i8*] }, { [7 x i8*] }* @_ZTVN7content26BrowserPluginGuestDelegateE, i64 0, inrange i32 0, i64 2) to i32 (...)**), i32 (...)*** %3, align 8
  %4 = getelementptr inbounds %"class.guest_view::GuestViewBase", %"class.guest_view::GuestViewBase"* %0, i64 0, i32 1
  tail call void @_ZN7content19WebContentsDelegateC2Ev(%"class.content::WebContentsDelegate"* %4) #17
  %5 = getelementptr inbounds %"class.guest_view::GuestViewBase", %"class.guest_view::GuestViewBase"* %0, i64 0, i32 2
  tail call void @_ZN7content19WebContentsObserverC2Ev(%"class.content::WebContentsObserver"* %5) #17
  %6 = getelementptr inbounds %"class.guest_view::GuestViewBase", %"class.guest_view::GuestViewBase"* %0, i64 0, i32 3, i32 0
  %7 = bitcast %"class.guest_view::GuestViewBase"* %0 to <2 x i32 (...)**>*
  store <2 x i32 (...)**> <i32 (...)** bitcast (i8** getelementptr inbounds ({ [50 x i8*], [99 x i8*], [109 x i8*], [5 x i8*] }, { [50 x i8*], [99 x i8*], [109 x i8*], [5 x i8*] }* @_ZTVN10guest_view13GuestViewBaseE, i64 0, inrange i32 0, i64 2) to i32 (...)**), i32 (...)** bitcast (i8** getelementptr inbounds ({ [50 x i8*], [99 x i8*], [109 x i8*], [5 x i8*] }, { [50 x i8*], [99 x i8*], [109 x i8*], [5 x i8*] }* @_ZTVN10guest_view13GuestViewBaseE, i64 0, inrange i32 1, i64 2) to i32 (...)**)>, <2 x i32 (...)**>* %7, align 8
  %8 = getelementptr inbounds %"class.content::WebContentsObserver", %"class.content::WebContentsObserver"* %5, i64 0, i32 0, i32 0
  store i32 (...)** bitcast (i8** getelementptr inbounds ({ [50 x i8*], [99 x i8*], [109 x i8*], [5 x i8*] }, { [50 x i8*], [99 x i8*], [109 x i8*], [5 x i8*] }* @_ZTVN10guest_view13GuestViewBaseE, i64 0, inrange i32 2, i64 2) to i32 (...)**), i32 (...)*** %8, align 8
  store i32 (...)** bitcast (i8** getelementptr inbounds ({ [50 x i8*], [99 x i8*], [109 x i8*], [5 x i8*] }, { [50 x i8*], [99 x i8*], [109 x i8*], [5 x i8*] }* @_ZTVN10guest_view13GuestViewBaseE, i64 0, inrange i32 3, i64 2) to i32 (...)**), i32 (...)*** %6, align 8
  %9 = getelementptr inbounds %"class.guest_view::GuestViewBase", %"class.guest_view::GuestViewBase"* %0, i64 0, i32 4
  store %"class.content::WebContents"* %1, %"class.content::WebContents"** %9, align 8
  %10 = getelementptr inbounds %"class.guest_view::GuestViewBase", %"class.guest_view::GuestViewBase"* %0, i64 0, i32 5
  %11 = bitcast %"class.std::__1::basic_string"* %10 to i8*
  tail call void @llvm.memset.p0i8.i64(i8* align 8 %11, i8 0, i64 24, i1 false) #17
  %12 = getelementptr inbounds %"class.guest_view::GuestViewBase", %"class.guest_view::GuestViewBase"* %0, i64 0, i32 6
  %13 = bitcast %"class.content::WebContents"* %1 to %"class.content::BrowserContext"* (%"class.content::WebContents"*)***
  %14 = load %"class.content::BrowserContext"* (%"class.content::WebContents"*)**, %"class.content::BrowserContext"* (%"class.content::WebContents"*)*** %13, align 8
  %15 = getelementptr inbounds %"class.content::BrowserContext"* (%"class.content::WebContents"*)*, %"class.content::BrowserContext"* (%"class.content::WebContents"*)** %14, i64 6
  %16 = load %"class.content::BrowserContext"* (%"class.content::WebContents"*)*, %"class.content::BrowserContext"* (%"class.content::WebContents"*)** %15, align 8
  %17 = tail call %"class.content::BrowserContext"* %16(%"class.content::WebContents"* %1) #17
  store %"class.content::BrowserContext"* %17, %"class.content::BrowserContext"** %12, align 8
  %18 = getelementptr inbounds %"class.guest_view::GuestViewBase", %"class.guest_view::GuestViewBase"* %0, i64 0, i32 7
  %19 = tail call %"class.guest_view::GuestViewManager"* @_ZN10guest_view16GuestViewManager18FromBrowserContextEPN7content14BrowserContextE(%"class.content::BrowserContext"* %17) #17
  %20 = tail call i32 @_ZN10guest_view16GuestViewManager17GetNextInstanceIDEv(%"class.guest_view::GuestViewManager"* %19) #17
  store i32 %20, i32* %18, align 8
  %21 = getelementptr inbounds %"class.guest_view::GuestViewBase", %"class.guest_view::GuestViewBase"* %0, i64 0, i32 8
  %22 = load i32, i32* @_ZN10guest_view15kInstanceIDNoneE, align 4
  store i32 %22, i32* %21, align 4
  %23 = getelementptr inbounds %"class.guest_view::GuestViewBase", %"class.guest_view::GuestViewBase"* %0, i64 0, i32 9
  store i32 %22, i32* %23, align 8
  %24 = getelementptr inbounds %"class.guest_view::GuestViewBase", %"class.guest_view::GuestViewBase"* %0, i64 0, i32 10
  store i8 0, i8* %24, align 4
  %25 = getelementptr inbounds %"class.guest_view::GuestViewBase", %"class.guest_view::GuestViewBase"* %0, i64 0, i32 11
  store i8 0, i8* %25, align 1
  %26 = getelementptr inbounds %"class.guest_view::GuestViewBase", %"class.guest_view::GuestViewBase"* %0, i64 0, i32 12
  store i8 0, i8* %26, align 2
  %27 = getelementptr inbounds %"class.guest_view::GuestViewBase", %"class.guest_view::GuestViewBase"* %0, i64 0, i32 13
  %28 = bitcast %"class.base::circular_deque"* %27 to i8*
  tail call void @llvm.memset.p0i8.i64(i8* align 8 %28, i8 0, i64 32, i1 false) #17
  %29 = getelementptr inbounds %"class.guest_view::GuestViewBase", %"class.guest_view::GuestViewBase"* %0, i64 0, i32 14, i32 0
  tail call void @_ZN4base8internal11WeakPtrBaseC2Ev(%"class.base::internal::WeakPtrBase"* %29) #17
  %30 = getelementptr inbounds %"class.guest_view::GuestViewBase", %"class.guest_view::GuestViewBase"* %0, i64 0, i32 15
  %31 = getelementptr inbounds %"class.guest_view::GuestViewBase", %"class.guest_view::GuestViewBase"* %0, i64 0, i32 21, i32 0
  %32 = getelementptr inbounds %"class.guest_view::GuestViewBase", %"class.guest_view::GuestViewBase"* %0, i64 0, i32 25, i32 0
  %33 = ptrtoint %"class.guest_view::GuestViewBase"* %0 to i64
  %34 = bitcast %"class.std::__1::unique_ptr.30"* %30 to i8*
  call void @llvm.memset.p0i8.i64(i8* align 8 %34, i8 0, i64 41, i1 false)
  %35 = bitcast i32* %31 to i8*
  call void @llvm.memset.p0i8.i64(i8* align 4 %35, i8 0, i64 25, i1 false)
  tail call void @_ZN4base8internal18WeakPtrFactoryBaseC2Em(%"class.base::internal::WeakPtrFactoryBase"* %32, i64 %33) #17
  tail call void @_ZN10guest_view13GuestViewBase12SetOwnerHostEv(%"class.guest_view::GuestViewBase"* %0)
  ret void
}

declare void @_ZN7content19WebContentsDelegateC2Ev(%"class.content::WebContentsDelegate"*) unnamed_addr #2

declare void @_ZN7content19WebContentsObserverC2Ev(%"class.content::WebContentsObserver"*) unnamed_addr #2

; Function Attrs: nounwind ssp uwtable
define hidden %"class.guest_view::GuestViewManager"* @_ZN10guest_view13GuestViewBase19GetGuestViewManagerEv(%"class.guest_view::GuestViewBase"* nocapture readonly) local_unnamed_addr #1 align 2 {
  %2 = getelementptr inbounds %"class.guest_view::GuestViewBase", %"class.guest_view::GuestViewBase"* %0, i64 0, i32 6
  %3 = load %"class.content::BrowserContext"*, %"class.content::BrowserContext"** %2, align 8
  %4 = tail call %"class.guest_view::GuestViewManager"* @_ZN10guest_view16GuestViewManager18FromBrowserContextEPN7content14BrowserContextE(%"class.content::BrowserContext"* %3) #17
  ret %"class.guest_view::GuestViewManager"* %4
}

declare i32 @_ZN10guest_view16GuestViewManager17GetNextInstanceIDEv(%"class.guest_view::GuestViewManager"*) local_unnamed_addr #2

; Function Attrs: nounwind ssp uwtable
define hidden void @_ZN10guest_view13GuestViewBase12SetOwnerHostEv(%"class.guest_view::GuestViewBase"*) local_unnamed_addr #1 align 2 {
  %2 = alloca %"class.std::__1::allocator.25", align 1
  %3 = alloca %"class.std::__1::basic_string", align 8
  %4 = getelementptr inbounds %"class.guest_view::GuestViewBase", %"class.guest_view::GuestViewBase"* %0, i64 0, i32 6
  %5 = load %"class.content::BrowserContext"*, %"class.content::BrowserContext"** %4, align 8
  %6 = tail call %"class.guest_view::GuestViewManager"* @_ZN10guest_view16GuestViewManager18FromBrowserContextEPN7content14BrowserContextE(%"class.content::BrowserContext"* %5) #17
  %7 = bitcast %"class.std::__1::basic_string"* %3 to i8*
  call void @llvm.lifetime.start.p0i8(i64 24, i8* nonnull %7) #17
  %8 = tail call zeroext i1 @_ZN10guest_view16GuestViewManager18IsOwnedByExtensionEPNS_13GuestViewBaseE(%"class.guest_view::GuestViewManager"* %6, %"class.guest_view::GuestViewBase"* %0) #17
  br i1 %8, label %9, label %28

9:                                                ; preds = %1
  %10 = getelementptr inbounds %"class.guest_view::GuestViewBase", %"class.guest_view::GuestViewBase"* %0, i64 0, i32 4
  %11 = load %"class.content::WebContents"*, %"class.content::WebContents"** %10, align 8
  %12 = bitcast %"class.content::WebContents"* %11 to %class.GURL* (%"class.content::WebContents"*)***
  %13 = load %class.GURL* (%"class.content::WebContents"*)**, %class.GURL* (%"class.content::WebContents"*)*** %12, align 8
  %14 = getelementptr inbounds %class.GURL* (%"class.content::WebContents"*)*, %class.GURL* (%"class.content::WebContents"*)** %13, i64 9
  %15 = load %class.GURL* (%"class.content::WebContents"*)*, %class.GURL* (%"class.content::WebContents"*)** %14, align 8
  %16 = tail call dereferenceable(120) %class.GURL* %15(%"class.content::WebContents"* %11) #17
  %17 = getelementptr inbounds %class.GURL, %class.GURL* %16, i64 0, i32 2, i32 3, i32 1
  %18 = load i32, i32* %17, align 4, !noalias !2
  %19 = icmp slt i32 %18, 1
  br i1 %19, label %20, label %21

20:                                               ; preds = %9
  call void @llvm.memset.p0i8.i64(i8* nonnull align 8 %7, i8 0, i64 24, i1 false) #17, !alias.scope !2
  br label %29

21:                                               ; preds = %9
  %22 = getelementptr inbounds %class.GURL, %class.GURL* %16, i64 0, i32 0
  %23 = getelementptr inbounds %class.GURL, %class.GURL* %16, i64 0, i32 2, i32 3, i32 0
  %24 = load i32, i32* %23, align 4, !noalias !2
  %25 = sext i32 %24 to i64
  %26 = sext i32 %18 to i64
  %27 = getelementptr inbounds %"class.std::__1::allocator.25", %"class.std::__1::allocator.25"* %2, i64 0, i32 0
  call void @llvm.lifetime.start.p0i8(i64 1, i8* nonnull %27) #17, !noalias !2
  call void @_ZNSt3__112basic_stringIcNS_11char_traitsIcEENS_9allocatorIcEEEC1ERKS5_mmRKS4_(%"class.std::__1::basic_string"* nonnull %3, %"class.std::__1::basic_string"* dereferenceable(24) %22, i64 %25, i64 %26, %"class.std::__1::allocator.25"* nonnull dereferenceable(1) %2) #17
  call void @llvm.lifetime.end.p0i8(i64 1, i8* nonnull %27) #17, !noalias !2
  br label %29

28:                                               ; preds = %1
  call void @llvm.memset.p0i8.i64(i8* nonnull align 8 %7, i8 0, i64 24, i1 false) #17
  br label %29

29:                                               ; preds = %21, %20, %28
  %30 = getelementptr inbounds %"class.guest_view::GuestViewBase", %"class.guest_view::GuestViewBase"* %0, i64 0, i32 5
  %31 = bitcast %"class.std::__1::basic_string"* %30 to %"struct.std::__1::basic_string<char, std::__1::char_traits<char>, std::__1::allocator<char> >::__short"*
  %32 = getelementptr inbounds %"struct.std::__1::basic_string<char, std::__1::char_traits<char>, std::__1::allocator<char> >::__short", %"struct.std::__1::basic_string<char, std::__1::char_traits<char>, std::__1::allocator<char> >::__short"* %31, i64 0, i32 1, i32 0
  %33 = load i8, i8* %32, align 1
  %34 = icmp slt i8 %33, 0
  br i1 %34, label %35, label %38

35:                                               ; preds = %29
  %36 = getelementptr inbounds %"class.std::__1::basic_string", %"class.std::__1::basic_string"* %30, i64 0, i32 0, i32 0, i32 0, i32 0, i32 0, i32 0
  %37 = load i8*, i8** %36, align 8
  call void @_ZdlPv(i8* %37) #16
  br label %38

38:                                               ; preds = %35, %29
  %39 = bitcast %"class.std::__1::basic_string"* %30 to i8*
  call void @llvm.memcpy.p0i8.p0i8.i64(i8* align 8 %39, i8* nonnull align 8 %7, i64 24, i1 false) #17
  call void @llvm.lifetime.end.p0i8(i64 24, i8* nonnull %7) #17
  ret void
}

; Function Attrs: nounwind ssp uwtable
define hidden void @_ZN10guest_view13GuestViewBaseD2Ev(%"class.guest_view::GuestViewBase"*) unnamed_addr #1 align 2 {
  %2 = getelementptr inbounds %"class.guest_view::GuestViewBase", %"class.guest_view::GuestViewBase"* %0, i64 0, i32 1
  %3 = bitcast %"class.guest_view::GuestViewBase"* %0 to <2 x i32 (...)**>*
  store <2 x i32 (...)**> <i32 (...)** bitcast (i8** getelementptr inbounds ({ [50 x i8*], [99 x i8*], [109 x i8*], [5 x i8*] }, { [50 x i8*], [99 x i8*], [109 x i8*], [5 x i8*] }* @_ZTVN10guest_view13GuestViewBaseE, i64 0, inrange i32 0, i64 2) to i32 (...)**), i32 (...)** bitcast (i8** getelementptr inbounds ({ [50 x i8*], [99 x i8*], [109 x i8*], [5 x i8*] }, { [50 x i8*], [99 x i8*], [109 x i8*], [5 x i8*] }* @_ZTVN10guest_view13GuestViewBaseE, i64 0, inrange i32 1, i64 2) to i32 (...)**)>, <2 x i32 (...)**>* %3, align 8
  %4 = getelementptr inbounds %"class.guest_view::GuestViewBase", %"class.guest_view::GuestViewBase"* %0, i64 0, i32 2
  %5 = getelementptr inbounds %"class.content::WebContentsObserver", %"class.content::WebContentsObserver"* %4, i64 0, i32 0, i32 0
  store i32 (...)** bitcast (i8** getelementptr inbounds ({ [50 x i8*], [99 x i8*], [109 x i8*], [5 x i8*] }, { [50 x i8*], [99 x i8*], [109 x i8*], [5 x i8*] }* @_ZTVN10guest_view13GuestViewBaseE, i64 0, inrange i32 2, i64 2) to i32 (...)**), i32 (...)*** %5, align 8
  %6 = getelementptr inbounds %"class.guest_view::GuestViewBase", %"class.guest_view::GuestViewBase"* %0, i64 0, i32 3, i32 0
  store i32 (...)** bitcast (i8** getelementptr inbounds ({ [50 x i8*], [99 x i8*], [109 x i8*], [5 x i8*] }, { [50 x i8*], [99 x i8*], [109 x i8*], [5 x i8*] }* @_ZTVN10guest_view13GuestViewBaseE, i64 0, inrange i32 3, i64 2) to i32 (...)**), i32 (...)*** %6, align 8
  %7 = getelementptr inbounds %"class.guest_view::GuestViewBase", %"class.guest_view::GuestViewBase"* %0, i64 0, i32 25, i32 0
  tail call void @_ZN4base8internal18WeakPtrFactoryBaseD2Ev(%"class.base::internal::WeakPtrFactoryBase"* %7) #17
  %8 = getelementptr inbounds %"class.guest_view::GuestViewBase", %"class.guest_view::GuestViewBase"* %0, i64 0, i32 17, i32 0, i32 0, i32 0
  %9 = load %"class.guest_view::GuestViewBase::OpenerLifetimeObserver"*, %"class.guest_view::GuestViewBase::OpenerLifetimeObserver"** %8, align 8
  store %"class.guest_view::GuestViewBase::OpenerLifetimeObserver"* null, %"class.guest_view::GuestViewBase::OpenerLifetimeObserver"** %8, align 8
  %10 = icmp eq %"class.guest_view::GuestViewBase::OpenerLifetimeObserver"* %9, null
  br i1 %10, label %16, label %11

11:                                               ; preds = %1
  %12 = bitcast %"class.guest_view::GuestViewBase::OpenerLifetimeObserver"* %9 to void (%"class.guest_view::GuestViewBase::OpenerLifetimeObserver"*)***
  %13 = load void (%"class.guest_view::GuestViewBase::OpenerLifetimeObserver"*)**, void (%"class.guest_view::GuestViewBase::OpenerLifetimeObserver"*)*** %12, align 8
  %14 = getelementptr inbounds void (%"class.guest_view::GuestViewBase::OpenerLifetimeObserver"*)*, void (%"class.guest_view::GuestViewBase::OpenerLifetimeObserver"*)** %13, i64 8
  %15 = load void (%"class.guest_view::GuestViewBase::OpenerLifetimeObserver"*)*, void (%"class.guest_view::GuestViewBase::OpenerLifetimeObserver"*)** %14, align 8
  tail call void %15(%"class.guest_view::GuestViewBase::OpenerLifetimeObserver"* nonnull %9) #17
  br label %16

16:                                               ; preds = %1, %11
  %17 = getelementptr inbounds %"class.guest_view::GuestViewBase", %"class.guest_view::GuestViewBase"* %0, i64 0, i32 16, i32 0, i32 0, i32 0
  %18 = load %"class.guest_view::GuestViewBase::OwnerContentsObserver"*, %"class.guest_view::GuestViewBase::OwnerContentsObserver"** %17, align 8
  store %"class.guest_view::GuestViewBase::OwnerContentsObserver"* null, %"class.guest_view::GuestViewBase::OwnerContentsObserver"** %17, align 8
  %19 = icmp eq %"class.guest_view::GuestViewBase::OwnerContentsObserver"* %18, null
  br i1 %19, label %25, label %20

20:                                               ; preds = %16
  %21 = bitcast %"class.guest_view::GuestViewBase::OwnerContentsObserver"* %18 to void (%"class.guest_view::GuestViewBase::OwnerContentsObserver"*)***
  %22 = load void (%"class.guest_view::GuestViewBase::OwnerContentsObserver"*)**, void (%"class.guest_view::GuestViewBase::OwnerContentsObserver"*)*** %21, align 8
  %23 = getelementptr inbounds void (%"class.guest_view::GuestViewBase::OwnerContentsObserver"*)*, void (%"class.guest_view::GuestViewBase::OwnerContentsObserver"*)** %22, i64 8
  %24 = load void (%"class.guest_view::GuestViewBase::OwnerContentsObserver"*)*, void (%"class.guest_view::GuestViewBase::OwnerContentsObserver"*)** %23, align 8
  tail call void %24(%"class.guest_view::GuestViewBase::OwnerContentsObserver"* nonnull %18) #17
  br label %25

25:                                               ; preds = %16, %20
  %26 = getelementptr inbounds %"class.guest_view::GuestViewBase", %"class.guest_view::GuestViewBase"* %0, i64 0, i32 15, i32 0, i32 0, i32 0
  %27 = load %"class.base::DictionaryValue"*, %"class.base::DictionaryValue"** %26, align 8
  store %"class.base::DictionaryValue"* null, %"class.base::DictionaryValue"** %26, align 8
  %28 = icmp eq %"class.base::DictionaryValue"* %27, null
  br i1 %28, label %32, label %29

29:                                               ; preds = %25
  %30 = getelementptr inbounds %"class.base::DictionaryValue", %"class.base::DictionaryValue"* %27, i64 0, i32 0
  tail call void @_ZN4base5ValueD2Ev(%"class.base::Value"* nonnull %30) #17
  %31 = bitcast %"class.base::DictionaryValue"* %27 to i8*
  tail call void @_ZdlPv(i8* %31) #16
  br label %32

32:                                               ; preds = %25, %29
  %33 = getelementptr inbounds %"class.guest_view::GuestViewBase", %"class.guest_view::GuestViewBase"* %0, i64 0, i32 14, i32 0
  tail call void @_ZN4base8internal11WeakPtrBaseD2Ev(%"class.base::internal::WeakPtrBase"* %33) #17
  %34 = getelementptr inbounds %"class.guest_view::GuestViewBase", %"class.guest_view::GuestViewBase"* %0, i64 0, i32 13
  %35 = getelementptr inbounds %"class.guest_view::GuestViewBase", %"class.guest_view::GuestViewBase"* %0, i64 0, i32 13, i32 1
  %36 = load i64, i64* %35, align 8
  %37 = getelementptr inbounds %"class.guest_view::GuestViewBase", %"class.guest_view::GuestViewBase"* %0, i64 0, i32 13, i32 2
  %38 = load i64, i64* %37, align 8
  tail call void @_ZN4base14circular_dequeINSt3__110unique_ptrIN10guest_view14GuestViewEventENS1_14default_deleteIS4_EEEEE13DestructRangeEmm(%"class.base::circular_deque"* %34, i64 %36, i64 %38) #17
  %39 = bitcast %"class.base::circular_deque"* %34 to i8**
  %40 = load i8*, i8** %39, align 8
  tail call void @free(i8* %40) #17
  %41 = getelementptr inbounds %"class.guest_view::GuestViewBase", %"class.guest_view::GuestViewBase"* %0, i64 0, i32 5
  %42 = bitcast %"class.std::__1::basic_string"* %41 to %"struct.std::__1::basic_string<char, std::__1::char_traits<char>, std::__1::allocator<char> >::__short"*
  %43 = getelementptr inbounds %"struct.std::__1::basic_string<char, std::__1::char_traits<char>, std::__1::allocator<char> >::__short", %"struct.std::__1::basic_string<char, std::__1::char_traits<char>, std::__1::allocator<char> >::__short"* %42, i64 0, i32 1, i32 0
  %44 = load i8, i8* %43, align 1
  %45 = icmp slt i8 %44, 0
  br i1 %45, label %46, label %49

46:                                               ; preds = %32
  %47 = getelementptr inbounds %"class.std::__1::basic_string", %"class.std::__1::basic_string"* %41, i64 0, i32 0, i32 0, i32 0, i32 0, i32 0, i32 0
  %48 = load i8*, i8** %47, align 8
  tail call void @_ZdlPv(i8* %48) #16
  br label %49

49:                                               ; preds = %32, %46
  tail call void @_ZN7content19WebContentsObserverD2Ev(%"class.content::WebContentsObserver"* %4) #17
  tail call void @_ZN7content19WebContentsDelegateD2Ev(%"class.content::WebContentsDelegate"* %2) #17
  ret void
}

; Function Attrs: nounwind
declare void @_ZN4base8internal18WeakPtrFactoryBaseD2Ev(%"class.base::internal::WeakPtrFactoryBase"*) unnamed_addr #3

; Function Attrs: nounwind
declare void @_ZN4base8internal11WeakPtrBaseD2Ev(%"class.base::internal::WeakPtrBase"*) unnamed_addr #3

; Function Attrs: nounwind
declare void @_ZN7content19WebContentsDelegateD2Ev(%"class.content::WebContentsDelegate"*) unnamed_addr #3

; Function Attrs: nounwind ssp uwtable
define hidden void @_ZThn8_N10guest_view13GuestViewBaseD1Ev(%"class.guest_view::GuestViewBase"*) unnamed_addr #1 align 2 {
  %2 = getelementptr inbounds %"class.guest_view::GuestViewBase", %"class.guest_view::GuestViewBase"* %0, i64 -1, i32 25, i32 0, i32 1
  %3 = bitcast i64* %2 to %"class.guest_view::GuestViewBase"*
  tail call void @_ZN10guest_view13GuestViewBaseD2Ev(%"class.guest_view::GuestViewBase"* %3) #17
  ret void
}

; Function Attrs: nounwind ssp uwtable
define hidden void @_ZThn40_N10guest_view13GuestViewBaseD1Ev(%"class.guest_view::GuestViewBase"*) unnamed_addr #1 align 2 {
  %2 = getelementptr inbounds %"class.guest_view::GuestViewBase", %"class.guest_view::GuestViewBase"* %0, i64 -1, i32 21, i32 1
  %3 = bitcast i32* %2 to %"class.guest_view::GuestViewBase"*
  tail call void @_ZN10guest_view13GuestViewBaseD2Ev(%"class.guest_view::GuestViewBase"* %3) #17
  ret void
}

; Function Attrs: nounwind ssp uwtable
define hidden void @_ZThn56_N10guest_view13GuestViewBaseD1Ev(%"class.guest_view::GuestViewBase"*) unnamed_addr #1 align 2 {
  %2 = getelementptr inbounds %"class.guest_view::GuestViewBase", %"class.guest_view::GuestViewBase"* %0, i64 -1, i32 19
  %3 = bitcast %"class.content::GuestHost"** %2 to %"class.guest_view::GuestViewBase"*
  tail call void @_ZN10guest_view13GuestViewBaseD2Ev(%"class.guest_view::GuestViewBase"* %3) #17
  ret void
}

; Function Attrs: noreturn nounwind ssp uwtable
define hidden void @_ZN10guest_view13GuestViewBaseD0Ev(%"class.guest_view::GuestViewBase"* nocapture readnone) unnamed_addr #4 align 2 {
  tail call void @llvm.trap() #18
  unreachable
}

; Function Attrs: cold noreturn nounwind
declare void @llvm.trap() #5

; Function Attrs: noreturn nounwind ssp uwtable
define hidden void @_ZThn8_N10guest_view13GuestViewBaseD0Ev(%"class.guest_view::GuestViewBase"* nocapture readnone) unnamed_addr #4 align 2 {
  tail call void @llvm.trap() #18
  unreachable
}

; Function Attrs: noreturn nounwind ssp uwtable
define hidden void @_ZThn40_N10guest_view13GuestViewBaseD0Ev(%"class.guest_view::GuestViewBase"* nocapture readnone) unnamed_addr #4 align 2 {
  tail call void @llvm.trap() #18
  unreachable
}

; Function Attrs: noreturn nounwind ssp uwtable
define hidden void @_ZThn56_N10guest_view13GuestViewBaseD0Ev(%"class.guest_view::GuestViewBase"* nocapture readnone) unnamed_addr #4 align 2 {
  tail call void @llvm.trap() #18
  unreachable
}

; Function Attrs: nounwind ssp uwtable
define hidden void @_ZN10guest_view13GuestViewBase4InitERKN4base15DictionaryValueENS1_12OnceCallbackIFvPN7content11WebContentsEEEE(%"class.guest_view::GuestViewBase"*, %"class.base::DictionaryValue"* dereferenceable(32), %"class.base::OnceCallback"* nocapture) local_unnamed_addr #1 align 2 {
  %4 = alloca %"class.base::internal::WeakReference", align 8
  %5 = alloca %"class.base::OnceCallback", align 8
  %6 = alloca %"class.base::OnceCallback", align 8
  %7 = alloca %"class.base::WeakPtr", align 8
  %8 = getelementptr inbounds %"class.guest_view::GuestViewBase", %"class.guest_view::GuestViewBase"* %0, i64 0, i32 11
  %9 = load i8, i8* %8, align 1, !range !7
  %10 = icmp eq i8 %9, 0
  br i1 %10, label %11, label %67

11:                                               ; preds = %3
  store i8 1, i8* %8, align 1
  %12 = getelementptr inbounds %"class.guest_view::GuestViewBase", %"class.guest_view::GuestViewBase"* %0, i64 0, i32 6
  %13 = load %"class.content::BrowserContext"*, %"class.content::BrowserContext"** %12, align 8
  %14 = tail call %"class.guest_view::GuestViewManager"* @_ZN10guest_view16GuestViewManager18FromBrowserContextEPN7content14BrowserContextE(%"class.content::BrowserContext"* %13) #17
  %15 = tail call zeroext i1 @_ZN10guest_view16GuestViewManager25IsGuestAvailableToContextEPNS_13GuestViewBaseE(%"class.guest_view::GuestViewManager"* %14, %"class.guest_view::GuestViewBase"* %0) #17
  br i1 %15, label %34, label %16

16:                                               ; preds = %11
  %17 = icmp eq %"class.guest_view::GuestViewBase"* %0, null
  br i1 %17, label %23, label %18

18:                                               ; preds = %16
  %19 = bitcast %"class.guest_view::GuestViewBase"* %0 to void (%"class.guest_view::GuestViewBase"*)***
  %20 = load void (%"class.guest_view::GuestViewBase"*)**, void (%"class.guest_view::GuestViewBase"*)*** %19, align 8
  %21 = getelementptr inbounds void (%"class.guest_view::GuestViewBase"*)*, void (%"class.guest_view::GuestViewBase"*)** %20, i64 1
  %22 = load void (%"class.guest_view::GuestViewBase"*)*, void (%"class.guest_view::GuestViewBase"*)** %21, align 8
  tail call void %22(%"class.guest_view::GuestViewBase"* nonnull %0) #17
  br label %23

23:                                               ; preds = %18, %16
  %24 = bitcast %"class.base::OnceCallback"* %5 to i8*
  call void @llvm.lifetime.start.p0i8(i64 8, i8* nonnull %24) #17
  %25 = getelementptr inbounds %"class.base::OnceCallback", %"class.base::OnceCallback"* %2, i64 0, i32 0, i32 0, i32 0
  %26 = bitcast %"class.base::OnceCallback"* %2 to i64*
  %27 = load i64, i64* %26, align 8
  %28 = bitcast %"class.base::OnceCallback"* %5 to i64*
  store i64 %27, i64* %28, align 8
  store %"class.base::internal::BindStateBase"* null, %"class.base::internal::BindStateBase"** %25, align 8
  %29 = getelementptr inbounds %"class.base::OnceCallback", %"class.base::OnceCallback"* %5, i64 0, i32 0
  %30 = inttoptr i64 %27 to %"class.base::internal::BindStateBase"*
  %31 = getelementptr inbounds %"class.base::internal::BindStateBase", %"class.base::internal::BindStateBase"* %30, i64 0, i32 1
  %32 = bitcast void ()** %31 to void (%"class.base::internal::BindStateBase"*, %"class.content::WebContents"*)**
  %33 = load void (%"class.base::internal::BindStateBase"*, %"class.content::WebContents"*)*, void (%"class.base::internal::BindStateBase"*, %"class.content::WebContents"*)** %32, align 8
  tail call void %33(%"class.base::internal::BindStateBase"* %30, %"class.content::WebContents"* null) #17
  call void @_ZN4base8internal12CallbackBaseD2Ev(%"class.base::internal::CallbackBase"* nonnull %29) #17
  call void @llvm.lifetime.end.p0i8(i64 8, i8* nonnull %24) #17
  br label %67

34:                                               ; preds = %11
  %35 = tail call %"class.base::DictionaryValue"* @_ZNK4base15DictionaryValue8DeepCopyEv(%"class.base::DictionaryValue"* %1) #17
  %36 = ptrtoint %"class.base::DictionaryValue"* %35 to i64
  %37 = bitcast %"class.base::WeakPtr"* %7 to i8*
  call void @llvm.lifetime.start.p0i8(i64 16, i8* nonnull %37) #17
  %38 = bitcast %"class.base::internal::WeakReference"* %4 to i8*
  call void @llvm.lifetime.start.p0i8(i64 8, i8* nonnull %38) #17, !noalias !8
  %39 = getelementptr inbounds %"class.guest_view::GuestViewBase", %"class.guest_view::GuestViewBase"* %0, i64 0, i32 25, i32 0, i32 0
  call void @_ZNK4base8internal18WeakReferenceOwner6GetRefEv(%"class.base::internal::WeakReference"* nonnull sret %4, %"class.base::internal::WeakReferenceOwner"* %39) #17, !noalias !8
  %40 = getelementptr inbounds %"class.guest_view::GuestViewBase", %"class.guest_view::GuestViewBase"* %0, i64 0, i32 25, i32 0, i32 1
  %41 = load i64, i64* %40, align 8, !noalias !8
  %42 = getelementptr inbounds %"class.base::WeakPtr", %"class.base::WeakPtr"* %7, i64 0, i32 0
  call void @_ZN4base8internal11WeakPtrBaseC2ERKNS0_13WeakReferenceEm(%"class.base::internal::WeakPtrBase"* nonnull %42, %"class.base::internal::WeakReference"* nonnull dereferenceable(8) %4, i64 %41) #17
  call void @_ZN4base8internal13WeakReferenceD1Ev(%"class.base::internal::WeakReference"* nonnull %4) #17
  call void @llvm.lifetime.end.p0i8(i64 8, i8* nonnull %38) #17, !noalias !8
  %43 = call i8* @_Znwm(i64 80) #16, !noalias !11
  %44 = bitcast i8* %43 to %"class.base::internal::BindStateBase"*
  call void @_ZN4base8internal13BindStateBaseC2EPFvvEPFvPKS1_EPFbS5_NS1_21CancellationQueryModeEE(%"class.base::internal::BindStateBase"* nonnull %44, void ()* bitcast (void (%"class.base::internal::BindStateBase"*, %"class.content::WebContents"*)* @_ZN4base8internal7InvokerINS0_9BindStateIMN10guest_view13GuestViewBaseEFvNSt3__110unique_ptrINS_15DictionaryValueENS5_14default_deleteIS7_EEEENS_12OnceCallbackIFvPN7content11WebContentsEEEESE_EJNS_7WeakPtrIS4_EESA_SG_EEESF_E7RunOnceEPNS0_13BindStateBaseESE_ to void ()*), void (%"class.base::internal::BindStateBase"*)* nonnull @_ZN4base8internal9BindStateIMN10guest_view13GuestViewBaseEFvNSt3__110unique_ptrINS_15DictionaryValueENS4_14default_deleteIS6_EEEENS_12OnceCallbackIFvPN7content11WebContentsEEEESD_EJNS_7WeakPtrIS3_EES9_SF_EE7DestroyEPKNS0_13BindStateBaseE, i1 (%"class.base::internal::BindStateBase"*, i32)* nonnull @_ZN4base8internal23QueryCancellationTraitsINS0_9BindStateIMN10guest_view13GuestViewBaseEFvNSt3__110unique_ptrINS_15DictionaryValueENS5_14default_deleteIS7_EEEENS_12OnceCallbackIFvPN7content11WebContentsEEEESE_EJNS_7WeakPtrIS4_EESA_SG_EEEEEbPKNS0_13BindStateBaseENSM_21CancellationQueryModeE) #17, !noalias !11
  %45 = getelementptr inbounds i8, i8* %43, i64 32
  %46 = bitcast i8* %45 to <2 x i64>*
  store <2 x i64> <i64 ptrtoint (void (%"class.guest_view::GuestViewBase"*, %"class.base::DictionaryValue"*, %"class.base::OnceCallback"*, %"class.content::WebContents"*)* @_ZN10guest_view13GuestViewBase12CompleteInitENSt3__110unique_ptrIN4base15DictionaryValueENS1_14default_deleteIS4_EEEENS3_12OnceCallbackIFvPN7content11WebContentsEEEESB_ to i64), i64 0>, <2 x i64>* %46, align 8, !noalias !11
  %47 = getelementptr inbounds i8, i8* %43, i64 48
  %48 = bitcast i8* %47 to %"class.base::internal::WeakReference"*
  %49 = getelementptr inbounds %"class.base::WeakPtr", %"class.base::WeakPtr"* %7, i64 0, i32 0, i32 0
  call void @_ZN4base8internal13WeakReferenceC1EOS1_(%"class.base::internal::WeakReference"* %48, %"class.base::internal::WeakReference"* nonnull dereferenceable(8) %49) #17, !noalias !11
  %50 = getelementptr inbounds i8, i8* %43, i64 56
  %51 = bitcast i8* %50 to i64*
  %52 = getelementptr inbounds %"class.base::WeakPtr", %"class.base::WeakPtr"* %7, i64 0, i32 0, i32 1
  %53 = load i64, i64* %52, align 8, !noalias !11
  store i64 %53, i64* %51, align 8, !noalias !11
  %54 = getelementptr inbounds i8, i8* %43, i64 64
  %55 = bitcast i8* %54 to i64*
  store i64 %36, i64* %55, align 8, !noalias !11
  %56 = getelementptr inbounds i8, i8* %43, i64 72
  %57 = getelementptr inbounds %"class.base::OnceCallback", %"class.base::OnceCallback"* %2, i64 0, i32 0, i32 0, i32 0
  %58 = bitcast %"class.base::OnceCallback"* %2 to i64*
  %59 = load i64, i64* %58, align 8, !noalias !11
  %60 = bitcast i8* %56 to i64*
  store i64 %59, i64* %60, align 8, !noalias !11
  store %"class.base::internal::BindStateBase"* null, %"class.base::internal::BindStateBase"** %57, align 8, !noalias !11
  %61 = bitcast %"class.base::OnceCallback"* %6 to i8**
  store i8* %43, i8** %61, align 8, !alias.scope !11
  %62 = bitcast %"class.guest_view::GuestViewBase"* %0 to void (%"class.guest_view::GuestViewBase"*, %"class.base::DictionaryValue"*, %"class.base::OnceCallback"*)***
  %63 = load void (%"class.guest_view::GuestViewBase"*, %"class.base::DictionaryValue"*, %"class.base::OnceCallback"*)**, void (%"class.guest_view::GuestViewBase"*, %"class.base::DictionaryValue"*, %"class.base::OnceCallback"*)*** %62, align 8
  %64 = getelementptr inbounds void (%"class.guest_view::GuestViewBase"*, %"class.base::DictionaryValue"*, %"class.base::OnceCallback"*)*, void (%"class.guest_view::GuestViewBase"*, %"class.base::DictionaryValue"*, %"class.base::OnceCallback"*)** %63, i64 20
  %65 = load void (%"class.guest_view::GuestViewBase"*, %"class.base::DictionaryValue"*, %"class.base::OnceCallback"*)*, void (%"class.guest_view::GuestViewBase"*, %"class.base::DictionaryValue"*, %"class.base::OnceCallback"*)** %64, align 8
  call void %65(%"class.guest_view::GuestViewBase"* %0, %"class.base::DictionaryValue"* dereferenceable(32) %1, %"class.base::OnceCallback"* nonnull %6) #17
  %66 = getelementptr inbounds %"class.base::OnceCallback", %"class.base::OnceCallback"* %6, i64 0, i32 0
  call void @_ZN4base8internal12CallbackBaseD2Ev(%"class.base::internal::CallbackBase"* nonnull %66) #17
  call void @_ZN4base8internal11WeakPtrBaseD2Ev(%"class.base::internal::WeakPtrBase"* nonnull %42) #17
  call void @llvm.lifetime.end.p0i8(i64 16, i8* nonnull %37) #17
  br label %67

67:                                               ; preds = %3, %34, %23
  ret void
}

declare zeroext i1 @_ZN10guest_view16GuestViewManager25IsGuestAvailableToContextEPNS_13GuestViewBaseE(%"class.guest_view::GuestViewManager"*, %"class.guest_view::GuestViewBase"*) local_unnamed_addr #2

; Function Attrs: argmemonly nounwind
declare void @llvm.lifetime.start.p0i8(i64 immarg, i8* nocapture) #6

declare %"class.base::DictionaryValue"* @_ZNK4base15DictionaryValue8DeepCopyEv(%"class.base::DictionaryValue"*) local_unnamed_addr #2

; Function Attrs: nounwind ssp uwtable
define hidden void @_ZN10guest_view13GuestViewBase12CompleteInitENSt3__110unique_ptrIN4base15DictionaryValueENS1_14default_deleteIS4_EEEENS3_12OnceCallbackIFvPN7content11WebContentsEEEESB_(%"class.guest_view::GuestViewBase"*, %"class.base::DictionaryValue"*, %"class.base::OnceCallback"* nocapture, %"class.content::WebContents"*) #1 align 2 {
  %5 = alloca %"class.base::OnceCallback", align 8
  %6 = alloca %"class.base::OnceCallback", align 8
  %7 = icmp eq %"class.content::WebContents"* %3, null
  br i1 %7, label %8, label %26

8:                                                ; preds = %4
  %9 = icmp eq %"class.guest_view::GuestViewBase"* %0, null
  br i1 %9, label %15, label %10

10:                                               ; preds = %8
  %11 = bitcast %"class.guest_view::GuestViewBase"* %0 to void (%"class.guest_view::GuestViewBase"*)***
  %12 = load void (%"class.guest_view::GuestViewBase"*)**, void (%"class.guest_view::GuestViewBase"*)*** %11, align 8
  %13 = getelementptr inbounds void (%"class.guest_view::GuestViewBase"*)*, void (%"class.guest_view::GuestViewBase"*)** %12, i64 1
  %14 = load void (%"class.guest_view::GuestViewBase"*)*, void (%"class.guest_view::GuestViewBase"*)** %13, align 8
  tail call void %14(%"class.guest_view::GuestViewBase"* nonnull %0) #17
  br label %15

15:                                               ; preds = %10, %8
  %16 = bitcast %"class.base::OnceCallback"* %6 to i8*
  call void @llvm.lifetime.start.p0i8(i64 8, i8* nonnull %16) #17
  %17 = getelementptr inbounds %"class.base::OnceCallback", %"class.base::OnceCallback"* %2, i64 0, i32 0, i32 0, i32 0
  %18 = bitcast %"class.base::OnceCallback"* %2 to i64*
  %19 = load i64, i64* %18, align 8
  %20 = bitcast %"class.base::OnceCallback"* %6 to i64*
  store i64 %19, i64* %20, align 8
  store %"class.base::internal::BindStateBase"* null, %"class.base::internal::BindStateBase"** %17, align 8
  %21 = getelementptr inbounds %"class.base::OnceCallback", %"class.base::OnceCallback"* %6, i64 0, i32 0
  %22 = inttoptr i64 %19 to %"class.base::internal::BindStateBase"*
  %23 = getelementptr inbounds %"class.base::internal::BindStateBase", %"class.base::internal::BindStateBase"* %22, i64 0, i32 1
  %24 = bitcast void ()** %23 to void (%"class.base::internal::BindStateBase"*, %"class.content::WebContents"*)**
  %25 = load void (%"class.base::internal::BindStateBase"*, %"class.content::WebContents"*)*, void (%"class.base::internal::BindStateBase"*, %"class.content::WebContents"*)** %24, align 8
  tail call void %25(%"class.base::internal::BindStateBase"* %22, %"class.content::WebContents"* null) #17
  br label %37

26:                                               ; preds = %4
  tail call void @_ZN10guest_view13GuestViewBase19InitWithWebContentsERKN4base15DictionaryValueEPN7content11WebContentsE(%"class.guest_view::GuestViewBase"* %0, %"class.base::DictionaryValue"* dereferenceable(32) %1, %"class.content::WebContents"* nonnull %3)
  %27 = bitcast %"class.base::OnceCallback"* %5 to i8*
  call void @llvm.lifetime.start.p0i8(i64 8, i8* nonnull %27) #17
  %28 = getelementptr inbounds %"class.base::OnceCallback", %"class.base::OnceCallback"* %2, i64 0, i32 0, i32 0, i32 0
  %29 = bitcast %"class.base::OnceCallback"* %2 to i64*
  %30 = load i64, i64* %29, align 8
  %31 = bitcast %"class.base::OnceCallback"* %5 to i64*
  store i64 %30, i64* %31, align 8
  store %"class.base::internal::BindStateBase"* null, %"class.base::internal::BindStateBase"** %28, align 8
  %32 = getelementptr inbounds %"class.base::OnceCallback", %"class.base::OnceCallback"* %5, i64 0, i32 0
  %33 = inttoptr i64 %30 to %"class.base::internal::BindStateBase"*
  %34 = getelementptr inbounds %"class.base::internal::BindStateBase", %"class.base::internal::BindStateBase"* %33, i64 0, i32 1
  %35 = bitcast void ()** %34 to void (%"class.base::internal::BindStateBase"*, %"class.content::WebContents"*)**
  %36 = load void (%"class.base::internal::BindStateBase"*, %"class.content::WebContents"*)*, void (%"class.base::internal::BindStateBase"*, %"class.content::WebContents"*)** %35, align 8
  tail call void %36(%"class.base::internal::BindStateBase"* %33, %"class.content::WebContents"* nonnull %3) #17
  br label %37

37:                                               ; preds = %26, %15
  %38 = phi %"class.base::internal::CallbackBase"* [ %32, %26 ], [ %21, %15 ]
  %39 = phi i8* [ %27, %26 ], [ %16, %15 ]
  call void @_ZN4base8internal12CallbackBaseD2Ev(%"class.base::internal::CallbackBase"* nonnull %38) #17
  call void @llvm.lifetime.end.p0i8(i64 8, i8* nonnull %39) #17
  %40 = icmp eq %"class.base::DictionaryValue"* %1, null
  br i1 %40, label %44, label %41

41:                                               ; preds = %37
  %42 = getelementptr inbounds %"class.base::DictionaryValue", %"class.base::DictionaryValue"* %1, i64 0, i32 0
  call void @_ZN4base5ValueD2Ev(%"class.base::Value"* nonnull %42) #17
  %43 = bitcast %"class.base::DictionaryValue"* %1 to i8*
  call void @_ZdlPv(i8* %43) #16
  br label %44

44:                                               ; preds = %37, %41
  ret void
}

; Function Attrs: argmemonly nounwind
declare void @llvm.lifetime.end.p0i8(i64 immarg, i8* nocapture) #6

; Function Attrs: nounwind ssp uwtable
define hidden void @_ZN10guest_view13GuestViewBase19InitWithWebContentsERKN4base15DictionaryValueEPN7content11WebContentsE(%"class.guest_view::GuestViewBase"*, %"class.base::DictionaryValue"* dereferenceable(32), %"class.content::WebContents"*) local_unnamed_addr #1 align 2 {
  %4 = alloca %"struct.std::__1::pair.165", align 8
  %5 = getelementptr inbounds %"class.content::WebContents", %"class.content::WebContents"* %2, i64 0, i32 1
  %6 = bitcast %"class.base::SupportsUserData.base"* %5 to %"class.base::SupportsUserData"*
  %7 = tail call %"class.base::SupportsUserData::Data"* @_ZNK4base16SupportsUserData11GetUserDataEPKv(%"class.base::SupportsUserData"* %6, i8* bitcast (i32* @_ZN4zoom14ZoomController12kUserDataKeyE to i8*)) #17
  %8 = icmp eq %"class.base::SupportsUserData::Data"* %7, null
  br i1 %8, label %9, label %14

9:                                                ; preds = %3
  %10 = tail call i8* @_Znwm(i64 136) #16
  %11 = bitcast i8* %10 to %"class.zoom::ZoomController"*
  tail call void @_ZN4zoom14ZoomControllerC1EPN7content11WebContentsE(%"class.zoom::ZoomController"* nonnull %11, %"class.content::WebContents"* %2) #17
  %12 = getelementptr inbounds i8, i8* %10, i64 16
  %13 = bitcast i8* %12 to %"class.base::SupportsUserData::Data"*
  tail call void @_ZN4base16SupportsUserData11SetUserDataEPKvNSt3__110unique_ptrINS0_4DataENS3_14default_deleteIS5_EEEE(%"class.base::SupportsUserData"* %6, i8* bitcast (i32* @_ZN4zoom14ZoomController12kUserDataKeyE to i8*), %"class.base::SupportsUserData::Data"* %13) #17
  br label %14

14:                                               ; preds = %3, %9
  %15 = ptrtoint %"class.guest_view::GuestViewBase"* %0 to i64
  %16 = getelementptr inbounds %"class.guest_view::GuestViewBase", %"class.guest_view::GuestViewBase"* %0, i64 0, i32 4
  %17 = tail call i8* @_Znwm(i64 32) #16
  %18 = load %"class.content::WebContents"*, %"class.content::WebContents"** %16, align 8
  %19 = bitcast i8* %17 to %"class.content::WebContentsObserver"*
  tail call void @_ZN7content19WebContentsObserverC2EPNS_11WebContentsE(%"class.content::WebContentsObserver"* nonnull %19, %"class.content::WebContents"* %18) #17
  %20 = bitcast i8* %17 to i32 (...)***
  store i32 (...)** bitcast (i8** getelementptr inbounds ({ [109 x i8*] }, { [109 x i8*] }* @_ZTVN10guest_view13GuestViewBase21OwnerContentsObserverE, i64 0, inrange i32 0, i64 2) to i32 (...)**), i32 (...)*** %20, align 8
  %21 = getelementptr inbounds i8, i8* %17, i64 16
  store i8 0, i8* %21, align 8
  %22 = getelementptr inbounds i8, i8* %17, i64 17
  store i8 0, i8* %22, align 1
  %23 = getelementptr inbounds i8, i8* %17, i64 24
  %24 = bitcast i8* %23 to i64*
  store i64 %15, i64* %24, align 8
  %25 = ptrtoint i8* %17 to i64
  %26 = getelementptr inbounds %"class.guest_view::GuestViewBase", %"class.guest_view::GuestViewBase"* %0, i64 0, i32 16
  %27 = getelementptr inbounds %"class.std::__1::unique_ptr.72", %"class.std::__1::unique_ptr.72"* %26, i64 0, i32 0, i32 0, i32 0
  %28 = load %"class.guest_view::GuestViewBase::OwnerContentsObserver"*, %"class.guest_view::GuestViewBase::OwnerContentsObserver"** %27, align 8
  %29 = bitcast %"class.std::__1::unique_ptr.72"* %26 to i64*
  store i64 %25, i64* %29, align 8
  %30 = icmp eq %"class.guest_view::GuestViewBase::OwnerContentsObserver"* %28, null
  br i1 %30, label %36, label %31

31:                                               ; preds = %14
  %32 = bitcast %"class.guest_view::GuestViewBase::OwnerContentsObserver"* %28 to void (%"class.guest_view::GuestViewBase::OwnerContentsObserver"*)***
  %33 = load void (%"class.guest_view::GuestViewBase::OwnerContentsObserver"*)**, void (%"class.guest_view::GuestViewBase::OwnerContentsObserver"*)*** %32, align 8
  %34 = getelementptr inbounds void (%"class.guest_view::GuestViewBase::OwnerContentsObserver"*)*, void (%"class.guest_view::GuestViewBase::OwnerContentsObserver"*)** %33, i64 8
  %35 = load void (%"class.guest_view::GuestViewBase::OwnerContentsObserver"*)*, void (%"class.guest_view::GuestViewBase::OwnerContentsObserver"*)** %34, align 8
  tail call void %35(%"class.guest_view::GuestViewBase::OwnerContentsObserver"* nonnull %28) #17
  br label %36

36:                                               ; preds = %31, %14
  %37 = getelementptr inbounds %"class.guest_view::GuestViewBase", %"class.guest_view::GuestViewBase"* %0, i64 0, i32 2
  tail call void @_ZN7content19WebContentsObserver7ObserveEPNS_11WebContentsE(%"class.content::WebContentsObserver"* %37, %"class.content::WebContents"* %2) #17
  %38 = getelementptr inbounds %"class.guest_view::GuestViewBase", %"class.guest_view::GuestViewBase"* %0, i64 0, i32 1
  %39 = bitcast %"class.content::WebContents"* %2 to void (%"class.content::WebContents"*, %"class.content::WebContentsDelegate"*)***
  %40 = load void (%"class.content::WebContents"*, %"class.content::WebContentsDelegate"*)**, void (%"class.content::WebContents"*, %"class.content::WebContentsDelegate"*)*** %39, align 8
  %41 = getelementptr inbounds void (%"class.content::WebContents"*, %"class.content::WebContentsDelegate"*)*, void (%"class.content::WebContents"*, %"class.content::WebContentsDelegate"*)** %40, i64 4
  %42 = load void (%"class.content::WebContents"*, %"class.content::WebContentsDelegate"*)*, void (%"class.content::WebContents"*, %"class.content::WebContentsDelegate"*)** %41, align 8
  tail call void %42(%"class.content::WebContents"* %2, %"class.content::WebContentsDelegate"* %38) #17
  %43 = load atomic i64, i64* getelementptr inbounds (%"class.base::LazyInstance", %"class.base::LazyInstance"* @_ZN10guest_view12_GLOBAL__N_127g_webcontents_guestview_mapE, i64 0, i32 0) acquire, align 8
  %44 = icmp ugt i64 %43, 1
  br i1 %44, label %50, label %45

45:                                               ; preds = %36
  %46 = tail call zeroext i1 @_ZN4base8internal17NeedsLazyInstanceEPl(i64* getelementptr inbounds (%"class.base::LazyInstance", %"class.base::LazyInstance"* @_ZN10guest_view12_GLOBAL__N_127g_webcontents_guestview_mapE, i64 0, i32 0)) #17
  br i1 %46, label %47, label %48

47:                                               ; preds = %45
  tail call void @llvm.memset.p0i8.i64(i8* align 8 getelementptr inbounds (%"class.base::LazyInstance", %"class.base::LazyInstance"* @_ZN10guest_view12_GLOBAL__N_127g_webcontents_guestview_mapE, i64 0, i32 1, i64 8), i8 0, i64 16, i1 false) #17
  store i8* getelementptr inbounds (%"class.base::LazyInstance", %"class.base::LazyInstance"* @_ZN10guest_view12_GLOBAL__N_127g_webcontents_guestview_mapE, i64 0, i32 1, i64 8), i8** bitcast (i8* getelementptr inbounds (%"class.base::LazyInstance", %"class.base::LazyInstance"* @_ZN10guest_view12_GLOBAL__N_127g_webcontents_guestview_mapE, i64 0, i32 1, i64 0) to i8**), align 8
  tail call void @_ZN4base8internal20CompleteLazyInstanceEPllPFvPvES2_(i64* getelementptr inbounds (%"class.base::LazyInstance", %"class.base::LazyInstance"* @_ZN10guest_view12_GLOBAL__N_127g_webcontents_guestview_mapE, i64 0, i32 0), i64 ptrtoint (i8* getelementptr inbounds (%"class.base::LazyInstance", %"class.base::LazyInstance"* @_ZN10guest_view12_GLOBAL__N_127g_webcontents_guestview_mapE, i64 0, i32 1, i64 0) to i64), void (i8*)* null, i8* bitcast (%"class.base::LazyInstance"* @_ZN10guest_view12_GLOBAL__N_127g_webcontents_guestview_mapE to i8*)) #17
  br label %50

48:                                               ; preds = %45
  %49 = load atomic i64, i64* getelementptr inbounds (%"class.base::LazyInstance", %"class.base::LazyInstance"* @_ZN10guest_view12_GLOBAL__N_127g_webcontents_guestview_mapE, i64 0, i32 0) acquire, align 8
  br label %50

50:                                               ; preds = %36, %47, %48
  %51 = phi i64 [ %43, %36 ], [ ptrtoint (i8* getelementptr inbounds (%"class.base::LazyInstance", %"class.base::LazyInstance"* @_ZN10guest_view12_GLOBAL__N_127g_webcontents_guestview_mapE, i64 0, i32 1, i64 0) to i64), %47 ], [ %49, %48 ]
  %52 = inttoptr i64 %51 to %"class.std::__1::map.153"*
  %53 = bitcast %"struct.std::__1::pair.165"* %4 to i8*
  call void @llvm.lifetime.start.p0i8(i64 16, i8* nonnull %53) #17
  %54 = getelementptr inbounds %"struct.std::__1::pair.165", %"struct.std::__1::pair.165"* %4, i64 0, i32 0
  store %"class.content::WebContents"* %2, %"class.content::WebContents"** %54, align 8
  %55 = getelementptr inbounds %"struct.std::__1::pair.165", %"struct.std::__1::pair.165"* %4, i64 0, i32 1
  store %"class.guest_view::GuestViewBase"* %0, %"class.guest_view::GuestViewBase"** %55, align 8
  %56 = getelementptr inbounds %"class.std::__1::map.153", %"class.std::__1::map.153"* %52, i64 0, i32 0
  %57 = call { %"class.std::__1::__tree_end_node"*, i8 } @_ZNSt3__16__treeINS_12__value_typeIPKN7content11WebContentsEPN10guest_view13GuestViewBaseEEENS_19__map_value_compareIS5_S9_NS_4lessIS5_EELb1EEENS_9allocatorIS9_EEE21__emplace_unique_implIJNS_4pairIPS3_S8_EEEEENSI_INS_15__tree_iteratorIS9_PNS_11__tree_nodeIS9_PvEElEEbEEDpOT_(%"class.std::__1::__tree.154"* %56, %"struct.std::__1::pair.165"* nonnull dereferenceable(16) %4) #17
  call void @llvm.lifetime.end.p0i8(i64 16, i8* nonnull %53) #17
  %58 = getelementptr inbounds %"class.guest_view::GuestViewBase", %"class.guest_view::GuestViewBase"* %0, i64 0, i32 6
  %59 = load %"class.content::BrowserContext"*, %"class.content::BrowserContext"** %58, align 8
  %60 = call %"class.guest_view::GuestViewManager"* @_ZN10guest_view16GuestViewManager18FromBrowserContextEPN7content14BrowserContextE(%"class.content::BrowserContext"* %59) #17
  %61 = getelementptr inbounds %"class.guest_view::GuestViewBase", %"class.guest_view::GuestViewBase"* %0, i64 0, i32 7
  %62 = load i32, i32* %61, align 8
  %63 = bitcast %"class.guest_view::GuestViewManager"* %60 to void (%"class.guest_view::GuestViewManager"*, i32, %"class.content::WebContents"*)***
  %64 = load void (%"class.guest_view::GuestViewManager"*, i32, %"class.content::WebContents"*)**, void (%"class.guest_view::GuestViewManager"*, i32, %"class.content::WebContents"*)*** %63, align 8
  %65 = getelementptr inbounds void (%"class.guest_view::GuestViewManager"*, i32, %"class.content::WebContents"*)*, void (%"class.guest_view::GuestViewManager"*, i32, %"class.content::WebContents"*)** %64, i64 6
  %66 = load void (%"class.guest_view::GuestViewManager"*, i32, %"class.content::WebContents"*)*, void (%"class.guest_view::GuestViewManager"*, i32, %"class.content::WebContents"*)** %65, align 8
  call void %66(%"class.guest_view::GuestViewManager"* %60, i32 %62, %"class.content::WebContents"* %2) #17
  %67 = call i64 @strlen(i8* nonnull getelementptr inbounds ([0 x i8], [0 x i8]* @_ZN10guest_view20kParameterInstanceIdE, i64 0, i64 0)) #17
  %68 = getelementptr inbounds %"class.guest_view::GuestViewBase", %"class.guest_view::GuestViewBase"* %0, i64 0, i32 8
  %69 = call zeroext i1 @_ZNK4base15DictionaryValue10GetIntegerENS_16BasicStringPieceIcNSt3__111char_traitsIcEEEEPi(%"class.base::DictionaryValue"* %1, i8* getelementptr inbounds ([0 x i8], [0 x i8]* @_ZN10guest_view20kParameterInstanceIdE, i64 0, i64 0), i64 %67, i32* %68) #17
  call void @_ZN10guest_view13GuestViewBase11SetUpSizingERKN4base15DictionaryValueE(%"class.guest_view::GuestViewBase"* %0, %"class.base::DictionaryValue"* dereferenceable(32) %1)
  %70 = call %"class.content::WebContents"* @_ZNK7content19WebContentsObserver12web_contentsEv(%"class.content::WebContentsObserver"* %37) #17
  %71 = getelementptr inbounds %"class.content::WebContents", %"class.content::WebContents"* %70, i64 0, i32 1
  %72 = bitcast %"class.base::SupportsUserData.base"* %71 to %"class.base::SupportsUserData"*
  %73 = call %"class.base::SupportsUserData::Data"* @_ZNK4base16SupportsUserData11GetUserDataEPKv(%"class.base::SupportsUserData"* %72, i8* bitcast (i32* @_ZN4zoom14ZoomController12kUserDataKeyE to i8*)) #17
  %74 = icmp eq %"class.base::SupportsUserData::Data"* %73, null
  %75 = getelementptr inbounds %"class.base::SupportsUserData::Data", %"class.base::SupportsUserData::Data"* %73, i64 -2
  %76 = bitcast %"class.base::SupportsUserData::Data"* %75 to %"class.zoom::ZoomController"*
  %77 = select i1 %74, %"class.zoom::ZoomController"* null, %"class.zoom::ZoomController"* %76
  %78 = getelementptr inbounds %"class.guest_view::GuestViewBase", %"class.guest_view::GuestViewBase"* %0, i64 0, i32 3
  call void @_ZN4zoom14ZoomController11AddObserverEPNS_12ZoomObserverE(%"class.zoom::ZoomController"* %77, %"class.zoom::ZoomObserver"* %78) #17
  %79 = bitcast %"class.guest_view::GuestViewBase"* %0 to void (%"class.guest_view::GuestViewBase"*, %"class.base::DictionaryValue"*)***
  %80 = load void (%"class.guest_view::GuestViewBase"*, %"class.base::DictionaryValue"*)**, void (%"class.guest_view::GuestViewBase"*, %"class.base::DictionaryValue"*)*** %79, align 8
  %81 = getelementptr inbounds void (%"class.guest_view::GuestViewBase"*, %"class.base::DictionaryValue"*)*, void (%"class.guest_view::GuestViewBase"*, %"class.base::DictionaryValue"*)** %80, i64 22
  %82 = load void (%"class.guest_view::GuestViewBase"*, %"class.base::DictionaryValue"*)*, void (%"class.guest_view::GuestViewBase"*, %"class.base::DictionaryValue"*)** %81, align 8
  call void %82(%"class.guest_view::GuestViewBase"* %0, %"class.base::DictionaryValue"* dereferenceable(32) %1) #17
  ret void
}

declare void @_ZN7content19WebContentsObserver7ObserveEPNS_11WebContentsE(%"class.content::WebContentsObserver"*, %"class.content::WebContents"*) local_unnamed_addr #2

declare zeroext i1 @_ZNK4base15DictionaryValue10GetIntegerENS_16BasicStringPieceIcNSt3__111char_traitsIcEEEEPi(%"class.base::DictionaryValue"*, i8*, i64, i32*) local_unnamed_addr #2

; Function Attrs: nounwind ssp uwtable
define hidden void @_ZN10guest_view13GuestViewBase11SetUpSizingERKN4base15DictionaryValueE(%"class.guest_view::GuestViewBase"*, %"class.base::DictionaryValue"* dereferenceable(32)) local_unnamed_addr #1 align 2 {
  %3 = alloca i8, align 1
  %4 = alloca i32, align 4
  %5 = alloca i32, align 4
  %6 = alloca i32, align 4
  %7 = alloca i32, align 4
  %8 = alloca double, align 8
  %9 = alloca double, align 8
  %10 = alloca i8, align 1
  %11 = alloca %"struct.guest_view::SetSizeParams", align 8
  call void @llvm.lifetime.start.p0i8(i64 1, i8* nonnull %3) #17
  %12 = getelementptr inbounds %"class.guest_view::GuestViewBase", %"class.guest_view::GuestViewBase"* %0, i64 0, i32 20
  %13 = load i8, i8* %12, align 8, !range !7
  store i8 %13, i8* %3, align 1
  %14 = tail call i64 @strlen(i8* nonnull getelementptr inbounds ([0 x i8], [0 x i8]* @_ZN10guest_view18kAttributeAutoSizeE, i64 0, i64 0)) #17
  %15 = call zeroext i1 @_ZNK4base15DictionaryValue10GetBooleanENS_16BasicStringPieceIcNSt3__111char_traitsIcEEEEPb(%"class.base::DictionaryValue"* %1, i8* getelementptr inbounds ([0 x i8], [0 x i8]* @_ZN10guest_view18kAttributeAutoSizeE, i64 0, i64 0), i64 %14, i8* nonnull %3) #17
  %16 = bitcast i32* %4 to i8*
  call void @llvm.lifetime.start.p0i8(i64 4, i8* nonnull %16) #17
  %17 = getelementptr inbounds %"class.guest_view::GuestViewBase", %"class.guest_view::GuestViewBase"* %0, i64 0, i32 21, i32 1
  %18 = load i32, i32* %17, align 4
  store i32 %18, i32* %4, align 4
  %19 = bitcast i32* %5 to i8*
  call void @llvm.lifetime.start.p0i8(i64 4, i8* nonnull %19) #17
  %20 = getelementptr inbounds %"class.guest_view::GuestViewBase", %"class.guest_view::GuestViewBase"* %0, i64 0, i32 21, i32 0
  %21 = load i32, i32* %20, align 4
  store i32 %21, i32* %5, align 4
  %22 = call i64 @strlen(i8* nonnull getelementptr inbounds ([0 x i8], [0 x i8]* @_ZN10guest_view19kAttributeMaxHeightE, i64 0, i64 0)) #17
  %23 = call zeroext i1 @_ZNK4base15DictionaryValue10GetIntegerENS_16BasicStringPieceIcNSt3__111char_traitsIcEEEEPi(%"class.base::DictionaryValue"* %1, i8* getelementptr inbounds ([0 x i8], [0 x i8]* @_ZN10guest_view19kAttributeMaxHeightE, i64 0, i64 0), i64 %22, i32* nonnull %4) #17
  %24 = call i64 @strlen(i8* nonnull getelementptr inbounds ([0 x i8], [0 x i8]* @_ZN10guest_view18kAttributeMaxWidthE, i64 0, i64 0)) #17
  %25 = call zeroext i1 @_ZNK4base15DictionaryValue10GetIntegerENS_16BasicStringPieceIcNSt3__111char_traitsIcEEEEPi(%"class.base::DictionaryValue"* %1, i8* getelementptr inbounds ([0 x i8], [0 x i8]* @_ZN10guest_view18kAttributeMaxWidthE, i64 0, i64 0), i64 %24, i32* nonnull %5) #17
  %26 = bitcast i32* %6 to i8*
  call void @llvm.lifetime.start.p0i8(i64 4, i8* nonnull %26) #17
  %27 = getelementptr inbounds %"class.guest_view::GuestViewBase", %"class.guest_view::GuestViewBase"* %0, i64 0, i32 22, i32 1
  %28 = load i32, i32* %27, align 4
  store i32 %28, i32* %6, align 4
  %29 = bitcast i32* %7 to i8*
  call void @llvm.lifetime.start.p0i8(i64 4, i8* nonnull %29) #17
  %30 = getelementptr inbounds %"class.guest_view::GuestViewBase", %"class.guest_view::GuestViewBase"* %0, i64 0, i32 22, i32 0
  %31 = load i32, i32* %30, align 4
  store i32 %31, i32* %7, align 4
  %32 = call i64 @strlen(i8* nonnull getelementptr inbounds ([0 x i8], [0 x i8]* @_ZN10guest_view19kAttributeMinHeightE, i64 0, i64 0)) #17
  %33 = call zeroext i1 @_ZNK4base15DictionaryValue10GetIntegerENS_16BasicStringPieceIcNSt3__111char_traitsIcEEEEPi(%"class.base::DictionaryValue"* %1, i8* getelementptr inbounds ([0 x i8], [0 x i8]* @_ZN10guest_view19kAttributeMinHeightE, i64 0, i64 0), i64 %32, i32* nonnull %6) #17
  %34 = call i64 @strlen(i8* nonnull getelementptr inbounds ([0 x i8], [0 x i8]* @_ZN10guest_view18kAttributeMinWidthE, i64 0, i64 0)) #17
  %35 = call zeroext i1 @_ZNK4base15DictionaryValue10GetIntegerENS_16BasicStringPieceIcNSt3__111char_traitsIcEEEEPi(%"class.base::DictionaryValue"* %1, i8* getelementptr inbounds ([0 x i8], [0 x i8]* @_ZN10guest_view18kAttributeMinWidthE, i64 0, i64 0), i64 %34, i32* nonnull %7) #17
  %36 = bitcast double* %8 to i8*
  call void @llvm.lifetime.start.p0i8(i64 8, i8* nonnull %36) #17
  store double 0.000000e+00, double* %8, align 8
  %37 = bitcast double* %9 to i8*
  call void @llvm.lifetime.start.p0i8(i64 8, i8* nonnull %37) #17
  store double 0.000000e+00, double* %9, align 8
  %38 = call i64 @strlen(i8* nonnull getelementptr inbounds ([0 x i8], [0 x i8]* @_ZN10guest_view14kElementHeightE, i64 0, i64 0)) #17
  %39 = call zeroext i1 @_ZNK4base15DictionaryValue9GetDoubleENS_16BasicStringPieceIcNSt3__111char_traitsIcEEEEPd(%"class.base::DictionaryValue"* %1, i8* getelementptr inbounds ([0 x i8], [0 x i8]* @_ZN10guest_view14kElementHeightE, i64 0, i64 0), i64 %38, double* nonnull %8) #17
  %40 = call i64 @strlen(i8* nonnull getelementptr inbounds ([0 x i8], [0 x i8]* @_ZN10guest_view13kElementWidthE, i64 0, i64 0)) #17
  %41 = call zeroext i1 @_ZNK4base15DictionaryValue9GetDoubleENS_16BasicStringPieceIcNSt3__111char_traitsIcEEEEPd(%"class.base::DictionaryValue"* %1, i8* getelementptr inbounds ([0 x i8], [0 x i8]* @_ZN10guest_view13kElementWidthE, i64 0, i64 0), i64 %40, double* nonnull %9) #17
  call void @llvm.lifetime.start.p0i8(i64 1, i8* nonnull %10) #17
  store i8 0, i8* %10, align 1
  %42 = call i64 @strlen(i8* nonnull getelementptr inbounds ([0 x i8], [0 x i8]* @_ZN10guest_view21kElementSizeIsLogicalE, i64 0, i64 0)) #17
  %43 = call zeroext i1 @_ZNK4base15DictionaryValue10GetBooleanENS_16BasicStringPieceIcNSt3__111char_traitsIcEEEEPb(%"class.base::DictionaryValue"* %1, i8* getelementptr inbounds ([0 x i8], [0 x i8]* @_ZN10guest_view21kElementSizeIsLogicalE, i64 0, i64 0), i64 %42, i8* nonnull %10) #17
  %44 = load i8, i8* %10, align 1, !range !7
  %45 = icmp eq i8 %44, 0
  %46 = load double, double* %8, align 8
  br i1 %45, label %92, label %47

47:                                               ; preds = %2
  %48 = getelementptr inbounds %"class.guest_view::GuestViewBase", %"class.guest_view::GuestViewBase"* %0, i64 0, i32 9
  %49 = load i32, i32* %48, align 8
  %50 = load i32, i32* @_ZN10guest_view15kInstanceIDNoneE, align 4
  %51 = icmp eq i32 %49, %50
  br i1 %51, label %67, label %52

52:                                               ; preds = %47
  %53 = getelementptr inbounds %"class.guest_view::GuestViewBase", %"class.guest_view::GuestViewBase"* %0, i64 0, i32 10
  %54 = load i8, i8* %53, align 4, !range !7
  %55 = icmp eq i8 %54, 0
  br i1 %55, label %56, label %67

56:                                               ; preds = %52
  %57 = getelementptr inbounds %"class.guest_view::GuestViewBase", %"class.guest_view::GuestViewBase"* %0, i64 0, i32 12
  %58 = load i8, i8* %57, align 2, !range !7
  %59 = icmp eq i8 %58, 0
  br i1 %59, label %60, label %67

60:                                               ; preds = %56
  %61 = getelementptr inbounds %"class.guest_view::GuestViewBase", %"class.guest_view::GuestViewBase"* %0, i64 0, i32 4
  %62 = load %"class.content::WebContents"*, %"class.content::WebContents"** %61, align 8
  %63 = icmp eq %"class.content::WebContents"* %62, null
  br i1 %63, label %67, label %64

64:                                               ; preds = %60
  %65 = call double @_ZN4zoom14ZoomController26GetZoomLevelForWebContentsEPN7content11WebContentsE(%"class.content::WebContents"* nonnull %62) #17
  %66 = call double @_ZN5blink25PageZoomLevelToZoomFactorEd(double %65) #17
  br label %67

67:                                               ; preds = %47, %52, %56, %60, %64
  %68 = phi double [ %66, %64 ], [ 1.000000e+00, %60 ], [ 1.000000e+00, %56 ], [ 1.000000e+00, %52 ], [ 1.000000e+00, %47 ]
  %69 = fmul double %46, %68
  %70 = call i64 @lround(double %69) #17
  %71 = load double, double* %9, align 8
  %72 = load i32, i32* %48, align 8
  %73 = icmp eq i32 %72, %50
  br i1 %73, label %89, label %74

74:                                               ; preds = %67
  %75 = getelementptr inbounds %"class.guest_view::GuestViewBase", %"class.guest_view::GuestViewBase"* %0, i64 0, i32 10
  %76 = load i8, i8* %75, align 4, !range !7
  %77 = icmp eq i8 %76, 0
  br i1 %77, label %78, label %89

78:                                               ; preds = %74
  %79 = getelementptr inbounds %"class.guest_view::GuestViewBase", %"class.guest_view::GuestViewBase"* %0, i64 0, i32 12
  %80 = load i8, i8* %79, align 2, !range !7
  %81 = icmp eq i8 %80, 0
  br i1 %81, label %82, label %89

82:                                               ; preds = %78
  %83 = getelementptr inbounds %"class.guest_view::GuestViewBase", %"class.guest_view::GuestViewBase"* %0, i64 0, i32 4
  %84 = load %"class.content::WebContents"*, %"class.content::WebContents"** %83, align 8
  %85 = icmp eq %"class.content::WebContents"* %84, null
  br i1 %85, label %89, label %86

86:                                               ; preds = %82
  %87 = call double @_ZN4zoom14ZoomController26GetZoomLevelForWebContentsEPN7content11WebContentsE(%"class.content::WebContents"* nonnull %84) #17
  %88 = call double @_ZN5blink25PageZoomLevelToZoomFactorEd(double %87) #17
  br label %89

89:                                               ; preds = %67, %74, %78, %82, %86
  %90 = phi double [ %88, %86 ], [ 1.000000e+00, %82 ], [ 1.000000e+00, %78 ], [ 1.000000e+00, %74 ], [ 1.000000e+00, %67 ]
  %91 = fmul double %71, %90
  br label %95

92:                                               ; preds = %2
  %93 = call i64 @lround(double %46) #17
  %94 = load double, double* %9, align 8
  br label %95

95:                                               ; preds = %92, %89
  %96 = phi double [ %94, %92 ], [ %91, %89 ]
  %97 = phi i64 [ %93, %92 ], [ %70, %89 ]
  %98 = call i64 @lround(double %96) #17
  %99 = trunc i64 %98 to i32
  %100 = trunc i64 %97 to i32
  %101 = bitcast %"struct.guest_view::SetSizeParams"* %11 to i8*
  call void @llvm.lifetime.start.p0i8(i64 32, i8* nonnull %101) #17
  %102 = getelementptr inbounds %"struct.guest_view::SetSizeParams", %"struct.guest_view::SetSizeParams"* %11, i64 0, i32 1
  %103 = getelementptr inbounds %"struct.guest_view::SetSizeParams", %"struct.guest_view::SetSizeParams"* %11, i64 0, i32 2
  %104 = getelementptr inbounds %"struct.guest_view::SetSizeParams", %"struct.guest_view::SetSizeParams"* %11, i64 0, i32 3
  %105 = call i8* @_Znwm(i64 1) #16
  %106 = load i8, i8* %3, align 1, !range !7
  store i8 %106, i8* %105, align 1
  %107 = ptrtoint i8* %105 to i64
  %108 = bitcast %"struct.guest_view::SetSizeParams"* %11 to i64*
  store i64 %107, i64* %108, align 8
  %109 = load i32, i32* %7, align 4
  %110 = load i32, i32* %6, align 4
  %111 = call i8* @_Znwm(i64 8) #16
  %112 = bitcast i8* %111 to i32*
  %113 = icmp sgt i32 %109, 0
  %114 = select i1 %113, i32 %109, i32 0
  store i32 %114, i32* %112, align 4
  %115 = getelementptr inbounds i8, i8* %111, i64 4
  %116 = bitcast i8* %115 to i32*
  %117 = icmp sgt i32 %110, 0
  %118 = select i1 %117, i32 %110, i32 0
  store i32 %118, i32* %116, align 4
  %119 = ptrtoint i8* %111 to i64
  %120 = bitcast %"class.std::__1::unique_ptr.1"* %102 to i64*
  store i64 %119, i64* %120, align 8
  %121 = load i32, i32* %5, align 4
  %122 = load i32, i32* %4, align 4
  %123 = call i8* @_Znwm(i64 8) #16
  %124 = bitcast i8* %123 to i32*
  %125 = icmp sgt i32 %121, 0
  %126 = select i1 %125, i32 %121, i32 0
  store i32 %126, i32* %124, align 4
  %127 = getelementptr inbounds i8, i8* %123, i64 4
  %128 = bitcast i8* %127 to i32*
  %129 = icmp sgt i32 %122, 0
  %130 = select i1 %129, i32 %122, i32 0
  store i32 %130, i32* %128, align 4
  %131 = ptrtoint i8* %123 to i64
  %132 = bitcast %"class.std::__1::unique_ptr.1"* %103 to i64*
  store i64 %131, i64* %132, align 8
  %133 = call i8* @_Znwm(i64 8) #16
  %134 = bitcast i8* %133 to i32*
  %135 = icmp sgt i32 %99, 0
  %136 = select i1 %135, i32 %99, i32 0
  store i32 %136, i32* %134, align 4
  %137 = getelementptr inbounds i8, i8* %133, i64 4
  %138 = bitcast i8* %137 to i32*
  %139 = icmp sgt i32 %100, 0
  %140 = select i1 %139, i32 %100, i32 0
  store i32 %140, i32* %138, align 4
  %141 = ptrtoint i8* %133 to i64
  %142 = bitcast %"class.std::__1::unique_ptr.1"* %104 to i64*
  store i64 %141, i64* %142, align 8
  call void @_ZN10guest_view13GuestViewBase7SetSizeERKNS_13SetSizeParamsE(%"class.guest_view::GuestViewBase"* %0, %"struct.guest_view::SetSizeParams"* nonnull dereferenceable(32) %11)
  call void @_ZdlPv(i8* nonnull %133) #16
  call void @_ZdlPv(i8* nonnull %123) #16
  call void @_ZdlPv(i8* nonnull %111) #16
  call void @_ZdlPv(i8* nonnull %105) #16
  call void @llvm.lifetime.end.p0i8(i64 32, i8* nonnull %101) #17
  call void @llvm.lifetime.end.p0i8(i64 1, i8* nonnull %10) #17
  call void @llvm.lifetime.end.p0i8(i64 8, i8* nonnull %37) #17
  call void @llvm.lifetime.end.p0i8(i64 8, i8* nonnull %36) #17
  call void @llvm.lifetime.end.p0i8(i64 4, i8* nonnull %29) #17
  call void @llvm.lifetime.end.p0i8(i64 4, i8* nonnull %26) #17
  call void @llvm.lifetime.end.p0i8(i64 4, i8* nonnull %19) #17
  call void @llvm.lifetime.end.p0i8(i64 4, i8* nonnull %16) #17
  call void @llvm.lifetime.end.p0i8(i64 1, i8* nonnull %3) #17
  ret void
}

declare %"class.content::WebContents"* @_ZNK7content19WebContentsObserver12web_contentsEv(%"class.content::WebContentsObserver"*) local_unnamed_addr #2

declare void @_ZN4zoom14ZoomController11AddObserverEPNS_12ZoomObserverE(%"class.zoom::ZoomController"*, %"class.zoom::ZoomObserver"*) local_unnamed_addr #2

; Function Attrs: nounwind ssp uwtable
define hidden void @_ZN10guest_view13GuestViewBase21DispatchOnResizeEventERKN3gfx4SizeES4_(%"class.guest_view::GuestViewBase"*, %"class.gfx::Size"* nocapture readonly dereferenceable(8), %"class.gfx::Size"* nocapture readonly dereferenceable(8)) local_unnamed_addr #1 align 2 {
  %4 = alloca %"class.std::__1::basic_string", align 8
  %5 = getelementptr inbounds %"class.gfx::Size", %"class.gfx::Size"* %2, i64 0, i32 0
  %6 = load i32, i32* %5, align 4
  %7 = getelementptr inbounds %"class.gfx::Size", %"class.gfx::Size"* %1, i64 0, i32 0
  %8 = load i32, i32* %7, align 4
  %9 = icmp eq i32 %6, %8
  br i1 %9, label %10, label %16

10:                                               ; preds = %3
  %11 = getelementptr inbounds %"class.gfx::Size", %"class.gfx::Size"* %2, i64 0, i32 1
  %12 = load i32, i32* %11, align 4
  %13 = getelementptr inbounds %"class.gfx::Size", %"class.gfx::Size"* %1, i64 0, i32 1
  %14 = load i32, i32* %13, align 4
  %15 = icmp eq i32 %12, %14
  br i1 %15, label %72, label %16

16:                                               ; preds = %3, %10
  %17 = tail call i8* @_Znwm(i64 32) #16
  %18 = bitcast i8* %17 to %"class.base::DictionaryValue"*
  tail call void @_ZN4base15DictionaryValueC1Ev(%"class.base::DictionaryValue"* nonnull %18) #17
  %19 = tail call i64 @strlen(i8* nonnull getelementptr inbounds ([0 x i8], [0 x i8]* @_ZN10guest_view9kOldWidthE, i64 0, i64 0)) #17
  %20 = load i32, i32* %7, align 4
  %21 = tail call %"class.base::Value"* @_ZN4base15DictionaryValue10SetIntegerENS_16BasicStringPieceIcNSt3__111char_traitsIcEEEEi(%"class.base::DictionaryValue"* nonnull %18, i8* getelementptr inbounds ([0 x i8], [0 x i8]* @_ZN10guest_view9kOldWidthE, i64 0, i64 0), i64 %19, i32 %20) #17
  %22 = tail call i64 @strlen(i8* nonnull getelementptr inbounds ([0 x i8], [0 x i8]* @_ZN10guest_view10kOldHeightE, i64 0, i64 0)) #17
  %23 = getelementptr inbounds %"class.gfx::Size", %"class.gfx::Size"* %1, i64 0, i32 1
  %24 = load i32, i32* %23, align 4
  %25 = tail call %"class.base::Value"* @_ZN4base15DictionaryValue10SetIntegerENS_16BasicStringPieceIcNSt3__111char_traitsIcEEEEi(%"class.base::DictionaryValue"* nonnull %18, i8* getelementptr inbounds ([0 x i8], [0 x i8]* @_ZN10guest_view10kOldHeightE, i64 0, i64 0), i64 %22, i32 %24) #17
  %26 = tail call i64 @strlen(i8* nonnull getelementptr inbounds ([0 x i8], [0 x i8]* @_ZN10guest_view9kNewWidthE, i64 0, i64 0)) #17
  %27 = load i32, i32* %5, align 4
  %28 = tail call %"class.base::Value"* @_ZN4base15DictionaryValue10SetIntegerENS_16BasicStringPieceIcNSt3__111char_traitsIcEEEEi(%"class.base::DictionaryValue"* nonnull %18, i8* getelementptr inbounds ([0 x i8], [0 x i8]* @_ZN10guest_view9kNewWidthE, i64 0, i64 0), i64 %26, i32 %27) #17
  %29 = tail call i64 @strlen(i8* nonnull getelementptr inbounds ([0 x i8], [0 x i8]* @_ZN10guest_view10kNewHeightE, i64 0, i64 0)) #17
  %30 = getelementptr inbounds %"class.gfx::Size", %"class.gfx::Size"* %2, i64 0, i32 1
  %31 = load i32, i32* %30, align 4
  %32 = tail call %"class.base::Value"* @_ZN4base15DictionaryValue10SetIntegerENS_16BasicStringPieceIcNSt3__111char_traitsIcEEEEi(%"class.base::DictionaryValue"* nonnull %18, i8* getelementptr inbounds ([0 x i8], [0 x i8]* @_ZN10guest_view10kNewHeightE, i64 0, i64 0), i64 %29, i32 %31) #17
  %33 = tail call i8* @_Znwm(i64 32) #16
  %34 = bitcast i8* %33 to %"class.guest_view::GuestViewEvent"*
  %35 = bitcast %"class.std::__1::basic_string"* %4 to i8*
  call void @llvm.lifetime.start.p0i8(i64 24, i8* nonnull %35) #17
  %36 = tail call i64 @strlen(i8* getelementptr inbounds ([0 x i8], [0 x i8]* @_ZN10guest_view12kEventResizeE, i64 0, i64 0)) #17
  %37 = icmp ugt i64 %36, -17
  br i1 %37, label %38, label %40

38:                                               ; preds = %16
  %39 = bitcast %"class.std::__1::basic_string"* %4 to %"class.std::__1::__basic_string_common"*
  call void @_ZNKSt3__121__basic_string_commonILb1EE20__throw_length_errorEv(%"class.std::__1::__basic_string_common"* nonnull %39) #18
  unreachable

40:                                               ; preds = %16
  %41 = icmp ult i64 %36, 23
  br i1 %41, label %51, label %42

42:                                               ; preds = %40
  %43 = add nuw i64 %36, 16
  %44 = and i64 %43, -16
  %45 = tail call i8* @_Znwm(i64 %44) #16
  %46 = getelementptr inbounds %"class.std::__1::basic_string", %"class.std::__1::basic_string"* %4, i64 0, i32 0, i32 0, i32 0, i32 0, i32 0, i32 0
  store i8* %45, i8** %46, align 8
  %47 = or i64 %44, -9223372036854775808
  %48 = getelementptr inbounds %"class.std::__1::basic_string", %"class.std::__1::basic_string"* %4, i64 0, i32 0, i32 0, i32 0, i32 0, i32 0, i32 2
  store i64 %47, i64* %48, align 8
  %49 = getelementptr inbounds %"class.std::__1::basic_string", %"class.std::__1::basic_string"* %4, i64 0, i32 0, i32 0, i32 0, i32 0, i32 0, i32 1
  store i64 %36, i64* %49, align 8
  %50 = bitcast %"class.std::__1::basic_string"* %4 to %"struct.std::__1::basic_string<char, std::__1::char_traits<char>, std::__1::allocator<char> >::__short"*
  br label %56

51:                                               ; preds = %40
  %52 = trunc i64 %36 to i8
  %53 = bitcast %"class.std::__1::basic_string"* %4 to %"struct.std::__1::basic_string<char, std::__1::char_traits<char>, std::__1::allocator<char> >::__short"*
  %54 = getelementptr inbounds %"struct.std::__1::basic_string<char, std::__1::char_traits<char>, std::__1::allocator<char> >::__short", %"struct.std::__1::basic_string<char, std::__1::char_traits<char>, std::__1::allocator<char> >::__short"* %53, i64 0, i32 1, i32 0
  store i8 %52, i8* %54, align 1
  %55 = icmp eq i64 %36, 0
  br i1 %55, label %59, label %56

56:                                               ; preds = %51, %42
  %57 = phi %"struct.std::__1::basic_string<char, std::__1::char_traits<char>, std::__1::allocator<char> >::__short"* [ %53, %51 ], [ %50, %42 ]
  %58 = phi i8* [ %35, %51 ], [ %45, %42 ]
  call void @llvm.memcpy.p0i8.p0i8.i64(i8* nonnull align 1 %58, i8* align 1 getelementptr inbounds ([0 x i8], [0 x i8]* @_ZN10guest_view12kEventResizeE, i64 0, i64 0), i64 %36, i1 false) #17
  br label %59

59:                                               ; preds = %56, %51
  %60 = phi %"struct.std::__1::basic_string<char, std::__1::char_traits<char>, std::__1::allocator<char> >::__short"* [ %53, %51 ], [ %57, %56 ]
  %61 = phi i8* [ %35, %51 ], [ %58, %56 ]
  %62 = getelementptr inbounds i8, i8* %61, i64 %36
  store i8 0, i8* %62, align 1
  call void @_ZN10guest_view14GuestViewEventC1ERKNSt3__112basic_stringIcNS1_11char_traitsIcEENS1_9allocatorIcEEEENS1_10unique_ptrIN4base15DictionaryValueENS1_14default_deleteISC_EEEE(%"class.guest_view::GuestViewEvent"* nonnull %34, %"class.std::__1::basic_string"* nonnull dereferenceable(24) %4, %"class.base::DictionaryValue"* nonnull %18) #17
  %63 = getelementptr inbounds %"struct.std::__1::basic_string<char, std::__1::char_traits<char>, std::__1::allocator<char> >::__short", %"struct.std::__1::basic_string<char, std::__1::char_traits<char>, std::__1::allocator<char> >::__short"* %60, i64 0, i32 1, i32 0
  %64 = load i8, i8* %63, align 1
  %65 = icmp slt i8 %64, 0
  br i1 %65, label %66, label %69

66:                                               ; preds = %59
  %67 = getelementptr inbounds %"class.std::__1::basic_string", %"class.std::__1::basic_string"* %4, i64 0, i32 0, i32 0, i32 0, i32 0, i32 0, i32 0
  %68 = load i8*, i8** %67, align 8
  call void @_ZdlPv(i8* %68) #16
  br label %69

69:                                               ; preds = %66, %59
  call void @llvm.lifetime.end.p0i8(i64 24, i8* nonnull %35) #17
  %70 = getelementptr inbounds %"class.guest_view::GuestViewBase", %"class.guest_view::GuestViewBase"* %0, i64 0, i32 7
  %71 = load i32, i32* %70, align 8
  call void @_ZN10guest_view14GuestViewEvent8DispatchEPNS_13GuestViewBaseEi(%"class.guest_view::GuestViewEvent"* nonnull %34, %"class.guest_view::GuestViewBase"* %0, i32 %71) #17
  call void @_ZN10guest_view14GuestViewEventD1Ev(%"class.guest_view::GuestViewEvent"* nonnull %34) #17
  call void @_ZdlPv(i8* nonnull %33) #16
  br label %72

72:                                               ; preds = %10, %69
  ret void
}

declare %"class.base::Value"* @_ZN4base15DictionaryValue10SetIntegerENS_16BasicStringPieceIcNSt3__111char_traitsIcEEEEi(%"class.base::DictionaryValue"*, i8*, i64, i32) local_unnamed_addr #2

; Function Attrs: nounwind ssp uwtable
define hidden void @_ZN10guest_view13GuestViewBase25DispatchEventToGuestProxyENSt3__110unique_ptrINS_14GuestViewEventENS1_14default_deleteIS3_EEEE(%"class.guest_view::GuestViewBase"*, %"class.guest_view::GuestViewEvent"*) local_unnamed_addr #1 align 2 {
  %3 = getelementptr inbounds %"class.guest_view::GuestViewBase", %"class.guest_view::GuestViewBase"* %0, i64 0, i32 7
  %4 = load i32, i32* %3, align 8
  tail call void @_ZN10guest_view14GuestViewEvent8DispatchEPNS_13GuestViewBaseEi(%"class.guest_view::GuestViewEvent"* %1, %"class.guest_view::GuestViewBase"* %0, i32 %4) #17
  %5 = icmp eq %"class.guest_view::GuestViewEvent"* %1, null
  br i1 %5, label %8, label %6

6:                                                ; preds = %2
  tail call void @_ZN10guest_view14GuestViewEventD1Ev(%"class.guest_view::GuestViewEvent"* nonnull %1) #17
  %7 = bitcast %"class.guest_view::GuestViewEvent"* %1 to i8*
  tail call void @_ZdlPv(i8* %7) #16
  br label %8

8:                                                ; preds = %2, %6
  ret void
}

; Function Attrs: nounwind ssp uwtable
define hidden i64 @_ZNK10guest_view13GuestViewBase14GetDefaultSizeEv(%"class.guest_view::GuestViewBase"* nocapture readonly) local_unnamed_addr #1 align 2 {
  %2 = getelementptr inbounds %"class.guest_view::GuestViewBase", %"class.guest_view::GuestViewBase"* %0, i64 0, i32 24
  %3 = load i8, i8* %2, align 4, !range !7
  %4 = icmp eq i8 %3, 0
  br i1 %4, label %5, label %12

5:                                                ; preds = %1
  %6 = load i32, i32* @_ZN10guest_view13kDefaultWidthE, align 4
  %7 = load i32, i32* @_ZN10guest_view14kDefaultHeightE, align 4
  %8 = icmp sgt i32 %6, 0
  %9 = select i1 %8, i32 %6, i32 0
  %10 = icmp sgt i32 %7, 0
  %11 = select i1 %10, i32 %7, i32 0
  br label %28

12:                                               ; preds = %1
  %13 = getelementptr inbounds %"class.guest_view::GuestViewBase", %"class.guest_view::GuestViewBase"* %0, i64 0, i32 4
  %14 = load %"class.content::WebContents"*, %"class.content::WebContents"** %13, align 8
  %15 = bitcast %"class.content::WebContents"* %14 to %"class.content::RenderWidgetHostView"* (%"class.content::WebContents"*)***
  %16 = load %"class.content::RenderWidgetHostView"* (%"class.content::WebContents"*)**, %"class.content::RenderWidgetHostView"* (%"class.content::WebContents"*)*** %15, align 8
  %17 = getelementptr inbounds %"class.content::RenderWidgetHostView"* (%"class.content::WebContents"*)*, %"class.content::RenderWidgetHostView"* (%"class.content::WebContents"*)** %16, i64 20
  %18 = load %"class.content::RenderWidgetHostView"* (%"class.content::WebContents"*)*, %"class.content::RenderWidgetHostView"* (%"class.content::WebContents"*)** %17, align 8
  %19 = tail call %"class.content::RenderWidgetHostView"* %18(%"class.content::WebContents"* %14) #17
  %20 = bitcast %"class.content::RenderWidgetHostView"* %19 to i64 (%"class.content::RenderWidgetHostView"*)***
  %21 = load i64 (%"class.content::RenderWidgetHostView"*)**, i64 (%"class.content::RenderWidgetHostView"*)*** %20, align 8
  %22 = getelementptr inbounds i64 (%"class.content::RenderWidgetHostView"*)*, i64 (%"class.content::RenderWidgetHostView"*)** %21, i64 36
  %23 = load i64 (%"class.content::RenderWidgetHostView"*)*, i64 (%"class.content::RenderWidgetHostView"*)** %22, align 8
  %24 = tail call i64 %23(%"class.content::RenderWidgetHostView"* %19) #17
  %25 = trunc i64 %24 to i32
  %26 = lshr i64 %24, 32
  %27 = trunc i64 %26 to i32
  br label %28

28:                                               ; preds = %12, %5
  %29 = phi i32 [ %27, %12 ], [ %11, %5 ]
  %30 = phi i32 [ %25, %12 ], [ %9, %5 ]
  %31 = zext i32 %29 to i64
  %32 = shl nuw i64 %31, 32
  %33 = zext i32 %30 to i64
  %34 = or i64 %32, %33
  ret i64 %34
}

; Function Attrs: nounwind ssp uwtable
define hidden void @_ZN10guest_view13GuestViewBase7SetSizeERKNS_13SetSizeParamsE(%"class.guest_view::GuestViewBase"*, %"struct.guest_view::SetSizeParams"* nocapture readonly dereferenceable(32)) local_unnamed_addr #1 align 2 {
  %3 = alloca i64, align 8
  %4 = bitcast i64* %3 to %"class.gfx::Size"*
  %5 = alloca i64, align 8
  %6 = bitcast i64* %5 to %"class.gfx::Size"*
  %7 = alloca i64, align 8
  %8 = bitcast i64* %7 to %"class.gfx::Size"*
  %9 = getelementptr inbounds %"struct.guest_view::SetSizeParams", %"struct.guest_view::SetSizeParams"* %1, i64 0, i32 0, i32 0, i32 0, i32 0
  %10 = load i8*, i8** %9, align 8
  %11 = icmp eq i8* %10, null
  %12 = getelementptr inbounds %"class.guest_view::GuestViewBase", %"class.guest_view::GuestViewBase"* %0, i64 0, i32 20
  %13 = select i1 %11, i8* %12, i8* %10
  %14 = load i8, i8* %13, align 1, !range !7
  %15 = bitcast i64* %3 to i8*
  call void @llvm.lifetime.start.p0i8(i64 8, i8* nonnull %15) #17
  %16 = bitcast i64* %3 to i32*
  store i32 -1431655766, i32* %16, align 8
  %17 = getelementptr inbounds %"class.gfx::Size", %"class.gfx::Size"* %4, i64 0, i32 1
  store i32 -1431655766, i32* %17, align 4
  %18 = getelementptr inbounds %"struct.guest_view::SetSizeParams", %"struct.guest_view::SetSizeParams"* %1, i64 0, i32 1, i32 0, i32 0, i32 0
  %19 = load %"class.gfx::Size"*, %"class.gfx::Size"** %18, align 8
  %20 = icmp eq %"class.gfx::Size"* %19, null
  %21 = getelementptr inbounds %"class.guest_view::GuestViewBase", %"class.guest_view::GuestViewBase"* %0, i64 0, i32 22
  %22 = select i1 %20, %"class.gfx::Size"* %21, %"class.gfx::Size"* %19
  %23 = bitcast %"class.gfx::Size"* %22 to i64*
  %24 = load i64, i64* %23, align 4
  store i64 %24, i64* %3, align 8
  %25 = bitcast i64* %5 to i8*
  call void @llvm.lifetime.start.p0i8(i64 8, i8* nonnull %25) #17
  %26 = bitcast i64* %5 to i32*
  store i32 -1431655766, i32* %26, align 8
  %27 = getelementptr inbounds %"class.gfx::Size", %"class.gfx::Size"* %6, i64 0, i32 1
  store i32 -1431655766, i32* %27, align 4
  %28 = getelementptr inbounds %"struct.guest_view::SetSizeParams", %"struct.guest_view::SetSizeParams"* %1, i64 0, i32 2, i32 0, i32 0, i32 0
  %29 = load %"class.gfx::Size"*, %"class.gfx::Size"** %28, align 8
  %30 = icmp eq %"class.gfx::Size"* %29, null
  %31 = getelementptr inbounds %"class.guest_view::GuestViewBase", %"class.guest_view::GuestViewBase"* %0, i64 0, i32 21
  %32 = select i1 %30, %"class.gfx::Size"* %31, %"class.gfx::Size"* %29
  %33 = bitcast %"class.gfx::Size"* %32 to i64*
  %34 = load i64, i64* %33, align 4
  store i64 %34, i64* %5, align 8
  %35 = getelementptr inbounds %"struct.guest_view::SetSizeParams", %"struct.guest_view::SetSizeParams"* %1, i64 0, i32 3, i32 0, i32 0, i32 0
  %36 = load %"class.gfx::Size"*, %"class.gfx::Size"** %35, align 8
  %37 = icmp eq %"class.gfx::Size"* %36, null
  br i1 %37, label %43, label %38

38:                                               ; preds = %2
  %39 = getelementptr inbounds %"class.guest_view::GuestViewBase", %"class.guest_view::GuestViewBase"* %0, i64 0, i32 23
  %40 = bitcast %"class.gfx::Size"* %36 to i64*
  %41 = bitcast %"class.gfx::Size"* %39 to i64*
  %42 = load i64, i64* %40, align 4
  store i64 %42, i64* %41, align 4
  br label %43

43:                                               ; preds = %2, %38
  %44 = bitcast %"class.gfx::Size"* %21 to i64*
  store i64 %24, i64* %44, align 4
  call void @_ZN3gfx4Size8SetToMinERKS0_(%"class.gfx::Size"* %21, %"class.gfx::Size"* nonnull dereferenceable(8) %6) #17
  %45 = bitcast %"class.gfx::Size"* %31 to i64*
  %46 = load i64, i64* %5, align 8
  store i64 %46, i64* %45, align 4
  call void @_ZN3gfx4Size8SetToMaxERKS0_(%"class.gfx::Size"* %31, %"class.gfx::Size"* nonnull dereferenceable(8) %4) #17
  %47 = getelementptr inbounds %"class.gfx::Size", %"class.gfx::Size"* %21, i64 0, i32 0
  %48 = load i32, i32* %47, align 4
  %49 = icmp eq i32 %48, 0
  br i1 %49, label %69, label %50

50:                                               ; preds = %43
  %51 = getelementptr inbounds %"class.guest_view::GuestViewBase", %"class.guest_view::GuestViewBase"* %0, i64 0, i32 22, i32 1
  %52 = load i32, i32* %51, align 4
  %53 = icmp eq i32 %52, 0
  br i1 %53, label %69, label %54

54:                                               ; preds = %50
  %55 = getelementptr inbounds %"class.gfx::Size", %"class.gfx::Size"* %31, i64 0, i32 0
  %56 = load i32, i32* %55, align 4
  %57 = icmp eq i32 %56, 0
  br i1 %57, label %69, label %58

58:                                               ; preds = %54
  %59 = getelementptr inbounds %"class.guest_view::GuestViewBase", %"class.guest_view::GuestViewBase"* %0, i64 0, i32 21, i32 1
  %60 = load i32, i32* %59, align 4
  %61 = icmp eq i32 %60, 0
  br i1 %61, label %69, label %62

62:                                               ; preds = %58
  %63 = bitcast %"class.guest_view::GuestViewBase"* %0 to i1 (%"class.guest_view::GuestViewBase"*)***
  %64 = load i1 (%"class.guest_view::GuestViewBase"*)**, i1 (%"class.guest_view::GuestViewBase"*)*** %63, align 8
  %65 = getelementptr inbounds i1 (%"class.guest_view::GuestViewBase"*)*, i1 (%"class.guest_view::GuestViewBase"*)** %64, i64 6
  %66 = load i1 (%"class.guest_view::GuestViewBase"*)*, i1 (%"class.guest_view::GuestViewBase"*)** %65, align 8
  %67 = call zeroext i1 %66(%"class.guest_view::GuestViewBase"* %0) #17
  %68 = zext i1 %67 to i32
  br label %69

69:                                               ; preds = %54, %43, %62, %58, %50
  %70 = phi i32 [ 0, %58 ], [ 0, %50 ], [ %68, %62 ], [ 0, %43 ], [ 0, %54 ]
  %71 = zext i8 %14 to i32
  %72 = and i32 %70, %71
  %73 = icmp eq i32 %72, 0
  %74 = trunc i32 %72 to i8
  %75 = getelementptr inbounds %"class.guest_view::GuestViewBase", %"class.guest_view::GuestViewBase"* %0, i64 0, i32 2
  %76 = call %"class.content::WebContents"* @_ZNK7content19WebContentsObserver12web_contentsEv(%"class.content::WebContentsObserver"* %75) #17
  %77 = bitcast %"class.content::WebContents"* %76 to %"class.content::RenderWidgetHostView"* (%"class.content::WebContents"*)***
  %78 = load %"class.content::RenderWidgetHostView"* (%"class.content::WebContents"*)**, %"class.content::RenderWidgetHostView"* (%"class.content::WebContents"*)*** %77, align 8
  %79 = getelementptr inbounds %"class.content::RenderWidgetHostView"* (%"class.content::WebContents"*)*, %"class.content::RenderWidgetHostView"* (%"class.content::WebContents"*)** %78, i64 20
  %80 = load %"class.content::RenderWidgetHostView"* (%"class.content::WebContents"*)*, %"class.content::RenderWidgetHostView"* (%"class.content::WebContents"*)** %79, align 8
  %81 = call %"class.content::RenderWidgetHostView"* %80(%"class.content::WebContents"* %76) #17
  br i1 %73, label %92, label %82

82:                                               ; preds = %69
  %83 = icmp eq %"class.content::RenderWidgetHostView"* %81, null
  br i1 %83, label %89, label %84

84:                                               ; preds = %82
  %85 = bitcast %"class.content::RenderWidgetHostView"* %81 to void (%"class.content::RenderWidgetHostView"*, %"class.gfx::Size"*, %"class.gfx::Size"*)***
  %86 = load void (%"class.content::RenderWidgetHostView"*, %"class.gfx::Size"*, %"class.gfx::Size"*)**, void (%"class.content::RenderWidgetHostView"*, %"class.gfx::Size"*, %"class.gfx::Size"*)*** %85, align 8
  %87 = getelementptr inbounds void (%"class.content::RenderWidgetHostView"*, %"class.gfx::Size"*, %"class.gfx::Size"*)*, void (%"class.content::RenderWidgetHostView"*, %"class.gfx::Size"*, %"class.gfx::Size"*)** %86, i64 5
  %88 = load void (%"class.content::RenderWidgetHostView"*, %"class.gfx::Size"*, %"class.gfx::Size"*)*, void (%"class.content::RenderWidgetHostView"*, %"class.gfx::Size"*, %"class.gfx::Size"*)** %87, align 8
  call void %88(%"class.content::RenderWidgetHostView"* nonnull %81, %"class.gfx::Size"* dereferenceable(8) %21, %"class.gfx::Size"* dereferenceable(8) %31) #17
  br label %89

89:                                               ; preds = %82, %84
  %90 = getelementptr inbounds %"class.guest_view::GuestViewBase", %"class.guest_view::GuestViewBase"* %0, i64 0, i32 23, i32 0
  store i32 0, i32* %90, align 4
  %91 = getelementptr inbounds %"class.guest_view::GuestViewBase", %"class.guest_view::GuestViewBase"* %0, i64 0, i32 23, i32 1
  store i32 0, i32* %91, align 4
  br label %236

92:                                               ; preds = %69
  %93 = getelementptr inbounds %"class.guest_view::GuestViewBase", %"class.guest_view::GuestViewBase"* %0, i64 0, i32 23
  %94 = getelementptr inbounds %"class.gfx::Size", %"class.gfx::Size"* %93, i64 0, i32 0
  %95 = load i32, i32* %94, align 4
  %96 = icmp eq i32 %95, 0
  %97 = getelementptr inbounds %"class.guest_view::GuestViewBase", %"class.guest_view::GuestViewBase"* %0, i64 0, i32 23, i32 1
  %98 = load i32, i32* %97, align 4
  br i1 %96, label %128, label %99

99:                                               ; preds = %92
  %100 = icmp eq i32 %98, 0
  br i1 %100, label %101, label %157

101:                                              ; preds = %99
  %102 = getelementptr inbounds %"class.guest_view::GuestViewBase", %"class.guest_view::GuestViewBase"* %0, i64 0, i32 24
  %103 = load i8, i8* %102, align 4, !range !7
  %104 = icmp eq i8 %103, 0
  br i1 %104, label %105, label %109

105:                                              ; preds = %101
  %106 = load i32, i32* @_ZN10guest_view14kDefaultHeightE, align 4
  %107 = icmp sgt i32 %106, 0
  %108 = select i1 %107, i32 %106, i32 0
  store i32 %108, i32* %97, align 4
  br label %157

109:                                              ; preds = %101
  %110 = getelementptr inbounds %"class.guest_view::GuestViewBase", %"class.guest_view::GuestViewBase"* %0, i64 0, i32 4
  %111 = load %"class.content::WebContents"*, %"class.content::WebContents"** %110, align 8
  %112 = bitcast %"class.content::WebContents"* %111 to %"class.content::RenderWidgetHostView"* (%"class.content::WebContents"*)***
  %113 = load %"class.content::RenderWidgetHostView"* (%"class.content::WebContents"*)**, %"class.content::RenderWidgetHostView"* (%"class.content::WebContents"*)*** %112, align 8
  %114 = getelementptr inbounds %"class.content::RenderWidgetHostView"* (%"class.content::WebContents"*)*, %"class.content::RenderWidgetHostView"* (%"class.content::WebContents"*)** %113, i64 20
  %115 = load %"class.content::RenderWidgetHostView"* (%"class.content::WebContents"*)*, %"class.content::RenderWidgetHostView"* (%"class.content::WebContents"*)** %114, align 8
  %116 = call %"class.content::RenderWidgetHostView"* %115(%"class.content::WebContents"* %111) #17
  %117 = bitcast %"class.content::RenderWidgetHostView"* %116 to i64 (%"class.content::RenderWidgetHostView"*)***
  %118 = load i64 (%"class.content::RenderWidgetHostView"*)**, i64 (%"class.content::RenderWidgetHostView"*)*** %117, align 8
  %119 = getelementptr inbounds i64 (%"class.content::RenderWidgetHostView"*)*, i64 (%"class.content::RenderWidgetHostView"*)** %118, i64 36
  %120 = load i64 (%"class.content::RenderWidgetHostView"*)*, i64 (%"class.content::RenderWidgetHostView"*)** %119, align 8
  %121 = call i64 %120(%"class.content::RenderWidgetHostView"* %116) #17
  %122 = lshr i64 %121, 32
  %123 = trunc i64 %122 to i32
  %124 = load i32, i32* %94, align 4
  %125 = icmp sgt i32 %123, 0
  %126 = select i1 %125, i32 %123, i32 0
  store i32 %126, i32* %97, align 4
  %127 = icmp eq i32 %124, 0
  br i1 %127, label %128, label %157

128:                                              ; preds = %92, %109
  %129 = phi i32 [ %126, %109 ], [ %98, %92 ]
  %130 = icmp eq i32 %129, 0
  br i1 %130, label %157, label %131

131:                                              ; preds = %128
  %132 = getelementptr inbounds %"class.guest_view::GuestViewBase", %"class.guest_view::GuestViewBase"* %0, i64 0, i32 24
  %133 = load i8, i8* %132, align 4, !range !7
  %134 = icmp eq i8 %133, 0
  br i1 %134, label %135, label %139

135:                                              ; preds = %131
  %136 = load i32, i32* @_ZN10guest_view13kDefaultWidthE, align 4
  %137 = icmp sgt i32 %136, 0
  %138 = select i1 %137, i32 %136, i32 0
  br label %153

139:                                              ; preds = %131
  %140 = getelementptr inbounds %"class.guest_view::GuestViewBase", %"class.guest_view::GuestViewBase"* %0, i64 0, i32 4
  %141 = load %"class.content::WebContents"*, %"class.content::WebContents"** %140, align 8
  %142 = bitcast %"class.content::WebContents"* %141 to %"class.content::RenderWidgetHostView"* (%"class.content::WebContents"*)***
  %143 = load %"class.content::RenderWidgetHostView"* (%"class.content::WebContents"*)**, %"class.content::RenderWidgetHostView"* (%"class.content::WebContents"*)*** %142, align 8
  %144 = getelementptr inbounds %"class.content::RenderWidgetHostView"* (%"class.content::WebContents"*)*, %"class.content::RenderWidgetHostView"* (%"class.content::WebContents"*)** %143, i64 20
  %145 = load %"class.content::RenderWidgetHostView"* (%"class.content::WebContents"*)*, %"class.content::RenderWidgetHostView"* (%"class.content::WebContents"*)** %144, align 8
  %146 = call %"class.content::RenderWidgetHostView"* %145(%"class.content::WebContents"* %141) #17
  %147 = bitcast %"class.content::RenderWidgetHostView"* %146 to i64 (%"class.content::RenderWidgetHostView"*)***
  %148 = load i64 (%"class.content::RenderWidgetHostView"*)**, i64 (%"class.content::RenderWidgetHostView"*)*** %147, align 8
  %149 = getelementptr inbounds i64 (%"class.content::RenderWidgetHostView"*)*, i64 (%"class.content::RenderWidgetHostView"*)** %148, i64 36
  %150 = load i64 (%"class.content::RenderWidgetHostView"*)*, i64 (%"class.content::RenderWidgetHostView"*)** %149, align 8
  %151 = call i64 %150(%"class.content::RenderWidgetHostView"* %146) #17
  %152 = trunc i64 %151 to i32
  br label %153

153:                                              ; preds = %135, %139
  %154 = phi i32 [ %152, %139 ], [ %138, %135 ]
  %155 = icmp sgt i32 %154, 0
  %156 = select i1 %155, i32 %154, i32 0
  store i32 %156, i32* %94, align 4
  br label %157

157:                                              ; preds = %99, %105, %128, %109, %153
  %158 = phi i32 [ 0, %128 ], [ %124, %109 ], [ %156, %153 ], [ %95, %105 ], [ %95, %99 ]
  %159 = bitcast i64* %7 to i8*
  call void @llvm.lifetime.start.p0i8(i64 8, i8* nonnull %159) #17
  %160 = bitcast i64* %7 to i32*
  %161 = getelementptr inbounds %"class.gfx::Size", %"class.gfx::Size"* %8, i64 0, i32 1
  store i32 0, i32* %160, align 8
  store i32 0, i32* %161, align 4
  %162 = icmp eq i32 %158, 0
  br i1 %162, label %170, label %163

163:                                              ; preds = %157
  %164 = getelementptr inbounds %"class.guest_view::GuestViewBase", %"class.guest_view::GuestViewBase"* %0, i64 0, i32 23, i32 1
  %165 = load i32, i32* %164, align 4
  %166 = icmp eq i32 %165, 0
  br i1 %166, label %170, label %167

167:                                              ; preds = %163
  %168 = bitcast %"class.gfx::Size"* %93 to i64*
  %169 = load i64, i64* %168, align 4
  store i64 %169, i64* %7, align 8
  br label %216

170:                                              ; preds = %157, %163
  %171 = getelementptr inbounds %"class.guest_view::GuestViewBase", %"class.guest_view::GuestViewBase"* %0, i64 0, i32 18
  %172 = getelementptr inbounds %"class.gfx::Size", %"class.gfx::Size"* %171, i64 0, i32 0
  %173 = load i32, i32* %172, align 4
  %174 = icmp eq i32 %173, 0
  br i1 %174, label %182, label %175

175:                                              ; preds = %170
  %176 = getelementptr inbounds %"class.guest_view::GuestViewBase", %"class.guest_view::GuestViewBase"* %0, i64 0, i32 18, i32 1
  %177 = load i32, i32* %176, align 4
  %178 = icmp eq i32 %177, 0
  br i1 %178, label %182, label %179

179:                                              ; preds = %175
  %180 = bitcast %"class.gfx::Size"* %171 to i64*
  %181 = load i64, i64* %180, align 4
  store i64 %181, i64* %7, align 8
  br label %216

182:                                              ; preds = %170, %175
  %183 = getelementptr inbounds %"class.guest_view::GuestViewBase", %"class.guest_view::GuestViewBase"* %0, i64 0, i32 24
  %184 = load i8, i8* %183, align 4, !range !7
  %185 = icmp eq i8 %184, 0
  br i1 %185, label %186, label %193

186:                                              ; preds = %182
  %187 = load i32, i32* @_ZN10guest_view13kDefaultWidthE, align 4
  %188 = load i32, i32* @_ZN10guest_view14kDefaultHeightE, align 4
  %189 = icmp sgt i32 %187, 0
  %190 = select i1 %189, i32 %187, i32 0
  %191 = icmp sgt i32 %188, 0
  %192 = select i1 %191, i32 %188, i32 0
  br label %209

193:                                              ; preds = %182
  %194 = getelementptr inbounds %"class.guest_view::GuestViewBase", %"class.guest_view::GuestViewBase"* %0, i64 0, i32 4
  %195 = load %"class.content::WebContents"*, %"class.content::WebContents"** %194, align 8
  %196 = bitcast %"class.content::WebContents"* %195 to %"class.content::RenderWidgetHostView"* (%"class.content::WebContents"*)***
  %197 = load %"class.content::RenderWidgetHostView"* (%"class.content::WebContents"*)**, %"class.content::RenderWidgetHostView"* (%"class.content::WebContents"*)*** %196, align 8
  %198 = getelementptr inbounds %"class.content::RenderWidgetHostView"* (%"class.content::WebContents"*)*, %"class.content::RenderWidgetHostView"* (%"class.content::WebContents"*)** %197, i64 20
  %199 = load %"class.content::RenderWidgetHostView"* (%"class.content::WebContents"*)*, %"class.content::RenderWidgetHostView"* (%"class.content::WebContents"*)** %198, align 8
  %200 = call %"class.content::RenderWidgetHostView"* %199(%"class.content::WebContents"* %195) #17
  %201 = bitcast %"class.content::RenderWidgetHostView"* %200 to i64 (%"class.content::RenderWidgetHostView"*)***
  %202 = load i64 (%"class.content::RenderWidgetHostView"*)**, i64 (%"class.content::RenderWidgetHostView"*)*** %201, align 8
  %203 = getelementptr inbounds i64 (%"class.content::RenderWidgetHostView"*)*, i64 (%"class.content::RenderWidgetHostView"*)** %202, i64 36
  %204 = load i64 (%"class.content::RenderWidgetHostView"*)*, i64 (%"class.content::RenderWidgetHostView"*)** %203, align 8
  %205 = call i64 %204(%"class.content::RenderWidgetHostView"* %200) #17
  %206 = trunc i64 %205 to i32
  %207 = lshr i64 %205, 32
  %208 = trunc i64 %207 to i32
  br label %209

209:                                              ; preds = %186, %193
  %210 = phi i32 [ %208, %193 ], [ %192, %186 ]
  %211 = phi i32 [ %206, %193 ], [ %190, %186 ]
  %212 = zext i32 %210 to i64
  %213 = shl nuw i64 %212, 32
  %214 = zext i32 %211 to i64
  %215 = or i64 %213, %214
  store i64 %215, i64* %7, align 8
  br label %216

216:                                              ; preds = %179, %209, %167
  %217 = load i8, i8* %12, align 8, !range !7
  %218 = icmp eq i8 %217, 0
  br i1 %218, label %232, label %219

219:                                              ; preds = %216
  %220 = icmp eq %"class.content::RenderWidgetHostView"* %81, null
  br i1 %220, label %226, label %221

221:                                              ; preds = %219
  %222 = bitcast %"class.content::RenderWidgetHostView"* %81 to void (%"class.content::RenderWidgetHostView"*, %"class.gfx::Size"*)***
  %223 = load void (%"class.content::RenderWidgetHostView"*, %"class.gfx::Size"*)**, void (%"class.content::RenderWidgetHostView"*, %"class.gfx::Size"*)*** %222, align 8
  %224 = getelementptr inbounds void (%"class.content::RenderWidgetHostView"*, %"class.gfx::Size"*)*, void (%"class.content::RenderWidgetHostView"*, %"class.gfx::Size"*)** %223, i64 6
  %225 = load void (%"class.content::RenderWidgetHostView"*, %"class.gfx::Size"*)*, void (%"class.content::RenderWidgetHostView"*, %"class.gfx::Size"*)** %224, align 8
  call void %225(%"class.content::RenderWidgetHostView"* nonnull %81, %"class.gfx::Size"* nonnull dereferenceable(8) %8) #17
  br label %226

226:                                              ; preds = %219, %221
  %227 = getelementptr inbounds %"class.guest_view::GuestViewBase", %"class.guest_view::GuestViewBase"* %0, i64 0, i32 18
  %228 = bitcast %"class.guest_view::GuestViewBase"* %0 to void (%"class.guest_view::GuestViewBase"*, %"class.gfx::Size"*, %"class.gfx::Size"*)***
  %229 = load void (%"class.guest_view::GuestViewBase"*, %"class.gfx::Size"*, %"class.gfx::Size"*)**, void (%"class.guest_view::GuestViewBase"*, %"class.gfx::Size"*, %"class.gfx::Size"*)*** %228, align 8
  %230 = getelementptr inbounds void (%"class.guest_view::GuestViewBase"*, %"class.gfx::Size"*, %"class.gfx::Size"*)*, void (%"class.guest_view::GuestViewBase"*, %"class.gfx::Size"*, %"class.gfx::Size"*)** %229, i64 28
  %231 = load void (%"class.guest_view::GuestViewBase"*, %"class.gfx::Size"*, %"class.gfx::Size"*)*, void (%"class.guest_view::GuestViewBase"*, %"class.gfx::Size"*, %"class.gfx::Size"*)** %230, align 8
  call void %231(%"class.guest_view::GuestViewBase"* %0, %"class.gfx::Size"* dereferenceable(8) %227, %"class.gfx::Size"* nonnull dereferenceable(8) %8) #17
  br label %232

232:                                              ; preds = %216, %226
  %233 = getelementptr inbounds %"class.guest_view::GuestViewBase", %"class.guest_view::GuestViewBase"* %0, i64 0, i32 18
  call void @_ZN10guest_view13GuestViewBase21DispatchOnResizeEventERKN3gfx4SizeES4_(%"class.guest_view::GuestViewBase"* %0, %"class.gfx::Size"* dereferenceable(8) %233, %"class.gfx::Size"* nonnull dereferenceable(8) %8) #17
  %234 = bitcast %"class.gfx::Size"* %233 to i64*
  %235 = load i64, i64* %7, align 8
  store i64 %235, i64* %234, align 8
  call void @llvm.lifetime.end.p0i8(i64 8, i8* nonnull %159) #17
  br label %236

236:                                              ; preds = %232, %89
  store i8 %74, i8* %12, align 8
  call void @llvm.lifetime.end.p0i8(i64 8, i8* nonnull %25) #17
  call void @llvm.lifetime.end.p0i8(i64 8, i8* nonnull %15) #17
  ret void
}

; Function Attrs: argmemonly nounwind
declare void @llvm.memcpy.p0i8.p0i8.i64(i8* nocapture writeonly, i8* nocapture readonly, i64, i1 immarg) #6

declare void @_ZN3gfx4Size8SetToMinERKS0_(%"class.gfx::Size"*, %"class.gfx::Size"* dereferenceable(8)) local_unnamed_addr #2

declare void @_ZN3gfx4Size8SetToMaxERKS0_(%"class.gfx::Size"*, %"class.gfx::Size"* dereferenceable(8)) local_unnamed_addr #2

; Function Attrs: nounwind ssp uwtable
define hidden void @_ZN10guest_view13GuestViewBase15UpdateGuestSizeERKN3gfx4SizeEb(%"class.guest_view::GuestViewBase"*, %"class.gfx::Size"* dereferenceable(8), i1 zeroext) local_unnamed_addr #1 align 2 {
  br i1 %2, label %4, label %10

4:                                                ; preds = %3
  %5 = getelementptr inbounds %"class.guest_view::GuestViewBase", %"class.guest_view::GuestViewBase"* %0, i64 0, i32 18
  %6 = bitcast %"class.guest_view::GuestViewBase"* %0 to void (%"class.guest_view::GuestViewBase"*, %"class.gfx::Size"*, %"class.gfx::Size"*)***
  %7 = load void (%"class.guest_view::GuestViewBase"*, %"class.gfx::Size"*, %"class.gfx::Size"*)**, void (%"class.guest_view::GuestViewBase"*, %"class.gfx::Size"*, %"class.gfx::Size"*)*** %6, align 8
  %8 = getelementptr inbounds void (%"class.guest_view::GuestViewBase"*, %"class.gfx::Size"*, %"class.gfx::Size"*)*, void (%"class.guest_view::GuestViewBase"*, %"class.gfx::Size"*, %"class.gfx::Size"*)** %7, i64 28
  %9 = load void (%"class.guest_view::GuestViewBase"*, %"class.gfx::Size"*, %"class.gfx::Size"*)*, void (%"class.guest_view::GuestViewBase"*, %"class.gfx::Size"*, %"class.gfx::Size"*)** %8, align 8
  tail call void %9(%"class.guest_view::GuestViewBase"* %0, %"class.gfx::Size"* dereferenceable(8) %5, %"class.gfx::Size"* dereferenceable(8) %1) #17
  br label %10

10:                                               ; preds = %4, %3
  %11 = getelementptr inbounds %"class.guest_view::GuestViewBase", %"class.guest_view::GuestViewBase"* %0, i64 0, i32 18
  tail call void @_ZN10guest_view13GuestViewBase21DispatchOnResizeEventERKN3gfx4SizeES4_(%"class.guest_view::GuestViewBase"* %0, %"class.gfx::Size"* dereferenceable(8) %11, %"class.gfx::Size"* dereferenceable(8) %1)
  %12 = bitcast %"class.gfx::Size"* %1 to i64*
  %13 = bitcast %"class.gfx::Size"* %11 to i64*
  %14 = load i64, i64* %12, align 4
  store i64 %14, i64* %13, align 8
  ret void
}

; Function Attrs: norecurse nounwind readnone ssp uwtable
define hidden void @_ZN10guest_view13GuestViewBase7CleanUpEPN7content14BrowserContextEii(%"class.content::BrowserContext"* nocapture, i32, i32) local_unnamed_addr #7 align 2 {
  ret void
}

; Function Attrs: nounwind ssp uwtable
define hidden %"class.guest_view::GuestViewBase"* @_ZN10guest_view13GuestViewBase15FromWebContentsEPKN7content11WebContentsE(%"class.content::WebContents"*) local_unnamed_addr #1 align 2 {
  %2 = load atomic i64, i64* getelementptr inbounds (%"class.base::LazyInstance", %"class.base::LazyInstance"* @_ZN10guest_view12_GLOBAL__N_127g_webcontents_guestview_mapE, i64 0, i32 0) acquire, align 8
  %3 = icmp ugt i64 %2, 1
  br i1 %3, label %9, label %4

4:                                                ; preds = %1
  %5 = tail call zeroext i1 @_ZN4base8internal17NeedsLazyInstanceEPl(i64* getelementptr inbounds (%"class.base::LazyInstance", %"class.base::LazyInstance"* @_ZN10guest_view12_GLOBAL__N_127g_webcontents_guestview_mapE, i64 0, i32 0)) #17
  br i1 %5, label %6, label %7

6:                                                ; preds = %4
  tail call void @llvm.memset.p0i8.i64(i8* align 8 getelementptr inbounds (%"class.base::LazyInstance", %"class.base::LazyInstance"* @_ZN10guest_view12_GLOBAL__N_127g_webcontents_guestview_mapE, i64 0, i32 1, i64 8), i8 0, i64 16, i1 false) #17
  store i8* getelementptr inbounds (%"class.base::LazyInstance", %"class.base::LazyInstance"* @_ZN10guest_view12_GLOBAL__N_127g_webcontents_guestview_mapE, i64 0, i32 1, i64 8), i8** bitcast (i8* getelementptr inbounds (%"class.base::LazyInstance", %"class.base::LazyInstance"* @_ZN10guest_view12_GLOBAL__N_127g_webcontents_guestview_mapE, i64 0, i32 1, i64 0) to i8**), align 8
  tail call void @_ZN4base8internal20CompleteLazyInstanceEPllPFvPvES2_(i64* getelementptr inbounds (%"class.base::LazyInstance", %"class.base::LazyInstance"* @_ZN10guest_view12_GLOBAL__N_127g_webcontents_guestview_mapE, i64 0, i32 0), i64 ptrtoint (i8* getelementptr inbounds (%"class.base::LazyInstance", %"class.base::LazyInstance"* @_ZN10guest_view12_GLOBAL__N_127g_webcontents_guestview_mapE, i64 0, i32 1, i64 0) to i64), void (i8*)* null, i8* bitcast (%"class.base::LazyInstance"* @_ZN10guest_view12_GLOBAL__N_127g_webcontents_guestview_mapE to i8*)) #17
  br label %9

7:                                                ; preds = %4
  %8 = load atomic i64, i64* getelementptr inbounds (%"class.base::LazyInstance", %"class.base::LazyInstance"* @_ZN10guest_view12_GLOBAL__N_127g_webcontents_guestview_mapE, i64 0, i32 0) acquire, align 8
  br label %9

9:                                                ; preds = %1, %6, %7
  %10 = phi i64 [ %2, %1 ], [ ptrtoint (i8* getelementptr inbounds (%"class.base::LazyInstance", %"class.base::LazyInstance"* @_ZN10guest_view12_GLOBAL__N_127g_webcontents_guestview_mapE, i64 0, i32 1, i64 0) to i64), %6 ], [ %8, %7 ]
  %11 = inttoptr i64 %10 to %"class.std::__1::map.153"*
  %12 = getelementptr inbounds %"class.std::__1::map.153", %"class.std::__1::map.153"* %11, i64 0, i32 0, i32 1, i32 0, i32 0
  %13 = bitcast %"class.std::__1::__tree_end_node"* %12 to %"class.std::__1::__tree_node"**
  %14 = load %"class.std::__1::__tree_node"*, %"class.std::__1::__tree_node"** %13, align 8
  %15 = icmp eq %"class.std::__1::__tree_node"* %14, null
  br i1 %15, label %41, label %16

16:                                               ; preds = %9, %16
  %17 = phi %"class.std::__1::__tree_end_node"* [ %27, %16 ], [ %12, %9 ]
  %18 = phi %"class.std::__1::__tree_node"* [ %28, %16 ], [ %14, %9 ]
  %19 = getelementptr inbounds %"class.std::__1::__tree_node", %"class.std::__1::__tree_node"* %18, i64 0, i32 1, i32 0, i32 0
  %20 = load %"class.content::WebContents"*, %"class.content::WebContents"** %19, align 8
  %21 = icmp ult %"class.content::WebContents"* %20, %0
  %22 = getelementptr inbounds %"class.std::__1::__tree_node", %"class.std::__1::__tree_node"* %18, i64 0, i32 0, i32 1
  %23 = bitcast %"class.std::__1::__tree_node_base"** %22 to %"class.std::__1::__tree_node"**
  %24 = getelementptr inbounds %"class.std::__1::__tree_node", %"class.std::__1::__tree_node"* %18, i64 0, i32 0, i32 0
  %25 = bitcast %"class.std::__1::__tree_node"* %18 to %"class.std::__1::__tree_node"**
  %26 = select i1 %21, %"class.std::__1::__tree_node"** %23, %"class.std::__1::__tree_node"** %25
  %27 = select i1 %21, %"class.std::__1::__tree_end_node"* %17, %"class.std::__1::__tree_end_node"* %24
  %28 = load %"class.std::__1::__tree_node"*, %"class.std::__1::__tree_node"** %26, align 8
  %29 = icmp eq %"class.std::__1::__tree_node"* %28, null
  br i1 %29, label %30, label %16

30:                                               ; preds = %16
  %31 = icmp eq %"class.std::__1::__tree_end_node"* %27, %12
  br i1 %31, label %41, label %32

32:                                               ; preds = %30
  %33 = getelementptr inbounds %"class.std::__1::__tree_end_node", %"class.std::__1::__tree_end_node"* %27, i64 4
  %34 = bitcast %"class.std::__1::__tree_end_node"* %33 to %"class.content::WebContents"**
  %35 = load %"class.content::WebContents"*, %"class.content::WebContents"** %34, align 8
  %36 = icmp ugt %"class.content::WebContents"* %35, %0
  br i1 %36, label %41, label %37

37:                                               ; preds = %32
  %38 = getelementptr inbounds %"class.std::__1::__tree_end_node", %"class.std::__1::__tree_end_node"* %27, i64 5
  %39 = bitcast %"class.std::__1::__tree_end_node"* %38 to %"class.guest_view::GuestViewBase"**
  %40 = load %"class.guest_view::GuestViewBase"*, %"class.guest_view::GuestViewBase"** %39, align 8
  br label %41

41:                                               ; preds = %32, %30, %9, %37
  %42 = phi %"class.guest_view::GuestViewBase"* [ %40, %37 ], [ null, %9 ], [ null, %30 ], [ null, %32 ]
  ret %"class.guest_view::GuestViewBase"* %42
}

; Function Attrs: nounwind ssp uwtable
define hidden %"class.guest_view::GuestViewBase"* @_ZN10guest_view13GuestViewBase4FromEii(i32, i32) local_unnamed_addr #1 align 2 {
  %3 = tail call %"class.content::RenderProcessHost"* @_ZN7content17RenderProcessHost6FromIDEi(i32 %0) #17
  %4 = icmp eq %"class.content::RenderProcessHost"* %3, null
  br i1 %4, label %54, label %5

5:                                                ; preds = %2
  %6 = bitcast %"class.content::RenderProcessHost"* %3 to %"class.content::BrowserContext"* (%"class.content::RenderProcessHost"*)***
  %7 = load %"class.content::BrowserContext"* (%"class.content::RenderProcessHost"*)**, %"class.content::BrowserContext"* (%"class.content::RenderProcessHost"*)*** %6, align 8
  %8 = getelementptr inbounds %"class.content::BrowserContext"* (%"class.content::RenderProcessHost"*)*, %"class.content::BrowserContext"* (%"class.content::RenderProcessHost"*)** %7, i64 27
  %9 = load %"class.content::BrowserContext"* (%"class.content::RenderProcessHost"*)*, %"class.content::BrowserContext"* (%"class.content::RenderProcessHost"*)** %8, align 8
  %10 = tail call %"class.content::BrowserContext"* %9(%"class.content::RenderProcessHost"* nonnull %3) #17
  %11 = tail call %"class.guest_view::GuestViewManager"* @_ZN10guest_view16GuestViewManager18FromBrowserContextEPN7content14BrowserContextE(%"class.content::BrowserContext"* %10) #17
  %12 = tail call %"class.content::WebContents"* @_ZN10guest_view16GuestViewManager26GetGuestByInstanceIDSafelyEii(%"class.guest_view::GuestViewManager"* %11, i32 %1, i32 %0) #17
  %13 = icmp eq %"class.content::WebContents"* %12, null
  br i1 %13, label %54, label %14

14:                                               ; preds = %5
  %15 = load atomic i64, i64* getelementptr inbounds (%"class.base::LazyInstance", %"class.base::LazyInstance"* @_ZN10guest_view12_GLOBAL__N_127g_webcontents_guestview_mapE, i64 0, i32 0) acquire, align 8
  %16 = icmp ugt i64 %15, 1
  br i1 %16, label %22, label %17

17:                                               ; preds = %14
  %18 = tail call zeroext i1 @_ZN4base8internal17NeedsLazyInstanceEPl(i64* getelementptr inbounds (%"class.base::LazyInstance", %"class.base::LazyInstance"* @_ZN10guest_view12_GLOBAL__N_127g_webcontents_guestview_mapE, i64 0, i32 0)) #17
  br i1 %18, label %19, label %20

19:                                               ; preds = %17
  tail call void @llvm.memset.p0i8.i64(i8* align 8 getelementptr inbounds (%"class.base::LazyInstance", %"class.base::LazyInstance"* @_ZN10guest_view12_GLOBAL__N_127g_webcontents_guestview_mapE, i64 0, i32 1, i64 8), i8 0, i64 16, i1 false) #17
  store i8* getelementptr inbounds (%"class.base::LazyInstance", %"class.base::LazyInstance"* @_ZN10guest_view12_GLOBAL__N_127g_webcontents_guestview_mapE, i64 0, i32 1, i64 8), i8** bitcast (i8* getelementptr inbounds (%"class.base::LazyInstance", %"class.base::LazyInstance"* @_ZN10guest_view12_GLOBAL__N_127g_webcontents_guestview_mapE, i64 0, i32 1, i64 0) to i8**), align 8
  tail call void @_ZN4base8internal20CompleteLazyInstanceEPllPFvPvES2_(i64* getelementptr inbounds (%"class.base::LazyInstance", %"class.base::LazyInstance"* @_ZN10guest_view12_GLOBAL__N_127g_webcontents_guestview_mapE, i64 0, i32 0), i64 ptrtoint (i8* getelementptr inbounds (%"class.base::LazyInstance", %"class.base::LazyInstance"* @_ZN10guest_view12_GLOBAL__N_127g_webcontents_guestview_mapE, i64 0, i32 1, i64 0) to i64), void (i8*)* null, i8* bitcast (%"class.base::LazyInstance"* @_ZN10guest_view12_GLOBAL__N_127g_webcontents_guestview_mapE to i8*)) #17
  br label %22

20:                                               ; preds = %17
  %21 = load atomic i64, i64* getelementptr inbounds (%"class.base::LazyInstance", %"class.base::LazyInstance"* @_ZN10guest_view12_GLOBAL__N_127g_webcontents_guestview_mapE, i64 0, i32 0) acquire, align 8
  br label %22

22:                                               ; preds = %20, %19, %14
  %23 = phi i64 [ %15, %14 ], [ ptrtoint (i8* getelementptr inbounds (%"class.base::LazyInstance", %"class.base::LazyInstance"* @_ZN10guest_view12_GLOBAL__N_127g_webcontents_guestview_mapE, i64 0, i32 1, i64 0) to i64), %19 ], [ %21, %20 ]
  %24 = inttoptr i64 %23 to %"class.std::__1::map.153"*
  %25 = getelementptr inbounds %"class.std::__1::map.153", %"class.std::__1::map.153"* %24, i64 0, i32 0, i32 1, i32 0, i32 0
  %26 = bitcast %"class.std::__1::__tree_end_node"* %25 to %"class.std::__1::__tree_node"**
  %27 = load %"class.std::__1::__tree_node"*, %"class.std::__1::__tree_node"** %26, align 8
  %28 = icmp eq %"class.std::__1::__tree_node"* %27, null
  br i1 %28, label %54, label %29

29:                                               ; preds = %22, %29
  %30 = phi %"class.std::__1::__tree_end_node"* [ %40, %29 ], [ %25, %22 ]
  %31 = phi %"class.std::__1::__tree_node"* [ %41, %29 ], [ %27, %22 ]
  %32 = getelementptr inbounds %"class.std::__1::__tree_node", %"class.std::__1::__tree_node"* %31, i64 0, i32 1, i32 0, i32 0
  %33 = load %"class.content::WebContents"*, %"class.content::WebContents"** %32, align 8
  %34 = icmp ult %"class.content::WebContents"* %33, %12
  %35 = getelementptr inbounds %"class.std::__1::__tree_node", %"class.std::__1::__tree_node"* %31, i64 0, i32 0, i32 1
  %36 = bitcast %"class.std::__1::__tree_node_base"** %35 to %"class.std::__1::__tree_node"**
  %37 = getelementptr inbounds %"class.std::__1::__tree_node", %"class.std::__1::__tree_node"* %31, i64 0, i32 0, i32 0
  %38 = bitcast %"class.std::__1::__tree_node"* %31 to %"class.std::__1::__tree_node"**
  %39 = select i1 %34, %"class.std::__1::__tree_node"** %36, %"class.std::__1::__tree_node"** %38
  %40 = select i1 %34, %"class.std::__1::__tree_end_node"* %30, %"class.std::__1::__tree_end_node"* %37
  %41 = load %"class.std::__1::__tree_node"*, %"class.std::__1::__tree_node"** %39, align 8
  %42 = icmp eq %"class.std::__1::__tree_node"* %41, null
  br i1 %42, label %43, label %29

43:                                               ; preds = %29
  %44 = icmp eq %"class.std::__1::__tree_end_node"* %40, %25
  br i1 %44, label %54, label %45

45:                                               ; preds = %43
  %46 = getelementptr inbounds %"class.std::__1::__tree_end_node", %"class.std::__1::__tree_end_node"* %40, i64 4
  %47 = bitcast %"class.std::__1::__tree_end_node"* %46 to %"class.content::WebContents"**
  %48 = load %"class.content::WebContents"*, %"class.content::WebContents"** %47, align 8
  %49 = icmp ugt %"class.content::WebContents"* %48, %12
  br i1 %49, label %54, label %50

50:                                               ; preds = %45
  %51 = getelementptr inbounds %"class.std::__1::__tree_end_node", %"class.std::__1::__tree_end_node"* %40, i64 5
  %52 = bitcast %"class.std::__1::__tree_end_node"* %51 to %"class.guest_view::GuestViewBase"**
  %53 = load %"class.guest_view::GuestViewBase"*, %"class.guest_view::GuestViewBase"** %52, align 8
  br label %54

54:                                               ; preds = %50, %45, %43, %22, %5, %2
  %55 = phi %"class.guest_view::GuestViewBase"* [ null, %2 ], [ null, %5 ], [ %53, %50 ], [ null, %22 ], [ null, %43 ], [ null, %45 ]
  ret %"class.guest_view::GuestViewBase"* %55
}

declare %"class.content::RenderProcessHost"* @_ZN7content17RenderProcessHost6FromIDEi(i32) local_unnamed_addr #2

declare %"class.guest_view::GuestViewManager"* @_ZN10guest_view16GuestViewManager18FromBrowserContextEPN7content14BrowserContextE(%"class.content::BrowserContext"*) local_unnamed_addr #2

declare %"class.content::WebContents"* @_ZN10guest_view16GuestViewManager26GetGuestByInstanceIDSafelyEii(%"class.guest_view::GuestViewManager"*, i32, i32) local_unnamed_addr #2

; Function Attrs: nounwind ssp uwtable
define hidden %"class.content::WebContents"* @_ZN10guest_view13GuestViewBase22GetTopLevelWebContentsEPN7content11WebContentsE(%"class.content::WebContents"* readnone) local_unnamed_addr #1 align 2 {
  br label %2

2:                                                ; preds = %44, %1
  %3 = phi %"class.content::WebContents"* [ %0, %1 ], [ %46, %44 ]
  %4 = load atomic i64, i64* getelementptr inbounds (%"class.base::LazyInstance", %"class.base::LazyInstance"* @_ZN10guest_view12_GLOBAL__N_127g_webcontents_guestview_mapE, i64 0, i32 0) acquire, align 8
  %5 = icmp ugt i64 %4, 1
  br i1 %5, label %11, label %6

6:                                                ; preds = %2
  %7 = tail call zeroext i1 @_ZN4base8internal17NeedsLazyInstanceEPl(i64* getelementptr inbounds (%"class.base::LazyInstance", %"class.base::LazyInstance"* @_ZN10guest_view12_GLOBAL__N_127g_webcontents_guestview_mapE, i64 0, i32 0)) #17
  br i1 %7, label %8, label %9

8:                                                ; preds = %6
  tail call void @llvm.memset.p0i8.i64(i8* align 8 getelementptr inbounds (%"class.base::LazyInstance", %"class.base::LazyInstance"* @_ZN10guest_view12_GLOBAL__N_127g_webcontents_guestview_mapE, i64 0, i32 1, i64 8), i8 0, i64 16, i1 false) #17
  store i8* getelementptr inbounds (%"class.base::LazyInstance", %"class.base::LazyInstance"* @_ZN10guest_view12_GLOBAL__N_127g_webcontents_guestview_mapE, i64 0, i32 1, i64 8), i8** bitcast (i8* getelementptr inbounds (%"class.base::LazyInstance", %"class.base::LazyInstance"* @_ZN10guest_view12_GLOBAL__N_127g_webcontents_guestview_mapE, i64 0, i32 1, i64 0) to i8**), align 8
  tail call void @_ZN4base8internal20CompleteLazyInstanceEPllPFvPvES2_(i64* getelementptr inbounds (%"class.base::LazyInstance", %"class.base::LazyInstance"* @_ZN10guest_view12_GLOBAL__N_127g_webcontents_guestview_mapE, i64 0, i32 0), i64 ptrtoint (i8* getelementptr inbounds (%"class.base::LazyInstance", %"class.base::LazyInstance"* @_ZN10guest_view12_GLOBAL__N_127g_webcontents_guestview_mapE, i64 0, i32 1, i64 0) to i64), void (i8*)* null, i8* bitcast (%"class.base::LazyInstance"* @_ZN10guest_view12_GLOBAL__N_127g_webcontents_guestview_mapE to i8*)) #17
  br label %11

9:                                                ; preds = %6
  %10 = load atomic i64, i64* getelementptr inbounds (%"class.base::LazyInstance", %"class.base::LazyInstance"* @_ZN10guest_view12_GLOBAL__N_127g_webcontents_guestview_mapE, i64 0, i32 0) acquire, align 8
  br label %11

11:                                               ; preds = %9, %8, %2
  %12 = phi i64 [ %4, %2 ], [ ptrtoint (i8* getelementptr inbounds (%"class.base::LazyInstance", %"class.base::LazyInstance"* @_ZN10guest_view12_GLOBAL__N_127g_webcontents_guestview_mapE, i64 0, i32 1, i64 0) to i64), %8 ], [ %10, %9 ]
  %13 = inttoptr i64 %12 to %"class.std::__1::map.153"*
  %14 = getelementptr inbounds %"class.std::__1::map.153", %"class.std::__1::map.153"* %13, i64 0, i32 0, i32 1, i32 0, i32 0
  %15 = bitcast %"class.std::__1::__tree_end_node"* %14 to %"class.std::__1::__tree_node"**
  %16 = load %"class.std::__1::__tree_node"*, %"class.std::__1::__tree_node"** %15, align 8
  %17 = icmp eq %"class.std::__1::__tree_node"* %16, null
  br i1 %17, label %47, label %18

18:                                               ; preds = %11, %18
  %19 = phi %"class.std::__1::__tree_end_node"* [ %29, %18 ], [ %14, %11 ]
  %20 = phi %"class.std::__1::__tree_node"* [ %30, %18 ], [ %16, %11 ]
  %21 = getelementptr inbounds %"class.std::__1::__tree_node", %"class.std::__1::__tree_node"* %20, i64 0, i32 1, i32 0, i32 0
  %22 = load %"class.content::WebContents"*, %"class.content::WebContents"** %21, align 8
  %23 = icmp ult %"class.content::WebContents"* %22, %3
  %24 = getelementptr inbounds %"class.std::__1::__tree_node", %"class.std::__1::__tree_node"* %20, i64 0, i32 0, i32 1
  %25 = bitcast %"class.std::__1::__tree_node_base"** %24 to %"class.std::__1::__tree_node"**
  %26 = getelementptr inbounds %"class.std::__1::__tree_node", %"class.std::__1::__tree_node"* %20, i64 0, i32 0, i32 0
  %27 = bitcast %"class.std::__1::__tree_node"* %20 to %"class.std::__1::__tree_node"**
  %28 = select i1 %23, %"class.std::__1::__tree_node"** %25, %"class.std::__1::__tree_node"** %27
  %29 = select i1 %23, %"class.std::__1::__tree_end_node"* %19, %"class.std::__1::__tree_end_node"* %26
  %30 = load %"class.std::__1::__tree_node"*, %"class.std::__1::__tree_node"** %28, align 8
  %31 = icmp eq %"class.std::__1::__tree_node"* %30, null
  br i1 %31, label %32, label %18

32:                                               ; preds = %18
  %33 = icmp eq %"class.std::__1::__tree_end_node"* %29, %14
  br i1 %33, label %47, label %34

34:                                               ; preds = %32
  %35 = getelementptr inbounds %"class.std::__1::__tree_end_node", %"class.std::__1::__tree_end_node"* %29, i64 4
  %36 = bitcast %"class.std::__1::__tree_end_node"* %35 to %"class.content::WebContents"**
  %37 = load %"class.content::WebContents"*, %"class.content::WebContents"** %36, align 8
  %38 = icmp ugt %"class.content::WebContents"* %37, %3
  br i1 %38, label %47, label %39

39:                                               ; preds = %34
  %40 = getelementptr inbounds %"class.std::__1::__tree_end_node", %"class.std::__1::__tree_end_node"* %29, i64 5
  %41 = bitcast %"class.std::__1::__tree_end_node"* %40 to %"class.guest_view::GuestViewBase"**
  %42 = load %"class.guest_view::GuestViewBase"*, %"class.guest_view::GuestViewBase"** %41, align 8
  %43 = icmp eq %"class.guest_view::GuestViewBase"* %42, null
  br i1 %43, label %47, label %44

44:                                               ; preds = %39
  %45 = getelementptr inbounds %"class.guest_view::GuestViewBase", %"class.guest_view::GuestViewBase"* %42, i64 0, i32 4
  %46 = load %"class.content::WebContents"*, %"class.content::WebContents"** %45, align 8
  br label %2

47:                                               ; preds = %34, %32, %11, %39
  ret %"class.content::WebContents"* %3
}

; Function Attrs: nounwind ssp uwtable
define hidden zeroext i1 @_ZN10guest_view13GuestViewBase7IsGuestEPN7content11WebContentsE(%"class.content::WebContents"* readnone) local_unnamed_addr #1 align 2 {
  %2 = load atomic i64, i64* getelementptr inbounds (%"class.base::LazyInstance", %"class.base::LazyInstance"* @_ZN10guest_view12_GLOBAL__N_127g_webcontents_guestview_mapE, i64 0, i32 0) acquire, align 8
  %3 = icmp ugt i64 %2, 1
  br i1 %3, label %9, label %4

4:                                                ; preds = %1
  %5 = tail call zeroext i1 @_ZN4base8internal17NeedsLazyInstanceEPl(i64* getelementptr inbounds (%"class.base::LazyInstance", %"class.base::LazyInstance"* @_ZN10guest_view12_GLOBAL__N_127g_webcontents_guestview_mapE, i64 0, i32 0)) #17
  br i1 %5, label %6, label %7

6:                                                ; preds = %4
  tail call void @llvm.memset.p0i8.i64(i8* align 8 getelementptr inbounds (%"class.base::LazyInstance", %"class.base::LazyInstance"* @_ZN10guest_view12_GLOBAL__N_127g_webcontents_guestview_mapE, i64 0, i32 1, i64 8), i8 0, i64 16, i1 false) #17
  store i8* getelementptr inbounds (%"class.base::LazyInstance", %"class.base::LazyInstance"* @_ZN10guest_view12_GLOBAL__N_127g_webcontents_guestview_mapE, i64 0, i32 1, i64 8), i8** bitcast (i8* getelementptr inbounds (%"class.base::LazyInstance", %"class.base::LazyInstance"* @_ZN10guest_view12_GLOBAL__N_127g_webcontents_guestview_mapE, i64 0, i32 1, i64 0) to i8**), align 8
  tail call void @_ZN4base8internal20CompleteLazyInstanceEPllPFvPvES2_(i64* getelementptr inbounds (%"class.base::LazyInstance", %"class.base::LazyInstance"* @_ZN10guest_view12_GLOBAL__N_127g_webcontents_guestview_mapE, i64 0, i32 0), i64 ptrtoint (i8* getelementptr inbounds (%"class.base::LazyInstance", %"class.base::LazyInstance"* @_ZN10guest_view12_GLOBAL__N_127g_webcontents_guestview_mapE, i64 0, i32 1, i64 0) to i64), void (i8*)* null, i8* bitcast (%"class.base::LazyInstance"* @_ZN10guest_view12_GLOBAL__N_127g_webcontents_guestview_mapE to i8*)) #17
  br label %9

7:                                                ; preds = %4
  %8 = load atomic i64, i64* getelementptr inbounds (%"class.base::LazyInstance", %"class.base::LazyInstance"* @_ZN10guest_view12_GLOBAL__N_127g_webcontents_guestview_mapE, i64 0, i32 0) acquire, align 8
  br label %9

9:                                                ; preds = %7, %6, %1
  %10 = phi i64 [ %2, %1 ], [ ptrtoint (i8* getelementptr inbounds (%"class.base::LazyInstance", %"class.base::LazyInstance"* @_ZN10guest_view12_GLOBAL__N_127g_webcontents_guestview_mapE, i64 0, i32 1, i64 0) to i64), %6 ], [ %8, %7 ]
  %11 = inttoptr i64 %10 to %"class.std::__1::map.153"*
  %12 = getelementptr inbounds %"class.std::__1::map.153", %"class.std::__1::map.153"* %11, i64 0, i32 0, i32 1, i32 0, i32 0
  %13 = bitcast %"class.std::__1::__tree_end_node"* %12 to %"class.std::__1::__tree_node"**
  %14 = load %"class.std::__1::__tree_node"*, %"class.std::__1::__tree_node"** %13, align 8
  %15 = icmp eq %"class.std::__1::__tree_node"* %14, null
  br i1 %15, label %42, label %16

16:                                               ; preds = %9, %16
  %17 = phi %"class.std::__1::__tree_end_node"* [ %27, %16 ], [ %12, %9 ]
  %18 = phi %"class.std::__1::__tree_node"* [ %28, %16 ], [ %14, %9 ]
  %19 = getelementptr inbounds %"class.std::__1::__tree_node", %"class.std::__1::__tree_node"* %18, i64 0, i32 1, i32 0, i32 0
  %20 = load %"class.content::WebContents"*, %"class.content::WebContents"** %19, align 8
  %21 = icmp ult %"class.content::WebContents"* %20, %0
  %22 = getelementptr inbounds %"class.std::__1::__tree_node", %"class.std::__1::__tree_node"* %18, i64 0, i32 0, i32 1
  %23 = bitcast %"class.std::__1::__tree_node_base"** %22 to %"class.std::__1::__tree_node"**
  %24 = getelementptr inbounds %"class.std::__1::__tree_node", %"class.std::__1::__tree_node"* %18, i64 0, i32 0, i32 0
  %25 = bitcast %"class.std::__1::__tree_node"* %18 to %"class.std::__1::__tree_node"**
  %26 = select i1 %21, %"class.std::__1::__tree_node"** %23, %"class.std::__1::__tree_node"** %25
  %27 = select i1 %21, %"class.std::__1::__tree_end_node"* %17, %"class.std::__1::__tree_end_node"* %24
  %28 = load %"class.std::__1::__tree_node"*, %"class.std::__1::__tree_node"** %26, align 8
  %29 = icmp eq %"class.std::__1::__tree_node"* %28, null
  br i1 %29, label %30, label %16

30:                                               ; preds = %16
  %31 = icmp eq %"class.std::__1::__tree_end_node"* %27, %12
  br i1 %31, label %42, label %32

32:                                               ; preds = %30
  %33 = getelementptr inbounds %"class.std::__1::__tree_end_node", %"class.std::__1::__tree_end_node"* %27, i64 4
  %34 = bitcast %"class.std::__1::__tree_end_node"* %33 to %"class.content::WebContents"**
  %35 = load %"class.content::WebContents"*, %"class.content::WebContents"** %34, align 8
  %36 = icmp ugt %"class.content::WebContents"* %35, %0
  br i1 %36, label %42, label %37

37:                                               ; preds = %32
  %38 = getelementptr inbounds %"class.std::__1::__tree_end_node", %"class.std::__1::__tree_end_node"* %27, i64 5
  %39 = bitcast %"class.std::__1::__tree_end_node"* %38 to %"class.guest_view::GuestViewBase"**
  %40 = load %"class.guest_view::GuestViewBase"*, %"class.guest_view::GuestViewBase"** %39, align 8
  %41 = icmp ne %"class.guest_view::GuestViewBase"* %40, null
  br label %42

42:                                               ; preds = %9, %30, %32, %37
  %43 = phi i1 [ %41, %37 ], [ false, %9 ], [ false, %30 ], [ false, %32 ]
  ret i1 %43
}

; Function Attrs: norecurse nounwind readnone ssp uwtable
define hidden zeroext i1 @_ZNK10guest_view13GuestViewBase19IsAutoSizeSupportedEv(%"class.guest_view::GuestViewBase"* nocapture readnone) unnamed_addr #7 align 2 {
  ret i1 false
}

; Function Attrs: norecurse nounwind readnone ssp uwtable
define hidden zeroext i1 @_ZNK10guest_view13GuestViewBase26IsPreferredSizeModeEnabledEv(%"class.guest_view::GuestViewBase"* nocapture readnone) unnamed_addr #7 align 2 {
  ret i1 false
}

; Function Attrs: norecurse nounwind readnone ssp uwtable
define hidden zeroext i1 @_ZNK10guest_view13GuestViewBase33ZoomPropagatesFromEmbedderToGuestEv(%"class.guest_view::GuestViewBase"* nocapture readnone) unnamed_addr #7 align 2 {
  ret i1 true
}

; Function Attrs: nounwind ssp uwtable
define hidden %"class.content::WebContents"* @_ZN10guest_view13GuestViewBase20CreateNewGuestWindowERKN7content11WebContents12CreateParamsE(%"class.guest_view::GuestViewBase"*, %"struct.content::WebContents::CreateParams"* dereferenceable(232)) unnamed_addr #1 align 2 {
  %3 = alloca %"class.std::__1::basic_string", align 8
  %4 = getelementptr inbounds %"class.guest_view::GuestViewBase", %"class.guest_view::GuestViewBase"* %0, i64 0, i32 6
  %5 = load %"class.content::BrowserContext"*, %"class.content::BrowserContext"** %4, align 8
  %6 = tail call %"class.guest_view::GuestViewManager"* @_ZN10guest_view16GuestViewManager18FromBrowserContextEPN7content14BrowserContextE(%"class.content::BrowserContext"* %5) #17
  %7 = bitcast %"class.std::__1::basic_string"* %3 to i8*
  call void @llvm.lifetime.start.p0i8(i64 24, i8* nonnull %7) #17
  %8 = bitcast %"class.guest_view::GuestViewBase"* %0 to i8* (%"class.guest_view::GuestViewBase"*)***
  %9 = load i8* (%"class.guest_view::GuestViewBase"*)**, i8* (%"class.guest_view::GuestViewBase"*)*** %8, align 8
  %10 = getelementptr inbounds i8* (%"class.guest_view::GuestViewBase"*)*, i8* (%"class.guest_view::GuestViewBase"*)** %9, i64 5
  %11 = load i8* (%"class.guest_view::GuestViewBase"*)*, i8* (%"class.guest_view::GuestViewBase"*)** %10, align 8
  %12 = tail call i8* %11(%"class.guest_view::GuestViewBase"* %0) #17
  %13 = tail call i64 @strlen(i8* %12) #17
  %14 = icmp ugt i64 %13, -17
  br i1 %14, label %15, label %17

15:                                               ; preds = %2
  %16 = bitcast %"class.std::__1::basic_string"* %3 to %"class.std::__1::__basic_string_common"*
  call void @_ZNKSt3__121__basic_string_commonILb1EE20__throw_length_errorEv(%"class.std::__1::__basic_string_common"* nonnull %16) #18
  unreachable

17:                                               ; preds = %2
  %18 = icmp ult i64 %13, 23
  br i1 %18, label %28, label %19

19:                                               ; preds = %17
  %20 = add nuw i64 %13, 16
  %21 = and i64 %20, -16
  %22 = tail call i8* @_Znwm(i64 %21) #16
  %23 = getelementptr inbounds %"class.std::__1::basic_string", %"class.std::__1::basic_string"* %3, i64 0, i32 0, i32 0, i32 0, i32 0, i32 0, i32 0
  store i8* %22, i8** %23, align 8
  %24 = or i64 %21, -9223372036854775808
  %25 = getelementptr inbounds %"class.std::__1::basic_string", %"class.std::__1::basic_string"* %3, i64 0, i32 0, i32 0, i32 0, i32 0, i32 0, i32 2
  store i64 %24, i64* %25, align 8
  %26 = getelementptr inbounds %"class.std::__1::basic_string", %"class.std::__1::basic_string"* %3, i64 0, i32 0, i32 0, i32 0, i32 0, i32 0, i32 1
  store i64 %13, i64* %26, align 8
  %27 = bitcast %"class.std::__1::basic_string"* %3 to %"struct.std::__1::basic_string<char, std::__1::char_traits<char>, std::__1::allocator<char> >::__short"*
  br label %33

28:                                               ; preds = %17
  %29 = trunc i64 %13 to i8
  %30 = bitcast %"class.std::__1::basic_string"* %3 to %"struct.std::__1::basic_string<char, std::__1::char_traits<char>, std::__1::allocator<char> >::__short"*
  %31 = getelementptr inbounds %"struct.std::__1::basic_string<char, std::__1::char_traits<char>, std::__1::allocator<char> >::__short", %"struct.std::__1::basic_string<char, std::__1::char_traits<char>, std::__1::allocator<char> >::__short"* %30, i64 0, i32 1, i32 0
  store i8 %29, i8* %31, align 1
  %32 = icmp eq i64 %13, 0
  br i1 %32, label %36, label %33

33:                                               ; preds = %28, %19
  %34 = phi %"struct.std::__1::basic_string<char, std::__1::char_traits<char>, std::__1::allocator<char> >::__short"* [ %30, %28 ], [ %27, %19 ]
  %35 = phi i8* [ %7, %28 ], [ %22, %19 ]
  call void @llvm.memcpy.p0i8.p0i8.i64(i8* nonnull align 1 %35, i8* align 1 %12, i64 %13, i1 false) #17
  br label %36

36:                                               ; preds = %28, %33
  %37 = phi %"struct.std::__1::basic_string<char, std::__1::char_traits<char>, std::__1::allocator<char> >::__short"* [ %30, %28 ], [ %34, %33 ]
  %38 = phi i8* [ %7, %28 ], [ %35, %33 ]
  %39 = getelementptr inbounds i8, i8* %38, i64 %13
  store i8 0, i8* %39, align 1
  %40 = getelementptr inbounds %"class.guest_view::GuestViewBase", %"class.guest_view::GuestViewBase"* %0, i64 0, i32 4
  %41 = load %"class.content::WebContents"*, %"class.content::WebContents"** %40, align 8
  %42 = call %"class.content::WebContents"* @_ZN10guest_view16GuestViewManager32CreateGuestWithWebContentsParamsERKNSt3__112basic_stringIcNS1_11char_traitsIcEENS1_9allocatorIcEEEEPN7content11WebContentsERKNSB_12CreateParamsE(%"class.guest_view::GuestViewManager"* %6, %"class.std::__1::basic_string"* nonnull dereferenceable(24) %3, %"class.content::WebContents"* %41, %"struct.content::WebContents::CreateParams"* dereferenceable(232) %1) #17
  %43 = getelementptr inbounds %"struct.std::__1::basic_string<char, std::__1::char_traits<char>, std::__1::allocator<char> >::__short", %"struct.std::__1::basic_string<char, std::__1::char_traits<char>, std::__1::allocator<char> >::__short"* %37, i64 0, i32 1, i32 0
  %44 = load i8, i8* %43, align 1
  %45 = icmp slt i8 %44, 0
  br i1 %45, label %46, label %49

46:                                               ; preds = %36
  %47 = getelementptr inbounds %"class.std::__1::basic_string", %"class.std::__1::basic_string"* %3, i64 0, i32 0, i32 0, i32 0, i32 0, i32 0, i32 0
  %48 = load i8*, i8** %47, align 8
  call void @_ZdlPv(i8* %48) #16
  br label %49

49:                                               ; preds = %36, %46
  call void @llvm.lifetime.end.p0i8(i64 24, i8* nonnull %7) #17
  ret %"class.content::WebContents"* %42
}

declare %"class.content::WebContents"* @_ZN10guest_view16GuestViewManager32CreateGuestWithWebContentsParamsERKNSt3__112basic_stringIcNS1_11char_traitsIcEENS1_9allocatorIcEEEEPN7content11WebContentsERKNSB_12CreateParamsE(%"class.guest_view::GuestViewManager"*, %"class.std::__1::basic_string"* dereferenceable(24), %"class.content::WebContents"*, %"struct.content::WebContents::CreateParams"* dereferenceable(232)) local_unnamed_addr #2

; Function Attrs: norecurse nounwind readnone ssp uwtable
define hidden void @_ZN10guest_view13GuestViewBase24OnRenderFrameHostDeletedEii(%"class.guest_view::GuestViewBase"* nocapture, i32, i32) unnamed_addr #7 align 2 {
  ret void
}

; Function Attrs: nounwind ssp uwtable
define hidden void @_ZN10guest_view13GuestViewBase9DidAttachEv(%"class.guest_view::GuestViewBase"*) #1 align 2 {
  %2 = getelementptr inbounds %"class.guest_view::GuestViewBase", %"class.guest_view::GuestViewBase"* %0, i64 0, i32 10
  store i8 0, i8* %2, align 4
  %3 = getelementptr inbounds %"class.guest_view::GuestViewBase", %"class.guest_view::GuestViewBase"* %0, i64 0, i32 17, i32 0, i32 0, i32 0
  %4 = load %"class.guest_view::GuestViewBase::OpenerLifetimeObserver"*, %"class.guest_view::GuestViewBase::OpenerLifetimeObserver"** %3, align 8
  store %"class.guest_view::GuestViewBase::OpenerLifetimeObserver"* null, %"class.guest_view::GuestViewBase::OpenerLifetimeObserver"** %3, align 8
  %5 = icmp eq %"class.guest_view::GuestViewBase::OpenerLifetimeObserver"* %4, null
  br i1 %5, label %11, label %6

6:                                                ; preds = %1
  %7 = bitcast %"class.guest_view::GuestViewBase::OpenerLifetimeObserver"* %4 to void (%"class.guest_view::GuestViewBase::OpenerLifetimeObserver"*)***
  %8 = load void (%"class.guest_view::GuestViewBase::OpenerLifetimeObserver"*)**, void (%"class.guest_view::GuestViewBase::OpenerLifetimeObserver"*)*** %7, align 8
  %9 = getelementptr inbounds void (%"class.guest_view::GuestViewBase::OpenerLifetimeObserver"*)*, void (%"class.guest_view::GuestViewBase::OpenerLifetimeObserver"*)** %8, i64 8
  %10 = load void (%"class.guest_view::GuestViewBase::OpenerLifetimeObserver"*)*, void (%"class.guest_view::GuestViewBase::OpenerLifetimeObserver"*)** %9, align 8
  tail call void %10(%"class.guest_view::GuestViewBase::OpenerLifetimeObserver"* nonnull %4) #17
  br label %11

11:                                               ; preds = %1, %6
  %12 = getelementptr inbounds %"class.guest_view::GuestViewBase", %"class.guest_view::GuestViewBase"* %0, i64 0, i32 15, i32 0, i32 0, i32 0
  %13 = load %"class.base::DictionaryValue"*, %"class.base::DictionaryValue"** %12, align 8
  tail call void @_ZN10guest_view13GuestViewBase11SetUpSizingERKN4base15DictionaryValueE(%"class.guest_view::GuestViewBase"* %0, %"class.base::DictionaryValue"* dereferenceable(32) %13)
  %14 = getelementptr inbounds %"class.guest_view::GuestViewBase", %"class.guest_view::GuestViewBase"* %0, i64 0, i32 2
  %15 = tail call %"class.content::WebContents"* @_ZNK7content19WebContentsObserver12web_contentsEv(%"class.content::WebContentsObserver"* %14) #17
  %16 = getelementptr inbounds %"class.guest_view::GuestViewBase", %"class.guest_view::GuestViewBase"* %0, i64 0, i32 4
  %17 = load %"class.content::WebContents"*, %"class.content::WebContents"** %16, align 8
  %18 = bitcast %"class.content::WebContents"* %17 to i1 (%"class.content::WebContents"*)***
  %19 = load i1 (%"class.content::WebContents"*)**, i1 (%"class.content::WebContents"*)*** %18, align 8
  %20 = getelementptr inbounds i1 (%"class.content::WebContents"*)*, i1 (%"class.content::WebContents"*)** %19, i64 57
  %21 = load i1 (%"class.content::WebContents"*)*, i1 (%"class.content::WebContents"*)** %20, align 8
  %22 = tail call zeroext i1 %21(%"class.content::WebContents"* %17) #17
  %23 = bitcast %"class.content::WebContents"* %15 to void (%"class.content::WebContents"*, i1)***
  %24 = load void (%"class.content::WebContents"*, i1)**, void (%"class.content::WebContents"*, i1)*** %23, align 8
  %25 = getelementptr inbounds void (%"class.content::WebContents"*, i1)*, void (%"class.content::WebContents"*, i1)** %24, i64 58
  %26 = load void (%"class.content::WebContents"*, i1)*, void (%"class.content::WebContents"*, i1)** %25, align 8
  tail call void %26(%"class.content::WebContents"* %15, i1 zeroext %22) #17
  %27 = bitcast %"class.guest_view::GuestViewBase"* %0 to void (%"class.guest_view::GuestViewBase"*)***
  %28 = load void (%"class.guest_view::GuestViewBase"*)**, void (%"class.guest_view::GuestViewBase"*)*** %27, align 8
  %29 = getelementptr inbounds void (%"class.guest_view::GuestViewBase"*)*, void (%"class.guest_view::GuestViewBase"*)** %28, i64 21
  %30 = load void (%"class.guest_view::GuestViewBase"*)*, void (%"class.guest_view::GuestViewBase"*)** %29, align 8
  tail call void %30(%"class.guest_view::GuestViewBase"* %0) #17
  tail call void @_ZN10guest_view13GuestViewBase16SendQueuedEventsEv(%"class.guest_view::GuestViewBase"* %0)
  ret void
}

; Function Attrs: nounwind ssp uwtable
define hidden void @_ZN10guest_view13GuestViewBase16SendQueuedEventsEv(%"class.guest_view::GuestViewBase"*) local_unnamed_addr #1 align 2 {
  %2 = getelementptr inbounds %"class.guest_view::GuestViewBase", %"class.guest_view::GuestViewBase"* %0, i64 0, i32 9
  %3 = load i32, i32* %2, align 8
  %4 = load i32, i32* @_ZN10guest_view15kInstanceIDNoneE, align 4
  %5 = icmp eq i32 %3, %4
  br i1 %5, label %48, label %6

6:                                                ; preds = %1
  %7 = getelementptr inbounds %"class.guest_view::GuestViewBase", %"class.guest_view::GuestViewBase"* %0, i64 0, i32 10
  %8 = load i8, i8* %7, align 4, !range !7
  %9 = icmp eq i8 %8, 0
  br i1 %9, label %10, label %48

10:                                               ; preds = %6
  %11 = getelementptr inbounds %"class.guest_view::GuestViewBase", %"class.guest_view::GuestViewBase"* %0, i64 0, i32 12
  %12 = load i8, i8* %11, align 2, !range !7
  %13 = icmp eq i8 %12, 0
  br i1 %13, label %14, label %48

14:                                               ; preds = %10
  %15 = getelementptr inbounds %"class.guest_view::GuestViewBase", %"class.guest_view::GuestViewBase"* %0, i64 0, i32 13
  %16 = getelementptr inbounds %"class.guest_view::GuestViewBase", %"class.guest_view::GuestViewBase"* %0, i64 0, i32 13, i32 1
  %17 = load i64, i64* %16, align 8
  %18 = getelementptr inbounds %"class.guest_view::GuestViewBase", %"class.guest_view::GuestViewBase"* %0, i64 0, i32 13, i32 2
  %19 = load i64, i64* %18, align 8
  %20 = icmp eq i64 %17, %19
  br i1 %20, label %48, label %21

21:                                               ; preds = %14
  %22 = getelementptr inbounds %"class.base::circular_deque", %"class.base::circular_deque"* %15, i64 0, i32 0
  %23 = getelementptr inbounds %"class.guest_view::GuestViewBase", %"class.guest_view::GuestViewBase"* %0, i64 0, i32 13, i32 0, i32 1
  %24 = getelementptr inbounds %"class.guest_view::GuestViewBase", %"class.guest_view::GuestViewBase"* %0, i64 0, i32 8
  br label %25

25:                                               ; preds = %21, %44
  %26 = phi i64 [ %17, %21 ], [ %45, %44 ]
  %27 = tail call dereferenceable(8) %"class.std::__1::unique_ptr.27"* @_ZN4base8internal12VectorBufferINSt3__110unique_ptrIN10guest_view14GuestViewEventENS2_14default_deleteIS5_EEEEEixEm(%"class.base::internal::VectorBuffer"* %22, i64 %26) #17
  %28 = getelementptr inbounds %"class.std::__1::unique_ptr.27", %"class.std::__1::unique_ptr.27"* %27, i64 0, i32 0, i32 0, i32 0
  %29 = load %"class.guest_view::GuestViewEvent"*, %"class.guest_view::GuestViewEvent"** %28, align 8
  store %"class.guest_view::GuestViewEvent"* null, %"class.guest_view::GuestViewEvent"** %28, align 8
  %30 = load i64, i64* %16, align 8
  %31 = tail call dereferenceable(8) %"class.std::__1::unique_ptr.27"* @_ZN4base8internal12VectorBufferINSt3__110unique_ptrIN10guest_view14GuestViewEventENS2_14default_deleteIS5_EEEEEixEm(%"class.base::internal::VectorBuffer"* %22, i64 %30) #17
  %32 = load i64, i64* %16, align 8
  %33 = add i64 %32, 1
  %34 = tail call dereferenceable(8) %"class.std::__1::unique_ptr.27"* @_ZN4base8internal12VectorBufferINSt3__110unique_ptrIN10guest_view14GuestViewEventENS2_14default_deleteIS5_EEEEEixEm(%"class.base::internal::VectorBuffer"* %22, i64 %33) #17
  tail call void @_ZN4base8internal12VectorBufferINSt3__110unique_ptrIN10guest_view14GuestViewEventENS2_14default_deleteIS5_EEEEE13DestructRangeIS8_Li0EEEvPS8_SB_(%"class.base::internal::VectorBuffer"* %22, %"class.std::__1::unique_ptr.27"* %31, %"class.std::__1::unique_ptr.27"* %34) #17
  %35 = load i64, i64* %16, align 8
  %36 = add i64 %35, 1
  %37 = load i64, i64* %23, align 8
  %38 = icmp eq i64 %36, %37
  %39 = select i1 %38, i64 0, i64 %36
  store i64 %39, i64* %16, align 8
  tail call void @_ZN4base14circular_dequeINSt3__110unique_ptrIN10guest_view14GuestViewEventENS1_14default_deleteIS4_EEEEE25ShrinkCapacityIfNecessaryEv(%"class.base::circular_deque"* %15) #17
  %40 = load i32, i32* %24, align 4
  tail call void @_ZN10guest_view14GuestViewEvent8DispatchEPNS_13GuestViewBaseEi(%"class.guest_view::GuestViewEvent"* %29, %"class.guest_view::GuestViewBase"* %0, i32 %40) #17
  %41 = icmp eq %"class.guest_view::GuestViewEvent"* %29, null
  br i1 %41, label %44, label %42

42:                                               ; preds = %25
  tail call void @_ZN10guest_view14GuestViewEventD1Ev(%"class.guest_view::GuestViewEvent"* nonnull %29) #17
  %43 = bitcast %"class.guest_view::GuestViewEvent"* %29 to i8*
  tail call void @_ZdlPv(i8* %43) #16
  br label %44

44:                                               ; preds = %25, %42
  %45 = load i64, i64* %16, align 8
  %46 = load i64, i64* %18, align 8
  %47 = icmp eq i64 %45, %46
  br i1 %47, label %48, label %25

48:                                               ; preds = %44, %14, %1, %6, %10
  ret void
}

; Function Attrs: norecurse nounwind readonly ssp uwtable
define hidden %"class.content::WebContents"* @_ZN10guest_view13GuestViewBase19GetOwnerWebContentsEv(%"class.guest_view::GuestViewBase"* nocapture readonly) unnamed_addr #8 align 2 {
  %2 = getelementptr inbounds %"class.guest_view::GuestViewBase", %"class.guest_view::GuestViewBase"* %0, i64 0, i32 4
  %3 = load %"class.content::WebContents"*, %"class.content::WebContents"** %2, align 8
  ret %"class.content::WebContents"* %3
}

; Function Attrs: nounwind ssp uwtable
define hidden dereferenceable(120) %class.GURL* @_ZNK10guest_view13GuestViewBase15GetOwnerSiteURLEv(%"class.guest_view::GuestViewBase"* nocapture readonly) local_unnamed_addr #1 align 2 {
  %2 = getelementptr inbounds %"class.guest_view::GuestViewBase", %"class.guest_view::GuestViewBase"* %0, i64 0, i32 4
  %3 = load %"class.content::WebContents"*, %"class.content::WebContents"** %2, align 8
  %4 = bitcast %"class.content::WebContents"* %3 to %"class.content::RenderFrameHost"* (%"class.content::WebContents"*)***
  %5 = load %"class.content::RenderFrameHost"* (%"class.content::WebContents"*)**, %"class.content::RenderFrameHost"* (%"class.content::WebContents"*)*** %4, align 8
  %6 = getelementptr inbounds %"class.content::RenderFrameHost"* (%"class.content::WebContents"*)*, %"class.content::RenderFrameHost"* (%"class.content::WebContents"*)** %5, i64 10
  %7 = load %"class.content::RenderFrameHost"* (%"class.content::WebContents"*)*, %"class.content::RenderFrameHost"* (%"class.content::WebContents"*)** %6, align 8
  %8 = tail call %"class.content::RenderFrameHost"* %7(%"class.content::WebContents"* %3) #17
  %9 = bitcast %"class.content::RenderFrameHost"* %8 to %"class.content::SiteInstance"* (%"class.content::RenderFrameHost"*)***
  %10 = load %"class.content::SiteInstance"* (%"class.content::RenderFrameHost"*)**, %"class.content::SiteInstance"* (%"class.content::RenderFrameHost"*)*** %9, align 8
  %11 = getelementptr inbounds %"class.content::SiteInstance"* (%"class.content::RenderFrameHost"*)*, %"class.content::SiteInstance"* (%"class.content::RenderFrameHost"*)** %10, i64 13
  %12 = load %"class.content::SiteInstance"* (%"class.content::RenderFrameHost"*)*, %"class.content::SiteInstance"* (%"class.content::RenderFrameHost"*)** %11, align 8
  %13 = tail call %"class.content::SiteInstance"* %12(%"class.content::RenderFrameHost"* %8) #17
  %14 = bitcast %"class.content::SiteInstance"* %13 to %class.GURL* (%"class.content::SiteInstance"*)***
  %15 = load %class.GURL* (%"class.content::SiteInstance"*)**, %class.GURL* (%"class.content::SiteInstance"*)*** %14, align 8
  %16 = getelementptr inbounds %class.GURL* (%"class.content::SiteInstance"*)*, %class.GURL* (%"class.content::SiteInstance"*)** %15, i64 5
  %17 = load %class.GURL* (%"class.content::SiteInstance"*)*, %class.GURL* (%"class.content::SiteInstance"*)** %16, align 8
  %18 = tail call dereferenceable(120) %class.GURL* %17(%"class.content::SiteInstance"* %13) #17
  ret %class.GURL* %18
}

; Function Attrs: norecurse nounwind readnone ssp uwtable
define hidden zeroext i1 @_ZNK10guest_view13GuestViewBase21ShouldDestroyOnDetachEv(%"class.guest_view::GuestViewBase"* nocapture readnone) unnamed_addr #7 align 2 {
  ret i1 false
}

; Function Attrs: nounwind ssp uwtable
define hidden void @_ZN10guest_view13GuestViewBase7DestroyEb(%"class.guest_view::GuestViewBase"*, i1 zeroext) local_unnamed_addr #1 align 2 {
  %3 = getelementptr inbounds %"class.guest_view::GuestViewBase", %"class.guest_view::GuestViewBase"* %0, i64 0, i32 12
  %4 = load i8, i8* %3, align 2, !range !7
  %5 = icmp eq i8 %4, 0
  br i1 %5, label %6, label %135

6:                                                ; preds = %2
  store i8 1, i8* %3, align 2
  %7 = getelementptr inbounds %"class.guest_view::GuestViewBase", %"class.guest_view::GuestViewBase"* %0, i64 0, i32 4
  %8 = load %"class.content::WebContents"*, %"class.content::WebContents"** %7, align 8
  %9 = getelementptr inbounds %"class.content::WebContents", %"class.content::WebContents"* %8, i64 0, i32 1
  %10 = bitcast %"class.base::SupportsUserData.base"* %9 to %"class.base::SupportsUserData"*
  %11 = tail call %"class.base::SupportsUserData::Data"* @_ZNK4base16SupportsUserData11GetUserDataEPKv(%"class.base::SupportsUserData"* %10, i8* bitcast (i32* @_ZN4zoom14ZoomController12kUserDataKeyE to i8*)) #17
  %12 = icmp eq %"class.base::SupportsUserData::Data"* %11, null
  br i1 %12, label %17, label %13

13:                                               ; preds = %6
  %14 = getelementptr inbounds %"class.base::SupportsUserData::Data", %"class.base::SupportsUserData::Data"* %11, i64 -2
  %15 = bitcast %"class.base::SupportsUserData::Data"* %14 to %"class.zoom::ZoomController"*
  %16 = getelementptr inbounds %"class.guest_view::GuestViewBase", %"class.guest_view::GuestViewBase"* %0, i64 0, i32 3
  tail call void @_ZN4zoom14ZoomController14RemoveObserverEPNS_12ZoomObserverE(%"class.zoom::ZoomController"* nonnull %15, %"class.zoom::ZoomObserver"* %16) #17
  br label %17

17:                                               ; preds = %6, %13
  store %"class.content::WebContents"* null, %"class.content::WebContents"** %7, align 8
  %18 = bitcast %"class.guest_view::GuestViewBase"* %0 to void (%"class.guest_view::GuestViewBase"*)***
  %19 = load void (%"class.guest_view::GuestViewBase"*)**, void (%"class.guest_view::GuestViewBase"*)*** %18, align 8
  %20 = getelementptr inbounds void (%"class.guest_view::GuestViewBase"*)*, void (%"class.guest_view::GuestViewBase"*)** %19, i64 32
  %21 = load void (%"class.guest_view::GuestViewBase"*)*, void (%"class.guest_view::GuestViewBase"*)** %20, align 8
  tail call void %21(%"class.guest_view::GuestViewBase"* %0) #17
  %22 = getelementptr inbounds %"class.guest_view::GuestViewBase", %"class.guest_view::GuestViewBase"* %0, i64 0, i32 25, i32 0, i32 0
  tail call void @_ZN4base8internal18WeakReferenceOwner10InvalidateEv(%"class.base::internal::WeakReferenceOwner"* %22) #17
  %23 = getelementptr inbounds %"class.guest_view::GuestViewBase", %"class.guest_view::GuestViewBase"* %0, i64 0, i32 19
  %24 = load %"class.content::GuestHost"*, %"class.content::GuestHost"** %23, align 8
  %25 = bitcast %"class.content::GuestHost"* %24 to void (%"class.content::GuestHost"*)***
  %26 = load void (%"class.content::GuestHost"*)**, void (%"class.content::GuestHost"*)*** %25, align 8
  %27 = load void (%"class.content::GuestHost"*)*, void (%"class.content::GuestHost"*)** %26, align 8
  tail call void %27(%"class.content::GuestHost"* %24) #17
  store %"class.content::GuestHost"* null, %"class.content::GuestHost"** %23, align 8
  %28 = load atomic i64, i64* getelementptr inbounds (%"class.base::LazyInstance", %"class.base::LazyInstance"* @_ZN10guest_view12_GLOBAL__N_127g_webcontents_guestview_mapE, i64 0, i32 0) acquire, align 8
  %29 = icmp ugt i64 %28, 1
  br i1 %29, label %35, label %30

30:                                               ; preds = %17
  %31 = tail call zeroext i1 @_ZN4base8internal17NeedsLazyInstanceEPl(i64* getelementptr inbounds (%"class.base::LazyInstance", %"class.base::LazyInstance"* @_ZN10guest_view12_GLOBAL__N_127g_webcontents_guestview_mapE, i64 0, i32 0)) #17
  br i1 %31, label %32, label %33

32:                                               ; preds = %30
  tail call void @llvm.memset.p0i8.i64(i8* align 8 getelementptr inbounds (%"class.base::LazyInstance", %"class.base::LazyInstance"* @_ZN10guest_view12_GLOBAL__N_127g_webcontents_guestview_mapE, i64 0, i32 1, i64 8), i8 0, i64 16, i1 false) #17
  store i8* getelementptr inbounds (%"class.base::LazyInstance", %"class.base::LazyInstance"* @_ZN10guest_view12_GLOBAL__N_127g_webcontents_guestview_mapE, i64 0, i32 1, i64 8), i8** bitcast (i8* getelementptr inbounds (%"class.base::LazyInstance", %"class.base::LazyInstance"* @_ZN10guest_view12_GLOBAL__N_127g_webcontents_guestview_mapE, i64 0, i32 1, i64 0) to i8**), align 8
  tail call void @_ZN4base8internal20CompleteLazyInstanceEPllPFvPvES2_(i64* getelementptr inbounds (%"class.base::LazyInstance", %"class.base::LazyInstance"* @_ZN10guest_view12_GLOBAL__N_127g_webcontents_guestview_mapE, i64 0, i32 0), i64 ptrtoint (i8* getelementptr inbounds (%"class.base::LazyInstance", %"class.base::LazyInstance"* @_ZN10guest_view12_GLOBAL__N_127g_webcontents_guestview_mapE, i64 0, i32 1, i64 0) to i64), void (i8*)* null, i8* bitcast (%"class.base::LazyInstance"* @_ZN10guest_view12_GLOBAL__N_127g_webcontents_guestview_mapE to i8*)) #17
  br label %35

33:                                               ; preds = %30
  %34 = load atomic i64, i64* getelementptr inbounds (%"class.base::LazyInstance", %"class.base::LazyInstance"* @_ZN10guest_view12_GLOBAL__N_127g_webcontents_guestview_mapE, i64 0, i32 0) acquire, align 8
  br label %35

35:                                               ; preds = %17, %32, %33
  %36 = phi i64 [ %28, %17 ], [ ptrtoint (i8* getelementptr inbounds (%"class.base::LazyInstance", %"class.base::LazyInstance"* @_ZN10guest_view12_GLOBAL__N_127g_webcontents_guestview_mapE, i64 0, i32 1, i64 0) to i64), %32 ], [ %34, %33 ]
  %37 = inttoptr i64 %36 to %"class.std::__1::map.153"*
  %38 = getelementptr inbounds %"class.guest_view::GuestViewBase", %"class.guest_view::GuestViewBase"* %0, i64 0, i32 2
  %39 = tail call %"class.content::WebContents"* @_ZNK7content19WebContentsObserver12web_contentsEv(%"class.content::WebContentsObserver"* %38) #17
  %40 = getelementptr inbounds %"class.std::__1::map.153", %"class.std::__1::map.153"* %37, i64 0, i32 0, i32 1, i32 0, i32 0
  %41 = bitcast %"class.std::__1::__tree_end_node"* %40 to %"class.std::__1::__tree_node"**
  %42 = load %"class.std::__1::__tree_node"*, %"class.std::__1::__tree_node"** %41, align 8
  %43 = icmp eq %"class.std::__1::__tree_node"* %42, null
  %44 = bitcast %"class.std::__1::__tree_node"* %42 to %"class.std::__1::__tree_node_base"*
  br i1 %43, label %108, label %45

45:                                               ; preds = %35, %45
  %46 = phi %"class.std::__1::__tree_end_node"* [ %56, %45 ], [ %40, %35 ]
  %47 = phi %"class.std::__1::__tree_node"* [ %57, %45 ], [ %42, %35 ]
  %48 = getelementptr inbounds %"class.std::__1::__tree_node", %"class.std::__1::__tree_node"* %47, i64 0, i32 1, i32 0, i32 0
  %49 = load %"class.content::WebContents"*, %"class.content::WebContents"** %48, align 8
  %50 = icmp ult %"class.content::WebContents"* %49, %39
  %51 = getelementptr inbounds %"class.std::__1::__tree_node", %"class.std::__1::__tree_node"* %47, i64 0, i32 0, i32 1
  %52 = bitcast %"class.std::__1::__tree_node_base"** %51 to %"class.std::__1::__tree_node"**
  %53 = getelementptr inbounds %"class.std::__1::__tree_node", %"class.std::__1::__tree_node"* %47, i64 0, i32 0, i32 0
  %54 = bitcast %"class.std::__1::__tree_node"* %47 to %"class.std::__1::__tree_node"**
  %55 = select i1 %50, %"class.std::__1::__tree_node"** %52, %"class.std::__1::__tree_node"** %54
  %56 = select i1 %50, %"class.std::__1::__tree_end_node"* %46, %"class.std::__1::__tree_end_node"* %53
  %57 = load %"class.std::__1::__tree_node"*, %"class.std::__1::__tree_node"** %55, align 8
  %58 = icmp eq %"class.std::__1::__tree_node"* %57, null
  br i1 %58, label %59, label %45

59:                                               ; preds = %45
  %60 = icmp eq %"class.std::__1::__tree_end_node"* %56, %40
  br i1 %60, label %108, label %61

61:                                               ; preds = %59
  %62 = getelementptr inbounds %"class.std::__1::__tree_end_node", %"class.std::__1::__tree_end_node"* %56, i64 4
  %63 = bitcast %"class.std::__1::__tree_end_node"* %62 to %"class.content::WebContents"**
  %64 = load %"class.content::WebContents"*, %"class.content::WebContents"** %63, align 8
  %65 = icmp ult %"class.content::WebContents"* %39, %64
  br i1 %65, label %108, label %66

66:                                               ; preds = %61
  %67 = getelementptr inbounds %"class.std::__1::__tree_end_node", %"class.std::__1::__tree_end_node"* %56, i64 1, i32 0
  %68 = load %"class.std::__1::__tree_node_base"*, %"class.std::__1::__tree_node_base"** %67, align 8
  %69 = icmp eq %"class.std::__1::__tree_node_base"* %68, null
  br i1 %69, label %70, label %78

70:                                               ; preds = %66
  %71 = bitcast %"class.std::__1::__tree_end_node"* %56 to %"class.std::__1::__tree_node_base"*
  %72 = getelementptr inbounds %"class.std::__1::__tree_end_node", %"class.std::__1::__tree_end_node"* %56, i64 2
  %73 = bitcast %"class.std::__1::__tree_end_node"* %72 to %"class.std::__1::__tree_end_node"**
  %74 = load %"class.std::__1::__tree_end_node"*, %"class.std::__1::__tree_end_node"** %73, align 8
  %75 = getelementptr inbounds %"class.std::__1::__tree_end_node", %"class.std::__1::__tree_end_node"* %74, i64 0, i32 0
  %76 = load %"class.std::__1::__tree_node_base"*, %"class.std::__1::__tree_node_base"** %75, align 8
  %77 = icmp eq %"class.std::__1::__tree_node_base"* %76, %71
  br i1 %77, label %94, label %85

78:                                               ; preds = %66, %78
  %79 = phi %"class.std::__1::__tree_node_base"* [ %81, %78 ], [ %68, %66 ]
  %80 = getelementptr inbounds %"class.std::__1::__tree_node_base", %"class.std::__1::__tree_node_base"* %79, i64 0, i32 0, i32 0
  %81 = load %"class.std::__1::__tree_node_base"*, %"class.std::__1::__tree_node_base"** %80, align 8
  %82 = icmp eq %"class.std::__1::__tree_node_base"* %81, null
  br i1 %82, label %83, label %78

83:                                               ; preds = %78
  %84 = getelementptr inbounds %"class.std::__1::__tree_node_base", %"class.std::__1::__tree_node_base"* %79, i64 0, i32 0
  br label %94

85:                                               ; preds = %70, %85
  %86 = phi %"class.std::__1::__tree_end_node"** [ %89, %85 ], [ %73, %70 ]
  %87 = bitcast %"class.std::__1::__tree_end_node"** %86 to %"class.std::__1::__tree_node_base"**
  %88 = load %"class.std::__1::__tree_node_base"*, %"class.std::__1::__tree_node_base"** %87, align 8
  %89 = getelementptr inbounds %"class.std::__1::__tree_node_base", %"class.std::__1::__tree_node_base"* %88, i64 0, i32 2
  %90 = load %"class.std::__1::__tree_end_node"*, %"class.std::__1::__tree_end_node"** %89, align 8
  %91 = getelementptr inbounds %"class.std::__1::__tree_end_node", %"class.std::__1::__tree_end_node"* %90, i64 0, i32 0
  %92 = load %"class.std::__1::__tree_node_base"*, %"class.std::__1::__tree_node_base"** %91, align 8
  %93 = icmp eq %"class.std::__1::__tree_node_base"* %92, %88
  br i1 %93, label %94, label %85

94:                                               ; preds = %85, %83, %70
  %95 = phi %"class.std::__1::__tree_end_node"* [ %84, %83 ], [ %74, %70 ], [ %90, %85 ]
  %96 = getelementptr inbounds %"class.std::__1::map.153", %"class.std::__1::map.153"* %37, i64 0, i32 0, i32 0
  %97 = load %"class.std::__1::__tree_end_node"*, %"class.std::__1::__tree_end_node"** %96, align 8
  %98 = icmp eq %"class.std::__1::__tree_end_node"* %97, %56
  br i1 %98, label %99, label %102

99:                                               ; preds = %94
  %100 = ptrtoint %"class.std::__1::__tree_end_node"* %95 to i64
  %101 = inttoptr i64 %36 to i64*
  store i64 %100, i64* %101, align 8
  br label %102

102:                                              ; preds = %99, %94
  %103 = getelementptr inbounds %"class.std::__1::map.153", %"class.std::__1::map.153"* %37, i64 0, i32 0, i32 2, i32 0, i32 0
  %104 = load i64, i64* %103, align 8
  %105 = add i64 %104, -1
  store i64 %105, i64* %103, align 8
  %106 = bitcast %"class.std::__1::__tree_end_node"* %56 to %"class.std::__1::__tree_node_base"*
  tail call void @_ZNSt3__113__tree_removeIPNS_16__tree_node_baseIPvEEEEvT_S5_(%"class.std::__1::__tree_node_base"* nonnull %44, %"class.std::__1::__tree_node_base"* %106) #17
  %107 = bitcast %"class.std::__1::__tree_end_node"* %56 to i8*
  tail call void @_ZdlPv(i8* %107) #16
  br label %108

108:                                              ; preds = %35, %59, %61, %102
  %109 = getelementptr inbounds %"class.guest_view::GuestViewBase", %"class.guest_view::GuestViewBase"* %0, i64 0, i32 6
  %110 = load %"class.content::BrowserContext"*, %"class.content::BrowserContext"** %109, align 8
  %111 = tail call %"class.guest_view::GuestViewManager"* @_ZN10guest_view16GuestViewManager18FromBrowserContextEPN7content14BrowserContextE(%"class.content::BrowserContext"* %110) #17
  %112 = getelementptr inbounds %"class.guest_view::GuestViewBase", %"class.guest_view::GuestViewBase"* %0, i64 0, i32 7
  %113 = load i32, i32* %112, align 8
  %114 = bitcast %"class.guest_view::GuestViewManager"* %111 to void (%"class.guest_view::GuestViewManager"*, i32)***
  %115 = load void (%"class.guest_view::GuestViewManager"*, i32)**, void (%"class.guest_view::GuestViewManager"*, i32)*** %114, align 8
  %116 = getelementptr inbounds void (%"class.guest_view::GuestViewManager"*, i32)*, void (%"class.guest_view::GuestViewManager"*, i32)** %115, i64 7
  %117 = load void (%"class.guest_view::GuestViewManager"*, i32)*, void (%"class.guest_view::GuestViewManager"*, i32)** %116, align 8
  tail call void %117(%"class.guest_view::GuestViewManager"* %111, i32 %113) #17
  %118 = getelementptr inbounds %"class.guest_view::GuestViewBase", %"class.guest_view::GuestViewBase"* %0, i64 0, i32 13
  %119 = getelementptr inbounds %"class.guest_view::GuestViewBase", %"class.guest_view::GuestViewBase"* %0, i64 0, i32 13, i32 1
  %120 = load i64, i64* %119, align 8
  %121 = getelementptr inbounds %"class.guest_view::GuestViewBase", %"class.guest_view::GuestViewBase"* %0, i64 0, i32 13, i32 2
  %122 = load i64, i64* %121, align 8
  tail call void @_ZN4base14circular_dequeINSt3__110unique_ptrIN10guest_view14GuestViewEventENS1_14default_deleteIS4_EEEEE13DestructRangeEmm(%"class.base::circular_deque"* %118, i64 %120, i64 %122) #17
  %123 = bitcast i64* %119 to i8*
  tail call void @llvm.memset.p0i8.i64(i8* align 8 %123, i8 0, i64 16, i1 false) #17
  %124 = bitcast %"class.base::circular_deque"* %118 to i8**
  %125 = load i8*, i8** %124, align 8
  tail call void @free(i8* %125) #17
  %126 = bitcast %"class.base::circular_deque"* %118 to i8*
  tail call void @llvm.memset.p0i8.i64(i8* align 8 %126, i8 0, i64 16, i1 false) #17
  br i1 %1, label %127, label %135

127:                                              ; preds = %108
  %128 = tail call %"class.content::WebContents"* @_ZNK7content19WebContentsObserver12web_contentsEv(%"class.content::WebContentsObserver"* %38) #17
  %129 = icmp eq %"class.content::WebContents"* %128, null
  br i1 %129, label %135, label %130

130:                                              ; preds = %127
  %131 = bitcast %"class.content::WebContents"* %128 to void (%"class.content::WebContents"*)***
  %132 = load void (%"class.content::WebContents"*)**, void (%"class.content::WebContents"*)*** %131, align 8
  %133 = getelementptr inbounds void (%"class.content::WebContents"*)*, void (%"class.content::WebContents"*)** %132, i64 1
  %134 = load void (%"class.content::WebContents"*)*, void (%"class.content::WebContents"*)** %133, align 8
  tail call void %134(%"class.content::WebContents"* nonnull %128) #17
  br label %135

135:                                              ; preds = %2, %127, %130, %108
  ret void
}

; Function Attrs: nounwind ssp uwtable
define hidden void @_ZN10guest_view13GuestViewBase29StopTrackingEmbedderZoomLevelEv(%"class.guest_view::GuestViewBase"*) local_unnamed_addr #1 align 2 {
  %2 = getelementptr inbounds %"class.guest_view::GuestViewBase", %"class.guest_view::GuestViewBase"* %0, i64 0, i32 4
  %3 = load %"class.content::WebContents"*, %"class.content::WebContents"** %2, align 8
  %4 = getelementptr inbounds %"class.content::WebContents", %"class.content::WebContents"* %3, i64 0, i32 1
  %5 = bitcast %"class.base::SupportsUserData.base"* %4 to %"class.base::SupportsUserData"*
  %6 = tail call %"class.base::SupportsUserData::Data"* @_ZNK4base16SupportsUserData11GetUserDataEPKv(%"class.base::SupportsUserData"* %5, i8* bitcast (i32* @_ZN4zoom14ZoomController12kUserDataKeyE to i8*)) #17
  %7 = icmp eq %"class.base::SupportsUserData::Data"* %6, null
  %8 = getelementptr inbounds %"class.base::SupportsUserData::Data", %"class.base::SupportsUserData::Data"* %6, i64 -2
  %9 = icmp eq %"class.base::SupportsUserData::Data"* %8, null
  %10 = or i1 %7, %9
  br i1 %10, label %14, label %11

11:                                               ; preds = %1
  %12 = bitcast %"class.base::SupportsUserData::Data"* %8 to %"class.zoom::ZoomController"*
  %13 = getelementptr inbounds %"class.guest_view::GuestViewBase", %"class.guest_view::GuestViewBase"* %0, i64 0, i32 3
  tail call void @_ZN4zoom14ZoomController14RemoveObserverEPNS_12ZoomObserverE(%"class.zoom::ZoomController"* nonnull %12, %"class.zoom::ZoomObserver"* %13) #17
  br label %14

14:                                               ; preds = %1, %11
  ret void
}

; Function Attrs: nounwind ssp uwtable
define hidden void @_ZN10guest_view13GuestViewBase15SetAttachParamsERKN4base15DictionaryValueE(%"class.guest_view::GuestViewBase"*, %"class.base::DictionaryValue"* dereferenceable(32)) local_unnamed_addr #1 align 2 {
  %3 = tail call %"class.base::DictionaryValue"* @_ZNK4base15DictionaryValue8DeepCopyEv(%"class.base::DictionaryValue"* %1) #17
  %4 = getelementptr inbounds %"class.guest_view::GuestViewBase", %"class.guest_view::GuestViewBase"* %0, i64 0, i32 15, i32 0, i32 0, i32 0
  %5 = load %"class.base::DictionaryValue"*, %"class.base::DictionaryValue"** %4, align 8
  store %"class.base::DictionaryValue"* %3, %"class.base::DictionaryValue"** %4, align 8
  %6 = icmp eq %"class.base::DictionaryValue"* %5, null
  br i1 %6, label %11, label %7

7:                                                ; preds = %2
  %8 = getelementptr inbounds %"class.base::DictionaryValue", %"class.base::DictionaryValue"* %5, i64 0, i32 0
  tail call void @_ZN4base5ValueD2Ev(%"class.base::Value"* nonnull %8) #17
  %9 = bitcast %"class.base::DictionaryValue"* %5 to i8*
  tail call void @_ZdlPv(i8* %9) #16
  %10 = load %"class.base::DictionaryValue"*, %"class.base::DictionaryValue"** %4, align 8
  br label %11

11:                                               ; preds = %2, %7
  %12 = phi %"class.base::DictionaryValue"* [ %3, %2 ], [ %10, %7 ]
  %13 = tail call i64 @strlen(i8* nonnull getelementptr inbounds ([0 x i8], [0 x i8]* @_ZN10guest_view20kParameterInstanceIdE, i64 0, i64 0)) #17
  %14 = getelementptr inbounds %"class.guest_view::GuestViewBase", %"class.guest_view::GuestViewBase"* %0, i64 0, i32 8
  %15 = tail call zeroext i1 @_ZNK4base15DictionaryValue10GetIntegerENS_16BasicStringPieceIcNSt3__111char_traitsIcEEEEPi(%"class.base::DictionaryValue"* %12, i8* getelementptr inbounds ([0 x i8], [0 x i8]* @_ZN10guest_view20kParameterInstanceIdE, i64 0, i64 0), i64 %13, i32* %14) #17
  ret void
}

; Function Attrs: nounwind ssp uwtable
define hidden void @_ZN10guest_view13GuestViewBase9SetOpenerEPS0_(%"class.guest_view::GuestViewBase"*, %"class.guest_view::GuestViewBase"*) local_unnamed_addr #1 align 2 {
  %3 = alloca %"class.base::internal::WeakReference", align 8
  %4 = alloca %"class.base::WeakPtr", align 8
  %5 = alloca %"class.base::WeakPtr", align 8
  %6 = icmp eq %"class.guest_view::GuestViewBase"* %1, null
  br i1 %6, label %70, label %7

7:                                                ; preds = %2
  %8 = bitcast %"class.base::WeakPtr"* %4 to i8*
  call void @llvm.lifetime.start.p0i8(i64 16, i8* nonnull %8) #17
  %9 = bitcast %"class.base::internal::WeakReference"* %3 to i8*
  call void @llvm.lifetime.start.p0i8(i64 8, i8* nonnull %9) #17, !noalias !16
  %10 = getelementptr inbounds %"class.guest_view::GuestViewBase", %"class.guest_view::GuestViewBase"* %1, i64 0, i32 25, i32 0, i32 0
  call void @_ZNK4base8internal18WeakReferenceOwner6GetRefEv(%"class.base::internal::WeakReference"* nonnull sret %3, %"class.base::internal::WeakReferenceOwner"* %10) #17, !noalias !16
  %11 = getelementptr inbounds %"class.guest_view::GuestViewBase", %"class.guest_view::GuestViewBase"* %1, i64 0, i32 25, i32 0, i32 1
  %12 = load i64, i64* %11, align 8, !noalias !16
  %13 = getelementptr inbounds %"class.base::WeakPtr", %"class.base::WeakPtr"* %4, i64 0, i32 0
  call void @_ZN4base8internal11WeakPtrBaseC2ERKNS0_13WeakReferenceEm(%"class.base::internal::WeakPtrBase"* nonnull %13, %"class.base::internal::WeakReference"* nonnull dereferenceable(8) %3, i64 %12) #17
  call void @_ZN4base8internal13WeakReferenceD1Ev(%"class.base::internal::WeakReference"* nonnull %3) #17
  call void @llvm.lifetime.end.p0i8(i64 8, i8* nonnull %9) #17, !noalias !16
  %14 = getelementptr inbounds %"class.guest_view::GuestViewBase", %"class.guest_view::GuestViewBase"* %0, i64 0, i32 14
  %15 = getelementptr inbounds %"class.base::WeakPtr", %"class.base::WeakPtr"* %4, i64 0, i32 0, i32 0, i32 0, i32 0
  %16 = bitcast %"class.base::WeakPtr"* %4 to i64*
  %17 = load i64, i64* %16, align 8
  store %"class.base::internal::WeakReference::Flag"* null, %"class.base::internal::WeakReference::Flag"** %15, align 8
  %18 = bitcast %"class.base::WeakPtr"* %14 to i64*
  %19 = getelementptr inbounds %"class.base::WeakPtr", %"class.base::WeakPtr"* %14, i64 0, i32 0, i32 0, i32 0, i32 0
  %20 = load %"class.base::internal::WeakReference::Flag"*, %"class.base::internal::WeakReference::Flag"** %19, align 8
  store i64 %17, i64* %18, align 8
  %21 = icmp eq %"class.base::internal::WeakReference::Flag"* %20, null
  br i1 %21, label %28, label %22

22:                                               ; preds = %7
  %23 = getelementptr inbounds %"class.base::internal::WeakReference::Flag", %"class.base::internal::WeakReference::Flag"* %20, i64 0, i32 0, i32 0, i32 0, i32 0, i32 0, i32 0, i32 0, i32 0, i32 0
  %24 = atomicrmw sub i32* %23, i32 1 acq_rel
  %25 = icmp eq i32 %24, 1
  br i1 %25, label %26, label %28

26:                                               ; preds = %22
  call void @_ZN4base8internal13WeakReference4FlagD1Ev(%"class.base::internal::WeakReference::Flag"* nonnull %20) #17
  %27 = bitcast %"class.base::internal::WeakReference::Flag"* %20 to i8*
  call void @_ZdlPv(i8* %27) #16
  br label %28

28:                                               ; preds = %7, %22, %26
  %29 = getelementptr inbounds %"class.base::WeakPtr", %"class.base::WeakPtr"* %4, i64 0, i32 0, i32 1
  %30 = load i64, i64* %29, align 8
  %31 = getelementptr inbounds %"class.guest_view::GuestViewBase", %"class.guest_view::GuestViewBase"* %0, i64 0, i32 14, i32 0, i32 1
  store i64 %30, i64* %31, align 8
  call void @_ZN4base8internal11WeakPtrBaseD2Ev(%"class.base::internal::WeakPtrBase"* nonnull %13) #17
  call void @llvm.lifetime.end.p0i8(i64 16, i8* nonnull %8) #17
  %32 = getelementptr inbounds %"class.guest_view::GuestViewBase", %"class.guest_view::GuestViewBase"* %0, i64 0, i32 9
  %33 = load i32, i32* %32, align 8
  %34 = load i32, i32* @_ZN10guest_view15kInstanceIDNoneE, align 4
  %35 = icmp eq i32 %33, %34
  br i1 %35, label %44, label %36

36:                                               ; preds = %28
  %37 = getelementptr inbounds %"class.guest_view::GuestViewBase", %"class.guest_view::GuestViewBase"* %0, i64 0, i32 10
  %38 = load i8, i8* %37, align 4, !range !7
  %39 = icmp eq i8 %38, 0
  br i1 %39, label %40, label %44

40:                                               ; preds = %36
  %41 = getelementptr inbounds %"class.guest_view::GuestViewBase", %"class.guest_view::GuestViewBase"* %0, i64 0, i32 12
  %42 = load i8, i8* %41, align 2, !range !7
  %43 = icmp eq i8 %42, 0
  br i1 %43, label %99, label %44

44:                                               ; preds = %28, %36, %40
  %45 = call i8* @_Znwm(i64 24) #16
  %46 = bitcast i8* %45 to %"class.content::WebContentsObserver"*
  %47 = getelementptr inbounds %"class.guest_view::GuestViewBase", %"class.guest_view::GuestViewBase"* %0, i64 0, i32 14, i32 0, i32 0
  %48 = call zeroext i1 @_ZNK4base8internal13WeakReference7IsValidEv(%"class.base::internal::WeakReference"* %47) #17
  br i1 %48, label %49, label %52

49:                                               ; preds = %44
  %50 = bitcast i64* %31 to %"class.guest_view::GuestViewBase"**
  %51 = load %"class.guest_view::GuestViewBase"*, %"class.guest_view::GuestViewBase"** %50, align 8
  br label %52

52:                                               ; preds = %44, %49
  %53 = phi %"class.guest_view::GuestViewBase"* [ %51, %49 ], [ null, %44 ]
  %54 = getelementptr inbounds %"class.guest_view::GuestViewBase", %"class.guest_view::GuestViewBase"* %53, i64 0, i32 2
  %55 = call %"class.content::WebContents"* @_ZNK7content19WebContentsObserver12web_contentsEv(%"class.content::WebContentsObserver"* %54) #17
  call void @_ZN7content19WebContentsObserverC2EPNS_11WebContentsE(%"class.content::WebContentsObserver"* nonnull %46, %"class.content::WebContents"* %55) #17
  %56 = bitcast i8* %45 to i32 (...)***
  store i32 (...)** bitcast (i8** getelementptr inbounds ({ [109 x i8*] }, { [109 x i8*] }* @_ZTVN10guest_view13GuestViewBase22OpenerLifetimeObserverE, i64 0, inrange i32 0, i64 2) to i32 (...)**), i32 (...)*** %56, align 8
  %57 = getelementptr inbounds i8, i8* %45, i64 16
  %58 = bitcast i8* %57 to %"class.guest_view::GuestViewBase"**
  store %"class.guest_view::GuestViewBase"* %0, %"class.guest_view::GuestViewBase"** %58, align 8
  %59 = ptrtoint i8* %45 to i64
  %60 = getelementptr inbounds %"class.guest_view::GuestViewBase", %"class.guest_view::GuestViewBase"* %0, i64 0, i32 17
  %61 = getelementptr inbounds %"class.std::__1::unique_ptr.78", %"class.std::__1::unique_ptr.78"* %60, i64 0, i32 0, i32 0, i32 0
  %62 = load %"class.guest_view::GuestViewBase::OpenerLifetimeObserver"*, %"class.guest_view::GuestViewBase::OpenerLifetimeObserver"** %61, align 8
  %63 = bitcast %"class.std::__1::unique_ptr.78"* %60 to i64*
  store i64 %59, i64* %63, align 8
  %64 = icmp eq %"class.guest_view::GuestViewBase::OpenerLifetimeObserver"* %62, null
  br i1 %64, label %99, label %65

65:                                               ; preds = %52
  %66 = bitcast %"class.guest_view::GuestViewBase::OpenerLifetimeObserver"* %62 to void (%"class.guest_view::GuestViewBase::OpenerLifetimeObserver"*)***
  %67 = load void (%"class.guest_view::GuestViewBase::OpenerLifetimeObserver"*)**, void (%"class.guest_view::GuestViewBase::OpenerLifetimeObserver"*)*** %66, align 8
  %68 = getelementptr inbounds void (%"class.guest_view::GuestViewBase::OpenerLifetimeObserver"*)*, void (%"class.guest_view::GuestViewBase::OpenerLifetimeObserver"*)** %67, i64 8
  %69 = load void (%"class.guest_view::GuestViewBase::OpenerLifetimeObserver"*)*, void (%"class.guest_view::GuestViewBase::OpenerLifetimeObserver"*)** %68, align 8
  call void %69(%"class.guest_view::GuestViewBase::OpenerLifetimeObserver"* nonnull %62) #17
  br label %99

70:                                               ; preds = %2
  %71 = bitcast %"class.base::WeakPtr"* %5 to i8*
  call void @llvm.lifetime.start.p0i8(i64 16, i8* nonnull %71) #17
  call void @llvm.memset.p0i8.i64(i8* nonnull align 8 %71, i8 0, i64 16, i1 false)
  %72 = getelementptr inbounds %"class.base::WeakPtr", %"class.base::WeakPtr"* %5, i64 0, i32 0
  call void @_ZN4base8internal11WeakPtrBaseC2Ev(%"class.base::internal::WeakPtrBase"* nonnull %72) #17
  %73 = getelementptr inbounds %"class.guest_view::GuestViewBase", %"class.guest_view::GuestViewBase"* %0, i64 0, i32 14
  %74 = getelementptr inbounds %"class.base::WeakPtr", %"class.base::WeakPtr"* %5, i64 0, i32 0, i32 0, i32 0, i32 0
  %75 = bitcast %"class.base::WeakPtr"* %5 to i64*
  %76 = load i64, i64* %75, align 8
  store %"class.base::internal::WeakReference::Flag"* null, %"class.base::internal::WeakReference::Flag"** %74, align 8
  %77 = bitcast %"class.base::WeakPtr"* %73 to i64*
  %78 = getelementptr inbounds %"class.base::WeakPtr", %"class.base::WeakPtr"* %73, i64 0, i32 0, i32 0, i32 0, i32 0
  %79 = load %"class.base::internal::WeakReference::Flag"*, %"class.base::internal::WeakReference::Flag"** %78, align 8
  store i64 %76, i64* %77, align 8
  %80 = icmp eq %"class.base::internal::WeakReference::Flag"* %79, null
  br i1 %80, label %87, label %81

81:                                               ; preds = %70
  %82 = getelementptr inbounds %"class.base::internal::WeakReference::Flag", %"class.base::internal::WeakReference::Flag"* %79, i64 0, i32 0, i32 0, i32 0, i32 0, i32 0, i32 0, i32 0, i32 0, i32 0
  %83 = atomicrmw sub i32* %82, i32 1 acq_rel
  %84 = icmp eq i32 %83, 1
  br i1 %84, label %85, label %87

85:                                               ; preds = %81
  call void @_ZN4base8internal13WeakReference4FlagD1Ev(%"class.base::internal::WeakReference::Flag"* nonnull %79) #17
  %86 = bitcast %"class.base::internal::WeakReference::Flag"* %79 to i8*
  call void @_ZdlPv(i8* %86) #16
  br label %87

87:                                               ; preds = %70, %81, %85
  %88 = getelementptr inbounds %"class.base::WeakPtr", %"class.base::WeakPtr"* %5, i64 0, i32 0, i32 1
  %89 = load i64, i64* %88, align 8
  %90 = getelementptr inbounds %"class.guest_view::GuestViewBase", %"class.guest_view::GuestViewBase"* %0, i64 0, i32 14, i32 0, i32 1
  store i64 %89, i64* %90, align 8
  call void @_ZN4base8internal11WeakPtrBaseD2Ev(%"class.base::internal::WeakPtrBase"* nonnull %72) #17
  call void @llvm.lifetime.end.p0i8(i64 16, i8* nonnull %71) #17
  %91 = getelementptr inbounds %"class.guest_view::GuestViewBase", %"class.guest_view::GuestViewBase"* %0, i64 0, i32 17, i32 0, i32 0, i32 0
  %92 = load %"class.guest_view::GuestViewBase::OpenerLifetimeObserver"*, %"class.guest_view::GuestViewBase::OpenerLifetimeObserver"** %91, align 8
  store %"class.guest_view::GuestViewBase::OpenerLifetimeObserver"* null, %"class.guest_view::GuestViewBase::OpenerLifetimeObserver"** %91, align 8
  %93 = icmp eq %"class.guest_view::GuestViewBase::OpenerLifetimeObserver"* %92, null
  br i1 %93, label %99, label %94

94:                                               ; preds = %87
  %95 = bitcast %"class.guest_view::GuestViewBase::OpenerLifetimeObserver"* %92 to void (%"class.guest_view::GuestViewBase::OpenerLifetimeObserver"*)***
  %96 = load void (%"class.guest_view::GuestViewBase::OpenerLifetimeObserver"*)**, void (%"class.guest_view::GuestViewBase::OpenerLifetimeObserver"*)*** %95, align 8
  %97 = getelementptr inbounds void (%"class.guest_view::GuestViewBase::OpenerLifetimeObserver"*)*, void (%"class.guest_view::GuestViewBase::OpenerLifetimeObserver"*)** %96, i64 8
  %98 = load void (%"class.guest_view::GuestViewBase::OpenerLifetimeObserver"*)*, void (%"class.guest_view::GuestViewBase::OpenerLifetimeObserver"*)** %97, align 8
  call void %98(%"class.guest_view::GuestViewBase::OpenerLifetimeObserver"* nonnull %92) #17
  br label %99

99:                                               ; preds = %94, %87, %52, %65, %40
  ret void
}

; Function Attrs: argmemonly nounwind
declare void @llvm.memset.p0i8.i64(i8* nocapture writeonly, i8, i64, i1 immarg) #6

; Function Attrs: nofree norecurse nounwind ssp uwtable writeonly
define hidden void @_ZN10guest_view13GuestViewBase12SetGuestHostEPN7content9GuestHostE(%"class.guest_view::GuestViewBase"* nocapture, %"class.content::GuestHost"*) unnamed_addr #0 align 2 {
  %3 = getelementptr inbounds %"class.guest_view::GuestViewBase", %"class.guest_view::GuestViewBase"* %0, i64 0, i32 19
  store %"class.content::GuestHost"* %1, %"class.content::GuestHost"** %3, align 8
  ret void
}

; Function Attrs: nounwind ssp uwtable
define hidden void @_ZN10guest_view13GuestViewBase10WillAttachEPN7content11WebContentsEibN4base12OnceCallbackIFvvEEE(%"class.guest_view::GuestViewBase"*, %"class.content::WebContents"*, i32, i1 zeroext, %"class.base::OnceCallback.180"* nocapture) local_unnamed_addr #1 align 2 {
  %6 = alloca %"class.base::OnceCallback.180", align 8
  %7 = getelementptr inbounds %"class.base::OnceCallback.180", %"class.base::OnceCallback.180"* %4, i64 0, i32 0, i32 0, i32 0
  %8 = bitcast %"class.base::OnceCallback.180"* %4 to i64*
  %9 = load i64, i64* %8, align 8
  %10 = bitcast %"class.base::OnceCallback.180"* %6 to i64*
  store i64 %9, i64* %10, align 8
  store %"class.base::internal::BindStateBase"* null, %"class.base::internal::BindStateBase"** %7, align 8
  call void @_ZN10guest_view13GuestViewBase10WillAttachEPN7content11WebContentsEPNS1_15RenderFrameHostEibN4base12OnceCallbackIFvvEEE(%"class.guest_view::GuestViewBase"* %0, %"class.content::WebContents"* %1, %"class.content::RenderFrameHost"* null, i32 %2, i1 zeroext %3, %"class.base::OnceCallback.180"* nonnull %6)
  %11 = getelementptr inbounds %"class.base::OnceCallback.180", %"class.base::OnceCallback.180"* %6, i64 0, i32 0
  call void @_ZN4base8internal12CallbackBaseD2Ev(%"class.base::internal::CallbackBase"* nonnull %11) #17
  ret void
}

; Function Attrs: nounwind ssp uwtable
define hidden void @_ZN10guest_view13GuestViewBase10WillAttachEPN7content11WebContentsEPNS1_15RenderFrameHostEibN4base12OnceCallbackIFvvEEE(%"class.guest_view::GuestViewBase"*, %"class.content::WebContents"*, %"class.content::RenderFrameHost"*, i32, i1 zeroext, %"class.base::OnceCallback.180"* nocapture) local_unnamed_addr #1 align 2 {
  %7 = alloca i32, align 4
  %8 = alloca %"class.base::OnceCallback.180", align 8
  store i32 %3, i32* %7, align 4
  %9 = zext i1 %4 to i8
  %10 = getelementptr inbounds %"class.guest_view::GuestViewBase", %"class.guest_view::GuestViewBase"* %0, i64 0, i32 4
  %11 = load %"class.content::WebContents"*, %"class.content::WebContents"** %10, align 8
  %12 = icmp eq %"class.content::WebContents"* %11, null
  br i1 %12, label %22, label %13

13:                                               ; preds = %6
  %14 = getelementptr inbounds %"class.content::WebContents", %"class.content::WebContents"* %11, i64 0, i32 1
  %15 = bitcast %"class.base::SupportsUserData.base"* %14 to %"class.base::SupportsUserData"*
  %16 = tail call %"class.base::SupportsUserData::Data"* @_ZNK4base16SupportsUserData11GetUserDataEPKv(%"class.base::SupportsUserData"* %15, i8* bitcast (i32* @_ZN4zoom14ZoomController12kUserDataKeyE to i8*)) #17
  %17 = icmp eq %"class.base::SupportsUserData::Data"* %16, null
  br i1 %17, label %22, label %18

18:                                               ; preds = %13
  %19 = getelementptr inbounds %"class.base::SupportsUserData::Data", %"class.base::SupportsUserData::Data"* %16, i64 -2
  %20 = bitcast %"class.base::SupportsUserData::Data"* %19 to %"class.zoom::ZoomController"*
  %21 = getelementptr inbounds %"class.guest_view::GuestViewBase", %"class.guest_view::GuestViewBase"* %0, i64 0, i32 3
  tail call void @_ZN4zoom14ZoomController14RemoveObserverEPNS_12ZoomObserverE(%"class.zoom::ZoomController"* nonnull %20, %"class.zoom::ZoomObserver"* %21) #17
  br label %22

22:                                               ; preds = %18, %13, %6
  %23 = load %"class.content::WebContents"*, %"class.content::WebContents"** %10, align 8
  %24 = icmp eq %"class.content::WebContents"* %23, %1
  br i1 %24, label %46, label %25

25:                                               ; preds = %22
  store %"class.content::WebContents"* %1, %"class.content::WebContents"** %10, align 8
  %26 = ptrtoint %"class.guest_view::GuestViewBase"* %0 to i64
  %27 = tail call i8* @_Znwm(i64 32) #16
  %28 = bitcast i8* %27 to %"class.content::WebContentsObserver"*
  tail call void @_ZN7content19WebContentsObserverC2EPNS_11WebContentsE(%"class.content::WebContentsObserver"* nonnull %28, %"class.content::WebContents"* %1) #17
  %29 = bitcast i8* %27 to i32 (...)***
  store i32 (...)** bitcast (i8** getelementptr inbounds ({ [109 x i8*] }, { [109 x i8*] }* @_ZTVN10guest_view13GuestViewBase21OwnerContentsObserverE, i64 0, inrange i32 0, i64 2) to i32 (...)**), i32 (...)*** %29, align 8
  %30 = getelementptr inbounds i8, i8* %27, i64 16
  store i8 0, i8* %30, align 8
  %31 = getelementptr inbounds i8, i8* %27, i64 17
  store i8 0, i8* %31, align 1
  %32 = getelementptr inbounds i8, i8* %27, i64 24
  %33 = bitcast i8* %32 to i64*
  store i64 %26, i64* %33, align 8
  %34 = ptrtoint i8* %27 to i64
  %35 = getelementptr inbounds %"class.guest_view::GuestViewBase", %"class.guest_view::GuestViewBase"* %0, i64 0, i32 16
  %36 = getelementptr inbounds %"class.std::__1::unique_ptr.72", %"class.std::__1::unique_ptr.72"* %35, i64 0, i32 0, i32 0, i32 0
  %37 = load %"class.guest_view::GuestViewBase::OwnerContentsObserver"*, %"class.guest_view::GuestViewBase::OwnerContentsObserver"** %36, align 8
  %38 = bitcast %"class.std::__1::unique_ptr.72"* %35 to i64*
  store i64 %34, i64* %38, align 8
  %39 = icmp eq %"class.guest_view::GuestViewBase::OwnerContentsObserver"* %37, null
  br i1 %39, label %45, label %40

40:                                               ; preds = %25
  %41 = bitcast %"class.guest_view::GuestViewBase::OwnerContentsObserver"* %37 to void (%"class.guest_view::GuestViewBase::OwnerContentsObserver"*)***
  %42 = load void (%"class.guest_view::GuestViewBase::OwnerContentsObserver"*)**, void (%"class.guest_view::GuestViewBase::OwnerContentsObserver"*)*** %41, align 8
  %43 = getelementptr inbounds void (%"class.guest_view::GuestViewBase::OwnerContentsObserver"*)*, void (%"class.guest_view::GuestViewBase::OwnerContentsObserver"*)** %42, i64 8
  %44 = load void (%"class.guest_view::GuestViewBase::OwnerContentsObserver"*)*, void (%"class.guest_view::GuestViewBase::OwnerContentsObserver"*)** %43, align 8
  tail call void %44(%"class.guest_view::GuestViewBase::OwnerContentsObserver"* nonnull %37) #17
  br label %45

45:                                               ; preds = %40, %25
  tail call void @_ZN10guest_view13GuestViewBase12SetOwnerHostEv(%"class.guest_view::GuestViewBase"* %0)
  br label %46

46:                                               ; preds = %22, %45
  tail call void @_ZN10guest_view13GuestViewBase30StartTrackingEmbedderZoomLevelEv(%"class.guest_view::GuestViewBase"* %0)
  %47 = getelementptr inbounds %"class.guest_view::GuestViewBase", %"class.guest_view::GuestViewBase"* %0, i64 0, i32 10
  store i8 1, i8* %47, align 4
  %48 = getelementptr inbounds %"class.guest_view::GuestViewBase", %"class.guest_view::GuestViewBase"* %0, i64 0, i32 9
  store i32 %3, i32* %48, align 8
  %49 = getelementptr inbounds %"class.guest_view::GuestViewBase", %"class.guest_view::GuestViewBase"* %0, i64 0, i32 24
  store i8 %9, i8* %49, align 4
  %50 = bitcast %"class.guest_view::GuestViewBase"* %0 to void (%"class.guest_view::GuestViewBase"*)***
  %51 = load void (%"class.guest_view::GuestViewBase"*)**, void (%"class.guest_view::GuestViewBase"*)*** %50, align 8
  %52 = getelementptr inbounds void (%"class.guest_view::GuestViewBase"*)*, void (%"class.guest_view::GuestViewBase"*)** %51, i64 31
  %53 = load void (%"class.guest_view::GuestViewBase"*)*, void (%"class.guest_view::GuestViewBase"*)** %52, align 8
  tail call void %53(%"class.guest_view::GuestViewBase"* %0) #17
  %54 = getelementptr inbounds %"class.guest_view::GuestViewBase", %"class.guest_view::GuestViewBase"* %0, i64 0, i32 2
  %55 = tail call %"class.content::WebContents"* @_ZNK7content19WebContentsObserver12web_contentsEv(%"class.content::WebContentsObserver"* %54) #17
  %56 = bitcast %"class.content::WebContents"* %55 to void (%"class.content::WebContents"*)***
  %57 = load void (%"class.content::WebContents"*)**, void (%"class.content::WebContents"*)*** %56, align 8
  %58 = getelementptr inbounds void (%"class.content::WebContents"*)*, void (%"class.content::WebContents"*)** %57, i64 166
  %59 = load void (%"class.content::WebContents"*)*, void (%"class.content::WebContents"*)** %58, align 8
  tail call void %59(%"class.content::WebContents"* %55) #17
  %60 = load %"class.content::WebContents"*, %"class.content::WebContents"** %10, align 8
  %61 = tail call %"class.content::WebContents"* @_ZNK7content19WebContentsObserver12web_contentsEv(%"class.content::WebContentsObserver"* %54) #17
  %62 = bitcast %"class.content::WebContents"* %60 to void (%"class.content::WebContents"*, %"class.content::WebContents"*, %"class.content::RenderFrameHost"*, i1)***
  %63 = load void (%"class.content::WebContents"*, %"class.content::WebContents"*, %"class.content::RenderFrameHost"*, i1)**, void (%"class.content::WebContents"*, %"class.content::WebContents"*, %"class.content::RenderFrameHost"*, i1)*** %62, align 8
  %64 = getelementptr inbounds void (%"class.content::WebContents"*, %"class.content::WebContents"*, %"class.content::RenderFrameHost"*, i1)*, void (%"class.content::WebContents"*, %"class.content::WebContents"*, %"class.content::RenderFrameHost"*, i1)** %63, i64 79
  %65 = load void (%"class.content::WebContents"*, %"class.content::WebContents"*, %"class.content::RenderFrameHost"*, i1)*, void (%"class.content::WebContents"*, %"class.content::WebContents"*, %"class.content::RenderFrameHost"*, i1)** %64, align 8
  tail call void %65(%"class.content::WebContents"* %60, %"class.content::WebContents"* %61, %"class.content::RenderFrameHost"* %2, i1 zeroext %4) #17
  %66 = bitcast %"class.content::WebContents"* %1 to %"class.content::RenderFrameHost"* (%"class.content::WebContents"*)***
  %67 = load %"class.content::RenderFrameHost"* (%"class.content::WebContents"*)**, %"class.content::RenderFrameHost"* (%"class.content::WebContents"*)*** %66, align 8
  %68 = getelementptr inbounds %"class.content::RenderFrameHost"* (%"class.content::WebContents"*)*, %"class.content::RenderFrameHost"* (%"class.content::WebContents"*)** %67, i64 10
  %69 = load %"class.content::RenderFrameHost"* (%"class.content::WebContents"*)*, %"class.content::RenderFrameHost"* (%"class.content::WebContents"*)** %68, align 8
  %70 = tail call %"class.content::RenderFrameHost"* %69(%"class.content::WebContents"* %1) #17
  %71 = getelementptr inbounds %"class.content::RenderFrameHost", %"class.content::RenderFrameHost"* %70, i64 0, i32 1
  %72 = tail call i8* @_Znwm(i64 56) #16
  %73 = bitcast i8* %72 to %"class.IPC::MessageT"*
  call void @_ZN3IPC8MessageTI43GuestViewMsg_AttachToEmbedderFrame_ACK_MetaNSt3__15tupleIJiEEEvEC2ENS_7RoutingERKi(%"class.IPC::MessageT"* nonnull %73, i32 2147483647, i32* nonnull dereferenceable(4) %7) #17
  %74 = bitcast i8* %72 to %"class.IPC::Message"*
  %75 = bitcast %"class.IPC::Sender"* %71 to i1 (%"class.IPC::Sender"*, %"class.IPC::Message"*)***
  %76 = load i1 (%"class.IPC::Sender"*, %"class.IPC::Message"*)**, i1 (%"class.IPC::Sender"*, %"class.IPC::Message"*)*** %75, align 8
  %77 = load i1 (%"class.IPC::Sender"*, %"class.IPC::Message"*)*, i1 (%"class.IPC::Sender"*, %"class.IPC::Message"*)** %76, align 8
  %78 = call zeroext i1 %77(%"class.IPC::Sender"* %71, %"class.IPC::Message"* nonnull %74) #17
  %79 = getelementptr inbounds %"class.base::OnceCallback.180", %"class.base::OnceCallback.180"* %5, i64 0, i32 0, i32 0, i32 0
  %80 = bitcast %"class.base::OnceCallback.180"* %5 to i64*
  %81 = load i64, i64* %80, align 8
  %82 = bitcast %"class.base::OnceCallback.180"* %8 to i64*
  store i64 %81, i64* %82, align 8
  store %"class.base::internal::BindStateBase"* null, %"class.base::internal::BindStateBase"** %79, align 8
  %83 = bitcast %"class.guest_view::GuestViewBase"* %0 to void (%"class.guest_view::GuestViewBase"*, %"class.base::OnceCallback.180"*)***
  %84 = load void (%"class.guest_view::GuestViewBase"*, %"class.base::OnceCallback.180"*)**, void (%"class.guest_view::GuestViewBase"*, %"class.base::OnceCallback.180"*)*** %83, align 8
  %85 = getelementptr inbounds void (%"class.guest_view::GuestViewBase"*, %"class.base::OnceCallback.180"*)*, void (%"class.guest_view::GuestViewBase"*, %"class.base::OnceCallback.180"*)** %84, i64 30
  %86 = load void (%"class.guest_view::GuestViewBase"*, %"class.base::OnceCallback.180"*)*, void (%"class.guest_view::GuestViewBase"*, %"class.base::OnceCallback.180"*)** %85, align 8
  call void %86(%"class.guest_view::GuestViewBase"* %0, %"class.base::OnceCallback.180"* nonnull %8) #17
  %87 = getelementptr inbounds %"class.base::OnceCallback.180", %"class.base::OnceCallback.180"* %8, i64 0, i32 0
  call void @_ZN4base8internal12CallbackBaseD2Ev(%"class.base::internal::CallbackBase"* nonnull %87) #17
  ret void
}

; Function Attrs: nounwind
declare void @_ZN4base8internal12CallbackBaseD2Ev(%"class.base::internal::CallbackBase"*) unnamed_addr #3

; Function Attrs: nounwind ssp uwtable
define hidden void @_ZN10guest_view13GuestViewBase30StartTrackingEmbedderZoomLevelEv(%"class.guest_view::GuestViewBase"*) local_unnamed_addr #1 align 2 {
  %2 = bitcast %"class.guest_view::GuestViewBase"* %0 to i1 (%"class.guest_view::GuestViewBase"*)***
  %3 = load i1 (%"class.guest_view::GuestViewBase"*)**, i1 (%"class.guest_view::GuestViewBase"*)*** %2, align 8
  %4 = getelementptr inbounds i1 (%"class.guest_view::GuestViewBase"*)*, i1 (%"class.guest_view::GuestViewBase"*)** %3, i64 8
  %5 = load i1 (%"class.guest_view::GuestViewBase"*)*, i1 (%"class.guest_view::GuestViewBase"*)** %4, align 8
  %6 = tail call zeroext i1 %5(%"class.guest_view::GuestViewBase"* %0) #17
  br i1 %6, label %7, label %39

7:                                                ; preds = %1
  %8 = getelementptr inbounds %"class.guest_view::GuestViewBase", %"class.guest_view::GuestViewBase"* %0, i64 0, i32 4
  %9 = load %"class.content::WebContents"*, %"class.content::WebContents"** %8, align 8
  %10 = getelementptr inbounds %"class.content::WebContents", %"class.content::WebContents"* %9, i64 0, i32 1
  %11 = bitcast %"class.base::SupportsUserData.base"* %10 to %"class.base::SupportsUserData"*
  %12 = tail call %"class.base::SupportsUserData::Data"* @_ZNK4base16SupportsUserData11GetUserDataEPKv(%"class.base::SupportsUserData"* %11, i8* bitcast (i32* @_ZN4zoom14ZoomController12kUserDataKeyE to i8*)) #17
  %13 = icmp eq %"class.base::SupportsUserData::Data"* %12, null
  %14 = getelementptr inbounds %"class.base::SupportsUserData::Data", %"class.base::SupportsUserData::Data"* %12, i64 -2
  %15 = icmp eq %"class.base::SupportsUserData::Data"* %14, null
  %16 = or i1 %13, %15
  br i1 %16, label %39, label %17

17:                                               ; preds = %7
  %18 = bitcast %"class.base::SupportsUserData::Data"* %14 to %"class.zoom::ZoomController"*
  %19 = getelementptr inbounds %"class.guest_view::GuestViewBase", %"class.guest_view::GuestViewBase"* %0, i64 0, i32 3
  tail call void @_ZN4zoom14ZoomController11AddObserverEPNS_12ZoomObserverE(%"class.zoom::ZoomController"* nonnull %18, %"class.zoom::ZoomObserver"* %19) #17
  %20 = load %"class.content::WebContents"*, %"class.content::WebContents"** %8, align 8
  %21 = getelementptr inbounds %"class.content::WebContents", %"class.content::WebContents"* %20, i64 0, i32 1
  %22 = bitcast %"class.base::SupportsUserData.base"* %21 to %"class.base::SupportsUserData"*
  %23 = tail call %"class.base::SupportsUserData::Data"* @_ZNK4base16SupportsUserData11GetUserDataEPKv(%"class.base::SupportsUserData"* %22, i8* bitcast (i32* @_ZN4zoom14ZoomController12kUserDataKeyE to i8*)) #17
  %24 = icmp eq %"class.base::SupportsUserData::Data"* %23, null
  br i1 %24, label %39, label %25

25:                                               ; preds = %17
  %26 = getelementptr inbounds %"class.base::SupportsUserData::Data", %"class.base::SupportsUserData::Data"* %23, i64 -2
  %27 = bitcast %"class.base::SupportsUserData::Data"* %26 to %"class.zoom::ZoomController"*
  %28 = getelementptr inbounds %"class.guest_view::GuestViewBase", %"class.guest_view::GuestViewBase"* %0, i64 0, i32 2
  %29 = tail call %"class.content::WebContents"* @_ZNK7content19WebContentsObserver12web_contentsEv(%"class.content::WebContentsObserver"* %28) #17
  %30 = getelementptr inbounds %"class.content::WebContents", %"class.content::WebContents"* %29, i64 0, i32 1
  %31 = bitcast %"class.base::SupportsUserData.base"* %30 to %"class.base::SupportsUserData"*
  %32 = tail call %"class.base::SupportsUserData::Data"* @_ZNK4base16SupportsUserData11GetUserDataEPKv(%"class.base::SupportsUserData"* %31, i8* bitcast (i32* @_ZN4zoom14ZoomController12kUserDataKeyE to i8*)) #17
  %33 = icmp eq %"class.base::SupportsUserData::Data"* %32, null
  %34 = getelementptr inbounds %"class.base::SupportsUserData::Data", %"class.base::SupportsUserData::Data"* %32, i64 -2
  %35 = bitcast %"class.base::SupportsUserData::Data"* %34 to %"class.zoom::ZoomController"*
  %36 = select i1 %33, %"class.zoom::ZoomController"* null, %"class.zoom::ZoomController"* %35
  %37 = tail call double @_ZNK4zoom14ZoomController12GetZoomLevelEv(%"class.zoom::ZoomController"* nonnull %27) #17
  %38 = tail call zeroext i1 @_ZN4zoom14ZoomController12SetZoomLevelEd(%"class.zoom::ZoomController"* %36, double %37) #17
  br label %39

39:                                               ; preds = %25, %17, %7, %1
  ret void
}

; Function Attrs: nobuiltin nofree
declare noalias nonnull i8* @_Znwm(i64) local_unnamed_addr #9

; Function Attrs: nounwind ssp uwtable
define hidden void @_ZN10guest_view13GuestViewBase15SignalWhenReadyEN4base12OnceCallbackIFvvEEE(%"class.guest_view::GuestViewBase"* nocapture readnone, %"class.base::OnceCallback.180"* nocapture) unnamed_addr #1 align 2 {
  %3 = alloca %"class.base::OnceCallback.180", align 8
  %4 = bitcast %"class.base::OnceCallback.180"* %3 to i8*
  call void @llvm.lifetime.start.p0i8(i64 8, i8* nonnull %4) #17
  %5 = getelementptr inbounds %"class.base::OnceCallback.180", %"class.base::OnceCallback.180"* %1, i64 0, i32 0, i32 0, i32 0
  %6 = bitcast %"class.base::OnceCallback.180"* %1 to i64*
  %7 = load i64, i64* %6, align 8
  %8 = bitcast %"class.base::OnceCallback.180"* %3 to i64*
  store i64 %7, i64* %8, align 8
  store %"class.base::internal::BindStateBase"* null, %"class.base::internal::BindStateBase"** %5, align 8
  %9 = getelementptr inbounds %"class.base::OnceCallback.180", %"class.base::OnceCallback.180"* %3, i64 0, i32 0
  %10 = inttoptr i64 %7 to %"class.base::internal::BindStateBase"*
  %11 = getelementptr inbounds %"class.base::internal::BindStateBase", %"class.base::internal::BindStateBase"* %10, i64 0, i32 1
  %12 = bitcast void ()** %11 to void (%"class.base::internal::BindStateBase"*)**
  %13 = load void (%"class.base::internal::BindStateBase"*)*, void (%"class.base::internal::BindStateBase"*)** %12, align 8
  tail call void %13(%"class.base::internal::BindStateBase"* %10) #17
  call void @_ZN4base8internal12CallbackBaseD2Ev(%"class.base::internal::CallbackBase"* nonnull %9) #17
  call void @llvm.lifetime.end.p0i8(i64 8, i8* nonnull %4) #17
  ret void
}

; Function Attrs: nounwind ssp uwtable
define hidden i32 @_ZNK10guest_view13GuestViewBase29LogicalPixelsToPhysicalPixelsEd(%"class.guest_view::GuestViewBase"* nocapture readonly, double) local_unnamed_addr #1 align 2 {
  %3 = getelementptr inbounds %"class.guest_view::GuestViewBase", %"class.guest_view::GuestViewBase"* %0, i64 0, i32 9
  %4 = load i32, i32* %3, align 8
  %5 = load i32, i32* @_ZN10guest_view15kInstanceIDNoneE, align 4
  %6 = icmp eq i32 %4, %5
  br i1 %6, label %22, label %7

7:                                                ; preds = %2
  %8 = getelementptr inbounds %"class.guest_view::GuestViewBase", %"class.guest_view::GuestViewBase"* %0, i64 0, i32 10
  %9 = load i8, i8* %8, align 4, !range !7
  %10 = icmp eq i8 %9, 0
  br i1 %10, label %11, label %22

11:                                               ; preds = %7
  %12 = getelementptr inbounds %"class.guest_view::GuestViewBase", %"class.guest_view::GuestViewBase"* %0, i64 0, i32 12
  %13 = load i8, i8* %12, align 2, !range !7
  %14 = icmp eq i8 %13, 0
  br i1 %14, label %15, label %22

15:                                               ; preds = %11
  %16 = getelementptr inbounds %"class.guest_view::GuestViewBase", %"class.guest_view::GuestViewBase"* %0, i64 0, i32 4
  %17 = load %"class.content::WebContents"*, %"class.content::WebContents"** %16, align 8
  %18 = icmp eq %"class.content::WebContents"* %17, null
  br i1 %18, label %22, label %19

19:                                               ; preds = %15
  %20 = tail call double @_ZN4zoom14ZoomController26GetZoomLevelForWebContentsEPN7content11WebContentsE(%"class.content::WebContents"* nonnull %17) #17
  %21 = tail call double @_ZN5blink25PageZoomLevelToZoomFactorEd(double %20) #17
  br label %22

22:                                               ; preds = %2, %7, %11, %15, %19
  %23 = phi double [ %21, %19 ], [ 1.000000e+00, %15 ], [ 1.000000e+00, %11 ], [ 1.000000e+00, %7 ], [ 1.000000e+00, %2 ]
  %24 = fmul double %23, %1
  %25 = tail call i64 @lround(double %24) #17
  %26 = trunc i64 %25 to i32
  ret i32 %26
}

; Function Attrs: nounwind ssp uwtable
define hidden double @_ZNK10guest_view13GuestViewBase21GetEmbedderZoomFactorEv(%"class.guest_view::GuestViewBase"* nocapture readonly) local_unnamed_addr #1 align 2 {
  %2 = getelementptr inbounds %"class.guest_view::GuestViewBase", %"class.guest_view::GuestViewBase"* %0, i64 0, i32 9
  %3 = load i32, i32* %2, align 8
  %4 = load i32, i32* @_ZN10guest_view15kInstanceIDNoneE, align 4
  %5 = icmp eq i32 %3, %4
  br i1 %5, label %21, label %6

6:                                                ; preds = %1
  %7 = getelementptr inbounds %"class.guest_view::GuestViewBase", %"class.guest_view::GuestViewBase"* %0, i64 0, i32 10
  %8 = load i8, i8* %7, align 4, !range !7
  %9 = icmp eq i8 %8, 0
  br i1 %9, label %10, label %21

10:                                               ; preds = %6
  %11 = getelementptr inbounds %"class.guest_view::GuestViewBase", %"class.guest_view::GuestViewBase"* %0, i64 0, i32 12
  %12 = load i8, i8* %11, align 2, !range !7
  %13 = icmp eq i8 %12, 0
  br i1 %13, label %14, label %21

14:                                               ; preds = %10
  %15 = getelementptr inbounds %"class.guest_view::GuestViewBase", %"class.guest_view::GuestViewBase"* %0, i64 0, i32 4
  %16 = load %"class.content::WebContents"*, %"class.content::WebContents"** %15, align 8
  %17 = icmp eq %"class.content::WebContents"* %16, null
  br i1 %17, label %21, label %18

18:                                               ; preds = %14
  %19 = tail call double @_ZN4zoom14ZoomController26GetZoomLevelForWebContentsEPN7content11WebContentsE(%"class.content::WebContents"* nonnull %16) #17
  %20 = tail call double @_ZN5blink25PageZoomLevelToZoomFactorEd(double %19) #17
  br label %21

21:                                               ; preds = %1, %6, %10, %14, %18
  %22 = phi double [ %20, %18 ], [ 1.000000e+00, %14 ], [ 1.000000e+00, %10 ], [ 1.000000e+00, %6 ], [ 1.000000e+00, %1 ]
  ret double %22
}

; Function Attrs: nounwind
declare i64 @lround(double) local_unnamed_addr #3

; Function Attrs: nounwind ssp uwtable
define hidden double @_ZNK10guest_view13GuestViewBase29PhysicalPixelsToLogicalPixelsEi(%"class.guest_view::GuestViewBase"* nocapture readonly, i32) local_unnamed_addr #1 align 2 {
  %3 = getelementptr inbounds %"class.guest_view::GuestViewBase", %"class.guest_view::GuestViewBase"* %0, i64 0, i32 9
  %4 = load i32, i32* %3, align 8
  %5 = load i32, i32* @_ZN10guest_view15kInstanceIDNoneE, align 4
  %6 = icmp eq i32 %4, %5
  br i1 %6, label %22, label %7

7:                                                ; preds = %2
  %8 = getelementptr inbounds %"class.guest_view::GuestViewBase", %"class.guest_view::GuestViewBase"* %0, i64 0, i32 10
  %9 = load i8, i8* %8, align 4, !range !7
  %10 = icmp eq i8 %9, 0
  br i1 %10, label %11, label %22

11:                                               ; preds = %7
  %12 = getelementptr inbounds %"class.guest_view::GuestViewBase", %"class.guest_view::GuestViewBase"* %0, i64 0, i32 12
  %13 = load i8, i8* %12, align 2, !range !7
  %14 = icmp eq i8 %13, 0
  br i1 %14, label %15, label %22

15:                                               ; preds = %11
  %16 = getelementptr inbounds %"class.guest_view::GuestViewBase", %"class.guest_view::GuestViewBase"* %0, i64 0, i32 4
  %17 = load %"class.content::WebContents"*, %"class.content::WebContents"** %16, align 8
  %18 = icmp eq %"class.content::WebContents"* %17, null
  br i1 %18, label %22, label %19

19:                                               ; preds = %15
  %20 = tail call double @_ZN4zoom14ZoomController26GetZoomLevelForWebContentsEPN7content11WebContentsE(%"class.content::WebContents"* nonnull %17) #17
  %21 = tail call double @_ZN5blink25PageZoomLevelToZoomFactorEd(double %20) #17
  br label %22

22:                                               ; preds = %2, %7, %11, %15, %19
  %23 = phi double [ %21, %19 ], [ 1.000000e+00, %15 ], [ 1.000000e+00, %11 ], [ 1.000000e+00, %7 ], [ 1.000000e+00, %2 ]
  %24 = sitofp i32 %1 to double
  %25 = fdiv double %24, %23
  ret double %25
}

; Function Attrs: nounwind ssp uwtable
define hidden void @_ZN10guest_view13GuestViewBase14DidStopLoadingEv(%"class.guest_view::GuestViewBase"*) unnamed_addr #1 align 2 {
  %2 = getelementptr inbounds %"class.guest_view::GuestViewBase", %"class.guest_view::GuestViewBase"* %0, i64 0, i32 2
  %3 = tail call %"class.content::WebContents"* @_ZNK7content19WebContentsObserver12web_contentsEv(%"class.content::WebContentsObserver"* %2) #17
  %4 = bitcast %"class.content::WebContents"* %3 to %"class.content::RenderFrameHost"* (%"class.content::WebContents"*)***
  %5 = load %"class.content::RenderFrameHost"* (%"class.content::WebContents"*)**, %"class.content::RenderFrameHost"* (%"class.content::WebContents"*)*** %4, align 8
  %6 = getelementptr inbounds %"class.content::RenderFrameHost"* (%"class.content::WebContents"*)*, %"class.content::RenderFrameHost"* (%"class.content::WebContents"*)** %5, i64 10
  %7 = load %"class.content::RenderFrameHost"* (%"class.content::WebContents"*)*, %"class.content::RenderFrameHost"* (%"class.content::WebContents"*)** %6, align 8
  %8 = tail call %"class.content::RenderFrameHost"* %7(%"class.content::WebContents"* %3) #17
  %9 = bitcast %"class.content::RenderFrameHost"* %8 to %"class.content::RenderViewHost"* (%"class.content::RenderFrameHost"*)***
  %10 = load %"class.content::RenderViewHost"* (%"class.content::RenderFrameHost"*)**, %"class.content::RenderViewHost"* (%"class.content::RenderFrameHost"*)*** %9, align 8
  %11 = getelementptr inbounds %"class.content::RenderViewHost"* (%"class.content::RenderFrameHost"*)*, %"class.content::RenderViewHost"* (%"class.content::RenderFrameHost"*)** %10, i64 52
  %12 = load %"class.content::RenderViewHost"* (%"class.content::RenderFrameHost"*)*, %"class.content::RenderViewHost"* (%"class.content::RenderFrameHost"*)** %11, align 8
  %13 = tail call %"class.content::RenderViewHost"* %12(%"class.content::RenderFrameHost"* %8) #17
  %14 = bitcast %"class.guest_view::GuestViewBase"* %0 to i1 (%"class.guest_view::GuestViewBase"*)***
  %15 = load i1 (%"class.guest_view::GuestViewBase"*)**, i1 (%"class.guest_view::GuestViewBase"*)*** %14, align 8
  %16 = getelementptr inbounds i1 (%"class.guest_view::GuestViewBase"*)*, i1 (%"class.guest_view::GuestViewBase"*)** %15, i64 7
  %17 = load i1 (%"class.guest_view::GuestViewBase"*)*, i1 (%"class.guest_view::GuestViewBase"*)** %16, align 8
  %18 = tail call zeroext i1 %17(%"class.guest_view::GuestViewBase"* %0) #17
  br i1 %18, label %19, label %24

19:                                               ; preds = %1
  %20 = bitcast %"class.content::RenderViewHost"* %13 to void (%"class.content::RenderViewHost"*)***
  %21 = load void (%"class.content::RenderViewHost"*)**, void (%"class.content::RenderViewHost"*)*** %20, align 8
  %22 = getelementptr inbounds void (%"class.content::RenderViewHost"*)*, void (%"class.content::RenderViewHost"*)** %21, i64 6
  %23 = load void (%"class.content::RenderViewHost"*)*, void (%"class.content::RenderViewHost"*)** %22, align 8
  tail call void %23(%"class.content::RenderViewHost"* %13) #17
  br label %24

24:                                               ; preds = %19, %1
  %25 = bitcast %"class.guest_view::GuestViewBase"* %0 to void (%"class.guest_view::GuestViewBase"*)***
  %26 = load void (%"class.guest_view::GuestViewBase"*)**, void (%"class.guest_view::GuestViewBase"*)*** %25, align 8
  %27 = getelementptr inbounds void (%"class.guest_view::GuestViewBase"*)*, void (%"class.guest_view::GuestViewBase"*)** %26, i64 24
  %28 = load void (%"class.guest_view::GuestViewBase"*)*, void (%"class.guest_view::GuestViewBase"*)** %27, align 8
  tail call void %28(%"class.guest_view::GuestViewBase"* %0) #17
  ret void
}

; Function Attrs: nounwind ssp uwtable
define hidden void @_ZThn40_N10guest_view13GuestViewBase14DidStopLoadingEv(%"class.guest_view::GuestViewBase"*) unnamed_addr #1 align 2 {
  %2 = getelementptr inbounds %"class.guest_view::GuestViewBase", %"class.guest_view::GuestViewBase"* %0, i64 -1, i32 21, i32 1
  %3 = bitcast i32* %2 to %"class.guest_view::GuestViewBase"*
  %4 = getelementptr inbounds i32, i32* %2, i64 10
  %5 = bitcast i32* %4 to %"class.content::WebContentsObserver"*
  %6 = tail call %"class.content::WebContents"* @_ZNK7content19WebContentsObserver12web_contentsEv(%"class.content::WebContentsObserver"* %5) #17
  %7 = bitcast %"class.content::WebContents"* %6 to %"class.content::RenderFrameHost"* (%"class.content::WebContents"*)***
  %8 = load %"class.content::RenderFrameHost"* (%"class.content::WebContents"*)**, %"class.content::RenderFrameHost"* (%"class.content::WebContents"*)*** %7, align 8
  %9 = getelementptr inbounds %"class.content::RenderFrameHost"* (%"class.content::WebContents"*)*, %"class.content::RenderFrameHost"* (%"class.content::WebContents"*)** %8, i64 10
  %10 = load %"class.content::RenderFrameHost"* (%"class.content::WebContents"*)*, %"class.content::RenderFrameHost"* (%"class.content::WebContents"*)** %9, align 8
  %11 = tail call %"class.content::RenderFrameHost"* %10(%"class.content::WebContents"* %6) #17
  %12 = bitcast %"class.content::RenderFrameHost"* %11 to %"class.content::RenderViewHost"* (%"class.content::RenderFrameHost"*)***
  %13 = load %"class.content::RenderViewHost"* (%"class.content::RenderFrameHost"*)**, %"class.content::RenderViewHost"* (%"class.content::RenderFrameHost"*)*** %12, align 8
  %14 = getelementptr inbounds %"class.content::RenderViewHost"* (%"class.content::RenderFrameHost"*)*, %"class.content::RenderViewHost"* (%"class.content::RenderFrameHost"*)** %13, i64 52
  %15 = load %"class.content::RenderViewHost"* (%"class.content::RenderFrameHost"*)*, %"class.content::RenderViewHost"* (%"class.content::RenderFrameHost"*)** %14, align 8
  %16 = tail call %"class.content::RenderViewHost"* %15(%"class.content::RenderFrameHost"* %11) #17
  %17 = bitcast i32* %2 to i1 (%"class.guest_view::GuestViewBase"*)***
  %18 = load i1 (%"class.guest_view::GuestViewBase"*)**, i1 (%"class.guest_view::GuestViewBase"*)*** %17, align 8
  %19 = getelementptr inbounds i1 (%"class.guest_view::GuestViewBase"*)*, i1 (%"class.guest_view::GuestViewBase"*)** %18, i64 7
  %20 = load i1 (%"class.guest_view::GuestViewBase"*)*, i1 (%"class.guest_view::GuestViewBase"*)** %19, align 8
  %21 = tail call zeroext i1 %20(%"class.guest_view::GuestViewBase"* %3) #17
  br i1 %21, label %22, label %27

22:                                               ; preds = %1
  %23 = bitcast %"class.content::RenderViewHost"* %16 to void (%"class.content::RenderViewHost"*)***
  %24 = load void (%"class.content::RenderViewHost"*)**, void (%"class.content::RenderViewHost"*)*** %23, align 8
  %25 = getelementptr inbounds void (%"class.content::RenderViewHost"*)*, void (%"class.content::RenderViewHost"*)** %24, i64 6
  %26 = load void (%"class.content::RenderViewHost"*)*, void (%"class.content::RenderViewHost"*)** %25, align 8
  tail call void %26(%"class.content::RenderViewHost"* %16) #17
  br label %27

27:                                               ; preds = %1, %22
  %28 = bitcast i32* %2 to void (%"class.guest_view::GuestViewBase"*)***
  %29 = load void (%"class.guest_view::GuestViewBase"*)**, void (%"class.guest_view::GuestViewBase"*)*** %28, align 8
  %30 = getelementptr inbounds void (%"class.guest_view::GuestViewBase"*)*, void (%"class.guest_view::GuestViewBase"*)** %29, i64 24
  %31 = load void (%"class.guest_view::GuestViewBase"*)*, void (%"class.guest_view::GuestViewBase"*)** %30, align 8
  tail call void %31(%"class.guest_view::GuestViewBase"* %3) #17
  ret void
}

; Function Attrs: nounwind ssp uwtable
define hidden void @_ZN10guest_view13GuestViewBase15RenderViewReadyEv(%"class.guest_view::GuestViewBase"*) unnamed_addr #1 align 2 {
  %2 = bitcast %"class.guest_view::GuestViewBase"* %0 to void (%"class.guest_view::GuestViewBase"*)***
  %3 = load void (%"class.guest_view::GuestViewBase"*)**, void (%"class.guest_view::GuestViewBase"*)*** %2, align 8
  %4 = getelementptr inbounds void (%"class.guest_view::GuestViewBase"*)*, void (%"class.guest_view::GuestViewBase"*)** %3, i64 26
  %5 = load void (%"class.guest_view::GuestViewBase"*)*, void (%"class.guest_view::GuestViewBase"*)** %4, align 8
  tail call void %5(%"class.guest_view::GuestViewBase"* %0) #17
  ret void
}

; Function Attrs: nounwind ssp uwtable
define hidden void @_ZThn40_N10guest_view13GuestViewBase15RenderViewReadyEv(%"class.guest_view::GuestViewBase"*) unnamed_addr #1 align 2 {
  %2 = getelementptr inbounds %"class.guest_view::GuestViewBase", %"class.guest_view::GuestViewBase"* %0, i64 -1, i32 21, i32 1
  %3 = bitcast i32* %2 to %"class.guest_view::GuestViewBase"*
  %4 = bitcast i32* %2 to void (%"class.guest_view::GuestViewBase"*)***
  %5 = load void (%"class.guest_view::GuestViewBase"*)**, void (%"class.guest_view::GuestViewBase"*)*** %4, align 8
  %6 = getelementptr inbounds void (%"class.guest_view::GuestViewBase"*)*, void (%"class.guest_view::GuestViewBase"*)** %5, i64 26
  %7 = load void (%"class.guest_view::GuestViewBase"*)*, void (%"class.guest_view::GuestViewBase"*)** %6, align 8
  tail call void %7(%"class.guest_view::GuestViewBase"* %3) #17
  ret void
}

; Function Attrs: nounwind ssp uwtable
define hidden void @_ZN10guest_view13GuestViewBase20WebContentsDestroyedEv(%"class.guest_view::GuestViewBase"*) unnamed_addr #1 align 2 {
  tail call void @_ZN10guest_view13GuestViewBase7DestroyEb(%"class.guest_view::GuestViewBase"* %0, i1 zeroext false)
  %2 = bitcast %"class.guest_view::GuestViewBase"* %0 to void (%"class.guest_view::GuestViewBase"*)***
  %3 = load void (%"class.guest_view::GuestViewBase"*)**, void (%"class.guest_view::GuestViewBase"*)*** %2, align 8
  %4 = getelementptr inbounds void (%"class.guest_view::GuestViewBase"*)*, void (%"class.guest_view::GuestViewBase"*)** %3, i64 25
  %5 = load void (%"class.guest_view::GuestViewBase"*)*, void (%"class.guest_view::GuestViewBase"*)** %4, align 8
  tail call void %5(%"class.guest_view::GuestViewBase"* %0) #17
  %6 = icmp eq %"class.guest_view::GuestViewBase"* %0, null
  br i1 %6, label %11, label %7

7:                                                ; preds = %1
  %8 = load void (%"class.guest_view::GuestViewBase"*)**, void (%"class.guest_view::GuestViewBase"*)*** %2, align 8
  %9 = getelementptr inbounds void (%"class.guest_view::GuestViewBase"*)*, void (%"class.guest_view::GuestViewBase"*)** %8, i64 1
  %10 = load void (%"class.guest_view::GuestViewBase"*)*, void (%"class.guest_view::GuestViewBase"*)** %9, align 8
  tail call void %10(%"class.guest_view::GuestViewBase"* nonnull %0) #17
  br label %11

11:                                               ; preds = %7, %1
  ret void
}

; Function Attrs: nounwind ssp uwtable
define hidden void @_ZThn40_N10guest_view13GuestViewBase20WebContentsDestroyedEv(%"class.guest_view::GuestViewBase"*) unnamed_addr #1 align 2 {
  %2 = getelementptr inbounds %"class.guest_view::GuestViewBase", %"class.guest_view::GuestViewBase"* %0, i64 -1, i32 21, i32 1
  %3 = bitcast i32* %2 to %"class.guest_view::GuestViewBase"*
  tail call void @_ZN10guest_view13GuestViewBase7DestroyEb(%"class.guest_view::GuestViewBase"* %3, i1 zeroext false) #17
  %4 = bitcast i32* %2 to void (%"class.guest_view::GuestViewBase"*)***
  %5 = load void (%"class.guest_view::GuestViewBase"*)**, void (%"class.guest_view::GuestViewBase"*)*** %4, align 8
  %6 = getelementptr inbounds void (%"class.guest_view::GuestViewBase"*)*, void (%"class.guest_view::GuestViewBase"*)** %5, i64 25
  %7 = load void (%"class.guest_view::GuestViewBase"*)*, void (%"class.guest_view::GuestViewBase"*)** %6, align 8
  tail call void %7(%"class.guest_view::GuestViewBase"* %3) #17
  %8 = icmp eq i32* %2, null
  br i1 %8, label %13, label %9

9:                                                ; preds = %1
  %10 = load void (%"class.guest_view::GuestViewBase"*)**, void (%"class.guest_view::GuestViewBase"*)*** %4, align 8
  %11 = getelementptr inbounds void (%"class.guest_view::GuestViewBase"*)*, void (%"class.guest_view::GuestViewBase"*)** %10, i64 1
  %12 = load void (%"class.guest_view::GuestViewBase"*)*, void (%"class.guest_view::GuestViewBase"*)** %11, align 8
  tail call void %12(%"class.guest_view::GuestViewBase"* nonnull %3) #17
  br label %13

13:                                               ; preds = %1, %9
  ret void
}

; Function Attrs: nounwind ssp uwtable
define hidden void @_ZN10guest_view13GuestViewBase19DidFinishNavigationEPN7content16NavigationHandleE(%"class.guest_view::GuestViewBase"*, %"class.content::NavigationHandle"*) unnamed_addr #1 align 2 {
  %3 = bitcast %"class.content::NavigationHandle"* %1 to i1 (%"class.content::NavigationHandle"*)***
  %4 = load i1 (%"class.content::NavigationHandle"*)**, i1 (%"class.content::NavigationHandle"*)*** %3, align 8
  %5 = getelementptr inbounds i1 (%"class.content::NavigationHandle"*)*, i1 (%"class.content::NavigationHandle"*)** %4, i64 7
  %6 = load i1 (%"class.content::NavigationHandle"*)*, i1 (%"class.content::NavigationHandle"*)** %5, align 8
  %7 = tail call zeroext i1 %6(%"class.content::NavigationHandle"* %1) #17
  br i1 %7, label %8, label %53

8:                                                ; preds = %2
  %9 = load i1 (%"class.content::NavigationHandle"*)**, i1 (%"class.content::NavigationHandle"*)*** %3, align 8
  %10 = getelementptr inbounds i1 (%"class.content::NavigationHandle"*)*, i1 (%"class.content::NavigationHandle"*)** %9, i64 38
  %11 = load i1 (%"class.content::NavigationHandle"*)*, i1 (%"class.content::NavigationHandle"*)** %10, align 8
  %12 = tail call zeroext i1 %11(%"class.content::NavigationHandle"* %1) #17
  br i1 %12, label %13, label %53

13:                                               ; preds = %8
  %14 = getelementptr inbounds %"class.guest_view::GuestViewBase", %"class.guest_view::GuestViewBase"* %0, i64 0, i32 9
  %15 = load i32, i32* %14, align 8
  %16 = load i32, i32* @_ZN10guest_view15kInstanceIDNoneE, align 4
  %17 = icmp eq i32 %15, %16
  br i1 %17, label %53, label %18

18:                                               ; preds = %13
  %19 = getelementptr inbounds %"class.guest_view::GuestViewBase", %"class.guest_view::GuestViewBase"* %0, i64 0, i32 10
  %20 = load i8, i8* %19, align 4, !range !7
  %21 = icmp eq i8 %20, 0
  br i1 %21, label %22, label %53

22:                                               ; preds = %18
  %23 = getelementptr inbounds %"class.guest_view::GuestViewBase", %"class.guest_view::GuestViewBase"* %0, i64 0, i32 12
  %24 = load i8, i8* %23, align 2, !range !7
  %25 = icmp eq i8 %24, 0
  br i1 %25, label %26, label %53

26:                                               ; preds = %22
  %27 = bitcast %"class.guest_view::GuestViewBase"* %0 to i1 (%"class.guest_view::GuestViewBase"*)***
  %28 = load i1 (%"class.guest_view::GuestViewBase"*)**, i1 (%"class.guest_view::GuestViewBase"*)*** %27, align 8
  %29 = getelementptr inbounds i1 (%"class.guest_view::GuestViewBase"*)*, i1 (%"class.guest_view::GuestViewBase"*)** %28, i64 8
  %30 = load i1 (%"class.guest_view::GuestViewBase"*)*, i1 (%"class.guest_view::GuestViewBase"*)** %29, align 8
  %31 = tail call zeroext i1 %30(%"class.guest_view::GuestViewBase"* %0) #17
  br i1 %31, label %32, label %53

32:                                               ; preds = %26
  %33 = getelementptr inbounds %"class.guest_view::GuestViewBase", %"class.guest_view::GuestViewBase"* %0, i64 0, i32 4
  %34 = load %"class.content::WebContents"*, %"class.content::WebContents"** %33, align 8
  %35 = getelementptr inbounds %"class.content::WebContents", %"class.content::WebContents"* %34, i64 0, i32 1
  %36 = bitcast %"class.base::SupportsUserData.base"* %35 to %"class.base::SupportsUserData"*
  %37 = tail call %"class.base::SupportsUserData::Data"* @_ZNK4base16SupportsUserData11GetUserDataEPKv(%"class.base::SupportsUserData"* %36, i8* bitcast (i32* @_ZN4zoom14ZoomController12kUserDataKeyE to i8*)) #17
  %38 = icmp eq %"class.base::SupportsUserData::Data"* %37, null
  br i1 %38, label %53, label %39

39:                                               ; preds = %32
  %40 = getelementptr inbounds %"class.base::SupportsUserData::Data", %"class.base::SupportsUserData::Data"* %37, i64 -2
  %41 = bitcast %"class.base::SupportsUserData::Data"* %40 to %"class.zoom::ZoomController"*
  %42 = getelementptr inbounds %"class.guest_view::GuestViewBase", %"class.guest_view::GuestViewBase"* %0, i64 0, i32 2
  %43 = tail call %"class.content::WebContents"* @_ZNK7content19WebContentsObserver12web_contentsEv(%"class.content::WebContentsObserver"* %42) #17
  %44 = getelementptr inbounds %"class.content::WebContents", %"class.content::WebContents"* %43, i64 0, i32 1
  %45 = bitcast %"class.base::SupportsUserData.base"* %44 to %"class.base::SupportsUserData"*
  %46 = tail call %"class.base::SupportsUserData::Data"* @_ZNK4base16SupportsUserData11GetUserDataEPKv(%"class.base::SupportsUserData"* %45, i8* bitcast (i32* @_ZN4zoom14ZoomController12kUserDataKeyE to i8*)) #17
  %47 = icmp eq %"class.base::SupportsUserData::Data"* %46, null
  %48 = getelementptr inbounds %"class.base::SupportsUserData::Data", %"class.base::SupportsUserData::Data"* %46, i64 -2
  %49 = bitcast %"class.base::SupportsUserData::Data"* %48 to %"class.zoom::ZoomController"*
  %50 = select i1 %47, %"class.zoom::ZoomController"* null, %"class.zoom::ZoomController"* %49
  %51 = tail call double @_ZNK4zoom14ZoomController12GetZoomLevelEv(%"class.zoom::ZoomController"* nonnull %41) #17
  %52 = tail call zeroext i1 @_ZN4zoom14ZoomController12SetZoomLevelEd(%"class.zoom::ZoomController"* %50, double %51) #17
  br label %53

53:                                               ; preds = %13, %18, %39, %32, %2, %8, %26, %22
  ret void
}

; Function Attrs: nounwind ssp uwtable
define hidden void @_ZN10guest_view13GuestViewBase32SetGuestZoomLevelToMatchEmbedderEv(%"class.guest_view::GuestViewBase"*) local_unnamed_addr #1 align 2 {
  %2 = getelementptr inbounds %"class.guest_view::GuestViewBase", %"class.guest_view::GuestViewBase"* %0, i64 0, i32 4
  %3 = load %"class.content::WebContents"*, %"class.content::WebContents"** %2, align 8
  %4 = getelementptr inbounds %"class.content::WebContents", %"class.content::WebContents"* %3, i64 0, i32 1
  %5 = bitcast %"class.base::SupportsUserData.base"* %4 to %"class.base::SupportsUserData"*
  %6 = tail call %"class.base::SupportsUserData::Data"* @_ZNK4base16SupportsUserData11GetUserDataEPKv(%"class.base::SupportsUserData"* %5, i8* bitcast (i32* @_ZN4zoom14ZoomController12kUserDataKeyE to i8*)) #17
  %7 = icmp eq %"class.base::SupportsUserData::Data"* %6, null
  %8 = getelementptr inbounds %"class.base::SupportsUserData::Data", %"class.base::SupportsUserData::Data"* %6, i64 -2
  %9 = icmp eq %"class.base::SupportsUserData::Data"* %8, null
  %10 = or i1 %7, %9
  br i1 %10, label %24, label %11

11:                                               ; preds = %1
  %12 = bitcast %"class.base::SupportsUserData::Data"* %8 to %"class.zoom::ZoomController"*
  %13 = getelementptr inbounds %"class.guest_view::GuestViewBase", %"class.guest_view::GuestViewBase"* %0, i64 0, i32 2
  %14 = tail call %"class.content::WebContents"* @_ZNK7content19WebContentsObserver12web_contentsEv(%"class.content::WebContentsObserver"* %13) #17
  %15 = getelementptr inbounds %"class.content::WebContents", %"class.content::WebContents"* %14, i64 0, i32 1
  %16 = bitcast %"class.base::SupportsUserData.base"* %15 to %"class.base::SupportsUserData"*
  %17 = tail call %"class.base::SupportsUserData::Data"* @_ZNK4base16SupportsUserData11GetUserDataEPKv(%"class.base::SupportsUserData"* %16, i8* bitcast (i32* @_ZN4zoom14ZoomController12kUserDataKeyE to i8*)) #17
  %18 = icmp eq %"class.base::SupportsUserData::Data"* %17, null
  %19 = getelementptr inbounds %"class.base::SupportsUserData::Data", %"class.base::SupportsUserData::Data"* %17, i64 -2
  %20 = bitcast %"class.base::SupportsUserData::Data"* %19 to %"class.zoom::ZoomController"*
  %21 = select i1 %18, %"class.zoom::ZoomController"* null, %"class.zoom::ZoomController"* %20
  %22 = tail call double @_ZNK4zoom14ZoomController12GetZoomLevelEv(%"class.zoom::ZoomController"* nonnull %12) #17
  %23 = tail call zeroext i1 @_ZN4zoom14ZoomController12SetZoomLevelEd(%"class.zoom::ZoomController"* %21, double %22) #17
  br label %24

24:                                               ; preds = %1, %11
  ret void
}

; Function Attrs: nounwind ssp uwtable
define hidden void @_ZThn40_N10guest_view13GuestViewBase19DidFinishNavigationEPN7content16NavigationHandleE(%"class.guest_view::GuestViewBase"*, %"class.content::NavigationHandle"*) unnamed_addr #1 align 2 {
  %3 = getelementptr inbounds %"class.guest_view::GuestViewBase", %"class.guest_view::GuestViewBase"* %0, i64 -1, i32 21, i32 1
  %4 = bitcast i32* %3 to %"class.guest_view::GuestViewBase"*
  tail call void @_ZN10guest_view13GuestViewBase19DidFinishNavigationEPN7content16NavigationHandleE(%"class.guest_view::GuestViewBase"* %4, %"class.content::NavigationHandle"* %1)
  ret void
}

; Function Attrs: nounwind ssp uwtable
define hidden void @_ZN10guest_view13GuestViewBase16ActivateContentsEPN7content11WebContentsE(%"class.guest_view::GuestViewBase"* nocapture readonly, %"class.content::WebContents"* nocapture readnone) unnamed_addr #1 align 2 {
  %3 = getelementptr inbounds %"class.guest_view::GuestViewBase", %"class.guest_view::GuestViewBase"* %0, i64 0, i32 9
  %4 = load i32, i32* %3, align 8
  %5 = load i32, i32* @_ZN10guest_view15kInstanceIDNoneE, align 4
  %6 = icmp eq i32 %4, %5
  br i1 %6, label %61, label %7

7:                                                ; preds = %2
  %8 = getelementptr inbounds %"class.guest_view::GuestViewBase", %"class.guest_view::GuestViewBase"* %0, i64 0, i32 10
  %9 = load i8, i8* %8, align 4, !range !7
  %10 = icmp eq i8 %9, 0
  br i1 %10, label %11, label %61

11:                                               ; preds = %7
  %12 = getelementptr inbounds %"class.guest_view::GuestViewBase", %"class.guest_view::GuestViewBase"* %0, i64 0, i32 12
  %13 = load i8, i8* %12, align 2, !range !7
  %14 = icmp eq i8 %13, 0
  br i1 %14, label %15, label %61

15:                                               ; preds = %11
  %16 = getelementptr inbounds %"class.guest_view::GuestViewBase", %"class.guest_view::GuestViewBase"* %0, i64 0, i32 4
  %17 = load %"class.content::WebContents"*, %"class.content::WebContents"** %16, align 8
  %18 = bitcast %"class.content::WebContents"* %17 to %"class.content::WebContentsDelegate"* (%"class.content::WebContents"*)***
  %19 = load %"class.content::WebContentsDelegate"* (%"class.content::WebContents"*)**, %"class.content::WebContentsDelegate"* (%"class.content::WebContents"*)*** %18, align 8
  %20 = getelementptr inbounds %"class.content::WebContentsDelegate"* (%"class.content::WebContents"*)*, %"class.content::WebContentsDelegate"* (%"class.content::WebContents"*)** %19, i64 3
  %21 = load %"class.content::WebContentsDelegate"* (%"class.content::WebContents"*)*, %"class.content::WebContentsDelegate"* (%"class.content::WebContents"*)** %20, align 8
  %22 = tail call %"class.content::WebContentsDelegate"* %21(%"class.content::WebContents"* %17) #17
  %23 = icmp eq %"class.content::WebContentsDelegate"* %22, null
  br i1 %23, label %61, label %24

24:                                               ; preds = %15
  %25 = load i32, i32* %3, align 8
  %26 = icmp eq i32 %25, %5
  br i1 %26, label %37, label %27

27:                                               ; preds = %24
  %28 = load i8, i8* %8, align 4, !range !7
  %29 = icmp eq i8 %28, 0
  br i1 %29, label %30, label %37

30:                                               ; preds = %27
  %31 = load i8, i8* %12, align 2, !range !7
  %32 = icmp eq i8 %31, 0
  br i1 %32, label %33, label %37

33:                                               ; preds = %30
  %34 = getelementptr inbounds %"class.guest_view::GuestViewBase", %"class.guest_view::GuestViewBase"* %0, i64 0, i32 4
  %35 = load %"class.content::WebContents"*, %"class.content::WebContents"** %34, align 8
  %36 = bitcast %"class.content::WebContents"* %35 to %"class.content::WebContentsDelegate"* (%"class.content::WebContents"*)***
  br label %37

37:                                               ; preds = %24, %27, %30, %33
  %38 = phi %"class.content::WebContentsDelegate"* (%"class.content::WebContents"*)*** [ %36, %33 ], [ null, %30 ], [ null, %27 ], [ null, %24 ]
  %39 = phi %"class.content::WebContents"* [ %35, %33 ], [ null, %30 ], [ null, %27 ], [ null, %24 ]
  %40 = load %"class.content::WebContentsDelegate"* (%"class.content::WebContents"*)**, %"class.content::WebContentsDelegate"* (%"class.content::WebContents"*)*** %38, align 8
  %41 = getelementptr inbounds %"class.content::WebContentsDelegate"* (%"class.content::WebContents"*)*, %"class.content::WebContentsDelegate"* (%"class.content::WebContents"*)** %40, i64 3
  %42 = load %"class.content::WebContentsDelegate"* (%"class.content::WebContents"*)*, %"class.content::WebContentsDelegate"* (%"class.content::WebContents"*)** %41, align 8
  %43 = tail call %"class.content::WebContentsDelegate"* %42(%"class.content::WebContents"* %39) #17
  %44 = load i32, i32* %3, align 8
  %45 = icmp eq i32 %44, %5
  br i1 %45, label %55, label %46

46:                                               ; preds = %37
  %47 = load i8, i8* %8, align 4, !range !7
  %48 = icmp eq i8 %47, 0
  br i1 %48, label %49, label %55

49:                                               ; preds = %46
  %50 = load i8, i8* %12, align 2, !range !7
  %51 = icmp eq i8 %50, 0
  br i1 %51, label %52, label %55

52:                                               ; preds = %49
  %53 = getelementptr inbounds %"class.guest_view::GuestViewBase", %"class.guest_view::GuestViewBase"* %0, i64 0, i32 4
  %54 = load %"class.content::WebContents"*, %"class.content::WebContents"** %53, align 8
  br label %55

55:                                               ; preds = %37, %46, %49, %52
  %56 = phi %"class.content::WebContents"* [ %54, %52 ], [ null, %49 ], [ null, %46 ], [ null, %37 ]
  %57 = bitcast %"class.content::WebContentsDelegate"* %43 to void (%"class.content::WebContentsDelegate"*, %"class.content::WebContents"*)***
  %58 = load void (%"class.content::WebContentsDelegate"*, %"class.content::WebContents"*)**, void (%"class.content::WebContentsDelegate"*, %"class.content::WebContents"*)*** %57, align 8
  %59 = getelementptr inbounds void (%"class.content::WebContentsDelegate"*, %"class.content::WebContents"*)*, void (%"class.content::WebContentsDelegate"*, %"class.content::WebContents"*)** %58, i64 5
  %60 = load void (%"class.content::WebContentsDelegate"*, %"class.content::WebContents"*)*, void (%"class.content::WebContentsDelegate"*, %"class.content::WebContents"*)** %59, align 8
  tail call void %60(%"class.content::WebContentsDelegate"* %43, %"class.content::WebContents"* %56) #17
  br label %61

61:                                               ; preds = %2, %7, %15, %11, %55
  ret void
}

; Function Attrs: nounwind ssp uwtable
define hidden void @_ZThn8_N10guest_view13GuestViewBase16ActivateContentsEPN7content11WebContentsE(%"class.guest_view::GuestViewBase"* nocapture readonly, %"class.content::WebContents"* nocapture readnone) unnamed_addr #1 align 2 {
  %3 = getelementptr inbounds %"class.guest_view::GuestViewBase", %"class.guest_view::GuestViewBase"* %0, i64 -1, i32 25, i32 0, i32 1
  %4 = bitcast i64* %3 to %"class.guest_view::GuestViewBase"*
  %5 = getelementptr inbounds i64, i64* %3, i64 14
  %6 = bitcast i64* %5 to i32*
  %7 = load i32, i32* %6, align 8
  %8 = load i32, i32* @_ZN10guest_view15kInstanceIDNoneE, align 4
  %9 = icmp eq i32 %7, %8
  br i1 %9, label %63, label %10

10:                                               ; preds = %2
  %11 = getelementptr inbounds %"class.guest_view::GuestViewBase", %"class.guest_view::GuestViewBase"* %4, i64 0, i32 10
  %12 = load i8, i8* %11, align 4, !range !7
  %13 = icmp eq i8 %12, 0
  br i1 %13, label %14, label %63

14:                                               ; preds = %10
  %15 = getelementptr inbounds %"class.guest_view::GuestViewBase", %"class.guest_view::GuestViewBase"* %4, i64 0, i32 12
  %16 = load i8, i8* %15, align 2, !range !7
  %17 = icmp eq i8 %16, 0
  br i1 %17, label %18, label %63

18:                                               ; preds = %14
  %19 = getelementptr inbounds i64, i64* %3, i64 8
  %20 = bitcast i64* %19 to %"class.content::WebContents"**
  %21 = load %"class.content::WebContents"*, %"class.content::WebContents"** %20, align 8
  %22 = bitcast %"class.content::WebContents"* %21 to %"class.content::WebContentsDelegate"* (%"class.content::WebContents"*)***
  %23 = load %"class.content::WebContentsDelegate"* (%"class.content::WebContents"*)**, %"class.content::WebContentsDelegate"* (%"class.content::WebContents"*)*** %22, align 8
  %24 = getelementptr inbounds %"class.content::WebContentsDelegate"* (%"class.content::WebContents"*)*, %"class.content::WebContentsDelegate"* (%"class.content::WebContents"*)** %23, i64 3
  %25 = load %"class.content::WebContentsDelegate"* (%"class.content::WebContents"*)*, %"class.content::WebContentsDelegate"* (%"class.content::WebContents"*)** %24, align 8
  %26 = tail call %"class.content::WebContentsDelegate"* %25(%"class.content::WebContents"* %21) #17
  %27 = icmp eq %"class.content::WebContentsDelegate"* %26, null
  br i1 %27, label %63, label %28

28:                                               ; preds = %18
  %29 = load i32, i32* %6, align 8
  %30 = icmp eq i32 %29, %8
  br i1 %30, label %40, label %31

31:                                               ; preds = %28
  %32 = load i8, i8* %11, align 4, !range !7
  %33 = icmp eq i8 %32, 0
  br i1 %33, label %34, label %40

34:                                               ; preds = %31
  %35 = load i8, i8* %15, align 2, !range !7
  %36 = icmp eq i8 %35, 0
  br i1 %36, label %37, label %40

37:                                               ; preds = %34
  %38 = load %"class.content::WebContents"*, %"class.content::WebContents"** %20, align 8
  %39 = bitcast %"class.content::WebContents"* %38 to %"class.content::WebContentsDelegate"* (%"class.content::WebContents"*)***
  br label %40

40:                                               ; preds = %37, %34, %31, %28
  %41 = phi %"class.content::WebContentsDelegate"* (%"class.content::WebContents"*)*** [ %39, %37 ], [ null, %34 ], [ null, %31 ], [ null, %28 ]
  %42 = phi %"class.content::WebContents"* [ %38, %37 ], [ null, %34 ], [ null, %31 ], [ null, %28 ]
  %43 = load %"class.content::WebContentsDelegate"* (%"class.content::WebContents"*)**, %"class.content::WebContentsDelegate"* (%"class.content::WebContents"*)*** %41, align 8
  %44 = getelementptr inbounds %"class.content::WebContentsDelegate"* (%"class.content::WebContents"*)*, %"class.content::WebContentsDelegate"* (%"class.content::WebContents"*)** %43, i64 3
  %45 = load %"class.content::WebContentsDelegate"* (%"class.content::WebContents"*)*, %"class.content::WebContentsDelegate"* (%"class.content::WebContents"*)** %44, align 8
  %46 = tail call %"class.content::WebContentsDelegate"* %45(%"class.content::WebContents"* %42) #17
  %47 = load i32, i32* %6, align 8
  %48 = icmp eq i32 %47, %8
  br i1 %48, label %57, label %49

49:                                               ; preds = %40
  %50 = load i8, i8* %11, align 4, !range !7
  %51 = icmp eq i8 %50, 0
  br i1 %51, label %52, label %57

52:                                               ; preds = %49
  %53 = load i8, i8* %15, align 2, !range !7
  %54 = icmp eq i8 %53, 0
  br i1 %54, label %55, label %57

55:                                               ; preds = %52
  %56 = load %"class.content::WebContents"*, %"class.content::WebContents"** %20, align 8
  br label %57

57:                                               ; preds = %55, %52, %49, %40
  %58 = phi %"class.content::WebContents"* [ %56, %55 ], [ null, %52 ], [ null, %49 ], [ null, %40 ]
  %59 = bitcast %"class.content::WebContentsDelegate"* %46 to void (%"class.content::WebContentsDelegate"*, %"class.content::WebContents"*)***
  %60 = load void (%"class.content::WebContentsDelegate"*, %"class.content::WebContents"*)**, void (%"class.content::WebContentsDelegate"*, %"class.content::WebContents"*)*** %59, align 8
  %61 = getelementptr inbounds void (%"class.content::WebContentsDelegate"*, %"class.content::WebContents"*)*, void (%"class.content::WebContentsDelegate"*, %"class.content::WebContents"*)** %60, i64 5
  %62 = load void (%"class.content::WebContentsDelegate"*, %"class.content::WebContents"*)*, void (%"class.content::WebContentsDelegate"*, %"class.content::WebContents"*)** %61, align 8
  tail call void %62(%"class.content::WebContentsDelegate"* %46, %"class.content::WebContents"* %58) #17
  br label %63

63:                                               ; preds = %2, %10, %14, %18, %57
  ret void
}

; Function Attrs: nounwind ssp uwtable
define hidden void @_ZN10guest_view13GuestViewBase18ContentsMouseEventEPN7content11WebContentsEbb(%"class.guest_view::GuestViewBase"* nocapture readonly, %"class.content::WebContents"* nocapture readnone, i1 zeroext, i1 zeroext) unnamed_addr #1 align 2 {
  %5 = getelementptr inbounds %"class.guest_view::GuestViewBase", %"class.guest_view::GuestViewBase"* %0, i64 0, i32 9
  %6 = load i32, i32* %5, align 8
  %7 = load i32, i32* @_ZN10guest_view15kInstanceIDNoneE, align 4
  %8 = icmp eq i32 %6, %7
  br i1 %8, label %63, label %9

9:                                                ; preds = %4
  %10 = getelementptr inbounds %"class.guest_view::GuestViewBase", %"class.guest_view::GuestViewBase"* %0, i64 0, i32 10
  %11 = load i8, i8* %10, align 4, !range !7
  %12 = icmp eq i8 %11, 0
  br i1 %12, label %13, label %63

13:                                               ; preds = %9
  %14 = getelementptr inbounds %"class.guest_view::GuestViewBase", %"class.guest_view::GuestViewBase"* %0, i64 0, i32 12
  %15 = load i8, i8* %14, align 2, !range !7
  %16 = icmp eq i8 %15, 0
  br i1 %16, label %17, label %63

17:                                               ; preds = %13
  %18 = getelementptr inbounds %"class.guest_view::GuestViewBase", %"class.guest_view::GuestViewBase"* %0, i64 0, i32 4
  %19 = load %"class.content::WebContents"*, %"class.content::WebContents"** %18, align 8
  %20 = bitcast %"class.content::WebContents"* %19 to %"class.content::WebContentsDelegate"* (%"class.content::WebContents"*)***
  %21 = load %"class.content::WebContentsDelegate"* (%"class.content::WebContents"*)**, %"class.content::WebContentsDelegate"* (%"class.content::WebContents"*)*** %20, align 8
  %22 = getelementptr inbounds %"class.content::WebContentsDelegate"* (%"class.content::WebContents"*)*, %"class.content::WebContentsDelegate"* (%"class.content::WebContents"*)** %21, i64 3
  %23 = load %"class.content::WebContentsDelegate"* (%"class.content::WebContents"*)*, %"class.content::WebContentsDelegate"* (%"class.content::WebContents"*)** %22, align 8
  %24 = tail call %"class.content::WebContentsDelegate"* %23(%"class.content::WebContents"* %19) #17
  %25 = icmp eq %"class.content::WebContentsDelegate"* %24, null
  br i1 %25, label %63, label %26

26:                                               ; preds = %17
  %27 = load i32, i32* %5, align 8
  %28 = icmp eq i32 %27, %7
  br i1 %28, label %39, label %29

29:                                               ; preds = %26
  %30 = load i8, i8* %10, align 4, !range !7
  %31 = icmp eq i8 %30, 0
  br i1 %31, label %32, label %39

32:                                               ; preds = %29
  %33 = load i8, i8* %14, align 2, !range !7
  %34 = icmp eq i8 %33, 0
  br i1 %34, label %35, label %39

35:                                               ; preds = %32
  %36 = getelementptr inbounds %"class.guest_view::GuestViewBase", %"class.guest_view::GuestViewBase"* %0, i64 0, i32 4
  %37 = load %"class.content::WebContents"*, %"class.content::WebContents"** %36, align 8
  %38 = bitcast %"class.content::WebContents"* %37 to %"class.content::WebContentsDelegate"* (%"class.content::WebContents"*)***
  br label %39

39:                                               ; preds = %26, %29, %32, %35
  %40 = phi %"class.content::WebContentsDelegate"* (%"class.content::WebContents"*)*** [ %38, %35 ], [ null, %32 ], [ null, %29 ], [ null, %26 ]
  %41 = phi %"class.content::WebContents"* [ %37, %35 ], [ null, %32 ], [ null, %29 ], [ null, %26 ]
  %42 = load %"class.content::WebContentsDelegate"* (%"class.content::WebContents"*)**, %"class.content::WebContentsDelegate"* (%"class.content::WebContents"*)*** %40, align 8
  %43 = getelementptr inbounds %"class.content::WebContentsDelegate"* (%"class.content::WebContents"*)*, %"class.content::WebContentsDelegate"* (%"class.content::WebContents"*)** %42, i64 3
  %44 = load %"class.content::WebContentsDelegate"* (%"class.content::WebContents"*)*, %"class.content::WebContentsDelegate"* (%"class.content::WebContents"*)** %43, align 8
  %45 = tail call %"class.content::WebContentsDelegate"* %44(%"class.content::WebContents"* %41) #17
  %46 = load i32, i32* %5, align 8
  %47 = icmp eq i32 %46, %7
  br i1 %47, label %57, label %48

48:                                               ; preds = %39
  %49 = load i8, i8* %10, align 4, !range !7
  %50 = icmp eq i8 %49, 0
  br i1 %50, label %51, label %57

51:                                               ; preds = %48
  %52 = load i8, i8* %14, align 2, !range !7
  %53 = icmp eq i8 %52, 0
  br i1 %53, label %54, label %57

54:                                               ; preds = %51
  %55 = getelementptr inbounds %"class.guest_view::GuestViewBase", %"class.guest_view::GuestViewBase"* %0, i64 0, i32 4
  %56 = load %"class.content::WebContents"*, %"class.content::WebContents"** %55, align 8
  br label %57

57:                                               ; preds = %39, %48, %51, %54
  %58 = phi %"class.content::WebContents"* [ %56, %54 ], [ null, %51 ], [ null, %48 ], [ null, %39 ]
  %59 = bitcast %"class.content::WebContentsDelegate"* %45 to void (%"class.content::WebContentsDelegate"*, %"class.content::WebContents"*, i1, i1)***
  %60 = load void (%"class.content::WebContentsDelegate"*, %"class.content::WebContents"*, i1, i1)**, void (%"class.content::WebContentsDelegate"*, %"class.content::WebContents"*, i1, i1)*** %59, align 8
  %61 = getelementptr inbounds void (%"class.content::WebContentsDelegate"*, %"class.content::WebContents"*, i1, i1)*, void (%"class.content::WebContentsDelegate"*, %"class.content::WebContents"*, i1, i1)** %60, i64 10
  %62 = load void (%"class.content::WebContentsDelegate"*, %"class.content::WebContents"*, i1, i1)*, void (%"class.content::WebContentsDelegate"*, %"class.content::WebContents"*, i1, i1)** %61, align 8
  tail call void %62(%"class.content::WebContentsDelegate"* %45, %"class.content::WebContents"* %58, i1 zeroext %2, i1 zeroext %3) #17
  br label %63

63:                                               ; preds = %4, %9, %17, %13, %57
  ret void
}

; Function Attrs: nounwind ssp uwtable
define hidden void @_ZThn8_N10guest_view13GuestViewBase18ContentsMouseEventEPN7content11WebContentsEbb(%"class.guest_view::GuestViewBase"* nocapture readonly, %"class.content::WebContents"* nocapture readnone, i1 zeroext, i1 zeroext) unnamed_addr #1 align 2 {
  %5 = getelementptr inbounds %"class.guest_view::GuestViewBase", %"class.guest_view::GuestViewBase"* %0, i64 -1, i32 25, i32 0, i32 1
  %6 = bitcast i64* %5 to %"class.guest_view::GuestViewBase"*
  %7 = getelementptr inbounds i64, i64* %5, i64 14
  %8 = bitcast i64* %7 to i32*
  %9 = load i32, i32* %8, align 8
  %10 = load i32, i32* @_ZN10guest_view15kInstanceIDNoneE, align 4
  %11 = icmp eq i32 %9, %10
  br i1 %11, label %65, label %12

12:                                               ; preds = %4
  %13 = getelementptr inbounds %"class.guest_view::GuestViewBase", %"class.guest_view::GuestViewBase"* %6, i64 0, i32 10
  %14 = load i8, i8* %13, align 4, !range !7
  %15 = icmp eq i8 %14, 0
  br i1 %15, label %16, label %65

16:                                               ; preds = %12
  %17 = getelementptr inbounds %"class.guest_view::GuestViewBase", %"class.guest_view::GuestViewBase"* %6, i64 0, i32 12
  %18 = load i8, i8* %17, align 2, !range !7
  %19 = icmp eq i8 %18, 0
  br i1 %19, label %20, label %65

20:                                               ; preds = %16
  %21 = getelementptr inbounds i64, i64* %5, i64 8
  %22 = bitcast i64* %21 to %"class.content::WebContents"**
  %23 = load %"class.content::WebContents"*, %"class.content::WebContents"** %22, align 8
  %24 = bitcast %"class.content::WebContents"* %23 to %"class.content::WebContentsDelegate"* (%"class.content::WebContents"*)***
  %25 = load %"class.content::WebContentsDelegate"* (%"class.content::WebContents"*)**, %"class.content::WebContentsDelegate"* (%"class.content::WebContents"*)*** %24, align 8
  %26 = getelementptr inbounds %"class.content::WebContentsDelegate"* (%"class.content::WebContents"*)*, %"class.content::WebContentsDelegate"* (%"class.content::WebContents"*)** %25, i64 3
  %27 = load %"class.content::WebContentsDelegate"* (%"class.content::WebContents"*)*, %"class.content::WebContentsDelegate"* (%"class.content::WebContents"*)** %26, align 8
  %28 = tail call %"class.content::WebContentsDelegate"* %27(%"class.content::WebContents"* %23) #17
  %29 = icmp eq %"class.content::WebContentsDelegate"* %28, null
  br i1 %29, label %65, label %30

30:                                               ; preds = %20
  %31 = load i32, i32* %8, align 8
  %32 = icmp eq i32 %31, %10
  br i1 %32, label %42, label %33

33:                                               ; preds = %30
  %34 = load i8, i8* %13, align 4, !range !7
  %35 = icmp eq i8 %34, 0
  br i1 %35, label %36, label %42

36:                                               ; preds = %33
  %37 = load i8, i8* %17, align 2, !range !7
  %38 = icmp eq i8 %37, 0
  br i1 %38, label %39, label %42

39:                                               ; preds = %36
  %40 = load %"class.content::WebContents"*, %"class.content::WebContents"** %22, align 8
  %41 = bitcast %"class.content::WebContents"* %40 to %"class.content::WebContentsDelegate"* (%"class.content::WebContents"*)***
  br label %42

42:                                               ; preds = %39, %36, %33, %30
  %43 = phi %"class.content::WebContentsDelegate"* (%"class.content::WebContents"*)*** [ %41, %39 ], [ null, %36 ], [ null, %33 ], [ null, %30 ]
  %44 = phi %"class.content::WebContents"* [ %40, %39 ], [ null, %36 ], [ null, %33 ], [ null, %30 ]
  %45 = load %"class.content::WebContentsDelegate"* (%"class.content::WebContents"*)**, %"class.content::WebContentsDelegate"* (%"class.content::WebContents"*)*** %43, align 8
  %46 = getelementptr inbounds %"class.content::WebContentsDelegate"* (%"class.content::WebContents"*)*, %"class.content::WebContentsDelegate"* (%"class.content::WebContents"*)** %45, i64 3
  %47 = load %"class.content::WebContentsDelegate"* (%"class.content::WebContents"*)*, %"class.content::WebContentsDelegate"* (%"class.content::WebContents"*)** %46, align 8
  %48 = tail call %"class.content::WebContentsDelegate"* %47(%"class.content::WebContents"* %44) #17
  %49 = load i32, i32* %8, align 8
  %50 = icmp eq i32 %49, %10
  br i1 %50, label %59, label %51

51:                                               ; preds = %42
  %52 = load i8, i8* %13, align 4, !range !7
  %53 = icmp eq i8 %52, 0
  br i1 %53, label %54, label %59

54:                                               ; preds = %51
  %55 = load i8, i8* %17, align 2, !range !7
  %56 = icmp eq i8 %55, 0
  br i1 %56, label %57, label %59

57:                                               ; preds = %54
  %58 = load %"class.content::WebContents"*, %"class.content::WebContents"** %22, align 8
  br label %59

59:                                               ; preds = %57, %54, %51, %42
  %60 = phi %"class.content::WebContents"* [ %58, %57 ], [ null, %54 ], [ null, %51 ], [ null, %42 ]
  %61 = bitcast %"class.content::WebContentsDelegate"* %48 to void (%"class.content::WebContentsDelegate"*, %"class.content::WebContents"*, i1, i1)***
  %62 = load void (%"class.content::WebContentsDelegate"*, %"class.content::WebContents"*, i1, i1)**, void (%"class.content::WebContentsDelegate"*, %"class.content::WebContents"*, i1, i1)*** %61, align 8
  %63 = getelementptr inbounds void (%"class.content::WebContentsDelegate"*, %"class.content::WebContents"*, i1, i1)*, void (%"class.content::WebContentsDelegate"*, %"class.content::WebContents"*, i1, i1)** %62, i64 10
  %64 = load void (%"class.content::WebContentsDelegate"*, %"class.content::WebContents"*, i1, i1)*, void (%"class.content::WebContentsDelegate"*, %"class.content::WebContents"*, i1, i1)** %63, align 8
  tail call void %64(%"class.content::WebContentsDelegate"* %48, %"class.content::WebContents"* %60, i1 zeroext %2, i1 zeroext %3) #17
  br label %65

65:                                               ; preds = %4, %12, %16, %20, %59
  ret void
}

; Function Attrs: nounwind ssp uwtable
define hidden void @_ZN10guest_view13GuestViewBase18ContentsZoomChangeEb(%"class.guest_view::GuestViewBase"* nocapture readonly, i1 zeroext) unnamed_addr #1 align 2 {
  %3 = getelementptr inbounds %"class.guest_view::GuestViewBase", %"class.guest_view::GuestViewBase"* %0, i64 0, i32 9
  %4 = load i32, i32* %3, align 8
  %5 = load i32, i32* @_ZN10guest_view15kInstanceIDNoneE, align 4
  %6 = icmp eq i32 %4, %5
  br i1 %6, label %48, label %7

7:                                                ; preds = %2
  %8 = getelementptr inbounds %"class.guest_view::GuestViewBase", %"class.guest_view::GuestViewBase"* %0, i64 0, i32 10
  %9 = load i8, i8* %8, align 4, !range !7
  %10 = icmp eq i8 %9, 0
  br i1 %10, label %11, label %48

11:                                               ; preds = %7
  %12 = getelementptr inbounds %"class.guest_view::GuestViewBase", %"class.guest_view::GuestViewBase"* %0, i64 0, i32 12
  %13 = load i8, i8* %12, align 2, !range !7
  %14 = icmp eq i8 %13, 0
  br i1 %14, label %15, label %48

15:                                               ; preds = %11
  %16 = getelementptr inbounds %"class.guest_view::GuestViewBase", %"class.guest_view::GuestViewBase"* %0, i64 0, i32 4
  %17 = load %"class.content::WebContents"*, %"class.content::WebContents"** %16, align 8
  %18 = bitcast %"class.content::WebContents"* %17 to %"class.content::WebContentsDelegate"* (%"class.content::WebContents"*)***
  %19 = load %"class.content::WebContentsDelegate"* (%"class.content::WebContents"*)**, %"class.content::WebContentsDelegate"* (%"class.content::WebContents"*)*** %18, align 8
  %20 = getelementptr inbounds %"class.content::WebContentsDelegate"* (%"class.content::WebContents"*)*, %"class.content::WebContentsDelegate"* (%"class.content::WebContents"*)** %19, i64 3
  %21 = load %"class.content::WebContentsDelegate"* (%"class.content::WebContents"*)*, %"class.content::WebContentsDelegate"* (%"class.content::WebContents"*)** %20, align 8
  %22 = tail call %"class.content::WebContentsDelegate"* %21(%"class.content::WebContents"* %17) #17
  %23 = icmp eq %"class.content::WebContentsDelegate"* %22, null
  br i1 %23, label %48, label %24

24:                                               ; preds = %15
  %25 = load i32, i32* %3, align 8
  %26 = icmp eq i32 %25, %5
  br i1 %26, label %37, label %27

27:                                               ; preds = %24
  %28 = load i8, i8* %8, align 4, !range !7
  %29 = icmp eq i8 %28, 0
  br i1 %29, label %30, label %37

30:                                               ; preds = %27
  %31 = load i8, i8* %12, align 2, !range !7
  %32 = icmp eq i8 %31, 0
  br i1 %32, label %33, label %37

33:                                               ; preds = %30
  %34 = getelementptr inbounds %"class.guest_view::GuestViewBase", %"class.guest_view::GuestViewBase"* %0, i64 0, i32 4
  %35 = load %"class.content::WebContents"*, %"class.content::WebContents"** %34, align 8
  %36 = bitcast %"class.content::WebContents"* %35 to %"class.content::WebContentsDelegate"* (%"class.content::WebContents"*)***
  br label %37

37:                                               ; preds = %24, %27, %30, %33
  %38 = phi %"class.content::WebContentsDelegate"* (%"class.content::WebContents"*)*** [ %36, %33 ], [ null, %30 ], [ null, %27 ], [ null, %24 ]
  %39 = phi %"class.content::WebContents"* [ %35, %33 ], [ null, %30 ], [ null, %27 ], [ null, %24 ]
  %40 = load %"class.content::WebContentsDelegate"* (%"class.content::WebContents"*)**, %"class.content::WebContentsDelegate"* (%"class.content::WebContents"*)*** %38, align 8
  %41 = getelementptr inbounds %"class.content::WebContentsDelegate"* (%"class.content::WebContents"*)*, %"class.content::WebContentsDelegate"* (%"class.content::WebContents"*)** %40, i64 3
  %42 = load %"class.content::WebContentsDelegate"* (%"class.content::WebContents"*)*, %"class.content::WebContentsDelegate"* (%"class.content::WebContents"*)** %41, align 8
  %43 = tail call %"class.content::WebContentsDelegate"* %42(%"class.content::WebContents"* %39) #17
  %44 = bitcast %"class.content::WebContentsDelegate"* %43 to void (%"class.content::WebContentsDelegate"*, i1)***
  %45 = load void (%"class.content::WebContentsDelegate"*, i1)**, void (%"class.content::WebContentsDelegate"*, i1)*** %44, align 8
  %46 = getelementptr inbounds void (%"class.content::WebContentsDelegate"*, i1)*, void (%"class.content::WebContentsDelegate"*, i1)** %45, i64 11
  %47 = load void (%"class.content::WebContentsDelegate"*, i1)*, void (%"class.content::WebContentsDelegate"*, i1)** %46, align 8
  tail call void %47(%"class.content::WebContentsDelegate"* %43, i1 zeroext %1) #17
  br label %48

48:                                               ; preds = %2, %7, %15, %11, %37
  ret void
}

; Function Attrs: nounwind ssp uwtable
define hidden void @_ZThn8_N10guest_view13GuestViewBase18ContentsZoomChangeEb(%"class.guest_view::GuestViewBase"* nocapture readonly, i1 zeroext) unnamed_addr #1 align 2 {
  %3 = getelementptr inbounds %"class.guest_view::GuestViewBase", %"class.guest_view::GuestViewBase"* %0, i64 -1, i32 25, i32 0, i32 1
  %4 = bitcast i64* %3 to %"class.guest_view::GuestViewBase"*
  %5 = getelementptr inbounds i64, i64* %3, i64 14
  %6 = bitcast i64* %5 to i32*
  %7 = load i32, i32* %6, align 8
  %8 = load i32, i32* @_ZN10guest_view15kInstanceIDNoneE, align 4
  %9 = icmp eq i32 %7, %8
  br i1 %9, label %51, label %10

10:                                               ; preds = %2
  %11 = getelementptr inbounds %"class.guest_view::GuestViewBase", %"class.guest_view::GuestViewBase"* %4, i64 0, i32 10
  %12 = load i8, i8* %11, align 4, !range !7
  %13 = icmp eq i8 %12, 0
  br i1 %13, label %14, label %51

14:                                               ; preds = %10
  %15 = getelementptr inbounds %"class.guest_view::GuestViewBase", %"class.guest_view::GuestViewBase"* %4, i64 0, i32 12
  %16 = load i8, i8* %15, align 2, !range !7
  %17 = icmp eq i8 %16, 0
  br i1 %17, label %18, label %51

18:                                               ; preds = %14
  %19 = getelementptr inbounds i64, i64* %3, i64 8
  %20 = bitcast i64* %19 to %"class.content::WebContents"**
  %21 = load %"class.content::WebContents"*, %"class.content::WebContents"** %20, align 8
  %22 = bitcast %"class.content::WebContents"* %21 to %"class.content::WebContentsDelegate"* (%"class.content::WebContents"*)***
  %23 = load %"class.content::WebContentsDelegate"* (%"class.content::WebContents"*)**, %"class.content::WebContentsDelegate"* (%"class.content::WebContents"*)*** %22, align 8
  %24 = getelementptr inbounds %"class.content::WebContentsDelegate"* (%"class.content::WebContents"*)*, %"class.content::WebContentsDelegate"* (%"class.content::WebContents"*)** %23, i64 3
  %25 = load %"class.content::WebContentsDelegate"* (%"class.content::WebContents"*)*, %"class.content::WebContentsDelegate"* (%"class.content::WebContents"*)** %24, align 8
  %26 = tail call %"class.content::WebContentsDelegate"* %25(%"class.content::WebContents"* %21) #17
  %27 = icmp eq %"class.content::WebContentsDelegate"* %26, null
  br i1 %27, label %51, label %28

28:                                               ; preds = %18
  %29 = load i32, i32* %6, align 8
  %30 = icmp eq i32 %29, %8
  br i1 %30, label %40, label %31

31:                                               ; preds = %28
  %32 = load i8, i8* %11, align 4, !range !7
  %33 = icmp eq i8 %32, 0
  br i1 %33, label %34, label %40

34:                                               ; preds = %31
  %35 = load i8, i8* %15, align 2, !range !7
  %36 = icmp eq i8 %35, 0
  br i1 %36, label %37, label %40

37:                                               ; preds = %34
  %38 = load %"class.content::WebContents"*, %"class.content::WebContents"** %20, align 8
  %39 = bitcast %"class.content::WebContents"* %38 to %"class.content::WebContentsDelegate"* (%"class.content::WebContents"*)***
  br label %40

40:                                               ; preds = %37, %34, %31, %28
  %41 = phi %"class.content::WebContentsDelegate"* (%"class.content::WebContents"*)*** [ %39, %37 ], [ null, %34 ], [ null, %31 ], [ null, %28 ]
  %42 = phi %"class.content::WebContents"* [ %38, %37 ], [ null, %34 ], [ null, %31 ], [ null, %28 ]
  %43 = load %"class.content::WebContentsDelegate"* (%"class.content::WebContents"*)**, %"class.content::WebContentsDelegate"* (%"class.content::WebContents"*)*** %41, align 8
  %44 = getelementptr inbounds %"class.content::WebContentsDelegate"* (%"class.content::WebContents"*)*, %"class.content::WebContentsDelegate"* (%"class.content::WebContents"*)** %43, i64 3
  %45 = load %"class.content::WebContentsDelegate"* (%"class.content::WebContents"*)*, %"class.content::WebContentsDelegate"* (%"class.content::WebContents"*)** %44, align 8
  %46 = tail call %"class.content::WebContentsDelegate"* %45(%"class.content::WebContents"* %42) #17
  %47 = bitcast %"class.content::WebContentsDelegate"* %46 to void (%"class.content::WebContentsDelegate"*, i1)***
  %48 = load void (%"class.content::WebContentsDelegate"*, i1)**, void (%"class.content::WebContentsDelegate"*, i1)*** %47, align 8
  %49 = getelementptr inbounds void (%"class.content::WebContentsDelegate"*, i1)*, void (%"class.content::WebContentsDelegate"*, i1)** %48, i64 11
  %50 = load void (%"class.content::WebContentsDelegate"*, i1)*, void (%"class.content::WebContentsDelegate"*, i1)** %49, align 8
  tail call void %50(%"class.content::WebContentsDelegate"* %46, i1 zeroext %1) #17
  br label %51

51:                                               ; preds = %2, %10, %14, %18, %40
  ret void
}

; Function Attrs: nounwind ssp uwtable
define hidden zeroext i1 @_ZN10guest_view13GuestViewBase19HandleKeyboardEventEPN7content11WebContentsERKNS1_22NativeWebKeyboardEventE(%"class.guest_view::GuestViewBase"* nocapture readonly, %"class.content::WebContents"* nocapture readnone, %"struct.content::NativeWebKeyboardEvent"* dereferenceable(96)) unnamed_addr #1 align 2 {
  %4 = getelementptr inbounds %"class.guest_view::GuestViewBase", %"class.guest_view::GuestViewBase"* %0, i64 0, i32 9
  %5 = load i32, i32* %4, align 8
  %6 = load i32, i32* @_ZN10guest_view15kInstanceIDNoneE, align 4
  %7 = icmp eq i32 %5, %6
  br i1 %7, label %63, label %8

8:                                                ; preds = %3
  %9 = getelementptr inbounds %"class.guest_view::GuestViewBase", %"class.guest_view::GuestViewBase"* %0, i64 0, i32 10
  %10 = load i8, i8* %9, align 4, !range !7
  %11 = icmp eq i8 %10, 0
  br i1 %11, label %12, label %63

12:                                               ; preds = %8
  %13 = getelementptr inbounds %"class.guest_view::GuestViewBase", %"class.guest_view::GuestViewBase"* %0, i64 0, i32 12
  %14 = load i8, i8* %13, align 2, !range !7
  %15 = icmp eq i8 %14, 0
  br i1 %15, label %16, label %63

16:                                               ; preds = %12
  %17 = getelementptr inbounds %"class.guest_view::GuestViewBase", %"class.guest_view::GuestViewBase"* %0, i64 0, i32 4
  %18 = load %"class.content::WebContents"*, %"class.content::WebContents"** %17, align 8
  %19 = bitcast %"class.content::WebContents"* %18 to %"class.content::WebContentsDelegate"* (%"class.content::WebContents"*)***
  %20 = load %"class.content::WebContentsDelegate"* (%"class.content::WebContents"*)**, %"class.content::WebContentsDelegate"* (%"class.content::WebContents"*)*** %19, align 8
  %21 = getelementptr inbounds %"class.content::WebContentsDelegate"* (%"class.content::WebContents"*)*, %"class.content::WebContentsDelegate"* (%"class.content::WebContents"*)** %20, i64 3
  %22 = load %"class.content::WebContentsDelegate"* (%"class.content::WebContents"*)*, %"class.content::WebContentsDelegate"* (%"class.content::WebContents"*)** %21, align 8
  %23 = tail call %"class.content::WebContentsDelegate"* %22(%"class.content::WebContents"* %18) #17
  %24 = icmp eq %"class.content::WebContentsDelegate"* %23, null
  br i1 %24, label %63, label %25

25:                                               ; preds = %16
  %26 = load i32, i32* %4, align 8
  %27 = icmp eq i32 %26, %6
  br i1 %27, label %38, label %28

28:                                               ; preds = %25
  %29 = load i8, i8* %9, align 4, !range !7
  %30 = icmp eq i8 %29, 0
  br i1 %30, label %31, label %38

31:                                               ; preds = %28
  %32 = load i8, i8* %13, align 2, !range !7
  %33 = icmp eq i8 %32, 0
  br i1 %33, label %34, label %38

34:                                               ; preds = %31
  %35 = getelementptr inbounds %"class.guest_view::GuestViewBase", %"class.guest_view::GuestViewBase"* %0, i64 0, i32 4
  %36 = load %"class.content::WebContents"*, %"class.content::WebContents"** %35, align 8
  %37 = bitcast %"class.content::WebContents"* %36 to %"class.content::WebContentsDelegate"* (%"class.content::WebContents"*)***
  br label %38

38:                                               ; preds = %25, %28, %31, %34
  %39 = phi %"class.content::WebContentsDelegate"* (%"class.content::WebContents"*)*** [ %37, %34 ], [ null, %31 ], [ null, %28 ], [ null, %25 ]
  %40 = phi %"class.content::WebContents"* [ %36, %34 ], [ null, %31 ], [ null, %28 ], [ null, %25 ]
  %41 = load %"class.content::WebContentsDelegate"* (%"class.content::WebContents"*)**, %"class.content::WebContentsDelegate"* (%"class.content::WebContents"*)*** %39, align 8
  %42 = getelementptr inbounds %"class.content::WebContentsDelegate"* (%"class.content::WebContents"*)*, %"class.content::WebContentsDelegate"* (%"class.content::WebContents"*)** %41, i64 3
  %43 = load %"class.content::WebContentsDelegate"* (%"class.content::WebContents"*)*, %"class.content::WebContentsDelegate"* (%"class.content::WebContents"*)** %42, align 8
  %44 = tail call %"class.content::WebContentsDelegate"* %43(%"class.content::WebContents"* %40) #17
  %45 = load i32, i32* %4, align 8
  %46 = icmp eq i32 %45, %6
  br i1 %46, label %56, label %47

47:                                               ; preds = %38
  %48 = load i8, i8* %9, align 4, !range !7
  %49 = icmp eq i8 %48, 0
  br i1 %49, label %50, label %56

50:                                               ; preds = %47
  %51 = load i8, i8* %13, align 2, !range !7
  %52 = icmp eq i8 %51, 0
  br i1 %52, label %53, label %56

53:                                               ; preds = %50
  %54 = getelementptr inbounds %"class.guest_view::GuestViewBase", %"class.guest_view::GuestViewBase"* %0, i64 0, i32 4
  %55 = load %"class.content::WebContents"*, %"class.content::WebContents"** %54, align 8
  br label %56

56:                                               ; preds = %38, %47, %50, %53
  %57 = phi %"class.content::WebContents"* [ %55, %53 ], [ null, %50 ], [ null, %47 ], [ null, %38 ]
  %58 = bitcast %"class.content::WebContentsDelegate"* %44 to i1 (%"class.content::WebContentsDelegate"*, %"class.content::WebContents"*, %"struct.content::NativeWebKeyboardEvent"*)***
  %59 = load i1 (%"class.content::WebContentsDelegate"*, %"class.content::WebContents"*, %"struct.content::NativeWebKeyboardEvent"*)**, i1 (%"class.content::WebContentsDelegate"*, %"class.content::WebContents"*, %"struct.content::NativeWebKeyboardEvent"*)*** %58, align 8
  %60 = getelementptr inbounds i1 (%"class.content::WebContentsDelegate"*, %"class.content::WebContents"*, %"struct.content::NativeWebKeyboardEvent"*)*, i1 (%"class.content::WebContentsDelegate"*, %"class.content::WebContents"*, %"struct.content::NativeWebKeyboardEvent"*)** %59, i64 27
  %61 = load i1 (%"class.content::WebContentsDelegate"*, %"class.content::WebContents"*, %"struct.content::NativeWebKeyboardEvent"*)*, i1 (%"class.content::WebContentsDelegate"*, %"class.content::WebContents"*, %"struct.content::NativeWebKeyboardEvent"*)** %60, align 8
  %62 = tail call zeroext i1 %61(%"class.content::WebContentsDelegate"* %44, %"class.content::WebContents"* %57, %"struct.content::NativeWebKeyboardEvent"* dereferenceable(96) %2) #17
  br label %63

63:                                               ; preds = %3, %8, %12, %16, %56
  %64 = phi i1 [ %62, %56 ], [ false, %16 ], [ false, %12 ], [ false, %8 ], [ false, %3 ]
  ret i1 %64
}

; Function Attrs: nounwind ssp uwtable
define hidden zeroext i1 @_ZThn8_N10guest_view13GuestViewBase19HandleKeyboardEventEPN7content11WebContentsERKNS1_22NativeWebKeyboardEventE(%"class.guest_view::GuestViewBase"* nocapture readonly, %"class.content::WebContents"* nocapture readnone, %"struct.content::NativeWebKeyboardEvent"* dereferenceable(96)) unnamed_addr #1 align 2 {
  %4 = getelementptr inbounds %"class.guest_view::GuestViewBase", %"class.guest_view::GuestViewBase"* %0, i64 -1, i32 25, i32 0, i32 1
  %5 = bitcast i64* %4 to %"class.guest_view::GuestViewBase"*
  %6 = getelementptr inbounds i64, i64* %4, i64 14
  %7 = bitcast i64* %6 to i32*
  %8 = load i32, i32* %7, align 8
  %9 = load i32, i32* @_ZN10guest_view15kInstanceIDNoneE, align 4
  %10 = icmp eq i32 %8, %9
  br i1 %10, label %65, label %11

11:                                               ; preds = %3
  %12 = getelementptr inbounds %"class.guest_view::GuestViewBase", %"class.guest_view::GuestViewBase"* %5, i64 0, i32 10
  %13 = load i8, i8* %12, align 4, !range !7
  %14 = icmp eq i8 %13, 0
  br i1 %14, label %15, label %65

15:                                               ; preds = %11
  %16 = getelementptr inbounds %"class.guest_view::GuestViewBase", %"class.guest_view::GuestViewBase"* %5, i64 0, i32 12
  %17 = load i8, i8* %16, align 2, !range !7
  %18 = icmp eq i8 %17, 0
  br i1 %18, label %19, label %65

19:                                               ; preds = %15
  %20 = getelementptr inbounds i64, i64* %4, i64 8
  %21 = bitcast i64* %20 to %"class.content::WebContents"**
  %22 = load %"class.content::WebContents"*, %"class.content::WebContents"** %21, align 8
  %23 = bitcast %"class.content::WebContents"* %22 to %"class.content::WebContentsDelegate"* (%"class.content::WebContents"*)***
  %24 = load %"class.content::WebContentsDelegate"* (%"class.content::WebContents"*)**, %"class.content::WebContentsDelegate"* (%"class.content::WebContents"*)*** %23, align 8
  %25 = getelementptr inbounds %"class.content::WebContentsDelegate"* (%"class.content::WebContents"*)*, %"class.content::WebContentsDelegate"* (%"class.content::WebContents"*)** %24, i64 3
  %26 = load %"class.content::WebContentsDelegate"* (%"class.content::WebContents"*)*, %"class.content::WebContentsDelegate"* (%"class.content::WebContents"*)** %25, align 8
  %27 = tail call %"class.content::WebContentsDelegate"* %26(%"class.content::WebContents"* %22) #17
  %28 = icmp eq %"class.content::WebContentsDelegate"* %27, null
  br i1 %28, label %65, label %29

29:                                               ; preds = %19
  %30 = load i32, i32* %7, align 8
  %31 = icmp eq i32 %30, %9
  br i1 %31, label %41, label %32

32:                                               ; preds = %29
  %33 = load i8, i8* %12, align 4, !range !7
  %34 = icmp eq i8 %33, 0
  br i1 %34, label %35, label %41

35:                                               ; preds = %32
  %36 = load i8, i8* %16, align 2, !range !7
  %37 = icmp eq i8 %36, 0
  br i1 %37, label %38, label %41

38:                                               ; preds = %35
  %39 = load %"class.content::WebContents"*, %"class.content::WebContents"** %21, align 8
  %40 = bitcast %"class.content::WebContents"* %39 to %"class.content::WebContentsDelegate"* (%"class.content::WebContents"*)***
  br label %41

41:                                               ; preds = %38, %35, %32, %29
  %42 = phi %"class.content::WebContentsDelegate"* (%"class.content::WebContents"*)*** [ %40, %38 ], [ null, %35 ], [ null, %32 ], [ null, %29 ]
  %43 = phi %"class.content::WebContents"* [ %39, %38 ], [ null, %35 ], [ null, %32 ], [ null, %29 ]
  %44 = load %"class.content::WebContentsDelegate"* (%"class.content::WebContents"*)**, %"class.content::WebContentsDelegate"* (%"class.content::WebContents"*)*** %42, align 8
  %45 = getelementptr inbounds %"class.content::WebContentsDelegate"* (%"class.content::WebContents"*)*, %"class.content::WebContentsDelegate"* (%"class.content::WebContents"*)** %44, i64 3
  %46 = load %"class.content::WebContentsDelegate"* (%"class.content::WebContents"*)*, %"class.content::WebContentsDelegate"* (%"class.content::WebContents"*)** %45, align 8
  %47 = tail call %"class.content::WebContentsDelegate"* %46(%"class.content::WebContents"* %43) #17
  %48 = load i32, i32* %7, align 8
  %49 = icmp eq i32 %48, %9
  br i1 %49, label %58, label %50

50:                                               ; preds = %41
  %51 = load i8, i8* %12, align 4, !range !7
  %52 = icmp eq i8 %51, 0
  br i1 %52, label %53, label %58

53:                                               ; preds = %50
  %54 = load i8, i8* %16, align 2, !range !7
  %55 = icmp eq i8 %54, 0
  br i1 %55, label %56, label %58

56:                                               ; preds = %53
  %57 = load %"class.content::WebContents"*, %"class.content::WebContents"** %21, align 8
  br label %58

58:                                               ; preds = %56, %53, %50, %41
  %59 = phi %"class.content::WebContents"* [ %57, %56 ], [ null, %53 ], [ null, %50 ], [ null, %41 ]
  %60 = bitcast %"class.content::WebContentsDelegate"* %47 to i1 (%"class.content::WebContentsDelegate"*, %"class.content::WebContents"*, %"struct.content::NativeWebKeyboardEvent"*)***
  %61 = load i1 (%"class.content::WebContentsDelegate"*, %"class.content::WebContents"*, %"struct.content::NativeWebKeyboardEvent"*)**, i1 (%"class.content::WebContentsDelegate"*, %"class.content::WebContents"*, %"struct.content::NativeWebKeyboardEvent"*)*** %60, align 8
  %62 = getelementptr inbounds i1 (%"class.content::WebContentsDelegate"*, %"class.content::WebContents"*, %"struct.content::NativeWebKeyboardEvent"*)*, i1 (%"class.content::WebContentsDelegate"*, %"class.content::WebContents"*, %"struct.content::NativeWebKeyboardEvent"*)** %61, i64 27
  %63 = load i1 (%"class.content::WebContentsDelegate"*, %"class.content::WebContents"*, %"struct.content::NativeWebKeyboardEvent"*)*, i1 (%"class.content::WebContentsDelegate"*, %"class.content::WebContents"*, %"struct.content::NativeWebKeyboardEvent"*)** %62, align 8
  %64 = tail call zeroext i1 %63(%"class.content::WebContentsDelegate"* %47, %"class.content::WebContents"* %59, %"struct.content::NativeWebKeyboardEvent"* dereferenceable(96) %2) #17
  br label %65

65:                                               ; preds = %3, %11, %15, %19, %58
  %66 = phi i1 [ %64, %58 ], [ false, %19 ], [ false, %15 ], [ false, %11 ], [ false, %3 ]
  ret i1 %66
}

; Function Attrs: nounwind ssp uwtable
define hidden void @_ZN10guest_view13GuestViewBase19LoadingStateChangedEPN7content11WebContentsEb(%"class.guest_view::GuestViewBase"* nocapture readonly, %"class.content::WebContents"* nocapture readnone, i1 zeroext) unnamed_addr #1 align 2 {
  %4 = getelementptr inbounds %"class.guest_view::GuestViewBase", %"class.guest_view::GuestViewBase"* %0, i64 0, i32 9
  %5 = load i32, i32* %4, align 8
  %6 = load i32, i32* @_ZN10guest_view15kInstanceIDNoneE, align 4
  %7 = icmp eq i32 %5, %6
  br i1 %7, label %62, label %8

8:                                                ; preds = %3
  %9 = getelementptr inbounds %"class.guest_view::GuestViewBase", %"class.guest_view::GuestViewBase"* %0, i64 0, i32 10
  %10 = load i8, i8* %9, align 4, !range !7
  %11 = icmp eq i8 %10, 0
  br i1 %11, label %12, label %62

12:                                               ; preds = %8
  %13 = getelementptr inbounds %"class.guest_view::GuestViewBase", %"class.guest_view::GuestViewBase"* %0, i64 0, i32 12
  %14 = load i8, i8* %13, align 2, !range !7
  %15 = icmp eq i8 %14, 0
  br i1 %15, label %16, label %62

16:                                               ; preds = %12
  %17 = getelementptr inbounds %"class.guest_view::GuestViewBase", %"class.guest_view::GuestViewBase"* %0, i64 0, i32 4
  %18 = load %"class.content::WebContents"*, %"class.content::WebContents"** %17, align 8
  %19 = bitcast %"class.content::WebContents"* %18 to %"class.content::WebContentsDelegate"* (%"class.content::WebContents"*)***
  %20 = load %"class.content::WebContentsDelegate"* (%"class.content::WebContents"*)**, %"class.content::WebContentsDelegate"* (%"class.content::WebContents"*)*** %19, align 8
  %21 = getelementptr inbounds %"class.content::WebContentsDelegate"* (%"class.content::WebContents"*)*, %"class.content::WebContentsDelegate"* (%"class.content::WebContents"*)** %20, i64 3
  %22 = load %"class.content::WebContentsDelegate"* (%"class.content::WebContents"*)*, %"class.content::WebContentsDelegate"* (%"class.content::WebContents"*)** %21, align 8
  %23 = tail call %"class.content::WebContentsDelegate"* %22(%"class.content::WebContents"* %18) #17
  %24 = icmp eq %"class.content::WebContentsDelegate"* %23, null
  br i1 %24, label %62, label %25

25:                                               ; preds = %16
  %26 = load i32, i32* %4, align 8
  %27 = icmp eq i32 %26, %6
  br i1 %27, label %38, label %28

28:                                               ; preds = %25
  %29 = load i8, i8* %9, align 4, !range !7
  %30 = icmp eq i8 %29, 0
  br i1 %30, label %31, label %38

31:                                               ; preds = %28
  %32 = load i8, i8* %13, align 2, !range !7
  %33 = icmp eq i8 %32, 0
  br i1 %33, label %34, label %38

34:                                               ; preds = %31
  %35 = getelementptr inbounds %"class.guest_view::GuestViewBase", %"class.guest_view::GuestViewBase"* %0, i64 0, i32 4
  %36 = load %"class.content::WebContents"*, %"class.content::WebContents"** %35, align 8
  %37 = bitcast %"class.content::WebContents"* %36 to %"class.content::WebContentsDelegate"* (%"class.content::WebContents"*)***
  br label %38

38:                                               ; preds = %25, %28, %31, %34
  %39 = phi %"class.content::WebContentsDelegate"* (%"class.content::WebContents"*)*** [ %37, %34 ], [ null, %31 ], [ null, %28 ], [ null, %25 ]
  %40 = phi %"class.content::WebContents"* [ %36, %34 ], [ null, %31 ], [ null, %28 ], [ null, %25 ]
  %41 = load %"class.content::WebContentsDelegate"* (%"class.content::WebContents"*)**, %"class.content::WebContentsDelegate"* (%"class.content::WebContents"*)*** %39, align 8
  %42 = getelementptr inbounds %"class.content::WebContentsDelegate"* (%"class.content::WebContents"*)*, %"class.content::WebContentsDelegate"* (%"class.content::WebContents"*)** %41, i64 3
  %43 = load %"class.content::WebContentsDelegate"* (%"class.content::WebContents"*)*, %"class.content::WebContentsDelegate"* (%"class.content::WebContents"*)** %42, align 8
  %44 = tail call %"class.content::WebContentsDelegate"* %43(%"class.content::WebContents"* %40) #17
  %45 = load i32, i32* %4, align 8
  %46 = icmp eq i32 %45, %6
  br i1 %46, label %56, label %47

47:                                               ; preds = %38
  %48 = load i8, i8* %9, align 4, !range !7
  %49 = icmp eq i8 %48, 0
  br i1 %49, label %50, label %56

50:                                               ; preds = %47
  %51 = load i8, i8* %13, align 2, !range !7
  %52 = icmp eq i8 %51, 0
  br i1 %52, label %53, label %56

53:                                               ; preds = %50
  %54 = getelementptr inbounds %"class.guest_view::GuestViewBase", %"class.guest_view::GuestViewBase"* %0, i64 0, i32 4
  %55 = load %"class.content::WebContents"*, %"class.content::WebContents"** %54, align 8
  br label %56

56:                                               ; preds = %38, %47, %50, %53
  %57 = phi %"class.content::WebContents"* [ %55, %53 ], [ null, %50 ], [ null, %47 ], [ null, %38 ]
  %58 = bitcast %"class.content::WebContentsDelegate"* %44 to void (%"class.content::WebContentsDelegate"*, %"class.content::WebContents"*, i1)***
  %59 = load void (%"class.content::WebContentsDelegate"*, %"class.content::WebContents"*, i1)**, void (%"class.content::WebContentsDelegate"*, %"class.content::WebContents"*, i1)*** %58, align 8
  %60 = getelementptr inbounds void (%"class.content::WebContentsDelegate"*, %"class.content::WebContents"*, i1)*, void (%"class.content::WebContentsDelegate"*, %"class.content::WebContents"*, i1)** %59, i64 6
  %61 = load void (%"class.content::WebContentsDelegate"*, %"class.content::WebContents"*, i1)*, void (%"class.content::WebContentsDelegate"*, %"class.content::WebContents"*, i1)** %60, align 8
  tail call void %61(%"class.content::WebContentsDelegate"* %44, %"class.content::WebContents"* %57, i1 zeroext %2) #17
  br label %62

62:                                               ; preds = %3, %8, %16, %12, %56
  ret void
}

; Function Attrs: nounwind ssp uwtable
define hidden void @_ZThn8_N10guest_view13GuestViewBase19LoadingStateChangedEPN7content11WebContentsEb(%"class.guest_view::GuestViewBase"* nocapture readonly, %"class.content::WebContents"* nocapture readnone, i1 zeroext) unnamed_addr #1 align 2 {
  %4 = getelementptr inbounds %"class.guest_view::GuestViewBase", %"class.guest_view::GuestViewBase"* %0, i64 -1, i32 25, i32 0, i32 1
  %5 = bitcast i64* %4 to %"class.guest_view::GuestViewBase"*
  %6 = getelementptr inbounds i64, i64* %4, i64 14
  %7 = bitcast i64* %6 to i32*
  %8 = load i32, i32* %7, align 8
  %9 = load i32, i32* @_ZN10guest_view15kInstanceIDNoneE, align 4
  %10 = icmp eq i32 %8, %9
  br i1 %10, label %64, label %11

11:                                               ; preds = %3
  %12 = getelementptr inbounds %"class.guest_view::GuestViewBase", %"class.guest_view::GuestViewBase"* %5, i64 0, i32 10
  %13 = load i8, i8* %12, align 4, !range !7
  %14 = icmp eq i8 %13, 0
  br i1 %14, label %15, label %64

15:                                               ; preds = %11
  %16 = getelementptr inbounds %"class.guest_view::GuestViewBase", %"class.guest_view::GuestViewBase"* %5, i64 0, i32 12
  %17 = load i8, i8* %16, align 2, !range !7
  %18 = icmp eq i8 %17, 0
  br i1 %18, label %19, label %64

19:                                               ; preds = %15
  %20 = getelementptr inbounds i64, i64* %4, i64 8
  %21 = bitcast i64* %20 to %"class.content::WebContents"**
  %22 = load %"class.content::WebContents"*, %"class.content::WebContents"** %21, align 8
  %23 = bitcast %"class.content::WebContents"* %22 to %"class.content::WebContentsDelegate"* (%"class.content::WebContents"*)***
  %24 = load %"class.content::WebContentsDelegate"* (%"class.content::WebContents"*)**, %"class.content::WebContentsDelegate"* (%"class.content::WebContents"*)*** %23, align 8
  %25 = getelementptr inbounds %"class.content::WebContentsDelegate"* (%"class.content::WebContents"*)*, %"class.content::WebContentsDelegate"* (%"class.content::WebContents"*)** %24, i64 3
  %26 = load %"class.content::WebContentsDelegate"* (%"class.content::WebContents"*)*, %"class.content::WebContentsDelegate"* (%"class.content::WebContents"*)** %25, align 8
  %27 = tail call %"class.content::WebContentsDelegate"* %26(%"class.content::WebContents"* %22) #17
  %28 = icmp eq %"class.content::WebContentsDelegate"* %27, null
  br i1 %28, label %64, label %29

29:                                               ; preds = %19
  %30 = load i32, i32* %7, align 8
  %31 = icmp eq i32 %30, %9
  br i1 %31, label %41, label %32

32:                                               ; preds = %29
  %33 = load i8, i8* %12, align 4, !range !7
  %34 = icmp eq i8 %33, 0
  br i1 %34, label %35, label %41

35:                                               ; preds = %32
  %36 = load i8, i8* %16, align 2, !range !7
  %37 = icmp eq i8 %36, 0
  br i1 %37, label %38, label %41

38:                                               ; preds = %35
  %39 = load %"class.content::WebContents"*, %"class.content::WebContents"** %21, align 8
  %40 = bitcast %"class.content::WebContents"* %39 to %"class.content::WebContentsDelegate"* (%"class.content::WebContents"*)***
  br label %41

41:                                               ; preds = %38, %35, %32, %29
  %42 = phi %"class.content::WebContentsDelegate"* (%"class.content::WebContents"*)*** [ %40, %38 ], [ null, %35 ], [ null, %32 ], [ null, %29 ]
  %43 = phi %"class.content::WebContents"* [ %39, %38 ], [ null, %35 ], [ null, %32 ], [ null, %29 ]
  %44 = load %"class.content::WebContentsDelegate"* (%"class.content::WebContents"*)**, %"class.content::WebContentsDelegate"* (%"class.content::WebContents"*)*** %42, align 8
  %45 = getelementptr inbounds %"class.content::WebContentsDelegate"* (%"class.content::WebContents"*)*, %"class.content::WebContentsDelegate"* (%"class.content::WebContents"*)** %44, i64 3
  %46 = load %"class.content::WebContentsDelegate"* (%"class.content::WebContents"*)*, %"class.content::WebContentsDelegate"* (%"class.content::WebContents"*)** %45, align 8
  %47 = tail call %"class.content::WebContentsDelegate"* %46(%"class.content::WebContents"* %43) #17
  %48 = load i32, i32* %7, align 8
  %49 = icmp eq i32 %48, %9
  br i1 %49, label %58, label %50

50:                                               ; preds = %41
  %51 = load i8, i8* %12, align 4, !range !7
  %52 = icmp eq i8 %51, 0
  br i1 %52, label %53, label %58

53:                                               ; preds = %50
  %54 = load i8, i8* %16, align 2, !range !7
  %55 = icmp eq i8 %54, 0
  br i1 %55, label %56, label %58

56:                                               ; preds = %53
  %57 = load %"class.content::WebContents"*, %"class.content::WebContents"** %21, align 8
  br label %58

58:                                               ; preds = %56, %53, %50, %41
  %59 = phi %"class.content::WebContents"* [ %57, %56 ], [ null, %53 ], [ null, %50 ], [ null, %41 ]
  %60 = bitcast %"class.content::WebContentsDelegate"* %47 to void (%"class.content::WebContentsDelegate"*, %"class.content::WebContents"*, i1)***
  %61 = load void (%"class.content::WebContentsDelegate"*, %"class.content::WebContents"*, i1)**, void (%"class.content::WebContentsDelegate"*, %"class.content::WebContents"*, i1)*** %60, align 8
  %62 = getelementptr inbounds void (%"class.content::WebContentsDelegate"*, %"class.content::WebContents"*, i1)*, void (%"class.content::WebContentsDelegate"*, %"class.content::WebContents"*, i1)** %61, i64 6
  %63 = load void (%"class.content::WebContentsDelegate"*, %"class.content::WebContents"*, i1)*, void (%"class.content::WebContentsDelegate"*, %"class.content::WebContents"*, i1)** %62, align 8
  tail call void %63(%"class.content::WebContentsDelegate"* %47, %"class.content::WebContents"* %59, i1 zeroext %2) #17
  br label %64

64:                                               ; preds = %3, %11, %15, %19, %58
  ret void
}

; Function Attrs: nounwind ssp uwtable
define hidden %"class.content::ColorChooser"* @_ZN10guest_view13GuestViewBase16OpenColorChooserEPN7content11WebContentsEjRKNSt3__16vectorIN4mojo16InlinedStructPtrIN5blink5mojom15ColorSuggestionEEENS4_9allocatorISB_EEEE(%"class.guest_view::GuestViewBase"* nocapture readonly, %"class.content::WebContents"*, i32, %"class.std::__1::vector.197"*) unnamed_addr #1 align 2 {
  %5 = getelementptr inbounds %"class.guest_view::GuestViewBase", %"class.guest_view::GuestViewBase"* %0, i64 0, i32 9
  %6 = load i32, i32* %5, align 8
  %7 = load i32, i32* @_ZN10guest_view15kInstanceIDNoneE, align 4
  %8 = icmp eq i32 %6, %7
  br i1 %8, label %51, label %9

9:                                                ; preds = %4
  %10 = getelementptr inbounds %"class.guest_view::GuestViewBase", %"class.guest_view::GuestViewBase"* %0, i64 0, i32 10
  %11 = load i8, i8* %10, align 4, !range !7
  %12 = icmp eq i8 %11, 0
  br i1 %12, label %13, label %51

13:                                               ; preds = %9
  %14 = getelementptr inbounds %"class.guest_view::GuestViewBase", %"class.guest_view::GuestViewBase"* %0, i64 0, i32 12
  %15 = load i8, i8* %14, align 2, !range !7
  %16 = icmp eq i8 %15, 0
  br i1 %16, label %17, label %51

17:                                               ; preds = %13
  %18 = getelementptr inbounds %"class.guest_view::GuestViewBase", %"class.guest_view::GuestViewBase"* %0, i64 0, i32 4
  %19 = load %"class.content::WebContents"*, %"class.content::WebContents"** %18, align 8
  %20 = bitcast %"class.content::WebContents"* %19 to %"class.content::WebContentsDelegate"* (%"class.content::WebContents"*)***
  %21 = load %"class.content::WebContentsDelegate"* (%"class.content::WebContents"*)**, %"class.content::WebContentsDelegate"* (%"class.content::WebContents"*)*** %20, align 8
  %22 = getelementptr inbounds %"class.content::WebContentsDelegate"* (%"class.content::WebContents"*)*, %"class.content::WebContentsDelegate"* (%"class.content::WebContents"*)** %21, i64 3
  %23 = load %"class.content::WebContentsDelegate"* (%"class.content::WebContents"*)*, %"class.content::WebContentsDelegate"* (%"class.content::WebContents"*)** %22, align 8
  %24 = tail call %"class.content::WebContentsDelegate"* %23(%"class.content::WebContents"* %19) #17
  %25 = icmp eq %"class.content::WebContentsDelegate"* %24, null
  br i1 %25, label %51, label %26

26:                                               ; preds = %17
  %27 = load i32, i32* %5, align 8
  %28 = icmp eq i32 %27, %7
  br i1 %28, label %39, label %29

29:                                               ; preds = %26
  %30 = load i8, i8* %10, align 4, !range !7
  %31 = icmp eq i8 %30, 0
  br i1 %31, label %32, label %39

32:                                               ; preds = %29
  %33 = load i8, i8* %14, align 2, !range !7
  %34 = icmp eq i8 %33, 0
  br i1 %34, label %35, label %39

35:                                               ; preds = %32
  %36 = getelementptr inbounds %"class.guest_view::GuestViewBase", %"class.guest_view::GuestViewBase"* %0, i64 0, i32 4
  %37 = load %"class.content::WebContents"*, %"class.content::WebContents"** %36, align 8
  %38 = bitcast %"class.content::WebContents"* %37 to %"class.content::WebContentsDelegate"* (%"class.content::WebContents"*)***
  br label %39

39:                                               ; preds = %26, %29, %32, %35
  %40 = phi %"class.content::WebContentsDelegate"* (%"class.content::WebContents"*)*** [ %38, %35 ], [ null, %32 ], [ null, %29 ], [ null, %26 ]
  %41 = phi %"class.content::WebContents"* [ %37, %35 ], [ null, %32 ], [ null, %29 ], [ null, %26 ]
  %42 = load %"class.content::WebContentsDelegate"* (%"class.content::WebContents"*)**, %"class.content::WebContentsDelegate"* (%"class.content::WebContents"*)*** %40, align 8
  %43 = getelementptr inbounds %"class.content::WebContentsDelegate"* (%"class.content::WebContents"*)*, %"class.content::WebContentsDelegate"* (%"class.content::WebContents"*)** %42, i64 3
  %44 = load %"class.content::WebContentsDelegate"* (%"class.content::WebContents"*)*, %"class.content::WebContentsDelegate"* (%"class.content::WebContents"*)** %43, align 8
  %45 = tail call %"class.content::WebContentsDelegate"* %44(%"class.content::WebContents"* %41) #17
  %46 = bitcast %"class.content::WebContentsDelegate"* %45 to %"class.content::ColorChooser"* (%"class.content::WebContentsDelegate"*, %"class.content::WebContents"*, i32, %"class.std::__1::vector.197"*)***
  %47 = load %"class.content::ColorChooser"* (%"class.content::WebContentsDelegate"*, %"class.content::WebContents"*, i32, %"class.std::__1::vector.197"*)**, %"class.content::ColorChooser"* (%"class.content::WebContentsDelegate"*, %"class.content::WebContents"*, i32, %"class.std::__1::vector.197"*)*** %46, align 8
  %48 = getelementptr inbounds %"class.content::ColorChooser"* (%"class.content::WebContentsDelegate"*, %"class.content::WebContents"*, i32, %"class.std::__1::vector.197"*)*, %"class.content::ColorChooser"* (%"class.content::WebContentsDelegate"*, %"class.content::WebContents"*, i32, %"class.std::__1::vector.197"*)** %47, i64 41
  %49 = load %"class.content::ColorChooser"* (%"class.content::WebContentsDelegate"*, %"class.content::WebContents"*, i32, %"class.std::__1::vector.197"*)*, %"class.content::ColorChooser"* (%"class.content::WebContentsDelegate"*, %"class.content::WebContents"*, i32, %"class.std::__1::vector.197"*)** %48, align 8
  %50 = tail call %"class.content::ColorChooser"* %49(%"class.content::WebContentsDelegate"* %45, %"class.content::WebContents"* %1, i32 %2, %"class.std::__1::vector.197"* %3) #17
  br label %51

51:                                               ; preds = %4, %9, %13, %17, %39
  %52 = phi %"class.content::ColorChooser"* [ %50, %39 ], [ null, %17 ], [ null, %13 ], [ null, %9 ], [ null, %4 ]
  ret %"class.content::ColorChooser"* %52
}

; Function Attrs: nounwind ssp uwtable
define hidden %"class.content::ColorChooser"* @_ZThn8_N10guest_view13GuestViewBase16OpenColorChooserEPN7content11WebContentsEjRKNSt3__16vectorIN4mojo16InlinedStructPtrIN5blink5mojom15ColorSuggestionEEENS4_9allocatorISB_EEEE(%"class.guest_view::GuestViewBase"* nocapture readonly, %"class.content::WebContents"*, i32, %"class.std::__1::vector.197"*) unnamed_addr #1 align 2 {
  %5 = getelementptr inbounds %"class.guest_view::GuestViewBase", %"class.guest_view::GuestViewBase"* %0, i64 -1, i32 25, i32 0, i32 1
  %6 = bitcast i64* %5 to %"class.guest_view::GuestViewBase"*
  %7 = getelementptr inbounds i64, i64* %5, i64 14
  %8 = bitcast i64* %7 to i32*
  %9 = load i32, i32* %8, align 8
  %10 = load i32, i32* @_ZN10guest_view15kInstanceIDNoneE, align 4
  %11 = icmp eq i32 %9, %10
  br i1 %11, label %54, label %12

12:                                               ; preds = %4
  %13 = getelementptr inbounds %"class.guest_view::GuestViewBase", %"class.guest_view::GuestViewBase"* %6, i64 0, i32 10
  %14 = load i8, i8* %13, align 4, !range !7
  %15 = icmp eq i8 %14, 0
  br i1 %15, label %16, label %54

16:                                               ; preds = %12
  %17 = getelementptr inbounds %"class.guest_view::GuestViewBase", %"class.guest_view::GuestViewBase"* %6, i64 0, i32 12
  %18 = load i8, i8* %17, align 2, !range !7
  %19 = icmp eq i8 %18, 0
  br i1 %19, label %20, label %54

20:                                               ; preds = %16
  %21 = getelementptr inbounds i64, i64* %5, i64 8
  %22 = bitcast i64* %21 to %"class.content::WebContents"**
  %23 = load %"class.content::WebContents"*, %"class.content::WebContents"** %22, align 8
  %24 = bitcast %"class.content::WebContents"* %23 to %"class.content::WebContentsDelegate"* (%"class.content::WebContents"*)***
  %25 = load %"class.content::WebContentsDelegate"* (%"class.content::WebContents"*)**, %"class.content::WebContentsDelegate"* (%"class.content::WebContents"*)*** %24, align 8
  %26 = getelementptr inbounds %"class.content::WebContentsDelegate"* (%"class.content::WebContents"*)*, %"class.content::WebContentsDelegate"* (%"class.content::WebContents"*)** %25, i64 3
  %27 = load %"class.content::WebContentsDelegate"* (%"class.content::WebContents"*)*, %"class.content::WebContentsDelegate"* (%"class.content::WebContents"*)** %26, align 8
  %28 = tail call %"class.content::WebContentsDelegate"* %27(%"class.content::WebContents"* %23) #17
  %29 = icmp eq %"class.content::WebContentsDelegate"* %28, null
  br i1 %29, label %54, label %30

30:                                               ; preds = %20
  %31 = load i32, i32* %8, align 8
  %32 = icmp eq i32 %31, %10
  br i1 %32, label %42, label %33

33:                                               ; preds = %30
  %34 = load i8, i8* %13, align 4, !range !7
  %35 = icmp eq i8 %34, 0
  br i1 %35, label %36, label %42

36:                                               ; preds = %33
  %37 = load i8, i8* %17, align 2, !range !7
  %38 = icmp eq i8 %37, 0
  br i1 %38, label %39, label %42

39:                                               ; preds = %36
  %40 = load %"class.content::WebContents"*, %"class.content::WebContents"** %22, align 8
  %41 = bitcast %"class.content::WebContents"* %40 to %"class.content::WebContentsDelegate"* (%"class.content::WebContents"*)***
  br label %42

42:                                               ; preds = %39, %36, %33, %30
  %43 = phi %"class.content::WebContentsDelegate"* (%"class.content::WebContents"*)*** [ %41, %39 ], [ null, %36 ], [ null, %33 ], [ null, %30 ]
  %44 = phi %"class.content::WebContents"* [ %40, %39 ], [ null, %36 ], [ null, %33 ], [ null, %30 ]
  %45 = load %"class.content::WebContentsDelegate"* (%"class.content::WebContents"*)**, %"class.content::WebContentsDelegate"* (%"class.content::WebContents"*)*** %43, align 8
  %46 = getelementptr inbounds %"class.content::WebContentsDelegate"* (%"class.content::WebContents"*)*, %"class.content::WebContentsDelegate"* (%"class.content::WebContents"*)** %45, i64 3
  %47 = load %"class.content::WebContentsDelegate"* (%"class.content::WebContents"*)*, %"class.content::WebContentsDelegate"* (%"class.content::WebContents"*)** %46, align 8
  %48 = tail call %"class.content::WebContentsDelegate"* %47(%"class.content::WebContents"* %44) #17
  %49 = bitcast %"class.content::WebContentsDelegate"* %48 to %"class.content::ColorChooser"* (%"class.content::WebContentsDelegate"*, %"class.content::WebContents"*, i32, %"class.std::__1::vector.197"*)***
  %50 = load %"class.content::ColorChooser"* (%"class.content::WebContentsDelegate"*, %"class.content::WebContents"*, i32, %"class.std::__1::vector.197"*)**, %"class.content::ColorChooser"* (%"class.content::WebContentsDelegate"*, %"class.content::WebContents"*, i32, %"class.std::__1::vector.197"*)*** %49, align 8
  %51 = getelementptr inbounds %"class.content::ColorChooser"* (%"class.content::WebContentsDelegate"*, %"class.content::WebContents"*, i32, %"class.std::__1::vector.197"*)*, %"class.content::ColorChooser"* (%"class.content::WebContentsDelegate"*, %"class.content::WebContents"*, i32, %"class.std::__1::vector.197"*)** %50, i64 41
  %52 = load %"class.content::ColorChooser"* (%"class.content::WebContentsDelegate"*, %"class.content::WebContents"*, i32, %"class.std::__1::vector.197"*)*, %"class.content::ColorChooser"* (%"class.content::WebContentsDelegate"*, %"class.content::WebContents"*, i32, %"class.std::__1::vector.197"*)** %51, align 8
  %53 = tail call %"class.content::ColorChooser"* %52(%"class.content::WebContentsDelegate"* %48, %"class.content::WebContents"* %1, i32 %2, %"class.std::__1::vector.197"* %3) #17
  br label %54

54:                                               ; preds = %4, %12, %16, %20, %42
  %55 = phi %"class.content::ColorChooser"* [ %53, %42 ], [ null, %20 ], [ null, %16 ], [ null, %12 ], [ null, %4 ]
  ret %"class.content::ColorChooser"* %55
}

; Function Attrs: nounwind ssp uwtable
define hidden void @_ZN10guest_view13GuestViewBase21ResizeDueToAutoResizeEPN7content11WebContentsERKN3gfx4SizeE(%"class.guest_view::GuestViewBase"*, %"class.content::WebContents"* nocapture readnone, %"class.gfx::Size"* dereferenceable(8)) unnamed_addr #1 align 2 {
  %4 = getelementptr inbounds %"class.guest_view::GuestViewBase", %"class.guest_view::GuestViewBase"* %0, i64 0, i32 20
  %5 = load i8, i8* %4, align 8, !range !7
  %6 = icmp eq i8 %5, 0
  br i1 %6, label %13, label %7

7:                                                ; preds = %3
  %8 = getelementptr inbounds %"class.guest_view::GuestViewBase", %"class.guest_view::GuestViewBase"* %0, i64 0, i32 18
  %9 = bitcast %"class.guest_view::GuestViewBase"* %0 to void (%"class.guest_view::GuestViewBase"*, %"class.gfx::Size"*, %"class.gfx::Size"*)***
  %10 = load void (%"class.guest_view::GuestViewBase"*, %"class.gfx::Size"*, %"class.gfx::Size"*)**, void (%"class.guest_view::GuestViewBase"*, %"class.gfx::Size"*, %"class.gfx::Size"*)*** %9, align 8
  %11 = getelementptr inbounds void (%"class.guest_view::GuestViewBase"*, %"class.gfx::Size"*, %"class.gfx::Size"*)*, void (%"class.guest_view::GuestViewBase"*, %"class.gfx::Size"*, %"class.gfx::Size"*)** %10, i64 28
  %12 = load void (%"class.guest_view::GuestViewBase"*, %"class.gfx::Size"*, %"class.gfx::Size"*)*, void (%"class.guest_view::GuestViewBase"*, %"class.gfx::Size"*, %"class.gfx::Size"*)** %11, align 8
  tail call void %12(%"class.guest_view::GuestViewBase"* %0, %"class.gfx::Size"* dereferenceable(8) %8, %"class.gfx::Size"* dereferenceable(8) %2) #17
  br label %13

13:                                               ; preds = %3, %7
  %14 = getelementptr inbounds %"class.guest_view::GuestViewBase", %"class.guest_view::GuestViewBase"* %0, i64 0, i32 18
  tail call void @_ZN10guest_view13GuestViewBase21DispatchOnResizeEventERKN3gfx4SizeES4_(%"class.guest_view::GuestViewBase"* %0, %"class.gfx::Size"* dereferenceable(8) %14, %"class.gfx::Size"* dereferenceable(8) %2) #17
  %15 = bitcast %"class.gfx::Size"* %2 to i64*
  %16 = bitcast %"class.gfx::Size"* %14 to i64*
  %17 = load i64, i64* %15, align 4
  store i64 %17, i64* %16, align 8
  ret void
}

; Function Attrs: nounwind ssp uwtable
define hidden void @_ZThn8_N10guest_view13GuestViewBase21ResizeDueToAutoResizeEPN7content11WebContentsERKN3gfx4SizeE(%"class.guest_view::GuestViewBase"*, %"class.content::WebContents"* nocapture readnone, %"class.gfx::Size"* dereferenceable(8)) unnamed_addr #1 align 2 {
  %4 = getelementptr inbounds %"class.guest_view::GuestViewBase", %"class.guest_view::GuestViewBase"* %0, i64 -1, i32 25, i32 0, i32 1
  %5 = bitcast i64* %4 to %"class.guest_view::GuestViewBase"*
  %6 = getelementptr inbounds i64, i64* %4, i64 26
  %7 = bitcast i64* %6 to i8*
  %8 = load i8, i8* %7, align 8, !range !7
  %9 = icmp eq i8 %8, 0
  br i1 %9, label %17, label %10

10:                                               ; preds = %3
  %11 = getelementptr inbounds i64, i64* %4, i64 24
  %12 = bitcast i64* %11 to %"class.gfx::Size"*
  %13 = bitcast i64* %4 to void (%"class.guest_view::GuestViewBase"*, %"class.gfx::Size"*, %"class.gfx::Size"*)***
  %14 = load void (%"class.guest_view::GuestViewBase"*, %"class.gfx::Size"*, %"class.gfx::Size"*)**, void (%"class.guest_view::GuestViewBase"*, %"class.gfx::Size"*, %"class.gfx::Size"*)*** %13, align 8
  %15 = getelementptr inbounds void (%"class.guest_view::GuestViewBase"*, %"class.gfx::Size"*, %"class.gfx::Size"*)*, void (%"class.guest_view::GuestViewBase"*, %"class.gfx::Size"*, %"class.gfx::Size"*)** %14, i64 28
  %16 = load void (%"class.guest_view::GuestViewBase"*, %"class.gfx::Size"*, %"class.gfx::Size"*)*, void (%"class.guest_view::GuestViewBase"*, %"class.gfx::Size"*, %"class.gfx::Size"*)** %15, align 8
  tail call void %16(%"class.guest_view::GuestViewBase"* %5, %"class.gfx::Size"* dereferenceable(8) %12, %"class.gfx::Size"* dereferenceable(8) %2) #17
  br label %17

17:                                               ; preds = %3, %10
  %18 = getelementptr inbounds i64, i64* %4, i64 24
  %19 = bitcast i64* %18 to %"class.gfx::Size"*
  tail call void @_ZN10guest_view13GuestViewBase21DispatchOnResizeEventERKN3gfx4SizeES4_(%"class.guest_view::GuestViewBase"* %5, %"class.gfx::Size"* dereferenceable(8) %19, %"class.gfx::Size"* dereferenceable(8) %2) #17
  %20 = bitcast %"class.gfx::Size"* %2 to i64*
  %21 = load i64, i64* %20, align 4
  store i64 %21, i64* %18, align 8
  ret void
}

; Function Attrs: nounwind ssp uwtable
define hidden void @_ZN10guest_view13GuestViewBase14RunFileChooserEPN7content15RenderFrameHostE13scoped_refptrINS1_18FileSelectListenerEERKN5blink5mojom17FileChooserParamsE(%"class.guest_view::GuestViewBase"* nocapture readonly, %"class.content::RenderFrameHost"*, %"class.content::FileSelectListener"*, %"class.blink::mojom::FileChooserParams"* dereferenceable(232)) unnamed_addr #1 align 2 {
  %5 = getelementptr inbounds %"class.guest_view::GuestViewBase", %"class.guest_view::GuestViewBase"* %0, i64 0, i32 9
  %6 = load i32, i32* %5, align 8
  %7 = load i32, i32* @_ZN10guest_view15kInstanceIDNoneE, align 4
  %8 = icmp eq i32 %6, %7
  br i1 %8, label %50, label %9

9:                                                ; preds = %4
  %10 = getelementptr inbounds %"class.guest_view::GuestViewBase", %"class.guest_view::GuestViewBase"* %0, i64 0, i32 10
  %11 = load i8, i8* %10, align 4, !range !7
  %12 = icmp eq i8 %11, 0
  br i1 %12, label %13, label %50

13:                                               ; preds = %9
  %14 = getelementptr inbounds %"class.guest_view::GuestViewBase", %"class.guest_view::GuestViewBase"* %0, i64 0, i32 12
  %15 = load i8, i8* %14, align 2, !range !7
  %16 = icmp eq i8 %15, 0
  br i1 %16, label %17, label %50

17:                                               ; preds = %13
  %18 = getelementptr inbounds %"class.guest_view::GuestViewBase", %"class.guest_view::GuestViewBase"* %0, i64 0, i32 4
  %19 = load %"class.content::WebContents"*, %"class.content::WebContents"** %18, align 8
  %20 = bitcast %"class.content::WebContents"* %19 to %"class.content::WebContentsDelegate"* (%"class.content::WebContents"*)***
  %21 = load %"class.content::WebContentsDelegate"* (%"class.content::WebContents"*)**, %"class.content::WebContentsDelegate"* (%"class.content::WebContents"*)*** %20, align 8
  %22 = getelementptr inbounds %"class.content::WebContentsDelegate"* (%"class.content::WebContents"*)*, %"class.content::WebContentsDelegate"* (%"class.content::WebContents"*)** %21, i64 3
  %23 = load %"class.content::WebContentsDelegate"* (%"class.content::WebContents"*)*, %"class.content::WebContentsDelegate"* (%"class.content::WebContents"*)** %22, align 8
  %24 = tail call %"class.content::WebContentsDelegate"* %23(%"class.content::WebContents"* %19) #17
  %25 = icmp eq %"class.content::WebContentsDelegate"* %24, null
  br i1 %25, label %50, label %26

26:                                               ; preds = %17
  %27 = load i32, i32* %5, align 8
  %28 = icmp eq i32 %27, %7
  br i1 %28, label %39, label %29

29:                                               ; preds = %26
  %30 = load i8, i8* %10, align 4, !range !7
  %31 = icmp eq i8 %30, 0
  br i1 %31, label %32, label %39

32:                                               ; preds = %29
  %33 = load i8, i8* %14, align 2, !range !7
  %34 = icmp eq i8 %33, 0
  br i1 %34, label %35, label %39

35:                                               ; preds = %32
  %36 = getelementptr inbounds %"class.guest_view::GuestViewBase", %"class.guest_view::GuestViewBase"* %0, i64 0, i32 4
  %37 = load %"class.content::WebContents"*, %"class.content::WebContents"** %36, align 8
  %38 = bitcast %"class.content::WebContents"* %37 to %"class.content::WebContentsDelegate"* (%"class.content::WebContents"*)***
  br label %39

39:                                               ; preds = %35, %32, %29, %26
  %40 = phi %"class.content::WebContentsDelegate"* (%"class.content::WebContents"*)*** [ %38, %35 ], [ null, %32 ], [ null, %29 ], [ null, %26 ]
  %41 = phi %"class.content::WebContents"* [ %37, %35 ], [ null, %32 ], [ null, %29 ], [ null, %26 ]
  %42 = load %"class.content::WebContentsDelegate"* (%"class.content::WebContents"*)**, %"class.content::WebContentsDelegate"* (%"class.content::WebContents"*)*** %40, align 8
  %43 = getelementptr inbounds %"class.content::WebContentsDelegate"* (%"class.content::WebContents"*)*, %"class.content::WebContentsDelegate"* (%"class.content::WebContents"*)** %42, i64 3
  %44 = load %"class.content::WebContentsDelegate"* (%"class.content::WebContents"*)*, %"class.content::WebContentsDelegate"* (%"class.content::WebContents"*)** %43, align 8
  %45 = tail call %"class.content::WebContentsDelegate"* %44(%"class.content::WebContents"* %41) #17
  %46 = bitcast %"class.content::WebContentsDelegate"* %45 to void (%"class.content::WebContentsDelegate"*, %"class.content::RenderFrameHost"*, %"class.content::FileSelectListener"*, %"class.blink::mojom::FileChooserParams"*)***
  %47 = load void (%"class.content::WebContentsDelegate"*, %"class.content::RenderFrameHost"*, %"class.content::FileSelectListener"*, %"class.blink::mojom::FileChooserParams"*)**, void (%"class.content::WebContentsDelegate"*, %"class.content::RenderFrameHost"*, %"class.content::FileSelectListener"*, %"class.blink::mojom::FileChooserParams"*)*** %46, align 8
  %48 = getelementptr inbounds void (%"class.content::WebContentsDelegate"*, %"class.content::RenderFrameHost"*, %"class.content::FileSelectListener"*, %"class.blink::mojom::FileChooserParams"*)*, void (%"class.content::WebContentsDelegate"*, %"class.content::RenderFrameHost"*, %"class.content::FileSelectListener"*, %"class.blink::mojom::FileChooserParams"*)** %47, i64 43
  %49 = load void (%"class.content::WebContentsDelegate"*, %"class.content::RenderFrameHost"*, %"class.content::FileSelectListener"*, %"class.blink::mojom::FileChooserParams"*)*, void (%"class.content::WebContentsDelegate"*, %"class.content::RenderFrameHost"*, %"class.content::FileSelectListener"*, %"class.blink::mojom::FileChooserParams"*)** %48, align 8
  tail call void %49(%"class.content::WebContentsDelegate"* %45, %"class.content::RenderFrameHost"* %1, %"class.content::FileSelectListener"* %2, %"class.blink::mojom::FileChooserParams"* dereferenceable(232) %3) #17
  br label %69

50:                                               ; preds = %4, %9, %13, %17
  %51 = bitcast %"class.content::FileSelectListener"* %2 to void (%"class.content::FileSelectListener"*)***
  %52 = load void (%"class.content::FileSelectListener"*)**, void (%"class.content::FileSelectListener"*)*** %51, align 8
  %53 = getelementptr inbounds void (%"class.content::FileSelectListener"*)*, void (%"class.content::FileSelectListener"*)** %52, i64 1
  %54 = load void (%"class.content::FileSelectListener"*)*, void (%"class.content::FileSelectListener"*)** %53, align 8
  tail call void %54(%"class.content::FileSelectListener"* %2) #17
  %55 = icmp eq %"class.content::FileSelectListener"* %2, null
  br i1 %55, label %69, label %56

56:                                               ; preds = %50
  %57 = getelementptr inbounds %"class.content::FileSelectListener", %"class.content::FileSelectListener"* %2, i64 0, i32 1
  %58 = getelementptr inbounds %"class.base::RefCounted.199", %"class.base::RefCounted.199"* %57, i64 0, i32 0
  tail call void @_ZNK4base6subtle14RefCountedBase11ReleaseImplEv(%"class.base::subtle::RefCountedBase"* %58) #17
  %59 = getelementptr inbounds %"class.base::RefCounted.199", %"class.base::RefCounted.199"* %57, i64 0, i32 0, i32 0
  %60 = load i32, i32* %59, align 4
  %61 = icmp eq i32 %60, 0
  br i1 %61, label %62, label %69

62:                                               ; preds = %56
  %63 = getelementptr inbounds %"class.base::RefCounted.199", %"class.base::RefCounted.199"* %57, i64 -2
  %64 = bitcast %"class.base::RefCounted.199"* %63 to %"class.content::FileSelectListener"*
  %65 = bitcast %"class.base::RefCounted.199"* %63 to void (%"class.content::FileSelectListener"*)***
  %66 = load void (%"class.content::FileSelectListener"*)**, void (%"class.content::FileSelectListener"*)*** %65, align 8
  %67 = getelementptr inbounds void (%"class.content::FileSelectListener"*)*, void (%"class.content::FileSelectListener"*)** %66, i64 3
  %68 = load void (%"class.content::FileSelectListener"*)*, void (%"class.content::FileSelectListener"*)** %67, align 8
  tail call void %68(%"class.content::FileSelectListener"* nonnull %64) #17
  br label %69

69:                                               ; preds = %39, %50, %56, %62
  ret void
}

; Function Attrs: nounwind ssp uwtable
define hidden void @_ZThn8_N10guest_view13GuestViewBase14RunFileChooserEPN7content15RenderFrameHostE13scoped_refptrINS1_18FileSelectListenerEERKN5blink5mojom17FileChooserParamsE(%"class.guest_view::GuestViewBase"* nocapture readonly, %"class.content::RenderFrameHost"*, %"class.content::FileSelectListener"*, %"class.blink::mojom::FileChooserParams"* dereferenceable(232)) unnamed_addr #1 align 2 {
  %5 = getelementptr inbounds %"class.guest_view::GuestViewBase", %"class.guest_view::GuestViewBase"* %0, i64 -1, i32 25, i32 0, i32 1
  %6 = bitcast i64* %5 to %"class.guest_view::GuestViewBase"*
  tail call void @_ZN10guest_view13GuestViewBase14RunFileChooserEPN7content15RenderFrameHostE13scoped_refptrINS1_18FileSelectListenerEERKN5blink5mojom17FileChooserParamsE(%"class.guest_view::GuestViewBase"* %6, %"class.content::RenderFrameHost"* %1, %"class.content::FileSelectListener"* %2, %"class.blink::mojom::FileChooserParams"* dereferenceable(232) %3)
  ret void
}

; Function Attrs: norecurse nounwind readnone ssp uwtable
define hidden zeroext i1 @_ZN10guest_view13GuestViewBase25ShouldFocusPageAfterCrashEv(%"class.guest_view::GuestViewBase"* nocapture readnone) unnamed_addr #7 align 2 {
  ret i1 false
}

; Function Attrs: norecurse nounwind readnone ssp uwtable
define hidden zeroext i1 @_ZThn8_N10guest_view13GuestViewBase25ShouldFocusPageAfterCrashEv(%"class.guest_view::GuestViewBase"* nocapture readnone) unnamed_addr #7 align 2 {
  ret i1 false
}

; Function Attrs: norecurse nounwind readnone ssp uwtable
define hidden zeroext i1 @_ZN10guest_view13GuestViewBase21PreHandleGestureEventEPN7content11WebContentsERKN5blink15WebGestureEventE(%"class.guest_view::GuestViewBase"* nocapture readnone, %"class.content::WebContents"* nocapture readnone, %"class.blink::WebGestureEvent"* nocapture readnone dereferenceable(112)) unnamed_addr #7 align 2 {
  ret i1 false
}

; Function Attrs: norecurse nounwind readnone ssp uwtable
define hidden zeroext i1 @_ZThn8_N10guest_view13GuestViewBase21PreHandleGestureEventEPN7content11WebContentsERKN5blink15WebGestureEventE(%"class.guest_view::GuestViewBase"* nocapture readnone, %"class.content::WebContents"* nocapture readnone, %"class.blink::WebGestureEvent"* nocapture readnone dereferenceable(112)) unnamed_addr #7 align 2 {
  ret i1 false
}

; Function Attrs: nounwind ssp uwtable
define hidden void @_ZN10guest_view13GuestViewBase19UpdatePreferredSizeEPN7content11WebContentsERKN3gfx4SizeE(%"class.guest_view::GuestViewBase"*, %"class.content::WebContents"* nocapture readnone, %"class.gfx::Size"* dereferenceable(8)) unnamed_addr #1 align 2 {
  %4 = bitcast %"class.guest_view::GuestViewBase"* %0 to i1 (%"class.guest_view::GuestViewBase"*)***
  %5 = load i1 (%"class.guest_view::GuestViewBase"*)**, i1 (%"class.guest_view::GuestViewBase"*)*** %4, align 8
  %6 = getelementptr inbounds i1 (%"class.guest_view::GuestViewBase"*)*, i1 (%"class.guest_view::GuestViewBase"*)** %5, i64 7
  %7 = load i1 (%"class.guest_view::GuestViewBase"*)*, i1 (%"class.guest_view::GuestViewBase"*)** %6, align 8
  %8 = tail call zeroext i1 %7(%"class.guest_view::GuestViewBase"* %0) #17
  br i1 %8, label %9, label %14

9:                                                ; preds = %3
  %10 = bitcast %"class.guest_view::GuestViewBase"* %0 to void (%"class.guest_view::GuestViewBase"*, %"class.gfx::Size"*)***
  %11 = load void (%"class.guest_view::GuestViewBase"*, %"class.gfx::Size"*)**, void (%"class.guest_view::GuestViewBase"*, %"class.gfx::Size"*)*** %10, align 8
  %12 = getelementptr inbounds void (%"class.guest_view::GuestViewBase"*, %"class.gfx::Size"*)*, void (%"class.guest_view::GuestViewBase"*, %"class.gfx::Size"*)** %11, i64 29
  %13 = load void (%"class.guest_view::GuestViewBase"*, %"class.gfx::Size"*)*, void (%"class.guest_view::GuestViewBase"*, %"class.gfx::Size"*)** %12, align 8
  tail call void %13(%"class.guest_view::GuestViewBase"* %0, %"class.gfx::Size"* dereferenceable(8) %2) #17
  br label %14

14:                                               ; preds = %9, %3
  ret void
}

; Function Attrs: nounwind ssp uwtable
define hidden void @_ZThn8_N10guest_view13GuestViewBase19UpdatePreferredSizeEPN7content11WebContentsERKN3gfx4SizeE(%"class.guest_view::GuestViewBase"*, %"class.content::WebContents"* nocapture readnone, %"class.gfx::Size"* dereferenceable(8)) unnamed_addr #1 align 2 {
  %4 = getelementptr inbounds %"class.guest_view::GuestViewBase", %"class.guest_view::GuestViewBase"* %0, i64 -1, i32 25, i32 0, i32 1
  %5 = bitcast i64* %4 to %"class.guest_view::GuestViewBase"*
  %6 = bitcast i64* %4 to i1 (%"class.guest_view::GuestViewBase"*)***
  %7 = load i1 (%"class.guest_view::GuestViewBase"*)**, i1 (%"class.guest_view::GuestViewBase"*)*** %6, align 8
  %8 = getelementptr inbounds i1 (%"class.guest_view::GuestViewBase"*)*, i1 (%"class.guest_view::GuestViewBase"*)** %7, i64 7
  %9 = load i1 (%"class.guest_view::GuestViewBase"*)*, i1 (%"class.guest_view::GuestViewBase"*)** %8, align 8
  %10 = tail call zeroext i1 %9(%"class.guest_view::GuestViewBase"* %5) #17
  br i1 %10, label %11, label %16

11:                                               ; preds = %3
  %12 = bitcast i64* %4 to void (%"class.guest_view::GuestViewBase"*, %"class.gfx::Size"*)***
  %13 = load void (%"class.guest_view::GuestViewBase"*, %"class.gfx::Size"*)**, void (%"class.guest_view::GuestViewBase"*, %"class.gfx::Size"*)*** %12, align 8
  %14 = getelementptr inbounds void (%"class.guest_view::GuestViewBase"*, %"class.gfx::Size"*)*, void (%"class.guest_view::GuestViewBase"*, %"class.gfx::Size"*)** %13, i64 29
  %15 = load void (%"class.guest_view::GuestViewBase"*, %"class.gfx::Size"*)*, void (%"class.guest_view::GuestViewBase"*, %"class.gfx::Size"*)** %14, align 8
  tail call void %15(%"class.guest_view::GuestViewBase"* %5, %"class.gfx::Size"* dereferenceable(8) %2) #17
  br label %16

16:                                               ; preds = %3, %11
  ret void
}

; Function Attrs: norecurse nounwind readonly ssp uwtable
define hidden %"class.content::WebContents"* @_ZN10guest_view13GuestViewBase25GetResponsibleWebContentsEPN7content11WebContentsE(%"class.guest_view::GuestViewBase"* nocapture readonly, %"class.content::WebContents"* nocapture readnone) unnamed_addr #8 align 2 {
  %3 = getelementptr inbounds %"class.guest_view::GuestViewBase", %"class.guest_view::GuestViewBase"* %0, i64 0, i32 4
  %4 = load %"class.content::WebContents"*, %"class.content::WebContents"** %3, align 8
  ret %"class.content::WebContents"* %4
}

; Function Attrs: norecurse nounwind readonly ssp uwtable
define hidden %"class.content::WebContents"* @_ZThn8_N10guest_view13GuestViewBase25GetResponsibleWebContentsEPN7content11WebContentsE(%"class.guest_view::GuestViewBase"* nocapture readonly, %"class.content::WebContents"* nocapture readnone) unnamed_addr #8 align 2 {
  %3 = getelementptr inbounds %"class.guest_view::GuestViewBase", %"class.guest_view::GuestViewBase"* %0, i64 -1, i32 25, i32 0, i32 1
  %4 = getelementptr inbounds i64, i64* %3, i64 8
  %5 = bitcast i64* %4 to %"class.content::WebContents"**
  %6 = load %"class.content::WebContents"*, %"class.content::WebContents"** %5, align 8
  ret %"class.content::WebContents"* %6
}

; Function Attrs: nounwind ssp uwtable
define hidden void @_ZN10guest_view13GuestViewBase15UpdateTargetURLEPN7content11WebContentsERK4GURL(%"class.guest_view::GuestViewBase"* nocapture readonly, %"class.content::WebContents"* nocapture readnone, %class.GURL* dereferenceable(120)) unnamed_addr #1 align 2 {
  %4 = getelementptr inbounds %"class.guest_view::GuestViewBase", %"class.guest_view::GuestViewBase"* %0, i64 0, i32 9
  %5 = load i32, i32* %4, align 8
  %6 = load i32, i32* @_ZN10guest_view15kInstanceIDNoneE, align 4
  %7 = icmp eq i32 %5, %6
  br i1 %7, label %62, label %8

8:                                                ; preds = %3
  %9 = getelementptr inbounds %"class.guest_view::GuestViewBase", %"class.guest_view::GuestViewBase"* %0, i64 0, i32 10
  %10 = load i8, i8* %9, align 4, !range !7
  %11 = icmp eq i8 %10, 0
  br i1 %11, label %12, label %62

12:                                               ; preds = %8
  %13 = getelementptr inbounds %"class.guest_view::GuestViewBase", %"class.guest_view::GuestViewBase"* %0, i64 0, i32 12
  %14 = load i8, i8* %13, align 2, !range !7
  %15 = icmp eq i8 %14, 0
  br i1 %15, label %16, label %62

16:                                               ; preds = %12
  %17 = getelementptr inbounds %"class.guest_view::GuestViewBase", %"class.guest_view::GuestViewBase"* %0, i64 0, i32 4
  %18 = load %"class.content::WebContents"*, %"class.content::WebContents"** %17, align 8
  %19 = bitcast %"class.content::WebContents"* %18 to %"class.content::WebContentsDelegate"* (%"class.content::WebContents"*)***
  %20 = load %"class.content::WebContentsDelegate"* (%"class.content::WebContents"*)**, %"class.content::WebContentsDelegate"* (%"class.content::WebContents"*)*** %19, align 8
  %21 = getelementptr inbounds %"class.content::WebContentsDelegate"* (%"class.content::WebContents"*)*, %"class.content::WebContentsDelegate"* (%"class.content::WebContents"*)** %20, i64 3
  %22 = load %"class.content::WebContentsDelegate"* (%"class.content::WebContents"*)*, %"class.content::WebContentsDelegate"* (%"class.content::WebContents"*)** %21, align 8
  %23 = tail call %"class.content::WebContentsDelegate"* %22(%"class.content::WebContents"* %18) #17
  %24 = icmp eq %"class.content::WebContentsDelegate"* %23, null
  br i1 %24, label %62, label %25

25:                                               ; preds = %16
  %26 = load i32, i32* %4, align 8
  %27 = icmp eq i32 %26, %6
  br i1 %27, label %38, label %28

28:                                               ; preds = %25
  %29 = load i8, i8* %9, align 4, !range !7
  %30 = icmp eq i8 %29, 0
  br i1 %30, label %31, label %38

31:                                               ; preds = %28
  %32 = load i8, i8* %13, align 2, !range !7
  %33 = icmp eq i8 %32, 0
  br i1 %33, label %34, label %38

34:                                               ; preds = %31
  %35 = getelementptr inbounds %"class.guest_view::GuestViewBase", %"class.guest_view::GuestViewBase"* %0, i64 0, i32 4
  %36 = load %"class.content::WebContents"*, %"class.content::WebContents"** %35, align 8
  %37 = bitcast %"class.content::WebContents"* %36 to %"class.content::WebContentsDelegate"* (%"class.content::WebContents"*)***
  br label %38

38:                                               ; preds = %25, %28, %31, %34
  %39 = phi %"class.content::WebContentsDelegate"* (%"class.content::WebContents"*)*** [ %37, %34 ], [ null, %31 ], [ null, %28 ], [ null, %25 ]
  %40 = phi %"class.content::WebContents"* [ %36, %34 ], [ null, %31 ], [ null, %28 ], [ null, %25 ]
  %41 = load %"class.content::WebContentsDelegate"* (%"class.content::WebContents"*)**, %"class.content::WebContentsDelegate"* (%"class.content::WebContents"*)*** %39, align 8
  %42 = getelementptr inbounds %"class.content::WebContentsDelegate"* (%"class.content::WebContents"*)*, %"class.content::WebContentsDelegate"* (%"class.content::WebContents"*)** %41, i64 3
  %43 = load %"class.content::WebContentsDelegate"* (%"class.content::WebContents"*)*, %"class.content::WebContentsDelegate"* (%"class.content::WebContents"*)** %42, align 8
  %44 = tail call %"class.content::WebContentsDelegate"* %43(%"class.content::WebContents"* %40) #17
  %45 = load i32, i32* %4, align 8
  %46 = icmp eq i32 %45, %6
  br i1 %46, label %56, label %47

47:                                               ; preds = %38
  %48 = load i8, i8* %9, align 4, !range !7
  %49 = icmp eq i8 %48, 0
  br i1 %49, label %50, label %56

50:                                               ; preds = %47
  %51 = load i8, i8* %13, align 2, !range !7
  %52 = icmp eq i8 %51, 0
  br i1 %52, label %53, label %56

53:                                               ; preds = %50
  %54 = getelementptr inbounds %"class.guest_view::GuestViewBase", %"class.guest_view::GuestViewBase"* %0, i64 0, i32 4
  %55 = load %"class.content::WebContents"*, %"class.content::WebContents"** %54, align 8
  br label %56

56:                                               ; preds = %38, %47, %50, %53
  %57 = phi %"class.content::WebContents"* [ %55, %53 ], [ null, %50 ], [ null, %47 ], [ null, %38 ]
  %58 = bitcast %"class.content::WebContentsDelegate"* %44 to void (%"class.content::WebContentsDelegate"*, %"class.content::WebContents"*, %class.GURL*)***
  %59 = load void (%"class.content::WebContentsDelegate"*, %"class.content::WebContents"*, %class.GURL*)**, void (%"class.content::WebContentsDelegate"*, %"class.content::WebContents"*, %class.GURL*)*** %58, align 8
  %60 = getelementptr inbounds void (%"class.content::WebContentsDelegate"*, %"class.content::WebContents"*, %class.GURL*)*, void (%"class.content::WebContentsDelegate"*, %"class.content::WebContents"*, %class.GURL*)** %59, i64 9
  %61 = load void (%"class.content::WebContentsDelegate"*, %"class.content::WebContents"*, %class.GURL*)*, void (%"class.content::WebContentsDelegate"*, %"class.content::WebContents"*, %class.GURL*)** %60, align 8
  tail call void %61(%"class.content::WebContentsDelegate"* %44, %"class.content::WebContents"* %57, %class.GURL* dereferenceable(120) %2) #17
  br label %62

62:                                               ; preds = %3, %8, %16, %12, %56
  ret void
}

; Function Attrs: nounwind ssp uwtable
define hidden void @_ZThn8_N10guest_view13GuestViewBase15UpdateTargetURLEPN7content11WebContentsERK4GURL(%"class.guest_view::GuestViewBase"* nocapture readonly, %"class.content::WebContents"* nocapture readnone, %class.GURL* dereferenceable(120)) unnamed_addr #1 align 2 {
  %4 = getelementptr inbounds %"class.guest_view::GuestViewBase", %"class.guest_view::GuestViewBase"* %0, i64 -1, i32 25, i32 0, i32 1
  %5 = bitcast i64* %4 to %"class.guest_view::GuestViewBase"*
  %6 = getelementptr inbounds i64, i64* %4, i64 14
  %7 = bitcast i64* %6 to i32*
  %8 = load i32, i32* %7, align 8
  %9 = load i32, i32* @_ZN10guest_view15kInstanceIDNoneE, align 4
  %10 = icmp eq i32 %8, %9
  br i1 %10, label %64, label %11

11:                                               ; preds = %3
  %12 = getelementptr inbounds %"class.guest_view::GuestViewBase", %"class.guest_view::GuestViewBase"* %5, i64 0, i32 10
  %13 = load i8, i8* %12, align 4, !range !7
  %14 = icmp eq i8 %13, 0
  br i1 %14, label %15, label %64

15:                                               ; preds = %11
  %16 = getelementptr inbounds %"class.guest_view::GuestViewBase", %"class.guest_view::GuestViewBase"* %5, i64 0, i32 12
  %17 = load i8, i8* %16, align 2, !range !7
  %18 = icmp eq i8 %17, 0
  br i1 %18, label %19, label %64

19:                                               ; preds = %15
  %20 = getelementptr inbounds i64, i64* %4, i64 8
  %21 = bitcast i64* %20 to %"class.content::WebContents"**
  %22 = load %"class.content::WebContents"*, %"class.content::WebContents"** %21, align 8
  %23 = bitcast %"class.content::WebContents"* %22 to %"class.content::WebContentsDelegate"* (%"class.content::WebContents"*)***
  %24 = load %"class.content::WebContentsDelegate"* (%"class.content::WebContents"*)**, %"class.content::WebContentsDelegate"* (%"class.content::WebContents"*)*** %23, align 8
  %25 = getelementptr inbounds %"class.content::WebContentsDelegate"* (%"class.content::WebContents"*)*, %"class.content::WebContentsDelegate"* (%"class.content::WebContents"*)** %24, i64 3
  %26 = load %"class.content::WebContentsDelegate"* (%"class.content::WebContents"*)*, %"class.content::WebContentsDelegate"* (%"class.content::WebContents"*)** %25, align 8
  %27 = tail call %"class.content::WebContentsDelegate"* %26(%"class.content::WebContents"* %22) #17
  %28 = icmp eq %"class.content::WebContentsDelegate"* %27, null
  br i1 %28, label %64, label %29

29:                                               ; preds = %19
  %30 = load i32, i32* %7, align 8
  %31 = icmp eq i32 %30, %9
  br i1 %31, label %41, label %32

32:                                               ; preds = %29
  %33 = load i8, i8* %12, align 4, !range !7
  %34 = icmp eq i8 %33, 0
  br i1 %34, label %35, label %41

35:                                               ; preds = %32
  %36 = load i8, i8* %16, align 2, !range !7
  %37 = icmp eq i8 %36, 0
  br i1 %37, label %38, label %41

38:                                               ; preds = %35
  %39 = load %"class.content::WebContents"*, %"class.content::WebContents"** %21, align 8
  %40 = bitcast %"class.content::WebContents"* %39 to %"class.content::WebContentsDelegate"* (%"class.content::WebContents"*)***
  br label %41

41:                                               ; preds = %38, %35, %32, %29
  %42 = phi %"class.content::WebContentsDelegate"* (%"class.content::WebContents"*)*** [ %40, %38 ], [ null, %35 ], [ null, %32 ], [ null, %29 ]
  %43 = phi %"class.content::WebContents"* [ %39, %38 ], [ null, %35 ], [ null, %32 ], [ null, %29 ]
  %44 = load %"class.content::WebContentsDelegate"* (%"class.content::WebContents"*)**, %"class.content::WebContentsDelegate"* (%"class.content::WebContents"*)*** %42, align 8
  %45 = getelementptr inbounds %"class.content::WebContentsDelegate"* (%"class.content::WebContents"*)*, %"class.content::WebContentsDelegate"* (%"class.content::WebContents"*)** %44, i64 3
  %46 = load %"class.content::WebContentsDelegate"* (%"class.content::WebContents"*)*, %"class.content::WebContentsDelegate"* (%"class.content::WebContents"*)** %45, align 8
  %47 = tail call %"class.content::WebContentsDelegate"* %46(%"class.content::WebContents"* %43) #17
  %48 = load i32, i32* %7, align 8
  %49 = icmp eq i32 %48, %9
  br i1 %49, label %58, label %50

50:                                               ; preds = %41
  %51 = load i8, i8* %12, align 4, !range !7
  %52 = icmp eq i8 %51, 0
  br i1 %52, label %53, label %58

53:                                               ; preds = %50
  %54 = load i8, i8* %16, align 2, !range !7
  %55 = icmp eq i8 %54, 0
  br i1 %55, label %56, label %58

56:                                               ; preds = %53
  %57 = load %"class.content::WebContents"*, %"class.content::WebContents"** %21, align 8
  br label %58

58:                                               ; preds = %56, %53, %50, %41
  %59 = phi %"class.content::WebContents"* [ %57, %56 ], [ null, %53 ], [ null, %50 ], [ null, %41 ]
  %60 = bitcast %"class.content::WebContentsDelegate"* %47 to void (%"class.content::WebContentsDelegate"*, %"class.content::WebContents"*, %class.GURL*)***
  %61 = load void (%"class.content::WebContentsDelegate"*, %"class.content::WebContents"*, %class.GURL*)**, void (%"class.content::WebContentsDelegate"*, %"class.content::WebContents"*, %class.GURL*)*** %60, align 8
  %62 = getelementptr inbounds void (%"class.content::WebContentsDelegate"*, %"class.content::WebContents"*, %class.GURL*)*, void (%"class.content::WebContentsDelegate"*, %"class.content::WebContents"*, %class.GURL*)** %61, i64 9
  %63 = load void (%"class.content::WebContentsDelegate"*, %"class.content::WebContents"*, %class.GURL*)*, void (%"class.content::WebContentsDelegate"*, %"class.content::WebContents"*, %class.GURL*)** %62, align 8
  tail call void %63(%"class.content::WebContentsDelegate"* %47, %"class.content::WebContents"* %59, %class.GURL* dereferenceable(120) %2) #17
  br label %64

64:                                               ; preds = %3, %11, %15, %19, %58
  ret void
}

; Function Attrs: norecurse nounwind readnone ssp uwtable
define hidden zeroext i1 @_ZN10guest_view13GuestViewBase36ShouldResumeRequestsForCreatedWindowEv(%"class.guest_view::GuestViewBase"* nocapture readnone) unnamed_addr #7 align 2 {
  ret i1 false
}

; Function Attrs: norecurse nounwind readnone ssp uwtable
define hidden zeroext i1 @_ZThn8_N10guest_view13GuestViewBase36ShouldResumeRequestsForCreatedWindowEv(%"class.guest_view::GuestViewBase"* nocapture readnone) unnamed_addr #7 align 2 {
  ret i1 false
}

; Function Attrs: nounwind ssp uwtable
define hidden %"class.content::RenderWidgetHost"* @_ZN10guest_view13GuestViewBase24GetOwnerRenderWidgetHostEv(%"class.guest_view::GuestViewBase"* nocapture readonly) unnamed_addr #1 align 2 {
  %2 = getelementptr inbounds %"class.guest_view::GuestViewBase", %"class.guest_view::GuestViewBase"* %0, i64 0, i32 4
  %3 = load %"class.content::WebContents"*, %"class.content::WebContents"** %2, align 8
  %4 = icmp eq %"class.content::WebContents"* %3, null
  br i1 %4, label %22, label %5

5:                                                ; preds = %1
  %6 = bitcast %"class.content::WebContents"* %3 to %"class.content::RenderWidgetHostView"* (%"class.content::WebContents"*)***
  %7 = load %"class.content::RenderWidgetHostView"* (%"class.content::WebContents"*)**, %"class.content::RenderWidgetHostView"* (%"class.content::WebContents"*)*** %6, align 8
  %8 = getelementptr inbounds %"class.content::RenderWidgetHostView"* (%"class.content::WebContents"*)*, %"class.content::RenderWidgetHostView"* (%"class.content::WebContents"*)** %7, i64 20
  %9 = load %"class.content::RenderWidgetHostView"* (%"class.content::WebContents"*)*, %"class.content::RenderWidgetHostView"* (%"class.content::WebContents"*)** %8, align 8
  %10 = tail call %"class.content::RenderWidgetHostView"* %9(%"class.content::WebContents"* nonnull %3) #17
  %11 = icmp eq %"class.content::RenderWidgetHostView"* %10, null
  br i1 %11, label %22, label %12

12:                                               ; preds = %5
  %13 = load %"class.content::RenderWidgetHostView"* (%"class.content::WebContents"*)**, %"class.content::RenderWidgetHostView"* (%"class.content::WebContents"*)*** %6, align 8
  %14 = getelementptr inbounds %"class.content::RenderWidgetHostView"* (%"class.content::WebContents"*)*, %"class.content::RenderWidgetHostView"* (%"class.content::WebContents"*)** %13, i64 20
  %15 = load %"class.content::RenderWidgetHostView"* (%"class.content::WebContents"*)*, %"class.content::RenderWidgetHostView"* (%"class.content::WebContents"*)** %14, align 8
  %16 = tail call %"class.content::RenderWidgetHostView"* %15(%"class.content::WebContents"* nonnull %3) #17
  %17 = bitcast %"class.content::RenderWidgetHostView"* %16 to %"class.content::RenderWidgetHost"* (%"class.content::RenderWidgetHostView"*)***
  %18 = load %"class.content::RenderWidgetHost"* (%"class.content::RenderWidgetHostView"*)**, %"class.content::RenderWidgetHost"* (%"class.content::RenderWidgetHostView"*)*** %17, align 8
  %19 = getelementptr inbounds %"class.content::RenderWidgetHost"* (%"class.content::RenderWidgetHostView"*)*, %"class.content::RenderWidgetHost"* (%"class.content::RenderWidgetHostView"*)** %18, i64 3
  %20 = load %"class.content::RenderWidgetHost"* (%"class.content::RenderWidgetHostView"*)*, %"class.content::RenderWidgetHost"* (%"class.content::RenderWidgetHostView"*)** %19, align 8
  %21 = tail call %"class.content::RenderWidgetHost"* %20(%"class.content::RenderWidgetHostView"* %16) #17
  br label %22

22:                                               ; preds = %1, %5, %12
  %23 = phi %"class.content::RenderWidgetHost"* [ %21, %12 ], [ null, %5 ], [ null, %1 ]
  ret %"class.content::RenderWidgetHost"* %23
}

; Function Attrs: nounwind ssp uwtable
define hidden %"class.content::SiteInstance"* @_ZN10guest_view13GuestViewBase20GetOwnerSiteInstanceEv(%"class.guest_view::GuestViewBase"* nocapture readonly) unnamed_addr #1 align 2 {
  %2 = getelementptr inbounds %"class.guest_view::GuestViewBase", %"class.guest_view::GuestViewBase"* %0, i64 0, i32 4
  %3 = load %"class.content::WebContents"*, %"class.content::WebContents"** %2, align 8
  %4 = icmp eq %"class.content::WebContents"* %3, null
  br i1 %4, label %11, label %5

5:                                                ; preds = %1
  %6 = bitcast %"class.content::WebContents"* %3 to %"class.content::SiteInstance"* (%"class.content::WebContents"*)***
  %7 = load %"class.content::SiteInstance"* (%"class.content::WebContents"*)**, %"class.content::SiteInstance"* (%"class.content::WebContents"*)*** %6, align 8
  %8 = getelementptr inbounds %"class.content::SiteInstance"* (%"class.content::WebContents"*)*, %"class.content::SiteInstance"* (%"class.content::WebContents"*)** %7, i64 40
  %9 = load %"class.content::SiteInstance"* (%"class.content::WebContents"*)*, %"class.content::SiteInstance"* (%"class.content::WebContents"*)** %8, align 8
  %10 = tail call %"class.content::SiteInstance"* %9(%"class.content::WebContents"* nonnull %3) #17
  br label %11

11:                                               ; preds = %1, %5
  %12 = phi %"class.content::SiteInstance"* [ %10, %5 ], [ null, %1 ]
  ret %"class.content::SiteInstance"* %12
}

; Function Attrs: nounwind ssp uwtable
define hidden void @_ZN10guest_view13GuestViewBase29AttachToOuterWebContentsFrameEPN7content15RenderFrameHostEib(%"class.guest_view::GuestViewBase"*, %"class.content::RenderFrameHost"*, i32, i1 zeroext) local_unnamed_addr #1 align 2 {
  %5 = alloca %"class.base::internal::WeakReference", align 8
  %6 = alloca %"class.base::OnceCallback.180", align 8
  %7 = alloca %"class.base::WeakPtr", align 8
  %8 = alloca %"class.base::OnceCallback.180", align 8
  %9 = bitcast %"class.base::OnceCallback.180"* %6 to i8*
  call void @llvm.lifetime.start.p0i8(i64 8, i8* nonnull %9) #17
  %10 = getelementptr inbounds %"class.base::OnceCallback.180", %"class.base::OnceCallback.180"* %6, i64 0, i32 0, i32 0, i32 0
  %11 = bitcast %"class.base::WeakPtr"* %7 to i8*
  call void @llvm.lifetime.start.p0i8(i64 16, i8* nonnull %11) #17
  %12 = bitcast %"class.base::internal::WeakReference"* %5 to i8*
  call void @llvm.lifetime.start.p0i8(i64 8, i8* nonnull %12) #17, !noalias !19
  %13 = getelementptr inbounds %"class.guest_view::GuestViewBase", %"class.guest_view::GuestViewBase"* %0, i64 0, i32 25, i32 0, i32 0
  call void @_ZNK4base8internal18WeakReferenceOwner6GetRefEv(%"class.base::internal::WeakReference"* nonnull sret %5, %"class.base::internal::WeakReferenceOwner"* %13) #17, !noalias !19
  %14 = getelementptr inbounds %"class.guest_view::GuestViewBase", %"class.guest_view::GuestViewBase"* %0, i64 0, i32 25, i32 0, i32 1
  %15 = load i64, i64* %14, align 8, !noalias !19
  %16 = getelementptr inbounds %"class.base::WeakPtr", %"class.base::WeakPtr"* %7, i64 0, i32 0
  call void @_ZN4base8internal11WeakPtrBaseC2ERKNS0_13WeakReferenceEm(%"class.base::internal::WeakPtrBase"* nonnull %16, %"class.base::internal::WeakReference"* nonnull dereferenceable(8) %5, i64 %15) #17
  call void @_ZN4base8internal13WeakReferenceD1Ev(%"class.base::internal::WeakReference"* nonnull %5) #17
  call void @llvm.lifetime.end.p0i8(i64 8, i8* nonnull %12) #17, !noalias !19
  %17 = call i8* @_Znwm(i64 64) #16, !noalias !22
  %18 = bitcast i8* %17 to %"class.base::internal::BindStateBase"*
  call void @_ZN4base8internal13BindStateBaseC2EPFvvEPFvPKS1_EPFbS5_NS1_21CancellationQueryModeEE(%"class.base::internal::BindStateBase"* nonnull %18, void ()* bitcast (void (%"class.base::internal::BindStateBase"*)* @_ZN4base8internal7InvokerINS0_9BindStateIMN10guest_view13GuestViewBaseEFvvEJNS_7WeakPtrIS4_EEEEEFvvEE7RunOnceEPNS0_13BindStateBaseE to void ()*), void (%"class.base::internal::BindStateBase"*)* nonnull @_ZN4base8internal9BindStateIMN10guest_view13GuestViewBaseEFvvEJNS_7WeakPtrIS3_EEEE7DestroyEPKNS0_13BindStateBaseE, i1 (%"class.base::internal::BindStateBase"*, i32)* nonnull @_ZN4base8internal23QueryCancellationTraitsINS0_9BindStateIMN10guest_view13GuestViewBaseEFvvEJNS_7WeakPtrIS4_EEEEEEEbPKNS0_13BindStateBaseENSA_21CancellationQueryModeE) #17, !noalias !22
  %19 = getelementptr inbounds i8, i8* %17, i64 32
  %20 = bitcast i8* %19 to <2 x i64>*
  store <2 x i64> <i64 ptrtoint (void (%"class.guest_view::GuestViewBase"*)* @_ZN10guest_view13GuestViewBase9DidAttachEv to i64), i64 0>, <2 x i64>* %20, align 8, !noalias !22
  %21 = getelementptr inbounds i8, i8* %17, i64 48
  %22 = bitcast i8* %21 to %"class.base::internal::WeakReference"*
  %23 = getelementptr inbounds %"class.base::WeakPtr", %"class.base::WeakPtr"* %7, i64 0, i32 0, i32 0
  call void @_ZN4base8internal13WeakReferenceC1EOS1_(%"class.base::internal::WeakReference"* %22, %"class.base::internal::WeakReference"* nonnull dereferenceable(8) %23) #17, !noalias !22
  %24 = getelementptr inbounds i8, i8* %17, i64 56
  %25 = bitcast i8* %24 to i64*
  %26 = getelementptr inbounds %"class.base::WeakPtr", %"class.base::WeakPtr"* %7, i64 0, i32 0, i32 1
  %27 = load i64, i64* %26, align 8, !noalias !22
  store i64 %27, i64* %25, align 8, !noalias !22
  call void @_ZN4base8internal11WeakPtrBaseD2Ev(%"class.base::internal::WeakPtrBase"* nonnull %16) #17
  call void @llvm.lifetime.end.p0i8(i64 16, i8* nonnull %11) #17
  %28 = call %"class.content::WebContents"* @_ZN7content11WebContents19FromRenderFrameHostEPNS_15RenderFrameHostE(%"class.content::RenderFrameHost"* %1) #17
  %29 = ptrtoint i8* %17 to i64
  %30 = bitcast %"class.base::OnceCallback.180"* %8 to i64*
  store i64 %29, i64* %30, align 8
  store %"class.base::internal::BindStateBase"* null, %"class.base::internal::BindStateBase"** %10, align 8
  call void @_ZN10guest_view13GuestViewBase10WillAttachEPN7content11WebContentsEPNS1_15RenderFrameHostEibN4base12OnceCallbackIFvvEEE(%"class.guest_view::GuestViewBase"* %0, %"class.content::WebContents"* %28, %"class.content::RenderFrameHost"* %1, i32 %2, i1 zeroext %3, %"class.base::OnceCallback.180"* nonnull %8)
  %31 = getelementptr inbounds %"class.base::OnceCallback.180", %"class.base::OnceCallback.180"* %8, i64 0, i32 0
  call void @_ZN4base8internal12CallbackBaseD2Ev(%"class.base::internal::CallbackBase"* nonnull %31) #17
  %32 = getelementptr inbounds %"class.base::OnceCallback.180", %"class.base::OnceCallback.180"* %6, i64 0, i32 0
  call void @_ZN4base8internal12CallbackBaseD2Ev(%"class.base::internal::CallbackBase"* nonnull %32) #17
  call void @llvm.lifetime.end.p0i8(i64 8, i8* nonnull %9) #17
  ret void
}

declare %"class.content::WebContents"* @_ZN7content11WebContents19FromRenderFrameHostEPNS_15RenderFrameHostE(%"class.content::RenderFrameHost"*) local_unnamed_addr #2

; Function Attrs: nounwind ssp uwtable
define hidden void @_ZN10guest_view13GuestViewBase13OnZoomChangedERKN4zoom14ZoomController20ZoomChangedEventDataE(%"class.guest_view::GuestViewBase"*, %"struct.zoom::ZoomController::ZoomChangedEventData"* nocapture readonly dereferenceable(32)) unnamed_addr #1 align 2 {
  %3 = getelementptr inbounds %"struct.zoom::ZoomController::ZoomChangedEventData", %"struct.zoom::ZoomController::ZoomChangedEventData"* %1, i64 0, i32 0
  %4 = load %"class.content::WebContents"*, %"class.content::WebContents"** %3, align 8
  %5 = getelementptr inbounds %"class.guest_view::GuestViewBase", %"class.guest_view::GuestViewBase"* %0, i64 0, i32 9
  %6 = load i32, i32* %5, align 8
  %7 = load i32, i32* @_ZN10guest_view15kInstanceIDNoneE, align 4
  %8 = icmp eq i32 %6, %7
  br i1 %8, label %20, label %9

9:                                                ; preds = %2
  %10 = getelementptr inbounds %"class.guest_view::GuestViewBase", %"class.guest_view::GuestViewBase"* %0, i64 0, i32 10
  %11 = load i8, i8* %10, align 4, !range !7
  %12 = icmp eq i8 %11, 0
  br i1 %12, label %13, label %20

13:                                               ; preds = %9
  %14 = getelementptr inbounds %"class.guest_view::GuestViewBase", %"class.guest_view::GuestViewBase"* %0, i64 0, i32 12
  %15 = load i8, i8* %14, align 2, !range !7
  %16 = icmp eq i8 %15, 0
  br i1 %16, label %17, label %20

17:                                               ; preds = %13
  %18 = getelementptr inbounds %"class.guest_view::GuestViewBase", %"class.guest_view::GuestViewBase"* %0, i64 0, i32 4
  %19 = load %"class.content::WebContents"*, %"class.content::WebContents"** %18, align 8
  br label %20

20:                                               ; preds = %2, %9, %13, %17
  %21 = phi %"class.content::WebContents"* [ %19, %17 ], [ null, %13 ], [ null, %9 ], [ null, %2 ]
  %22 = icmp eq %"class.content::WebContents"* %4, %21
  %23 = getelementptr inbounds %"class.guest_view::GuestViewBase", %"class.guest_view::GuestViewBase"* %0, i64 0, i32 2
  %24 = tail call %"class.content::WebContents"* @_ZNK7content19WebContentsObserver12web_contentsEv(%"class.content::WebContentsObserver"* %23) #17
  br i1 %22, label %25, label %40

25:                                               ; preds = %20
  %26 = getelementptr inbounds %"class.content::WebContents", %"class.content::WebContents"* %24, i64 0, i32 1
  %27 = bitcast %"class.base::SupportsUserData.base"* %26 to %"class.base::SupportsUserData"*
  %28 = tail call %"class.base::SupportsUserData::Data"* @_ZNK4base16SupportsUserData11GetUserDataEPKv(%"class.base::SupportsUserData"* %27, i8* bitcast (i32* @_ZN4zoom14ZoomController12kUserDataKeyE to i8*)) #17
  %29 = icmp eq %"class.base::SupportsUserData::Data"* %28, null
  %30 = getelementptr inbounds %"class.base::SupportsUserData::Data", %"class.base::SupportsUserData::Data"* %28, i64 -2
  %31 = bitcast %"class.base::SupportsUserData::Data"* %30 to %"class.zoom::ZoomController"*
  %32 = select i1 %29, %"class.zoom::ZoomController"* null, %"class.zoom::ZoomController"* %31
  %33 = getelementptr inbounds %"struct.zoom::ZoomController::ZoomChangedEventData", %"struct.zoom::ZoomController::ZoomChangedEventData"* %1, i64 0, i32 2
  %34 = load double, double* %33, align 8
  %35 = tail call double @_ZNK4zoom14ZoomController12GetZoomLevelEv(%"class.zoom::ZoomController"* %32) #17
  %36 = tail call zeroext i1 @_ZN5blink19PageZoomValuesEqualEdd(double %34, double %35) #17
  br i1 %36, label %51, label %37

37:                                               ; preds = %25
  %38 = load double, double* %33, align 8
  %39 = tail call zeroext i1 @_ZN4zoom14ZoomController12SetZoomLevelEd(%"class.zoom::ZoomController"* %32, double %38) #17
  br label %51

40:                                               ; preds = %20
  %41 = icmp eq %"class.content::WebContents"* %4, %24
  br i1 %41, label %42, label %51

42:                                               ; preds = %40
  %43 = getelementptr inbounds %"struct.zoom::ZoomController::ZoomChangedEventData", %"struct.zoom::ZoomController::ZoomChangedEventData"* %1, i64 0, i32 1
  %44 = load double, double* %43, align 8
  %45 = getelementptr inbounds %"struct.zoom::ZoomController::ZoomChangedEventData", %"struct.zoom::ZoomController::ZoomChangedEventData"* %1, i64 0, i32 2
  %46 = load double, double* %45, align 8
  %47 = bitcast %"class.guest_view::GuestViewBase"* %0 to void (%"class.guest_view::GuestViewBase"*, double, double)***
  %48 = load void (%"class.guest_view::GuestViewBase"*, double, double)**, void (%"class.guest_view::GuestViewBase"*, double, double)*** %47, align 8
  %49 = getelementptr inbounds void (%"class.guest_view::GuestViewBase"*, double, double)*, void (%"class.guest_view::GuestViewBase"*, double, double)** %48, i64 27
  %50 = load void (%"class.guest_view::GuestViewBase"*, double, double)*, void (%"class.guest_view::GuestViewBase"*, double, double)** %49, align 8
  tail call void %50(%"class.guest_view::GuestViewBase"* %0, double %44, double %46) #17
  br label %51

51:                                               ; preds = %37, %25, %42, %40
  ret void
}

declare zeroext i1 @_ZN5blink19PageZoomValuesEqualEdd(double, double) local_unnamed_addr #2

declare double @_ZNK4zoom14ZoomController12GetZoomLevelEv(%"class.zoom::ZoomController"*) local_unnamed_addr #2

declare zeroext i1 @_ZN4zoom14ZoomController12SetZoomLevelEd(%"class.zoom::ZoomController"*, double) local_unnamed_addr #2

; Function Attrs: nounwind ssp uwtable
define hidden void @_ZThn56_N10guest_view13GuestViewBase13OnZoomChangedERKN4zoom14ZoomController20ZoomChangedEventDataE(%"class.guest_view::GuestViewBase"*, %"struct.zoom::ZoomController::ZoomChangedEventData"* nocapture readonly dereferenceable(32)) unnamed_addr #1 align 2 {
  %3 = getelementptr inbounds %"class.guest_view::GuestViewBase", %"class.guest_view::GuestViewBase"* %0, i64 -1, i32 19
  %4 = bitcast %"class.content::GuestHost"** %3 to %"class.guest_view::GuestViewBase"*
  tail call void @_ZN10guest_view13GuestViewBase13OnZoomChangedERKN4zoom14ZoomController20ZoomChangedEventDataE(%"class.guest_view::GuestViewBase"* %4, %"struct.zoom::ZoomController::ZoomChangedEventData"* dereferenceable(32) %1)
  ret void
}

declare void @_ZN10guest_view14GuestViewEvent8DispatchEPNS_13GuestViewBaseEi(%"class.guest_view::GuestViewEvent"*, %"class.guest_view::GuestViewBase"*, i32) local_unnamed_addr #2

; Function Attrs: nounwind ssp uwtable
define hidden void @_ZN10guest_view13GuestViewBase19DispatchEventToViewENSt3__110unique_ptrINS_14GuestViewEventENS1_14default_deleteIS3_EEEE(%"class.guest_view::GuestViewBase"*, %"class.guest_view::GuestViewEvent"*) local_unnamed_addr #1 align 2 {
  %3 = ptrtoint %"class.guest_view::GuestViewEvent"* %1 to i64
  %4 = getelementptr inbounds %"class.guest_view::GuestViewBase", %"class.guest_view::GuestViewBase"* %0, i64 0, i32 9
  %5 = load i32, i32* %4, align 8
  %6 = load i32, i32* @_ZN10guest_view15kInstanceIDNoneE, align 4
  %7 = icmp eq i32 %5, %6
  br i1 %7, label %22, label %8

